 OPOSGraphicDisplay

 Timestamp is 600f7b86 (Tue Jan 26 11:16:38 2021)

 Preferred load address is 10000000

 Start         Length     Name                   Class
 0001:00000000 00000d90H .text$di                CODE
 0001:00000d90 000a9a40H .text$mn                CODE
 0001:000aa7d0 000001c0H .text$x                 CODE
 0001:000aa990 00000120H .text$yd                CODE
 0002:00000000 00000358H .idata$5                DATA
 0002:00000358 00000008H .00cfg                  DATA
 0002:00000360 00000004H .CRT$XCA                DATA
 0002:00000364 00000004H .CRT$XCL                DATA
 0002:00000368 0000006cH .CRT$XCU                DATA
 0002:000003d4 00000004H .CRT$XCZ                DATA
 0002:000003d8 00000004H .CRT$XIA                DATA
 0002:000003dc 00000014H .CRT$XIC                DATA
 0002:000003f0 00000004H .CRT$XIZ                DATA
 0002:000003f4 00000004H .CRT$XLA                DATA
 0002:000003f8 00000004H .CRT$XLZ                DATA
 0002:000003fc 00000004H .CRT$XPA                DATA
 0002:00000400 00000008H .CRT$XPX                DATA
 0002:00000408 00000004H .CRT$XPXA               DATA
 0002:0000040c 00000004H .CRT$XPZ                DATA
 0002:00000410 00000004H .CRT$XTA                DATA
 0002:00000414 0000000cH .CRT$XTZ                DATA
 0002:00000418 00000000H .gfids$y                DATA
 0002:00000420 0002ffe0H .rdata                  DATA
 0002:00030400 00000004H .rdata$CastGuardVftablesA DATA
 0002:00030404 00000004H .rdata$CastGuardVftablesC DATA
 0002:00030408 00000018H .rdata$T                DATA
 0002:00030420 0000033cH .rdata$r                DATA
 0002:0003075c 00000044H .rdata$sxdata           DATA
 0002:000307a0 00000450H .rdata$zzzdbg           DATA
 0002:00030bf0 00000004H .rtc$IAA                DATA
 0002:00030bf4 00000018H .rtc$IMZ                DATA
 0002:00030c0c 00000004H .rtc$IZZ                DATA
 0002:00030c10 00000004H .rtc$TAA                DATA
 0002:00030c14 00000018H .rtc$TMZ                DATA
 0002:00030c2c 00000004H .rtc$TZZ                DATA
 0002:00030c30 00000004H .tls                    DATA
 0002:00030c34 00000004H .tls$                   DATA
 0002:00030c38 00000008H .tls$ZZZ                DATA
 0002:00030c40 00000e4cH .xdata$x                DATA
 0002:00031a8c 00000004H ATL$__a                 DATA
 0002:00031a90 00000010H ATL$__z                 DATA
 0002:00031aa0 000000b0H .edata                  DATA
 0002:00031b50 00000078H .idata$2                DATA
 0002:00031bc8 00000014H .idata$3                DATA
 0002:00031bdc 00000358H .idata$4                DATA
 0002:00031f34 00000d56H .idata$6                DATA
 0003:00000000 00000ba0H .data                   DATA
 0003:00000ba0 00000138H .data$r                 DATA
 0003:00000cd8 00003588H .bss                    DATA
 0004:00000000 00000220H .rsrc$01                DATA
 0004:00000220 00004350H .rsrc$02                DATA

  Address         Publics by Value              Rva+Base       Lib:Object

 0000:00000000       ___arm64x_native_entrypoint 00000000     <absolute>
 0000:00000000       ___arm64x_redirection_metadata_count 00000000     <absolute>
 0000:00000000       ___arm64x_redirection_metadata 00000000     <absolute>
 0000:00000000       ___x64_code_ranges_to_entry_points_count 00000000     <absolute>
 0000:00000000       ___hybrid_auxiliary_iat    00000000     <absolute>
 0000:00000000       ___guard_eh_cont_count     00000000     <absolute>
 0000:00000000       ___guard_longjmp_count     00000000     <absolute>
 0000:00000000       __except_list              00000000     <absolute>
 0000:00000000       ___guard_longjmp_table     00000000     <absolute>
 0000:00000000       ___arm64x_extra_rfe_table_size 00000000     <absolute>
 0000:00000000       ___guard_iat_table         00000000     <absolute>
 0000:00000000       ___guard_eh_cont_table     00000000     <absolute>
 0000:00000000       ___guard_fids_count        00000000     <absolute>
 0000:00000000       ___hybrid_code_map         00000000     <absolute>
 0000:00000000       ___x64_code_ranges_to_entry_points 00000000     <absolute>
 0000:00000000       ___hybrid_code_map_count   00000000     <absolute>
 0000:00000000       ___arm64x_extra_rfe_table  00000000     <absolute>
 0000:00000000       ___dynamic_value_reloc_table 00000000     <absolute>
 0000:00000000       ___volatile_metadata       00000000     <absolute>
 0000:00000000       ___enclave_config          00000000     <absolute>
 0000:00000000       ___guard_fids_table        00000000     <absolute>
 0000:00000000       ___guard_iat_count         00000000     <absolute>
 0000:00000000       ___AbsoluteZero            00000000     <absolute>
 0000:00000011       ___safe_se_handler_count   00000011     <absolute>
 0000:0000002c       __tls_array                0000002c     <absolute>
 0000:00000100       ___guard_flags             00000100     <absolute>
 0000:00000000       ___ImageBase               10000000     <linker-defined>
 0001:00000d90       ?_assert@@YAXPB_W0I@Z      10001d90 f   Assert.obj
 0001:00000ec0       ___local_stdio_printf_options 10001ec0 f i Assert.obj
 0001:00000ed0       ___vswprintf_l             10001ed0 f i Assert.obj
 0001:00000f00       __swprintf                 10001f00 f i Assert.obj
 0001:00000f60       __vswprintf_c_l            10001f60 f i Assert.obj
 0001:00000fd0       __vswprintf_l              10001fd0 f i Assert.obj
 0001:00001000       ?cw_memcpy@@YGHPADPB_WH@Z  10002000 f   CWString.obj
 0001:00001060       ?cw_memcpy@@YGHPA_WPBDH@Z  10002060 f   CWString.obj
 0001:000010c0       ?cw_memcpy@@YGHPADPBDH@Z   100020c0 f   CWString.obj
 0001:00001110       ?cw_memcpy@@YGHPA_WPB_WH@Z 10002110 f   CWString.obj
 0001:00001150       ?cw_memset@@YAXPADDH@Z     10002150 f   CWString.obj
 0001:00001170       ?cw_memset@@YAXPA_W_WH@Z   10002170 f   CWString.obj
 0001:00001190       ?cw_strlen@@YAHPBD@Z       10002190 f   CWString.obj
 0001:000011e0       ?cw_strlen@@YAHPB_W@Z      100021e0 f   CWString.obj
 0001:00001230       ?cw_strcpy@@YAHPADPB_W@Z   10002230 f   CWString.obj
 0001:00001250       ?cw_strcpy@@YAHPA_WPBD@Z   10002250 f   CWString.obj
 0001:00001270       ?cw_strcpy@@YAHPADPBD@Z    10002270 f   CWString.obj
 0001:00001290       ?cw_strcpy@@YAHPA_WPB_W@Z  10002290 f   CWString.obj
 0001:000012b0       ?cw_strcat@@YAHPADPB_W@Z   100022b0 f   CWString.obj
 0001:000012e0       ?cw_strcat@@YAHPA_WPBD@Z   100022e0 f   CWString.obj
 0001:00001310       ?cw_strcat@@YAHPADPBD@Z    10002310 f   CWString.obj
 0001:00001340       ?cw_strcat@@YAHPA_WPB_W@Z  10002340 f   CWString.obj
 0001:00001370       ?cw_dup@@YGXPBDAAHAAPA_W1@Z 10002370 f   CWString.obj
 0001:00001430       ?cw_dup@@YGXPB_WAAHAAPAD1@Z 10002430 f   CWString.obj
 0001:000014e0       ?DupChar@_CW@@AAEXXZ       100024e0 f   CWString.obj
 0001:00001530       ?DupWide@_CW@@AAEXXZ       10002530 f   CWString.obj
 0001:00001580       ?GetCharsMbcs@_CW@@QAEHXZ  10002580 f   CWString.obj
 0001:000015e0       ?GetCharsWide@_CW@@QAEHXZ  100025e0 f   CWString.obj
 0001:00001640       ?SetVARIANT_BOOL@OposVariant@@QAEXF@Z 10002640 f   OposVariant.obj
 0001:000016a0       ?SetVARIANT_BOOL_Ptr@OposVariant@@QAEXPAFAAJ@Z 100026a0 f   OposVariant.obj
 0001:000016f0       ?GetLONG@OposVariant@@QAEJXZ 100026f0 f   OposVariant.obj
 0001:00001780       ?ChangeLONG@OposVariant@@QAEXPAJAAJ@Z 10002780 f   OposVariant.obj
 0001:00001840       ?SetLONG@OposVariant@@QAEXJ@Z 10002840 f   OposVariant.obj
 0001:00001880       ?SetLONG_Ptr@OposVariant@@QAEXPAJAAJ@Z 10002880 f   OposVariant.obj
 0001:000018d0       ?ChangeCURRENCY@OposVariant@@QAEXPATtagCY@@AAJ@Z 100028d0 f   OposVariant.obj
 0001:00001990       ?SetCURRENCY@OposVariant@@QAEXTtagCY@@@Z 10002990 f   OposVariant.obj
 0001:000019d0       ?SetCURRENCY_Ptr@OposVariant@@QAEXPATtagCY@@AAJ@Z 100029d0 f   OposVariant.obj
 0001:00001a20       ?ChangeBSTR@OposVariant@@QAEXPAPA_WAAJ@Z 10002a20 f   OposVariant.obj
 0001:00001ae0       ?SetBSTR@OposVariant@@QAEXPA_WAAJ@Z 10002ae0 f   OposVariant.obj
 0001:00001b30       ?SetBSTR_Copy@OposVariant@@QAEXPA_WAAJ@Z 10002b30 f   OposVariant.obj
 0001:00001bd0       ?SetBSTR_OutPtr@OposVariant@@QAE_NPAPA_WAAJ@Z 10002bd0 f   OposVariant.obj
 0001:00001c20       ?SetBSTR_InOutPtr@OposVariant@@QAE_NPAPA_WAAJ@Z 10002c20 f   OposVariant.obj
 0001:00001c70       ?SetVARIANT@OposVariant@@QAEXAAUtagVARIANT@@GAAJ@Z 10002c70 f   OposVariant.obj
 0001:00001cf0       ?SetVARIANT_Ptr@OposVariant@@QAEXAAPAUtagVARIANT@@GAAJ@Z 10002cf0 f   OposVariant.obj
 0001:00001d90       ?SetString@OposVariant@@QAEXPB_WAAJ@Z 10002d90 f   OposVariant.obj
 0001:00001e20       ?SetDispatch_Ptr@OposVariant@@QAEXPAUIDispatch@@AAJ@Z 10002e20 f   OposVariant.obj
 0001:00001e90       ??0OposDispParms@@QAE@PAVOposVariant@@H@Z 10002e90 f   OposVariant.obj
 0001:00001f60       ??1OposDispParms@@QAE@XZ   10002f60 f   OposVariant.obj
 0001:00001fb0       ??$AtlMultiply@I@ATL@@YAJPAIII@Z 10002fb0 f i OposVariant.obj
 0001:00002010       ??0?$CHeapPtr@_WVCCRTAllocator@ATL@@@ATL@@QAE@XZ 10003010 f i OposVariant.obj
 0001:00002040       ??0?$CHeapPtrBase@_WVCCRTAllocator@ATL@@@ATL@@IAE@XZ 10003040 f i OposVariant.obj
 0001:00002060       ??0?$CSimpleArray@GV?$CSimpleArrayEqualHelper@G@ATL@@@ATL@@QAE@XZ 10003060 f i OposVariant.obj
 0001:000020a0       ??0?$CTraceCategoryEx@$00$0A@@ATL@@QAE@PB_W@Z 100030a0 f i OposVariant.obj
 0001:000020d0       ??0?$CTraceCategoryEx@$01$0A@@ATL@@QAE@PB_W@Z 100030d0 f i OposVariant.obj
 0001:00002100       ??0?$CTraceCategoryEx@$03$0A@@ATL@@QAE@PB_W@Z 10003100 f i OposVariant.obj
 0001:00002130       ??0?$CTraceCategoryEx@$07$0A@@ATL@@QAE@PB_W@Z 10003130 f i OposVariant.obj
 0001:00002160       ??0?$CTraceCategoryEx@$0BA@$0A@@ATL@@QAE@PB_W@Z 10003160 f i OposVariant.obj
 0001:00002190       ??0?$CTraceCategoryEx@$0BAA@$0A@@ATL@@QAE@PB_W@Z 10003190 f i OposVariant.obj
 0001:000021d0       ??0?$CTraceCategoryEx@$0BAAA@$0A@@ATL@@QAE@PB_W@Z 100031d0 f i OposVariant.obj
 0001:00002210       ??0?$CTraceCategoryEx@$0BAAAA@$0A@@ATL@@QAE@PB_W@Z 10003210 f i OposVariant.obj
 0001:00002250       ??0?$CTraceCategoryEx@$0BAAAAA@$0A@@ATL@@QAE@PB_W@Z 10003250 f i OposVariant.obj
 0001:00002290       ??0?$CTraceCategoryEx@$0CA@$0A@@ATL@@QAE@PB_W@Z 10003290 f i OposVariant.obj
 0001:000022c0       ??0?$CTraceCategoryEx@$0CAA@$0A@@ATL@@QAE@PB_W@Z 100032c0 f i OposVariant.obj
 0001:00002300       ??0?$CTraceCategoryEx@$0CAAA@$0A@@ATL@@QAE@PB_W@Z 10003300 f i OposVariant.obj
 0001:00002340       ??0?$CTraceCategoryEx@$0CAAAA@$0A@@ATL@@QAE@PB_W@Z 10003340 f i OposVariant.obj
 0001:00002380       ??0?$CTraceCategoryEx@$0CAAAAA@$0A@@ATL@@QAE@PB_W@Z 10003380 f i OposVariant.obj
 0001:000023c0       ??0?$CTraceCategoryEx@$0EA@$0A@@ATL@@QAE@PB_W@Z 100033c0 f i OposVariant.obj
 0001:000023f0       ??0?$CTraceCategoryEx@$0EAA@$0A@@ATL@@QAE@PB_W@Z 100033f0 f i OposVariant.obj
 0001:00002430       ??0?$CTraceCategoryEx@$0EAAA@$0A@@ATL@@QAE@PB_W@Z 10003430 f i OposVariant.obj
 0001:00002470       ??0?$CTraceCategoryEx@$0EAAAA@$0A@@ATL@@QAE@PB_W@Z 10003470 f i OposVariant.obj
 0001:000024b0       ??0?$CTraceCategoryEx@$0EAAAAA@$0A@@ATL@@QAE@PB_W@Z 100034b0 f i OposVariant.obj
 0001:000024f0       ??0?$CTraceCategoryEx@$0IA@$0A@@ATL@@QAE@PB_W@Z 100034f0 f i OposVariant.obj
 0001:00002530       ??0?$CTraceCategoryEx@$0IAA@$0A@@ATL@@QAE@PB_W@Z 10003530 f i OposVariant.obj
 0001:00002570       ??0?$CTraceCategoryEx@$0IAAA@$0A@@ATL@@QAE@PB_W@Z 10003570 f i OposVariant.obj
 0001:000025b0       ??0?$CTraceCategoryEx@$0IAAAA@$0A@@ATL@@QAE@PB_W@Z 100035b0 f i OposVariant.obj
 0001:000025f0       ??0CAtlComModule@ATL@@QAE@XZ 100035f0 f i OposVariant.obj
 0001:000026d0       ??0CAtlWinModule@ATL@@QAE@XZ 100036d0 f i OposVariant.obj
 0001:00002760       ??0CComCriticalSection@ATL@@QAE@XZ 10003760 f i OposVariant.obj
 0001:00002790       ??0CPreserveLastError@ATL@@QAE@XZ 10003790 f i OposVariant.obj
 0001:000027d0       ??0CTraceFileAndLineInfo@ATL@@QAE@PBDH@Z 100037d0 f i OposVariant.obj
 0001:00002800       ??0_ATL_COM_MODULE70@ATL@@QAE@XZ 10003800 f i OposVariant.obj
 0001:00002830       ??0_ATL_WIN_MODULE70@ATL@@QAE@XZ 10003830 f i OposVariant.obj
 0001:00002870       ??1?$CHeapPtr@_WVCCRTAllocator@ATL@@@ATL@@QAE@XZ 10003870 f i OposVariant.obj
 0001:000028a0       ??1?$CHeapPtrBase@_WVCCRTAllocator@ATL@@@ATL@@QAE@XZ 100038a0 f i OposVariant.obj
 0001:000028d0       ??1?$CSimpleArray@GV?$CSimpleArrayEqualHelper@G@ATL@@@ATL@@QAE@XZ 100038d0 f i OposVariant.obj
 0001:00002900       ??1CAtlComModule@ATL@@QAE@XZ 10003900 f i OposVariant.obj
 0001:00002930       ??1CAtlWinModule@ATL@@QAE@XZ 10003930 f i OposVariant.obj
 0001:00002960       ??1CComBSTR@ATL@@QAE@XZ    10003960 f i OposVariant.obj
 0001:000029a0       ??1CComCriticalSection@ATL@@QAE@XZ 100039a0 f i OposVariant.obj
 0001:000029c0       ??1CPreserveLastError@ATL@@QAE@XZ 100039c0 f i OposVariant.obj
 0001:00002a00       ??1_ATL_COM_MODULE70@ATL@@QAE@XZ 10003a00 f i OposVariant.obj
 0001:00002a30       ??1_ATL_WIN_MODULE70@ATL@@QAE@XZ 10003a30 f i OposVariant.obj
 0001:00002a70       ??1stringdispid@CComTypeInfoHolder@ATL@@QAE@XZ 10003a70 f i OposVariant.obj
 0001:00002aa0       ??A?$CSimpleArray@GV?$CSimpleArrayEqualHelper@G@ATL@@@ATL@@QAEAAGH@Z 10003aa0 f i OposVariant.obj
 0001:00002b20       ??B?$CHeapPtrBase@_WVCCRTAllocator@ATL@@@ATL@@QBEPA_WXZ 10003b20 f i OposVariant.obj
 0001:00002b40       ??B?$CTraceCategoryEx@$01$0A@@ATL@@QAEIXZ 10003b40 f i OposVariant.obj
 0001:00002b60       ??B?$CTraceCategoryEx@$0CA@$0A@@ATL@@QAEIXZ 10003b60 f i OposVariant.obj
 0001:00002b80       ??RCTraceFileAndLineInfo@ATL@@QBAXHIPB_WZZ 10003b80 f i OposVariant.obj
 0001:00002c20       ??_Estringdispid@CComTypeInfoHolder@ATL@@QAEPAXI@Z 10003c20 f i OposVariant.obj
 0001:00002cb0       ??_H@YGXPAXIIP6EPAX0@Z@Z   10003cb0 f i OposVariant.obj
 0001:00002d20       ??_I@YGXPAXIIP6EX0@Z@Z     10003d20 f i OposVariant.obj
 0001:00002da0       ?Allocate@?$CHeapPtr@_WVCCRTAllocator@ATL@@@ATL@@QAE_NI@Z 10003da0 f i OposVariant.obj
 0001:00002e30       ?Allocate@CCRTAllocator@ATL@@SAPAXI@Z 10003e30 f i OposVariant.obj
 0001:00002e50       ?AllocateBytes@?$CHeapPtrBase@_WVCCRTAllocator@ATL@@@ATL@@QAE_NI@Z 10003e50 f i OposVariant.obj
 0001:00002ec0       ?AtlWinModuleInit@ATL@@YGJPAU_ATL_WIN_MODULE70@1@@Z 10003ec0 f i OposVariant.obj
 0001:00002f90       ?AtlWinModuleTerm@ATL@@YGJPAU_ATL_WIN_MODULE70@1@PAUHINSTANCE__@@@Z 10003f90 f i OposVariant.obj
 0001:00003050       ?Clear@OposVariant@@QAEJXZ 10004050 f i OposVariant.obj
 0001:00003090       ?Free@?$CHeapPtrBase@_WVCCRTAllocator@ATL@@@ATL@@QAEXXZ 10004090 f i OposVariant.obj
 0001:000030d0       ?Free@CCRTAllocator@ATL@@SAXPAX@Z 100040d0 f i OposVariant.obj
 0001:000030f0       ?GetCategoryName@CTrace@ATL@@CAPA_WI@Z 100040f0 f i OposVariant.obj
 0001:00003140       ?GetModuleInstance@CAtlBaseModule@ATL@@QAEPAUHINSTANCE__@@XZ 10004140 f i OposVariant.obj
 0001:00003160       ?GetSize@?$CSimpleArray@GV?$CSimpleArrayEqualHelper@G@ATL@@@ATL@@QBEHXZ 10004160 f i OposVariant.obj
 0001:00003180       ?Init@CComCriticalSection@ATL@@QAEJXZ 10004180 f i OposVariant.obj
 0001:000031e0       ?RegisterCategory@CTrace@ATL@@SAXPB_WI@Z 100041e0 f i OposVariant.obj
 0001:00003270       ?RemoveAll@?$CSimpleArray@GV?$CSimpleArrayEqualHelper@G@ATL@@@ATL@@QAEXXZ 10004270 f i OposVariant.obj
 0001:000032f0       ?Term@CAtlComModule@ATL@@QAEXXZ 100042f0 f i OposVariant.obj
 0001:000033b0       ?Term@CAtlWinModule@ATL@@QAEXXZ 100043b0 f i OposVariant.obj
 0001:000033e0       ?Term@CComCriticalSection@ATL@@QAEJXZ 100043e0 f i OposVariant.obj
 0001:00003420       ?TraceV@CTrace@ATL@@CAXPBDHIIPB_W@Z 10004420 f i OposVariant.obj
 0001:000036a0       ?TraceV@CTrace@ATL@@SAXPBDHIIPB_WPAD@Z 100046a0 f i OposVariant.obj
 0001:000037e0       ?_AtlInitializeCriticalSectionEx@ATL@@YAHPAU_RTL_CRITICAL_SECTION@@KK@Z 100047e0 f i OposVariant.obj
 0001:00003810       ?_AtlRaiseException@ATL@@YAXKK@Z 10004810 f i OposVariant.obj
 0001:00003840       _HRESULT_FROM_WIN32        10004840 f i OposVariant.obj
 0001:00003880       __vswprintf_s_l            10004880 f i OposVariant.obj
 0001:000038f0       _swprintf_s                100048f0 f i OposVariant.obj
 0001:00003950       ?ObjectMain@CComObjectRootBase@ATL@@SGX_N@Z 10004950 f i GraphicDisplay.obj
 0001:00003960       ?GetCategoryMap@CComObjectRootBase@ATL@@SAPBU_ATL_CATMAP_ENTRY@2@XZ 10004960 f i GraphicDisplay.obj
 0001:00003970       ?GetObjectDescription@?$CComCoClass@VCOPOSGraphicDisplay@@$1?CLSID_OPOSGraphicDisplay@@3U_GUID@@B@ATL@@SGPB_WXZ 10004970 f i GraphicDisplay.obj
 0001:00003980       ?UpdateRegistry@COPOSGraphicDisplay@@SGJH@Z 10004980 f i GraphicDisplay.obj
 0001:000039a0       ?CreateInstance@?$CComCreator@V?$CComObjectCached@VCComClassFactory@ATL@@@ATL@@@ATL@@SGJPAXABU_GUID@@PAPAX@Z 100049a0 f i GraphicDisplay.obj
 0001:00003b20       ?CreateInstance@?$CComCreator2@V?$CComCreator@V?$CComObject@VCOPOSGraphicDisplay@@@ATL@@@ATL@@V?$CComCreator@V?$CComAggObject@VCOPOSGraphicDisplay@@@ATL@@@2@@ATL@@SGJPAXABU_GUID@@PAPAX@Z 10004b20 f i GraphicDisplay.obj
 0001:00003cd0       _DllGetClassObject@12      10004cd0 f   GraphicDisplay.obj
 0001:00003d00       _DllCanUnloadNow@0         10004d00 f   GraphicDisplay.obj
 0001:00003d40       _DllRegisterServer@0       10004d40 f   GraphicDisplay.obj
 0001:00003d60       _DllUnregisterServer@0     10004d60 f   GraphicDisplay.obj
 0001:00003ef0       _DllMain@12                10004ef0 f   GraphicDisplay.obj
 0001:00003f50       ??$?2G@Wrapper@?$CSimpleArray@GV?$CSimpleArrayEqualHelper@G@ATL@@@ATL@@SAPAXIPAG@Z 10004f50 f i GraphicDisplay.obj
 0001:00003f60       ??$?2PA_W@?$Wrapper@PA_W@?$CSimpleMap@PA_WPA_WVCExpansionVectorEqualHelper@ATL@@@ATL@@SAPAXIPAPA_W@Z 10004f60 f i GraphicDisplay.obj
 0001:00003f70       ??$?4UITypeInfo2@@@?$CComPtr@UITypeInfo@@@ATL@@QAEPAUITypeInfo@@ABV?$CComPtr@UITypeInfo2@@@1@@Z 10004f70 f i GraphicDisplay.obj
 0001:00003fd0       ??$AtlAdd@K@ATL@@YAJPAKKK@Z 10004fd0 f i GraphicDisplay.obj
 0001:00004010       ??$AtlAdd@_K@ATL@@YAJPA_K_K1@Z 10005010 f i GraphicDisplay.obj
 0001:00004080       ??$AtlAddThrow@K@ATL@@YAKKK@Z 10005080 f i GraphicDisplay.obj
 0001:00004100       ??$AtlModuleRegisterWndClassInfoT@VAtlModuleRegisterWndClassInfoParamW@ATL@@@ATL@@YAGPAU_ATL_BASE_MODULE70@0@PAU_ATL_WIN_MODULE70@0@PAU_ATL_WNDCLASSINFOW@0@PAP6GJPAUHWND__@@IIJ@ZVAtlModuleRegisterWndClassInfoParamW@0@@Z 10005100 f i GraphicDisplay.obj
 0001:00004510       ??$AtlMultiply@H@ATL@@YAJPAHHH@Z 10005510 f i GraphicDisplay.obj
 0001:00004590       ??$AtlMultiply@K@ATL@@YAJPAKKK@Z 10005590 f i GraphicDisplay.obj
 0001:000045f0       ??$AtlMultiplyThrow@I@ATL@@YAIII@Z 100055f0 f i GraphicDisplay.obj
 0001:00004670       ??$QueryInterface@UIPersistStream@@@IUnknown@@QAGJPAPAUIPersistStream@@@Z 10005670 f i GraphicDisplay.obj
 0001:000046a0       ??$QueryInterface@UITypeInfo2@@@IUnknown@@QAGJPAPAUITypeInfo2@@@Z 100056a0 f i GraphicDisplay.obj
 0001:000046d0       ??0?$CAtlModuleT@VCComModule@ATL@@@ATL@@QAE@XZ 100056d0 f i GraphicDisplay.obj
 0001:00004700       ??0?$CAtlSafeAllocBufferManager@VCCRTAllocator@ATL@@@_ATL_SAFE_ALLOCA_IMPL@ATL@@QAE@XZ 10005700 f i GraphicDisplay.obj
 0001:00004720       ??0?$CAutoVectorPtr@_W@ATL@@QAE@XZ 10005720 f i GraphicDisplay.obj
 0001:00004740       ??0?$CComAggObject@VCOPOSGraphicDisplay@@@ATL@@QAE@PAX@Z 10005740 f i GraphicDisplay.obj
 0001:000047b0       ??0?$CComContainedObject@VCOPOSGraphicDisplay@@@ATL@@QAE@PAX@Z 100057b0 f i GraphicDisplay.obj
 0001:000048c0       ??0?$CComCritSecLock@VCComCriticalSection@ATL@@@ATL@@QAE@AAVCComCriticalSection@1@_N@Z 100058c0 f i GraphicDisplay.obj
 0001:00004920       ??0?$CComEnum@UIEnumConnectionPoints@@$1?_GUID_b196b285_bab4_101a_b69c_00aa00341d07@@3U__s_GUID@@BPAUIConnectionPoint@@V?$_CopyInterface@UIConnectionPoint@@@ATL@@VCComSingleThreadModel@6@@ATL@@QAE@XZ 10005920 f i GraphicDisplay.obj
 0001:00004960       ??0?$CComEnum@UIEnumConnections@@$1?_GUID_b196b287_bab4_101a_b69c_00aa00341d07@@3U__s_GUID@@BUtagCONNECTDATA@@V?$_Copy@UtagCONNECTDATA@@@ATL@@VCComSingleThreadModel@6@@ATL@@QAE@XZ 10005960 f i GraphicDisplay.obj
 0001:000049a0       ??0?$CComEnumImpl@UIEnumConnectionPoints@@$1?_GUID_b196b285_bab4_101a_b69c_00aa00341d07@@3U__s_GUID@@BPAUIConnectionPoint@@V?$_CopyInterface@UIConnectionPoint@@@ATL@@@ATL@@QAE@XZ 100059a0 f i GraphicDisplay.obj
 0001:00004a00       ??0?$CComEnumImpl@UIEnumConnections@@$1?_GUID_b196b287_bab4_101a_b69c_00aa00341d07@@3U__s_GUID@@BUtagCONNECTDATA@@V?$_Copy@UtagCONNECTDATA@@@ATL@@@ATL@@QAE@XZ 10005a00 f i GraphicDisplay.obj
 0001:00004a60       ??0?$CComObject@V?$CComEnum@UIEnumConnectionPoints@@$1?_GUID_b196b285_bab4_101a_b69c_00aa00341d07@@3U__s_GUID@@BPAUIConnectionPoint@@V?$_CopyInterface@UIConnectionPoint@@@ATL@@VCComSingleThreadModel@6@@ATL@@@ATL@@QAE@PAX@Z 10005a60 f i GraphicDisplay.obj
 0001:00004ab0       ??0?$CComObject@V?$CComEnum@UIEnumConnections@@$1?_GUID_b196b287_bab4_101a_b69c_00aa00341d07@@3U__s_GUID@@BUtagCONNECTDATA@@V?$_Copy@UtagCONNECTDATA@@@ATL@@VCComSingleThreadModel@6@@ATL@@@ATL@@QAE@PAX@Z 10005ab0 f i GraphicDisplay.obj
 0001:00004b00       ??0?$CComObject@VCOPOSGraphicDisplay@@@ATL@@QAE@PAX@Z 10005b00 f i GraphicDisplay.obj
 0001:00004c20       ??0?$CComObjectCached@VCComClassFactory@ATL@@@ATL@@QAE@PAX@Z 10005c20 f i GraphicDisplay.obj
 0001:00004c60       ??0?$CComObjectRootEx@VCComMultiThreadModel@ATL@@@ATL@@QAE@XZ 10005c60 f i GraphicDisplay.obj
 0001:00004ca0       ??0?$CComObjectRootEx@VCComSingleThreadModel@ATL@@@ATL@@QAE@XZ 10005ca0 f i GraphicDisplay.obj
 0001:00004cd0       ??0?$CComPtr@UIAdviseSink@@@ATL@@QAE@PAUIAdviseSink@@@Z 10005cd0 f i GraphicDisplay.obj
 0001:00004d00       ??0?$CComPtr@UICatRegister@@@ATL@@QAE@XZ 10005d00 f i GraphicDisplay.obj
 0001:00004d30       ??0?$CComPtr@UIConnectionPoint@@@ATL@@QAE@XZ 10005d30 f i GraphicDisplay.obj
 0001:00004d60       ??0?$CComPtr@UIConnectionPointContainer@@@ATL@@QAE@XZ 10005d60 f i GraphicDisplay.obj
 0001:00004d90       ??0?$CComPtr@UIDataObject@@@ATL@@QAE@XZ 10005d90 f i GraphicDisplay.obj
 0001:00004dc0       ??0?$CComPtr@UIDispatch@@@ATL@@QAE@XZ 10005dc0 f i GraphicDisplay.obj
 0001:00004df0       ??0?$CComPtr@UIOleClientSite@@@ATL@@QAE@PAUIOleClientSite@@@Z 10005df0 f i GraphicDisplay.obj
 0001:00004e20       ??0?$CComPtr@UIOleControlSite@@@ATL@@QAE@XZ 10005e20 f i GraphicDisplay.obj
 0001:00004e50       ??0?$CComPtr@UIOleInPlaceActiveObject@@@ATL@@QAE@XZ 10005e50 f i GraphicDisplay.obj
 0001:00004e80       ??0?$CComPtr@UIOleInPlaceFrame@@@ATL@@QAE@XZ 10005e80 f i GraphicDisplay.obj
 0001:00004eb0       ??0?$CComPtr@UIOleInPlaceObject@@@ATL@@QAE@XZ 10005eb0 f i GraphicDisplay.obj
 0001:00004ee0       ??0?$CComPtr@UIOleInPlaceUIWindow@@@ATL@@QAE@XZ 10005ee0 f i GraphicDisplay.obj
 0001:00004f10       ??0?$CComPtr@UIOleObject@@@ATL@@QAE@XZ 10005f10 f i GraphicDisplay.obj
 0001:00004f40       ??0?$CComPtr@UIPersistStream@@@ATL@@QAE@XZ 10005f40 f i GraphicDisplay.obj
 0001:00004f70       ??0?$CComPtr@UIPersistStreamInit@@@ATL@@QAE@XZ 10005f70 f i GraphicDisplay.obj
 0001:00004fa0       ??0?$CComPtr@UIPointerInactive@@@ATL@@QAE@XZ 10005fa0 f i GraphicDisplay.obj
 0001:00004fd0       ??0?$CComPtr@UIProvideClassInfo2@@@ATL@@QAE@XZ 10005fd0 f i GraphicDisplay.obj
 0001:00005000       ??0?$CComPtr@UISpecifyPropertyPages@@@ATL@@QAE@XZ 10006000 f i GraphicDisplay.obj
 0001:00005030       ??0?$CComPtr@UIStream@@@ATL@@QAE@XZ 10006030 f i GraphicDisplay.obj
 0001:00005060       ??0?$CComPtr@UITypeInfo2@@@ATL@@QAE@XZ 10006060 f i GraphicDisplay.obj
 0001:00005090       ??0?$CComPtr@UITypeInfo@@@ATL@@QAE@ABV01@@Z 10006090 f i GraphicDisplay.obj
 0001:000050c0       ??0?$CComPtr@UITypeInfo@@@ATL@@QAE@XZ 100060c0 f i GraphicDisplay.obj
 0001:000050f0       ??0?$CComPtr@UITypeLib@@@ATL@@QAE@XZ 100060f0 f i GraphicDisplay.obj
 0001:00005120       ??0?$CComPtr@UIUnknown@@@ATL@@QAE@ABV01@@Z 10006120 f i GraphicDisplay.obj
 0001:00005150       ??0?$CComPtr@UIUnknown@@@ATL@@QAE@PAUIUnknown@@@Z 10006150 f i GraphicDisplay.obj
 0001:00005180       ??0?$CComPtr@UIUnknown@@@ATL@@QAE@XZ 10006180 f i GraphicDisplay.obj
 0001:000051b0       ??0?$CComPtr@UIViewObjectEx@@@ATL@@QAE@XZ 100061b0 f i GraphicDisplay.obj
 0001:000051e0       ??0?$CComPtrBase@UIAdviseSink@@@ATL@@IAE@PAUIAdviseSink@@@Z 100061e0 f i GraphicDisplay.obj
 0001:00005230       ??0?$CComPtrBase@UICatRegister@@@ATL@@IAE@XZ 10006230 f i GraphicDisplay.obj
 0001:00005250       ??0?$CComPtrBase@UIConnectionPoint@@@ATL@@IAE@XZ 10006250 f i GraphicDisplay.obj
 0001:00005270       ??0?$CComPtrBase@UIConnectionPointContainer@@@ATL@@IAE@XZ 10006270 f i GraphicDisplay.obj
 0001:00005290       ??0?$CComPtrBase@UIDataObject@@@ATL@@IAE@XZ 10006290 f i GraphicDisplay.obj
 0001:000052b0       ??0?$CComPtrBase@UIDispatch@@@ATL@@IAE@XZ 100062b0 f i GraphicDisplay.obj
 0001:000052d0       ??0?$CComPtrBase@UIOleClientSite@@@ATL@@IAE@PAUIOleClientSite@@@Z 100062d0 f i GraphicDisplay.obj
 0001:00005320       ??0?$CComPtrBase@UIOleControlSite@@@ATL@@IAE@XZ 10006320 f i GraphicDisplay.obj
 0001:00005340       ??0?$CComPtrBase@UIOleInPlaceActiveObject@@@ATL@@IAE@XZ 10006340 f i GraphicDisplay.obj
 0001:00005360       ??0?$CComPtrBase@UIOleInPlaceFrame@@@ATL@@IAE@XZ 10006360 f i GraphicDisplay.obj
 0001:00005380       ??0?$CComPtrBase@UIOleInPlaceObject@@@ATL@@IAE@XZ 10006380 f i GraphicDisplay.obj
 0001:000053a0       ??0?$CComPtrBase@UIOleInPlaceUIWindow@@@ATL@@IAE@XZ 100063a0 f i GraphicDisplay.obj
 0001:000053c0       ??0?$CComPtrBase@UIOleObject@@@ATL@@IAE@XZ 100063c0 f i GraphicDisplay.obj
 0001:000053e0       ??0?$CComPtrBase@UIPersistStream@@@ATL@@IAE@XZ 100063e0 f i GraphicDisplay.obj
 0001:00005400       ??0?$CComPtrBase@UIPersistStreamInit@@@ATL@@IAE@XZ 10006400 f i GraphicDisplay.obj
 0001:00005420       ??0?$CComPtrBase@UIPointerInactive@@@ATL@@IAE@XZ 10006420 f i GraphicDisplay.obj
 0001:00005440       ??0?$CComPtrBase@UIProvideClassInfo2@@@ATL@@IAE@XZ 10006440 f i GraphicDisplay.obj
 0001:00005460       ??0?$CComPtrBase@UISpecifyPropertyPages@@@ATL@@IAE@XZ 10006460 f i GraphicDisplay.obj
 0001:00005480       ??0?$CComPtrBase@UIStream@@@ATL@@IAE@XZ 10006480 f i GraphicDisplay.obj
 0001:000054a0       ??0?$CComPtrBase@UITypeInfo2@@@ATL@@IAE@XZ 100064a0 f i GraphicDisplay.obj
 0001:000054c0       ??0?$CComPtrBase@UITypeInfo@@@ATL@@IAE@PAUITypeInfo@@@Z 100064c0 f i GraphicDisplay.obj
 0001:00005510       ??0?$CComPtrBase@UITypeInfo@@@ATL@@IAE@XZ 10006510 f i GraphicDisplay.obj
 0001:00005530       ??0?$CComPtrBase@UITypeLib@@@ATL@@IAE@XZ 10006530 f i GraphicDisplay.obj
 0001:00005550       ??0?$CComPtrBase@UIUnknown@@@ATL@@IAE@PAUIUnknown@@@Z 10006550 f i GraphicDisplay.obj
 0001:000055a0       ??0?$CComPtrBase@UIUnknown@@@ATL@@IAE@XZ 100065a0 f i GraphicDisplay.obj
 0001:000055c0       ??0?$CComPtrBase@UIViewObjectEx@@@ATL@@IAE@XZ 100065c0 f i GraphicDisplay.obj
 0001:000055e0       ??0?$CComQIPtr@UIOleControlSite@@$1?_GUID_b196b289_bab4_101a_b69c_00aa00341d07@@3U__s_GUID@@B@ATL@@QAE@PAUIUnknown@@@Z 100065e0 f i GraphicDisplay.obj
 0001:00005640       ??0?$CComQIPtr@UIOleObject@@$1?_GUID_00000112_0000_0000_c000_000000000046@@3U__s_GUID@@B@ATL@@QAE@XZ 10006640 f i GraphicDisplay.obj
 0001:00005670       ??0?$CComQIPtr@UISpecifyPropertyPages@@$1?_GUID_b196b28b_bab4_101a_b69c_00aa00341d07@@3U__s_GUID@@B@ATL@@QAE@XZ 10006670 f i GraphicDisplay.obj
 0001:000056a0       ??0?$CSimpleMap@PA_WPA_WVCExpansionVectorEqualHelper@ATL@@@ATL@@QAE@XZ 100066a0 f i GraphicDisplay.obj
 0001:000056e0       ??0?$CTempBuffer@E$0BAA@VCCRTAllocator@ATL@@@ATL@@QAE@XZ 100066e0 f i GraphicDisplay.obj
 0001:00005700       ??0?$CTempBuffer@_W$0BAA@VCCRTAllocator@ATL@@@ATL@@QAE@XZ 10006700 f i GraphicDisplay.obj
 0001:00005720       ??0?$CTempBuffer@_W$0EAA@VCCRTAllocator@ATL@@@ATL@@QAE@XZ 10006720 f i GraphicDisplay.obj
 0001:00005740       ??0?$Wrapper@PA_W@?$CSimpleMap@PA_WPA_WVCExpansionVectorEqualHelper@ATL@@@ATL@@QAE@ABQA_W@Z 10006740 f i GraphicDisplay.obj
 0001:00005770       ??0CAtlModule@ATL@@QAE@XZ  10006770 f i GraphicDisplay.obj
 0001:00005890       ??0CComAutoDeleteCriticalSection@ATL@@QAE@XZ 10006890 f i GraphicDisplay.obj
 0001:000058c0       ??0CComBSTR@ATL@@QAE@XZ    100068c0 f i GraphicDisplay.obj
 0001:000058e0       ??0CComClassFactory@ATL@@QAE@XZ 100068e0 f i GraphicDisplay.obj
 0001:00005920       ??0CComModule@ATL@@QAE@XZ  10006920 f i GraphicDisplay.obj
 0001:00005990       ??0CComObjectRootBase@ATL@@QAE@XZ 10006990 f i GraphicDisplay.obj
 0001:000059b0       ??0CComSafeDeleteCriticalSection@ATL@@QAE@XZ 100069b0 f i GraphicDisplay.obj
 0001:000059e0       ??0CComVariant@ATL@@QAE@XZ 100069e0 f i GraphicDisplay.obj
 0001:00005a30       ??0CExpansionVector@ATL@@QAE@XZ 10006a30 f i GraphicDisplay.obj
 0001:00005a60       ??0CParseBuffer@CRegParser@ATL@@QAE@H@Z 10006a60 f i GraphicDisplay.obj
 0001:00005ad0       ??0CRegKey@ATL@@QAE@PAUHKEY__@@@Z 10006ad0 f i GraphicDisplay.obj
 0001:00005b10       ??0CRegKey@ATL@@QAE@PAVCAtlTransactionManager@1@@Z 10006b10 f i GraphicDisplay.obj
 0001:00005b50       ??0CRegObject@ATL@@QAE@XZ  10006b50 f i GraphicDisplay.obj
 0001:00005b90       ??0CRegParser@ATL@@QAE@PAVCRegObject@1@@Z 10006b90 f i GraphicDisplay.obj
 0001:00005bc0       ??0IClassFactory@@QAE@XZ   10006bc0 f i GraphicDisplay.obj
 0001:00005bf0       ??0IEnumConnectionPoints@@QAE@XZ 10006bf0 f i GraphicDisplay.obj
 0001:00005c20       ??0IEnumConnections@@QAE@XZ 10006c20 f i GraphicDisplay.obj
 0001:00005c50       ??0IRegistrarBase@@QAE@XZ  10006c50 f i GraphicDisplay.obj
 0001:00005c80       ??0IUnknown@@QAE@XZ        10006c80 f i GraphicDisplay.obj
 0001:00005ca0       ??0ModuleLockHelper@ATL@@QAE@XZ 10006ca0 f i GraphicDisplay.obj
 0001:00005ce0       ??0OposVariant@@QAE@XZ     10006ce0 f i GraphicDisplay.obj
 0001:00005d10       ??0Wrapper@?$CSimpleArray@GV?$CSimpleArrayEqualHelper@G@ATL@@@ATL@@QAE@ABG@Z 10006d10 f i GraphicDisplay.obj
 0001:00005d40       ??0_ATL_MODULE70@ATL@@QAE@XZ 10006d40 f i GraphicDisplay.obj
 0001:00005d70       ??0_ATL_MSG@ATL@@QAE@PAUHWND__@@IIJH@Z 10006d70 f i GraphicDisplay.obj
 0001:00005de0       ??0_U_MENUorID@ATL@@QAE@I@Z 10006de0 f i GraphicDisplay.obj
 0001:00005e00       ??0_U_RECT@ATL@@QAE@AAUtagRECT@@@Z 10006e00 f i GraphicDisplay.obj
 0001:00005e20       ??0stringdispid@CComTypeInfoHolder@ATL@@QAE@XZ 10006e20 f i GraphicDisplay.obj
 0001:00005e60       ??1?$CAtlModuleT@VCComModule@ATL@@@ATL@@UAE@XZ 10006e60 f i GraphicDisplay.obj
 0001:00005e90       ??1?$CAtlSafeAllocBufferManager@VCCRTAllocator@ATL@@@_ATL_SAFE_ALLOCA_IMPL@ATL@@QAE@XZ 10006e90 f i GraphicDisplay.obj
 0001:00005ee0       ??1?$CAutoVectorPtr@_W@ATL@@QAE@XZ 10006ee0 f i GraphicDisplay.obj
 0001:00005f10       ??1?$CComAggObject@VCOPOSGraphicDisplay@@@ATL@@UAE@XZ 10006f10 f i GraphicDisplay.obj
 0001:00005f80       ??1?$CComContainedObject@VCOPOSGraphicDisplay@@@ATL@@UAE@XZ 10006f80 f i GraphicDisplay.obj
 0001:00005fb0       ??1?$CComCritSecLock@VCComCriticalSection@ATL@@@ATL@@QAE@XZ 10006fb0 f i GraphicDisplay.obj
 0001:00005fe0       ??1?$CComEnum@UIEnumConnectionPoints@@$1?_GUID_b196b285_bab4_101a_b69c_00aa00341d07@@3U__s_GUID@@BPAUIConnectionPoint@@V?$_CopyInterface@UIConnectionPoint@@@ATL@@VCComSingleThreadModel@6@@ATL@@UAE@XZ 10006fe0 f i GraphicDisplay.obj
 0001:00006010       ??1?$CComEnum@UIEnumConnections@@$1?_GUID_b196b287_bab4_101a_b69c_00aa00341d07@@3U__s_GUID@@BUtagCONNECTDATA@@V?$_Copy@UtagCONNECTDATA@@@ATL@@VCComSingleThreadModel@6@@ATL@@UAE@XZ 10007010 f i GraphicDisplay.obj
 0001:00006040       ??1?$CComEnumImpl@UIEnumConnectionPoints@@$1?_GUID_b196b285_bab4_101a_b69c_00aa00341d07@@3U__s_GUID@@BPAUIConnectionPoint@@V?$_CopyInterface@UIConnectionPoint@@@ATL@@@ATL@@UAE@XZ 10007040 f i GraphicDisplay.obj
 0001:000060d0       ??1?$CComEnumImpl@UIEnumConnections@@$1?_GUID_b196b287_bab4_101a_b69c_00aa00341d07@@3U__s_GUID@@BUtagCONNECTDATA@@V?$_Copy@UtagCONNECTDATA@@@ATL@@@ATL@@UAE@XZ 100070d0 f i GraphicDisplay.obj
 0001:00006160       ??1?$CComObject@V?$CComEnum@UIEnumConnectionPoints@@$1?_GUID_b196b285_bab4_101a_b69c_00aa00341d07@@3U__s_GUID@@BPAUIConnectionPoint@@V?$_CopyInterface@UIConnectionPoint@@@ATL@@VCComSingleThreadModel@6@@ATL@@@ATL@@UAE@XZ 10007160 f i GraphicDisplay.obj
 0001:000061c0       ??1?$CComObject@V?$CComEnum@UIEnumConnections@@$1?_GUID_b196b287_bab4_101a_b69c_00aa00341d07@@3U__s_GUID@@BUtagCONNECTDATA@@V?$_Copy@UtagCONNECTDATA@@@ATL@@VCComSingleThreadModel@6@@ATL@@@ATL@@UAE@XZ 100071c0 f i GraphicDisplay.obj
 0001:00006220       ??1?$CComObject@VCOPOSGraphicDisplay@@@ATL@@UAE@XZ 10007220 f i GraphicDisplay.obj
 0001:00006360       ??1?$CComObjectCached@VCComClassFactory@ATL@@@ATL@@UAE@XZ 10007360 f i GraphicDisplay.obj
 0001:000063b0       ??1?$CComObjectRootEx@VCComMultiThreadModel@ATL@@@ATL@@QAE@XZ 100073b0 f i GraphicDisplay.obj
 0001:000063e0       ??1?$CComObjectRootEx@VCComSingleThreadModel@ATL@@@ATL@@QAE@XZ 100073e0 f i GraphicDisplay.obj
 0001:00006410       ??1?$CComPtr@UIAdviseSink@@@ATL@@QAE@XZ 10007410 f i GraphicDisplay.obj
 0001:00006440       ??1?$CComPtr@UICatRegister@@@ATL@@QAE@XZ 10007440 f i GraphicDisplay.obj
 0001:00006470       ??1?$CComPtr@UIConnectionPoint@@@ATL@@QAE@XZ 10007470 f i GraphicDisplay.obj
 0001:000064a0       ??1?$CComPtr@UIConnectionPointContainer@@@ATL@@QAE@XZ 100074a0 f i GraphicDisplay.obj
 0001:000064d0       ??1?$CComPtr@UIDataObject@@@ATL@@QAE@XZ 100074d0 f i GraphicDisplay.obj
 0001:00006500       ??1?$CComPtr@UIDispatch@@@ATL@@QAE@XZ 10007500 f i GraphicDisplay.obj
 0001:00006530       ??1?$CComPtr@UIOleClientSite@@@ATL@@QAE@XZ 10007530 f i GraphicDisplay.obj
 0001:00006560       ??1?$CComPtr@UIOleControlSite@@@ATL@@QAE@XZ 10007560 f i GraphicDisplay.obj
 0001:00006590       ??1?$CComPtr@UIOleInPlaceActiveObject@@@ATL@@QAE@XZ 10007590 f i GraphicDisplay.obj
 0001:000065c0       ??1?$CComPtr@UIOleInPlaceFrame@@@ATL@@QAE@XZ 100075c0 f i GraphicDisplay.obj
 0001:000065f0       ??1?$CComPtr@UIOleInPlaceObject@@@ATL@@QAE@XZ 100075f0 f i GraphicDisplay.obj
 0001:00006620       ??1?$CComPtr@UIOleInPlaceUIWindow@@@ATL@@QAE@XZ 10007620 f i GraphicDisplay.obj
 0001:00006650       ??1?$CComPtr@UIOleObject@@@ATL@@QAE@XZ 10007650 f i GraphicDisplay.obj
 0001:00006680       ??1?$CComPtr@UIPersistStream@@@ATL@@QAE@XZ 10007680 f i GraphicDisplay.obj
 0001:000066b0       ??1?$CComPtr@UIPersistStreamInit@@@ATL@@QAE@XZ 100076b0 f i GraphicDisplay.obj
 0001:000066e0       ??1?$CComPtr@UIPointerInactive@@@ATL@@QAE@XZ 100076e0 f i GraphicDisplay.obj
 0001:00006710       ??1?$CComPtr@UIProvideClassInfo2@@@ATL@@QAE@XZ 10007710 f i GraphicDisplay.obj
 0001:00006740       ??1?$CComPtr@UISpecifyPropertyPages@@@ATL@@QAE@XZ 10007740 f i GraphicDisplay.obj
 0001:00006770       ??1?$CComPtr@UIStream@@@ATL@@QAE@XZ 10007770 f i GraphicDisplay.obj
 0001:000067a0       ??1?$CComPtr@UITypeInfo2@@@ATL@@QAE@XZ 100077a0 f i GraphicDisplay.obj
 0001:000067d0       ??1?$CComPtr@UITypeInfo@@@ATL@@QAE@XZ 100077d0 f i GraphicDisplay.obj
 0001:00006800       ??1?$CComPtr@UITypeLib@@@ATL@@QAE@XZ 10007800 f i GraphicDisplay.obj
 0001:00006830       ??1?$CComPtr@UIUnknown@@@ATL@@QAE@XZ 10007830 f i GraphicDisplay.obj
 0001:00006860       ??1?$CComPtr@UIViewObjectEx@@@ATL@@QAE@XZ 10007860 f i GraphicDisplay.obj
 0001:00006890       ??1?$CComPtrBase@UIAdviseSink@@@ATL@@QAE@XZ 10007890 f i GraphicDisplay.obj
 0001:000068e0       ??1?$CComPtrBase@UICatRegister@@@ATL@@QAE@XZ 100078e0 f i GraphicDisplay.obj
 0001:00006930       ??1?$CComPtrBase@UIConnectionPoint@@@ATL@@QAE@XZ 10007930 f i GraphicDisplay.obj
 0001:00006980       ??1?$CComPtrBase@UIConnectionPointContainer@@@ATL@@QAE@XZ 10007980 f i GraphicDisplay.obj
 0001:000069d0       ??1?$CComPtrBase@UIDataObject@@@ATL@@QAE@XZ 100079d0 f i GraphicDisplay.obj
 0001:00006a20       ??1?$CComPtrBase@UIDispatch@@@ATL@@QAE@XZ 10007a20 f i GraphicDisplay.obj
 0001:00006a70       ??1?$CComPtrBase@UIOleClientSite@@@ATL@@QAE@XZ 10007a70 f i GraphicDisplay.obj
 0001:00006ac0       ??1?$CComPtrBase@UIOleControlSite@@@ATL@@QAE@XZ 10007ac0 f i GraphicDisplay.obj
 0001:00006b10       ??1?$CComPtrBase@UIOleInPlaceActiveObject@@@ATL@@QAE@XZ 10007b10 f i GraphicDisplay.obj
 0001:00006b60       ??1?$CComPtrBase@UIOleInPlaceFrame@@@ATL@@QAE@XZ 10007b60 f i GraphicDisplay.obj
 0001:00006bb0       ??1?$CComPtrBase@UIOleInPlaceObject@@@ATL@@QAE@XZ 10007bb0 f i GraphicDisplay.obj
 0001:00006c00       ??1?$CComPtrBase@UIOleInPlaceUIWindow@@@ATL@@QAE@XZ 10007c00 f i GraphicDisplay.obj
 0001:00006c50       ??1?$CComPtrBase@UIOleObject@@@ATL@@QAE@XZ 10007c50 f i GraphicDisplay.obj
 0001:00006ca0       ??1?$CComPtrBase@UIPersistStream@@@ATL@@QAE@XZ 10007ca0 f i GraphicDisplay.obj
 0001:00006cf0       ??1?$CComPtrBase@UIPersistStreamInit@@@ATL@@QAE@XZ 10007cf0 f i GraphicDisplay.obj
 0001:00006d40       ??1?$CComPtrBase@UIPointerInactive@@@ATL@@QAE@XZ 10007d40 f i GraphicDisplay.obj
 0001:00006d90       ??1?$CComPtrBase@UIProvideClassInfo2@@@ATL@@QAE@XZ 10007d90 f i GraphicDisplay.obj
 0001:00006de0       ??1?$CComPtrBase@UISpecifyPropertyPages@@@ATL@@QAE@XZ 10007de0 f i GraphicDisplay.obj
 0001:00006e30       ??1?$CComPtrBase@UIStream@@@ATL@@QAE@XZ 10007e30 f i GraphicDisplay.obj
 0001:00006e80       ??1?$CComPtrBase@UITypeInfo2@@@ATL@@QAE@XZ 10007e80 f i GraphicDisplay.obj
 0001:00006ed0       ??1?$CComPtrBase@UITypeInfo@@@ATL@@QAE@XZ 10007ed0 f i GraphicDisplay.obj
 0001:00006f20       ??1?$CComPtrBase@UITypeLib@@@ATL@@QAE@XZ 10007f20 f i GraphicDisplay.obj
 0001:00006f70       ??1?$CComPtrBase@UIUnknown@@@ATL@@QAE@XZ 10007f70 f i GraphicDisplay.obj
 0001:00006fc0       ??1?$CComPtrBase@UIViewObjectEx@@@ATL@@QAE@XZ 10007fc0 f i GraphicDisplay.obj
 0001:00007010       ??1?$CComQIPtr@UIOleControlSite@@$1?_GUID_b196b289_bab4_101a_b69c_00aa00341d07@@3U__s_GUID@@B@ATL@@QAE@XZ 10008010 f i GraphicDisplay.obj
 0001:00007040       ??1?$CComQIPtr@UIOleObject@@$1?_GUID_00000112_0000_0000_c000_000000000046@@3U__s_GUID@@B@ATL@@QAE@XZ 10008040 f i GraphicDisplay.obj
 0001:00007070       ??1?$CComQIPtr@UISpecifyPropertyPages@@$1?_GUID_b196b28b_bab4_101a_b69c_00aa00341d07@@3U__s_GUID@@B@ATL@@QAE@XZ 10008070 f i GraphicDisplay.obj
 0001:000070a0       ??1?$CSimpleMap@PA_WPA_WVCExpansionVectorEqualHelper@ATL@@@ATL@@QAE@XZ 100080a0 f i GraphicDisplay.obj
 0001:000070d0       ??1?$CTempBuffer@E$0BAA@VCCRTAllocator@ATL@@@ATL@@QAE@XZ 100080d0 f i GraphicDisplay.obj
 0001:00007110       ??1?$CTempBuffer@_W$0BAA@VCCRTAllocator@ATL@@@ATL@@QAE@XZ 10008110 f i GraphicDisplay.obj
 0001:00007150       ??1?$CTempBuffer@_W$0EAA@VCCRTAllocator@ATL@@@ATL@@QAE@XZ 10008150 f i GraphicDisplay.obj
 0001:00007190       ??1CAtlModule@ATL@@UAE@XZ  10008190 f i GraphicDisplay.obj
 0001:000071c0       ??1CComAutoDeleteCriticalSection@ATL@@QAE@XZ 100081c0 f i GraphicDisplay.obj
 0001:000071f0       ??1CComClassFactory@ATL@@UAE@XZ 100081f0 f i GraphicDisplay.obj
 0001:00007220       ??1CComModule@ATL@@UAE@XZ  10008220 f i GraphicDisplay.obj
 0001:00007250       ??1CComObjectRootBase@ATL@@QAE@XZ 10008250 f i GraphicDisplay.obj
 0001:00007270       ??1CComSafeDeleteCriticalSection@ATL@@QAE@XZ 10008270 f i GraphicDisplay.obj
 0001:000072b0       ??1CComVariant@ATL@@QAE@XZ 100082b0 f i GraphicDisplay.obj
 0001:00007310       ??1CExpansionVector@ATL@@QAE@XZ 10008310 f i GraphicDisplay.obj
 0001:00007340       ??1CParseBuffer@CRegParser@ATL@@QAE@XZ 10008340 f i GraphicDisplay.obj
 0001:00007380       ??1CRegKey@ATL@@QAE@XZ     10008380 f i GraphicDisplay.obj
 0001:000073b0       ??1CRegObject@ATL@@UAE@XZ  100083b0 f i GraphicDisplay.obj
 0001:000073f0       ??1ModuleLockHelper@ATL@@QAE@XZ 100083f0 f i GraphicDisplay.obj
 0001:00007430       ??1OposVariant@@QAE@XZ     10008430 f i GraphicDisplay.obj
 0001:00007460       ??1_ATL_MODULE70@ATL@@QAE@XZ 10008460 f i GraphicDisplay.obj
 0001:00007490       ??4?$CComPtr@UIAdviseSink@@@ATL@@QAEPAUIAdviseSink@@PAU2@@Z 10008490 f i GraphicDisplay.obj
 0001:000074f0       ??4?$CComPtr@UIOleClientSite@@@ATL@@QAEPAUIOleClientSite@@PAU2@@Z 100084f0 f i GraphicDisplay.obj
 0001:00007550       ??4?$CComPtr@UIUnknown@@@ATL@@QAEPAUIUnknown@@PAU2@@Z 10008550 f i GraphicDisplay.obj
 0001:000075b0       ??4?$CComQIPtr@UIOleObject@@$1?_GUID_00000112_0000_0000_c000_000000000046@@3U__s_GUID@@B@ATL@@QAEPAUIOleObject@@PAUIUnknown@@@Z 100085b0 f i GraphicDisplay.obj
 0001:00007600       ??4?$CComQIPtr@UISpecifyPropertyPages@@$1?_GUID_b196b28b_bab4_101a_b69c_00aa00341d07@@3U__s_GUID@@B@ATL@@QAEPAUISpecifyPropertyPages@@PAUIUnknown@@@Z 10008600 f i GraphicDisplay.obj
 0001:00007650       ??7?$CComPtrBase@UIOleClientSite@@@ATL@@QBE_NXZ 10008650 f i GraphicDisplay.obj
 0001:00007690       ??7?$CComPtrBase@UIOleInPlaceSiteWindowless@@@ATL@@QBE_NXZ 10008690 f i GraphicDisplay.obj
 0001:000076d0       ??7CComBSTR@ATL@@QBE_NXZ   100086d0 f i GraphicDisplay.obj
 0001:00007710       ??8?$CComPtrBase@UIConnectionPointContainer@@@ATL@@QBE_NPAUIConnectionPointContainer@@@Z 10008710 f i GraphicDisplay.obj
 0001:00007750       ??8?$CComPtrBase@UIDataAdviseHolder@@@ATL@@QBE_NPAUIDataAdviseHolder@@@Z 10008750 f i GraphicDisplay.obj
 0001:00007790       ??8?$CComPtrBase@UIOleAdviseHolder@@@ATL@@QBE_NPAUIOleAdviseHolder@@@Z 10008790 f i GraphicDisplay.obj
 0001:000077d0       ??8?$CComPtrBase@UIOleClientSite@@@ATL@@QBE_NPAUIOleClientSite@@@Z 100087d0 f i GraphicDisplay.obj
 0001:00007810       ??8?$CComPtrBase@UIOleControlSite@@@ATL@@QBE_NPAUIOleControlSite@@@Z 10008810 f i GraphicDisplay.obj
 0001:00007850       ??8?$CComPtrBase@UIOleInPlaceObject@@@ATL@@QBE_NPAUIOleInPlaceObject@@@Z 10008850 f i GraphicDisplay.obj
 0001:00007890       ??8?$CComPtrBase@UIOleInPlaceSiteWindowless@@@ATL@@QBE_NPAUIOleInPlaceSiteWindowless@@@Z 10008890 f i GraphicDisplay.obj
 0001:000078d0       ??8?$CComPtrBase@UIOleObject@@@ATL@@QBE_NPAUIOleObject@@@Z 100088d0 f i GraphicDisplay.obj
 0001:00007910       ??8?$CComPtrBase@UIPersistStream@@@ATL@@QBE_NPAUIPersistStream@@@Z 10008910 f i GraphicDisplay.obj
 0001:00007950       ??8?$CComPtrBase@UIPersistStreamInit@@@ATL@@QBE_NPAUIPersistStreamInit@@@Z 10008950 f i GraphicDisplay.obj
 0001:00007990       ??8?$CComPtrBase@UIPointerInactive@@@ATL@@QBE_NPAUIPointerInactive@@@Z 10008990 f i GraphicDisplay.obj
 0001:000079d0       ??8?$CComPtrBase@UIUnknown@@@ATL@@QBE_NPAUIUnknown@@@Z 100089d0 f i GraphicDisplay.obj
 0001:00007a10       ??8?$CComPtrBase@UIViewObjectEx@@@ATL@@QBE_NPAUIViewObjectEx@@@Z 10008a10 f i GraphicDisplay.obj
 0001:00007a50       ??8CComBSTR@ATL@@QBE_NH@Z  10008a50 f i GraphicDisplay.obj
 0001:00007ab0       ??9?$CComPtrBase@UIConnectionPointContainer@@@ATL@@QBE_NPAUIConnectionPointContainer@@@Z 10008ab0 f i GraphicDisplay.obj
 0001:00007b00       ??9?$CComPtrBase@UIDataAdviseHolder@@@ATL@@QBE_NPAUIDataAdviseHolder@@@Z 10008b00 f i GraphicDisplay.obj
 0001:00007b50       ??9?$CComPtrBase@UIOleAdviseHolder@@@ATL@@QBE_NPAUIOleAdviseHolder@@@Z 10008b50 f i GraphicDisplay.obj
 0001:00007ba0       ??9?$CComPtrBase@UIOleClientSite@@@ATL@@QBE_NPAUIOleClientSite@@@Z 10008ba0 f i GraphicDisplay.obj
 0001:00007bf0       ??9?$CComPtrBase@UIOleControlSite@@@ATL@@QBE_NPAUIOleControlSite@@@Z 10008bf0 f i GraphicDisplay.obj
 0001:00007c40       ??9?$CComPtrBase@UIOleInPlaceObject@@@ATL@@QBE_NPAUIOleInPlaceObject@@@Z 10008c40 f i GraphicDisplay.obj
 0001:00007c90       ??9?$CComPtrBase@UIOleInPlaceSiteWindowless@@@ATL@@QBE_NPAUIOleInPlaceSiteWindowless@@@Z 10008c90 f i GraphicDisplay.obj
 0001:00007ce0       ??9?$CComPtrBase@UIOleObject@@@ATL@@QBE_NPAUIOleObject@@@Z 10008ce0 f i GraphicDisplay.obj
 0001:00007d30       ??9?$CComPtrBase@UIPersistStream@@@ATL@@QBE_NPAUIPersistStream@@@Z 10008d30 f i GraphicDisplay.obj
 0001:00007d80       ??9?$CComPtrBase@UIPersistStreamInit@@@ATL@@QBE_NPAUIPersistStreamInit@@@Z 10008d80 f i GraphicDisplay.obj
 0001:00007dd0       ??9?$CComPtrBase@UIPointerInactive@@@ATL@@QBE_NPAUIPointerInactive@@@Z 10008dd0 f i GraphicDisplay.obj
 0001:00007e20       ??9?$CComPtrBase@UIUnknown@@@ATL@@QBE_NPAUIUnknown@@@Z 10008e20 f i GraphicDisplay.obj
 0001:00007e70       ??9?$CComPtrBase@UIViewObjectEx@@@ATL@@QBE_NPAUIViewObjectEx@@@Z 10008e70 f i GraphicDisplay.obj
 0001:00007ec0       ??9CComBSTR@ATL@@QBE_NH@Z  10008ec0 f i GraphicDisplay.obj
 0001:00007f10       ??B?$CComPtrBase@UIAdviseSink@@@ATL@@QBEPAUIAdviseSink@@XZ 10008f10 f i GraphicDisplay.obj
 0001:00007f30       ??B?$CComPtrBase@UIDataAdviseHolder@@@ATL@@QBEPAUIDataAdviseHolder@@XZ 10008f30 f i GraphicDisplay.obj
 0001:00007f50       ??B?$CComPtrBase@UIDataObject@@@ATL@@QBEPAUIDataObject@@XZ 10008f50 f i GraphicDisplay.obj
 0001:00007f70       ??B?$CComPtrBase@UIOleAdviseHolder@@@ATL@@QBEPAUIOleAdviseHolder@@XZ 10008f70 f i GraphicDisplay.obj
 0001:00007f90       ??B?$CComPtrBase@UIOleClientSite@@@ATL@@QBEPAUIOleClientSite@@XZ 10008f90 f i GraphicDisplay.obj
 0001:00007fb0       ??B?$CComPtrBase@UIOleControlSite@@@ATL@@QBEPAUIOleControlSite@@XZ 10008fb0 f i GraphicDisplay.obj
 0001:00007fd0       ??B?$CComPtrBase@UIOleInPlaceActiveObject@@@ATL@@QBEPAUIOleInPlaceActiveObject@@XZ 10008fd0 f i GraphicDisplay.obj
 0001:00007ff0       ??B?$CComPtrBase@UIOleInPlaceFrame@@@ATL@@QBEPAUIOleInPlaceFrame@@XZ 10008ff0 f i GraphicDisplay.obj
 0001:00008010       ??B?$CComPtrBase@UIOleInPlaceSiteWindowless@@@ATL@@QBEPAUIOleInPlaceSiteWindowless@@XZ 10009010 f i GraphicDisplay.obj
 0001:00008030       ??B?$CComPtrBase@UIOleInPlaceUIWindow@@@ATL@@QBEPAUIOleInPlaceUIWindow@@XZ 10009030 f i GraphicDisplay.obj
 0001:00008050       ??B?$CComPtrBase@UIOleObject@@@ATL@@QBEPAUIOleObject@@XZ 10009050 f i GraphicDisplay.obj
 0001:00008070       ??B?$CComPtrBase@UIPersistStream@@@ATL@@QBEPAUIPersistStream@@XZ 10009070 f i GraphicDisplay.obj
 0001:00008090       ??B?$CComPtrBase@UIProvideClassInfo2@@@ATL@@QBEPAUIProvideClassInfo2@@XZ 10009090 f i GraphicDisplay.obj
 0001:000080b0       ??B?$CComPtrBase@UISpecifyPropertyPages@@@ATL@@QBEPAUISpecifyPropertyPages@@XZ 100090b0 f i GraphicDisplay.obj
 0001:000080d0       ??B?$CComPtrBase@UIStream@@@ATL@@QBEPAUIStream@@XZ 100090d0 f i GraphicDisplay.obj
 0001:000080f0       ??B?$CComPtrBase@UITypeInfo2@@@ATL@@QBEPAUITypeInfo2@@XZ 100090f0 f i GraphicDisplay.obj
 0001:00008110       ??B?$CComPtrBase@UITypeInfo@@@ATL@@QBEPAUITypeInfo@@XZ 10009110 f i GraphicDisplay.obj
 0001:00008130       ??B?$CComPtrBase@UITypeLib@@@ATL@@QBEPAUITypeLib@@XZ 10009130 f i GraphicDisplay.obj
 0001:00008150       ??B?$CComPtrBase@UIUnknown@@@ATL@@QBEPAUIUnknown@@XZ 10009150 f i GraphicDisplay.obj
 0001:00008170       ??B?$CTempBuffer@E$0BAA@VCCRTAllocator@ATL@@@ATL@@QBEPAEXZ 10009170 f i GraphicDisplay.obj
 0001:00008190       ??B?$CTempBuffer@_W$0BAA@VCCRTAllocator@ATL@@@ATL@@QBEPA_WXZ 10009190 f i GraphicDisplay.obj
 0001:000081b0       ??B?$CTempBuffer@_W$0EAA@VCCRTAllocator@ATL@@@ATL@@QBEPA_WXZ 100091b0 f i GraphicDisplay.obj
 0001:000081d0       ??B?$CTraceCategoryEx@$00$0A@@ATL@@QAEIXZ 100091d0 f i GraphicDisplay.obj
 0001:000081f0       ??B?$CTraceCategoryEx@$07$0A@@ATL@@QAEIXZ 100091f0 f i GraphicDisplay.obj
 0001:00008210       ??B?$CTraceCategoryEx@$0CAAA@$0A@@ATL@@QAEIXZ 10009210 f i GraphicDisplay.obj
 0001:00008230       ??B?$CTraceCategoryEx@$0EA@$0A@@ATL@@QAEIXZ 10009230 f i GraphicDisplay.obj
 0001:00008250       ??B?$CTraceCategoryEx@$0IAA@$0A@@ATL@@QAEIXZ 10009250 f i GraphicDisplay.obj
 0001:00008270       ??BCComBSTR@ATL@@QBEPA_WXZ 10009270 f i GraphicDisplay.obj
 0001:00008290       ??BCRegKey@ATL@@QBEPAUHKEY__@@XZ 10009290 f i GraphicDisplay.obj
 0001:000082b0       ??C?$CComPtrBase@UIAdviseSink@@@ATL@@QBEPAV?$_NoAddRefReleaseOnCComPtr@UIAdviseSink@@@1@XZ 100092b0 f i GraphicDisplay.obj
 0001:00008300       ??C?$CComPtrBase@UICatRegister@@@ATL@@QBEPAV?$_NoAddRefReleaseOnCComPtr@UICatRegister@@@1@XZ 10009300 f i GraphicDisplay.obj
 0001:00008350       ??C?$CComPtrBase@UIConnectionPoint@@@ATL@@QBEPAV?$_NoAddRefReleaseOnCComPtr@UIConnectionPoint@@@1@XZ 10009350 f i GraphicDisplay.obj
 0001:000083a0       ??C?$CComPtrBase@UIConnectionPointContainer@@@ATL@@QBEPAV?$_NoAddRefReleaseOnCComPtr@UIConnectionPointContainer@@@1@XZ 100093a0 f i GraphicDisplay.obj
 0001:000083f0       ??C?$CComPtrBase@UIDataAdviseHolder@@@ATL@@QBEPAV?$_NoAddRefReleaseOnCComPtr@UIDataAdviseHolder@@@1@XZ 100093f0 f i GraphicDisplay.obj
 0001:00008440       ??C?$CComPtrBase@UIOleAdviseHolder@@@ATL@@QBEPAV?$_NoAddRefReleaseOnCComPtr@UIOleAdviseHolder@@@1@XZ 10009440 f i GraphicDisplay.obj
 0001:00008490       ??C?$CComPtrBase@UIOleClientSite@@@ATL@@QBEPAV?$_NoAddRefReleaseOnCComPtr@UIOleClientSite@@@1@XZ 10009490 f i GraphicDisplay.obj
 0001:000084e0       ??C?$CComPtrBase@UIOleControlSite@@@ATL@@QBEPAV?$_NoAddRefReleaseOnCComPtr@UIOleControlSite@@@1@XZ 100094e0 f i GraphicDisplay.obj
 0001:00008530       ??C?$CComPtrBase@UIOleInPlaceFrame@@@ATL@@QBEPAV?$_NoAddRefReleaseOnCComPtr@UIOleInPlaceFrame@@@1@XZ 10009530 f i GraphicDisplay.obj
 0001:00008580       ??C?$CComPtrBase@UIOleInPlaceObject@@@ATL@@QBEPAV?$_NoAddRefReleaseOnCComPtr@UIOleInPlaceObject@@@1@XZ 10009580 f i GraphicDisplay.obj
 0001:000085d0       ??C?$CComPtrBase@UIOleInPlaceSiteWindowless@@@ATL@@QBEPAV?$_NoAddRefReleaseOnCComPtr@UIOleInPlaceSiteWindowless@@@1@XZ 100095d0 f i GraphicDisplay.obj
 0001:00008620       ??C?$CComPtrBase@UIOleInPlaceUIWindow@@@ATL@@QBEPAV?$_NoAddRefReleaseOnCComPtr@UIOleInPlaceUIWindow@@@1@XZ 10009620 f i GraphicDisplay.obj
 0001:00008670       ??C?$CComPtrBase@UIOleObject@@@ATL@@QBEPAV?$_NoAddRefReleaseOnCComPtr@UIOleObject@@@1@XZ 10009670 f i GraphicDisplay.obj
 0001:000086c0       ??C?$CComPtrBase@UIPersistStream@@@ATL@@QBEPAV?$_NoAddRefReleaseOnCComPtr@UIPersistStream@@@1@XZ 100096c0 f i GraphicDisplay.obj
 0001:00008710       ??C?$CComPtrBase@UIPersistStreamInit@@@ATL@@QBEPAV?$_NoAddRefReleaseOnCComPtr@UIPersistStreamInit@@@1@XZ 10009710 f i GraphicDisplay.obj
 0001:00008760       ??C?$CComPtrBase@UIPointerInactive@@@ATL@@QBEPAV?$_NoAddRefReleaseOnCComPtr@UIPointerInactive@@@1@XZ 10009760 f i GraphicDisplay.obj
 0001:000087b0       ??C?$CComPtrBase@UIProvideClassInfo2@@@ATL@@QBEPAV?$_NoAddRefReleaseOnCComPtr@UIProvideClassInfo2@@@1@XZ 100097b0 f i GraphicDisplay.obj
 0001:00008800       ??C?$CComPtrBase@UISpecifyPropertyPages@@@ATL@@QBEPAV?$_NoAddRefReleaseOnCComPtr@UISpecifyPropertyPages@@@1@XZ 10009800 f i GraphicDisplay.obj
 0001:00008850       ??C?$CComPtrBase@UITypeInfo@@@ATL@@QBEPAV?$_NoAddRefReleaseOnCComPtr@UITypeInfo@@@1@XZ 10009850 f i GraphicDisplay.obj
 0001:000088a0       ??C?$CComPtrBase@UITypeLib@@@ATL@@QBEPAV?$_NoAddRefReleaseOnCComPtr@UITypeLib@@@1@XZ 100098a0 f i GraphicDisplay.obj
 0001:000088f0       ??C?$CComPtrBase@UIUnknown@@@ATL@@QBEPAV?$_NoAddRefReleaseOnCComPtr@UIUnknown@@@1@XZ 100098f0 f i GraphicDisplay.obj
 0001:00008940       ??C?$CComPtrBase@UIViewObjectEx@@@ATL@@QBEPAV?$_NoAddRefReleaseOnCComPtr@UIViewObjectEx@@@1@XZ 10009940 f i GraphicDisplay.obj
 0001:00008990       ??I?$CComPtrBase@UICatRegister@@@ATL@@QAEPAPAUICatRegister@@XZ 10009990 f i GraphicDisplay.obj
 0001:000089e0       ??I?$CComPtrBase@UIConnectionPoint@@@ATL@@QAEPAPAUIConnectionPoint@@XZ 100099e0 f i GraphicDisplay.obj
 0001:00008a30       ??I?$CComPtrBase@UIConnectionPointContainer@@@ATL@@QAEPAPAUIConnectionPointContainer@@XZ 10009a30 f i GraphicDisplay.obj
 0001:00008a80       ??I?$CComPtrBase@UIDataAdviseHolder@@@ATL@@QAEPAPAUIDataAdviseHolder@@XZ 10009a80 f i GraphicDisplay.obj
 0001:00008ad0       ??I?$CComPtrBase@UIDataObject@@@ATL@@QAEPAPAUIDataObject@@XZ 10009ad0 f i GraphicDisplay.obj
 0001:00008b20       ??I?$CComPtrBase@UIDispatch@@@ATL@@QAEPAPAUIDispatch@@XZ 10009b20 f i GraphicDisplay.obj
 0001:00008b70       ??I?$CComPtrBase@UIOleAdviseHolder@@@ATL@@QAEPAPAUIOleAdviseHolder@@XZ 10009b70 f i GraphicDisplay.obj
 0001:00008bc0       ??I?$CComPtrBase@UIOleControlSite@@@ATL@@QAEPAPAUIOleControlSite@@XZ 10009bc0 f i GraphicDisplay.obj
 0001:00008c10       ??I?$CComPtrBase@UIOleInPlaceActiveObject@@@ATL@@QAEPAPAUIOleInPlaceActiveObject@@XZ 10009c10 f i GraphicDisplay.obj
 0001:00008c60       ??I?$CComPtrBase@UIOleInPlaceFrame@@@ATL@@QAEPAPAUIOleInPlaceFrame@@XZ 10009c60 f i GraphicDisplay.obj
 0001:00008cb0       ??I?$CComPtrBase@UIOleInPlaceObject@@@ATL@@QAEPAPAUIOleInPlaceObject@@XZ 10009cb0 f i GraphicDisplay.obj
 0001:00008d00       ??I?$CComPtrBase@UIOleInPlaceSiteWindowless@@@ATL@@QAEPAPAUIOleInPlaceSiteWindowless@@XZ 10009d00 f i GraphicDisplay.obj
 0001:00008d50       ??I?$CComPtrBase@UIOleInPlaceUIWindow@@@ATL@@QAEPAPAUIOleInPlaceUIWindow@@XZ 10009d50 f i GraphicDisplay.obj
 0001:00008da0       ??I?$CComPtrBase@UIOleObject@@@ATL@@QAEPAPAUIOleObject@@XZ 10009da0 f i GraphicDisplay.obj
 0001:00008df0       ??I?$CComPtrBase@UIPersistStream@@@ATL@@QAEPAPAUIPersistStream@@XZ 10009df0 f i GraphicDisplay.obj
 0001:00008e40       ??I?$CComPtrBase@UIPointerInactive@@@ATL@@QAEPAPAUIPointerInactive@@XZ 10009e40 f i GraphicDisplay.obj
 0001:00008e90       ??I?$CComPtrBase@UIProvideClassInfo2@@@ATL@@QAEPAPAUIProvideClassInfo2@@XZ 10009e90 f i GraphicDisplay.obj
 0001:00008ee0       ??I?$CComPtrBase@UIStream@@@ATL@@QAEPAPAUIStream@@XZ 10009ee0 f i GraphicDisplay.obj
 0001:00008f30       ??I?$CComPtrBase@UITypeInfo2@@@ATL@@QAEPAPAUITypeInfo2@@XZ 10009f30 f i GraphicDisplay.obj
 0001:00008f80       ??I?$CComPtrBase@UITypeInfo@@@ATL@@QAEPAPAUITypeInfo@@XZ 10009f80 f i GraphicDisplay.obj
 0001:00008fd0       ??I?$CComPtrBase@UITypeLib@@@ATL@@QAEPAPAUITypeLib@@XZ 10009fd0 f i GraphicDisplay.obj
 0001:00009020       ??I?$CComPtrBase@UIUnknown@@@ATL@@QAEPAPAUIUnknown@@XZ 1000a020 f i GraphicDisplay.obj
 0001:00009070       ??I?$CComPtrBase@UIViewObjectEx@@@ATL@@QAEPAPAUIViewObjectEx@@XZ 1000a070 f i GraphicDisplay.obj
 0001:000090c0       ??ICComBSTR@ATL@@QAEPAPA_WXZ 1000a0c0 f i GraphicDisplay.obj
 0001:000090d5       ??_E?$CComContainedObject@VCOPOSGraphicDisplay@@@ATL@@W3AEPAXI@Z 1000a0d5 f i GraphicDisplay.obj
 0001:000090dd       ??_E?$CComContainedObject@VCOPOSGraphicDisplay@@@ATL@@WEM@AEPAXI@Z 1000a0dd f i GraphicDisplay.obj
 0001:000090e5       ??_E?$CComObject@VCOPOSGraphicDisplay@@@ATL@@W3AEPAXI@Z 1000a0e5 f i GraphicDisplay.obj
 0001:000090ed       ??_E?$CComObject@VCOPOSGraphicDisplay@@@ATL@@WEM@AEPAXI@Z 1000a0ed f i GraphicDisplay.obj
 0001:00009100       ??_G?$CComAggObject@VCOPOSGraphicDisplay@@@ATL@@UAEPAXI@Z 1000a100 f i GraphicDisplay.obj
 0001:00009100       ??_E?$CComAggObject@VCOPOSGraphicDisplay@@@ATL@@UAEPAXI@Z 1000a100 f i GraphicDisplay.obj
 0001:00009150       ??_G?$CComContainedObject@VCOPOSGraphicDisplay@@@ATL@@UAEPAXI@Z 1000a150 f i GraphicDisplay.obj
 0001:00009150       ??_E?$CComContainedObject@VCOPOSGraphicDisplay@@@ATL@@UAEPAXI@Z 1000a150 f i GraphicDisplay.obj
 0001:000091a0       ??_E?$CComObject@V?$CComEnum@UIEnumConnectionPoints@@$1?_GUID_b196b285_bab4_101a_b69c_00aa00341d07@@3U__s_GUID@@BPAUIConnectionPoint@@V?$_CopyInterface@UIConnectionPoint@@@ATL@@VCComSingleThreadModel@6@@ATL@@@ATL@@UAEPAXI@Z 1000a1a0 f i GraphicDisplay.obj
 0001:000091a0       ??_G?$CComObject@V?$CComEnum@UIEnumConnectionPoints@@$1?_GUID_b196b285_bab4_101a_b69c_00aa00341d07@@3U__s_GUID@@BPAUIConnectionPoint@@V?$_CopyInterface@UIConnectionPoint@@@ATL@@VCComSingleThreadModel@6@@ATL@@@ATL@@UAEPAXI@Z 1000a1a0 f i GraphicDisplay.obj
 0001:000091e0       ??_G?$CComObject@V?$CComEnum@UIEnumConnections@@$1?_GUID_b196b287_bab4_101a_b69c_00aa00341d07@@3U__s_GUID@@BUtagCONNECTDATA@@V?$_Copy@UtagCONNECTDATA@@@ATL@@VCComSingleThreadModel@6@@ATL@@@ATL@@UAEPAXI@Z 1000a1e0 f i GraphicDisplay.obj
 0001:000091e0       ??_E?$CComObject@V?$CComEnum@UIEnumConnections@@$1?_GUID_b196b287_bab4_101a_b69c_00aa00341d07@@3U__s_GUID@@BUtagCONNECTDATA@@V?$_Copy@UtagCONNECTDATA@@@ATL@@VCComSingleThreadModel@6@@ATL@@@ATL@@UAEPAXI@Z 1000a1e0 f i GraphicDisplay.obj
 0001:00009220       ??_E?$CComObject@VCOPOSGraphicDisplay@@@ATL@@UAEPAXI@Z 1000a220 f i GraphicDisplay.obj
 0001:00009220       ??_G?$CComObject@VCOPOSGraphicDisplay@@@ATL@@UAEPAXI@Z 1000a220 f i GraphicDisplay.obj
 0001:00009270       ??_E?$CComObjectCached@VCComClassFactory@ATL@@@ATL@@UAEPAXI@Z 1000a270 f i GraphicDisplay.obj
 0001:00009270       ??_G?$CComObjectCached@VCComClassFactory@ATL@@@ATL@@UAEPAXI@Z 1000a270 f i GraphicDisplay.obj
 0001:000092b0       ??_GCComClassFactory@ATL@@UAEPAXI@Z 1000a2b0 f i GraphicDisplay.obj
 0001:000092b0       ??_ECComClassFactory@ATL@@UAEPAXI@Z 1000a2b0 f i GraphicDisplay.obj
 0001:000092f0       ??_GCComModule@ATL@@UAEPAXI@Z 1000a2f0 f i GraphicDisplay.obj
 0001:000092f0       ??_ECComModule@ATL@@UAEPAXI@Z 1000a2f0 f i GraphicDisplay.obj
 0001:00009330       ??_GCRegObject@ATL@@UAEPAXI@Z 1000a330 f i GraphicDisplay.obj
 0001:00009330       ??_ECRegObject@ATL@@UAEPAXI@Z 1000a330 f i GraphicDisplay.obj
 0001:00009370       ?Add@?$CSimpleArray@GV?$CSimpleArrayEqualHelper@G@ATL@@@ATL@@QAEHABG@Z 1000a370 f i GraphicDisplay.obj
 0001:000094c0       ?Add@?$CSimpleMap@PA_WPA_WVCExpansionVectorEqualHelper@ATL@@@ATL@@QAEHABQA_W0@Z 1000a4c0 f i GraphicDisplay.obj
 0001:00009580       ?Add@CComDynamicUnkArray@ATL@@QAEKPAUIUnknown@@@Z 1000a580 f i GraphicDisplay.obj
 0001:00009720       ?Add@CExpansionVector@ATL@@QAEHPB_W0@Z 1000a720 f i GraphicDisplay.obj
 0001:000099b0       ?AddChar@CParseBuffer@CRegParser@ATL@@QAEHPB_W@Z 1000a9b0 f i GraphicDisplay.obj
 0001:000099f0       ?AddCommonRGSReplacements@?$CAtlModuleT@VCComModule@ATL@@@ATL@@UAEJPAUIRegistrarBase@@@Z 1000a9f0 f i GraphicDisplay.obj
 0001:00009a40       ?AddCreateWndData@CAtlWinModule@ATL@@QAEXPAU_AtlCreateWndData@2@PAX@Z 1000aa40 f i GraphicDisplay.obj
 0001:00009a70       ?AddRef@?$CComAggObject@VCOPOSGraphicDisplay@@@ATL@@UAGKXZ 1000aa70 f i GraphicDisplay.obj
 0001:00009a90       ?AddRef@?$CComContainedObject@VCOPOSGraphicDisplay@@@ATL@@UAGKXZ 1000aa90 f i GraphicDisplay.obj
 0001:00009aac       ?AddRef@?$CComContainedObject@VCOPOSGraphicDisplay@@@ATL@@WHA@AGKXZ 1000aaac f i GraphicDisplay.obj
 0001:00009ab6       ?AddRef@?$CComContainedObject@VCOPOSGraphicDisplay@@@ATL@@WHE@AGKXZ 1000aab6 f i GraphicDisplay.obj
 0001:00009ac0       ?AddRef@?$CComContainedObject@VCOPOSGraphicDisplay@@@ATL@@WHI@AGKXZ 1000aac0 f i GraphicDisplay.obj
 0001:00009aca       ?AddRef@?$CComContainedObject@VCOPOSGraphicDisplay@@@ATL@@WHM@AGKXZ 1000aaca f i GraphicDisplay.obj
 0001:00009ad4       ?AddRef@?$CComContainedObject@VCOPOSGraphicDisplay@@@ATL@@WIA@AGKXZ 1000aad4 f i GraphicDisplay.obj
 0001:00009ae1       ?AddRef@?$CComContainedObject@VCOPOSGraphicDisplay@@@ATL@@WIE@AGKXZ 1000aae1 f i GraphicDisplay.obj
 0001:00009aee       ?AddRef@?$CComContainedObject@VCOPOSGraphicDisplay@@@ATL@@WII@AGKXZ 1000aaee f i GraphicDisplay.obj
 0001:00009afb       ?AddRef@?$CComContainedObject@VCOPOSGraphicDisplay@@@ATL@@WIM@AGKXZ 1000aafb f i GraphicDisplay.obj
 0001:00009b08       ?AddRef@?$CComContainedObject@VCOPOSGraphicDisplay@@@ATL@@WJA@AGKXZ 1000ab08 f i GraphicDisplay.obj
 0001:00009b15       ?AddRef@?$CComContainedObject@VCOPOSGraphicDisplay@@@ATL@@WJE@AGKXZ 1000ab15 f i GraphicDisplay.obj
 0001:00009b22       ?AddRef@?$CComContainedObject@VCOPOSGraphicDisplay@@@ATL@@WJI@AGKXZ 1000ab22 f i GraphicDisplay.obj
 0001:00009b2f       ?AddRef@?$CComContainedObject@VCOPOSGraphicDisplay@@@ATL@@WJM@AGKXZ 1000ab2f f i GraphicDisplay.obj
 0001:00009b3c       ?AddRef@?$CComContainedObject@VCOPOSGraphicDisplay@@@ATL@@WKA@AGKXZ 1000ab3c f i GraphicDisplay.obj
 0001:00009b49       ?AddRef@?$CComContainedObject@VCOPOSGraphicDisplay@@@ATL@@WKI@AGKXZ 1000ab49 f i GraphicDisplay.obj
 0001:00009b56       ?AddRef@?$CComContainedObject@VCOPOSGraphicDisplay@@@ATL@@WLE@AGKXZ 1000ab56 f i GraphicDisplay.obj
 0001:00009b70       ?AddRef@?$CComObject@V?$CComEnum@UIEnumConnectionPoints@@$1?_GUID_b196b285_bab4_101a_b69c_00aa00341d07@@3U__s_GUID@@BPAUIConnectionPoint@@V?$_CopyInterface@UIConnectionPoint@@@ATL@@VCComSingleThreadModel@6@@ATL@@@ATL@@UAGKXZ 1000ab70 f i GraphicDisplay.obj
 0001:00009b90       ?AddRef@?$CComObject@V?$CComEnum@UIEnumConnections@@$1?_GUID_b196b287_bab4_101a_b69c_00aa00341d07@@3U__s_GUID@@BUtagCONNECTDATA@@V?$_Copy@UtagCONNECTDATA@@@ATL@@VCComSingleThreadModel@6@@ATL@@@ATL@@UAGKXZ 1000ab90 f i GraphicDisplay.obj
 0001:00009bb0       ?AddRef@?$CComObject@VCOPOSGraphicDisplay@@@ATL@@UAGKXZ 1000abb0 f i GraphicDisplay.obj
 0001:00009bcc       ?AddRef@?$CComObject@VCOPOSGraphicDisplay@@@ATL@@WHA@AGKXZ 1000abcc f i GraphicDisplay.obj
 0001:00009bd6       ?AddRef@?$CComObject@VCOPOSGraphicDisplay@@@ATL@@WHE@AGKXZ 1000abd6 f i GraphicDisplay.obj
 0001:00009be0       ?AddRef@?$CComObject@VCOPOSGraphicDisplay@@@ATL@@WHI@AGKXZ 1000abe0 f i GraphicDisplay.obj
 0001:00009bea       ?AddRef@?$CComObject@VCOPOSGraphicDisplay@@@ATL@@WHM@AGKXZ 1000abea f i GraphicDisplay.obj
 0001:00009bf4       ?AddRef@?$CComObject@VCOPOSGraphicDisplay@@@ATL@@WIA@AGKXZ 1000abf4 f i GraphicDisplay.obj
 0001:00009c01       ?AddRef@?$CComObject@VCOPOSGraphicDisplay@@@ATL@@WIE@AGKXZ 1000ac01 f i GraphicDisplay.obj
 0001:00009c0e       ?AddRef@?$CComObject@VCOPOSGraphicDisplay@@@ATL@@WII@AGKXZ 1000ac0e f i GraphicDisplay.obj
 0001:00009c1b       ?AddRef@?$CComObject@VCOPOSGraphicDisplay@@@ATL@@WIM@AGKXZ 1000ac1b f i GraphicDisplay.obj
 0001:00009c28       ?AddRef@?$CComObject@VCOPOSGraphicDisplay@@@ATL@@WJA@AGKXZ 1000ac28 f i GraphicDisplay.obj
 0001:00009c35       ?AddRef@?$CComObject@VCOPOSGraphicDisplay@@@ATL@@WJE@AGKXZ 1000ac35 f i GraphicDisplay.obj
 0001:00009c42       ?AddRef@?$CComObject@VCOPOSGraphicDisplay@@@ATL@@WJI@AGKXZ 1000ac42 f i GraphicDisplay.obj
 0001:00009c4f       ?AddRef@?$CComObject@VCOPOSGraphicDisplay@@@ATL@@WJM@AGKXZ 1000ac4f f i GraphicDisplay.obj
 0001:00009c5c       ?AddRef@?$CComObject@VCOPOSGraphicDisplay@@@ATL@@WKA@AGKXZ 1000ac5c f i GraphicDisplay.obj
 0001:00009c69       ?AddRef@?$CComObject@VCOPOSGraphicDisplay@@@ATL@@WKI@AGKXZ 1000ac69 f i GraphicDisplay.obj
 0001:00009c76       ?AddRef@?$CComObject@VCOPOSGraphicDisplay@@@ATL@@WLE@AGKXZ 1000ac76 f i GraphicDisplay.obj
 0001:00009c90       ?AddRef@?$CComObjectCached@VCComClassFactory@ATL@@@ATL@@UAGKXZ 1000ac90 f i GraphicDisplay.obj
 0001:00009ce0       ?AddRef@CRegObject@ATL@@UAGKXZ 1000ace0 f i GraphicDisplay.obj
 0001:00009d30       ?AddReplacement@CRegObject@ATL@@UAGJPB_W0@Z 1000ad30 f i GraphicDisplay.obj
 0001:00009e40       ?AddString@CParseBuffer@CRegParser@ATL@@QAEHPB_W@Z 1000ae40 f i GraphicDisplay.obj
 0001:00009f30       ?AddTermFunc@CAtlModule@ATL@@QAEJP6GXK@ZK@Z 1000af30 f i GraphicDisplay.obj
 0001:00009f80       ?AddValue@CRegParser@ATL@@IAEJAAVCRegKey@2@PB_WPA_W@Z 1000af80 f i GraphicDisplay.obj
 0001:0000a710       ?Advise@?$CProxy_IOPOSEvents@VCOPOSGraphicDisplay@@@@UAGJPAUIUnknown@@PAK@Z 1000b710 f i GraphicDisplay.obj
 0001:0000a760       ?Advise@?$IConnectionPointImpl@VCOPOSGraphicDisplay@@$1?DIID__IOPOSGraphicDisplayEvents@@3U_GUID@@BVCComDynamicUnkArray@ATL@@@ATL@@UAGJPAUIUnknown@@PAK@Z 1000b760 f i GraphicDisplay.obj
 0001:0000a900       ?Advise@?$IConnectionPointImpl@VCOPOSGraphicDisplay@@$1?IID_IPropertyNotifySink@@3U_GUID@@BVCComDynamicUnkArray@ATL@@@ATL@@UAGJPAUIUnknown@@PAK@Z 1000b900 f i GraphicDisplay.obj
 0001:0000aaa0       ?Advise@?$IOleObjectImpl@VCOPOSGraphicDisplay@@@ATL@@UAGJPAUIAdviseSink@@PAK@Z 1000baa0 f i GraphicDisplay.obj
 0001:0000ab30       ?Allocate@?$CAtlSafeAllocBufferManager@VCCRTAllocator@ATL@@@_ATL_SAFE_ALLOCA_IMPL@ATL@@QAEPAXK@Z 1000bb30 f i GraphicDisplay.obj
 0001:0000aba0       ?Allocate@?$CTempBuffer@E$0BAA@VCCRTAllocator@ATL@@@ATL@@QAEPAEI@Z 1000bba0 f i GraphicDisplay.obj
 0001:0000abe0       ?Allocate@?$CTempBuffer@_W$0BAA@VCCRTAllocator@ATL@@@ATL@@QAEPA_WI@Z 1000bbe0 f i GraphicDisplay.obj
 0001:0000ac20       ?Allocate@?$CTempBuffer@_W$0EAA@VCCRTAllocator@ATL@@@ATL@@QAEPA_WI@Z 1000bc20 f i GraphicDisplay.obj
 0001:0000ac60       ?AllocateBytes@?$CTempBuffer@E$0BAA@VCCRTAllocator@ATL@@@ATL@@QAEPAEI@Z 1000bc60 f i GraphicDisplay.obj
 0001:0000ace0       ?AllocateBytes@?$CTempBuffer@_W$0BAA@VCCRTAllocator@ATL@@@ATL@@QAEPA_WI@Z 1000bce0 f i GraphicDisplay.obj
 0001:0000ad60       ?AllocateBytes@?$CTempBuffer@_W$0EAA@VCCRTAllocator@ATL@@@ATL@@QAEPA_WI@Z 1000bd60 f i GraphicDisplay.obj
 0001:0000ade0       ?AllocateHeap@?$CTempBuffer@E$0BAA@VCCRTAllocator@ATL@@@ATL@@AAEXI@Z 1000bde0 f i GraphicDisplay.obj
 0001:0000ae30       ?AllocateHeap@?$CTempBuffer@_W$0BAA@VCCRTAllocator@ATL@@@ATL@@AAEXI@Z 1000be30 f i GraphicDisplay.obj
 0001:0000ae80       ?AllocateHeap@?$CTempBuffer@_W$0EAA@VCCRTAllocator@ATL@@@ATL@@AAEXI@Z 1000be80 f i GraphicDisplay.obj
 0001:0000aed0       ?Append@CParseBuffer@CRegParser@ATL@@QAEHPB_WH@Z 1000bed0 f i GraphicDisplay.obj
 0001:0000b070       ?AtlCallTermFunc@ATL@@YGXPAU_ATL_MODULE70@1@@Z 1000c070 f i GraphicDisplay.obj
 0001:0000b110       ?AtlCoTaskMemCAlloc@ATL@@YAPAXKK@Z 1000c110 f i GraphicDisplay.obj
 0001:0000b1a0       ?AtlCoTaskMemRecalloc@ATL@@YAPAXPAXKK@Z 1000c1a0 f i GraphicDisplay.obj
 0001:0000b240       ?AtlComModuleGetClassObject@ATL@@YGJPAU_ATL_COM_MODULE70@1@ABU_GUID@@1PAPAX@Z 1000c240 f i GraphicDisplay.obj
 0001:0000b4d0       ?AtlComModuleRegisterServer@ATL@@YGJPAU_ATL_COM_MODULE70@1@HPBU_GUID@@@Z 1000c4d0 f i GraphicDisplay.obj
 0001:0000b660       ?AtlComModuleUnregisterServer@ATL@@YGJPAU_ATL_COM_MODULE70@1@HPBU_GUID@@@Z 1000c660 f i GraphicDisplay.obj
 0001:0000b790       ?AtlComQIPtrAssign2@ATL@@YAXPAPAUIUnknown@@PAU2@ABU_GUID@@@Z 1000c790 f i GraphicDisplay.obj
 0001:0000b810       ?AtlCreateTargetDC@ATL@@YGPAUHDC__@@PAU2@PAUtagDVTARGETDEVICE@@@Z 1000c810 f i GraphicDisplay.obj
 0001:0000b9b0       ?AtlCrtErrorCheck@ATL@@YAHH@Z 1000c9b0 f i GraphicDisplay.obj
 0001:0000ba80       ?AtlGetPerUserRegistration@ATL@@YGJPA_N@Z 1000ca80 f i GraphicDisplay.obj
 0001:0000bab0       ?AtlHiMetricToPixel@ATL@@YGXPBUtagSIZE@@PAU2@@Z 1000cab0 f i GraphicDisplay.obj
 0001:0000bc80       ?AtlHresultFromLastError@ATL@@YAJXZ 1000cc80 f i GraphicDisplay.obj
 0001:0000bcc0       ?AtlHresultFromWin32@ATL@@YAJK@Z 1000ccc0 f i GraphicDisplay.obj
 0001:0000bce0       ?AtlIPersistStreamInit_Load@ATL@@YGJPAUIStream@@PBUATL_PROPMAP_ENTRY@1@PAXPAUIUnknown@@@Z 1000cce0 f i GraphicDisplay.obj
 0001:0000c140       ?AtlIPersistStreamInit_Save@ATL@@YGJPAUIStream@@HPBUATL_PROPMAP_ENTRY@1@PAXPAUIUnknown@@@Z 1000d140 f i GraphicDisplay.obj
 0001:0000c520       ?AtlInternalOleLoadFromStream@ATL@@YAJPAUIStream@@ABU_GUID@@PAPAXTClassesAllowedInStream@1@K@Z 1000d520 f i GraphicDisplay.obj
 0001:0000c7c0       ?AtlInternalQueryInterface@ATL@@YGJPAXPBU_ATL_INTMAP_ENTRY@1@ABU_GUID@@PAPAX@Z 1000d7c0 f i GraphicDisplay.obj
 0001:0000c9f0       ?AtlLoadTypeLib@ATL@@YGJPAUHINSTANCE__@@PB_WPAPA_WPAPAUITypeLib@@@Z 1000d9f0 f i GraphicDisplay.obj
 0001:0000ce50       ?AtlModuleAddTermFunc@ATL@@YGJPAU_ATL_MODULE70@1@P6GXK@ZK@Z 1000de50 f i GraphicDisplay.obj
 0001:0000cfb0       ?AtlRegisterClassCategoriesHelper@ATL@@YGJABU_GUID@@PBU_ATL_CATMAP_ENTRY@1@H@Z 1000dfb0 f i GraphicDisplay.obj
 0001:0000d690       ?AtlRegisterTypeLib@ATL@@YGJPAUHINSTANCE__@@PB_W@Z 1000e690 f i GraphicDisplay.obj
 0001:0000d9d0       ?AtlThrowImpl@ATL@@YGXJ@Z  1000e9d0 f i GraphicDisplay.obj
 0001:0000da80       ?AtlUnRegisterTypeLib@ATL@@YGJPAUHINSTANCE__@@PB_W@Z 1000ea80 f i GraphicDisplay.obj
 0001:0000dc90       ?AtlWinModuleAddCreateWndData@ATL@@YGXPAU_ATL_WIN_MODULE70@1@PAU_AtlCreateWndData@1@PAX@Z 1000ec90 f i GraphicDisplay.obj
 0001:0000de00       ?AtlWinModuleExtractCreateWndData@ATL@@YGPAXPAU_ATL_WIN_MODULE70@1@@Z 1000ee00 f i GraphicDisplay.obj
 0001:0000df80       ?AtlWinModuleRegisterClassExW@ATL@@YGGPAU_ATL_WIN_MODULE70@1@PBUtagWNDCLASSEXW@@@Z 1000ef80 f i GraphicDisplay.obj
 0001:0000e050       ?AtlWinModuleRegisterWndClassInfoW@ATL@@YGGPAU_ATL_WIN_MODULE70@1@PAU_ATL_BASE_MODULE70@1@PAU_ATL_WNDCLASSINFOW@1@PAP6GJPAUHWND__@@IIJ@Z@Z 1000f050 f i GraphicDisplay.obj
 0001:0000e0e0       ?Attach@?$CAutoVectorPtr@_W@ATL@@QAEXPA_W@Z 1000f0e0 f i GraphicDisplay.obj
 0001:0000e140       ?Attach@CComBSTR@ATL@@QAEXPA_W@Z 1000f140 f i GraphicDisplay.obj
 0001:0000e190       ?Attach@CRegKey@ATL@@QAEXPAUHKEY__@@@Z 1000f190 f i GraphicDisplay.obj
 0001:0000e200       ?CanForceRemoveKey@CRegParser@ATL@@IAEHPB_W@Z 1000f200 f i GraphicDisplay.obj
 0001:0000e270       ?ChToByte@CRegParser@ATL@@KAE_W@Z 1000f270 f i GraphicDisplay.obj
 0001:0000e390       ?ChangeType@CComVariant@ATL@@QAEJGPBUtagVARIANT@@@Z 1000f390 f i GraphicDisplay.obj
 0001:0000e3f0       ?Cleanup@CComTypeInfoHolder@ATL@@SGXK@Z 1000f3f0 f i GraphicDisplay.obj
 0001:0000e4c0       ?Clear@CComVariant@ATL@@QAEJXZ 1000f4c0 f i GraphicDisplay.obj
 0001:0000e500       ?ClearReplacements@CExpansionVector@ATL@@QAEJXZ 1000f500 f i GraphicDisplay.obj
 0001:0000e590       ?ClearReplacements@CRegObject@ATL@@UAGJXZ 1000f590 f i GraphicDisplay.obj
 0001:0000e5e0       ?Clone@?$CComEnumImpl@UIEnumConnectionPoints@@$1?_GUID_b196b285_bab4_101a_b69c_00aa00341d07@@3U__s_GUID@@BPAUIConnectionPoint@@V?$_CopyInterface@UIConnectionPoint@@@ATL@@@ATL@@UAGJPAPAUIEnumConnectionPoints@@@Z 1000f5e0 f i GraphicDisplay.obj
 0001:0000e750       ?Clone@?$CComEnumImpl@UIEnumConnections@@$1?_GUID_b196b287_bab4_101a_b69c_00aa00341d07@@3U__s_GUID@@BUtagCONNECTDATA@@V?$_Copy@UtagCONNECTDATA@@@ATL@@@ATL@@UAGJPAPAUIEnumConnections@@@Z 1000f750 f i GraphicDisplay.obj
 0001:0000e8c0       ?Close@?$IOleObjectImpl@VCOPOSGraphicDisplay@@@ATL@@UAGJK@Z 1000f8c0 f i GraphicDisplay.obj
 0001:0000e950       ?Close@CRegKey@ATL@@QAEJXZ 1000f950 f i GraphicDisplay.obj
 0001:0000e9c0       ?ContextSensitiveHelp@?$IOleInPlaceActiveObjectImpl@VCOPOSGraphicDisplay@@@ATL@@UAGJH@Z 1000f9c0 f i GraphicDisplay.obj
 0001:0000ea30       ?ContextSensitiveHelp@?$IOleInPlaceObjectWindowlessImpl@VCOPOSGraphicDisplay@@@ATL@@UAGJH@Z 1000fa30 f i GraphicDisplay.obj
 0001:0000eaa0       ?ControlQueryInterface@?$CComControl@VCOPOSGraphicDisplay@@V?$CWindowImpl@VCOPOSGraphicDisplay@@VCWindow@ATL@@V?$CWinTraits@$0FGAAAAAA@$0A@@3@@ATL@@@ATL@@UAEJABU_GUID@@PAPAX@Z 1000faa0 f i GraphicDisplay.obj
 0001:0000eb20       ?CreateControlWindow@?$CComControl@VCOPOSGraphicDisplay@@V?$CWindowImpl@VCOPOSGraphicDisplay@@VCWindow@ATL@@V?$CWinTraits@$0FGAAAAAA@$0A@@3@@ATL@@@ATL@@UAEPAUHWND__@@PAU3@AAUtagRECT@@@Z 1000fb20 f i GraphicDisplay.obj
 0001:0000eba0       ?CreateInstance@?$CComCreator@V?$CComAggObject@VCOPOSGraphicDisplay@@@ATL@@@ATL@@SGJPAXABU_GUID@@PAPAX@Z 1000fba0 f i GraphicDisplay.obj
 0001:0000ed20       ?CreateInstance@?$CComCreator@V?$CComObject@VCOPOSGraphicDisplay@@@ATL@@@ATL@@SGJPAXABU_GUID@@PAPAX@Z 1000fd20 f i GraphicDisplay.obj
 0001:0000eeb0       ?CreateInstance@?$CComObject@V?$CComEnum@UIEnumConnectionPoints@@$1?_GUID_b196b285_bab4_101a_b69c_00aa00341d07@@3U__s_GUID@@BPAUIConnectionPoint@@V?$_CopyInterface@UIConnectionPoint@@@ATL@@VCComSingleThreadModel@6@@ATL@@@ATL@@SGJPAPAV12@@Z 1000feb0 f i GraphicDisplay.obj
 0001:0000f020       ?CreateInstance@?$CComObject@V?$CComEnum@UIEnumConnections@@$1?_GUID_b196b287_bab4_101a_b69c_00aa00341d07@@3U__s_GUID@@BUtagCONNECTDATA@@V?$_Copy@UtagCONNECTDATA@@@ATL@@VCComSingleThreadModel@6@@ATL@@@ATL@@SGJPAPAV12@@Z 10010020 f i GraphicDisplay.obj
 0001:0000f190       ?CreateInstance@CComClassFactory@ATL@@UAGJPAUIUnknown@@ABU_GUID@@PAPAX@Z 10010190 f i GraphicDisplay.obj
 0001:0000f280       ?DAdvise@?$IDataObjectImpl@VCOPOSGraphicDisplay@@@ATL@@UAGJPAUtagFORMATETC@@KPAUIAdviseSink@@PAK@Z 10010280 f i GraphicDisplay.obj
 0001:0000f380       ?DEVMODEOLE2T_EX@@YAPAU_devicemodeW@@PAU1@@Z 10010380 f i GraphicDisplay.obj
 0001:0000f390       ?DUnadvise@?$IDataObjectImpl@VCOPOSGraphicDisplay@@@ATL@@UAGJK@Z 10010390 f i GraphicDisplay.obj
 0001:0000f460       ?Decrement@CComMultiThreadModel@ATL@@SGKPAJ@Z 10010460 f i GraphicDisplay.obj
 0001:0000f480       ?Decrement@CComSingleThreadModel@ATL@@SGKPAJ@Z 10010480 f i GraphicDisplay.obj
 0001:0000f4a0       ?DefWindowProcW@?$CWindowImplBaseT@VCWindow@ATL@@V?$CWinTraits@$0FGAAAAAA@$0A@@2@@ATL@@QAEJIIJ@Z 100104a0 f i GraphicDisplay.obj
 0001:0000f4f0       ?DefaultReflectionHandler@?$CWindowImplRoot@VCWindow@ATL@@@ATL@@SAHPAUHWND__@@IIJAAJ@Z 100104f0 f i GraphicDisplay.obj
 0001:0000f6e0       ?DeleteSubKey@CRegKey@ATL@@QAEJPB_W@Z 100106e0 f i GraphicDisplay.obj
 0001:0000f7f0       ?DeleteValue@CRegKey@ATL@@QAEJPB_W@Z 100107f0 f i GraphicDisplay.obj
 0001:0000f860       ?Detach@?$CAutoVectorPtr@_W@ATL@@QAEPA_WXZ 10010860 f i GraphicDisplay.obj
 0001:0000f890       ?Detach@?$CComPtrBase@UIPersistStream@@@ATL@@QAEPAUIPersistStream@@XZ 10010890 f i GraphicDisplay.obj
 0001:0000f8c0       ?Detach@?$CComPtrBase@UITypeInfo@@@ATL@@QAEPAUITypeInfo@@XZ 100108c0 f i GraphicDisplay.obj
 0001:0000f8f0       ?Detach@?$CComPtrBase@UIUnknown@@@ATL@@QAEPAUIUnknown@@XZ 100108f0 f i GraphicDisplay.obj
 0001:0000f920       ?Detach@CComBSTR@ATL@@QAEPA_WXZ 10010920 f i GraphicDisplay.obj
 0001:0000f950       ?Detach@CParseBuffer@CRegParser@ATL@@QAEPA_WXZ 10010950 f i GraphicDisplay.obj
 0001:0000f9a0       ?Detach@CRegKey@ATL@@QAEPAUHKEY__@@XZ 100109a0 f i GraphicDisplay.obj
 0001:0000f9f0       ?DoEvent@COPOSGraphicDisplay@@IAEXIIJ@Z 100109f0 f i GraphicDisplay.obj
 0001:0000fb30       ?DoVerb@?$IOleObjectImpl@VCOPOSGraphicDisplay@@@ATL@@UAGJJPAUtagMSG@@PAUIOleClientSite@@JPAUHWND__@@PBUtagRECT@@@Z 10010b30 f i GraphicDisplay.obj
 0001:0000fd40       ?DoVerbDiscardUndo@?$IOleObjectImpl@VCOPOSGraphicDisplay@@@ATL@@QAEJPBUtagRECT@@PAUHWND__@@@Z 10010d40 f i GraphicDisplay.obj
 0001:0000fdb0       ?DoVerbHide@?$IOleObjectImpl@VCOPOSGraphicDisplay@@@ATL@@QAEJPBUtagRECT@@PAUHWND__@@@Z 10010db0 f i GraphicDisplay.obj
 0001:0000fe60       ?DoVerbInPlaceActivate@?$IOleObjectImpl@VCOPOSGraphicDisplay@@@ATL@@QAEJPBUtagRECT@@PAUHWND__@@@Z 10010e60 f i GraphicDisplay.obj
 0001:0000ff00       ?DoVerbOpen@?$IOleObjectImpl@VCOPOSGraphicDisplay@@@ATL@@QAEJPBUtagRECT@@PAUHWND__@@@Z 10010f00 f i GraphicDisplay.obj
 0001:0000ff70       ?DoVerbPrimary@?$IOleObjectImpl@VCOPOSGraphicDisplay@@@ATL@@QAEJPBUtagRECT@@PAUHWND__@@@Z 10010f70 f i GraphicDisplay.obj
 0001:00010080       ?DoVerbProperties@CComControlBase@ATL@@QAEJPBUtagRECT@@PAUHWND__@@@Z 10011080 f i GraphicDisplay.obj
 0001:000103a0       ?DoVerbShow@?$IOleObjectImpl@VCOPOSGraphicDisplay@@@ATL@@QAEJPBUtagRECT@@PAUHWND__@@@Z 100113a0 f i GraphicDisplay.obj
 0001:00010430       ?DoVerbUIActivate@?$IOleObjectImpl@VCOPOSGraphicDisplay@@@ATL@@QAEJPBUtagRECT@@PAUHWND__@@@Z 10011430 f i GraphicDisplay.obj
 0001:000104d0       ?DoesVerbActivate@CComControlBase@ATL@@QAEHJ@Z 100114d0 f i GraphicDisplay.obj
 0001:00010540       ?DoesVerbUIActivate@CComControlBase@ATL@@QAEHJ@Z 10011540 f i GraphicDisplay.obj
 0001:000105c0       ?Draw@?$IViewObjectExImpl@VCOPOSGraphicDisplay@@@ATL@@UAGJKJPAXPAUtagDVTARGETDEVICE@@PAUHDC__@@2PBU_RECTL@@3P6GHK@ZK@Z 100115c0 f i GraphicDisplay.obj
 0001:00010660       ?Empty@CComBSTR@ATL@@QAEXXZ 10011660 f i GraphicDisplay.obj
 0001:000106a0       ?EnableModeless@?$IOleInPlaceActiveObjectImpl@VCOPOSGraphicDisplay@@@ATL@@UAGJH@Z 100116a0 f i GraphicDisplay.obj
 0001:00010700       ?EndOfVar@CRegParser@ATL@@IAEHXZ 10011700 f i GraphicDisplay.obj
 0001:00010770       ?EnsureTI@CComTypeInfoHolder@ATL@@QAEJK@Z 10011770 f i GraphicDisplay.obj
 0001:000107d0       ?EnumAdvise@?$IOleObjectImpl@VCOPOSGraphicDisplay@@@ATL@@UAGJPAPAUIEnumSTATDATA@@@Z 100117d0 f i GraphicDisplay.obj
 0001:000108e0       ?EnumConnectionPoints@?$IConnectionPointContainerImpl@VCOPOSGraphicDisplay@@@ATL@@UAGJPAPAUIEnumConnectionPoints@@@Z 100118e0 f i GraphicDisplay.obj
 0001:00010d10       ?EnumConnections@?$IConnectionPointImpl@VCOPOSGraphicDisplay@@$1?DIID__IOPOSGraphicDisplayEvents@@3U_GUID@@BVCComDynamicUnkArray@ATL@@@ATL@@UAGJPAPAUIEnumConnections@@@Z 10011d10 f i GraphicDisplay.obj
 0001:00010f60       ?EnumConnections@?$IConnectionPointImpl@VCOPOSGraphicDisplay@@$1?IID_IPropertyNotifySink@@3U_GUID@@BVCComDynamicUnkArray@ATL@@@ATL@@UAGJPAPAUIEnumConnections@@@Z 10011f60 f i GraphicDisplay.obj
 0001:000111b0       ?EnumDAdvise@?$IDataObjectImpl@VCOPOSGraphicDisplay@@@ATL@@UAGJPAPAUIEnumSTATDATA@@@Z 100121b0 f i GraphicDisplay.obj
 0001:000112b0       ?EnumFormatEtc@?$IDataObjectImpl@VCOPOSGraphicDisplay@@@ATL@@UAGJKPAPAUIEnumFORMATETC@@@Z 100122b0 f i GraphicDisplay.obj
 0001:00011320       ?EnumVerbs@?$IOleObjectImpl@VCOPOSGraphicDisplay@@@ATL@@UAGJPAPAUIEnumOLEVERB@@@Z 10012320 f i GraphicDisplay.obj
 0001:000113d0       ?EscapeSingleQuote@CAtlModule@ATL@@SAXPA_WIPB_W@Z 100123d0 f i GraphicDisplay.obj
 0001:00011480       ?ExtractCreateWndData@CAtlWinModule@ATL@@QAEPAXXZ 10012480 f i GraphicDisplay.obj
 0001:000114b0       ?FAccessAllowed@?$IObjectSafetyImpl@VCOPOSGraphicDisplay@@$02@ATL@@MAEHXZ 100124b0 f i GraphicDisplay.obj
 0001:000114d0       ?FinalConstruct@?$CComAggObject@VCOPOSGraphicDisplay@@@ATL@@QAEJXZ 100124d0 f i GraphicDisplay.obj
 0001:00011510       ?FinalConstruct@CComObjectRootBase@ATL@@QAEJXZ 10012510 f i GraphicDisplay.obj
 0001:00011530       ?FinalConstruct@CRegObject@ATL@@QAEJXZ 10012530 f i GraphicDisplay.obj
 0001:00011560       ?FinalRelease@?$CComAggObject@VCOPOSGraphicDisplay@@@ATL@@QAEXXZ 10012560 f i GraphicDisplay.obj
 0001:000115a0       ?FinalRelease@CComObjectRootBase@ATL@@QAEXXZ 100125a0 f i GraphicDisplay.obj
 0001:000115c0       ?FindConnectionPoint@?$IConnectionPointContainerImpl@VCOPOSGraphicDisplay@@@ATL@@UAGJABU_GUID@@PAPAUIConnectionPoint@@@Z 100125c0 f i GraphicDisplay.obj
 0001:00011710       ?FindKey@?$CSimpleMap@PA_WPA_WVCExpansionVectorEqualHelper@ATL@@@ATL@@QBEHABQA_W@Z 10012710 f i GraphicDisplay.obj
 0001:00011780       ?FireTheEvent@?$CProxy_IOPOSEvents@VCOPOSGraphicDisplay@@@@IAEXPAUIUnknown@@PAVOposVariant@@IAAJPB_WJ@Z 10012780 f i GraphicDisplay.obj
 0001:000118f0       ?FireViewChange@CComControlBase@ATL@@QAEJXZ 100128f0 f i GraphicDisplay.obj
 0001:000119b0       ?Fire_DirectIOEvent@?$CProxy_IOPOSEvents@VCOPOSGraphicDisplay@@@@QAEXJPAJPAPA_W@Z 100129b0 f i GraphicDisplay.obj
 0001:00011b80       ?Fire_ErrorEvent@?$CProxy_IOPOSEvents@VCOPOSGraphicDisplay@@@@QAEXJJJPAJ@Z 10012b80 f i GraphicDisplay.obj
 0001:00011d70       ?Fire_OutputCompleteEvent@?$CProxy_IOPOSEvents@VCOPOSGraphicDisplay@@@@QAEXJ@Z 10012d70 f i GraphicDisplay.obj
 0001:00011ed0       ?Fire_StatusUpdateEvent@?$CProxy_IOPOSEvents@VCOPOSGraphicDisplay@@@@QAEXJ@Z 10012ed0 f i GraphicDisplay.obj
 0001:00012030       ?FormatWindowClassName@AtlModuleRegisterWndClassInfoParamW@ATL@@SAXPA_WKPAX@Z 10013030 f i GraphicDisplay.obj
 0001:00012060       ?Free@?$CAutoVectorPtr@_W@ATL@@QAEXXZ 10013060 f i GraphicDisplay.obj
 0001:000120b0       ?FreeHeap@?$CTempBuffer@E$0BAA@VCCRTAllocator@ATL@@@ATL@@AAEXXZ 100130b0 f i GraphicDisplay.obj
 0001:000120e0       ?FreeHeap@?$CTempBuffer@_W$0BAA@VCCRTAllocator@ATL@@@ATL@@AAEXXZ 100130e0 f i GraphicDisplay.obj
 0001:00012110       ?FreeHeap@?$CTempBuffer@_W$0EAA@VCCRTAllocator@ATL@@@ATL@@AAEXXZ 10013110 f i GraphicDisplay.obj
 0001:00012140       ?Freeze@?$IViewObjectExImpl@VCOPOSGraphicDisplay@@@ATL@@UAGJKJPAXPAK@Z 10013140 f i GraphicDisplay.obj
 0001:000121b0       ?GenerateError@CRegParser@ATL@@IAEJI@Z 100131b0 f i GraphicDisplay.obj
 0001:000121d0       ?GetAdvise@?$IViewObjectExImpl@VCOPOSGraphicDisplay@@@ATL@@UAGJPAK0PAPAUIAdviseSink@@@Z 100131d0 f i GraphicDisplay.obj
 0001:000122d0       ?GetAmbientLocaleID@CComControlBase@ATL@@QAEJAAK@Z 100132d0 f i GraphicDisplay.obj
 0001:000123b0       ?GetAmbientProperty@CComControlBase@ATL@@QAEJJAAUtagVARIANT@@@Z 100133b0 f i GraphicDisplay.obj
 0001:00012400       ?GetAmbientUserMode@CComControlBase@ATL@@QAEJAAH@Z 10013400 f i GraphicDisplay.obj
 0001:00012500       ?GetAppId@?$CAtlModuleT@VCComModule@ATL@@@ATL@@SAPB_WXZ 10013500 f i GraphicDisplay.obj
 0001:00012510       ?GetAt@CComDynamicUnkArray@ATL@@QAEPAUIUnknown@@H@Z 10013510 f i GraphicDisplay.obj
 0001:00012590       ?GetCanonicalFormatEtc@?$IDataObjectImpl@VCOPOSGraphicDisplay@@@ATL@@UAGJPAUtagFORMATETC@@0@Z 10013590 f i GraphicDisplay.obj
 0001:00012600       ?GetClassID@?$IPersistStorageImpl@VCOPOSGraphicDisplay@@@ATL@@UAGJPAU_GUID@@@Z 10013600 f i GraphicDisplay.obj
 0001:00012680       ?GetClassID@?$IPersistStreamInitImpl@VCOPOSGraphicDisplay@@@ATL@@UAGJPAU_GUID@@@Z 10013680 f i GraphicDisplay.obj
 0001:00012700       ?GetClassInfoExW@AtlModuleRegisterWndClassInfoParamW@ATL@@SAHPAUHINSTANCE__@@PB_WPAUtagWNDCLASSEXW@@@Z 10013700 f i GraphicDisplay.obj
 0001:00012730       ?GetClassInfoW@?$IProvideClassInfo2Impl@$1?CLSID_OPOSGraphicDisplay@@3U_GUID@@B$1?DIID__IOPOSGraphicDisplayEvents@@3U2@B$1?LIBID_OposGraphicDisplay_CCO@@3U2@B$00$0A@VCComTypeInfoHolder@ATL@@@ATL@@UAGJPAPAUITypeInfo@@@Z 10013730 f i GraphicDisplay.obj
 0001:00012750       ?GetClassObject@CComModule@ATL@@QAEJABU_GUID@@0PAPAX@Z 10013750 f i GraphicDisplay.obj
 0001:00012950       ?GetClientSite@?$IOleObjectImpl@VCOPOSGraphicDisplay@@@ATL@@UAGJPAPAUIOleClientSite@@@Z 10013950 f i GraphicDisplay.obj
 0001:000129e0       ?GetClipboardData@?$IOleObjectImpl@VCOPOSGraphicDisplay@@@ATL@@UAGJKPAPAUIDataObject@@@Z 100139e0 f i GraphicDisplay.obj
 0001:00012a50       ?GetCodeAddress@CDynamicStdCallThunk2@ATL@@QAEPAXXZ 10013a50 f i GraphicDisplay.obj
 0001:00012a80       ?GetColorSet@?$IViewObjectExImpl@VCOPOSGraphicDisplay@@@ATL@@UAGJKJPAXPAUtagDVTARGETDEVICE@@PAUHDC__@@PAPAUtagLOGPALETTE@@@Z 10013a80 f i GraphicDisplay.obj
 0001:00012af0       ?GetConnMap@COPOSGraphicDisplay@@SAPBU_ATL_CONNMAP_ENTRY@ATL@@PAH@Z 10013af0 f i GraphicDisplay.obj
 0001:00012c30       ?GetConnectionInterface@?$IConnectionPointImpl@VCOPOSGraphicDisplay@@$1?DIID__IOPOSGraphicDisplayEvents@@3U_GUID@@BVCComDynamicUnkArray@ATL@@@ATL@@UAGJPAU_GUID@@@Z 10013c30 f i GraphicDisplay.obj
 0001:00012c70       ?GetConnectionInterface@?$IConnectionPointImpl@VCOPOSGraphicDisplay@@$1?IID_IPropertyNotifySink@@3U_GUID@@BVCComDynamicUnkArray@ATL@@@ATL@@UAGJPAU_GUID@@@Z 10013c70 f i GraphicDisplay.obj
 0001:00012cb0       ?GetConnectionPointContainer@?$IConnectionPointImpl@VCOPOSGraphicDisplay@@$1?DIID__IOPOSGraphicDisplayEvents@@3U_GUID@@BVCComDynamicUnkArray@ATL@@@ATL@@UAGJPAPAUIConnectionPointContainer@@@Z 10013cb0 f i GraphicDisplay.obj
 0001:00012d20       ?GetConnectionPointContainer@?$IConnectionPointImpl@VCOPOSGraphicDisplay@@$1?IID_IPropertyNotifySink@@3U_GUID@@BVCComDynamicUnkArray@ATL@@@ATL@@UAGJPAPAUIConnectionPointContainer@@@Z 10013d20 f i GraphicDisplay.obj
 0001:00012d90       ?GetContentExtent@?$IQuickActivateImpl@VCOPOSGraphicDisplay@@@ATL@@UAGJPAUtagSIZE@@@Z 10013d90 f i GraphicDisplay.obj
 0001:00012e20       ?GetControlInfo@?$IOleControlImpl@VCOPOSGraphicDisplay@@@ATL@@UAGJPAUtagCONTROLINFO@@@Z 10013e20 f i GraphicDisplay.obj
 0001:00012e90       ?GetCookie@CComDynamicUnkArray@ATL@@QAGKPAPAUIUnknown@@@Z 10013e90 f i GraphicDisplay.obj
 0001:00012f50       ?GetData@?$IDataObjectImpl@VCOPOSGraphicDisplay@@@ATL@@UAGJPAUtagFORMATETC@@PAUtagSTGMEDIUM@@@Z 10013f50 f i GraphicDisplay.obj
 0001:00012fe0       ?GetData@CAtlSafeAllocBufferNode@?$CAtlSafeAllocBufferManager@VCCRTAllocator@ATL@@@_ATL_SAFE_ALLOCA_IMPL@ATL@@QAEPAXXZ 10013fe0 f i GraphicDisplay.obj
 0001:00013000       ?GetDataHere@?$IDataObjectImpl@VCOPOSGraphicDisplay@@@ATL@@UAGJPAUtagFORMATETC@@PAUtagSTGMEDIUM@@@Z 10014000 f i GraphicDisplay.obj
 0001:00013070       ?GetDropTarget@?$IOleInPlaceObjectWindowlessImpl@VCOPOSGraphicDisplay@@@ATL@@UAGJPAPAUIDropTarget@@@Z 10014070 f i GraphicDisplay.obj
 0001:000130e0       ?GetExtent@?$IOleObjectImpl@VCOPOSGraphicDisplay@@@ATL@@UAGJKPAUtagSIZE@@@Z 100140e0 f i GraphicDisplay.obj
 0001:00013180       ?GetExtent@?$IViewObjectExImpl@VCOPOSGraphicDisplay@@@ATL@@UAGJKJPAUtagDVTARGETDEVICE@@PAUtagSIZE@@@Z 10014180 f i GraphicDisplay.obj
 0001:00013250       ?GetGITPtr@CAtlModule@ATL@@UAEJPAPAUIGlobalInterfaceTable@@@Z 10014250 f i GraphicDisplay.obj
 0001:00013350       ?GetGUID@?$IProvideClassInfo2Impl@$1?CLSID_OPOSGraphicDisplay@@3U_GUID@@B$1?DIID__IOPOSGraphicDisplayEvents@@3U2@B$1?LIBID_OposGraphicDisplay_CCO@@3U2@B$00$0A@VCComTypeInfoHolder@ATL@@@ATL@@UAGJKPAU_GUID@@@Z 10014350 f i GraphicDisplay.obj
 0001:000133d0       ?GetIDsOfNames@?$IDispatchImpl@UIOPOSGraphicDisplay@@$1?IID_IOPOSGraphicDisplay@@3U_GUID@@B$1?LIBID_OposGraphicDisplay_CCO@@3U3@B$00$0A@VCComTypeInfoHolder@ATL@@@ATL@@UAGJABU_GUID@@PAPA_WIKPAJ@Z 100143d0 f i GraphicDisplay.obj
 0001:00013400       ?GetIDsOfNames@CComTypeInfoHolder@ATL@@QAEJABU_GUID@@PAPA_WIKPAJ@Z 10014400 f i GraphicDisplay.obj
 0001:000135b0       ?GetInterfaceSafetyOptions@?$IObjectSafetyImpl@VCOPOSGraphicDisplay@@$02@ATL@@UAGJABU_GUID@@PAK1@Z 100145b0 f i GraphicDisplay.obj
 0001:00013720       ?GetKeyAt@?$CSimpleMap@PA_WPA_WVCExpansionVectorEqualHelper@ATL@@@ATL@@QBEAAPA_WH@Z 10014720 f i GraphicDisplay.obj
 0001:000137a0       ?GetLockCount@CAtlModule@ATL@@UAEJXZ 100147a0 f i GraphicDisplay.obj
 0001:000137c0       ?GetMiscStatus@?$IOleObjectImpl@VCOPOSGraphicDisplay@@@ATL@@UAGJKPAK@Z 100147c0 f i GraphicDisplay.obj
 0001:00013830       ?GetMoniker@?$IOleObjectImpl@VCOPOSGraphicDisplay@@@ATL@@UAGJKKPAPAUIMoniker@@@Z 10014830 f i GraphicDisplay.obj
 0001:000138a0       ?GetNaturalExtent@?$IViewObjectExImpl@VCOPOSGraphicDisplay@@@ATL@@UAGJKJPAUtagDVTARGETDEVICE@@PAUHDC__@@PAUtagExtentInfo@@PAUtagSIZE@@@Z 100148a0 f i GraphicDisplay.obj
 0001:000139c0       ?GetObjectCLSID@?$CComCoClass@VCOPOSGraphicDisplay@@$1?CLSID_OPOSGraphicDisplay@@3U_GUID@@B@ATL@@SGABU_GUID@@XZ 100149c0 f i GraphicDisplay.obj
 0001:000139d0       ?GetPages@?$ISpecifyPropertyPagesImpl@VCOPOSGraphicDisplay@@@ATL@@UAGJPAUtagCAUUID@@@Z 100149d0 f i GraphicDisplay.obj
 0001:00013a40       ?GetPagesHelper@?$ISpecifyPropertyPagesImpl@VCOPOSGraphicDisplay@@@ATL@@IAEJPAUtagCAUUID@@PBUATL_PROPMAP_ENTRY@2@@Z 10014a40 f i GraphicDisplay.obj
 0001:00013c40       ?GetProperty@?$CComPtr@UIDispatch@@@ATL@@QAEJJPAUtagVARIANT@@@Z 10014c40 f i GraphicDisplay.obj
 0001:00013c80       ?GetProperty@?$CComPtr@UIDispatch@@@ATL@@SAJPAUIDispatch@@JPAUtagVARIANT@@@Z 10014c80 f i GraphicDisplay.obj
 0001:00013de0       ?GetPropertyMap@COPOSGraphicDisplay@@SAPBUATL_PROPMAP_ENTRY@ATL@@XZ 10014de0 f i GraphicDisplay.obj
 0001:00013df0       ?GetRect@?$IViewObjectExImpl@VCOPOSGraphicDisplay@@@ATL@@UAGJKPAU_RECTL@@@Z 10014df0 f i GraphicDisplay.obj
 0001:00013e60       ?GetSize@?$CSimpleMap@PA_WPA_WVCExpansionVectorEqualHelper@ATL@@@ATL@@QBEHXZ 10014e60 f i GraphicDisplay.obj
 0001:00013e80       ?GetSize@CComDynamicUnkArray@ATL@@QBEHXZ 10014e80 f i GraphicDisplay.obj
 0001:00013ea0       ?GetSizeMax@?$IPersistStreamInitImpl@VCOPOSGraphicDisplay@@@ATL@@UAGJPAT_ULARGE_INTEGER@@@Z 10014ea0 f i GraphicDisplay.obj
 0001:00014410       ?GetSizeMax@CComVariant@ATL@@QBEJPAT_ULARGE_INTEGER@@@Z 10015410 f i GraphicDisplay.obj
 0001:00014770       ?GetStreamSize@CComBSTR@ATL@@SAKPA_W@Z 10015770 f i GraphicDisplay.obj
 0001:000147c0       ?GetTI@CComTypeInfoHolder@ATL@@QAEJK@Z 100157c0 f i GraphicDisplay.obj
 0001:00014fd0       ?GetTI@CComTypeInfoHolder@ATL@@QAEJKPAPAUITypeInfo@@@Z 10015fd0 f i GraphicDisplay.obj
 0001:00015090       ?GetTypeInfo@?$IDispatchImpl@UIOPOSGraphicDisplay@@$1?IID_IOPOSGraphicDisplay@@3U_GUID@@B$1?LIBID_OposGraphicDisplay_CCO@@3U3@B$00$0A@VCComTypeInfoHolder@ATL@@@ATL@@UAGJIKPAPAUITypeInfo@@@Z 10016090 f i GraphicDisplay.obj
 0001:000150c0       ?GetTypeInfo@CComTypeInfoHolder@ATL@@QAEJIKPAPAUITypeInfo@@@Z 100160c0 f i GraphicDisplay.obj
 0001:00015100       ?GetTypeInfoCount@?$IDispatchImpl@UIOPOSGraphicDisplay@@$1?IID_IOPOSGraphicDisplay@@3U_GUID@@B$1?LIBID_OposGraphicDisplay_CCO@@3U3@B$00$0A@VCComTypeInfoHolder@ATL@@@ATL@@UAGJPAI@Z 10016100 f i GraphicDisplay.obj
 0001:00015120       ?GetUnknown@CComDynamicUnkArray@ATL@@QAGPAUIUnknown@@K@Z 10016120 f i GraphicDisplay.obj
 0001:00015190       ?GetUnknown@COPOSGraphicDisplay@@QAEPAUIUnknown@@XZ 10016190 f i GraphicDisplay.obj
 0001:000151c0       ?GetUserClassID@?$IOleObjectImpl@VCOPOSGraphicDisplay@@@ATL@@UAGJPAU_GUID@@@Z 100161c0 f i GraphicDisplay.obj
 0001:00015270       ?GetUserType@?$IOleObjectImpl@VCOPOSGraphicDisplay@@@ATL@@UAGJKPAPA_W@Z 10016270 f i GraphicDisplay.obj
 0001:000152e0       ?GetValueAt@?$CSimpleMap@PA_WPA_WVCExpansionVectorEqualHelper@ATL@@@ATL@@QBEAAPA_WH@Z 100162e0 f i GraphicDisplay.obj
 0001:00015360       ?GetViewStatus@?$IViewObjectExImpl@VCOPOSGraphicDisplay@@@ATL@@UAGJPAK@Z 10016360 f i GraphicDisplay.obj
 0001:00015420       ?GetWNDPROC@CWndProcThunk@ATL@@QAEP6GJPAUHWND__@@IIJ@ZXZ 10016420 f i GraphicDisplay.obj
 0001:00015450       ?GetWindow@?$IOleInPlaceActiveObjectImpl@VCOPOSGraphicDisplay@@@ATL@@UAGJPAPAUHWND__@@@Z 10016450 f i GraphicDisplay.obj
 0001:00015520       ?GetWindow@?$IOleInPlaceObjectWindowlessImpl@VCOPOSGraphicDisplay@@@ATL@@UAGJPAPAUHWND__@@@Z 10016520 f i GraphicDisplay.obj
 0001:000155f0       ?GetWindowLongPtrW@@YAJPAUHWND__@@H@Z 100165f0 f i GraphicDisplay.obj
 0001:00015620       ?GetWindowProc@?$CWindowImplBaseT@VCWindow@ATL@@V?$CWinTraits@$0FGAAAAAA@$0A@@2@@ATL@@UAEP6GJPAUHWND__@@IIJ@ZXZ 10016620 f i GraphicDisplay.obj
 0001:00015640       ?GetWndCaption@?$CWindowImpl@VCOPOSGraphicDisplay@@VCWindow@ATL@@V?$CWinTraits@$0FGAAAAAA@$0A@@3@@ATL@@SAPB_WXZ 10016640 f i GraphicDisplay.obj
 0001:00015650       ?GetWndClassInfo@?$CWindowImpl@VCOPOSGraphicDisplay@@VCWindow@ATL@@V?$CWinTraits@$0FGAAAAAA@$0A@@3@@ATL@@SAAAU_ATL_WNDCLASSINFOW@2@XZ 10016650 f i GraphicDisplay.obj
 0001:00015660       ?GetWndClassName@CWindow@ATL@@SAPB_WXZ 10016660 f i GraphicDisplay.obj
 0001:00015670       ?GetWndExStyle@?$CWinTraits@$0FGAAAAAA@$0A@@ATL@@SAKK@Z 10016670 f i GraphicDisplay.obj
 0001:000156a0       ?GetWndExStyle@?$CWindowImplBaseT@VCWindow@ATL@@V?$CWinTraits@$0FGAAAAAA@$0A@@2@@ATL@@SAKK@Z 100166a0 f i GraphicDisplay.obj
 0001:000156c0       ?GetWndStyle@?$CWinTraits@$0FGAAAAAA@$0A@@ATL@@SAKK@Z 100166c0 f i GraphicDisplay.obj
 0001:000156f0       ?GetWndStyle@?$CWindowImplBaseT@VCWindow@ATL@@V?$CWinTraits@$0FGAAAAAA@$0A@@2@@ATL@@SAKK@Z 100166f0 f i GraphicDisplay.obj
 0001:00015710       ?GetZoomInfo@CComControlBase@ATL@@QAEXAAUATL_DRAWINFO@@@Z 10016710 f i GraphicDisplay.obj
 0001:00015880       ?HKeyFromString@CRegParser@ATL@@KAPAUHKEY__@@PA_W@Z 10016880 f i GraphicDisplay.obj
 0001:000158f0       ?HandsOffStorage@?$IPersistStorageImpl@VCOPOSGraphicDisplay@@@ATL@@UAGJXZ 100168f0 f i GraphicDisplay.obj
 0001:00015950       ?HasSubKeys@CRegParser@ATL@@IAEHPAUHKEY__@@@Z 10016950 f i GraphicDisplay.obj
 0001:00015a60       ?IDataObject_GetData@CComControlBase@ATL@@QAEJPAUtagFORMATETC@@PAUtagSTGMEDIUM@@@Z 10016a60 f i GraphicDisplay.obj
 0001:00015e80       ?IOleInPlaceObject_InPlaceDeactivate@CComControlBase@ATL@@QAEJXZ 10016e80 f i GraphicDisplay.obj
 0001:00016080       ?IOleInPlaceObject_SetObjectRects@CComControlBase@ATL@@QAEJPBUtagRECT@@0@Z 10017080 f i GraphicDisplay.obj
 0001:00016240       ?IOleInPlaceObject_UIDeactivate@CComControlBase@ATL@@QAEJXZ 10017240 f i GraphicDisplay.obj
 0001:000164b0       ?IOleObject_Advise@CComControlBase@ATL@@QAEJPAUIAdviseSink@@PAK@Z 100174b0 f i GraphicDisplay.obj
 0001:00016560       ?IOleObject_Close@CComControlBase@ATL@@QAEJK@Z 10017560 f i GraphicDisplay.obj
 0001:00016810       ?IOleObject_GetClientSite@CComControlBase@ATL@@QAEJPAPAUIOleClientSite@@@Z 10017810 f i GraphicDisplay.obj
 0001:000168b0       ?IOleObject_SetClientSite@CComControlBase@ATL@@QAEJPAUIOleClientSite@@@Z 100178b0 f i GraphicDisplay.obj
 0001:00016980       ?IOleObject_SetExtent@CComControlBase@ATL@@QAEJKPAUtagSIZE@@@Z 10017980 f i GraphicDisplay.obj
 0001:00016ac0       ?IPSI_GetIPersistStreamInit@?$IPersistStorageImpl@VCOPOSGraphicDisplay@@@ATL@@AAEPAUIPersistStreamInit@@XZ 10017ac0 f i GraphicDisplay.obj
 0001:00016b90       ?IPersistStreamInit_Load@?$IPersistStreamInitImpl@VCOPOSGraphicDisplay@@@ATL@@QAEJPAUIStream@@PBUATL_PROPMAP_ENTRY@2@@Z 10017b90 f i GraphicDisplay.obj
 0001:00016c10       ?IPersistStreamInit_Save@?$IPersistStreamInitImpl@VCOPOSGraphicDisplay@@@ATL@@QAEJPAUIStream@@HPBUATL_PROPMAP_ENTRY@2@@Z 10017c10 f i GraphicDisplay.obj
 0001:00016ca0       ?IQuickActivate_QuickActivate@CComControlBase@ATL@@QAEJPAUtagQACONTAINER@@PAUtagQACONTROL@@@Z 10017ca0 f i GraphicDisplay.obj
 0001:000172f0       ?IViewObject_Draw@CComControlBase@ATL@@QAEJKJPAXPAUtagDVTARGETDEVICE@@PAUHDC__@@2PBU_RECTL@@3@Z 100182f0 f i GraphicDisplay.obj
 0001:00017590       ?InPlaceActivate@CComControlBase@ATL@@QAEJJPBUtagRECT@@@Z 10018590 f i GraphicDisplay.obj
 0001:00017f20       ?InPlaceDeactivate@?$IOleInPlaceObjectWindowlessImpl@VCOPOSGraphicDisplay@@@ATL@@UAGJXZ 10018f20 f i GraphicDisplay.obj
 0001:00017fa0       ?Increment@CComMultiThreadModel@ATL@@SGKPAJ@Z 10018fa0 f i GraphicDisplay.obj
 0001:00017fc0       ?Increment@CComSingleThreadModel@ATL@@SGKPAJ@Z 10018fc0 f i GraphicDisplay.obj
 0001:00017fe0       ?Init@?$CComEnumImpl@UIEnumConnectionPoints@@$1?_GUID_b196b285_bab4_101a_b69c_00aa00341d07@@3U__s_GUID@@BPAUIConnectionPoint@@V?$_CopyInterface@UIConnectionPoint@@@ATL@@@ATL@@QAEJPAPAUIConnectionPoint@@0PAUIUnknown@@W4CComEnumFlags@2@@Z 10018fe0 f i GraphicDisplay.obj
 0001:000181c0       ?Init@?$CComEnumImpl@UIEnumConnections@@$1?_GUID_b196b287_bab4_101a_b69c_00aa00341d07@@3U__s_GUID@@BUtagCONNECTDATA@@V?$_Copy@UtagCONNECTDATA@@@ATL@@@ATL@@QAEJPAUtagCONNECTDATA@@0PAUIUnknown@@W4CComEnumFlags@2@@Z 100191c0 f i GraphicDisplay.obj
 0001:000183a0       ?Init@CComFakeCriticalSection@ATL@@QAEJXZ 100193a0 f i GraphicDisplay.obj
 0001:000183c0       ?Init@CComModule@ATL@@QAEJPAU_ATL_OBJMAP_ENTRY30@2@PAUHINSTANCE__@@PBU_GUID@@@Z 100193c0 f i GraphicDisplay.obj
 0001:000184b0       ?Init@CComSafeDeleteCriticalSection@ATL@@QAEJXZ 100194b0 f i GraphicDisplay.obj
 0001:00018530       ?Init@CDynamicStdCallThunk2@ATL@@QAEHKPAX@Z 10019530 f i GraphicDisplay.obj
 0001:00018590       ?Init@CWndProcThunk@ATL@@QAEHP6GJPAUHWND__@@IIJ@ZPAX@Z 10019590 f i GraphicDisplay.obj
 0001:000185d0       ?InitFromData@?$IOleObjectImpl@VCOPOSGraphicDisplay@@@ATL@@UAGJPAUIDataObject@@HK@Z 100195d0 f i GraphicDisplay.obj
 0001:00018640       ?InitLibId@?$CAtlModuleT@VCComModule@ATL@@@ATL@@SAXXZ 10019640 f i GraphicDisplay.obj
 0001:00018650       ?InitNew@?$IPersistStorageImpl@VCOPOSGraphicDisplay@@@ATL@@UAGJPAUIStorage@@@Z 10019650 f i GraphicDisplay.obj
 0001:00018740       ?InitNew@?$IPersistStreamInitImpl@VCOPOSGraphicDisplay@@@ATL@@UAGJXZ 10019740 f i GraphicDisplay.obj
 0001:000187d0       ?InlineIsEqualUnknown@ATL@@YGHABU_GUID@@@Z 100197d0 f i GraphicDisplay.obj
 0001:00018840       ?InternalAddRef@?$CComObjectRootEx@VCComMultiThreadModel@ATL@@@ATL@@QAEKXZ 10019840 f i GraphicDisplay.obj
 0001:000188a0       ?InternalAddRef@?$CComObjectRootEx@VCComSingleThreadModel@ATL@@@ATL@@QAEKXZ 100198a0 f i GraphicDisplay.obj
 0001:00018900       ?InternalFinalConstructAddRef@CComObjectRootBase@ATL@@QAEXXZ 10019900 f i GraphicDisplay.obj
 0001:00018920       ?InternalFinalConstructAddRef@COPOSGraphicDisplay@@QAEXXZ 10019920 f i GraphicDisplay.obj
 0001:00018950       ?InternalFinalConstructRelease@CComObjectRootBase@ATL@@QAEXXZ 10019950 f i GraphicDisplay.obj
 0001:000189a0       ?InternalFinalConstructRelease@COPOSGraphicDisplay@@QAEXXZ 100199a0 f i GraphicDisplay.obj
 0001:000189d0       ?InternalGetSite@CComControlBase@ATL@@QAEJABU_GUID@@PAPAX@Z 100199d0 f i GraphicDisplay.obj
 0001:00018a90       ?InternalQueryInterface@CComObjectRootBase@ATL@@SGJPAXPBU_ATL_INTMAP_ENTRY@2@ABU_GUID@@PAPAX@Z 10019a90 f i GraphicDisplay.obj
 0001:00018b50       ?InternalRelease@?$CComObjectRootEx@VCComMultiThreadModel@ATL@@@ATL@@QAEKXZ 10019b50 f i GraphicDisplay.obj
 0001:00018bc0       ?InternalRelease@?$CComObjectRootEx@VCComSingleThreadModel@ATL@@@ATL@@QAEKXZ 10019bc0 f i GraphicDisplay.obj
 0001:00018c30       ?InternalSetAtIndex@?$CSimpleArray@GV?$CSimpleArrayEqualHelper@G@ATL@@@ATL@@QAEXHABG@Z 10019c30 f i GraphicDisplay.obj
 0001:00018ca0       ?InternalSetAtIndex@?$CSimpleMap@PA_WPA_WVCExpansionVectorEqualHelper@ATL@@@ATL@@QAEXHABQA_W0@Z 10019ca0 f i GraphicDisplay.obj
 0001:00018d40       ?Invoke@?$IDispatchImpl@UIOPOSGraphicDisplay@@$1?IID_IOPOSGraphicDisplay@@3U_GUID@@B$1?LIBID_OposGraphicDisplay_CCO@@3U3@B$00$0A@VCComTypeInfoHolder@ATL@@@ATL@@UAGJJABU_GUID@@KGPAUtagDISPPARAMS@@PAUtagVARIANT@@PAUtagEXCEPINFO@@PAI@Z 10019d40 f i GraphicDisplay.obj
 0001:00018d80       ?Invoke@CComTypeInfoHolder@ATL@@QAEJPAUIDispatch@@JABU_GUID@@KGPAUtagDISPPARAMS@@PAUtagVARIANT@@PAUtagEXCEPINFO@@PAI@Z 10019d80 f i GraphicDisplay.obj
 0001:00018e10       ?IsDirty@?$IPersistStorageImpl@VCOPOSGraphicDisplay@@@ATL@@UAGJXZ 10019e10 f i GraphicDisplay.obj
 0001:00018f00       ?IsDirty@?$IPersistStreamInitImpl@VCOPOSGraphicDisplay@@@ATL@@UAGJXZ 10019f00 f i GraphicDisplay.obj
 0001:00018fa0       ?IsEqualKey@CExpansionVectorEqualHelper@ATL@@SA_NQA_W0@Z 10019fa0 f i GraphicDisplay.obj
 0001:00018fd0       ?IsEqualObject@?$CComPtrBase@UIOleClientSite@@@ATL@@QAE_NPAUIUnknown@@@Z 10019fd0 f i GraphicDisplay.obj
 0001:00019100       ?IsEqualObject@?$CComPtrBase@UITypeInfo@@@ATL@@QAE_NPAUIUnknown@@@Z 1001a100 f i GraphicDisplay.obj
 0001:00019230       ?IsSpace@CRegParser@ATL@@IAEH_W@Z 1001a230 f i GraphicDisplay.obj
 0001:000192a0       ?IsUpToDate@?$IOleObjectImpl@VCOPOSGraphicDisplay@@@ATL@@UAGJXZ 1001a2a0 f i GraphicDisplay.obj
 0001:00019300       ?Length@CComBSTR@ATL@@QBEIXZ 1001a300 f i GraphicDisplay.obj
 0001:00019340       ?Load@?$IPersistStorageImpl@VCOPOSGraphicDisplay@@@ATL@@UAGJPAUIStorage@@@Z 1001a340 f i GraphicDisplay.obj
 0001:000194a0       ?Load@?$IPersistStreamInitImpl@VCOPOSGraphicDisplay@@@ATL@@UAGJPAUIStream@@@Z 1001a4a0 f i GraphicDisplay.obj
 0001:00019530       ?LoadCursorW@AtlModuleRegisterWndClassInfoParamW@ATL@@SAPAUHICON__@@PAUHINSTANCE__@@PB_W@Z 1001a530 f i GraphicDisplay.obj
 0001:00019560       ?LoadNameCache@CComTypeInfoHolder@ATL@@QAEJPAUITypeInfo@@@Z 1001a560 f i GraphicDisplay.obj
 0001:000197f0       ?Lock@?$CComCritSecLock@VCComCriticalSection@ATL@@@ATL@@QAEJXZ 1001a7f0 f i GraphicDisplay.obj
 0001:000198a0       ?Lock@?$CComObjectRootEx@VCComSingleThreadModel@ATL@@@ATL@@QAEXXZ 1001a8a0 f i GraphicDisplay.obj
 0001:000198c0       ?Lock@CAtlModule@ATL@@UAEJXZ 1001a8c0 f i GraphicDisplay.obj
 0001:000198f0       ?Lock@CComCriticalSection@ATL@@QAEJXZ 1001a8f0 f i GraphicDisplay.obj
 0001:00019930       ?Lock@CComFakeCriticalSection@ATL@@QAEJXZ 1001a930 f i GraphicDisplay.obj
 0001:00019950       ?LockServer@CComClassFactory@ATL@@UAGJH@Z 1001a950 f i GraphicDisplay.obj
 0001:000199b0       ?Lookup@?$CSimpleMap@PA_WPA_WVCExpansionVectorEqualHelper@ATL@@@ATL@@QBEPA_WABQA_W@Z 1001a9b0 f i GraphicDisplay.obj
 0001:00019a00       ?Next@?$CComEnumImpl@UIEnumConnectionPoints@@$1?_GUID_b196b285_bab4_101a_b69c_00aa00341d07@@3U__s_GUID@@BPAUIConnectionPoint@@V?$_CopyInterface@UIConnectionPoint@@@ATL@@@ATL@@UAGJKPAPAUIConnectionPoint@@PAK@Z 1001aa00 f i GraphicDisplay.obj
 0001:00019b70       ?Next@?$CComEnumImpl@UIEnumConnections@@$1?_GUID_b196b287_bab4_101a_b69c_00aa00341d07@@3U__s_GUID@@BUtagCONNECTDATA@@V?$_Copy@UtagCONNECTDATA@@@ATL@@@ATL@@UAGJKPAUtagCONNECTDATA@@PAK@Z 1001ab70 f i GraphicDisplay.obj
 0001:00019ce0       ?NextToken@CRegParser@ATL@@IAEJPA_W@Z 1001ace0 f i GraphicDisplay.obj
 0001:00019f80       ?OLE2CT_EX@@YAPB_WPB_WI@Z  1001af80 f i GraphicDisplay.obj
 0001:00019f90       ?OLE2CT_EX_DEF@@YAPB_WPB_W@Z 1001af90 f i GraphicDisplay.obj
 0001:00019fa0       ?OLE2T_EX@@YAPA_WPA_WI@Z   1001afa0 f i GraphicDisplay.obj
 0001:00019fb0       ?OnAmbientPropertyChange@?$IOleControlImpl@VCOPOSGraphicDisplay@@@ATL@@UAGJJ@Z 1001afb0 f i GraphicDisplay.obj
 0001:0001a040       ?OnDocWindowActivate@?$IOleInPlaceActiveObjectImpl@VCOPOSGraphicDisplay@@@ATL@@UAGJH@Z 1001b040 f i GraphicDisplay.obj
 0001:0001a0d0       ?OnDrawAdvanced@CComControlBase@ATL@@UAEJAAUATL_DRAWINFO@@@Z 1001b0d0 f i GraphicDisplay.obj
 0001:0001a2f0       ?OnFinalMessage@?$CWindowImplBaseT@VCWindow@ATL@@V?$CWinTraits@$0FGAAAAAA@$0A@@2@@ATL@@UAEXPAUHWND__@@@Z 1001b2f0 f i GraphicDisplay.obj
 0001:0001a310       ?OnFrameWindowActivate@?$IOleInPlaceActiveObjectImpl@VCOPOSGraphicDisplay@@@ATL@@UAGJH@Z 1001b310 f i GraphicDisplay.obj
 0001:0001a370       ?OnKillFocus@CComControlBase@ATL@@QAEJIIJAAH@Z 1001b370 f i GraphicDisplay.obj
 0001:0001a470       ?OnMnemonic@?$IOleControlImpl@VCOPOSGraphicDisplay@@@ATL@@UAGJPAUtagMSG@@@Z 1001b470 f i GraphicDisplay.obj
 0001:0001a4e0       ?OnMouseActivate@CComControlBase@ATL@@QAEJIIJAAH@Z 1001b4e0 f i GraphicDisplay.obj
 0001:0001a630       ?OnPaint@CComControlBase@ATL@@QAEJIIJAAH@Z 1001b630 f i GraphicDisplay.obj
 0001:0001a7b0       ?OnPostVerbDiscardUndo@?$IOleObjectImpl@VCOPOSGraphicDisplay@@@ATL@@QAEJXZ 1001b7b0 f i GraphicDisplay.obj
 0001:0001a7d0       ?OnPostVerbHide@?$IOleObjectImpl@VCOPOSGraphicDisplay@@@ATL@@QAEJXZ 1001b7d0 f i GraphicDisplay.obj
 0001:0001a7f0       ?OnPostVerbInPlaceActivate@?$IOleObjectImpl@VCOPOSGraphicDisplay@@@ATL@@QAEJXZ 1001b7f0 f i GraphicDisplay.obj
 0001:0001a810       ?OnPostVerbOpen@?$IOleObjectImpl@VCOPOSGraphicDisplay@@@ATL@@QAEJXZ 1001b810 f i GraphicDisplay.obj
 0001:0001a830       ?OnPostVerbShow@?$IOleObjectImpl@VCOPOSGraphicDisplay@@@ATL@@QAEJXZ 1001b830 f i GraphicDisplay.obj
 0001:0001a850       ?OnPostVerbUIActivate@?$IOleObjectImpl@VCOPOSGraphicDisplay@@@ATL@@QAEJXZ 1001b850 f i GraphicDisplay.obj
 0001:0001a870       ?OnPreVerbDiscardUndo@?$IOleObjectImpl@VCOPOSGraphicDisplay@@@ATL@@QAEJXZ 1001b870 f i GraphicDisplay.obj
 0001:0001a890       ?OnPreVerbHide@?$IOleObjectImpl@VCOPOSGraphicDisplay@@@ATL@@QAEJXZ 1001b890 f i GraphicDisplay.obj
 0001:0001a8b0       ?OnPreVerbInPlaceActivate@?$IOleObjectImpl@VCOPOSGraphicDisplay@@@ATL@@QAEJXZ 1001b8b0 f i GraphicDisplay.obj
 0001:0001a8d0       ?OnPreVerbOpen@?$IOleObjectImpl@VCOPOSGraphicDisplay@@@ATL@@QAEJXZ 1001b8d0 f i GraphicDisplay.obj
 0001:0001a8f0       ?OnPreVerbShow@?$IOleObjectImpl@VCOPOSGraphicDisplay@@@ATL@@QAEJXZ 1001b8f0 f i GraphicDisplay.obj
 0001:0001a910       ?OnPreVerbUIActivate@?$IOleObjectImpl@VCOPOSGraphicDisplay@@@ATL@@QAEJXZ 1001b910 f i GraphicDisplay.obj
 0001:0001a930       ?OnSetFocus@CComControlBase@ATL@@QAEJIIJAAH@Z 1001b930 f i GraphicDisplay.obj
 0001:0001aac0       ?OnWindowMessage@?$IOleInPlaceObjectWindowlessImpl@VCOPOSGraphicDisplay@@@ATL@@UAGJIIJPAJ@Z 1001bac0 f i GraphicDisplay.obj
 0001:0001ac20       ?Open@CRegKey@ATL@@QAEJPAUHKEY__@@PB_WK@Z 1001bc20 f i GraphicDisplay.obj
 0001:0001ad70       ?OuterAddRef@CComObjectRootBase@ATL@@QAEKXZ 1001bd70 f i GraphicDisplay.obj
 0001:0001adb0       ?OuterQueryInterface@CComObjectRootBase@ATL@@QAEJABU_GUID@@PAPAX@Z 1001bdb0 f i GraphicDisplay.obj
 0001:0001ae00       ?OuterRelease@CComObjectRootBase@ATL@@QAEKXZ 1001be00 f i GraphicDisplay.obj
 0001:0001ae40       ?PreProcessBuffer@CRegParser@ATL@@QAEJPA_WPAPA_W@Z 1001be40 f i GraphicDisplay.obj
 0001:0001b380       ?PreTranslateAccelerator@CComControlBase@ATL@@QAEHPAUtagMSG@@AAJ@Z 1001c380 f i GraphicDisplay.obj
 0001:0001b3a0       ?ProcessWindowMessage@?$CComControl@VCOPOSGraphicDisplay@@V?$CWindowImpl@VCOPOSGraphicDisplay@@VCWindow@ATL@@V?$CWinTraits@$0FGAAAAAA@$0A@@3@@ATL@@@ATL@@UAEHPAUHWND__@@IIJAAJK@Z 1001c3a0 f i GraphicDisplay.obj
 0001:0001b570       ?ProcessWindowMessage@COPOSGraphicDisplay@@UAEHPAUHWND__@@IIJAAJK@Z 1001c570 f i GraphicDisplay.obj
 0001:0001b670       ?PutProperty@?$CComPtr@UIDispatch@@@ATL@@QAEJJPAUtagVARIANT@@@Z 1001c670 f i GraphicDisplay.obj
 0001:0001b6b0       ?PutProperty@?$CComPtr@UIDispatch@@@ATL@@SAJPAUIDispatch@@JPAUtagVARIANT@@@Z 1001c6b0 f i GraphicDisplay.obj
 0001:0001b8a0       ?QueryGetData@?$IDataObjectImpl@VCOPOSGraphicDisplay@@@ATL@@UAGJPAUtagFORMATETC@@@Z 1001c8a0 f i GraphicDisplay.obj
 0001:0001b910       ?QueryHitPoint@?$IViewObjectExImpl@VCOPOSGraphicDisplay@@@ATL@@UAGJKPBUtagRECT@@UtagPOINT@@JPAK@Z 1001c910 f i GraphicDisplay.obj
 0001:0001ba20       ?QueryHitRect@?$IViewObjectExImpl@VCOPOSGraphicDisplay@@@ATL@@UAGJKPBUtagRECT@@0JPAK@Z 1001ca20 f i GraphicDisplay.obj
 0001:0001bb70       ?QueryInterface@?$CComAggObject@VCOPOSGraphicDisplay@@@ATL@@UAGJABU_GUID@@PAPAX@Z 1001cb70 f i GraphicDisplay.obj
 0001:0001bc20       ?QueryInterface@?$CComContainedObject@VCOPOSGraphicDisplay@@@ATL@@UAGJABU_GUID@@PAPAX@Z 1001cc20 f i GraphicDisplay.obj
 0001:0001bc44       ?QueryInterface@?$CComContainedObject@VCOPOSGraphicDisplay@@@ATL@@WHA@AGJABU_GUID@@PAPAX@Z 1001cc44 f i GraphicDisplay.obj
 0001:0001bc4e       ?QueryInterface@?$CComContainedObject@VCOPOSGraphicDisplay@@@ATL@@WHE@AGJABU_GUID@@PAPAX@Z 1001cc4e f i GraphicDisplay.obj
 0001:0001bc58       ?QueryInterface@?$CComContainedObject@VCOPOSGraphicDisplay@@@ATL@@WHI@AGJABU_GUID@@PAPAX@Z 1001cc58 f i GraphicDisplay.obj
 0001:0001bc62       ?QueryInterface@?$CComContainedObject@VCOPOSGraphicDisplay@@@ATL@@WHM@AGJABU_GUID@@PAPAX@Z 1001cc62 f i GraphicDisplay.obj
 0001:0001bc6c       ?QueryInterface@?$CComContainedObject@VCOPOSGraphicDisplay@@@ATL@@WIA@AGJABU_GUID@@PAPAX@Z 1001cc6c f i GraphicDisplay.obj
 0001:0001bc79       ?QueryInterface@?$CComContainedObject@VCOPOSGraphicDisplay@@@ATL@@WIE@AGJABU_GUID@@PAPAX@Z 1001cc79 f i GraphicDisplay.obj
 0001:0001bc86       ?QueryInterface@?$CComContainedObject@VCOPOSGraphicDisplay@@@ATL@@WII@AGJABU_GUID@@PAPAX@Z 1001cc86 f i GraphicDisplay.obj
 0001:0001bc93       ?QueryInterface@?$CComContainedObject@VCOPOSGraphicDisplay@@@ATL@@WIM@AGJABU_GUID@@PAPAX@Z 1001cc93 f i GraphicDisplay.obj
 0001:0001bca0       ?QueryInterface@?$CComContainedObject@VCOPOSGraphicDisplay@@@ATL@@WJA@AGJABU_GUID@@PAPAX@Z 1001cca0 f i GraphicDisplay.obj
 0001:0001bcad       ?QueryInterface@?$CComContainedObject@VCOPOSGraphicDisplay@@@ATL@@WJE@AGJABU_GUID@@PAPAX@Z 1001ccad f i GraphicDisplay.obj
 0001:0001bcba       ?QueryInterface@?$CComContainedObject@VCOPOSGraphicDisplay@@@ATL@@WJI@AGJABU_GUID@@PAPAX@Z 1001ccba f i GraphicDisplay.obj
 0001:0001bcc7       ?QueryInterface@?$CComContainedObject@VCOPOSGraphicDisplay@@@ATL@@WJM@AGJABU_GUID@@PAPAX@Z 1001ccc7 f i GraphicDisplay.obj
 0001:0001bcd4       ?QueryInterface@?$CComContainedObject@VCOPOSGraphicDisplay@@@ATL@@WKA@AGJABU_GUID@@PAPAX@Z 1001ccd4 f i GraphicDisplay.obj
 0001:0001bcf0       ?QueryInterface@?$CComObject@V?$CComEnum@UIEnumConnectionPoints@@$1?_GUID_b196b285_bab4_101a_b69c_00aa00341d07@@3U__s_GUID@@BPAUIConnectionPoint@@V?$_CopyInterface@UIConnectionPoint@@@ATL@@VCComSingleThreadModel@6@@ATL@@@ATL@@UAGJABU_GUID@@PAPAX@Z 1001ccf0 f i GraphicDisplay.obj
 0001:0001bd10       ?QueryInterface@?$CComObject@V?$CComEnum@UIEnumConnections@@$1?_GUID_b196b287_bab4_101a_b69c_00aa00341d07@@3U__s_GUID@@BUtagCONNECTDATA@@V?$_Copy@UtagCONNECTDATA@@@ATL@@VCComSingleThreadModel@6@@ATL@@@ATL@@UAGJABU_GUID@@PAPAX@Z 1001cd10 f i GraphicDisplay.obj
 0001:0001bd30       ?QueryInterface@?$CComObject@VCOPOSGraphicDisplay@@@ATL@@UAGJABU_GUID@@PAPAX@Z 1001cd30 f i GraphicDisplay.obj
 0001:0001bd4e       ?QueryInterface@?$CComObject@VCOPOSGraphicDisplay@@@ATL@@WHA@AGJABU_GUID@@PAPAX@Z 1001cd4e f i GraphicDisplay.obj
 0001:0001bd58       ?QueryInterface@?$CComObject@VCOPOSGraphicDisplay@@@ATL@@WHE@AGJABU_GUID@@PAPAX@Z 1001cd58 f i GraphicDisplay.obj
 0001:0001bd62       ?QueryInterface@?$CComObject@VCOPOSGraphicDisplay@@@ATL@@WHI@AGJABU_GUID@@PAPAX@Z 1001cd62 f i GraphicDisplay.obj
 0001:0001bd6c       ?QueryInterface@?$CComObject@VCOPOSGraphicDisplay@@@ATL@@WHM@AGJABU_GUID@@PAPAX@Z 1001cd6c f i GraphicDisplay.obj
 0001:0001bd76       ?QueryInterface@?$CComObject@VCOPOSGraphicDisplay@@@ATL@@WIA@AGJABU_GUID@@PAPAX@Z 1001cd76 f i GraphicDisplay.obj
 0001:0001bd83       ?QueryInterface@?$CComObject@VCOPOSGraphicDisplay@@@ATL@@WIE@AGJABU_GUID@@PAPAX@Z 1001cd83 f i GraphicDisplay.obj
 0001:0001bd90       ?QueryInterface@?$CComObject@VCOPOSGraphicDisplay@@@ATL@@WII@AGJABU_GUID@@PAPAX@Z 1001cd90 f i GraphicDisplay.obj
 0001:0001bd9d       ?QueryInterface@?$CComObject@VCOPOSGraphicDisplay@@@ATL@@WIM@AGJABU_GUID@@PAPAX@Z 1001cd9d f i GraphicDisplay.obj
 0001:0001bdaa       ?QueryInterface@?$CComObject@VCOPOSGraphicDisplay@@@ATL@@WJA@AGJABU_GUID@@PAPAX@Z 1001cdaa f i GraphicDisplay.obj
 0001:0001bdb7       ?QueryInterface@?$CComObject@VCOPOSGraphicDisplay@@@ATL@@WJE@AGJABU_GUID@@PAPAX@Z 1001cdb7 f i GraphicDisplay.obj
 0001:0001bdc4       ?QueryInterface@?$CComObject@VCOPOSGraphicDisplay@@@ATL@@WJI@AGJABU_GUID@@PAPAX@Z 1001cdc4 f i GraphicDisplay.obj
 0001:0001bdd1       ?QueryInterface@?$CComObject@VCOPOSGraphicDisplay@@@ATL@@WJM@AGJABU_GUID@@PAPAX@Z 1001cdd1 f i GraphicDisplay.obj
 0001:0001bdde       ?QueryInterface@?$CComObject@VCOPOSGraphicDisplay@@@ATL@@WKA@AGJABU_GUID@@PAPAX@Z 1001cdde f i GraphicDisplay.obj
 0001:0001bdf0       ?QueryInterface@?$CComObjectCached@VCComClassFactory@ATL@@@ATL@@UAGJABU_GUID@@PAPAX@Z 1001cdf0 f i GraphicDisplay.obj
 0001:0001be10       ?QueryInterface@CRegObject@ATL@@UAGJABU_GUID@@PAPAX@Z 1001ce10 f i GraphicDisplay.obj
 0001:0001be60       ?QuickActivate@?$IQuickActivateImpl@VCOPOSGraphicDisplay@@@ATL@@UAGJPAUtagQACONTAINER@@PAUtagQACONTROL@@@Z 1001ce60 f i GraphicDisplay.obj
 0001:0001bef0       ?ReactivateAndUndo@?$IOleInPlaceObjectWindowlessImpl@VCOPOSGraphicDisplay@@@ATL@@UAGJXZ 1001cef0 f i GraphicDisplay.obj
 0001:0001bf60       ?ReadFromStream@CComBSTR@ATL@@QAEJPAUIStream@@@Z 1001cf60 f i GraphicDisplay.obj
 0001:0001c360       ?ReadFromStream@CComVariant@ATL@@QAEJPAUIStream@@GTClassesAllowedInStream@2@K@Z 1001d360 f i GraphicDisplay.obj
 0001:0001c6c0       ?RecurseDeleteKey@CRegKey@ATL@@QAEJPB_W@Z 1001d6c0 f i GraphicDisplay.obj
 0001:0001c8a0       ?RegCreateKeyExW@CAtlTransactionManager@ATL@@QAEJPAUHKEY__@@PB_WKPA_WKKQAU_SECURITY_ATTRIBUTES@@PAPAU3@PAK@Z 1001d8a0 f i GraphicDisplay.obj
 0001:0001c9d0       ?RegDeleteKeyW@CAtlTransactionManager@ATL@@QAEJPAUHKEY__@@PB_W@Z 1001d9d0 f i GraphicDisplay.obj
 0001:0001cad0       ?RegOpenKeyExW@CAtlTransactionManager@ATL@@QAEJPAUHKEY__@@PB_WKKPAPAU3@@Z 1001dad0 f i GraphicDisplay.obj
 0001:0001cbe0       ?Register@_ATL_WNDCLASSINFOW@ATL@@QAEGPAP6GJPAUHWND__@@IIJ@Z@Z 1001dbe0 f i GraphicDisplay.obj
 0001:0001cc20       ?RegisterBuffer@CRegParser@ATL@@QAEJPA_WH@Z 1001dc20 f i GraphicDisplay.obj
 0001:0001cf50       ?RegisterClassExW@AtlModuleRegisterWndClassInfoParamW@ATL@@SAGPAU_ATL_WIN_MODULE70@2@PBUtagWNDCLASSEXW@@@Z 1001df50 f i GraphicDisplay.obj
 0001:0001cf70       ?RegisterFromResource@CRegObject@ATL@@IAEJPB_W00H@Z 1001df70 f i GraphicDisplay.obj
 0001:0001d300       ?RegisterServer@?$CAtlModuleT@VCComModule@ATL@@@ATL@@QAEJHPBU_GUID@@@Z 1001e300 f i GraphicDisplay.obj
 0001:0001d380       ?RegisterServer@CAtlComModule@ATL@@QAEJHPBU_GUID@@@Z 1001e380 f i GraphicDisplay.obj
 0001:0001d3b0       ?RegisterServer@CComModule@ATL@@QAEJHPBU_GUID@@@Z 1001e3b0 f i GraphicDisplay.obj
 0001:0001d490       ?RegisterSubkeys@CRegParser@ATL@@IAEJPA_WPAUHKEY__@@HH@Z 1001e490 f i GraphicDisplay.obj
 0001:0001dfb0       ?Release@?$CComAggObject@VCOPOSGraphicDisplay@@@ATL@@UAGKXZ 1001efb0 f i GraphicDisplay.obj
 0001:0001e070       ?Release@?$CComContainedObject@VCOPOSGraphicDisplay@@@ATL@@UAGKXZ 1001f070 f i GraphicDisplay.obj
 0001:0001e08c       ?Release@?$CComContainedObject@VCOPOSGraphicDisplay@@@ATL@@WHA@AGKXZ 1001f08c f i GraphicDisplay.obj
 0001:0001e096       ?Release@?$CComContainedObject@VCOPOSGraphicDisplay@@@ATL@@WHE@AGKXZ 1001f096 f i GraphicDisplay.obj
 0001:0001e0a0       ?Release@?$CComContainedObject@VCOPOSGraphicDisplay@@@ATL@@WHI@AGKXZ 1001f0a0 f i GraphicDisplay.obj
 0001:0001e0aa       ?Release@?$CComContainedObject@VCOPOSGraphicDisplay@@@ATL@@WHM@AGKXZ 1001f0aa f i GraphicDisplay.obj
 0001:0001e0b4       ?Release@?$CComContainedObject@VCOPOSGraphicDisplay@@@ATL@@WIA@AGKXZ 1001f0b4 f i GraphicDisplay.obj
 0001:0001e0c1       ?Release@?$CComContainedObject@VCOPOSGraphicDisplay@@@ATL@@WIE@AGKXZ 1001f0c1 f i GraphicDisplay.obj
 0001:0001e0ce       ?Release@?$CComContainedObject@VCOPOSGraphicDisplay@@@ATL@@WII@AGKXZ 1001f0ce f i GraphicDisplay.obj
 0001:0001e0db       ?Release@?$CComContainedObject@VCOPOSGraphicDisplay@@@ATL@@WIM@AGKXZ 1001f0db f i GraphicDisplay.obj
 0001:0001e0e8       ?Release@?$CComContainedObject@VCOPOSGraphicDisplay@@@ATL@@WJA@AGKXZ 1001f0e8 f i GraphicDisplay.obj
 0001:0001e0f5       ?Release@?$CComContainedObject@VCOPOSGraphicDisplay@@@ATL@@WJE@AGKXZ 1001f0f5 f i GraphicDisplay.obj
 0001:0001e102       ?Release@?$CComContainedObject@VCOPOSGraphicDisplay@@@ATL@@WJI@AGKXZ 1001f102 f i GraphicDisplay.obj
 0001:0001e10f       ?Release@?$CComContainedObject@VCOPOSGraphicDisplay@@@ATL@@WJM@AGKXZ 1001f10f f i GraphicDisplay.obj
 0001:0001e11c       ?Release@?$CComContainedObject@VCOPOSGraphicDisplay@@@ATL@@WKA@AGKXZ 1001f11c f i GraphicDisplay.obj
 0001:0001e129       ?Release@?$CComContainedObject@VCOPOSGraphicDisplay@@@ATL@@WKI@AGKXZ 1001f129 f i GraphicDisplay.obj
 0001:0001e136       ?Release@?$CComContainedObject@VCOPOSGraphicDisplay@@@ATL@@WLE@AGKXZ 1001f136 f i GraphicDisplay.obj
 0001:0001e150       ?Release@?$CComObject@V?$CComEnum@UIEnumConnectionPoints@@$1?_GUID_b196b285_bab4_101a_b69c_00aa00341d07@@3U__s_GUID@@BPAUIConnectionPoint@@V?$_CopyInterface@UIConnectionPoint@@@ATL@@VCComSingleThreadModel@6@@ATL@@@ATL@@UAGKXZ 1001f150 f i GraphicDisplay.obj
 0001:0001e210       ?Release@?$CComObject@V?$CComEnum@UIEnumConnections@@$1?_GUID_b196b287_bab4_101a_b69c_00aa00341d07@@3U__s_GUID@@BUtagCONNECTDATA@@V?$_Copy@UtagCONNECTDATA@@@ATL@@VCComSingleThreadModel@6@@ATL@@@ATL@@UAGKXZ 1001f210 f i GraphicDisplay.obj
 0001:0001e2d0       ?Release@?$CComObject@VCOPOSGraphicDisplay@@@ATL@@UAGKXZ 1001f2d0 f i GraphicDisplay.obj
 0001:0001e389       ?Release@?$CComObject@VCOPOSGraphicDisplay@@@ATL@@WHA@AGKXZ 1001f389 f i GraphicDisplay.obj
 0001:0001e393       ?Release@?$CComObject@VCOPOSGraphicDisplay@@@ATL@@WHE@AGKXZ 1001f393 f i GraphicDisplay.obj
 0001:0001e39d       ?Release@?$CComObject@VCOPOSGraphicDisplay@@@ATL@@WHI@AGKXZ 1001f39d f i GraphicDisplay.obj
 0001:0001e3a7       ?Release@?$CComObject@VCOPOSGraphicDisplay@@@ATL@@WHM@AGKXZ 1001f3a7 f i GraphicDisplay.obj
 0001:0001e3b1       ?Release@?$CComObject@VCOPOSGraphicDisplay@@@ATL@@WIA@AGKXZ 1001f3b1 f i GraphicDisplay.obj
 0001:0001e3be       ?Release@?$CComObject@VCOPOSGraphicDisplay@@@ATL@@WIE@AGKXZ 1001f3be f i GraphicDisplay.obj
 0001:0001e3cb       ?Release@?$CComObject@VCOPOSGraphicDisplay@@@ATL@@WII@AGKXZ 1001f3cb f i GraphicDisplay.obj
 0001:0001e3d8       ?Release@?$CComObject@VCOPOSGraphicDisplay@@@ATL@@WIM@AGKXZ 1001f3d8 f i GraphicDisplay.obj
 0001:0001e3e5       ?Release@?$CComObject@VCOPOSGraphicDisplay@@@ATL@@WJA@AGKXZ 1001f3e5 f i GraphicDisplay.obj
 0001:0001e3f2       ?Release@?$CComObject@VCOPOSGraphicDisplay@@@ATL@@WJE@AGKXZ 1001f3f2 f i GraphicDisplay.obj
 0001:0001e3ff       ?Release@?$CComObject@VCOPOSGraphicDisplay@@@ATL@@WJI@AGKXZ 1001f3ff f i GraphicDisplay.obj
 0001:0001e40c       ?Release@?$CComObject@VCOPOSGraphicDisplay@@@ATL@@WJM@AGKXZ 1001f40c f i GraphicDisplay.obj
 0001:0001e419       ?Release@?$CComObject@VCOPOSGraphicDisplay@@@ATL@@WKA@AGKXZ 1001f419 f i GraphicDisplay.obj
 0001:0001e426       ?Release@?$CComObject@VCOPOSGraphicDisplay@@@ATL@@WKI@AGKXZ 1001f426 f i GraphicDisplay.obj
 0001:0001e433       ?Release@?$CComObject@VCOPOSGraphicDisplay@@@ATL@@WLE@AGKXZ 1001f433 f i GraphicDisplay.obj
 0001:0001e440       ?Release@?$CComObjectCached@VCComClassFactory@ATL@@@ATL@@UAGKXZ 1001f440 f i GraphicDisplay.obj
 0001:0001e4e0       ?Release@?$CComPtrBase@UIAdviseSink@@@ATL@@QAEXXZ 1001f4e0 f i GraphicDisplay.obj
 0001:0001e540       ?Release@?$CComPtrBase@UIDispatch@@@ATL@@QAEXXZ 1001f540 f i GraphicDisplay.obj
 0001:0001e5a0       ?Release@?$CComPtrBase@UIOleInPlaceSiteWindowless@@@ATL@@QAEXXZ 1001f5a0 f i GraphicDisplay.obj
 0001:0001e600       ?Release@CRegObject@ATL@@UAGKXZ 1001f600 f i GraphicDisplay.obj
 0001:0001e640       ?Remove@CComDynamicUnkArray@ATL@@QAEHK@Z 1001f640 f i GraphicDisplay.obj
 0001:0001e6f0       ?RemoveAll@?$CSimpleMap@PA_WPA_WVCExpansionVectorEqualHelper@ATL@@@ATL@@QAEXXZ 1001f6f0 f i GraphicDisplay.obj
 0001:0001e780       ?Reset@?$CComEnumImpl@UIEnumConnectionPoints@@$1?_GUID_b196b285_bab4_101a_b69c_00aa00341d07@@3U__s_GUID@@BPAUIConnectionPoint@@V?$_CopyInterface@UIConnectionPoint@@@ATL@@@ATL@@UAGJXZ 1001f780 f i GraphicDisplay.obj
 0001:0001e7a0       ?Reset@?$CComEnumImpl@UIEnumConnections@@$1?_GUID_b196b287_bab4_101a_b69c_00aa00341d07@@3U__s_GUID@@BUtagCONNECTDATA@@V?$_Copy@UtagCONNECTDATA@@@ATL@@@ATL@@UAGJXZ 1001f7a0 f i GraphicDisplay.obj
 0001:0001e7c0       ?ResizeBorder@?$IOleInPlaceActiveObjectImpl@VCOPOSGraphicDisplay@@@ATL@@UAGJPBUtagRECT@@PAUIOleInPlaceUIWindow@@H@Z 1001f7c0 f i GraphicDisplay.obj
 0001:0001e820       ?ResourceRegister@CRegObject@ATL@@QAGJPB_WI0@Z 1001f820 f i GraphicDisplay.obj
 0001:0001e900       ?ResourceRegisterSz@CRegObject@ATL@@QAGJPB_W00@Z 1001f900 f i GraphicDisplay.obj
 0001:0001ea00       ?ResourceUnregister@CRegObject@ATL@@QAGJPB_WI0@Z 1001fa00 f i GraphicDisplay.obj
 0001:0001eae0       ?ResourceUnregisterSz@CRegObject@ATL@@QAGJPB_W00@Z 1001fae0 f i GraphicDisplay.obj
 0001:0001ebe0       ?SODataDummy@COPOSGraphicDisplay@@MAGJJ@Z 1001fbe0 f i GraphicDisplay.obj
 0001:0001ebf0       ?SODirectIO@COPOSGraphicDisplay@@MAGJJPAJPAPA_W@Z 1001fbf0 f i GraphicDisplay.obj
 0001:0001edb0       ?SOError@COPOSGraphicDisplay@@MAGJJJJPAJ@Z 1001fdb0 f i GraphicDisplay.obj
 0001:0001ee70       ?SOOutputComplete@COPOSGraphicDisplay@@MAGJJ@Z 1001fe70 f i GraphicDisplay.obj
 0001:0001eef0       ?SOStatusUpdate@COPOSGraphicDisplay@@MAGJJ@Z 1001fef0 f i GraphicDisplay.obj
 0001:0001ef70       ?Save@?$IPersistStorageImpl@VCOPOSGraphicDisplay@@@ATL@@UAGJPAUIStorage@@H@Z 1001ff70 f i GraphicDisplay.obj
 0001:0001f0d0       ?Save@?$IPersistStreamInitImpl@VCOPOSGraphicDisplay@@@ATL@@UAGJPAUIStream@@H@Z 100200d0 f i GraphicDisplay.obj
 0001:0001f160       ?SaveCompleted@?$IPersistStorageImpl@VCOPOSGraphicDisplay@@@ATL@@UAGJPAUIStorage@@@Z 10020160 f i GraphicDisplay.obj
 0001:0001f1c0       ?SendOnDataChange@CComControlBase@ATL@@QAEJK@Z 100201c0 f i GraphicDisplay.obj
 0001:0001f2b0       ?SendOnSave@CComControlBase@ATL@@QAEJXZ 100202b0 f i GraphicDisplay.obj
 0001:0001f320       ?SendOnViewChange@CComControlBase@ATL@@QAEJKJ@Z 10020320 f i GraphicDisplay.obj
 0001:0001f390       ?SetAdvise@?$IViewObjectExImpl@VCOPOSGraphicDisplay@@@ATL@@UAGJKKPAUIAdviseSink@@@Z 10020390 f i GraphicDisplay.obj
 0001:0001f420       ?SetClientSite@?$IOleObjectImpl@VCOPOSGraphicDisplay@@@ATL@@UAGJPAUIOleClientSite@@@Z 10020420 f i GraphicDisplay.obj
 0001:0001f4b0       ?SetColorScheme@?$IOleObjectImpl@VCOPOSGraphicDisplay@@@ATL@@UAGJPAUtagLOGPALETTE@@@Z 100204b0 f i GraphicDisplay.obj
 0001:0001f520       ?SetContentExtent@?$IQuickActivateImpl@VCOPOSGraphicDisplay@@@ATL@@UAGJPAUtagSIZE@@@Z 10020520 f i GraphicDisplay.obj
 0001:0001f5b0       ?SetControlFocus@CComControlBase@ATL@@QAEHH@Z 100205b0 f i GraphicDisplay.obj
 0001:0001f730       ?SetDWORDValue@CRegKey@ATL@@QAEJPB_WK@Z 10020730 f i GraphicDisplay.obj
 0001:0001f7b0       ?SetData@?$IDataObjectImpl@VCOPOSGraphicDisplay@@@ATL@@UAGJPAUtagFORMATETC@@PAUtagSTGMEDIUM@@H@Z 100207b0 f i GraphicDisplay.obj
 0001:0001f820       ?SetExtent@?$IOleObjectImpl@VCOPOSGraphicDisplay@@@ATL@@UAGJKPAUtagSIZE@@@Z 10020820 f i GraphicDisplay.obj
 0001:0001f8b0       ?SetHostNames@?$IOleObjectImpl@VCOPOSGraphicDisplay@@@ATL@@UAGJPB_W0@Z 100208b0 f i GraphicDisplay.obj
 0001:0001f910       ?SetInterfaceSafetyOptions@?$IObjectSafetyImpl@VCOPOSGraphicDisplay@@$02@ATL@@UAGJABU_GUID@@KK@Z 10020910 f i GraphicDisplay.obj
 0001:0001fa80       ?SetMoniker@?$IOleObjectImpl@VCOPOSGraphicDisplay@@@ATL@@UAGJKPAUIMoniker@@@Z 10020a80 f i GraphicDisplay.obj
 0001:0001faf0       ?SetMultiStringValue@CRegKey@ATL@@QAEJPB_W0@Z 10020af0 f i GraphicDisplay.obj
 0001:0001fc10       ?SetObjectRects@?$IOleInPlaceObjectWindowlessImpl@VCOPOSGraphicDisplay@@@ATL@@UAGJPBUtagRECT@@0@Z 10020c10 f i GraphicDisplay.obj
 0001:0001fca0       ?SetStringValue@CRegKey@ATL@@QAEJPB_W0K@Z 10020ca0 f i GraphicDisplay.obj
 0001:0001fdd0       ?SetVoid@CComClassFactory@ATL@@QAEXPAX@Z 10020dd0 f i GraphicDisplay.obj
 0001:0001fdf0       ?SetVoid@CComObjectRootBase@ATL@@QAEXPAX@Z 10020df0 f i GraphicDisplay.obj
 0001:0001fe10       ?SetWindowLongPtrW@@YAJPAUHWND__@@HJ@Z 10020e10 f i GraphicDisplay.obj
 0001:0001fe40       ?ShowWindow@CWindow@ATL@@QAEHH@Z 10020e40 f i GraphicDisplay.obj
 0001:0001fec0       ?Skip@?$CComEnumImpl@UIEnumConnectionPoints@@$1?_GUID_b196b285_bab4_101a_b69c_00aa00341d07@@3U__s_GUID@@BPAUIConnectionPoint@@V?$_CopyInterface@UIConnectionPoint@@@ATL@@@ATL@@UAGJK@Z 10020ec0 f i GraphicDisplay.obj
 0001:0001ff40       ?Skip@?$CComEnumImpl@UIEnumConnections@@$1?_GUID_b196b287_bab4_101a_b69c_00aa00341d07@@3U__s_GUID@@BUtagCONNECTDATA@@V?$_Copy@UtagCONNECTDATA@@@ATL@@@ATL@@UAGJK@Z 10020f40 f i GraphicDisplay.obj
 0001:0001ffc0       ?SkipAssignment@CRegParser@ATL@@IAEJPA_W@Z 10020fc0 f i GraphicDisplay.obj
 0001:000200a0       ?SkipWhiteSpace@CRegParser@ATL@@IAEXXZ 100210a0 f i GraphicDisplay.obj
 0001:000200f0       ?StartWindowProc@?$CWindowImplBaseT@VCWindow@ATL@@V?$CWinTraits@$0FGAAAAAA@$0A@@2@@ATL@@SGJPAUHWND__@@IIJ@Z 100210f0 f i GraphicDisplay.obj
 0001:00020210       ?StrChrW@CRegParser@ATL@@KAPA_WPA_W_W@Z 10021210 f i GraphicDisplay.obj
 0001:00020280       ?StrFromMap@CRegObject@ATL@@QAEPB_WPA_W@Z 10021280 f i GraphicDisplay.obj
 0001:00020310       ?Swap@?$CComPtrBase@UIAdviseSink@@@ATL@@IAEXAAV12@@Z 10021310 f i GraphicDisplay.obj
 0001:00020350       ?Swap@?$CComPtrBase@UIOleClientSite@@@ATL@@IAEXAAV12@@Z 10021350 f i GraphicDisplay.obj
 0001:00020390       ?Swap@?$CComPtrBase@UIUnknown@@@ATL@@IAEXAAV12@@Z 10021390 f i GraphicDisplay.obj
 0001:000203d0       ?T2COLE_EX@@YAPB_WPB_WI@Z  100213d0 f i GraphicDisplay.obj
 0001:000203e0       ?T2OLE_EX@@YAPA_WPA_WI@Z   100213e0 f i GraphicDisplay.obj
 0001:000203f0       ?Term@CAtlModule@ATL@@QAEXXZ 100213f0 f i GraphicDisplay.obj
 0001:000204a0       ?Term@CComModule@ATL@@QAEXXZ 100214a0 f i GraphicDisplay.obj
 0001:00020590       ?TranslateAcceleratorW@?$IOleInPlaceActiveObjectImpl@VCOPOSGraphicDisplay@@@ATL@@UAGJPAUtagMSG@@@Z 10021590 f i GraphicDisplay.obj
 0001:00020790       ?UIDeactivate@?$IOleInPlaceObjectWindowlessImpl@VCOPOSGraphicDisplay@@@ATL@@UAGJXZ 10021790 f i GraphicDisplay.obj
 0001:00020810       ?Unadvise@?$CProxy_IOPOSEvents@VCOPOSGraphicDisplay@@@@UAGJK@Z 10021810 f i GraphicDisplay.obj
 0001:00020850       ?Unadvise@?$IConnectionPointImpl@VCOPOSGraphicDisplay@@$1?DIID__IOPOSGraphicDisplayEvents@@3U_GUID@@BVCComDynamicUnkArray@ATL@@@ATL@@UAGJK@Z 10021850 f i GraphicDisplay.obj
 0001:00020920       ?Unadvise@?$IConnectionPointImpl@VCOPOSGraphicDisplay@@$1?IID_IPropertyNotifySink@@3U_GUID@@BVCComDynamicUnkArray@ATL@@@ATL@@UAGJK@Z 10021920 f i GraphicDisplay.obj
 0001:000209f0       ?Unadvise@?$IOleObjectImpl@VCOPOSGraphicDisplay@@@ATL@@UAGJK@Z 100219f0 f i GraphicDisplay.obj
 0001:00020ac0       ?Unfreeze@?$IViewObjectExImpl@VCOPOSGraphicDisplay@@@ATL@@UAGJK@Z 10021ac0 f i GraphicDisplay.obj
 0001:00020b30       ?Unlock@?$CComCritSecLock@VCComCriticalSection@ATL@@@ATL@@QAEXXZ 10021b30 f i GraphicDisplay.obj
 0001:00020ba0       ?Unlock@?$CComObjectRootEx@VCComSingleThreadModel@ATL@@@ATL@@QAEXXZ 10021ba0 f i GraphicDisplay.obj
 0001:00020bc0       ?Unlock@CAtlModule@ATL@@UAEJXZ 10021bc0 f i GraphicDisplay.obj
 0001:00020bf0       ?Unlock@CComCriticalSection@ATL@@QAEJXZ 10021bf0 f i GraphicDisplay.obj
 0001:00020c30       ?Unlock@CComFakeCriticalSection@ATL@@QAEJXZ 10021c30 f i GraphicDisplay.obj
 0001:00020c50       ?UnregisterServer@?$CAtlModuleT@VCComModule@ATL@@@ATL@@QAEJHPBU_GUID@@@Z 10021c50 f i GraphicDisplay.obj
 0001:00020cc0       ?UnregisterServer@CAtlComModule@ATL@@QAEJHPBU_GUID@@@Z 10021cc0 f i GraphicDisplay.obj
 0001:00020cf0       ?UnregisterServer@CComModule@ATL@@QAEJHPBU_GUID@@@Z 10021cf0 f i GraphicDisplay.obj
 0001:00020dd0       ?Update@?$IOleObjectImpl@VCOPOSGraphicDisplay@@@ATL@@UAGJXZ 10021dd0 f i GraphicDisplay.obj
 0001:00020e30       ?UpdateRegistryFromResource@CAtlModule@ATL@@QAGJIHPAU_ATL_REGMAP_ENTRY@2@@Z 10021e30 f i GraphicDisplay.obj
 0001:00021300       ?UpdateRegistryFromResource@CAtlModule@ATL@@QAGJPB_WHPAU_ATL_REGMAP_ENTRY@2@@Z 10022300 f i GraphicDisplay.obj
 0001:000217f0       ?UpdateRegistryFromResource@CComModule@ATL@@UAGJIHPAU_ATL_REGMAP_ENTRY@2@@Z 100227f0 f i GraphicDisplay.obj
 0001:00021820       ?UpdateRegistryFromResource@CComModule@ATL@@UAGJPB_WHPAU_ATL_REGMAP_ENTRY@2@@Z 10022820 f i GraphicDisplay.obj
 0001:00021850       ?UpdateRegistryFromResourceD@CComModule@ATL@@UAGJIHPAU_ATL_REGMAP_ENTRY@2@@Z 10022850 f i GraphicDisplay.obj
 0001:00021860       ?UpdateRegistryFromResourceD@CComModule@ATL@@UAGJPB_WHPAU_ATL_REGMAP_ENTRY@2@@Z 10022860 f i GraphicDisplay.obj
 0001:00021870       ?VTFromRegType@CRegParser@ATL@@KAHPB_WAAG@Z 10022870 f i GraphicDisplay.obj
 0001:00021950       ?WindowProc@?$CWindowImplBaseT@VCWindow@ATL@@V?$CWinTraits@$0FGAAAAAA@$0A@@2@@ATL@@SGJPAUHWND__@@IIJ@Z 10022950 f i GraphicDisplay.obj
 0001:00021b60       ?WriteToStream@CComBSTR@ATL@@QAEJPAUIStream@@@Z 10022b60 f i GraphicDisplay.obj
 0001:00021cc0       ?WriteToStream@CComVariant@ATL@@QAEJPAUIStream@@@Z 10022cc0 f i GraphicDisplay.obj
 0001:00022000       ?WriteToStream@CComVariant@ATL@@QAEJPAUIStream@@G@Z 10023000 f i GraphicDisplay.obj
 0001:000220d0       ?_AtlFinalConstruct@CComObjectRootBase@ATL@@QAEJXZ 100230d0 f i GraphicDisplay.obj
 0001:000220f0       ?_AtlGetConversionACP@ATL@@YGIXZ 100230f0 f i GraphicDisplay.obj
 0001:00022100       ?_AtlInitialConstruct@?$CComAggObject@VCOPOSGraphicDisplay@@@ATL@@QAEJXZ 10023100 f i GraphicDisplay.obj
 0001:00022150       ?_AtlInitialConstruct@?$CComObjectRootEx@VCComMultiThreadModel@ATL@@@ATL@@QAEJXZ 10023150 f i GraphicDisplay.obj
 0001:00022180       ?_AtlInitialConstruct@?$CComObjectRootEx@VCComSingleThreadModel@ATL@@@ATL@@QAEJXZ 10023180 f i GraphicDisplay.obj
 0001:000221a0       ?_AtlVerifyStackAvailable@_ATL_SAFE_ALLOCA_IMPL@ATL@@YA_NK@Z 100231a0 f i GraphicDisplay.obj
 0001:00022350       ?_GetEntries@?$CComEnum@UIEnumConnectionPoints@@$1?_GUID_b196b285_bab4_101a_b69c_00aa00341d07@@3U__s_GUID@@BPAUIConnectionPoint@@V?$_CopyInterface@UIConnectionPoint@@@ATL@@VCComSingleThreadModel@6@@ATL@@SGPBU_ATL_INTMAP_ENTRY@2@XZ 10023350 f i GraphicDisplay.obj
 0001:00022370       ?_GetEntries@?$CComEnum@UIEnumConnections@@$1?_GUID_b196b287_bab4_101a_b69c_00aa00341d07@@3U__s_GUID@@BUtagCONNECTDATA@@V?$_Copy@UtagCONNECTDATA@@@ATL@@VCComSingleThreadModel@6@@ATL@@SGPBU_ATL_INTMAP_ENTRY@2@XZ 10023370 f i GraphicDisplay.obj
 0001:00022390       ?_GetEntries@CComClassFactory@ATL@@SGPBU_ATL_INTMAP_ENTRY@2@XZ 10023390 f i GraphicDisplay.obj
 0001:000223b0       ?_GetEntries@COPOSGraphicDisplay@@SGPBU_ATL_INTMAP_ENTRY@ATL@@XZ 100233b0 f i GraphicDisplay.obj
 0001:000223d0       ?_GetRawUnknown@COPOSGraphicDisplay@@QAEPAUIUnknown@@XZ 100233d0 f i GraphicDisplay.obj
 0001:00022440       ?_GetViewStatus@COPOSGraphicDisplay@@QAEKXZ 10023440 f i GraphicDisplay.obj
 0001:00022460       ?_InternalQueryInterface@?$CComEnum@UIEnumConnectionPoints@@$1?_GUID_b196b285_bab4_101a_b69c_00aa00341d07@@3U__s_GUID@@BPAUIConnectionPoint@@V?$_CopyInterface@UIConnectionPoint@@@ATL@@VCComSingleThreadModel@6@@ATL@@QAEJABU_GUID@@PAPAX@Z 10023460 f i GraphicDisplay.obj
 0001:000224a0       ?_InternalQueryInterface@?$CComEnum@UIEnumConnections@@$1?_GUID_b196b287_bab4_101a_b69c_00aa00341d07@@3U__s_GUID@@BUtagCONNECTDATA@@V?$_Copy@UtagCONNECTDATA@@@ATL@@VCComSingleThreadModel@6@@ATL@@QAEJABU_GUID@@PAPAX@Z 100234a0 f i GraphicDisplay.obj
 0001:000224e0       ?_InternalQueryInterface@CComClassFactory@ATL@@QAEJABU_GUID@@PAPAX@Z 100234e0 f i GraphicDisplay.obj
 0001:00022520       ?_InternalQueryInterface@COPOSGraphicDisplay@@QAEJABU_GUID@@PAPAX@Z 10023520 f i GraphicDisplay.obj
 0001:00022560       ?_LocCPQueryInterface@?$IConnectionPointImpl@VCOPOSGraphicDisplay@@$1?DIID__IOPOSGraphicDisplayEvents@@3U_GUID@@BVCComDynamicUnkArray@ATL@@@ATL@@UAGJABU_GUID@@PAPAX@Z 10023560 f i GraphicDisplay.obj
 0001:00022600       ?_LocCPQueryInterface@?$IConnectionPointImpl@VCOPOSGraphicDisplay@@$1?IID_IPropertyNotifySink@@3U_GUID@@BVCComDynamicUnkArray@ATL@@@ATL@@UAGJABU_GUID@@PAPAX@Z 10023600 f i GraphicDisplay.obj
 0001:000226a0       ?atlCreate@?$CWindowImpl@VCOPOSGraphicDisplay@@VCWindow@ATL@@V?$CWinTraits@$0FGAAAAAA@$0A@@3@@ATL@@QAEPAUHWND__@@PAU3@V_U_RECT@2@PB_WKKV_U_MENUorID@2@PAX@Z 100236a0 f i GraphicDisplay.obj
 0001:00022750       ?atlCreate@?$CWindowImplBaseT@VCWindow@ATL@@V?$CWinTraits@$0FGAAAAAA@$0A@@2@@ATL@@QAEPAUHWND__@@PAU3@V_U_RECT@2@PB_WKKV_U_MENUorID@2@GPAX@Z 10023750 f i GraphicDisplay.obj
 0001:000228d0       ?atlCreate@CRegKey@ATL@@QAEJPAUHKEY__@@PB_WPA_WKKPAU_SECURITY_ATTRIBUTES@@PAK@Z 100238d0 f i GraphicDisplay.obj
 0001:00022a30       ?begin@CComDynamicUnkArray@ATL@@QAEPAPAUIUnknown@@XZ 10023a30 f i GraphicDisplay.obj
 0001:00022a50       ?copy@?$_Copy@UtagCONNECTDATA@@@ATL@@SAJPAUtagCONNECTDATA@@PBU3@@Z 10023a50 f i GraphicDisplay.obj
 0001:00022b10       ?copy@?$_CopyInterface@UIConnectionPoint@@@ATL@@SAJPAPAUIConnectionPoint@@PBQAU3@@Z 10023b10 f i GraphicDisplay.obj
 0001:00022bd0       ?destroy@?$_Copy@UtagCONNECTDATA@@@ATL@@SAXPAUtagCONNECTDATA@@@Z 10023bd0 f i GraphicDisplay.obj
 0001:00022c10       ?destroy@?$_CopyInterface@UIConnectionPoint@@@ATL@@SAXPAPAUIConnectionPoint@@@Z 10023c10 f i GraphicDisplay.obj
 0001:00022c50       ?end@CComDynamicUnkArray@ATL@@QAEPAPAUIUnknown@@XZ 10023c50 f i GraphicDisplay.obj
 0001:00022c70       ?init@?$_Copy@UtagCONNECTDATA@@@ATL@@SAXPAUtagCONNECTDATA@@@Z 10023c70 f i GraphicDisplay.obj
 0001:00022c80       ?init@?$_CopyInterface@UIConnectionPoint@@@ATL@@SAXPAPAUIConnectionPoint@@@Z 10023c80 f i GraphicDisplay.obj
 0001:00022c90       ?memcpy_s@Checked@ATL@@YAXPAXIPBXI@Z 10023c90 f i GraphicDisplay.obj
 0001:00022cc0       ?ocscpy_s@@YA_NPA_WIPB_W@Z 10023cc0 f i GraphicDisplay.obj
 0001:00022d20       ?ocslen@@YAHPB_W@Z         10023d20 f i GraphicDisplay.obj
 0001:00022d50       ?tcsncpy_s@Checked@ATL@@YAHPA_WIPB_WI@Z 10023d50 f i GraphicDisplay.obj
 0001:00022d80       ?wcscat_s@Checked@ATL@@YAXPA_WIPB_W@Z 10023d80 f i GraphicDisplay.obj
 0001:00022db0       ?wcscpy_s@Checked@ATL@@YAXPA_WIPB_W@Z 10023db0 f i GraphicDisplay.obj
 0001:00022de0       ?wcsncpy_s@Checked@ATL@@YAHPA_WIPB_WI@Z 10023de0 f i GraphicDisplay.obj
 0001:00022e10       ?wcsstr@@YAPA_WPA_WPB_W@Z  10023e10 f i GraphicDisplay.obj
 0001:00022e30       _InlineIsEqualGUID         10023e30 f i GraphicDisplay.obj
 0001:00022ed0       _IsEqualGUID               10023ed0 f i GraphicDisplay.obj
 0001:00022f20       ??0COPOSGraphicDisplay@@QAE@XZ 10023f20 f   GraphicDisplayImpl.obj
 0001:00023030       ?FinalConstruct@COPOSGraphicDisplay@@QAEJXZ 10024030 f   GraphicDisplayImpl.obj
 0001:00023100       ??1COPOSGraphicDisplay@@UAE@XZ 10024100 f   GraphicDisplayImpl.obj
 0001:000231e0       ?WriteTrace@COPOSGraphicDisplay@@QAAXPB_WZZ 100241e0 f   GraphicDisplayImpl.obj
 0001:00023290       ?WriteTraceString@COPOSGraphicDisplay@@QAEXPB_WPA_W@Z 10024290 f   GraphicDisplayImpl.obj
 0001:00023600       ?WriteTraceString@COPOSGraphicDisplay@@QAAXPAXHHHPB_WZZ 10024600 f   GraphicDisplayImpl.obj
 0001:00023830       ?WriteTraceError@COPOSGraphicDisplay@@QAEXPB_WK@Z 10024830 f   GraphicDisplayImpl.obj
 0001:00023920       ?WriteTraceMethods@COPOSGraphicDisplay@@QAEXPAJH@Z 10024920 f   GraphicDisplayImpl.obj
 0001:00023990       ?GetOposProp@COPOSGraphicDisplay@@IAEJPBDJPAJJ@Z 10024990 f   GraphicDisplayImpl.obj
 0001:00023c00       ?SetOposProp@COPOSGraphicDisplay@@IAEJPBDJJJ@Z 10024c00 f   GraphicDisplayImpl.obj
 0001:00023e90       ?GetOposProp@COPOSGraphicDisplay@@IAEJPBDJPAFJ@Z 10024e90 f   GraphicDisplayImpl.obj
 0001:00023f30       ?SetOposProp@COPOSGraphicDisplay@@IAEJPBDJFJ@Z 10024f30 f   GraphicDisplayImpl.obj
 0001:00023f90       ?GetOposProp@COPOSGraphicDisplay@@IAEJPBDJPAPA_WJ@Z 10024f90 f   GraphicDisplayImpl.obj
 0001:00024210       ?SetOposProp@COPOSGraphicDisplay@@IAEJPBDJPA_WJ@Z 10025210 f   GraphicDisplayImpl.obj
 0001:00024550       ?DoInvoke@COPOSGraphicDisplay@@IAEJPBDJPAVOposVariant@@IHPAJ_N@Z 10025550 f   GraphicDisplayImpl.obj
 0001:00024e80       ?SetCOFreezeEvents@COPOSGraphicDisplay@@IAEXF@Z 10025e80 f   GraphicDisplayImpl.obj
 0001:00024fc0       ?FreezeEvents@COPOSGraphicDisplay@@MAGJH@Z 10025fc0 f   GraphicDisplayImpl.obj
 0001:000250a0       ?OnDraw@COPOSGraphicDisplay@@MAEJAAUATL_DRAWINFO@@@Z 100260a0 f   GraphicDisplayImpl.obj
 0001:00025240       ?SOProcessID@COPOSGraphicDisplay@@UAGJPAJ@Z 10026240 f   GraphicDisplayImpl.obj
 0001:00025280       ?get_OpenResult@COPOSGraphicDisplay@@UAGJPAJ@Z 10026280 f   GraphicDisplayImpl.obj
 0001:000252c0       ?get_BinaryConversion@COPOSGraphicDisplay@@UAGJPAJ@Z 100262c0 f   GraphicDisplayImpl.obj
 0001:000252f0       ?put_BinaryConversion@COPOSGraphicDisplay@@UAGJJ@Z 100262f0 f   GraphicDisplayImpl.obj
 0001:00025320       ?get_CapPowerReporting@COPOSGraphicDisplay@@UAGJPAJ@Z 10026320 f   GraphicDisplayImpl.obj
 0001:00025350       ?get_CheckHealthText@COPOSGraphicDisplay@@UAGJPAPA_W@Z 10026350 f   GraphicDisplayImpl.obj
 0001:00025380       ?get_Claimed@COPOSGraphicDisplay@@UAGJPAF@Z 10026380 f   GraphicDisplayImpl.obj
 0001:000253b0       ?get_DeviceEnabled@COPOSGraphicDisplay@@UAGJPAF@Z 100263b0 f   GraphicDisplayImpl.obj
 0001:000253e0       ?put_DeviceEnabled@COPOSGraphicDisplay@@UAGJF@Z 100263e0 f   GraphicDisplayImpl.obj
 0001:00025410       ?get_FreezeEvents@COPOSGraphicDisplay@@UAGJPAF@Z 10026410 f   GraphicDisplayImpl.obj
 0001:00025440       ?put_FreezeEvents@COPOSGraphicDisplay@@UAGJF@Z 10026440 f   GraphicDisplayImpl.obj
 0001:000254d0       ?get_OutputID@COPOSGraphicDisplay@@UAGJPAJ@Z 100264d0 f   GraphicDisplayImpl.obj
 0001:00025500       ?get_PowerNotify@COPOSGraphicDisplay@@UAGJPAJ@Z 10026500 f   GraphicDisplayImpl.obj
 0001:00025530       ?put_PowerNotify@COPOSGraphicDisplay@@UAGJJ@Z 10026530 f   GraphicDisplayImpl.obj
 0001:00025560       ?get_PowerState@COPOSGraphicDisplay@@UAGJPAJ@Z 10026560 f   GraphicDisplayImpl.obj
 0001:00025590       ?get_ResultCode@COPOSGraphicDisplay@@UAGJPAJ@Z 10026590 f   GraphicDisplayImpl.obj
 0001:00025620       ?get_ResultCodeExtended@COPOSGraphicDisplay@@UAGJPAJ@Z 10026620 f   GraphicDisplayImpl.obj
 0001:00025650       ?get_State@COPOSGraphicDisplay@@UAGJPAJ@Z 10026650 f   GraphicDisplayImpl.obj
 0001:000256a0       ?get_ControlObjectDescription@COPOSGraphicDisplay@@UAGJPAPA_W@Z 100266a0 f   GraphicDisplayImpl.obj
 0001:00025720       ?get_ControlObjectVersion@COPOSGraphicDisplay@@UAGJPAJ@Z 10026720 f   GraphicDisplayImpl.obj
 0001:00025760       ?get_ServiceObjectDescription@COPOSGraphicDisplay@@UAGJPAPA_W@Z 10026760 f   GraphicDisplayImpl.obj
 0001:00025790       ?get_ServiceObjectVersion@COPOSGraphicDisplay@@UAGJPAJ@Z 10026790 f   GraphicDisplayImpl.obj
 0001:000257c0       ?get_DeviceDescription@COPOSGraphicDisplay@@UAGJPAPA_W@Z 100267c0 f   GraphicDisplayImpl.obj
 0001:000257f0       ?get_DeviceName@COPOSGraphicDisplay@@UAGJPAPA_W@Z 100267f0 f   GraphicDisplayImpl.obj
 0001:00025820       ?get_CapStatisticsReporting@COPOSGraphicDisplay@@UAGJPAF@Z 10026820 f   GraphicDisplayImpl.obj
 0001:00025850       ?get_CapUpdateStatistics@COPOSGraphicDisplay@@UAGJPAF@Z 10026850 f   GraphicDisplayImpl.obj
 0001:00025880       ?get_CapCompareFirmwareVersion@COPOSGraphicDisplay@@UAGJPAF@Z 10026880 f   GraphicDisplayImpl.obj
 0001:000258b0       ?get_CapUpdateFirmware@COPOSGraphicDisplay@@UAGJPAF@Z 100268b0 f   GraphicDisplayImpl.obj
 0001:000258e0       ?CheckHealth@COPOSGraphicDisplay@@UAGJJPAJ@Z 100268e0 f   GraphicDisplayImpl.obj
 0001:00025980       ?ClaimDevice@COPOSGraphicDisplay@@UAGJJPAJ@Z 10026980 f   GraphicDisplayImpl.obj
 0001:00025a60       ?ClearOutput@COPOSGraphicDisplay@@UAGJPAJ@Z 10026a60 f   GraphicDisplayImpl.obj
 0001:00025a90       ?Close@COPOSGraphicDisplay@@UAGJPAJ@Z 10026a90 f   GraphicDisplayImpl.obj
 0001:00025b60       ?DirectIO@COPOSGraphicDisplay@@UAGJJPAJPAPA_W0@Z 10026b60 f   GraphicDisplayImpl.obj
 0001:00025c70       ?Open@COPOSGraphicDisplay@@UAGJPA_WPAJ@Z 10026c70 f   GraphicDisplayImpl.obj
 0001:00026e60       ?ReleaseDevice@COPOSGraphicDisplay@@UAGJPAJ@Z 10027e60 f   GraphicDisplayImpl.obj
 0001:00026ed0       ?ResetStatistics@COPOSGraphicDisplay@@UAGJPA_WPAJ@Z 10027ed0 f   GraphicDisplayImpl.obj
 0001:00026f80       ?RetrieveStatistics@COPOSGraphicDisplay@@UAGJPAPA_WPAJ@Z 10027f80 f   GraphicDisplayImpl.obj
 0001:00027030       ?UpdateStatistics@COPOSGraphicDisplay@@UAGJPA_WPAJ@Z 10028030 f   GraphicDisplayImpl.obj
 0001:000270e0       ?CompareFirmwareVersion@COPOSGraphicDisplay@@UAGJPA_WPAJ1@Z 100280e0 f   GraphicDisplayImpl.obj
 0001:000271d0       ?UpdateFirmware@COPOSGraphicDisplay@@UAGJPA_WPAJ@Z 100281d0 f   GraphicDisplayImpl.obj
 0001:00027280       ?get_Brightness@COPOSGraphicDisplay@@UAGJPAJ@Z 10028280 f   GraphicDisplayImpl.obj
 0001:000272b0       ?put_Brightness@COPOSGraphicDisplay@@UAGJJ@Z 100282b0 f   GraphicDisplayImpl.obj
 0001:000272e0       ?get_CapAssociatedHardTotalsDevice@COPOSGraphicDisplay@@UAGJPAPA_W@Z 100282e0 f   GraphicDisplayImpl.obj
 0001:00027310       ?get_CapBrightness@COPOSGraphicDisplay@@UAGJPAF@Z 10028310 f   GraphicDisplayImpl.obj
 0001:00027340       ?get_CapImageType@COPOSGraphicDisplay@@UAGJPAF@Z 10028340 f   GraphicDisplayImpl.obj
 0001:00027370       ?get_CapStorage@COPOSGraphicDisplay@@UAGJPAJ@Z 10028370 f   GraphicDisplayImpl.obj
 0001:000273a0       ?get_CapURLBack@COPOSGraphicDisplay@@UAGJPAF@Z 100283a0 f   GraphicDisplayImpl.obj
 0001:000273d0       ?get_CapURLForward@COPOSGraphicDisplay@@UAGJPAF@Z 100283d0 f   GraphicDisplayImpl.obj
 0001:00027400       ?get_CapVideoType@COPOSGraphicDisplay@@UAGJPAF@Z 10028400 f   GraphicDisplayImpl.obj
 0001:00027430       ?get_CapVolume@COPOSGraphicDisplay@@UAGJPAF@Z 10028430 f   GraphicDisplayImpl.obj
 0001:00027460       ?get_DisplayMode@COPOSGraphicDisplay@@UAGJPAJ@Z 10028460 f   GraphicDisplayImpl.obj
 0001:00027490       ?put_DisplayMode@COPOSGraphicDisplay@@UAGJJ@Z 10028490 f   GraphicDisplayImpl.obj
 0001:000274c0       ?get_ImageType@COPOSGraphicDisplay@@UAGJPAPA_W@Z 100284c0 f   GraphicDisplayImpl.obj
 0001:000274f0       ?put_ImageType@COPOSGraphicDisplay@@UAGJPA_W@Z 100284f0 f   GraphicDisplayImpl.obj
 0001:00027520       ?get_ImageTypeList@COPOSGraphicDisplay@@UAGJPAPA_W@Z 10028520 f   GraphicDisplayImpl.obj
 0001:00027550       ?get_LoadStatus@COPOSGraphicDisplay@@UAGJPAJ@Z 10028550 f   GraphicDisplayImpl.obj
 0001:00027580       ?get_Storage@COPOSGraphicDisplay@@UAGJPAJ@Z 10028580 f   GraphicDisplayImpl.obj
 0001:000275b0       ?put_Storage@COPOSGraphicDisplay@@UAGJJ@Z 100285b0 f   GraphicDisplayImpl.obj
 0001:000275e0       ?get_URL@COPOSGraphicDisplay@@UAGJPAPA_W@Z 100285e0 f   GraphicDisplayImpl.obj
 0001:00027610       ?get_VideoType@COPOSGraphicDisplay@@UAGJPAPA_W@Z 10028610 f   GraphicDisplayImpl.obj
 0001:00027640       ?put_VideoType@COPOSGraphicDisplay@@UAGJPA_W@Z 10028640 f   GraphicDisplayImpl.obj
 0001:00027670       ?get_VideoTypeList@COPOSGraphicDisplay@@UAGJPAPA_W@Z 10028670 f   GraphicDisplayImpl.obj
 0001:000276a0       ?get_Volume@COPOSGraphicDisplay@@UAGJPAJ@Z 100286a0 f   GraphicDisplayImpl.obj
 0001:000276d0       ?put_Volume@COPOSGraphicDisplay@@UAGJJ@Z 100286d0 f   GraphicDisplayImpl.obj
 0001:00027700       ?CancelLoading@COPOSGraphicDisplay@@UAGJPAJ@Z 10028700 f   GraphicDisplayImpl.obj
 0001:00027730       ?GoURLBack@COPOSGraphicDisplay@@UAGJPAJ@Z 10028730 f   GraphicDisplayImpl.obj
 0001:00027760       ?GoURLForward@COPOSGraphicDisplay@@UAGJPAJ@Z 10028760 f   GraphicDisplayImpl.obj
 0001:00027790       ?LoadImageW@COPOSGraphicDisplay@@UAGJPA_WPAJ@Z 10028790 f   GraphicDisplayImpl.obj
 0001:00027840       ?LoadURL@COPOSGraphicDisplay@@UAGJPA_WPAJ@Z 10028840 f   GraphicDisplayImpl.obj
 0001:000278f0       ?PlayVideo@COPOSGraphicDisplay@@UAGJPA_WFPAJ@Z 100288f0 f   GraphicDisplayImpl.obj
 0001:000279e0       ?StopVideo@COPOSGraphicDisplay@@UAGJPAJ@Z 100289e0 f   GraphicDisplayImpl.obj
 0001:00027a10       ?UpdatePage@COPOSGraphicDisplay@@UAGJPAJ@Z 10028a10 f   GraphicDisplayImpl.obj
 0001:00027a40       ??0?$CComControl@VCOPOSGraphicDisplay@@V?$CWindowImpl@VCOPOSGraphicDisplay@@VCWindow@ATL@@V?$CWinTraits@$0FGAAAAAA@$0A@@3@@ATL@@@ATL@@QAE@XZ 10028a40 f i GraphicDisplayImpl.obj
 0001:00027a80       ??0?$CComPtr@UIAdviseSink@@@ATL@@QAE@XZ 10028a80 f i GraphicDisplayImpl.obj
 0001:00027ab0       ??0?$CComPtr@UIDataAdviseHolder@@@ATL@@QAE@XZ 10028ab0 f i GraphicDisplayImpl.obj
 0001:00027ae0       ??0?$CComPtr@UIOleAdviseHolder@@@ATL@@QAE@XZ 10028ae0 f i GraphicDisplayImpl.obj
 0001:00027b10       ??0?$CComPtr@UIOleClientSite@@@ATL@@QAE@XZ 10028b10 f i GraphicDisplayImpl.obj
 0001:00027b40       ??0?$CComPtr@UIOleInPlaceSiteWindowless@@@ATL@@QAE@XZ 10028b40 f i GraphicDisplayImpl.obj
 0001:00027b70       ??0?$CComPtrBase@UIAdviseSink@@@ATL@@IAE@XZ 10028b70 f i GraphicDisplayImpl.obj
 0001:00027b90       ??0?$CComPtrBase@UIDataAdviseHolder@@@ATL@@IAE@XZ 10028b90 f i GraphicDisplayImpl.obj
 0001:00027bb0       ??0?$CComPtrBase@UIOleAdviseHolder@@@ATL@@IAE@XZ 10028bb0 f i GraphicDisplayImpl.obj
 0001:00027bd0       ??0?$CComPtrBase@UIOleClientSite@@@ATL@@IAE@XZ 10028bd0 f i GraphicDisplayImpl.obj
 0001:00027bf0       ??0?$CComPtrBase@UIOleInPlaceSiteWindowless@@@ATL@@IAE@XZ 10028bf0 f i GraphicDisplayImpl.obj
 0001:00027c10       ??0?$CComQIPtr@UIDispatch@@$1?_GUID_00020400_0000_0000_c000_000000000046@@3U__s_GUID@@B@ATL@@QAE@XZ 10028c10 f i GraphicDisplayImpl.obj
 0001:00027c40       ??0?$CProxy_IOPOSEvents@VCOPOSGraphicDisplay@@@@QAE@PAVCOPOSGraphicDisplay@@@Z 10028c40 f i GraphicDisplayImpl.obj
 0001:00027cb0       ??0?$CWindowImpl@VCOPOSGraphicDisplay@@VCWindow@ATL@@V?$CWinTraits@$0FGAAAAAA@$0A@@3@@ATL@@QAE@XZ 10028cb0 f i GraphicDisplayImpl.obj
 0001:00027ce0       ??0?$CWindowImplBaseT@VCWindow@ATL@@V?$CWinTraits@$0FGAAAAAA@$0A@@2@@ATL@@QAE@XZ 10028ce0 f i GraphicDisplayImpl.obj
 0001:00027d20       ??0?$CWindowImplRoot@VCWindow@ATL@@@ATL@@QAE@XZ 10028d20 f i GraphicDisplayImpl.obj
 0001:00027d80       ??0?$IConnectionPointContainerImpl@VCOPOSGraphicDisplay@@@ATL@@QAE@XZ 10028d80 f i GraphicDisplayImpl.obj
 0001:00027db0       ??0?$IConnectionPointImpl@VCOPOSGraphicDisplay@@$1?DIID__IOPOSGraphicDisplayEvents@@3U_GUID@@BVCComDynamicUnkArray@ATL@@@ATL@@QAE@XZ 10028db0 f i GraphicDisplayImpl.obj
 0001:00027df0       ??0?$IConnectionPointImpl@VCOPOSGraphicDisplay@@$1?IID_IPropertyNotifySink@@3U_GUID@@BVCComDynamicUnkArray@ATL@@@ATL@@QAE@XZ 10028df0 f i GraphicDisplayImpl.obj
 0001:00027e30       ??0?$IDataObjectImpl@VCOPOSGraphicDisplay@@@ATL@@QAE@XZ 10028e30 f i GraphicDisplayImpl.obj
 0001:00027e60       ??0?$IDispatchImpl@UIOPOSGraphicDisplay@@$1?IID_IOPOSGraphicDisplay@@3U_GUID@@B$1?LIBID_OposGraphicDisplay_CCO@@3U3@B$00$0A@VCComTypeInfoHolder@ATL@@@ATL@@QAE@XZ 10028e60 f i GraphicDisplayImpl.obj
 0001:00027e90       ??0?$IObjectSafetyImpl@VCOPOSGraphicDisplay@@$02@ATL@@QAE@XZ 10028e90 f i GraphicDisplayImpl.obj
 0001:00027ed0       ??0?$IOleControlImpl@VCOPOSGraphicDisplay@@@ATL@@QAE@XZ 10028ed0 f i GraphicDisplayImpl.obj
 0001:00027f00       ??0?$IOleInPlaceActiveObjectImpl@VCOPOSGraphicDisplay@@@ATL@@QAE@XZ 10028f00 f i GraphicDisplayImpl.obj
 0001:00027f30       ??0?$IOleInPlaceObjectWindowlessImpl@VCOPOSGraphicDisplay@@@ATL@@QAE@XZ 10028f30 f i GraphicDisplayImpl.obj
 0001:00027f60       ??0?$IOleObjectImpl@VCOPOSGraphicDisplay@@@ATL@@QAE@XZ 10028f60 f i GraphicDisplayImpl.obj
 0001:00027f90       ??0?$IPersistStorageImpl@VCOPOSGraphicDisplay@@@ATL@@QAE@XZ 10028f90 f i GraphicDisplayImpl.obj
 0001:00027fc0       ??0?$IPersistStreamInitImpl@VCOPOSGraphicDisplay@@@ATL@@QAE@XZ 10028fc0 f i GraphicDisplayImpl.obj
 0001:00027ff0       ??0?$IPropertyNotifySinkCP@VCOPOSGraphicDisplay@@VCComDynamicUnkArray@ATL@@@ATL@@QAE@XZ 10028ff0 f i GraphicDisplayImpl.obj
 0001:00028020       ??0?$IProvideClassInfo2Impl@$1?CLSID_OPOSGraphicDisplay@@3U_GUID@@B$1?DIID__IOPOSGraphicDisplayEvents@@3U2@B$1?LIBID_OposGraphicDisplay_CCO@@3U2@B$00$0A@VCComTypeInfoHolder@ATL@@@ATL@@QAE@XZ 10029020 f i GraphicDisplayImpl.obj
 0001:00028050       ??0?$IQuickActivateImpl@VCOPOSGraphicDisplay@@@ATL@@QAE@XZ 10029050 f i GraphicDisplayImpl.obj
 0001:00028080       ??0?$ISpecifyPropertyPagesImpl@VCOPOSGraphicDisplay@@@ATL@@QAE@XZ 10029080 f i GraphicDisplayImpl.obj
 0001:000280b0       ??0?$IViewObjectExImpl@VCOPOSGraphicDisplay@@@ATL@@QAE@XZ 100290b0 f i GraphicDisplayImpl.obj
 0001:000280e0       ??0?$_ICPLocator@$1?DIID__IOPOSGraphicDisplayEvents@@3U_GUID@@B@ATL@@QAE@XZ 100290e0 f i GraphicDisplayImpl.obj
 0001:00028100       ??0?$_ICPLocator@$1?IID_IPropertyNotifySink@@3U_GUID@@B@ATL@@QAE@XZ 10029100 f i GraphicDisplayImpl.obj
 0001:00028120       ??0CComControlBase@ATL@@QAE@AAPAUHWND__@@@Z 10029120 f i GraphicDisplayImpl.obj
 0001:000282d0       ??0CComDynamicUnkArray@ATL@@QAE@XZ 100292d0 f i GraphicDisplayImpl.obj
 0001:00028300       ??0CDynamicStdCallThunk2@ATL@@QAE@XZ 10029300 f i GraphicDisplayImpl.obj
 0001:00028320       ??0CMessageMap@ATL@@QAE@XZ 10029320 f i GraphicDisplayImpl.obj
 0001:00028340       ??0CWindow@ATL@@QAE@PAUHWND__@@@Z 10029340 f i GraphicDisplayImpl.obj
 0001:00028360       ??0CWndProcThunk@ATL@@QAE@XZ 10029360 f i GraphicDisplayImpl.obj
 0001:00028390       ??0IConnectionPointContainer@@QAE@XZ 10029390 f i GraphicDisplayImpl.obj
 0001:000283c0       ??0IDataObject@@QAE@XZ     100293c0 f i GraphicDisplayImpl.obj
 0001:000283f0       ??0IDispatch@@QAE@XZ       100293f0 f i GraphicDisplayImpl.obj
 0001:00028420       ??0IOPOSGraphicDisplay@@QAE@XZ 10029420 f i GraphicDisplayImpl.obj
 0001:00028450       ??0IOPOSGraphicDisplay_1_16@@QAE@XZ 10029450 f i GraphicDisplayImpl.obj
 0001:00028480       ??0IObjectSafety@@QAE@XZ   10029480 f i GraphicDisplayImpl.obj
 0001:000284b0       ??0IOleControl@@QAE@XZ     100294b0 f i GraphicDisplayImpl.obj
 0001:000284e0       ??0IOleInPlaceActiveObject@@QAE@XZ 100294e0 f i GraphicDisplayImpl.obj
 0001:00028510       ??0IOleInPlaceObject@@QAE@XZ 10029510 f i GraphicDisplayImpl.obj
 0001:00028540       ??0IOleInPlaceObjectWindowless@@QAE@XZ 10029540 f i GraphicDisplayImpl.obj
 0001:00028570       ??0IOleObject@@QAE@XZ      10029570 f i GraphicDisplayImpl.obj
 0001:000285a0       ??0IOleWindow@@QAE@XZ      100295a0 f i GraphicDisplayImpl.obj
 0001:000285d0       ??0IPersist@@QAE@XZ        100295d0 f i GraphicDisplayImpl.obj
 0001:00028600       ??0IPersistStorage@@QAE@XZ 10029600 f i GraphicDisplayImpl.obj
 0001:00028630       ??0IPersistStreamInit@@QAE@XZ 10029630 f i GraphicDisplayImpl.obj
 0001:00028660       ??0IProvideClassInfo2@@QAE@XZ 10029660 f i GraphicDisplayImpl.obj
 0001:00028690       ??0IProvideClassInfo@@QAE@XZ 10029690 f i GraphicDisplayImpl.obj
 0001:000286c0       ??0IQuickActivate@@QAE@XZ  100296c0 f i GraphicDisplayImpl.obj
 0001:000286f0       ??0ISpecifyPropertyPages@@QAE@XZ 100296f0 f i GraphicDisplayImpl.obj
 0001:00028720       ??0IViewObject2@@QAE@XZ    10029720 f i GraphicDisplayImpl.obj
 0001:00028750       ??0IViewObject@@QAE@XZ     10029750 f i GraphicDisplayImpl.obj
 0001:00028780       ??0IViewObjectEx@@QAE@XZ   10029780 f i GraphicDisplayImpl.obj
 0001:000287b0       ??0OposVariantResult@@QAE@XZ 100297b0 f i GraphicDisplayImpl.obj
 0001:000287e0       ??0_CW@@QAE@PBD@Z          100297e0 f i GraphicDisplayImpl.obj
 0001:00028820       ??0_CW@@QAE@PB_W@Z         10029820 f i GraphicDisplayImpl.obj
 0001:00028860       ??0_CWNCC@@QAE@PBD@Z       10029860 f i GraphicDisplayImpl.obj
 0001:00028890       ??1?$CComControl@VCOPOSGraphicDisplay@@V?$CWindowImpl@VCOPOSGraphicDisplay@@VCWindow@ATL@@V?$CWinTraits@$0FGAAAAAA@$0A@@3@@ATL@@@ATL@@UAE@XZ 10029890 f i GraphicDisplayImpl.obj
 0001:000288c0       ??1?$CComPtr@UIDataAdviseHolder@@@ATL@@QAE@XZ 100298c0 f i GraphicDisplayImpl.obj
 0001:000288f0       ??1?$CComPtr@UIOleAdviseHolder@@@ATL@@QAE@XZ 100298f0 f i GraphicDisplayImpl.obj
 0001:00028920       ??1?$CComPtr@UIOleInPlaceSiteWindowless@@@ATL@@QAE@XZ 10029920 f i GraphicDisplayImpl.obj
 0001:00028950       ??1?$CComPtrBase@UIDataAdviseHolder@@@ATL@@QAE@XZ 10029950 f i GraphicDisplayImpl.obj
 0001:000289a0       ??1?$CComPtrBase@UIOleAdviseHolder@@@ATL@@QAE@XZ 100299a0 f i GraphicDisplayImpl.obj
 0001:000289f0       ??1?$CComPtrBase@UIOleInPlaceSiteWindowless@@@ATL@@QAE@XZ 100299f0 f i GraphicDisplayImpl.obj
 0001:00028a40       ??1?$CComQIPtr@UIDispatch@@$1?_GUID_00020400_0000_0000_c000_000000000046@@3U__s_GUID@@B@ATL@@QAE@XZ 10029a40 f i GraphicDisplayImpl.obj
 0001:00028a70       ??1?$CProxy_IOPOSEvents@VCOPOSGraphicDisplay@@@@QAE@XZ 10029a70 f i GraphicDisplayImpl.obj
 0001:00028aa0       ??1?$CWindowImpl@VCOPOSGraphicDisplay@@VCWindow@ATL@@V?$CWinTraits@$0FGAAAAAA@$0A@@3@@ATL@@UAE@XZ 10029aa0 f i GraphicDisplayImpl.obj
 0001:00028ad0       ??1?$CWindowImplBaseT@VCWindow@ATL@@V?$CWinTraits@$0FGAAAAAA@$0A@@2@@ATL@@UAE@XZ 10029ad0 f i GraphicDisplayImpl.obj
 0001:00028b00       ??1?$CWindowImplRoot@VCWindow@ATL@@@ATL@@UAE@XZ 10029b00 f i GraphicDisplayImpl.obj
 0001:00028ba0       ??1?$IConnectionPointImpl@VCOPOSGraphicDisplay@@$1?DIID__IOPOSGraphicDisplayEvents@@3U_GUID@@BVCComDynamicUnkArray@ATL@@@ATL@@QAE@XZ 10029ba0 f i GraphicDisplayImpl.obj
 0001:00028c20       ??1?$IConnectionPointImpl@VCOPOSGraphicDisplay@@$1?IID_IPropertyNotifySink@@3U_GUID@@BVCComDynamicUnkArray@ATL@@@ATL@@QAE@XZ 10029c20 f i GraphicDisplayImpl.obj
 0001:00028ca0       ??1?$IPropertyNotifySinkCP@VCOPOSGraphicDisplay@@VCComDynamicUnkArray@ATL@@@ATL@@QAE@XZ 10029ca0 f i GraphicDisplayImpl.obj
 0001:00028cd0       ??1CComControlBase@ATL@@UAE@XZ 10029cd0 f i GraphicDisplayImpl.obj
 0001:00028d90       ??1CComDynamicUnkArray@ATL@@QAE@XZ 10029d90 f i GraphicDisplayImpl.obj
 0001:00028dd0       ??1CDynamicStdCallThunk2@ATL@@QAE@XZ 10029dd0 f i GraphicDisplayImpl.obj
 0001:00028e00       ??1CWndProcThunk@ATL@@QAE@XZ 10029e00 f i GraphicDisplayImpl.obj
 0001:00028e30       ??1OposVariantResult@@QAE@XZ 10029e30 f i GraphicDisplayImpl.obj
 0001:00028e60       ??1_CW@@QAE@XZ             10029e60 f i GraphicDisplayImpl.obj
 0001:00028ed0       ??1_CWNCC@@QAE@XZ          10029ed0 f i GraphicDisplayImpl.obj
 0001:00028f00       ??B_CW@@QAEPB_WXZ          10029f00 f i GraphicDisplayImpl.obj
 0001:00028f40       ??B_CWNCC@@QAEPA_WXZ       10029f40 f i GraphicDisplayImpl.obj
 0001:00028f70       ??_EOposVariant@@QAEPAXI@Z 10029f70 f i GraphicDisplayImpl.obj
 0001:00029000       ?EventClaim@COPOSGraphicDisplay@@IAEXXZ 1002a000 f i GraphicDisplayImpl.obj
 0001:00029040       ?EventClose@COPOSGraphicDisplay@@IAEXXZ 1002a040 f i GraphicDisplayImpl.obj
 0001:000290e0       ?EventInit@COPOSGraphicDisplay@@IAEJXZ 1002a0e0 f i GraphicDisplayImpl.obj
 0001:00029310       ?EventOpen@COPOSGraphicDisplay@@IAEXXZ 1002a310 f i GraphicDisplayImpl.obj
 0001:00029350       ?EventPreCloseRelease@COPOSGraphicDisplay@@IAEXXZ 1002a350 f i GraphicDisplayImpl.obj
 0001:000293d0       ?EventUninit@COPOSGraphicDisplay@@IAEXXZ 1002a3d0 f i GraphicDisplayImpl.obj
 0001:00029500       ?EventWindowProc@COPOSGraphicDisplay@@IAGJIIJ@Z 1002a500 f i GraphicDisplayImpl.obj
 0001:00029680       ?FireEventCleanup@COPOSGraphicDisplay@@IAEXXZ 1002a680 f i GraphicDisplayImpl.obj
 0001:000296d0       ?FireEventSetup@COPOSGraphicDisplay@@IAE_NXZ 1002a6d0 f i GraphicDisplayImpl.obj
 0001:00029740       ?GetModuleInstance@CComModule@ATL@@QAEPAUHINSTANCE__@@XZ 1002a740 f i GraphicDisplayImpl.obj
 0001:00029760       ?SetRC@COPOSGraphicDisplay@@IAEJJ@Z 1002a760 f i GraphicDisplayImpl.obj
 0001:00029790       ?s_EventWindowProc@COPOSGraphicDisplay@@KGJPAUHWND__@@IIJ@Z 1002a790 f i GraphicDisplayImpl.obj
 0001:00029830       __snwprintf                1002a830 f i GraphicDisplayImpl.obj
 0001:00029890       __vfwprintf_l              1002a890 f i GraphicDisplayImpl.obj
 0001:000298c0       __vsnwprintf               1002a8c0 f i GraphicDisplayImpl.obj
 0001:000298f0       __vsnwprintf_l             1002a8f0 f i GraphicDisplayImpl.obj
 0001:00029960       _vfwprintf                 1002a960 f i GraphicDisplayImpl.obj
 0001:00029982       _DebugBreak@0              1002a982 f   kernel32:KERNEL32.dll
 0001:00029988       _Sleep@4                   1002a988 f   kernel32:KERNEL32.dll
 0001:0002998e       _GetCurrentProcess@0       1002a98e f   kernel32:KERNEL32.dll
 0001:00029994       _TerminateProcess@8        1002a994 f   kernel32:KERNEL32.dll
 0001:0002999a       _MultiByteToWideChar@24    1002a99a f   kernel32:KERNEL32.dll
 0001:000299a0       _WideCharToMultiByte@32    1002a9a0 f   kernel32:KERNEL32.dll
 0001:000299a6       _DecodePointer@4           1002a9a6 f   kernel32:KERNEL32.dll
 0001:000299ac       _RaiseException@16         1002a9ac f   kernel32:KERNEL32.dll
 0001:000299b2       _GetLastError@0            1002a9b2 f   kernel32:KERNEL32.dll
 0001:000299b8       _SetLastError@4            1002a9b8 f   kernel32:KERNEL32.dll
 0001:000299be       _InitializeCriticalSectionEx@12 1002a9be f   kernel32:KERNEL32.dll
 0001:000299c4       _DeleteCriticalSection@4   1002a9c4 f   kernel32:KERNEL32.dll
 0001:000299ca       _EncodePointer@4           1002a9ca f   kernel32:KERNEL32.dll
 0001:000299d0       _EnterCriticalSection@4    1002a9d0 f   kernel32:KERNEL32.dll
 0001:000299d6       _LeaveCriticalSection@4    1002a9d6 f   kernel32:KERNEL32.dll
 0001:000299dc       _ResetEvent@4              1002a9dc f   kernel32:KERNEL32.dll
 0001:000299e2       _ReleaseMutex@4            1002a9e2 f   kernel32:KERNEL32.dll
 0001:000299e8       _WaitForSingleObject@8     1002a9e8 f   kernel32:KERNEL32.dll
 0001:000299ee       _GetCurrentThreadId@0      1002a9ee f   kernel32:KERNEL32.dll
 0001:000299f4       _DisableThreadLibraryCalls@4 1002a9f4 f   kernel32:KERNEL32.dll
 0001:000299fa       _FreeLibrary@4             1002a9fa f   kernel32:KERNEL32.dll
 0001:00029a00       _GetModuleFileNameW@12     1002aa00 f   kernel32:KERNEL32.dll
 0001:00029a06       _GetModuleHandleW@4        1002aa06 f   kernel32:KERNEL32.dll
 0001:00029a0c       _GetProcAddress@8          1002aa0c f   kernel32:KERNEL32.dll
 0001:00029a12       _LoadLibraryExW@12         1002aa12 f   kernel32:KERNEL32.dll
 0001:00029a18       _LoadResource@8            1002aa18 f   kernel32:KERNEL32.dll
 0001:00029a1e       _SizeofResource@8          1002aa1e f   kernel32:KERNEL32.dll
 0001:00029a24       _FindResourceW@12          1002aa24 f   kernel32:KERNEL32.dll
 0001:00029a2a       _GlobalAlloc@8             1002aa2a f   kernel32:KERNEL32.dll
 0001:00029a30       _GlobalUnlock@4            1002aa30 f   kernel32:KERNEL32.dll
 0001:00029a36       _GlobalLock@4              1002aa36 f   kernel32:KERNEL32.dll
 0001:00029a3c       _MulDiv@12                 1002aa3c f   kernel32:KERNEL32.dll
 0001:00029a42       _lstrcmpiW@8               1002aa42 f   kernel32:KERNEL32.dll
 0001:00029a48       _DeleteFileW@4             1002aa48 f   kernel32:KERNEL32.dll
 0001:00029a4e       _CloseHandle@4             1002aa4e f   kernel32:KERNEL32.dll
 0001:00029a54       _SetEvent@4                1002aa54 f   kernel32:KERNEL32.dll
 0001:00029a5a       _CreateMutexW@12           1002aa5a f   kernel32:KERNEL32.dll
 0001:00029a60       _CreateEventW@16           1002aa60 f   kernel32:KERNEL32.dll
 0001:00029a66       _GetCurrentProcessId@0     1002aa66 f   kernel32:KERNEL32.dll
 0001:00029a6c       _LocalFree@4               1002aa6c f   kernel32:KERNEL32.dll
 0001:00029a72       _FormatMessageW@28         1002aa72 f   kernel32:KERNEL32.dll
 0001:00029a78       _GetActiveWindow@0         1002aa78 f   user32:USER32.dll
 0001:00029a7e       _MessageBoxW@16            1002aa7e f   user32:USER32.dll
 0001:00029a84       _UnregisterClassW@8        1002aa84 f   user32:USER32.dll
 0001:00029a8a       _PostMessageW@16           1002aa8a f   user32:USER32.dll
 0001:00029a90       _DefWindowProcW@16         1002aa90 f   user32:USER32.dll
 0001:00029a96       _CallWindowProcW@20        1002aa96 f   user32:USER32.dll
 0001:00029a9c       _RegisterClassExW@4        1002aa9c f   user32:USER32.dll
 0001:00029aa2       _GetClassInfoExW@12        1002aaa2 f   user32:USER32.dll
 0001:00029aa8       _CreateWindowExW@48        1002aaa8 f   user32:USER32.dll
 0001:00029aae       _IsWindow@4                1002aaae f   user32:USER32.dll
 0001:00029ab4       _IsChild@8                 1002aab4 f   user32:USER32.dll
 0001:00029aba       _DestroyWindow@4           1002aaba f   user32:USER32.dll
 0001:00029ac0       _ShowWindow@8              1002aac0 f   user32:USER32.dll
 0001:00029ac6       _SetWindowPos@28           1002aac6 f   user32:USER32.dll
 0001:00029acc       _CharNextW@4               1002aacc f   user32:USER32.dll
 0001:00029ad2       _SetFocus@4                1002aad2 f   user32:USER32.dll
 0001:00029ad8       _GetFocus@0                1002aad8 f   user32:USER32.dll
 0001:00029ade       _GetKeyState@4             1002aade f   user32:USER32.dll
 0001:00029ae4       _GetDC@4                   1002aae4 f   user32:USER32.dll
 0001:00029aea       _ReleaseDC@8               1002aaea f   user32:USER32.dll
 0001:00029af0       _BeginPaint@8              1002aaf0 f   user32:USER32.dll
 0001:00029af6       _EndPaint@8                1002aaf6 f   user32:USER32.dll
 0001:00029afc       _SetWindowRgn@12           1002aafc f   user32:USER32.dll
 0001:00029b02       _InvalidateRect@12         1002ab02 f   user32:USER32.dll
 0001:00029b08       _GetClientRect@8           1002ab08 f   user32:USER32.dll
 0001:00029b0e       _IntersectRect@12          1002ab0e f   user32:USER32.dll
 0001:00029b14       _UnionRect@12              1002ab14 f   user32:USER32.dll
 0001:00029b1a       _OffsetRect@12             1002ab1a f   user32:USER32.dll
 0001:00029b20       _EqualRect@8               1002ab20 f   user32:USER32.dll
 0001:00029b26       _PtInRect@12               1002ab26 f   user32:USER32.dll
 0001:00029b2c       _GetWindowLongW@8          1002ab2c f   user32:USER32.dll
 0001:00029b32       _SetWindowLongW@12         1002ab32 f   user32:USER32.dll
 0001:00029b38       _GetParent@4               1002ab38 f   user32:USER32.dll
 0001:00029b3e       _LoadCursorW@8             1002ab3e f   user32:USER32.dll
 0001:00029b44       _PeekMessageW@20           1002ab44 f   user32:USER32.dll
 0001:00029b4a       _RegisterClassW@4          1002ab4a f   user32:USER32.dll
 0001:00029b50       _LoadBitmapW@8             1002ab50 f   user32:USER32.dll
 0001:00029b56       _CloseMetaFile@4           1002ab56 f   gdi32:GDI32.dll
 0001:00029b5c       _CreateDCW@16              1002ab5c f   gdi32:GDI32.dll
 0001:00029b62       _CreateMetaFileW@4         1002ab62 f   gdi32:GDI32.dll
 0001:00029b68       _CreateRectRgnIndirect@4   1002ab68 f   gdi32:GDI32.dll
 0001:00029b6e       _DeleteDC@4                1002ab6e f   gdi32:GDI32.dll
 0001:00029b74       _DeleteMetaFile@4          1002ab74 f   gdi32:GDI32.dll
 0001:00029b7a       _GetDeviceCaps@8           1002ab7a f   gdi32:GDI32.dll
 0001:00029b80       _RestoreDC@8               1002ab80 f   gdi32:GDI32.dll
 0001:00029b86       _SaveDC@4                  1002ab86 f   gdi32:GDI32.dll
 0001:00029b8c       _SetMapMode@8              1002ab8c f   gdi32:GDI32.dll
 0001:00029b92       _LPtoDP@12                 1002ab92 f   gdi32:GDI32.dll
 0001:00029b98       _SetViewportOrgEx@16       1002ab98 f   gdi32:GDI32.dll
 0001:00029b9e       _SetWindowExtEx@16         1002ab9e f   gdi32:GDI32.dll
 0001:00029ba4       _SetWindowOrgEx@16         1002aba4 f   gdi32:GDI32.dll
 0001:00029baa       _BitBlt@36                 1002abaa f   gdi32:GDI32.dll
 0001:00029bb0       _CreateCompatibleDC@4      1002abb0 f   gdi32:GDI32.dll
 0001:00029bb6       _DeleteObject@4            1002abb6 f   gdi32:GDI32.dll
 0001:00029bbc       _SelectObject@8            1002abbc f   gdi32:GDI32.dll
 0001:00029bc2       _GetObjectW@12             1002abc2 f   gdi32:GDI32.dll
 0001:00029bc8       _RegCloseKey@4             1002abc8 f   advapi32:ADVAPI32.dll
 0001:00029bce       _RegCreateKeyExW@36        1002abce f   advapi32:ADVAPI32.dll
 0001:00029bd4       _RegDeleteKeyW@8           1002abd4 f   advapi32:ADVAPI32.dll
 0001:00029bda       _RegDeleteValueW@8         1002abda f   advapi32:ADVAPI32.dll
 0001:00029be0       _RegEnumKeyExW@32          1002abe0 f   advapi32:ADVAPI32.dll
 0001:00029be6       _RegOpenKeyExW@20          1002abe6 f   advapi32:ADVAPI32.dll
 0001:00029bec       _RegQueryInfoKeyW@48       1002abec f   advapi32:ADVAPI32.dll
 0001:00029bf2       _RegSetValueExW@24         1002abf2 f   advapi32:ADVAPI32.dll
 0001:00029bf8       _RegQueryValueExW@24       1002abf8 f   advapi32:ADVAPI32.dll
 0001:00029bfe       _CoCreateInstance@20       1002abfe f   ole32:ole32.dll
 0001:00029c04       _StringFromGUID2@12        1002ac04 f   ole32:ole32.dll
 0001:00029c0a       _CoTaskMemAlloc@4          1002ac0a f   ole32:ole32.dll
 0001:00029c10       _CoTaskMemRealloc@8        1002ac10 f   ole32:ole32.dll
 0001:00029c16       _CoTaskMemFree@4           1002ac16 f   ole32:ole32.dll
 0001:00029c1c       _ReadClassStm@8            1002ac1c f   ole32:ole32.dll
 0001:00029c22       _WriteClassStm@8           1002ac22 f   ole32:ole32.dll
 0001:00029c28       _CreateDataAdviseHolder@4  1002ac28 f   ole32:ole32.dll
 0001:00029c2e       _OleSaveToStream@8         1002ac2e f   ole32:ole32.dll
 0001:00029c34       _CreateOleAdviseHolder@4   1002ac34 f   ole32:ole32.dll
 0001:00029c3a       _OleRegGetUserType@12      1002ac3a f   ole32:ole32.dll
 0001:00029c40       _OleRegGetMiscStatus@12    1002ac40 f   ole32:ole32.dll
 0001:00029c46       _OleRegEnumVerbs@8         1002ac46 f   ole32:ole32.dll
 0001:00029c4c       _CLSIDFromProgID@8         1002ac4c f   ole32:ole32.dll
 0001:00029c52       _SysAllocString@4          1002ac52 f   oleaut32:OLEAUT32.dll
 0001:00029c58       _SysAllocStringLen@8       1002ac58 f   oleaut32:OLEAUT32.dll
 0001:00029c5e       _SysFreeString@4           1002ac5e f   oleaut32:OLEAUT32.dll
 0001:00029c64       _SysStringLen@4            1002ac64 f   oleaut32:OLEAUT32.dll
 0001:00029c6a       _VariantClear@4            1002ac6a f   oleaut32:OLEAUT32.dll
 0001:00029c70       _VariantCopyInd@8          1002ac70 f   oleaut32:OLEAUT32.dll
 0001:00029c76       _VariantChangeType@16      1002ac76 f   oleaut32:OLEAUT32.dll
 0001:00029c7c       _SysStringByteLen@4        1002ac7c f   oleaut32:OLEAUT32.dll
 0001:00029c82       _SysAllocStringByteLen@8   1002ac82 f   oleaut32:OLEAUT32.dll
 0001:00029c88       _VariantInit@4             1002ac88 f   oleaut32:OLEAUT32.dll
 0001:00029c8e       _VarUI4FromStr@16          1002ac8e f   oleaut32:OLEAUT32.dll
 0001:00029c94       _LoadTypeLib@8             1002ac94 f   oleaut32:OLEAUT32.dll
 0001:00029c9a       _LoadRegTypeLib@20         1002ac9a f   oleaut32:OLEAUT32.dll
 0001:00029ca0       _RegisterTypeLib@12        1002aca0 f   oleaut32:OLEAUT32.dll
 0001:00029ca6       _UnRegisterTypeLib@20      1002aca6 f   oleaut32:OLEAUT32.dll
 0001:00029cac       _OleCreatePropertyFrame@44 1002acac f   oleaut32:OLEAUT32.dll
 0001:00029cc0       @_RTC_AllocaHelper@12      1002acc0 f   LIBCMTD:stack.obj
 0001:00029d00       @_RTC_CheckStackVars2@12   1002ad00 f   LIBCMTD:stack.obj
 0001:00029de0       @_RTC_CheckStackVars@8     1002ade0 f   LIBCMTD:stack.obj
 0001:00029e40       __RTC_CheckEsp             1002ae40 f   LIBCMTD:stack.obj
 0001:00029e80       @__security_check_cookie@4 1002ae80 f   LIBCMTD:secchk.obj
 0001:00029ea0       __CRT_RTC_INIT             1002aea0 f   LIBCMTD:init.obj
 0001:00029eb0       __CRT_RTC_INITW            1002aeb0 f   LIBCMTD:init.obj
 0001:00029ec0       __RTC_InitBase             1002aec0 f   LIBCMTD:init.obj
 0001:00029ef0       __RTC_Shutdown             1002aef0 f   LIBCMTD:init.obj
 0001:00029f10       ??_U@YAPAXI@Z              1002af10 f   LIBCMTD:new_array.obj
 0001:00029f30       ??3@YAXPAXI@Z              1002af30 f   LIBCMTD:delete_scalar_size.obj
 0001:00029f50       ??_V@YAXPAX@Z              1002af50 f   LIBCMTD:delete_array.obj
 0001:00029f70       ??_V@YAXPAXI@Z             1002af70 f   LIBCMTD:delete_array_size.obj
 0001:00029f90       ?configure_argv@__scrt_narrow_argv_policy@@SAHXZ 1002af90 f i LIBCMTD:utility.obj
 0001:0002a040       ?initialize_environment@__scrt_narrow_environment_policy@@SAHXZ 1002b040 f i LIBCMTD:utility.obj
 0001:0002a0c0       _NtCurrentTeb              1002b0c0 f i LIBCMTD:utility.obj
 0001:0002a0d0       ___scrt_acquire_startup_lock 1002b0d0 f   LIBCMTD:utility.obj
 0001:0002a120       ___scrt_dllmain_after_initialize_c 1002b120 f   LIBCMTD:utility.obj
 0001:0002a150       ___scrt_dllmain_before_initialize_c 1002b150 f   LIBCMTD:utility.obj
 0001:0002a170       ___scrt_dllmain_crt_thread_attach 1002b170 f   LIBCMTD:utility.obj
 0001:0002a1a0       ___scrt_dllmain_crt_thread_detach 1002b1a0 f   LIBCMTD:utility.obj
 0001:0002a1c0       ___scrt_dllmain_exception_filter 1002b1c0 f   LIBCMTD:utility.obj
 0001:0002a210       ___scrt_dllmain_uninitialize_c 1002b210 f   LIBCMTD:utility.obj
 0001:0002a240       ___scrt_dllmain_uninitialize_critical 1002b240 f   LIBCMTD:utility.obj
 0001:0002a260       ___scrt_initialize_crt     1002b260 f   LIBCMTD:utility.obj
 0001:0002a2b0       ___scrt_initialize_onexit_tables 1002b2b0 f   LIBCMTD:utility.obj
 0001:0002a390       ___scrt_is_nonwritable_in_current_image 1002b390 f   LIBCMTD:utility.obj
 0001:0002a4c0       ___scrt_release_startup_lock 1002b4c0 f   LIBCMTD:utility.obj
 0001:0002a4f0       ___scrt_uninitialize_crt   1002b4f0 f   LIBCMTD:utility.obj
 0001:0002a530       __onexit                   1002b530 f   LIBCMTD:utility.obj
 0001:0002a5a0       _at_quick_exit             1002b5a0 f   LIBCMTD:utility.obj
 0001:0002a5e0       _atexit                    1002b5e0 f   LIBCMTD:utility.obj
 0001:0002a610       ??3@YAXPAX@Z               1002b610 f   LIBCMTD:delete_scalar.obj
 0001:0002a630       ___raise_securityfailure   1002b630 f   LIBCMTD:gs_report.obj
 0001:0002a660       ___report_gsfailure        1002b660 f   LIBCMTD:gs_report.obj
 0001:0002a770       ___report_rangecheckfailure 1002b770 f   LIBCMTD:gs_report.obj
 0001:0002a780       ___report_securityfailure  1002b780 f   LIBCMTD:gs_report.obj
 0001:0002a860       ___report_securityfailureEx 1002b860 f   LIBCMTD:gs_report.obj
 0001:0002aab0       __Init_thread_abort        1002bab0 f   LIBCMTD:thread_safe_statics.obj
 0001:0002aad0       __Init_thread_footer       1002bad0 f   LIBCMTD:thread_safe_statics.obj
 0001:0002ab20       __Init_thread_header       1002bb20 f   LIBCMTD:thread_safe_statics.obj
 0001:0002ab90       __Init_thread_lock         1002bb90 f   LIBCMTD:thread_safe_statics.obj
 0001:0002aba0       __Init_thread_notify       1002bba0 f   LIBCMTD:thread_safe_statics.obj
 0001:0002abf0       __Init_thread_unlock       1002bbf0 f   LIBCMTD:thread_safe_statics.obj
 0001:0002ac00       __Init_thread_wait         1002bc00 f   LIBCMTD:thread_safe_statics.obj
 0001:0002ac90       ??2@YAPAXIABUnothrow_t@std@@@Z 1002bc90 f   LIBCMTD:new_scalar_nothrow.obj
 0001:0002ad20       ??_U@YAPAXIABUnothrow_t@std@@@Z 1002bd20 f   LIBCMTD:new_array_nothrow.obj
 0001:0002ad40       __allmul                   1002bd40 f   LIBCMTD:llmul.obj
 0001:0002ad80       __alloca_probe_16          1002bd80 f   LIBCMTD:alloca16.obj
 0001:0002ad96       __alloca_probe_8           1002bd96     LIBCMTD:alloca16.obj
 0001:0002adb0       __chkstk                   1002bdb0 f   LIBCMTD:chkstk.obj
 0001:0002adb0       __alloca_probe             1002bdb0 f   LIBCMTD:chkstk.obj
 0001:0002b2b0       __CRT_INIT@12              1002c2b0 f   LIBCMTD:dll_dllmain.obj
 0001:0002b2d0       __DllMainCRTStartup@12     1002c2d0 f   LIBCMTD:dll_dllmain.obj
 0001:0002b390       ?_RTC_AllocaFailure@@YAXPAXPAU_RTC_ALLOCA_NODE@@H@Z 1002c390 f   LIBCMTD:error.obj
 0001:0002b480       ?_RTC_Failure@@YAXPAXH@Z   1002c480 f   LIBCMTD:error.obj
 0001:0002b4d0       ?_RTC_StackFailure@@YAXPAXPBD@Z 1002c4d0 f   LIBCMTD:error.obj
 0001:0002b890       __RTC_UninitUse            1002c890 f   LIBCMTD:error.obj
 0001:0002b940       __vsprintf_s_l             1002c940 f i LIBCMTD:error.obj
 0001:0002b970       _sprintf_s                 1002c970 f i LIBCMTD:error.obj
 0001:0002b990       ?_RTC_GetErrorFunc@@YAP6AHHPBDH00ZZPBX@Z 1002c990 f   LIBCMTD:userapi.obj
 0001:0002b9a0       ?_RTC_GetErrorFuncW@@YAP6AHHPB_WH00ZZPBX@Z 1002c9a0 f   LIBCMTD:userapi.obj
 0001:0002b9b0       __RTC_GetErrDesc           1002c9b0 f   LIBCMTD:userapi.obj
 0001:0002b9d0       __RTC_NumErrors            1002c9d0 f   LIBCMTD:userapi.obj
 0001:0002b9e0       __RTC_SetErrorFunc         1002c9e0 f   LIBCMTD:userapi.obj
 0001:0002ba00       __RTC_SetErrorFuncW        1002ca00 f   LIBCMTD:userapi.obj
 0001:0002ba20       __RTC_SetErrorType         1002ca20 f   LIBCMTD:userapi.obj
 0001:0002ba50       ??2@YAPAXI@Z               1002ca50 f   LIBCMTD:new_scalar.obj
 0001:0002baa0       ___isa_available_init      1002caa0 f   LIBCMTD:cpu_disp.obj
 0001:0002bde0       __get_startup_argv_mode    1002cde0 f   LIBCMTD:argv_mode.obj
 0001:0002bdf0       ___scrt_is_ucrt_dll_in_use 1002cdf0 f   LIBCMTD:ucrt_detection.obj
 0001:0002be20       ___scrt_fastfail           1002ce20 f   LIBCMTD:utility_desktop.obj
 0001:0002bf60       ___scrt_get_show_window_mode 1002cf60 f   LIBCMTD:utility_desktop.obj
 0001:0002bfa0       ___scrt_initialize_mta     1002cfa0 f   LIBCMTD:utility_desktop.obj
 0001:0002bfb0       ___scrt_initialize_winrt   1002cfb0 f   LIBCMTD:utility_desktop.obj
 0001:0002bfc0       ___scrt_is_managed_app     1002cfc0 f   LIBCMTD:utility_desktop.obj
 0001:0002c050       ___scrt_set_unhandled_exception_filter 1002d050 f   LIBCMTD:utility_desktop.obj
 0001:0002c060       ___scrt_stub_for_initialize_mta 1002d060 f   LIBCMTD:utility_desktop.obj
 0001:0002c060       ___scrt_exe_initialize_mta 1002d060 f   LIBCMTD:utility_desktop.obj
 0001:0002c070       ___scrt_unhandled_exception_filter@4 1002d070 f   LIBCMTD:utility_desktop.obj
 0001:0002c0f0       __crt_debugger_hook        1002d0f0 f   LIBCMTD:utility_desktop.obj
 0001:0002c100       @_guard_check_icall_nop@4  1002d100 f i LIBCMTD:guard_support.obj
 0001:0002c110       _ReadNoFence               1002d110 f i LIBCMTD:guard_support.obj
 0001:0002c130       _ReadPointerNoFence        1002d130 f i LIBCMTD:guard_support.obj
 0001:0002c150       ___castguard_check_failure_debugbreak 1002d150 f i LIBCMTD:guard_support.obj
 0001:0002c170       ___castguard_check_failure_fastfail 1002d170 f i LIBCMTD:guard_support.obj
 0001:0002c190       ___castguard_check_failure_nop 1002d190 f i LIBCMTD:guard_support.obj
 0001:0002c1a0       ___castguard_check_failure_os_handled 1002d1a0 f i LIBCMTD:guard_support.obj
 0001:0002c220       ___castguard_slow_path_check_debugbreak 1002d220 f i LIBCMTD:guard_support.obj
 0001:0002c250       ___castguard_slow_path_check_fastfail 1002d250 f i LIBCMTD:guard_support.obj
 0001:0002c290       ___castguard_slow_path_check_nop 1002d290 f i LIBCMTD:guard_support.obj
 0001:0002c2a0       ___castguard_slow_path_check_os_handled 1002d2a0 f i LIBCMTD:guard_support.obj
 0001:0002c340       __guard_icall_checks_enforced 1002d340 f i LIBCMTD:guard_support.obj
 0001:0002c3e0       ___security_init_cookie    1002d3e0 f   LIBCMTD:gs_support.obj
 0001:0002c460       ?__scrt_initialize_type_info@@YAXXZ 1002d460 f   LIBCMTD:tncleanup.obj
 0001:0002c470       ?__scrt_uninitialize_type_info@@YAXXZ 1002d470 f   LIBCMTD:tncleanup.obj
 0001:0002c490       ___local_stdio_scanf_options 1002d490 f i LIBCMTD:default_local_stdio_options.obj
 0001:0002c4a0       ___scrt_initialize_default_local_stdio_options 1002d4a0 f   LIBCMTD:default_local_stdio_options.obj
 0001:0002c4e0       ___scrt_get_dyn_tls_init_callback 1002d4e0 f   LIBCMTD:dyn_tls_init.obj
 0001:0002c4f0       __RTC_Initialize           1002d4f0 f   LIBCMTD:initsect.obj
 0001:0002c520       __RTC_Terminate            1002d520 f   LIBCMTD:initsect.obj
 0001:0002c9d0       ?_RTC_GetSrcLine@@YAHPAEPA_WKPAH1K@Z 1002d9d0 f   LIBCMTD:pdblkup.obj
 0001:0002cd50       __except_handler4_noexcept 1002dd50 f   LIBCMTD:chandler4_noexcept.obj
 0001:0002cdb0       ??0bad_alloc@std@@AAE@QBD@Z 1002ddb0 f i LIBCMTD:throw_bad_alloc.obj
 0001:0002cde0       ??0bad_alloc@std@@QAE@ABV01@@Z 1002dde0 f i LIBCMTD:throw_bad_alloc.obj
 0001:0002ce10       ??0bad_alloc@std@@QAE@XZ   1002de10 f i LIBCMTD:throw_bad_alloc.obj
 0001:0002ce40       ??0bad_array_new_length@std@@QAE@ABV01@@Z 1002de40 f i LIBCMTD:throw_bad_alloc.obj
 0001:0002ce70       ??0bad_array_new_length@std@@QAE@XZ 1002de70 f i LIBCMTD:throw_bad_alloc.obj
 0001:0002cea0       ??0exception@std@@QAE@ABV01@@Z 1002dea0 f i LIBCMTD:throw_bad_alloc.obj
 0001:0002cee0       ??0exception@std@@QAE@QBDH@Z 1002dee0 f i LIBCMTD:throw_bad_alloc.obj
 0001:0002cf10       ??1bad_alloc@std@@UAE@XZ   1002df10 f i LIBCMTD:throw_bad_alloc.obj
 0001:0002cf30       ??1bad_array_new_length@std@@UAE@XZ 1002df30 f i LIBCMTD:throw_bad_alloc.obj
 0001:0002cf50       ??1exception@std@@UAE@XZ   1002df50 f i LIBCMTD:throw_bad_alloc.obj
 0001:0002cf80       ??_Gbad_alloc@std@@UAEPAXI@Z 1002df80 f i LIBCMTD:throw_bad_alloc.obj
 0001:0002cf80       ??_Ebad_alloc@std@@UAEPAXI@Z 1002df80 f i LIBCMTD:throw_bad_alloc.obj
 0001:0002cfb0       ??_Gbad_array_new_length@std@@UAEPAXI@Z 1002dfb0 f i LIBCMTD:throw_bad_alloc.obj
 0001:0002cfb0       ??_Ebad_array_new_length@std@@UAEPAXI@Z 1002dfb0 f i LIBCMTD:throw_bad_alloc.obj
 0001:0002cfe0       ??_Gexception@std@@UAEPAXI@Z 1002dfe0 f i LIBCMTD:throw_bad_alloc.obj
 0001:0002cfe0       ??_Eexception@std@@UAEPAXI@Z 1002dfe0 f i LIBCMTD:throw_bad_alloc.obj
 0001:0002d010       ?__scrt_throw_std_bad_alloc@@YAXXZ 1002e010 f   LIBCMTD:throw_bad_alloc.obj
 0001:0002d030       ?__scrt_throw_std_bad_array_new_length@@YAXXZ 1002e030 f   LIBCMTD:throw_bad_alloc.obj
 0001:0002d050       ?what@exception@std@@UBEPBDXZ 1002e050 f i LIBCMTD:throw_bad_alloc.obj
 0001:0002d080       ??1type_info@@UAE@XZ       1002e080 f   LIBCMTD:std_type_info_static.obj
 0001:0002d0a0       ??_Etype_info@@UAEPAXI@Z   1002e0a0 f i LIBCMTD:std_type_info_static.obj
 0001:0002d0a0       ??_Gtype_info@@UAEPAXI@Z   1002e0a0 f i LIBCMTD:std_type_info_static.obj
 0001:0002d0ce       ??$?2PAUHINSTANCE__@@@Wrapper@?$CSimpleArray@PAUHINSTANCE__@@V?$CSimpleArrayEqualHelper@PAUHINSTANCE__@@@ATL@@@ATL@@SAPAXIPAPAUHINSTANCE__@@@Z 1002e0ce f i atls:atlbase.obj
 0001:0002d0d6       ??0?$CSimpleArray@PAUHINSTANCE__@@V?$CSimpleArrayEqualHelper@PAUHINSTANCE__@@@ATL@@@ATL@@QAE@XZ 1002e0d6 f i atls:atlbase.obj
 0001:0002d0e3       ??0CAtlBaseModule@ATL@@QAE@XZ 1002e0e3 f   atls:atlbase.obj
 0001:0002d136       ??0Wrapper@?$CSimpleArray@PAUHINSTANCE__@@V?$CSimpleArrayEqualHelper@PAUHINSTANCE__@@@ATL@@@ATL@@QAE@ABQAUHINSTANCE__@@@Z 1002e136 f i atls:atlbase.obj
 0001:0002d146       ??0_ATL_BASE_MODULE70@ATL@@QAE@XZ 1002e146 f i atls:atlbase.obj
 0001:0002d169       ??1?$CSimpleArray@PAUHINSTANCE__@@V?$CSimpleArrayEqualHelper@PAUHINSTANCE__@@@ATL@@@ATL@@QAE@XZ 1002e169 f i atls:atlbase.obj
 0001:0002d16e       ??1CAtlBaseModule@ATL@@QAE@XZ 1002e16e f   atls:atlbase.obj
 0001:0002d184       ??1_ATL_BASE_MODULE70@ATL@@QAE@XZ 1002e184 f i atls:atlbase.obj
 0001:0002d18c       ??A?$CSimpleArray@PAUHINSTANCE__@@V?$CSimpleArrayEqualHelper@PAUHINSTANCE__@@@ATL@@@ATL@@QAEAAPAUHINSTANCE__@@H@Z 1002e18c f i atls:atlbase.obj
 0001:0002d1b1       ?Add@?$CSimpleArray@PAUHINSTANCE__@@V?$CSimpleArrayEqualHelper@PAUHINSTANCE__@@@ATL@@@ATL@@QAEHABQAUHINSTANCE__@@@Z 1002e1b1 f i atls:atlbase.obj
 0001:0002d233       ?AddResourceInstance@CAtlBaseModule@ATL@@QAE_NPAUHINSTANCE__@@@Z 1002e233 f   atls:atlbase.obj
 0001:0002d266       ?GetHInstanceAt@CAtlBaseModule@ATL@@QAEPAUHINSTANCE__@@H@Z 1002e266 f   atls:atlbase.obj
 0001:0002d2ab       ?GetSize@?$CSimpleArray@PAUHINSTANCE__@@V?$CSimpleArrayEqualHelper@PAUHINSTANCE__@@@ATL@@@ATL@@QBEHXZ 1002e2ab f i atls:atlbase.obj
 0001:0002d2af       ?InternalSetAtIndex@?$CSimpleArray@PAUHINSTANCE__@@V?$CSimpleArrayEqualHelper@PAUHINSTANCE__@@@ATL@@@ATL@@QAEXHABQAUHINSTANCE__@@@Z 1002e2af f i atls:atlbase.obj
 0001:0002d2c9       ?RemoveAll@?$CSimpleArray@PAUHINSTANCE__@@V?$CSimpleArrayEqualHelper@PAUHINSTANCE__@@@ATL@@@ATL@@QAEXXZ 1002e2c9 f i atls:atlbase.obj
 0001:0002d2e6       ?RemoveAt@?$CSimpleArray@PAUHINSTANCE__@@V?$CSimpleArrayEqualHelper@PAUHINSTANCE__@@@ATL@@@ATL@@QAEHH@Z 1002e2e6 f i atls:atlbase.obj
 0001:0002d334       ?RemoveResourceInstance@CAtlBaseModule@ATL@@QAE_NPAUHINSTANCE__@@@Z 1002e334 f   atls:atlbase.obj
 0001:0002d391       ?memmove_s@Checked@ATL@@YAXPAXIPBXI@Z 1002e391 f i atls:atlbase.obj
 0001:0002d6ee       ?GetCodeAddress@_stdcallthunk@ATL@@QAEPAXXZ 1002e6ee f i atls:atlthunk.obj
 0001:0002d718       ?Init@_stdcallthunk@ATL@@QAEHKPAX@Z 1002e718 f i atls:atlthunk.obj
 0001:0002d74d       ?__AllocStdCallThunk@@YGPAXXZ 1002e74d f   atls:atlthunk.obj
 0001:0002d752       ?__AllocStdCallThunk@ATL@@YGPAXXZ 1002e752 f   atls:atlthunk.obj
 0001:0002d757       ?__AllocStdCallThunk_cmn@@YAPAXXZ 1002e757 f   atls:atlthunk.obj
 0001:0002d81d       ?__FreeStdCallThunk@@YGXPAX@Z 1002e81d f   atls:atlthunk.obj
 0001:0002d82d       ?__FreeStdCallThunk@ATL@@YGXPAX@Z 1002e82d f   atls:atlthunk.obj
 0001:0002d83d       ?__FreeStdCallThunk_cmn@@YAXPAX@Z 1002e83d f   atls:atlthunk.obj
 0001:0002d8d8       _AtlThunk_AllocateData@0   1002e8d8 f   atls:atlthunk.obj
 0001:0002d93d       _AtlThunk_DataToCode@4     1002e93d f   atls:atlthunk.obj
 0001:0002d984       _AtlThunk_FreeData@4       1002e984 f   atls:atlthunk.obj
 0001:0002d9da       _AtlThunk_InitData@12      1002e9da f   atls:atlthunk.obj
 0001:0002da29       _MemoryBarrier             1002ea29 f i atls:atlthunk.obj
 0001:0002da37       __InlineInterlockedCompareExchangePointer 1002ea37 f i atls:atlthunk.obj
 0001:0002da50       _memset                    1002ea50 f   libvcruntimed:memset.obj
 0001:0002dbb0       ??$__crt_interlocked_exchange_pointer@$$A6AXXZP6AXXZ@@YAP6AXXZPDS6AXXZQ6AXXZ@Z 1002ebb0 f i libvcruntimed:purevirt.obj
 0001:0002dbc0       ??$__crt_interlocked_read_pointer@$$A6AXXZ@@YAP6AXXZPDS6AXXZ@Z 1002ebc0 f i libvcruntimed:purevirt.obj
 0001:0002dbe0       ?__crt_interlocked_read_32@@YAHPDH@Z 1002ebe0 f i libvcruntimed:purevirt.obj
 0001:0002dc00       __get_purecall_handler     1002ec00 f   libvcruntimed:purevirt.obj
 0001:0002dc20       __purecall                 1002ec20 f   libvcruntimed:purevirt.obj
 0001:0002dc50       __set_purecall_handler     1002ec50 f   libvcruntimed:purevirt.obj
 0001:0002de20       _memcmp                    1002ee20 f   libvcruntimed:memcmp.obj
 0001:0002e6f0       _memcpy                    1002f6f0 f   libvcruntimed:memcpy.obj
 0001:0002ec70       _wcsstr                    1002fc70 f   libvcruntimed:wcsstr.obj
 0001:0002f1a0       __except_handler4          100301a0 f   libvcruntimed:chandler4.obj
 0001:0002f390       ___vcrt_initialize         10030390 f   libvcruntimed:initialization.obj
 0001:0002f3d0       ___vcrt_thread_attach      100303d0 f   libvcruntimed:initialization.obj
 0001:0002f3f0       ___vcrt_thread_detach      100303f0 f   libvcruntimed:initialization.obj
 0001:0002f410       ___vcrt_uninitialize       10030410 f   libvcruntimed:initialization.obj
 0001:0002f430       ___vcrt_uninitialize_critical 10030430 f   libvcruntimed:initialization.obj
 0001:0002f450       ??$?0AAViterator@TryBlockMap@__FrameHandler3@@AAV012@$0A@@?$pair@Viterator@TryBlockMap@__FrameHandler3@@V123@@std@@QAE@AAViterator@TryBlockMap@__FrameHandler3@@0@Z 10030450 f i libvcruntimed:trnsctrl.obj
 0001:0002f4a0       ??$forward@AAViterator@TryBlockMap@__FrameHandler3@@@std@@YAAAViterator@TryBlockMap@__FrameHandler3@@AAV123@@Z 100304a0 f i libvcruntimed:trnsctrl.obj
 0001:0002f4b0       ??0iterator@TryBlockMap@__FrameHandler3@@QAE@AAV12@I@Z 100304b0 f i libvcruntimed:trnsctrl.obj
 0001:0002f4e0       ?GetRangeOfTrysToCheck@__FrameHandler3@@SA?AU?$pair@Viterator@TryBlockMap@__FrameHandler3@@V123@@std@@AAVTryBlockMap@1@HPAXPBU_s_FuncInfo@@H@Z 100304e0 f   libvcruntimed:trnsctrl.obj
 0001:0002f5c0       ?_CallCatchBlock2@@YAPAXPAUEHRegistrationNode@@PBU_s_FuncInfo@@PAXHK@Z 100305c0 f   libvcruntimed:trnsctrl.obj
 0001:0002f630       ?_CallSETranslator@@YAHPAUEHExceptionRecord@@PAUEHRegistrationNode@@PAX2PBU_s_FuncInfo@@H1@Z 10030630 f   libvcruntimed:trnsctrl.obj
 0001:0002f730       ?_JumpToContinuation@@YGXPAXPAUEHRegistrationNode@@@Z 10030730 f   libvcruntimed:trnsctrl.obj
 0001:0002f770       ?_UnwindNestedFrames@@YGXPAUEHRegistrationNode@@PAUEHExceptionRecord@@@Z 10030770 f   libvcruntimed:trnsctrl.obj
 0001:0002f7d0       __CatchGuardHandler        100307d0 f   libvcruntimed:trnsctrl.obj
 0001:0002f820       __CreateFrameInfo          10030820 f   libvcruntimed:trnsctrl.obj
 0001:0002f850       __FindAndUnlinkFrame       10030850 f   libvcruntimed:trnsctrl.obj
 0001:0002f8c0       __TranslatorGuardHandler   100308c0 f   libvcruntimed:trnsctrl.obj
 0001:0002f970       ___CxxFrameHandler         10030970 f   libvcruntimed:trnsctrl.obj
 0001:0002f9b0       ___CxxFrameHandler2        100309b0 f   libvcruntimed:trnsctrl.obj
 0001:0002f9f0       ___CxxFrameHandler3        100309f0 f   libvcruntimed:trnsctrl.obj
 0001:0002fa30       ___CxxLongjmpUnwind@4      10030a30 f   libvcruntimed:trnsctrl.obj
 0001:0002fa70       ___DestructExceptionObject 10030a70 f   libvcruntimed:ehhelpers.obj
 0001:0002fb90       ?_CallMemberFunction0@@YGXQAX0@Z 10030b90 f i libvcruntimed:ehhelpers.obj
 0001:0002fc30       ?raw_name@type_info@@QBEPBDXZ 10030c30 f i libvcruntimed:ehhelpers.obj
 0001:0002fc50       __IsExceptionObjectToBeDestroyed 10030c50 f   libvcruntimed:ehhelpers.obj
 0001:0002fc90       __SetWinRTOutOfMemoryExceptionCallback 10030c90 f   libvcruntimed:ehhelpers.obj
 0001:0002fca0       ___AdjustPointer           10030ca0 f   libvcruntimed:ehhelpers.obj
 0001:0002fcf0       ___FrameUnwindFilter       10030cf0 f   libvcruntimed:ehhelpers.obj
 0001:0002fd80       ___GetPlatformExceptionInfo 10030d80 f   libvcruntimed:ehhelpers.obj
 0001:0002fe00       ___current_exception       10030e00 f   libvcruntimed:ehhelpers.obj
 0001:0002fe10       ___current_exception_context 10030e10 f   libvcruntimed:ehhelpers.obj
 0001:0002fe20       ___processing_throw        10030e20 f   libvcruntimed:ehhelpers.obj
 0001:0002fe30       ___std_terminate           10030e30 f   libvcruntimed:ehhelpers.obj
 0001:0002fe40       __is_exception_typeof      10030e40 f   libvcruntimed:ehhelpers.obj
 0001:0002ff40       ??$?RD@__crt_internal_free_policy@@QBEXQBD@Z 10030f40 f i libvcruntimed:std_type_info.obj
 0001:0002ff60       ??$?RX@__crt_internal_free_policy@@QBEXQBX@Z 10030f60 f i libvcruntimed:std_type_info.obj
 0001:0002ff80       ??$__crt_interlocked_compare_exchange_pointer@$$CBDPAD$$T@@YAPBDPDSBDQAD$$T@Z 10030f80 f i libvcruntimed:std_type_info.obj
 0001:0002ffa0       ??$__crt_interlocked_read_pointer@$$CBD@@YAPBDPDSBD@Z 10030fa0 f i libvcruntimed:std_type_info.obj
 0001:0002ffc0       ??0?$__crt_unique_heap_ptr@DU__crt_internal_free_policy@@@@QAE@QAD@Z 10030fc0 f i libvcruntimed:std_type_info.obj
 0001:0002ffe0       ??0?$__crt_unique_heap_ptr@XU__crt_internal_free_policy@@@@QAE@QAX@Z 10030fe0 f i libvcruntimed:std_type_info.obj
 0001:00030000       ??1?$__crt_unique_heap_ptr@DU__crt_internal_free_policy@@@@QAE@XZ 10031000 f i libvcruntimed:std_type_info.obj
 0001:00030020       ??1?$__crt_unique_heap_ptr@XU__crt_internal_free_policy@@@@QAE@XZ 10031020 f i libvcruntimed:std_type_info.obj
 0001:00030040       ??B?$__crt_unique_heap_ptr@DU__crt_internal_free_policy@@@@QBE_NXZ 10031040 f i libvcruntimed:std_type_info.obj
 0001:00030060       ??B?$__crt_unique_heap_ptr@XU__crt_internal_free_policy@@@@QBE_NXZ 10031060 f i libvcruntimed:std_type_info.obj
 0001:000300f0       ?detach@?$__crt_unique_heap_ptr@XU__crt_internal_free_policy@@@@QAEPAXXZ 100310f0 f i libvcruntimed:std_type_info.obj
 0001:00030120       ?get@?$__crt_unique_heap_ptr@DU__crt_internal_free_policy@@@@QBEPADXZ 10031120 f i libvcruntimed:std_type_info.obj
 0001:00030130       ?get@?$__crt_unique_heap_ptr@XU__crt_internal_free_policy@@@@QBEPAXXZ 10031130 f i libvcruntimed:std_type_info.obj
 0001:00030140       ?is_valid@?$__crt_unique_heap_ptr@DU__crt_internal_free_policy@@@@QBE_NXZ 10031140 f i libvcruntimed:std_type_info.obj
 0001:00030170       ?is_valid@?$__crt_unique_heap_ptr@XU__crt_internal_free_policy@@@@QBE_NXZ 10031170 f i libvcruntimed:std_type_info.obj
 0001:000301a0       ?release@?$__crt_unique_heap_ptr@DU__crt_internal_free_policy@@@@QAEXXZ 100311a0 f i libvcruntimed:std_type_info.obj
 0001:000301d0       ?release@?$__crt_unique_heap_ptr@XU__crt_internal_free_policy@@@@QAEXXZ 100311d0 f i libvcruntimed:std_type_info.obj
 0001:00030200       ___std_type_info_compare   10031200 f   libvcruntimed:std_type_info.obj
 0001:00030230       ___std_type_info_destroy_list 10031230 f   libvcruntimed:std_type_info.obj
 0001:00030270       ___std_type_info_hash      10031270 f   libvcruntimed:std_type_info.obj
 0001:000302d0       ___std_type_info_name      100312d0 f   libvcruntimed:std_type_info.obj
 0001:000304b0       ___vcrt_GetModuleFileNameW 100314b0 f   libvcruntimed:winapi_thunks.obj
 0001:000304d0       ___vcrt_GetModuleHandleW   100314d0 f   libvcruntimed:winapi_thunks.obj
 0001:000304e0       ___vcrt_LoadLibraryExW     100314e0 f   libvcruntimed:winapi_thunks.obj
 0001:00030500       ??$?RD@__crt_public_free_policy@@QBEXQBD@Z 10031500 f i libvcruntimed:std_exception.obj
 0001:00030520       ??0?$__crt_unique_heap_ptr@DU__crt_public_free_policy@@@@QAE@QAD@Z 10031520 f i libvcruntimed:std_exception.obj
 0001:00030540       ??1?$__crt_unique_heap_ptr@DU__crt_public_free_policy@@@@QAE@XZ 10031540 f i libvcruntimed:std_exception.obj
 0001:00030560       ??B?$__crt_unique_heap_ptr@DU__crt_public_free_policy@@@@QBE_NXZ 10031560 f i libvcruntimed:std_exception.obj
 0001:00030580       ?detach@?$__crt_unique_heap_ptr@DU__crt_public_free_policy@@@@QAEPADXZ 10031580 f i libvcruntimed:std_exception.obj
 0001:000305b0       ?get@?$__crt_unique_heap_ptr@DU__crt_public_free_policy@@@@QBEPADXZ 100315b0 f i libvcruntimed:std_exception.obj
 0001:000305c0       ?is_valid@?$__crt_unique_heap_ptr@DU__crt_public_free_policy@@@@QBE_NXZ 100315c0 f i libvcruntimed:std_exception.obj
 0001:000305f0       ?release@?$__crt_unique_heap_ptr@DU__crt_public_free_policy@@@@QAEXXZ 100315f0 f i libvcruntimed:std_exception.obj
 0001:00030620       ___std_exception_copy      10031620 f   libvcruntimed:std_exception.obj
 0001:00030710       ___std_exception_destroy   10031710 f   libvcruntimed:std_exception.obj
 0001:00030740       __CxxThrowException@8      10031740 f   libvcruntimed:throw.obj
 0001:000307f0       _memmove                   100317f0 f   libvcruntimed:memmove.obj
 0001:00030d70       __local_unwind4            10031d70 f   libvcruntimed:exsup4.obj
 0001:00030e44       __seh_longjmp_unwind4@4    10031e44 f   libvcruntimed:exsup4.obj
 0001:00030e6c       @_EH4_CallFilterFunc@8     10031e6c f   libvcruntimed:exsup4.obj
 0001:00030e84       @_EH4_TransferToHandler@8  10031e84 f   libvcruntimed:exsup4.obj
 0001:00030ea0       @_EH4_GlobalUnwind2@8      10031ea0 f   libvcruntimed:exsup4.obj
 0001:00030ebc       @_EH4_LocalUnwind@16       10031ebc f   libvcruntimed:exsup4.obj
 0001:00030ef0       ___except_validate_context_record 10031ef0 f   libvcruntimed:jbcxrval.obj
 0001:00030f40       ___except_validate_jump_buffer 10031f40 f   libvcruntimed:jbcxrval.obj
 0001:00030f60       ___except_validate_jump_buffer_common 10031f60 f i libvcruntimed:jbcxrval.obj
 0001:00030fc0       ??$?RU__vcrt_ptd@@@__crt_internal_free_policy@@QBEXQBU__vcrt_ptd@@@Z 10031fc0 f i libvcruntimed:per_thread_data.obj
 0001:00030fe0       ??0?$__crt_unique_heap_ptr@U__vcrt_ptd@@U__crt_internal_free_policy@@@@QAE@QAU__vcrt_ptd@@@Z 10031fe0 f i libvcruntimed:per_thread_data.obj
 0001:00031020       ??1?$__crt_unique_heap_ptr@U__vcrt_ptd@@U__crt_internal_free_policy@@@@QAE@XZ 10032020 f i libvcruntimed:per_thread_data.obj
 0001:00031060       ??B?$__crt_unique_heap_ptr@U__vcrt_ptd@@U__crt_internal_free_policy@@@@QBE_NXZ 10032060 f i libvcruntimed:per_thread_data.obj
 0001:00031080       ?detach@?$__crt_unique_heap_ptr@U__vcrt_ptd@@U__crt_internal_free_policy@@@@QAEPAU__vcrt_ptd@@XZ 10032080 f i libvcruntimed:per_thread_data.obj
 0001:000310b0       ?get@?$__crt_unique_heap_ptr@U__vcrt_ptd@@U__crt_internal_free_policy@@@@QBEPAU__vcrt_ptd@@XZ 100320b0 f i libvcruntimed:per_thread_data.obj
 0001:000310c0       ?is_valid@?$__crt_unique_heap_ptr@U__vcrt_ptd@@U__crt_internal_free_policy@@@@QBE_NXZ 100320c0 f i libvcruntimed:per_thread_data.obj
 0001:000310f0       ?release@?$__crt_unique_heap_ptr@U__vcrt_ptd@@U__crt_internal_free_policy@@@@QAEXXZ 100320f0 f i libvcruntimed:per_thread_data.obj
 0001:00031150       ___vcrt_freefls@4          10032150 f   libvcruntimed:per_thread_data.obj
 0001:00031180       ___vcrt_freeptd            10032180 f   libvcruntimed:per_thread_data.obj
 0001:000311e0       ___vcrt_getptd             100321e0 f   libvcruntimed:per_thread_data.obj
 0001:00031200       ___vcrt_getptd_noexit      10032200 f   libvcruntimed:per_thread_data.obj
 0001:00031360       ___vcrt_getptd_noinit      10032360 f   libvcruntimed:per_thread_data.obj
 0001:000313c0       ___vcrt_initialize_ptd     100323c0 f   libvcruntimed:per_thread_data.obj
 0001:00031410       ___vcrt_uninitialize_ptd   10032410 f   libvcruntimed:per_thread_data.obj
 0001:00031440       ___vcrt_initialize_locks   10032440 f   libvcruntimed:locks.obj
 0001:000314a0       ___vcrt_lock               100324a0 f   libvcruntimed:locks.obj
 0001:000314c0       ___vcrt_uninitialize_locks 100324c0 f   libvcruntimed:locks.obj
 0001:00031510       ___vcrt_unlock             10032510 f   libvcruntimed:locks.obj
 0001:000320a0       ??$TypeMatchHelper@V__FrameHandler3@@@@YAHPBU_s_HandlerType@@PBU_s_CatchableType@@PBU_s_ThrowInfo@@@Z 100330a0 f i libvcruntimed:frame.obj
 0001:00032180       ??$__InternalCxxFrameHandler@V__FrameHandler3@@@@YA?AW4_EXCEPTION_DISPOSITION@@PAUEHExceptionRecord@@PAUEHRegistrationNode@@PAU_CONTEXT@@PAXPBU_s_FuncInfo@@H1E@Z 10033180 f i libvcruntimed:frame.obj
 0001:00032340       ??0HandlerMap@__FrameHandler3@@QAE@PBU_s_TryBlockMapEntry@@II@Z 10033340 f i libvcruntimed:frame.obj
 0001:00032370       ??0TryBlockMap@__FrameHandler3@@QAE@PBU_s_FuncInfo@@I@Z 10033370 f i libvcruntimed:frame.obj
 0001:000323a0       ??0bad_exception@std@@QAE@ABV01@@Z 100333a0 f i libvcruntimed:frame.obj
 0001:000323d0       ??0bad_exception@std@@QAE@XZ 100333d0 f i libvcruntimed:frame.obj
 0001:00032400       ??0iterator@HandlerMap@__FrameHandler3@@QAE@AAV12@I@Z 10033400 f i libvcruntimed:frame.obj
 0001:00032430       ??1bad_exception@std@@UAE@XZ 10033430 f i libvcruntimed:frame.obj
 0001:00032450       ??8iterator@HandlerMap@__FrameHandler3@@QBE_NABV012@@Z 10033450 f i libvcruntimed:frame.obj
 0001:00032480       ??8type_info@@QBE_NABV0@@Z 10033480 f i libvcruntimed:frame.obj
 0001:000324c0       ??9iterator@HandlerMap@__FrameHandler3@@QBE_NABV012@@Z 100334c0 f i libvcruntimed:frame.obj
 0001:00032500       ??Diterator@HandlerMap@__FrameHandler3@@QAE?BU_s_HandlerType@@XZ 10033500 f i libvcruntimed:frame.obj
 0001:00032540       ??Diterator@TryBlockMap@__FrameHandler3@@QAE?BU_s_TryBlockMapEntry@@XZ 10033540 f i libvcruntimed:frame.obj
 0001:00032590       ??Eiterator@HandlerMap@__FrameHandler3@@QAEAAV012@XZ 10033590 f i libvcruntimed:frame.obj
 0001:000325b0       ??Eiterator@TryBlockMap@__FrameHandler3@@QAEAAV012@XZ 100335b0 f i libvcruntimed:frame.obj
 0001:000325d0       ??Miterator@TryBlockMap@__FrameHandler3@@QBE_NABV012@@Z 100335d0 f i libvcruntimed:frame.obj
 0001:00032600       ??_Ebad_exception@std@@UAEPAXI@Z 10033600 f i libvcruntimed:frame.obj
 0001:00032600       ??_Gbad_exception@std@@UAEPAXI@Z 10033600 f i libvcruntimed:frame.obj
 0001:00032630       ?BuildCatchObject@__FrameHandler3@@SAXPAUEHExceptionRecord@@PAXPBU_s_HandlerType@@PBU_s_CatchableType@@@Z 10033630 f   libvcruntimed:frame.obj
 0001:00032650       ?BuildCatchObjectHelper@__FrameHandler3@@SAHPAUEHExceptionRecord@@PAXPBU_s_HandlerType@@PBU_s_CatchableType@@@Z 10033650 f   libvcruntimed:frame.obj
 0001:000329f0       ?FrameUnwindToEmptyState@__FrameHandler3@@SAXPAUEHRegistrationNode@@PAXPBU_s_FuncInfo@@@Z 100339f0 f   libvcruntimed:frame.obj
 0001:00032a10       ?FrameUnwindToState@__FrameHandler3@@SAXPAUEHRegistrationNode@@PAXPBU_s_FuncInfo@@H@Z 10033a10 f   libvcruntimed:frame.obj
 0001:00032b90       ?GetMaxState@__FrameHandler3@@SAHPAXPBU_s_FuncInfo@@@Z 10033b90 f i libvcruntimed:frame.obj
 0001:00032cb0       ?TypeMatch@__FrameHandler3@@SAHPBU_s_HandlerType@@PBU_s_CatchableType@@PBU_s_ThrowInfo@@@Z 10033cb0 f   libvcruntimed:frame.obj
 0001:00032cd0       ?_CallMemberFunction1@@YGXQAX00@Z 10033cd0 f i libvcruntimed:frame.obj
 0001:00032d00       ?_CallMemberFunction2@@YGXQAX00H@Z 10033d00 f i libvcruntimed:frame.obj
 0001:00032d30       ?begin@HandlerMap@__FrameHandler3@@QAE?AViterator@12@XZ 10033d30 f i libvcruntimed:frame.obj
 0001:00032d50       ?end@HandlerMap@__FrameHandler3@@QAE?AViterator@12@XZ 10033d50 f i libvcruntimed:frame.obj
 0001:00032d80       ?getESTypes@__FrameHandler3@@SAPBU_s_ESTypeList@@PBU_s_FuncInfo@@@Z 10033d80 f i libvcruntimed:frame.obj
 0001:00032d90       ?getLastEntry@HandlerMap@__FrameHandler3@@QAEPBU_s_HandlerType@@XZ 10033d90 f i libvcruntimed:frame.obj
 0001:00032db0       ?getMagicNum@__FrameHandler3@@SAIPBU_s_FuncInfo@@@Z 10033db0 f i libvcruntimed:frame.obj
 0001:00032dc0       ?getNumTryBlocks@TryBlockMap@__FrameHandler3@@QAEIXZ 10033dc0 f i libvcruntimed:frame.obj
 0001:00032de0       ?isEHs@__FrameHandler3@@SA_NPBU_s_FuncInfo@@@Z 10033de0 f i libvcruntimed:frame.obj
 0001:00032e10       ?isNoExcept@__FrameHandler3@@SA_NPBU_s_FuncInfo@@@Z 10033e10 f i libvcruntimed:frame.obj
 0001:00032e40       ___BuildCatchObject        10033e40 f   libvcruntimed:frame.obj
 0001:00032e60       ___BuildCatchObjectHelper  10033e60 f   libvcruntimed:frame.obj
 0001:00032e80       ___TypeMatch               10033e80 f   libvcruntimed:frame.obj
 0001:00032ea0       ___vcrt_EncodePointer      10033ea0 f i libvcruntimed:frame.obj
 0001:00032eb0       __CallSettingFrame@12      10033eb0 f   libvcruntimed:lowhelpr.obj
 0001:00032ed7       __NLG_Return               10033ed7     libvcruntimed:lowhelpr.obj
 0001:00032f00       ??$?0$00@DName@@QAE@PBDU?$StringLifeSelector@$00@@@Z 10033f00 f i libvcruntimed:undname.obj
 0001:00032f50       ??$?0$00@pcharNode@@QAE@PBDHU?$StringLifeSelector@$00@@@Z 10033f50 f i libvcruntimed:undname.obj
 0001:00032f90       ??$?0$01@DName@@QAE@PBDU?$StringLifeSelector@$01@@@Z 10033f90 f i libvcruntimed:undname.obj
 0001:00032fe0       ??$?0$01@pcharNode@@QAE@PBDHU?$StringLifeSelector@$01@@@Z 10033fe0 f i libvcruntimed:undname.obj
 0001:00033060       ??$?0$0A@@DName@@QAE@PBDU?$StringLifeSelector@$0A@@@@Z 10034060 f i libvcruntimed:undname.obj
 0001:000330b0       ??$?0$0A@@pcharNode@@QAE@PBDHU?$StringLifeSelector@$0A@@@@Z 100340b0 f i libvcruntimed:undname.obj
 0001:00033130       ??$?0_K$0A@@?$optional@_K@std@@QAE@$$QA_K@Z 10034130 f i libvcruntimed:undname.obj
 0001:00033170       ??$?0_K@?$_Optional_construct_base@_K@std@@QAE@Uin_place_t@1@$$QA_K@Z 10034170 f i libvcruntimed:undname.obj
 0001:000331a0       ??$?0_K@?$_Optional_destruct_base@_K$00@std@@QAE@Uin_place_t@1@$$QA_K@Z 100341a0 f i libvcruntimed:undname.obj
 0001:000331d0       ??$append@VDNameNode@@@DName@@AAEXPBVDNameNode@@@Z 100341d0 f i libvcruntimed:undname.obj
 0001:00033260       ??$append@VDNameStatusNode@@@DName@@AAEXPBVDNameStatusNode@@@Z 10034260 f i libvcruntimed:undname.obj
 0001:000332f0       ??$append@VcharNode@@@DName@@AAEXPBVcharNode@@@Z 100342f0 f i libvcruntimed:undname.obj
 0001:00033380       ??$append@VpDNameNode@@@DName@@AAEXPBVpDNameNode@@@Z 10034380 f i libvcruntimed:undname.obj
 0001:00033410       ??$append@VpcharNode@@@DName@@AAEXPBVpcharNode@@@Z 10034410 f i libvcruntimed:undname.obj
 0001:000334a0       ??$doPchar@$00@DName@@AAEXPBDH@Z 100344a0 f i libvcruntimed:undname.obj
 0001:000335b0       ??$doPchar@$01@DName@@AAEXPBDH@Z 100345b0 f i libvcruntimed:undname.obj
 0001:000336c0       ??$doPchar@$0A@@DName@@AAEXPBDH@Z 100346c0 f i libvcruntimed:undname.obj
 0001:000337d0       ??$forward@_K@std@@YA$$QA_KAA_K@Z 100347d0 f i libvcruntimed:undname.obj
 0001:000337e0       ??$size@D$04@std@@YAIAAY04$$CBD@Z 100347e0 f i libvcruntimed:undname.obj
 0001:000337f0       ??$size@D$0EB@@std@@YAIAAY0EB@$$CBD@Z 100347f0 f i libvcruntimed:undname.obj
 0001:00033800       ??0?$_Optional_construct_base@_K@std@@QAE@XZ 10034800 f i libvcruntimed:undname.obj
 0001:00033820       ??0?$_Optional_destruct_base@_K$00@std@@QAE@XZ 10034820 f i libvcruntimed:undname.obj
 0001:00033840       ??0?$optional@_K@std@@QAE@XZ 10034840 f i libvcruntimed:undname.obj
 0001:00033860       ??0Block@_HeapManager@@QAE@XZ 10034860 f i libvcruntimed:undname.obj
 0001:00033880       ??0DName@@QAE@AAPBDD@Z     10034880 f   libvcruntimed:undname.obj
 0001:000339f0       ??0DName@@QAE@ABUStringLiteral@@@Z 100349f0 f   libvcruntimed:undname.obj
 0001:00033a40       ??0DName@@QAE@ABV0@@Z      10034a40 f i libvcruntimed:undname.obj
 0001:00033a70       ??0DName@@QAE@D@Z          10034a70 f   libvcruntimed:undname.obj
 0001:00033aa0       ??0DName@@QAE@PAV0@@Z      10034aa0 f   libvcruntimed:undname.obj
 0001:00033b50       ??0DName@@QAE@W4DNameStatus@@@Z 10034b50 f   libvcruntimed:undname.obj
 0001:00033bf0       ??0DName@@QAE@XZ           10034bf0 f i libvcruntimed:undname.obj
 0001:00033c20       ??0DName@@QAE@_J@Z         10034c20 f   libvcruntimed:undname.obj
 0001:00033d10       ??0DName@@QAE@_K@Z         10034d10 f   libvcruntimed:undname.obj
 0001:00033dc0       ??0DNameNode@@IAE@XZ       10034dc0 f i libvcruntimed:undname.obj
 0001:00033de0       ??0Replicator@@QAE@XZ      10034de0 f i libvcruntimed:undname.obj
 0001:00033e20       ??0UnDecorator@@QAE@PBDP6APADJ@ZK@Z 10034e20 f i libvcruntimed:undname.obj
 0001:00033ea0       ??0_Nontrivial_dummy_type@std@@QAE@XZ 10034ea0 f i libvcruntimed:undname.obj
 0001:00033eb0       ??0charNode@@QAE@D@Z       10034eb0 f i libvcruntimed:undname.obj
 0001:00033ee0       ??0pDNameNode@@QAE@PAVDName@@@Z 10034ee0 f   libvcruntimed:undname.obj
 0001:00033f40       ??0pairNode@@QAE@PBVDNameNode@@0@Z 10034f40 f i libvcruntimed:undname.obj
 0001:00033fa0       ??2@YAPAXIAAV_HeapManager@@H@Z 10034fa0 f   libvcruntimed:undname.obj
 0001:00033fe0       ??4DName@@QAEAAV0@ABUStringLiteral@@@Z 10034fe0 f   libvcruntimed:undname.obj
 0001:00034020       ??4DName@@QAEAAV0@ABV0@@Z  10035020 f   libvcruntimed:undname.obj
 0001:00034050       ??4DName@@QAEAAV0@D@Z      10035050 f i libvcruntimed:undname.obj
 0001:00034080       ??4DName@@QAEAAV0@PAV0@@Z  10035080 f   libvcruntimed:undname.obj
 0001:00034120       ??4DName@@QAEAAV0@W4DNameStatus@@@Z 10035120 f   libvcruntimed:undname.obj
 0001:000341a0       ??AReplicator@@QBE?AVDName@@H@Z 100351a0 f   libvcruntimed:undname.obj
 0001:00034210       ??B?$optional@_K@std@@QBE_NXZ 10035210 f i libvcruntimed:undname.obj
 0001:00034230       ??D?$optional@_K@std@@QGAEAA_KXZ 10035230 f i libvcruntimed:undname.obj
 0001:00034240       ??H@YA?AVDName@@ABUStringLiteral@@ABV0@@Z 10035240 f i libvcruntimed:undname.obj
 0001:00034270       ??H@YA?AVDName@@DABV0@@Z   10035270 f i libvcruntimed:undname.obj
 0001:000342a0       ??H@YA?AVDName@@W4DNameStatus@@ABV0@@Z 100352a0 f i libvcruntimed:undname.obj
 0001:000342d0       ??HDName@@QBE?AV0@ABUStringLiteral@@@Z 100352d0 f   libvcruntimed:undname.obj
 0001:00034310       ??HDName@@QBE?AV0@ABV0@@Z  10035310 f   libvcruntimed:undname.obj
 0001:00034350       ??HDName@@QBE?AV0@D@Z      10035350 f   libvcruntimed:undname.obj
 0001:00034390       ??HDName@@QBE?AV0@PAV0@@Z  10035390 f   libvcruntimed:undname.obj
 0001:000343d0       ??HDName@@QBE?AV0@W4DNameStatus@@@Z 100353d0 f   libvcruntimed:undname.obj
 0001:00034410       ??HStringLiteral@@QBE?AU0@H@Z 10035410 f i libvcruntimed:undname.obj
 0001:00034440       ??YDName@@QAEAAV0@ABUStringLiteral@@@Z 10035440 f   libvcruntimed:undname.obj
 0001:000344e0       ??YDName@@QAEAAV0@ABV0@@Z  100354e0 f   libvcruntimed:undname.obj
 0001:00034580       ??YDName@@QAEAAV0@D@Z      10035580 f   libvcruntimed:undname.obj
 0001:00034600       ??YDName@@QAEAAV0@PAV0@@Z  10035600 f   libvcruntimed:undname.obj
 0001:000346b0       ??YDName@@QAEAAV0@W4DNameStatus@@@Z 100356b0 f   libvcruntimed:undname.obj
 0001:00034710       ??YReplicator@@QAEAAV0@ABVDName@@@Z 10035710 f   libvcruntimed:undname.obj
 0001:000347a0       ??_5DName@@QAEAAV0@ABV0@@Z 100357a0 f   libvcruntimed:undname.obj
 0001:00034800       ??__K_l@@YA?AUStringLiteral@@PBDI@Z 10035800 f i libvcruntimed:undname.obj
 0001:00034820       ?Constructor@_HeapManager@@QAEXP6APAXI@ZP6AXPAX@Z@Z 10035820 f i libvcruntimed:undname.obj
 0001:00034860       ?Destructor@_HeapManager@@QAEXXZ 10035860 f i libvcruntimed:undname.obj
 0001:000348d0       ?UScore@UnDecorator@@SA?AUStringLiteral@@W4Tokens@@@Z 100358d0 f   libvcruntimed:undname.obj
 0001:00034920       ?composeDeclaration@UnDecorator@@CA?AVDName@@ABV2@@Z 10035920 f i libvcruntimed:undname.obj
 0001:00036890       ?dbGetString@DName@@QBEPADXZ 10037890 f   libvcruntimed:undname.obj
 0001:000368b0       ?doAccessSpecifiers@UnDecorator@@SAHXZ 100378b0 f i libvcruntimed:undname.obj
 0001:000368e0       ?doAllocationLanguage@UnDecorator@@SAHXZ 100378e0 f i libvcruntimed:undname.obj
 0001:00036910       ?doAllocationModel@UnDecorator@@SAHXZ 10037910 f i libvcruntimed:undname.obj
 0001:00036940       ?doEcsu@UnDecorator@@SAHXZ 10037940 f i libvcruntimed:undname.obj
 0001:00036970       ?doEllipsis@UnDecorator@@SAHXZ 10037970 f i libvcruntimed:undname.obj
 0001:000369a0       ?doFunctionReturns@UnDecorator@@SAHXZ 100379a0 f i libvcruntimed:undname.obj
 0001:000369d0       ?doMSKeywords@UnDecorator@@SAHXZ 100379d0 f i libvcruntimed:undname.obj
 0001:00036a00       ?doMemberTypes@UnDecorator@@SAHXZ 10037a00 f i libvcruntimed:undname.obj
 0001:00036a30       ?doNameOnly@UnDecorator@@SAHXZ 10037a30 f i libvcruntimed:undname.obj
 0001:00036a40       ?doNoIdentCharCheck@UnDecorator@@SAHXZ 10037a40 f i libvcruntimed:undname.obj
 0001:00036a50       ?doPchar@DName@@AAEXD@Z    10037a50 f   libvcruntimed:undname.obj
 0001:00036ac0       ?doPtr64@UnDecorator@@SAHXZ 10037ac0 f i libvcruntimed:undname.obj
 0001:00036af0       ?doRestrictionSpec@UnDecorator@@SAHXZ 10037af0 f i libvcruntimed:undname.obj
 0001:00036b20       ?doThisTypes@UnDecorator@@SAHXZ 10037b20 f i libvcruntimed:undname.obj
 0001:00036b50       ?doThrowTypes@UnDecorator@@SAHXZ 10037b50 f i libvcruntimed:undname.obj
 0001:00036b80       ?doTypeOnly@UnDecorator@@SAHXZ 10037b80 f i libvcruntimed:undname.obj
 0001:00036b90       ?doUnderScore@UnDecorator@@SAHXZ 10037b90 f i libvcruntimed:undname.obj
 0001:00036bc0       ?getArgumentList@UnDecorator@@CA?AVDName@@XZ 10037bc0 f   libvcruntimed:undname.obj
 0001:00036d10       ?getArgumentTypes@UnDecorator@@CA?AVDName@@XZ 10037d10 f   libvcruntimed:undname.obj
 0001:00036f20       ?getArrayObject@UnDecorator@@CA?AVDName@@XZ 10037f20 f   libvcruntimed:undname.obj
 0001:00037000       ?getArrayType@UnDecorator@@CA?AVDName@@ABV2@@Z 10038000 f i libvcruntimed:undname.obj
 0001:000372a0       ?getBasedType@UnDecorator@@CA?AVDName@@XZ 100382a0 f   libvcruntimed:undname.obj
 0001:00037390       ?getBasicDataType@UnDecorator@@CA?AVDName@@ABV2@@Z 10038390 f   libvcruntimed:undname.obj
 0001:00037ca0       ?getCHPEName@UnDecorator@@QAEPADPADH@Z 10038ca0 f i libvcruntimed:undname.obj
 0001:00037e00       ?getCallIndex@UnDecorator@@CA?AVDName@@XZ 10038e00 f i libvcruntimed:undname.obj
 0001:00037e20       ?getCallingConvention@UnDecorator@@CA?AVDName@@XZ 10038e20 f   libvcruntimed:undname.obj
 0001:00038060       ?getDataIndirectType@UnDecorator@@CA?AVDName@@ABV2@W4IndirectionKind@@0H@Z 10039060 f   libvcruntimed:undname.obj
 0001:00038980       ?getDataIndirectType@UnDecorator@@CA?AVDName@@XZ 10039980 f i libvcruntimed:undname.obj
 0001:000389c0       ?getDataType@UnDecorator@@CA?AVDName@@PAV2@@Z 100399c0 f   libvcruntimed:undname.obj
 0001:00038b00       ?getDecoratedName@UnDecorator@@CA?AVDName@@XZ 10039b00 f   libvcruntimed:undname.obj
 0001:00038f40       ?getDimension@UnDecorator@@CA?AVDName@@_N@Z 10039f40 f   libvcruntimed:undname.obj
 0001:000391a0       ?getDispatchTarget@UnDecorator@@CA?AVDName@@XZ 1003a1a0 f   libvcruntimed:undname.obj
 0001:00039240       ?getDisplacement@UnDecorator@@CA?AVDName@@XZ 1003a240 f i libvcruntimed:undname.obj
 0001:00039260       ?getECSUDataType@UnDecorator@@CA?AVDName@@XZ 1003a260 f   libvcruntimed:undname.obj
 0001:000394c0       ?getECSUName@UnDecorator@@CA?AVDName@@XZ 1003a4c0 f i libvcruntimed:undname.obj
 0001:000394e0       ?getEnumType@UnDecorator@@CA?AVDName@@XZ 1003a4e0 f i libvcruntimed:undname.obj
 0001:00039690       ?getExtendedDataIndirectType@UnDecorator@@CA?AVDName@@AAW4IndirectionKind@@AA_NH@Z 1003a690 f   libvcruntimed:undname.obj
 0001:000398e0       ?getExternalDataType@UnDecorator@@CA?AVDName@@ABV2@@Z 1003a8e0 f i libvcruntimed:undname.obj
 0001:00039980       ?getFloatingPoint@UnDecorator@@CA?AVDName@@H@Z 1003a980 f   libvcruntimed:undname.obj
 0001:00039b30       ?getFunctionIndirectType@UnDecorator@@CA?AVDName@@ABV2@@Z 1003ab30 f   libvcruntimed:undname.obj
 0001:0003a010       ?getGuardNumber@UnDecorator@@CA?AVDName@@XZ 1003b010 f i libvcruntimed:undname.obj
 0001:0003a030       ?getLastChar@DName@@QBEDXZ 1003b030 f i libvcruntimed:undname.obj
 0001:0003a070       ?getLastChar@DNameStatusNode@@UBEDXZ 1003b070 f i libvcruntimed:undname.obj
 0001:0003a0a0       ?getLastChar@charNode@@UBEDXZ 1003b0a0 f i libvcruntimed:undname.obj
 0001:0003a0c0       ?getLastChar@pDNameNode@@UBEDXZ 1003b0c0 f i libvcruntimed:undname.obj
 0001:0003a0f0       ?getLastChar@pairNode@@UBEDXZ 1003b0f0 f i libvcruntimed:undname.obj
 0001:0003a160       ?getLastChar@pcharNode@@UBEDXZ 1003b160 f i libvcruntimed:undname.obj
 0001:0003a1a0       ?getLexicalFrame@UnDecorator@@CA?AVDName@@XZ 1003b1a0 f i libvcruntimed:undname.obj
 0001:0003a1e0       ?getMemoryWithBuffer@_HeapManager@@QAEPAXI@Z 1003b1e0 f   libvcruntimed:undname.obj
 0001:0003a2d0       ?getMemoryWithoutBuffer@_HeapManager@@QAEPAXI@Z 1003b2d0 f   libvcruntimed:undname.obj
 0001:0003a310       ?getNoexcept@UnDecorator@@CA?AVDName@@XZ 1003b310 f   libvcruntimed:undname.obj
 0001:0003a390       ?getNumberOfDimensions@UnDecorator@@CAHXZ 1003b390 f   libvcruntimed:undname.obj
 0001:0003a490       ?getOperatorName@UnDecorator@@CA?AVDName@@_NPA_N@Z 1003b490 f i libvcruntimed:undname.obj
 0001:0003af80       ?getPointerType@UnDecorator@@CA?AVDName@@ABV2@0@Z 1003bf80 f i libvcruntimed:undname.obj
 0001:0003afa0       ?getPointerTypeArray@UnDecorator@@CA?AVDName@@ABV2@0@Z 1003bfa0 f i libvcruntimed:undname.obj
 0001:0003afc0       ?getPrimaryDataType@UnDecorator@@CA?AVDName@@ABV2@@Z 1003bfc0 f   libvcruntimed:undname.obj
 0001:0003b450       ?getPtrRefDataType@UnDecorator@@CA?AVDName@@ABV2@H@Z 1003c450 f   libvcruntimed:undname.obj
 0001:0003b700       ?getPtrRefType@UnDecorator@@CA?AVDName@@ABV2@0W4IndirectionKind@@@Z 1003c700 f   libvcruntimed:undname.obj
 0001:0003b880       ?getReferenceType@UnDecorator@@CA?AVDName@@ABV2@0W4IndirectionKind@@@Z 1003c880 f i libvcruntimed:undname.obj
 0001:0003b8a0       ?getRestrictionSpec@UnDecorator@@CA?AVDName@@XZ 1003c8a0 f   libvcruntimed:undname.obj
 0001:0003ba60       ?getReturnType@UnDecorator@@CA?AVDName@@PAV2@@Z 1003ca60 f   libvcruntimed:undname.obj
 0001:0003bab0       ?getScope@UnDecorator@@CA?AVDName@@XZ 1003cab0 f   libvcruntimed:undname.obj
 0001:0003c040       ?getScopedName@UnDecorator@@CA?AVDName@@XZ 1003d040 f   libvcruntimed:undname.obj
 0001:0003c190       ?getSignedDimension@UnDecorator@@CA?AVDName@@XZ 1003d190 f   libvcruntimed:undname.obj
 0001:0003c210       ?getStorageConvention@UnDecorator@@CA?AVDName@@XZ 1003d210 f i libvcruntimed:undname.obj
 0001:0003c230       ?getString@DName@@QBEPADPAD0@Z 1003d230 f i libvcruntimed:undname.obj
 0001:0003c290       ?getString@DName@@QBEPADPADH@Z 1003d290 f i libvcruntimed:undname.obj
 0001:0003c320       ?getString@DNameStatusNode@@UBEPADPAD0@Z 1003d320 f i libvcruntimed:undname.obj
 0001:0003c360       ?getString@charNode@@UBEPADPAD0@Z 1003d360 f i libvcruntimed:undname.obj
 0001:0003c390       ?getString@pDNameNode@@UBEPADPAD0@Z 1003d390 f i libvcruntimed:undname.obj
 0001:0003c3d0       ?getString@pairNode@@UBEPADPAD0@Z 1003d3d0 f i libvcruntimed:undname.obj
 0001:0003c460       ?getString@pcharNode@@UBEPADPAD0@Z 1003d460 f i libvcruntimed:undname.obj
 0001:0003c490       ?getStringEncoding@UnDecorator@@CA?AVDName@@W4PrefixKind@@H@Z 1003d490 f   libvcruntimed:undname.obj
 0001:0003c5a0       ?getStringHelper@@YAPADPADPBD1H@Z 1003d5a0 f i libvcruntimed:undname.obj
 0001:0003c5e0       ?getStringObject@UnDecorator@@CA?AVDName@@XZ 1003d5e0 f   libvcruntimed:undname.obj
 0001:0003c690       ?getSymbolName@UnDecorator@@CA?AVDName@@XZ 1003d690 f i libvcruntimed:undname.obj
 0001:0003c720       ?getTemplateArgumentList@UnDecorator@@CA?AVDName@@XZ 1003d720 f   libvcruntimed:undname.obj
 0001:0003ca10       ?getTemplateName@UnDecorator@@CA?AVDName@@_N@Z 1003da10 f   libvcruntimed:undname.obj
 0001:0003cbd0       ?getTemplateNonTypeArgument@UnDecorator@@CA?AVDName@@XZ 1003dbd0 f   libvcruntimed:undname.obj
 0001:0003d110       ?getTemplateTypeArgument@UnDecorator@@CA?AVDName@@XZ 1003e110 f   libvcruntimed:undname.obj
 0001:0003d2b0       ?getThisType@UnDecorator@@CA?AVDName@@XZ 1003e2b0 f i libvcruntimed:undname.obj
 0001:0003d2f0       ?getThrowTypes@UnDecorator@@CA?AVDName@@XZ 1003e2f0 f   libvcruntimed:undname.obj
 0001:0003d330       ?getTypeEncoding@UnDecorator@@CAHXZ 1003e330 f i libvcruntimed:undname.obj
 0001:0003ddf0       ?getUndecoratedName@UnDecorator@@QAEPADPADH@Z 1003edf0 f i libvcruntimed:undname.obj
 0001:0003df50       ?getVCallThunkType@UnDecorator@@CA?AVDName@@XZ 1003ef50 f i libvcruntimed:undname.obj
 0001:0003dfd0       ?getValue@UnDecorator@@CA?AV?$optional@_K@std@@XZ 1003efd0 f   libvcruntimed:undname.obj
 0001:0003e090       ?getValueObject@UnDecorator@@CA?AVDName@@XZ 1003f090 f   libvcruntimed:undname.obj
 0001:0003e250       ?getVbTableType@UnDecorator@@CA?AVDName@@ABV2@@Z 1003f250 f i libvcruntimed:undname.obj
 0001:0003e270       ?getVdispMapType@UnDecorator@@CA?AVDName@@ABV2@@Z 1003f270 f i libvcruntimed:undname.obj
 0001:0003e300       ?getVfTableType@UnDecorator@@CA?AVDName@@ABV2@@Z 1003f300 f i libvcruntimed:undname.obj
 0001:0003e500       ?getZName@UnDecorator@@CA?AVDName@@_N0@Z 1003f500 f   libvcruntimed:undname.obj
 0001:0003e840       ?haveTemplateParameters@UnDecorator@@SAHXZ 1003f840 f i libvcruntimed:undname.obj
 0001:0003e850       ?isArray@DName@@QBEHXZ     1003f850 f i libvcruntimed:undname.obj
 0001:0003e870       ?isComArray@DName@@QBEHXZ  1003f870 f i libvcruntimed:undname.obj
 0001:0003e890       ?isEmpty@DName@@QBEHXZ     1003f890 f i libvcruntimed:undname.obj
 0001:0003e8c0       ?isFull@Replicator@@QBEHXZ 1003f8c0 f i libvcruntimed:undname.obj
 0001:0003e8f0       ?isNoTE@DName@@QBEHXZ      1003f8f0 f i libvcruntimed:undname.obj
 0001:0003e910       ?isPinPtr@DName@@QBEHXZ    1003f910 f i libvcruntimed:undname.obj
 0001:0003e930       ?isPtrRef@DName@@QBEHXZ    1003f930 f i libvcruntimed:undname.obj
 0001:0003e950       ?isUDC@DName@@QBEHXZ       1003f950 f i libvcruntimed:undname.obj
 0001:0003e990       ?isUDTThunk@DName@@QBEHXZ  1003f990 f i libvcruntimed:undname.obj
 0001:0003e9d0       ?isVCallThunk@DName@@QBEHXZ 1003f9d0 f i libvcruntimed:undname.obj
 0001:0003e9f0       ?isValid@DName@@QBEHXZ     1003f9f0 f i libvcruntimed:undname.obj
 0001:0003ea30       ?length@DName@@QBEHXZ      1003fa30 f i libvcruntimed:undname.obj
 0001:0003ea70       ?length@DNameStatusNode@@UBEHXZ 1003fa70 f i libvcruntimed:undname.obj
 0001:0003ea90       ?length@charNode@@UBEHXZ   1003fa90 f i libvcruntimed:undname.obj
 0001:0003eaa0       ?length@pDNameNode@@UBEHXZ 1003faa0 f i libvcruntimed:undname.obj
 0001:0003ead0       ?length@pairNode@@UBEHXZ   1003fad0 f i libvcruntimed:undname.obj
 0001:0003eb40       ?length@pcharNode@@UBEHXZ  1003fb40 f i libvcruntimed:undname.obj
 0001:0003eb60       ?make@DNameStatusNode@@SAPBV1@W4DNameStatus@@@Z 1003fb60 f i libvcruntimed:undname.obj
 0001:0003eb90       ?parseDecoratedName@UnDecorator@@CA?AVDName@@XZ 1003fb90 f   libvcruntimed:undname.obj
 0001:0003ed20       ?raw_length@DNameStatusNode@@UBEHXZ 1003fd20 f i libvcruntimed:undname.obj
 0001:0003ed40       ?raw_length@charNode@@UBEHXZ 1003fd40 f i libvcruntimed:undname.obj
 0001:0003ed60       ?raw_length@pDNameNode@@UBEHXZ 1003fd60 f i libvcruntimed:undname.obj
 0001:0003ed70       ?raw_length@pairNode@@UBEHXZ 1003fd70 f i libvcruntimed:undname.obj
 0001:0003ed90       ?raw_length@pcharNode@@UBEHXZ 1003fd90 f i libvcruntimed:undname.obj
 0001:0003edb0       ?setIsArray@DName@@QAEXXZ  1003fdb0 f i libvcruntimed:undname.obj
 0001:0003edd0       ?setIsComArray@DName@@QAEXXZ 1003fdd0 f i libvcruntimed:undname.obj
 0001:0003edf0       ?setIsNoTE@DName@@QAEXXZ   1003fdf0 f i libvcruntimed:undname.obj
 0001:0003ee10       ?setIsPinPtr@DName@@QAEXXZ 1003fe10 f i libvcruntimed:undname.obj
 0001:0003ee30       ?setIsUDC@DName@@QAEXXZ    1003fe30 f i libvcruntimed:undname.obj
 0001:0003ee60       ?setIsVCallThunk@DName@@QAEXXZ 1003fe60 f i libvcruntimed:undname.obj
 0001:0003ee80       ?setPtrRef@DName@@QAEAAV1@XZ 1003fe80 f i libvcruntimed:undname.obj
 0001:0003eea0       ?status@DName@@QBE?AW4DNameStatus@@XZ 1003fea0 f i libvcruntimed:undname.obj
 0001:0003efa0       ___unDName                 1003ffa0 f   libvcruntimed:undname.obj
 0001:0003efd0       ___unDNameEx               1003ffd0 f   libvcruntimed:undname.obj
 0001:0003f0a0       _unDNameGenerateCHPE       100400a0 f   libvcruntimed:undname.obj
 0001:0003f100       __global_unwind2           10040100 f   libvcruntimed:exsup.obj
 0001:0003f166       __local_unwind2            10040166 f   libvcruntimed:exsup.obj
 0001:0003f1ea       __abnormal_termination     100401ea f   libvcruntimed:exsup.obj
 0001:0003f210       __NLG_Notify1              10040210 f   libvcruntimed:exsup.obj
 0001:0003f21c       __NLG_Notify               1004021c f   libvcruntimed:exsup.obj
 0001:0003f233       __NLG_Dispatch2            10040233     libvcruntimed:exsup.obj
 0001:0003f233       __NLG_Dispatch             10040233     libvcruntimed:exsup.obj
 0001:0003f23b       __NLG_Call                 1004023b f   libvcruntimed:exsup.obj
 0001:0003f23d       __NLG_Return2              1004023d     libvcruntimed:exsup.obj
 0001:0003f240       ??$__crt_interlocked_exchange_pointer@UHINSTANCE__@@PAU1@@@YAPAUHINSTANCE__@@PDSAU0@QAU0@@Z 10040240 f i libvcruntimed:winapi_downlevel.obj
 0001:0003f250       ??$__crt_interlocked_exchange_pointer@UHINSTANCE__@@PAX@@YAPAUHINSTANCE__@@PDSAU0@QAX@Z 10040250 f i libvcruntimed:winapi_downlevel.obj
 0001:0003f260       ??$__crt_interlocked_exchange_pointer@XPAX@@YAPAXPDSAXQAX@Z 10040260 f i libvcruntimed:winapi_downlevel.obj
 0001:0003f270       ??$__crt_interlocked_read_pointer@UHINSTANCE__@@@@YAPAUHINSTANCE__@@PDSAU0@@Z 10040270 f i libvcruntimed:winapi_downlevel.obj
 0001:0003f290       ??$__crt_interlocked_read_pointer@X@@YAPAXPDSAX@Z 10040290 f i libvcruntimed:winapi_downlevel.obj
 0001:0003f660       ___vcrt_FlsAlloc           10040660 f   libvcruntimed:winapi_downlevel.obj
 0001:0003f6a0       ___vcrt_FlsFree            100406a0 f   libvcruntimed:winapi_downlevel.obj
 0001:0003f6e0       ___vcrt_FlsGetValue        100406e0 f   libvcruntimed:winapi_downlevel.obj
 0001:0003f720       ___vcrt_FlsSetValue        10040720 f   libvcruntimed:winapi_downlevel.obj
 0001:0003f770       ___vcrt_InitializeCriticalSectionEx 10040770 f   libvcruntimed:winapi_downlevel.obj
 0001:0003f7f0       __get_unexpected           100407f0 f   libvcruntimed:unexpected.obj
 0001:0003f810       _set_unexpected            10040810 f   libvcruntimed:unexpected.obj
 0001:0003f840       _unexpected                10040840 f   libvcruntimed:unexpected.obj
 0001:0003f880       ?GetCurrentState@__FrameHandler3@@SAHPAUEHRegistrationNode@@PAXPBU_s_FuncInfo@@@Z 10040880 f   libvcruntimed:ehstate.obj
 0001:0003f8b0       ?SetState@__FrameHandler3@@SAXPAUEHRegistrationNode@@PBU_s_FuncInfo@@H@Z 100408b0 f   libvcruntimed:ehstate.obj
 0001:0003f8c0       ??$?0ABV?$stream_output_adapter@D@__crt_stdio_output@@AB_KABQBDABQAU__crt_locale_pointers@@ABQAD@?$format_validation_base@DV?$stream_output_adapter@D@__crt_stdio_output@@@__crt_stdio_output@@IAE@ABV?$stream_output_adapter@D@1@AB_KABQBDABQAU__crt_locale_pointers@@ABQAD@Z 100408c0 f i libucrtd:output.obj
 0001:0003f8f0       ??$?0ABV?$stream_output_adapter@D@__crt_stdio_output@@AB_KABQBDABQAU__crt_locale_pointers@@ABQAD@?$positional_parameter_base@DV?$stream_output_adapter@D@__crt_stdio_output@@@__crt_stdio_output@@IAE@ABV?$stream_output_adapter@D@1@AB_KABQBDABQAU__crt_locale_pointers@@ABQAD@Z 100408f0 f i libucrtd:output.obj
 0001:0003f970       ??$?0ABV?$stream_output_adapter@D@__crt_stdio_output@@AB_KABQBDABQAU__crt_locale_pointers@@ABQAD@?$standard_base@DV?$stream_output_adapter@D@__crt_stdio_output@@@__crt_stdio_output@@IAE@ABV?$stream_output_adapter@D@1@AB_KABQBDABQAU__crt_locale_pointers@@ABQAD@Z 10040970 f i libucrtd:output.obj
 0001:0003f9c0       ??$?0ABV?$stream_output_adapter@_W@__crt_stdio_output@@AB_KABQB_WABQAU__crt_locale_pointers@@ABQAD@?$format_validation_base@_WV?$stream_output_adapter@_W@__crt_stdio_output@@@__crt_stdio_output@@IAE@ABV?$stream_output_adapter@_W@1@AB_KABQB_WABQAU__crt_locale_pointers@@ABQAD@Z 100409c0 f i libucrtd:output.obj
 0001:0003f9f0       ??$?0ABV?$stream_output_adapter@_W@__crt_stdio_output@@AB_KABQB_WABQAU__crt_locale_pointers@@ABQAD@?$positional_parameter_base@_WV?$stream_output_adapter@_W@__crt_stdio_output@@@__crt_stdio_output@@IAE@ABV?$stream_output_adapter@_W@1@AB_KABQB_WABQAU__crt_locale_pointers@@ABQAD@Z 100409f0 f i libucrtd:output.obj
 0001:0003fa70       ??$?0ABV?$stream_output_adapter@_W@__crt_stdio_output@@AB_KABQB_WABQAU__crt_locale_pointers@@ABQAD@?$standard_base@_WV?$stream_output_adapter@_W@__crt_stdio_output@@@__crt_stdio_output@@IAE@ABV?$stream_output_adapter@_W@1@AB_KABQB_WABQAU__crt_locale_pointers@@ABQAD@Z 10040a70 f i libucrtd:output.obj
 0001:0003fac0       ??$?0ABV?$string_output_adapter@D@__crt_stdio_output@@AB_KABQBDABQAU__crt_locale_pointers@@ABQAD@?$format_validation_base@DV?$string_output_adapter@D@__crt_stdio_output@@@__crt_stdio_output@@IAE@ABV?$string_output_adapter@D@1@AB_KABQBDABQAU__crt_locale_pointers@@ABQAD@Z 10040ac0 f i libucrtd:output.obj
 0001:0003faf0       ??$?0ABV?$string_output_adapter@D@__crt_stdio_output@@AB_KABQBDABQAU__crt_locale_pointers@@ABQAD@?$positional_parameter_base@DV?$string_output_adapter@D@__crt_stdio_output@@@__crt_stdio_output@@IAE@ABV?$string_output_adapter@D@1@AB_KABQBDABQAU__crt_locale_pointers@@ABQAD@Z 10040af0 f i libucrtd:output.obj
 0001:0003fb70       ??$?0ABV?$string_output_adapter@D@__crt_stdio_output@@AB_KABQBDABQAU__crt_locale_pointers@@ABQAD@?$standard_base@DV?$string_output_adapter@D@__crt_stdio_output@@@__crt_stdio_output@@IAE@ABV?$string_output_adapter@D@1@AB_KABQBDABQAU__crt_locale_pointers@@ABQAD@Z 10040b70 f i libucrtd:output.obj
 0001:0003fbc0       ??$?0ABV?$string_output_adapter@_W@__crt_stdio_output@@AB_KABQB_WABQAU__crt_locale_pointers@@ABQAD@?$format_validation_base@_WV?$string_output_adapter@_W@__crt_stdio_output@@@__crt_stdio_output@@IAE@ABV?$string_output_adapter@_W@1@AB_KABQB_WABQAU__crt_locale_pointers@@ABQAD@Z 10040bc0 f i libucrtd:output.obj
 0001:0003fbf0       ??$?0ABV?$string_output_adapter@_W@__crt_stdio_output@@AB_KABQB_WABQAU__crt_locale_pointers@@ABQAD@?$positional_parameter_base@_WV?$string_output_adapter@_W@__crt_stdio_output@@@__crt_stdio_output@@IAE@ABV?$string_output_adapter@_W@1@AB_KABQB_WABQAU__crt_locale_pointers@@ABQAD@Z 10040bf0 f i libucrtd:output.obj
 0001:0003fc70       ??$?0ABV?$string_output_adapter@_W@__crt_stdio_output@@AB_KABQB_WABQAU__crt_locale_pointers@@ABQAD@?$standard_base@_WV?$string_output_adapter@_W@__crt_stdio_output@@@__crt_stdio_output@@IAE@ABV?$string_output_adapter@_W@1@AB_KABQB_WABQAU__crt_locale_pointers@@ABQAD@Z 10040c70 f i libucrtd:output.obj
 0001:000401a0       ??$__crt_interlocked_read@J@@YAJPDJ@Z 100411a0 f i libucrtd:output.obj
 0001:00042f40       ??$count@D@formatting_buffer@__crt_stdio_output@@QBEIXZ 10043f40 f i libucrtd:output.obj
 0001:00042f80       ??$count@_W@formatting_buffer@__crt_stdio_output@@QBEIXZ 10043f80 f i libucrtd:output.obj
 0001:00042fc0       ??$data@D@formatting_buffer@__crt_stdio_output@@QAEPADXZ 10043fc0 f i libucrtd:output.obj
 0001:00043000       ??$data@_W@formatting_buffer@__crt_stdio_output@@QAEPA_WXZ 10044000 f i libucrtd:output.obj
 0001:00043040       ??$ensure_buffer_is_big_enough@D@formatting_buffer@__crt_stdio_output@@QAE_NI@Z 10044040 f i libucrtd:output.obj
 0001:00043120       ??$ensure_buffer_is_big_enough@_W@formatting_buffer@__crt_stdio_output@@QAE_NI@Z 10044120 f i libucrtd:output.obj
 0001:00043210       ??$extract_argument_from_va_list@C_J@?$positional_parameter_base@DV?$stream_output_adapter@D@__crt_stdio_output@@@__crt_stdio_output@@IAE_NAA_J@Z 10044210 f i libucrtd:output.obj
 0001:00043350       ??$extract_argument_from_va_list@C_J@?$positional_parameter_base@DV?$string_output_adapter@D@__crt_stdio_output@@@__crt_stdio_output@@IAE_NAA_J@Z 10044350 f i libucrtd:output.obj
 0001:00043490       ??$extract_argument_from_va_list@C_J@?$positional_parameter_base@_WV?$stream_output_adapter@_W@__crt_stdio_output@@@__crt_stdio_output@@IAE_NAA_J@Z 10044490 f i libucrtd:output.obj
 0001:000435d0       ??$extract_argument_from_va_list@C_J@?$positional_parameter_base@_WV?$string_output_adapter@_W@__crt_stdio_output@@@__crt_stdio_output@@IAE_NAA_J@Z 100445d0 f i libucrtd:output.obj
 0001:00043710       ??$extract_argument_from_va_list@C_J@?$standard_base@DV?$stream_output_adapter@D@__crt_stdio_output@@@__crt_stdio_output@@IAE_NAA_J@Z 10044710 f i libucrtd:output.obj
 0001:00043740       ??$extract_argument_from_va_list@C_J@?$standard_base@DV?$string_output_adapter@D@__crt_stdio_output@@@__crt_stdio_output@@IAE_NAA_J@Z 10044740 f i libucrtd:output.obj
 0001:00043770       ??$extract_argument_from_va_list@C_J@?$standard_base@_WV?$stream_output_adapter@_W@__crt_stdio_output@@@__crt_stdio_output@@IAE_NAA_J@Z 10044770 f i libucrtd:output.obj
 0001:000437a0       ??$extract_argument_from_va_list@C_J@?$standard_base@_WV?$string_output_adapter@_W@__crt_stdio_output@@@__crt_stdio_output@@IAE_NAA_J@Z 100447a0 f i libucrtd:output.obj
 0001:000437d0       ??$extract_argument_from_va_list@E_J@?$positional_parameter_base@DV?$stream_output_adapter@D@__crt_stdio_output@@@__crt_stdio_output@@IAE_NAA_J@Z 100447d0 f i libucrtd:output.obj
 0001:00043910       ??$extract_argument_from_va_list@E_J@?$positional_parameter_base@DV?$string_output_adapter@D@__crt_stdio_output@@@__crt_stdio_output@@IAE_NAA_J@Z 10044910 f i libucrtd:output.obj
 0001:00043a50       ??$extract_argument_from_va_list@E_J@?$positional_parameter_base@_WV?$stream_output_adapter@_W@__crt_stdio_output@@@__crt_stdio_output@@IAE_NAA_J@Z 10044a50 f i libucrtd:output.obj
 0001:00043b90       ??$extract_argument_from_va_list@E_J@?$positional_parameter_base@_WV?$string_output_adapter@_W@__crt_stdio_output@@@__crt_stdio_output@@IAE_NAA_J@Z 10044b90 f i libucrtd:output.obj
 0001:00043cd0       ??$extract_argument_from_va_list@E_J@?$standard_base@DV?$stream_output_adapter@D@__crt_stdio_output@@@__crt_stdio_output@@IAE_NAA_J@Z 10044cd0 f i libucrtd:output.obj
 0001:00043d00       ??$extract_argument_from_va_list@E_J@?$standard_base@DV?$string_output_adapter@D@__crt_stdio_output@@@__crt_stdio_output@@IAE_NAA_J@Z 10044d00 f i libucrtd:output.obj
 0001:00043d30       ??$extract_argument_from_va_list@E_J@?$standard_base@_WV?$stream_output_adapter@_W@__crt_stdio_output@@@__crt_stdio_output@@IAE_NAA_J@Z 10044d30 f i libucrtd:output.obj
 0001:00043d60       ??$extract_argument_from_va_list@E_J@?$standard_base@_WV?$string_output_adapter@_W@__crt_stdio_output@@@__crt_stdio_output@@IAE_NAA_J@Z 10044d60 f i libucrtd:output.obj
 0001:00043d90       ??$extract_argument_from_va_list@F_J@?$positional_parameter_base@DV?$stream_output_adapter@D@__crt_stdio_output@@@__crt_stdio_output@@IAE_NAA_J@Z 10044d90 f i libucrtd:output.obj
 0001:00043ec0       ??$extract_argument_from_va_list@F_J@?$positional_parameter_base@DV?$string_output_adapter@D@__crt_stdio_output@@@__crt_stdio_output@@IAE_NAA_J@Z 10044ec0 f i libucrtd:output.obj
 0001:00043ff0       ??$extract_argument_from_va_list@F_J@?$positional_parameter_base@_WV?$stream_output_adapter@_W@__crt_stdio_output@@@__crt_stdio_output@@IAE_NAA_J@Z 10044ff0 f i libucrtd:output.obj
 0001:00044120       ??$extract_argument_from_va_list@F_J@?$positional_parameter_base@_WV?$string_output_adapter@_W@__crt_stdio_output@@@__crt_stdio_output@@IAE_NAA_J@Z 10045120 f i libucrtd:output.obj
 0001:00044250       ??$extract_argument_from_va_list@F_J@?$standard_base@DV?$stream_output_adapter@D@__crt_stdio_output@@@__crt_stdio_output@@IAE_NAA_J@Z 10045250 f i libucrtd:output.obj
 0001:00044280       ??$extract_argument_from_va_list@F_J@?$standard_base@DV?$string_output_adapter@D@__crt_stdio_output@@@__crt_stdio_output@@IAE_NAA_J@Z 10045280 f i libucrtd:output.obj
 0001:000442b0       ??$extract_argument_from_va_list@F_J@?$standard_base@_WV?$stream_output_adapter@_W@__crt_stdio_output@@@__crt_stdio_output@@IAE_NAA_J@Z 100452b0 f i libucrtd:output.obj
 0001:000442e0       ??$extract_argument_from_va_list@F_J@?$standard_base@_WV?$string_output_adapter@_W@__crt_stdio_output@@@__crt_stdio_output@@IAE_NAA_J@Z 100452e0 f i libucrtd:output.obj
 0001:00044310       ??$extract_argument_from_va_list@GD@?$positional_parameter_base@DV?$stream_output_adapter@D@__crt_stdio_output@@@__crt_stdio_output@@IAE_NAAD@Z 10045310 f i libucrtd:output.obj
 0001:00044440       ??$extract_argument_from_va_list@GD@?$positional_parameter_base@DV?$string_output_adapter@D@__crt_stdio_output@@@__crt_stdio_output@@IAE_NAAD@Z 10045440 f i libucrtd:output.obj
 0001:00044570       ??$extract_argument_from_va_list@GD@?$standard_base@DV?$stream_output_adapter@D@__crt_stdio_output@@@__crt_stdio_output@@IAE_NAAD@Z 10045570 f i libucrtd:output.obj
 0001:000445a0       ??$extract_argument_from_va_list@GD@?$standard_base@DV?$string_output_adapter@D@__crt_stdio_output@@@__crt_stdio_output@@IAE_NAAD@Z 100455a0 f i libucrtd:output.obj
 0001:000445d0       ??$extract_argument_from_va_list@G_J@?$positional_parameter_base@DV?$stream_output_adapter@D@__crt_stdio_output@@@__crt_stdio_output@@IAE_NAA_J@Z 100455d0 f i libucrtd:output.obj
 0001:00044710       ??$extract_argument_from_va_list@G_J@?$positional_parameter_base@DV?$string_output_adapter@D@__crt_stdio_output@@@__crt_stdio_output@@IAE_NAA_J@Z 10045710 f i libucrtd:output.obj
 0001:00044850       ??$extract_argument_from_va_list@G_J@?$positional_parameter_base@_WV?$stream_output_adapter@_W@__crt_stdio_output@@@__crt_stdio_output@@IAE_NAA_J@Z 10045850 f i libucrtd:output.obj
 0001:00044990       ??$extract_argument_from_va_list@G_J@?$positional_parameter_base@_WV?$string_output_adapter@_W@__crt_stdio_output@@@__crt_stdio_output@@IAE_NAA_J@Z 10045990 f i libucrtd:output.obj
 0001:00044ad0       ??$extract_argument_from_va_list@G_J@?$standard_base@DV?$stream_output_adapter@D@__crt_stdio_output@@@__crt_stdio_output@@IAE_NAA_J@Z 10045ad0 f i libucrtd:output.obj
 0001:00044b00       ??$extract_argument_from_va_list@G_J@?$standard_base@DV?$string_output_adapter@D@__crt_stdio_output@@@__crt_stdio_output@@IAE_NAA_J@Z 10045b00 f i libucrtd:output.obj
 0001:00044b30       ??$extract_argument_from_va_list@G_J@?$standard_base@_WV?$stream_output_adapter@_W@__crt_stdio_output@@@__crt_stdio_output@@IAE_NAA_J@Z 10045b30 f i libucrtd:output.obj
 0001:00044b60       ??$extract_argument_from_va_list@G_J@?$standard_base@_WV?$string_output_adapter@_W@__crt_stdio_output@@@__crt_stdio_output@@IAE_NAA_J@Z 10045b60 f i libucrtd:output.obj
 0001:00044b90       ??$extract_argument_from_va_list@H_J@?$positional_parameter_base@DV?$stream_output_adapter@D@__crt_stdio_output@@@__crt_stdio_output@@IAE_NAA_J@Z 10045b90 f i libucrtd:output.obj
 0001:00044cc0       ??$extract_argument_from_va_list@H_J@?$positional_parameter_base@DV?$string_output_adapter@D@__crt_stdio_output@@@__crt_stdio_output@@IAE_NAA_J@Z 10045cc0 f i libucrtd:output.obj
 0001:00044df0       ??$extract_argument_from_va_list@H_J@?$positional_parameter_base@_WV?$stream_output_adapter@_W@__crt_stdio_output@@@__crt_stdio_output@@IAE_NAA_J@Z 10045df0 f i libucrtd:output.obj
 0001:00044f20       ??$extract_argument_from_va_list@H_J@?$positional_parameter_base@_WV?$string_output_adapter@_W@__crt_stdio_output@@@__crt_stdio_output@@IAE_NAA_J@Z 10045f20 f i libucrtd:output.obj
 0001:00045050       ??$extract_argument_from_va_list@H_J@?$standard_base@DV?$stream_output_adapter@D@__crt_stdio_output@@@__crt_stdio_output@@IAE_NAA_J@Z 10046050 f i libucrtd:output.obj
 0001:00045080       ??$extract_argument_from_va_list@H_J@?$standard_base@DV?$string_output_adapter@D@__crt_stdio_output@@@__crt_stdio_output@@IAE_NAA_J@Z 10046080 f i libucrtd:output.obj
 0001:000450b0       ??$extract_argument_from_va_list@H_J@?$standard_base@_WV?$stream_output_adapter@_W@__crt_stdio_output@@@__crt_stdio_output@@IAE_NAA_J@Z 100460b0 f i libucrtd:output.obj
 0001:000450e0       ??$extract_argument_from_va_list@H_J@?$standard_base@_WV?$string_output_adapter@_W@__crt_stdio_output@@@__crt_stdio_output@@IAE_NAA_J@Z 100460e0 f i libucrtd:output.obj
 0001:00045110       ??$extract_argument_from_va_list@I_J@?$positional_parameter_base@DV?$stream_output_adapter@D@__crt_stdio_output@@@__crt_stdio_output@@IAE_NAA_J@Z 10046110 f i libucrtd:output.obj
 0001:00045240       ??$extract_argument_from_va_list@I_J@?$positional_parameter_base@DV?$string_output_adapter@D@__crt_stdio_output@@@__crt_stdio_output@@IAE_NAA_J@Z 10046240 f i libucrtd:output.obj
 0001:00045370       ??$extract_argument_from_va_list@I_J@?$positional_parameter_base@_WV?$stream_output_adapter@_W@__crt_stdio_output@@@__crt_stdio_output@@IAE_NAA_J@Z 10046370 f i libucrtd:output.obj
 0001:000454a0       ??$extract_argument_from_va_list@I_J@?$positional_parameter_base@_WV?$string_output_adapter@_W@__crt_stdio_output@@@__crt_stdio_output@@IAE_NAA_J@Z 100464a0 f i libucrtd:output.obj
 0001:000455d0       ??$extract_argument_from_va_list@I_J@?$standard_base@DV?$stream_output_adapter@D@__crt_stdio_output@@@__crt_stdio_output@@IAE_NAA_J@Z 100465d0 f i libucrtd:output.obj
 0001:00045600       ??$extract_argument_from_va_list@I_J@?$standard_base@DV?$string_output_adapter@D@__crt_stdio_output@@@__crt_stdio_output@@IAE_NAA_J@Z 10046600 f i libucrtd:output.obj
 0001:00045630       ??$extract_argument_from_va_list@I_J@?$standard_base@_WV?$stream_output_adapter@_W@__crt_stdio_output@@@__crt_stdio_output@@IAE_NAA_J@Z 10046630 f i libucrtd:output.obj
 0001:00045660       ??$extract_argument_from_va_list@I_J@?$standard_base@_WV?$string_output_adapter@_W@__crt_stdio_output@@@__crt_stdio_output@@IAE_NAA_J@Z 10046660 f i libucrtd:output.obj
 0001:00045690       ??$extract_argument_from_va_list@PADPAD@?$positional_parameter_base@DV?$stream_output_adapter@D@__crt_stdio_output@@@__crt_stdio_output@@IAE_NAAPAD@Z 10046690 f i libucrtd:output.obj
 0001:000457c0       ??$extract_argument_from_va_list@PADPAD@?$positional_parameter_base@DV?$string_output_adapter@D@__crt_stdio_output@@@__crt_stdio_output@@IAE_NAAPAD@Z 100467c0 f i libucrtd:output.obj
 0001:000458f0       ??$extract_argument_from_va_list@PADPAD@?$positional_parameter_base@_WV?$stream_output_adapter@_W@__crt_stdio_output@@@__crt_stdio_output@@IAE_NAAPAD@Z 100468f0 f i libucrtd:output.obj
 0001:00045a20       ??$extract_argument_from_va_list@PADPAD@?$positional_parameter_base@_WV?$string_output_adapter@_W@__crt_stdio_output@@@__crt_stdio_output@@IAE_NAAPAD@Z 10046a20 f i libucrtd:output.obj
 0001:00045b50       ??$extract_argument_from_va_list@PADPAD@?$standard_base@DV?$stream_output_adapter@D@__crt_stdio_output@@@__crt_stdio_output@@IAE_NAAPAD@Z 10046b50 f i libucrtd:output.obj
 0001:00045b80       ??$extract_argument_from_va_list@PADPAD@?$standard_base@DV?$string_output_adapter@D@__crt_stdio_output@@@__crt_stdio_output@@IAE_NAAPAD@Z 10046b80 f i libucrtd:output.obj
 0001:00045bb0       ??$extract_argument_from_va_list@PADPAD@?$standard_base@_WV?$stream_output_adapter@_W@__crt_stdio_output@@@__crt_stdio_output@@IAE_NAAPAD@Z 10046bb0 f i libucrtd:output.obj
 0001:00045be0       ??$extract_argument_from_va_list@PADPAD@?$standard_base@_WV?$string_output_adapter@_W@__crt_stdio_output@@@__crt_stdio_output@@IAE_NAAPAD@Z 10046be0 f i libucrtd:output.obj
 0001:00045c10       ??$extract_argument_from_va_list@PAUansi_string@?1??type_case_Z@?$output_processor@DV?$stream_output_adapter@D@__crt_stdio_output@@V?$format_validation_base@DV?$stream_output_adapter@D@__crt_stdio_output@@@2@@__crt_stdio_output@@AAE_NXZ@PAU1?1??234@AAE_NXZ@@?$standard_base@DV?$stream_output_adapter@D@__crt_stdio_output@@@__crt_stdio_output@@IAE_NAAPAUansi_string@?1??type_case_Z@?$output_processor@DV?$stream_output_adapter@D@__crt_stdio_output@@V?$format_validation_base@DV?$stream_output_adapter@D@__crt_stdio_output@@@2@@1@AAE_NXZ@@Z 10046c10 f i libucrtd:output.obj
 0001:00045c40       ??$extract_argument_from_va_list@PAUansi_string@?1??type_case_Z@?$output_processor@DV?$stream_output_adapter@D@__crt_stdio_output@@V?$positional_parameter_base@DV?$stream_output_adapter@D@__crt_stdio_output@@@2@@__crt_stdio_output@@AAE_NXZ@PAU1?1??234@AAE_NXZ@@?$positional_parameter_base@DV?$stream_output_adapter@D@__crt_stdio_output@@@__crt_stdio_output@@IAE_NAAPAUansi_string@?1??type_case_Z@?$output_processor@DV?$stream_output_adapter@D@__crt_stdio_output@@V?$positional_parameter_base@DV?$stream_output_adapter@D@__crt_stdio_output@@@2@@1@AAE_NXZ@@Z 10046c40 f i libucrtd:output.obj
 0001:00045d70       ??$extract_argument_from_va_list@PAUansi_string@?1??type_case_Z@?$output_processor@DV?$stream_output_adapter@D@__crt_stdio_output@@V?$positional_parameter_base@DV?$stream_output_adapter@D@__crt_stdio_output@@@2@@__crt_stdio_output@@AAE_NXZ@PAU1?1??234@AAE_NXZ@@?$standard_base@DV?$stream_output_adapter@D@__crt_stdio_output@@@__crt_stdio_output@@IAE_NAAPAUansi_string@?1??type_case_Z@?$output_processor@DV?$stream_output_adapter@D@__crt_stdio_output@@V?$positional_parameter_base@DV?$stream_output_adapter@D@__crt_stdio_output@@@2@@1@AAE_NXZ@@Z 10046d70 f i libucrtd:output.obj
 0001:00045da0       ??$extract_argument_from_va_list@PAUansi_string@?1??type_case_Z@?$output_processor@DV?$stream_output_adapter@D@__crt_stdio_output@@V?$standard_base@DV?$stream_output_adapter@D@__crt_stdio_output@@@2@@__crt_stdio_output@@AAE_NXZ@PAU1?1??234@AAE_NXZ@@?$standard_base@DV?$stream_output_adapter@D@__crt_stdio_output@@@__crt_stdio_output@@IAE_NAAPAUansi_string@?1??type_case_Z@?$output_processor@DV?$stream_output_adapter@D@__crt_stdio_output@@V?$standard_base@DV?$stream_output_adapter@D@__crt_stdio_output@@@2@@1@AAE_NXZ@@Z 10046da0 f i libucrtd:output.obj
 0001:00045dd0       ??$extract_argument_from_va_list@PAUansi_string@?1??type_case_Z@?$output_processor@DV?$string_output_adapter@D@__crt_stdio_output@@V?$format_validation_base@DV?$string_output_adapter@D@__crt_stdio_output@@@2@@__crt_stdio_output@@AAE_NXZ@PAU1?1??234@AAE_NXZ@@?$standard_base@DV?$string_output_adapter@D@__crt_stdio_output@@@__crt_stdio_output@@IAE_NAAPAUansi_string@?1??type_case_Z@?$output_processor@DV?$string_output_adapter@D@__crt_stdio_output@@V?$format_validation_base@DV?$string_output_adapter@D@__crt_stdio_output@@@2@@1@AAE_NXZ@@Z 10046dd0 f i libucrtd:output.obj
 0001:00045e00       ??$extract_argument_from_va_list@PAUansi_string@?1??type_case_Z@?$output_processor@DV?$string_output_adapter@D@__crt_stdio_output@@V?$positional_parameter_base@DV?$string_output_adapter@D@__crt_stdio_output@@@2@@__crt_stdio_output@@AAE_NXZ@PAU1?1??234@AAE_NXZ@@?$positional_parameter_base@DV?$string_output_adapter@D@__crt_stdio_output@@@__crt_stdio_output@@IAE_NAAPAUansi_string@?1??type_case_Z@?$output_processor@DV?$string_output_adapter@D@__crt_stdio_output@@V?$positional_parameter_base@DV?$string_output_adapter@D@__crt_stdio_output@@@2@@1@AAE_NXZ@@Z 10046e00 f i libucrtd:output.obj
 0001:00045f30       ??$extract_argument_from_va_list@PAUansi_string@?1??type_case_Z@?$output_processor@DV?$string_output_adapter@D@__crt_stdio_output@@V?$positional_parameter_base@DV?$string_output_adapter@D@__crt_stdio_output@@@2@@__crt_stdio_output@@AAE_NXZ@PAU1?1??234@AAE_NXZ@@?$standard_base@DV?$string_output_adapter@D@__crt_stdio_output@@@__crt_stdio_output@@IAE_NAAPAUansi_string@?1??type_case_Z@?$output_processor@DV?$string_output_adapter@D@__crt_stdio_output@@V?$positional_parameter_base@DV?$string_output_adapter@D@__crt_stdio_output@@@2@@1@AAE_NXZ@@Z 10046f30 f i libucrtd:output.obj
 0001:00045f60       ??$extract_argument_from_va_list@PAUansi_string@?1??type_case_Z@?$output_processor@DV?$string_output_adapter@D@__crt_stdio_output@@V?$standard_base@DV?$string_output_adapter@D@__crt_stdio_output@@@2@@__crt_stdio_output@@AAE_NXZ@PAU1?1??234@AAE_NXZ@@?$standard_base@DV?$string_output_adapter@D@__crt_stdio_output@@@__crt_stdio_output@@IAE_NAAPAUansi_string@?1??type_case_Z@?$output_processor@DV?$string_output_adapter@D@__crt_stdio_output@@V?$standard_base@DV?$string_output_adapter@D@__crt_stdio_output@@@2@@1@AAE_NXZ@@Z 10046f60 f i libucrtd:output.obj
 0001:00045f90       ??$extract_argument_from_va_list@PAUansi_string@?1??type_case_Z@?$output_processor@_WV?$stream_output_adapter@_W@__crt_stdio_output@@V?$format_validation_base@_WV?$stream_output_adapter@_W@__crt_stdio_output@@@2@@__crt_stdio_output@@AAE_NXZ@PAU1?1??234@AAE_NXZ@@?$standard_base@_WV?$stream_output_adapter@_W@__crt_stdio_output@@@__crt_stdio_output@@IAE_NAAPAUansi_string@?1??type_case_Z@?$output_processor@_WV?$stream_output_adapter@_W@__crt_stdio_output@@V?$format_validation_base@_WV?$stream_output_adapter@_W@__crt_stdio_output@@@2@@1@AAE_NXZ@@Z 10046f90 f i libucrtd:output.obj
 0001:00045fc0       ??$extract_argument_from_va_list@PAUansi_string@?1??type_case_Z@?$output_processor@_WV?$stream_output_adapter@_W@__crt_stdio_output@@V?$positional_parameter_base@_WV?$stream_output_adapter@_W@__crt_stdio_output@@@2@@__crt_stdio_output@@AAE_NXZ@PAU1?1??234@AAE_NXZ@@?$positional_parameter_base@_WV?$stream_output_adapter@_W@__crt_stdio_output@@@__crt_stdio_output@@IAE_NAAPAUansi_string@?1??type_case_Z@?$output_processor@_WV?$stream_output_adapter@_W@__crt_stdio_output@@V?$positional_parameter_base@_WV?$stream_output_adapter@_W@__crt_stdio_output@@@2@@1@AAE_NXZ@@Z 10046fc0 f i libucrtd:output.obj
 0001:000460f0       ??$extract_argument_from_va_list@PAUansi_string@?1??type_case_Z@?$output_processor@_WV?$stream_output_adapter@_W@__crt_stdio_output@@V?$positional_parameter_base@_WV?$stream_output_adapter@_W@__crt_stdio_output@@@2@@__crt_stdio_output@@AAE_NXZ@PAU1?1??234@AAE_NXZ@@?$standard_base@_WV?$stream_output_adapter@_W@__crt_stdio_output@@@__crt_stdio_output@@IAE_NAAPAUansi_string@?1??type_case_Z@?$output_processor@_WV?$stream_output_adapter@_W@__crt_stdio_output@@V?$positional_parameter_base@_WV?$stream_output_adapter@_W@__crt_stdio_output@@@2@@1@AAE_NXZ@@Z 100470f0 f i libucrtd:output.obj
 0001:00046120       ??$extract_argument_from_va_list@PAUansi_string@?1??type_case_Z@?$output_processor@_WV?$stream_output_adapter@_W@__crt_stdio_output@@V?$standard_base@_WV?$stream_output_adapter@_W@__crt_stdio_output@@@2@@__crt_stdio_output@@AAE_NXZ@PAU1?1??234@AAE_NXZ@@?$standard_base@_WV?$stream_output_adapter@_W@__crt_stdio_output@@@__crt_stdio_output@@IAE_NAAPAUansi_string@?1??type_case_Z@?$output_processor@_WV?$stream_output_adapter@_W@__crt_stdio_output@@V?$standard_base@_WV?$stream_output_adapter@_W@__crt_stdio_output@@@2@@1@AAE_NXZ@@Z 10047120 f i libucrtd:output.obj
 0001:00046150       ??$extract_argument_from_va_list@PAUansi_string@?1??type_case_Z@?$output_processor@_WV?$string_output_adapter@_W@__crt_stdio_output@@V?$format_validation_base@_WV?$string_output_adapter@_W@__crt_stdio_output@@@2@@__crt_stdio_output@@AAE_NXZ@PAU1?1??234@AAE_NXZ@@?$standard_base@_WV?$string_output_adapter@_W@__crt_stdio_output@@@__crt_stdio_output@@IAE_NAAPAUansi_string@?1??type_case_Z@?$output_processor@_WV?$string_output_adapter@_W@__crt_stdio_output@@V?$format_validation_base@_WV?$string_output_adapter@_W@__crt_stdio_output@@@2@@1@AAE_NXZ@@Z 10047150 f i libucrtd:output.obj
 0001:00046180       ??$extract_argument_from_va_list@PAUansi_string@?1??type_case_Z@?$output_processor@_WV?$string_output_adapter@_W@__crt_stdio_output@@V?$positional_parameter_base@_WV?$string_output_adapter@_W@__crt_stdio_output@@@2@@__crt_stdio_output@@AAE_NXZ@PAU1?1??234@AAE_NXZ@@?$positional_parameter_base@_WV?$string_output_adapter@_W@__crt_stdio_output@@@__crt_stdio_output@@IAE_NAAPAUansi_string@?1??type_case_Z@?$output_processor@_WV?$string_output_adapter@_W@__crt_stdio_output@@V?$positional_parameter_base@_WV?$string_output_adapter@_W@__crt_stdio_output@@@2@@1@AAE_NXZ@@Z 10047180 f i libucrtd:output.obj
 0001:000462b0       ??$extract_argument_from_va_list@PAUansi_string@?1??type_case_Z@?$output_processor@_WV?$string_output_adapter@_W@__crt_stdio_output@@V?$positional_parameter_base@_WV?$string_output_adapter@_W@__crt_stdio_output@@@2@@__crt_stdio_output@@AAE_NXZ@PAU1?1??234@AAE_NXZ@@?$standard_base@_WV?$string_output_adapter@_W@__crt_stdio_output@@@__crt_stdio_output@@IAE_NAAPAUansi_string@?1??type_case_Z@?$output_processor@_WV?$string_output_adapter@_W@__crt_stdio_output@@V?$positional_parameter_base@_WV?$string_output_adapter@_W@__crt_stdio_output@@@2@@1@AAE_NXZ@@Z 100472b0 f i libucrtd:output.obj
 0001:000462e0       ??$extract_argument_from_va_list@PAUansi_string@?1??type_case_Z@?$output_processor@_WV?$string_output_adapter@_W@__crt_stdio_output@@V?$standard_base@_WV?$string_output_adapter@_W@__crt_stdio_output@@@2@@__crt_stdio_output@@AAE_NXZ@PAU1?1??234@AAE_NXZ@@?$standard_base@_WV?$string_output_adapter@_W@__crt_stdio_output@@@__crt_stdio_output@@IAE_NAAPAUansi_string@?1??type_case_Z@?$output_processor@_WV?$string_output_adapter@_W@__crt_stdio_output@@V?$standard_base@_WV?$string_output_adapter@_W@__crt_stdio_output@@@2@@1@AAE_NXZ@@Z 100472e0 f i libucrtd:output.obj
 0001:00046310       ??$extract_argument_from_va_list@PAXPAX@?$positional_parameter_base@DV?$stream_output_adapter@D@__crt_stdio_output@@@__crt_stdio_output@@IAE_NAAPAX@Z 10047310 f i libucrtd:output.obj
 0001:00046440       ??$extract_argument_from_va_list@PAXPAX@?$positional_parameter_base@DV?$string_output_adapter@D@__crt_stdio_output@@@__crt_stdio_output@@IAE_NAAPAX@Z 10047440 f i libucrtd:output.obj
 0001:00046570       ??$extract_argument_from_va_list@PAXPAX@?$positional_parameter_base@_WV?$stream_output_adapter@_W@__crt_stdio_output@@@__crt_stdio_output@@IAE_NAAPAX@Z 10047570 f i libucrtd:output.obj
 0001:000466a0       ??$extract_argument_from_va_list@PAXPAX@?$positional_parameter_base@_WV?$string_output_adapter@_W@__crt_stdio_output@@@__crt_stdio_output@@IAE_NAAPAX@Z 100476a0 f i libucrtd:output.obj
 0001:000467d0       ??$extract_argument_from_va_list@PAXPAX@?$standard_base@DV?$stream_output_adapter@D@__crt_stdio_output@@@__crt_stdio_output@@IAE_NAAPAX@Z 100477d0 f i libucrtd:output.obj
 0001:00046800       ??$extract_argument_from_va_list@PAXPAX@?$standard_base@DV?$string_output_adapter@D@__crt_stdio_output@@@__crt_stdio_output@@IAE_NAAPAX@Z 10047800 f i libucrtd:output.obj
 0001:00046830       ??$extract_argument_from_va_list@PAXPAX@?$standard_base@_WV?$stream_output_adapter@_W@__crt_stdio_output@@@__crt_stdio_output@@IAE_NAAPAX@Z 10047830 f i libucrtd:output.obj
 0001:00046860       ??$extract_argument_from_va_list@PAXPAX@?$standard_base@_WV?$string_output_adapter@_W@__crt_stdio_output@@@__crt_stdio_output@@IAE_NAAPAX@Z 10047860 f i libucrtd:output.obj
 0001:00046890       ??$extract_argument_from_va_list@U_CRT_DOUBLE@@U1@@?$positional_parameter_base@DV?$stream_output_adapter@D@__crt_stdio_output@@@__crt_stdio_output@@IAE_NAAU_CRT_DOUBLE@@@Z 10047890 f i libucrtd:output.obj
 0001:000469f0       ??$extract_argument_from_va_list@U_CRT_DOUBLE@@U1@@?$positional_parameter_base@DV?$string_output_adapter@D@__crt_stdio_output@@@__crt_stdio_output@@IAE_NAAU_CRT_DOUBLE@@@Z 100479f0 f i libucrtd:output.obj
 0001:00046b50       ??$extract_argument_from_va_list@U_CRT_DOUBLE@@U1@@?$positional_parameter_base@_WV?$stream_output_adapter@_W@__crt_stdio_output@@@__crt_stdio_output@@IAE_NAAU_CRT_DOUBLE@@@Z 10047b50 f i libucrtd:output.obj
 0001:00046cb0       ??$extract_argument_from_va_list@U_CRT_DOUBLE@@U1@@?$positional_parameter_base@_WV?$string_output_adapter@_W@__crt_stdio_output@@@__crt_stdio_output@@IAE_NAAU_CRT_DOUBLE@@@Z 10047cb0 f i libucrtd:output.obj
 0001:00046e10       ??$extract_argument_from_va_list@U_CRT_DOUBLE@@U1@@?$standard_base@DV?$stream_output_adapter@D@__crt_stdio_output@@@__crt_stdio_output@@IAE_NAAU_CRT_DOUBLE@@@Z 10047e10 f i libucrtd:output.obj
 0001:00046e60       ??$extract_argument_from_va_list@U_CRT_DOUBLE@@U1@@?$standard_base@DV?$string_output_adapter@D@__crt_stdio_output@@@__crt_stdio_output@@IAE_NAAU_CRT_DOUBLE@@@Z 10047e60 f i libucrtd:output.obj
 0001:00046eb0       ??$extract_argument_from_va_list@U_CRT_DOUBLE@@U1@@?$standard_base@_WV?$stream_output_adapter@_W@__crt_stdio_output@@@__crt_stdio_output@@IAE_NAAU_CRT_DOUBLE@@@Z 10047eb0 f i libucrtd:output.obj
 0001:00046f00       ??$extract_argument_from_va_list@U_CRT_DOUBLE@@U1@@?$standard_base@_WV?$string_output_adapter@_W@__crt_stdio_output@@@__crt_stdio_output@@IAE_NAAU_CRT_DOUBLE@@@Z 10047f00 f i libucrtd:output.obj
 0001:00046f50       ??$extract_argument_from_va_list@_J_J@?$positional_parameter_base@DV?$stream_output_adapter@D@__crt_stdio_output@@@__crt_stdio_output@@IAE_NAA_J@Z 10047f50 f i libucrtd:output.obj
 0001:00047080       ??$extract_argument_from_va_list@_J_J@?$positional_parameter_base@DV?$string_output_adapter@D@__crt_stdio_output@@@__crt_stdio_output@@IAE_NAA_J@Z 10048080 f i libucrtd:output.obj
 0001:000471b0       ??$extract_argument_from_va_list@_J_J@?$positional_parameter_base@_WV?$stream_output_adapter@_W@__crt_stdio_output@@@__crt_stdio_output@@IAE_NAA_J@Z 100481b0 f i libucrtd:output.obj
 0001:000472e0       ??$extract_argument_from_va_list@_J_J@?$positional_parameter_base@_WV?$string_output_adapter@_W@__crt_stdio_output@@@__crt_stdio_output@@IAE_NAA_J@Z 100482e0 f i libucrtd:output.obj
 0001:00047410       ??$extract_argument_from_va_list@_J_J@?$standard_base@DV?$stream_output_adapter@D@__crt_stdio_output@@@__crt_stdio_output@@IAE_NAA_J@Z 10048410 f i libucrtd:output.obj
 0001:00047440       ??$extract_argument_from_va_list@_J_J@?$standard_base@DV?$string_output_adapter@D@__crt_stdio_output@@@__crt_stdio_output@@IAE_NAA_J@Z 10048440 f i libucrtd:output.obj
 0001:00047470       ??$extract_argument_from_va_list@_J_J@?$standard_base@_WV?$stream_output_adapter@_W@__crt_stdio_output@@@__crt_stdio_output@@IAE_NAA_J@Z 10048470 f i libucrtd:output.obj
 0001:000474a0       ??$extract_argument_from_va_list@_J_J@?$standard_base@_WV?$string_output_adapter@_W@__crt_stdio_output@@@__crt_stdio_output@@IAE_NAA_J@Z 100484a0 f i libucrtd:output.obj
 0001:000474d0       ??$extract_argument_from_va_list@_K_J@?$positional_parameter_base@DV?$stream_output_adapter@D@__crt_stdio_output@@@__crt_stdio_output@@IAE_NAA_J@Z 100484d0 f i libucrtd:output.obj
 0001:00047600       ??$extract_argument_from_va_list@_K_J@?$positional_parameter_base@DV?$string_output_adapter@D@__crt_stdio_output@@@__crt_stdio_output@@IAE_NAA_J@Z 10048600 f i libucrtd:output.obj
 0001:00047730       ??$extract_argument_from_va_list@_K_J@?$positional_parameter_base@_WV?$stream_output_adapter@_W@__crt_stdio_output@@@__crt_stdio_output@@IAE_NAA_J@Z 10048730 f i libucrtd:output.obj
 0001:00047860       ??$extract_argument_from_va_list@_K_J@?$positional_parameter_base@_WV?$string_output_adapter@_W@__crt_stdio_output@@@__crt_stdio_output@@IAE_NAA_J@Z 10048860 f i libucrtd:output.obj
 0001:00047990       ??$extract_argument_from_va_list@_K_J@?$standard_base@DV?$stream_output_adapter@D@__crt_stdio_output@@@__crt_stdio_output@@IAE_NAA_J@Z 10048990 f i libucrtd:output.obj
 0001:000479c0       ??$extract_argument_from_va_list@_K_J@?$standard_base@DV?$string_output_adapter@D@__crt_stdio_output@@@__crt_stdio_output@@IAE_NAA_J@Z 100489c0 f i libucrtd:output.obj
 0001:000479f0       ??$extract_argument_from_va_list@_K_J@?$standard_base@_WV?$stream_output_adapter@_W@__crt_stdio_output@@@__crt_stdio_output@@IAE_NAA_J@Z 100489f0 f i libucrtd:output.obj
 0001:00047a20       ??$extract_argument_from_va_list@_K_J@?$standard_base@_WV?$string_output_adapter@_W@__crt_stdio_output@@@__crt_stdio_output@@IAE_NAA_J@Z 10048a20 f i libucrtd:output.obj
 0001:00047a50       ??$extract_argument_from_va_list@_W_W@?$positional_parameter_base@DV?$stream_output_adapter@D@__crt_stdio_output@@@__crt_stdio_output@@IAE_NAA_W@Z 10048a50 f i libucrtd:output.obj
 0001:00047b80       ??$extract_argument_from_va_list@_W_W@?$positional_parameter_base@DV?$string_output_adapter@D@__crt_stdio_output@@@__crt_stdio_output@@IAE_NAA_W@Z 10048b80 f i libucrtd:output.obj
 0001:00047cb0       ??$extract_argument_from_va_list@_W_W@?$positional_parameter_base@_WV?$stream_output_adapter@_W@__crt_stdio_output@@@__crt_stdio_output@@IAE_NAA_W@Z 10048cb0 f i libucrtd:output.obj
 0001:00047de0       ??$extract_argument_from_va_list@_W_W@?$positional_parameter_base@_WV?$string_output_adapter@_W@__crt_stdio_output@@@__crt_stdio_output@@IAE_NAA_W@Z 10048de0 f i libucrtd:output.obj
 0001:00047f10       ??$extract_argument_from_va_list@_W_W@?$standard_base@DV?$stream_output_adapter@D@__crt_stdio_output@@@__crt_stdio_output@@IAE_NAA_W@Z 10048f10 f i libucrtd:output.obj
 0001:00047f40       ??$extract_argument_from_va_list@_W_W@?$standard_base@DV?$string_output_adapter@D@__crt_stdio_output@@@__crt_stdio_output@@IAE_NAA_W@Z 10048f40 f i libucrtd:output.obj
 0001:00047f70       ??$extract_argument_from_va_list@_W_W@?$standard_base@_WV?$stream_output_adapter@_W@__crt_stdio_output@@@__crt_stdio_output@@IAE_NAA_W@Z 10048f70 f i libucrtd:output.obj
 0001:00047fa0       ??$extract_argument_from_va_list@_W_W@?$standard_base@_WV?$string_output_adapter@_W@__crt_stdio_output@@@__crt_stdio_output@@IAE_NAA_W@Z 10048fa0 f i libucrtd:output.obj
 0001:00047fd0       ??$get_parameter_type@D@?$positional_parameter_base@DV?$stream_output_adapter@D@__crt_stdio_output@@@__crt_stdio_output@@CA?AW4parameter_type@01@PAD@Z 10048fd0 f i libucrtd:output.obj
 0001:00047fe0       ??$get_parameter_type@D@?$positional_parameter_base@DV?$string_output_adapter@D@__crt_stdio_output@@@__crt_stdio_output@@CA?AW4parameter_type@01@PAD@Z 10048fe0 f i libucrtd:output.obj
 0001:00047ff0       ??$get_parameter_type@D@?$positional_parameter_base@_WV?$stream_output_adapter@_W@__crt_stdio_output@@@__crt_stdio_output@@CA?AW4parameter_type@01@PAD@Z 10048ff0 f i libucrtd:output.obj
 0001:00048000       ??$get_parameter_type@D@?$positional_parameter_base@_WV?$string_output_adapter@_W@__crt_stdio_output@@@__crt_stdio_output@@CA?AW4parameter_type@01@PAD@Z 10049000 f i libucrtd:output.obj
 0001:00048010       ??$get_parameter_type@Uansi_string@?1??type_case_Z@?$output_processor@DV?$stream_output_adapter@D@__crt_stdio_output@@V?$positional_parameter_base@DV?$stream_output_adapter@D@__crt_stdio_output@@@2@@__crt_stdio_output@@AAE_NXZ@@?$positional_parameter_base@DV?$stream_output_adapter@D@__crt_stdio_output@@@__crt_stdio_output@@CA?AW4parameter_type@01@PAUansi_string@?1??type_case_Z@?$output_processor@DV?$stream_output_adapter@D@__crt_stdio_output@@V?$positional_parameter_base@DV?$stream_output_adapter@D@__crt_stdio_output@@@2@@1@AAE_NXZ@@Z 10049010 f i libucrtd:output.obj
 0001:00048020       ??$get_parameter_type@Uansi_string@?1??type_case_Z@?$output_processor@DV?$string_output_adapter@D@__crt_stdio_output@@V?$positional_parameter_base@DV?$string_output_adapter@D@__crt_stdio_output@@@2@@__crt_stdio_output@@AAE_NXZ@@?$positional_parameter_base@DV?$string_output_adapter@D@__crt_stdio_output@@@__crt_stdio_output@@CA?AW4parameter_type@01@PAUansi_string@?1??type_case_Z@?$output_processor@DV?$string_output_adapter@D@__crt_stdio_output@@V?$positional_parameter_base@DV?$string_output_adapter@D@__crt_stdio_output@@@2@@1@AAE_NXZ@@Z 10049020 f i libucrtd:output.obj
 0001:00048030       ??$get_parameter_type@Uansi_string@?1??type_case_Z@?$output_processor@_WV?$stream_output_adapter@_W@__crt_stdio_output@@V?$positional_parameter_base@_WV?$stream_output_adapter@_W@__crt_stdio_output@@@2@@__crt_stdio_output@@AAE_NXZ@@?$positional_parameter_base@_WV?$stream_output_adapter@_W@__crt_stdio_output@@@__crt_stdio_output@@CA?AW4parameter_type@01@PAUansi_string@?1??type_case_Z@?$output_processor@_WV?$stream_output_adapter@_W@__crt_stdio_output@@V?$positional_parameter_base@_WV?$stream_output_adapter@_W@__crt_stdio_output@@@2@@1@AAE_NXZ@@Z 10049030 f i libucrtd:output.obj
 0001:00048040       ??$get_parameter_type@Uansi_string@?1??type_case_Z@?$output_processor@_WV?$string_output_adapter@_W@__crt_stdio_output@@V?$positional_parameter_base@_WV?$string_output_adapter@_W@__crt_stdio_output@@@2@@__crt_stdio_output@@AAE_NXZ@@?$positional_parameter_base@_WV?$string_output_adapter@_W@__crt_stdio_output@@@__crt_stdio_output@@CA?AW4parameter_type@01@PAUansi_string@?1??type_case_Z@?$output_processor@_WV?$string_output_adapter@_W@__crt_stdio_output@@V?$positional_parameter_base@_WV?$string_output_adapter@_W@__crt_stdio_output@@@2@@1@AAE_NXZ@@Z 10049040 f i libucrtd:output.obj
 0001:00048050       ??$get_parameter_type@X@?$positional_parameter_base@DV?$stream_output_adapter@D@__crt_stdio_output@@@__crt_stdio_output@@CA?AW4parameter_type@01@PAX@Z 10049050 f i libucrtd:output.obj
 0001:00048060       ??$get_parameter_type@X@?$positional_parameter_base@DV?$string_output_adapter@D@__crt_stdio_output@@@__crt_stdio_output@@CA?AW4parameter_type@01@PAX@Z 10049060 f i libucrtd:output.obj
 0001:00048070       ??$get_parameter_type@X@?$positional_parameter_base@_WV?$stream_output_adapter@_W@__crt_stdio_output@@@__crt_stdio_output@@CA?AW4parameter_type@01@PAX@Z 10049070 f i libucrtd:output.obj
 0001:00048080       ??$get_parameter_type@X@?$positional_parameter_base@_WV?$string_output_adapter@_W@__crt_stdio_output@@@__crt_stdio_output@@CA?AW4parameter_type@01@PAX@Z 10049080 f i libucrtd:output.obj
 0001:00048090       ??$is_character_specifier@D@?$positional_parameter_base@DV?$stream_output_adapter@D@__crt_stdio_output@@@__crt_stdio_output@@CA_ND@Z 10049090 f i libucrtd:output.obj
 0001:000480c0       ??$is_character_specifier@D@?$positional_parameter_base@DV?$string_output_adapter@D@__crt_stdio_output@@@__crt_stdio_output@@CA_ND@Z 100490c0 f i libucrtd:output.obj
 0001:000480f0       ??$is_character_specifier@_W@?$positional_parameter_base@_WV?$stream_output_adapter@_W@__crt_stdio_output@@@__crt_stdio_output@@CA_N_W@Z 100490f0 f i libucrtd:output.obj
 0001:00048120       ??$is_character_specifier@_W@?$positional_parameter_base@_WV?$string_output_adapter@_W@__crt_stdio_output@@@__crt_stdio_output@@CA_N_W@Z 10049120 f i libucrtd:output.obj
 0001:00048150       ??$is_integral_specifier@D@?$positional_parameter_base@DV?$stream_output_adapter@D@__crt_stdio_output@@@__crt_stdio_output@@CA_ND@Z 10049150 f i libucrtd:output.obj
 0001:000481b0       ??$is_integral_specifier@D@?$positional_parameter_base@DV?$string_output_adapter@D@__crt_stdio_output@@@__crt_stdio_output@@CA_ND@Z 100491b0 f i libucrtd:output.obj
 0001:00048210       ??$is_integral_specifier@_W@?$positional_parameter_base@_WV?$stream_output_adapter@_W@__crt_stdio_output@@@__crt_stdio_output@@CA_N_W@Z 10049210 f i libucrtd:output.obj
 0001:00048270       ??$is_integral_specifier@_W@?$positional_parameter_base@_WV?$string_output_adapter@_W@__crt_stdio_output@@@__crt_stdio_output@@CA_N_W@Z 10049270 f i libucrtd:output.obj
 0001:000482d0       ??$is_pointer_specifier@D@?$positional_parameter_base@DV?$stream_output_adapter@D@__crt_stdio_output@@@__crt_stdio_output@@CA_ND@Z 100492d0 f i libucrtd:output.obj
 0001:00048300       ??$is_pointer_specifier@D@?$positional_parameter_base@DV?$string_output_adapter@D@__crt_stdio_output@@@__crt_stdio_output@@CA_ND@Z 10049300 f i libucrtd:output.obj
 0001:00048330       ??$is_pointer_specifier@_W@?$positional_parameter_base@_WV?$stream_output_adapter@_W@__crt_stdio_output@@@__crt_stdio_output@@CA_N_W@Z 10049330 f i libucrtd:output.obj
 0001:00048360       ??$is_pointer_specifier@_W@?$positional_parameter_base@_WV?$string_output_adapter@_W@__crt_stdio_output@@@__crt_stdio_output@@CA_N_W@Z 10049360 f i libucrtd:output.obj
 0001:00048390       ??$is_string_specifier@D@?$positional_parameter_base@DV?$stream_output_adapter@D@__crt_stdio_output@@@__crt_stdio_output@@CA_ND@Z 10049390 f i libucrtd:output.obj
 0001:000483c0       ??$is_string_specifier@D@?$positional_parameter_base@DV?$string_output_adapter@D@__crt_stdio_output@@@__crt_stdio_output@@CA_ND@Z 100493c0 f i libucrtd:output.obj
 0001:000483f0       ??$is_string_specifier@_W@?$positional_parameter_base@_WV?$stream_output_adapter@_W@__crt_stdio_output@@@__crt_stdio_output@@CA_N_W@Z 100493f0 f i libucrtd:output.obj
 0001:00048420       ??$is_string_specifier@_W@?$positional_parameter_base@_WV?$string_output_adapter@_W@__crt_stdio_output@@@__crt_stdio_output@@CA_N_W@Z 10049420 f i libucrtd:output.obj
 0001:00048450       ??$is_wide_character_specifier@D@__crt_stdio_output@@YA_N_KDW4length_modifier@0@@Z 10049450 f i libucrtd:output.obj
 0001:000484d0       ??$is_wide_character_specifier@_W@__crt_stdio_output@@YA_N_K_WW4length_modifier@0@@Z 100494d0 f i libucrtd:output.obj
 0001:00048590       ??$peek_va_arg@C@__crt_stdio_output@@YACPAD@Z 10049590 f i libucrtd:output.obj
 0001:000485b0       ??$peek_va_arg@E@__crt_stdio_output@@YAEPAD@Z 100495b0 f i libucrtd:output.obj
 0001:000485d0       ??$peek_va_arg@F@__crt_stdio_output@@YAFPAD@Z 100495d0 f i libucrtd:output.obj
 0001:000485f0       ??$peek_va_arg@G@__crt_stdio_output@@YAGPAD@Z 100495f0 f i libucrtd:output.obj
 0001:00048610       ??$peek_va_arg@H@__crt_stdio_output@@YAHPAD@Z 10049610 f i libucrtd:output.obj
 0001:00048630       ??$peek_va_arg@I@__crt_stdio_output@@YAIPAD@Z 10049630 f i libucrtd:output.obj
 0001:00048650       ??$peek_va_arg@PAD@__crt_stdio_output@@YAPADPAD@Z 10049650 f i libucrtd:output.obj
 0001:00048670       ??$peek_va_arg@PAUansi_string@?1??type_case_Z@?$output_processor@DV?$stream_output_adapter@D@__crt_stdio_output@@V?$positional_parameter_base@DV?$stream_output_adapter@D@__crt_stdio_output@@@2@@__crt_stdio_output@@AAE_NXZ@@__crt_stdio_output@@YAPAUansi_string@?1??type_case_Z@?$output_processor@DV?$stream_output_adapter@D@__crt_stdio_output@@V?$positional_parameter_base@DV?$stream_output_adapter@D@__crt_stdio_output@@@2@@0@AAE_NXZ@PAD@Z 10049670 f i libucrtd:output.obj
 0001:00048690       ??$peek_va_arg@PAUansi_string@?1??type_case_Z@?$output_processor@DV?$string_output_adapter@D@__crt_stdio_output@@V?$positional_parameter_base@DV?$string_output_adapter@D@__crt_stdio_output@@@2@@__crt_stdio_output@@AAE_NXZ@@__crt_stdio_output@@YAPAUansi_string@?1??type_case_Z@?$output_processor@DV?$string_output_adapter@D@__crt_stdio_output@@V?$positional_parameter_base@DV?$string_output_adapter@D@__crt_stdio_output@@@2@@0@AAE_NXZ@PAD@Z 10049690 f i libucrtd:output.obj
 0001:000486b0       ??$peek_va_arg@PAUansi_string@?1??type_case_Z@?$output_processor@_WV?$stream_output_adapter@_W@__crt_stdio_output@@V?$positional_parameter_base@_WV?$stream_output_adapter@_W@__crt_stdio_output@@@2@@__crt_stdio_output@@AAE_NXZ@@__crt_stdio_output@@YAPAUansi_string@?1??type_case_Z@?$output_processor@_WV?$stream_output_adapter@_W@__crt_stdio_output@@V?$positional_parameter_base@_WV?$stream_output_adapter@_W@__crt_stdio_output@@@2@@0@AAE_NXZ@PAD@Z 100496b0 f i libucrtd:output.obj
 0001:000486d0       ??$peek_va_arg@PAUansi_string@?1??type_case_Z@?$output_processor@_WV?$string_output_adapter@_W@__crt_stdio_output@@V?$positional_parameter_base@_WV?$string_output_adapter@_W@__crt_stdio_output@@@2@@__crt_stdio_output@@AAE_NXZ@@__crt_stdio_output@@YAPAUansi_string@?1??type_case_Z@?$output_processor@_WV?$string_output_adapter@_W@__crt_stdio_output@@V?$positional_parameter_base@_WV?$string_output_adapter@_W@__crt_stdio_output@@@2@@0@AAE_NXZ@PAD@Z 100496d0 f i libucrtd:output.obj
 0001:000486f0       ??$peek_va_arg@PAX@__crt_stdio_output@@YAPAXPAD@Z 100496f0 f i libucrtd:output.obj
 0001:00048710       ??$peek_va_arg@U_CRT_DOUBLE@@@__crt_stdio_output@@YA?AU_CRT_DOUBLE@@PAD@Z 10049710 f i libucrtd:output.obj
 0001:00048730       ??$peek_va_arg@_J@__crt_stdio_output@@YA_JPAD@Z 10049730 f i libucrtd:output.obj
 0001:00048750       ??$peek_va_arg@_K@__crt_stdio_output@@YA_KPAD@Z 10049750 f i libucrtd:output.obj
 0001:00048770       ??$peek_va_arg@_W@__crt_stdio_output@@YA_WPAD@Z 10049770 f i libucrtd:output.obj
 0001:00048790       ??$puttc_nolock@ABDPAU_iobuf@@@?$__crt_char_traits@D@@SAHABD$$QAPAU_iobuf@@@Z 10049790 f i libucrtd:output.obj
 0001:000487b0       ??$puttc_nolock@AB_WPAU_iobuf@@@?$__crt_char_traits@_W@@SAGAB_W$$QAPAU_iobuf@@@Z 100497b0 f i libucrtd:output.obj
 0001:000487d0       ??$read_va_arg@C@__crt_stdio_output@@YACAAPAD@Z 100497d0 f i libucrtd:output.obj
 0001:000487f0       ??$read_va_arg@E@__crt_stdio_output@@YAEAAPAD@Z 100497f0 f i libucrtd:output.obj
 0001:00048810       ??$read_va_arg@F@__crt_stdio_output@@YAFAAPAD@Z 10049810 f i libucrtd:output.obj
 0001:00048830       ??$read_va_arg@G@__crt_stdio_output@@YAGAAPAD@Z 10049830 f i libucrtd:output.obj
 0001:00048850       ??$read_va_arg@H@__crt_stdio_output@@YAHAAPAD@Z 10049850 f i libucrtd:output.obj
 0001:00048870       ??$read_va_arg@I@__crt_stdio_output@@YAIAAPAD@Z 10049870 f i libucrtd:output.obj
 0001:00048890       ??$read_va_arg@PAD@__crt_stdio_output@@YAPADAAPAD@Z 10049890 f i libucrtd:output.obj
 0001:000488b0       ??$read_va_arg@PAUansi_string@?1??type_case_Z@?$output_processor@DV?$stream_output_adapter@D@__crt_stdio_output@@V?$format_validation_base@DV?$stream_output_adapter@D@__crt_stdio_output@@@2@@__crt_stdio_output@@AAE_NXZ@@__crt_stdio_output@@YAPAUansi_string@?1??type_case_Z@?$output_processor@DV?$stream_output_adapter@D@__crt_stdio_output@@V?$format_validation_base@DV?$stream_output_adapter@D@__crt_stdio_output@@@2@@0@AAE_NXZ@AAPAD@Z 100498b0 f i libucrtd:output.obj
 0001:000488d0       ??$read_va_arg@PAUansi_string@?1??type_case_Z@?$output_processor@DV?$stream_output_adapter@D@__crt_stdio_output@@V?$positional_parameter_base@DV?$stream_output_adapter@D@__crt_stdio_output@@@2@@__crt_stdio_output@@AAE_NXZ@@__crt_stdio_output@@YAPAUansi_string@?1??type_case_Z@?$output_processor@DV?$stream_output_adapter@D@__crt_stdio_output@@V?$positional_parameter_base@DV?$stream_output_adapter@D@__crt_stdio_output@@@2@@0@AAE_NXZ@AAPAD@Z 100498d0 f i libucrtd:output.obj
 0001:000488f0       ??$read_va_arg@PAUansi_string@?1??type_case_Z@?$output_processor@DV?$stream_output_adapter@D@__crt_stdio_output@@V?$standard_base@DV?$stream_output_adapter@D@__crt_stdio_output@@@2@@__crt_stdio_output@@AAE_NXZ@@__crt_stdio_output@@YAPAUansi_string@?1??type_case_Z@?$output_processor@DV?$stream_output_adapter@D@__crt_stdio_output@@V?$standard_base@DV?$stream_output_adapter@D@__crt_stdio_output@@@2@@0@AAE_NXZ@AAPAD@Z 100498f0 f i libucrtd:output.obj
 0001:00048910       ??$read_va_arg@PAUansi_string@?1??type_case_Z@?$output_processor@DV?$string_output_adapter@D@__crt_stdio_output@@V?$format_validation_base@DV?$string_output_adapter@D@__crt_stdio_output@@@2@@__crt_stdio_output@@AAE_NXZ@@__crt_stdio_output@@YAPAUansi_string@?1??type_case_Z@?$output_processor@DV?$string_output_adapter@D@__crt_stdio_output@@V?$format_validation_base@DV?$string_output_adapter@D@__crt_stdio_output@@@2@@0@AAE_NXZ@AAPAD@Z 10049910 f i libucrtd:output.obj
 0001:00048930       ??$read_va_arg@PAUansi_string@?1??type_case_Z@?$output_processor@DV?$string_output_adapter@D@__crt_stdio_output@@V?$positional_parameter_base@DV?$string_output_adapter@D@__crt_stdio_output@@@2@@__crt_stdio_output@@AAE_NXZ@@__crt_stdio_output@@YAPAUansi_string@?1??type_case_Z@?$output_processor@DV?$string_output_adapter@D@__crt_stdio_output@@V?$positional_parameter_base@DV?$string_output_adapter@D@__crt_stdio_output@@@2@@0@AAE_NXZ@AAPAD@Z 10049930 f i libucrtd:output.obj
 0001:00048950       ??$read_va_arg@PAUansi_string@?1??type_case_Z@?$output_processor@DV?$string_output_adapter@D@__crt_stdio_output@@V?$standard_base@DV?$string_output_adapter@D@__crt_stdio_output@@@2@@__crt_stdio_output@@AAE_NXZ@@__crt_stdio_output@@YAPAUansi_string@?1??type_case_Z@?$output_processor@DV?$string_output_adapter@D@__crt_stdio_output@@V?$standard_base@DV?$string_output_adapter@D@__crt_stdio_output@@@2@@0@AAE_NXZ@AAPAD@Z 10049950 f i libucrtd:output.obj
 0001:00048970       ??$read_va_arg@PAUansi_string@?1??type_case_Z@?$output_processor@_WV?$stream_output_adapter@_W@__crt_stdio_output@@V?$format_validation_base@_WV?$stream_output_adapter@_W@__crt_stdio_output@@@2@@__crt_stdio_output@@AAE_NXZ@@__crt_stdio_output@@YAPAUansi_string@?1??type_case_Z@?$output_processor@_WV?$stream_output_adapter@_W@__crt_stdio_output@@V?$format_validation_base@_WV?$stream_output_adapter@_W@__crt_stdio_output@@@2@@0@AAE_NXZ@AAPAD@Z 10049970 f i libucrtd:output.obj
 0001:00048990       ??$read_va_arg@PAUansi_string@?1??type_case_Z@?$output_processor@_WV?$stream_output_adapter@_W@__crt_stdio_output@@V?$positional_parameter_base@_WV?$stream_output_adapter@_W@__crt_stdio_output@@@2@@__crt_stdio_output@@AAE_NXZ@@__crt_stdio_output@@YAPAUansi_string@?1??type_case_Z@?$output_processor@_WV?$stream_output_adapter@_W@__crt_stdio_output@@V?$positional_parameter_base@_WV?$stream_output_adapter@_W@__crt_stdio_output@@@2@@0@AAE_NXZ@AAPAD@Z 10049990 f i libucrtd:output.obj
 0001:000489b0       ??$read_va_arg@PAUansi_string@?1??type_case_Z@?$output_processor@_WV?$stream_output_adapter@_W@__crt_stdio_output@@V?$standard_base@_WV?$stream_output_adapter@_W@__crt_stdio_output@@@2@@__crt_stdio_output@@AAE_NXZ@@__crt_stdio_output@@YAPAUansi_string@?1??type_case_Z@?$output_processor@_WV?$stream_output_adapter@_W@__crt_stdio_output@@V?$standard_base@_WV?$stream_output_adapter@_W@__crt_stdio_output@@@2@@0@AAE_NXZ@AAPAD@Z 100499b0 f i libucrtd:output.obj
 0001:000489d0       ??$read_va_arg@PAUansi_string@?1??type_case_Z@?$output_processor@_WV?$string_output_adapter@_W@__crt_stdio_output@@V?$format_validation_base@_WV?$string_output_adapter@_W@__crt_stdio_output@@@2@@__crt_stdio_output@@AAE_NXZ@@__crt_stdio_output@@YAPAUansi_string@?1??type_case_Z@?$output_processor@_WV?$string_output_adapter@_W@__crt_stdio_output@@V?$format_validation_base@_WV?$string_output_adapter@_W@__crt_stdio_output@@@2@@0@AAE_NXZ@AAPAD@Z 100499d0 f i libucrtd:output.obj
 0001:000489f0       ??$read_va_arg@PAUansi_string@?1??type_case_Z@?$output_processor@_WV?$string_output_adapter@_W@__crt_stdio_output@@V?$positional_parameter_base@_WV?$string_output_adapter@_W@__crt_stdio_output@@@2@@__crt_stdio_output@@AAE_NXZ@@__crt_stdio_output@@YAPAUansi_string@?1??type_case_Z@?$output_processor@_WV?$string_output_adapter@_W@__crt_stdio_output@@V?$positional_parameter_base@_WV?$string_output_adapter@_W@__crt_stdio_output@@@2@@0@AAE_NXZ@AAPAD@Z 100499f0 f i libucrtd:output.obj
 0001:00048a10       ??$read_va_arg@PAUansi_string@?1??type_case_Z@?$output_processor@_WV?$string_output_adapter@_W@__crt_stdio_output@@V?$standard_base@_WV?$string_output_adapter@_W@__crt_stdio_output@@@2@@__crt_stdio_output@@AAE_NXZ@@__crt_stdio_output@@YAPAUansi_string@?1??type_case_Z@?$output_processor@_WV?$string_output_adapter@_W@__crt_stdio_output@@V?$standard_base@_WV?$string_output_adapter@_W@__crt_stdio_output@@@2@@0@AAE_NXZ@AAPAD@Z 10049a10 f i libucrtd:output.obj
 0001:00048a30       ??$read_va_arg@PAX@__crt_stdio_output@@YAPAXAAPAD@Z 10049a30 f i libucrtd:output.obj
 0001:00048a50       ??$read_va_arg@U_CRT_DOUBLE@@@__crt_stdio_output@@YA?AU_CRT_DOUBLE@@AAPAD@Z 10049a50 f i libucrtd:output.obj
 0001:00048a70       ??$read_va_arg@_J@__crt_stdio_output@@YA_JAAPAD@Z 10049a70 f i libucrtd:output.obj
 0001:00048a90       ??$read_va_arg@_K@__crt_stdio_output@@YA_KAAPAD@Z 10049a90 f i libucrtd:output.obj
 0001:00048ab0       ??$read_va_arg@_W@__crt_stdio_output@@YA_WAAPAD@Z 10049ab0 f i libucrtd:output.obj
 0001:00048ad0       ??$scratch_count@D@formatting_buffer@__crt_stdio_output@@QBEIXZ 10049ad0 f i libucrtd:output.obj
 0001:00048af0       ??$scratch_data@D@formatting_buffer@__crt_stdio_output@@QAEPADXZ 10049af0 f i libucrtd:output.obj
 0001:00048b40       ??$tcstol@AAPBDPAPADH@?$__crt_char_traits@D@@SAJAAPBD$$QAPAPAD$$QAH@Z 10049b40 f i libucrtd:output.obj
 0001:00048b70       ??$tcstol@AAPB_WPAPA_WH@?$__crt_char_traits@_W@@SAJAAPB_W$$QAPAPA_W$$QAH@Z 10049b70 f i libucrtd:output.obj
 0001:00048ba0       ??$tcstol@PBDPAPADH@?$__crt_char_traits@D@@SAJ$$QAPBD$$QAPAPAD$$QAH@Z 10049ba0 f i libucrtd:output.obj
 0001:00048bd0       ??$tcstol@PB_WPAPA_WH@?$__crt_char_traits@_W@@SAJ$$QAPB_W$$QAPAPA_W$$QAH@Z 10049bd0 f i libucrtd:output.obj
 0001:00048c00       ??$type_case_integer_parse_into_buffer@I@?$output_processor@DV?$stream_output_adapter@D@__crt_stdio_output@@V?$format_validation_base@DV?$stream_output_adapter@D@__crt_stdio_output@@@2@@__crt_stdio_output@@AAEXII_N@Z 10049c00 f i libucrtd:output.obj
 0001:00048cd0       ??$type_case_integer_parse_into_buffer@I@?$output_processor@DV?$stream_output_adapter@D@__crt_stdio_output@@V?$positional_parameter_base@DV?$stream_output_adapter@D@__crt_stdio_output@@@2@@__crt_stdio_output@@AAEXII_N@Z 10049cd0 f i libucrtd:output.obj
 0001:00048da0       ??$type_case_integer_parse_into_buffer@I@?$output_processor@DV?$stream_output_adapter@D@__crt_stdio_output@@V?$standard_base@DV?$stream_output_adapter@D@__crt_stdio_output@@@2@@__crt_stdio_output@@AAEXII_N@Z 10049da0 f i libucrtd:output.obj
 0001:00048e70       ??$type_case_integer_parse_into_buffer@I@?$output_processor@DV?$string_output_adapter@D@__crt_stdio_output@@V?$format_validation_base@DV?$string_output_adapter@D@__crt_stdio_output@@@2@@__crt_stdio_output@@AAEXII_N@Z 10049e70 f i libucrtd:output.obj
 0001:00048f40       ??$type_case_integer_parse_into_buffer@I@?$output_processor@DV?$string_output_adapter@D@__crt_stdio_output@@V?$positional_parameter_base@DV?$string_output_adapter@D@__crt_stdio_output@@@2@@__crt_stdio_output@@AAEXII_N@Z 10049f40 f i libucrtd:output.obj
 0001:00049010       ??$type_case_integer_parse_into_buffer@I@?$output_processor@DV?$string_output_adapter@D@__crt_stdio_output@@V?$standard_base@DV?$string_output_adapter@D@__crt_stdio_output@@@2@@__crt_stdio_output@@AAEXII_N@Z 1004a010 f i libucrtd:output.obj
 0001:000490e0       ??$type_case_integer_parse_into_buffer@I@?$output_processor@_WV?$stream_output_adapter@_W@__crt_stdio_output@@V?$format_validation_base@_WV?$stream_output_adapter@_W@__crt_stdio_output@@@2@@__crt_stdio_output@@AAEXII_N@Z 1004a0e0 f i libucrtd:output.obj
 0001:000491c0       ??$type_case_integer_parse_into_buffer@I@?$output_processor@_WV?$stream_output_adapter@_W@__crt_stdio_output@@V?$positional_parameter_base@_WV?$stream_output_adapter@_W@__crt_stdio_output@@@2@@__crt_stdio_output@@AAEXII_N@Z 1004a1c0 f i libucrtd:output.obj
 0001:000492a0       ??$type_case_integer_parse_into_buffer@I@?$output_processor@_WV?$stream_output_adapter@_W@__crt_stdio_output@@V?$standard_base@_WV?$stream_output_adapter@_W@__crt_stdio_output@@@2@@__crt_stdio_output@@AAEXII_N@Z 1004a2a0 f i libucrtd:output.obj
 0001:00049380       ??$type_case_integer_parse_into_buffer@I@?$output_processor@_WV?$string_output_adapter@_W@__crt_stdio_output@@V?$format_validation_base@_WV?$string_output_adapter@_W@__crt_stdio_output@@@2@@__crt_stdio_output@@AAEXII_N@Z 1004a380 f i libucrtd:output.obj
 0001:00049460       ??$type_case_integer_parse_into_buffer@I@?$output_processor@_WV?$string_output_adapter@_W@__crt_stdio_output@@V?$positional_parameter_base@_WV?$string_output_adapter@_W@__crt_stdio_output@@@2@@__crt_stdio_output@@AAEXII_N@Z 1004a460 f i libucrtd:output.obj
 0001:00049540       ??$type_case_integer_parse_into_buffer@I@?$output_processor@_WV?$string_output_adapter@_W@__crt_stdio_output@@V?$standard_base@_WV?$string_output_adapter@_W@__crt_stdio_output@@@2@@__crt_stdio_output@@AAEXII_N@Z 1004a540 f i libucrtd:output.obj
 0001:00049620       ??$type_case_integer_parse_into_buffer@_K@?$output_processor@DV?$stream_output_adapter@D@__crt_stdio_output@@V?$format_validation_base@DV?$stream_output_adapter@D@__crt_stdio_output@@@2@@__crt_stdio_output@@AAEX_KI_N@Z 1004a620 f i libucrtd:output.obj
 0001:00049710       ??$type_case_integer_parse_into_buffer@_K@?$output_processor@DV?$stream_output_adapter@D@__crt_stdio_output@@V?$positional_parameter_base@DV?$stream_output_adapter@D@__crt_stdio_output@@@2@@__crt_stdio_output@@AAEX_KI_N@Z 1004a710 f i libucrtd:output.obj
 0001:00049800       ??$type_case_integer_parse_into_buffer@_K@?$output_processor@DV?$stream_output_adapter@D@__crt_stdio_output@@V?$standard_base@DV?$stream_output_adapter@D@__crt_stdio_output@@@2@@__crt_stdio_output@@AAEX_KI_N@Z 1004a800 f i libucrtd:output.obj
 0001:000498f0       ??$type_case_integer_parse_into_buffer@_K@?$output_processor@DV?$string_output_adapter@D@__crt_stdio_output@@V?$format_validation_base@DV?$string_output_adapter@D@__crt_stdio_output@@@2@@__crt_stdio_output@@AAEX_KI_N@Z 1004a8f0 f i libucrtd:output.obj
 0001:000499e0       ??$type_case_integer_parse_into_buffer@_K@?$output_processor@DV?$string_output_adapter@D@__crt_stdio_output@@V?$positional_parameter_base@DV?$string_output_adapter@D@__crt_stdio_output@@@2@@__crt_stdio_output@@AAEX_KI_N@Z 1004a9e0 f i libucrtd:output.obj
 0001:00049ad0       ??$type_case_integer_parse_into_buffer@_K@?$output_processor@DV?$string_output_adapter@D@__crt_stdio_output@@V?$standard_base@DV?$string_output_adapter@D@__crt_stdio_output@@@2@@__crt_stdio_output@@AAEX_KI_N@Z 1004aad0 f i libucrtd:output.obj
 0001:00049bc0       ??$type_case_integer_parse_into_buffer@_K@?$output_processor@_WV?$stream_output_adapter@_W@__crt_stdio_output@@V?$format_validation_base@_WV?$stream_output_adapter@_W@__crt_stdio_output@@@2@@__crt_stdio_output@@AAEX_KI_N@Z 1004abc0 f i libucrtd:output.obj
 0001:00049cc0       ??$type_case_integer_parse_into_buffer@_K@?$output_processor@_WV?$stream_output_adapter@_W@__crt_stdio_output@@V?$positional_parameter_base@_WV?$stream_output_adapter@_W@__crt_stdio_output@@@2@@__crt_stdio_output@@AAEX_KI_N@Z 1004acc0 f i libucrtd:output.obj
 0001:00049dc0       ??$type_case_integer_parse_into_buffer@_K@?$output_processor@_WV?$stream_output_adapter@_W@__crt_stdio_output@@V?$standard_base@_WV?$stream_output_adapter@_W@__crt_stdio_output@@@2@@__crt_stdio_output@@AAEX_KI_N@Z 1004adc0 f i libucrtd:output.obj
 0001:00049ec0       ??$type_case_integer_parse_into_buffer@_K@?$output_processor@_WV?$string_output_adapter@_W@__crt_stdio_output@@V?$format_validation_base@_WV?$string_output_adapter@_W@__crt_stdio_output@@@2@@__crt_stdio_output@@AAEX_KI_N@Z 1004aec0 f i libucrtd:output.obj
 0001:00049fc0       ??$type_case_integer_parse_into_buffer@_K@?$output_processor@_WV?$string_output_adapter@_W@__crt_stdio_output@@V?$positional_parameter_base@_WV?$string_output_adapter@_W@__crt_stdio_output@@@2@@__crt_stdio_output@@AAEX_KI_N@Z 1004afc0 f i libucrtd:output.obj
 0001:0004a0c0       ??$type_case_integer_parse_into_buffer@_K@?$output_processor@_WV?$string_output_adapter@_W@__crt_stdio_output@@V?$standard_base@_WV?$string_output_adapter@_W@__crt_stdio_output@@@2@@__crt_stdio_output@@AAEX_KI_N@Z 1004b0c0 f i libucrtd:output.obj
 0001:0004a1c0       ??$write_multiple_characters@V?$stream_output_adapter@D@__crt_stdio_output@@D@__crt_stdio_output@@YAXABV?$stream_output_adapter@D@0@DHQAH@Z 1004b1c0 f i libucrtd:output.obj
 0001:0004a210       ??$write_multiple_characters@V?$stream_output_adapter@_W@__crt_stdio_output@@D@__crt_stdio_output@@YAXABV?$stream_output_adapter@_W@0@DHQAH@Z 1004b210 f i libucrtd:output.obj
 0001:0004a260       ??$write_multiple_characters@V?$string_output_adapter@D@__crt_stdio_output@@D@__crt_stdio_output@@YAXABV?$string_output_adapter@D@0@DHQAH@Z 1004b260 f i libucrtd:output.obj
 0001:0004a2b0       ??$write_multiple_characters@V?$string_output_adapter@_W@__crt_stdio_output@@D@__crt_stdio_output@@YAXABV?$string_output_adapter@_W@0@DHQAH@Z 1004b2b0 f i libucrtd:output.obj
 0001:0004a600       ??0?$common_data@D@__crt_stdio_output@@IAE@XZ 1004b600 f i libucrtd:output.obj
 0001:0004a6b0       ??0?$common_data@_W@__crt_stdio_output@@IAE@XZ 1004b6b0 f i libucrtd:output.obj
 0001:0004a760       ??0?$output_adapter_data@DV?$stream_output_adapter@D@__crt_stdio_output@@@__crt_stdio_output@@IAE@ABV?$stream_output_adapter@D@1@_KQBDQAU__crt_locale_pointers@@QAD@Z 1004b760 f i libucrtd:output.obj
 0001:0004a7c0       ??0?$output_adapter_data@DV?$string_output_adapter@D@__crt_stdio_output@@@__crt_stdio_output@@IAE@ABV?$string_output_adapter@D@1@_KQBDQAU__crt_locale_pointers@@QAD@Z 1004b7c0 f i libucrtd:output.obj
 0001:0004a820       ??0?$output_adapter_data@_WV?$stream_output_adapter@_W@__crt_stdio_output@@@__crt_stdio_output@@IAE@ABV?$stream_output_adapter@_W@1@_KQB_WQAU__crt_locale_pointers@@QAD@Z 1004b820 f i libucrtd:output.obj
 0001:0004a880       ??0?$output_adapter_data@_WV?$string_output_adapter@_W@__crt_stdio_output@@@__crt_stdio_output@@IAE@ABV?$string_output_adapter@_W@1@_KQB_WQAU__crt_locale_pointers@@QAD@Z 1004b880 f i libucrtd:output.obj
 0001:0004a8e0       ??0?$output_processor@DV?$stream_output_adapter@D@__crt_stdio_output@@V?$format_validation_base@DV?$stream_output_adapter@D@__crt_stdio_output@@@2@@__crt_stdio_output@@QAE@ABV?$stream_output_adapter@D@1@_KQBDQAU__crt_locale_pointers@@QAD@Z 1004b8e0 f i libucrtd:output.obj
 0001:0004a910       ??0?$output_processor@DV?$stream_output_adapter@D@__crt_stdio_output@@V?$positional_parameter_base@DV?$stream_output_adapter@D@__crt_stdio_output@@@2@@__crt_stdio_output@@QAE@ABV?$stream_output_adapter@D@1@_KQBDQAU__crt_locale_pointers@@QAD@Z 1004b910 f i libucrtd:output.obj
 0001:0004a940       ??0?$output_processor@DV?$stream_output_adapter@D@__crt_stdio_output@@V?$standard_base@DV?$stream_output_adapter@D@__crt_stdio_output@@@2@@__crt_stdio_output@@QAE@ABV?$stream_output_adapter@D@1@_KQBDQAU__crt_locale_pointers@@QAD@Z 1004b940 f i libucrtd:output.obj
 0001:0004a970       ??0?$output_processor@DV?$string_output_adapter@D@__crt_stdio_output@@V?$format_validation_base@DV?$string_output_adapter@D@__crt_stdio_output@@@2@@__crt_stdio_output@@QAE@ABV?$string_output_adapter@D@1@_KQBDQAU__crt_locale_pointers@@QAD@Z 1004b970 f i libucrtd:output.obj
 0001:0004a9a0       ??0?$output_processor@DV?$string_output_adapter@D@__crt_stdio_output@@V?$positional_parameter_base@DV?$string_output_adapter@D@__crt_stdio_output@@@2@@__crt_stdio_output@@QAE@ABV?$string_output_adapter@D@1@_KQBDQAU__crt_locale_pointers@@QAD@Z 1004b9a0 f i libucrtd:output.obj
 0001:0004a9d0       ??0?$output_processor@DV?$string_output_adapter@D@__crt_stdio_output@@V?$standard_base@DV?$string_output_adapter@D@__crt_stdio_output@@@2@@__crt_stdio_output@@QAE@ABV?$string_output_adapter@D@1@_KQBDQAU__crt_locale_pointers@@QAD@Z 1004b9d0 f i libucrtd:output.obj
 0001:0004aa00       ??0?$output_processor@_WV?$stream_output_adapter@_W@__crt_stdio_output@@V?$format_validation_base@_WV?$stream_output_adapter@_W@__crt_stdio_output@@@2@@__crt_stdio_output@@QAE@ABV?$stream_output_adapter@_W@1@_KQB_WQAU__crt_locale_pointers@@QAD@Z 1004ba00 f i libucrtd:output.obj
 0001:0004aa30       ??0?$output_processor@_WV?$stream_output_adapter@_W@__crt_stdio_output@@V?$positional_parameter_base@_WV?$stream_output_adapter@_W@__crt_stdio_output@@@2@@__crt_stdio_output@@QAE@ABV?$stream_output_adapter@_W@1@_KQB_WQAU__crt_locale_pointers@@QAD@Z 1004ba30 f i libucrtd:output.obj
 0001:0004aa60       ??0?$output_processor@_WV?$stream_output_adapter@_W@__crt_stdio_output@@V?$standard_base@_WV?$stream_output_adapter@_W@__crt_stdio_output@@@2@@__crt_stdio_output@@QAE@ABV?$stream_output_adapter@_W@1@_KQB_WQAU__crt_locale_pointers@@QAD@Z 1004ba60 f i libucrtd:output.obj
 0001:0004aa90       ??0?$output_processor@_WV?$string_output_adapter@_W@__crt_stdio_output@@V?$format_validation_base@_WV?$string_output_adapter@_W@__crt_stdio_output@@@2@@__crt_stdio_output@@QAE@ABV?$string_output_adapter@_W@1@_KQB_WQAU__crt_locale_pointers@@QAD@Z 1004ba90 f i libucrtd:output.obj
 0001:0004aac0       ??0?$output_processor@_WV?$string_output_adapter@_W@__crt_stdio_output@@V?$positional_parameter_base@_WV?$string_output_adapter@_W@__crt_stdio_output@@@2@@__crt_stdio_output@@QAE@ABV?$string_output_adapter@_W@1@_KQB_WQAU__crt_locale_pointers@@QAD@Z 1004bac0 f i libucrtd:output.obj
 0001:0004aaf0       ??0?$output_processor@_WV?$string_output_adapter@_W@__crt_stdio_output@@V?$standard_base@_WV?$string_output_adapter@_W@__crt_stdio_output@@@2@@__crt_stdio_output@@QAE@ABV?$string_output_adapter@_W@1@_KQB_WQAU__crt_locale_pointers@@QAD@Z 1004baf0 f i libucrtd:output.obj
 0001:0004ab20       ??0?$stream_output_adapter@D@__crt_stdio_output@@QAE@QAU_iobuf@@@Z 1004bb20 f i libucrtd:output.obj
 0001:0004ab40       ??0?$stream_output_adapter@_W@__crt_stdio_output@@QAE@QAU_iobuf@@@Z 1004bb40 f i libucrtd:output.obj
 0001:0004ab60       ??0?$string_output_adapter@D@__crt_stdio_output@@QAE@QAU?$string_output_adapter_context@D@1@@Z 1004bb60 f i libucrtd:output.obj
 0001:0004ab80       ??0?$string_output_adapter@_W@__crt_stdio_output@@QAE@QAU?$string_output_adapter_context@_W@1@@Z 1004bb80 f i libucrtd:output.obj
 0001:0004aba0       ??0_LocaleUpdate@@QAE@QAU__crt_locale_pointers@@@Z 1004bba0 f i libucrtd:output.obj
 0001:0004ac70       ??0__acrt_stdio_temporary_buffering_guard@@QAE@QAU_iobuf@@@Z 1004bc70 f i libucrtd:output.obj
 0001:0004aca0       ??0__crt_deferred_errno_cache@@QAE@XZ 1004bca0 f i libucrtd:output.obj
 0001:0004acc0       ??0__crt_errno_guard@@QAE@QAH@Z 1004bcc0 f i libucrtd:output.obj
 0001:0004acf0       ??0__crt_stdio_stream@@QAE@QAU_iobuf@@@Z 1004bcf0 f i libucrtd:output.obj
 0001:0004ad10       ??0formatting_buffer@__crt_stdio_output@@QAE@XZ 1004bd10 f i libucrtd:output.obj
 0001:0004ad40       ??1?$common_data@D@__crt_stdio_output@@QAE@XZ 1004bd40 f i libucrtd:output.obj
 0001:0004ad60       ??1?$common_data@_W@__crt_stdio_output@@QAE@XZ 1004bd60 f i libucrtd:output.obj
 0001:0004ad80       ??1?$format_validation_base@DV?$stream_output_adapter@D@__crt_stdio_output@@@__crt_stdio_output@@QAE@XZ 1004bd80 f i libucrtd:output.obj
 0001:0004ada0       ??1?$format_validation_base@DV?$string_output_adapter@D@__crt_stdio_output@@@__crt_stdio_output@@QAE@XZ 1004bda0 f i libucrtd:output.obj
 0001:0004adc0       ??1?$format_validation_base@_WV?$stream_output_adapter@_W@__crt_stdio_output@@@__crt_stdio_output@@QAE@XZ 1004bdc0 f i libucrtd:output.obj
 0001:0004ade0       ??1?$format_validation_base@_WV?$string_output_adapter@_W@__crt_stdio_output@@@__crt_stdio_output@@QAE@XZ 1004bde0 f i libucrtd:output.obj
 0001:0004ae00       ??1?$output_adapter_data@DV?$stream_output_adapter@D@__crt_stdio_output@@@__crt_stdio_output@@QAE@XZ 1004be00 f i libucrtd:output.obj
 0001:0004ae20       ??1?$output_adapter_data@DV?$string_output_adapter@D@__crt_stdio_output@@@__crt_stdio_output@@QAE@XZ 1004be20 f i libucrtd:output.obj
 0001:0004ae40       ??1?$output_adapter_data@_WV?$stream_output_adapter@_W@__crt_stdio_output@@@__crt_stdio_output@@QAE@XZ 1004be40 f i libucrtd:output.obj
 0001:0004ae60       ??1?$output_adapter_data@_WV?$string_output_adapter@_W@__crt_stdio_output@@@__crt_stdio_output@@QAE@XZ 1004be60 f i libucrtd:output.obj
 0001:0004ae80       ??1?$output_processor@DV?$stream_output_adapter@D@__crt_stdio_output@@V?$format_validation_base@DV?$stream_output_adapter@D@__crt_stdio_output@@@2@@__crt_stdio_output@@QAE@XZ 1004be80 f i libucrtd:output.obj
 0001:0004aea0       ??1?$output_processor@DV?$stream_output_adapter@D@__crt_stdio_output@@V?$positional_parameter_base@DV?$stream_output_adapter@D@__crt_stdio_output@@@2@@__crt_stdio_output@@QAE@XZ 1004bea0 f i libucrtd:output.obj
 0001:0004aec0       ??1?$output_processor@DV?$stream_output_adapter@D@__crt_stdio_output@@V?$standard_base@DV?$stream_output_adapter@D@__crt_stdio_output@@@2@@__crt_stdio_output@@QAE@XZ 1004bec0 f i libucrtd:output.obj
 0001:0004aee0       ??1?$output_processor@DV?$string_output_adapter@D@__crt_stdio_output@@V?$format_validation_base@DV?$string_output_adapter@D@__crt_stdio_output@@@2@@__crt_stdio_output@@QAE@XZ 1004bee0 f i libucrtd:output.obj
 0001:0004af00       ??1?$output_processor@DV?$string_output_adapter@D@__crt_stdio_output@@V?$positional_parameter_base@DV?$string_output_adapter@D@__crt_stdio_output@@@2@@__crt_stdio_output@@QAE@XZ 1004bf00 f i libucrtd:output.obj
 0001:0004af20       ??1?$output_processor@DV?$string_output_adapter@D@__crt_stdio_output@@V?$standard_base@DV?$string_output_adapter@D@__crt_stdio_output@@@2@@__crt_stdio_output@@QAE@XZ 1004bf20 f i libucrtd:output.obj
 0001:0004af40       ??1?$output_processor@_WV?$stream_output_adapter@_W@__crt_stdio_output@@V?$format_validation_base@_WV?$stream_output_adapter@_W@__crt_stdio_output@@@2@@__crt_stdio_output@@QAE@XZ 1004bf40 f i libucrtd:output.obj
 0001:0004af60       ??1?$output_processor@_WV?$stream_output_adapter@_W@__crt_stdio_output@@V?$positional_parameter_base@_WV?$stream_output_adapter@_W@__crt_stdio_output@@@2@@__crt_stdio_output@@QAE@XZ 1004bf60 f i libucrtd:output.obj
 0001:0004af80       ??1?$output_processor@_WV?$stream_output_adapter@_W@__crt_stdio_output@@V?$standard_base@_WV?$stream_output_adapter@_W@__crt_stdio_output@@@2@@__crt_stdio_output@@QAE@XZ 1004bf80 f i libucrtd:output.obj
 0001:0004afa0       ??1?$output_processor@_WV?$string_output_adapter@_W@__crt_stdio_output@@V?$format_validation_base@_WV?$string_output_adapter@_W@__crt_stdio_output@@@2@@__crt_stdio_output@@QAE@XZ 1004bfa0 f i libucrtd:output.obj
 0001:0004afc0       ??1?$output_processor@_WV?$string_output_adapter@_W@__crt_stdio_output@@V?$positional_parameter_base@_WV?$string_output_adapter@_W@__crt_stdio_output@@@2@@__crt_stdio_output@@QAE@XZ 1004bfc0 f i libucrtd:output.obj
 0001:0004afe0       ??1?$output_processor@_WV?$string_output_adapter@_W@__crt_stdio_output@@V?$standard_base@_WV?$string_output_adapter@_W@__crt_stdio_output@@@2@@__crt_stdio_output@@QAE@XZ 1004bfe0 f i libucrtd:output.obj
 0001:0004b000       ??1?$positional_parameter_base@DV?$stream_output_adapter@D@__crt_stdio_output@@@__crt_stdio_output@@QAE@XZ 1004c000 f i libucrtd:output.obj
 0001:0004b020       ??1?$positional_parameter_base@DV?$string_output_adapter@D@__crt_stdio_output@@@__crt_stdio_output@@QAE@XZ 1004c020 f i libucrtd:output.obj
 0001:0004b040       ??1?$positional_parameter_base@_WV?$stream_output_adapter@_W@__crt_stdio_output@@@__crt_stdio_output@@QAE@XZ 1004c040 f i libucrtd:output.obj
 0001:0004b060       ??1?$positional_parameter_base@_WV?$string_output_adapter@_W@__crt_stdio_output@@@__crt_stdio_output@@QAE@XZ 1004c060 f i libucrtd:output.obj
 0001:0004b080       ??1?$standard_base@DV?$stream_output_adapter@D@__crt_stdio_output@@@__crt_stdio_output@@QAE@XZ 1004c080 f i libucrtd:output.obj
 0001:0004b0a0       ??1?$standard_base@DV?$string_output_adapter@D@__crt_stdio_output@@@__crt_stdio_output@@QAE@XZ 1004c0a0 f i libucrtd:output.obj
 0001:0004b0c0       ??1?$standard_base@_WV?$stream_output_adapter@_W@__crt_stdio_output@@@__crt_stdio_output@@QAE@XZ 1004c0c0 f i libucrtd:output.obj
 0001:0004b0e0       ??1?$standard_base@_WV?$string_output_adapter@_W@__crt_stdio_output@@@__crt_stdio_output@@QAE@XZ 1004c0e0 f i libucrtd:output.obj
 0001:0004b100       ??1_LocaleUpdate@@QAE@XZ   1004c100 f i libucrtd:output.obj
 0001:0004b130       ??1__acrt_stdio_temporary_buffering_guard@@QAE@XZ 1004c130 f i libucrtd:output.obj
 0001:0004b160       ??1__crt_errno_guard@@QAE@XZ 1004c160 f i libucrtd:output.obj
 0001:0004b190       ??1formatting_buffer@__crt_stdio_output@@QAE@XZ 1004c190 f i libucrtd:output.obj
 0001:0004b1b0       ??4?$__crt_unique_heap_ptr@DU__crt_internal_free_policy@@@@QAEAAV0@$$QAV0@@Z 1004c1b0 f i libucrtd:output.obj
 0001:0004b1e0       ??A?$spectre_mitigated_lookup_table@Ustate_transition_pair@__crt_stdio_output@@$0IA@@__crt_stdio_output@@QBEABUstate_transition_pair@1@I@Z 1004c1e0 f i libucrtd:output.obj
 0001:0004b200       ??C__crt_stdio_stream@@QBEPAU__crt_stdio_stream_data@@XZ 1004c200 f i libucrtd:output.obj
 0001:0004b940       ?GetLocaleT@_LocaleUpdate@@QAEPAU__crt_locale_pointers@@XZ 1004c940 f i libucrtd:output.obj
 0001:0004b960       ?adjust_hexit@?$output_processor@DV?$stream_output_adapter@D@__crt_stdio_output@@V?$format_validation_base@DV?$stream_output_adapter@D@__crt_stdio_output@@@2@@__crt_stdio_output@@CADH_N@Z 1004c960 f i libucrtd:output.obj
 0001:0004b9a0       ?adjust_hexit@?$output_processor@DV?$stream_output_adapter@D@__crt_stdio_output@@V?$positional_parameter_base@DV?$stream_output_adapter@D@__crt_stdio_output@@@2@@__crt_stdio_output@@CADH_N@Z 1004c9a0 f i libucrtd:output.obj
 0001:0004b9e0       ?adjust_hexit@?$output_processor@DV?$stream_output_adapter@D@__crt_stdio_output@@V?$standard_base@DV?$stream_output_adapter@D@__crt_stdio_output@@@2@@__crt_stdio_output@@CADH_N@Z 1004c9e0 f i libucrtd:output.obj
 0001:0004ba20       ?adjust_hexit@?$output_processor@DV?$string_output_adapter@D@__crt_stdio_output@@V?$format_validation_base@DV?$string_output_adapter@D@__crt_stdio_output@@@2@@__crt_stdio_output@@CADH_N@Z 1004ca20 f i libucrtd:output.obj
 0001:0004ba60       ?adjust_hexit@?$output_processor@DV?$string_output_adapter@D@__crt_stdio_output@@V?$positional_parameter_base@DV?$string_output_adapter@D@__crt_stdio_output@@@2@@__crt_stdio_output@@CADH_N@Z 1004ca60 f i libucrtd:output.obj
 0001:0004baa0       ?adjust_hexit@?$output_processor@DV?$string_output_adapter@D@__crt_stdio_output@@V?$standard_base@DV?$string_output_adapter@D@__crt_stdio_output@@@2@@__crt_stdio_output@@CADH_N@Z 1004caa0 f i libucrtd:output.obj
 0001:0004bae0       ?adjust_hexit@?$output_processor@_WV?$stream_output_adapter@_W@__crt_stdio_output@@V?$format_validation_base@_WV?$stream_output_adapter@_W@__crt_stdio_output@@@2@@__crt_stdio_output@@CADH_N@Z 1004cae0 f i libucrtd:output.obj
 0001:0004bb20       ?adjust_hexit@?$output_processor@_WV?$stream_output_adapter@_W@__crt_stdio_output@@V?$positional_parameter_base@_WV?$stream_output_adapter@_W@__crt_stdio_output@@@2@@__crt_stdio_output@@CADH_N@Z 1004cb20 f i libucrtd:output.obj
 0001:0004bb60       ?adjust_hexit@?$output_processor@_WV?$stream_output_adapter@_W@__crt_stdio_output@@V?$standard_base@_WV?$stream_output_adapter@_W@__crt_stdio_output@@@2@@__crt_stdio_output@@CADH_N@Z 1004cb60 f i libucrtd:output.obj
 0001:0004bba0       ?adjust_hexit@?$output_processor@_WV?$string_output_adapter@_W@__crt_stdio_output@@V?$format_validation_base@_WV?$string_output_adapter@_W@__crt_stdio_output@@@2@@__crt_stdio_output@@CADH_N@Z 1004cba0 f i libucrtd:output.obj
 0001:0004bbe0       ?adjust_hexit@?$output_processor@_WV?$string_output_adapter@_W@__crt_stdio_output@@V?$positional_parameter_base@_WV?$string_output_adapter@_W@__crt_stdio_output@@@2@@__crt_stdio_output@@CADH_N@Z 1004cbe0 f i libucrtd:output.obj
 0001:0004bc20       ?adjust_hexit@?$output_processor@_WV?$string_output_adapter@_W@__crt_stdio_output@@V?$standard_base@_WV?$string_output_adapter@_W@__crt_stdio_output@@@2@@__crt_stdio_output@@CADH_N@Z 1004cc20 f i libucrtd:output.obj
 0001:0004bc60       ?advance_to_next_pass@?$positional_parameter_base@DV?$stream_output_adapter@D@__crt_stdio_output@@@__crt_stdio_output@@IAE_NXZ 1004cc60 f i libucrtd:output.obj
 0001:0004bd00       ?advance_to_next_pass@?$positional_parameter_base@DV?$string_output_adapter@D@__crt_stdio_output@@@__crt_stdio_output@@IAE_NXZ 1004cd00 f i libucrtd:output.obj
 0001:0004bda0       ?advance_to_next_pass@?$positional_parameter_base@_WV?$stream_output_adapter@_W@__crt_stdio_output@@@__crt_stdio_output@@IAE_NXZ 1004cda0 f i libucrtd:output.obj
 0001:0004be40       ?advance_to_next_pass@?$positional_parameter_base@_WV?$string_output_adapter@_W@__crt_stdio_output@@@__crt_stdio_output@@IAE_NXZ 1004ce40 f i libucrtd:output.obj
 0001:0004bee0       ?advance_to_next_pass@?$standard_base@DV?$stream_output_adapter@D@__crt_stdio_output@@@__crt_stdio_output@@IAE_NXZ 1004cee0 f i libucrtd:output.obj
 0001:0004bf30       ?advance_to_next_pass@?$standard_base@DV?$string_output_adapter@D@__crt_stdio_output@@@__crt_stdio_output@@IAE_NXZ 1004cf30 f i libucrtd:output.obj
 0001:0004bf80       ?advance_to_next_pass@?$standard_base@_WV?$stream_output_adapter@_W@__crt_stdio_output@@@__crt_stdio_output@@IAE_NXZ 1004cf80 f i libucrtd:output.obj
 0001:0004bfd0       ?advance_to_next_pass@?$standard_base@_WV?$string_output_adapter@_W@__crt_stdio_output@@@__crt_stdio_output@@IAE_NXZ 1004cfd0 f i libucrtd:output.obj
 0001:0004c020       ?crop_zeroes@__crt_stdio_output@@YAXPADQAU__crt_locale_pointers@@@Z 1004d020 f i libucrtd:output.obj
 0001:0004c120       ?find_next_state@?$output_processor@DV?$stream_output_adapter@D@__crt_stdio_output@@V?$format_validation_base@DV?$stream_output_adapter@D@__crt_stdio_output@@@2@@__crt_stdio_output@@ABE?AW4state@2@DW432@@Z 1004d120 f i libucrtd:output.obj
 0001:0004c190       ?find_next_state@?$output_processor@DV?$stream_output_adapter@D@__crt_stdio_output@@V?$positional_parameter_base@DV?$stream_output_adapter@D@__crt_stdio_output@@@2@@__crt_stdio_output@@ABE?AW4state@2@DW432@@Z 1004d190 f i libucrtd:output.obj
 0001:0004c200       ?find_next_state@?$output_processor@DV?$stream_output_adapter@D@__crt_stdio_output@@V?$standard_base@DV?$stream_output_adapter@D@__crt_stdio_output@@@2@@__crt_stdio_output@@ABE?AW4state@2@DW432@@Z 1004d200 f i libucrtd:output.obj
 0001:0004c270       ?find_next_state@?$output_processor@DV?$string_output_adapter@D@__crt_stdio_output@@V?$format_validation_base@DV?$string_output_adapter@D@__crt_stdio_output@@@2@@__crt_stdio_output@@ABE?AW4state@2@DW432@@Z 1004d270 f i libucrtd:output.obj
 0001:0004c2e0       ?find_next_state@?$output_processor@DV?$string_output_adapter@D@__crt_stdio_output@@V?$positional_parameter_base@DV?$string_output_adapter@D@__crt_stdio_output@@@2@@__crt_stdio_output@@ABE?AW4state@2@DW432@@Z 1004d2e0 f i libucrtd:output.obj
 0001:0004c350       ?find_next_state@?$output_processor@DV?$string_output_adapter@D@__crt_stdio_output@@V?$standard_base@DV?$string_output_adapter@D@__crt_stdio_output@@@2@@__crt_stdio_output@@ABE?AW4state@2@DW432@@Z 1004d350 f i libucrtd:output.obj
 0001:0004c3c0       ?find_next_state@?$output_processor@_WV?$stream_output_adapter@_W@__crt_stdio_output@@V?$format_validation_base@_WV?$stream_output_adapter@_W@__crt_stdio_output@@@2@@__crt_stdio_output@@ABE?AW4state@2@_WW432@@Z 1004d3c0 f i libucrtd:output.obj
 0001:0004c430       ?find_next_state@?$output_processor@_WV?$stream_output_adapter@_W@__crt_stdio_output@@V?$positional_parameter_base@_WV?$stream_output_adapter@_W@__crt_stdio_output@@@2@@__crt_stdio_output@@ABE?AW4state@2@_WW432@@Z 1004d430 f i libucrtd:output.obj
 0001:0004c4a0       ?find_next_state@?$output_processor@_WV?$stream_output_adapter@_W@__crt_stdio_output@@V?$standard_base@_WV?$stream_output_adapter@_W@__crt_stdio_output@@@2@@__crt_stdio_output@@ABE?AW4state@2@_WW432@@Z 1004d4a0 f i libucrtd:output.obj
 0001:0004c510       ?find_next_state@?$output_processor@_WV?$string_output_adapter@_W@__crt_stdio_output@@V?$format_validation_base@_WV?$string_output_adapter@_W@__crt_stdio_output@@@2@@__crt_stdio_output@@ABE?AW4state@2@_WW432@@Z 1004d510 f i libucrtd:output.obj
 0001:0004c580       ?find_next_state@?$output_processor@_WV?$string_output_adapter@_W@__crt_stdio_output@@V?$positional_parameter_base@_WV?$string_output_adapter@_W@__crt_stdio_output@@@2@@__crt_stdio_output@@ABE?AW4state@2@_WW432@@Z 1004d580 f i libucrtd:output.obj
 0001:0004c5f0       ?find_next_state@?$output_processor@_WV?$string_output_adapter@_W@__crt_stdio_output@@V?$standard_base@_WV?$string_output_adapter@_W@__crt_stdio_output@@@2@@__crt_stdio_output@@ABE?AW4state@2@_WW432@@Z 1004d5f0 f i libucrtd:output.obj
 0001:0004c660       ?force_decimal_point@__crt_stdio_output@@YAXPADQAU__crt_locale_pointers@@@Z 1004d660 f i libucrtd:output.obj
 0001:0004c730       ?get@__crt_deferred_errno_cache@@QAEAAHXZ 1004d730 f i libucrtd:output.obj
 0001:0004c760       ?get_flags@__crt_stdio_stream@@QBEJXZ 1004d760 f i libucrtd:output.obj
 0001:0004c780       ?get_parameter_type@?$positional_parameter_base@DV?$stream_output_adapter@D@__crt_stdio_output@@@__crt_stdio_output@@CA?AW4parameter_type@12@F@Z 1004d780 f i libucrtd:output.obj
 0001:0004c790       ?get_parameter_type@?$positional_parameter_base@DV?$stream_output_adapter@D@__crt_stdio_output@@@__crt_stdio_output@@CA?AW4parameter_type@12@G@Z 1004d790 f i libucrtd:output.obj
 0001:0004c7a0       ?get_parameter_type@?$positional_parameter_base@DV?$stream_output_adapter@D@__crt_stdio_output@@@__crt_stdio_output@@CA?AW4parameter_type@12@H@Z 1004d7a0 f i libucrtd:output.obj
 0001:0004c7b0       ?get_parameter_type@?$positional_parameter_base@DV?$stream_output_adapter@D@__crt_stdio_output@@@__crt_stdio_output@@CA?AW4parameter_type@12@I@Z 1004d7b0 f i libucrtd:output.obj
 0001:0004c7c0       ?get_parameter_type@?$positional_parameter_base@DV?$stream_output_adapter@D@__crt_stdio_output@@@__crt_stdio_output@@CA?AW4parameter_type@12@U_CRT_DOUBLE@@@Z 1004d7c0 f i libucrtd:output.obj
 0001:0004c7d0       ?get_parameter_type@?$positional_parameter_base@DV?$stream_output_adapter@D@__crt_stdio_output@@@__crt_stdio_output@@CA?AW4parameter_type@12@_J@Z 1004d7d0 f i libucrtd:output.obj
 0001:0004c7e0       ?get_parameter_type@?$positional_parameter_base@DV?$stream_output_adapter@D@__crt_stdio_output@@@__crt_stdio_output@@CA?AW4parameter_type@12@_K@Z 1004d7e0 f i libucrtd:output.obj
 0001:0004c7f0       ?get_parameter_type@?$positional_parameter_base@DV?$stream_output_adapter@D@__crt_stdio_output@@@__crt_stdio_output@@CA?AW4parameter_type@12@_W@Z 1004d7f0 f i libucrtd:output.obj
 0001:0004c800       ?get_parameter_type@?$positional_parameter_base@DV?$string_output_adapter@D@__crt_stdio_output@@@__crt_stdio_output@@CA?AW4parameter_type@12@F@Z 1004d800 f i libucrtd:output.obj
 0001:0004c810       ?get_parameter_type@?$positional_parameter_base@DV?$string_output_adapter@D@__crt_stdio_output@@@__crt_stdio_output@@CA?AW4parameter_type@12@G@Z 1004d810 f i libucrtd:output.obj
 0001:0004c820       ?get_parameter_type@?$positional_parameter_base@DV?$string_output_adapter@D@__crt_stdio_output@@@__crt_stdio_output@@CA?AW4parameter_type@12@H@Z 1004d820 f i libucrtd:output.obj
 0001:0004c830       ?get_parameter_type@?$positional_parameter_base@DV?$string_output_adapter@D@__crt_stdio_output@@@__crt_stdio_output@@CA?AW4parameter_type@12@I@Z 1004d830 f i libucrtd:output.obj
 0001:0004c840       ?get_parameter_type@?$positional_parameter_base@DV?$string_output_adapter@D@__crt_stdio_output@@@__crt_stdio_output@@CA?AW4parameter_type@12@U_CRT_DOUBLE@@@Z 1004d840 f i libucrtd:output.obj
 0001:0004c850       ?get_parameter_type@?$positional_parameter_base@DV?$string_output_adapter@D@__crt_stdio_output@@@__crt_stdio_output@@CA?AW4parameter_type@12@_J@Z 1004d850 f i libucrtd:output.obj
 0001:0004c860       ?get_parameter_type@?$positional_parameter_base@DV?$string_output_adapter@D@__crt_stdio_output@@@__crt_stdio_output@@CA?AW4parameter_type@12@_K@Z 1004d860 f i libucrtd:output.obj
 0001:0004c870       ?get_parameter_type@?$positional_parameter_base@DV?$string_output_adapter@D@__crt_stdio_output@@@__crt_stdio_output@@CA?AW4parameter_type@12@_W@Z 1004d870 f i libucrtd:output.obj
 0001:0004c880       ?get_parameter_type@?$positional_parameter_base@_WV?$stream_output_adapter@_W@__crt_stdio_output@@@__crt_stdio_output@@CA?AW4parameter_type@12@F@Z 1004d880 f i libucrtd:output.obj
 0001:0004c890       ?get_parameter_type@?$positional_parameter_base@_WV?$stream_output_adapter@_W@__crt_stdio_output@@@__crt_stdio_output@@CA?AW4parameter_type@12@G@Z 1004d890 f i libucrtd:output.obj
 0001:0004c8a0       ?get_parameter_type@?$positional_parameter_base@_WV?$stream_output_adapter@_W@__crt_stdio_output@@@__crt_stdio_output@@CA?AW4parameter_type@12@H@Z 1004d8a0 f i libucrtd:output.obj
 0001:0004c8b0       ?get_parameter_type@?$positional_parameter_base@_WV?$stream_output_adapter@_W@__crt_stdio_output@@@__crt_stdio_output@@CA?AW4parameter_type@12@I@Z 1004d8b0 f i libucrtd:output.obj
 0001:0004c8c0       ?get_parameter_type@?$positional_parameter_base@_WV?$stream_output_adapter@_W@__crt_stdio_output@@@__crt_stdio_output@@CA?AW4parameter_type@12@U_CRT_DOUBLE@@@Z 1004d8c0 f i libucrtd:output.obj
 0001:0004c8d0       ?get_parameter_type@?$positional_parameter_base@_WV?$stream_output_adapter@_W@__crt_stdio_output@@@__crt_stdio_output@@CA?AW4parameter_type@12@_J@Z 1004d8d0 f i libucrtd:output.obj
 0001:0004c8e0       ?get_parameter_type@?$positional_parameter_base@_WV?$stream_output_adapter@_W@__crt_stdio_output@@@__crt_stdio_output@@CA?AW4parameter_type@12@_K@Z 1004d8e0 f i libucrtd:output.obj
 0001:0004c8f0       ?get_parameter_type@?$positional_parameter_base@_WV?$stream_output_adapter@_W@__crt_stdio_output@@@__crt_stdio_output@@CA?AW4parameter_type@12@_W@Z 1004d8f0 f i libucrtd:output.obj
 0001:0004c900       ?get_parameter_type@?$positional_parameter_base@_WV?$string_output_adapter@_W@__crt_stdio_output@@@__crt_stdio_output@@CA?AW4parameter_type@12@F@Z 1004d900 f i libucrtd:output.obj
 0001:0004c910       ?get_parameter_type@?$positional_parameter_base@_WV?$string_output_adapter@_W@__crt_stdio_output@@@__crt_stdio_output@@CA?AW4parameter_type@12@G@Z 1004d910 f i libucrtd:output.obj
 0001:0004c920       ?get_parameter_type@?$positional_parameter_base@_WV?$string_output_adapter@_W@__crt_stdio_output@@@__crt_stdio_output@@CA?AW4parameter_type@12@H@Z 1004d920 f i libucrtd:output.obj
 0001:0004c930       ?get_parameter_type@?$positional_parameter_base@_WV?$string_output_adapter@_W@__crt_stdio_output@@@__crt_stdio_output@@CA?AW4parameter_type@12@I@Z 1004d930 f i libucrtd:output.obj
 0001:0004c940       ?get_parameter_type@?$positional_parameter_base@_WV?$string_output_adapter@_W@__crt_stdio_output@@@__crt_stdio_output@@CA?AW4parameter_type@12@U_CRT_DOUBLE@@@Z 1004d940 f i libucrtd:output.obj
 0001:0004c950       ?get_parameter_type@?$positional_parameter_base@_WV?$string_output_adapter@_W@__crt_stdio_output@@@__crt_stdio_output@@CA?AW4parameter_type@12@_J@Z 1004d950 f i libucrtd:output.obj
 0001:0004c960       ?get_parameter_type@?$positional_parameter_base@_WV?$string_output_adapter@_W@__crt_stdio_output@@@__crt_stdio_output@@CA?AW4parameter_type@12@_K@Z 1004d960 f i libucrtd:output.obj
 0001:0004c970       ?get_parameter_type@?$positional_parameter_base@_WV?$string_output_adapter@_W@__crt_stdio_output@@@__crt_stdio_output@@CA?AW4parameter_type@12@_W@Z 1004d970 f i libucrtd:output.obj
 0001:0004c980       ?has_flag@?$output_processor@DV?$stream_output_adapter@D@__crt_stdio_output@@V?$format_validation_base@DV?$stream_output_adapter@D@__crt_stdio_output@@@2@@__crt_stdio_output@@ABE_NI@Z 1004d980 f i libucrtd:output.obj
 0001:0004c9b0       ?has_flag@?$output_processor@DV?$stream_output_adapter@D@__crt_stdio_output@@V?$positional_parameter_base@DV?$stream_output_adapter@D@__crt_stdio_output@@@2@@__crt_stdio_output@@ABE_NI@Z 1004d9b0 f i libucrtd:output.obj
 0001:0004c9e0       ?has_flag@?$output_processor@DV?$stream_output_adapter@D@__crt_stdio_output@@V?$standard_base@DV?$stream_output_adapter@D@__crt_stdio_output@@@2@@__crt_stdio_output@@ABE_NI@Z 1004d9e0 f i libucrtd:output.obj
 0001:0004ca10       ?has_flag@?$output_processor@DV?$string_output_adapter@D@__crt_stdio_output@@V?$format_validation_base@DV?$string_output_adapter@D@__crt_stdio_output@@@2@@__crt_stdio_output@@ABE_NI@Z 1004da10 f i libucrtd:output.obj
 0001:0004ca40       ?has_flag@?$output_processor@DV?$string_output_adapter@D@__crt_stdio_output@@V?$positional_parameter_base@DV?$string_output_adapter@D@__crt_stdio_output@@@2@@__crt_stdio_output@@ABE_NI@Z 1004da40 f i libucrtd:output.obj
 0001:0004ca70       ?has_flag@?$output_processor@DV?$string_output_adapter@D@__crt_stdio_output@@V?$standard_base@DV?$string_output_adapter@D@__crt_stdio_output@@@2@@__crt_stdio_output@@ABE_NI@Z 1004da70 f i libucrtd:output.obj
 0001:0004caa0       ?has_flag@?$output_processor@_WV?$stream_output_adapter@_W@__crt_stdio_output@@V?$format_validation_base@_WV?$stream_output_adapter@_W@__crt_stdio_output@@@2@@__crt_stdio_output@@ABE_NI@Z 1004daa0 f i libucrtd:output.obj
 0001:0004cad0       ?has_flag@?$output_processor@_WV?$stream_output_adapter@_W@__crt_stdio_output@@V?$positional_parameter_base@_WV?$stream_output_adapter@_W@__crt_stdio_output@@@2@@__crt_stdio_output@@ABE_NI@Z 1004dad0 f i libucrtd:output.obj
 0001:0004cb00       ?has_flag@?$output_processor@_WV?$stream_output_adapter@_W@__crt_stdio_output@@V?$standard_base@_WV?$stream_output_adapter@_W@__crt_stdio_output@@@2@@__crt_stdio_output@@ABE_NI@Z 1004db00 f i libucrtd:output.obj
 0001:0004cb30       ?has_flag@?$output_processor@_WV?$string_output_adapter@_W@__crt_stdio_output@@V?$format_validation_base@_WV?$string_output_adapter@_W@__crt_stdio_output@@@2@@__crt_stdio_output@@ABE_NI@Z 1004db30 f i libucrtd:output.obj
 0001:0004cb60       ?has_flag@?$output_processor@_WV?$string_output_adapter@_W@__crt_stdio_output@@V?$positional_parameter_base@_WV?$string_output_adapter@_W@__crt_stdio_output@@@2@@__crt_stdio_output@@ABE_NI@Z 1004db60 f i libucrtd:output.obj
 0001:0004cb90       ?has_flag@?$output_processor@_WV?$string_output_adapter@_W@__crt_stdio_output@@V?$standard_base@_WV?$string_output_adapter@_W@__crt_stdio_output@@@2@@__crt_stdio_output@@ABE_NI@Z 1004db90 f i libucrtd:output.obj
 0001:0004cbc0       ?is_positional_parameter_reappearance_consistent@?$positional_parameter_base@DV?$stream_output_adapter@D@__crt_stdio_output@@@__crt_stdio_output@@AAE_NABUparameter_data@12@W4parameter_type@12@DW4length_modifier@2@@Z 1004dbc0 f i libucrtd:output.obj
 0001:0004cdf0       ?is_positional_parameter_reappearance_consistent@?$positional_parameter_base@DV?$string_output_adapter@D@__crt_stdio_output@@@__crt_stdio_output@@AAE_NABUparameter_data@12@W4parameter_type@12@DW4length_modifier@2@@Z 1004ddf0 f i libucrtd:output.obj
 0001:0004d020       ?is_positional_parameter_reappearance_consistent@?$positional_parameter_base@_WV?$stream_output_adapter@_W@__crt_stdio_output@@@__crt_stdio_output@@AAE_NABUparameter_data@12@W4parameter_type@12@_WW4length_modifier@2@@Z 1004e020 f i libucrtd:output.obj
 0001:0004d250       ?is_positional_parameter_reappearance_consistent@?$positional_parameter_base@_WV?$string_output_adapter@_W@__crt_stdio_output@@@__crt_stdio_output@@AAE_NABUparameter_data@12@W4parameter_type@12@_WW4length_modifier@2@@Z 1004e250 f i libucrtd:output.obj
 0001:0004d480       ?is_string_backed@__crt_stdio_stream@@QBE_NXZ 1004e480 f i libucrtd:output.obj
 0001:0004d4c0       ?narrow_null_string@?$output_processor@DV?$stream_output_adapter@D@__crt_stdio_output@@V?$format_validation_base@DV?$stream_output_adapter@D@__crt_stdio_output@@@2@@__crt_stdio_output@@CAPADXZ 1004e4c0 f i libucrtd:output.obj
 0001:0004d4d0       ?narrow_null_string@?$output_processor@DV?$stream_output_adapter@D@__crt_stdio_output@@V?$positional_parameter_base@DV?$stream_output_adapter@D@__crt_stdio_output@@@2@@__crt_stdio_output@@CAPADXZ 1004e4d0 f i libucrtd:output.obj
 0001:0004d4e0       ?narrow_null_string@?$output_processor@DV?$stream_output_adapter@D@__crt_stdio_output@@V?$standard_base@DV?$stream_output_adapter@D@__crt_stdio_output@@@2@@__crt_stdio_output@@CAPADXZ 1004e4e0 f i libucrtd:output.obj
 0001:0004d4f0       ?narrow_null_string@?$output_processor@DV?$string_output_adapter@D@__crt_stdio_output@@V?$format_validation_base@DV?$string_output_adapter@D@__crt_stdio_output@@@2@@__crt_stdio_output@@CAPADXZ 1004e4f0 f i libucrtd:output.obj
 0001:0004d500       ?narrow_null_string@?$output_processor@DV?$string_output_adapter@D@__crt_stdio_output@@V?$positional_parameter_base@DV?$string_output_adapter@D@__crt_stdio_output@@@2@@__crt_stdio_output@@CAPADXZ 1004e500 f i libucrtd:output.obj
 0001:0004d510       ?narrow_null_string@?$output_processor@DV?$string_output_adapter@D@__crt_stdio_output@@V?$standard_base@DV?$string_output_adapter@D@__crt_stdio_output@@@2@@__crt_stdio_output@@CAPADXZ 1004e510 f i libucrtd:output.obj
 0001:0004d520       ?narrow_null_string@?$output_processor@_WV?$stream_output_adapter@_W@__crt_stdio_output@@V?$format_validation_base@_WV?$stream_output_adapter@_W@__crt_stdio_output@@@2@@__crt_stdio_output@@CAPADXZ 1004e520 f i libucrtd:output.obj
 0001:0004d530       ?narrow_null_string@?$output_processor@_WV?$stream_output_adapter@_W@__crt_stdio_output@@V?$positional_parameter_base@_WV?$stream_output_adapter@_W@__crt_stdio_output@@@2@@__crt_stdio_output@@CAPADXZ 1004e530 f i libucrtd:output.obj
 0001:0004d540       ?narrow_null_string@?$output_processor@_WV?$stream_output_adapter@_W@__crt_stdio_output@@V?$standard_base@_WV?$stream_output_adapter@_W@__crt_stdio_output@@@2@@__crt_stdio_output@@CAPADXZ 1004e540 f i libucrtd:output.obj
 0001:0004d550       ?narrow_null_string@?$output_processor@_WV?$string_output_adapter@_W@__crt_stdio_output@@V?$format_validation_base@_WV?$string_output_adapter@_W@__crt_stdio_output@@@2@@__crt_stdio_output@@CAPADXZ 1004e550 f i libucrtd:output.obj
 0001:0004d560       ?narrow_null_string@?$output_processor@_WV?$string_output_adapter@_W@__crt_stdio_output@@V?$positional_parameter_base@_WV?$string_output_adapter@_W@__crt_stdio_output@@@2@@__crt_stdio_output@@CAPADXZ 1004e560 f i libucrtd:output.obj
 0001:0004d570       ?narrow_null_string@?$output_processor@_WV?$string_output_adapter@_W@__crt_stdio_output@@V?$standard_base@_WV?$string_output_adapter@_W@__crt_stdio_output@@@2@@__crt_stdio_output@@CAPADXZ 1004e570 f i libucrtd:output.obj
 0001:0004d580       ?parse_int_from_format_string@?$output_processor@DV?$stream_output_adapter@D@__crt_stdio_output@@V?$format_validation_base@DV?$stream_output_adapter@D@__crt_stdio_output@@@2@@__crt_stdio_output@@AAE_NQAH@Z 1004e580 f i libucrtd:output.obj
 0001:0004d640       ?parse_int_from_format_string@?$output_processor@DV?$stream_output_adapter@D@__crt_stdio_output@@V?$positional_parameter_base@DV?$stream_output_adapter@D@__crt_stdio_output@@@2@@__crt_stdio_output@@AAE_NQAH@Z 1004e640 f i libucrtd:output.obj
 0001:0004d700       ?parse_int_from_format_string@?$output_processor@DV?$stream_output_adapter@D@__crt_stdio_output@@V?$standard_base@DV?$stream_output_adapter@D@__crt_stdio_output@@@2@@__crt_stdio_output@@AAE_NQAH@Z 1004e700 f i libucrtd:output.obj
 0001:0004d7c0       ?parse_int_from_format_string@?$output_processor@DV?$string_output_adapter@D@__crt_stdio_output@@V?$format_validation_base@DV?$string_output_adapter@D@__crt_stdio_output@@@2@@__crt_stdio_output@@AAE_NQAH@Z 1004e7c0 f i libucrtd:output.obj
 0001:0004d880       ?parse_int_from_format_string@?$output_processor@DV?$string_output_adapter@D@__crt_stdio_output@@V?$positional_parameter_base@DV?$string_output_adapter@D@__crt_stdio_output@@@2@@__crt_stdio_output@@AAE_NQAH@Z 1004e880 f i libucrtd:output.obj
 0001:0004d940       ?parse_int_from_format_string@?$output_processor@DV?$string_output_adapter@D@__crt_stdio_output@@V?$standard_base@DV?$string_output_adapter@D@__crt_stdio_output@@@2@@__crt_stdio_output@@AAE_NQAH@Z 1004e940 f i libucrtd:output.obj
 0001:0004da00       ?parse_int_from_format_string@?$output_processor@_WV?$stream_output_adapter@_W@__crt_stdio_output@@V?$format_validation_base@_WV?$stream_output_adapter@_W@__crt_stdio_output@@@2@@__crt_stdio_output@@AAE_NQAH@Z 1004ea00 f i libucrtd:output.obj
 0001:0004dac0       ?parse_int_from_format_string@?$output_processor@_WV?$stream_output_adapter@_W@__crt_stdio_output@@V?$positional_parameter_base@_WV?$stream_output_adapter@_W@__crt_stdio_output@@@2@@__crt_stdio_output@@AAE_NQAH@Z 1004eac0 f i libucrtd:output.obj
 0001:0004db80       ?parse_int_from_format_string@?$output_processor@_WV?$stream_output_adapter@_W@__crt_stdio_output@@V?$standard_base@_WV?$stream_output_adapter@_W@__crt_stdio_output@@@2@@__crt_stdio_output@@AAE_NQAH@Z 1004eb80 f i libucrtd:output.obj
 0001:0004dc40       ?parse_int_from_format_string@?$output_processor@_WV?$string_output_adapter@_W@__crt_stdio_output@@V?$format_validation_base@_WV?$string_output_adapter@_W@__crt_stdio_output@@@2@@__crt_stdio_output@@AAE_NQAH@Z 1004ec40 f i libucrtd:output.obj
 0001:0004dd00       ?parse_int_from_format_string@?$output_processor@_WV?$string_output_adapter@_W@__crt_stdio_output@@V?$positional_parameter_base@_WV?$string_output_adapter@_W@__crt_stdio_output@@@2@@__crt_stdio_output@@AAE_NQAH@Z 1004ed00 f i libucrtd:output.obj
 0001:0004ddc0       ?parse_int_from_format_string@?$output_processor@_WV?$string_output_adapter@_W@__crt_stdio_output@@V?$standard_base@_WV?$string_output_adapter@_W@__crt_stdio_output@@@2@@__crt_stdio_output@@AAE_NQAH@Z 1004edc0 f i libucrtd:output.obj
 0001:0004de80       ?process@?$output_processor@DV?$stream_output_adapter@D@__crt_stdio_output@@V?$format_validation_base@DV?$stream_output_adapter@D@__crt_stdio_output@@@2@@__crt_stdio_output@@QAEHXZ 1004ee80 f i libucrtd:output.obj
 0001:0004e130       ?process@?$output_processor@DV?$stream_output_adapter@D@__crt_stdio_output@@V?$positional_parameter_base@DV?$stream_output_adapter@D@__crt_stdio_output@@@2@@__crt_stdio_output@@QAEHXZ 1004f130 f i libucrtd:output.obj
 0001:0004e3e0       ?process@?$output_processor@DV?$stream_output_adapter@D@__crt_stdio_output@@V?$standard_base@DV?$stream_output_adapter@D@__crt_stdio_output@@@2@@__crt_stdio_output@@QAEHXZ 1004f3e0 f i libucrtd:output.obj
 0001:0004e690       ?process@?$output_processor@DV?$string_output_adapter@D@__crt_stdio_output@@V?$format_validation_base@DV?$string_output_adapter@D@__crt_stdio_output@@@2@@__crt_stdio_output@@QAEHXZ 1004f690 f i libucrtd:output.obj
 0001:0004e940       ?process@?$output_processor@DV?$string_output_adapter@D@__crt_stdio_output@@V?$positional_parameter_base@DV?$string_output_adapter@D@__crt_stdio_output@@@2@@__crt_stdio_output@@QAEHXZ 1004f940 f i libucrtd:output.obj
 0001:0004ebf0       ?process@?$output_processor@DV?$string_output_adapter@D@__crt_stdio_output@@V?$standard_base@DV?$string_output_adapter@D@__crt_stdio_output@@@2@@__crt_stdio_output@@QAEHXZ 1004fbf0 f i libucrtd:output.obj
 0001:0004eea0       ?process@?$output_processor@_WV?$stream_output_adapter@_W@__crt_stdio_output@@V?$format_validation_base@_WV?$stream_output_adapter@_W@__crt_stdio_output@@@2@@__crt_stdio_output@@QAEHXZ 1004fea0 f i libucrtd:output.obj
 0001:0004f150       ?process@?$output_processor@_WV?$stream_output_adapter@_W@__crt_stdio_output@@V?$positional_parameter_base@_WV?$stream_output_adapter@_W@__crt_stdio_output@@@2@@__crt_stdio_output@@QAEHXZ 10050150 f i libucrtd:output.obj
 0001:0004f400       ?process@?$output_processor@_WV?$stream_output_adapter@_W@__crt_stdio_output@@V?$standard_base@_WV?$stream_output_adapter@_W@__crt_stdio_output@@@2@@__crt_stdio_output@@QAEHXZ 10050400 f i libucrtd:output.obj
 0001:0004f6b0       ?process@?$output_processor@_WV?$string_output_adapter@_W@__crt_stdio_output@@V?$format_validation_base@_WV?$string_output_adapter@_W@__crt_stdio_output@@@2@@__crt_stdio_output@@QAEHXZ 100506b0 f i libucrtd:output.obj
 0001:0004f960       ?process@?$output_processor@_WV?$string_output_adapter@_W@__crt_stdio_output@@V?$positional_parameter_base@_WV?$string_output_adapter@_W@__crt_stdio_output@@@2@@__crt_stdio_output@@QAEHXZ 10050960 f i libucrtd:output.obj
 0001:0004fc10       ?process@?$output_processor@_WV?$string_output_adapter@_W@__crt_stdio_output@@V?$standard_base@_WV?$string_output_adapter@_W@__crt_stdio_output@@@2@@__crt_stdio_output@@QAEHXZ 10050c10 f i libucrtd:output.obj
 0001:0004fec0       ?public_stream@__crt_stdio_stream@@QBEPAU_iobuf@@XZ 10050ec0 f i libucrtd:output.obj
 0001:0004fee0       ?set_flag@?$output_processor@DV?$stream_output_adapter@D@__crt_stdio_output@@V?$format_validation_base@DV?$stream_output_adapter@D@__crt_stdio_output@@@2@@__crt_stdio_output@@AAEXI@Z 10050ee0 f i libucrtd:output.obj
 0001:0004ff00       ?set_flag@?$output_processor@DV?$stream_output_adapter@D@__crt_stdio_output@@V?$positional_parameter_base@DV?$stream_output_adapter@D@__crt_stdio_output@@@2@@__crt_stdio_output@@AAEXI@Z 10050f00 f i libucrtd:output.obj
 0001:0004ff20       ?set_flag@?$output_processor@DV?$stream_output_adapter@D@__crt_stdio_output@@V?$standard_base@DV?$stream_output_adapter@D@__crt_stdio_output@@@2@@__crt_stdio_output@@AAEXI@Z 10050f20 f i libucrtd:output.obj
 0001:0004ff40       ?set_flag@?$output_processor@DV?$string_output_adapter@D@__crt_stdio_output@@V?$format_validation_base@DV?$string_output_adapter@D@__crt_stdio_output@@@2@@__crt_stdio_output@@AAEXI@Z 10050f40 f i libucrtd:output.obj
 0001:0004ff60       ?set_flag@?$output_processor@DV?$string_output_adapter@D@__crt_stdio_output@@V?$positional_parameter_base@DV?$string_output_adapter@D@__crt_stdio_output@@@2@@__crt_stdio_output@@AAEXI@Z 10050f60 f i libucrtd:output.obj
 0001:0004ff80       ?set_flag@?$output_processor@DV?$string_output_adapter@D@__crt_stdio_output@@V?$standard_base@DV?$string_output_adapter@D@__crt_stdio_output@@@2@@__crt_stdio_output@@AAEXI@Z 10050f80 f i libucrtd:output.obj
 0001:0004ffa0       ?set_flag@?$output_processor@_WV?$stream_output_adapter@_W@__crt_stdio_output@@V?$format_validation_base@_WV?$stream_output_adapter@_W@__crt_stdio_output@@@2@@__crt_stdio_output@@AAEXI@Z 10050fa0 f i libucrtd:output.obj
 0001:0004ffc0       ?set_flag@?$output_processor@_WV?$stream_output_adapter@_W@__crt_stdio_output@@V?$positional_parameter_base@_WV?$stream_output_adapter@_W@__crt_stdio_output@@@2@@__crt_stdio_output@@AAEXI@Z 10050fc0 f i libucrtd:output.obj
 0001:0004ffe0       ?set_flag@?$output_processor@_WV?$stream_output_adapter@_W@__crt_stdio_output@@V?$standard_base@_WV?$stream_output_adapter@_W@__crt_stdio_output@@@2@@__crt_stdio_output@@AAEXI@Z 10050fe0 f i libucrtd:output.obj
 0001:00050000       ?set_flag@?$output_processor@_WV?$string_output_adapter@_W@__crt_stdio_output@@V?$format_validation_base@_WV?$string_output_adapter@_W@__crt_stdio_output@@@2@@__crt_stdio_output@@AAEXI@Z 10051000 f i libucrtd:output.obj
 0001:00050020       ?set_flag@?$output_processor@_WV?$string_output_adapter@_W@__crt_stdio_output@@V?$positional_parameter_base@_WV?$string_output_adapter@_W@__crt_stdio_output@@@2@@__crt_stdio_output@@AAEXI@Z 10051020 f i libucrtd:output.obj
 0001:00050040       ?set_flag@?$output_processor@_WV?$string_output_adapter@_W@__crt_stdio_output@@V?$standard_base@_WV?$string_output_adapter@_W@__crt_stdio_output@@@2@@__crt_stdio_output@@AAEXI@Z 10051040 f i libucrtd:output.obj
 0001:00050060       ?should_format@?$positional_parameter_base@DV?$stream_output_adapter@D@__crt_stdio_output@@@__crt_stdio_output@@IAE_NXZ 10051060 f i libucrtd:output.obj
 0001:000500a0       ?should_format@?$positional_parameter_base@DV?$string_output_adapter@D@__crt_stdio_output@@@__crt_stdio_output@@IAE_NXZ 100510a0 f i libucrtd:output.obj
 0001:000500e0       ?should_format@?$positional_parameter_base@_WV?$stream_output_adapter@_W@__crt_stdio_output@@@__crt_stdio_output@@IAE_NXZ 100510e0 f i libucrtd:output.obj
 0001:00050120       ?should_format@?$positional_parameter_base@_WV?$string_output_adapter@_W@__crt_stdio_output@@@__crt_stdio_output@@IAE_NXZ 10051120 f i libucrtd:output.obj
 0001:00050160       ?should_format@?$standard_base@DV?$stream_output_adapter@D@__crt_stdio_output@@@__crt_stdio_output@@IAE_NXZ 10051160 f i libucrtd:output.obj
 0001:00050170       ?should_format@?$standard_base@DV?$string_output_adapter@D@__crt_stdio_output@@@__crt_stdio_output@@IAE_NXZ 10051170 f i libucrtd:output.obj
 0001:00050180       ?should_format@?$standard_base@_WV?$stream_output_adapter@_W@__crt_stdio_output@@@__crt_stdio_output@@IAE_NXZ 10051180 f i libucrtd:output.obj
 0001:00050190       ?should_format@?$standard_base@_WV?$string_output_adapter@_W@__crt_stdio_output@@@__crt_stdio_output@@IAE_NXZ 10051190 f i libucrtd:output.obj
 0001:000501a0       ?should_skip_normal_state_processing@?$positional_parameter_base@DV?$stream_output_adapter@D@__crt_stdio_output@@@__crt_stdio_output@@IAE_NXZ 100511a0 f i libucrtd:output.obj
 0001:000501f0       ?should_skip_normal_state_processing@?$positional_parameter_base@DV?$string_output_adapter@D@__crt_stdio_output@@@__crt_stdio_output@@IAE_NXZ 100511f0 f i libucrtd:output.obj
 0001:00050240       ?should_skip_normal_state_processing@?$positional_parameter_base@_WV?$stream_output_adapter@_W@__crt_stdio_output@@@__crt_stdio_output@@IAE_NXZ 10051240 f i libucrtd:output.obj
 0001:00050290       ?should_skip_normal_state_processing@?$positional_parameter_base@_WV?$string_output_adapter@_W@__crt_stdio_output@@@__crt_stdio_output@@IAE_NXZ 10051290 f i libucrtd:output.obj
 0001:000502e0       ?should_skip_normal_state_processing@?$standard_base@DV?$stream_output_adapter@D@__crt_stdio_output@@@__crt_stdio_output@@IAE_NXZ 100512e0 f i libucrtd:output.obj
 0001:000502f0       ?should_skip_normal_state_processing@?$standard_base@DV?$string_output_adapter@D@__crt_stdio_output@@@__crt_stdio_output@@IAE_NXZ 100512f0 f i libucrtd:output.obj
 0001:00050300       ?should_skip_normal_state_processing@?$standard_base@_WV?$stream_output_adapter@_W@__crt_stdio_output@@@__crt_stdio_output@@IAE_NXZ 10051300 f i libucrtd:output.obj
 0001:00050310       ?should_skip_normal_state_processing@?$standard_base@_WV?$string_output_adapter@_W@__crt_stdio_output@@@__crt_stdio_output@@IAE_NXZ 10051310 f i libucrtd:output.obj
 0001:00050320       ?should_skip_type_state_output@?$positional_parameter_base@DV?$stream_output_adapter@D@__crt_stdio_output@@@__crt_stdio_output@@IBE_NXZ 10051320 f i libucrtd:output.obj
 0001:00050360       ?should_skip_type_state_output@?$positional_parameter_base@DV?$string_output_adapter@D@__crt_stdio_output@@@__crt_stdio_output@@IBE_NXZ 10051360 f i libucrtd:output.obj
 0001:000503a0       ?should_skip_type_state_output@?$positional_parameter_base@_WV?$stream_output_adapter@_W@__crt_stdio_output@@@__crt_stdio_output@@IBE_NXZ 100513a0 f i libucrtd:output.obj
 0001:000503e0       ?should_skip_type_state_output@?$positional_parameter_base@_WV?$string_output_adapter@_W@__crt_stdio_output@@@__crt_stdio_output@@IBE_NXZ 100513e0 f i libucrtd:output.obj
 0001:00050420       ?should_skip_type_state_output@?$standard_base@DV?$stream_output_adapter@D@__crt_stdio_output@@@__crt_stdio_output@@IBE_NXZ 10051420 f i libucrtd:output.obj
 0001:00050430       ?should_skip_type_state_output@?$standard_base@DV?$string_output_adapter@D@__crt_stdio_output@@@__crt_stdio_output@@IBE_NXZ 10051430 f i libucrtd:output.obj
 0001:00050440       ?should_skip_type_state_output@?$standard_base@_WV?$stream_output_adapter@_W@__crt_stdio_output@@@__crt_stdio_output@@IBE_NXZ 10051440 f i libucrtd:output.obj
 0001:00050450       ?should_skip_type_state_output@?$standard_base@_WV?$string_output_adapter@_W@__crt_stdio_output@@@__crt_stdio_output@@IBE_NXZ 10051450 f i libucrtd:output.obj
 0001:00050460       ?state_case_dot@?$output_processor@DV?$stream_output_adapter@D@__crt_stdio_output@@V?$format_validation_base@DV?$stream_output_adapter@D@__crt_stdio_output@@@2@@__crt_stdio_output@@AAE_NXZ 10051460 f i libucrtd:output.obj
 0001:00050480       ?state_case_dot@?$output_processor@DV?$stream_output_adapter@D@__crt_stdio_output@@V?$positional_parameter_base@DV?$stream_output_adapter@D@__crt_stdio_output@@@2@@__crt_stdio_output@@AAE_NXZ 10051480 f i libucrtd:output.obj
 0001:000504a0       ?state_case_dot@?$output_processor@DV?$stream_output_adapter@D@__crt_stdio_output@@V?$standard_base@DV?$stream_output_adapter@D@__crt_stdio_output@@@2@@__crt_stdio_output@@AAE_NXZ 100514a0 f i libucrtd:output.obj
 0001:000504c0       ?state_case_dot@?$output_processor@DV?$string_output_adapter@D@__crt_stdio_output@@V?$format_validation_base@DV?$string_output_adapter@D@__crt_stdio_output@@@2@@__crt_stdio_output@@AAE_NXZ 100514c0 f i libucrtd:output.obj
 0001:000504e0       ?state_case_dot@?$output_processor@DV?$string_output_adapter@D@__crt_stdio_output@@V?$positional_parameter_base@DV?$string_output_adapter@D@__crt_stdio_output@@@2@@__crt_stdio_output@@AAE_NXZ 100514e0 f i libucrtd:output.obj
 0001:00050500       ?state_case_dot@?$output_processor@DV?$string_output_adapter@D@__crt_stdio_output@@V?$standard_base@DV?$string_output_adapter@D@__crt_stdio_output@@@2@@__crt_stdio_output@@AAE_NXZ 10051500 f i libucrtd:output.obj
 0001:00050520       ?state_case_dot@?$output_processor@_WV?$stream_output_adapter@_W@__crt_stdio_output@@V?$format_validation_base@_WV?$stream_output_adapter@_W@__crt_stdio_output@@@2@@__crt_stdio_output@@AAE_NXZ 10051520 f i libucrtd:output.obj
 0001:00050540       ?state_case_dot@?$output_processor@_WV?$stream_output_adapter@_W@__crt_stdio_output@@V?$positional_parameter_base@_WV?$stream_output_adapter@_W@__crt_stdio_output@@@2@@__crt_stdio_output@@AAE_NXZ 10051540 f i libucrtd:output.obj
 0001:00050560       ?state_case_dot@?$output_processor@_WV?$stream_output_adapter@_W@__crt_stdio_output@@V?$standard_base@_WV?$stream_output_adapter@_W@__crt_stdio_output@@@2@@__crt_stdio_output@@AAE_NXZ 10051560 f i libucrtd:output.obj
 0001:00050580       ?state_case_dot@?$output_processor@_WV?$string_output_adapter@_W@__crt_stdio_output@@V?$format_validation_base@_WV?$string_output_adapter@_W@__crt_stdio_output@@@2@@__crt_stdio_output@@AAE_NXZ 10051580 f i libucrtd:output.obj
 0001:000505a0       ?state_case_dot@?$output_processor@_WV?$string_output_adapter@_W@__crt_stdio_output@@V?$positional_parameter_base@_WV?$string_output_adapter@_W@__crt_stdio_output@@@2@@__crt_stdio_output@@AAE_NXZ 100515a0 f i libucrtd:output.obj
 0001:000505c0       ?state_case_dot@?$output_processor@_WV?$string_output_adapter@_W@__crt_stdio_output@@V?$standard_base@_WV?$string_output_adapter@_W@__crt_stdio_output@@@2@@__crt_stdio_output@@AAE_NXZ 100515c0 f i libucrtd:output.obj
 0001:000505e0       ?state_case_flag@?$output_processor@DV?$stream_output_adapter@D@__crt_stdio_output@@V?$format_validation_base@DV?$stream_output_adapter@D@__crt_stdio_output@@@2@@__crt_stdio_output@@AAE_NXZ 100515e0 f i libucrtd:output.obj
 0001:00050690       ?state_case_flag@?$output_processor@DV?$stream_output_adapter@D@__crt_stdio_output@@V?$positional_parameter_base@DV?$stream_output_adapter@D@__crt_stdio_output@@@2@@__crt_stdio_output@@AAE_NXZ 10051690 f i libucrtd:output.obj
 0001:00050740       ?state_case_flag@?$output_processor@DV?$stream_output_adapter@D@__crt_stdio_output@@V?$standard_base@DV?$stream_output_adapter@D@__crt_stdio_output@@@2@@__crt_stdio_output@@AAE_NXZ 10051740 f i libucrtd:output.obj
 0001:000507f0       ?state_case_flag@?$output_processor@DV?$string_output_adapter@D@__crt_stdio_output@@V?$format_validation_base@DV?$string_output_adapter@D@__crt_stdio_output@@@2@@__crt_stdio_output@@AAE_NXZ 100517f0 f i libucrtd:output.obj
 0001:000508a0       ?state_case_flag@?$output_processor@DV?$string_output_adapter@D@__crt_stdio_output@@V?$positional_parameter_base@DV?$string_output_adapter@D@__crt_stdio_output@@@2@@__crt_stdio_output@@AAE_NXZ 100518a0 f i libucrtd:output.obj
 0001:00050950       ?state_case_flag@?$output_processor@DV?$string_output_adapter@D@__crt_stdio_output@@V?$standard_base@DV?$string_output_adapter@D@__crt_stdio_output@@@2@@__crt_stdio_output@@AAE_NXZ 10051950 f i libucrtd:output.obj
 0001:00050a00       ?state_case_flag@?$output_processor@_WV?$stream_output_adapter@_W@__crt_stdio_output@@V?$format_validation_base@_WV?$stream_output_adapter@_W@__crt_stdio_output@@@2@@__crt_stdio_output@@AAE_NXZ 10051a00 f i libucrtd:output.obj
 0001:00050ab0       ?state_case_flag@?$output_processor@_WV?$stream_output_adapter@_W@__crt_stdio_output@@V?$positional_parameter_base@_WV?$stream_output_adapter@_W@__crt_stdio_output@@@2@@__crt_stdio_output@@AAE_NXZ 10051ab0 f i libucrtd:output.obj
 0001:00050b60       ?state_case_flag@?$output_processor@_WV?$stream_output_adapter@_W@__crt_stdio_output@@V?$standard_base@_WV?$stream_output_adapter@_W@__crt_stdio_output@@@2@@__crt_stdio_output@@AAE_NXZ 10051b60 f i libucrtd:output.obj
 0001:00050c10       ?state_case_flag@?$output_processor@_WV?$string_output_adapter@_W@__crt_stdio_output@@V?$format_validation_base@_WV?$string_output_adapter@_W@__crt_stdio_output@@@2@@__crt_stdio_output@@AAE_NXZ 10051c10 f i libucrtd:output.obj
 0001:00050cc0       ?state_case_flag@?$output_processor@_WV?$string_output_adapter@_W@__crt_stdio_output@@V?$positional_parameter_base@_WV?$string_output_adapter@_W@__crt_stdio_output@@@2@@__crt_stdio_output@@AAE_NXZ 10051cc0 f i libucrtd:output.obj
 0001:00050d70       ?state_case_flag@?$output_processor@_WV?$string_output_adapter@_W@__crt_stdio_output@@V?$standard_base@_WV?$string_output_adapter@_W@__crt_stdio_output@@@2@@__crt_stdio_output@@AAE_NXZ 10051d70 f i libucrtd:output.obj
 0001:00050e20       ?state_case_normal@?$output_processor@DV?$stream_output_adapter@D@__crt_stdio_output@@V?$format_validation_base@DV?$stream_output_adapter@D@__crt_stdio_output@@@2@@__crt_stdio_output@@AAE_NXZ 10051e20 f i libucrtd:output.obj
 0001:00050ed0       ?state_case_normal@?$output_processor@DV?$stream_output_adapter@D@__crt_stdio_output@@V?$positional_parameter_base@DV?$stream_output_adapter@D@__crt_stdio_output@@@2@@__crt_stdio_output@@AAE_NXZ 10051ed0 f i libucrtd:output.obj
 0001:00050f80       ?state_case_normal@?$output_processor@DV?$stream_output_adapter@D@__crt_stdio_output@@V?$standard_base@DV?$stream_output_adapter@D@__crt_stdio_output@@@2@@__crt_stdio_output@@AAE_NXZ 10051f80 f i libucrtd:output.obj
 0001:00051030       ?state_case_normal@?$output_processor@DV?$string_output_adapter@D@__crt_stdio_output@@V?$format_validation_base@DV?$string_output_adapter@D@__crt_stdio_output@@@2@@__crt_stdio_output@@AAE_NXZ 10052030 f i libucrtd:output.obj
 0001:000510e0       ?state_case_normal@?$output_processor@DV?$string_output_adapter@D@__crt_stdio_output@@V?$positional_parameter_base@DV?$string_output_adapter@D@__crt_stdio_output@@@2@@__crt_stdio_output@@AAE_NXZ 100520e0 f i libucrtd:output.obj
 0001:00051190       ?state_case_normal@?$output_processor@DV?$string_output_adapter@D@__crt_stdio_output@@V?$standard_base@DV?$string_output_adapter@D@__crt_stdio_output@@@2@@__crt_stdio_output@@AAE_NXZ 10052190 f i libucrtd:output.obj
 0001:00051240       ?state_case_normal@?$output_processor@_WV?$stream_output_adapter@_W@__crt_stdio_output@@V?$format_validation_base@_WV?$stream_output_adapter@_W@__crt_stdio_output@@@2@@__crt_stdio_output@@AAE_NXZ 10052240 f i libucrtd:output.obj
 0001:000512f0       ?state_case_normal@?$output_processor@_WV?$stream_output_adapter@_W@__crt_stdio_output@@V?$positional_parameter_base@_WV?$stream_output_adapter@_W@__crt_stdio_output@@@2@@__crt_stdio_output@@AAE_NXZ 100522f0 f i libucrtd:output.obj
 0001:000513a0       ?state_case_normal@?$output_processor@_WV?$stream_output_adapter@_W@__crt_stdio_output@@V?$standard_base@_WV?$stream_output_adapter@_W@__crt_stdio_output@@@2@@__crt_stdio_output@@AAE_NXZ 100523a0 f i libucrtd:output.obj
 0001:00051450       ?state_case_normal@?$output_processor@_WV?$string_output_adapter@_W@__crt_stdio_output@@V?$format_validation_base@_WV?$string_output_adapter@_W@__crt_stdio_output@@@2@@__crt_stdio_output@@AAE_NXZ 10052450 f i libucrtd:output.obj
 0001:00051500       ?state_case_normal@?$output_processor@_WV?$string_output_adapter@_W@__crt_stdio_output@@V?$positional_parameter_base@_WV?$string_output_adapter@_W@__crt_stdio_output@@@2@@__crt_stdio_output@@AAE_NXZ 10052500 f i libucrtd:output.obj
 0001:000515b0       ?state_case_normal@?$output_processor@_WV?$string_output_adapter@_W@__crt_stdio_output@@V?$standard_base@_WV?$string_output_adapter@_W@__crt_stdio_output@@@2@@__crt_stdio_output@@AAE_NXZ 100525b0 f i libucrtd:output.obj
 0001:00051660       ?state_case_normal_common@?$output_processor@DV?$stream_output_adapter@D@__crt_stdio_output@@V?$format_validation_base@DV?$stream_output_adapter@D@__crt_stdio_output@@@2@@__crt_stdio_output@@AAE_NXZ 10052660 f i libucrtd:output.obj
 0001:000516b0       ?state_case_normal_common@?$output_processor@DV?$stream_output_adapter@D@__crt_stdio_output@@V?$positional_parameter_base@DV?$stream_output_adapter@D@__crt_stdio_output@@@2@@__crt_stdio_output@@AAE_NXZ 100526b0 f i libucrtd:output.obj
 0001:00051700       ?state_case_normal_common@?$output_processor@DV?$stream_output_adapter@D@__crt_stdio_output@@V?$standard_base@DV?$stream_output_adapter@D@__crt_stdio_output@@@2@@__crt_stdio_output@@AAE_NXZ 10052700 f i libucrtd:output.obj
 0001:00051750       ?state_case_normal_common@?$output_processor@DV?$string_output_adapter@D@__crt_stdio_output@@V?$format_validation_base@DV?$string_output_adapter@D@__crt_stdio_output@@@2@@__crt_stdio_output@@AAE_NXZ 10052750 f i libucrtd:output.obj
 0001:000517a0       ?state_case_normal_common@?$output_processor@DV?$string_output_adapter@D@__crt_stdio_output@@V?$positional_parameter_base@DV?$string_output_adapter@D@__crt_stdio_output@@@2@@__crt_stdio_output@@AAE_NXZ 100527a0 f i libucrtd:output.obj
 0001:000517f0       ?state_case_normal_common@?$output_processor@DV?$string_output_adapter@D@__crt_stdio_output@@V?$standard_base@DV?$string_output_adapter@D@__crt_stdio_output@@@2@@__crt_stdio_output@@AAE_NXZ 100527f0 f i libucrtd:output.obj
 0001:00051840       ?state_case_normal_common@?$output_processor@_WV?$stream_output_adapter@_W@__crt_stdio_output@@V?$format_validation_base@_WV?$stream_output_adapter@_W@__crt_stdio_output@@@2@@__crt_stdio_output@@AAE_NXZ 10052840 f i libucrtd:output.obj
 0001:00051890       ?state_case_normal_common@?$output_processor@_WV?$stream_output_adapter@_W@__crt_stdio_output@@V?$positional_parameter_base@_WV?$stream_output_adapter@_W@__crt_stdio_output@@@2@@__crt_stdio_output@@AAE_NXZ 10052890 f i libucrtd:output.obj
 0001:000518e0       ?state_case_normal_common@?$output_processor@_WV?$stream_output_adapter@_W@__crt_stdio_output@@V?$standard_base@_WV?$stream_output_adapter@_W@__crt_stdio_output@@@2@@__crt_stdio_output@@AAE_NXZ 100528e0 f i libucrtd:output.obj
 0001:00051930       ?state_case_normal_common@?$output_processor@_WV?$string_output_adapter@_W@__crt_stdio_output@@V?$format_validation_base@_WV?$string_output_adapter@_W@__crt_stdio_output@@@2@@__crt_stdio_output@@AAE_NXZ 10052930 f i libucrtd:output.obj
 0001:00051980       ?state_case_normal_common@?$output_processor@_WV?$string_output_adapter@_W@__crt_stdio_output@@V?$positional_parameter_base@_WV?$string_output_adapter@_W@__crt_stdio_output@@@2@@__crt_stdio_output@@AAE_NXZ 10052980 f i libucrtd:output.obj
 0001:000519d0       ?state_case_normal_common@?$output_processor@_WV?$string_output_adapter@_W@__crt_stdio_output@@V?$standard_base@_WV?$string_output_adapter@_W@__crt_stdio_output@@@2@@__crt_stdio_output@@AAE_NXZ 100529d0 f i libucrtd:output.obj
 0001:00051a20       ?state_case_normal_tchar@?$output_processor@DV?$stream_output_adapter@D@__crt_stdio_output@@V?$format_validation_base@DV?$stream_output_adapter@D@__crt_stdio_output@@@2@@__crt_stdio_output@@AAE_ND@Z 10052a20 f i libucrtd:output.obj
 0001:00051b20       ?state_case_normal_tchar@?$output_processor@DV?$stream_output_adapter@D@__crt_stdio_output@@V?$positional_parameter_base@DV?$stream_output_adapter@D@__crt_stdio_output@@@2@@__crt_stdio_output@@AAE_ND@Z 10052b20 f i libucrtd:output.obj
 0001:00051c20       ?state_case_normal_tchar@?$output_processor@DV?$stream_output_adapter@D@__crt_stdio_output@@V?$standard_base@DV?$stream_output_adapter@D@__crt_stdio_output@@@2@@__crt_stdio_output@@AAE_ND@Z 10052c20 f i libucrtd:output.obj
 0001:00051d20       ?state_case_normal_tchar@?$output_processor@DV?$string_output_adapter@D@__crt_stdio_output@@V?$format_validation_base@DV?$string_output_adapter@D@__crt_stdio_output@@@2@@__crt_stdio_output@@AAE_ND@Z 10052d20 f i libucrtd:output.obj
 0001:00051e20       ?state_case_normal_tchar@?$output_processor@DV?$string_output_adapter@D@__crt_stdio_output@@V?$positional_parameter_base@DV?$string_output_adapter@D@__crt_stdio_output@@@2@@__crt_stdio_output@@AAE_ND@Z 10052e20 f i libucrtd:output.obj
 0001:00051f20       ?state_case_normal_tchar@?$output_processor@DV?$string_output_adapter@D@__crt_stdio_output@@V?$standard_base@DV?$string_output_adapter@D@__crt_stdio_output@@@2@@__crt_stdio_output@@AAE_ND@Z 10052f20 f i libucrtd:output.obj
 0001:00052020       ?state_case_normal_tchar@?$output_processor@_WV?$stream_output_adapter@_W@__crt_stdio_output@@V?$format_validation_base@_WV?$stream_output_adapter@_W@__crt_stdio_output@@@2@@__crt_stdio_output@@AAE_N_W@Z 10053020 f i libucrtd:output.obj
 0001:00052040       ?state_case_normal_tchar@?$output_processor@_WV?$stream_output_adapter@_W@__crt_stdio_output@@V?$positional_parameter_base@_WV?$stream_output_adapter@_W@__crt_stdio_output@@@2@@__crt_stdio_output@@AAE_N_W@Z 10053040 f i libucrtd:output.obj
 0001:00052060       ?state_case_normal_tchar@?$output_processor@_WV?$stream_output_adapter@_W@__crt_stdio_output@@V?$standard_base@_WV?$stream_output_adapter@_W@__crt_stdio_output@@@2@@__crt_stdio_output@@AAE_N_W@Z 10053060 f i libucrtd:output.obj
 0001:00052080       ?state_case_normal_tchar@?$output_processor@_WV?$string_output_adapter@_W@__crt_stdio_output@@V?$format_validation_base@_WV?$string_output_adapter@_W@__crt_stdio_output@@@2@@__crt_stdio_output@@AAE_N_W@Z 10053080 f i libucrtd:output.obj
 0001:000520a0       ?state_case_normal_tchar@?$output_processor@_WV?$string_output_adapter@_W@__crt_stdio_output@@V?$positional_parameter_base@_WV?$string_output_adapter@_W@__crt_stdio_output@@@2@@__crt_stdio_output@@AAE_N_W@Z 100530a0 f i libucrtd:output.obj
 0001:000520c0       ?state_case_normal_tchar@?$output_processor@_WV?$string_output_adapter@_W@__crt_stdio_output@@V?$standard_base@_WV?$string_output_adapter@_W@__crt_stdio_output@@@2@@__crt_stdio_output@@AAE_N_W@Z 100530c0 f i libucrtd:output.obj
 0001:000520e0       ?state_case_percent@?$output_processor@DV?$stream_output_adapter@D@__crt_stdio_output@@V?$format_validation_base@DV?$stream_output_adapter@D@__crt_stdio_output@@@2@@__crt_stdio_output@@AAE_NXZ 100530e0 f i libucrtd:output.obj
 0001:00052130       ?state_case_percent@?$output_processor@DV?$stream_output_adapter@D@__crt_stdio_output@@V?$positional_parameter_base@DV?$stream_output_adapter@D@__crt_stdio_output@@@2@@__crt_stdio_output@@AAE_NXZ 10053130 f i libucrtd:output.obj
 0001:00052180       ?state_case_percent@?$output_processor@DV?$stream_output_adapter@D@__crt_stdio_output@@V?$standard_base@DV?$stream_output_adapter@D@__crt_stdio_output@@@2@@__crt_stdio_output@@AAE_NXZ 10053180 f i libucrtd:output.obj
 0001:000521d0       ?state_case_percent@?$output_processor@DV?$string_output_adapter@D@__crt_stdio_output@@V?$format_validation_base@DV?$string_output_adapter@D@__crt_stdio_output@@@2@@__crt_stdio_output@@AAE_NXZ 100531d0 f i libucrtd:output.obj
 0001:00052220       ?state_case_percent@?$output_processor@DV?$string_output_adapter@D@__crt_stdio_output@@V?$positional_parameter_base@DV?$string_output_adapter@D@__crt_stdio_output@@@2@@__crt_stdio_output@@AAE_NXZ 10053220 f i libucrtd:output.obj
 0001:00052270       ?state_case_percent@?$output_processor@DV?$string_output_adapter@D@__crt_stdio_output@@V?$standard_base@DV?$string_output_adapter@D@__crt_stdio_output@@@2@@__crt_stdio_output@@AAE_NXZ 10053270 f i libucrtd:output.obj
 0001:000522c0       ?state_case_percent@?$output_processor@_WV?$stream_output_adapter@_W@__crt_stdio_output@@V?$format_validation_base@_WV?$stream_output_adapter@_W@__crt_stdio_output@@@2@@__crt_stdio_output@@AAE_NXZ 100532c0 f i libucrtd:output.obj
 0001:00052310       ?state_case_percent@?$output_processor@_WV?$stream_output_adapter@_W@__crt_stdio_output@@V?$positional_parameter_base@_WV?$stream_output_adapter@_W@__crt_stdio_output@@@2@@__crt_stdio_output@@AAE_NXZ 10053310 f i libucrtd:output.obj
 0001:00052360       ?state_case_percent@?$output_processor@_WV?$stream_output_adapter@_W@__crt_stdio_output@@V?$standard_base@_WV?$stream_output_adapter@_W@__crt_stdio_output@@@2@@__crt_stdio_output@@AAE_NXZ 10053360 f i libucrtd:output.obj
 0001:000523b0       ?state_case_percent@?$output_processor@_WV?$string_output_adapter@_W@__crt_stdio_output@@V?$format_validation_base@_WV?$string_output_adapter@_W@__crt_stdio_output@@@2@@__crt_stdio_output@@AAE_NXZ 100533b0 f i libucrtd:output.obj
 0001:00052400       ?state_case_percent@?$output_processor@_WV?$string_output_adapter@_W@__crt_stdio_output@@V?$positional_parameter_base@_WV?$string_output_adapter@_W@__crt_stdio_output@@@2@@__crt_stdio_output@@AAE_NXZ 10053400 f i libucrtd:output.obj
 0001:00052450       ?state_case_percent@?$output_processor@_WV?$string_output_adapter@_W@__crt_stdio_output@@V?$standard_base@_WV?$string_output_adapter@_W@__crt_stdio_output@@@2@@__crt_stdio_output@@AAE_NXZ 10053450 f i libucrtd:output.obj
 0001:000524a0       ?state_case_precision@?$output_processor@DV?$stream_output_adapter@D@__crt_stdio_output@@V?$format_validation_base@DV?$stream_output_adapter@D@__crt_stdio_output@@@2@@__crt_stdio_output@@AAE_NXZ 100534a0 f i libucrtd:output.obj
 0001:00052510       ?state_case_precision@?$output_processor@DV?$stream_output_adapter@D@__crt_stdio_output@@V?$positional_parameter_base@DV?$stream_output_adapter@D@__crt_stdio_output@@@2@@__crt_stdio_output@@AAE_NXZ 10053510 f i libucrtd:output.obj
 0001:00052580       ?state_case_precision@?$output_processor@DV?$stream_output_adapter@D@__crt_stdio_output@@V?$standard_base@DV?$stream_output_adapter@D@__crt_stdio_output@@@2@@__crt_stdio_output@@AAE_NXZ 10053580 f i libucrtd:output.obj
 0001:000525f0       ?state_case_precision@?$output_processor@DV?$string_output_adapter@D@__crt_stdio_output@@V?$format_validation_base@DV?$string_output_adapter@D@__crt_stdio_output@@@2@@__crt_stdio_output@@AAE_NXZ 100535f0 f i libucrtd:output.obj
 0001:00052660       ?state_case_precision@?$output_processor@DV?$string_output_adapter@D@__crt_stdio_output@@V?$positional_parameter_base@DV?$string_output_adapter@D@__crt_stdio_output@@@2@@__crt_stdio_output@@AAE_NXZ 10053660 f i libucrtd:output.obj
 0001:000526d0       ?state_case_precision@?$output_processor@DV?$string_output_adapter@D@__crt_stdio_output@@V?$standard_base@DV?$string_output_adapter@D@__crt_stdio_output@@@2@@__crt_stdio_output@@AAE_NXZ 100536d0 f i libucrtd:output.obj
 0001:00052740       ?state_case_precision@?$output_processor@_WV?$stream_output_adapter@_W@__crt_stdio_output@@V?$format_validation_base@_WV?$stream_output_adapter@_W@__crt_stdio_output@@@2@@__crt_stdio_output@@AAE_NXZ 10053740 f i libucrtd:output.obj
 0001:000527b0       ?state_case_precision@?$output_processor@_WV?$stream_output_adapter@_W@__crt_stdio_output@@V?$positional_parameter_base@_WV?$stream_output_adapter@_W@__crt_stdio_output@@@2@@__crt_stdio_output@@AAE_NXZ 100537b0 f i libucrtd:output.obj
 0001:00052820       ?state_case_precision@?$output_processor@_WV?$stream_output_adapter@_W@__crt_stdio_output@@V?$standard_base@_WV?$stream_output_adapter@_W@__crt_stdio_output@@@2@@__crt_stdio_output@@AAE_NXZ 10053820 f i libucrtd:output.obj
 0001:00052890       ?state_case_precision@?$output_processor@_WV?$string_output_adapter@_W@__crt_stdio_output@@V?$format_validation_base@_WV?$string_output_adapter@_W@__crt_stdio_output@@@2@@__crt_stdio_output@@AAE_NXZ 10053890 f i libucrtd:output.obj
 0001:00052900       ?state_case_precision@?$output_processor@_WV?$string_output_adapter@_W@__crt_stdio_output@@V?$positional_parameter_base@_WV?$string_output_adapter@_W@__crt_stdio_output@@@2@@__crt_stdio_output@@AAE_NXZ 10053900 f i libucrtd:output.obj
 0001:00052970       ?state_case_precision@?$output_processor@_WV?$string_output_adapter@_W@__crt_stdio_output@@V?$standard_base@_WV?$string_output_adapter@_W@__crt_stdio_output@@@2@@__crt_stdio_output@@AAE_NXZ 10053970 f i libucrtd:output.obj
 0001:000529e0       ?state_case_size@?$output_processor@DV?$stream_output_adapter@D@__crt_stdio_output@@V?$format_validation_base@DV?$stream_output_adapter@D@__crt_stdio_output@@@2@@__crt_stdio_output@@AAE_NXZ 100539e0 f i libucrtd:output.obj
 0001:00052db0       ?state_case_size@?$output_processor@DV?$stream_output_adapter@D@__crt_stdio_output@@V?$positional_parameter_base@DV?$stream_output_adapter@D@__crt_stdio_output@@@2@@__crt_stdio_output@@AAE_NXZ 10053db0 f i libucrtd:output.obj
 0001:00053180       ?state_case_size@?$output_processor@DV?$stream_output_adapter@D@__crt_stdio_output@@V?$standard_base@DV?$stream_output_adapter@D@__crt_stdio_output@@@2@@__crt_stdio_output@@AAE_NXZ 10054180 f i libucrtd:output.obj
 0001:00053550       ?state_case_size@?$output_processor@DV?$string_output_adapter@D@__crt_stdio_output@@V?$format_validation_base@DV?$string_output_adapter@D@__crt_stdio_output@@@2@@__crt_stdio_output@@AAE_NXZ 10054550 f i libucrtd:output.obj
 0001:00053920       ?state_case_size@?$output_processor@DV?$string_output_adapter@D@__crt_stdio_output@@V?$positional_parameter_base@DV?$string_output_adapter@D@__crt_stdio_output@@@2@@__crt_stdio_output@@AAE_NXZ 10054920 f i libucrtd:output.obj
 0001:00053cf0       ?state_case_size@?$output_processor@DV?$string_output_adapter@D@__crt_stdio_output@@V?$standard_base@DV?$string_output_adapter@D@__crt_stdio_output@@@2@@__crt_stdio_output@@AAE_NXZ 10054cf0 f i libucrtd:output.obj
 0001:000540c0       ?state_case_size@?$output_processor@_WV?$stream_output_adapter@_W@__crt_stdio_output@@V?$format_validation_base@_WV?$stream_output_adapter@_W@__crt_stdio_output@@@2@@__crt_stdio_output@@AAE_NXZ 100550c0 f i libucrtd:output.obj
 0001:00054490       ?state_case_size@?$output_processor@_WV?$stream_output_adapter@_W@__crt_stdio_output@@V?$positional_parameter_base@_WV?$stream_output_adapter@_W@__crt_stdio_output@@@2@@__crt_stdio_output@@AAE_NXZ 10055490 f i libucrtd:output.obj
 0001:00054860       ?state_case_size@?$output_processor@_WV?$stream_output_adapter@_W@__crt_stdio_output@@V?$standard_base@_WV?$stream_output_adapter@_W@__crt_stdio_output@@@2@@__crt_stdio_output@@AAE_NXZ 10055860 f i libucrtd:output.obj
 0001:00054c30       ?state_case_size@?$output_processor@_WV?$string_output_adapter@_W@__crt_stdio_output@@V?$format_validation_base@_WV?$string_output_adapter@_W@__crt_stdio_output@@@2@@__crt_stdio_output@@AAE_NXZ 10055c30 f i libucrtd:output.obj
 0001:00055000       ?state_case_size@?$output_processor@_WV?$string_output_adapter@_W@__crt_stdio_output@@V?$positional_parameter_base@_WV?$string_output_adapter@_W@__crt_stdio_output@@@2@@__crt_stdio_output@@AAE_NXZ 10056000 f i libucrtd:output.obj
 0001:000553d0       ?state_case_size@?$output_processor@_WV?$string_output_adapter@_W@__crt_stdio_output@@V?$standard_base@_WV?$string_output_adapter@_W@__crt_stdio_output@@@2@@__crt_stdio_output@@AAE_NXZ 100563d0 f i libucrtd:output.obj
 0001:000557a0       ?state_case_type@?$output_processor@DV?$stream_output_adapter@D@__crt_stdio_output@@V?$format_validation_base@DV?$stream_output_adapter@D@__crt_stdio_output@@@2@@__crt_stdio_output@@AAE_NXZ 100567a0 f i libucrtd:output.obj
 0001:00055b50       ?state_case_type@?$output_processor@DV?$stream_output_adapter@D@__crt_stdio_output@@V?$positional_parameter_base@DV?$stream_output_adapter@D@__crt_stdio_output@@@2@@__crt_stdio_output@@AAE_NXZ 10056b50 f i libucrtd:output.obj
 0001:00055f00       ?state_case_type@?$output_processor@DV?$stream_output_adapter@D@__crt_stdio_output@@V?$standard_base@DV?$stream_output_adapter@D@__crt_stdio_output@@@2@@__crt_stdio_output@@AAE_NXZ 10056f00 f i libucrtd:output.obj
 0001:000562b0       ?state_case_type@?$output_processor@DV?$string_output_adapter@D@__crt_stdio_output@@V?$format_validation_base@DV?$string_output_adapter@D@__crt_stdio_output@@@2@@__crt_stdio_output@@AAE_NXZ 100572b0 f i libucrtd:output.obj
 0001:00056660       ?state_case_type@?$output_processor@DV?$string_output_adapter@D@__crt_stdio_output@@V?$positional_parameter_base@DV?$string_output_adapter@D@__crt_stdio_output@@@2@@__crt_stdio_output@@AAE_NXZ 10057660 f i libucrtd:output.obj
 0001:00056a10       ?state_case_type@?$output_processor@DV?$string_output_adapter@D@__crt_stdio_output@@V?$standard_base@DV?$string_output_adapter@D@__crt_stdio_output@@@2@@__crt_stdio_output@@AAE_NXZ 10057a10 f i libucrtd:output.obj
 0001:00056dc0       ?state_case_type@?$output_processor@_WV?$stream_output_adapter@_W@__crt_stdio_output@@V?$format_validation_base@_WV?$stream_output_adapter@_W@__crt_stdio_output@@@2@@__crt_stdio_output@@AAE_NXZ 10057dc0 f i libucrtd:output.obj
 0001:000571a0       ?state_case_type@?$output_processor@_WV?$stream_output_adapter@_W@__crt_stdio_output@@V?$positional_parameter_base@_WV?$stream_output_adapter@_W@__crt_stdio_output@@@2@@__crt_stdio_output@@AAE_NXZ 100581a0 f i libucrtd:output.obj
 0001:00057580       ?state_case_type@?$output_processor@_WV?$stream_output_adapter@_W@__crt_stdio_output@@V?$standard_base@_WV?$stream_output_adapter@_W@__crt_stdio_output@@@2@@__crt_stdio_output@@AAE_NXZ 10058580 f i libucrtd:output.obj
 0001:00057960       ?state_case_type@?$output_processor@_WV?$string_output_adapter@_W@__crt_stdio_output@@V?$format_validation_base@_WV?$string_output_adapter@_W@__crt_stdio_output@@@2@@__crt_stdio_output@@AAE_NXZ 10058960 f i libucrtd:output.obj
 0001:00057d40       ?state_case_type@?$output_processor@_WV?$string_output_adapter@_W@__crt_stdio_output@@V?$positional_parameter_base@_WV?$string_output_adapter@_W@__crt_stdio_output@@@2@@__crt_stdio_output@@AAE_NXZ 10058d40 f i libucrtd:output.obj
 0001:00058120       ?state_case_type@?$output_processor@_WV?$string_output_adapter@_W@__crt_stdio_output@@V?$standard_base@_WV?$string_output_adapter@_W@__crt_stdio_output@@@2@@__crt_stdio_output@@AAE_NXZ 10059120 f i libucrtd:output.obj
 0001:00058500       ?state_case_width@?$output_processor@DV?$stream_output_adapter@D@__crt_stdio_output@@V?$format_validation_base@DV?$stream_output_adapter@D@__crt_stdio_output@@@2@@__crt_stdio_output@@AAE_NXZ 10059500 f i libucrtd:output.obj
 0001:00058580       ?state_case_width@?$output_processor@DV?$stream_output_adapter@D@__crt_stdio_output@@V?$positional_parameter_base@DV?$stream_output_adapter@D@__crt_stdio_output@@@2@@__crt_stdio_output@@AAE_NXZ 10059580 f i libucrtd:output.obj
 0001:00058600       ?state_case_width@?$output_processor@DV?$stream_output_adapter@D@__crt_stdio_output@@V?$standard_base@DV?$stream_output_adapter@D@__crt_stdio_output@@@2@@__crt_stdio_output@@AAE_NXZ 10059600 f i libucrtd:output.obj
 0001:00058680       ?state_case_width@?$output_processor@DV?$string_output_adapter@D@__crt_stdio_output@@V?$format_validation_base@DV?$string_output_adapter@D@__crt_stdio_output@@@2@@__crt_stdio_output@@AAE_NXZ 10059680 f i libucrtd:output.obj
 0001:00058700       ?state_case_width@?$output_processor@DV?$string_output_adapter@D@__crt_stdio_output@@V?$positional_parameter_base@DV?$string_output_adapter@D@__crt_stdio_output@@@2@@__crt_stdio_output@@AAE_NXZ 10059700 f i libucrtd:output.obj
 0001:00058780       ?state_case_width@?$output_processor@DV?$string_output_adapter@D@__crt_stdio_output@@V?$standard_base@DV?$string_output_adapter@D@__crt_stdio_output@@@2@@__crt_stdio_output@@AAE_NXZ 10059780 f i libucrtd:output.obj
 0001:00058800       ?state_case_width@?$output_processor@_WV?$stream_output_adapter@_W@__crt_stdio_output@@V?$format_validation_base@_WV?$stream_output_adapter@_W@__crt_stdio_output@@@2@@__crt_stdio_output@@AAE_NXZ 10059800 f i libucrtd:output.obj
 0001:00058880       ?state_case_width@?$output_processor@_WV?$stream_output_adapter@_W@__crt_stdio_output@@V?$positional_parameter_base@_WV?$stream_output_adapter@_W@__crt_stdio_output@@@2@@__crt_stdio_output@@AAE_NXZ 10059880 f i libucrtd:output.obj
 0001:00058900       ?state_case_width@?$output_processor@_WV?$stream_output_adapter@_W@__crt_stdio_output@@V?$standard_base@_WV?$stream_output_adapter@_W@__crt_stdio_output@@@2@@__crt_stdio_output@@AAE_NXZ 10059900 f i libucrtd:output.obj
 0001:00058980       ?state_case_width@?$output_processor@_WV?$string_output_adapter@_W@__crt_stdio_output@@V?$format_validation_base@_WV?$string_output_adapter@_W@__crt_stdio_output@@@2@@__crt_stdio_output@@AAE_NXZ 10059980 f i libucrtd:output.obj
 0001:00058a00       ?state_case_width@?$output_processor@_WV?$string_output_adapter@_W@__crt_stdio_output@@V?$positional_parameter_base@_WV?$string_output_adapter@_W@__crt_stdio_output@@@2@@__crt_stdio_output@@AAE_NXZ 10059a00 f i libucrtd:output.obj
 0001:00058a80       ?state_case_width@?$output_processor@_WV?$string_output_adapter@_W@__crt_stdio_output@@V?$standard_base@_WV?$string_output_adapter@_W@__crt_stdio_output@@@2@@__crt_stdio_output@@AAE_NXZ 10059a80 f i libucrtd:output.obj
 0001:00058b00       ?state_count@?$format_validation_base@DV?$stream_output_adapter@D@__crt_stdio_output@@@__crt_stdio_output@@KAIXZ 10059b00 f i libucrtd:output.obj
 0001:00058b10       ?state_count@?$format_validation_base@DV?$string_output_adapter@D@__crt_stdio_output@@@__crt_stdio_output@@KAIXZ 10059b10 f i libucrtd:output.obj
 0001:00058b20       ?state_count@?$format_validation_base@_WV?$stream_output_adapter@_W@__crt_stdio_output@@@__crt_stdio_output@@KAIXZ 10059b20 f i libucrtd:output.obj
 0001:00058b30       ?state_count@?$format_validation_base@_WV?$string_output_adapter@_W@__crt_stdio_output@@@__crt_stdio_output@@KAIXZ 10059b30 f i libucrtd:output.obj
 0001:00058b40       ?state_count@?$standard_base@DV?$stream_output_adapter@D@__crt_stdio_output@@@__crt_stdio_output@@KAIXZ 10059b40 f i libucrtd:output.obj
 0001:00058b50       ?state_count@?$standard_base@DV?$string_output_adapter@D@__crt_stdio_output@@@__crt_stdio_output@@KAIXZ 10059b50 f i libucrtd:output.obj
 0001:00058b60       ?state_count@?$standard_base@_WV?$stream_output_adapter@_W@__crt_stdio_output@@@__crt_stdio_output@@KAIXZ 10059b60 f i libucrtd:output.obj
 0001:00058b70       ?state_count@?$standard_base@_WV?$string_output_adapter@_W@__crt_stdio_output@@@__crt_stdio_output@@KAIXZ 10059b70 f i libucrtd:output.obj
 0001:00058b80       ?state_transition_table@?$format_validation_base@DV?$stream_output_adapter@D@__crt_stdio_output@@@__crt_stdio_output@@KAABV?$spectre_mitigated_lookup_table@Ustate_transition_pair@__crt_stdio_output@@$0IA@@2@XZ 10059b80 f i libucrtd:output.obj
 0001:00058b90       ?state_transition_table@?$format_validation_base@DV?$string_output_adapter@D@__crt_stdio_output@@@__crt_stdio_output@@KAABV?$spectre_mitigated_lookup_table@Ustate_transition_pair@__crt_stdio_output@@$0IA@@2@XZ 10059b90 f i libucrtd:output.obj
 0001:00058ba0       ?state_transition_table@?$format_validation_base@_WV?$stream_output_adapter@_W@__crt_stdio_output@@@__crt_stdio_output@@KAABV?$spectre_mitigated_lookup_table@Ustate_transition_pair@__crt_stdio_output@@$0IA@@2@XZ 10059ba0 f i libucrtd:output.obj
 0001:00058bb0       ?state_transition_table@?$format_validation_base@_WV?$string_output_adapter@_W@__crt_stdio_output@@@__crt_stdio_output@@KAABV?$spectre_mitigated_lookup_table@Ustate_transition_pair@__crt_stdio_output@@$0IA@@2@XZ 10059bb0 f i libucrtd:output.obj
 0001:00058bc0       ?state_transition_table@?$standard_base@DV?$stream_output_adapter@D@__crt_stdio_output@@@__crt_stdio_output@@KAABV?$spectre_mitigated_lookup_table@Ustate_transition_pair@__crt_stdio_output@@$0IA@@2@XZ 10059bc0 f i libucrtd:output.obj
 0001:00058bd0       ?state_transition_table@?$standard_base@DV?$string_output_adapter@D@__crt_stdio_output@@@__crt_stdio_output@@KAABV?$spectre_mitigated_lookup_table@Ustate_transition_pair@__crt_stdio_output@@$0IA@@2@XZ 10059bd0 f i libucrtd:output.obj
 0001:00058be0       ?state_transition_table@?$standard_base@_WV?$stream_output_adapter@_W@__crt_stdio_output@@@__crt_stdio_output@@KAABV?$spectre_mitigated_lookup_table@Ustate_transition_pair@__crt_stdio_output@@$0IA@@2@XZ 10059be0 f i libucrtd:output.obj
 0001:00058bf0       ?state_transition_table@?$standard_base@_WV?$string_output_adapter@_W@__crt_stdio_output@@@__crt_stdio_output@@KAABV?$spectre_mitigated_lookup_table@Ustate_transition_pair@__crt_stdio_output@@$0IA@@2@XZ 10059bf0 f i libucrtd:output.obj
 0001:00058c00       ?tchar_string@?$common_data@D@__crt_stdio_output@@IAEAAPADD@Z 10059c00 f i libucrtd:output.obj
 0001:00058c20       ?tchar_string@?$common_data@D@__crt_stdio_output@@IAEAAPADXZ 10059c20 f i libucrtd:output.obj
 0001:00058c40       ?tchar_string@?$common_data@_W@__crt_stdio_output@@IAEAAPA_WXZ 10059c40 f i libucrtd:output.obj
 0001:00058c60       ?tchar_string@?$common_data@_W@__crt_stdio_output@@IAEAAPA_W_W@Z 10059c60 f i libucrtd:output.obj
 0001:00058c80       ?to_integer_size@__crt_stdio_output@@YAIW4length_modifier@1@@Z 10059c80 f i libucrtd:output.obj
 0001:00058d20       ?type_case_X@?$output_processor@DV?$stream_output_adapter@D@__crt_stdio_output@@V?$format_validation_base@DV?$stream_output_adapter@D@__crt_stdio_output@@@2@@__crt_stdio_output@@AAE_NXZ 10059d20 f i libucrtd:output.obj
 0001:00058d40       ?type_case_X@?$output_processor@DV?$stream_output_adapter@D@__crt_stdio_output@@V?$positional_parameter_base@DV?$stream_output_adapter@D@__crt_stdio_output@@@2@@__crt_stdio_output@@AAE_NXZ 10059d40 f i libucrtd:output.obj
 0001:00058d60       ?type_case_X@?$output_processor@DV?$stream_output_adapter@D@__crt_stdio_output@@V?$standard_base@DV?$stream_output_adapter@D@__crt_stdio_output@@@2@@__crt_stdio_output@@AAE_NXZ 10059d60 f i libucrtd:output.obj
 0001:00058d80       ?type_case_X@?$output_processor@DV?$string_output_adapter@D@__crt_stdio_output@@V?$format_validation_base@DV?$string_output_adapter@D@__crt_stdio_output@@@2@@__crt_stdio_output@@AAE_NXZ 10059d80 f i libucrtd:output.obj
 0001:00058da0       ?type_case_X@?$output_processor@DV?$string_output_adapter@D@__crt_stdio_output@@V?$positional_parameter_base@DV?$string_output_adapter@D@__crt_stdio_output@@@2@@__crt_stdio_output@@AAE_NXZ 10059da0 f i libucrtd:output.obj
 0001:00058dc0       ?type_case_X@?$output_processor@DV?$string_output_adapter@D@__crt_stdio_output@@V?$standard_base@DV?$string_output_adapter@D@__crt_stdio_output@@@2@@__crt_stdio_output@@AAE_NXZ 10059dc0 f i libucrtd:output.obj
 0001:00058de0       ?type_case_X@?$output_processor@_WV?$stream_output_adapter@_W@__crt_stdio_output@@V?$format_validation_base@_WV?$stream_output_adapter@_W@__crt_stdio_output@@@2@@__crt_stdio_output@@AAE_NXZ 10059de0 f i libucrtd:output.obj
 0001:00058e00       ?type_case_X@?$output_processor@_WV?$stream_output_adapter@_W@__crt_stdio_output@@V?$positional_parameter_base@_WV?$stream_output_adapter@_W@__crt_stdio_output@@@2@@__crt_stdio_output@@AAE_NXZ 10059e00 f i libucrtd:output.obj
 0001:00058e20       ?type_case_X@?$output_processor@_WV?$stream_output_adapter@_W@__crt_stdio_output@@V?$standard_base@_WV?$stream_output_adapter@_W@__crt_stdio_output@@@2@@__crt_stdio_output@@AAE_NXZ 10059e20 f i libucrtd:output.obj
 0001:00058e40       ?type_case_X@?$output_processor@_WV?$string_output_adapter@_W@__crt_stdio_output@@V?$format_validation_base@_WV?$string_output_adapter@_W@__crt_stdio_output@@@2@@__crt_stdio_output@@AAE_NXZ 10059e40 f i libucrtd:output.obj
 0001:00058e60       ?type_case_X@?$output_processor@_WV?$string_output_adapter@_W@__crt_stdio_output@@V?$positional_parameter_base@_WV?$string_output_adapter@_W@__crt_stdio_output@@@2@@__crt_stdio_output@@AAE_NXZ 10059e60 f i libucrtd:output.obj
 0001:00058e80       ?type_case_X@?$output_processor@_WV?$string_output_adapter@_W@__crt_stdio_output@@V?$standard_base@_WV?$string_output_adapter@_W@__crt_stdio_output@@@2@@__crt_stdio_output@@AAE_NXZ 10059e80 f i libucrtd:output.obj
 0001:00058ea0       ?type_case_Z@?$output_processor@DV?$stream_output_adapter@D@__crt_stdio_output@@V?$format_validation_base@DV?$stream_output_adapter@D@__crt_stdio_output@@@2@@__crt_stdio_output@@AAE_NXZ 10059ea0 f i libucrtd:output.obj
 0001:00058f90       ?type_case_Z@?$output_processor@DV?$stream_output_adapter@D@__crt_stdio_output@@V?$positional_parameter_base@DV?$stream_output_adapter@D@__crt_stdio_output@@@2@@__crt_stdio_output@@AAE_NXZ 10059f90 f i libucrtd:output.obj
 0001:00059080       ?type_case_Z@?$output_processor@DV?$stream_output_adapter@D@__crt_stdio_output@@V?$standard_base@DV?$stream_output_adapter@D@__crt_stdio_output@@@2@@__crt_stdio_output@@AAE_NXZ 1005a080 f i libucrtd:output.obj
 0001:00059170       ?type_case_Z@?$output_processor@DV?$string_output_adapter@D@__crt_stdio_output@@V?$format_validation_base@DV?$string_output_adapter@D@__crt_stdio_output@@@2@@__crt_stdio_output@@AAE_NXZ 1005a170 f i libucrtd:output.obj
 0001:00059260       ?type_case_Z@?$output_processor@DV?$string_output_adapter@D@__crt_stdio_output@@V?$positional_parameter_base@DV?$string_output_adapter@D@__crt_stdio_output@@@2@@__crt_stdio_output@@AAE_NXZ 1005a260 f i libucrtd:output.obj
 0001:00059350       ?type_case_Z@?$output_processor@DV?$string_output_adapter@D@__crt_stdio_output@@V?$standard_base@DV?$string_output_adapter@D@__crt_stdio_output@@@2@@__crt_stdio_output@@AAE_NXZ 1005a350 f i libucrtd:output.obj
 0001:00059440       ?type_case_Z@?$output_processor@_WV?$stream_output_adapter@_W@__crt_stdio_output@@V?$format_validation_base@_WV?$stream_output_adapter@_W@__crt_stdio_output@@@2@@__crt_stdio_output@@AAE_NXZ 1005a440 f i libucrtd:output.obj
 0001:00059530       ?type_case_Z@?$output_processor@_WV?$stream_output_adapter@_W@__crt_stdio_output@@V?$positional_parameter_base@_WV?$stream_output_adapter@_W@__crt_stdio_output@@@2@@__crt_stdio_output@@AAE_NXZ 1005a530 f i libucrtd:output.obj
 0001:00059620       ?type_case_Z@?$output_processor@_WV?$stream_output_adapter@_W@__crt_stdio_output@@V?$standard_base@_WV?$stream_output_adapter@_W@__crt_stdio_output@@@2@@__crt_stdio_output@@AAE_NXZ 1005a620 f i libucrtd:output.obj
 0001:00059710       ?type_case_Z@?$output_processor@_WV?$string_output_adapter@_W@__crt_stdio_output@@V?$format_validation_base@_WV?$string_output_adapter@_W@__crt_stdio_output@@@2@@__crt_stdio_output@@AAE_NXZ 1005a710 f i libucrtd:output.obj
 0001:00059800       ?type_case_Z@?$output_processor@_WV?$string_output_adapter@_W@__crt_stdio_output@@V?$positional_parameter_base@_WV?$string_output_adapter@_W@__crt_stdio_output@@@2@@__crt_stdio_output@@AAE_NXZ 1005a800 f i libucrtd:output.obj
 0001:000598f0       ?type_case_Z@?$output_processor@_WV?$string_output_adapter@_W@__crt_stdio_output@@V?$standard_base@_WV?$string_output_adapter@_W@__crt_stdio_output@@@2@@__crt_stdio_output@@AAE_NXZ 1005a8f0 f i libucrtd:output.obj
 0001:000599e0       ?type_case_a@?$output_processor@DV?$stream_output_adapter@D@__crt_stdio_output@@V?$format_validation_base@DV?$stream_output_adapter@D@__crt_stdio_output@@@2@@__crt_stdio_output@@AAE_NXZ 1005a9e0 f i libucrtd:output.obj
 0001:00059c50       ?type_case_a@?$output_processor@DV?$stream_output_adapter@D@__crt_stdio_output@@V?$positional_parameter_base@DV?$stream_output_adapter@D@__crt_stdio_output@@@2@@__crt_stdio_output@@AAE_NXZ 1005ac50 f i libucrtd:output.obj
 0001:00059ec0       ?type_case_a@?$output_processor@DV?$stream_output_adapter@D@__crt_stdio_output@@V?$standard_base@DV?$stream_output_adapter@D@__crt_stdio_output@@@2@@__crt_stdio_output@@AAE_NXZ 1005aec0 f i libucrtd:output.obj
 0001:0005a130       ?type_case_a@?$output_processor@DV?$string_output_adapter@D@__crt_stdio_output@@V?$format_validation_base@DV?$string_output_adapter@D@__crt_stdio_output@@@2@@__crt_stdio_output@@AAE_NXZ 1005b130 f i libucrtd:output.obj
 0001:0005a3a0       ?type_case_a@?$output_processor@DV?$string_output_adapter@D@__crt_stdio_output@@V?$positional_parameter_base@DV?$string_output_adapter@D@__crt_stdio_output@@@2@@__crt_stdio_output@@AAE_NXZ 1005b3a0 f i libucrtd:output.obj
 0001:0005a610       ?type_case_a@?$output_processor@DV?$string_output_adapter@D@__crt_stdio_output@@V?$standard_base@DV?$string_output_adapter@D@__crt_stdio_output@@@2@@__crt_stdio_output@@AAE_NXZ 1005b610 f i libucrtd:output.obj
 0001:0005a880       ?type_case_a@?$output_processor@_WV?$stream_output_adapter@_W@__crt_stdio_output@@V?$format_validation_base@_WV?$stream_output_adapter@_W@__crt_stdio_output@@@2@@__crt_stdio_output@@AAE_NXZ 1005b880 f i libucrtd:output.obj
 0001:0005aaf0       ?type_case_a@?$output_processor@_WV?$stream_output_adapter@_W@__crt_stdio_output@@V?$positional_parameter_base@_WV?$stream_output_adapter@_W@__crt_stdio_output@@@2@@__crt_stdio_output@@AAE_NXZ 1005baf0 f i libucrtd:output.obj
 0001:0005ad60       ?type_case_a@?$output_processor@_WV?$stream_output_adapter@_W@__crt_stdio_output@@V?$standard_base@_WV?$stream_output_adapter@_W@__crt_stdio_output@@@2@@__crt_stdio_output@@AAE_NXZ 1005bd60 f i libucrtd:output.obj
 0001:0005afd0       ?type_case_a@?$output_processor@_WV?$string_output_adapter@_W@__crt_stdio_output@@V?$format_validation_base@_WV?$string_output_adapter@_W@__crt_stdio_output@@@2@@__crt_stdio_output@@AAE_NXZ 1005bfd0 f i libucrtd:output.obj
 0001:0005b240       ?type_case_a@?$output_processor@_WV?$string_output_adapter@_W@__crt_stdio_output@@V?$positional_parameter_base@_WV?$string_output_adapter@_W@__crt_stdio_output@@@2@@__crt_stdio_output@@AAE_NXZ 1005c240 f i libucrtd:output.obj
 0001:0005b4b0       ?type_case_a@?$output_processor@_WV?$string_output_adapter@_W@__crt_stdio_output@@V?$standard_base@_WV?$string_output_adapter@_W@__crt_stdio_output@@@2@@__crt_stdio_output@@AAE_NXZ 1005c4b0 f i libucrtd:output.obj
 0001:0005b720       ?type_case_c@?$output_processor@DV?$stream_output_adapter@D@__crt_stdio_output@@V?$format_validation_base@DV?$stream_output_adapter@D@__crt_stdio_output@@@2@@__crt_stdio_output@@AAE_NXZ 1005c720 f i libucrtd:output.obj
 0001:0005b740       ?type_case_c@?$output_processor@DV?$stream_output_adapter@D@__crt_stdio_output@@V?$positional_parameter_base@DV?$stream_output_adapter@D@__crt_stdio_output@@@2@@__crt_stdio_output@@AAE_NXZ 1005c740 f i libucrtd:output.obj
 0001:0005b760       ?type_case_c@?$output_processor@DV?$stream_output_adapter@D@__crt_stdio_output@@V?$standard_base@DV?$stream_output_adapter@D@__crt_stdio_output@@@2@@__crt_stdio_output@@AAE_NXZ 1005c760 f i libucrtd:output.obj
 0001:0005b780       ?type_case_c@?$output_processor@DV?$string_output_adapter@D@__crt_stdio_output@@V?$format_validation_base@DV?$string_output_adapter@D@__crt_stdio_output@@@2@@__crt_stdio_output@@AAE_NXZ 1005c780 f i libucrtd:output.obj
 0001:0005b7a0       ?type_case_c@?$output_processor@DV?$string_output_adapter@D@__crt_stdio_output@@V?$positional_parameter_base@DV?$string_output_adapter@D@__crt_stdio_output@@@2@@__crt_stdio_output@@AAE_NXZ 1005c7a0 f i libucrtd:output.obj
 0001:0005b7c0       ?type_case_c@?$output_processor@DV?$string_output_adapter@D@__crt_stdio_output@@V?$standard_base@DV?$string_output_adapter@D@__crt_stdio_output@@@2@@__crt_stdio_output@@AAE_NXZ 1005c7c0 f i libucrtd:output.obj
 0001:0005b7e0       ?type_case_c@?$output_processor@_WV?$stream_output_adapter@_W@__crt_stdio_output@@V?$format_validation_base@_WV?$stream_output_adapter@_W@__crt_stdio_output@@@2@@__crt_stdio_output@@AAE_NXZ 1005c7e0 f i libucrtd:output.obj
 0001:0005b800       ?type_case_c@?$output_processor@_WV?$stream_output_adapter@_W@__crt_stdio_output@@V?$positional_parameter_base@_WV?$stream_output_adapter@_W@__crt_stdio_output@@@2@@__crt_stdio_output@@AAE_NXZ 1005c800 f i libucrtd:output.obj
 0001:0005b820       ?type_case_c@?$output_processor@_WV?$stream_output_adapter@_W@__crt_stdio_output@@V?$standard_base@_WV?$stream_output_adapter@_W@__crt_stdio_output@@@2@@__crt_stdio_output@@AAE_NXZ 1005c820 f i libucrtd:output.obj
 0001:0005b840       ?type_case_c@?$output_processor@_WV?$string_output_adapter@_W@__crt_stdio_output@@V?$format_validation_base@_WV?$string_output_adapter@_W@__crt_stdio_output@@@2@@__crt_stdio_output@@AAE_NXZ 1005c840 f i libucrtd:output.obj
 0001:0005b860       ?type_case_c@?$output_processor@_WV?$string_output_adapter@_W@__crt_stdio_output@@V?$positional_parameter_base@_WV?$string_output_adapter@_W@__crt_stdio_output@@@2@@__crt_stdio_output@@AAE_NXZ 1005c860 f i libucrtd:output.obj
 0001:0005b880       ?type_case_c@?$output_processor@_WV?$string_output_adapter@_W@__crt_stdio_output@@V?$standard_base@_WV?$string_output_adapter@_W@__crt_stdio_output@@@2@@__crt_stdio_output@@AAE_NXZ 1005c880 f i libucrtd:output.obj
 0001:0005b8a0       ?type_case_c_tchar@?$output_processor@DV?$stream_output_adapter@D@__crt_stdio_output@@V?$format_validation_base@DV?$stream_output_adapter@D@__crt_stdio_output@@@2@@__crt_stdio_output@@AAE_ND@Z 1005c8a0 f i libucrtd:output.obj
 0001:0005b9b0       ?type_case_c_tchar@?$output_processor@DV?$stream_output_adapter@D@__crt_stdio_output@@V?$positional_parameter_base@DV?$stream_output_adapter@D@__crt_stdio_output@@@2@@__crt_stdio_output@@AAE_ND@Z 1005c9b0 f i libucrtd:output.obj
 0001:0005bac0       ?type_case_c_tchar@?$output_processor@DV?$stream_output_adapter@D@__crt_stdio_output@@V?$standard_base@DV?$stream_output_adapter@D@__crt_stdio_output@@@2@@__crt_stdio_output@@AAE_ND@Z 1005cac0 f i libucrtd:output.obj
 0001:0005bbd0       ?type_case_c_tchar@?$output_processor@DV?$string_output_adapter@D@__crt_stdio_output@@V?$format_validation_base@DV?$string_output_adapter@D@__crt_stdio_output@@@2@@__crt_stdio_output@@AAE_ND@Z 1005cbd0 f i libucrtd:output.obj
 0001:0005bce0       ?type_case_c_tchar@?$output_processor@DV?$string_output_adapter@D@__crt_stdio_output@@V?$positional_parameter_base@DV?$string_output_adapter@D@__crt_stdio_output@@@2@@__crt_stdio_output@@AAE_ND@Z 1005cce0 f i libucrtd:output.obj
 0001:0005bdf0       ?type_case_c_tchar@?$output_processor@DV?$string_output_adapter@D@__crt_stdio_output@@V?$standard_base@DV?$string_output_adapter@D@__crt_stdio_output@@@2@@__crt_stdio_output@@AAE_ND@Z 1005cdf0 f i libucrtd:output.obj
 0001:0005bf00       ?type_case_c_tchar@?$output_processor@_WV?$stream_output_adapter@_W@__crt_stdio_output@@V?$format_validation_base@_WV?$stream_output_adapter@_W@__crt_stdio_output@@@2@@__crt_stdio_output@@AAE_N_W@Z 1005cf00 f i libucrtd:output.obj
 0001:0005c000       ?type_case_c_tchar@?$output_processor@_WV?$stream_output_adapter@_W@__crt_stdio_output@@V?$positional_parameter_base@_WV?$stream_output_adapter@_W@__crt_stdio_output@@@2@@__crt_stdio_output@@AAE_N_W@Z 1005d000 f i libucrtd:output.obj
 0001:0005c100       ?type_case_c_tchar@?$output_processor@_WV?$stream_output_adapter@_W@__crt_stdio_output@@V?$standard_base@_WV?$stream_output_adapter@_W@__crt_stdio_output@@@2@@__crt_stdio_output@@AAE_N_W@Z 1005d100 f i libucrtd:output.obj
 0001:0005c200       ?type_case_c_tchar@?$output_processor@_WV?$string_output_adapter@_W@__crt_stdio_output@@V?$format_validation_base@_WV?$string_output_adapter@_W@__crt_stdio_output@@@2@@__crt_stdio_output@@AAE_N_W@Z 1005d200 f i libucrtd:output.obj
 0001:0005c300       ?type_case_c_tchar@?$output_processor@_WV?$string_output_adapter@_W@__crt_stdio_output@@V?$positional_parameter_base@_WV?$string_output_adapter@_W@__crt_stdio_output@@@2@@__crt_stdio_output@@AAE_N_W@Z 1005d300 f i libucrtd:output.obj
 0001:0005c400       ?type_case_c_tchar@?$output_processor@_WV?$string_output_adapter@_W@__crt_stdio_output@@V?$standard_base@_WV?$string_output_adapter@_W@__crt_stdio_output@@@2@@__crt_stdio_output@@AAE_N_W@Z 1005d400 f i libucrtd:output.obj
 0001:0005c500       ?type_case_d@?$output_processor@DV?$stream_output_adapter@D@__crt_stdio_output@@V?$format_validation_base@DV?$stream_output_adapter@D@__crt_stdio_output@@@2@@__crt_stdio_output@@AAE_NXZ 1005d500 f i libucrtd:output.obj
 0001:0005c530       ?type_case_d@?$output_processor@DV?$stream_output_adapter@D@__crt_stdio_output@@V?$positional_parameter_base@DV?$stream_output_adapter@D@__crt_stdio_output@@@2@@__crt_stdio_output@@AAE_NXZ 1005d530 f i libucrtd:output.obj
 0001:0005c560       ?type_case_d@?$output_processor@DV?$stream_output_adapter@D@__crt_stdio_output@@V?$standard_base@DV?$stream_output_adapter@D@__crt_stdio_output@@@2@@__crt_stdio_output@@AAE_NXZ 1005d560 f i libucrtd:output.obj
 0001:0005c590       ?type_case_d@?$output_processor@DV?$string_output_adapter@D@__crt_stdio_output@@V?$format_validation_base@DV?$string_output_adapter@D@__crt_stdio_output@@@2@@__crt_stdio_output@@AAE_NXZ 1005d590 f i libucrtd:output.obj
 0001:0005c5c0       ?type_case_d@?$output_processor@DV?$string_output_adapter@D@__crt_stdio_output@@V?$positional_parameter_base@DV?$string_output_adapter@D@__crt_stdio_output@@@2@@__crt_stdio_output@@AAE_NXZ 1005d5c0 f i libucrtd:output.obj
 0001:0005c5f0       ?type_case_d@?$output_processor@DV?$string_output_adapter@D@__crt_stdio_output@@V?$standard_base@DV?$string_output_adapter@D@__crt_stdio_output@@@2@@__crt_stdio_output@@AAE_NXZ 1005d5f0 f i libucrtd:output.obj
 0001:0005c620       ?type_case_d@?$output_processor@_WV?$stream_output_adapter@_W@__crt_stdio_output@@V?$format_validation_base@_WV?$stream_output_adapter@_W@__crt_stdio_output@@@2@@__crt_stdio_output@@AAE_NXZ 1005d620 f i libucrtd:output.obj
 0001:0005c650       ?type_case_d@?$output_processor@_WV?$stream_output_adapter@_W@__crt_stdio_output@@V?$positional_parameter_base@_WV?$stream_output_adapter@_W@__crt_stdio_output@@@2@@__crt_stdio_output@@AAE_NXZ 1005d650 f i libucrtd:output.obj
 0001:0005c680       ?type_case_d@?$output_processor@_WV?$stream_output_adapter@_W@__crt_stdio_output@@V?$standard_base@_WV?$stream_output_adapter@_W@__crt_stdio_output@@@2@@__crt_stdio_output@@AAE_NXZ 1005d680 f i libucrtd:output.obj
 0001:0005c6b0       ?type_case_d@?$output_processor@_WV?$string_output_adapter@_W@__crt_stdio_output@@V?$format_validation_base@_WV?$string_output_adapter@_W@__crt_stdio_output@@@2@@__crt_stdio_output@@AAE_NXZ 1005d6b0 f i libucrtd:output.obj
 0001:0005c6e0       ?type_case_d@?$output_processor@_WV?$string_output_adapter@_W@__crt_stdio_output@@V?$positional_parameter_base@_WV?$string_output_adapter@_W@__crt_stdio_output@@@2@@__crt_stdio_output@@AAE_NXZ 1005d6e0 f i libucrtd:output.obj
 0001:0005c710       ?type_case_d@?$output_processor@_WV?$string_output_adapter@_W@__crt_stdio_output@@V?$standard_base@_WV?$string_output_adapter@_W@__crt_stdio_output@@@2@@__crt_stdio_output@@AAE_NXZ 1005d710 f i libucrtd:output.obj
 0001:0005c740       ?type_case_integer@?$output_processor@DV?$stream_output_adapter@D@__crt_stdio_output@@V?$format_validation_base@DV?$stream_output_adapter@D@__crt_stdio_output@@@2@@__crt_stdio_output@@AAE_NI_N@Z 1005d740 f i libucrtd:output.obj
 0001:0005ca90       ?type_case_integer@?$output_processor@DV?$stream_output_adapter@D@__crt_stdio_output@@V?$positional_parameter_base@DV?$stream_output_adapter@D@__crt_stdio_output@@@2@@__crt_stdio_output@@AAE_NI_N@Z 1005da90 f i libucrtd:output.obj
 0001:0005cde0       ?type_case_integer@?$output_processor@DV?$stream_output_adapter@D@__crt_stdio_output@@V?$standard_base@DV?$stream_output_adapter@D@__crt_stdio_output@@@2@@__crt_stdio_output@@AAE_NI_N@Z 1005dde0 f i libucrtd:output.obj
 0001:0005d130       ?type_case_integer@?$output_processor@DV?$string_output_adapter@D@__crt_stdio_output@@V?$format_validation_base@DV?$string_output_adapter@D@__crt_stdio_output@@@2@@__crt_stdio_output@@AAE_NI_N@Z 1005e130 f i libucrtd:output.obj
 0001:0005d480       ?type_case_integer@?$output_processor@DV?$string_output_adapter@D@__crt_stdio_output@@V?$positional_parameter_base@DV?$string_output_adapter@D@__crt_stdio_output@@@2@@__crt_stdio_output@@AAE_NI_N@Z 1005e480 f i libucrtd:output.obj
 0001:0005d7d0       ?type_case_integer@?$output_processor@DV?$string_output_adapter@D@__crt_stdio_output@@V?$standard_base@DV?$string_output_adapter@D@__crt_stdio_output@@@2@@__crt_stdio_output@@AAE_NI_N@Z 1005e7d0 f i libucrtd:output.obj
 0001:0005db20       ?type_case_integer@?$output_processor@_WV?$stream_output_adapter@_W@__crt_stdio_output@@V?$format_validation_base@_WV?$stream_output_adapter@_W@__crt_stdio_output@@@2@@__crt_stdio_output@@AAE_NI_N@Z 1005eb20 f i libucrtd:output.obj
 0001:0005de70       ?type_case_integer@?$output_processor@_WV?$stream_output_adapter@_W@__crt_stdio_output@@V?$positional_parameter_base@_WV?$stream_output_adapter@_W@__crt_stdio_output@@@2@@__crt_stdio_output@@AAE_NI_N@Z 1005ee70 f i libucrtd:output.obj
 0001:0005e1c0       ?type_case_integer@?$output_processor@_WV?$stream_output_adapter@_W@__crt_stdio_output@@V?$standard_base@_WV?$stream_output_adapter@_W@__crt_stdio_output@@@2@@__crt_stdio_output@@AAE_NI_N@Z 1005f1c0 f i libucrtd:output.obj
 0001:0005e510       ?type_case_integer@?$output_processor@_WV?$string_output_adapter@_W@__crt_stdio_output@@V?$format_validation_base@_WV?$string_output_adapter@_W@__crt_stdio_output@@@2@@__crt_stdio_output@@AAE_NI_N@Z 1005f510 f i libucrtd:output.obj
 0001:0005e860       ?type_case_integer@?$output_processor@_WV?$string_output_adapter@_W@__crt_stdio_output@@V?$positional_parameter_base@_WV?$string_output_adapter@_W@__crt_stdio_output@@@2@@__crt_stdio_output@@AAE_NI_N@Z 1005f860 f i libucrtd:output.obj
 0001:0005ebb0       ?type_case_integer@?$output_processor@_WV?$string_output_adapter@_W@__crt_stdio_output@@V?$standard_base@_WV?$string_output_adapter@_W@__crt_stdio_output@@@2@@__crt_stdio_output@@AAE_NI_N@Z 1005fbb0 f i libucrtd:output.obj
 0001:0005ef00       ?type_case_n@?$output_processor@DV?$stream_output_adapter@D@__crt_stdio_output@@V?$format_validation_base@DV?$stream_output_adapter@D@__crt_stdio_output@@@2@@__crt_stdio_output@@AAE_NXZ 1005ff00 f i libucrtd:output.obj
 0001:0005f0f0       ?type_case_n@?$output_processor@DV?$stream_output_adapter@D@__crt_stdio_output@@V?$positional_parameter_base@DV?$stream_output_adapter@D@__crt_stdio_output@@@2@@__crt_stdio_output@@AAE_NXZ 100600f0 f i libucrtd:output.obj
 0001:0005f2e0       ?type_case_n@?$output_processor@DV?$stream_output_adapter@D@__crt_stdio_output@@V?$standard_base@DV?$stream_output_adapter@D@__crt_stdio_output@@@2@@__crt_stdio_output@@AAE_NXZ 100602e0 f i libucrtd:output.obj
 0001:0005f4d0       ?type_case_n@?$output_processor@DV?$string_output_adapter@D@__crt_stdio_output@@V?$format_validation_base@DV?$string_output_adapter@D@__crt_stdio_output@@@2@@__crt_stdio_output@@AAE_NXZ 100604d0 f i libucrtd:output.obj
 0001:0005f6c0       ?type_case_n@?$output_processor@DV?$string_output_adapter@D@__crt_stdio_output@@V?$positional_parameter_base@DV?$string_output_adapter@D@__crt_stdio_output@@@2@@__crt_stdio_output@@AAE_NXZ 100606c0 f i libucrtd:output.obj
 0001:0005f8b0       ?type_case_n@?$output_processor@DV?$string_output_adapter@D@__crt_stdio_output@@V?$standard_base@DV?$string_output_adapter@D@__crt_stdio_output@@@2@@__crt_stdio_output@@AAE_NXZ 100608b0 f i libucrtd:output.obj
 0001:0005faa0       ?type_case_n@?$output_processor@_WV?$stream_output_adapter@_W@__crt_stdio_output@@V?$format_validation_base@_WV?$stream_output_adapter@_W@__crt_stdio_output@@@2@@__crt_stdio_output@@AAE_NXZ 10060aa0 f i libucrtd:output.obj
 0001:0005fc90       ?type_case_n@?$output_processor@_WV?$stream_output_adapter@_W@__crt_stdio_output@@V?$positional_parameter_base@_WV?$stream_output_adapter@_W@__crt_stdio_output@@@2@@__crt_stdio_output@@AAE_NXZ 10060c90 f i libucrtd:output.obj
 0001:0005fe80       ?type_case_n@?$output_processor@_WV?$stream_output_adapter@_W@__crt_stdio_output@@V?$standard_base@_WV?$stream_output_adapter@_W@__crt_stdio_output@@@2@@__crt_stdio_output@@AAE_NXZ 10060e80 f i libucrtd:output.obj
 0001:00060070       ?type_case_n@?$output_processor@_WV?$string_output_adapter@_W@__crt_stdio_output@@V?$format_validation_base@_WV?$string_output_adapter@_W@__crt_stdio_output@@@2@@__crt_stdio_output@@AAE_NXZ 10061070 f i libucrtd:output.obj
 0001:00060260       ?type_case_n@?$output_processor@_WV?$string_output_adapter@_W@__crt_stdio_output@@V?$positional_parameter_base@_WV?$string_output_adapter@_W@__crt_stdio_output@@@2@@__crt_stdio_output@@AAE_NXZ 10061260 f i libucrtd:output.obj
 0001:00060450       ?type_case_n@?$output_processor@_WV?$string_output_adapter@_W@__crt_stdio_output@@V?$standard_base@_WV?$string_output_adapter@_W@__crt_stdio_output@@@2@@__crt_stdio_output@@AAE_NXZ 10061450 f i libucrtd:output.obj
 0001:00060640       ?type_case_o@?$output_processor@DV?$stream_output_adapter@D@__crt_stdio_output@@V?$format_validation_base@DV?$stream_output_adapter@D@__crt_stdio_output@@@2@@__crt_stdio_output@@AAE_NXZ 10061640 f i libucrtd:output.obj
 0001:00060680       ?type_case_o@?$output_processor@DV?$stream_output_adapter@D@__crt_stdio_output@@V?$positional_parameter_base@DV?$stream_output_adapter@D@__crt_stdio_output@@@2@@__crt_stdio_output@@AAE_NXZ 10061680 f i libucrtd:output.obj
 0001:000606c0       ?type_case_o@?$output_processor@DV?$stream_output_adapter@D@__crt_stdio_output@@V?$standard_base@DV?$stream_output_adapter@D@__crt_stdio_output@@@2@@__crt_stdio_output@@AAE_NXZ 100616c0 f i libucrtd:output.obj
 0001:00060700       ?type_case_o@?$output_processor@DV?$string_output_adapter@D@__crt_stdio_output@@V?$format_validation_base@DV?$string_output_adapter@D@__crt_stdio_output@@@2@@__crt_stdio_output@@AAE_NXZ 10061700 f i libucrtd:output.obj
 0001:00060740       ?type_case_o@?$output_processor@DV?$string_output_adapter@D@__crt_stdio_output@@V?$positional_parameter_base@DV?$string_output_adapter@D@__crt_stdio_output@@@2@@__crt_stdio_output@@AAE_NXZ 10061740 f i libucrtd:output.obj
 0001:00060780       ?type_case_o@?$output_processor@DV?$string_output_adapter@D@__crt_stdio_output@@V?$standard_base@DV?$string_output_adapter@D@__crt_stdio_output@@@2@@__crt_stdio_output@@AAE_NXZ 10061780 f i libucrtd:output.obj
 0001:000607c0       ?type_case_o@?$output_processor@_WV?$stream_output_adapter@_W@__crt_stdio_output@@V?$format_validation_base@_WV?$stream_output_adapter@_W@__crt_stdio_output@@@2@@__crt_stdio_output@@AAE_NXZ 100617c0 f i libucrtd:output.obj
 0001:00060800       ?type_case_o@?$output_processor@_WV?$stream_output_adapter@_W@__crt_stdio_output@@V?$positional_parameter_base@_WV?$stream_output_adapter@_W@__crt_stdio_output@@@2@@__crt_stdio_output@@AAE_NXZ 10061800 f i libucrtd:output.obj
 0001:00060840       ?type_case_o@?$output_processor@_WV?$stream_output_adapter@_W@__crt_stdio_output@@V?$standard_base@_WV?$stream_output_adapter@_W@__crt_stdio_output@@@2@@__crt_stdio_output@@AAE_NXZ 10061840 f i libucrtd:output.obj
 0001:00060880       ?type_case_o@?$output_processor@_WV?$string_output_adapter@_W@__crt_stdio_output@@V?$format_validation_base@_WV?$string_output_adapter@_W@__crt_stdio_output@@@2@@__crt_stdio_output@@AAE_NXZ 10061880 f i libucrtd:output.obj
 0001:000608c0       ?type_case_o@?$output_processor@_WV?$string_output_adapter@_W@__crt_stdio_output@@V?$positional_parameter_base@_WV?$string_output_adapter@_W@__crt_stdio_output@@@2@@__crt_stdio_output@@AAE_NXZ 100618c0 f i libucrtd:output.obj
 0001:00060900       ?type_case_o@?$output_processor@_WV?$string_output_adapter@_W@__crt_stdio_output@@V?$standard_base@_WV?$string_output_adapter@_W@__crt_stdio_output@@@2@@__crt_stdio_output@@AAE_NXZ 10061900 f i libucrtd:output.obj
 0001:00060940       ?type_case_p@?$output_processor@DV?$stream_output_adapter@D@__crt_stdio_output@@V?$format_validation_base@DV?$stream_output_adapter@D@__crt_stdio_output@@@2@@__crt_stdio_output@@AAE_NXZ 10061940 f i libucrtd:output.obj
 0001:00060970       ?type_case_p@?$output_processor@DV?$stream_output_adapter@D@__crt_stdio_output@@V?$positional_parameter_base@DV?$stream_output_adapter@D@__crt_stdio_output@@@2@@__crt_stdio_output@@AAE_NXZ 10061970 f i libucrtd:output.obj
 0001:000609a0       ?type_case_p@?$output_processor@DV?$stream_output_adapter@D@__crt_stdio_output@@V?$standard_base@DV?$stream_output_adapter@D@__crt_stdio_output@@@2@@__crt_stdio_output@@AAE_NXZ 100619a0 f i libucrtd:output.obj
 0001:000609d0       ?type_case_p@?$output_processor@DV?$string_output_adapter@D@__crt_stdio_output@@V?$format_validation_base@DV?$string_output_adapter@D@__crt_stdio_output@@@2@@__crt_stdio_output@@AAE_NXZ 100619d0 f i libucrtd:output.obj
 0001:00060a00       ?type_case_p@?$output_processor@DV?$string_output_adapter@D@__crt_stdio_output@@V?$positional_parameter_base@DV?$string_output_adapter@D@__crt_stdio_output@@@2@@__crt_stdio_output@@AAE_NXZ 10061a00 f i libucrtd:output.obj
 0001:00060a30       ?type_case_p@?$output_processor@DV?$string_output_adapter@D@__crt_stdio_output@@V?$standard_base@DV?$string_output_adapter@D@__crt_stdio_output@@@2@@__crt_stdio_output@@AAE_NXZ 10061a30 f i libucrtd:output.obj
 0001:00060a60       ?type_case_p@?$output_processor@_WV?$stream_output_adapter@_W@__crt_stdio_output@@V?$format_validation_base@_WV?$stream_output_adapter@_W@__crt_stdio_output@@@2@@__crt_stdio_output@@AAE_NXZ 10061a60 f i libucrtd:output.obj
 0001:00060a90       ?type_case_p@?$output_processor@_WV?$stream_output_adapter@_W@__crt_stdio_output@@V?$positional_parameter_base@_WV?$stream_output_adapter@_W@__crt_stdio_output@@@2@@__crt_stdio_output@@AAE_NXZ 10061a90 f i libucrtd:output.obj
 0001:00060ac0       ?type_case_p@?$output_processor@_WV?$stream_output_adapter@_W@__crt_stdio_output@@V?$standard_base@_WV?$stream_output_adapter@_W@__crt_stdio_output@@@2@@__crt_stdio_output@@AAE_NXZ 10061ac0 f i libucrtd:output.obj
 0001:00060af0       ?type_case_p@?$output_processor@_WV?$string_output_adapter@_W@__crt_stdio_output@@V?$format_validation_base@_WV?$string_output_adapter@_W@__crt_stdio_output@@@2@@__crt_stdio_output@@AAE_NXZ 10061af0 f i libucrtd:output.obj
 0001:00060b20       ?type_case_p@?$output_processor@_WV?$string_output_adapter@_W@__crt_stdio_output@@V?$positional_parameter_base@_WV?$string_output_adapter@_W@__crt_stdio_output@@@2@@__crt_stdio_output@@AAE_NXZ 10061b20 f i libucrtd:output.obj
 0001:00060b50       ?type_case_p@?$output_processor@_WV?$string_output_adapter@_W@__crt_stdio_output@@V?$standard_base@_WV?$string_output_adapter@_W@__crt_stdio_output@@@2@@__crt_stdio_output@@AAE_NXZ 10061b50 f i libucrtd:output.obj
 0001:00060b80       ?type_case_s@?$output_processor@DV?$stream_output_adapter@D@__crt_stdio_output@@V?$format_validation_base@DV?$stream_output_adapter@D@__crt_stdio_output@@@2@@__crt_stdio_output@@AAE_NXZ 10061b80 f i libucrtd:output.obj
 0001:00060c70       ?type_case_s@?$output_processor@DV?$stream_output_adapter@D@__crt_stdio_output@@V?$positional_parameter_base@DV?$stream_output_adapter@D@__crt_stdio_output@@@2@@__crt_stdio_output@@AAE_NXZ 10061c70 f i libucrtd:output.obj
 0001:00060d60       ?type_case_s@?$output_processor@DV?$stream_output_adapter@D@__crt_stdio_output@@V?$standard_base@DV?$stream_output_adapter@D@__crt_stdio_output@@@2@@__crt_stdio_output@@AAE_NXZ 10061d60 f i libucrtd:output.obj
 0001:00060e50       ?type_case_s@?$output_processor@DV?$string_output_adapter@D@__crt_stdio_output@@V?$format_validation_base@DV?$string_output_adapter@D@__crt_stdio_output@@@2@@__crt_stdio_output@@AAE_NXZ 10061e50 f i libucrtd:output.obj
 0001:00060f40       ?type_case_s@?$output_processor@DV?$string_output_adapter@D@__crt_stdio_output@@V?$positional_parameter_base@DV?$string_output_adapter@D@__crt_stdio_output@@@2@@__crt_stdio_output@@AAE_NXZ 10061f40 f i libucrtd:output.obj
 0001:00061030       ?type_case_s@?$output_processor@DV?$string_output_adapter@D@__crt_stdio_output@@V?$standard_base@DV?$string_output_adapter@D@__crt_stdio_output@@@2@@__crt_stdio_output@@AAE_NXZ 10062030 f i libucrtd:output.obj
 0001:00061120       ?type_case_s@?$output_processor@_WV?$stream_output_adapter@_W@__crt_stdio_output@@V?$format_validation_base@_WV?$stream_output_adapter@_W@__crt_stdio_output@@@2@@__crt_stdio_output@@AAE_NXZ 10062120 f i libucrtd:output.obj
 0001:00061210       ?type_case_s@?$output_processor@_WV?$stream_output_adapter@_W@__crt_stdio_output@@V?$positional_parameter_base@_WV?$stream_output_adapter@_W@__crt_stdio_output@@@2@@__crt_stdio_output@@AAE_NXZ 10062210 f i libucrtd:output.obj
 0001:00061300       ?type_case_s@?$output_processor@_WV?$stream_output_adapter@_W@__crt_stdio_output@@V?$standard_base@_WV?$stream_output_adapter@_W@__crt_stdio_output@@@2@@__crt_stdio_output@@AAE_NXZ 10062300 f i libucrtd:output.obj
 0001:000613f0       ?type_case_s@?$output_processor@_WV?$string_output_adapter@_W@__crt_stdio_output@@V?$format_validation_base@_WV?$string_output_adapter@_W@__crt_stdio_output@@@2@@__crt_stdio_output@@AAE_NXZ 100623f0 f i libucrtd:output.obj
 0001:000614e0       ?type_case_s@?$output_processor@_WV?$string_output_adapter@_W@__crt_stdio_output@@V?$positional_parameter_base@_WV?$string_output_adapter@_W@__crt_stdio_output@@@2@@__crt_stdio_output@@AAE_NXZ 100624e0 f i libucrtd:output.obj
 0001:000615d0       ?type_case_s@?$output_processor@_WV?$string_output_adapter@_W@__crt_stdio_output@@V?$standard_base@_WV?$string_output_adapter@_W@__crt_stdio_output@@@2@@__crt_stdio_output@@AAE_NXZ 100625d0 f i libucrtd:output.obj
 0001:000616c0       ?type_case_s_compute_narrow_string_length@?$output_processor@DV?$stream_output_adapter@D@__crt_stdio_output@@V?$format_validation_base@DV?$stream_output_adapter@D@__crt_stdio_output@@@2@@__crt_stdio_output@@ABEHHD@Z 100626c0 f i libucrtd:output.obj
 0001:000616f0       ?type_case_s_compute_narrow_string_length@?$output_processor@DV?$stream_output_adapter@D@__crt_stdio_output@@V?$positional_parameter_base@DV?$stream_output_adapter@D@__crt_stdio_output@@@2@@__crt_stdio_output@@ABEHHD@Z 100626f0 f i libucrtd:output.obj
 0001:00061720       ?type_case_s_compute_narrow_string_length@?$output_processor@DV?$stream_output_adapter@D@__crt_stdio_output@@V?$standard_base@DV?$stream_output_adapter@D@__crt_stdio_output@@@2@@__crt_stdio_output@@ABEHHD@Z 10062720 f i libucrtd:output.obj
 0001:00061750       ?type_case_s_compute_narrow_string_length@?$output_processor@DV?$string_output_adapter@D@__crt_stdio_output@@V?$format_validation_base@DV?$string_output_adapter@D@__crt_stdio_output@@@2@@__crt_stdio_output@@ABEHHD@Z 10062750 f i libucrtd:output.obj
 0001:00061780       ?type_case_s_compute_narrow_string_length@?$output_processor@DV?$string_output_adapter@D@__crt_stdio_output@@V?$positional_parameter_base@DV?$string_output_adapter@D@__crt_stdio_output@@@2@@__crt_stdio_output@@ABEHHD@Z 10062780 f i libucrtd:output.obj
 0001:000617b0       ?type_case_s_compute_narrow_string_length@?$output_processor@DV?$string_output_adapter@D@__crt_stdio_output@@V?$standard_base@DV?$string_output_adapter@D@__crt_stdio_output@@@2@@__crt_stdio_output@@ABEHHD@Z 100627b0 f i libucrtd:output.obj
 0001:000617e0       ?type_case_s_compute_narrow_string_length@?$output_processor@_WV?$stream_output_adapter@_W@__crt_stdio_output@@V?$format_validation_base@_WV?$stream_output_adapter@_W@__crt_stdio_output@@@2@@__crt_stdio_output@@ABEHH_W@Z 100627e0 f i libucrtd:output.obj
 0001:00061850       ?type_case_s_compute_narrow_string_length@?$output_processor@_WV?$stream_output_adapter@_W@__crt_stdio_output@@V?$positional_parameter_base@_WV?$stream_output_adapter@_W@__crt_stdio_output@@@2@@__crt_stdio_output@@ABEHH_W@Z 10062850 f i libucrtd:output.obj
 0001:000618c0       ?type_case_s_compute_narrow_string_length@?$output_processor@_WV?$stream_output_adapter@_W@__crt_stdio_output@@V?$standard_base@_WV?$stream_output_adapter@_W@__crt_stdio_output@@@2@@__crt_stdio_output@@ABEHH_W@Z 100628c0 f i libucrtd:output.obj
 0001:00061930       ?type_case_s_compute_narrow_string_length@?$output_processor@_WV?$string_output_adapter@_W@__crt_stdio_output@@V?$format_validation_base@_WV?$string_output_adapter@_W@__crt_stdio_output@@@2@@__crt_stdio_output@@ABEHH_W@Z 10062930 f i libucrtd:output.obj
 0001:000619a0       ?type_case_s_compute_narrow_string_length@?$output_processor@_WV?$string_output_adapter@_W@__crt_stdio_output@@V?$positional_parameter_base@_WV?$string_output_adapter@_W@__crt_stdio_output@@@2@@__crt_stdio_output@@ABEHH_W@Z 100629a0 f i libucrtd:output.obj
 0001:00061a10       ?type_case_s_compute_narrow_string_length@?$output_processor@_WV?$string_output_adapter@_W@__crt_stdio_output@@V?$standard_base@_WV?$string_output_adapter@_W@__crt_stdio_output@@@2@@__crt_stdio_output@@ABEHH_W@Z 10062a10 f i libucrtd:output.obj
 0001:00061a80       ?type_case_u@?$output_processor@DV?$stream_output_adapter@D@__crt_stdio_output@@V?$format_validation_base@DV?$stream_output_adapter@D@__crt_stdio_output@@@2@@__crt_stdio_output@@AAE_NXZ 10062a80 f i libucrtd:output.obj
 0001:00061aa0       ?type_case_u@?$output_processor@DV?$stream_output_adapter@D@__crt_stdio_output@@V?$positional_parameter_base@DV?$stream_output_adapter@D@__crt_stdio_output@@@2@@__crt_stdio_output@@AAE_NXZ 10062aa0 f i libucrtd:output.obj
 0001:00061ac0       ?type_case_u@?$output_processor@DV?$stream_output_adapter@D@__crt_stdio_output@@V?$standard_base@DV?$stream_output_adapter@D@__crt_stdio_output@@@2@@__crt_stdio_output@@AAE_NXZ 10062ac0 f i libucrtd:output.obj
 0001:00061ae0       ?type_case_u@?$output_processor@DV?$string_output_adapter@D@__crt_stdio_output@@V?$format_validation_base@DV?$string_output_adapter@D@__crt_stdio_output@@@2@@__crt_stdio_output@@AAE_NXZ 10062ae0 f i libucrtd:output.obj
 0001:00061b00       ?type_case_u@?$output_processor@DV?$string_output_adapter@D@__crt_stdio_output@@V?$positional_parameter_base@DV?$string_output_adapter@D@__crt_stdio_output@@@2@@__crt_stdio_output@@AAE_NXZ 10062b00 f i libucrtd:output.obj
 0001:00061b20       ?type_case_u@?$output_processor@DV?$string_output_adapter@D@__crt_stdio_output@@V?$standard_base@DV?$string_output_adapter@D@__crt_stdio_output@@@2@@__crt_stdio_output@@AAE_NXZ 10062b20 f i libucrtd:output.obj
 0001:00061b40       ?type_case_u@?$output_processor@_WV?$stream_output_adapter@_W@__crt_stdio_output@@V?$format_validation_base@_WV?$stream_output_adapter@_W@__crt_stdio_output@@@2@@__crt_stdio_output@@AAE_NXZ 10062b40 f i libucrtd:output.obj
 0001:00061b60       ?type_case_u@?$output_processor@_WV?$stream_output_adapter@_W@__crt_stdio_output@@V?$positional_parameter_base@_WV?$stream_output_adapter@_W@__crt_stdio_output@@@2@@__crt_stdio_output@@AAE_NXZ 10062b60 f i libucrtd:output.obj
 0001:00061b80       ?type_case_u@?$output_processor@_WV?$stream_output_adapter@_W@__crt_stdio_output@@V?$standard_base@_WV?$stream_output_adapter@_W@__crt_stdio_output@@@2@@__crt_stdio_output@@AAE_NXZ 10062b80 f i libucrtd:output.obj
 0001:00061ba0       ?type_case_u@?$output_processor@_WV?$string_output_adapter@_W@__crt_stdio_output@@V?$format_validation_base@_WV?$string_output_adapter@_W@__crt_stdio_output@@@2@@__crt_stdio_output@@AAE_NXZ 10062ba0 f i libucrtd:output.obj
 0001:00061bc0       ?type_case_u@?$output_processor@_WV?$string_output_adapter@_W@__crt_stdio_output@@V?$positional_parameter_base@_WV?$string_output_adapter@_W@__crt_stdio_output@@@2@@__crt_stdio_output@@AAE_NXZ 10062bc0 f i libucrtd:output.obj
 0001:00061be0       ?type_case_u@?$output_processor@_WV?$string_output_adapter@_W@__crt_stdio_output@@V?$standard_base@_WV?$string_output_adapter@_W@__crt_stdio_output@@@2@@__crt_stdio_output@@AAE_NXZ 10062be0 f i libucrtd:output.obj
 0001:00061c00       ?type_case_x@?$output_processor@DV?$stream_output_adapter@D@__crt_stdio_output@@V?$format_validation_base@DV?$stream_output_adapter@D@__crt_stdio_output@@@2@@__crt_stdio_output@@AAE_NXZ 10062c00 f i libucrtd:output.obj
 0001:00061c20       ?type_case_x@?$output_processor@DV?$stream_output_adapter@D@__crt_stdio_output@@V?$positional_parameter_base@DV?$stream_output_adapter@D@__crt_stdio_output@@@2@@__crt_stdio_output@@AAE_NXZ 10062c20 f i libucrtd:output.obj
 0001:00061c40       ?type_case_x@?$output_processor@DV?$stream_output_adapter@D@__crt_stdio_output@@V?$standard_base@DV?$stream_output_adapter@D@__crt_stdio_output@@@2@@__crt_stdio_output@@AAE_NXZ 10062c40 f i libucrtd:output.obj
 0001:00061c60       ?type_case_x@?$output_processor@DV?$string_output_adapter@D@__crt_stdio_output@@V?$format_validation_base@DV?$string_output_adapter@D@__crt_stdio_output@@@2@@__crt_stdio_output@@AAE_NXZ 10062c60 f i libucrtd:output.obj
 0001:00061c80       ?type_case_x@?$output_processor@DV?$string_output_adapter@D@__crt_stdio_output@@V?$positional_parameter_base@DV?$string_output_adapter@D@__crt_stdio_output@@@2@@__crt_stdio_output@@AAE_NXZ 10062c80 f i libucrtd:output.obj
 0001:00061ca0       ?type_case_x@?$output_processor@DV?$string_output_adapter@D@__crt_stdio_output@@V?$standard_base@DV?$string_output_adapter@D@__crt_stdio_output@@@2@@__crt_stdio_output@@AAE_NXZ 10062ca0 f i libucrtd:output.obj
 0001:00061cc0       ?type_case_x@?$output_processor@_WV?$stream_output_adapter@_W@__crt_stdio_output@@V?$format_validation_base@_WV?$stream_output_adapter@_W@__crt_stdio_output@@@2@@__crt_stdio_output@@AAE_NXZ 10062cc0 f i libucrtd:output.obj
 0001:00061ce0       ?type_case_x@?$output_processor@_WV?$stream_output_adapter@_W@__crt_stdio_output@@V?$positional_parameter_base@_WV?$stream_output_adapter@_W@__crt_stdio_output@@@2@@__crt_stdio_output@@AAE_NXZ 10062ce0 f i libucrtd:output.obj
 0001:00061d00       ?type_case_x@?$output_processor@_WV?$stream_output_adapter@_W@__crt_stdio_output@@V?$standard_base@_WV?$stream_output_adapter@_W@__crt_stdio_output@@@2@@__crt_stdio_output@@AAE_NXZ 10062d00 f i libucrtd:output.obj
 0001:00061d20       ?type_case_x@?$output_processor@_WV?$string_output_adapter@_W@__crt_stdio_output@@V?$format_validation_base@_WV?$string_output_adapter@_W@__crt_stdio_output@@@2@@__crt_stdio_output@@AAE_NXZ 10062d20 f i libucrtd:output.obj
 0001:00061d40       ?type_case_x@?$output_processor@_WV?$string_output_adapter@_W@__crt_stdio_output@@V?$positional_parameter_base@_WV?$string_output_adapter@_W@__crt_stdio_output@@@2@@__crt_stdio_output@@AAE_NXZ 10062d40 f i libucrtd:output.obj
 0001:00061d60       ?type_case_x@?$output_processor@_WV?$string_output_adapter@_W@__crt_stdio_output@@V?$standard_base@_WV?$string_output_adapter@_W@__crt_stdio_output@@@2@@__crt_stdio_output@@AAE_NXZ 10062d60 f i libucrtd:output.obj
 0001:00061d80       ?unset_flag@?$output_processor@DV?$stream_output_adapter@D@__crt_stdio_output@@V?$format_validation_base@DV?$stream_output_adapter@D@__crt_stdio_output@@@2@@__crt_stdio_output@@AAEXI@Z 10062d80 f i libucrtd:output.obj
 0001:00061da0       ?unset_flag@?$output_processor@DV?$stream_output_adapter@D@__crt_stdio_output@@V?$positional_parameter_base@DV?$stream_output_adapter@D@__crt_stdio_output@@@2@@__crt_stdio_output@@AAEXI@Z 10062da0 f i libucrtd:output.obj
 0001:00061dc0       ?unset_flag@?$output_processor@DV?$stream_output_adapter@D@__crt_stdio_output@@V?$standard_base@DV?$stream_output_adapter@D@__crt_stdio_output@@@2@@__crt_stdio_output@@AAEXI@Z 10062dc0 f i libucrtd:output.obj
 0001:00061de0       ?unset_flag@?$output_processor@DV?$string_output_adapter@D@__crt_stdio_output@@V?$format_validation_base@DV?$string_output_adapter@D@__crt_stdio_output@@@2@@__crt_stdio_output@@AAEXI@Z 10062de0 f i libucrtd:output.obj
 0001:00061e00       ?unset_flag@?$output_processor@DV?$string_output_adapter@D@__crt_stdio_output@@V?$positional_parameter_base@DV?$string_output_adapter@D@__crt_stdio_output@@@2@@__crt_stdio_output@@AAEXI@Z 10062e00 f i libucrtd:output.obj
 0001:00061e20       ?unset_flag@?$output_processor@DV?$string_output_adapter@D@__crt_stdio_output@@V?$standard_base@DV?$string_output_adapter@D@__crt_stdio_output@@@2@@__crt_stdio_output@@AAEXI@Z 10062e20 f i libucrtd:output.obj
 0001:00061e40       ?unset_flag@?$output_processor@_WV?$stream_output_adapter@_W@__crt_stdio_output@@V?$format_validation_base@_WV?$stream_output_adapter@_W@__crt_stdio_output@@@2@@__crt_stdio_output@@AAEXI@Z 10062e40 f i libucrtd:output.obj
 0001:00061e60       ?unset_flag@?$output_processor@_WV?$stream_output_adapter@_W@__crt_stdio_output@@V?$positional_parameter_base@_WV?$stream_output_adapter@_W@__crt_stdio_output@@@2@@__crt_stdio_output@@AAEXI@Z 10062e60 f i libucrtd:output.obj
 0001:00061e80       ?unset_flag@?$output_processor@_WV?$stream_output_adapter@_W@__crt_stdio_output@@V?$standard_base@_WV?$stream_output_adapter@_W@__crt_stdio_output@@@2@@__crt_stdio_output@@AAEXI@Z 10062e80 f i libucrtd:output.obj
 0001:00061ea0       ?unset_flag@?$output_processor@_WV?$string_output_adapter@_W@__crt_stdio_output@@V?$format_validation_base@_WV?$string_output_adapter@_W@__crt_stdio_output@@@2@@__crt_stdio_output@@AAEXI@Z 10062ea0 f i libucrtd:output.obj
 0001:00061ec0       ?unset_flag@?$output_processor@_WV?$string_output_adapter@_W@__crt_stdio_output@@V?$positional_parameter_base@_WV?$string_output_adapter@_W@__crt_stdio_output@@@2@@__crt_stdio_output@@AAEXI@Z 10062ec0 f i libucrtd:output.obj
 0001:00061ee0       ?unset_flag@?$output_processor@_WV?$string_output_adapter@_W@__crt_stdio_output@@V?$standard_base@_WV?$string_output_adapter@_W@__crt_stdio_output@@@2@@__crt_stdio_output@@AAEXI@Z 10062ee0 f i libucrtd:output.obj
 0001:00061f00       ?update_field_width@?$positional_parameter_base@DV?$stream_output_adapter@D@__crt_stdio_output@@@__crt_stdio_output@@IAE_NXZ 10062f00 f i libucrtd:output.obj
 0001:00062080       ?update_field_width@?$positional_parameter_base@DV?$string_output_adapter@D@__crt_stdio_output@@@__crt_stdio_output@@IAE_NXZ 10063080 f i libucrtd:output.obj
 0001:00062200       ?update_field_width@?$positional_parameter_base@_WV?$stream_output_adapter@_W@__crt_stdio_output@@@__crt_stdio_output@@IAE_NXZ 10063200 f i libucrtd:output.obj
 0001:00062380       ?update_field_width@?$positional_parameter_base@_WV?$string_output_adapter@_W@__crt_stdio_output@@@__crt_stdio_output@@IAE_NXZ 10063380 f i libucrtd:output.obj
 0001:00062500       ?update_field_width@?$standard_base@DV?$stream_output_adapter@D@__crt_stdio_output@@@__crt_stdio_output@@IAE_NXZ 10063500 f i libucrtd:output.obj
 0001:00062530       ?update_field_width@?$standard_base@DV?$string_output_adapter@D@__crt_stdio_output@@@__crt_stdio_output@@IAE_NXZ 10063530 f i libucrtd:output.obj
 0001:00062560       ?update_field_width@?$standard_base@_WV?$stream_output_adapter@_W@__crt_stdio_output@@@__crt_stdio_output@@IAE_NXZ 10063560 f i libucrtd:output.obj
 0001:00062590       ?update_field_width@?$standard_base@_WV?$string_output_adapter@_W@__crt_stdio_output@@@__crt_stdio_output@@IAE_NXZ 10063590 f i libucrtd:output.obj
 0001:000625c0       ?update_precision@?$positional_parameter_base@DV?$stream_output_adapter@D@__crt_stdio_output@@@__crt_stdio_output@@IAE_NXZ 100635c0 f i libucrtd:output.obj
 0001:00062740       ?update_precision@?$positional_parameter_base@DV?$string_output_adapter@D@__crt_stdio_output@@@__crt_stdio_output@@IAE_NXZ 10063740 f i libucrtd:output.obj
 0001:000628c0       ?update_precision@?$positional_parameter_base@_WV?$stream_output_adapter@_W@__crt_stdio_output@@@__crt_stdio_output@@IAE_NXZ 100638c0 f i libucrtd:output.obj
 0001:00062a40       ?update_precision@?$positional_parameter_base@_WV?$string_output_adapter@_W@__crt_stdio_output@@@__crt_stdio_output@@IAE_NXZ 10063a40 f i libucrtd:output.obj
 0001:00062bc0       ?update_precision@?$standard_base@DV?$stream_output_adapter@D@__crt_stdio_output@@@__crt_stdio_output@@IAE_NXZ 10063bc0 f i libucrtd:output.obj
 0001:00062bf0       ?update_precision@?$standard_base@DV?$string_output_adapter@D@__crt_stdio_output@@@__crt_stdio_output@@IAE_NXZ 10063bf0 f i libucrtd:output.obj
 0001:00062c20       ?update_precision@?$standard_base@_WV?$stream_output_adapter@_W@__crt_stdio_output@@@__crt_stdio_output@@IAE_NXZ 10063c20 f i libucrtd:output.obj
 0001:00062c50       ?update_precision@?$standard_base@_WV?$string_output_adapter@_W@__crt_stdio_output@@@__crt_stdio_output@@IAE_NXZ 10063c50 f i libucrtd:output.obj
 0001:00062c80       ?valid@__crt_stdio_stream@@QBE_NXZ 10063c80 f i libucrtd:output.obj
 0001:00062cb0       ?validate@?$stream_output_adapter@D@__crt_stdio_output@@QBE_NXZ 10063cb0 f i libucrtd:output.obj
 0001:00062d60       ?validate@?$stream_output_adapter@_W@__crt_stdio_output@@QBE_NXZ 10063d60 f i libucrtd:output.obj
 0001:00062e10       ?validate@?$string_output_adapter@D@__crt_stdio_output@@QBE_NXZ 10063e10 f i libucrtd:output.obj
 0001:00062ea0       ?validate@?$string_output_adapter@_W@__crt_stdio_output@@QBE_NXZ 10063ea0 f i libucrtd:output.obj
 0001:00062f30       ?validate_and_store_parameter_data@?$positional_parameter_base@DV?$stream_output_adapter@D@__crt_stdio_output@@@__crt_stdio_output@@AAE_NAAUparameter_data@12@W4parameter_type@12@DW4length_modifier@2@@Z 10063f30 f i libucrtd:output.obj
 0001:00063000       ?validate_and_store_parameter_data@?$positional_parameter_base@DV?$string_output_adapter@D@__crt_stdio_output@@@__crt_stdio_output@@AAE_NAAUparameter_data@12@W4parameter_type@12@DW4length_modifier@2@@Z 10064000 f i libucrtd:output.obj
 0001:000630d0       ?validate_and_store_parameter_data@?$positional_parameter_base@_WV?$stream_output_adapter@_W@__crt_stdio_output@@@__crt_stdio_output@@AAE_NAAUparameter_data@12@W4parameter_type@12@_WW4length_modifier@2@@Z 100640d0 f i libucrtd:output.obj
 0001:000631b0       ?validate_and_store_parameter_data@?$positional_parameter_base@_WV?$string_output_adapter@_W@__crt_stdio_output@@@__crt_stdio_output@@AAE_NAAUparameter_data@12@W4parameter_type@12@_WW4length_modifier@2@@Z 100641b0 f i libucrtd:output.obj
 0001:00063290       ?validate_and_update_state_at_beginning_of_format_character@?$positional_parameter_base@DV?$stream_output_adapter@D@__crt_stdio_output@@@__crt_stdio_output@@IAE_NXZ 10064290 f i libucrtd:output.obj
 0001:000634b0       ?validate_and_update_state_at_beginning_of_format_character@?$positional_parameter_base@DV?$string_output_adapter@D@__crt_stdio_output@@@__crt_stdio_output@@IAE_NXZ 100644b0 f i libucrtd:output.obj
 0001:000636d0       ?validate_and_update_state_at_beginning_of_format_character@?$positional_parameter_base@_WV?$stream_output_adapter@_W@__crt_stdio_output@@@__crt_stdio_output@@IAE_NXZ 100646d0 f i libucrtd:output.obj
 0001:000638f0       ?validate_and_update_state_at_beginning_of_format_character@?$positional_parameter_base@_WV?$string_output_adapter@_W@__crt_stdio_output@@@__crt_stdio_output@@IAE_NXZ 100648f0 f i libucrtd:output.obj
 0001:00063b10       ?validate_and_update_state_at_beginning_of_format_character@?$standard_base@DV?$stream_output_adapter@D@__crt_stdio_output@@@__crt_stdio_output@@IAE_NXZ 10064b10 f i libucrtd:output.obj
 0001:00063b20       ?validate_and_update_state_at_beginning_of_format_character@?$standard_base@DV?$string_output_adapter@D@__crt_stdio_output@@@__crt_stdio_output@@IAE_NXZ 10064b20 f i libucrtd:output.obj
 0001:00063b30       ?validate_and_update_state_at_beginning_of_format_character@?$standard_base@_WV?$stream_output_adapter@_W@__crt_stdio_output@@@__crt_stdio_output@@IAE_NXZ 10064b30 f i libucrtd:output.obj
 0001:00063b40       ?validate_and_update_state_at_beginning_of_format_character@?$standard_base@_WV?$string_output_adapter@_W@__crt_stdio_output@@@__crt_stdio_output@@IAE_NXZ 10064b40 f i libucrtd:output.obj
 0001:00063b50       ?validate_and_update_state_at_end_of_format_string@?$format_validation_base@DV?$stream_output_adapter@D@__crt_stdio_output@@@__crt_stdio_output@@IBE_NXZ 10064b50 f i libucrtd:output.obj
 0001:00063bf0       ?validate_and_update_state_at_end_of_format_string@?$format_validation_base@DV?$string_output_adapter@D@__crt_stdio_output@@@__crt_stdio_output@@IBE_NXZ 10064bf0 f i libucrtd:output.obj
 0001:00063c90       ?validate_and_update_state_at_end_of_format_string@?$format_validation_base@_WV?$stream_output_adapter@_W@__crt_stdio_output@@@__crt_stdio_output@@IBE_NXZ 10064c90 f i libucrtd:output.obj
 0001:00063d30       ?validate_and_update_state_at_end_of_format_string@?$format_validation_base@_WV?$string_output_adapter@_W@__crt_stdio_output@@@__crt_stdio_output@@IBE_NXZ 10064d30 f i libucrtd:output.obj
 0001:00063dd0       ?validate_and_update_state_at_end_of_format_string@?$positional_parameter_base@DV?$stream_output_adapter@D@__crt_stdio_output@@@__crt_stdio_output@@IAE_NXZ 10064dd0 f i libucrtd:output.obj
 0001:00063f70       ?validate_and_update_state_at_end_of_format_string@?$positional_parameter_base@DV?$string_output_adapter@D@__crt_stdio_output@@@__crt_stdio_output@@IAE_NXZ 10064f70 f i libucrtd:output.obj
 0001:00064110       ?validate_and_update_state_at_end_of_format_string@?$positional_parameter_base@_WV?$stream_output_adapter@_W@__crt_stdio_output@@@__crt_stdio_output@@IAE_NXZ 10065110 f i libucrtd:output.obj
 0001:000642b0       ?validate_and_update_state_at_end_of_format_string@?$positional_parameter_base@_WV?$string_output_adapter@_W@__crt_stdio_output@@@__crt_stdio_output@@IAE_NXZ 100652b0 f i libucrtd:output.obj
 0001:00064450       ?validate_and_update_state_at_end_of_format_string@?$standard_base@DV?$stream_output_adapter@D@__crt_stdio_output@@@__crt_stdio_output@@IBE_NXZ 10065450 f i libucrtd:output.obj
 0001:00064460       ?validate_and_update_state_at_end_of_format_string@?$standard_base@DV?$string_output_adapter@D@__crt_stdio_output@@@__crt_stdio_output@@IBE_NXZ 10065460 f i libucrtd:output.obj
 0001:00064470       ?validate_and_update_state_at_end_of_format_string@?$standard_base@_WV?$stream_output_adapter@_W@__crt_stdio_output@@@__crt_stdio_output@@IBE_NXZ 10065470 f i libucrtd:output.obj
 0001:00064480       ?validate_and_update_state_at_end_of_format_string@?$standard_base@_WV?$string_output_adapter@_W@__crt_stdio_output@@@__crt_stdio_output@@IBE_NXZ 10065480 f i libucrtd:output.obj
 0001:00064490       ?validate_state_for_type_case_a@?$positional_parameter_base@DV?$stream_output_adapter@D@__crt_stdio_output@@@__crt_stdio_output@@IAE_NXZ 10065490 f i libucrtd:output.obj
 0001:00064580       ?validate_state_for_type_case_a@?$positional_parameter_base@DV?$string_output_adapter@D@__crt_stdio_output@@@__crt_stdio_output@@IAE_NXZ 10065580 f i libucrtd:output.obj
 0001:00064670       ?validate_state_for_type_case_a@?$positional_parameter_base@_WV?$stream_output_adapter@_W@__crt_stdio_output@@@__crt_stdio_output@@IAE_NXZ 10065670 f i libucrtd:output.obj
 0001:00064760       ?validate_state_for_type_case_a@?$positional_parameter_base@_WV?$string_output_adapter@_W@__crt_stdio_output@@@__crt_stdio_output@@IAE_NXZ 10065760 f i libucrtd:output.obj
 0001:00064850       ?validate_state_for_type_case_a@?$standard_base@DV?$stream_output_adapter@D@__crt_stdio_output@@@__crt_stdio_output@@IBE_NXZ 10065850 f i libucrtd:output.obj
 0001:00064860       ?validate_state_for_type_case_a@?$standard_base@DV?$string_output_adapter@D@__crt_stdio_output@@@__crt_stdio_output@@IBE_NXZ 10065860 f i libucrtd:output.obj
 0001:00064870       ?validate_state_for_type_case_a@?$standard_base@_WV?$stream_output_adapter@_W@__crt_stdio_output@@@__crt_stdio_output@@IBE_NXZ 10065870 f i libucrtd:output.obj
 0001:00064880       ?validate_state_for_type_case_a@?$standard_base@_WV?$string_output_adapter@_W@__crt_stdio_output@@@__crt_stdio_output@@IBE_NXZ 10065880 f i libucrtd:output.obj
 0001:00064890       ?validate_stream_is_ansi_if_required@?$__acrt_stdio_char_traits@D@@SA_NQAU_iobuf@@@Z 10065890 f i libucrtd:output.obj
 0001:000649c0       ?validate_stream_is_ansi_if_required@?$__acrt_stdio_char_traits@_W@@SA_NQAU_iobuf@@@Z 100659c0 f i libucrtd:output.obj
 0001:000649d0       ?wide_null_string@?$output_processor@DV?$stream_output_adapter@D@__crt_stdio_output@@V?$format_validation_base@DV?$stream_output_adapter@D@__crt_stdio_output@@@2@@__crt_stdio_output@@CAPA_WXZ 100659d0 f i libucrtd:output.obj
 0001:000649e0       ?wide_null_string@?$output_processor@DV?$stream_output_adapter@D@__crt_stdio_output@@V?$positional_parameter_base@DV?$stream_output_adapter@D@__crt_stdio_output@@@2@@__crt_stdio_output@@CAPA_WXZ 100659e0 f i libucrtd:output.obj
 0001:000649f0       ?wide_null_string@?$output_processor@DV?$stream_output_adapter@D@__crt_stdio_output@@V?$standard_base@DV?$stream_output_adapter@D@__crt_stdio_output@@@2@@__crt_stdio_output@@CAPA_WXZ 100659f0 f i libucrtd:output.obj
 0001:00064a00       ?wide_null_string@?$output_processor@DV?$string_output_adapter@D@__crt_stdio_output@@V?$format_validation_base@DV?$string_output_adapter@D@__crt_stdio_output@@@2@@__crt_stdio_output@@CAPA_WXZ 10065a00 f i libucrtd:output.obj
 0001:00064a10       ?wide_null_string@?$output_processor@DV?$string_output_adapter@D@__crt_stdio_output@@V?$positional_parameter_base@DV?$string_output_adapter@D@__crt_stdio_output@@@2@@__crt_stdio_output@@CAPA_WXZ 10065a10 f i libucrtd:output.obj
 0001:00064a20       ?wide_null_string@?$output_processor@DV?$string_output_adapter@D@__crt_stdio_output@@V?$standard_base@DV?$string_output_adapter@D@__crt_stdio_output@@@2@@__crt_stdio_output@@CAPA_WXZ 10065a20 f i libucrtd:output.obj
 0001:00064a30       ?wide_null_string@?$output_processor@_WV?$stream_output_adapter@_W@__crt_stdio_output@@V?$format_validation_base@_WV?$stream_output_adapter@_W@__crt_stdio_output@@@2@@__crt_stdio_output@@CAPA_WXZ 10065a30 f i libucrtd:output.obj
 0001:00064a40       ?wide_null_string@?$output_processor@_WV?$stream_output_adapter@_W@__crt_stdio_output@@V?$positional_parameter_base@_WV?$stream_output_adapter@_W@__crt_stdio_output@@@2@@__crt_stdio_output@@CAPA_WXZ 10065a40 f i libucrtd:output.obj
 0001:00064a50       ?wide_null_string@?$output_processor@_WV?$stream_output_adapter@_W@__crt_stdio_output@@V?$standard_base@_WV?$stream_output_adapter@_W@__crt_stdio_output@@@2@@__crt_stdio_output@@CAPA_WXZ 10065a50 f i libucrtd:output.obj
 0001:00064a60       ?wide_null_string@?$output_processor@_WV?$string_output_adapter@_W@__crt_stdio_output@@V?$format_validation_base@_WV?$string_output_adapter@_W@__crt_stdio_output@@@2@@__crt_stdio_output@@CAPA_WXZ 10065a60 f i libucrtd:output.obj
 0001:00064a70       ?wide_null_string@?$output_processor@_WV?$string_output_adapter@_W@__crt_stdio_output@@V?$positional_parameter_base@_WV?$string_output_adapter@_W@__crt_stdio_output@@@2@@__crt_stdio_output@@CAPA_WXZ 10065a70 f i libucrtd:output.obj
 0001:00064a80       ?wide_null_string@?$output_processor@_WV?$string_output_adapter@_W@__crt_stdio_output@@V?$standard_base@_WV?$string_output_adapter@_W@__crt_stdio_output@@@2@@__crt_stdio_output@@CAPA_WXZ 10065a80 f i libucrtd:output.obj
 0001:00064a90       ?write_character@?$output_adapter_common@DV?$stream_output_adapter@D@__crt_stdio_output@@@__crt_stdio_output@@QBEXDQAH@Z 10065a90 f i libucrtd:output.obj
 0001:00064ad0       ?write_character@?$output_adapter_common@_WV?$stream_output_adapter@_W@__crt_stdio_output@@@__crt_stdio_output@@QBEX_WQAH@Z 10065ad0 f i libucrtd:output.obj
 0001:00064b10       ?write_character@?$string_output_adapter@D@__crt_stdio_output@@QBE_NDQAH@Z 10065b10 f i libucrtd:output.obj
 0001:00064ba0       ?write_character@?$string_output_adapter@_W@__crt_stdio_output@@QBE_N_WQAH@Z 10065ba0 f i libucrtd:output.obj
 0001:00064c40       ?write_character_without_count_update@?$stream_output_adapter@D@__crt_stdio_output@@QBE_ND@Z 10065c40 f i libucrtd:output.obj
 0001:00064cb0       ?write_character_without_count_update@?$stream_output_adapter@_W@__crt_stdio_output@@QBE_N_W@Z 10065cb0 f i libucrtd:output.obj
 0001:00064d20       ?write_stored_string_tchar@?$output_processor@DV?$stream_output_adapter@D@__crt_stdio_output@@V?$format_validation_base@DV?$stream_output_adapter@D@__crt_stdio_output@@@2@@__crt_stdio_output@@AAE_ND@Z 10065d20 f i libucrtd:output.obj
 0001:00064e40       ?write_stored_string_tchar@?$output_processor@DV?$stream_output_adapter@D@__crt_stdio_output@@V?$positional_parameter_base@DV?$stream_output_adapter@D@__crt_stdio_output@@@2@@__crt_stdio_output@@AAE_ND@Z 10065e40 f i libucrtd:output.obj
 0001:00064f60       ?write_stored_string_tchar@?$output_processor@DV?$stream_output_adapter@D@__crt_stdio_output@@V?$standard_base@DV?$stream_output_adapter@D@__crt_stdio_output@@@2@@__crt_stdio_output@@AAE_ND@Z 10065f60 f i libucrtd:output.obj
 0001:00065080       ?write_stored_string_tchar@?$output_processor@DV?$string_output_adapter@D@__crt_stdio_output@@V?$format_validation_base@DV?$string_output_adapter@D@__crt_stdio_output@@@2@@__crt_stdio_output@@AAE_ND@Z 10066080 f i libucrtd:output.obj
 0001:000651a0       ?write_stored_string_tchar@?$output_processor@DV?$string_output_adapter@D@__crt_stdio_output@@V?$positional_parameter_base@DV?$string_output_adapter@D@__crt_stdio_output@@@2@@__crt_stdio_output@@AAE_ND@Z 100661a0 f i libucrtd:output.obj
 0001:000652c0       ?write_stored_string_tchar@?$output_processor@DV?$string_output_adapter@D@__crt_stdio_output@@V?$standard_base@DV?$string_output_adapter@D@__crt_stdio_output@@@2@@__crt_stdio_output@@AAE_ND@Z 100662c0 f i libucrtd:output.obj
 0001:000653e0       ?write_stored_string_tchar@?$output_processor@_WV?$stream_output_adapter@_W@__crt_stdio_output@@V?$format_validation_base@_WV?$stream_output_adapter@_W@__crt_stdio_output@@@2@@__crt_stdio_output@@AAE_N_W@Z 100663e0 f i libucrtd:output.obj
 0001:000654d0       ?write_stored_string_tchar@?$output_processor@_WV?$stream_output_adapter@_W@__crt_stdio_output@@V?$positional_parameter_base@_WV?$stream_output_adapter@_W@__crt_stdio_output@@@2@@__crt_stdio_output@@AAE_N_W@Z 100664d0 f i libucrtd:output.obj
 0001:000655c0       ?write_stored_string_tchar@?$output_processor@_WV?$stream_output_adapter@_W@__crt_stdio_output@@V?$standard_base@_WV?$stream_output_adapter@_W@__crt_stdio_output@@@2@@__crt_stdio_output@@AAE_N_W@Z 100665c0 f i libucrtd:output.obj
 0001:000656b0       ?write_stored_string_tchar@?$output_processor@_WV?$string_output_adapter@_W@__crt_stdio_output@@V?$format_validation_base@_WV?$string_output_adapter@_W@__crt_stdio_output@@@2@@__crt_stdio_output@@AAE_N_W@Z 100666b0 f i libucrtd:output.obj
 0001:000657a0       ?write_stored_string_tchar@?$output_processor@_WV?$string_output_adapter@_W@__crt_stdio_output@@V?$positional_parameter_base@_WV?$string_output_adapter@_W@__crt_stdio_output@@@2@@__crt_stdio_output@@AAE_N_W@Z 100667a0 f i libucrtd:output.obj
 0001:00065890       ?write_stored_string_tchar@?$output_processor@_WV?$string_output_adapter@_W@__crt_stdio_output@@V?$standard_base@_WV?$string_output_adapter@_W@__crt_stdio_output@@@2@@__crt_stdio_output@@AAE_N_W@Z 10066890 f i libucrtd:output.obj
 0001:00065980       ?write_string@?$stream_output_adapter@D@__crt_stdio_output@@QBEXQBDHQAHAAV__crt_deferred_errno_cache@@@Z 10066980 f i libucrtd:output.obj
 0001:000659e0       ?write_string@?$stream_output_adapter@_W@__crt_stdio_output@@QBEXQB_WHQAHAAV__crt_deferred_errno_cache@@@Z 100669e0 f i libucrtd:output.obj
 0001:00065a40       ?write_string@?$string_output_adapter@D@__crt_stdio_output@@QBEXQBDHQAHAAV__crt_deferred_errno_cache@@@Z 10066a40 f i libucrtd:output.obj
 0001:00065b40       ?write_string@?$string_output_adapter@_W@__crt_stdio_output@@QBEXQB_WHQAHAAV__crt_deferred_errno_cache@@@Z 10066b40 f i libucrtd:output.obj
 0001:00065c50       ?write_string_impl@?$output_adapter_common@DV?$stream_output_adapter@D@__crt_stdio_output@@@__crt_stdio_output@@IBEXQBDHQAHAAV__crt_deferred_errno_cache@@@Z 10066c50 f i libucrtd:output.obj
 0001:00065cf0       ?write_string_impl@?$output_adapter_common@_WV?$stream_output_adapter@_W@__crt_stdio_output@@@__crt_stdio_output@@IBEXQB_WHQAHAAV__crt_deferred_errno_cache@@@Z 10066cf0 f i libucrtd:output.obj
 0001:00065d90       ___acrt_disable_global_locale_sync 10066d90 f i libucrtd:output.obj
 0001:00065db0       ___acrt_enable_global_locale_sync 10066db0 f i libucrtd:output.obj
 0001:00065dd0       ___acrt_isleadbyte_l_noupdate 10066dd0 f i libucrtd:output.obj
 0001:00065df0       ___acrt_locale_changed     10066df0 f i libucrtd:output.obj
 0001:00065e20       ___acrt_locale_get_ctype_array_value 10066e20 f i libucrtd:output.obj
 0001:00065e50       ___stdio_common_vfprintf   10066e50 f   libucrtd:output.obj
 0001:00065e80       ___stdio_common_vfprintf_p 10066e80 f   libucrtd:output.obj
 0001:00065eb0       ___stdio_common_vfprintf_s 10066eb0 f   libucrtd:output.obj
 0001:00065ee0       ___stdio_common_vfwprintf  10066ee0 f   libucrtd:output.obj
 0001:00065f10       ___stdio_common_vfwprintf_p 10066f10 f   libucrtd:output.obj
 0001:00065f40       ___stdio_common_vfwprintf_s 10066f40 f   libucrtd:output.obj
 0001:00065f70       ___stdio_common_vsnprintf_s 10066f70 f   libucrtd:output.obj
 0001:00065fa0       ___stdio_common_vsnwprintf_s 10066fa0 f   libucrtd:output.obj
 0001:00065fd0       ___stdio_common_vsprintf   10066fd0 f   libucrtd:output.obj
 0001:00066000       ___stdio_common_vsprintf_p 10067000 f   libucrtd:output.obj
 0001:00066030       ___stdio_common_vsprintf_s 10067030 f   libucrtd:output.obj
 0001:00066060       ___stdio_common_vswprintf  10067060 f   libucrtd:output.obj
 0001:00066090       ___stdio_common_vswprintf_p 10067090 f   libucrtd:output.obj
 0001:000660c0       ___stdio_common_vswprintf_s 100670c0 f   libucrtd:output.obj
 0001:000660f0       __ctype_fast_check_internal 100670f0 f i libucrtd:output.obj
 0001:00066110       __isdigit_fast_internal    10067110 f i libucrtd:output.obj
 0001:00066130       __tolower_fast_internal    10067130 f i libucrtd:output.obj
 0001:00066150       _free                      10067150 f   libucrtd:free.obj
 0001:00066180       _malloc                    10067180 f   libucrtd:malloc.obj
 0001:000661a0       ??$?RU?$__crt_report_hook_node@D@@@__crt_internal_free_policy@@QBEXQBU?$__crt_report_hook_node@D@@@Z 100671a0 f i libucrtd:dbgrpt.obj
 0001:000661c0       ??$?RU?$__crt_report_hook_node@_W@@@__crt_internal_free_policy@@QBEXQBU?$__crt_report_hook_node@_W@@@Z 100671c0 f i libucrtd:dbgrpt.obj
 0001:00066fb0       ??$get_module_file_name@AAPAUHINSTANCE__@@AAY0BAF@DK@?$__crt_char_traits@D@@SAKAAPAUHINSTANCE__@@AAY0BAF@D$$QAK@Z 10067fb0 f i libucrtd:dbgrpt.obj
 0001:00066fd0       ??$get_module_file_name@AAPAUHINSTANCE__@@AAY0BAF@_WK@?$__crt_char_traits@_W@@SAKAAPAUHINSTANCE__@@AAY0BAF@_W$$QAK@Z 10067fd0 f i libucrtd:dbgrpt.obj
 0001:00066ff0       ??$tcscpy_s@AAY0BAF@DIPBD@?$__crt_char_traits@D@@SAHAAY0BAF@D$$QAI$$QAPBD@Z 10067ff0 f i libucrtd:dbgrpt.obj
 0001:00067010       ??$tcscpy_s@AAY0BAF@_WIPB_W@?$__crt_char_traits@_W@@SAHAAY0BAF@_W$$QAI$$QAPB_W@Z 10068010 f i libucrtd:dbgrpt.obj
 0001:00067030       ??$tcslen@AAY0BAF@D@?$__crt_char_traits@D@@SAIAAY0BAF@D@Z 10068030 f i libucrtd:dbgrpt.obj
 0001:00067050       ??$tcslen@AAY0BAF@_W@?$__crt_char_traits@_W@@SAIAAY0BAF@_W@Z 10068050 f i libucrtd:dbgrpt.obj
 0001:00067070       ??$tcslen@ABQBD@?$__crt_char_traits@D@@SAIABQBD@Z 10068070 f i libucrtd:dbgrpt.obj
 0001:00067090       ??$tcslen@ABQB_W@?$__crt_char_traits@_W@@SAIABQB_W@Z 10068090 f i libucrtd:dbgrpt.obj
 0001:00067190       ??0?$__crt_unique_heap_ptr@U?$__crt_report_hook_node@D@@U__crt_internal_free_policy@@@@QAE@QAU?$__crt_report_hook_node@D@@@Z 10068190 f i libucrtd:dbgrpt.obj
 0001:000671b0       ??0?$__crt_unique_heap_ptr@U?$__crt_report_hook_node@_W@@U__crt_internal_free_policy@@@@QAE@QAU?$__crt_report_hook_node@_W@@@Z 100681b0 f i libucrtd:dbgrpt.obj
 0001:000671d0       ??1?$__crt_unique_heap_ptr@U?$__crt_report_hook_node@D@@U__crt_internal_free_policy@@@@QAE@XZ 100681d0 f i libucrtd:dbgrpt.obj
 0001:000671f0       ??1?$__crt_unique_heap_ptr@U?$__crt_report_hook_node@_W@@U__crt_internal_free_policy@@@@QAE@XZ 100681f0 f i libucrtd:dbgrpt.obj
 0001:00067210       ??B?$__crt_unique_heap_ptr@U?$__crt_report_hook_node@D@@U__crt_internal_free_policy@@@@QBE_NXZ 10068210 f i libucrtd:dbgrpt.obj
 0001:00067230       ??B?$__crt_unique_heap_ptr@U?$__crt_report_hook_node@_W@@U__crt_internal_free_policy@@@@QBE_NXZ 10068230 f i libucrtd:dbgrpt.obj
 0001:00067770       ?detach@?$__crt_unique_heap_ptr@U?$__crt_report_hook_node@D@@U__crt_internal_free_policy@@@@QAEPAU?$__crt_report_hook_node@D@@XZ 10068770 f i libucrtd:dbgrpt.obj
 0001:000677a0       ?detach@?$__crt_unique_heap_ptr@U?$__crt_report_hook_node@_W@@U__crt_internal_free_policy@@@@QAEPAU?$__crt_report_hook_node@_W@@XZ 100687a0 f i libucrtd:dbgrpt.obj
 0001:000677d0       ?get@?$__crt_unique_heap_ptr@U?$__crt_report_hook_node@D@@U__crt_internal_free_policy@@@@QBEPAU?$__crt_report_hook_node@D@@XZ 100687d0 f i libucrtd:dbgrpt.obj
 0001:000677f0       ?get@?$__crt_unique_heap_ptr@U?$__crt_report_hook_node@_W@@U__crt_internal_free_policy@@@@QBEPAU?$__crt_report_hook_node@_W@@XZ 100687f0 f i libucrtd:dbgrpt.obj
 0001:00067870       ?is_valid@?$__crt_unique_heap_ptr@U?$__crt_report_hook_node@D@@U__crt_internal_free_policy@@@@QBE_NXZ 10068870 f i libucrtd:dbgrpt.obj
 0001:000678a0       ?is_valid@?$__crt_unique_heap_ptr@U?$__crt_report_hook_node@_W@@U__crt_internal_free_policy@@@@QBE_NXZ 100688a0 f i libucrtd:dbgrpt.obj
 0001:000678d0       ?release@?$__crt_unique_heap_ptr@U?$__crt_report_hook_node@D@@U__crt_internal_free_policy@@@@QAEXXZ 100688d0 f i libucrtd:dbgrpt.obj
 0001:00067900       ?release@?$__crt_unique_heap_ptr@U?$__crt_report_hook_node@_W@@U__crt_internal_free_policy@@@@QAEXXZ 10068900 f i libucrtd:dbgrpt.obj
 0001:00067930       __CrtDbgReport             10068930 f   libucrtd:dbgrpt.obj
 0001:00067980       __CrtDbgReportW            10068980 f   libucrtd:dbgrpt.obj
 0001:000679d0       __CrtSetReportHook2        100689d0 f   libucrtd:dbgrpt.obj
 0001:000679f0       __CrtSetReportHookW2       100689f0 f   libucrtd:dbgrpt.obj
 0001:00067a10       ___acrt_MessageWindowA     10068a10 f   libucrtd:dbgrpt.obj
 0001:00067a40       ___acrt_MessageWindowW     10068a40 f   libucrtd:dbgrpt.obj
 0001:00067a70       __invoke_watson_if_error   10068a70 f i libucrtd:dbgrpt.obj
 0001:00067aa0       __invoke_watson_if_oneof   10068aa0 f i libucrtd:dbgrpt.obj
 0001:00067ae0       __snwprintf_s              10068ae0 f i libucrtd:dbgrpt.obj
 0001:00067b20       __vsnwprintf_s_l           10068b20 f i libucrtd:dbgrpt.obj
 0001:00067ea0       _wcscpy_s                  10068ea0 f   libucrtd:wcscpy_s.obj
 0001:00068bc0       ??1?$__crt_simd_cleanup_guard@$00@@QAE@XZ 10069bc0 f i libucrtd:strnlen.obj
 0001:00068bd0       ??1?$__crt_simd_cleanup_guard@$0A@@@QAE@XZ 10069bd0 f i libucrtd:strnlen.obj
 0001:00068be0       ?compare_equals@?$__crt_simd_traits@$00E@@SA?AT__m256i@@T2@0@Z 10069be0 f i libucrtd:strnlen.obj
 0001:00068c20       ?compare_equals@?$__crt_simd_traits@$00G@@SA?AT__m256i@@T2@0@Z 10069c20 f i libucrtd:strnlen.obj
 0001:00068c60       ?compare_equals@?$__crt_simd_traits@$0A@E@@SA?AT__m128i@@T2@0@Z 10069c60 f i libucrtd:strnlen.obj
 0001:00068ca0       ?compare_equals@?$__crt_simd_traits@$0A@G@@SA?AT__m128i@@T2@0@Z 10069ca0 f i libucrtd:strnlen.obj
 0001:00068ce0       ?compute_byte_mask@?$__crt_simd_pack_traits@$00@@SAHT__m256i@@@Z 10069ce0 f i libucrtd:strnlen.obj
 0001:00068d10       ?compute_byte_mask@?$__crt_simd_pack_traits@$0A@@@SAHT__m128i@@@Z 10069d10 f i libucrtd:strnlen.obj
 0001:00068d40       ?get_zero_pack@?$__crt_simd_pack_traits@$00@@SA?AT__m256i@@XZ 10069d40 f i libucrtd:strnlen.obj
 0001:00068d70       ?get_zero_pack@?$__crt_simd_pack_traits@$0A@@@SA?AT__m128i@@XZ 10069d70 f i libucrtd:strnlen.obj
 0001:00068da0       _strnlen                   10069da0 f   libucrtd:strnlen.obj
 0001:00068dc0       _wcslen                    10069dc0 f   libucrtd:strnlen.obj
 0001:00068de0       _wcsnlen                   10069de0 f   libucrtd:strnlen.obj
 0001:00068e00       ??$__crt_fast_decode_pointer@P6AXPB_W00II@Z@@YAP6AXPB_W00II@ZQ6AX000II@Z@Z 10069e00 f i libucrtd:invalid_parameter.obj
 0001:00068e30       ??$__crt_fast_encode_pointer@P6AXPB_W00II@Z@@YAP6AXPB_W00II@ZQ6AX000II@Z@Z 10069e30 f i libucrtd:invalid_parameter.obj
 0001:00068e60       ??$initialize_from_array@$$BY00Q6AXPB_W00II@Z@?$dual_state_global@P6AXPB_W00II@Z@__crt_state_management@@QAAXAAY00Q6AXPB_W00II@Z@Z 10069e60 f i libucrtd:invalid_parameter.obj
 0001:00068eb0       ?__crt_rotate_pointer_value@@YAIIH@Z 10069eb0 f i libucrtd:invalid_parameter.obj
 0001:00068ec0       ?dangerous_get_state_array@?$dual_state_global@P6AXPB_W00II@Z@__crt_state_management@@QAEPAP6AXPB_W00II@ZXZ 10069ec0 f i libucrtd:invalid_parameter.obj
 0001:00068ed0       ?get_current_state_index@__crt_state_management@@YAIXZ 10069ed0 f i libucrtd:invalid_parameter.obj
 0001:00068ee0       ?value@?$dual_state_global@P6AXPB_W00II@Z@__crt_state_management@@QAEAAP6AXPB_W00II@ZXZ 10069ee0 f i libucrtd:invalid_parameter.obj
 0001:00068f00       ___acrt_call_reportfault   10069f00 f   libucrtd:invalid_parameter.obj
 0001:00069060       ___acrt_initialize_invalid_parameter_handler 1006a060 f   libucrtd:invalid_parameter.obj
 0001:00069090       __get_invalid_parameter_handler 1006a090 f   libucrtd:invalid_parameter.obj
 0001:000690b0       __get_thread_local_invalid_parameter_handler 1006a0b0 f   libucrtd:invalid_parameter.obj
 0001:000690e0       __invalid_parameter        1006a0e0 f   libucrtd:invalid_parameter.obj
 0001:000691a0       __invalid_parameter_noinfo 1006a1a0 f   libucrtd:invalid_parameter.obj
 0001:000691c0       __invalid_parameter_noinfo_noreturn 1006a1c0 f   libucrtd:invalid_parameter.obj
 0001:000691f0       __invoke_watson            1006a1f0 f   libucrtd:invalid_parameter.obj
 0001:00069230       __set_invalid_parameter_handler 1006a230 f   libucrtd:invalid_parameter.obj
 0001:00069280       __set_thread_local_invalid_parameter_handler 1006a280 f   libucrtd:invalid_parameter.obj
 0001:000692b0       ___acrt_errno_from_os_error 1006a2b0 f   libucrtd:errno.obj
 0001:00069330       ___acrt_errno_map_os_error 1006a330 f   libucrtd:errno.obj
 0001:00069360       ___doserrno                1006a360 f   libucrtd:errno.obj
 0001:00069390       __errno                    1006a390 f   libucrtd:errno.obj
 0001:000693c0       __get_doserrno             1006a3c0 f   libucrtd:errno.obj
 0001:00069450       __get_errno                1006a450 f   libucrtd:errno.obj
 0001:000694e0       __set_doserrno             1006a4e0 f   libucrtd:errno.obj
 0001:00069510       __set_errno                1006a510 f   libucrtd:errno.obj
 0001:00069540       _calloc                    1006a540 f   libucrtd:calloc.obj
 0001:00069560       __recalloc                 1006a560 f   libucrtd:recalloc.obj
 0001:00069590       __recalloc_base            1006a590 f   libucrtd:recalloc.obj
 0001:0006962a       __resetstkoflw             1006a62a f   libucrtd:resetstk.obj
 0001:00069b10       _wcscat_s                  1006ab10 f   libucrtd:wcscat_s.obj
 0001:00069f60       _wcsncpy_s                 1006af60 f   libucrtd:wcsncpy_s.obj
 0001:0006a0a0       ___isascii                 1006b0a0 f   libucrtd:_ctype.obj
 0001:0006a0d0       ___iscsym                  1006b0d0 f   libucrtd:_ctype.obj
 0001:0006a110       ___iscsymf                 1006b110 f   libucrtd:_ctype.obj
 0001:0006a150       ___toascii                 1006b150 f   libucrtd:_ctype.obj
 0001:0006a160       __isalnum_l                1006b160 f   libucrtd:_ctype.obj
 0001:0006a180       __isalpha_l                1006b180 f   libucrtd:_ctype.obj
 0001:0006a1a0       __isblank_l                1006b1a0 f   libucrtd:_ctype.obj
 0001:0006a1c0       __iscntrl_l                1006b1c0 f   libucrtd:_ctype.obj
 0001:0006a1e0       __iscsym_l                 1006b1e0 f   libucrtd:_ctype.obj
 0001:0006a220       __iscsymf_l                1006b220 f   libucrtd:_ctype.obj
 0001:0006a260       __isdigit_l                1006b260 f   libucrtd:_ctype.obj
 0001:0006a280       __isgraph_l                1006b280 f   libucrtd:_ctype.obj
 0001:0006a2a0       __islower_l                1006b2a0 f   libucrtd:_ctype.obj
 0001:0006a2c0       __isprint_l                1006b2c0 f   libucrtd:_ctype.obj
 0001:0006a2e0       __ispunct_l                1006b2e0 f   libucrtd:_ctype.obj
 0001:0006a300       __isspace_l                1006b300 f   libucrtd:_ctype.obj
 0001:0006a320       __isupper_l                1006b320 f   libucrtd:_ctype.obj
 0001:0006a340       __isxdigit_l               1006b340 f   libucrtd:_ctype.obj
 0001:0006a360       _isalnum                   1006b360 f   libucrtd:_ctype.obj
 0001:0006a380       _isalpha                   1006b380 f   libucrtd:_ctype.obj
 0001:0006a3a0       _isblank                   1006b3a0 f   libucrtd:_ctype.obj
 0001:0006a3d0       _iscntrl                   1006b3d0 f   libucrtd:_ctype.obj
 0001:0006a3f0       _isdigit                   1006b3f0 f   libucrtd:_ctype.obj
 0001:0006a410       _isgraph                   1006b410 f   libucrtd:_ctype.obj
 0001:0006a430       _islower                   1006b430 f   libucrtd:_ctype.obj
 0001:0006a450       _isprint                   1006b450 f   libucrtd:_ctype.obj
 0001:0006a470       _ispunct                   1006b470 f   libucrtd:_ctype.obj
 0001:0006a490       _isspace                   1006b490 f   libucrtd:_ctype.obj
 0001:0006a4b0       _isupper                   1006b4b0 f   libucrtd:_ctype.obj
 0001:0006a4d0       _isxdigit                  1006b4d0 f   libucrtd:_ctype.obj
 0001:0006a4f0       _wcscat                    1006b4f0 f   libucrtd:wcscat.obj
 0001:0006a550       _wcscpy                    1006b550 f   libucrtd:wcscpy.obj
 0001:0006abe0       ??$open_file@ABQBDABQBDABHPAU_iobuf@@@?$__crt_char_traits@D@@SAPAU_iobuf@@ABQBD0ABH$$QAPAU1@@Z 1006bbe0 f i libucrtd:fopen.obj
 0001:0006ac10       ??$open_file@ABQB_WABQB_WABHPAU_iobuf@@@?$__crt_char_traits@_W@@SAPAU_iobuf@@ABQB_W0ABH$$QAPAU1@@Z 1006bc10 f i libucrtd:fopen.obj
 0001:0006ac40       ?unlock@__crt_stdio_stream@@QBEXXZ 1006bc40 f i libucrtd:fopen.obj
 0001:0006ac60       __fsopen                   1006bc60 f   libucrtd:fopen.obj
 0001:0006ac80       __wfopen                   1006bc80 f   libucrtd:fopen.obj
 0001:0006aca0       __wfopen_s                 1006bca0 f   libucrtd:fopen.obj
 0001:0006acc0       __wfsopen                  1006bcc0 f   libucrtd:fopen.obj
 0001:0006ace0       _fopen                     1006bce0 f   libucrtd:fopen.obj
 0001:0006ad00       _fopen_s                   1006bd00 f   libucrtd:fopen.obj
 0001:0006ad20       ?is_in_use@__crt_stdio_stream@@QBE_NXZ 1006bd20 f i libucrtd:fclose.obj
 0001:0006ad60       __fclose_nolock            1006bd60 f   libucrtd:fclose.obj
 0001:0006aea0       _fclose                    1006bea0 f   libucrtd:fclose.obj
 0001:0006aff0       __fputc_nolock             1006bff0 f   libucrtd:fputc.obj
 0001:0006b080       __fputchar                 1006c080 f   libucrtd:fputc.obj
 0001:0006b0a0       __putc_nolock              1006c0a0 f   libucrtd:fputc.obj
 0001:0006b0c0       _fputc                     1006c0c0 f   libucrtd:fputc.obj
 0001:0006b300       _putc                      1006c300 f   libucrtd:fputc.obj
 0001:0006b320       _putchar                   1006c320 f   libucrtd:fputc.obj
 0001:0006b390       __seh_filter_dll           1006c390 f   libucrtd:exception_filter.obj
 0001:0006b3c0       __seh_filter_exe           1006c3c0 f   libucrtd:exception_filter.obj
 0001:0006b5d0       ??$?B$$A6GXPAXK0@Z@__crt_fast_encoded_nullptr_t@@QBEP6GXPAXK0@ZXZ 1006c5d0 f i libucrtd:exit.obj
 0001:0006b6b0       ??$__crt_fast_decode_pointer@P6GXPAXK0@Z@@YAP6GXPAXK0@ZQ6GX0K0@Z@Z 1006c6b0 f i libucrtd:exit.obj
 0001:0006b6e0       ??$__crt_fast_encode_pointer@P6GXPAXK0@Z@@YAP6GXPAXK0@ZQ6GX0K0@Z@Z 1006c6e0 f i libucrtd:exit.obj
 0001:0006b710       ??$__crt_get_proc_address@P6GXI@Z@@YAP6GXI@ZQAUHINSTANCE__@@QBD@Z 1006c710 f i libucrtd:exit.obj
 0001:0006b7a0       ??0?$__crt_unique_handle_t@U__crt_hmodule_traits@@@@QAE@QAUHINSTANCE__@@@Z 1006c7a0 f i libucrtd:exit.obj
 0001:0006b7c0       ??1?$__crt_unique_handle_t@U__crt_hmodule_traits@@@@QAE@XZ 1006c7c0 f i libucrtd:exit.obj
 0001:0006b980       ?__acrt_select_exit_lock@@YA?AW4__acrt_lock_id@@XZ 1006c980 f i libucrtd:exit.obj
 0001:0006b990       ?__crt_fast_encode_pointer@@YA?AU__crt_fast_encoded_nullptr_t@@$$T@Z 1006c990 f i libucrtd:exit.obj
 0001:0006b9c0       ?close@?$__crt_unique_handle_t@U__crt_hmodule_traits@@@@QAEXXZ 1006c9c0 f i libucrtd:exit.obj
 0001:0006ba00       ?close@__crt_hmodule_traits@@SA_NPAUHINSTANCE__@@@Z 1006ca00 f i libucrtd:exit.obj
 0001:0006baf0       ?get@?$__crt_unique_handle_t@U__crt_hmodule_traits@@@@QBEPAUHINSTANCE__@@XZ 1006caf0 f i libucrtd:exit.obj
 0001:0006bb10       ?get_address_of@?$__crt_unique_handle_t@U__crt_hmodule_traits@@@@QAEPAPAUHINSTANCE__@@XZ 1006cb10 f i libucrtd:exit.obj
 0001:0006bb20       ?get_invalid_value@__crt_hmodule_traits@@SAPAUHINSTANCE__@@XZ 1006cb20 f i libucrtd:exit.obj
 0001:0006bca0       __Exit                     1006cca0 f   libucrtd:exit.obj
 0001:0006bcc0       ___acrt_initialize_thread_local_exit_callback 1006ccc0 f   libucrtd:exit.obj
 0001:0006bcd0       __c_exit                   1006ccd0 f   libucrtd:exit.obj
 0001:0006bcf0       __cexit                    1006ccf0 f   libucrtd:exit.obj
 0001:0006bd10       __exit                     1006cd10 f   libucrtd:exit.obj
 0001:0006bd30       __is_c_termination_complete 1006cd30 f   libucrtd:exit.obj
 0001:0006bd50       __register_thread_local_exe_atexit_callback 1006cd50 f   libucrtd:exit.obj
 0001:0006bd90       _exit                      1006cd90 f   libucrtd:exit.obj
 0001:0006bdb0       _quick_exit                1006cdb0 f   libucrtd:exit.obj
 0001:0006bdd0       ??$?RE@__crt_internal_free_policy@@QBEXQBE@Z 1006cdd0 f i libucrtd:argv_parsing.obj
 0001:0006bdf0       ??$?RPAD@__crt_internal_free_policy@@QBEXQBQAD@Z 1006cdf0 f i libucrtd:argv_parsing.obj
 0001:0006be10       ??$?RPA_W@__crt_internal_free_policy@@QBEXQBQA_W@Z 1006ce10 f i libucrtd:argv_parsing.obj
 0001:0006c370       ??$get_module_file_name@$$TAAY0BAF@DH@?$__crt_char_traits@D@@SAK$$QA$$TAAY0BAF@D$$QAH@Z 1006d370 f i libucrtd:argv_parsing.obj
 0001:0006c390       ??$get_module_file_name@$$TAAY0BAF@_WH@?$__crt_char_traits@_W@@SAK$$QA$$TAAY0BAF@_W$$QAH@Z 1006d390 f i libucrtd:argv_parsing.obj
 0001:0006cab0       ??$set_program_name@PAD@?$__crt_char_traits@D@@SAX$$QAPAD@Z 1006dab0 f i libucrtd:argv_parsing.obj
 0001:0006cad0       ??$set_program_name@PA_W@?$__crt_char_traits@_W@@SAX$$QAPA_W@Z 1006dad0 f i libucrtd:argv_parsing.obj
 0001:0006cb30       ??0?$__crt_unique_heap_ptr@EU__crt_internal_free_policy@@@@QAE@QAE@Z 1006db30 f i libucrtd:argv_parsing.obj
 0001:0006cb50       ??0?$__crt_unique_heap_ptr@PADU__crt_internal_free_policy@@@@QAE@QAPAD@Z 1006db50 f i libucrtd:argv_parsing.obj
 0001:0006cb70       ??0?$__crt_unique_heap_ptr@PA_WU__crt_internal_free_policy@@@@QAE@QAPA_W@Z 1006db70 f i libucrtd:argv_parsing.obj
 0001:0006cb90       ??1?$__crt_unique_heap_ptr@EU__crt_internal_free_policy@@@@QAE@XZ 1006db90 f i libucrtd:argv_parsing.obj
 0001:0006cbb0       ??1?$__crt_unique_heap_ptr@PADU__crt_internal_free_policy@@@@QAE@XZ 1006dbb0 f i libucrtd:argv_parsing.obj
 0001:0006cbd0       ??1?$__crt_unique_heap_ptr@PA_WU__crt_internal_free_policy@@@@QAE@XZ 1006dbd0 f i libucrtd:argv_parsing.obj
 0001:0006cbf0       ??B?$__crt_unique_heap_ptr@EU__crt_internal_free_policy@@@@QBE_NXZ 1006dbf0 f i libucrtd:argv_parsing.obj
 0001:0006ccb0       ?detach@?$__crt_unique_heap_ptr@EU__crt_internal_free_policy@@@@QAEPAEXZ 1006dcb0 f i libucrtd:argv_parsing.obj
 0001:0006cce0       ?detach@?$__crt_unique_heap_ptr@PADU__crt_internal_free_policy@@@@QAEPAPADXZ 1006dce0 f i libucrtd:argv_parsing.obj
 0001:0006cd10       ?detach@?$__crt_unique_heap_ptr@PA_WU__crt_internal_free_policy@@@@QAEPAPA_WXZ 1006dd10 f i libucrtd:argv_parsing.obj
 0001:0006cda0       ?get@?$__crt_unique_heap_ptr@EU__crt_internal_free_policy@@@@QBEPAEXZ 1006dda0 f i libucrtd:argv_parsing.obj
 0001:0006cdc0       ?get@?$__crt_unique_heap_ptr@PADU__crt_internal_free_policy@@@@QBEPAPADXZ 1006ddc0 f i libucrtd:argv_parsing.obj
 0001:0006cde0       ?get@?$__crt_unique_heap_ptr@PA_WU__crt_internal_free_policy@@@@QBEPAPA_WXZ 1006dde0 f i libucrtd:argv_parsing.obj
 0001:0006ce00       ?get_address_of@?$__crt_unique_heap_ptr@PADU__crt_internal_free_policy@@@@QAEPAPAPADXZ 1006de00 f i libucrtd:argv_parsing.obj
 0001:0006ce10       ?get_address_of@?$__crt_unique_heap_ptr@PA_WU__crt_internal_free_policy@@@@QAEPAPAPA_WXZ 1006de10 f i libucrtd:argv_parsing.obj
 0001:0006ce60       ?is_valid@?$__crt_unique_heap_ptr@EU__crt_internal_free_policy@@@@QBE_NXZ 1006de60 f i libucrtd:argv_parsing.obj
 0001:0006ce90       ?release@?$__crt_unique_heap_ptr@EU__crt_internal_free_policy@@@@QAEXXZ 1006de90 f i libucrtd:argv_parsing.obj
 0001:0006cec0       ?release@?$__crt_unique_heap_ptr@PADU__crt_internal_free_policy@@@@QAEXXZ 1006dec0 f i libucrtd:argv_parsing.obj
 0001:0006cef0       ?release@?$__crt_unique_heap_ptr@PA_WU__crt_internal_free_policy@@@@QAEXXZ 1006def0 f i libucrtd:argv_parsing.obj
 0001:0006cf60       ___acrt_allocate_buffer_for_argv 1006df60 f   libucrtd:argv_parsing.obj
 0001:0006d020       __configure_narrow_argv    1006e020 f   libucrtd:argv_parsing.obj
 0001:0006d040       __configure_wide_argv      1006e040 f   libucrtd:argv_parsing.obj
 0001:0006d060       __set_pgmptr               1006e060 f i libucrtd:argv_parsing.obj
 0001:0006d070       __set_wpgmptr              1006e070 f i libucrtd:argv_parsing.obj
 0001:0006d07f       ??$?R_W@__crt_internal_free_policy@@QBEXQB_W@Z 1006e07f f i libucrtd:environment_initialization.obj
 0001:0006d4e8       ??$get_environment_from_os@$$V@?$__crt_char_traits@D@@SAPADXZ 1006e4e8 f i libucrtd:environment_initialization.obj
 0001:0006d4ed       ??$get_environment_from_os@$$V@?$__crt_char_traits@_W@@SAPA_WXZ 1006e4ed f i libucrtd:environment_initialization.obj
 0001:0006d616       ??$set_variable_in_environment_nolock@PADH@?$__crt_char_traits@D@@SAH$$QAPAD$$QAH@Z 1006e616 f i libucrtd:environment_initialization.obj
 0001:0006d62e       ??$set_variable_in_environment_nolock@PA_WH@?$__crt_char_traits@_W@@SAH$$QAPA_W$$QAH@Z 1006e62e f i libucrtd:environment_initialization.obj
 0001:0006d646       ??$tcscpy_s@PADABIAAPAD@?$__crt_char_traits@D@@SAH$$QAPADABIAAPAD@Z 1006e646 f i libucrtd:environment_initialization.obj
 0001:0006d664       ??$tcscpy_s@PA_WABIAAPA_W@?$__crt_char_traits@_W@@SAH$$QAPA_WABIAAPA_W@Z 1006e664 f i libucrtd:environment_initialization.obj
 0001:0006d682       ??$tcslen@AAPAD@?$__crt_char_traits@D@@SAIAAPAD@Z 1006e682 f i libucrtd:environment_initialization.obj
 0001:0006d69a       ??$tcslen@AAPA_W@?$__crt_char_traits@_W@@SAIAAPA_W@Z 1006e69a f i libucrtd:environment_initialization.obj
 0001:0006d6b8       ??$uninitialize@A6AXAAPAPAD@Z@?$dual_state_global@PAPAD@__crt_state_management@@QAEXA6AXAAPAPAD@Z@Z 1006e6b8 f i libucrtd:environment_initialization.obj
 0001:0006d6e1       ??$uninitialize@A6AXAAPAPA_W@Z@?$dual_state_global@PAPA_W@__crt_state_management@@QAEXA6AXAAPAPA_W@Z@Z 1006e6e1 f i libucrtd:environment_initialization.obj
 0001:0006d740       ??0?$__crt_unique_heap_ptr@_WU__crt_internal_free_policy@@@@QAE@QA_W@Z 1006e740 f i libucrtd:environment_initialization.obj
 0001:0006d750       ??1?$__crt_unique_heap_ptr@_WU__crt_internal_free_policy@@@@QAE@XZ 1006e750 f i libucrtd:environment_initialization.obj
 0001:0006d765       ??B?$__crt_unique_heap_ptr@PADU__crt_internal_free_policy@@@@QBE_NXZ 1006e765 f i libucrtd:environment_initialization.obj
 0001:0006d76c       ??B?$__crt_unique_heap_ptr@PA_WU__crt_internal_free_policy@@@@QBE_NXZ 1006e76c f i libucrtd:environment_initialization.obj
 0001:0006d773       ??B?$__crt_unique_heap_ptr@_WU__crt_internal_free_policy@@@@QBE_NXZ 1006e773 f i libucrtd:environment_initialization.obj
 0001:0006d77a       ?__crt_compute_required_transform_buffer_count@@YAIIQBD@Z 1006e77a f i libucrtd:environment_initialization.obj
 0001:0006d796       ?__crt_compute_required_transform_buffer_count@@YAIIQB_W@Z 1006e796 f i libucrtd:environment_initialization.obj
 0001:0006d7b4       ?__crt_transform_string@@YAIIQBDQA_WI@Z 1006e7b4 f i libucrtd:environment_initialization.obj
 0001:0006d7d3       ?__crt_transform_string@@YAIIQB_WQADI@Z 1006e7d3 f i libucrtd:environment_initialization.obj
 0001:0006d7f5       ?detach@?$__crt_unique_heap_ptr@DU__crt_internal_free_policy@@@@QAEPADXZ 1006e7f5 f i libucrtd:environment_initialization.obj
 0001:0006d7fb       ?detach@?$__crt_unique_heap_ptr@_WU__crt_internal_free_policy@@@@QAEPA_WXZ 1006e7fb f i libucrtd:environment_initialization.obj
 0001:0006d801       ?get@?$__crt_unique_heap_ptr@_WU__crt_internal_free_policy@@@@QBEPA_WXZ 1006e801 f i libucrtd:environment_initialization.obj
 0001:0006d828       ?initialize@?$dual_state_global@PAPAD@__crt_state_management@@QAEXQAPAD@Z 1006e828 f i libucrtd:environment_initialization.obj
 0001:0006d84e       ?initialize@?$dual_state_global@PAPA_W@__crt_state_management@@QAEXQAPA_W@Z 1006e84e f i libucrtd:environment_initialization.obj
 0001:0006d874       ?is_valid@?$__crt_unique_heap_ptr@PADU__crt_internal_free_policy@@@@QBE_NXZ 1006e874 f i libucrtd:environment_initialization.obj
 0001:0006d87b       ?is_valid@?$__crt_unique_heap_ptr@PA_WU__crt_internal_free_policy@@@@QBE_NXZ 1006e87b f i libucrtd:environment_initialization.obj
 0001:0006d882       ?is_valid@?$__crt_unique_heap_ptr@_WU__crt_internal_free_policy@@@@QBE_NXZ 1006e882 f i libucrtd:environment_initialization.obj
 0001:0006d891       ?release@?$__crt_unique_heap_ptr@_WU__crt_internal_free_policy@@@@QAEXXZ 1006e891 f i libucrtd:environment_initialization.obj
 0001:0006d8a6       ?value@?$dual_state_global@PAPAD@__crt_state_management@@QAEAAPAPADXZ 1006e8a6 f i libucrtd:environment_initialization.obj
 0001:0006d8a9       ?value@?$dual_state_global@PAPA_W@__crt_state_management@@QAEAAPAPA_WXZ 1006e8a9 f i libucrtd:environment_initialization.obj
 0001:0006d8ac       ___dcrt_get_or_create_narrow_environment_nolock 1006e8ac f   libucrtd:environment_initialization.obj
 0001:0006d8b1       ___dcrt_get_or_create_wide_environment_nolock 1006e8b1 f   libucrtd:environment_initialization.obj
 0001:0006d8b6       ___dcrt_uninitialize_environments_nolock 1006e8b6 f   libucrtd:environment_initialization.obj
 0001:0006d8ed       ___p__environ              1006e8ed f   libucrtd:environment_initialization.obj
 0001:0006d8f3       ___p__wenviron             1006e8f3 f   libucrtd:environment_initialization.obj
 0001:0006d8f9       __get_initial_narrow_environment 1006e8f9 f   libucrtd:environment_initialization.obj
 0001:0006d90d       __get_initial_wide_environment 1006e90d f   libucrtd:environment_initialization.obj
 0001:0006d921       __initialize_narrow_environment 1006e921 f   libucrtd:environment_initialization.obj
 0001:0006d926       __initialize_wide_environment 1006e926 f   libucrtd:environment_initialization.obj
 0001:0006d930       ??$?B$$A6AXXZ@__crt_fast_encoded_nullptr_t@@QBEP6AXXZXZ 1006e930 f i libucrtd:onexit.obj
 0001:0006d950       ??$?BP6AXXZ@__crt_fast_encoded_nullptr_t@@QBEPAP6AXXZXZ 1006e950 f i libucrtd:onexit.obj
 0001:0006d970       ??$?RP6AXXZ@__crt_internal_free_policy@@QBEXQBQ6AXXZ@Z 1006e970 f i libucrtd:onexit.obj
 0001:0006db30       ??$__crt_fast_decode_pointer@P6AXXZ@@YAP6AXXZQ6AXXZ@Z 1006eb30 f i libucrtd:onexit.obj
 0001:0006db60       ??$__crt_fast_decode_pointer@PAP6AXXZ@@YAPAP6AXXZQAP6AXXZ@Z 1006eb60 f i libucrtd:onexit.obj
 0001:0006db90       ??$__crt_fast_encode_pointer@P6AHXZ@@YAP6AHXZQ6AHXZ@Z 1006eb90 f i libucrtd:onexit.obj
 0001:0006dbc0       ??$__crt_fast_encode_pointer@P6AXXZ@@YAP6AXXZQ6AXXZ@Z 1006ebc0 f i libucrtd:onexit.obj
 0001:0006dbf0       ??$__crt_fast_encode_pointer@PAP6AXXZ@@YAPAP6AXXZQAP6AXXZ@Z 1006ebf0 f i libucrtd:onexit.obj
 0001:0006dcf0       ??0?$__crt_unique_heap_ptr@P6AXXZU__crt_internal_free_policy@@@@QAE@QAP6AXXZ@Z 1006ecf0 f i libucrtd:onexit.obj
 0001:0006dd10       ??1?$__crt_unique_heap_ptr@P6AXXZU__crt_internal_free_policy@@@@QAE@XZ 1006ed10 f i libucrtd:onexit.obj
 0001:0006dd30       ??1scoped_global_state_reset@__crt_state_management@@QAE@XZ 1006ed30 f i libucrtd:onexit.obj
 0001:0006e1a0       ?detach@?$__crt_unique_heap_ptr@P6AXXZU__crt_internal_free_policy@@@@QAEPAP6AXXZXZ 1006f1a0 f i libucrtd:onexit.obj
 0001:0006e1d0       ?release@?$__crt_unique_heap_ptr@P6AXXZU__crt_internal_free_policy@@@@QAEXXZ 1006f1d0 f i libucrtd:onexit.obj
 0001:0006e200       __crt_at_quick_exit        1006f200 f   libucrtd:onexit.obj
 0001:0006e220       __crt_atexit               1006f220 f   libucrtd:onexit.obj
 0001:0006e240       __execute_onexit_table     1006f240 f   libucrtd:onexit.obj
 0001:0006e270       __initialize_onexit_table  1006f270 f   libucrtd:onexit.obj
 0001:0006e2d0       __register_onexit_function 1006f2d0 f   libucrtd:onexit.obj
 0001:0006e510       ??$?BX@__crt_fast_encoded_nullptr_t@@QBEPAXXZ 1006f510 f i libucrtd:initialization.obj
 0001:0006e530       ??$__crt_fast_encode_pointer@PAX@@YAPAXQAX@Z 1006f530 f i libucrtd:initialization.obj
 0001:0006e5f0       ?initialize@?$dual_state_global@PAU__crt_locale_data@@@__crt_state_management@@QAEXQAU__crt_locale_data@@@Z 1006f5f0 f i libucrtd:initialization.obj
 0001:0006e630       ___acrt_initialize         1006f630 f   libucrtd:initialization.obj
 0001:0006e650       ___acrt_thread_attach      1006f650 f   libucrtd:initialization.obj
 0001:0006e670       ___acrt_thread_detach      1006f670 f   libucrtd:initialization.obj
 0001:0006e680       ___acrt_uninitialize       1006f680 f   libucrtd:initialization.obj
 0001:0006e6a0       ___acrt_uninitialize_critical 1006f6a0 f   libucrtd:initialization.obj
 0001:0006ff10       __CrtCheckMemory           10070f10 f   libucrtd:debug_heap.obj
 0001:000700a0       __CrtDoForAllClientObjects 100710a0 f   libucrtd:debug_heap.obj
 0001:000701f0       __CrtDumpMemoryLeaks       100711f0 f   libucrtd:debug_heap.obj
 0001:00070290       __CrtGetAllocHook          10071290 f   libucrtd:debug_heap.obj
 0001:000702a0       __CrtGetDumpClient         100712a0 f   libucrtd:debug_heap.obj
 0001:000702b0       __CrtIsMemoryBlock         100712b0 f   libucrtd:debug_heap.obj
 0001:00070400       __CrtIsValidHeapPointer    10071400 f   libucrtd:debug_heap.obj
 0001:00070430       __CrtIsValidPointer        10071430 f   libucrtd:debug_heap.obj
 0001:00070460       __CrtMemCheckpoint         10071460 f   libucrtd:debug_heap.obj
 0001:00070690       __CrtMemDifference         10071690 f   libucrtd:debug_heap.obj
 0001:00070900       __CrtMemDumpAllObjectsSince 10071900 f   libucrtd:debug_heap.obj
 0001:000709a0       __CrtMemDumpStatistics     100719a0 f   libucrtd:debug_heap.obj
 0001:00070ad0       __CrtReportBlockType       10071ad0 f   libucrtd:debug_heap.obj
 0001:00070b00       __CrtSetAllocHook          10071b00 f   libucrtd:debug_heap.obj
 0001:00070b20       __CrtSetBreakAlloc         10071b20 f   libucrtd:debug_heap.obj
 0001:00070b40       __CrtSetDbgBlockType       10071b40 f   libucrtd:debug_heap.obj
 0001:00070c20       __CrtSetDbgFlag            10071c20 f   libucrtd:debug_heap.obj
 0001:00070d90       __CrtSetDumpClient         10071d90 f   libucrtd:debug_heap.obj
 0001:00070db0       ___acrt_get_locale_data_prefix 10071db0 f i libucrtd:debug_heap.obj
 0001:00070dd0       ___p__crtBreakAlloc        10071dd0 f   libucrtd:debug_heap.obj
 0001:00070de0       ___p__crtDbgFlag           10071de0 f   libucrtd:debug_heap.obj
 0001:00070df0       __aligned_free_dbg         10071df0 f   libucrtd:debug_heap.obj
 0001:00070ea0       __aligned_malloc_dbg       10071ea0 f   libucrtd:debug_heap.obj
 0001:00070ed0       __aligned_msize_dbg        10071ed0 f   libucrtd:debug_heap.obj
 0001:00071000       __aligned_offset_malloc_dbg 10072000 f   libucrtd:debug_heap.obj
 0001:000711e0       __aligned_offset_realloc_dbg 100721e0 f   libucrtd:debug_heap.obj
 0001:000714f0       __aligned_offset_recalloc_dbg 100724f0 f   libucrtd:debug_heap.obj
 0001:000715b0       __aligned_realloc_dbg      100725b0 f   libucrtd:debug_heap.obj
 0001:000715e0       __aligned_recalloc_dbg     100725e0 f   libucrtd:debug_heap.obj
 0001:00071610       __calloc_dbg               10072610 f   libucrtd:debug_heap.obj
 0001:00071680       __chvalidchk_l             10072680 f i libucrtd:debug_heap.obj
 0001:000716a0       __expand_dbg               100726a0 f   libucrtd:debug_heap.obj
 0001:000717d0       __free_dbg                 100727d0 f   libucrtd:debug_heap.obj
 0001:00071880       __ischartype_l             10072880 f i libucrtd:debug_heap.obj
 0001:00071900       __malloc_dbg               10072900 f   libucrtd:debug_heap.obj
 0001:00071920       __msize_dbg                10072920 f   libucrtd:debug_heap.obj
 0001:00071ab0       __realloc_dbg              10072ab0 f   libucrtd:debug_heap.obj
 0001:00071b50       __recalloc_dbg             10072b50 f   libucrtd:debug_heap.obj
 0001:00071c00       __initterm                 10072c00 f   libucrtd:initterm.obj
 0001:00071c50       __initterm_e               10072c50 f   libucrtd:initterm.obj
 0001:00071fc0       _strcpy_s                  10072fc0 f   libucrtd:strcpy_s.obj
 0001:000723f0       _strcat_s                  100733f0 f   libucrtd:strcat_s.obj
 0001:00072410       ??$?B$$A6AHI@Z@__crt_fast_encoded_nullptr_t@@QBEP6AHI@ZXZ 10073410 f i libucrtd:new_handler.obj
 0001:00072430       ??$__crt_fast_decode_pointer@P6AHI@Z@@YAP6AHI@ZQ6AHI@Z@Z 10073430 f i libucrtd:new_handler.obj
 0001:00072460       ??$__crt_fast_encode_pointer@P6AHI@Z@@YAP6AHI@ZQ6AHI@Z@Z 10073460 f i libucrtd:new_handler.obj
 0001:00072490       ?_set_new_handler@@YAP6AHI@ZH@Z 10073490 f   libucrtd:new_handler.obj
 0001:000724f0       ?initialize@?$dual_state_global@P6AHI@Z@__crt_state_management@@QAEXQ6AHI@Z@Z 100734f0 f i libucrtd:new_handler.obj
 0001:00072530       ?value@?$dual_state_global@P6AHI@Z@__crt_state_management@@QAEAAP6AHI@ZXZ 10073530 f i libucrtd:new_handler.obj
 0001:00072550       ___acrt_initialize_new_handler 10073550 f   libucrtd:new_handler.obj
 0001:00072570       __callnewh                 10073570 f   libucrtd:new_handler.obj
 0001:000725b0       __query_new_handler        100735b0 f   libucrtd:new_handler.obj
 0001:00072640       __set_new_handler          10073640 f   libucrtd:new_handler.obj
 0001:00072720       __get_terminate            10073720 f   libucrtd:terminate.obj
 0001:00072740       _set_terminate             10073740 f   libucrtd:terminate.obj
 0001:00072770       _terminate                 10073770 f   libucrtd:terminate.obj
 0001:00073140       __makepath                 10074140 f   libucrtd:makepath.obj
 0001:00073170       __makepath_s               10074170 f   libucrtd:makepath.obj
 0001:000731a0       __wmakepath                100741a0 f   libucrtd:makepath.obj
 0001:000731d0       __wmakepath_s              100741d0 f   libucrtd:makepath.obj
 0001:00074b20       ??$tcsncpy_s@AAPADIAAPBDABI@?$__crt_char_traits@D@@SAHAAPAD$$QAIAAPBDABI@Z 10075b20 f i libucrtd:splitpath.obj
 0001:00074b50       ??$tcsncpy_s@AAPADIAAPBDH@?$__crt_char_traits@D@@SAHAAPAD$$QAIAAPBD$$QAH@Z 10075b50 f i libucrtd:splitpath.obj
 0001:00074b80       ??$tcsncpy_s@AAPA_WIAAPB_WABI@?$__crt_char_traits@_W@@SAHAAPA_W$$QAIAAPB_WABI@Z 10075b80 f i libucrtd:splitpath.obj
 0001:00074bb0       ??$tcsncpy_s@AAPA_WIAAPB_WH@?$__crt_char_traits@_W@@SAHAAPA_W$$QAIAAPB_W$$QAH@Z 10075bb0 f i libucrtd:splitpath.obj
 0001:00074df0       __splitpath                10075df0 f   libucrtd:splitpath.obj
 0001:00074e20       __splitpath_s              10075e20 f   libucrtd:splitpath.obj
 0001:00074e70       __wsplitpath               10075e70 f   libucrtd:splitpath.obj
 0001:00074ea0       __wsplitpath_s             10075ea0 f   libucrtd:splitpath.obj
 0001:00074ef0       __set_abort_behavior       10075ef0 f   libucrtd:abort.obj
 0001:00074f20       _abort                     10075f20 f   libucrtd:abort.obj
 0001:00074f90       _strcmp                    10075f90 f   libucrtd:strcmp.obj
 0001:00075020       _strlen                    10076020 f   libucrtd:strlen.obj
 0001:000750b0       ??$is_overflow_condition@K@__crt_strtox@@YA_NIK@Z 100760b0 f i libucrtd:atox.obj
 0001:00075110       ??$is_overflow_condition@_K@__crt_strtox@@YA_NI_K@Z 10076110 f i libucrtd:atox.obj
 0001:000751a0       ??$make_c_string_character_source@D$$T@__crt_strtox@@YA?AV?$c_string_character_source@D@0@QBD$$T@Z 100761a0 f i libucrtd:atox.obj
 0001:000751c0       ??$make_c_string_character_source@_W$$T@__crt_strtox@@YA?AV?$c_string_character_source@_W@0@QB_W$$T@Z 100761c0 f i libucrtd:atox.obj
 0001:000751e0       ??$parse_integer@KV?$c_string_character_source@D@__crt_strtox@@@__crt_strtox@@YAKQAU__crt_locale_pointers@@V?$c_string_character_source@D@0@H_N@Z 100761e0 f i libucrtd:atox.obj
 0001:00075550       ??$parse_integer@KV?$c_string_character_source@_W@__crt_strtox@@@__crt_strtox@@YAKQAU__crt_locale_pointers@@V?$c_string_character_source@_W@0@H_N@Z 10076550 f i libucrtd:atox.obj
 0001:000758c0       ??$parse_integer@_KV?$c_string_character_source@D@__crt_strtox@@@__crt_strtox@@YA_KQAU__crt_locale_pointers@@V?$c_string_character_source@D@0@H_N@Z 100768c0 f i libucrtd:atox.obj
 0001:00075ce0       ??$parse_integer@_KV?$c_string_character_source@_W@__crt_strtox@@@__crt_strtox@@YA_KQAU__crt_locale_pointers@@V?$c_string_character_source@_W@0@H_N@Z 10076ce0 f i libucrtd:atox.obj
 0001:00076110       ??$parse_integer_from_string@JD$$T@__crt_strtox@@YAJQBD$$THQAU__crt_locale_pointers@@@Z 10077110 f i libucrtd:atox.obj
 0001:00076150       ??$parse_integer_from_string@J_W$$T@__crt_strtox@@YAJQB_W$$THQAU__crt_locale_pointers@@@Z 10077150 f i libucrtd:atox.obj
 0001:00076190       ??$parse_integer_from_string@_JD$$T@__crt_strtox@@YA_JQBD$$THQAU__crt_locale_pointers@@@Z 10077190 f i libucrtd:atox.obj
 0001:000761d0       ??$parse_integer_from_string@_J_W$$T@__crt_strtox@@YA_JQB_W$$THQAU__crt_locale_pointers@@@Z 100771d0 f i libucrtd:atox.obj
 0001:00076210       ??0?$c_string_character_source@D@__crt_strtox@@QAE@QBDQAPBD@Z 10077210 f i libucrtd:atox.obj
 0001:00076250       ??0?$c_string_character_source@_W@__crt_strtox@@QAE@QB_WQAPB_W@Z 10077250 f i libucrtd:atox.obj
 0001:00076290       ??1?$c_string_character_source@D@__crt_strtox@@QAE@XZ 10077290 f i libucrtd:atox.obj
 0001:000762c0       ??1?$c_string_character_source@_W@__crt_strtox@@QAE@XZ 100772c0 f i libucrtd:atox.obj
 0001:000762f0       ?get@?$c_string_character_source@D@__crt_strtox@@QAEDXZ 100772f0 f i libucrtd:atox.obj
 0001:00076320       ?get@?$c_string_character_source@_W@__crt_strtox@@QAE_WXZ 10077320 f i libucrtd:atox.obj
 0001:00076350       ?is_space@__crt_strtox@@YA_NDQAU__crt_locale_pointers@@@Z 10077350 f i libucrtd:atox.obj
 0001:00076390       ?is_space@__crt_strtox@@YA_N_WPAU__crt_locale_pointers@@@Z 10077390 f i libucrtd:atox.obj
 0001:000763c0       ?maximum_signed_value@__crt_strtox@@YAJK@Z 100773c0 f i libucrtd:atox.obj
 0001:000763d0       ?maximum_signed_value@__crt_strtox@@YA_J_K@Z 100773d0 f i libucrtd:atox.obj
 0001:000763e0       ?minimum_signed_value@__crt_strtox@@YAJK@Z 100773e0 f i libucrtd:atox.obj
 0001:000763f0       ?minimum_signed_value@__crt_strtox@@YA_J_K@Z 100773f0 f i libucrtd:atox.obj
 0001:00076400       ?parse_digit@__crt_strtox@@YAID@Z 10077400 f i libucrtd:atox.obj
 0001:00076460       ?parse_digit@__crt_strtox@@YAI_W@Z 10077460 f i libucrtd:atox.obj
 0001:000764b0       ?restore_state@?$c_string_character_source@D@__crt_strtox@@QAE_NQBD@Z 100774b0 f i libucrtd:atox.obj
 0001:000764d0       ?restore_state@?$c_string_character_source@_W@__crt_strtox@@QAE_NQB_W@Z 100774d0 f i libucrtd:atox.obj
 0001:000764f0       ?save_state@?$c_string_character_source@D@__crt_strtox@@QBEPBDXZ 100774f0 f i libucrtd:atox.obj
 0001:00076510       ?save_state@?$c_string_character_source@_W@__crt_strtox@@QBEPB_WXZ 10077510 f i libucrtd:atox.obj
 0001:00076530       ?unget@?$c_string_character_source@D@__crt_strtox@@QAEXD@Z 10077530 f i libucrtd:atox.obj
 0001:000765e0       ?unget@?$c_string_character_source@_W@__crt_strtox@@QAEX_W@Z 100775e0 f i libucrtd:atox.obj
 0001:00076690       ?validate@?$c_string_character_source@D@__crt_strtox@@QBE_NXZ 10077690 f i libucrtd:atox.obj
 0001:00076720       ?validate@?$c_string_character_source@_W@__crt_strtox@@QBE_NXZ 10077720 f i libucrtd:atox.obj
 0001:000767b0       ?wide_character_to_digit@__crt_strtox@@YAH_W@Z 100777b0 f i libucrtd:atox.obj
 0001:00076ae0       ___ascii_iswalpha          10077ae0 f i libucrtd:atox.obj
 0001:00076b20       ___ascii_toupper           10077b20 f i libucrtd:atox.obj
 0001:00076b40       ___ascii_towupper          10077b40 f i libucrtd:atox.obj
 0001:00076b60       __atoi64                   10077b60 f   libucrtd:atox.obj
 0001:00076b80       __atoi64_l                 10077b80 f   libucrtd:atox.obj
 0001:00076ba0       __atoi_l                   10077ba0 f   libucrtd:atox.obj
 0001:00076bc0       __atol_l                   10077bc0 f   libucrtd:atox.obj
 0001:00076be0       __atoll_l                  10077be0 f   libucrtd:atox.obj
 0001:00076c00       __wtoi                     10077c00 f   libucrtd:atox.obj
 0001:00076c20       __wtoi64                   10077c20 f   libucrtd:atox.obj
 0001:00076c40       __wtoi64_l                 10077c40 f   libucrtd:atox.obj
 0001:00076c60       __wtoi_l                   10077c60 f   libucrtd:atox.obj
 0001:00076c80       __wtol                     10077c80 f   libucrtd:atox.obj
 0001:00076ca0       __wtol_l                   10077ca0 f   libucrtd:atox.obj
 0001:00076cc0       __wtoll                    10077cc0 f   libucrtd:atox.obj
 0001:00076ce0       __wtoll_l                  10077ce0 f   libucrtd:atox.obj
 0001:00076d00       _atoi                      10077d00 f   libucrtd:atox.obj
 0001:00076d20       _atol                      10077d20 f   libucrtd:atox.obj
 0001:00076d40       _atoll                     10077d40 f   libucrtd:atox.obj
 0001:00076d60       _strncmp                   10077d60 f   libucrtd:strncmp.obj
 0001:00076de0       _wcsncmp                   10077de0 f   libucrtd:wcsncmp.obj
 0001:00076e40       __CrtGetDebugFillThreshold 10077e40 f   libucrtd:debug_fill_threshold.obj
 0001:00076e50       __CrtSetDebugFillThreshold 10077e50 f   libucrtd:debug_fill_threshold.obj
 0001:00076e70       ??$make_c_string_character_source@DPAPAD@__crt_strtox@@YA?AV?$c_string_character_source@D@0@QBDQAPAD@Z 10077e70 f i libucrtd:strtox.obj
 0001:00076e90       ??$make_c_string_character_source@_WPAPA_W@__crt_strtox@@YA?AV?$c_string_character_source@_W@0@QB_WQAPA_W@Z 10077e90 f i libucrtd:strtox.obj
 0001:00076eb0       ??$parse_integer_from_string@JDPAPAD@__crt_strtox@@YAJQBDQAPADHQAU__crt_locale_pointers@@@Z 10077eb0 f i libucrtd:strtox.obj
 0001:00076ef0       ??$parse_integer_from_string@J_WPAPA_W@__crt_strtox@@YAJQB_WQAPA_WHQAU__crt_locale_pointers@@@Z 10077ef0 f i libucrtd:strtox.obj
 0001:00076f30       ??$parse_integer_from_string@KDPAPAD@__crt_strtox@@YAKQBDQAPADHQAU__crt_locale_pointers@@@Z 10077f30 f i libucrtd:strtox.obj
 0001:00076f70       ??$parse_integer_from_string@K_WPAPA_W@__crt_strtox@@YAKQB_WQAPA_WHQAU__crt_locale_pointers@@@Z 10077f70 f i libucrtd:strtox.obj
 0001:00076fb0       ??$parse_integer_from_string@_JDPAPAD@__crt_strtox@@YA_JQBDQAPADHQAU__crt_locale_pointers@@@Z 10077fb0 f i libucrtd:strtox.obj
 0001:00076ff0       ??$parse_integer_from_string@_J_WPAPA_W@__crt_strtox@@YA_JQB_WQAPA_WHQAU__crt_locale_pointers@@@Z 10077ff0 f i libucrtd:strtox.obj
 0001:00077030       ??$parse_integer_from_string@_KDPAPAD@__crt_strtox@@YA_KQBDQAPADHQAU__crt_locale_pointers@@@Z 10078030 f i libucrtd:strtox.obj
 0001:00077070       ??$parse_integer_from_string@_K_WPAPA_W@__crt_strtox@@YA_KQB_WQAPA_WHQAU__crt_locale_pointers@@@Z 10078070 f i libucrtd:strtox.obj
 0001:000770b0       __strtoi64                 100780b0 f   libucrtd:strtox.obj
 0001:000770d0       __strtoi64_l               100780d0 f   libucrtd:strtox.obj
 0001:000770f0       __strtoimax_l              100780f0 f   libucrtd:strtox.obj
 0001:00077110       __strtol_l                 10078110 f   libucrtd:strtox.obj
 0001:00077130       __strtoll_l                10078130 f   libucrtd:strtox.obj
 0001:00077150       __strtoui64                10078150 f   libucrtd:strtox.obj
 0001:00077170       __strtoui64_l              10078170 f   libucrtd:strtox.obj
 0001:00077190       __strtoul_l                10078190 f   libucrtd:strtox.obj
 0001:000771b0       __strtoull_l               100781b0 f   libucrtd:strtox.obj
 0001:000771d0       __strtoumax_l              100781d0 f   libucrtd:strtox.obj
 0001:000771f0       __wcstoi64                 100781f0 f   libucrtd:strtox.obj
 0001:00077210       __wcstoi64_l               10078210 f   libucrtd:strtox.obj
 0001:00077230       __wcstoimax_l              10078230 f   libucrtd:strtox.obj
 0001:00077250       __wcstol_l                 10078250 f   libucrtd:strtox.obj
 0001:00077270       __wcstoll_l                10078270 f   libucrtd:strtox.obj
 0001:00077290       __wcstoui64                10078290 f   libucrtd:strtox.obj
 0001:000772b0       __wcstoui64_l              100782b0 f   libucrtd:strtox.obj
 0001:000772d0       __wcstoul_l                100782d0 f   libucrtd:strtox.obj
 0001:000772f0       __wcstoull_l               100782f0 f   libucrtd:strtox.obj
 0001:00077310       __wcstoumax_l              10078310 f   libucrtd:strtox.obj
 0001:00077330       _strtoimax                 10078330 f   libucrtd:strtox.obj
 0001:00077350       _strtol                    10078350 f   libucrtd:strtox.obj
 0001:00077370       _strtoll                   10078370 f   libucrtd:strtox.obj
 0001:00077390       _strtoul                   10078390 f   libucrtd:strtox.obj
 0001:000773b0       _strtoull                  100783b0 f   libucrtd:strtox.obj
 0001:000773d0       _strtoumax                 100783d0 f   libucrtd:strtox.obj
 0001:000773f0       _wcstoimax                 100783f0 f   libucrtd:strtox.obj
 0001:00077410       _wcstol                    10078410 f   libucrtd:strtox.obj
 0001:00077430       _wcstoll                   10078430 f   libucrtd:strtox.obj
 0001:00077450       _wcstoul                   10078450 f   libucrtd:strtox.obj
 0001:00077470       _wcstoull                  10078470 f   libucrtd:strtox.obj
 0001:00077490       _wcstoumax                 10078490 f   libucrtd:strtox.obj
 0001:000774b0       __mbtowc_l                 100784b0 f   libucrtd:mbtowc.obj
 0001:000777d0       _mbtowc                    100787d0 f   libucrtd:mbtowc.obj
 0001:000777f0       __wctomb_l                 100787f0 f   libucrtd:wctomb.obj
 0001:00077870       __wctomb_s_l               10078870 f   libucrtd:wctomb.obj
 0001:00077c30       _wctomb                    10078c30 f   libucrtd:wctomb.obj
 0001:00077c80       _wctomb_s                  10078c80 f   libucrtd:wctomb.obj
 0001:00077cb0       ??$?RU__acrt_ptd@@@__crt_internal_free_policy@@QBEXQBU__acrt_ptd@@@Z 10078cb0 f i libucrtd:per_thread_data.obj
 0001:00078160       ??0?$__crt_unique_heap_ptr@U__acrt_ptd@@U__crt_internal_free_policy@@@@QAE@QAU__acrt_ptd@@@Z 10079160 f i libucrtd:per_thread_data.obj
 0001:00078180       ??0__crt_scoped_get_last_error_reset@@QAE@XZ 10079180 f i libucrtd:per_thread_data.obj
 0001:000781a0       ??1?$__crt_unique_heap_ptr@U__acrt_ptd@@U__crt_internal_free_policy@@@@QAE@XZ 100791a0 f i libucrtd:per_thread_data.obj
 0001:000781c0       ??1__crt_scoped_get_last_error_reset@@QAE@XZ 100791c0 f i libucrtd:per_thread_data.obj
 0001:000781e0       ??B?$__crt_unique_heap_ptr@U__acrt_ptd@@U__crt_internal_free_policy@@@@QBE_NXZ 100791e0 f i libucrtd:per_thread_data.obj
 0001:000784c0       ?dangerous_get_state_array@?$dual_state_global@PAU__crt_locale_data@@@__crt_state_management@@QAEPAPAU__crt_locale_data@@XZ 100794c0 f i libucrtd:per_thread_data.obj
 0001:00078640       ?detach@?$__crt_unique_heap_ptr@U__acrt_ptd@@U__crt_internal_free_policy@@@@QAEPAU__acrt_ptd@@XZ 10079640 f i libucrtd:per_thread_data.obj
 0001:00078670       ?get@?$__crt_unique_heap_ptr@U__acrt_ptd@@U__crt_internal_free_policy@@@@QBEPAU__acrt_ptd@@XZ 10079670 f i libucrtd:per_thread_data.obj
 0001:00078690       ?get_current_state_index@__crt_state_management@@YAIABV__crt_scoped_get_last_error_reset@@@Z 10079690 f i libucrtd:per_thread_data.obj
 0001:00078800       ?is_valid@?$__crt_unique_heap_ptr@U__acrt_ptd@@U__crt_internal_free_policy@@@@QBE_NXZ 10079800 f i libucrtd:per_thread_data.obj
 0001:00078830       ?release@?$__crt_unique_heap_ptr@U__acrt_ptd@@U__crt_internal_free_policy@@@@QAEXXZ 10079830 f i libucrtd:per_thread_data.obj
 0001:00078920       ?value@?$dual_state_global@PAU__crt_locale_data@@@__crt_state_management@@QAEAAPAU__crt_locale_data@@XZ 10079920 f i libucrtd:per_thread_data.obj
 0001:00078940       ___acrt_freeptd            10079940 f   libucrtd:per_thread_data.obj
 0001:00078970       ___acrt_getptd             10079970 f   libucrtd:per_thread_data.obj
 0001:00078990       ___acrt_getptd_head        10079990 f   libucrtd:per_thread_data.obj
 0001:000789b0       ___acrt_getptd_noexit      100799b0 f   libucrtd:per_thread_data.obj
 0001:000789c0       ___acrt_initialize_ptd     100799c0 f   libucrtd:per_thread_data.obj
 0001:00078a00       ___acrt_uninitialize_ptd   10079a00 f   libucrtd:per_thread_data.obj
 0001:00078a30       ___threadhandle            10079a30 f   libucrtd:per_thread_data.obj
 0001:00078a40       ___threadid                10079a40 f   libucrtd:per_thread_data.obj
 0001:00078a50       ?value@?$dual_state_global@PAU__crt_multibyte_data@@@__crt_state_management@@QAEAAPAU__crt_multibyte_data@@XZ 10079a50 f i libucrtd:locale_update.obj
 0001:00078a70       ___acrt_should_sync_with_global_locale 10079a70 f i libucrtd:locale_update.obj
 0001:00078aa0       ___acrt_update_locale_info 10079aa0 f   libucrtd:locale_update.obj
 0001:00078ae0       ___acrt_update_multibyte_info 10079ae0 f   libucrtd:locale_update.obj
 0001:00078b20       ?__acrt_fp_classify@@YA?AW4__acrt_fp_class@@ABN@Z 10079b20 f i libucrtd:cvt.obj
 0001:00078c40       ?__acrt_fp_is_negative@@YA_NABN@Z 10079c40 f i libucrtd:cvt.obj
 0001:00079f30       ?strrchr@@YAPADQADH@Z      1007af30 f i libucrtd:cvt.obj
 0001:00079f50       ___acrt_fp_format          1007af50 f   libucrtd:cvt.obj
 0001:0007a410       __fputwc_nolock            1007b410 f   libucrtd:fputwc.obj
 0001:0007a600       __fputwchar                1007b600 f   libucrtd:fputwc.obj
 0001:0007a620       __putwc_nolock             1007b620 f   libucrtd:fputwc.obj
 0001:0007a640       _fputwc                    1007b640 f   libucrtd:fputwc.obj
 0001:0007a750       _putwc                     1007b750 f   libucrtd:fputwc.obj
 0001:0007a770       _putwchar                  1007b770 f   libucrtd:fputwc.obj
 0001:0007a790       ?lowio_handle@__crt_stdio_stream@@QBEHXZ 1007b790 f i libucrtd:fileno.obj
 0001:0007a7b0       __fileno                   1007b7b0 f   libucrtd:fileno.obj
 0001:0007a850       ??$?RPAU__crt_stdio_stream_data@@@__crt_internal_free_policy@@QBEXQBQAU__crt_stdio_stream_data@@@Z 1007b850 f i libucrtd:_file.obj
 0001:0007a870       ??0?$__crt_unique_heap_ptr@PAU__crt_stdio_stream_data@@U__crt_internal_free_policy@@@@QAE@QAPAU__crt_stdio_stream_data@@@Z 1007b870 f i libucrtd:_file.obj
 0001:0007a890       ??1?$__crt_unique_heap_ptr@PAU__crt_stdio_stream_data@@U__crt_internal_free_policy@@@@QAE@XZ 1007b890 f i libucrtd:_file.obj
 0001:0007a8b0       ?detach@?$__crt_unique_heap_ptr@PAU__crt_stdio_stream_data@@U__crt_internal_free_policy@@@@QAEPAPAU__crt_stdio_stream_data@@XZ 1007b8b0 f i libucrtd:_file.obj
 0001:0007a8e0       ?release@?$__crt_unique_heap_ptr@PAU__crt_stdio_stream_data@@U__crt_internal_free_policy@@@@QAEXXZ 1007b8e0 f i libucrtd:_file.obj
 0001:0007a910       ___acrt_initialize_stdio   1007b910 f   libucrtd:_file.obj
 0001:0007aa80       ___acrt_iob_func           1007ba80 f   libucrtd:_file.obj
 0001:0007aa90       ___acrt_uninitialize_stdio 1007ba90 f   libucrtd:_file.obj
 0001:0007ab10       __get_stream_buffer_pointers 1007bb10 f   libucrtd:_file.obj
 0001:0007abf0       __lock_file                1007bbf0 f   libucrtd:_file.obj
 0001:0007ac20       __unlock_file              1007bc20 f   libucrtd:_file.obj
 0001:0007ac50       __get_printf_count_output  1007bc50 f   libucrtd:printf_count_output.obj
 0001:0007ac80       __set_printf_count_output  1007bc80 f   libucrtd:printf_count_output.obj
 0001:0007ace0       ?has_any_buffer@__crt_stdio_stream@@QBE_NXZ 1007bce0 f i libucrtd:_sftbuf.obj
 0001:0007ad00       ?has_any_of@__crt_stdio_stream@@QBE_NJ@Z 1007bd00 f i libucrtd:_sftbuf.obj
 0001:0007ad40       ?has_temporary_buffer@__crt_stdio_stream@@QBE_NXZ 1007bd40 f i libucrtd:_sftbuf.obj
 0001:0007ad60       ?set_flags@__crt_stdio_stream@@QBE_NJ@Z 1007bd60 f i libucrtd:_sftbuf.obj
 0001:0007adb0       ?unset_flags@__crt_stdio_stream@@QBE_NJ@Z 1007bdb0 f i libucrtd:_sftbuf.obj
 0001:0007ae00       ___acrt_should_use_temporary_buffer 1007be00 f   libucrtd:_sftbuf.obj
 0001:0007ae50       ___acrt_stdio_begin_temporary_buffering_nolock 1007be50 f   libucrtd:_sftbuf.obj
 0001:0007b000       ___acrt_stdio_end_temporary_buffering_nolock 1007c000 f   libucrtd:_sftbuf.obj
 0001:0007b090       ??$?RU__crt_locale_data@@@__crt_internal_free_policy@@QBEXQBU__crt_locale_data@@@Z 1007c090 f i libucrtd:wsetlocale.obj
 0001:0007b0b0       ??$?RU__crt_locale_pointers@@@__crt_internal_free_policy@@QBEXQBU__crt_locale_pointers@@@Z 1007c0b0 f i libucrtd:wsetlocale.obj
 0001:0007b0d0       ??$?RU__crt_multibyte_data@@@__crt_internal_free_policy@@QBEXQBU__crt_multibyte_data@@@Z 1007c0d0 f i libucrtd:wsetlocale.obj
 0001:0007b6c0       ??0?$__crt_unique_heap_ptr@U__crt_locale_data@@U__crt_internal_free_policy@@@@QAE@QAU__crt_locale_data@@@Z 1007c6c0 f i libucrtd:wsetlocale.obj
 0001:0007b6e0       ??0?$__crt_unique_heap_ptr@U__crt_locale_pointers@@U__crt_internal_free_policy@@@@QAE@QAU__crt_locale_pointers@@@Z 1007c6e0 f i libucrtd:wsetlocale.obj
 0001:0007b700       ??0?$__crt_unique_heap_ptr@U__crt_multibyte_data@@U__crt_internal_free_policy@@@@QAE@QAU__crt_multibyte_data@@@Z 1007c700 f i libucrtd:wsetlocale.obj
 0001:0007b720       ??0_expandlocale_locale_name_cache@@QAE@QA_WIQAU__crt_qualified_locale_data@@@Z 1007c720 f i libucrtd:wsetlocale.obj
 0001:0007b790       ??1?$__crt_unique_heap_ptr@U__crt_locale_data@@U__crt_internal_free_policy@@@@QAE@XZ 1007c790 f i libucrtd:wsetlocale.obj
 0001:0007b7b0       ??1?$__crt_unique_heap_ptr@U__crt_locale_pointers@@U__crt_internal_free_policy@@@@QAE@XZ 1007c7b0 f i libucrtd:wsetlocale.obj
 0001:0007b7d0       ??1?$__crt_unique_heap_ptr@U__crt_multibyte_data@@U__crt_internal_free_policy@@@@QAE@XZ 1007c7d0 f i libucrtd:wsetlocale.obj
 0001:0007b7f0       ??1_expandlocale_locale_name_cache@@QAE@XZ 1007c7f0 f i libucrtd:wsetlocale.obj
 0001:0007b850       ??B?$__crt_unique_heap_ptr@U__crt_locale_data@@U__crt_internal_free_policy@@@@QBE_NXZ 1007c850 f i libucrtd:wsetlocale.obj
 0001:0007b870       ??B?$__crt_unique_heap_ptr@U__crt_locale_pointers@@U__crt_internal_free_policy@@@@QBE_NXZ 1007c870 f i libucrtd:wsetlocale.obj
 0001:0007b890       ??B?$__crt_unique_heap_ptr@U__crt_multibyte_data@@U__crt_internal_free_policy@@@@QBE_NXZ 1007c890 f i libucrtd:wsetlocale.obj
 0001:0007bc70       ?commit_locale_name@_expandlocale_locale_name_cache@@QAEXQB_WI@Z 1007cc70 f i libucrtd:wsetlocale.obj
 0001:0007bcd0       ?commit_locale_name_cache_already_updated@_expandlocale_locale_name_cache@@QAEXQB_WI@Z 1007ccd0 f i libucrtd:wsetlocale.obj
 0001:0007bd30       ?detach@?$__crt_unique_heap_ptr@U__crt_locale_data@@U__crt_internal_free_policy@@@@QAEPAU__crt_locale_data@@XZ 1007cd30 f i libucrtd:wsetlocale.obj
 0001:0007bd60       ?detach@?$__crt_unique_heap_ptr@U__crt_locale_pointers@@U__crt_internal_free_policy@@@@QAEPAU__crt_locale_pointers@@XZ 1007cd60 f i libucrtd:wsetlocale.obj
 0001:0007bd90       ?detach@?$__crt_unique_heap_ptr@U__crt_multibyte_data@@U__crt_internal_free_policy@@@@QAEPAU__crt_multibyte_data@@XZ 1007cd90 f i libucrtd:wsetlocale.obj
 0001:0007bdc0       ?get@?$__crt_unique_heap_ptr@U__crt_locale_data@@U__crt_internal_free_policy@@@@QBEPAU__crt_locale_data@@XZ 1007cdc0 f i libucrtd:wsetlocale.obj
 0001:0007bde0       ?get@?$__crt_unique_heap_ptr@U__crt_locale_pointers@@U__crt_internal_free_policy@@@@QBEPAU__crt_locale_pointers@@XZ 1007cde0 f i libucrtd:wsetlocale.obj
 0001:0007be00       ?get@?$__crt_unique_heap_ptr@U__crt_multibyte_data@@U__crt_internal_free_policy@@@@QBEPAU__crt_multibyte_data@@XZ 1007ce00 f i libucrtd:wsetlocale.obj
 0001:0007be20       ?is_valid@?$__crt_unique_heap_ptr@U__crt_locale_data@@U__crt_internal_free_policy@@@@QBE_NXZ 1007ce20 f i libucrtd:wsetlocale.obj
 0001:0007be50       ?is_valid@?$__crt_unique_heap_ptr@U__crt_locale_pointers@@U__crt_internal_free_policy@@@@QBE_NXZ 1007ce50 f i libucrtd:wsetlocale.obj
 0001:0007be80       ?is_valid@?$__crt_unique_heap_ptr@U__crt_multibyte_data@@U__crt_internal_free_policy@@@@QBE_NXZ 1007ce80 f i libucrtd:wsetlocale.obj
 0001:0007beb0       ?release@?$__crt_unique_heap_ptr@U__crt_locale_data@@U__crt_internal_free_policy@@@@QAEXXZ 1007ceb0 f i libucrtd:wsetlocale.obj
 0001:0007bee0       ?release@?$__crt_unique_heap_ptr@U__crt_locale_pointers@@U__crt_internal_free_policy@@@@QAEXXZ 1007cee0 f i libucrtd:wsetlocale.obj
 0001:0007bf10       ?release@?$__crt_unique_heap_ptr@U__crt_multibyte_data@@U__crt_internal_free_policy@@@@QAEXXZ 1007cf10 f i libucrtd:wsetlocale.obj
 0001:0007bf40       ___acrt_copy_locale_name   1007cf40 f   libucrtd:wsetlocale.obj
 0001:0007bfe0       ___acrt_set_locale_changed 1007cfe0 f   libucrtd:wsetlocale.obj
 0001:0007c000       ___acrt_uninitialize_locale 1007d000 f   libucrtd:wsetlocale.obj
 0001:0007c020       ___ascii_tolower           1007d020 f i libucrtd:wsetlocale.obj
 0001:0007c040       ___ascii_towlower          1007d040 f i libucrtd:wsetlocale.obj
 0001:0007c060       ___lc_lctowcs              1007d060 f   libucrtd:wsetlocale.obj
 0001:0007c110       ___lc_wcstolc              1007d110 f   libucrtd:wsetlocale.obj
 0001:0007c340       __configthreadlocale       1007d340 f   libucrtd:wsetlocale.obj
 0001:0007c4c0       __create_locale            1007d4c0 f   libucrtd:wsetlocale.obj
 0001:0007cb00       __free_locale              1007db00 f   libucrtd:wsetlocale.obj
 0001:0007cc30       __get_current_locale       1007dc30 f   libucrtd:wsetlocale.obj
 0001:0007cd00       __wcreate_locale           1007dd00 f   libucrtd:wsetlocale.obj
 0001:0007cf40       __wcscats                  1007df40 f   libucrtd:wsetlocale.obj
 0001:0007cfc0       __wsetlocale               1007dfc0 f   libucrtd:wsetlocale.obj
 0001:0007e6b0       ___p___mb_cur_max          1007f6b0 f   libucrtd:nlsdata.obj
 0001:0007e9b0       ___acrt_initialize_lowio   1007f9b0 f   libucrtd:ioinit.obj
 0001:0007ea50       ___acrt_uninitialize_lowio 1007fa50 f   libucrtd:ioinit.obj
 0001:0007eab0       __CrtGetReportHook         1007fab0 f   libucrtd:dbgrptt.obj
 0001:0007eac0       __CrtSetReportFile         1007fac0 f   libucrtd:dbgrptt.obj
 0001:0007ebc0       __CrtSetReportHook         1007fbc0 f   libucrtd:dbgrptt.obj
 0001:0007ebe0       __CrtSetReportMode         1007fbe0 f   libucrtd:dbgrptt.obj
 0001:0007ed20       __VCrtDbgReportA           1007fd20 f   libucrtd:dbgrptt.obj
 0001:0007f5a0       __VCrtDbgReportW           100805a0 f   libucrtd:dbgrptt.obj
 0001:0007ff50       __snprintf_s               10080f50 f i libucrtd:dbgrptt.obj
 0001:0007ff90       __vsnprintf_s              10080f90 f i libucrtd:dbgrptt.obj
 0001:0007ffc0       __vsnprintf_s_l            10080fc0 f i libucrtd:dbgrptt.obj
 0001:00080150       ??$__acrt_wcs_to_mbs_cp@U__crt_win32_buffer_no_resizing@@@@YAHQB_WAAV?$__crt_win32_buffer@DU__crt_win32_buffer_no_resizing@@@@I@Z 10081150 f i libucrtd:getmodulefilenamea.obj
 0001:00080180       ??0?$__crt_win32_buffer@DU__crt_win32_buffer_no_resizing@@@@QAE@QADI@Z 10081180 f i libucrtd:getmodulefilenamea.obj
 0001:000801d0       ??1?$__crt_win32_buffer@DU__crt_win32_buffer_no_resizing@@@@QAE@XZ 100811d0 f i libucrtd:getmodulefilenamea.obj
 0001:00080240       ?__acrt_get_utf8_acp_compatibility_codepage@@YAIXZ 10081240 f i libucrtd:getmodulefilenamea.obj
 0001:000802d0       ?_deallocate@?$__crt_win32_buffer@DU__crt_win32_buffer_no_resizing@@@@AAEXXZ 100812d0 f i libucrtd:getmodulefilenamea.obj
 0001:00080310       ?allocate@?$__crt_win32_buffer@DU__crt_win32_buffer_no_resizing@@@@QAEHI@Z 10081310 f i libucrtd:getmodulefilenamea.obj
 0001:00080380       ?allocate@__crt_win32_buffer_no_resizing@@SAHQAPAXIABV__crt_win32_buffer_empty_debug_info@@@Z 10081380 f i libucrtd:getmodulefilenamea.obj
 0001:000803a0       ?capacity@?$__crt_win32_buffer@DU__crt_win32_buffer_no_resizing@@@@QBEIXZ 100813a0 f i libucrtd:getmodulefilenamea.obj
 0001:000803c0       ?data@?$__crt_win32_buffer@DU__crt_win32_buffer_no_resizing@@@@QAEPADXZ 100813c0 f i libucrtd:getmodulefilenamea.obj
 0001:000803e0       ?deallocate@__crt_win32_buffer_no_resizing@@SAXQAXABV__crt_win32_buffer_empty_debug_info@@@Z 100813e0 f i libucrtd:getmodulefilenamea.obj
 0001:000803f0       ?debug_info@?$__crt_win32_buffer@DU__crt_win32_buffer_no_resizing@@@@QBEABV__crt_win32_buffer_empty_debug_info@@XZ 100813f0 f i libucrtd:getmodulefilenamea.obj
 0001:00080400       ?set_to_nullptr@?$__crt_win32_buffer@DU__crt_win32_buffer_no_resizing@@@@QAEXXZ 10081400 f i libucrtd:getmodulefilenamea.obj
 0001:00080440       ?size@?$__crt_win32_buffer@DU__crt_win32_buffer_no_resizing@@@@QAEXI@Z 10081440 f i libucrtd:getmodulefilenamea.obj
 0001:00080460       ?size@?$__crt_win32_buffer@DU__crt_win32_buffer_no_resizing@@@@QBEIXZ 10081460 f i libucrtd:getmodulefilenamea.obj
 0001:00080480       ___acrt_GetModuleFileNameA 10081480 f   libucrtd:getmodulefilenamea.obj
 0001:00080760       ??$message_box@$$TABQBDABQBDK@?$__crt_char_traits@D@@SAH$$QA$$TABQBD1$$QAK@Z 10081760 f i libucrtd:crtmbox.obj
 0001:00080790       ??$message_box@$$TABQB_WABQB_WK@?$__crt_char_traits@_W@@SAH$$QA$$TABQB_W1$$QAK@Z 10081790 f i libucrtd:crtmbox.obj
 0001:000807c0       ??$message_box@PAUHWND__@@ABQBDABQBDABI@?$__crt_char_traits@D@@SAH$$QAPAUHWND__@@ABQBD1ABI@Z 100817c0 f i libucrtd:crtmbox.obj
 0001:000807f0       ??$message_box@PAUHWND__@@ABQB_WABQB_WABI@?$__crt_char_traits@_W@@SAH$$QAPAUHWND__@@ABQB_W1ABI@Z 100817f0 f i libucrtd:crtmbox.obj
 0001:00080820       ??$output_debug_string@ABQBD@?$__crt_char_traits@D@@SAXABQBD@Z 10081820 f i libucrtd:crtmbox.obj
 0001:00080840       ??$output_debug_string@ABQB_W@?$__crt_char_traits@_W@@SAXABQB_W@Z 10081840 f i libucrtd:crtmbox.obj
 0001:00080860       ___acrt_show_narrow_message_box 10081860 f   libucrtd:crtmbox.obj
 0001:00080880       ___acrt_show_wide_message_box 10081880 f   libucrtd:crtmbox.obj
 0001:000808a0       ___acrt_initialize_locks   100818a0 f   libucrtd:locks.obj
 0001:00080900       ___acrt_lock               10081900 f   libucrtd:locks.obj
 0001:00080920       ___acrt_uninitialize_locks 10081920 f   libucrtd:locks.obj
 0001:00080970       ___acrt_unlock             10081970 f   libucrtd:locks.obj
 0001:00080990       __lock_locales             10081990 f   libucrtd:locks.obj
 0001:000809b0       __unlock_locales           100819b0 f   libucrtd:locks.obj
 0001:000809d0       ??$?B$$A6AXH@Z@__crt_fast_encoded_nullptr_t@@QBEP6AXH@ZXZ 100819d0 f i libucrtd:signal.obj
 0001:00080ac0       ??$__crt_fast_decode_pointer@P6AXH@Z@@YAP6AXH@ZQ6AXH@Z@Z 10081ac0 f i libucrtd:signal.obj
 0001:00080af0       ??$__crt_fast_encode_pointer@P6AXH@Z@@YAP6AXH@ZQ6AXH@Z@Z 10081af0 f i libucrtd:signal.obj
 0001:00080da0       ?initialize@?$dual_state_global@P6AXH@Z@__crt_state_management@@QAEXQ6AXH@Z@Z 10081da0 f i libucrtd:signal.obj
 0001:00080ee0       ?value@?$dual_state_global@P6AXH@Z@__crt_state_management@@QAEAAP6AXH@ZXZ 10081ee0 f i libucrtd:signal.obj
 0001:00080f00       ___acrt_get_sigabrt_handler 10081f00 f   libucrtd:signal.obj
 0001:00080f20       ___acrt_initialize_signal_handlers 10081f20 f   libucrtd:signal.obj
 0001:00080f60       ___fpecode                 10081f60 f   libucrtd:signal.obj
 0001:00080f70       ___pxcptinfoptrs           10081f70 f   libucrtd:signal.obj
 0001:00080f80       _raise                     10081f80 f   libucrtd:signal.obj
 0001:00081350       _signal                    10082350 f   libucrtd:signal.obj
 0001:000815d0       __msize                    100825d0 f   libucrtd:msize.obj
 0001:000815f0       __msize_base               100825f0 f   libucrtd:msize.obj
 0001:00081690       __realloc_base             10082690 f   libucrtd:realloc_base.obj
 0001:00081750       ??$?B$$A6GHPA_WKJ@Z@__crt_fast_encoded_nullptr_t@@QBEP6GHPA_WKJ@ZXZ 10082750 f i libucrtd:winapi_thunks.obj
 0001:00081840       ??$__crt_fast_decode_pointer@P6GHPA_WKJ@Z@@YAP6GHPA_WKJ@ZQ6GH0KJ@Z@Z 10082840 f i libucrtd:winapi_thunks.obj
 0001:00081870       ??$__crt_fast_decode_pointer@PAX@@YAPAXQAX@Z 10082870 f i libucrtd:winapi_thunks.obj
 0001:000818a0       ??$__crt_fast_encode_pointer@P6GHPA_WKJ@Z@@YAP6GHPA_WKJ@ZQ6GH0KJ@Z@Z 100828a0 f i libucrtd:winapi_thunks.obj
 0001:00082200       _GetCurrentThreadEffectiveToken 10083200 f i libucrtd:winapi_thunks.obj
 0001:00082210       ___acrt_AppPolicyGetProcessTerminationMethodInternal@4 10083210 f   libucrtd:winapi_thunks.obj
 0001:00082250       ___acrt_AppPolicyGetShowDeveloperDiagnosticInternal@4 10083250 f   libucrtd:winapi_thunks.obj
 0001:00082290       ___acrt_AppPolicyGetThreadInitializationTypeInternal@4 10083290 f   libucrtd:winapi_thunks.obj
 0001:000822d0       ___acrt_AppPolicyGetWindowingModelInternal@4 100832d0 f   libucrtd:winapi_thunks.obj
 0001:00082310       ___acrt_AreFileApisANSI@0  10083310 f   libucrtd:winapi_thunks.obj
 0001:00082350       ___acrt_CompareStringEx@36 10083350 f   libucrtd:winapi_thunks.obj
 0001:000823d0       ___acrt_EnumSystemLocalesEx@16 100833d0 f   libucrtd:winapi_thunks.obj
 0001:00082430       ___acrt_FlsAlloc@4         10083430 f   libucrtd:winapi_thunks.obj
 0001:00082470       ___acrt_FlsFree@4          10083470 f   libucrtd:winapi_thunks.obj
 0001:000824b0       ___acrt_FlsGetValue@4      100834b0 f   libucrtd:winapi_thunks.obj
 0001:000824f0       ___acrt_FlsSetValue@8      100834f0 f   libucrtd:winapi_thunks.obj
 0001:00082540       ___acrt_GetDateFormatEx@28 10083540 f   libucrtd:winapi_thunks.obj
 0001:000825c0       ___acrt_GetEnabledXStateFeatures@0 100835c0 f   libucrtd:winapi_thunks.obj
 0001:00082600       ___acrt_GetLocaleInfoEx@16 10083600 f   libucrtd:winapi_thunks.obj
 0001:00082660       ___acrt_GetSystemTimePreciseAsFileTime@4 10083660 f   libucrtd:winapi_thunks.obj
 0001:000826a0       ___acrt_GetTimeFormatEx@24 100836a0 f   libucrtd:winapi_thunks.obj
 0001:00082710       ___acrt_GetUserDefaultLocaleName@8 10083710 f   libucrtd:winapi_thunks.obj
 0001:00082760       ___acrt_GetXStateFeaturesMask@8 10083760 f   libucrtd:winapi_thunks.obj
 0001:000827a0       ___acrt_InitializeCriticalSectionEx@12 100837a0 f   libucrtd:winapi_thunks.obj
 0001:000827f0       ___acrt_IsValidLocaleName@4 100837f0 f   libucrtd:winapi_thunks.obj
 0001:00082840       ___acrt_LCIDToLocaleName@16 10083840 f   libucrtd:winapi_thunks.obj
 0001:000828a0       ___acrt_LCMapStringEx@36   100838a0 f   libucrtd:winapi_thunks.obj
 0001:00082920       ___acrt_LocaleNameToLCID@8 10083920 f   libucrtd:winapi_thunks.obj
 0001:00082970       ___acrt_LocateXStateFeature@12 10083970 f   libucrtd:winapi_thunks.obj
 0001:000829c0       ___acrt_MessageBoxA@16     100839c0 f   libucrtd:winapi_thunks.obj
 0001:00082a10       ___acrt_MessageBoxW@16     10083a10 f   libucrtd:winapi_thunks.obj
 0001:00082a60       ___acrt_RoInitialize@4     10083a60 f   libucrtd:winapi_thunks.obj
 0001:00082aa0       ___acrt_RoUninitialize@0   10083aa0 f   libucrtd:winapi_thunks.obj
 0001:00082ad0       ___acrt_RtlGenRandom@8     10083ad0 f   libucrtd:winapi_thunks.obj
 0001:00082b10       ___acrt_SetThreadStackGuarantee@4 10083b10 f   libucrtd:winapi_thunks.obj
 0001:00082b50       ___acrt_can_show_message_box 10083b50 f   libucrtd:winapi_thunks.obj
 0001:00082b90       ___acrt_can_use_vista_locale_apis 10083b90 f   libucrtd:winapi_thunks.obj
 0001:00082bc0       ___acrt_can_use_xstate_apis 10083bc0 f   libucrtd:winapi_thunks.obj
 0001:00082bf0       ___acrt_eagerly_load_locale_apis 10083bf0 f   libucrtd:winapi_thunks.obj
 0001:00082c30       ___acrt_get_parent_window  10083c30 f   libucrtd:winapi_thunks.obj
 0001:00082ca0       ___acrt_initialize_winapi_thunks 10083ca0 f   libucrtd:winapi_thunks.obj
 0001:00082d10       ___acrt_is_interactive     10083d10 f   libucrtd:winapi_thunks.obj
 0001:00082dc0       ___acrt_uninitialize_winapi_thunks 10083dc0 f   libucrtd:winapi_thunks.obj
 0001:00082e30       __chvalidator              10083e30 f   libucrtd:isctype.obj
 0001:00082e80       __chvalidator_l            10083e80 f   libucrtd:isctype.obj
 0001:00082f00       __isctype                  10083f00 f   libucrtd:isctype.obj
 0001:00082f40       __isctype_l                10083f40 f   libucrtd:isctype.obj
 0001:000830c0       __isleadbyte_fast_internal 100840c0 f i libucrtd:isctype.obj
 0001:000830e0       ??$?RU__crt_stdio_stream_data@@@__crt_internal_free_policy@@QBEXQBU__crt_stdio_stream_data@@@Z 100840e0 f i libucrtd:stream.obj
 0001:00083100       ??0?$__crt_unique_heap_ptr@U__crt_stdio_stream_data@@U__crt_internal_free_policy@@@@QAE@QAU__crt_stdio_stream_data@@@Z 10084100 f i libucrtd:stream.obj
 0001:00083120       ??0__crt_stdio_stream@@QAE@QAU__crt_stdio_stream_data@@@Z 10084120 f i libucrtd:stream.obj
 0001:00083140       ??0__crt_stdio_stream@@QAE@XZ 10084140 f i libucrtd:stream.obj
 0001:00083160       ??1?$__crt_unique_heap_ptr@U__crt_stdio_stream_data@@U__crt_internal_free_policy@@@@QAE@XZ 10084160 f i libucrtd:stream.obj
 0001:00083180       ?__acrt_stdio_allocate_stream@@YA?AV__crt_stdio_stream@@XZ 10084180 f   libucrtd:stream.obj
 0001:00083270       ?__acrt_stdio_free_stream@@YAXV__crt_stdio_stream@@@Z 10084270 f   libucrtd:stream.obj
 0001:000832f0       ?deallocate@__crt_stdio_stream@@QAEXXZ 100842f0 f i libucrtd:stream.obj
 0001:00083310       ?detach@?$__crt_unique_heap_ptr@U__crt_stdio_stream_data@@U__crt_internal_free_policy@@@@QAEPAU__crt_stdio_stream_data@@XZ 10084310 f i libucrtd:stream.obj
 0001:00083480       ?lock@__crt_stdio_stream@@QBEXXZ 10084480 f i libucrtd:stream.obj
 0001:000834a0       ?release@?$__crt_unique_heap_ptr@U__crt_stdio_stream_data@@U__crt_internal_free_policy@@@@QAEXXZ 100844a0 f i libucrtd:stream.obj
 0001:000834d0       ?try_allocate@__crt_stdio_stream@@QAE_NXZ 100844d0 f i libucrtd:stream.obj
 0001:00083520       ??$__acrt_stdio_parse_mode@D@@YA?AU__acrt_stdio_stream_mode@@QBD@Z 10084520 f i libucrtd:openfile.obj
 0001:00083d90       ??$__acrt_stdio_parse_mode@_W@@YA?AU__acrt_stdio_stream_mode@@QB_W@Z 10084d90 f i libucrtd:openfile.obj
 0001:00084920       ??$tcsncmp@AAPBDAAY02$$CBDI@?$__crt_char_traits@D@@SAHAAPBDAAY02$$CBD$$QAI@Z 10085920 f i libucrtd:openfile.obj
 0001:00084940       ??$tcsncmp@AAPB_WAAY02$$CB_WI@?$__crt_char_traits@_W@@SAHAAPB_WAAY02$$CB_W$$QAI@Z 10085940 f i libucrtd:openfile.obj
 0001:00084960       ??$tcsnicmp@AAPBDAAY04$$CBDI@?$__crt_char_traits@D@@SAHAAPBDAAY04$$CBD$$QAI@Z 10085960 f i libucrtd:openfile.obj
 0001:00084980       ??$tcsnicmp@AAPBDAAY06$$CBDI@?$__crt_char_traits@D@@SAHAAPBDAAY06$$CBD$$QAI@Z 10085980 f i libucrtd:openfile.obj
 0001:000849a0       ??$tcsnicmp@AAPBDAAY07$$CBDI@?$__crt_char_traits@D@@SAHAAPBDAAY07$$CBD$$QAI@Z 100859a0 f i libucrtd:openfile.obj
 0001:000849c0       ??$tcsnicmp@AAPB_WAAY04$$CB_WI@?$__crt_char_traits@_W@@SAHAAPB_WAAY04$$CB_W$$QAI@Z 100859c0 f i libucrtd:openfile.obj
 0001:000849e0       ??$tcsnicmp@AAPB_WAAY06$$CB_WI@?$__crt_char_traits@_W@@SAHAAPB_WAAY06$$CB_W$$QAI@Z 100859e0 f i libucrtd:openfile.obj
 0001:00084a00       ??$tcsnicmp@AAPB_WAAY07$$CB_WI@?$__crt_char_traits@_W@@SAHAAPB_WAAY07$$CB_W$$QAI@Z 10085a00 f i libucrtd:openfile.obj
 0001:00084a20       ??$tsopen_s@PAHABQBDABHABHH@?$__crt_char_traits@D@@SAH$$QAPAHABQBDABH2$$QAH@Z 10085a20 f i libucrtd:openfile.obj
 0001:00084a50       ??$tsopen_s@PAHABQB_WABHABHH@?$__crt_char_traits@_W@@SAH$$QAPAHABQB_WABH2$$QAH@Z 10085a50 f i libucrtd:openfile.obj
 0001:00084a80       ?__acrt_stdio_parse_mode_D@@YA_NAAU__acrt_stdio_stream_mode@@@Z 10085a80 f i libucrtd:openfile.obj
 0001:00084ab0       ?__acrt_stdio_parse_mode_N@@YA_NAAU__acrt_stdio_stream_mode@@@Z 10085ab0 f i libucrtd:openfile.obj
 0001:00084ad0       ?__acrt_stdio_parse_mode_R@@YA_NAAU__acrt_stdio_stream_mode@@AA_N@Z 10085ad0 f i libucrtd:openfile.obj
 0001:00084b00       ?__acrt_stdio_parse_mode_S@@YA_NAAU__acrt_stdio_stream_mode@@AA_N@Z 10085b00 f i libucrtd:openfile.obj
 0001:00084b30       ?__acrt_stdio_parse_mode_T@@YA_NAAU__acrt_stdio_stream_mode@@@Z 10085b30 f i libucrtd:openfile.obj
 0001:00084b60       ?__acrt_stdio_parse_mode_b@@YA_NAAU__acrt_stdio_stream_mode@@@Z 10085b60 f i libucrtd:openfile.obj
 0001:00084b90       ?__acrt_stdio_parse_mode_c@@YA_NAAU__acrt_stdio_stream_mode@@AA_N@Z 10085b90 f i libucrtd:openfile.obj
 0001:00084bc0       ?__acrt_stdio_parse_mode_n@@YA_NAAU__acrt_stdio_stream_mode@@AA_N@Z 10085bc0 f i libucrtd:openfile.obj
 0001:00084bf0       ?__acrt_stdio_parse_mode_plus@@YA_NAAU__acrt_stdio_stream_mode@@AA_N@Z 10085bf0 f i libucrtd:openfile.obj
 0001:00084c60       ?__acrt_stdio_parse_mode_t@@YA_NAAU__acrt_stdio_stream_mode@@@Z 10085c60 f i libucrtd:openfile.obj
 0001:00084c90       ?__acrt_stdio_parse_mode_x@@YA_NAAU__acrt_stdio_stream_mode@@@Z 10085c90 f i libucrtd:openfile.obj
 0001:00084cc0       __openfile                 10085cc0 f   libucrtd:openfile.obj
 0001:00084cf0       __wopenfile                10085cf0 f   libucrtd:openfile.obj
 0001:00084fd0       __close                    10085fd0 f   libucrtd:close.obj
 0001:00085150       __close_nolock             10086150 f   libucrtd:close.obj
 0001:000851b0       ?has_crt_buffer@__crt_stdio_stream@@QBE_NXZ 100861b0 f i libucrtd:_freebuf.obj
 0001:000851d0       ___acrt_stdio_free_buffer_nolock 100861d0 f   libucrtd:_freebuf.obj
 0001:00085830       ?__acrt_stdio_reset_buffer@@YAXV__crt_stdio_stream@@@Z 10086830 f i libucrtd:fflush.obj
 0001:00085930       ?has_all_of@__crt_stdio_stream@@QBE_NJ@Z 10086930 f i libucrtd:fflush.obj
 0001:00085a00       ___acrt_stdio_flush_nolock 10086a00 f   libucrtd:fflush.obj
 0001:00085ad0       __fflush_nolock            10086ad0 f   libucrtd:fflush.obj
 0001:00085b50       __flushall                 10086b50 f   libucrtd:fflush.obj
 0001:00085b70       _fflush                    10086b70 f   libucrtd:fflush.obj
 0001:000862c0       ?has_big_buffer@__crt_stdio_stream@@QBE_NXZ 100872c0 f i libucrtd:_flsbuf.obj
 0001:000863c0       ___acrt_stdio_flush_and_write_narrow_nolock 100873c0 f   libucrtd:_flsbuf.obj
 0001:000863f0       ___acrt_stdio_flush_and_write_wide_nolock 100873f0 f   libucrtd:_flsbuf.obj
 0001:00086720       ___acrt_get_begin_thread_init_policy 10087720 f   libucrtd:win_policies.obj
 0001:00086740       ___acrt_get_developer_information_policy 10087740 f   libucrtd:win_policies.obj
 0001:00086760       ___acrt_get_process_end_policy 10087760 f   libucrtd:win_policies.obj
 0001:00086780       ___acrt_get_windowing_model_policy 10087780 f   libucrtd:win_policies.obj
 0001:00086a50       ??$__acrt_mbs_to_wcs_cp@U__crt_win32_buffer_internal_dynamic_resizing@@@@YAHQBDAAV?$__crt_win32_buffer@_WU__crt_win32_buffer_internal_dynamic_resizing@@@@I@Z 10087a50 f i libucrtd:argv_wildcards.obj
 0001:00086a80       ??$__acrt_wcs_to_mbs_cp@U__crt_win32_buffer_internal_dynamic_resizing@@@@YAHQB_WAAV?$__crt_win32_buffer@DU__crt_win32_buffer_internal_dynamic_resizing@@@@I@Z 10087a80 f i libucrtd:argv_wildcards.obj
 0001:000879d0       ??$tcsncpy_s@AAPADIAAPADABI@?$__crt_char_traits@D@@SAHAAPAD$$QAI0ABI@Z 100889d0 f i libucrtd:argv_wildcards.obj
 0001:00087a00       ??$tcsncpy_s@AAPA_WIAAPA_WABI@?$__crt_char_traits@_W@@SAHAAPA_W$$QAI0ABI@Z 10088a00 f i libucrtd:argv_wildcards.obj
 0001:00087a30       ??$tcsncpy_s@PADABIABQBDABI@?$__crt_char_traits@D@@SAH$$QAPADABIABQBD1@Z 10088a30 f i libucrtd:argv_wildcards.obj
 0001:00087a60       ??$tcsncpy_s@PADIABQBDABI@?$__crt_char_traits@D@@SAH$$QAPAD$$QAIABQBDABI@Z 10088a60 f i libucrtd:argv_wildcards.obj
 0001:00087a90       ??$tcsncpy_s@PA_WABIABQB_WABI@?$__crt_char_traits@_W@@SAH$$QAPA_WABIABQB_W1@Z 10088a90 f i libucrtd:argv_wildcards.obj
 0001:00087ac0       ??$tcsncpy_s@PA_WIABQB_WABI@?$__crt_char_traits@_W@@SAH$$QAPA_W$$QAIABQB_WABI@Z 10088ac0 f i libucrtd:argv_wildcards.obj
 0001:00087af0       ??$tcspbrk@AAPADAAY02$$CBD@?$__crt_char_traits@D@@SAPADAAPADAAY02$$CBD@Z 10088af0 f i libucrtd:argv_wildcards.obj
 0001:00087b10       ??$tcspbrk@AAPA_WAAY02$$CB_W@?$__crt_char_traits@_W@@SAPA_WAAPA_WAAY02$$CB_W@Z 10088b10 f i libucrtd:argv_wildcards.obj
 0001:00087b30       ??0?$__crt_unique_handle_t@U__crt_findfile_traits@@@@QAE@QAX@Z 10088b30 f i libucrtd:argv_wildcards.obj
 0001:00087b50       ??0?$__crt_win32_buffer@DU__crt_win32_buffer_internal_dynamic_resizing@@@@QAE@XZ 10088b50 f i libucrtd:argv_wildcards.obj
 0001:00087ba0       ??0?$__crt_win32_buffer@_WU__crt_win32_buffer_internal_dynamic_resizing@@@@QAE@XZ 10088ba0 f i libucrtd:argv_wildcards.obj
 0001:00087c50       ??1?$__crt_unique_handle_t@U__crt_findfile_traits@@@@QAE@XZ 10088c50 f i libucrtd:argv_wildcards.obj
 0001:00087c70       ??1?$__crt_win32_buffer@DU__crt_win32_buffer_internal_dynamic_resizing@@@@QAE@XZ 10088c70 f i libucrtd:argv_wildcards.obj
 0001:00087cb0       ??1?$__crt_win32_buffer@_WU__crt_win32_buffer_internal_dynamic_resizing@@@@QAE@XZ 10088cb0 f i libucrtd:argv_wildcards.obj
 0001:00087f10       ?_deallocate@?$__crt_win32_buffer@DU__crt_win32_buffer_internal_dynamic_resizing@@@@AAEXXZ 10088f10 f i libucrtd:argv_wildcards.obj
 0001:00087f50       ?_deallocate@?$__crt_win32_buffer@_WU__crt_win32_buffer_internal_dynamic_resizing@@@@AAEXXZ 10088f50 f i libucrtd:argv_wildcards.obj
 0001:00087f90       ?allocate@?$__crt_win32_buffer@DU__crt_win32_buffer_internal_dynamic_resizing@@@@QAEHI@Z 10088f90 f i libucrtd:argv_wildcards.obj
 0001:00088000       ?allocate@?$__crt_win32_buffer@_WU__crt_win32_buffer_internal_dynamic_resizing@@@@QAEHI@Z 10089000 f i libucrtd:argv_wildcards.obj
 0001:00088070       ?allocate@__crt_win32_buffer_internal_dynamic_resizing@@SAHQAPAXIABV__crt_win32_buffer_empty_debug_info@@@Z 10089070 f i libucrtd:argv_wildcards.obj
 0001:000881b0       ?capacity@?$__crt_win32_buffer@DU__crt_win32_buffer_internal_dynamic_resizing@@@@QBEIXZ 100891b0 f i libucrtd:argv_wildcards.obj
 0001:000881d0       ?capacity@?$__crt_win32_buffer@_WU__crt_win32_buffer_internal_dynamic_resizing@@@@QBEIXZ 100891d0 f i libucrtd:argv_wildcards.obj
 0001:000881f0       ?close@?$__crt_unique_handle_t@U__crt_findfile_traits@@@@QAEXXZ 100891f0 f i libucrtd:argv_wildcards.obj
 0001:00088230       ?close@__crt_findfile_traits@@SA_NPAX@Z 10089230 f i libucrtd:argv_wildcards.obj
 0001:00088260       ?data@?$__crt_win32_buffer@DU__crt_win32_buffer_internal_dynamic_resizing@@@@QAEPADXZ 10089260 f i libucrtd:argv_wildcards.obj
 0001:00088280       ?data@?$__crt_win32_buffer@_WU__crt_win32_buffer_internal_dynamic_resizing@@@@QAEPA_WXZ 10089280 f i libucrtd:argv_wildcards.obj
 0001:000882a0       ?deallocate@__crt_win32_buffer_internal_dynamic_resizing@@SAXQAXABV__crt_win32_buffer_empty_debug_info@@@Z 100892a0 f i libucrtd:argv_wildcards.obj
 0001:000882c0       ?debug_info@?$__crt_win32_buffer@DU__crt_win32_buffer_internal_dynamic_resizing@@@@QBEABV__crt_win32_buffer_empty_debug_info@@XZ 100892c0 f i libucrtd:argv_wildcards.obj
 0001:000882d0       ?debug_info@?$__crt_win32_buffer@_WU__crt_win32_buffer_internal_dynamic_resizing@@@@QBEABV__crt_win32_buffer_empty_debug_info@@XZ 100892d0 f i libucrtd:argv_wildcards.obj
 0001:000885e0       ?get@?$__crt_unique_handle_t@U__crt_findfile_traits@@@@QBEPAXXZ 100895e0 f i libucrtd:argv_wildcards.obj
 0001:00088650       ?get_invalid_value@__crt_findfile_traits@@SAPAXXZ 10089650 f i libucrtd:argv_wildcards.obj
 0001:000886e0       ?set_to_nullptr@?$__crt_win32_buffer@DU__crt_win32_buffer_internal_dynamic_resizing@@@@QAEXXZ 100896e0 f i libucrtd:argv_wildcards.obj
 0001:00088720       ?set_to_nullptr@?$__crt_win32_buffer@_WU__crt_win32_buffer_internal_dynamic_resizing@@@@QAEXXZ 10089720 f i libucrtd:argv_wildcards.obj
 0001:00088760       ?size@?$__crt_win32_buffer@DU__crt_win32_buffer_internal_dynamic_resizing@@@@QAEXI@Z 10089760 f i libucrtd:argv_wildcards.obj
 0001:00088780       ?size@?$__crt_win32_buffer@_WU__crt_win32_buffer_internal_dynamic_resizing@@@@QAEXI@Z 10089780 f i libucrtd:argv_wildcards.obj
 0001:000887e0       ?strpbrk@@YAPADQADQBD@Z    100897e0 f i libucrtd:argv_wildcards.obj
 0001:00088800       ?wcspbrk@@YAPA_WPA_WPB_W@Z 10089800 f i libucrtd:argv_wildcards.obj
 0001:00088820       ___acrt_expand_narrow_argv_wildcards 10089820 f   libucrtd:argv_wildcards.obj
 0001:00088840       ___acrt_expand_wide_argv_wildcards 10089840 f   libucrtd:argv_wildcards.obj
 0001:00088920       ??$initialize_from_array@$$BY10BAA@E@?$dual_state_global@PAE@__crt_state_management@@QAAXAAY10BAA@E@Z 10089920 f i libucrtd:mbctype.obj
 0001:00088970       ??$initialize_from_array@$$BY10BAB@E@?$dual_state_global@PAE@__crt_state_management@@QAAXAAY10BAB@E@Z 10089970 f i libucrtd:mbctype.obj
 0001:00088be0       ?dangerous_get_state_array@?$dual_state_global@PAE@__crt_state_management@@QAEPAPAEXZ 10089be0 f i libucrtd:mbctype.obj
