 OPOSItemDispenser

 Timestamp is 5d429e5a (Thu Aug  1 17:10:02 2019)

 Preferred load address is 10000000

 Start         Length     Name                   Class
 0001:00000000 00000d90H .text$di                CODE
 0001:00000d90 000a7180H .text$mn                CODE
 0001:000a7f10 000001c0H .text$x                 CODE
 0001:000a80d0 00000120H .text$yd                CODE
 0002:00000000 00000358H .idata$5                DATA
 0002:00000358 00000004H .00cfg                  DATA
 0002:0000035c 00000004H .CRT$XCA                DATA
 0002:00000360 00000004H .CRT$XCL                DATA
 0002:00000364 0000006cH .CRT$XCU                DATA
 0002:000003d0 00000004H .CRT$XCZ                DATA
 0002:000003d4 00000004H .CRT$XIA                DATA
 0002:000003d8 00000010H .CRT$XIC                DATA
 0002:000003e8 00000004H .CRT$XIZ                DATA
 0002:000003ec 00000004H .CRT$XLA                DATA
 0002:000003f0 00000004H .CRT$XLZ                DATA
 0002:000003f4 00000004H .CRT$XPA                DATA
 0002:000003f8 00000008H .CRT$XPX                DATA
 0002:00000400 00000004H .CRT$XPXA               DATA
 0002:00000404 00000004H .CRT$XPZ                DATA
 0002:00000408 00000004H .CRT$XTA                DATA
 0002:0000040c 00000004H .CRT$XTZ                DATA
 0002:00000410 00000000H .gfids$y                DATA
 0002:00000410 0002f0bcH .rdata                  DATA
 0002:0002f4cc 00000018H .rdata$T                DATA
 0002:0002f4e4 0000033cH .rdata$r                DATA
 0002:0002f820 00000044H .rdata$sxdata           DATA
 0002:0002f864 00000408H .rdata$zzzdbg           DATA
 0002:0002fc6c 00000004H .rtc$IAA                DATA
 0002:0002fc70 00000018H .rtc$IMZ                DATA
 0002:0002fc88 00000004H .rtc$IZZ                DATA
 0002:0002fc8c 00000004H .rtc$TAA                DATA
 0002:0002fc90 00000018H .rtc$TMZ                DATA
 0002:0002fca8 00000004H .rtc$TZZ                DATA
 0002:0002fcac 00000004H .tls                    DATA
 0002:0002fcb0 00000004H .tls$                   DATA
 0002:0002fcb4 00000004H .tls$ZZZ                DATA
 0002:0002fcb8 00000e44H .xdata$x                DATA
 0002:00030afc 00000004H ATL$__a                 DATA
 0002:00030b00 00000010H ATL$__z                 DATA
 0002:00030b10 000000b0H .edata                  DATA
 0002:00030bc0 00000078H .idata$2                DATA
 0002:00030c38 00000014H .idata$3                DATA
 0002:00030c4c 00000358H .idata$4                DATA
 0002:00030fa4 00000d50H .idata$6                DATA
 0003:00000000 00000b80H .data                   DATA
 0003:00000b80 00000138H .data$r                 DATA
 0003:00000cb8 00003580H .bss                    DATA
 0004:00000000 00000220H .rsrc$01                DATA
 0004:00000220 000038d0H .rsrc$02                DATA

  Address         Publics by Value              Rva+Base       Lib:Object

 0000:00000000       ___AbsoluteZero            00000000     <absolute>
 0000:00000000       ___guard_iat_table         00000000     <absolute>
 0000:00000000       ___enclave_config          00000000     <absolute>
 0000:00000000       ___hybrid_code_map         00000000     <absolute>
 0000:00000000       ___guard_iat_count         00000000     <absolute>
 0000:00000000       __except_list              00000000     <absolute>
 0000:00000000       ___dynamic_value_reloc_table 00000000     <absolute>
 0000:00000000       ___hybrid_code_map_count   00000000     <absolute>
 0000:00000000       ___hybrid_auxiliary_iat    00000000     <absolute>
 0000:00000000       ___guard_fids_table        00000000     <absolute>
 0000:00000000       ___guard_longjmp_count     00000000     <absolute>
 0000:00000000       ___guard_longjmp_table     00000000     <absolute>
 0000:00000000       ___volatile_metadata       00000000     <absolute>
 0000:00000000       ___guard_fids_count        00000000     <absolute>
 0000:00000011       ___safe_se_handler_count   00000011     <absolute>
 0000:0000002c       __tls_array                0000002c     <absolute>
 0000:00000100       ___guard_flags             00000100     <absolute>
 0000:00000000       ___ImageBase               10000000     <linker-defined>
 0001:00000d90       ?_assert@@YAXPB_W0I@Z      10001d90 f   Assert.obj
 0001:00000ec0       ___local_stdio_printf_options 10001ec0 f i Assert.obj
 0001:00000ed0       ___vswprintf_l             10001ed0 f i Assert.obj
 0001:00000f00       __swprintf                 10001f00 f i Assert.obj
 0001:00000f60       __vswprintf_c_l            10001f60 f i Assert.obj
 0001:00000fd0       __vswprintf_l              10001fd0 f i Assert.obj
 0001:00001000       ?cw_memcpy@@YGHPADPB_WH@Z  10002000 f   CWString.obj
 0001:00001060       ?cw_memcpy@@YGHPA_WPBDH@Z  10002060 f   CWString.obj
 0001:000010c0       ?cw_memcpy@@YGHPADPBDH@Z   100020c0 f   CWString.obj
 0001:00001110       ?cw_memcpy@@YGHPA_WPB_WH@Z 10002110 f   CWString.obj
 0001:00001150       ?cw_memset@@YAXPADDH@Z     10002150 f   CWString.obj
 0001:00001170       ?cw_memset@@YAXPA_W_WH@Z   10002170 f   CWString.obj
 0001:00001190       ?cw_strlen@@YAHPBD@Z       10002190 f   CWString.obj
 0001:000011e0       ?cw_strlen@@YAHPB_W@Z      100021e0 f   CWString.obj
 0001:00001230       ?cw_strcpy@@YAHPADPB_W@Z   10002230 f   CWString.obj
 0001:00001250       ?cw_strcpy@@YAHPA_WPBD@Z   10002250 f   CWString.obj
 0001:00001270       ?cw_strcpy@@YAHPADPBD@Z    10002270 f   CWString.obj
 0001:00001290       ?cw_strcpy@@YAHPA_WPB_W@Z  10002290 f   CWString.obj
 0001:000012b0       ?cw_strcat@@YAHPADPB_W@Z   100022b0 f   CWString.obj
 0001:000012e0       ?cw_strcat@@YAHPA_WPBD@Z   100022e0 f   CWString.obj
 0001:00001310       ?cw_strcat@@YAHPADPBD@Z    10002310 f   CWString.obj
 0001:00001340       ?cw_strcat@@YAHPA_WPB_W@Z  10002340 f   CWString.obj
 0001:00001370       ?cw_dup@@YGXPBDAAHAAPA_W1@Z 10002370 f   CWString.obj
 0001:00001430       ?cw_dup@@YGXPB_WAAHAAPAD1@Z 10002430 f   CWString.obj
 0001:000014e0       ?DupChar@_CW@@AAEXXZ       100024e0 f   CWString.obj
 0001:00001530       ?DupWide@_CW@@AAEXXZ       10002530 f   CWString.obj
 0001:00001580       ?GetCharsMbcs@_CW@@QAEHXZ  10002580 f   CWString.obj
 0001:000015e0       ?GetCharsWide@_CW@@QAEHXZ  100025e0 f   CWString.obj
 0001:00001640       ?SetVARIANT_BOOL@OposVariant@@QAEXF@Z 10002640 f   OposVariant.obj
 0001:000016a0       ?SetVARIANT_BOOL_Ptr@OposVariant@@QAEXPAFAAJ@Z 100026a0 f   OposVariant.obj
 0001:000016f0       ?GetLONG@OposVariant@@QAEJXZ 100026f0 f   OposVariant.obj
 0001:00001780       ?ChangeLONG@OposVariant@@QAEXPAJAAJ@Z 10002780 f   OposVariant.obj
 0001:00001840       ?SetLONG@OposVariant@@QAEXJ@Z 10002840 f   OposVariant.obj
 0001:00001880       ?SetLONG_Ptr@OposVariant@@QAEXPAJAAJ@Z 10002880 f   OposVariant.obj
 0001:000018d0       ?ChangeCURRENCY@OposVariant@@QAEXPATtagCY@@AAJ@Z 100028d0 f   OposVariant.obj
 0001:00001990       ?SetCURRENCY@OposVariant@@QAEXTtagCY@@@Z 10002990 f   OposVariant.obj
 0001:000019d0       ?SetCURRENCY_Ptr@OposVariant@@QAEXPATtagCY@@AAJ@Z 100029d0 f   OposVariant.obj
 0001:00001a20       ?ChangeBSTR@OposVariant@@QAEXPAPA_WAAJ@Z 10002a20 f   OposVariant.obj
 0001:00001ae0       ?SetBSTR@OposVariant@@QAEXPA_WAAJ@Z 10002ae0 f   OposVariant.obj
 0001:00001b30       ?SetBSTR_Copy@OposVariant@@QAEXPA_WAAJ@Z 10002b30 f   OposVariant.obj
 0001:00001bd0       ?SetBSTR_OutPtr@OposVariant@@QAE_NPAPA_WAAJ@Z 10002bd0 f   OposVariant.obj
 0001:00001c20       ?SetBSTR_InOutPtr@OposVariant@@QAE_NPAPA_WAAJ@Z 10002c20 f   OposVariant.obj
 0001:00001c70       ?SetVARIANT@OposVariant@@QAEXAAUtagVARIANT@@GAAJ@Z 10002c70 f   OposVariant.obj
 0001:00001cf0       ?SetVARIANT_Ptr@OposVariant@@QAEXAAPAUtagVARIANT@@GAAJ@Z 10002cf0 f   OposVariant.obj
 0001:00001d90       ?SetString@OposVariant@@QAEXPB_WAAJ@Z 10002d90 f   OposVariant.obj
 0001:00001e20       ?SetDispatch_Ptr@OposVariant@@QAEXPAUIDispatch@@AAJ@Z 10002e20 f   OposVariant.obj
 0001:00001e90       ??0OposDispParms@@QAE@PAVOposVariant@@H@Z 10002e90 f   OposVariant.obj
 0001:00001f60       ??1OposDispParms@@QAE@XZ   10002f60 f   OposVariant.obj
 0001:00001fb0       ??$AtlMultiply@I@ATL@@YAJPAIII@Z 10002fb0 f i OposVariant.obj
 0001:00002010       ??0?$CHeapPtr@_WVCCRTAllocator@ATL@@@ATL@@QAE@XZ 10003010 f i OposVariant.obj
 0001:00002040       ??0?$CHeapPtrBase@_WVCCRTAllocator@ATL@@@ATL@@IAE@XZ 10003040 f i OposVariant.obj
 0001:00002060       ??0?$CSimpleArray@GV?$CSimpleArrayEqualHelper@G@ATL@@@ATL@@QAE@XZ 10003060 f i OposVariant.obj
 0001:000020a0       ??0?$CTraceCategoryEx@$00$0A@@ATL@@QAE@PB_W@Z 100030a0 f i OposVariant.obj
 0001:000020d0       ??0?$CTraceCategoryEx@$01$0A@@ATL@@QAE@PB_W@Z 100030d0 f i OposVariant.obj
 0001:00002100       ??0?$CTraceCategoryEx@$03$0A@@ATL@@QAE@PB_W@Z 10003100 f i OposVariant.obj
 0001:00002130       ??0?$CTraceCategoryEx@$07$0A@@ATL@@QAE@PB_W@Z 10003130 f i OposVariant.obj
 0001:00002160       ??0?$CTraceCategoryEx@$0BA@$0A@@ATL@@QAE@PB_W@Z 10003160 f i OposVariant.obj
 0001:00002190       ??0?$CTraceCategoryEx@$0BAA@$0A@@ATL@@QAE@PB_W@Z 10003190 f i OposVariant.obj
 0001:000021d0       ??0?$CTraceCategoryEx@$0BAAA@$0A@@ATL@@QAE@PB_W@Z 100031d0 f i OposVariant.obj
 0001:00002210       ??0?$CTraceCategoryEx@$0BAAAA@$0A@@ATL@@QAE@PB_W@Z 10003210 f i OposVariant.obj
 0001:00002250       ??0?$CTraceCategoryEx@$0BAAAAA@$0A@@ATL@@QAE@PB_W@Z 10003250 f i OposVariant.obj
 0001:00002290       ??0?$CTraceCategoryEx@$0CA@$0A@@ATL@@QAE@PB_W@Z 10003290 f i OposVariant.obj
 0001:000022c0       ??0?$CTraceCategoryEx@$0CAA@$0A@@ATL@@QAE@PB_W@Z 100032c0 f i OposVariant.obj
 0001:00002300       ??0?$CTraceCategoryEx@$0CAAA@$0A@@ATL@@QAE@PB_W@Z 10003300 f i OposVariant.obj
 0001:00002340       ??0?$CTraceCategoryEx@$0CAAAA@$0A@@ATL@@QAE@PB_W@Z 10003340 f i OposVariant.obj
 0001:00002380       ??0?$CTraceCategoryEx@$0CAAAAA@$0A@@ATL@@QAE@PB_W@Z 10003380 f i OposVariant.obj
 0001:000023c0       ??0?$CTraceCategoryEx@$0EA@$0A@@ATL@@QAE@PB_W@Z 100033c0 f i OposVariant.obj
 0001:000023f0       ??0?$CTraceCategoryEx@$0EAA@$0A@@ATL@@QAE@PB_W@Z 100033f0 f i OposVariant.obj
 0001:00002430       ??0?$CTraceCategoryEx@$0EAAA@$0A@@ATL@@QAE@PB_W@Z 10003430 f i OposVariant.obj
 0001:00002470       ??0?$CTraceCategoryEx@$0EAAAA@$0A@@ATL@@QAE@PB_W@Z 10003470 f i OposVariant.obj
 0001:000024b0       ??0?$CTraceCategoryEx@$0EAAAAA@$0A@@ATL@@QAE@PB_W@Z 100034b0 f i OposVariant.obj
 0001:000024f0       ??0?$CTraceCategoryEx@$0IA@$0A@@ATL@@QAE@PB_W@Z 100034f0 f i OposVariant.obj
 0001:00002530       ??0?$CTraceCategoryEx@$0IAA@$0A@@ATL@@QAE@PB_W@Z 10003530 f i OposVariant.obj
 0001:00002570       ??0?$CTraceCategoryEx@$0IAAA@$0A@@ATL@@QAE@PB_W@Z 10003570 f i OposVariant.obj
 0001:000025b0       ??0?$CTraceCategoryEx@$0IAAAA@$0A@@ATL@@QAE@PB_W@Z 100035b0 f i OposVariant.obj
 0001:000025f0       ??0CAtlComModule@ATL@@QAE@XZ 100035f0 f i OposVariant.obj
 0001:000026d0       ??0CAtlWinModule@ATL@@QAE@XZ 100036d0 f i OposVariant.obj
 0001:00002760       ??0CComCriticalSection@ATL@@QAE@XZ 10003760 f i OposVariant.obj
 0001:00002790       ??0CPreserveLastError@ATL@@QAE@XZ 10003790 f i OposVariant.obj
 0001:000027d0       ??0CTraceFileAndLineInfo@ATL@@QAE@PBDH@Z 100037d0 f i OposVariant.obj
 0001:00002800       ??0_ATL_COM_MODULE70@ATL@@QAE@XZ 10003800 f i OposVariant.obj
 0001:00002830       ??0_ATL_WIN_MODULE70@ATL@@QAE@XZ 10003830 f i OposVariant.obj
 0001:00002870       ??1?$CHeapPtr@_WVCCRTAllocator@ATL@@@ATL@@QAE@XZ 10003870 f i OposVariant.obj
 0001:000028a0       ??1?$CHeapPtrBase@_WVCCRTAllocator@ATL@@@ATL@@QAE@XZ 100038a0 f i OposVariant.obj
 0001:000028d0       ??1?$CSimpleArray@GV?$CSimpleArrayEqualHelper@G@ATL@@@ATL@@QAE@XZ 100038d0 f i OposVariant.obj
 0001:00002900       ??1CAtlComModule@ATL@@QAE@XZ 10003900 f i OposVariant.obj
 0001:00002930       ??1CAtlWinModule@ATL@@QAE@XZ 10003930 f i OposVariant.obj
 0001:00002960       ??1CComBSTR@ATL@@QAE@XZ    10003960 f i OposVariant.obj
 0001:000029a0       ??1CComCriticalSection@ATL@@QAE@XZ 100039a0 f i OposVariant.obj
 0001:000029c0       ??1CPreserveLastError@ATL@@QAE@XZ 100039c0 f i OposVariant.obj
 0001:00002a00       ??1_ATL_COM_MODULE70@ATL@@QAE@XZ 10003a00 f i OposVariant.obj
 0001:00002a30       ??1_ATL_WIN_MODULE70@ATL@@QAE@XZ 10003a30 f i OposVariant.obj
 0001:00002a70       ??1stringdispid@CComTypeInfoHolder@ATL@@QAE@XZ 10003a70 f i OposVariant.obj
 0001:00002aa0       ??A?$CSimpleArray@GV?$CSimpleArrayEqualHelper@G@ATL@@@ATL@@QAEAAGH@Z 10003aa0 f i OposVariant.obj
 0001:00002b20       ??B?$CHeapPtrBase@_WVCCRTAllocator@ATL@@@ATL@@QBEPA_WXZ 10003b20 f i OposVariant.obj
 0001:00002b40       ??B?$CTraceCategoryEx@$01$0A@@ATL@@QAEIXZ 10003b40 f i OposVariant.obj
 0001:00002b60       ??B?$CTraceCategoryEx@$0CA@$0A@@ATL@@QAEIXZ 10003b60 f i OposVariant.obj
 0001:00002b80       ??RCTraceFileAndLineInfo@ATL@@QBAXHIPB_WZZ 10003b80 f i OposVariant.obj
 0001:00002c20       ??_Estringdispid@CComTypeInfoHolder@ATL@@QAEPAXI@Z 10003c20 f i OposVariant.obj
 0001:00002cb0       ??_H@YGXPAXIIP6EPAX0@Z@Z   10003cb0 f i OposVariant.obj
 0001:00002d20       ??_I@YGXPAXIIP6EX0@Z@Z     10003d20 f i OposVariant.obj
 0001:00002da0       ?Allocate@?$CHeapPtr@_WVCCRTAllocator@ATL@@@ATL@@QAE_NI@Z 10003da0 f i OposVariant.obj
 0001:00002e30       ?Allocate@CCRTAllocator@ATL@@SAPAXI@Z 10003e30 f i OposVariant.obj
 0001:00002e50       ?AllocateBytes@?$CHeapPtrBase@_WVCCRTAllocator@ATL@@@ATL@@QAE_NI@Z 10003e50 f i OposVariant.obj
 0001:00002ec0       ?AtlWinModuleInit@ATL@@YGJPAU_ATL_WIN_MODULE70@1@@Z 10003ec0 f i OposVariant.obj
 0001:00002f90       ?AtlWinModuleTerm@ATL@@YGJPAU_ATL_WIN_MODULE70@1@PAUHINSTANCE__@@@Z 10003f90 f i OposVariant.obj
 0001:00003050       ?Clear@OposVariant@@QAEJXZ 10004050 f i OposVariant.obj
 0001:00003090       ?Free@?$CHeapPtrBase@_WVCCRTAllocator@ATL@@@ATL@@QAEXXZ 10004090 f i OposVariant.obj
 0001:000030d0       ?Free@CCRTAllocator@ATL@@SAXPAX@Z 100040d0 f i OposVariant.obj
 0001:000030f0       ?GetCategoryName@CTrace@ATL@@CAPA_WI@Z 100040f0 f i OposVariant.obj
 0001:00003140       ?GetModuleInstance@CAtlBaseModule@ATL@@QAEPAUHINSTANCE__@@XZ 10004140 f i OposVariant.obj
 0001:00003160       ?GetSize@?$CSimpleArray@GV?$CSimpleArrayEqualHelper@G@ATL@@@ATL@@QBEHXZ 10004160 f i OposVariant.obj
 0001:00003180       ?Init@CComCriticalSection@ATL@@QAEJXZ 10004180 f i OposVariant.obj
 0001:000031e0       ?RegisterCategory@CTrace@ATL@@SAXPB_WI@Z 100041e0 f i OposVariant.obj
 0001:00003270       ?RemoveAll@?$CSimpleArray@GV?$CSimpleArrayEqualHelper@G@ATL@@@ATL@@QAEXXZ 10004270 f i OposVariant.obj
 0001:000032f0       ?Term@CAtlComModule@ATL@@QAEXXZ 100042f0 f i OposVariant.obj
 0001:000033b0       ?Term@CAtlWinModule@ATL@@QAEXXZ 100043b0 f i OposVariant.obj
 0001:000033e0       ?Term@CComCriticalSection@ATL@@QAEJXZ 100043e0 f i OposVariant.obj
 0001:00003420       ?TraceV@CTrace@ATL@@CAXPBDHIIPB_W@Z 10004420 f i OposVariant.obj
 0001:000036a0       ?TraceV@CTrace@ATL@@SAXPBDHIIPB_WPAD@Z 100046a0 f i OposVariant.obj
 0001:000037e0       ?_AtlInitializeCriticalSectionEx@ATL@@YAHPAU_RTL_CRITICAL_SECTION@@KK@Z 100047e0 f i OposVariant.obj
 0001:00003810       ?_AtlRaiseException@ATL@@YAXKK@Z 10004810 f i OposVariant.obj
 0001:00003840       _HRESULT_FROM_WIN32        10004840 f i OposVariant.obj
 0001:00003880       __vswprintf_s_l            10004880 f i OposVariant.obj
 0001:000038f0       _swprintf_s                100048f0 f i OposVariant.obj
 0001:00003950       ?ObjectMain@CComObjectRootBase@ATL@@SGX_N@Z 10004950 f i ItemDispenser.obj
 0001:00003960       ?GetCategoryMap@CComObjectRootBase@ATL@@SAPBU_ATL_CATMAP_ENTRY@2@XZ 10004960 f i ItemDispenser.obj
 0001:00003970       ?CreateInstance@?$CComCreator@V?$CComObjectCached@VCComClassFactory@ATL@@@ATL@@@ATL@@SGJPAXABU_GUID@@PAPAX@Z 10004970 f i ItemDispenser.obj
 0001:00003af0       ?CreateInstance@?$CComCreator2@V?$CComCreator@V?$CComObject@VCOPOSItemDispenser@@@ATL@@@ATL@@V?$CComCreator@V?$CComAggObject@VCOPOSItemDispenser@@@ATL@@@2@@ATL@@SGJPAXABU_GUID@@PAPAX@Z 10004af0 f i ItemDispenser.obj
 0001:00003b70       ?GetObjectDescription@?$CComCoClass@VCOPOSItemDispenser@@$1?CLSID_OPOSItemDispenser@@3U_GUID@@B@ATL@@SGPB_WXZ 10004b70 f i ItemDispenser.obj
 0001:00003b80       ?UpdateRegistry@COPOSItemDispenser@@SGJH@Z 10004b80 f i ItemDispenser.obj
 0001:00003cd0       _DllGetClassObject@12      10004cd0 f   ItemDispenser.obj
 0001:00003d00       _DllCanUnloadNow@0         10004d00 f   ItemDispenser.obj
 0001:00003d40       _DllRegisterServer@0       10004d40 f   ItemDispenser.obj
 0001:00003d60       _DllUnregisterServer@0     10004d60 f   ItemDispenser.obj
 0001:00003ef0       _DllMain@12                10004ef0 f   ItemDispenser.obj
 0001:00003f50       ??$?2G@Wrapper@?$CSimpleArray@GV?$CSimpleArrayEqualHelper@G@ATL@@@ATL@@SAPAXIPAG@Z 10004f50 f i ItemDispenser.obj
 0001:00003f60       ??$?2PA_W@?$Wrapper@PA_W@?$CSimpleMap@PA_WPA_WVCExpansionVectorEqualHelper@ATL@@@ATL@@SAPAXIPAPA_W@Z 10004f60 f i ItemDispenser.obj
 0001:00003f70       ??$?4UITypeInfo2@@@?$CComPtr@UITypeInfo@@@ATL@@QAEPAUITypeInfo@@ABV?$CComPtr@UITypeInfo2@@@1@@Z 10004f70 f i ItemDispenser.obj
 0001:00003fd0       ??$AtlAdd@K@ATL@@YAJPAKKK@Z 10004fd0 f i ItemDispenser.obj
 0001:00004010       ??$AtlAdd@_K@ATL@@YAJPA_K_K1@Z 10005010 f i ItemDispenser.obj
 0001:00004080       ??$AtlAddThrow@K@ATL@@YAKKK@Z 10005080 f i ItemDispenser.obj
 0001:00004100       ??$AtlModuleRegisterWndClassInfoT@VAtlModuleRegisterWndClassInfoParamW@ATL@@@ATL@@YAGPAU_ATL_BASE_MODULE70@0@PAU_ATL_WIN_MODULE70@0@PAU_ATL_WNDCLASSINFOW@0@PAP6GJPAUHWND__@@IIJ@ZVAtlModuleRegisterWndClassInfoParamW@0@@Z 10005100 f i ItemDispenser.obj
 0001:00004510       ??$AtlMultiply@H@ATL@@YAJPAHHH@Z 10005510 f i ItemDispenser.obj
 0001:00004590       ??$AtlMultiply@K@ATL@@YAJPAKKK@Z 10005590 f i ItemDispenser.obj
 0001:000045f0       ??$AtlMultiplyThrow@I@ATL@@YAIII@Z 100055f0 f i ItemDispenser.obj
 0001:00004670       ??$QueryInterface@UIPersistStream@@@IUnknown@@QAGJPAPAUIPersistStream@@@Z 10005670 f i ItemDispenser.obj
 0001:000046a0       ??$QueryInterface@UITypeInfo2@@@IUnknown@@QAGJPAPAUITypeInfo2@@@Z 100056a0 f i ItemDispenser.obj
 0001:000046d0       ??0?$CAtlModuleT@VCComModule@ATL@@@ATL@@QAE@XZ 100056d0 f i ItemDispenser.obj
 0001:00004700       ??0?$CAtlSafeAllocBufferManager@VCCRTAllocator@ATL@@@_ATL_SAFE_ALLOCA_IMPL@ATL@@QAE@XZ 10005700 f i ItemDispenser.obj
 0001:00004720       ??0?$CAutoVectorPtr@_W@ATL@@QAE@XZ 10005720 f i ItemDispenser.obj
 0001:00004740       ??0?$CComAggObject@VCOPOSItemDispenser@@@ATL@@QAE@PAX@Z 10005740 f i ItemDispenser.obj
 0001:000047b0       ??0?$CComContainedObject@VCOPOSItemDispenser@@@ATL@@QAE@PAX@Z 100057b0 f i ItemDispenser.obj
 0001:000048c0       ??0?$CComCritSecLock@VCComCriticalSection@ATL@@@ATL@@QAE@AAVCComCriticalSection@1@_N@Z 100058c0 f i ItemDispenser.obj
 0001:00004920       ??0?$CComEnum@UIEnumConnectionPoints@@$1?_GUID_b196b285_bab4_101a_b69c_00aa00341d07@@3U__s_GUID@@BPAUIConnectionPoint@@V?$_CopyInterface@UIConnectionPoint@@@ATL@@VCComSingleThreadModel@6@@ATL@@QAE@XZ 10005920 f i ItemDispenser.obj
 0001:00004960       ??0?$CComEnum@UIEnumConnections@@$1?_GUID_b196b287_bab4_101a_b69c_00aa00341d07@@3U__s_GUID@@BUtagCONNECTDATA@@V?$_Copy@UtagCONNECTDATA@@@ATL@@VCComSingleThreadModel@6@@ATL@@QAE@XZ 10005960 f i ItemDispenser.obj
 0001:000049a0       ??0?$CComEnumImpl@UIEnumConnectionPoints@@$1?_GUID_b196b285_bab4_101a_b69c_00aa00341d07@@3U__s_GUID@@BPAUIConnectionPoint@@V?$_CopyInterface@UIConnectionPoint@@@ATL@@@ATL@@QAE@XZ 100059a0 f i ItemDispenser.obj
 0001:00004a00       ??0?$CComEnumImpl@UIEnumConnections@@$1?_GUID_b196b287_bab4_101a_b69c_00aa00341d07@@3U__s_GUID@@BUtagCONNECTDATA@@V?$_Copy@UtagCONNECTDATA@@@ATL@@@ATL@@QAE@XZ 10005a00 f i ItemDispenser.obj
 0001:00004a60       ??0?$CComObject@V?$CComEnum@UIEnumConnectionPoints@@$1?_GUID_b196b285_bab4_101a_b69c_00aa00341d07@@3U__s_GUID@@BPAUIConnectionPoint@@V?$_CopyInterface@UIConnectionPoint@@@ATL@@VCComSingleThreadModel@6@@ATL@@@ATL@@QAE@PAX@Z 10005a60 f i ItemDispenser.obj
 0001:00004ab0       ??0?$CComObject@V?$CComEnum@UIEnumConnections@@$1?_GUID_b196b287_bab4_101a_b69c_00aa00341d07@@3U__s_GUID@@BUtagCONNECTDATA@@V?$_Copy@UtagCONNECTDATA@@@ATL@@VCComSingleThreadModel@6@@ATL@@@ATL@@QAE@PAX@Z 10005ab0 f i ItemDispenser.obj
 0001:00004b00       ??0?$CComObject@VCOPOSItemDispenser@@@ATL@@QAE@PAX@Z 10005b00 f i ItemDispenser.obj
 0001:00004c20       ??0?$CComObjectCached@VCComClassFactory@ATL@@@ATL@@QAE@PAX@Z 10005c20 f i ItemDispenser.obj
 0001:00004c60       ??0?$CComObjectRootEx@VCComMultiThreadModel@ATL@@@ATL@@QAE@XZ 10005c60 f i ItemDispenser.obj
 0001:00004ca0       ??0?$CComObjectRootEx@VCComSingleThreadModel@ATL@@@ATL@@QAE@XZ 10005ca0 f i ItemDispenser.obj
 0001:00004cd0       ??0?$CComPtr@UIAdviseSink@@@ATL@@QAE@PAUIAdviseSink@@@Z 10005cd0 f i ItemDispenser.obj
 0001:00004d00       ??0?$CComPtr@UICatRegister@@@ATL@@QAE@XZ 10005d00 f i ItemDispenser.obj
 0001:00004d30       ??0?$CComPtr@UIConnectionPoint@@@ATL@@QAE@XZ 10005d30 f i ItemDispenser.obj
 0001:00004d60       ??0?$CComPtr@UIConnectionPointContainer@@@ATL@@QAE@XZ 10005d60 f i ItemDispenser.obj
 0001:00004d90       ??0?$CComPtr@UIDataObject@@@ATL@@QAE@XZ 10005d90 f i ItemDispenser.obj
 0001:00004dc0       ??0?$CComPtr@UIDispatch@@@ATL@@QAE@XZ 10005dc0 f i ItemDispenser.obj
 0001:00004df0       ??0?$CComPtr@UIOleClientSite@@@ATL@@QAE@PAUIOleClientSite@@@Z 10005df0 f i ItemDispenser.obj
 0001:00004e20       ??0?$CComPtr@UIOleControlSite@@@ATL@@QAE@XZ 10005e20 f i ItemDispenser.obj
 0001:00004e50       ??0?$CComPtr@UIOleInPlaceActiveObject@@@ATL@@QAE@XZ 10005e50 f i ItemDispenser.obj
 0001:00004e80       ??0?$CComPtr@UIOleInPlaceFrame@@@ATL@@QAE@XZ 10005e80 f i ItemDispenser.obj
 0001:00004eb0       ??0?$CComPtr@UIOleInPlaceObject@@@ATL@@QAE@XZ 10005eb0 f i ItemDispenser.obj
 0001:00004ee0       ??0?$CComPtr@UIOleInPlaceUIWindow@@@ATL@@QAE@XZ 10005ee0 f i ItemDispenser.obj
 0001:00004f10       ??0?$CComPtr@UIOleObject@@@ATL@@QAE@XZ 10005f10 f i ItemDispenser.obj
 0001:00004f40       ??0?$CComPtr@UIPersistStream@@@ATL@@QAE@XZ 10005f40 f i ItemDispenser.obj
 0001:00004f70       ??0?$CComPtr@UIPersistStreamInit@@@ATL@@QAE@XZ 10005f70 f i ItemDispenser.obj
 0001:00004fa0       ??0?$CComPtr@UIPointerInactive@@@ATL@@QAE@XZ 10005fa0 f i ItemDispenser.obj
 0001:00004fd0       ??0?$CComPtr@UIProvideClassInfo2@@@ATL@@QAE@XZ 10005fd0 f i ItemDispenser.obj
 0001:00005000       ??0?$CComPtr@UISpecifyPropertyPages@@@ATL@@QAE@XZ 10006000 f i ItemDispenser.obj
 0001:00005030       ??0?$CComPtr@UIStream@@@ATL@@QAE@XZ 10006030 f i ItemDispenser.obj
 0001:00005060       ??0?$CComPtr@UITypeInfo2@@@ATL@@QAE@XZ 10006060 f i ItemDispenser.obj
 0001:00005090       ??0?$CComPtr@UITypeInfo@@@ATL@@QAE@ABV01@@Z 10006090 f i ItemDispenser.obj
 0001:000050c0       ??0?$CComPtr@UITypeInfo@@@ATL@@QAE@XZ 100060c0 f i ItemDispenser.obj
 0001:000050f0       ??0?$CComPtr@UITypeLib@@@ATL@@QAE@XZ 100060f0 f i ItemDispenser.obj
 0001:00005120       ??0?$CComPtr@UIUnknown@@@ATL@@QAE@ABV01@@Z 10006120 f i ItemDispenser.obj
 0001:00005150       ??0?$CComPtr@UIUnknown@@@ATL@@QAE@PAUIUnknown@@@Z 10006150 f i ItemDispenser.obj
 0001:00005180       ??0?$CComPtr@UIUnknown@@@ATL@@QAE@XZ 10006180 f i ItemDispenser.obj
 0001:000051b0       ??0?$CComPtr@UIViewObjectEx@@@ATL@@QAE@XZ 100061b0 f i ItemDispenser.obj
 0001:000051e0       ??0?$CComPtrBase@UIAdviseSink@@@ATL@@IAE@PAUIAdviseSink@@@Z 100061e0 f i ItemDispenser.obj
 0001:00005230       ??0?$CComPtrBase@UICatRegister@@@ATL@@IAE@XZ 10006230 f i ItemDispenser.obj
 0001:00005250       ??0?$CComPtrBase@UIConnectionPoint@@@ATL@@IAE@XZ 10006250 f i ItemDispenser.obj
 0001:00005270       ??0?$CComPtrBase@UIConnectionPointContainer@@@ATL@@IAE@XZ 10006270 f i ItemDispenser.obj
 0001:00005290       ??0?$CComPtrBase@UIDataObject@@@ATL@@IAE@XZ 10006290 f i ItemDispenser.obj
 0001:000052b0       ??0?$CComPtrBase@UIDispatch@@@ATL@@IAE@XZ 100062b0 f i ItemDispenser.obj
 0001:000052d0       ??0?$CComPtrBase@UIOleClientSite@@@ATL@@IAE@PAUIOleClientSite@@@Z 100062d0 f i ItemDispenser.obj
 0001:00005320       ??0?$CComPtrBase@UIOleControlSite@@@ATL@@IAE@XZ 10006320 f i ItemDispenser.obj
 0001:00005340       ??0?$CComPtrBase@UIOleInPlaceActiveObject@@@ATL@@IAE@XZ 10006340 f i ItemDispenser.obj
 0001:00005360       ??0?$CComPtrBase@UIOleInPlaceFrame@@@ATL@@IAE@XZ 10006360 f i ItemDispenser.obj
 0001:00005380       ??0?$CComPtrBase@UIOleInPlaceObject@@@ATL@@IAE@XZ 10006380 f i ItemDispenser.obj
 0001:000053a0       ??0?$CComPtrBase@UIOleInPlaceUIWindow@@@ATL@@IAE@XZ 100063a0 f i ItemDispenser.obj
 0001:000053c0       ??0?$CComPtrBase@UIOleObject@@@ATL@@IAE@XZ 100063c0 f i ItemDispenser.obj
 0001:000053e0       ??0?$CComPtrBase@UIPersistStream@@@ATL@@IAE@XZ 100063e0 f i ItemDispenser.obj
 0001:00005400       ??0?$CComPtrBase@UIPersistStreamInit@@@ATL@@IAE@XZ 10006400 f i ItemDispenser.obj
 0001:00005420       ??0?$CComPtrBase@UIPointerInactive@@@ATL@@IAE@XZ 10006420 f i ItemDispenser.obj
 0001:00005440       ??0?$CComPtrBase@UIProvideClassInfo2@@@ATL@@IAE@XZ 10006440 f i ItemDispenser.obj
 0001:00005460       ??0?$CComPtrBase@UISpecifyPropertyPages@@@ATL@@IAE@XZ 10006460 f i ItemDispenser.obj
 0001:00005480       ??0?$CComPtrBase@UIStream@@@ATL@@IAE@XZ 10006480 f i ItemDispenser.obj
 0001:000054a0       ??0?$CComPtrBase@UITypeInfo2@@@ATL@@IAE@XZ 100064a0 f i ItemDispenser.obj
 0001:000054c0       ??0?$CComPtrBase@UITypeInfo@@@ATL@@IAE@PAUITypeInfo@@@Z 100064c0 f i ItemDispenser.obj
 0001:00005510       ??0?$CComPtrBase@UITypeInfo@@@ATL@@IAE@XZ 10006510 f i ItemDispenser.obj
 0001:00005530       ??0?$CComPtrBase@UITypeLib@@@ATL@@IAE@XZ 10006530 f i ItemDispenser.obj
 0001:00005550       ??0?$CComPtrBase@UIUnknown@@@ATL@@IAE@PAUIUnknown@@@Z 10006550 f i ItemDispenser.obj
 0001:000055a0       ??0?$CComPtrBase@UIUnknown@@@ATL@@IAE@XZ 100065a0 f i ItemDispenser.obj
 0001:000055c0       ??0?$CComPtrBase@UIViewObjectEx@@@ATL@@IAE@XZ 100065c0 f i ItemDispenser.obj
 0001:000055e0       ??0?$CComQIPtr@UIOleControlSite@@$1?_GUID_b196b289_bab4_101a_b69c_00aa00341d07@@3U__s_GUID@@B@ATL@@QAE@PAUIUnknown@@@Z 100065e0 f i ItemDispenser.obj
 0001:00005640       ??0?$CComQIPtr@UIOleObject@@$1?_GUID_00000112_0000_0000_c000_000000000046@@3U__s_GUID@@B@ATL@@QAE@XZ 10006640 f i ItemDispenser.obj
 0001:00005670       ??0?$CComQIPtr@UISpecifyPropertyPages@@$1?_GUID_b196b28b_bab4_101a_b69c_00aa00341d07@@3U__s_GUID@@B@ATL@@QAE@XZ 10006670 f i ItemDispenser.obj
 0001:000056a0       ??0?$CSimpleMap@PA_WPA_WVCExpansionVectorEqualHelper@ATL@@@ATL@@QAE@XZ 100066a0 f i ItemDispenser.obj
 0001:000056e0       ??0?$CTempBuffer@E$0BAA@VCCRTAllocator@ATL@@@ATL@@QAE@XZ 100066e0 f i ItemDispenser.obj
 0001:00005700       ??0?$CTempBuffer@_W$0BAA@VCCRTAllocator@ATL@@@ATL@@QAE@XZ 10006700 f i ItemDispenser.obj
 0001:00005720       ??0?$CTempBuffer@_W$0EAA@VCCRTAllocator@ATL@@@ATL@@QAE@XZ 10006720 f i ItemDispenser.obj
 0001:00005740       ??0?$Wrapper@PA_W@?$CSimpleMap@PA_WPA_WVCExpansionVectorEqualHelper@ATL@@@ATL@@QAE@ABQA_W@Z 10006740 f i ItemDispenser.obj
 0001:00005770       ??0CAtlModule@ATL@@QAE@XZ  10006770 f i ItemDispenser.obj
 0001:00005890       ??0CComAutoDeleteCriticalSection@ATL@@QAE@XZ 10006890 f i ItemDispenser.obj
 0001:000058c0       ??0CComBSTR@ATL@@QAE@XZ    100068c0 f i ItemDispenser.obj
 0001:000058e0       ??0CComClassFactory@ATL@@QAE@XZ 100068e0 f i ItemDispenser.obj
 0001:00005920       ??0CComModule@ATL@@QAE@XZ  10006920 f i ItemDispenser.obj
 0001:00005990       ??0CComObjectRootBase@ATL@@QAE@XZ 10006990 f i ItemDispenser.obj
 0001:000059b0       ??0CComSafeDeleteCriticalSection@ATL@@QAE@XZ 100069b0 f i ItemDispenser.obj
 0001:000059e0       ??0CComVariant@ATL@@QAE@XZ 100069e0 f i ItemDispenser.obj
 0001:00005a30       ??0CExpansionVector@ATL@@QAE@XZ 10006a30 f i ItemDispenser.obj
 0001:00005a60       ??0CParseBuffer@CRegParser@ATL@@QAE@H@Z 10006a60 f i ItemDispenser.obj
 0001:00005ad0       ??0CRegKey@ATL@@QAE@PAUHKEY__@@@Z 10006ad0 f i ItemDispenser.obj
 0001:00005b10       ??0CRegKey@ATL@@QAE@PAVCAtlTransactionManager@1@@Z 10006b10 f i ItemDispenser.obj
 0001:00005b50       ??0CRegObject@ATL@@QAE@XZ  10006b50 f i ItemDispenser.obj
 0001:00005b90       ??0CRegParser@ATL@@QAE@PAVCRegObject@1@@Z 10006b90 f i ItemDispenser.obj
 0001:00005bc0       ??0IClassFactory@@QAE@XZ   10006bc0 f i ItemDispenser.obj
 0001:00005bf0       ??0IEnumConnectionPoints@@QAE@XZ 10006bf0 f i ItemDispenser.obj
 0001:00005c20       ??0IEnumConnections@@QAE@XZ 10006c20 f i ItemDispenser.obj
 0001:00005c50       ??0IRegistrarBase@@QAE@XZ  10006c50 f i ItemDispenser.obj
 0001:00005c80       ??0IUnknown@@QAE@XZ        10006c80 f i ItemDispenser.obj
 0001:00005ca0       ??0ModuleLockHelper@ATL@@QAE@XZ 10006ca0 f i ItemDispenser.obj
 0001:00005ce0       ??0OposVariant@@QAE@XZ     10006ce0 f i ItemDispenser.obj
 0001:00005d10       ??0Wrapper@?$CSimpleArray@GV?$CSimpleArrayEqualHelper@G@ATL@@@ATL@@QAE@ABG@Z 10006d10 f i ItemDispenser.obj
 0001:00005d40       ??0_ATL_MODULE70@ATL@@QAE@XZ 10006d40 f i ItemDispenser.obj
 0001:00005d70       ??0_ATL_MSG@ATL@@QAE@PAUHWND__@@IIJH@Z 10006d70 f i ItemDispenser.obj
 0001:00005de0       ??0_U_MENUorID@ATL@@QAE@I@Z 10006de0 f i ItemDispenser.obj
 0001:00005e00       ??0_U_RECT@ATL@@QAE@AAUtagRECT@@@Z 10006e00 f i ItemDispenser.obj
 0001:00005e20       ??0stringdispid@CComTypeInfoHolder@ATL@@QAE@XZ 10006e20 f i ItemDispenser.obj
 0001:00005e60       ??1?$CAtlModuleT@VCComModule@ATL@@@ATL@@UAE@XZ 10006e60 f i ItemDispenser.obj
 0001:00005e90       ??1?$CAtlSafeAllocBufferManager@VCCRTAllocator@ATL@@@_ATL_SAFE_ALLOCA_IMPL@ATL@@QAE@XZ 10006e90 f i ItemDispenser.obj
 0001:00005ee0       ??1?$CAutoVectorPtr@_W@ATL@@QAE@XZ 10006ee0 f i ItemDispenser.obj
 0001:00005f10       ??1?$CComAggObject@VCOPOSItemDispenser@@@ATL@@UAE@XZ 10006f10 f i ItemDispenser.obj
 0001:00005f80       ??1?$CComContainedObject@VCOPOSItemDispenser@@@ATL@@UAE@XZ 10006f80 f i ItemDispenser.obj
 0001:00005fb0       ??1?$CComCritSecLock@VCComCriticalSection@ATL@@@ATL@@QAE@XZ 10006fb0 f i ItemDispenser.obj
 0001:00005fe0       ??1?$CComEnum@UIEnumConnectionPoints@@$1?_GUID_b196b285_bab4_101a_b69c_00aa00341d07@@3U__s_GUID@@BPAUIConnectionPoint@@V?$_CopyInterface@UIConnectionPoint@@@ATL@@VCComSingleThreadModel@6@@ATL@@UAE@XZ 10006fe0 f i ItemDispenser.obj
 0001:00006010       ??1?$CComEnum@UIEnumConnections@@$1?_GUID_b196b287_bab4_101a_b69c_00aa00341d07@@3U__s_GUID@@BUtagCONNECTDATA@@V?$_Copy@UtagCONNECTDATA@@@ATL@@VCComSingleThreadModel@6@@ATL@@UAE@XZ 10007010 f i ItemDispenser.obj
 0001:00006040       ??1?$CComEnumImpl@UIEnumConnectionPoints@@$1?_GUID_b196b285_bab4_101a_b69c_00aa00341d07@@3U__s_GUID@@BPAUIConnectionPoint@@V?$_CopyInterface@UIConnectionPoint@@@ATL@@@ATL@@UAE@XZ 10007040 f i ItemDispenser.obj
 0001:000060d0       ??1?$CComEnumImpl@UIEnumConnections@@$1?_GUID_b196b287_bab4_101a_b69c_00aa00341d07@@3U__s_GUID@@BUtagCONNECTDATA@@V?$_Copy@UtagCONNECTDATA@@@ATL@@@ATL@@UAE@XZ 100070d0 f i ItemDispenser.obj
 0001:00006160       ??1?$CComObject@V?$CComEnum@UIEnumConnectionPoints@@$1?_GUID_b196b285_bab4_101a_b69c_00aa00341d07@@3U__s_GUID@@BPAUIConnectionPoint@@V?$_CopyInterface@UIConnectionPoint@@@ATL@@VCComSingleThreadModel@6@@ATL@@@ATL@@UAE@XZ 10007160 f i ItemDispenser.obj
 0001:000061c0       ??1?$CComObject@V?$CComEnum@UIEnumConnections@@$1?_GUID_b196b287_bab4_101a_b69c_00aa00341d07@@3U__s_GUID@@BUtagCONNECTDATA@@V?$_Copy@UtagCONNECTDATA@@@ATL@@VCComSingleThreadModel@6@@ATL@@@ATL@@UAE@XZ 100071c0 f i ItemDispenser.obj
 0001:00006220       ??1?$CComObject@VCOPOSItemDispenser@@@ATL@@UAE@XZ 10007220 f i ItemDispenser.obj
 0001:00006360       ??1?$CComObjectCached@VCComClassFactory@ATL@@@ATL@@UAE@XZ 10007360 f i ItemDispenser.obj
 0001:000063b0       ??1?$CComObjectRootEx@VCComMultiThreadModel@ATL@@@ATL@@QAE@XZ 100073b0 f i ItemDispenser.obj
 0001:000063e0       ??1?$CComObjectRootEx@VCComSingleThreadModel@ATL@@@ATL@@QAE@XZ 100073e0 f i ItemDispenser.obj
 0001:00006410       ??1?$CComPtr@UIAdviseSink@@@ATL@@QAE@XZ 10007410 f i ItemDispenser.obj
 0001:00006440       ??1?$CComPtr@UICatRegister@@@ATL@@QAE@XZ 10007440 f i ItemDispenser.obj
 0001:00006470       ??1?$CComPtr@UIConnectionPoint@@@ATL@@QAE@XZ 10007470 f i ItemDispenser.obj
 0001:000064a0       ??1?$CComPtr@UIConnectionPointContainer@@@ATL@@QAE@XZ 100074a0 f i ItemDispenser.obj
 0001:000064d0       ??1?$CComPtr@UIDataObject@@@ATL@@QAE@XZ 100074d0 f i ItemDispenser.obj
 0001:00006500       ??1?$CComPtr@UIDispatch@@@ATL@@QAE@XZ 10007500 f i ItemDispenser.obj
 0001:00006530       ??1?$CComPtr@UIOleClientSite@@@ATL@@QAE@XZ 10007530 f i ItemDispenser.obj
 0001:00006560       ??1?$CComPtr@UIOleControlSite@@@ATL@@QAE@XZ 10007560 f i ItemDispenser.obj
 0001:00006590       ??1?$CComPtr@UIOleInPlaceActiveObject@@@ATL@@QAE@XZ 10007590 f i ItemDispenser.obj
 0001:000065c0       ??1?$CComPtr@UIOleInPlaceFrame@@@ATL@@QAE@XZ 100075c0 f i ItemDispenser.obj
 0001:000065f0       ??1?$CComPtr@UIOleInPlaceObject@@@ATL@@QAE@XZ 100075f0 f i ItemDispenser.obj
 0001:00006620       ??1?$CComPtr@UIOleInPlaceUIWindow@@@ATL@@QAE@XZ 10007620 f i ItemDispenser.obj
 0001:00006650       ??1?$CComPtr@UIOleObject@@@ATL@@QAE@XZ 10007650 f i ItemDispenser.obj
 0001:00006680       ??1?$CComPtr@UIPersistStream@@@ATL@@QAE@XZ 10007680 f i ItemDispenser.obj
 0001:000066b0       ??1?$CComPtr@UIPersistStreamInit@@@ATL@@QAE@XZ 100076b0 f i ItemDispenser.obj
 0001:000066e0       ??1?$CComPtr@UIPointerInactive@@@ATL@@QAE@XZ 100076e0 f i ItemDispenser.obj
 0001:00006710       ??1?$CComPtr@UIProvideClassInfo2@@@ATL@@QAE@XZ 10007710 f i ItemDispenser.obj
 0001:00006740       ??1?$CComPtr@UISpecifyPropertyPages@@@ATL@@QAE@XZ 10007740 f i ItemDispenser.obj
 0001:00006770       ??1?$CComPtr@UIStream@@@ATL@@QAE@XZ 10007770 f i ItemDispenser.obj
 0001:000067a0       ??1?$CComPtr@UITypeInfo2@@@ATL@@QAE@XZ 100077a0 f i ItemDispenser.obj
 0001:000067d0       ??1?$CComPtr@UITypeInfo@@@ATL@@QAE@XZ 100077d0 f i ItemDispenser.obj
 0001:00006800       ??1?$CComPtr@UITypeLib@@@ATL@@QAE@XZ 10007800 f i ItemDispenser.obj
 0001:00006830       ??1?$CComPtr@UIUnknown@@@ATL@@QAE@XZ 10007830 f i ItemDispenser.obj
 0001:00006860       ??1?$CComPtr@UIViewObjectEx@@@ATL@@QAE@XZ 10007860 f i ItemDispenser.obj
 0001:00006890       ??1?$CComPtrBase@UIAdviseSink@@@ATL@@QAE@XZ 10007890 f i ItemDispenser.obj
 0001:000068e0       ??1?$CComPtrBase@UICatRegister@@@ATL@@QAE@XZ 100078e0 f i ItemDispenser.obj
 0001:00006930       ??1?$CComPtrBase@UIConnectionPoint@@@ATL@@QAE@XZ 10007930 f i ItemDispenser.obj
 0001:00006980       ??1?$CComPtrBase@UIConnectionPointContainer@@@ATL@@QAE@XZ 10007980 f i ItemDispenser.obj
 0001:000069d0       ??1?$CComPtrBase@UIDataObject@@@ATL@@QAE@XZ 100079d0 f i ItemDispenser.obj
 0001:00006a20       ??1?$CComPtrBase@UIDispatch@@@ATL@@QAE@XZ 10007a20 f i ItemDispenser.obj
 0001:00006a70       ??1?$CComPtrBase@UIOleClientSite@@@ATL@@QAE@XZ 10007a70 f i ItemDispenser.obj
 0001:00006ac0       ??1?$CComPtrBase@UIOleControlSite@@@ATL@@QAE@XZ 10007ac0 f i ItemDispenser.obj
 0001:00006b10       ??1?$CComPtrBase@UIOleInPlaceActiveObject@@@ATL@@QAE@XZ 10007b10 f i ItemDispenser.obj
 0001:00006b60       ??1?$CComPtrBase@UIOleInPlaceFrame@@@ATL@@QAE@XZ 10007b60 f i ItemDispenser.obj
 0001:00006bb0       ??1?$CComPtrBase@UIOleInPlaceObject@@@ATL@@QAE@XZ 10007bb0 f i ItemDispenser.obj
 0001:00006c00       ??1?$CComPtrBase@UIOleInPlaceUIWindow@@@ATL@@QAE@XZ 10007c00 f i ItemDispenser.obj
 0001:00006c50       ??1?$CComPtrBase@UIOleObject@@@ATL@@QAE@XZ 10007c50 f i ItemDispenser.obj
 0001:00006ca0       ??1?$CComPtrBase@UIPersistStream@@@ATL@@QAE@XZ 10007ca0 f i ItemDispenser.obj
 0001:00006cf0       ??1?$CComPtrBase@UIPersistStreamInit@@@ATL@@QAE@XZ 10007cf0 f i ItemDispenser.obj
 0001:00006d40       ??1?$CComPtrBase@UIPointerInactive@@@ATL@@QAE@XZ 10007d40 f i ItemDispenser.obj
 0001:00006d90       ??1?$CComPtrBase@UIProvideClassInfo2@@@ATL@@QAE@XZ 10007d90 f i ItemDispenser.obj
 0001:00006de0       ??1?$CComPtrBase@UISpecifyPropertyPages@@@ATL@@QAE@XZ 10007de0 f i ItemDispenser.obj
 0001:00006e30       ??1?$CComPtrBase@UIStream@@@ATL@@QAE@XZ 10007e30 f i ItemDispenser.obj
 0001:00006e80       ??1?$CComPtrBase@UITypeInfo2@@@ATL@@QAE@XZ 10007e80 f i ItemDispenser.obj
 0001:00006ed0       ??1?$CComPtrBase@UITypeInfo@@@ATL@@QAE@XZ 10007ed0 f i ItemDispenser.obj
 0001:00006f20       ??1?$CComPtrBase@UITypeLib@@@ATL@@QAE@XZ 10007f20 f i ItemDispenser.obj
 0001:00006f70       ??1?$CComPtrBase@UIUnknown@@@ATL@@QAE@XZ 10007f70 f i ItemDispenser.obj
 0001:00006fc0       ??1?$CComPtrBase@UIViewObjectEx@@@ATL@@QAE@XZ 10007fc0 f i ItemDispenser.obj
 0001:00007010       ??1?$CComQIPtr@UIOleControlSite@@$1?_GUID_b196b289_bab4_101a_b69c_00aa00341d07@@3U__s_GUID@@B@ATL@@QAE@XZ 10008010 f i ItemDispenser.obj
 0001:00007040       ??1?$CComQIPtr@UIOleObject@@$1?_GUID_00000112_0000_0000_c000_000000000046@@3U__s_GUID@@B@ATL@@QAE@XZ 10008040 f i ItemDispenser.obj
 0001:00007070       ??1?$CComQIPtr@UISpecifyPropertyPages@@$1?_GUID_b196b28b_bab4_101a_b69c_00aa00341d07@@3U__s_GUID@@B@ATL@@QAE@XZ 10008070 f i ItemDispenser.obj
 0001:000070a0       ??1?$CSimpleMap@PA_WPA_WVCExpansionVectorEqualHelper@ATL@@@ATL@@QAE@XZ 100080a0 f i ItemDispenser.obj
 0001:000070d0       ??1?$CTempBuffer@E$0BAA@VCCRTAllocator@ATL@@@ATL@@QAE@XZ 100080d0 f i ItemDispenser.obj
 0001:00007110       ??1?$CTempBuffer@_W$0BAA@VCCRTAllocator@ATL@@@ATL@@QAE@XZ 10008110 f i ItemDispenser.obj
 0001:00007150       ??1?$CTempBuffer@_W$0EAA@VCCRTAllocator@ATL@@@ATL@@QAE@XZ 10008150 f i ItemDispenser.obj
 0001:00007190       ??1CAtlModule@ATL@@UAE@XZ  10008190 f i ItemDispenser.obj
 0001:000071c0       ??1CComAutoDeleteCriticalSection@ATL@@QAE@XZ 100081c0 f i ItemDispenser.obj
 0001:000071f0       ??1CComClassFactory@ATL@@UAE@XZ 100081f0 f i ItemDispenser.obj
 0001:00007220       ??1CComModule@ATL@@UAE@XZ  10008220 f i ItemDispenser.obj
 0001:00007250       ??1CComObjectRootBase@ATL@@QAE@XZ 10008250 f i ItemDispenser.obj
 0001:00007270       ??1CComSafeDeleteCriticalSection@ATL@@QAE@XZ 10008270 f i ItemDispenser.obj
 0001:000072b0       ??1CComVariant@ATL@@QAE@XZ 100082b0 f i ItemDispenser.obj
 0001:00007310       ??1CExpansionVector@ATL@@QAE@XZ 10008310 f i ItemDispenser.obj
 0001:00007340       ??1CParseBuffer@CRegParser@ATL@@QAE@XZ 10008340 f i ItemDispenser.obj
 0001:00007380       ??1CRegKey@ATL@@QAE@XZ     10008380 f i ItemDispenser.obj
 0001:000073b0       ??1CRegObject@ATL@@UAE@XZ  100083b0 f i ItemDispenser.obj
 0001:000073f0       ??1ModuleLockHelper@ATL@@QAE@XZ 100083f0 f i ItemDispenser.obj
 0001:00007430       ??1OposVariant@@QAE@XZ     10008430 f i ItemDispenser.obj
 0001:00007460       ??1_ATL_MODULE70@ATL@@QAE@XZ 10008460 f i ItemDispenser.obj
 0001:00007490       ??4?$CComPtr@UIAdviseSink@@@ATL@@QAEPAUIAdviseSink@@PAU2@@Z 10008490 f i ItemDispenser.obj
 0001:00007500       ??4?$CComPtr@UIOleClientSite@@@ATL@@QAEPAUIOleClientSite@@PAU2@@Z 10008500 f i ItemDispenser.obj
 0001:00007570       ??4?$CComPtr@UIUnknown@@@ATL@@QAEPAUIUnknown@@PAU2@@Z 10008570 f i ItemDispenser.obj
 0001:000075e0       ??4?$CComQIPtr@UIOleObject@@$1?_GUID_00000112_0000_0000_c000_000000000046@@3U__s_GUID@@B@ATL@@QAEPAUIOleObject@@PAUIUnknown@@@Z 100085e0 f i ItemDispenser.obj
 0001:00007630       ??4?$CComQIPtr@UISpecifyPropertyPages@@$1?_GUID_b196b28b_bab4_101a_b69c_00aa00341d07@@3U__s_GUID@@B@ATL@@QAEPAUISpecifyPropertyPages@@PAUIUnknown@@@Z 10008630 f i ItemDispenser.obj
 0001:00007680       ??7?$CComPtrBase@UIOleClientSite@@@ATL@@QBE_NXZ 10008680 f i ItemDispenser.obj
 0001:000076c0       ??7?$CComPtrBase@UIOleInPlaceSiteWindowless@@@ATL@@QBE_NXZ 100086c0 f i ItemDispenser.obj
 0001:00007700       ??7CComBSTR@ATL@@QBE_NXZ   10008700 f i ItemDispenser.obj
 0001:00007740       ??8?$CComPtrBase@UIAdviseSink@@@ATL@@QBE_NPAUIAdviseSink@@@Z 10008740 f i ItemDispenser.obj
 0001:00007780       ??8?$CComPtrBase@UIConnectionPointContainer@@@ATL@@QBE_NPAUIConnectionPointContainer@@@Z 10008780 f i ItemDispenser.obj
 0001:000077c0       ??8?$CComPtrBase@UIDataAdviseHolder@@@ATL@@QBE_NPAUIDataAdviseHolder@@@Z 100087c0 f i ItemDispenser.obj
 0001:00007800       ??8?$CComPtrBase@UIOleAdviseHolder@@@ATL@@QBE_NPAUIOleAdviseHolder@@@Z 10008800 f i ItemDispenser.obj
 0001:00007840       ??8?$CComPtrBase@UIOleClientSite@@@ATL@@QBE_NPAUIOleClientSite@@@Z 10008840 f i ItemDispenser.obj
 0001:00007880       ??8?$CComPtrBase@UIOleControlSite@@@ATL@@QBE_NPAUIOleControlSite@@@Z 10008880 f i ItemDispenser.obj
 0001:000078c0       ??8?$CComPtrBase@UIOleInPlaceObject@@@ATL@@QBE_NPAUIOleInPlaceObject@@@Z 100088c0 f i ItemDispenser.obj
 0001:00007900       ??8?$CComPtrBase@UIOleInPlaceSiteWindowless@@@ATL@@QBE_NPAUIOleInPlaceSiteWindowless@@@Z 10008900 f i ItemDispenser.obj
 0001:00007940       ??8?$CComPtrBase@UIOleObject@@@ATL@@QBE_NPAUIOleObject@@@Z 10008940 f i ItemDispenser.obj
 0001:00007980       ??8?$CComPtrBase@UIPersistStream@@@ATL@@QBE_NPAUIPersistStream@@@Z 10008980 f i ItemDispenser.obj
 0001:000079c0       ??8?$CComPtrBase@UIPersistStreamInit@@@ATL@@QBE_NPAUIPersistStreamInit@@@Z 100089c0 f i ItemDispenser.obj
 0001:00007a00       ??8?$CComPtrBase@UIPointerInactive@@@ATL@@QBE_NPAUIPointerInactive@@@Z 10008a00 f i ItemDispenser.obj
 0001:00007a40       ??8?$CComPtrBase@UIUnknown@@@ATL@@QBE_NPAUIUnknown@@@Z 10008a40 f i ItemDispenser.obj
 0001:00007a80       ??8?$CComPtrBase@UIViewObjectEx@@@ATL@@QBE_NPAUIViewObjectEx@@@Z 10008a80 f i ItemDispenser.obj
 0001:00007ac0       ??8CComBSTR@ATL@@QBE_NH@Z  10008ac0 f i ItemDispenser.obj
 0001:00007b20       ??9?$CComPtrBase@UIAdviseSink@@@ATL@@QBE_NPAUIAdviseSink@@@Z 10008b20 f i ItemDispenser.obj
 0001:00007b70       ??9?$CComPtrBase@UIConnectionPointContainer@@@ATL@@QBE_NPAUIConnectionPointContainer@@@Z 10008b70 f i ItemDispenser.obj
 0001:00007bc0       ??9?$CComPtrBase@UIDataAdviseHolder@@@ATL@@QBE_NPAUIDataAdviseHolder@@@Z 10008bc0 f i ItemDispenser.obj
 0001:00007c10       ??9?$CComPtrBase@UIOleAdviseHolder@@@ATL@@QBE_NPAUIOleAdviseHolder@@@Z 10008c10 f i ItemDispenser.obj
 0001:00007c60       ??9?$CComPtrBase@UIOleClientSite@@@ATL@@QBE_NPAUIOleClientSite@@@Z 10008c60 f i ItemDispenser.obj
 0001:00007cb0       ??9?$CComPtrBase@UIOleControlSite@@@ATL@@QBE_NPAUIOleControlSite@@@Z 10008cb0 f i ItemDispenser.obj
 0001:00007d00       ??9?$CComPtrBase@UIOleInPlaceObject@@@ATL@@QBE_NPAUIOleInPlaceObject@@@Z 10008d00 f i ItemDispenser.obj
 0001:00007d50       ??9?$CComPtrBase@UIOleInPlaceSiteWindowless@@@ATL@@QBE_NPAUIOleInPlaceSiteWindowless@@@Z 10008d50 f i ItemDispenser.obj
 0001:00007da0       ??9?$CComPtrBase@UIOleObject@@@ATL@@QBE_NPAUIOleObject@@@Z 10008da0 f i ItemDispenser.obj
 0001:00007df0       ??9?$CComPtrBase@UIPersistStream@@@ATL@@QBE_NPAUIPersistStream@@@Z 10008df0 f i ItemDispenser.obj
 0001:00007e40       ??9?$CComPtrBase@UIPersistStreamInit@@@ATL@@QBE_NPAUIPersistStreamInit@@@Z 10008e40 f i ItemDispenser.obj
 0001:00007e90       ??9?$CComPtrBase@UIPointerInactive@@@ATL@@QBE_NPAUIPointerInactive@@@Z 10008e90 f i ItemDispenser.obj
 0001:00007ee0       ??9?$CComPtrBase@UIUnknown@@@ATL@@QBE_NPAUIUnknown@@@Z 10008ee0 f i ItemDispenser.obj
 0001:00007f30       ??9?$CComPtrBase@UIViewObjectEx@@@ATL@@QBE_NPAUIViewObjectEx@@@Z 10008f30 f i ItemDispenser.obj
 0001:00007f80       ??9CComBSTR@ATL@@QBE_NH@Z  10008f80 f i ItemDispenser.obj
 0001:00007fd0       ??B?$CComPtrBase@UIAdviseSink@@@ATL@@QBEPAUIAdviseSink@@XZ 10008fd0 f i ItemDispenser.obj
 0001:00007ff0       ??B?$CComPtrBase@UIDataAdviseHolder@@@ATL@@QBEPAUIDataAdviseHolder@@XZ 10008ff0 f i ItemDispenser.obj
 0001:00008010       ??B?$CComPtrBase@UIDataObject@@@ATL@@QBEPAUIDataObject@@XZ 10009010 f i ItemDispenser.obj
 0001:00008030       ??B?$CComPtrBase@UIOleAdviseHolder@@@ATL@@QBEPAUIOleAdviseHolder@@XZ 10009030 f i ItemDispenser.obj
 0001:00008050       ??B?$CComPtrBase@UIOleClientSite@@@ATL@@QBEPAUIOleClientSite@@XZ 10009050 f i ItemDispenser.obj
 0001:00008070       ??B?$CComPtrBase@UIOleControlSite@@@ATL@@QBEPAUIOleControlSite@@XZ 10009070 f i ItemDispenser.obj
 0001:00008090       ??B?$CComPtrBase@UIOleInPlaceActiveObject@@@ATL@@QBEPAUIOleInPlaceActiveObject@@XZ 10009090 f i ItemDispenser.obj
 0001:000080b0       ??B?$CComPtrBase@UIOleInPlaceFrame@@@ATL@@QBEPAUIOleInPlaceFrame@@XZ 100090b0 f i ItemDispenser.obj
 0001:000080d0       ??B?$CComPtrBase@UIOleInPlaceSiteWindowless@@@ATL@@QBEPAUIOleInPlaceSiteWindowless@@XZ 100090d0 f i ItemDispenser.obj
 0001:000080f0       ??B?$CComPtrBase@UIOleInPlaceUIWindow@@@ATL@@QBEPAUIOleInPlaceUIWindow@@XZ 100090f0 f i ItemDispenser.obj
 0001:00008110       ??B?$CComPtrBase@UIOleObject@@@ATL@@QBEPAUIOleObject@@XZ 10009110 f i ItemDispenser.obj
 0001:00008130       ??B?$CComPtrBase@UIPersistStream@@@ATL@@QBEPAUIPersistStream@@XZ 10009130 f i ItemDispenser.obj
 0001:00008150       ??B?$CComPtrBase@UIProvideClassInfo2@@@ATL@@QBEPAUIProvideClassInfo2@@XZ 10009150 f i ItemDispenser.obj
 0001:00008170       ??B?$CComPtrBase@UISpecifyPropertyPages@@@ATL@@QBEPAUISpecifyPropertyPages@@XZ 10009170 f i ItemDispenser.obj
 0001:00008190       ??B?$CComPtrBase@UIStream@@@ATL@@QBEPAUIStream@@XZ 10009190 f i ItemDispenser.obj
 0001:000081b0       ??B?$CComPtrBase@UITypeInfo2@@@ATL@@QBEPAUITypeInfo2@@XZ 100091b0 f i ItemDispenser.obj
 0001:000081d0       ??B?$CComPtrBase@UITypeInfo@@@ATL@@QBEPAUITypeInfo@@XZ 100091d0 f i ItemDispenser.obj
 0001:000081f0       ??B?$CComPtrBase@UITypeLib@@@ATL@@QBEPAUITypeLib@@XZ 100091f0 f i ItemDispenser.obj
 0001:00008210       ??B?$CComPtrBase@UIUnknown@@@ATL@@QBEPAUIUnknown@@XZ 10009210 f i ItemDispenser.obj
 0001:00008230       ??B?$CTempBuffer@E$0BAA@VCCRTAllocator@ATL@@@ATL@@QBEPAEXZ 10009230 f i ItemDispenser.obj
 0001:00008250       ??B?$CTempBuffer@_W$0BAA@VCCRTAllocator@ATL@@@ATL@@QBEPA_WXZ 10009250 f i ItemDispenser.obj
 0001:00008270       ??B?$CTempBuffer@_W$0EAA@VCCRTAllocator@ATL@@@ATL@@QBEPA_WXZ 10009270 f i ItemDispenser.obj
 0001:00008290       ??B?$CTraceCategoryEx@$00$0A@@ATL@@QAEIXZ 10009290 f i ItemDispenser.obj
 0001:000082b0       ??B?$CTraceCategoryEx@$07$0A@@ATL@@QAEIXZ 100092b0 f i ItemDispenser.obj
 0001:000082d0       ??B?$CTraceCategoryEx@$0CAAA@$0A@@ATL@@QAEIXZ 100092d0 f i ItemDispenser.obj
 0001:000082f0       ??B?$CTraceCategoryEx@$0EA@$0A@@ATL@@QAEIXZ 100092f0 f i ItemDispenser.obj
 0001:00008310       ??B?$CTraceCategoryEx@$0IAA@$0A@@ATL@@QAEIXZ 10009310 f i ItemDispenser.obj
 0001:00008330       ??BCComBSTR@ATL@@QBEPA_WXZ 10009330 f i ItemDispenser.obj
 0001:00008350       ??BCRegKey@ATL@@QBEPAUHKEY__@@XZ 10009350 f i ItemDispenser.obj
 0001:00008370       ??C?$CComPtrBase@UIAdviseSink@@@ATL@@QBEPAV?$_NoAddRefReleaseOnCComPtr@UIAdviseSink@@@1@XZ 10009370 f i ItemDispenser.obj
 0001:000083c0       ??C?$CComPtrBase@UICatRegister@@@ATL@@QBEPAV?$_NoAddRefReleaseOnCComPtr@UICatRegister@@@1@XZ 100093c0 f i ItemDispenser.obj
 0001:00008410       ??C?$CComPtrBase@UIConnectionPoint@@@ATL@@QBEPAV?$_NoAddRefReleaseOnCComPtr@UIConnectionPoint@@@1@XZ 10009410 f i ItemDispenser.obj
 0001:00008460       ??C?$CComPtrBase@UIConnectionPointContainer@@@ATL@@QBEPAV?$_NoAddRefReleaseOnCComPtr@UIConnectionPointContainer@@@1@XZ 10009460 f i ItemDispenser.obj
 0001:000084b0       ??C?$CComPtrBase@UIDataAdviseHolder@@@ATL@@QBEPAV?$_NoAddRefReleaseOnCComPtr@UIDataAdviseHolder@@@1@XZ 100094b0 f i ItemDispenser.obj
 0001:00008500       ??C?$CComPtrBase@UIOleAdviseHolder@@@ATL@@QBEPAV?$_NoAddRefReleaseOnCComPtr@UIOleAdviseHolder@@@1@XZ 10009500 f i ItemDispenser.obj
 0001:00008550       ??C?$CComPtrBase@UIOleClientSite@@@ATL@@QBEPAV?$_NoAddRefReleaseOnCComPtr@UIOleClientSite@@@1@XZ 10009550 f i ItemDispenser.obj
 0001:000085a0       ??C?$CComPtrBase@UIOleControlSite@@@ATL@@QBEPAV?$_NoAddRefReleaseOnCComPtr@UIOleControlSite@@@1@XZ 100095a0 f i ItemDispenser.obj
 0001:000085f0       ??C?$CComPtrBase@UIOleInPlaceFrame@@@ATL@@QBEPAV?$_NoAddRefReleaseOnCComPtr@UIOleInPlaceFrame@@@1@XZ 100095f0 f i ItemDispenser.obj
 0001:00008640       ??C?$CComPtrBase@UIOleInPlaceObject@@@ATL@@QBEPAV?$_NoAddRefReleaseOnCComPtr@UIOleInPlaceObject@@@1@XZ 10009640 f i ItemDispenser.obj
 0001:00008690       ??C?$CComPtrBase@UIOleInPlaceSiteWindowless@@@ATL@@QBEPAV?$_NoAddRefReleaseOnCComPtr@UIOleInPlaceSiteWindowless@@@1@XZ 10009690 f i ItemDispenser.obj
 0001:000086e0       ??C?$CComPtrBase@UIOleInPlaceUIWindow@@@ATL@@QBEPAV?$_NoAddRefReleaseOnCComPtr@UIOleInPlaceUIWindow@@@1@XZ 100096e0 f i ItemDispenser.obj
 0001:00008730       ??C?$CComPtrBase@UIOleObject@@@ATL@@QBEPAV?$_NoAddRefReleaseOnCComPtr@UIOleObject@@@1@XZ 10009730 f i ItemDispenser.obj
 0001:00008780       ??C?$CComPtrBase@UIPersistStream@@@ATL@@QBEPAV?$_NoAddRefReleaseOnCComPtr@UIPersistStream@@@1@XZ 10009780 f i ItemDispenser.obj
 0001:000087d0       ??C?$CComPtrBase@UIPersistStreamInit@@@ATL@@QBEPAV?$_NoAddRefReleaseOnCComPtr@UIPersistStreamInit@@@1@XZ 100097d0 f i ItemDispenser.obj
 0001:00008820       ??C?$CComPtrBase@UIPointerInactive@@@ATL@@QBEPAV?$_NoAddRefReleaseOnCComPtr@UIPointerInactive@@@1@XZ 10009820 f i ItemDispenser.obj
 0001:00008870       ??C?$CComPtrBase@UIProvideClassInfo2@@@ATL@@QBEPAV?$_NoAddRefReleaseOnCComPtr@UIProvideClassInfo2@@@1@XZ 10009870 f i ItemDispenser.obj
 0001:000088c0       ??C?$CComPtrBase@UISpecifyPropertyPages@@@ATL@@QBEPAV?$_NoAddRefReleaseOnCComPtr@UISpecifyPropertyPages@@@1@XZ 100098c0 f i ItemDispenser.obj
 0001:00008910       ??C?$CComPtrBase@UITypeInfo@@@ATL@@QBEPAV?$_NoAddRefReleaseOnCComPtr@UITypeInfo@@@1@XZ 10009910 f i ItemDispenser.obj
 0001:00008960       ??C?$CComPtrBase@UITypeLib@@@ATL@@QBEPAV?$_NoAddRefReleaseOnCComPtr@UITypeLib@@@1@XZ 10009960 f i ItemDispenser.obj
 0001:000089b0       ??C?$CComPtrBase@UIUnknown@@@ATL@@QBEPAV?$_NoAddRefReleaseOnCComPtr@UIUnknown@@@1@XZ 100099b0 f i ItemDispenser.obj
 0001:00008a00       ??C?$CComPtrBase@UIViewObjectEx@@@ATL@@QBEPAV?$_NoAddRefReleaseOnCComPtr@UIViewObjectEx@@@1@XZ 10009a00 f i ItemDispenser.obj
 0001:00008a50       ??I?$CComPtrBase@UICatRegister@@@ATL@@QAEPAPAUICatRegister@@XZ 10009a50 f i ItemDispenser.obj
 0001:00008aa0       ??I?$CComPtrBase@UIConnectionPoint@@@ATL@@QAEPAPAUIConnectionPoint@@XZ 10009aa0 f i ItemDispenser.obj
 0001:00008af0       ??I?$CComPtrBase@UIConnectionPointContainer@@@ATL@@QAEPAPAUIConnectionPointContainer@@XZ 10009af0 f i ItemDispenser.obj
 0001:00008b40       ??I?$CComPtrBase@UIDataAdviseHolder@@@ATL@@QAEPAPAUIDataAdviseHolder@@XZ 10009b40 f i ItemDispenser.obj
 0001:00008b90       ??I?$CComPtrBase@UIDataObject@@@ATL@@QAEPAPAUIDataObject@@XZ 10009b90 f i ItemDispenser.obj
 0001:00008be0       ??I?$CComPtrBase@UIDispatch@@@ATL@@QAEPAPAUIDispatch@@XZ 10009be0 f i ItemDispenser.obj
 0001:00008c30       ??I?$CComPtrBase@UIOleAdviseHolder@@@ATL@@QAEPAPAUIOleAdviseHolder@@XZ 10009c30 f i ItemDispenser.obj
 0001:00008c80       ??I?$CComPtrBase@UIOleControlSite@@@ATL@@QAEPAPAUIOleControlSite@@XZ 10009c80 f i ItemDispenser.obj
 0001:00008cd0       ??I?$CComPtrBase@UIOleInPlaceActiveObject@@@ATL@@QAEPAPAUIOleInPlaceActiveObject@@XZ 10009cd0 f i ItemDispenser.obj
 0001:00008d20       ??I?$CComPtrBase@UIOleInPlaceFrame@@@ATL@@QAEPAPAUIOleInPlaceFrame@@XZ 10009d20 f i ItemDispenser.obj
 0001:00008d70       ??I?$CComPtrBase@UIOleInPlaceObject@@@ATL@@QAEPAPAUIOleInPlaceObject@@XZ 10009d70 f i ItemDispenser.obj
 0001:00008dc0       ??I?$CComPtrBase@UIOleInPlaceSiteWindowless@@@ATL@@QAEPAPAUIOleInPlaceSiteWindowless@@XZ 10009dc0 f i ItemDispenser.obj
 0001:00008e10       ??I?$CComPtrBase@UIOleInPlaceUIWindow@@@ATL@@QAEPAPAUIOleInPlaceUIWindow@@XZ 10009e10 f i ItemDispenser.obj
 0001:00008e60       ??I?$CComPtrBase@UIOleObject@@@ATL@@QAEPAPAUIOleObject@@XZ 10009e60 f i ItemDispenser.obj
 0001:00008eb0       ??I?$CComPtrBase@UIPersistStream@@@ATL@@QAEPAPAUIPersistStream@@XZ 10009eb0 f i ItemDispenser.obj
 0001:00008f00       ??I?$CComPtrBase@UIPointerInactive@@@ATL@@QAEPAPAUIPointerInactive@@XZ 10009f00 f i ItemDispenser.obj
 0001:00008f50       ??I?$CComPtrBase@UIProvideClassInfo2@@@ATL@@QAEPAPAUIProvideClassInfo2@@XZ 10009f50 f i ItemDispenser.obj
 0001:00008fa0       ??I?$CComPtrBase@UIStream@@@ATL@@QAEPAPAUIStream@@XZ 10009fa0 f i ItemDispenser.obj
 0001:00008ff0       ??I?$CComPtrBase@UITypeInfo2@@@ATL@@QAEPAPAUITypeInfo2@@XZ 10009ff0 f i ItemDispenser.obj
 0001:00009040       ??I?$CComPtrBase@UITypeInfo@@@ATL@@QAEPAPAUITypeInfo@@XZ 1000a040 f i ItemDispenser.obj
 0001:00009090       ??I?$CComPtrBase@UITypeLib@@@ATL@@QAEPAPAUITypeLib@@XZ 1000a090 f i ItemDispenser.obj
 0001:000090e0       ??I?$CComPtrBase@UIUnknown@@@ATL@@QAEPAPAUIUnknown@@XZ 1000a0e0 f i ItemDispenser.obj
 0001:00009130       ??I?$CComPtrBase@UIViewObjectEx@@@ATL@@QAEPAPAUIViewObjectEx@@XZ 1000a130 f i ItemDispenser.obj
 0001:00009180       ??ICComBSTR@ATL@@QAEPAPA_WXZ 1000a180 f i ItemDispenser.obj
 0001:00009195       ??_E?$CComContainedObject@VCOPOSItemDispenser@@@ATL@@W3AEPAXI@Z 1000a195 f i ItemDispenser.obj
 0001:0000919d       ??_E?$CComContainedObject@VCOPOSItemDispenser@@@ATL@@WEM@AEPAXI@Z 1000a19d f i ItemDispenser.obj
 0001:000091a5       ??_E?$CComObject@VCOPOSItemDispenser@@@ATL@@W3AEPAXI@Z 1000a1a5 f i ItemDispenser.obj
 0001:000091ad       ??_E?$CComObject@VCOPOSItemDispenser@@@ATL@@WEM@AEPAXI@Z 1000a1ad f i ItemDispenser.obj
 0001:000091c0       ??_E?$CComAggObject@VCOPOSItemDispenser@@@ATL@@UAEPAXI@Z 1000a1c0 f i ItemDispenser.obj
 0001:000091c0       ??_G?$CComAggObject@VCOPOSItemDispenser@@@ATL@@UAEPAXI@Z 1000a1c0 f i ItemDispenser.obj
 0001:00009210       ??_E?$CComContainedObject@VCOPOSItemDispenser@@@ATL@@UAEPAXI@Z 1000a210 f i ItemDispenser.obj
 0001:00009210       ??_G?$CComContainedObject@VCOPOSItemDispenser@@@ATL@@UAEPAXI@Z 1000a210 f i ItemDispenser.obj
 0001:00009260       ??_E?$CComObject@V?$CComEnum@UIEnumConnectionPoints@@$1?_GUID_b196b285_bab4_101a_b69c_00aa00341d07@@3U__s_GUID@@BPAUIConnectionPoint@@V?$_CopyInterface@UIConnectionPoint@@@ATL@@VCComSingleThreadModel@6@@ATL@@@ATL@@UAEPAXI@Z 1000a260 f i ItemDispenser.obj
 0001:00009260       ??_G?$CComObject@V?$CComEnum@UIEnumConnectionPoints@@$1?_GUID_b196b285_bab4_101a_b69c_00aa00341d07@@3U__s_GUID@@BPAUIConnectionPoint@@V?$_CopyInterface@UIConnectionPoint@@@ATL@@VCComSingleThreadModel@6@@ATL@@@ATL@@UAEPAXI@Z 1000a260 f i ItemDispenser.obj
 0001:000092a0       ??_G?$CComObject@V?$CComEnum@UIEnumConnections@@$1?_GUID_b196b287_bab4_101a_b69c_00aa00341d07@@3U__s_GUID@@BUtagCONNECTDATA@@V?$_Copy@UtagCONNECTDATA@@@ATL@@VCComSingleThreadModel@6@@ATL@@@ATL@@UAEPAXI@Z 1000a2a0 f i ItemDispenser.obj
 0001:000092a0       ??_E?$CComObject@V?$CComEnum@UIEnumConnections@@$1?_GUID_b196b287_bab4_101a_b69c_00aa00341d07@@3U__s_GUID@@BUtagCONNECTDATA@@V?$_Copy@UtagCONNECTDATA@@@ATL@@VCComSingleThreadModel@6@@ATL@@@ATL@@UAEPAXI@Z 1000a2a0 f i ItemDispenser.obj
 0001:000092e0       ??_E?$CComObject@VCOPOSItemDispenser@@@ATL@@UAEPAXI@Z 1000a2e0 f i ItemDispenser.obj
 0001:000092e0       ??_G?$CComObject@VCOPOSItemDispenser@@@ATL@@UAEPAXI@Z 1000a2e0 f i ItemDispenser.obj
 0001:00009330       ??_G?$CComObjectCached@VCComClassFactory@ATL@@@ATL@@UAEPAXI@Z 1000a330 f i ItemDispenser.obj
 0001:00009330       ??_E?$CComObjectCached@VCComClassFactory@ATL@@@ATL@@UAEPAXI@Z 1000a330 f i ItemDispenser.obj
 0001:00009370       ??_ECComClassFactory@ATL@@UAEPAXI@Z 1000a370 f i ItemDispenser.obj
 0001:00009370       ??_GCComClassFactory@ATL@@UAEPAXI@Z 1000a370 f i ItemDispenser.obj
 0001:000093b0       ??_ECComModule@ATL@@UAEPAXI@Z 1000a3b0 f i ItemDispenser.obj
 0001:000093b0       ??_GCComModule@ATL@@UAEPAXI@Z 1000a3b0 f i ItemDispenser.obj
 0001:000093f0       ??_ECRegObject@ATL@@UAEPAXI@Z 1000a3f0 f i ItemDispenser.obj
 0001:000093f0       ??_GCRegObject@ATL@@UAEPAXI@Z 1000a3f0 f i ItemDispenser.obj
 0001:00009430       ?Add@?$CSimpleArray@GV?$CSimpleArrayEqualHelper@G@ATL@@@ATL@@QAEHABG@Z 1000a430 f i ItemDispenser.obj
 0001:00009580       ?Add@?$CSimpleMap@PA_WPA_WVCExpansionVectorEqualHelper@ATL@@@ATL@@QAEHABQA_W0@Z 1000a580 f i ItemDispenser.obj
 0001:00009640       ?Add@CComDynamicUnkArray@ATL@@QAEKPAUIUnknown@@@Z 1000a640 f i ItemDispenser.obj
 0001:000097e0       ?Add@CExpansionVector@ATL@@QAEHPB_W0@Z 1000a7e0 f i ItemDispenser.obj
 0001:00009a70       ?AddChar@CParseBuffer@CRegParser@ATL@@QAEHPB_W@Z 1000aa70 f i ItemDispenser.obj
 0001:00009ab0       ?AddCommonRGSReplacements@?$CAtlModuleT@VCComModule@ATL@@@ATL@@UAEJPAUIRegistrarBase@@@Z 1000aab0 f i ItemDispenser.obj
 0001:00009b00       ?AddCreateWndData@CAtlWinModule@ATL@@QAEXPAU_AtlCreateWndData@2@PAX@Z 1000ab00 f i ItemDispenser.obj
 0001:00009b30       ?AddRef@?$CComAggObject@VCOPOSItemDispenser@@@ATL@@UAGKXZ 1000ab30 f i ItemDispenser.obj
 0001:00009b50       ?AddRef@?$CComContainedObject@VCOPOSItemDispenser@@@ATL@@UAGKXZ 1000ab50 f i ItemDispenser.obj
 0001:00009b6c       ?AddRef@?$CComContainedObject@VCOPOSItemDispenser@@@ATL@@WHA@AGKXZ 1000ab6c f i ItemDispenser.obj
 0001:00009b76       ?AddRef@?$CComContainedObject@VCOPOSItemDispenser@@@ATL@@WHE@AGKXZ 1000ab76 f i ItemDispenser.obj
 0001:00009b80       ?AddRef@?$CComContainedObject@VCOPOSItemDispenser@@@ATL@@WHI@AGKXZ 1000ab80 f i ItemDispenser.obj
 0001:00009b8a       ?AddRef@?$CComContainedObject@VCOPOSItemDispenser@@@ATL@@WHM@AGKXZ 1000ab8a f i ItemDispenser.obj
 0001:00009b94       ?AddRef@?$CComContainedObject@VCOPOSItemDispenser@@@ATL@@WIA@AGKXZ 1000ab94 f i ItemDispenser.obj
 0001:00009ba1       ?AddRef@?$CComContainedObject@VCOPOSItemDispenser@@@ATL@@WIE@AGKXZ 1000aba1 f i ItemDispenser.obj
 0001:00009bae       ?AddRef@?$CComContainedObject@VCOPOSItemDispenser@@@ATL@@WII@AGKXZ 1000abae f i ItemDispenser.obj
 0001:00009bbb       ?AddRef@?$CComContainedObject@VCOPOSItemDispenser@@@ATL@@WIM@AGKXZ 1000abbb f i ItemDispenser.obj
 0001:00009bc8       ?AddRef@?$CComContainedObject@VCOPOSItemDispenser@@@ATL@@WJA@AGKXZ 1000abc8 f i ItemDispenser.obj
 0001:00009bd5       ?AddRef@?$CComContainedObject@VCOPOSItemDispenser@@@ATL@@WJE@AGKXZ 1000abd5 f i ItemDispenser.obj
 0001:00009be2       ?AddRef@?$CComContainedObject@VCOPOSItemDispenser@@@ATL@@WJI@AGKXZ 1000abe2 f i ItemDispenser.obj
 0001:00009bef       ?AddRef@?$CComContainedObject@VCOPOSItemDispenser@@@ATL@@WJM@AGKXZ 1000abef f i ItemDispenser.obj
 0001:00009bfc       ?AddRef@?$CComContainedObject@VCOPOSItemDispenser@@@ATL@@WKA@AGKXZ 1000abfc f i ItemDispenser.obj
 0001:00009c09       ?AddRef@?$CComContainedObject@VCOPOSItemDispenser@@@ATL@@WKI@AGKXZ 1000ac09 f i ItemDispenser.obj
 0001:00009c16       ?AddRef@?$CComContainedObject@VCOPOSItemDispenser@@@ATL@@WLE@AGKXZ 1000ac16 f i ItemDispenser.obj
 0001:00009c30       ?AddRef@?$CComObject@V?$CComEnum@UIEnumConnectionPoints@@$1?_GUID_b196b285_bab4_101a_b69c_00aa00341d07@@3U__s_GUID@@BPAUIConnectionPoint@@V?$_CopyInterface@UIConnectionPoint@@@ATL@@VCComSingleThreadModel@6@@ATL@@@ATL@@UAGKXZ 1000ac30 f i ItemDispenser.obj
 0001:00009c50       ?AddRef@?$CComObject@V?$CComEnum@UIEnumConnections@@$1?_GUID_b196b287_bab4_101a_b69c_00aa00341d07@@3U__s_GUID@@BUtagCONNECTDATA@@V?$_Copy@UtagCONNECTDATA@@@ATL@@VCComSingleThreadModel@6@@ATL@@@ATL@@UAGKXZ 1000ac50 f i ItemDispenser.obj
 0001:00009c70       ?AddRef@?$CComObject@VCOPOSItemDispenser@@@ATL@@UAGKXZ 1000ac70 f i ItemDispenser.obj
 0001:00009c8c       ?AddRef@?$CComObject@VCOPOSItemDispenser@@@ATL@@WHA@AGKXZ 1000ac8c f i ItemDispenser.obj
 0001:00009c96       ?AddRef@?$CComObject@VCOPOSItemDispenser@@@ATL@@WHE@AGKXZ 1000ac96 f i ItemDispenser.obj
 0001:00009ca0       ?AddRef@?$CComObject@VCOPOSItemDispenser@@@ATL@@WHI@AGKXZ 1000aca0 f i ItemDispenser.obj
 0001:00009caa       ?AddRef@?$CComObject@VCOPOSItemDispenser@@@ATL@@WHM@AGKXZ 1000acaa f i ItemDispenser.obj
 0001:00009cb4       ?AddRef@?$CComObject@VCOPOSItemDispenser@@@ATL@@WIA@AGKXZ 1000acb4 f i ItemDispenser.obj
 0001:00009cc1       ?AddRef@?$CComObject@VCOPOSItemDispenser@@@ATL@@WIE@AGKXZ 1000acc1 f i ItemDispenser.obj
 0001:00009cce       ?AddRef@?$CComObject@VCOPOSItemDispenser@@@ATL@@WII@AGKXZ 1000acce f i ItemDispenser.obj
 0001:00009cdb       ?AddRef@?$CComObject@VCOPOSItemDispenser@@@ATL@@WIM@AGKXZ 1000acdb f i ItemDispenser.obj
 0001:00009ce8       ?AddRef@?$CComObject@VCOPOSItemDispenser@@@ATL@@WJA@AGKXZ 1000ace8 f i ItemDispenser.obj
 0001:00009cf5       ?AddRef@?$CComObject@VCOPOSItemDispenser@@@ATL@@WJE@AGKXZ 1000acf5 f i ItemDispenser.obj
 0001:00009d02       ?AddRef@?$CComObject@VCOPOSItemDispenser@@@ATL@@WJI@AGKXZ 1000ad02 f i ItemDispenser.obj
 0001:00009d0f       ?AddRef@?$CComObject@VCOPOSItemDispenser@@@ATL@@WJM@AGKXZ 1000ad0f f i ItemDispenser.obj
 0001:00009d1c       ?AddRef@?$CComObject@VCOPOSItemDispenser@@@ATL@@WKA@AGKXZ 1000ad1c f i ItemDispenser.obj
 0001:00009d29       ?AddRef@?$CComObject@VCOPOSItemDispenser@@@ATL@@WKI@AGKXZ 1000ad29 f i ItemDispenser.obj
 0001:00009d36       ?AddRef@?$CComObject@VCOPOSItemDispenser@@@ATL@@WLE@AGKXZ 1000ad36 f i ItemDispenser.obj
 0001:00009d50       ?AddRef@?$CComObjectCached@VCComClassFactory@ATL@@@ATL@@UAGKXZ 1000ad50 f i ItemDispenser.obj
 0001:00009da0       ?AddRef@CRegObject@ATL@@UAGKXZ 1000ada0 f i ItemDispenser.obj
 0001:00009df0       ?AddReplacement@CRegObject@ATL@@UAGJPB_W0@Z 1000adf0 f i ItemDispenser.obj
 0001:00009f00       ?AddString@CParseBuffer@CRegParser@ATL@@QAEHPB_W@Z 1000af00 f i ItemDispenser.obj
 0001:00009ff0       ?AddTermFunc@CAtlModule@ATL@@QAEJP6GXK@ZK@Z 1000aff0 f i ItemDispenser.obj
 0001:0000a040       ?AddValue@CRegParser@ATL@@IAEJAAVCRegKey@2@PB_WPA_W@Z 1000b040 f i ItemDispenser.obj
 0001:0000a7d0       ?Advise@?$CProxy_IOPOSEvents@VCOPOSItemDispenser@@@@UAGJPAUIUnknown@@PAK@Z 1000b7d0 f i ItemDispenser.obj
 0001:0000a820       ?Advise@?$IConnectionPointImpl@VCOPOSItemDispenser@@$1?DIID__IOPOSItemDispenserEvents@@3U_GUID@@BVCComDynamicUnkArray@ATL@@@ATL@@UAGJPAUIUnknown@@PAK@Z 1000b820 f i ItemDispenser.obj
 0001:0000a9c0       ?Advise@?$IConnectionPointImpl@VCOPOSItemDispenser@@$1?IID_IPropertyNotifySink@@3U_GUID@@BVCComDynamicUnkArray@ATL@@@ATL@@UAGJPAUIUnknown@@PAK@Z 1000b9c0 f i ItemDispenser.obj
 0001:0000ab60       ?Advise@?$IOleObjectImpl@VCOPOSItemDispenser@@@ATL@@UAGJPAUIAdviseSink@@PAK@Z 1000bb60 f i ItemDispenser.obj
 0001:0000abf0       ?Allocate@?$CAtlSafeAllocBufferManager@VCCRTAllocator@ATL@@@_ATL_SAFE_ALLOCA_IMPL@ATL@@QAEPAXK@Z 1000bbf0 f i ItemDispenser.obj
 0001:0000ac60       ?Allocate@?$CTempBuffer@E$0BAA@VCCRTAllocator@ATL@@@ATL@@QAEPAEI@Z 1000bc60 f i ItemDispenser.obj
 0001:0000aca0       ?Allocate@?$CTempBuffer@_W$0BAA@VCCRTAllocator@ATL@@@ATL@@QAEPA_WI@Z 1000bca0 f i ItemDispenser.obj
 0001:0000ace0       ?Allocate@?$CTempBuffer@_W$0EAA@VCCRTAllocator@ATL@@@ATL@@QAEPA_WI@Z 1000bce0 f i ItemDispenser.obj
 0001:0000ad20       ?AllocateBytes@?$CTempBuffer@E$0BAA@VCCRTAllocator@ATL@@@ATL@@QAEPAEI@Z 1000bd20 f i ItemDispenser.obj
 0001:0000ada0       ?AllocateBytes@?$CTempBuffer@_W$0BAA@VCCRTAllocator@ATL@@@ATL@@QAEPA_WI@Z 1000bda0 f i ItemDispenser.obj
 0001:0000ae20       ?AllocateBytes@?$CTempBuffer@_W$0EAA@VCCRTAllocator@ATL@@@ATL@@QAEPA_WI@Z 1000be20 f i ItemDispenser.obj
 0001:0000aea0       ?AllocateHeap@?$CTempBuffer@E$0BAA@VCCRTAllocator@ATL@@@ATL@@AAEXI@Z 1000bea0 f i ItemDispenser.obj
 0001:0000aef0       ?AllocateHeap@?$CTempBuffer@_W$0BAA@VCCRTAllocator@ATL@@@ATL@@AAEXI@Z 1000bef0 f i ItemDispenser.obj
 0001:0000af40       ?AllocateHeap@?$CTempBuffer@_W$0EAA@VCCRTAllocator@ATL@@@ATL@@AAEXI@Z 1000bf40 f i ItemDispenser.obj
 0001:0000af90       ?Append@CParseBuffer@CRegParser@ATL@@QAEHPB_WH@Z 1000bf90 f i ItemDispenser.obj
 0001:0000b130       ?AtlCallTermFunc@ATL@@YGXPAU_ATL_MODULE70@1@@Z 1000c130 f i ItemDispenser.obj
 0001:0000b1d0       ?AtlCoTaskMemCAlloc@ATL@@YAPAXKK@Z 1000c1d0 f i ItemDispenser.obj
 0001:0000b260       ?AtlCoTaskMemRecalloc@ATL@@YAPAXPAXKK@Z 1000c260 f i ItemDispenser.obj
 0001:0000b300       ?AtlComModuleGetClassObject@ATL@@YGJPAU_ATL_COM_MODULE70@1@ABU_GUID@@1PAPAX@Z 1000c300 f i ItemDispenser.obj
 0001:0000b590       ?AtlComModuleRegisterServer@ATL@@YGJPAU_ATL_COM_MODULE70@1@HPBU_GUID@@@Z 1000c590 f i ItemDispenser.obj
 0001:0000b720       ?AtlComModuleUnregisterServer@ATL@@YGJPAU_ATL_COM_MODULE70@1@HPBU_GUID@@@Z 1000c720 f i ItemDispenser.obj
 0001:0000b850       ?AtlComQIPtrAssign2@ATL@@YAXPAPAUIUnknown@@PAU2@ABU_GUID@@@Z 1000c850 f i ItemDispenser.obj
 0001:0000b8d0       ?AtlCreateTargetDC@ATL@@YGPAUHDC__@@PAU2@PAUtagDVTARGETDEVICE@@@Z 1000c8d0 f i ItemDispenser.obj
 0001:0000ba70       ?AtlCrtErrorCheck@ATL@@YAHH@Z 1000ca70 f i ItemDispenser.obj
 0001:0000bb40       ?AtlGetPerUserRegistration@ATL@@YGJPA_N@Z 1000cb40 f i ItemDispenser.obj
 0001:0000bb70       ?AtlHiMetricToPixel@ATL@@YGXPBUtagSIZE@@PAU2@@Z 1000cb70 f i ItemDispenser.obj
 0001:0000bd40       ?AtlHresultFromLastError@ATL@@YAJXZ 1000cd40 f i ItemDispenser.obj
 0001:0000bd80       ?AtlHresultFromWin32@ATL@@YAJK@Z 1000cd80 f i ItemDispenser.obj
 0001:0000bda0       ?AtlIPersistStreamInit_Load@ATL@@YGJPAUIStream@@PBUATL_PROPMAP_ENTRY@1@PAXPAUIUnknown@@@Z 1000cda0 f i ItemDispenser.obj
 0001:0000c200       ?AtlIPersistStreamInit_Save@ATL@@YGJPAUIStream@@HPBUATL_PROPMAP_ENTRY@1@PAXPAUIUnknown@@@Z 1000d200 f i ItemDispenser.obj
 0001:0000c5e0       ?AtlInternalOleLoadFromStream@ATL@@YAJPAUIStream@@ABU_GUID@@PAPAXTClassesAllowedInStream@1@K@Z 1000d5e0 f i ItemDispenser.obj
 0001:0000c880       ?AtlInternalQueryInterface@ATL@@YGJPAXPBU_ATL_INTMAP_ENTRY@1@ABU_GUID@@PAPAX@Z 1000d880 f i ItemDispenser.obj
 0001:0000cab0       ?AtlLoadTypeLib@ATL@@YGJPAUHINSTANCE__@@PB_WPAPA_WPAPAUITypeLib@@@Z 1000dab0 f i ItemDispenser.obj
 0001:0000cf10       ?AtlModuleAddTermFunc@ATL@@YGJPAU_ATL_MODULE70@1@P6GXK@ZK@Z 1000df10 f i ItemDispenser.obj
 0001:0000d070       ?AtlRegisterClassCategoriesHelper@ATL@@YGJABU_GUID@@PBU_ATL_CATMAP_ENTRY@1@H@Z 1000e070 f i ItemDispenser.obj
 0001:0000d750       ?AtlRegisterTypeLib@ATL@@YGJPAUHINSTANCE__@@PB_W@Z 1000e750 f i ItemDispenser.obj
 0001:0000da90       ?AtlThrowImpl@ATL@@YGXJ@Z  1000ea90 f i ItemDispenser.obj
 0001:0000db40       ?AtlUnRegisterTypeLib@ATL@@YGJPAUHINSTANCE__@@PB_W@Z 1000eb40 f i ItemDispenser.obj
 0001:0000dd50       ?AtlWinModuleAddCreateWndData@ATL@@YGXPAU_ATL_WIN_MODULE70@1@PAU_AtlCreateWndData@1@PAX@Z 1000ed50 f i ItemDispenser.obj
 0001:0000dec0       ?AtlWinModuleExtractCreateWndData@ATL@@YGPAXPAU_ATL_WIN_MODULE70@1@@Z 1000eec0 f i ItemDispenser.obj
 0001:0000e040       ?AtlWinModuleRegisterClassExW@ATL@@YGGPAU_ATL_WIN_MODULE70@1@PBUtagWNDCLASSEXW@@@Z 1000f040 f i ItemDispenser.obj
 0001:0000e110       ?AtlWinModuleRegisterWndClassInfoW@ATL@@YGGPAU_ATL_WIN_MODULE70@1@PAU_ATL_BASE_MODULE70@1@PAU_ATL_WNDCLASSINFOW@1@PAP6GJPAUHWND__@@IIJ@Z@Z 1000f110 f i ItemDispenser.obj
 0001:0000e1a0       ?Attach@?$CAutoVectorPtr@_W@ATL@@QAEXPA_W@Z 1000f1a0 f i ItemDispenser.obj
 0001:0000e200       ?Attach@CComBSTR@ATL@@QAEXPA_W@Z 1000f200 f i ItemDispenser.obj
 0001:0000e250       ?Attach@CRegKey@ATL@@QAEXPAUHKEY__@@@Z 1000f250 f i ItemDispenser.obj
 0001:0000e2c0       ?CanForceRemoveKey@CRegParser@ATL@@IAEHPB_W@Z 1000f2c0 f i ItemDispenser.obj
 0001:0000e330       ?ChToByte@CRegParser@ATL@@KAE_W@Z 1000f330 f i ItemDispenser.obj
 0001:0000e450       ?ChangeType@CComVariant@ATL@@QAEJGPBUtagVARIANT@@@Z 1000f450 f i ItemDispenser.obj
 0001:0000e4b0       ?Cleanup@CComTypeInfoHolder@ATL@@SGXK@Z 1000f4b0 f i ItemDispenser.obj
 0001:0000e580       ?Clear@CComVariant@ATL@@QAEJXZ 1000f580 f i ItemDispenser.obj
 0001:0000e5c0       ?ClearReplacements@CExpansionVector@ATL@@QAEJXZ 1000f5c0 f i ItemDispenser.obj
 0001:0000e650       ?ClearReplacements@CRegObject@ATL@@UAGJXZ 1000f650 f i ItemDispenser.obj
 0001:0000e6a0       ?Clone@?$CComEnumImpl@UIEnumConnectionPoints@@$1?_GUID_b196b285_bab4_101a_b69c_00aa00341d07@@3U__s_GUID@@BPAUIConnectionPoint@@V?$_CopyInterface@UIConnectionPoint@@@ATL@@@ATL@@UAGJPAPAUIEnumConnectionPoints@@@Z 1000f6a0 f i ItemDispenser.obj
 0001:0000e810       ?Clone@?$CComEnumImpl@UIEnumConnections@@$1?_GUID_b196b287_bab4_101a_b69c_00aa00341d07@@3U__s_GUID@@BUtagCONNECTDATA@@V?$_Copy@UtagCONNECTDATA@@@ATL@@@ATL@@UAGJPAPAUIEnumConnections@@@Z 1000f810 f i ItemDispenser.obj
 0001:0000e980       ?Close@?$IOleObjectImpl@VCOPOSItemDispenser@@@ATL@@UAGJK@Z 1000f980 f i ItemDispenser.obj
 0001:0000ea10       ?Close@CRegKey@ATL@@QAEJXZ 1000fa10 f i ItemDispenser.obj
 0001:0000ea80       ?ContextSensitiveHelp@?$IOleInPlaceActiveObjectImpl@VCOPOSItemDispenser@@@ATL@@UAGJH@Z 1000fa80 f i ItemDispenser.obj
 0001:0000eaf0       ?ContextSensitiveHelp@?$IOleInPlaceObjectWindowlessImpl@VCOPOSItemDispenser@@@ATL@@UAGJH@Z 1000faf0 f i ItemDispenser.obj
 0001:0000eb60       ?ControlQueryInterface@?$CComControl@VCOPOSItemDispenser@@V?$CWindowImpl@VCOPOSItemDispenser@@VCWindow@ATL@@V?$CWinTraits@$0FGAAAAAA@$0A@@3@@ATL@@@ATL@@UAEJABU_GUID@@PAPAX@Z 1000fb60 f i ItemDispenser.obj
 0001:0000ebe0       ?CreateControlWindow@?$CComControl@VCOPOSItemDispenser@@V?$CWindowImpl@VCOPOSItemDispenser@@VCWindow@ATL@@V?$CWinTraits@$0FGAAAAAA@$0A@@3@@ATL@@@ATL@@UAEPAUHWND__@@PAU3@AAUtagRECT@@@Z 1000fbe0 f i ItemDispenser.obj
 0001:0000ec60       ?CreateInstance@?$CComCreator@V?$CComAggObject@VCOPOSItemDispenser@@@ATL@@@ATL@@SGJPAXABU_GUID@@PAPAX@Z 1000fc60 f i ItemDispenser.obj
 0001:0000ede0       ?CreateInstance@?$CComCreator@V?$CComObject@VCOPOSItemDispenser@@@ATL@@@ATL@@SGJPAXABU_GUID@@PAPAX@Z 1000fde0 f i ItemDispenser.obj
 0001:0000ef70       ?CreateInstance@?$CComObject@V?$CComEnum@UIEnumConnectionPoints@@$1?_GUID_b196b285_bab4_101a_b69c_00aa00341d07@@3U__s_GUID@@BPAUIConnectionPoint@@V?$_CopyInterface@UIConnectionPoint@@@ATL@@VCComSingleThreadModel@6@@ATL@@@ATL@@SGJPAPAV12@@Z 1000ff70 f i ItemDispenser.obj
 0001:0000f0e0       ?CreateInstance@?$CComObject@V?$CComEnum@UIEnumConnections@@$1?_GUID_b196b287_bab4_101a_b69c_00aa00341d07@@3U__s_GUID@@BUtagCONNECTDATA@@V?$_Copy@UtagCONNECTDATA@@@ATL@@VCComSingleThreadModel@6@@ATL@@@ATL@@SGJPAPAV12@@Z 100100e0 f i ItemDispenser.obj
 0001:0000f250       ?CreateInstance@CComClassFactory@ATL@@UAGJPAUIUnknown@@ABU_GUID@@PAPAX@Z 10010250 f i ItemDispenser.obj
 0001:0000f340       ?DAdvise@?$IDataObjectImpl@VCOPOSItemDispenser@@@ATL@@UAGJPAUtagFORMATETC@@KPAUIAdviseSink@@PAK@Z 10010340 f i ItemDispenser.obj
 0001:0000f440       ?DEVMODEOLE2T_EX@@YAPAU_devicemodeW@@PAU1@@Z 10010440 f i ItemDispenser.obj
 0001:0000f450       ?DUnadvise@?$IDataObjectImpl@VCOPOSItemDispenser@@@ATL@@UAGJK@Z 10010450 f i ItemDispenser.obj
 0001:0000f520       ?Decrement@CComMultiThreadModel@ATL@@SGKPAJ@Z 10010520 f i ItemDispenser.obj
 0001:0000f540       ?Decrement@CComSingleThreadModel@ATL@@SGKPAJ@Z 10010540 f i ItemDispenser.obj
 0001:0000f560       ?DefWindowProcW@?$CWindowImplBaseT@VCWindow@ATL@@V?$CWinTraits@$0FGAAAAAA@$0A@@2@@ATL@@QAEJIIJ@Z 10010560 f i ItemDispenser.obj
 0001:0000f5b0       ?DefaultReflectionHandler@?$CWindowImplRoot@VCWindow@ATL@@@ATL@@SAHPAUHWND__@@IIJAAJ@Z 100105b0 f i ItemDispenser.obj
 0001:0000f7a0       ?DeleteSubKey@CRegKey@ATL@@QAEJPB_W@Z 100107a0 f i ItemDispenser.obj
 0001:0000f8b0       ?DeleteValue@CRegKey@ATL@@QAEJPB_W@Z 100108b0 f i ItemDispenser.obj
 0001:0000f920       ?Detach@?$CAutoVectorPtr@_W@ATL@@QAEPA_WXZ 10010920 f i ItemDispenser.obj
 0001:0000f950       ?Detach@?$CComPtrBase@UIPersistStream@@@ATL@@QAEPAUIPersistStream@@XZ 10010950 f i ItemDispenser.obj
 0001:0000f980       ?Detach@?$CComPtrBase@UITypeInfo@@@ATL@@QAEPAUITypeInfo@@XZ 10010980 f i ItemDispenser.obj
 0001:0000f9b0       ?Detach@?$CComPtrBase@UIUnknown@@@ATL@@QAEPAUIUnknown@@XZ 100109b0 f i ItemDispenser.obj
 0001:0000f9e0       ?Detach@CComBSTR@ATL@@QAEPA_WXZ 100109e0 f i ItemDispenser.obj
 0001:0000fa10       ?Detach@CParseBuffer@CRegParser@ATL@@QAEPA_WXZ 10010a10 f i ItemDispenser.obj
 0001:0000fa60       ?Detach@CRegKey@ATL@@QAEPAUHKEY__@@XZ 10010a60 f i ItemDispenser.obj
 0001:0000fab0       ?DoEvent@COPOSItemDispenser@@IAEXIIJ@Z 10010ab0 f i ItemDispenser.obj
 0001:0000fbf0       ?DoVerb@?$IOleObjectImpl@VCOPOSItemDispenser@@@ATL@@UAGJJPAUtagMSG@@PAUIOleClientSite@@JPAUHWND__@@PBUtagRECT@@@Z 10010bf0 f i ItemDispenser.obj
 0001:0000fe00       ?DoVerbDiscardUndo@?$IOleObjectImpl@VCOPOSItemDispenser@@@ATL@@QAEJPBUtagRECT@@PAUHWND__@@@Z 10010e00 f i ItemDispenser.obj
 0001:0000fe70       ?DoVerbHide@?$IOleObjectImpl@VCOPOSItemDispenser@@@ATL@@QAEJPBUtagRECT@@PAUHWND__@@@Z 10010e70 f i ItemDispenser.obj
 0001:0000ff20       ?DoVerbInPlaceActivate@?$IOleObjectImpl@VCOPOSItemDispenser@@@ATL@@QAEJPBUtagRECT@@PAUHWND__@@@Z 10010f20 f i ItemDispenser.obj
 0001:0000ffc0       ?DoVerbOpen@?$IOleObjectImpl@VCOPOSItemDispenser@@@ATL@@QAEJPBUtagRECT@@PAUHWND__@@@Z 10010fc0 f i ItemDispenser.obj
 0001:00010030       ?DoVerbPrimary@?$IOleObjectImpl@VCOPOSItemDispenser@@@ATL@@QAEJPBUtagRECT@@PAUHWND__@@@Z 10011030 f i ItemDispenser.obj
 0001:00010140       ?DoVerbProperties@CComControlBase@ATL@@QAEJPBUtagRECT@@PAUHWND__@@@Z 10011140 f i ItemDispenser.obj
 0001:00010460       ?DoVerbShow@?$IOleObjectImpl@VCOPOSItemDispenser@@@ATL@@QAEJPBUtagRECT@@PAUHWND__@@@Z 10011460 f i ItemDispenser.obj
 0001:000104f0       ?DoVerbUIActivate@?$IOleObjectImpl@VCOPOSItemDispenser@@@ATL@@QAEJPBUtagRECT@@PAUHWND__@@@Z 100114f0 f i ItemDispenser.obj
 0001:00010590       ?DoesVerbActivate@CComControlBase@ATL@@QAEHJ@Z 10011590 f i ItemDispenser.obj
 0001:00010600       ?DoesVerbUIActivate@CComControlBase@ATL@@QAEHJ@Z 10011600 f i ItemDispenser.obj
 0001:00010680       ?Draw@?$IViewObjectExImpl@VCOPOSItemDispenser@@@ATL@@UAGJKJPAXPAUtagDVTARGETDEVICE@@PAUHDC__@@2PBU_RECTL@@3P6GHK@ZK@Z 10011680 f i ItemDispenser.obj
 0001:00010720       ?Empty@CComBSTR@ATL@@QAEXXZ 10011720 f i ItemDispenser.obj
 0001:00010760       ?EnableModeless@?$IOleInPlaceActiveObjectImpl@VCOPOSItemDispenser@@@ATL@@UAGJH@Z 10011760 f i ItemDispenser.obj
 0001:000107c0       ?EndOfVar@CRegParser@ATL@@IAEHXZ 100117c0 f i ItemDispenser.obj
 0001:00010830       ?EnsureTI@CComTypeInfoHolder@ATL@@QAEJK@Z 10011830 f i ItemDispenser.obj
 0001:00010890       ?EnumAdvise@?$IOleObjectImpl@VCOPOSItemDispenser@@@ATL@@UAGJPAPAUIEnumSTATDATA@@@Z 10011890 f i ItemDispenser.obj
 0001:000109a0       ?EnumConnectionPoints@?$IConnectionPointContainerImpl@VCOPOSItemDispenser@@@ATL@@UAGJPAPAUIEnumConnectionPoints@@@Z 100119a0 f i ItemDispenser.obj
 0001:00010dd0       ?EnumConnections@?$IConnectionPointImpl@VCOPOSItemDispenser@@$1?DIID__IOPOSItemDispenserEvents@@3U_GUID@@BVCComDynamicUnkArray@ATL@@@ATL@@UAGJPAPAUIEnumConnections@@@Z 10011dd0 f i ItemDispenser.obj
 0001:00011020       ?EnumConnections@?$IConnectionPointImpl@VCOPOSItemDispenser@@$1?IID_IPropertyNotifySink@@3U_GUID@@BVCComDynamicUnkArray@ATL@@@ATL@@UAGJPAPAUIEnumConnections@@@Z 10012020 f i ItemDispenser.obj
 0001:00011270       ?EnumDAdvise@?$IDataObjectImpl@VCOPOSItemDispenser@@@ATL@@UAGJPAPAUIEnumSTATDATA@@@Z 10012270 f i ItemDispenser.obj
 0001:00011370       ?EnumFormatEtc@?$IDataObjectImpl@VCOPOSItemDispenser@@@ATL@@UAGJKPAPAUIEnumFORMATETC@@@Z 10012370 f i ItemDispenser.obj
 0001:000113e0       ?EnumVerbs@?$IOleObjectImpl@VCOPOSItemDispenser@@@ATL@@UAGJPAPAUIEnumOLEVERB@@@Z 100123e0 f i ItemDispenser.obj
 0001:00011490       ?EscapeSingleQuote@CAtlModule@ATL@@SAXPA_WIPB_W@Z 10012490 f i ItemDispenser.obj
 0001:00011540       ?ExtractCreateWndData@CAtlWinModule@ATL@@QAEPAXXZ 10012540 f i ItemDispenser.obj
 0001:00011570       ?FAccessAllowed@?$IObjectSafetyImpl@VCOPOSItemDispenser@@$02@ATL@@MAEHXZ 10012570 f i ItemDispenser.obj
 0001:00011590       ?FinalConstruct@?$CComAggObject@VCOPOSItemDispenser@@@ATL@@QAEJXZ 10012590 f i ItemDispenser.obj
 0001:000115d0       ?FinalConstruct@CComObjectRootBase@ATL@@QAEJXZ 100125d0 f i ItemDispenser.obj
 0001:000115f0       ?FinalConstruct@CRegObject@ATL@@QAEJXZ 100125f0 f i ItemDispenser.obj
 0001:00011620       ?FinalRelease@?$CComAggObject@VCOPOSItemDispenser@@@ATL@@QAEXXZ 10012620 f i ItemDispenser.obj
 0001:00011660       ?FinalRelease@CComObjectRootBase@ATL@@QAEXXZ 10012660 f i ItemDispenser.obj
 0001:00011680       ?FindConnectionPoint@?$IConnectionPointContainerImpl@VCOPOSItemDispenser@@@ATL@@UAGJABU_GUID@@PAPAUIConnectionPoint@@@Z 10012680 f i ItemDispenser.obj
 0001:000117d0       ?FindKey@?$CSimpleMap@PA_WPA_WVCExpansionVectorEqualHelper@ATL@@@ATL@@QBEHABQA_W@Z 100127d0 f i ItemDispenser.obj
 0001:00011840       ?FireTheEvent@?$CProxy_IOPOSEvents@VCOPOSItemDispenser@@@@IAEXPAUIUnknown@@PAVOposVariant@@IAAJPB_WJ@Z 10012840 f i ItemDispenser.obj
 0001:000119b0       ?FireViewChange@CComControlBase@ATL@@QAEJXZ 100129b0 f i ItemDispenser.obj
 0001:00011a70       ?Fire_DirectIOEvent@?$CProxy_IOPOSEvents@VCOPOSItemDispenser@@@@QAEXJPAJPAPA_W@Z 10012a70 f i ItemDispenser.obj
 0001:00011c40       ?Fire_StatusUpdateEvent@?$CProxy_IOPOSEvents@VCOPOSItemDispenser@@@@QAEXJ@Z 10012c40 f i ItemDispenser.obj
 0001:00011da0       ?FormatWindowClassName@AtlModuleRegisterWndClassInfoParamW@ATL@@SAXPA_WKPAX@Z 10012da0 f i ItemDispenser.obj
 0001:00011dd0       ?Free@?$CAutoVectorPtr@_W@ATL@@QAEXXZ 10012dd0 f i ItemDispenser.obj
 0001:00011e20       ?FreeHeap@?$CTempBuffer@E$0BAA@VCCRTAllocator@ATL@@@ATL@@AAEXXZ 10012e20 f i ItemDispenser.obj
 0001:00011e50       ?FreeHeap@?$CTempBuffer@_W$0BAA@VCCRTAllocator@ATL@@@ATL@@AAEXXZ 10012e50 f i ItemDispenser.obj
 0001:00011e80       ?FreeHeap@?$CTempBuffer@_W$0EAA@VCCRTAllocator@ATL@@@ATL@@AAEXXZ 10012e80 f i ItemDispenser.obj
 0001:00011eb0       ?Freeze@?$IViewObjectExImpl@VCOPOSItemDispenser@@@ATL@@UAGJKJPAXPAK@Z 10012eb0 f i ItemDispenser.obj
 0001:00011f20       ?GenerateError@CRegParser@ATL@@IAEJI@Z 10012f20 f i ItemDispenser.obj
 0001:00011f40       ?GetAdvise@?$IViewObjectExImpl@VCOPOSItemDispenser@@@ATL@@UAGJPAK0PAPAUIAdviseSink@@@Z 10012f40 f i ItemDispenser.obj
 0001:00012040       ?GetAmbientLocaleID@CComControlBase@ATL@@QAEJAAK@Z 10013040 f i ItemDispenser.obj
 0001:00012120       ?GetAmbientProperty@CComControlBase@ATL@@QAEJJAAUtagVARIANT@@@Z 10013120 f i ItemDispenser.obj
 0001:00012170       ?GetAmbientUserMode@CComControlBase@ATL@@QAEJAAH@Z 10013170 f i ItemDispenser.obj
 0001:00012270       ?GetAppId@?$CAtlModuleT@VCComModule@ATL@@@ATL@@SAPB_WXZ 10013270 f i ItemDispenser.obj
 0001:00012280       ?GetAt@CComDynamicUnkArray@ATL@@QAEPAUIUnknown@@H@Z 10013280 f i ItemDispenser.obj
 0001:00012300       ?GetCanonicalFormatEtc@?$IDataObjectImpl@VCOPOSItemDispenser@@@ATL@@UAGJPAUtagFORMATETC@@0@Z 10013300 f i ItemDispenser.obj
 0001:00012370       ?GetClassID@?$IPersistStorageImpl@VCOPOSItemDispenser@@@ATL@@UAGJPAU_GUID@@@Z 10013370 f i ItemDispenser.obj
 0001:000123f0       ?GetClassID@?$IPersistStreamInitImpl@VCOPOSItemDispenser@@@ATL@@UAGJPAU_GUID@@@Z 100133f0 f i ItemDispenser.obj
 0001:00012470       ?GetClassInfoExW@AtlModuleRegisterWndClassInfoParamW@ATL@@SAHPAUHINSTANCE__@@PB_WPAUtagWNDCLASSEXW@@@Z 10013470 f i ItemDispenser.obj
 0001:000124a0       ?GetClassInfoW@?$IProvideClassInfo2Impl@$1?CLSID_OPOSItemDispenser@@3U_GUID@@B$1?DIID__IOPOSItemDispenserEvents@@3U2@B$1?LIBID_OposItemDispenser_CCO@@3U2@B$00$0A@VCComTypeInfoHolder@ATL@@@ATL@@UAGJPAPAUITypeInfo@@@Z 100134a0 f i ItemDispenser.obj
 0001:000124c0       ?GetClassObject@CComModule@ATL@@QAEJABU_GUID@@0PAPAX@Z 100134c0 f i ItemDispenser.obj
 0001:000126c0       ?GetClientSite@?$IOleObjectImpl@VCOPOSItemDispenser@@@ATL@@UAGJPAPAUIOleClientSite@@@Z 100136c0 f i ItemDispenser.obj
 0001:00012750       ?GetClipboardData@?$IOleObjectImpl@VCOPOSItemDispenser@@@ATL@@UAGJKPAPAUIDataObject@@@Z 10013750 f i ItemDispenser.obj
 0001:000127c0       ?GetCodeAddress@CDynamicStdCallThunk2@ATL@@QAEPAXXZ 100137c0 f i ItemDispenser.obj
 0001:000127f0       ?GetColorSet@?$IViewObjectExImpl@VCOPOSItemDispenser@@@ATL@@UAGJKJPAXPAUtagDVTARGETDEVICE@@PAUHDC__@@PAPAUtagLOGPALETTE@@@Z 100137f0 f i ItemDispenser.obj
 0001:00012860       ?GetConnMap@COPOSItemDispenser@@SAPBU_ATL_CONNMAP_ENTRY@ATL@@PAH@Z 10013860 f i ItemDispenser.obj
 0001:000129a0       ?GetConnectionInterface@?$IConnectionPointImpl@VCOPOSItemDispenser@@$1?DIID__IOPOSItemDispenserEvents@@3U_GUID@@BVCComDynamicUnkArray@ATL@@@ATL@@UAGJPAU_GUID@@@Z 100139a0 f i ItemDispenser.obj
 0001:000129e0       ?GetConnectionInterface@?$IConnectionPointImpl@VCOPOSItemDispenser@@$1?IID_IPropertyNotifySink@@3U_GUID@@BVCComDynamicUnkArray@ATL@@@ATL@@UAGJPAU_GUID@@@Z 100139e0 f i ItemDispenser.obj
 0001:00012a20       ?GetConnectionPointContainer@?$IConnectionPointImpl@VCOPOSItemDispenser@@$1?DIID__IOPOSItemDispenserEvents@@3U_GUID@@BVCComDynamicUnkArray@ATL@@@ATL@@UAGJPAPAUIConnectionPointContainer@@@Z 10013a20 f i ItemDispenser.obj
 0001:00012a90       ?GetConnectionPointContainer@?$IConnectionPointImpl@VCOPOSItemDispenser@@$1?IID_IPropertyNotifySink@@3U_GUID@@BVCComDynamicUnkArray@ATL@@@ATL@@UAGJPAPAUIConnectionPointContainer@@@Z 10013a90 f i ItemDispenser.obj
 0001:00012b00       ?GetContentExtent@?$IQuickActivateImpl@VCOPOSItemDispenser@@@ATL@@UAGJPAUtagSIZE@@@Z 10013b00 f i ItemDispenser.obj
 0001:00012b90       ?GetControlInfo@?$IOleControlImpl@VCOPOSItemDispenser@@@ATL@@UAGJPAUtagCONTROLINFO@@@Z 10013b90 f i ItemDispenser.obj
 0001:00012c00       ?GetCookie@CComDynamicUnkArray@ATL@@QAGKPAPAUIUnknown@@@Z 10013c00 f i ItemDispenser.obj
 0001:00012cc0       ?GetData@?$IDataObjectImpl@VCOPOSItemDispenser@@@ATL@@UAGJPAUtagFORMATETC@@PAUtagSTGMEDIUM@@@Z 10013cc0 f i ItemDispenser.obj
 0001:00012d50       ?GetData@CAtlSafeAllocBufferNode@?$CAtlSafeAllocBufferManager@VCCRTAllocator@ATL@@@_ATL_SAFE_ALLOCA_IMPL@ATL@@QAEPAXXZ 10013d50 f i ItemDispenser.obj
 0001:00012d70       ?GetDataHere@?$IDataObjectImpl@VCOPOSItemDispenser@@@ATL@@UAGJPAUtagFORMATETC@@PAUtagSTGMEDIUM@@@Z 10013d70 f i ItemDispenser.obj
 0001:00012de0       ?GetDropTarget@?$IOleInPlaceObjectWindowlessImpl@VCOPOSItemDispenser@@@ATL@@UAGJPAPAUIDropTarget@@@Z 10013de0 f i ItemDispenser.obj
 0001:00012e50       ?GetExtent@?$IOleObjectImpl@VCOPOSItemDispenser@@@ATL@@UAGJKPAUtagSIZE@@@Z 10013e50 f i ItemDispenser.obj
 0001:00012ef0       ?GetExtent@?$IViewObjectExImpl@VCOPOSItemDispenser@@@ATL@@UAGJKJPAUtagDVTARGETDEVICE@@PAUtagSIZE@@@Z 10013ef0 f i ItemDispenser.obj
 0001:00012fc0       ?GetGITPtr@CAtlModule@ATL@@UAEJPAPAUIGlobalInterfaceTable@@@Z 10013fc0 f i ItemDispenser.obj
 0001:000130c0       ?GetGUID@?$IProvideClassInfo2Impl@$1?CLSID_OPOSItemDispenser@@3U_GUID@@B$1?DIID__IOPOSItemDispenserEvents@@3U2@B$1?LIBID_OposItemDispenser_CCO@@3U2@B$00$0A@VCComTypeInfoHolder@ATL@@@ATL@@UAGJKPAU_GUID@@@Z 100140c0 f i ItemDispenser.obj
 0001:00013140       ?GetIDsOfNames@?$IDispatchImpl@UIOPOSItemDispenser@@$1?IID_IOPOSItemDispenser@@3U_GUID@@B$1?LIBID_OposItemDispenser_CCO@@3U3@B$00$0A@VCComTypeInfoHolder@ATL@@@ATL@@UAGJABU_GUID@@PAPA_WIKPAJ@Z 10014140 f i ItemDispenser.obj
 0001:00013170       ?GetIDsOfNames@CComTypeInfoHolder@ATL@@QAEJABU_GUID@@PAPA_WIKPAJ@Z 10014170 f i ItemDispenser.obj
 0001:00013320       ?GetInterfaceSafetyOptions@?$IObjectSafetyImpl@VCOPOSItemDispenser@@$02@ATL@@UAGJABU_GUID@@PAK1@Z 10014320 f i ItemDispenser.obj
 0001:00013490       ?GetKeyAt@?$CSimpleMap@PA_WPA_WVCExpansionVectorEqualHelper@ATL@@@ATL@@QBEAAPA_WH@Z 10014490 f i ItemDispenser.obj
 0001:00013510       ?GetLockCount@CAtlModule@ATL@@UAEJXZ 10014510 f i ItemDispenser.obj
 0001:00013530       ?GetMiscStatus@?$IOleObjectImpl@VCOPOSItemDispenser@@@ATL@@UAGJKPAK@Z 10014530 f i ItemDispenser.obj
 0001:000135a0       ?GetMoniker@?$IOleObjectImpl@VCOPOSItemDispenser@@@ATL@@UAGJKKPAPAUIMoniker@@@Z 100145a0 f i ItemDispenser.obj
 0001:00013610       ?GetNaturalExtent@?$IViewObjectExImpl@VCOPOSItemDispenser@@@ATL@@UAGJKJPAUtagDVTARGETDEVICE@@PAUHDC__@@PAUtagExtentInfo@@PAUtagSIZE@@@Z 10014610 f i ItemDispenser.obj
 0001:00013730       ?GetObjectCLSID@?$CComCoClass@VCOPOSItemDispenser@@$1?CLSID_OPOSItemDispenser@@3U_GUID@@B@ATL@@SGABU_GUID@@XZ 10014730 f i ItemDispenser.obj
 0001:00013740       ?GetPages@?$ISpecifyPropertyPagesImpl@VCOPOSItemDispenser@@@ATL@@UAGJPAUtagCAUUID@@@Z 10014740 f i ItemDispenser.obj
 0001:000137b0       ?GetPagesHelper@?$ISpecifyPropertyPagesImpl@VCOPOSItemDispenser@@@ATL@@IAEJPAUtagCAUUID@@PBUATL_PROPMAP_ENTRY@2@@Z 100147b0 f i ItemDispenser.obj
 0001:000139b0       ?GetProperty@?$CComPtr@UIDispatch@@@ATL@@QAEJJPAUtagVARIANT@@@Z 100149b0 f i ItemDispenser.obj
 0001:000139f0       ?GetProperty@?$CComPtr@UIDispatch@@@ATL@@SAJPAUIDispatch@@JPAUtagVARIANT@@@Z 100149f0 f i ItemDispenser.obj
 0001:00013b50       ?GetPropertyMap@COPOSItemDispenser@@SAPBUATL_PROPMAP_ENTRY@ATL@@XZ 10014b50 f i ItemDispenser.obj
 0001:00013b60       ?GetRect@?$IViewObjectExImpl@VCOPOSItemDispenser@@@ATL@@UAGJKPAU_RECTL@@@Z 10014b60 f i ItemDispenser.obj
 0001:00013bd0       ?GetSize@?$CSimpleMap@PA_WPA_WVCExpansionVectorEqualHelper@ATL@@@ATL@@QBEHXZ 10014bd0 f i ItemDispenser.obj
 0001:00013bf0       ?GetSize@CComDynamicUnkArray@ATL@@QBEHXZ 10014bf0 f i ItemDispenser.obj
 0001:00013c10       ?GetSizeMax@?$IPersistStreamInitImpl@VCOPOSItemDispenser@@@ATL@@UAGJPAT_ULARGE_INTEGER@@@Z 10014c10 f i ItemDispenser.obj
 0001:00014180       ?GetSizeMax@CComVariant@ATL@@QBEJPAT_ULARGE_INTEGER@@@Z 10015180 f i ItemDispenser.obj
 0001:000144e0       ?GetStreamSize@CComBSTR@ATL@@SAKPA_W@Z 100154e0 f i ItemDispenser.obj
 0001:00014530       ?GetTI@CComTypeInfoHolder@ATL@@QAEJK@Z 10015530 f i ItemDispenser.obj
 0001:00014d40       ?GetTI@CComTypeInfoHolder@ATL@@QAEJKPAPAUITypeInfo@@@Z 10015d40 f i ItemDispenser.obj
 0001:00014e00       ?GetTypeInfo@?$IDispatchImpl@UIOPOSItemDispenser@@$1?IID_IOPOSItemDispenser@@3U_GUID@@B$1?LIBID_OposItemDispenser_CCO@@3U3@B$00$0A@VCComTypeInfoHolder@ATL@@@ATL@@UAGJIKPAPAUITypeInfo@@@Z 10015e00 f i ItemDispenser.obj
 0001:00014e30       ?GetTypeInfo@CComTypeInfoHolder@ATL@@QAEJIKPAPAUITypeInfo@@@Z 10015e30 f i ItemDispenser.obj
 0001:00014e70       ?GetTypeInfoCount@?$IDispatchImpl@UIOPOSItemDispenser@@$1?IID_IOPOSItemDispenser@@3U_GUID@@B$1?LIBID_OposItemDispenser_CCO@@3U3@B$00$0A@VCComTypeInfoHolder@ATL@@@ATL@@UAGJPAI@Z 10015e70 f i ItemDispenser.obj
 0001:00014e90       ?GetUnknown@CComDynamicUnkArray@ATL@@QAGPAUIUnknown@@K@Z 10015e90 f i ItemDispenser.obj
 0001:00014f00       ?GetUnknown@COPOSItemDispenser@@QAEPAUIUnknown@@XZ 10015f00 f i ItemDispenser.obj
 0001:00014f30       ?GetUserClassID@?$IOleObjectImpl@VCOPOSItemDispenser@@@ATL@@UAGJPAU_GUID@@@Z 10015f30 f i ItemDispenser.obj
 0001:00014fe0       ?GetUserType@?$IOleObjectImpl@VCOPOSItemDispenser@@@ATL@@UAGJKPAPA_W@Z 10015fe0 f i ItemDispenser.obj
 0001:00015050       ?GetValueAt@?$CSimpleMap@PA_WPA_WVCExpansionVectorEqualHelper@ATL@@@ATL@@QBEAAPA_WH@Z 10016050 f i ItemDispenser.obj
 0001:000150d0       ?GetViewStatus@?$IViewObjectExImpl@VCOPOSItemDispenser@@@ATL@@UAGJPAK@Z 100160d0 f i ItemDispenser.obj
 0001:00015190       ?GetWNDPROC@CWndProcThunk@ATL@@QAEP6GJPAUHWND__@@IIJ@ZXZ 10016190 f i ItemDispenser.obj
 0001:000151c0       ?GetWindow@?$IOleInPlaceActiveObjectImpl@VCOPOSItemDispenser@@@ATL@@UAGJPAPAUHWND__@@@Z 100161c0 f i ItemDispenser.obj
 0001:00015290       ?GetWindow@?$IOleInPlaceObjectWindowlessImpl@VCOPOSItemDispenser@@@ATL@@UAGJPAPAUHWND__@@@Z 10016290 f i ItemDispenser.obj
 0001:00015360       ?GetWindowLongPtrW@@YAJPAUHWND__@@H@Z 10016360 f i ItemDispenser.obj
 0001:00015390       ?GetWindowProc@?$CWindowImplBaseT@VCWindow@ATL@@V?$CWinTraits@$0FGAAAAAA@$0A@@2@@ATL@@UAEP6GJPAUHWND__@@IIJ@ZXZ 10016390 f i ItemDispenser.obj
 0001:000153b0       ?GetWndCaption@?$CWindowImpl@VCOPOSItemDispenser@@VCWindow@ATL@@V?$CWinTraits@$0FGAAAAAA@$0A@@3@@ATL@@SAPB_WXZ 100163b0 f i ItemDispenser.obj
 0001:000153c0       ?GetWndClassInfo@?$CWindowImpl@VCOPOSItemDispenser@@VCWindow@ATL@@V?$CWinTraits@$0FGAAAAAA@$0A@@3@@ATL@@SAAAU_ATL_WNDCLASSINFOW@2@XZ 100163c0 f i ItemDispenser.obj
 0001:000153d0       ?GetWndClassName@CWindow@ATL@@SAPB_WXZ 100163d0 f i ItemDispenser.obj
 0001:000153e0       ?GetWndExStyle@?$CWinTraits@$0FGAAAAAA@$0A@@ATL@@SAKK@Z 100163e0 f i ItemDispenser.obj
 0001:00015410       ?GetWndExStyle@?$CWindowImplBaseT@VCWindow@ATL@@V?$CWinTraits@$0FGAAAAAA@$0A@@2@@ATL@@SAKK@Z 10016410 f i ItemDispenser.obj
 0001:00015430       ?GetWndStyle@?$CWinTraits@$0FGAAAAAA@$0A@@ATL@@SAKK@Z 10016430 f i ItemDispenser.obj
 0001:00015460       ?GetWndStyle@?$CWindowImplBaseT@VCWindow@ATL@@V?$CWinTraits@$0FGAAAAAA@$0A@@2@@ATL@@SAKK@Z 10016460 f i ItemDispenser.obj
 0001:00015480       ?GetZoomInfo@CComControlBase@ATL@@QAEXAAUATL_DRAWINFO@@@Z 10016480 f i ItemDispenser.obj
 0001:000155f0       ?HKeyFromString@CRegParser@ATL@@KAPAUHKEY__@@PA_W@Z 100165f0 f i ItemDispenser.obj
 0001:00015660       ?HandsOffStorage@?$IPersistStorageImpl@VCOPOSItemDispenser@@@ATL@@UAGJXZ 10016660 f i ItemDispenser.obj
 0001:000156c0       ?HasSubKeys@CRegParser@ATL@@IAEHPAUHKEY__@@@Z 100166c0 f i ItemDispenser.obj
 0001:000157d0       ?IDataObject_GetData@CComControlBase@ATL@@QAEJPAUtagFORMATETC@@PAUtagSTGMEDIUM@@@Z 100167d0 f i ItemDispenser.obj
 0001:00015bf0       ?IOleInPlaceObject_InPlaceDeactivate@CComControlBase@ATL@@QAEJXZ 10016bf0 f i ItemDispenser.obj
 0001:00015df0       ?IOleInPlaceObject_SetObjectRects@CComControlBase@ATL@@QAEJPBUtagRECT@@0@Z 10016df0 f i ItemDispenser.obj
 0001:00015fb0       ?IOleInPlaceObject_UIDeactivate@CComControlBase@ATL@@QAEJXZ 10016fb0 f i ItemDispenser.obj
 0001:00016220       ?IOleObject_Advise@CComControlBase@ATL@@QAEJPAUIAdviseSink@@PAK@Z 10017220 f i ItemDispenser.obj
 0001:000162d0       ?IOleObject_Close@CComControlBase@ATL@@QAEJK@Z 100172d0 f i ItemDispenser.obj
 0001:00016580       ?IOleObject_GetClientSite@CComControlBase@ATL@@QAEJPAPAUIOleClientSite@@@Z 10017580 f i ItemDispenser.obj
 0001:00016620       ?IOleObject_SetClientSite@CComControlBase@ATL@@QAEJPAUIOleClientSite@@@Z 10017620 f i ItemDispenser.obj
 0001:000166f0       ?IOleObject_SetExtent@CComControlBase@ATL@@QAEJKPAUtagSIZE@@@Z 100176f0 f i ItemDispenser.obj
 0001:00016830       ?IPSI_GetIPersistStreamInit@?$IPersistStorageImpl@VCOPOSItemDispenser@@@ATL@@AAEPAUIPersistStreamInit@@XZ 10017830 f i ItemDispenser.obj
 0001:00016900       ?IPersistStreamInit_Load@?$IPersistStreamInitImpl@VCOPOSItemDispenser@@@ATL@@QAEJPAUIStream@@PBUATL_PROPMAP_ENTRY@2@@Z 10017900 f i ItemDispenser.obj
 0001:00016980       ?IPersistStreamInit_Save@?$IPersistStreamInitImpl@VCOPOSItemDispenser@@@ATL@@QAEJPAUIStream@@HPBUATL_PROPMAP_ENTRY@2@@Z 10017980 f i ItemDispenser.obj
 0001:00016a10       ?IQuickActivate_QuickActivate@CComControlBase@ATL@@QAEJPAUtagQACONTAINER@@PAUtagQACONTROL@@@Z 10017a10 f i ItemDispenser.obj
 0001:00017060       ?IViewObject_Draw@CComControlBase@ATL@@QAEJKJPAXPAUtagDVTARGETDEVICE@@PAUHDC__@@2PBU_RECTL@@3@Z 10018060 f i ItemDispenser.obj
 0001:00017300       ?InPlaceActivate@CComControlBase@ATL@@QAEJJPBUtagRECT@@@Z 10018300 f i ItemDispenser.obj
 0001:00017c90       ?InPlaceDeactivate@?$IOleInPlaceObjectWindowlessImpl@VCOPOSItemDispenser@@@ATL@@UAGJXZ 10018c90 f i ItemDispenser.obj
 0001:00017d10       ?Increment@CComMultiThreadModel@ATL@@SGKPAJ@Z 10018d10 f i ItemDispenser.obj
 0001:00017d30       ?Increment@CComSingleThreadModel@ATL@@SGKPAJ@Z 10018d30 f i ItemDispenser.obj
 0001:00017d50       ?Init@?$CComEnumImpl@UIEnumConnectionPoints@@$1?_GUID_b196b285_bab4_101a_b69c_00aa00341d07@@3U__s_GUID@@BPAUIConnectionPoint@@V?$_CopyInterface@UIConnectionPoint@@@ATL@@@ATL@@QAEJPAPAUIConnectionPoint@@0PAUIUnknown@@W4CComEnumFlags@2@@Z 10018d50 f i ItemDispenser.obj
 0001:00017f30       ?Init@?$CComEnumImpl@UIEnumConnections@@$1?_GUID_b196b287_bab4_101a_b69c_00aa00341d07@@3U__s_GUID@@BUtagCONNECTDATA@@V?$_Copy@UtagCONNECTDATA@@@ATL@@@ATL@@QAEJPAUtagCONNECTDATA@@0PAUIUnknown@@W4CComEnumFlags@2@@Z 10018f30 f i ItemDispenser.obj
 0001:00018110       ?Init@CComFakeCriticalSection@ATL@@QAEJXZ 10019110 f i ItemDispenser.obj
 0001:00018130       ?Init@CComModule@ATL@@QAEJPAU_ATL_OBJMAP_ENTRY30@2@PAUHINSTANCE__@@PBU_GUID@@@Z 10019130 f i ItemDispenser.obj
 0001:00018220       ?Init@CComSafeDeleteCriticalSection@ATL@@QAEJXZ 10019220 f i ItemDispenser.obj
 0001:000182a0       ?Init@CDynamicStdCallThunk2@ATL@@QAEHKPAX@Z 100192a0 f i ItemDispenser.obj
 0001:00018300       ?Init@CWndProcThunk@ATL@@QAEHP6GJPAUHWND__@@IIJ@ZPAX@Z 10019300 f i ItemDispenser.obj
 0001:00018340       ?InitFromData@?$IOleObjectImpl@VCOPOSItemDispenser@@@ATL@@UAGJPAUIDataObject@@HK@Z 10019340 f i ItemDispenser.obj
 0001:000183b0       ?InitLibId@?$CAtlModuleT@VCComModule@ATL@@@ATL@@SAXXZ 100193b0 f i ItemDispenser.obj
 0001:000183c0       ?InitNew@?$IPersistStorageImpl@VCOPOSItemDispenser@@@ATL@@UAGJPAUIStorage@@@Z 100193c0 f i ItemDispenser.obj
 0001:000184b0       ?InitNew@?$IPersistStreamInitImpl@VCOPOSItemDispenser@@@ATL@@UAGJXZ 100194b0 f i ItemDispenser.obj
 0001:00018540       ?InlineIsEqualUnknown@ATL@@YGHABU_GUID@@@Z 10019540 f i ItemDispenser.obj
 0001:000185b0       ?InternalAddRef@?$CComObjectRootEx@VCComMultiThreadModel@ATL@@@ATL@@QAEKXZ 100195b0 f i ItemDispenser.obj
 0001:00018610       ?InternalAddRef@?$CComObjectRootEx@VCComSingleThreadModel@ATL@@@ATL@@QAEKXZ 10019610 f i ItemDispenser.obj
 0001:00018670       ?InternalFinalConstructAddRef@CComObjectRootBase@ATL@@QAEXXZ 10019670 f i ItemDispenser.obj
 0001:00018690       ?InternalFinalConstructAddRef@COPOSItemDispenser@@QAEXXZ 10019690 f i ItemDispenser.obj
 0001:000186c0       ?InternalFinalConstructRelease@CComObjectRootBase@ATL@@QAEXXZ 100196c0 f i ItemDispenser.obj
 0001:00018710       ?InternalFinalConstructRelease@COPOSItemDispenser@@QAEXXZ 10019710 f i ItemDispenser.obj
 0001:00018740       ?InternalGetSite@CComControlBase@ATL@@QAEJABU_GUID@@PAPAX@Z 10019740 f i ItemDispenser.obj
 0001:00018800       ?InternalQueryInterface@CComObjectRootBase@ATL@@SGJPAXPBU_ATL_INTMAP_ENTRY@2@ABU_GUID@@PAPAX@Z 10019800 f i ItemDispenser.obj
 0001:000188c0       ?InternalRelease@?$CComObjectRootEx@VCComMultiThreadModel@ATL@@@ATL@@QAEKXZ 100198c0 f i ItemDispenser.obj
 0001:00018930       ?InternalRelease@?$CComObjectRootEx@VCComSingleThreadModel@ATL@@@ATL@@QAEKXZ 10019930 f i ItemDispenser.obj
 0001:000189a0       ?InternalSetAtIndex@?$CSimpleArray@GV?$CSimpleArrayEqualHelper@G@ATL@@@ATL@@QAEXHABG@Z 100199a0 f i ItemDispenser.obj
 0001:00018a10       ?InternalSetAtIndex@?$CSimpleMap@PA_WPA_WVCExpansionVectorEqualHelper@ATL@@@ATL@@QAEXHABQA_W0@Z 10019a10 f i ItemDispenser.obj
 0001:00018ab0       ?Invoke@?$IDispatchImpl@UIOPOSItemDispenser@@$1?IID_IOPOSItemDispenser@@3U_GUID@@B$1?LIBID_OposItemDispenser_CCO@@3U3@B$00$0A@VCComTypeInfoHolder@ATL@@@ATL@@UAGJJABU_GUID@@KGPAUtagDISPPARAMS@@PAUtagVARIANT@@PAUtagEXCEPINFO@@PAI@Z 10019ab0 f i ItemDispenser.obj
 0001:00018af0       ?Invoke@CComTypeInfoHolder@ATL@@QAEJPAUIDispatch@@JABU_GUID@@KGPAUtagDISPPARAMS@@PAUtagVARIANT@@PAUtagEXCEPINFO@@PAI@Z 10019af0 f i ItemDispenser.obj
 0001:00018b80       ?IsDirty@?$IPersistStorageImpl@VCOPOSItemDispenser@@@ATL@@UAGJXZ 10019b80 f i ItemDispenser.obj
 0001:00018c70       ?IsDirty@?$IPersistStreamInitImpl@VCOPOSItemDispenser@@@ATL@@UAGJXZ 10019c70 f i ItemDispenser.obj
 0001:00018d10       ?IsEqualKey@CExpansionVectorEqualHelper@ATL@@SA_NQA_W0@Z 10019d10 f i ItemDispenser.obj
 0001:00018d40       ?IsEqualObject@?$CComPtrBase@UIOleClientSite@@@ATL@@QAE_NPAUIUnknown@@@Z 10019d40 f i ItemDispenser.obj
 0001:00018e70       ?IsEqualObject@?$CComPtrBase@UITypeInfo@@@ATL@@QAE_NPAUIUnknown@@@Z 10019e70 f i ItemDispenser.obj
 0001:00018fa0       ?IsSpace@CRegParser@ATL@@IAEH_W@Z 10019fa0 f i ItemDispenser.obj
 0001:00019010       ?IsUpToDate@?$IOleObjectImpl@VCOPOSItemDispenser@@@ATL@@UAGJXZ 1001a010 f i ItemDispenser.obj
 0001:00019070       ?Length@CComBSTR@ATL@@QBEIXZ 1001a070 f i ItemDispenser.obj
 0001:000190b0       ?Load@?$IPersistStorageImpl@VCOPOSItemDispenser@@@ATL@@UAGJPAUIStorage@@@Z 1001a0b0 f i ItemDispenser.obj
 0001:00019210       ?Load@?$IPersistStreamInitImpl@VCOPOSItemDispenser@@@ATL@@UAGJPAUIStream@@@Z 1001a210 f i ItemDispenser.obj
 0001:000192a0       ?LoadCursorW@AtlModuleRegisterWndClassInfoParamW@ATL@@SAPAUHICON__@@PAUHINSTANCE__@@PB_W@Z 1001a2a0 f i ItemDispenser.obj
 0001:000192d0       ?LoadNameCache@CComTypeInfoHolder@ATL@@QAEJPAUITypeInfo@@@Z 1001a2d0 f i ItemDispenser.obj
 0001:00019560       ?Lock@?$CComCritSecLock@VCComCriticalSection@ATL@@@ATL@@QAEJXZ 1001a560 f i ItemDispenser.obj
 0001:00019610       ?Lock@?$CComObjectRootEx@VCComSingleThreadModel@ATL@@@ATL@@QAEXXZ 1001a610 f i ItemDispenser.obj
 0001:00019630       ?Lock@CAtlModule@ATL@@UAEJXZ 1001a630 f i ItemDispenser.obj
 0001:00019660       ?Lock@CComCriticalSection@ATL@@QAEJXZ 1001a660 f i ItemDispenser.obj
 0001:000196a0       ?Lock@CComFakeCriticalSection@ATL@@QAEJXZ 1001a6a0 f i ItemDispenser.obj
 0001:000196c0       ?LockServer@CComClassFactory@ATL@@UAGJH@Z 1001a6c0 f i ItemDispenser.obj
 0001:00019720       ?Lookup@?$CSimpleMap@PA_WPA_WVCExpansionVectorEqualHelper@ATL@@@ATL@@QBEPA_WABQA_W@Z 1001a720 f i ItemDispenser.obj
 0001:00019770       ?Next@?$CComEnumImpl@UIEnumConnectionPoints@@$1?_GUID_b196b285_bab4_101a_b69c_00aa00341d07@@3U__s_GUID@@BPAUIConnectionPoint@@V?$_CopyInterface@UIConnectionPoint@@@ATL@@@ATL@@UAGJKPAPAUIConnectionPoint@@PAK@Z 1001a770 f i ItemDispenser.obj
 0001:000198e0       ?Next@?$CComEnumImpl@UIEnumConnections@@$1?_GUID_b196b287_bab4_101a_b69c_00aa00341d07@@3U__s_GUID@@BUtagCONNECTDATA@@V?$_Copy@UtagCONNECTDATA@@@ATL@@@ATL@@UAGJKPAUtagCONNECTDATA@@PAK@Z 1001a8e0 f i ItemDispenser.obj
 0001:00019a50       ?NextToken@CRegParser@ATL@@IAEJPA_W@Z 1001aa50 f i ItemDispenser.obj
 0001:00019cf0       ?OLE2CT_EX@@YAPB_WPB_WI@Z  1001acf0 f i ItemDispenser.obj
 0001:00019d00       ?OLE2CT_EX_DEF@@YAPB_WPB_W@Z 1001ad00 f i ItemDispenser.obj
 0001:00019d10       ?OLE2T_EX@@YAPA_WPA_WI@Z   1001ad10 f i ItemDispenser.obj
 0001:00019d20       ?OnAmbientPropertyChange@?$IOleControlImpl@VCOPOSItemDispenser@@@ATL@@UAGJJ@Z 1001ad20 f i ItemDispenser.obj
 0001:00019db0       ?OnDocWindowActivate@?$IOleInPlaceActiveObjectImpl@VCOPOSItemDispenser@@@ATL@@UAGJH@Z 1001adb0 f i ItemDispenser.obj
 0001:00019e40       ?OnDrawAdvanced@CComControlBase@ATL@@UAEJAAUATL_DRAWINFO@@@Z 1001ae40 f i ItemDispenser.obj
 0001:0001a060       ?OnFinalMessage@?$CWindowImplBaseT@VCWindow@ATL@@V?$CWinTraits@$0FGAAAAAA@$0A@@2@@ATL@@UAEXPAUHWND__@@@Z 1001b060 f i ItemDispenser.obj
 0001:0001a080       ?OnFrameWindowActivate@?$IOleInPlaceActiveObjectImpl@VCOPOSItemDispenser@@@ATL@@UAGJH@Z 1001b080 f i ItemDispenser.obj
 0001:0001a0e0       ?OnKillFocus@CComControlBase@ATL@@QAEJIIJAAH@Z 1001b0e0 f i ItemDispenser.obj
 0001:0001a1e0       ?OnMnemonic@?$IOleControlImpl@VCOPOSItemDispenser@@@ATL@@UAGJPAUtagMSG@@@Z 1001b1e0 f i ItemDispenser.obj
 0001:0001a250       ?OnMouseActivate@CComControlBase@ATL@@QAEJIIJAAH@Z 1001b250 f i ItemDispenser.obj
 0001:0001a3a0       ?OnPaint@CComControlBase@ATL@@QAEJIIJAAH@Z 1001b3a0 f i ItemDispenser.obj
 0001:0001a520       ?OnPostVerbDiscardUndo@?$IOleObjectImpl@VCOPOSItemDispenser@@@ATL@@QAEJXZ 1001b520 f i ItemDispenser.obj
 0001:0001a540       ?OnPostVerbHide@?$IOleObjectImpl@VCOPOSItemDispenser@@@ATL@@QAEJXZ 1001b540 f i ItemDispenser.obj
 0001:0001a560       ?OnPostVerbInPlaceActivate@?$IOleObjectImpl@VCOPOSItemDispenser@@@ATL@@QAEJXZ 1001b560 f i ItemDispenser.obj
 0001:0001a580       ?OnPostVerbOpen@?$IOleObjectImpl@VCOPOSItemDispenser@@@ATL@@QAEJXZ 1001b580 f i ItemDispenser.obj
 0001:0001a5a0       ?OnPostVerbShow@?$IOleObjectImpl@VCOPOSItemDispenser@@@ATL@@QAEJXZ 1001b5a0 f i ItemDispenser.obj
 0001:0001a5c0       ?OnPostVerbUIActivate@?$IOleObjectImpl@VCOPOSItemDispenser@@@ATL@@QAEJXZ 1001b5c0 f i ItemDispenser.obj
 0001:0001a5e0       ?OnPreVerbDiscardUndo@?$IOleObjectImpl@VCOPOSItemDispenser@@@ATL@@QAEJXZ 1001b5e0 f i ItemDispenser.obj
 0001:0001a600       ?OnPreVerbHide@?$IOleObjectImpl@VCOPOSItemDispenser@@@ATL@@QAEJXZ 1001b600 f i ItemDispenser.obj
 0001:0001a620       ?OnPreVerbInPlaceActivate@?$IOleObjectImpl@VCOPOSItemDispenser@@@ATL@@QAEJXZ 1001b620 f i ItemDispenser.obj
 0001:0001a640       ?OnPreVerbOpen@?$IOleObjectImpl@VCOPOSItemDispenser@@@ATL@@QAEJXZ 1001b640 f i ItemDispenser.obj
 0001:0001a660       ?OnPreVerbShow@?$IOleObjectImpl@VCOPOSItemDispenser@@@ATL@@QAEJXZ 1001b660 f i ItemDispenser.obj
 0001:0001a680       ?OnPreVerbUIActivate@?$IOleObjectImpl@VCOPOSItemDispenser@@@ATL@@QAEJXZ 1001b680 f i ItemDispenser.obj
 0001:0001a6a0       ?OnSetFocus@CComControlBase@ATL@@QAEJIIJAAH@Z 1001b6a0 f i ItemDispenser.obj
 0001:0001a830       ?OnWindowMessage@?$IOleInPlaceObjectWindowlessImpl@VCOPOSItemDispenser@@@ATL@@UAGJIIJPAJ@Z 1001b830 f i ItemDispenser.obj
 0001:0001a990       ?Open@CRegKey@ATL@@QAEJPAUHKEY__@@PB_WK@Z 1001b990 f i ItemDispenser.obj
 0001:0001aae0       ?OuterAddRef@CComObjectRootBase@ATL@@QAEKXZ 1001bae0 f i ItemDispenser.obj
 0001:0001ab20       ?OuterQueryInterface@CComObjectRootBase@ATL@@QAEJABU_GUID@@PAPAX@Z 1001bb20 f i ItemDispenser.obj
 0001:0001ab70       ?OuterRelease@CComObjectRootBase@ATL@@QAEKXZ 1001bb70 f i ItemDispenser.obj
 0001:0001abb0       ?PreProcessBuffer@CRegParser@ATL@@QAEJPA_WPAPA_W@Z 1001bbb0 f i ItemDispenser.obj
 0001:0001b0f0       ?PreTranslateAccelerator@CComControlBase@ATL@@QAEHPAUtagMSG@@AAJ@Z 1001c0f0 f i ItemDispenser.obj
 0001:0001b110       ?ProcessWindowMessage@?$CComControl@VCOPOSItemDispenser@@V?$CWindowImpl@VCOPOSItemDispenser@@VCWindow@ATL@@V?$CWinTraits@$0FGAAAAAA@$0A@@3@@ATL@@@ATL@@UAEHPAUHWND__@@IIJAAJK@Z 1001c110 f i ItemDispenser.obj
 0001:0001b2e0       ?ProcessWindowMessage@COPOSItemDispenser@@UAEHPAUHWND__@@IIJAAJK@Z 1001c2e0 f i ItemDispenser.obj
 0001:0001b3e0       ?PutProperty@?$CComPtr@UIDispatch@@@ATL@@QAEJJPAUtagVARIANT@@@Z 1001c3e0 f i ItemDispenser.obj
 0001:0001b420       ?PutProperty@?$CComPtr@UIDispatch@@@ATL@@SAJPAUIDispatch@@JPAUtagVARIANT@@@Z 1001c420 f i ItemDispenser.obj
 0001:0001b610       ?QueryGetData@?$IDataObjectImpl@VCOPOSItemDispenser@@@ATL@@UAGJPAUtagFORMATETC@@@Z 1001c610 f i ItemDispenser.obj
 0001:0001b680       ?QueryHitPoint@?$IViewObjectExImpl@VCOPOSItemDispenser@@@ATL@@UAGJKPBUtagRECT@@UtagPOINT@@JPAK@Z 1001c680 f i ItemDispenser.obj
 0001:0001b790       ?QueryHitRect@?$IViewObjectExImpl@VCOPOSItemDispenser@@@ATL@@UAGJKPBUtagRECT@@0JPAK@Z 1001c790 f i ItemDispenser.obj
 0001:0001b8e0       ?QueryInterface@?$CComAggObject@VCOPOSItemDispenser@@@ATL@@UAGJABU_GUID@@PAPAX@Z 1001c8e0 f i ItemDispenser.obj
 0001:0001b990       ?QueryInterface@?$CComContainedObject@VCOPOSItemDispenser@@@ATL@@UAGJABU_GUID@@PAPAX@Z 1001c990 f i ItemDispenser.obj
 0001:0001b9b4       ?QueryInterface@?$CComContainedObject@VCOPOSItemDispenser@@@ATL@@WHA@AGJABU_GUID@@PAPAX@Z 1001c9b4 f i ItemDispenser.obj
 0001:0001b9be       ?QueryInterface@?$CComContainedObject@VCOPOSItemDispenser@@@ATL@@WHE@AGJABU_GUID@@PAPAX@Z 1001c9be f i ItemDispenser.obj
 0001:0001b9c8       ?QueryInterface@?$CComContainedObject@VCOPOSItemDispenser@@@ATL@@WHI@AGJABU_GUID@@PAPAX@Z 1001c9c8 f i ItemDispenser.obj
 0001:0001b9d2       ?QueryInterface@?$CComContainedObject@VCOPOSItemDispenser@@@ATL@@WHM@AGJABU_GUID@@PAPAX@Z 1001c9d2 f i ItemDispenser.obj
 0001:0001b9dc       ?QueryInterface@?$CComContainedObject@VCOPOSItemDispenser@@@ATL@@WIA@AGJABU_GUID@@PAPAX@Z 1001c9dc f i ItemDispenser.obj
 0001:0001b9e9       ?QueryInterface@?$CComContainedObject@VCOPOSItemDispenser@@@ATL@@WIE@AGJABU_GUID@@PAPAX@Z 1001c9e9 f i ItemDispenser.obj
 0001:0001b9f6       ?QueryInterface@?$CComContainedObject@VCOPOSItemDispenser@@@ATL@@WII@AGJABU_GUID@@PAPAX@Z 1001c9f6 f i ItemDispenser.obj
 0001:0001ba03       ?QueryInterface@?$CComContainedObject@VCOPOSItemDispenser@@@ATL@@WIM@AGJABU_GUID@@PAPAX@Z 1001ca03 f i ItemDispenser.obj
 0001:0001ba10       ?QueryInterface@?$CComContainedObject@VCOPOSItemDispenser@@@ATL@@WJA@AGJABU_GUID@@PAPAX@Z 1001ca10 f i ItemDispenser.obj
 0001:0001ba1d       ?QueryInterface@?$CComContainedObject@VCOPOSItemDispenser@@@ATL@@WJE@AGJABU_GUID@@PAPAX@Z 1001ca1d f i ItemDispenser.obj
 0001:0001ba2a       ?QueryInterface@?$CComContainedObject@VCOPOSItemDispenser@@@ATL@@WJI@AGJABU_GUID@@PAPAX@Z 1001ca2a f i ItemDispenser.obj
 0001:0001ba37       ?QueryInterface@?$CComContainedObject@VCOPOSItemDispenser@@@ATL@@WJM@AGJABU_GUID@@PAPAX@Z 1001ca37 f i ItemDispenser.obj
 0001:0001ba44       ?QueryInterface@?$CComContainedObject@VCOPOSItemDispenser@@@ATL@@WKA@AGJABU_GUID@@PAPAX@Z 1001ca44 f i ItemDispenser.obj
 0001:0001ba60       ?QueryInterface@?$CComObject@V?$CComEnum@UIEnumConnectionPoints@@$1?_GUID_b196b285_bab4_101a_b69c_00aa00341d07@@3U__s_GUID@@BPAUIConnectionPoint@@V?$_CopyInterface@UIConnectionPoint@@@ATL@@VCComSingleThreadModel@6@@ATL@@@ATL@@UAGJABU_GUID@@PAPAX@Z 1001ca60 f i ItemDispenser.obj
 0001:0001ba80       ?QueryInterface@?$CComObject@V?$CComEnum@UIEnumConnections@@$1?_GUID_b196b287_bab4_101a_b69c_00aa00341d07@@3U__s_GUID@@BUtagCONNECTDATA@@V?$_Copy@UtagCONNECTDATA@@@ATL@@VCComSingleThreadModel@6@@ATL@@@ATL@@UAGJABU_GUID@@PAPAX@Z 1001ca80 f i ItemDispenser.obj
 0001:0001baa0       ?QueryInterface@?$CComObject@VCOPOSItemDispenser@@@ATL@@UAGJABU_GUID@@PAPAX@Z 1001caa0 f i ItemDispenser.obj
 0001:0001babe       ?QueryInterface@?$CComObject@VCOPOSItemDispenser@@@ATL@@WHA@AGJABU_GUID@@PAPAX@Z 1001cabe f i ItemDispenser.obj
 0001:0001bac8       ?QueryInterface@?$CComObject@VCOPOSItemDispenser@@@ATL@@WHE@AGJABU_GUID@@PAPAX@Z 1001cac8 f i ItemDispenser.obj
 0001:0001bad2       ?QueryInterface@?$CComObject@VCOPOSItemDispenser@@@ATL@@WHI@AGJABU_GUID@@PAPAX@Z 1001cad2 f i ItemDispenser.obj
 0001:0001badc       ?QueryInterface@?$CComObject@VCOPOSItemDispenser@@@ATL@@WHM@AGJABU_GUID@@PAPAX@Z 1001cadc f i ItemDispenser.obj
 0001:0001bae6       ?QueryInterface@?$CComObject@VCOPOSItemDispenser@@@ATL@@WIA@AGJABU_GUID@@PAPAX@Z 1001cae6 f i ItemDispenser.obj
 0001:0001baf3       ?QueryInterface@?$CComObject@VCOPOSItemDispenser@@@ATL@@WIE@AGJABU_GUID@@PAPAX@Z 1001caf3 f i ItemDispenser.obj
 0001:0001bb00       ?QueryInterface@?$CComObject@VCOPOSItemDispenser@@@ATL@@WII@AGJABU_GUID@@PAPAX@Z 1001cb00 f i ItemDispenser.obj
 0001:0001bb0d       ?QueryInterface@?$CComObject@VCOPOSItemDispenser@@@ATL@@WIM@AGJABU_GUID@@PAPAX@Z 1001cb0d f i ItemDispenser.obj
 0001:0001bb1a       ?QueryInterface@?$CComObject@VCOPOSItemDispenser@@@ATL@@WJA@AGJABU_GUID@@PAPAX@Z 1001cb1a f i ItemDispenser.obj
 0001:0001bb27       ?QueryInterface@?$CComObject@VCOPOSItemDispenser@@@ATL@@WJE@AGJABU_GUID@@PAPAX@Z 1001cb27 f i ItemDispenser.obj
 0001:0001bb34       ?QueryInterface@?$CComObject@VCOPOSItemDispenser@@@ATL@@WJI@AGJABU_GUID@@PAPAX@Z 1001cb34 f i ItemDispenser.obj
 0001:0001bb41       ?QueryInterface@?$CComObject@VCOPOSItemDispenser@@@ATL@@WJM@AGJABU_GUID@@PAPAX@Z 1001cb41 f i ItemDispenser.obj
 0001:0001bb4e       ?QueryInterface@?$CComObject@VCOPOSItemDispenser@@@ATL@@WKA@AGJABU_GUID@@PAPAX@Z 1001cb4e f i ItemDispenser.obj
 0001:0001bb60       ?QueryInterface@?$CComObjectCached@VCComClassFactory@ATL@@@ATL@@UAGJABU_GUID@@PAPAX@Z 1001cb60 f i ItemDispenser.obj
 0001:0001bb80       ?QueryInterface@CRegObject@ATL@@UAGJABU_GUID@@PAPAX@Z 1001cb80 f i ItemDispenser.obj
 0001:0001bbd0       ?QuickActivate@?$IQuickActivateImpl@VCOPOSItemDispenser@@@ATL@@UAGJPAUtagQACONTAINER@@PAUtagQACONTROL@@@Z 1001cbd0 f i ItemDispenser.obj
 0001:0001bc60       ?ReactivateAndUndo@?$IOleInPlaceObjectWindowlessImpl@VCOPOSItemDispenser@@@ATL@@UAGJXZ 1001cc60 f i ItemDispenser.obj
 0001:0001bcd0       ?ReadFromStream@CComBSTR@ATL@@QAEJPAUIStream@@@Z 1001ccd0 f i ItemDispenser.obj
 0001:0001c0d0       ?ReadFromStream@CComVariant@ATL@@QAEJPAUIStream@@GTClassesAllowedInStream@2@K@Z 1001d0d0 f i ItemDispenser.obj
 0001:0001c430       ?RecurseDeleteKey@CRegKey@ATL@@QAEJPB_W@Z 1001d430 f i ItemDispenser.obj
 0001:0001c610       ?RegCreateKeyExW@CAtlTransactionManager@ATL@@QAEJPAUHKEY__@@PB_WKPA_WKKQAU_SECURITY_ATTRIBUTES@@PAPAU3@PAK@Z 1001d610 f i ItemDispenser.obj
 0001:0001c740       ?RegDeleteKeyW@CAtlTransactionManager@ATL@@QAEJPAUHKEY__@@PB_W@Z 1001d740 f i ItemDispenser.obj
 0001:0001c840       ?RegOpenKeyExW@CAtlTransactionManager@ATL@@QAEJPAUHKEY__@@PB_WKKPAPAU3@@Z 1001d840 f i ItemDispenser.obj
 0001:0001c950       ?Register@_ATL_WNDCLASSINFOW@ATL@@QAEGPAP6GJPAUHWND__@@IIJ@Z@Z 1001d950 f i ItemDispenser.obj
 0001:0001c990       ?RegisterBuffer@CRegParser@ATL@@QAEJPA_WH@Z 1001d990 f i ItemDispenser.obj
 0001:0001ccc0       ?RegisterClassExW@AtlModuleRegisterWndClassInfoParamW@ATL@@SAGPAU_ATL_WIN_MODULE70@2@PBUtagWNDCLASSEXW@@@Z 1001dcc0 f i ItemDispenser.obj
 0001:0001cce0       ?RegisterFromResource@CRegObject@ATL@@IAEJPB_W00H@Z 1001dce0 f i ItemDispenser.obj
 0001:0001d070       ?RegisterServer@?$CAtlModuleT@VCComModule@ATL@@@ATL@@QAEJHPBU_GUID@@@Z 1001e070 f i ItemDispenser.obj
 0001:0001d0f0       ?RegisterServer@CAtlComModule@ATL@@QAEJHPBU_GUID@@@Z 1001e0f0 f i ItemDispenser.obj
 0001:0001d120       ?RegisterServer@CComModule@ATL@@QAEJHPBU_GUID@@@Z 1001e120 f i ItemDispenser.obj
 0001:0001d200       ?RegisterSubkeys@CRegParser@ATL@@IAEJPA_WPAUHKEY__@@HH@Z 1001e200 f i ItemDispenser.obj
 0001:0001dd20       ?Release@?$CComAggObject@VCOPOSItemDispenser@@@ATL@@UAGKXZ 1001ed20 f i ItemDispenser.obj
 0001:0001dde0       ?Release@?$CComContainedObject@VCOPOSItemDispenser@@@ATL@@UAGKXZ 1001ede0 f i ItemDispenser.obj
 0001:0001ddfc       ?Release@?$CComContainedObject@VCOPOSItemDispenser@@@ATL@@WHA@AGKXZ 1001edfc f i ItemDispenser.obj
 0001:0001de06       ?Release@?$CComContainedObject@VCOPOSItemDispenser@@@ATL@@WHE@AGKXZ 1001ee06 f i ItemDispenser.obj
 0001:0001de10       ?Release@?$CComContainedObject@VCOPOSItemDispenser@@@ATL@@WHI@AGKXZ 1001ee10 f i ItemDispenser.obj
 0001:0001de1a       ?Release@?$CComContainedObject@VCOPOSItemDispenser@@@ATL@@WHM@AGKXZ 1001ee1a f i ItemDispenser.obj
 0001:0001de24       ?Release@?$CComContainedObject@VCOPOSItemDispenser@@@ATL@@WIA@AGKXZ 1001ee24 f i ItemDispenser.obj
 0001:0001de31       ?Release@?$CComContainedObject@VCOPOSItemDispenser@@@ATL@@WIE@AGKXZ 1001ee31 f i ItemDispenser.obj
 0001:0001de3e       ?Release@?$CComContainedObject@VCOPOSItemDispenser@@@ATL@@WII@AGKXZ 1001ee3e f i ItemDispenser.obj
 0001:0001de4b       ?Release@?$CComContainedObject@VCOPOSItemDispenser@@@ATL@@WIM@AGKXZ 1001ee4b f i ItemDispenser.obj
 0001:0001de58       ?Release@?$CComContainedObject@VCOPOSItemDispenser@@@ATL@@WJA@AGKXZ 1001ee58 f i ItemDispenser.obj
 0001:0001de65       ?Release@?$CComContainedObject@VCOPOSItemDispenser@@@ATL@@WJE@AGKXZ 1001ee65 f i ItemDispenser.obj
 0001:0001de72       ?Release@?$CComContainedObject@VCOPOSItemDispenser@@@ATL@@WJI@AGKXZ 1001ee72 f i ItemDispenser.obj
 0001:0001de7f       ?Release@?$CComContainedObject@VCOPOSItemDispenser@@@ATL@@WJM@AGKXZ 1001ee7f f i ItemDispenser.obj
 0001:0001de8c       ?Release@?$CComContainedObject@VCOPOSItemDispenser@@@ATL@@WKA@AGKXZ 1001ee8c f i ItemDispenser.obj
 0001:0001de99       ?Release@?$CComContainedObject@VCOPOSItemDispenser@@@ATL@@WKI@AGKXZ 1001ee99 f i ItemDispenser.obj
 0001:0001dea6       ?Release@?$CComContainedObject@VCOPOSItemDispenser@@@ATL@@WLE@AGKXZ 1001eea6 f i ItemDispenser.obj
 0001:0001dec0       ?Release@?$CComObject@V?$CComEnum@UIEnumConnectionPoints@@$1?_GUID_b196b285_bab4_101a_b69c_00aa00341d07@@3U__s_GUID@@BPAUIConnectionPoint@@V?$_CopyInterface@UIConnectionPoint@@@ATL@@VCComSingleThreadModel@6@@ATL@@@ATL@@UAGKXZ 1001eec0 f i ItemDispenser.obj
 0001:0001df80       ?Release@?$CComObject@V?$CComEnum@UIEnumConnections@@$1?_GUID_b196b287_bab4_101a_b69c_00aa00341d07@@3U__s_GUID@@BUtagCONNECTDATA@@V?$_Copy@UtagCONNECTDATA@@@ATL@@VCComSingleThreadModel@6@@ATL@@@ATL@@UAGKXZ 1001ef80 f i ItemDispenser.obj
 0001:0001e040       ?Release@?$CComObject@VCOPOSItemDispenser@@@ATL@@UAGKXZ 1001f040 f i ItemDispenser.obj
 0001:0001e0f9       ?Release@?$CComObject@VCOPOSItemDispenser@@@ATL@@WHA@AGKXZ 1001f0f9 f i ItemDispenser.obj
 0001:0001e103       ?Release@?$CComObject@VCOPOSItemDispenser@@@ATL@@WHE@AGKXZ 1001f103 f i ItemDispenser.obj
 0001:0001e10d       ?Release@?$CComObject@VCOPOSItemDispenser@@@ATL@@WHI@AGKXZ 1001f10d f i ItemDispenser.obj
 0001:0001e117       ?Release@?$CComObject@VCOPOSItemDispenser@@@ATL@@WHM@AGKXZ 1001f117 f i ItemDispenser.obj
 0001:0001e121       ?Release@?$CComObject@VCOPOSItemDispenser@@@ATL@@WIA@AGKXZ 1001f121 f i ItemDispenser.obj
 0001:0001e12e       ?Release@?$CComObject@VCOPOSItemDispenser@@@ATL@@WIE@AGKXZ 1001f12e f i ItemDispenser.obj
 0001:0001e13b       ?Release@?$CComObject@VCOPOSItemDispenser@@@ATL@@WII@AGKXZ 1001f13b f i ItemDispenser.obj
 0001:0001e148       ?Release@?$CComObject@VCOPOSItemDispenser@@@ATL@@WIM@AGKXZ 1001f148 f i ItemDispenser.obj
 0001:0001e155       ?Release@?$CComObject@VCOPOSItemDispenser@@@ATL@@WJA@AGKXZ 1001f155 f i ItemDispenser.obj
 0001:0001e162       ?Release@?$CComObject@VCOPOSItemDispenser@@@ATL@@WJE@AGKXZ 1001f162 f i ItemDispenser.obj
 0001:0001e16f       ?Release@?$CComObject@VCOPOSItemDispenser@@@ATL@@WJI@AGKXZ 1001f16f f i ItemDispenser.obj
 0001:0001e17c       ?Release@?$CComObject@VCOPOSItemDispenser@@@ATL@@WJM@AGKXZ 1001f17c f i ItemDispenser.obj
 0001:0001e189       ?Release@?$CComObject@VCOPOSItemDispenser@@@ATL@@WKA@AGKXZ 1001f189 f i ItemDispenser.obj
 0001:0001e196       ?Release@?$CComObject@VCOPOSItemDispenser@@@ATL@@WKI@AGKXZ 1001f196 f i ItemDispenser.obj
 0001:0001e1a3       ?Release@?$CComObject@VCOPOSItemDispenser@@@ATL@@WLE@AGKXZ 1001f1a3 f i ItemDispenser.obj
 0001:0001e1b0       ?Release@?$CComObjectCached@VCComClassFactory@ATL@@@ATL@@UAGKXZ 1001f1b0 f i ItemDispenser.obj
 0001:0001e250       ?Release@?$CComPtrBase@UIAdviseSink@@@ATL@@QAEXXZ 1001f250 f i ItemDispenser.obj
 0001:0001e2b0       ?Release@?$CComPtrBase@UIDispatch@@@ATL@@QAEXXZ 1001f2b0 f i ItemDispenser.obj
 0001:0001e310       ?Release@?$CComPtrBase@UIOleInPlaceSiteWindowless@@@ATL@@QAEXXZ 1001f310 f i ItemDispenser.obj
 0001:0001e370       ?Release@CRegObject@ATL@@UAGKXZ 1001f370 f i ItemDispenser.obj
 0001:0001e3b0       ?Remove@CComDynamicUnkArray@ATL@@QAEHK@Z 1001f3b0 f i ItemDispenser.obj
 0001:0001e460       ?RemoveAll@?$CSimpleMap@PA_WPA_WVCExpansionVectorEqualHelper@ATL@@@ATL@@QAEXXZ 1001f460 f i ItemDispenser.obj
 0001:0001e4f0       ?Reset@?$CComEnumImpl@UIEnumConnectionPoints@@$1?_GUID_b196b285_bab4_101a_b69c_00aa00341d07@@3U__s_GUID@@BPAUIConnectionPoint@@V?$_CopyInterface@UIConnectionPoint@@@ATL@@@ATL@@UAGJXZ 1001f4f0 f i ItemDispenser.obj
 0001:0001e510       ?Reset@?$CComEnumImpl@UIEnumConnections@@$1?_GUID_b196b287_bab4_101a_b69c_00aa00341d07@@3U__s_GUID@@BUtagCONNECTDATA@@V?$_Copy@UtagCONNECTDATA@@@ATL@@@ATL@@UAGJXZ 1001f510 f i ItemDispenser.obj
 0001:0001e530       ?ResizeBorder@?$IOleInPlaceActiveObjectImpl@VCOPOSItemDispenser@@@ATL@@UAGJPBUtagRECT@@PAUIOleInPlaceUIWindow@@H@Z 1001f530 f i ItemDispenser.obj
 0001:0001e590       ?ResourceRegister@CRegObject@ATL@@QAGJPB_WI0@Z 1001f590 f i ItemDispenser.obj
 0001:0001e670       ?ResourceRegisterSz@CRegObject@ATL@@QAGJPB_W00@Z 1001f670 f i ItemDispenser.obj
 0001:0001e770       ?ResourceUnregister@CRegObject@ATL@@QAGJPB_WI0@Z 1001f770 f i ItemDispenser.obj
 0001:0001e850       ?ResourceUnregisterSz@CRegObject@ATL@@QAGJPB_W00@Z 1001f850 f i ItemDispenser.obj
 0001:0001e950       ?SODataDummy@COPOSItemDispenser@@MAGJJ@Z 1001f950 f i ItemDispenser.obj
 0001:0001e960       ?SODirectIO@COPOSItemDispenser@@MAGJJPAJPAPA_W@Z 1001f960 f i ItemDispenser.obj
 0001:0001eb20       ?SOErrorDummy@COPOSItemDispenser@@MAGJJJJPAJ@Z 1001fb20 f i ItemDispenser.obj
 0001:0001eb30       ?SOOutputCompleteDummy@COPOSItemDispenser@@MAGJJ@Z 1001fb30 f i ItemDispenser.obj
 0001:0001eb40       ?SOStatusUpdate@COPOSItemDispenser@@MAGJJ@Z 1001fb40 f i ItemDispenser.obj
 0001:0001ebc0       ?Save@?$IPersistStorageImpl@VCOPOSItemDispenser@@@ATL@@UAGJPAUIStorage@@H@Z 1001fbc0 f i ItemDispenser.obj
 0001:0001ed20       ?Save@?$IPersistStreamInitImpl@VCOPOSItemDispenser@@@ATL@@UAGJPAUIStream@@H@Z 1001fd20 f i ItemDispenser.obj
 0001:0001edb0       ?SaveCompleted@?$IPersistStorageImpl@VCOPOSItemDispenser@@@ATL@@UAGJPAUIStorage@@@Z 1001fdb0 f i ItemDispenser.obj
 0001:0001ee10       ?SendOnDataChange@CComControlBase@ATL@@QAEJK@Z 1001fe10 f i ItemDispenser.obj
 0001:0001ef00       ?SendOnSave@CComControlBase@ATL@@QAEJXZ 1001ff00 f i ItemDispenser.obj
 0001:0001ef70       ?SendOnViewChange@CComControlBase@ATL@@QAEJKJ@Z 1001ff70 f i ItemDispenser.obj
 0001:0001efe0       ?SetAdvise@?$IViewObjectExImpl@VCOPOSItemDispenser@@@ATL@@UAGJKKPAUIAdviseSink@@@Z 1001ffe0 f i ItemDispenser.obj
 0001:0001f070       ?SetClientSite@?$IOleObjectImpl@VCOPOSItemDispenser@@@ATL@@UAGJPAUIOleClientSite@@@Z 10020070 f i ItemDispenser.obj
 0001:0001f100       ?SetColorScheme@?$IOleObjectImpl@VCOPOSItemDispenser@@@ATL@@UAGJPAUtagLOGPALETTE@@@Z 10020100 f i ItemDispenser.obj
 0001:0001f170       ?SetContentExtent@?$IQuickActivateImpl@VCOPOSItemDispenser@@@ATL@@UAGJPAUtagSIZE@@@Z 10020170 f i ItemDispenser.obj
 0001:0001f200       ?SetControlFocus@CComControlBase@ATL@@QAEHH@Z 10020200 f i ItemDispenser.obj
 0001:0001f380       ?SetDWORDValue@CRegKey@ATL@@QAEJPB_WK@Z 10020380 f i ItemDispenser.obj
 0001:0001f400       ?SetData@?$IDataObjectImpl@VCOPOSItemDispenser@@@ATL@@UAGJPAUtagFORMATETC@@PAUtagSTGMEDIUM@@H@Z 10020400 f i ItemDispenser.obj
 0001:0001f470       ?SetExtent@?$IOleObjectImpl@VCOPOSItemDispenser@@@ATL@@UAGJKPAUtagSIZE@@@Z 10020470 f i ItemDispenser.obj
 0001:0001f500       ?SetHostNames@?$IOleObjectImpl@VCOPOSItemDispenser@@@ATL@@UAGJPB_W0@Z 10020500 f i ItemDispenser.obj
 0001:0001f560       ?SetInterfaceSafetyOptions@?$IObjectSafetyImpl@VCOPOSItemDispenser@@$02@ATL@@UAGJABU_GUID@@KK@Z 10020560 f i ItemDispenser.obj
 0001:0001f6d0       ?SetMoniker@?$IOleObjectImpl@VCOPOSItemDispenser@@@ATL@@UAGJKPAUIMoniker@@@Z 100206d0 f i ItemDispenser.obj
 0001:0001f740       ?SetMultiStringValue@CRegKey@ATL@@QAEJPB_W0@Z 10020740 f i ItemDispenser.obj
 0001:0001f860       ?SetObjectRects@?$IOleInPlaceObjectWindowlessImpl@VCOPOSItemDispenser@@@ATL@@UAGJPBUtagRECT@@0@Z 10020860 f i ItemDispenser.obj
 0001:0001f8f0       ?SetStringValue@CRegKey@ATL@@QAEJPB_W0K@Z 100208f0 f i ItemDispenser.obj
 0001:0001fa20       ?SetVoid@CComClassFactory@ATL@@QAEXPAX@Z 10020a20 f i ItemDispenser.obj
 0001:0001fa40       ?SetVoid@CComObjectRootBase@ATL@@QAEXPAX@Z 10020a40 f i ItemDispenser.obj
 0001:0001fa60       ?SetWindowLongPtrW@@YAJPAUHWND__@@HJ@Z 10020a60 f i ItemDispenser.obj
 0001:0001fa90       ?ShowWindow@CWindow@ATL@@QAEHH@Z 10020a90 f i ItemDispenser.obj
 0001:0001fb10       ?Skip@?$CComEnumImpl@UIEnumConnectionPoints@@$1?_GUID_b196b285_bab4_101a_b69c_00aa00341d07@@3U__s_GUID@@BPAUIConnectionPoint@@V?$_CopyInterface@UIConnectionPoint@@@ATL@@@ATL@@UAGJK@Z 10020b10 f i ItemDispenser.obj
 0001:0001fb90       ?Skip@?$CComEnumImpl@UIEnumConnections@@$1?_GUID_b196b287_bab4_101a_b69c_00aa00341d07@@3U__s_GUID@@BUtagCONNECTDATA@@V?$_Copy@UtagCONNECTDATA@@@ATL@@@ATL@@UAGJK@Z 10020b90 f i ItemDispenser.obj
 0001:0001fc10       ?SkipAssignment@CRegParser@ATL@@IAEJPA_W@Z 10020c10 f i ItemDispenser.obj
 0001:0001fcf0       ?SkipWhiteSpace@CRegParser@ATL@@IAEXXZ 10020cf0 f i ItemDispenser.obj
 0001:0001fd40       ?StartWindowProc@?$CWindowImplBaseT@VCWindow@ATL@@V?$CWinTraits@$0FGAAAAAA@$0A@@2@@ATL@@SGJPAUHWND__@@IIJ@Z 10020d40 f i ItemDispenser.obj
 0001:0001fe60       ?StrChrW@CRegParser@ATL@@KAPA_WPA_W_W@Z 10020e60 f i ItemDispenser.obj
 0001:0001fed0       ?StrFromMap@CRegObject@ATL@@QAEPB_WPA_W@Z 10020ed0 f i ItemDispenser.obj
 0001:0001ff60       ?Swap@?$CComPtrBase@UIAdviseSink@@@ATL@@IAEXAAV12@@Z 10020f60 f i ItemDispenser.obj
 0001:0001ffa0       ?Swap@?$CComPtrBase@UIOleClientSite@@@ATL@@IAEXAAV12@@Z 10020fa0 f i ItemDispenser.obj
 0001:0001ffe0       ?Swap@?$CComPtrBase@UIUnknown@@@ATL@@IAEXAAV12@@Z 10020fe0 f i ItemDispenser.obj
 0001:00020020       ?T2COLE_EX@@YAPB_WPB_WI@Z  10021020 f i ItemDispenser.obj
 0001:00020030       ?T2OLE_EX@@YAPA_WPA_WI@Z   10021030 f i ItemDispenser.obj
 0001:00020040       ?Term@CAtlModule@ATL@@QAEXXZ 10021040 f i ItemDispenser.obj
 0001:000200f0       ?Term@CComModule@ATL@@QAEXXZ 100210f0 f i ItemDispenser.obj
 0001:000201e0       ?TranslateAcceleratorW@?$IOleInPlaceActiveObjectImpl@VCOPOSItemDispenser@@@ATL@@UAGJPAUtagMSG@@@Z 100211e0 f i ItemDispenser.obj
 0001:000203e0       ?UIDeactivate@?$IOleInPlaceObjectWindowlessImpl@VCOPOSItemDispenser@@@ATL@@UAGJXZ 100213e0 f i ItemDispenser.obj
 0001:00020460       ?Unadvise@?$CProxy_IOPOSEvents@VCOPOSItemDispenser@@@@UAGJK@Z 10021460 f i ItemDispenser.obj
 0001:000204a0       ?Unadvise@?$IConnectionPointImpl@VCOPOSItemDispenser@@$1?DIID__IOPOSItemDispenserEvents@@3U_GUID@@BVCComDynamicUnkArray@ATL@@@ATL@@UAGJK@Z 100214a0 f i ItemDispenser.obj
 0001:00020570       ?Unadvise@?$IConnectionPointImpl@VCOPOSItemDispenser@@$1?IID_IPropertyNotifySink@@3U_GUID@@BVCComDynamicUnkArray@ATL@@@ATL@@UAGJK@Z 10021570 f i ItemDispenser.obj
 0001:00020640       ?Unadvise@?$IOleObjectImpl@VCOPOSItemDispenser@@@ATL@@UAGJK@Z 10021640 f i ItemDispenser.obj
 0001:00020710       ?Unfreeze@?$IViewObjectExImpl@VCOPOSItemDispenser@@@ATL@@UAGJK@Z 10021710 f i ItemDispenser.obj
 0001:00020780       ?Unlock@?$CComCritSecLock@VCComCriticalSection@ATL@@@ATL@@QAEXXZ 10021780 f i ItemDispenser.obj
 0001:000207f0       ?Unlock@?$CComObjectRootEx@VCComSingleThreadModel@ATL@@@ATL@@QAEXXZ 100217f0 f i ItemDispenser.obj
 0001:00020810       ?Unlock@CAtlModule@ATL@@UAEJXZ 10021810 f i ItemDispenser.obj
 0001:00020840       ?Unlock@CComCriticalSection@ATL@@QAEJXZ 10021840 f i ItemDispenser.obj
 0001:00020880       ?Unlock@CComFakeCriticalSection@ATL@@QAEJXZ 10021880 f i ItemDispenser.obj
 0001:000208a0       ?UnregisterServer@?$CAtlModuleT@VCComModule@ATL@@@ATL@@QAEJHPBU_GUID@@@Z 100218a0 f i ItemDispenser.obj
 0001:00020910       ?UnregisterServer@CAtlComModule@ATL@@QAEJHPBU_GUID@@@Z 10021910 f i ItemDispenser.obj
 0001:00020940       ?UnregisterServer@CComModule@ATL@@QAEJHPBU_GUID@@@Z 10021940 f i ItemDispenser.obj
 0001:00020a20       ?Update@?$IOleObjectImpl@VCOPOSItemDispenser@@@ATL@@UAGJXZ 10021a20 f i ItemDispenser.obj
 0001:00020a80       ?UpdateRegistryFromResource@CAtlModule@ATL@@QAGJIHPAU_ATL_REGMAP_ENTRY@2@@Z 10021a80 f i ItemDispenser.obj
 0001:00020f50       ?UpdateRegistryFromResource@CAtlModule@ATL@@QAGJPB_WHPAU_ATL_REGMAP_ENTRY@2@@Z 10021f50 f i ItemDispenser.obj
 0001:00021440       ?UpdateRegistryFromResource@CComModule@ATL@@UAGJIHPAU_ATL_REGMAP_ENTRY@2@@Z 10022440 f i ItemDispenser.obj
 0001:00021470       ?UpdateRegistryFromResource@CComModule@ATL@@UAGJPB_WHPAU_ATL_REGMAP_ENTRY@2@@Z 10022470 f i ItemDispenser.obj
 0001:000214a0       ?UpdateRegistryFromResourceD@CComModule@ATL@@UAGJIHPAU_ATL_REGMAP_ENTRY@2@@Z 100224a0 f i ItemDispenser.obj
 0001:000214b0       ?UpdateRegistryFromResourceD@CComModule@ATL@@UAGJPB_WHPAU_ATL_REGMAP_ENTRY@2@@Z 100224b0 f i ItemDispenser.obj
 0001:000214c0       ?VTFromRegType@CRegParser@ATL@@KAHPB_WAAG@Z 100224c0 f i ItemDispenser.obj
 0001:000215a0       ?WindowProc@?$CWindowImplBaseT@VCWindow@ATL@@V?$CWinTraits@$0FGAAAAAA@$0A@@2@@ATL@@SGJPAUHWND__@@IIJ@Z 100225a0 f i ItemDispenser.obj
 0001:000217b0       ?WriteToStream@CComBSTR@ATL@@QAEJPAUIStream@@@Z 100227b0 f i ItemDispenser.obj
 0001:00021910       ?WriteToStream@CComVariant@ATL@@QAEJPAUIStream@@@Z 10022910 f i ItemDispenser.obj
 0001:00021c50       ?WriteToStream@CComVariant@ATL@@QAEJPAUIStream@@G@Z 10022c50 f i ItemDispenser.obj
 0001:00021d20       ?_AtlFinalConstruct@CComObjectRootBase@ATL@@QAEJXZ 10022d20 f i ItemDispenser.obj
 0001:00021d40       ?_AtlGetConversionACP@ATL@@YGIXZ 10022d40 f i ItemDispenser.obj
 0001:00021d50       ?_AtlInitialConstruct@?$CComAggObject@VCOPOSItemDispenser@@@ATL@@QAEJXZ 10022d50 f i ItemDispenser.obj
 0001:00021da0       ?_AtlInitialConstruct@?$CComObjectRootEx@VCComMultiThreadModel@ATL@@@ATL@@QAEJXZ 10022da0 f i ItemDispenser.obj
 0001:00021dd0       ?_AtlInitialConstruct@?$CComObjectRootEx@VCComSingleThreadModel@ATL@@@ATL@@QAEJXZ 10022dd0 f i ItemDispenser.obj
 0001:00021df0       ?_AtlVerifyStackAvailable@_ATL_SAFE_ALLOCA_IMPL@ATL@@YA_NK@Z 10022df0 f i ItemDispenser.obj
 0001:00021fa0       ?_GetEntries@?$CComEnum@UIEnumConnectionPoints@@$1?_GUID_b196b285_bab4_101a_b69c_00aa00341d07@@3U__s_GUID@@BPAUIConnectionPoint@@V?$_CopyInterface@UIConnectionPoint@@@ATL@@VCComSingleThreadModel@6@@ATL@@SGPBU_ATL_INTMAP_ENTRY@2@XZ 10022fa0 f i ItemDispenser.obj
 0001:00021fc0       ?_GetEntries@?$CComEnum@UIEnumConnections@@$1?_GUID_b196b287_bab4_101a_b69c_00aa00341d07@@3U__s_GUID@@BUtagCONNECTDATA@@V?$_Copy@UtagCONNECTDATA@@@ATL@@VCComSingleThreadModel@6@@ATL@@SGPBU_ATL_INTMAP_ENTRY@2@XZ 10022fc0 f i ItemDispenser.obj
 0001:00021fe0       ?_GetEntries@CComClassFactory@ATL@@SGPBU_ATL_INTMAP_ENTRY@2@XZ 10022fe0 f i ItemDispenser.obj
 0001:00022000       ?_GetEntries@COPOSItemDispenser@@SGPBU_ATL_INTMAP_ENTRY@ATL@@XZ 10023000 f i ItemDispenser.obj
 0001:00022020       ?_GetRawUnknown@COPOSItemDispenser@@QAEPAUIUnknown@@XZ 10023020 f i ItemDispenser.obj
 0001:00022090       ?_GetViewStatus@COPOSItemDispenser@@QAEKXZ 10023090 f i ItemDispenser.obj
 0001:000220b0       ?_InternalQueryInterface@?$CComEnum@UIEnumConnectionPoints@@$1?_GUID_b196b285_bab4_101a_b69c_00aa00341d07@@3U__s_GUID@@BPAUIConnectionPoint@@V?$_CopyInterface@UIConnectionPoint@@@ATL@@VCComSingleThreadModel@6@@ATL@@QAEJABU_GUID@@PAPAX@Z 100230b0 f i ItemDispenser.obj
 0001:000220f0       ?_InternalQueryInterface@?$CComEnum@UIEnumConnections@@$1?_GUID_b196b287_bab4_101a_b69c_00aa00341d07@@3U__s_GUID@@BUtagCONNECTDATA@@V?$_Copy@UtagCONNECTDATA@@@ATL@@VCComSingleThreadModel@6@@ATL@@QAEJABU_GUID@@PAPAX@Z 100230f0 f i ItemDispenser.obj
 0001:00022130       ?_InternalQueryInterface@CComClassFactory@ATL@@QAEJABU_GUID@@PAPAX@Z 10023130 f i ItemDispenser.obj
 0001:00022170       ?_InternalQueryInterface@COPOSItemDispenser@@QAEJABU_GUID@@PAPAX@Z 10023170 f i ItemDispenser.obj
 0001:000221b0       ?_LocCPQueryInterface@?$IConnectionPointImpl@VCOPOSItemDispenser@@$1?DIID__IOPOSItemDispenserEvents@@3U_GUID@@BVCComDynamicUnkArray@ATL@@@ATL@@UAGJABU_GUID@@PAPAX@Z 100231b0 f i ItemDispenser.obj
 0001:00022250       ?_LocCPQueryInterface@?$IConnectionPointImpl@VCOPOSItemDispenser@@$1?IID_IPropertyNotifySink@@3U_GUID@@BVCComDynamicUnkArray@ATL@@@ATL@@UAGJABU_GUID@@PAPAX@Z 10023250 f i ItemDispenser.obj
 0001:000222f0       ?atlCreate@?$CWindowImpl@VCOPOSItemDispenser@@VCWindow@ATL@@V?$CWinTraits@$0FGAAAAAA@$0A@@3@@ATL@@QAEPAUHWND__@@PAU3@V_U_RECT@2@PB_WKKV_U_MENUorID@2@PAX@Z 100232f0 f i ItemDispenser.obj
 0001:000223a0       ?atlCreate@?$CWindowImplBaseT@VCWindow@ATL@@V?$CWinTraits@$0FGAAAAAA@$0A@@2@@ATL@@QAEPAUHWND__@@PAU3@V_U_RECT@2@PB_WKKV_U_MENUorID@2@GPAX@Z 100233a0 f i ItemDispenser.obj
 0001:00022520       ?atlCreate@CRegKey@ATL@@QAEJPAUHKEY__@@PB_WPA_WKKPAU_SECURITY_ATTRIBUTES@@PAK@Z 10023520 f i ItemDispenser.obj
 0001:00022680       ?begin@CComDynamicUnkArray@ATL@@QAEPAPAUIUnknown@@XZ 10023680 f i ItemDispenser.obj
 0001:000226a0       ?copy@?$_Copy@UtagCONNECTDATA@@@ATL@@SAJPAUtagCONNECTDATA@@PBU3@@Z 100236a0 f i ItemDispenser.obj
 0001:00022760       ?copy@?$_CopyInterface@UIConnectionPoint@@@ATL@@SAJPAPAUIConnectionPoint@@PBQAU3@@Z 10023760 f i ItemDispenser.obj
 0001:00022820       ?destroy@?$_Copy@UtagCONNECTDATA@@@ATL@@SAXPAUtagCONNECTDATA@@@Z 10023820 f i ItemDispenser.obj
 0001:00022860       ?destroy@?$_CopyInterface@UIConnectionPoint@@@ATL@@SAXPAPAUIConnectionPoint@@@Z 10023860 f i ItemDispenser.obj
 0001:000228a0       ?end@CComDynamicUnkArray@ATL@@QAEPAPAUIUnknown@@XZ 100238a0 f i ItemDispenser.obj
 0001:000228c0       ?init@?$_Copy@UtagCONNECTDATA@@@ATL@@SAXPAUtagCONNECTDATA@@@Z 100238c0 f i ItemDispenser.obj
 0001:000228d0       ?init@?$_CopyInterface@UIConnectionPoint@@@ATL@@SAXPAPAUIConnectionPoint@@@Z 100238d0 f i ItemDispenser.obj
 0001:000228e0       ?memcpy_s@Checked@ATL@@YAXPAXIPBXI@Z 100238e0 f i ItemDispenser.obj
 0001:00022910       ?ocscpy_s@@YA_NPA_WIPB_W@Z 10023910 f i ItemDispenser.obj
 0001:00022970       ?ocslen@@YAHPB_W@Z         10023970 f i ItemDispenser.obj
 0001:000229a0       ?tcsncpy_s@Checked@ATL@@YAHPA_WIPB_WI@Z 100239a0 f i ItemDispenser.obj
 0001:000229d0       ?wcscat_s@Checked@ATL@@YAXPA_WIPB_W@Z 100239d0 f i ItemDispenser.obj
 0001:00022a00       ?wcscpy_s@Checked@ATL@@YAXPA_WIPB_W@Z 10023a00 f i ItemDispenser.obj
 0001:00022a30       ?wcsncpy_s@Checked@ATL@@YAHPA_WIPB_WI@Z 10023a30 f i ItemDispenser.obj
 0001:00022a60       ?wcsstr@@YAPA_WPA_WPB_W@Z  10023a60 f i ItemDispenser.obj
 0001:00022a80       _InlineIsEqualGUID         10023a80 f i ItemDispenser.obj
 0001:00022b20       _IsEqualGUID               10023b20 f i ItemDispenser.obj
 0001:00022b70       ??0COPOSItemDispenser@@QAE@XZ 10023b70 f   ItemDispenserImpl.obj
 0001:00022c80       ?FinalConstruct@COPOSItemDispenser@@QAEJXZ 10023c80 f   ItemDispenserImpl.obj
 0001:00022d50       ??1COPOSItemDispenser@@UAE@XZ 10023d50 f   ItemDispenserImpl.obj
 0001:00022e30       ?WriteTrace@COPOSItemDispenser@@QAAXPB_WZZ 10023e30 f   ItemDispenserImpl.obj
 0001:00022ee0       ?WriteTraceString@COPOSItemDispenser@@QAEXPB_WPA_W@Z 10023ee0 f   ItemDispenserImpl.obj
 0001:00023250       ?WriteTraceString@COPOSItemDispenser@@QAAXPAXHHHPB_WZZ 10024250 f   ItemDispenserImpl.obj
 0001:00023480       ?WriteTraceError@COPOSItemDispenser@@QAEXPB_WK@Z 10024480 f   ItemDispenserImpl.obj
 0001:00023570       ?WriteTraceMethods@COPOSItemDispenser@@QAEXPAJH@Z 10024570 f   ItemDispenserImpl.obj
 0001:000235e0       ?GetOposProp@COPOSItemDispenser@@IAEJPBDJPAJJ@Z 100245e0 f   ItemDispenserImpl.obj
 0001:00023850       ?SetOposProp@COPOSItemDispenser@@IAEJPBDJJJ@Z 10024850 f   ItemDispenserImpl.obj
 0001:00023ae0       ?GetOposProp@COPOSItemDispenser@@IAEJPBDJPAFJ@Z 10024ae0 f   ItemDispenserImpl.obj
 0001:00023b80       ?SetOposProp@COPOSItemDispenser@@IAEJPBDJFJ@Z 10024b80 f   ItemDispenserImpl.obj
 0001:00023be0       ?GetOposProp@COPOSItemDispenser@@IAEJPBDJPAPA_WJ@Z 10024be0 f   ItemDispenserImpl.obj
 0001:00023e60       ?SetOposProp@COPOSItemDispenser@@IAEJPBDJPA_WJ@Z 10024e60 f   ItemDispenserImpl.obj
 0001:000241a0       ?DoInvoke@COPOSItemDispenser@@IAEJPBDJPAVOposVariant@@IHPAJ_N@Z 100251a0 f   ItemDispenserImpl.obj
 0001:00024ad0       ?SetCOFreezeEvents@COPOSItemDispenser@@IAEXF@Z 10025ad0 f   ItemDispenserImpl.obj
 0001:00024c10       ?FreezeEvents@COPOSItemDispenser@@MAGJH@Z 10025c10 f   ItemDispenserImpl.obj
 0001:00024cd0       ?OnDraw@COPOSItemDispenser@@MAEJAAUATL_DRAWINFO@@@Z 10025cd0 f   ItemDispenserImpl.obj
 0001:00024e70       ?SOProcessID@COPOSItemDispenser@@UAGJPAJ@Z 10025e70 f   ItemDispenserImpl.obj
 0001:00024eb0       ?get_OpenResult@COPOSItemDispenser@@UAGJPAJ@Z 10025eb0 f   ItemDispenserImpl.obj
 0001:00024ef0       ?get_BinaryConversion@COPOSItemDispenser@@UAGJPAJ@Z 10025ef0 f   ItemDispenserImpl.obj
 0001:00024f20       ?put_BinaryConversion@COPOSItemDispenser@@UAGJJ@Z 10025f20 f   ItemDispenserImpl.obj
 0001:00024f50       ?get_CapPowerReporting@COPOSItemDispenser@@UAGJPAJ@Z 10025f50 f   ItemDispenserImpl.obj
 0001:00024f80       ?get_CheckHealthText@COPOSItemDispenser@@UAGJPAPA_W@Z 10025f80 f   ItemDispenserImpl.obj
 0001:00024fb0       ?get_Claimed@COPOSItemDispenser@@UAGJPAF@Z 10025fb0 f   ItemDispenserImpl.obj
 0001:00024fe0       ?get_DeviceEnabled@COPOSItemDispenser@@UAGJPAF@Z 10025fe0 f   ItemDispenserImpl.obj
 0001:00025010       ?put_DeviceEnabled@COPOSItemDispenser@@UAGJF@Z 10026010 f   ItemDispenserImpl.obj
 0001:00025040       ?get_FreezeEvents@COPOSItemDispenser@@UAGJPAF@Z 10026040 f   ItemDispenserImpl.obj
 0001:00025070       ?put_FreezeEvents@COPOSItemDispenser@@UAGJF@Z 10026070 f   ItemDispenserImpl.obj
 0001:00025100       ?get_PowerNotify@COPOSItemDispenser@@UAGJPAJ@Z 10026100 f   ItemDispenserImpl.obj
 0001:00025130       ?put_PowerNotify@COPOSItemDispenser@@UAGJJ@Z 10026130 f   ItemDispenserImpl.obj
 0001:00025160       ?get_PowerState@COPOSItemDispenser@@UAGJPAJ@Z 10026160 f   ItemDispenserImpl.obj
 0001:00025190       ?get_ResultCode@COPOSItemDispenser@@UAGJPAJ@Z 10026190 f   ItemDispenserImpl.obj
 0001:00025220       ?get_ResultCodeExtended@COPOSItemDispenser@@UAGJPAJ@Z 10026220 f   ItemDispenserImpl.obj
 0001:00025250       ?get_State@COPOSItemDispenser@@UAGJPAJ@Z 10026250 f   ItemDispenserImpl.obj
 0001:000252a0       ?get_ControlObjectDescription@COPOSItemDispenser@@UAGJPAPA_W@Z 100262a0 f   ItemDispenserImpl.obj
 0001:00025320       ?get_ControlObjectVersion@COPOSItemDispenser@@UAGJPAJ@Z 10026320 f   ItemDispenserImpl.obj
 0001:00025360       ?get_ServiceObjectDescription@COPOSItemDispenser@@UAGJPAPA_W@Z 10026360 f   ItemDispenserImpl.obj
 0001:00025390       ?get_ServiceObjectVersion@COPOSItemDispenser@@UAGJPAJ@Z 10026390 f   ItemDispenserImpl.obj
 0001:000253c0       ?get_DeviceDescription@COPOSItemDispenser@@UAGJPAPA_W@Z 100263c0 f   ItemDispenserImpl.obj
 0001:000253f0       ?get_DeviceName@COPOSItemDispenser@@UAGJPAPA_W@Z 100263f0 f   ItemDispenserImpl.obj
 0001:00025420       ?get_CapStatisticsReporting@COPOSItemDispenser@@UAGJPAF@Z 10026420 f   ItemDispenserImpl.obj
 0001:00025450       ?get_CapUpdateStatistics@COPOSItemDispenser@@UAGJPAF@Z 10026450 f   ItemDispenserImpl.obj
 0001:00025480       ?get_CapCompareFirmwareVersion@COPOSItemDispenser@@UAGJPAF@Z 10026480 f   ItemDispenserImpl.obj
 0001:000254b0       ?get_CapUpdateFirmware@COPOSItemDispenser@@UAGJPAF@Z 100264b0 f   ItemDispenserImpl.obj
 0001:000254e0       ?CheckHealth@COPOSItemDispenser@@UAGJJPAJ@Z 100264e0 f   ItemDispenserImpl.obj
 0001:00025580       ?ClaimDevice@COPOSItemDispenser@@UAGJJPAJ@Z 10026580 f   ItemDispenserImpl.obj
 0001:00025660       ?Close@COPOSItemDispenser@@UAGJPAJ@Z 10026660 f   ItemDispenserImpl.obj
 0001:00025730       ?DirectIO@COPOSItemDispenser@@UAGJJPAJPAPA_W0@Z 10026730 f   ItemDispenserImpl.obj
 0001:00025840       ?Open@COPOSItemDispenser@@UAGJPA_WPAJ@Z 10026840 f   ItemDispenserImpl.obj
 0001:00026a30       ?ReleaseDevice@COPOSItemDispenser@@UAGJPAJ@Z 10027a30 f   ItemDispenserImpl.obj
 0001:00026aa0       ?ResetStatistics@COPOSItemDispenser@@UAGJPA_WPAJ@Z 10027aa0 f   ItemDispenserImpl.obj
 0001:00026b50       ?RetrieveStatistics@COPOSItemDispenser@@UAGJPAPA_WPAJ@Z 10027b50 f   ItemDispenserImpl.obj
 0001:00026c00       ?UpdateStatistics@COPOSItemDispenser@@UAGJPA_WPAJ@Z 10027c00 f   ItemDispenserImpl.obj
 0001:00026cb0       ?CompareFirmwareVersion@COPOSItemDispenser@@UAGJPA_WPAJ1@Z 10027cb0 f   ItemDispenserImpl.obj
 0001:00026da0       ?UpdateFirmware@COPOSItemDispenser@@UAGJPA_WPAJ@Z 10027da0 f   ItemDispenserImpl.obj
 0001:00026e50       ?get_CapEmptySensor@COPOSItemDispenser@@UAGJPAF@Z 10027e50 f   ItemDispenserImpl.obj
 0001:00026e80       ?get_CapIndividualSlotStatus@COPOSItemDispenser@@UAGJPAF@Z 10027e80 f   ItemDispenserImpl.obj
 0001:00026eb0       ?get_CapJamSensor@COPOSItemDispenser@@UAGJPAF@Z 10027eb0 f   ItemDispenserImpl.obj
 0001:00026ee0       ?get_CapNearEmptySensor@COPOSItemDispenser@@UAGJPAF@Z 10027ee0 f   ItemDispenserImpl.obj
 0001:00026f10       ?get_DispenserStatus@COPOSItemDispenser@@UAGJPAJ@Z 10027f10 f   ItemDispenserImpl.obj
 0001:00026f40       ?get_MaxSlots@COPOSItemDispenser@@UAGJPAJ@Z 10027f40 f   ItemDispenserImpl.obj
 0001:00026f70       ?AdjustItemCount@COPOSItemDispenser@@UAGJJJPAJ@Z 10027f70 f   ItemDispenserImpl.obj
 0001:00027040       ?DispenseItem@COPOSItemDispenser@@UAGJPAJJ0@Z 10028040 f   ItemDispenserImpl.obj
 0001:00027130       ?ReadItemCount@COPOSItemDispenser@@UAGJPAJJ0@Z 10028130 f   ItemDispenserImpl.obj
 0001:00027220       ??0?$CComControl@VCOPOSItemDispenser@@V?$CWindowImpl@VCOPOSItemDispenser@@VCWindow@ATL@@V?$CWinTraits@$0FGAAAAAA@$0A@@3@@ATL@@@ATL@@QAE@XZ 10028220 f i ItemDispenserImpl.obj
 0001:00027260       ??0?$CComPtr@UIAdviseSink@@@ATL@@QAE@XZ 10028260 f i ItemDispenserImpl.obj
 0001:00027290       ??0?$CComPtr@UIDataAdviseHolder@@@ATL@@QAE@XZ 10028290 f i ItemDispenserImpl.obj
 0001:000272c0       ??0?$CComPtr@UIOleAdviseHolder@@@ATL@@QAE@XZ 100282c0 f i ItemDispenserImpl.obj
 0001:000272f0       ??0?$CComPtr@UIOleClientSite@@@ATL@@QAE@XZ 100282f0 f i ItemDispenserImpl.obj
 0001:00027320       ??0?$CComPtr@UIOleInPlaceSiteWindowless@@@ATL@@QAE@XZ 10028320 f i ItemDispenserImpl.obj
 0001:00027350       ??0?$CComPtrBase@UIAdviseSink@@@ATL@@IAE@XZ 10028350 f i ItemDispenserImpl.obj
 0001:00027370       ??0?$CComPtrBase@UIDataAdviseHolder@@@ATL@@IAE@XZ 10028370 f i ItemDispenserImpl.obj
 0001:00027390       ??0?$CComPtrBase@UIOleAdviseHolder@@@ATL@@IAE@XZ 10028390 f i ItemDispenserImpl.obj
 0001:000273b0       ??0?$CComPtrBase@UIOleClientSite@@@ATL@@IAE@XZ 100283b0 f i ItemDispenserImpl.obj
 0001:000273d0       ??0?$CComPtrBase@UIOleInPlaceSiteWindowless@@@ATL@@IAE@XZ 100283d0 f i ItemDispenserImpl.obj
 0001:000273f0       ??0?$CComQIPtr@UIDispatch@@$1?_GUID_00020400_0000_0000_c000_000000000046@@3U__s_GUID@@B@ATL@@QAE@XZ 100283f0 f i ItemDispenserImpl.obj
 0001:00027420       ??0?$CProxy_IOPOSEvents@VCOPOSItemDispenser@@@@QAE@PAVCOPOSItemDispenser@@@Z 10028420 f i ItemDispenserImpl.obj
 0001:00027470       ??0?$CWindowImpl@VCOPOSItemDispenser@@VCWindow@ATL@@V?$CWinTraits@$0FGAAAAAA@$0A@@3@@ATL@@QAE@XZ 10028470 f i ItemDispenserImpl.obj
 0001:000274a0       ??0?$CWindowImplBaseT@VCWindow@ATL@@V?$CWinTraits@$0FGAAAAAA@$0A@@2@@ATL@@QAE@XZ 100284a0 f i ItemDispenserImpl.obj
 0001:000274e0       ??0?$CWindowImplRoot@VCWindow@ATL@@@ATL@@QAE@XZ 100284e0 f i ItemDispenserImpl.obj
 0001:00027540       ??0?$IConnectionPointContainerImpl@VCOPOSItemDispenser@@@ATL@@QAE@XZ 10028540 f i ItemDispenserImpl.obj
 0001:00027570       ??0?$IConnectionPointImpl@VCOPOSItemDispenser@@$1?DIID__IOPOSItemDispenserEvents@@3U_GUID@@BVCComDynamicUnkArray@ATL@@@ATL@@QAE@XZ 10028570 f i ItemDispenserImpl.obj
 0001:000275b0       ??0?$IConnectionPointImpl@VCOPOSItemDispenser@@$1?IID_IPropertyNotifySink@@3U_GUID@@BVCComDynamicUnkArray@ATL@@@ATL@@QAE@XZ 100285b0 f i ItemDispenserImpl.obj
 0001:000275f0       ??0?$IDataObjectImpl@VCOPOSItemDispenser@@@ATL@@QAE@XZ 100285f0 f i ItemDispenserImpl.obj
 0001:00027620       ??0?$IDispatchImpl@UIOPOSItemDispenser@@$1?IID_IOPOSItemDispenser@@3U_GUID@@B$1?LIBID_OposItemDispenser_CCO@@3U3@B$00$0A@VCComTypeInfoHolder@ATL@@@ATL@@QAE@XZ 10028620 f i ItemDispenserImpl.obj
 0001:00027650       ??0?$IObjectSafetyImpl@VCOPOSItemDispenser@@$02@ATL@@QAE@XZ 10028650 f i ItemDispenserImpl.obj
 0001:00027690       ??0?$IOleControlImpl@VCOPOSItemDispenser@@@ATL@@QAE@XZ 10028690 f i ItemDispenserImpl.obj
 0001:000276c0       ??0?$IOleInPlaceActiveObjectImpl@VCOPOSItemDispenser@@@ATL@@QAE@XZ 100286c0 f i ItemDispenserImpl.obj
 0001:000276f0       ??0?$IOleInPlaceObjectWindowlessImpl@VCOPOSItemDispenser@@@ATL@@QAE@XZ 100286f0 f i ItemDispenserImpl.obj
 0001:00027720       ??0?$IOleObjectImpl@VCOPOSItemDispenser@@@ATL@@QAE@XZ 10028720 f i ItemDispenserImpl.obj
 0001:00027750       ??0?$IPersistStorageImpl@VCOPOSItemDispenser@@@ATL@@QAE@XZ 10028750 f i ItemDispenserImpl.obj
 0001:00027780       ??0?$IPersistStreamInitImpl@VCOPOSItemDispenser@@@ATL@@QAE@XZ 10028780 f i ItemDispenserImpl.obj
 0001:000277b0       ??0?$IPropertyNotifySinkCP@VCOPOSItemDispenser@@VCComDynamicUnkArray@ATL@@@ATL@@QAE@XZ 100287b0 f i ItemDispenserImpl.obj
 0001:000277e0       ??0?$IProvideClassInfo2Impl@$1?CLSID_OPOSItemDispenser@@3U_GUID@@B$1?DIID__IOPOSItemDispenserEvents@@3U2@B$1?LIBID_OposItemDispenser_CCO@@3U2@B$00$0A@VCComTypeInfoHolder@ATL@@@ATL@@QAE@XZ 100287e0 f i ItemDispenserImpl.obj
 0001:00027810       ??0?$IQuickActivateImpl@VCOPOSItemDispenser@@@ATL@@QAE@XZ 10028810 f i ItemDispenserImpl.obj
 0001:00027840       ??0?$ISpecifyPropertyPagesImpl@VCOPOSItemDispenser@@@ATL@@QAE@XZ 10028840 f i ItemDispenserImpl.obj
 0001:00027870       ??0?$IViewObjectExImpl@VCOPOSItemDispenser@@@ATL@@QAE@XZ 10028870 f i ItemDispenserImpl.obj
 0001:000278a0       ??0?$_ICPLocator@$1?DIID__IOPOSItemDispenserEvents@@3U_GUID@@B@ATL@@QAE@XZ 100288a0 f i ItemDispenserImpl.obj
 0001:000278c0       ??0?$_ICPLocator@$1?IID_IPropertyNotifySink@@3U_GUID@@B@ATL@@QAE@XZ 100288c0 f i ItemDispenserImpl.obj
 0001:000278e0       ??0CComControlBase@ATL@@QAE@AAPAUHWND__@@@Z 100288e0 f i ItemDispenserImpl.obj
 0001:00027a90       ??0CComDynamicUnkArray@ATL@@QAE@XZ 10028a90 f i ItemDispenserImpl.obj
 0001:00027ac0       ??0CDynamicStdCallThunk2@ATL@@QAE@XZ 10028ac0 f i ItemDispenserImpl.obj
 0001:00027ae0       ??0CMessageMap@ATL@@QAE@XZ 10028ae0 f i ItemDispenserImpl.obj
 0001:00027b00       ??0CWindow@ATL@@QAE@PAUHWND__@@@Z 10028b00 f i ItemDispenserImpl.obj
 0001:00027b20       ??0CWndProcThunk@ATL@@QAE@XZ 10028b20 f i ItemDispenserImpl.obj
 0001:00027b50       ??0IConnectionPointContainer@@QAE@XZ 10028b50 f i ItemDispenserImpl.obj
 0001:00027b80       ??0IDataObject@@QAE@XZ     10028b80 f i ItemDispenserImpl.obj
 0001:00027bb0       ??0IDispatch@@QAE@XZ       10028bb0 f i ItemDispenserImpl.obj
 0001:00027be0       ??0IOPOSItemDispenser@@QAE@XZ 10028be0 f i ItemDispenserImpl.obj
 0001:00027c10       ??0IOPOSItemDispenser_1_12@@QAE@XZ 10028c10 f i ItemDispenserImpl.obj
 0001:00027c40       ??0IObjectSafety@@QAE@XZ   10028c40 f i ItemDispenserImpl.obj
 0001:00027c70       ??0IOleControl@@QAE@XZ     10028c70 f i ItemDispenserImpl.obj
 0001:00027ca0       ??0IOleInPlaceActiveObject@@QAE@XZ 10028ca0 f i ItemDispenserImpl.obj
 0001:00027cd0       ??0IOleInPlaceObject@@QAE@XZ 10028cd0 f i ItemDispenserImpl.obj
 0001:00027d00       ??0IOleInPlaceObjectWindowless@@QAE@XZ 10028d00 f i ItemDispenserImpl.obj
 0001:00027d30       ??0IOleObject@@QAE@XZ      10028d30 f i ItemDispenserImpl.obj
 0001:00027d60       ??0IOleWindow@@QAE@XZ      10028d60 f i ItemDispenserImpl.obj
 0001:00027d90       ??0IPersist@@QAE@XZ        10028d90 f i ItemDispenserImpl.obj
 0001:00027dc0       ??0IPersistStorage@@QAE@XZ 10028dc0 f i ItemDispenserImpl.obj
 0001:00027df0       ??0IPersistStreamInit@@QAE@XZ 10028df0 f i ItemDispenserImpl.obj
 0001:00027e20       ??0IProvideClassInfo2@@QAE@XZ 10028e20 f i ItemDispenserImpl.obj
 0001:00027e50       ??0IProvideClassInfo@@QAE@XZ 10028e50 f i ItemDispenserImpl.obj
 0001:00027e80       ??0IQuickActivate@@QAE@XZ  10028e80 f i ItemDispenserImpl.obj
 0001:00027eb0       ??0ISpecifyPropertyPages@@QAE@XZ 10028eb0 f i ItemDispenserImpl.obj
 0001:00027ee0       ??0IViewObject2@@QAE@XZ    10028ee0 f i ItemDispenserImpl.obj
 0001:00027f10       ??0IViewObject@@QAE@XZ     10028f10 f i ItemDispenserImpl.obj
 0001:00027f40       ??0IViewObjectEx@@QAE@XZ   10028f40 f i ItemDispenserImpl.obj
 0001:00027f70       ??0OposVariantResult@@QAE@XZ 10028f70 f i ItemDispenserImpl.obj
 0001:00027fa0       ??0_CW@@QAE@PBD@Z          10028fa0 f i ItemDispenserImpl.obj
 0001:00027fe0       ??0_CW@@QAE@PB_W@Z         10028fe0 f i ItemDispenserImpl.obj
 0001:00028020       ??0_CWNCC@@QAE@PBD@Z       10029020 f i ItemDispenserImpl.obj
 0001:00028050       ??1?$CComControl@VCOPOSItemDispenser@@V?$CWindowImpl@VCOPOSItemDispenser@@VCWindow@ATL@@V?$CWinTraits@$0FGAAAAAA@$0A@@3@@ATL@@@ATL@@UAE@XZ 10029050 f i ItemDispenserImpl.obj
 0001:00028080       ??1?$CComPtr@UIDataAdviseHolder@@@ATL@@QAE@XZ 10029080 f i ItemDispenserImpl.obj
 0001:000280b0       ??1?$CComPtr@UIOleAdviseHolder@@@ATL@@QAE@XZ 100290b0 f i ItemDispenserImpl.obj
 0001:000280e0       ??1?$CComPtr@UIOleInPlaceSiteWindowless@@@ATL@@QAE@XZ 100290e0 f i ItemDispenserImpl.obj
 0001:00028110       ??1?$CComPtrBase@UIDataAdviseHolder@@@ATL@@QAE@XZ 10029110 f i ItemDispenserImpl.obj
 0001:00028160       ??1?$CComPtrBase@UIOleAdviseHolder@@@ATL@@QAE@XZ 10029160 f i ItemDispenserImpl.obj
 0001:000281b0       ??1?$CComPtrBase@UIOleInPlaceSiteWindowless@@@ATL@@QAE@XZ 100291b0 f i ItemDispenserImpl.obj
 0001:00028200       ??1?$CComQIPtr@UIDispatch@@$1?_GUID_00020400_0000_0000_c000_000000000046@@3U__s_GUID@@B@ATL@@QAE@XZ 10029200 f i ItemDispenserImpl.obj
 0001:00028230       ??1?$CProxy_IOPOSEvents@VCOPOSItemDispenser@@@@QAE@XZ 10029230 f i ItemDispenserImpl.obj
 0001:00028260       ??1?$CWindowImpl@VCOPOSItemDispenser@@VCWindow@ATL@@V?$CWinTraits@$0FGAAAAAA@$0A@@3@@ATL@@UAE@XZ 10029260 f i ItemDispenserImpl.obj
 0001:00028290       ??1?$CWindowImplBaseT@VCWindow@ATL@@V?$CWinTraits@$0FGAAAAAA@$0A@@2@@ATL@@UAE@XZ 10029290 f i ItemDispenserImpl.obj
 0001:000282c0       ??1?$CWindowImplRoot@VCWindow@ATL@@@ATL@@UAE@XZ 100292c0 f i ItemDispenserImpl.obj
 0001:00028360       ??1?$IConnectionPointImpl@VCOPOSItemDispenser@@$1?DIID__IOPOSItemDispenserEvents@@3U_GUID@@BVCComDynamicUnkArray@ATL@@@ATL@@QAE@XZ 10029360 f i ItemDispenserImpl.obj
 0001:000283e0       ??1?$IConnectionPointImpl@VCOPOSItemDispenser@@$1?IID_IPropertyNotifySink@@3U_GUID@@BVCComDynamicUnkArray@ATL@@@ATL@@QAE@XZ 100293e0 f i ItemDispenserImpl.obj
 0001:00028460       ??1?$IPropertyNotifySinkCP@VCOPOSItemDispenser@@VCComDynamicUnkArray@ATL@@@ATL@@QAE@XZ 10029460 f i ItemDispenserImpl.obj
 0001:00028490       ??1CComControlBase@ATL@@UAE@XZ 10029490 f i ItemDispenserImpl.obj
 0001:00028550       ??1CComDynamicUnkArray@ATL@@QAE@XZ 10029550 f i ItemDispenserImpl.obj
 0001:00028590       ??1CDynamicStdCallThunk2@ATL@@QAE@XZ 10029590 f i ItemDispenserImpl.obj
 0001:000285c0       ??1CWndProcThunk@ATL@@QAE@XZ 100295c0 f i ItemDispenserImpl.obj
 0001:000285f0       ??1OposVariantResult@@QAE@XZ 100295f0 f i ItemDispenserImpl.obj
 0001:00028620       ??1_CW@@QAE@XZ             10029620 f i ItemDispenserImpl.obj
 0001:00028690       ??1_CWNCC@@QAE@XZ          10029690 f i ItemDispenserImpl.obj
 0001:000286c0       ??B_CW@@QAEPB_WXZ          100296c0 f i ItemDispenserImpl.obj
 0001:00028700       ??B_CWNCC@@QAEPA_WXZ       10029700 f i ItemDispenserImpl.obj
 0001:00028730       ??_EOposVariant@@QAEPAXI@Z 10029730 f i ItemDispenserImpl.obj
 0001:000287c0       ?EventClaim@COPOSItemDispenser@@IAEXXZ 100297c0 f i ItemDispenserImpl.obj
 0001:00028800       ?EventClose@COPOSItemDispenser@@IAEXXZ 10029800 f i ItemDispenserImpl.obj
 0001:000288a0       ?EventInit@COPOSItemDispenser@@IAEJXZ 100298a0 f i ItemDispenserImpl.obj
 0001:00028ad0       ?EventOpen@COPOSItemDispenser@@IAEXXZ 10029ad0 f i ItemDispenserImpl.obj
 0001:00028b10       ?EventPreCloseRelease@COPOSItemDispenser@@IAEXXZ 10029b10 f i ItemDispenserImpl.obj
 0001:00028b90       ?EventUninit@COPOSItemDispenser@@IAEXXZ 10029b90 f i ItemDispenserImpl.obj
 0001:00028cc0       ?EventWindowProc@COPOSItemDispenser@@IAGJIIJ@Z 10029cc0 f i ItemDispenserImpl.obj
 0001:00028da0       ?FireEventCleanup@COPOSItemDispenser@@IAEXXZ 10029da0 f i ItemDispenserImpl.obj
 0001:00028df0       ?FireEventSetup@COPOSItemDispenser@@IAE_NXZ 10029df0 f i ItemDispenserImpl.obj
 0001:00028e60       ?GetModuleInstance@CComModule@ATL@@QAEPAUHINSTANCE__@@XZ 10029e60 f i ItemDispenserImpl.obj
 0001:00028e80       ?SetRC@COPOSItemDispenser@@IAEJJ@Z 10029e80 f i ItemDispenserImpl.obj
 0001:00028eb0       ?s_EventWindowProc@COPOSItemDispenser@@KGJPAUHWND__@@IIJ@Z 10029eb0 f i ItemDispenserImpl.obj
 0001:00028f50       __snwprintf                10029f50 f i ItemDispenserImpl.obj
 0001:00028fb0       __vfwprintf_l              10029fb0 f i ItemDispenserImpl.obj
 0001:00028fe0       __vsnwprintf               10029fe0 f i ItemDispenserImpl.obj
 0001:00029010       __vsnwprintf_l             1002a010 f i ItemDispenserImpl.obj
 0001:00029080       _vfwprintf                 1002a080 f i ItemDispenserImpl.obj
 0001:000290a2       _DebugBreak@0              1002a0a2 f   kernel32:KERNEL32.dll
 0001:000290a8       _Sleep@4                   1002a0a8 f   kernel32:KERNEL32.dll
 0001:000290ae       _GetCurrentProcess@0       1002a0ae f   kernel32:KERNEL32.dll
 0001:000290b4       _TerminateProcess@8        1002a0b4 f   kernel32:KERNEL32.dll
 0001:000290ba       _MultiByteToWideChar@24    1002a0ba f   kernel32:KERNEL32.dll
 0001:000290c0       _WideCharToMultiByte@32    1002a0c0 f   kernel32:KERNEL32.dll
 0001:000290c6       _DecodePointer@4           1002a0c6 f   kernel32:KERNEL32.dll
 0001:000290cc       _RaiseException@16         1002a0cc f   kernel32:KERNEL32.dll
 0001:000290d2       _GetLastError@0            1002a0d2 f   kernel32:KERNEL32.dll
 0001:000290d8       _SetLastError@4            1002a0d8 f   kernel32:KERNEL32.dll
 0001:000290de       _InitializeCriticalSectionEx@12 1002a0de f   kernel32:KERNEL32.dll
 0001:000290e4       _DeleteCriticalSection@4   1002a0e4 f   kernel32:KERNEL32.dll
 0001:000290ea       _EncodePointer@4           1002a0ea f   kernel32:KERNEL32.dll
 0001:000290f0       _EnterCriticalSection@4    1002a0f0 f   kernel32:KERNEL32.dll
 0001:000290f6       _LeaveCriticalSection@4    1002a0f6 f   kernel32:KERNEL32.dll
 0001:000290fc       _ResetEvent@4              1002a0fc f   kernel32:KERNEL32.dll
 0001:00029102       _ReleaseMutex@4            1002a102 f   kernel32:KERNEL32.dll
 0001:00029108       _WaitForSingleObject@8     1002a108 f   kernel32:KERNEL32.dll
 0001:0002910e       _GetCurrentThreadId@0      1002a10e f   kernel32:KERNEL32.dll
 0001:00029114       _DisableThreadLibraryCalls@4 1002a114 f   kernel32:KERNEL32.dll
 0001:0002911a       _FreeLibrary@4             1002a11a f   kernel32:KERNEL32.dll
 0001:00029120       _GetModuleFileNameW@12     1002a120 f   kernel32:KERNEL32.dll
 0001:00029126       _GetModuleHandleW@4        1002a126 f   kernel32:KERNEL32.dll
 0001:0002912c       _GetProcAddress@8          1002a12c f   kernel32:KERNEL32.dll
 0001:00029132       _LoadLibraryExW@12         1002a132 f   kernel32:KERNEL32.dll
 0001:00029138       _LoadResource@8            1002a138 f   kernel32:KERNEL32.dll
 0001:0002913e       _SizeofResource@8          1002a13e f   kernel32:KERNEL32.dll
 0001:00029144       _FindResourceW@12          1002a144 f   kernel32:KERNEL32.dll
 0001:0002914a       _GlobalAlloc@8             1002a14a f   kernel32:KERNEL32.dll
 0001:00029150       _GlobalUnlock@4            1002a150 f   kernel32:KERNEL32.dll
 0001:00029156       _GlobalLock@4              1002a156 f   kernel32:KERNEL32.dll
 0001:0002915c       _MulDiv@12                 1002a15c f   kernel32:KERNEL32.dll
 0001:00029162       _lstrcmpiW@8               1002a162 f   kernel32:KERNEL32.dll
 0001:00029168       _DeleteFileW@4             1002a168 f   kernel32:KERNEL32.dll
 0001:0002916e       _CloseHandle@4             1002a16e f   kernel32:KERNEL32.dll
 0001:00029174       _SetEvent@4                1002a174 f   kernel32:KERNEL32.dll
 0001:0002917a       _CreateMutexW@12           1002a17a f   kernel32:KERNEL32.dll
 0001:00029180       _CreateEventW@16           1002a180 f   kernel32:KERNEL32.dll
 0001:00029186       _GetCurrentProcessId@0     1002a186 f   kernel32:KERNEL32.dll
 0001:0002918c       _LocalFree@4               1002a18c f   kernel32:KERNEL32.dll
 0001:00029192       _FormatMessageW@28         1002a192 f   kernel32:KERNEL32.dll
 0001:00029198       _GetActiveWindow@0         1002a198 f   user32:USER32.dll
 0001:0002919e       _MessageBoxW@16            1002a19e f   user32:USER32.dll
 0001:000291a4       _UnregisterClassW@8        1002a1a4 f   user32:USER32.dll
 0001:000291aa       _PostMessageW@16           1002a1aa f   user32:USER32.dll
 0001:000291b0       _DefWindowProcW@16         1002a1b0 f   user32:USER32.dll
 0001:000291b6       _CallWindowProcW@20        1002a1b6 f   user32:USER32.dll
 0001:000291bc       _RegisterClassExW@4        1002a1bc f   user32:USER32.dll
 0001:000291c2       _GetClassInfoExW@12        1002a1c2 f   user32:USER32.dll
 0001:000291c8       _CreateWindowExW@48        1002a1c8 f   user32:USER32.dll
 0001:000291ce       _IsWindow@4                1002a1ce f   user32:USER32.dll
 0001:000291d4       _IsChild@8                 1002a1d4 f   user32:USER32.dll
 0001:000291da       _DestroyWindow@4           1002a1da f   user32:USER32.dll
 0001:000291e0       _ShowWindow@8              1002a1e0 f   user32:USER32.dll
 0001:000291e6       _SetWindowPos@28           1002a1e6 f   user32:USER32.dll
 0001:000291ec       _CharNextW@4               1002a1ec f   user32:USER32.dll
 0001:000291f2       _SetFocus@4                1002a1f2 f   user32:USER32.dll
 0001:000291f8       _GetFocus@0                1002a1f8 f   user32:USER32.dll
 0001:000291fe       _GetKeyState@4             1002a1fe f   user32:USER32.dll
 0001:00029204       _GetDC@4                   1002a204 f   user32:USER32.dll
 0001:0002920a       _ReleaseDC@8               1002a20a f   user32:USER32.dll
 0001:00029210       _BeginPaint@8              1002a210 f   user32:USER32.dll
 0001:00029216       _EndPaint@8                1002a216 f   user32:USER32.dll
 0001:0002921c       _SetWindowRgn@12           1002a21c f   user32:USER32.dll
 0001:00029222       _InvalidateRect@12         1002a222 f   user32:USER32.dll
 0001:00029228       _GetClientRect@8           1002a228 f   user32:USER32.dll
 0001:0002922e       _IntersectRect@12          1002a22e f   user32:USER32.dll
 0001:00029234       _UnionRect@12              1002a234 f   user32:USER32.dll
 0001:0002923a       _OffsetRect@12             1002a23a f   user32:USER32.dll
 0001:00029240       _EqualRect@8               1002a240 f   user32:USER32.dll
 0001:00029246       _PtInRect@12               1002a246 f   user32:USER32.dll
 0001:0002924c       _GetWindowLongW@8          1002a24c f   user32:USER32.dll
 0001:00029252       _SetWindowLongW@12         1002a252 f   user32:USER32.dll
 0001:00029258       _GetParent@4               1002a258 f   user32:USER32.dll
 0001:0002925e       _LoadCursorW@8             1002a25e f   user32:USER32.dll
 0001:00029264       _PeekMessageW@20           1002a264 f   user32:USER32.dll
 0001:0002926a       _RegisterClassW@4          1002a26a f   user32:USER32.dll
 0001:00029270       _LoadBitmapW@8             1002a270 f   user32:USER32.dll
 0001:00029276       _CloseMetaFile@4           1002a276 f   gdi32:GDI32.dll
 0001:0002927c       _CreateDCW@16              1002a27c f   gdi32:GDI32.dll
 0001:00029282       _CreateMetaFileW@4         1002a282 f   gdi32:GDI32.dll
 0001:00029288       _CreateRectRgnIndirect@4   1002a288 f   gdi32:GDI32.dll
 0001:0002928e       _DeleteDC@4                1002a28e f   gdi32:GDI32.dll
 0001:00029294       _DeleteMetaFile@4          1002a294 f   gdi32:GDI32.dll
 0001:0002929a       _GetDeviceCaps@8           1002a29a f   gdi32:GDI32.dll
 0001:000292a0       _RestoreDC@8               1002a2a0 f   gdi32:GDI32.dll
 0001:000292a6       _SaveDC@4                  1002a2a6 f   gdi32:GDI32.dll
 0001:000292ac       _SetMapMode@8              1002a2ac f   gdi32:GDI32.dll
 0001:000292b2       _LPtoDP@12                 1002a2b2 f   gdi32:GDI32.dll
 0001:000292b8       _SetViewportOrgEx@16       1002a2b8 f   gdi32:GDI32.dll
 0001:000292be       _SetWindowExtEx@16         1002a2be f   gdi32:GDI32.dll
 0001:000292c4       _SetWindowOrgEx@16         1002a2c4 f   gdi32:GDI32.dll
 0001:000292ca       _BitBlt@36                 1002a2ca f   gdi32:GDI32.dll
 0001:000292d0       _CreateCompatibleDC@4      1002a2d0 f   gdi32:GDI32.dll
 0001:000292d6       _DeleteObject@4            1002a2d6 f   gdi32:GDI32.dll
 0001:000292dc       _SelectObject@8            1002a2dc f   gdi32:GDI32.dll
 0001:000292e2       _GetObjectW@12             1002a2e2 f   gdi32:GDI32.dll
 0001:000292e8       _RegCloseKey@4             1002a2e8 f   advapi32:ADVAPI32.dll
 0001:000292ee       _RegCreateKeyExW@36        1002a2ee f   advapi32:ADVAPI32.dll
 0001:000292f4       _RegDeleteKeyW@8           1002a2f4 f   advapi32:ADVAPI32.dll
 0001:000292fa       _RegDeleteValueW@8         1002a2fa f   advapi32:ADVAPI32.dll
 0001:00029300       _RegEnumKeyExW@32          1002a300 f   advapi32:ADVAPI32.dll
 0001:00029306       _RegOpenKeyExW@20          1002a306 f   advapi32:ADVAPI32.dll
 0001:0002930c       _RegQueryInfoKeyW@48       1002a30c f   advapi32:ADVAPI32.dll
 0001:00029312       _RegSetValueExW@24         1002a312 f   advapi32:ADVAPI32.dll
 0001:00029318       _RegQueryValueExW@24       1002a318 f   advapi32:ADVAPI32.dll
 0001:0002931e       _CoCreateInstance@20       1002a31e f   ole32:ole32.dll
 0001:00029324       _StringFromGUID2@12        1002a324 f   ole32:ole32.dll
 0001:0002932a       _CoTaskMemAlloc@4          1002a32a f   ole32:ole32.dll
 0001:00029330       _CoTaskMemRealloc@8        1002a330 f   ole32:ole32.dll
 0001:00029336       _CoTaskMemFree@4           1002a336 f   ole32:ole32.dll
 0001:0002933c       _ReadClassStm@8            1002a33c f   ole32:ole32.dll
 0001:00029342       _WriteClassStm@8           1002a342 f   ole32:ole32.dll
 0001:00029348       _CreateDataAdviseHolder@4  1002a348 f   ole32:ole32.dll
 0001:0002934e       _OleSaveToStream@8         1002a34e f   ole32:ole32.dll
 0001:00029354       _CreateOleAdviseHolder@4   1002a354 f   ole32:ole32.dll
 0001:0002935a       _OleRegGetUserType@12      1002a35a f   ole32:ole32.dll
 0001:00029360       _OleRegGetMiscStatus@12    1002a360 f   ole32:ole32.dll
 0001:00029366       _OleRegEnumVerbs@8         1002a366 f   ole32:ole32.dll
 0001:0002936c       _CLSIDFromProgID@8         1002a36c f   ole32:ole32.dll
 0001:00029372       _SysAllocString@4          1002a372 f   oleaut32:OLEAUT32.dll
 0001:00029378       _SysAllocStringLen@8       1002a378 f   oleaut32:OLEAUT32.dll
 0001:0002937e       _SysFreeString@4           1002a37e f   oleaut32:OLEAUT32.dll
 0001:00029384       _SysStringLen@4            1002a384 f   oleaut32:OLEAUT32.dll
 0001:0002938a       _VariantClear@4            1002a38a f   oleaut32:OLEAUT32.dll
 0001:00029390       _VariantCopyInd@8          1002a390 f   oleaut32:OLEAUT32.dll
 0001:00029396       _VariantChangeType@16      1002a396 f   oleaut32:OLEAUT32.dll
 0001:0002939c       _SysStringByteLen@4        1002a39c f   oleaut32:OLEAUT32.dll
 0001:000293a2       _SysAllocStringByteLen@8   1002a3a2 f   oleaut32:OLEAUT32.dll
 0001:000293a8       _VariantInit@4             1002a3a8 f   oleaut32:OLEAUT32.dll
 0001:000293ae       _VarUI4FromStr@16          1002a3ae f   oleaut32:OLEAUT32.dll
 0001:000293b4       _LoadTypeLib@8             1002a3b4 f   oleaut32:OLEAUT32.dll
 0001:000293ba       _LoadRegTypeLib@20         1002a3ba f   oleaut32:OLEAUT32.dll
 0001:000293c0       _RegisterTypeLib@12        1002a3c0 f   oleaut32:OLEAUT32.dll
 0001:000293c6       _UnRegisterTypeLib@20      1002a3c6 f   oleaut32:OLEAUT32.dll
 0001:000293cc       _OleCreatePropertyFrame@44 1002a3cc f   oleaut32:OLEAUT32.dll
 0001:000293e0       @_RTC_AllocaHelper@12      1002a3e0 f   LIBCMTD:stack.obj
 0001:00029420       @_RTC_CheckStackVars2@12   1002a420 f   LIBCMTD:stack.obj
 0001:00029500       @_RTC_CheckStackVars@8     1002a500 f   LIBCMTD:stack.obj
 0001:00029570       __RTC_CheckEsp             1002a570 f   LIBCMTD:stack.obj
 0001:000295b0       @__security_check_cookie@4 1002a5b0 f   LIBCMTD:secchk.obj
 0001:000295d0       __CRT_RTC_INIT             1002a5d0 f   LIBCMTD:init.obj
 0001:000295e0       __CRT_RTC_INITW            1002a5e0 f   LIBCMTD:init.obj
 0001:000295f0       __RTC_InitBase             1002a5f0 f   LIBCMTD:init.obj
 0001:00029620       __RTC_Shutdown             1002a620 f   LIBCMTD:init.obj
 0001:00029640       ??_U@YAPAXI@Z              1002a640 f   LIBCMTD:new_array.obj
 0001:00029660       ??3@YAXPAXI@Z              1002a660 f   LIBCMTD:delete_scalar_size.obj
 0001:00029680       ??_V@YAXPAX@Z              1002a680 f   LIBCMTD:delete_array.obj
 0001:000296a0       ??_V@YAXPAXI@Z             1002a6a0 f   LIBCMTD:delete_array_size.obj
 0001:000296c0       ?configure_argv@__scrt_narrow_argv_policy@@SAHXZ 1002a6c0 f i LIBCMTD:utility.obj
 0001:00029770       ?initialize_environment@__scrt_narrow_environment_policy@@SAHXZ 1002a770 f i LIBCMTD:utility.obj
 0001:000297f0       _NtCurrentTeb              1002a7f0 f i LIBCMTD:utility.obj
 0001:00029800       ___scrt_acquire_startup_lock 1002a800 f   LIBCMTD:utility.obj
 0001:00029850       ___scrt_dllmain_after_initialize_c 1002a850 f   LIBCMTD:utility.obj
 0001:00029880       ___scrt_dllmain_before_initialize_c 1002a880 f   LIBCMTD:utility.obj
 0001:000298a0       ___scrt_dllmain_crt_thread_attach 1002a8a0 f   LIBCMTD:utility.obj
 0001:000298d0       ___scrt_dllmain_crt_thread_detach 1002a8d0 f   LIBCMTD:utility.obj
 0001:000298f0       ___scrt_dllmain_exception_filter 1002a8f0 f   LIBCMTD:utility.obj
 0001:00029940       ___scrt_dllmain_uninitialize_c 1002a940 f   LIBCMTD:utility.obj
 0001:00029970       ___scrt_dllmain_uninitialize_critical 1002a970 f   LIBCMTD:utility.obj
 0001:00029990       ___scrt_initialize_crt     1002a990 f   LIBCMTD:utility.obj
 0001:000299e0       ___scrt_initialize_onexit_tables 1002a9e0 f   LIBCMTD:utility.obj
 0001:00029ac0       ___scrt_is_nonwritable_in_current_image 1002aac0 f   LIBCMTD:utility.obj
 0001:00029bf0       ___scrt_release_startup_lock 1002abf0 f   LIBCMTD:utility.obj
 0001:00029c20       ___scrt_uninitialize_crt   1002ac20 f   LIBCMTD:utility.obj
 0001:00029c60       __onexit                   1002ac60 f   LIBCMTD:utility.obj
 0001:00029cd0       _at_quick_exit             1002acd0 f   LIBCMTD:utility.obj
 0001:00029d10       _atexit                    1002ad10 f   LIBCMTD:utility.obj
 0001:00029d40       ??3@YAXPAX@Z               1002ad40 f   LIBCMTD:delete_scalar.obj
 0001:00029d60       ___raise_securityfailure   1002ad60 f   LIBCMTD:gs_report.obj
 0001:00029d90       ___report_gsfailure        1002ad90 f   LIBCMTD:gs_report.obj
 0001:00029ea0       ___report_rangecheckfailure 1002aea0 f   LIBCMTD:gs_report.obj
 0001:00029eb0       ___report_securityfailure  1002aeb0 f   LIBCMTD:gs_report.obj
 0001:00029f90       ___report_securityfailureEx 1002af90 f   LIBCMTD:gs_report.obj
 0001:0002a1e0       __Init_thread_abort        1002b1e0 f   LIBCMTD:thread_safe_statics.obj
 0001:0002a200       __Init_thread_footer       1002b200 f   LIBCMTD:thread_safe_statics.obj
 0001:0002a250       __Init_thread_header       1002b250 f   LIBCMTD:thread_safe_statics.obj
 0001:0002a2c0       __Init_thread_lock         1002b2c0 f   LIBCMTD:thread_safe_statics.obj
 0001:0002a2d0       __Init_thread_notify       1002b2d0 f   LIBCMTD:thread_safe_statics.obj
 0001:0002a320       __Init_thread_unlock       1002b320 f   LIBCMTD:thread_safe_statics.obj
 0001:0002a330       __Init_thread_wait         1002b330 f   LIBCMTD:thread_safe_statics.obj
 0001:0002a3c0       ??2@YAPAXIABUnothrow_t@std@@@Z 1002b3c0 f   LIBCMTD:new_scalar_nothrow.obj
 0001:0002a440       ??_U@YAPAXIABUnothrow_t@std@@@Z 1002b440 f   LIBCMTD:new_array_nothrow.obj
 0001:0002a460       __allmul                   1002b460 f   LIBCMTD:llmul.obj
 0001:0002a4a0       __alloca_probe_16          1002b4a0 f   LIBCMTD:alloca16.obj
 0001:0002a4b6       __alloca_probe_8           1002b4b6     LIBCMTD:alloca16.obj
 0001:0002a4d0       __chkstk                   1002b4d0 f   LIBCMTD:chkstk.obj
 0001:0002a4d0       __alloca_probe             1002b4d0 f   LIBCMTD:chkstk.obj
 0001:0002a9b0       __CRT_INIT@12              1002b9b0 f   LIBCMTD:dll_dllmain.obj
 0001:0002a9d0       __DllMainCRTStartup@12     1002b9d0 f   LIBCMTD:dll_dllmain.obj
 0001:0002aa90       ?_RTC_AllocaFailure@@YAXPAXPAU_RTC_ALLOCA_NODE@@H@Z 1002ba90 f   LIBCMTD:error.obj
 0001:0002ab80       ?_RTC_Failure@@YAXPAXH@Z   1002bb80 f   LIBCMTD:error.obj
 0001:0002abd0       ?_RTC_StackFailure@@YAXPAXPBD@Z 1002bbd0 f   LIBCMTD:error.obj
 0001:0002af90       __RTC_UninitUse            1002bf90 f   LIBCMTD:error.obj
 0001:0002b040       __vsprintf_s_l             1002c040 f i LIBCMTD:error.obj
 0001:0002b070       _sprintf_s                 1002c070 f i LIBCMTD:error.obj
 0001:0002b090       ?_RTC_GetErrorFunc@@YAP6AHHPBDH00ZZPBX@Z 1002c090 f   LIBCMTD:userapi.obj
 0001:0002b0a0       ?_RTC_GetErrorFuncW@@YAP6AHHPB_WH00ZZPBX@Z 1002c0a0 f   LIBCMTD:userapi.obj
 0001:0002b0b0       __RTC_GetErrDesc           1002c0b0 f   LIBCMTD:userapi.obj
 0001:0002b0d0       __RTC_NumErrors            1002c0d0 f   LIBCMTD:userapi.obj
 0001:0002b0e0       __RTC_SetErrorFunc         1002c0e0 f   LIBCMTD:userapi.obj
 0001:0002b100       __RTC_SetErrorFuncW        1002c100 f   LIBCMTD:userapi.obj
 0001:0002b120       __RTC_SetErrorType         1002c120 f   LIBCMTD:userapi.obj
 0001:0002b150       ??2@YAPAXI@Z               1002c150 f   LIBCMTD:new_scalar.obj
 0001:0002b1a0       ___isa_available_init      1002c1a0 f   LIBCMTD:cpu_disp.obj
 0001:0002b480       __get_startup_argv_mode    1002c480 f   LIBCMTD:argv_mode.obj
 0001:0002b490       ___scrt_is_ucrt_dll_in_use 1002c490 f   LIBCMTD:ucrt_detection.obj
 0001:0002b4c0       ___scrt_fastfail           1002c4c0 f   LIBCMTD:utility_desktop.obj
 0001:0002b600       ___scrt_get_show_window_mode 1002c600 f   LIBCMTD:utility_desktop.obj
 0001:0002b640       ___scrt_initialize_mta     1002c640 f   LIBCMTD:utility_desktop.obj
 0001:0002b650       ___scrt_initialize_winrt   1002c650 f   LIBCMTD:utility_desktop.obj
 0001:0002b660       ___scrt_is_managed_app     1002c660 f   LIBCMTD:utility_desktop.obj
 0001:0002b6f0       ___scrt_set_unhandled_exception_filter 1002c6f0 f   LIBCMTD:utility_desktop.obj
 0001:0002b700       ___scrt_stub_for_initialize_mta 1002c700 f   LIBCMTD:utility_desktop.obj
 0001:0002b700       ___scrt_exe_initialize_mta 1002c700 f   LIBCMTD:utility_desktop.obj
 0001:0002b710       ___scrt_unhandled_exception_filter@4 1002c710 f   LIBCMTD:utility_desktop.obj
 0001:0002b770       __crt_debugger_hook        1002c770 f   LIBCMTD:utility_desktop.obj
 0001:0002b780       @_guard_check_icall_nop@4  1002c780 f i LIBCMTD:guard_support.obj
 0001:0002b790       _ReadNoFence               1002c790 f i LIBCMTD:guard_support.obj
 0001:0002b7b0       _ReadPointerNoFence        1002c7b0 f i LIBCMTD:guard_support.obj
 0001:0002b7d0       __guard_icall_checks_enforced 1002c7d0 f i LIBCMTD:guard_support.obj
 0001:0002b870       ___security_init_cookie    1002c870 f   LIBCMTD:gs_support.obj
 0001:0002b8f0       ?__scrt_initialize_type_info@@YAXXZ 1002c8f0 f   LIBCMTD:tncleanup.obj
 0001:0002b900       ?__scrt_uninitialize_type_info@@YAXXZ 1002c900 f   LIBCMTD:tncleanup.obj
 0001:0002b920       ___local_stdio_scanf_options 1002c920 f i LIBCMTD:default_local_stdio_options.obj
 0001:0002b930       ___scrt_initialize_default_local_stdio_options 1002c930 f   LIBCMTD:default_local_stdio_options.obj
 0001:0002b970       ___scrt_get_dyn_tls_init_callback 1002c970 f   LIBCMTD:dyn_tls_init.obj
 0001:0002b980       __RTC_Initialize           1002c980 f   LIBCMTD:initsect.obj
 0001:0002b9b0       __RTC_Terminate            1002c9b0 f   LIBCMTD:initsect.obj
 0001:0002be60       ?_RTC_GetSrcLine@@YAHPAEPA_WKPAH1K@Z 1002ce60 f   LIBCMTD:pdblkup.obj
 0001:0002c1f0       __except_handler4_noexcept 1002d1f0 f   LIBCMTD:chandler4_noexcept.obj
 0001:0002c240       ??0bad_alloc@std@@AAE@QBD@Z 1002d240 f i LIBCMTD:throw_bad_alloc.obj
 0001:0002c270       ??0bad_alloc@std@@QAE@ABV01@@Z 1002d270 f i LIBCMTD:throw_bad_alloc.obj
 0001:0002c2a0       ??0bad_alloc@std@@QAE@XZ   1002d2a0 f i LIBCMTD:throw_bad_alloc.obj
 0001:0002c2d0       ??0bad_array_new_length@std@@QAE@ABV01@@Z 1002d2d0 f i LIBCMTD:throw_bad_alloc.obj
 0001:0002c300       ??0bad_array_new_length@std@@QAE@XZ 1002d300 f i LIBCMTD:throw_bad_alloc.obj
 0001:0002c330       ??0exception@std@@QAE@ABV01@@Z 1002d330 f i LIBCMTD:throw_bad_alloc.obj
 0001:0002c370       ??0exception@std@@QAE@QBDH@Z 1002d370 f i LIBCMTD:throw_bad_alloc.obj
 0001:0002c3a0       ??1bad_alloc@std@@UAE@XZ   1002d3a0 f i LIBCMTD:throw_bad_alloc.obj
 0001:0002c3c0       ??1bad_array_new_length@std@@UAE@XZ 1002d3c0 f i LIBCMTD:throw_bad_alloc.obj
 0001:0002c3e0       ??1exception@std@@UAE@XZ   1002d3e0 f i LIBCMTD:throw_bad_alloc.obj
 0001:0002c410       ??_Gbad_alloc@std@@UAEPAXI@Z 1002d410 f i LIBCMTD:throw_bad_alloc.obj
 0001:0002c410       ??_Ebad_alloc@std@@UAEPAXI@Z 1002d410 f i LIBCMTD:throw_bad_alloc.obj
 0001:0002c440       ??_Ebad_array_new_length@std@@UAEPAXI@Z 1002d440 f i LIBCMTD:throw_bad_alloc.obj
 0001:0002c440       ??_Gbad_array_new_length@std@@UAEPAXI@Z 1002d440 f i LIBCMTD:throw_bad_alloc.obj
 0001:0002c470       ??_Eexception@std@@UAEPAXI@Z 1002d470 f i LIBCMTD:throw_bad_alloc.obj
 0001:0002c470       ??_Gexception@std@@UAEPAXI@Z 1002d470 f i LIBCMTD:throw_bad_alloc.obj
 0001:0002c4a0       ?__scrt_throw_std_bad_alloc@@YAXXZ 1002d4a0 f   LIBCMTD:throw_bad_alloc.obj
 0001:0002c4c0       ?__scrt_throw_std_bad_array_new_length@@YAXXZ 1002d4c0 f   LIBCMTD:throw_bad_alloc.obj
 0001:0002c4e0       ?what@exception@std@@UBEPBDXZ 1002d4e0 f i LIBCMTD:throw_bad_alloc.obj
 0001:0002c510       ??1type_info@@UAE@XZ       1002d510 f   LIBCMTD:std_type_info_static.obj
 0001:0002c530       ??_Etype_info@@UAEPAXI@Z   1002d530 f i LIBCMTD:std_type_info_static.obj
 0001:0002c530       ??_Gtype_info@@UAEPAXI@Z   1002d530 f i LIBCMTD:std_type_info_static.obj
 0001:0002c55e       ??$?2PAUHINSTANCE__@@@Wrapper@?$CSimpleArray@PAUHINSTANCE__@@V?$CSimpleArrayEqualHelper@PAUHINSTANCE__@@@ATL@@@ATL@@SAPAXIPAPAUHINSTANCE__@@@Z 1002d55e f i atls:atlbase.obj
 0001:0002c566       ??0?$CSimpleArray@PAUHINSTANCE__@@V?$CSimpleArrayEqualHelper@PAUHINSTANCE__@@@ATL@@@ATL@@QAE@XZ 1002d566 f i atls:atlbase.obj
 0001:0002c573       ??0CAtlBaseModule@ATL@@QAE@XZ 1002d573 f   atls:atlbase.obj
 0001:0002c5c6       ??0Wrapper@?$CSimpleArray@PAUHINSTANCE__@@V?$CSimpleArrayEqualHelper@PAUHINSTANCE__@@@ATL@@@ATL@@QAE@ABQAUHINSTANCE__@@@Z 1002d5c6 f i atls:atlbase.obj
 0001:0002c5d6       ??0_ATL_BASE_MODULE70@ATL@@QAE@XZ 1002d5d6 f i atls:atlbase.obj
 0001:0002c5f9       ??1?$CSimpleArray@PAUHINSTANCE__@@V?$CSimpleArrayEqualHelper@PAUHINSTANCE__@@@ATL@@@ATL@@QAE@XZ 1002d5f9 f i atls:atlbase.obj
 0001:0002c5fe       ??1CAtlBaseModule@ATL@@QAE@XZ 1002d5fe f   atls:atlbase.obj
 0001:0002c614       ??1_ATL_BASE_MODULE70@ATL@@QAE@XZ 1002d614 f i atls:atlbase.obj
 0001:0002c61c       ??A?$CSimpleArray@PAUHINSTANCE__@@V?$CSimpleArrayEqualHelper@PAUHINSTANCE__@@@ATL@@@ATL@@QAEAAPAUHINSTANCE__@@H@Z 1002d61c f i atls:atlbase.obj
 0001:0002c641       ?Add@?$CSimpleArray@PAUHINSTANCE__@@V?$CSimpleArrayEqualHelper@PAUHINSTANCE__@@@ATL@@@ATL@@QAEHABQAUHINSTANCE__@@@Z 1002d641 f i atls:atlbase.obj
 0001:0002c6c3       ?AddResourceInstance@CAtlBaseModule@ATL@@QAE_NPAUHINSTANCE__@@@Z 1002d6c3 f   atls:atlbase.obj
 0001:0002c6f6       ?GetHInstanceAt@CAtlBaseModule@ATL@@QAEPAUHINSTANCE__@@H@Z 1002d6f6 f   atls:atlbase.obj
 0001:0002c73b       ?GetSize@?$CSimpleArray@PAUHINSTANCE__@@V?$CSimpleArrayEqualHelper@PAUHINSTANCE__@@@ATL@@@ATL@@QBEHXZ 1002d73b f i atls:atlbase.obj
 0001:0002c73f       ?InternalSetAtIndex@?$CSimpleArray@PAUHINSTANCE__@@V?$CSimpleArrayEqualHelper@PAUHINSTANCE__@@@ATL@@@ATL@@QAEXHABQAUHINSTANCE__@@@Z 1002d73f f i atls:atlbase.obj
 0001:0002c759       ?RemoveAll@?$CSimpleArray@PAUHINSTANCE__@@V?$CSimpleArrayEqualHelper@PAUHINSTANCE__@@@ATL@@@ATL@@QAEXXZ 1002d759 f i atls:atlbase.obj
 0001:0002c776       ?RemoveAt@?$CSimpleArray@PAUHINSTANCE__@@V?$CSimpleArrayEqualHelper@PAUHINSTANCE__@@@ATL@@@ATL@@QAEHH@Z 1002d776 f i atls:atlbase.obj
 0001:0002c7c4       ?RemoveResourceInstance@CAtlBaseModule@ATL@@QAE_NPAUHINSTANCE__@@@Z 1002d7c4 f   atls:atlbase.obj
 0001:0002c821       ?memmove_s@Checked@ATL@@YAXPAXIPBXI@Z 1002d821 f i atls:atlbase.obj
 0001:0002cb7e       ?GetCodeAddress@_stdcallthunk@ATL@@QAEPAXXZ 1002db7e f i atls:atlthunk.obj
 0001:0002cba8       ?Init@_stdcallthunk@ATL@@QAEHKPAX@Z 1002dba8 f i atls:atlthunk.obj
 0001:0002cbdd       ?__AllocStdCallThunk@@YGPAXXZ 1002dbdd f   atls:atlthunk.obj
 0001:0002cbe2       ?__AllocStdCallThunk@ATL@@YGPAXXZ 1002dbe2 f   atls:atlthunk.obj
 0001:0002cbe7       ?__AllocStdCallThunk_cmn@@YAPAXXZ 1002dbe7 f   atls:atlthunk.obj
 0001:0002ccad       ?__FreeStdCallThunk@@YGXPAX@Z 1002dcad f   atls:atlthunk.obj
 0001:0002ccbd       ?__FreeStdCallThunk@ATL@@YGXPAX@Z 1002dcbd f   atls:atlthunk.obj
 0001:0002cccd       ?__FreeStdCallThunk_cmn@@YAXPAX@Z 1002dccd f   atls:atlthunk.obj
 0001:0002cd68       _AtlThunk_AllocateData@0   1002dd68 f   atls:atlthunk.obj
 0001:0002cdcd       _AtlThunk_DataToCode@4     1002ddcd f   atls:atlthunk.obj
 0001:0002ce14       _AtlThunk_FreeData@4       1002de14 f   atls:atlthunk.obj
 0001:0002ce6a       _AtlThunk_InitData@12      1002de6a f   atls:atlthunk.obj
 0001:0002ceb9       _MemoryBarrier             1002deb9 f i atls:atlthunk.obj
 0001:0002cec7       __InlineInterlockedCompareExchangePointer 1002dec7 f i atls:atlthunk.obj
 0001:0002cee0       _memset                    1002dee0 f   libvcruntimed:memset.obj
 0001:0002d040       ??$__crt_interlocked_exchange_pointer@$$A6AXXZP6AXXZ@@YAP6AXXZPDS6AXXZQ6AXXZ@Z 1002e040 f i libvcruntimed:purevirt.obj
 0001:0002d050       ??$__crt_interlocked_read_pointer@$$A6AXXZ@@YAP6AXXZPDS6AXXZ@Z 1002e050 f i libvcruntimed:purevirt.obj
 0001:0002d070       ?__crt_interlocked_read_32@@YAHPDH@Z 1002e070 f i libvcruntimed:purevirt.obj
 0001:0002d090       __get_purecall_handler     1002e090 f   libvcruntimed:purevirt.obj
 0001:0002d0b0       __purecall                 1002e0b0 f   libvcruntimed:purevirt.obj
 0001:0002d0e0       __set_purecall_handler     1002e0e0 f   libvcruntimed:purevirt.obj
 0001:0002d2b0       _memcmp                    1002e2b0 f   libvcruntimed:memcmp.obj
 0001:0002db80       _memcpy                    1002eb80 f   libvcruntimed:memcpy.obj
 0001:0002e100       _wcsstr                    1002f100 f   libvcruntimed:wcsstr.obj
 0001:0002e630       __except_handler4          1002f630 f   libvcruntimed:chandler4.obj
 0001:0002e820       ___vcrt_initialize         1002f820 f   libvcruntimed:initialization.obj
 0001:0002e860       ___vcrt_thread_attach      1002f860 f   libvcruntimed:initialization.obj
 0001:0002e880       ___vcrt_thread_detach      1002f880 f   libvcruntimed:initialization.obj
 0001:0002e8a0       ___vcrt_uninitialize       1002f8a0 f   libvcruntimed:initialization.obj
 0001:0002e8c0       ___vcrt_uninitialize_critical 1002f8c0 f   libvcruntimed:initialization.obj
 0001:0002e8e0       ??$?0AAViterator@TryBlockMap@__FrameHandler3@@AAV012@$0A@@?$pair@Viterator@TryBlockMap@__FrameHandler3@@V123@@std@@QAE@AAViterator@TryBlockMap@__FrameHandler3@@0@Z 1002f8e0 f i libvcruntimed:trnsctrl.obj
 0001:0002e930       ??$forward@AAViterator@TryBlockMap@__FrameHandler3@@@std@@YAAAViterator@TryBlockMap@__FrameHandler3@@AAV123@@Z 1002f930 f i libvcruntimed:trnsctrl.obj
 0001:0002e940       ??0iterator@TryBlockMap@__FrameHandler3@@QAE@AAV12@I@Z 1002f940 f i libvcruntimed:trnsctrl.obj
 0001:0002e970       ?GetRangeOfTrysToCheck@__FrameHandler3@@SA?AU?$pair@Viterator@TryBlockMap@__FrameHandler3@@V123@@std@@AAVTryBlockMap@1@HPAXPBU_s_FuncInfo@@H@Z 1002f970 f   libvcruntimed:trnsctrl.obj
 0001:0002ea50       ?_CallCatchBlock2@@YAPAXPAUEHRegistrationNode@@PBU_s_FuncInfo@@PAXHK@Z 1002fa50 f   libvcruntimed:trnsctrl.obj
 0001:0002eac0       ?_CallSETranslator@@YAHPAUEHExceptionRecord@@PAUEHRegistrationNode@@PAX2PBU_s_FuncInfo@@H1@Z 1002fac0 f   libvcruntimed:trnsctrl.obj
 0001:0002ebc0       ?_JumpToContinuation@@YGXPAXPAUEHRegistrationNode@@@Z 1002fbc0 f   libvcruntimed:trnsctrl.obj
 0001:0002ec00       ?_UnwindNestedFrames@@YGXPAUEHRegistrationNode@@PAUEHExceptionRecord@@@Z 1002fc00 f   libvcruntimed:trnsctrl.obj
 0001:0002ec60       __CatchGuardHandler        1002fc60 f   libvcruntimed:trnsctrl.obj
 0001:0002ecb0       __CreateFrameInfo          1002fcb0 f   libvcruntimed:trnsctrl.obj
 0001:0002ece0       __FindAndUnlinkFrame       1002fce0 f   libvcruntimed:trnsctrl.obj
 0001:0002ed60       __TranslatorGuardHandler   1002fd60 f   libvcruntimed:trnsctrl.obj
 0001:0002ee10       ___CxxFrameHandler         1002fe10 f   libvcruntimed:trnsctrl.obj
 0001:0002ee50       ___CxxFrameHandler2        1002fe50 f   libvcruntimed:trnsctrl.obj
 0001:0002ee90       ___CxxFrameHandler3        1002fe90 f   libvcruntimed:trnsctrl.obj
 0001:0002eed0       ___CxxLongjmpUnwind@4      1002fed0 f   libvcruntimed:trnsctrl.obj
 0001:0002ef10       ?<lambda_invoker_cdecl>@_Closure_wrapper_b3626920_1@@CAPAXI@Z 1002ff10 f i libvcruntimed:std_type_info.obj
 0001:0002ef20       ?<lambda_invoker_cdecl>@_Closure_wrapper_b3626920_2@@CAXQAX@Z 1002ff20 f i libvcruntimed:std_type_info.obj
 0001:0002ef30       ??$?RD@__crt_internal_free_policy@@QBEXQBD@Z 1002ff30 f i libvcruntimed:std_type_info.obj
 0001:0002ef50       ??$?RX@__crt_internal_free_policy@@QBEXQBX@Z 1002ff50 f i libvcruntimed:std_type_info.obj
 0001:0002ef70       ??$__crt_interlocked_compare_exchange_pointer@$$CBDPAD$$T@@YAPBDPDSBDQAD$$T@Z 1002ff70 f i libvcruntimed:std_type_info.obj
 0001:0002ef90       ??$__crt_interlocked_read_pointer@$$CBD@@YAPBDPDSBD@Z 1002ff90 f i libvcruntimed:std_type_info.obj
 0001:0002efb0       ??0?$__crt_unique_heap_ptr@DU__crt_internal_free_policy@@@@QAE@QAD@Z 1002ffb0 f i libvcruntimed:std_type_info.obj
 0001:0002efd0       ??0?$__crt_unique_heap_ptr@XU__crt_internal_free_policy@@@@QAE@QAX@Z 1002ffd0 f i libvcruntimed:std_type_info.obj
 0001:0002eff0       ??1?$__crt_unique_heap_ptr@DU__crt_internal_free_policy@@@@QAE@XZ 1002fff0 f i libvcruntimed:std_type_info.obj
 0001:0002f010       ??1?$__crt_unique_heap_ptr@XU__crt_internal_free_policy@@@@QAE@XZ 10030010 f i libvcruntimed:std_type_info.obj
 0001:0002f030       ??B?$__crt_unique_heap_ptr@DU__crt_internal_free_policy@@@@QBE_NXZ 10030030 f i libvcruntimed:std_type_info.obj
 0001:0002f050       ??B?$__crt_unique_heap_ptr@XU__crt_internal_free_policy@@@@QBE_NXZ 10030050 f i libvcruntimed:std_type_info.obj
 0001:0002f070       ??B_Closure_wrapper_b3626920_1@@QBEP6APAXI@ZXZ 10030070 f i libvcruntimed:std_type_info.obj
 0001:0002f080       ??B_Closure_wrapper_b3626920_2@@QBEP6AXQAX@ZXZ 10030080 f i libvcruntimed:std_type_info.obj
 0001:0002f0e0       ?detach@?$__crt_unique_heap_ptr@XU__crt_internal_free_policy@@@@QAEPAXXZ 100300e0 f i libvcruntimed:std_type_info.obj
 0001:0002f110       ?get@?$__crt_unique_heap_ptr@DU__crt_internal_free_policy@@@@QBEPADXZ 10030110 f i libvcruntimed:std_type_info.obj
 0001:0002f120       ?get@?$__crt_unique_heap_ptr@XU__crt_internal_free_policy@@@@QBEPAXXZ 10030120 f i libvcruntimed:std_type_info.obj
 0001:0002f130       ?is_valid@?$__crt_unique_heap_ptr@DU__crt_internal_free_policy@@@@QBE_NXZ 10030130 f i libvcruntimed:std_type_info.obj
 0001:0002f160       ?is_valid@?$__crt_unique_heap_ptr@XU__crt_internal_free_policy@@@@QBE_NXZ 10030160 f i libvcruntimed:std_type_info.obj
 0001:0002f190       ?release@?$__crt_unique_heap_ptr@DU__crt_internal_free_policy@@@@QAEXXZ 10030190 f i libvcruntimed:std_type_info.obj
 0001:0002f1c0       ?release@?$__crt_unique_heap_ptr@XU__crt_internal_free_policy@@@@QAEXXZ 100301c0 f i libvcruntimed:std_type_info.obj
 0001:0002f1f0       ___std_type_info_compare   100301f0 f   libvcruntimed:std_type_info.obj
 0001:0002f220       ___std_type_info_destroy_list 10030220 f   libvcruntimed:std_type_info.obj
 0001:0002f260       ___std_type_info_hash      10030260 f   libvcruntimed:std_type_info.obj
 0001:0002f2c0       ___std_type_info_name      100302c0 f   libvcruntimed:std_type_info.obj
 0001:0002f4a0       ___vcrt_GetModuleFileNameW 100304a0 f   libvcruntimed:winapi_thunks.obj
 0001:0002f4c0       ___vcrt_GetModuleHandleW   100304c0 f   libvcruntimed:winapi_thunks.obj
 0001:0002f4d0       ___vcrt_LoadLibraryExW     100304d0 f   libvcruntimed:winapi_thunks.obj
 0001:0002f4f0       ??$?RD@__crt_public_free_policy@@QBEXQBD@Z 100304f0 f i libvcruntimed:std_exception.obj
 0001:0002f510       ??0?$__crt_unique_heap_ptr@DU__crt_public_free_policy@@@@QAE@QAD@Z 10030510 f i libvcruntimed:std_exception.obj
 0001:0002f530       ??1?$__crt_unique_heap_ptr@DU__crt_public_free_policy@@@@QAE@XZ 10030530 f i libvcruntimed:std_exception.obj
 0001:0002f550       ??B?$__crt_unique_heap_ptr@DU__crt_public_free_policy@@@@QBE_NXZ 10030550 f i libvcruntimed:std_exception.obj
 0001:0002f570       ?detach@?$__crt_unique_heap_ptr@DU__crt_public_free_policy@@@@QAEPADXZ 10030570 f i libvcruntimed:std_exception.obj
 0001:0002f5a0       ?get@?$__crt_unique_heap_ptr@DU__crt_public_free_policy@@@@QBEPADXZ 100305a0 f i libvcruntimed:std_exception.obj
 0001:0002f5b0       ?is_valid@?$__crt_unique_heap_ptr@DU__crt_public_free_policy@@@@QBE_NXZ 100305b0 f i libvcruntimed:std_exception.obj
 0001:0002f5e0       ?release@?$__crt_unique_heap_ptr@DU__crt_public_free_policy@@@@QAEXXZ 100305e0 f i libvcruntimed:std_exception.obj
 0001:0002f610       ___std_exception_copy      10030610 f   libvcruntimed:std_exception.obj
 0001:0002f700       ___std_exception_destroy   10030700 f   libvcruntimed:std_exception.obj
 0001:0002f730       __CxxThrowException@8      10030730 f   libvcruntimed:throw.obj
 0001:0002f7f0       _memmove                   100307f0 f   libvcruntimed:memmove.obj
 0001:0002fd70       __local_unwind4            10030d70 f   libvcruntimed:exsup4.obj
 0001:0002fe48       __seh_longjmp_unwind4@4    10030e48 f   libvcruntimed:exsup4.obj
 0001:0002fe70       @_EH4_CallFilterFunc@8     10030e70 f   libvcruntimed:exsup4.obj
 0001:0002fe88       @_EH4_TransferToHandler@8  10030e88 f   libvcruntimed:exsup4.obj
 0001:0002fea4       @_EH4_GlobalUnwind2@8      10030ea4 f   libvcruntimed:exsup4.obj
 0001:0002fec0       @_EH4_LocalUnwind@16       10030ec0 f   libvcruntimed:exsup4.obj
 0001:0002fef0       ___except_validate_context_record 10030ef0 f   libvcruntimed:jbcxrval.obj
 0001:0002ff40       ___except_validate_jump_buffer 10030f40 f   libvcruntimed:jbcxrval.obj
 0001:0002ff60       ___except_validate_jump_buffer_common 10030f60 f i libvcruntimed:jbcxrval.obj
 0001:0002ffc0       ??$?RU__vcrt_ptd@@@__crt_internal_free_policy@@QBEXQBU__vcrt_ptd@@@Z 10030fc0 f i libvcruntimed:per_thread_data.obj
 0001:0002ffe0       ??0?$__crt_unique_heap_ptr@U__vcrt_ptd@@U__crt_internal_free_policy@@@@QAE@QAU__vcrt_ptd@@@Z 10030fe0 f i libvcruntimed:per_thread_data.obj
 0001:00030020       ??1?$__crt_unique_heap_ptr@U__vcrt_ptd@@U__crt_internal_free_policy@@@@QAE@XZ 10031020 f i libvcruntimed:per_thread_data.obj
 0001:00030060       ??B?$__crt_unique_heap_ptr@U__vcrt_ptd@@U__crt_internal_free_policy@@@@QBE_NXZ 10031060 f i libvcruntimed:per_thread_data.obj
 0001:00030080       ?detach@?$__crt_unique_heap_ptr@U__vcrt_ptd@@U__crt_internal_free_policy@@@@QAEPAU__vcrt_ptd@@XZ 10031080 f i libvcruntimed:per_thread_data.obj
 0001:000300b0       ?get@?$__crt_unique_heap_ptr@U__vcrt_ptd@@U__crt_internal_free_policy@@@@QBEPAU__vcrt_ptd@@XZ 100310b0 f i libvcruntimed:per_thread_data.obj
 0001:000300c0       ?is_valid@?$__crt_unique_heap_ptr@U__vcrt_ptd@@U__crt_internal_free_policy@@@@QBE_NXZ 100310c0 f i libvcruntimed:per_thread_data.obj
 0001:000300f0       ?release@?$__crt_unique_heap_ptr@U__vcrt_ptd@@U__crt_internal_free_policy@@@@QAEXXZ 100310f0 f i libvcruntimed:per_thread_data.obj
 0001:00030150       ___vcrt_freefls@4          10031150 f   libvcruntimed:per_thread_data.obj
 0001:00030180       ___vcrt_freeptd            10031180 f   libvcruntimed:per_thread_data.obj
 0001:000301e0       ___vcrt_getptd             100311e0 f   libvcruntimed:per_thread_data.obj
 0001:00030200       ___vcrt_getptd_noexit      10031200 f   libvcruntimed:per_thread_data.obj
 0001:00030360       ___vcrt_getptd_noinit      10031360 f   libvcruntimed:per_thread_data.obj
 0001:000303c0       ___vcrt_initialize_ptd     100313c0 f   libvcruntimed:per_thread_data.obj
 0001:00030410       ___vcrt_uninitialize_ptd   10031410 f   libvcruntimed:per_thread_data.obj
 0001:00030440       ___vcrt_initialize_locks   10031440 f   libvcruntimed:locks.obj
 0001:000304a0       ___vcrt_lock               100314a0 f   libvcruntimed:locks.obj
 0001:000304c0       ___vcrt_uninitialize_locks 100314c0 f   libvcruntimed:locks.obj
 0001:00030510       ___vcrt_unlock             10031510 f   libvcruntimed:locks.obj
 0001:00031140       ??$TypeMatchHelper@V__FrameHandler3@@@@YAHPBU_s_HandlerType@@PBU_s_CatchableType@@PBU_s_ThrowInfo@@@Z 10032140 f i libvcruntimed:frame.obj
 0001:00031220       ??$__InternalCxxFrameHandler@V__FrameHandler3@@@@YA?AW4_EXCEPTION_DISPOSITION@@PAUEHExceptionRecord@@PAUEHRegistrationNode@@PAU_CONTEXT@@PAXPBU_s_FuncInfo@@H1E@Z 10032220 f i libvcruntimed:frame.obj
 0001:00031400       ??0HandlerMap@__FrameHandler3@@QAE@PBU_s_TryBlockMapEntry@@II@Z 10032400 f i libvcruntimed:frame.obj
 0001:00031430       ??0TryBlockMap@__FrameHandler3@@QAE@PBU_s_FuncInfo@@I@Z 10032430 f i libvcruntimed:frame.obj
 0001:00031460       ??0bad_exception@std@@QAE@ABV01@@Z 10032460 f i libvcruntimed:frame.obj
 0001:00031490       ??0bad_exception@std@@QAE@XZ 10032490 f i libvcruntimed:frame.obj
 0001:000314c0       ??0iterator@HandlerMap@__FrameHandler3@@QAE@AAV12@I@Z 100324c0 f i libvcruntimed:frame.obj
 0001:000314f0       ??1bad_exception@std@@UAE@XZ 100324f0 f i libvcruntimed:frame.obj
 0001:00031510       ??8iterator@HandlerMap@__FrameHandler3@@QBE_NABV012@@Z 10032510 f i libvcruntimed:frame.obj
 0001:00031540       ??8type_info@@QBE_NABV0@@Z 10032540 f i libvcruntimed:frame.obj
 0001:00031580       ??9iterator@HandlerMap@__FrameHandler3@@QBE_NABV012@@Z 10032580 f i libvcruntimed:frame.obj
 0001:000315c0       ??Diterator@HandlerMap@__FrameHandler3@@QAE?BU_s_HandlerType@@XZ 100325c0 f i libvcruntimed:frame.obj
 0001:00031600       ??Diterator@TryBlockMap@__FrameHandler3@@QAE?BU_s_TryBlockMapEntry@@XZ 10032600 f i libvcruntimed:frame.obj
 0001:00031650       ??Eiterator@HandlerMap@__FrameHandler3@@QAEAAV012@XZ 10032650 f i libvcruntimed:frame.obj
 0001:00031670       ??Eiterator@TryBlockMap@__FrameHandler3@@QAEAAV012@XZ 10032670 f i libvcruntimed:frame.obj
 0001:00031690       ??Miterator@TryBlockMap@__FrameHandler3@@QBE_NABV012@@Z 10032690 f i libvcruntimed:frame.obj
 0001:000316c0       ??_Ebad_exception@std@@UAEPAXI@Z 100326c0 f i libvcruntimed:frame.obj
 0001:000316c0       ??_Gbad_exception@std@@UAEPAXI@Z 100326c0 f i libvcruntimed:frame.obj
 0001:000316f0       ?BuildCatchObject@__FrameHandler3@@SAXPAUEHExceptionRecord@@PAXPBU_s_HandlerType@@PBU_s_CatchableType@@@Z 100326f0 f   libvcruntimed:frame.obj
 0001:00031710       ?BuildCatchObjectHelper@__FrameHandler3@@SAHPAUEHExceptionRecord@@PAXPBU_s_HandlerType@@PBU_s_CatchableType@@@Z 10032710 f   libvcruntimed:frame.obj
 0001:00031ab0       ?FrameUnwindToEmptyState@__FrameHandler3@@SAXPAUEHRegistrationNode@@PAXPBU_s_FuncInfo@@@Z 10032ab0 f   libvcruntimed:frame.obj
 0001:00031ad0       ?FrameUnwindToState@__FrameHandler3@@SAXPAUEHRegistrationNode@@PAXPBU_s_FuncInfo@@H@Z 10032ad0 f   libvcruntimed:frame.obj
 0001:00031c50       ?GetMaxState@__FrameHandler3@@SAHPAXPBU_s_FuncInfo@@@Z 10032c50 f i libvcruntimed:frame.obj
 0001:00031d80       ?TypeMatch@__FrameHandler3@@SAHPBU_s_HandlerType@@PBU_s_CatchableType@@PBU_s_ThrowInfo@@@Z 10032d80 f   libvcruntimed:frame.obj
 0001:00031da0       ?_CallMemberFunction1@@YGXQAX00@Z 10032da0 f i libvcruntimed:frame.obj
 0001:00031dd0       ?_CallMemberFunction2@@YGXQAX00H@Z 10032dd0 f i libvcruntimed:frame.obj
 0001:00031e00       ?_ValidateExecute@@YA_NP6GHXZ@Z 10032e00 f i libvcruntimed:frame.obj
 0001:00031e20       ?_ValidateRead@@YA_NPBXI@Z 10032e20 f i libvcruntimed:frame.obj
 0001:00031e40       ?_ValidateWrite@@YA_NPAXI@Z 10032e40 f i libvcruntimed:frame.obj
 0001:00031e60       ?begin@HandlerMap@__FrameHandler3@@QAE?AViterator@12@XZ 10032e60 f i libvcruntimed:frame.obj
 0001:00031e80       ?end@HandlerMap@__FrameHandler3@@QAE?AViterator@12@XZ 10032e80 f i libvcruntimed:frame.obj
 0001:00031eb0       ?getESTypes@__FrameHandler3@@SAPBU_s_ESTypeList@@PBU_s_FuncInfo@@@Z 10032eb0 f i libvcruntimed:frame.obj
 0001:00031ec0       ?getLastEntry@HandlerMap@__FrameHandler3@@QAEPBU_s_HandlerType@@XZ 10032ec0 f i libvcruntimed:frame.obj
 0001:00031ee0       ?getMagicNum@__FrameHandler3@@SAIPBU_s_FuncInfo@@@Z 10032ee0 f i libvcruntimed:frame.obj
 0001:00031ef0       ?getNumTryBlocks@TryBlockMap@__FrameHandler3@@QAEIXZ 10032ef0 f i libvcruntimed:frame.obj
 0001:00031f10       ?isEHs@__FrameHandler3@@SA_NPBU_s_FuncInfo@@@Z 10032f10 f i libvcruntimed:frame.obj
 0001:00031f40       ?isNoExcept@__FrameHandler3@@SA_NPBU_s_FuncInfo@@@Z 10032f40 f i libvcruntimed:frame.obj
 0001:00031f70       ___BuildCatchObject        10032f70 f   libvcruntimed:frame.obj
 0001:00031f90       ___BuildCatchObjectHelper  10032f90 f   libvcruntimed:frame.obj
 0001:00031fb0       ___TypeMatch               10032fb0 f   libvcruntimed:frame.obj
 0001:00031fd0       ___vcrt_EncodePointer      10032fd0 f i libvcruntimed:frame.obj
 0001:00031fe0       __CallSettingFrame@12      10032fe0 f   libvcruntimed:lowhelpr.obj
 0001:00032007       __NLG_Return               10033007     libvcruntimed:lowhelpr.obj
 0001:00032030       ??0Block@_HeapManager@@QAE@XZ 10033030 f i libvcruntimed:undname.obj
 0001:00032050       ??0DName@@QAE@AAPBDD@Z     10033050 f   libvcruntimed:undname.obj
 0001:00032280       ??0DName@@QAE@ABV0@@Z      10033280 f i libvcruntimed:undname.obj
 0001:000322b0       ??0DName@@QAE@D@Z          100332b0 f   libvcruntimed:undname.obj
 0001:000322f0       ??0DName@@QAE@PAV0@@Z      100332f0 f   libvcruntimed:undname.obj
 0001:000323a0       ??0DName@@QAE@PBD@Z        100333a0 f   libvcruntimed:undname.obj
 0001:000323f0       ??0DName@@QAE@W4DNameStatus@@@Z 100333f0 f   libvcruntimed:undname.obj
 0001:00032490       ??0DName@@QAE@XZ           10033490 f i libvcruntimed:undname.obj
 0001:000324c0       ??0DName@@QAE@_J@Z         100334c0 f   libvcruntimed:undname.obj
 0001:000325b0       ??0DName@@QAE@_K@Z         100335b0 f   libvcruntimed:undname.obj
 0001:00032660       ??0DNameNode@@IAE@XZ       10033660 f i libvcruntimed:undname.obj
 0001:00032680       ??0Replicator@@QAE@XZ      10033680 f i libvcruntimed:undname.obj
 0001:000326c0       ??0UnDecorator@@QAE@PBDP6APADJ@ZK@Z 100336c0 f i libvcruntimed:undname.obj
 0001:00032740       ??0charNode@@QAE@D@Z       10033740 f i libvcruntimed:undname.obj
 0001:00032770       ??0pDNameNode@@QAE@PAVDName@@@Z 10033770 f   libvcruntimed:undname.obj
 0001:000327d0       ??0pairNode@@QAE@PBVDNameNode@@0@Z 100337d0 f i libvcruntimed:undname.obj
 0001:00032810       ??0pcharNode@@QAE@PBDH@Z   10033810 f   libvcruntimed:undname.obj
 0001:000328d0       ??2@YAPAXIAAV_HeapManager@@H@Z 100338d0 f i libvcruntimed:undname.obj
 0001:000328f0       ??4DName@@QAEAAV0@ABV0@@Z  100338f0 f   libvcruntimed:undname.obj
 0001:00032920       ??4DName@@QAEAAV0@D@Z      10033920 f i libvcruntimed:undname.obj
 0001:00032960       ??4DName@@QAEAAV0@PAV0@@Z  10033960 f   libvcruntimed:undname.obj
 0001:00032a00       ??4DName@@QAEAAV0@PBD@Z    10033a00 f   libvcruntimed:undname.obj
 0001:00032a40       ??4DName@@QAEAAV0@W4DNameStatus@@@Z 10033a40 f   libvcruntimed:undname.obj
 0001:00032ac0       ??AReplicator@@QBE?AVDName@@H@Z 10033ac0 f   libvcruntimed:undname.obj
 0001:00032b30       ??H@YA?AVDName@@DABV0@@Z   10033b30 f i libvcruntimed:undname.obj
 0001:00032b60       ??H@YA?AVDName@@PBDABV0@@Z 10033b60 f i libvcruntimed:undname.obj
 0001:00032b90       ??H@YA?AVDName@@W4DNameStatus@@ABV0@@Z 10033b90 f i libvcruntimed:undname.obj
 0001:00032bc0       ??HDName@@QBE?AV0@ABV0@@Z  10033bc0 f   libvcruntimed:undname.obj
 0001:00032c00       ??HDName@@QBE?AV0@D@Z      10033c00 f   libvcruntimed:undname.obj
 0001:00032c40       ??HDName@@QBE?AV0@PAV0@@Z  10033c40 f   libvcruntimed:undname.obj
 0001:00032c80       ??HDName@@QBE?AV0@PBD@Z    10033c80 f   libvcruntimed:undname.obj
 0001:00032cc0       ??HDName@@QBE?AV0@W4DNameStatus@@@Z 10033cc0 f   libvcruntimed:undname.obj
 0001:00032d00       ??YDName@@QAEAAV0@ABV0@@Z  10033d00 f   libvcruntimed:undname.obj
 0001:00032d70       ??YDName@@QAEAAV0@D@Z      10033d70 f   libvcruntimed:undname.obj
 0001:00032df0       ??YDName@@QAEAAV0@PAV0@@Z  10033df0 f   libvcruntimed:undname.obj
 0001:00032ea0       ??YDName@@QAEAAV0@PBD@Z    10033ea0 f   libvcruntimed:undname.obj
 0001:00032f40       ??YDName@@QAEAAV0@W4DNameStatus@@@Z 10033f40 f   libvcruntimed:undname.obj
 0001:00032fa0       ??YReplicator@@QAEAAV0@ABVDName@@@Z 10033fa0 f   libvcruntimed:undname.obj
 0001:00033030       ??_5DName@@QAEAAV0@ABV0@@Z 10034030 f   libvcruntimed:undname.obj
 0001:00033090       ?Constructor@_HeapManager@@QAEXP6APAXI@ZP6AXPAX@Z@Z 10034090 f i libvcruntimed:undname.obj
 0001:000330d0       ?Destructor@_HeapManager@@QAEXXZ 100340d0 f i libvcruntimed:undname.obj
 0001:00033130       ?UScore@UnDecorator@@SAPBDW4Tokens@@@Z 10034130 f   libvcruntimed:undname.obj
 0001:00033160       ?append@DName@@AAEXPBVDNameNode@@@Z 10034160 f   libvcruntimed:undname.obj
 0001:000331f0       ?composeDeclaration@UnDecorator@@CA?AVDName@@ABV2@@Z 100341f0 f i libvcruntimed:undname.obj
 0001:00034f70       ?dbGetString@DName@@QBEPADXZ 10035f70 f   libvcruntimed:undname.obj
 0001:00034f90       ?doAccessSpecifiers@UnDecorator@@SAHXZ 10035f90 f i libvcruntimed:undname.obj
 0001:00034fc0       ?doAllocationLanguage@UnDecorator@@SAHXZ 10035fc0 f i libvcruntimed:undname.obj
 0001:00034ff0       ?doAllocationModel@UnDecorator@@SAHXZ 10035ff0 f i libvcruntimed:undname.obj
 0001:00035020       ?doEcsu@UnDecorator@@SAHXZ 10036020 f i libvcruntimed:undname.obj
 0001:00035050       ?doEllipsis@UnDecorator@@SAHXZ 10036050 f i libvcruntimed:undname.obj
 0001:00035080       ?doFunctionReturns@UnDecorator@@SAHXZ 10036080 f i libvcruntimed:undname.obj
 0001:000350b0       ?doMSKeywords@UnDecorator@@SAHXZ 100360b0 f i libvcruntimed:undname.obj
 0001:000350e0       ?doMemberTypes@UnDecorator@@SAHXZ 100360e0 f i libvcruntimed:undname.obj
 0001:00035110       ?doNameOnly@UnDecorator@@SAHXZ 10036110 f i libvcruntimed:undname.obj
 0001:00035120       ?doNoIdentCharCheck@UnDecorator@@SAHXZ 10036120 f i libvcruntimed:undname.obj
 0001:00035130       ?doPchar@DName@@AAEXPBDH@Z 10036130 f   libvcruntimed:undname.obj
 0001:00035270       ?doPtr64@UnDecorator@@SAHXZ 10036270 f i libvcruntimed:undname.obj
 0001:000352a0       ?doRestrictionSpec@UnDecorator@@SAHXZ 100362a0 f i libvcruntimed:undname.obj
 0001:000352d0       ?doThisTypes@UnDecorator@@SAHXZ 100362d0 f i libvcruntimed:undname.obj
 0001:00035300       ?doThrowTypes@UnDecorator@@SAHXZ 10036300 f i libvcruntimed:undname.obj
 0001:00035330       ?doTypeOnly@UnDecorator@@SAHXZ 10036330 f i libvcruntimed:undname.obj
 0001:00035340       ?doUnderScore@UnDecorator@@SAHXZ 10036340 f i libvcruntimed:undname.obj
 0001:00035370       ?getArgumentList@UnDecorator@@CA?AVDName@@XZ 10036370 f   libvcruntimed:undname.obj
 0001:000354c0       ?getArgumentTypes@UnDecorator@@CA?AVDName@@XZ 100364c0 f   libvcruntimed:undname.obj
 0001:00035610       ?getArrayType@UnDecorator@@CA?AVDName@@ABV2@@Z 10036610 f i libvcruntimed:undname.obj
 0001:00035880       ?getBasedType@UnDecorator@@CA?AVDName@@XZ 10036880 f   libvcruntimed:undname.obj
 0001:00035940       ?getBasicDataType@UnDecorator@@CA?AVDName@@ABV2@@Z 10036940 f   libvcruntimed:undname.obj
 0001:00035f40       ?getCHPEName@UnDecorator@@QAEPADPADH@Z 10036f40 f i libvcruntimed:undname.obj
 0001:000360a0       ?getCallIndex@UnDecorator@@CA?AVDName@@XZ 100370a0 f i libvcruntimed:undname.obj
 0001:000360c0       ?getCallingConvention@UnDecorator@@CA?AVDName@@XZ 100370c0 f   libvcruntimed:undname.obj
 0001:000362a0       ?getDataIndirectType@UnDecorator@@CA?AVDName@@ABV2@PBD0H@Z 100372a0 f   libvcruntimed:undname.obj
 0001:00036ac0       ?getDataIndirectType@UnDecorator@@CA?AVDName@@XZ 10037ac0 f i libvcruntimed:undname.obj
 0001:00036b10       ?getDataType@UnDecorator@@CA?AVDName@@PAV2@@Z 10037b10 f   libvcruntimed:undname.obj
 0001:00036c30       ?getDecoratedName@UnDecorator@@CA?AVDName@@XZ 10037c30 f   libvcruntimed:undname.obj
 0001:00037030       ?getDimension@UnDecorator@@CA?AVDName@@_N@Z 10038030 f   libvcruntimed:undname.obj
 0001:000372e0       ?getDispatchTarget@UnDecorator@@CA?AVDName@@XZ 100382e0 f   libvcruntimed:undname.obj
 0001:00037380       ?getDisplacement@UnDecorator@@CA?AVDName@@XZ 10038380 f i libvcruntimed:undname.obj
 0001:000373a0       ?getECSUDataType@UnDecorator@@CA?AVDName@@XZ 100383a0 f   libvcruntimed:undname.obj
 0001:00037570       ?getECSUName@UnDecorator@@CA?AVDName@@XZ 10038570 f i libvcruntimed:undname.obj
 0001:00037590       ?getEnumType@UnDecorator@@CA?AVDName@@XZ 10038590 f i libvcruntimed:undname.obj
 0001:000376e0       ?getExtendedDataIndirectType@UnDecorator@@CA?AVDName@@AAPBDAA_NH@Z 100386e0 f   libvcruntimed:undname.obj
 0001:00037930       ?getExternalDataType@UnDecorator@@CA?AVDName@@ABV2@@Z 10038930 f i libvcruntimed:undname.obj
 0001:000379d0       ?getFunctionIndirectType@UnDecorator@@CA?AVDName@@ABV2@@Z 100389d0 f   libvcruntimed:undname.obj
 0001:00037ea0       ?getGuardNumber@UnDecorator@@CA?AVDName@@XZ 10038ea0 f i libvcruntimed:undname.obj
 0001:00037ec0       ?getLastChar@DName@@QBEDXZ 10038ec0 f i libvcruntimed:undname.obj
 0001:00037f00       ?getLastChar@DNameStatusNode@@UBEDXZ 10038f00 f i libvcruntimed:undname.obj
 0001:00037f30       ?getLastChar@charNode@@UBEDXZ 10038f30 f i libvcruntimed:undname.obj
 0001:00037f50       ?getLastChar@pDNameNode@@UBEDXZ 10038f50 f i libvcruntimed:undname.obj
 0001:00037f80       ?getLastChar@pairNode@@UBEDXZ 10038f80 f i libvcruntimed:undname.obj
 0001:00037ff0       ?getLastChar@pcharNode@@UBEDXZ 10038ff0 f i libvcruntimed:undname.obj
 0001:00038030       ?getLexicalFrame@UnDecorator@@CA?AVDName@@XZ 10039030 f i libvcruntimed:undname.obj
 0001:00038070       ?getMemory@_HeapManager@@QAEPAXIH@Z 10039070 f   libvcruntimed:undname.obj
 0001:00038190       ?getNoexcept@UnDecorator@@CA?AVDName@@XZ 10039190 f   libvcruntimed:undname.obj
 0001:00038200       ?getNumberOfDimensions@UnDecorator@@CAHXZ 10039200 f   libvcruntimed:undname.obj
 0001:00038300       ?getOperatorName@UnDecorator@@CA?AVDName@@_NPA_N@Z 10039300 f i libvcruntimed:undname.obj
 0001:00038d70       ?getPointerType@UnDecorator@@CA?AVDName@@ABV2@0@Z 10039d70 f i libvcruntimed:undname.obj
 0001:00038da0       ?getPointerTypeArray@UnDecorator@@CA?AVDName@@ABV2@0@Z 10039da0 f i libvcruntimed:undname.obj
 0001:00038dd0       ?getPrimaryDataType@UnDecorator@@CA?AVDName@@ABV2@@Z 10039dd0 f   libvcruntimed:undname.obj
 0001:000391d0       ?getPtrRefDataType@UnDecorator@@CA?AVDName@@ABV2@H@Z 1003a1d0 f   libvcruntimed:undname.obj
 0001:00039400       ?getPtrRefType@UnDecorator@@CA?AVDName@@ABV2@0PBD@Z 1003a400 f   libvcruntimed:undname.obj
 0001:00039570       ?getReferenceType@UnDecorator@@CA?AVDName@@ABV2@0PBD@Z 1003a570 f i libvcruntimed:undname.obj
 0001:00039590       ?getRestrictionSpec@UnDecorator@@CA?AVDName@@XZ 1003a590 f   libvcruntimed:undname.obj
 0001:00039700       ?getReturnType@UnDecorator@@CA?AVDName@@PAV2@@Z 1003a700 f   libvcruntimed:undname.obj
 0001:00039750       ?getScope@UnDecorator@@CA?AVDName@@XZ 1003a750 f   libvcruntimed:undname.obj
 0001:00039c80       ?getScopedName@UnDecorator@@CA?AVDName@@XZ 1003ac80 f   libvcruntimed:undname.obj
 0001:00039db0       ?getSignedDimension@UnDecorator@@CA?AVDName@@XZ 1003adb0 f   libvcruntimed:undname.obj
 0001:00039e30       ?getStorageConvention@UnDecorator@@CA?AVDName@@XZ 1003ae30 f i libvcruntimed:undname.obj
 0001:00039e50       ?getString@DName@@QBEPADPAD0@Z 1003ae50 f i libvcruntimed:undname.obj
 0001:00039eb0       ?getString@DName@@QBEPADPADH@Z 1003aeb0 f i libvcruntimed:undname.obj
 0001:00039f40       ?getString@DNameStatusNode@@UBEPADPAD0@Z 1003af40 f i libvcruntimed:undname.obj
 0001:00039f80       ?getString@charNode@@UBEPADPAD0@Z 1003af80 f i libvcruntimed:undname.obj
 0001:00039fb0       ?getString@pDNameNode@@UBEPADPAD0@Z 1003afb0 f i libvcruntimed:undname.obj
 0001:00039ff0       ?getString@pairNode@@UBEPADPAD0@Z 1003aff0 f i libvcruntimed:undname.obj
 0001:0003a080       ?getString@pcharNode@@UBEPADPAD0@Z 1003b080 f i libvcruntimed:undname.obj
 0001:0003a0b0       ?getStringEncoding@UnDecorator@@CA?AVDName@@PBDH@Z 1003b0b0 f   libvcruntimed:undname.obj
 0001:0003a1c0       ?getStringHelper@@YAPADPADPBD1H@Z 1003b1c0 f i libvcruntimed:undname.obj
 0001:0003a200       ?getSymbolName@UnDecorator@@CA?AVDName@@XZ 1003b200 f i libvcruntimed:undname.obj
 0001:0003a290       ?getTemplateArgumentList@UnDecorator@@CA?AVDName@@XZ 1003b290 f   libvcruntimed:undname.obj
 0001:0003a550       ?getTemplateName@UnDecorator@@CA?AVDName@@_N@Z 1003b550 f   libvcruntimed:undname.obj
 0001:0003a720       ?getTemplateNonTypeArgument@UnDecorator@@CA?AVDName@@XZ 1003b720 f   libvcruntimed:undname.obj
 0001:0003ad50       ?getTemplateTypeArgument@UnDecorator@@CA?AVDName@@XZ 1003bd50 f   libvcruntimed:undname.obj
 0001:0003aeb0       ?getThisType@UnDecorator@@CA?AVDName@@XZ 1003beb0 f i libvcruntimed:undname.obj
 0001:0003af00       ?getThrowTypes@UnDecorator@@CA?AVDName@@XZ 1003bf00 f   libvcruntimed:undname.obj
 0001:0003af40       ?getTypeEncoding@UnDecorator@@CAHXZ 1003bf40 f i libvcruntimed:undname.obj
 0001:0003b9d0       ?getUndecoratedName@UnDecorator@@QAEPADPADH@Z 1003c9d0 f i libvcruntimed:undname.obj
 0001:0003bb20       ?getVCallThunkType@UnDecorator@@CA?AVDName@@XZ 1003cb20 f i libvcruntimed:undname.obj
 0001:0003bb80       ?getVbTableType@UnDecorator@@CA?AVDName@@ABV2@@Z 1003cb80 f i libvcruntimed:undname.obj
 0001:0003bba0       ?getVdispMapType@UnDecorator@@CA?AVDName@@ABV2@@Z 1003cba0 f i libvcruntimed:undname.obj
 0001:0003bc10       ?getVfTableType@UnDecorator@@CA?AVDName@@ABV2@@Z 1003cc10 f i libvcruntimed:undname.obj
 0001:0003bde0       ?getZName@UnDecorator@@CA?AVDName@@_N0@Z 1003cde0 f   libvcruntimed:undname.obj
 0001:0003c0c0       ?haveTemplateParameters@UnDecorator@@SAHXZ 1003d0c0 f i libvcruntimed:undname.obj
 0001:0003c0d0       ?isArray@DName@@QBEHXZ     1003d0d0 f i libvcruntimed:undname.obj
 0001:0003c0f0       ?isComArray@DName@@QBEHXZ  1003d0f0 f i libvcruntimed:undname.obj
 0001:0003c110       ?isEmpty@DName@@QBEHXZ     1003d110 f i libvcruntimed:undname.obj
 0001:0003c140       ?isFull@Replicator@@QBEHXZ 1003d140 f i libvcruntimed:undname.obj
 0001:0003c170       ?isNoTE@DName@@QBEHXZ      1003d170 f i libvcruntimed:undname.obj
 0001:0003c190       ?isPinPtr@DName@@QBEHXZ    1003d190 f i libvcruntimed:undname.obj
 0001:0003c1b0       ?isPtrRef@DName@@QBEHXZ    1003d1b0 f i libvcruntimed:undname.obj
 0001:0003c1d0       ?isUDC@DName@@QBEHXZ       1003d1d0 f i libvcruntimed:undname.obj
 0001:0003c210       ?isUDTThunk@DName@@QBEHXZ  1003d210 f i libvcruntimed:undname.obj
 0001:0003c250       ?isVCallThunk@DName@@QBEHXZ 1003d250 f i libvcruntimed:undname.obj
 0001:0003c270       ?isValid@DName@@QBEHXZ     1003d270 f i libvcruntimed:undname.obj
 0001:0003c2b0       ?length@DName@@QBEHXZ      1003d2b0 f i libvcruntimed:undname.obj
 0001:0003c2f0       ?length@DNameStatusNode@@UBEHXZ 1003d2f0 f i libvcruntimed:undname.obj
 0001:0003c310       ?length@charNode@@UBEHXZ   1003d310 f i libvcruntimed:undname.obj
 0001:0003c320       ?length@pDNameNode@@UBEHXZ 1003d320 f i libvcruntimed:undname.obj
 0001:0003c350       ?length@pairNode@@UBEHXZ   1003d350 f i libvcruntimed:undname.obj
 0001:0003c3c0       ?length@pcharNode@@UBEHXZ  1003d3c0 f i libvcruntimed:undname.obj
 0001:0003c3e0       ?make@DNameStatusNode@@SAPBV1@W4DNameStatus@@@Z 1003d3e0 f i libvcruntimed:undname.obj
 0001:0003c410       ?parseDecoratedName@UnDecorator@@CA?AVDName@@XZ 1003d410 f   libvcruntimed:undname.obj
 0001:0003c590       ?setIsArray@DName@@QAEXXZ  1003d590 f i libvcruntimed:undname.obj
 0001:0003c5b0       ?setIsComArray@DName@@QAEXXZ 1003d5b0 f i libvcruntimed:undname.obj
 0001:0003c5d0       ?setIsNoTE@DName@@QAEXXZ   1003d5d0 f i libvcruntimed:undname.obj
 0001:0003c5f0       ?setIsPinPtr@DName@@QAEXXZ 1003d5f0 f i libvcruntimed:undname.obj
 0001:0003c610       ?setIsUDC@DName@@QAEXXZ    1003d610 f i libvcruntimed:undname.obj
 0001:0003c640       ?setIsVCallThunk@DName@@QAEXXZ 1003d640 f i libvcruntimed:undname.obj
 0001:0003c660       ?setPtrRef@DName@@QAEAAV1@XZ 1003d660 f i libvcruntimed:undname.obj
 0001:0003c680       ?status@DName@@QBE?AW4DNameStatus@@XZ 1003d680 f i libvcruntimed:undname.obj
 0001:0003c780       ___unDName                 1003d780 f   libvcruntimed:undname.obj
 0001:0003c7b0       ___unDNameEx               1003d7b0 f   libvcruntimed:undname.obj
 0001:0003c880       _unDNameGenerateCHPE       1003d880 f   libvcruntimed:undname.obj
 0001:0003c8e0       __global_unwind2           1003d8e0 f   libvcruntimed:exsup.obj
 0001:0003c946       __local_unwind2            1003d946 f   libvcruntimed:exsup.obj
 0001:0003c9ca       __abnormal_termination     1003d9ca f   libvcruntimed:exsup.obj
 0001:0003c9f0       __NLG_Notify1              1003d9f0 f   libvcruntimed:exsup.obj
 0001:0003c9fc       __NLG_Notify               1003d9fc f   libvcruntimed:exsup.obj
 0001:0003ca13       __NLG_Dispatch             1003da13     libvcruntimed:exsup.obj
 0001:0003ca13       __NLG_Dispatch2            1003da13     libvcruntimed:exsup.obj
 0001:0003ca1b       __NLG_Call                 1003da1b f   libvcruntimed:exsup.obj
 0001:0003ca1d       __NLG_Return2              1003da1d     libvcruntimed:exsup.obj
 0001:0003ca20       ??$__crt_interlocked_exchange_pointer@UHINSTANCE__@@PAU1@@@YAPAUHINSTANCE__@@PDSAU0@QAU0@@Z 1003da20 f i libvcruntimed:winapi_downlevel.obj
 0001:0003ca30       ??$__crt_interlocked_exchange_pointer@UHINSTANCE__@@PAX@@YAPAUHINSTANCE__@@PDSAU0@QAX@Z 1003da30 f i libvcruntimed:winapi_downlevel.obj
 0001:0003ca40       ??$__crt_interlocked_exchange_pointer@XPAX@@YAPAXPDSAXQAX@Z 1003da40 f i libvcruntimed:winapi_downlevel.obj
 0001:0003ca50       ??$__crt_interlocked_read_pointer@UHINSTANCE__@@@@YAPAUHINSTANCE__@@PDSAU0@@Z 1003da50 f i libvcruntimed:winapi_downlevel.obj
 0001:0003ca70       ??$__crt_interlocked_read_pointer@X@@YAPAXPDSAX@Z 1003da70 f i libvcruntimed:winapi_downlevel.obj
 0001:0003ce40       ___vcrt_FlsAlloc           1003de40 f   libvcruntimed:winapi_downlevel.obj
 0001:0003ce80       ___vcrt_FlsFree            1003de80 f   libvcruntimed:winapi_downlevel.obj
 0001:0003cec0       ___vcrt_FlsGetValue        1003dec0 f   libvcruntimed:winapi_downlevel.obj
 0001:0003cf00       ___vcrt_FlsSetValue        1003df00 f   libvcruntimed:winapi_downlevel.obj
 0001:0003cf50       ___vcrt_InitializeCriticalSectionEx 1003df50 f   libvcruntimed:winapi_downlevel.obj
 0001:0003cfd0       __get_unexpected           1003dfd0 f   libvcruntimed:unexpected.obj
 0001:0003cff0       _set_unexpected            1003dff0 f   libvcruntimed:unexpected.obj
 0001:0003d020       _unexpected                1003e020 f   libvcruntimed:unexpected.obj
 0001:0003d060       ?GetCurrentState@__FrameHandler3@@SAHPAUEHRegistrationNode@@PAXPBU_s_FuncInfo@@@Z 1003e060 f   libvcruntimed:ehstate.obj
 0001:0003d090       ?SetState@__FrameHandler3@@SAXPAUEHRegistrationNode@@PBU_s_FuncInfo@@H@Z 1003e090 f   libvcruntimed:ehstate.obj
 0001:0003d0a0       ___DestructExceptionObject 1003e0a0 f   libvcruntimed:ehhelpers.obj
 0001:0003d1d0       ?_CallMemberFunction0@@YGXQAX0@Z 1003e1d0 f i libvcruntimed:ehhelpers.obj
 0001:0003d1f0       ?raw_name@type_info@@QBEPBDXZ 1003e1f0 f i libvcruntimed:ehhelpers.obj
 0001:0003d210       __IsExceptionObjectToBeDestroyed 1003e210 f   libvcruntimed:ehhelpers.obj
 0001:0003d250       __SetWinRTOutOfMemoryExceptionCallback 1003e250 f   libvcruntimed:ehhelpers.obj
 0001:0003d260       ___AdjustPointer           1003e260 f   libvcruntimed:ehhelpers.obj
 0001:0003d2b0       ___FrameUnwindFilter       1003e2b0 f   libvcruntimed:ehhelpers.obj
 0001:0003d330       ___GetPlatformExceptionInfo 1003e330 f   libvcruntimed:ehhelpers.obj
 0001:0003d3b0       ___current_exception       1003e3b0 f   libvcruntimed:ehhelpers.obj
 0001:0003d3c0       ___current_exception_context 1003e3c0 f   libvcruntimed:ehhelpers.obj
 0001:0003d3d0       ___processing_throw        1003e3d0 f   libvcruntimed:ehhelpers.obj
 0001:0003d3e0       ___std_terminate           1003e3e0 f   libvcruntimed:ehhelpers.obj
 0001:0003d3f0       __is_exception_typeof      1003e3f0 f   libvcruntimed:ehhelpers.obj
 0001:0003d4d0       ??$?0ABV?$stream_output_adapter@D@__crt_stdio_output@@AB_KABQBDABQAU__crt_locale_pointers@@ABQAD@?$format_validation_base@DV?$stream_output_adapter@D@__crt_stdio_output@@@__crt_stdio_output@@IAE@ABV?$stream_output_adapter@D@1@AB_KABQBDABQAU__crt_locale_pointers@@ABQAD@Z 1003e4d0 f i libucrtd:output.obj
 0001:0003d500       ??$?0ABV?$stream_output_adapter@D@__crt_stdio_output@@AB_KABQBDABQAU__crt_locale_pointers@@ABQAD@?$positional_parameter_base@DV?$stream_output_adapter@D@__crt_stdio_output@@@__crt_stdio_output@@IAE@ABV?$stream_output_adapter@D@1@AB_KABQBDABQAU__crt_locale_pointers@@ABQAD@Z 1003e500 f i libucrtd:output.obj
 0001:0003d580       ??$?0ABV?$stream_output_adapter@D@__crt_stdio_output@@AB_KABQBDABQAU__crt_locale_pointers@@ABQAD@?$standard_base@DV?$stream_output_adapter@D@__crt_stdio_output@@@__crt_stdio_output@@IAE@ABV?$stream_output_adapter@D@1@AB_KABQBDABQAU__crt_locale_pointers@@ABQAD@Z 1003e580 f i libucrtd:output.obj
 0001:0003d5d0       ??$?0ABV?$stream_output_adapter@_W@__crt_stdio_output@@AB_KABQB_WABQAU__crt_locale_pointers@@ABQAD@?$format_validation_base@_WV?$stream_output_adapter@_W@__crt_stdio_output@@@__crt_stdio_output@@IAE@ABV?$stream_output_adapter@_W@1@AB_KABQB_WABQAU__crt_locale_pointers@@ABQAD@Z 1003e5d0 f i libucrtd:output.obj
 0001:0003d600       ??$?0ABV?$stream_output_adapter@_W@__crt_stdio_output@@AB_KABQB_WABQAU__crt_locale_pointers@@ABQAD@?$positional_parameter_base@_WV?$stream_output_adapter@_W@__crt_stdio_output@@@__crt_stdio_output@@IAE@ABV?$stream_output_adapter@_W@1@AB_KABQB_WABQAU__crt_locale_pointers@@ABQAD@Z 1003e600 f i libucrtd:output.obj
 0001:0003d680       ??$?0ABV?$stream_output_adapter@_W@__crt_stdio_output@@AB_KABQB_WABQAU__crt_locale_pointers@@ABQAD@?$standard_base@_WV?$stream_output_adapter@_W@__crt_stdio_output@@@__crt_stdio_output@@IAE@ABV?$stream_output_adapter@_W@1@AB_KABQB_WABQAU__crt_locale_pointers@@ABQAD@Z 1003e680 f i libucrtd:output.obj
 0001:0003d6d0       ??$?0ABV?$string_output_adapter@D@__crt_stdio_output@@AB_KABQBDABQAU__crt_locale_pointers@@ABQAD@?$format_validation_base@DV?$string_output_adapter@D@__crt_stdio_output@@@__crt_stdio_output@@IAE@ABV?$string_output_adapter@D@1@AB_KABQBDABQAU__crt_locale_pointers@@ABQAD@Z 1003e6d0 f i libucrtd:output.obj
 0001:0003d700       ??$?0ABV?$string_output_adapter@D@__crt_stdio_output@@AB_KABQBDABQAU__crt_locale_pointers@@ABQAD@?$positional_parameter_base@DV?$string_output_adapter@D@__crt_stdio_output@@@__crt_stdio_output@@IAE@ABV?$string_output_adapter@D@1@AB_KABQBDABQAU__crt_locale_pointers@@ABQAD@Z 1003e700 f i libucrtd:output.obj
 0001:0003d780       ??$?0ABV?$string_output_adapter@D@__crt_stdio_output@@AB_KABQBDABQAU__crt_locale_pointers@@ABQAD@?$standard_base@DV?$string_output_adapter@D@__crt_stdio_output@@@__crt_stdio_output@@IAE@ABV?$string_output_adapter@D@1@AB_KABQBDABQAU__crt_locale_pointers@@ABQAD@Z 1003e780 f i libucrtd:output.obj
 0001:0003d7d0       ??$?0ABV?$string_output_adapter@_W@__crt_stdio_output@@AB_KABQB_WABQAU__crt_locale_pointers@@ABQAD@?$format_validation_base@_WV?$string_output_adapter@_W@__crt_stdio_output@@@__crt_stdio_output@@IAE@ABV?$string_output_adapter@_W@1@AB_KABQB_WABQAU__crt_locale_pointers@@ABQAD@Z 1003e7d0 f i libucrtd:output.obj
 0001:0003d800       ??$?0ABV?$string_output_adapter@_W@__crt_stdio_output@@AB_KABQB_WABQAU__crt_locale_pointers@@ABQAD@?$positional_parameter_base@_WV?$string_output_adapter@_W@__crt_stdio_output@@@__crt_stdio_output@@IAE@ABV?$string_output_adapter@_W@1@AB_KABQB_WABQAU__crt_locale_pointers@@ABQAD@Z 1003e800 f i libucrtd:output.obj
 0001:0003d880       ??$?0ABV?$string_output_adapter@_W@__crt_stdio_output@@AB_KABQB_WABQAU__crt_locale_pointers@@ABQAD@?$standard_base@_WV?$string_output_adapter@_W@__crt_stdio_output@@@__crt_stdio_output@@IAE@ABV?$string_output_adapter@_W@1@AB_KABQB_WABQAU__crt_locale_pointers@@ABQAD@Z 1003e880 f i libucrtd:output.obj
 0001:0003ddb0       ??$__crt_interlocked_read@J@@YAJPDJ@Z 1003edb0 f i libucrtd:output.obj
 0001:00040b50       ??$count@D@formatting_buffer@__crt_stdio_output@@QBEIXZ 10041b50 f i libucrtd:output.obj
 0001:00040b90       ??$count@_W@formatting_buffer@__crt_stdio_output@@QBEIXZ 10041b90 f i libucrtd:output.obj
 0001:00040bd0       ??$data@D@formatting_buffer@__crt_stdio_output@@QAEPADXZ 10041bd0 f i libucrtd:output.obj
 0001:00040c10       ??$data@_W@formatting_buffer@__crt_stdio_output@@QAEPA_WXZ 10041c10 f i libucrtd:output.obj
 0001:00040c50       ??$ensure_buffer_is_big_enough@D@formatting_buffer@__crt_stdio_output@@QAE_NI@Z 10041c50 f i libucrtd:output.obj
 0001:00040d30       ??$ensure_buffer_is_big_enough@_W@formatting_buffer@__crt_stdio_output@@QAE_NI@Z 10041d30 f i libucrtd:output.obj
 0001:00040e20       ??$extract_argument_from_va_list@C_J@?$positional_parameter_base@DV?$stream_output_adapter@D@__crt_stdio_output@@@__crt_stdio_output@@IAE_NAA_J@Z 10041e20 f i libucrtd:output.obj
 0001:00040f60       ??$extract_argument_from_va_list@C_J@?$positional_parameter_base@DV?$string_output_adapter@D@__crt_stdio_output@@@__crt_stdio_output@@IAE_NAA_J@Z 10041f60 f i libucrtd:output.obj
 0001:000410a0       ??$extract_argument_from_va_list@C_J@?$positional_parameter_base@_WV?$stream_output_adapter@_W@__crt_stdio_output@@@__crt_stdio_output@@IAE_NAA_J@Z 100420a0 f i libucrtd:output.obj
 0001:000411e0       ??$extract_argument_from_va_list@C_J@?$positional_parameter_base@_WV?$string_output_adapter@_W@__crt_stdio_output@@@__crt_stdio_output@@IAE_NAA_J@Z 100421e0 f i libucrtd:output.obj
 0001:00041320       ??$extract_argument_from_va_list@C_J@?$standard_base@DV?$stream_output_adapter@D@__crt_stdio_output@@@__crt_stdio_output@@IAE_NAA_J@Z 10042320 f i libucrtd:output.obj
 0001:00041350       ??$extract_argument_from_va_list@C_J@?$standard_base@DV?$string_output_adapter@D@__crt_stdio_output@@@__crt_stdio_output@@IAE_NAA_J@Z 10042350 f i libucrtd:output.obj
 0001:00041380       ??$extract_argument_from_va_list@C_J@?$standard_base@_WV?$stream_output_adapter@_W@__crt_stdio_output@@@__crt_stdio_output@@IAE_NAA_J@Z 10042380 f i libucrtd:output.obj
 0001:000413b0       ??$extract_argument_from_va_list@C_J@?$standard_base@_WV?$string_output_adapter@_W@__crt_stdio_output@@@__crt_stdio_output@@IAE_NAA_J@Z 100423b0 f i libucrtd:output.obj
 0001:000413e0       ??$extract_argument_from_va_list@E_J@?$positional_parameter_base@DV?$stream_output_adapter@D@__crt_stdio_output@@@__crt_stdio_output@@IAE_NAA_J@Z 100423e0 f i libucrtd:output.obj
 0001:00041520       ??$extract_argument_from_va_list@E_J@?$positional_parameter_base@DV?$string_output_adapter@D@__crt_stdio_output@@@__crt_stdio_output@@IAE_NAA_J@Z 10042520 f i libucrtd:output.obj
 0001:00041660       ??$extract_argument_from_va_list@E_J@?$positional_parameter_base@_WV?$stream_output_adapter@_W@__crt_stdio_output@@@__crt_stdio_output@@IAE_NAA_J@Z 10042660 f i libucrtd:output.obj
 0001:000417a0       ??$extract_argument_from_va_list@E_J@?$positional_parameter_base@_WV?$string_output_adapter@_W@__crt_stdio_output@@@__crt_stdio_output@@IAE_NAA_J@Z 100427a0 f i libucrtd:output.obj
 0001:000418e0       ??$extract_argument_from_va_list@E_J@?$standard_base@DV?$stream_output_adapter@D@__crt_stdio_output@@@__crt_stdio_output@@IAE_NAA_J@Z 100428e0 f i libucrtd:output.obj
 0001:00041910       ??$extract_argument_from_va_list@E_J@?$standard_base@DV?$string_output_adapter@D@__crt_stdio_output@@@__crt_stdio_output@@IAE_NAA_J@Z 10042910 f i libucrtd:output.obj
 0001:00041940       ??$extract_argument_from_va_list@E_J@?$standard_base@_WV?$stream_output_adapter@_W@__crt_stdio_output@@@__crt_stdio_output@@IAE_NAA_J@Z 10042940 f i libucrtd:output.obj
 0001:00041970       ??$extract_argument_from_va_list@E_J@?$standard_base@_WV?$string_output_adapter@_W@__crt_stdio_output@@@__crt_stdio_output@@IAE_NAA_J@Z 10042970 f i libucrtd:output.obj
 0001:000419a0       ??$extract_argument_from_va_list@F_J@?$positional_parameter_base@DV?$stream_output_adapter@D@__crt_stdio_output@@@__crt_stdio_output@@IAE_NAA_J@Z 100429a0 f i libucrtd:output.obj
 0001:00041ad0       ??$extract_argument_from_va_list@F_J@?$positional_parameter_base@DV?$string_output_adapter@D@__crt_stdio_output@@@__crt_stdio_output@@IAE_NAA_J@Z 10042ad0 f i libucrtd:output.obj
 0001:00041c00       ??$extract_argument_from_va_list@F_J@?$positional_parameter_base@_WV?$stream_output_adapter@_W@__crt_stdio_output@@@__crt_stdio_output@@IAE_NAA_J@Z 10042c00 f i libucrtd:output.obj
 0001:00041d30       ??$extract_argument_from_va_list@F_J@?$positional_parameter_base@_WV?$string_output_adapter@_W@__crt_stdio_output@@@__crt_stdio_output@@IAE_NAA_J@Z 10042d30 f i libucrtd:output.obj
 0001:00041e60       ??$extract_argument_from_va_list@F_J@?$standard_base@DV?$stream_output_adapter@D@__crt_stdio_output@@@__crt_stdio_output@@IAE_NAA_J@Z 10042e60 f i libucrtd:output.obj
 0001:00041e90       ??$extract_argument_from_va_list@F_J@?$standard_base@DV?$string_output_adapter@D@__crt_stdio_output@@@__crt_stdio_output@@IAE_NAA_J@Z 10042e90 f i libucrtd:output.obj
 0001:00041ec0       ??$extract_argument_from_va_list@F_J@?$standard_base@_WV?$stream_output_adapter@_W@__crt_stdio_output@@@__crt_stdio_output@@IAE_NAA_J@Z 10042ec0 f i libucrtd:output.obj
 0001:00041ef0       ??$extract_argument_from_va_list@F_J@?$standard_base@_WV?$string_output_adapter@_W@__crt_stdio_output@@@__crt_stdio_output@@IAE_NAA_J@Z 10042ef0 f i libucrtd:output.obj
 0001:00041f20       ??$extract_argument_from_va_list@GD@?$positional_parameter_base@DV?$stream_output_adapter@D@__crt_stdio_output@@@__crt_stdio_output@@IAE_NAAD@Z 10042f20 f i libucrtd:output.obj
 0001:00042050       ??$extract_argument_from_va_list@GD@?$positional_parameter_base@DV?$string_output_adapter@D@__crt_stdio_output@@@__crt_stdio_output@@IAE_NAAD@Z 10043050 f i libucrtd:output.obj
 0001:00042180       ??$extract_argument_from_va_list@GD@?$standard_base@DV?$stream_output_adapter@D@__crt_stdio_output@@@__crt_stdio_output@@IAE_NAAD@Z 10043180 f i libucrtd:output.obj
 0001:000421b0       ??$extract_argument_from_va_list@GD@?$standard_base@DV?$string_output_adapter@D@__crt_stdio_output@@@__crt_stdio_output@@IAE_NAAD@Z 100431b0 f i libucrtd:output.obj
 0001:000421e0       ??$extract_argument_from_va_list@G_J@?$positional_parameter_base@DV?$stream_output_adapter@D@__crt_stdio_output@@@__crt_stdio_output@@IAE_NAA_J@Z 100431e0 f i libucrtd:output.obj
 0001:00042320       ??$extract_argument_from_va_list@G_J@?$positional_parameter_base@DV?$string_output_adapter@D@__crt_stdio_output@@@__crt_stdio_output@@IAE_NAA_J@Z 10043320 f i libucrtd:output.obj
 0001:00042460       ??$extract_argument_from_va_list@G_J@?$positional_parameter_base@_WV?$stream_output_adapter@_W@__crt_stdio_output@@@__crt_stdio_output@@IAE_NAA_J@Z 10043460 f i libucrtd:output.obj
 0001:000425a0       ??$extract_argument_from_va_list@G_J@?$positional_parameter_base@_WV?$string_output_adapter@_W@__crt_stdio_output@@@__crt_stdio_output@@IAE_NAA_J@Z 100435a0 f i libucrtd:output.obj
 0001:000426e0       ??$extract_argument_from_va_list@G_J@?$standard_base@DV?$stream_output_adapter@D@__crt_stdio_output@@@__crt_stdio_output@@IAE_NAA_J@Z 100436e0 f i libucrtd:output.obj
 0001:00042710       ??$extract_argument_from_va_list@G_J@?$standard_base@DV?$string_output_adapter@D@__crt_stdio_output@@@__crt_stdio_output@@IAE_NAA_J@Z 10043710 f i libucrtd:output.obj
 0001:00042740       ??$extract_argument_from_va_list@G_J@?$standard_base@_WV?$stream_output_adapter@_W@__crt_stdio_output@@@__crt_stdio_output@@IAE_NAA_J@Z 10043740 f i libucrtd:output.obj
 0001:00042770       ??$extract_argument_from_va_list@G_J@?$standard_base@_WV?$string_output_adapter@_W@__crt_stdio_output@@@__crt_stdio_output@@IAE_NAA_J@Z 10043770 f i libucrtd:output.obj
 0001:000427a0       ??$extract_argument_from_va_list@H_J@?$positional_parameter_base@DV?$stream_output_adapter@D@__crt_stdio_output@@@__crt_stdio_output@@IAE_NAA_J@Z 100437a0 f i libucrtd:output.obj
 0001:000428d0       ??$extract_argument_from_va_list@H_J@?$positional_parameter_base@DV?$string_output_adapter@D@__crt_stdio_output@@@__crt_stdio_output@@IAE_NAA_J@Z 100438d0 f i libucrtd:output.obj
 0001:00042a00       ??$extract_argument_from_va_list@H_J@?$positional_parameter_base@_WV?$stream_output_adapter@_W@__crt_stdio_output@@@__crt_stdio_output@@IAE_NAA_J@Z 10043a00 f i libucrtd:output.obj
 0001:00042b30       ??$extract_argument_from_va_list@H_J@?$positional_parameter_base@_WV?$string_output_adapter@_W@__crt_stdio_output@@@__crt_stdio_output@@IAE_NAA_J@Z 10043b30 f i libucrtd:output.obj
 0001:00042c60       ??$extract_argument_from_va_list@H_J@?$standard_base@DV?$stream_output_adapter@D@__crt_stdio_output@@@__crt_stdio_output@@IAE_NAA_J@Z 10043c60 f i libucrtd:output.obj
 0001:00042c90       ??$extract_argument_from_va_list@H_J@?$standard_base@DV?$string_output_adapter@D@__crt_stdio_output@@@__crt_stdio_output@@IAE_NAA_J@Z 10043c90 f i libucrtd:output.obj
 0001:00042cc0       ??$extract_argument_from_va_list@H_J@?$standard_base@_WV?$stream_output_adapter@_W@__crt_stdio_output@@@__crt_stdio_output@@IAE_NAA_J@Z 10043cc0 f i libucrtd:output.obj
 0001:00042cf0       ??$extract_argument_from_va_list@H_J@?$standard_base@_WV?$string_output_adapter@_W@__crt_stdio_output@@@__crt_stdio_output@@IAE_NAA_J@Z 10043cf0 f i libucrtd:output.obj
 0001:00042d20       ??$extract_argument_from_va_list@I_J@?$positional_parameter_base@DV?$stream_output_adapter@D@__crt_stdio_output@@@__crt_stdio_output@@IAE_NAA_J@Z 10043d20 f i libucrtd:output.obj
 0001:00042e50       ??$extract_argument_from_va_list@I_J@?$positional_parameter_base@DV?$string_output_adapter@D@__crt_stdio_output@@@__crt_stdio_output@@IAE_NAA_J@Z 10043e50 f i libucrtd:output.obj
 0001:00042f80       ??$extract_argument_from_va_list@I_J@?$positional_parameter_base@_WV?$stream_output_adapter@_W@__crt_stdio_output@@@__crt_stdio_output@@IAE_NAA_J@Z 10043f80 f i libucrtd:output.obj
 0001:000430b0       ??$extract_argument_from_va_list@I_J@?$positional_parameter_base@_WV?$string_output_adapter@_W@__crt_stdio_output@@@__crt_stdio_output@@IAE_NAA_J@Z 100440b0 f i libucrtd:output.obj
 0001:000431e0       ??$extract_argument_from_va_list@I_J@?$standard_base@DV?$stream_output_adapter@D@__crt_stdio_output@@@__crt_stdio_output@@IAE_NAA_J@Z 100441e0 f i libucrtd:output.obj
 0001:00043210       ??$extract_argument_from_va_list@I_J@?$standard_base@DV?$string_output_adapter@D@__crt_stdio_output@@@__crt_stdio_output@@IAE_NAA_J@Z 10044210 f i libucrtd:output.obj
 0001:00043240       ??$extract_argument_from_va_list@I_J@?$standard_base@_WV?$stream_output_adapter@_W@__crt_stdio_output@@@__crt_stdio_output@@IAE_NAA_J@Z 10044240 f i libucrtd:output.obj
 0001:00043270       ??$extract_argument_from_va_list@I_J@?$standard_base@_WV?$string_output_adapter@_W@__crt_stdio_output@@@__crt_stdio_output@@IAE_NAA_J@Z 10044270 f i libucrtd:output.obj
 0001:000432a0       ??$extract_argument_from_va_list@PADPAD@?$positional_parameter_base@DV?$stream_output_adapter@D@__crt_stdio_output@@@__crt_stdio_output@@IAE_NAAPAD@Z 100442a0 f i libucrtd:output.obj
 0001:000433d0       ??$extract_argument_from_va_list@PADPAD@?$positional_parameter_base@DV?$string_output_adapter@D@__crt_stdio_output@@@__crt_stdio_output@@IAE_NAAPAD@Z 100443d0 f i libucrtd:output.obj
 0001:00043500       ??$extract_argument_from_va_list@PADPAD@?$positional_parameter_base@_WV?$stream_output_adapter@_W@__crt_stdio_output@@@__crt_stdio_output@@IAE_NAAPAD@Z 10044500 f i libucrtd:output.obj
 0001:00043630       ??$extract_argument_from_va_list@PADPAD@?$positional_parameter_base@_WV?$string_output_adapter@_W@__crt_stdio_output@@@__crt_stdio_output@@IAE_NAAPAD@Z 10044630 f i libucrtd:output.obj
 0001:00043760       ??$extract_argument_from_va_list@PADPAD@?$standard_base@DV?$stream_output_adapter@D@__crt_stdio_output@@@__crt_stdio_output@@IAE_NAAPAD@Z 10044760 f i libucrtd:output.obj
 0001:00043790       ??$extract_argument_from_va_list@PADPAD@?$standard_base@DV?$string_output_adapter@D@__crt_stdio_output@@@__crt_stdio_output@@IAE_NAAPAD@Z 10044790 f i libucrtd:output.obj
 0001:000437c0       ??$extract_argument_from_va_list@PADPAD@?$standard_base@_WV?$stream_output_adapter@_W@__crt_stdio_output@@@__crt_stdio_output@@IAE_NAAPAD@Z 100447c0 f i libucrtd:output.obj
 0001:000437f0       ??$extract_argument_from_va_list@PADPAD@?$standard_base@_WV?$string_output_adapter@_W@__crt_stdio_output@@@__crt_stdio_output@@IAE_NAAPAD@Z 100447f0 f i libucrtd:output.obj
 0001:00043f20       ??$extract_argument_from_va_list@PAXPAX@?$positional_parameter_base@DV?$stream_output_adapter@D@__crt_stdio_output@@@__crt_stdio_output@@IAE_NAAPAX@Z 10044f20 f i libucrtd:output.obj
 0001:00044050       ??$extract_argument_from_va_list@PAXPAX@?$positional_parameter_base@DV?$string_output_adapter@D@__crt_stdio_output@@@__crt_stdio_output@@IAE_NAAPAX@Z 10045050 f i libucrtd:output.obj
 0001:00044180       ??$extract_argument_from_va_list@PAXPAX@?$positional_parameter_base@_WV?$stream_output_adapter@_W@__crt_stdio_output@@@__crt_stdio_output@@IAE_NAAPAX@Z 10045180 f i libucrtd:output.obj
 0001:000442b0       ??$extract_argument_from_va_list@PAXPAX@?$positional_parameter_base@_WV?$string_output_adapter@_W@__crt_stdio_output@@@__crt_stdio_output@@IAE_NAAPAX@Z 100452b0 f i libucrtd:output.obj
 0001:000443e0       ??$extract_argument_from_va_list@PAXPAX@?$standard_base@DV?$stream_output_adapter@D@__crt_stdio_output@@@__crt_stdio_output@@IAE_NAAPAX@Z 100453e0 f i libucrtd:output.obj
 0001:00044410       ??$extract_argument_from_va_list@PAXPAX@?$standard_base@DV?$string_output_adapter@D@__crt_stdio_output@@@__crt_stdio_output@@IAE_NAAPAX@Z 10045410 f i libucrtd:output.obj
 0001:00044440       ??$extract_argument_from_va_list@PAXPAX@?$standard_base@_WV?$stream_output_adapter@_W@__crt_stdio_output@@@__crt_stdio_output@@IAE_NAAPAX@Z 10045440 f i libucrtd:output.obj
 0001:00044470       ??$extract_argument_from_va_list@PAXPAX@?$standard_base@_WV?$string_output_adapter@_W@__crt_stdio_output@@@__crt_stdio_output@@IAE_NAAPAX@Z 10045470 f i libucrtd:output.obj
 0001:000444a0       ??$extract_argument_from_va_list@U_CRT_DOUBLE@@U1@@?$positional_parameter_base@DV?$stream_output_adapter@D@__crt_stdio_output@@@__crt_stdio_output@@IAE_NAAU_CRT_DOUBLE@@@Z 100454a0 f i libucrtd:output.obj
 0001:00044600       ??$extract_argument_from_va_list@U_CRT_DOUBLE@@U1@@?$positional_parameter_base@DV?$string_output_adapter@D@__crt_stdio_output@@@__crt_stdio_output@@IAE_NAAU_CRT_DOUBLE@@@Z 10045600 f i libucrtd:output.obj
 0001:00044760       ??$extract_argument_from_va_list@U_CRT_DOUBLE@@U1@@?$positional_parameter_base@_WV?$stream_output_adapter@_W@__crt_stdio_output@@@__crt_stdio_output@@IAE_NAAU_CRT_DOUBLE@@@Z 10045760 f i libucrtd:output.obj
 0001:000448c0       ??$extract_argument_from_va_list@U_CRT_DOUBLE@@U1@@?$positional_parameter_base@_WV?$string_output_adapter@_W@__crt_stdio_output@@@__crt_stdio_output@@IAE_NAAU_CRT_DOUBLE@@@Z 100458c0 f i libucrtd:output.obj
 0001:00044a20       ??$extract_argument_from_va_list@U_CRT_DOUBLE@@U1@@?$standard_base@DV?$stream_output_adapter@D@__crt_stdio_output@@@__crt_stdio_output@@IAE_NAAU_CRT_DOUBLE@@@Z 10045a20 f i libucrtd:output.obj
 0001:00044a70       ??$extract_argument_from_va_list@U_CRT_DOUBLE@@U1@@?$standard_base@DV?$string_output_adapter@D@__crt_stdio_output@@@__crt_stdio_output@@IAE_NAAU_CRT_DOUBLE@@@Z 10045a70 f i libucrtd:output.obj
 0001:00044ac0       ??$extract_argument_from_va_list@U_CRT_DOUBLE@@U1@@?$standard_base@_WV?$stream_output_adapter@_W@__crt_stdio_output@@@__crt_stdio_output@@IAE_NAAU_CRT_DOUBLE@@@Z 10045ac0 f i libucrtd:output.obj
 0001:00044b10       ??$extract_argument_from_va_list@U_CRT_DOUBLE@@U1@@?$standard_base@_WV?$string_output_adapter@_W@__crt_stdio_output@@@__crt_stdio_output@@IAE_NAAU_CRT_DOUBLE@@@Z 10045b10 f i libucrtd:output.obj
 0001:00044b60       ??$extract_argument_from_va_list@_J_J@?$positional_parameter_base@DV?$stream_output_adapter@D@__crt_stdio_output@@@__crt_stdio_output@@IAE_NAA_J@Z 10045b60 f i libucrtd:output.obj
 0001:00044c90       ??$extract_argument_from_va_list@_J_J@?$positional_parameter_base@DV?$string_output_adapter@D@__crt_stdio_output@@@__crt_stdio_output@@IAE_NAA_J@Z 10045c90 f i libucrtd:output.obj
 0001:00044dc0       ??$extract_argument_from_va_list@_J_J@?$positional_parameter_base@_WV?$stream_output_adapter@_W@__crt_stdio_output@@@__crt_stdio_output@@IAE_NAA_J@Z 10045dc0 f i libucrtd:output.obj
 0001:00044ef0       ??$extract_argument_from_va_list@_J_J@?$positional_parameter_base@_WV?$string_output_adapter@_W@__crt_stdio_output@@@__crt_stdio_output@@IAE_NAA_J@Z 10045ef0 f i libucrtd:output.obj
 0001:00045020       ??$extract_argument_from_va_list@_J_J@?$standard_base@DV?$stream_output_adapter@D@__crt_stdio_output@@@__crt_stdio_output@@IAE_NAA_J@Z 10046020 f i libucrtd:output.obj
 0001:00045050       ??$extract_argument_from_va_list@_J_J@?$standard_base@DV?$string_output_adapter@D@__crt_stdio_output@@@__crt_stdio_output@@IAE_NAA_J@Z 10046050 f i libucrtd:output.obj
 0001:00045080       ??$extract_argument_from_va_list@_J_J@?$standard_base@_WV?$stream_output_adapter@_W@__crt_stdio_output@@@__crt_stdio_output@@IAE_NAA_J@Z 10046080 f i libucrtd:output.obj
 0001:000450b0       ??$extract_argument_from_va_list@_J_J@?$standard_base@_WV?$string_output_adapter@_W@__crt_stdio_output@@@__crt_stdio_output@@IAE_NAA_J@Z 100460b0 f i libucrtd:output.obj
 0001:000450e0       ??$extract_argument_from_va_list@_K_J@?$positional_parameter_base@DV?$stream_output_adapter@D@__crt_stdio_output@@@__crt_stdio_output@@IAE_NAA_J@Z 100460e0 f i libucrtd:output.obj
 0001:00045210       ??$extract_argument_from_va_list@_K_J@?$positional_parameter_base@DV?$string_output_adapter@D@__crt_stdio_output@@@__crt_stdio_output@@IAE_NAA_J@Z 10046210 f i libucrtd:output.obj
 0001:00045340       ??$extract_argument_from_va_list@_K_J@?$positional_parameter_base@_WV?$stream_output_adapter@_W@__crt_stdio_output@@@__crt_stdio_output@@IAE_NAA_J@Z 10046340 f i libucrtd:output.obj
 0001:00045470       ??$extract_argument_from_va_list@_K_J@?$positional_parameter_base@_WV?$string_output_adapter@_W@__crt_stdio_output@@@__crt_stdio_output@@IAE_NAA_J@Z 10046470 f i libucrtd:output.obj
 0001:000455a0       ??$extract_argument_from_va_list@_K_J@?$standard_base@DV?$stream_output_adapter@D@__crt_stdio_output@@@__crt_stdio_output@@IAE_NAA_J@Z 100465a0 f i libucrtd:output.obj
 0001:000455d0       ??$extract_argument_from_va_list@_K_J@?$standard_base@DV?$string_output_adapter@D@__crt_stdio_output@@@__crt_stdio_output@@IAE_NAA_J@Z 100465d0 f i libucrtd:output.obj
 0001:00045600       ??$extract_argument_from_va_list@_K_J@?$standard_base@_WV?$stream_output_adapter@_W@__crt_stdio_output@@@__crt_stdio_output@@IAE_NAA_J@Z 10046600 f i libucrtd:output.obj
 0001:00045630       ??$extract_argument_from_va_list@_K_J@?$standard_base@_WV?$string_output_adapter@_W@__crt_stdio_output@@@__crt_stdio_output@@IAE_NAA_J@Z 10046630 f i libucrtd:output.obj
 0001:00045660       ??$extract_argument_from_va_list@_W_W@?$positional_parameter_base@DV?$stream_output_adapter@D@__crt_stdio_output@@@__crt_stdio_output@@IAE_NAA_W@Z 10046660 f i libucrtd:output.obj
 0001:00045790       ??$extract_argument_from_va_list@_W_W@?$positional_parameter_base@DV?$string_output_adapter@D@__crt_stdio_output@@@__crt_stdio_output@@IAE_NAA_W@Z 10046790 f i libucrtd:output.obj
 0001:000458c0       ??$extract_argument_from_va_list@_W_W@?$positional_parameter_base@_WV?$stream_output_adapter@_W@__crt_stdio_output@@@__crt_stdio_output@@IAE_NAA_W@Z 100468c0 f i libucrtd:output.obj
 0001:000459f0       ??$extract_argument_from_va_list@_W_W@?$positional_parameter_base@_WV?$string_output_adapter@_W@__crt_stdio_output@@@__crt_stdio_output@@IAE_NAA_W@Z 100469f0 f i libucrtd:output.obj
 0001:00045b20       ??$extract_argument_from_va_list@_W_W@?$standard_base@DV?$stream_output_adapter@D@__crt_stdio_output@@@__crt_stdio_output@@IAE_NAA_W@Z 10046b20 f i libucrtd:output.obj
 0001:00045b50       ??$extract_argument_from_va_list@_W_W@?$standard_base@DV?$string_output_adapter@D@__crt_stdio_output@@@__crt_stdio_output@@IAE_NAA_W@Z 10046b50 f i libucrtd:output.obj
 0001:00045b80       ??$extract_argument_from_va_list@_W_W@?$standard_base@_WV?$stream_output_adapter@_W@__crt_stdio_output@@@__crt_stdio_output@@IAE_NAA_W@Z 10046b80 f i libucrtd:output.obj
 0001:00045bb0       ??$extract_argument_from_va_list@_W_W@?$standard_base@_WV?$string_output_adapter@_W@__crt_stdio_output@@@__crt_stdio_output@@IAE_NAA_W@Z 10046bb0 f i libucrtd:output.obj
 0001:00045be0       ??$get_parameter_type@D@?$positional_parameter_base@DV?$stream_output_adapter@D@__crt_stdio_output@@@__crt_stdio_output@@CA?AW4parameter_type@01@PAD@Z 10046be0 f i libucrtd:output.obj
 0001:00045bf0       ??$get_parameter_type@D@?$positional_parameter_base@DV?$string_output_adapter@D@__crt_stdio_output@@@__crt_stdio_output@@CA?AW4parameter_type@01@PAD@Z 10046bf0 f i libucrtd:output.obj
 0001:00045c00       ??$get_parameter_type@D@?$positional_parameter_base@_WV?$stream_output_adapter@_W@__crt_stdio_output@@@__crt_stdio_output@@CA?AW4parameter_type@01@PAD@Z 10046c00 f i libucrtd:output.obj
 0001:00045c10       ??$get_parameter_type@D@?$positional_parameter_base@_WV?$string_output_adapter@_W@__crt_stdio_output@@@__crt_stdio_output@@CA?AW4parameter_type@01@PAD@Z 10046c10 f i libucrtd:output.obj
 0001:00045c60       ??$get_parameter_type@X@?$positional_parameter_base@DV?$stream_output_adapter@D@__crt_stdio_output@@@__crt_stdio_output@@CA?AW4parameter_type@01@PAX@Z 10046c60 f i libucrtd:output.obj
 0001:00045c70       ??$get_parameter_type@X@?$positional_parameter_base@DV?$string_output_adapter@D@__crt_stdio_output@@@__crt_stdio_output@@CA?AW4parameter_type@01@PAX@Z 10046c70 f i libucrtd:output.obj
 0001:00045c80       ??$get_parameter_type@X@?$positional_parameter_base@_WV?$stream_output_adapter@_W@__crt_stdio_output@@@__crt_stdio_output@@CA?AW4parameter_type@01@PAX@Z 10046c80 f i libucrtd:output.obj
 0001:00045c90       ??$get_parameter_type@X@?$positional_parameter_base@_WV?$string_output_adapter@_W@__crt_stdio_output@@@__crt_stdio_output@@CA?AW4parameter_type@01@PAX@Z 10046c90 f i libucrtd:output.obj
 0001:00045ca0       ??$is_character_specifier@D@?$positional_parameter_base@DV?$stream_output_adapter@D@__crt_stdio_output@@@__crt_stdio_output@@CA_ND@Z 10046ca0 f i libucrtd:output.obj
 0001:00045cd0       ??$is_character_specifier@D@?$positional_parameter_base@DV?$string_output_adapter@D@__crt_stdio_output@@@__crt_stdio_output@@CA_ND@Z 10046cd0 f i libucrtd:output.obj
 0001:00045d00       ??$is_character_specifier@_W@?$positional_parameter_base@_WV?$stream_output_adapter@_W@__crt_stdio_output@@@__crt_stdio_output@@CA_N_W@Z 10046d00 f i libucrtd:output.obj
 0001:00045d30       ??$is_character_specifier@_W@?$positional_parameter_base@_WV?$string_output_adapter@_W@__crt_stdio_output@@@__crt_stdio_output@@CA_N_W@Z 10046d30 f i libucrtd:output.obj
 0001:00045d60       ??$is_integral_specifier@D@?$positional_parameter_base@DV?$stream_output_adapter@D@__crt_stdio_output@@@__crt_stdio_output@@CA_ND@Z 10046d60 f i libucrtd:output.obj
 0001:00045dc0       ??$is_integral_specifier@D@?$positional_parameter_base@DV?$string_output_adapter@D@__crt_stdio_output@@@__crt_stdio_output@@CA_ND@Z 10046dc0 f i libucrtd:output.obj
 0001:00045e20       ??$is_integral_specifier@_W@?$positional_parameter_base@_WV?$stream_output_adapter@_W@__crt_stdio_output@@@__crt_stdio_output@@CA_N_W@Z 10046e20 f i libucrtd:output.obj
 0001:00045e80       ??$is_integral_specifier@_W@?$positional_parameter_base@_WV?$string_output_adapter@_W@__crt_stdio_output@@@__crt_stdio_output@@CA_N_W@Z 10046e80 f i libucrtd:output.obj
 0001:00045ee0       ??$is_pointer_specifier@D@?$positional_parameter_base@DV?$stream_output_adapter@D@__crt_stdio_output@@@__crt_stdio_output@@CA_ND@Z 10046ee0 f i libucrtd:output.obj
 0001:00045f10       ??$is_pointer_specifier@D@?$positional_parameter_base@DV?$string_output_adapter@D@__crt_stdio_output@@@__crt_stdio_output@@CA_ND@Z 10046f10 f i libucrtd:output.obj
 0001:00045f40       ??$is_pointer_specifier@_W@?$positional_parameter_base@_WV?$stream_output_adapter@_W@__crt_stdio_output@@@__crt_stdio_output@@CA_N_W@Z 10046f40 f i libucrtd:output.obj
 0001:00045f70       ??$is_pointer_specifier@_W@?$positional_parameter_base@_WV?$string_output_adapter@_W@__crt_stdio_output@@@__crt_stdio_output@@CA_N_W@Z 10046f70 f i libucrtd:output.obj
 0001:00045fa0       ??$is_string_specifier@D@?$positional_parameter_base@DV?$stream_output_adapter@D@__crt_stdio_output@@@__crt_stdio_output@@CA_ND@Z 10046fa0 f i libucrtd:output.obj
 0001:00045fd0       ??$is_string_specifier@D@?$positional_parameter_base@DV?$string_output_adapter@D@__crt_stdio_output@@@__crt_stdio_output@@CA_ND@Z 10046fd0 f i libucrtd:output.obj
 0001:00046000       ??$is_string_specifier@_W@?$positional_parameter_base@_WV?$stream_output_adapter@_W@__crt_stdio_output@@@__crt_stdio_output@@CA_N_W@Z 10047000 f i libucrtd:output.obj
 0001:00046030       ??$is_string_specifier@_W@?$positional_parameter_base@_WV?$string_output_adapter@_W@__crt_stdio_output@@@__crt_stdio_output@@CA_N_W@Z 10047030 f i libucrtd:output.obj
 0001:00046060       ??$is_wide_character_specifier@D@__crt_stdio_output@@YA_N_KDW4length_modifier@0@@Z 10047060 f i libucrtd:output.obj
 0001:000460e0       ??$is_wide_character_specifier@_W@__crt_stdio_output@@YA_N_K_WW4length_modifier@0@@Z 100470e0 f i libucrtd:output.obj
 0001:000461a0       ??$peek_va_arg@C@__crt_stdio_output@@YACPAD@Z 100471a0 f i libucrtd:output.obj
 0001:000461c0       ??$peek_va_arg@E@__crt_stdio_output@@YAEPAD@Z 100471c0 f i libucrtd:output.obj
 0001:000461e0       ??$peek_va_arg@F@__crt_stdio_output@@YAFPAD@Z 100471e0 f i libucrtd:output.obj
 0001:00046200       ??$peek_va_arg@G@__crt_stdio_output@@YAGPAD@Z 10047200 f i libucrtd:output.obj
 0001:00046220       ??$peek_va_arg@H@__crt_stdio_output@@YAHPAD@Z 10047220 f i libucrtd:output.obj
 0001:00046240       ??$peek_va_arg@I@__crt_stdio_output@@YAIPAD@Z 10047240 f i libucrtd:output.obj
 0001:00046260       ??$peek_va_arg@PAD@__crt_stdio_output@@YAPADPAD@Z 10047260 f i libucrtd:output.obj
 0001:00046300       ??$peek_va_arg@PAX@__crt_stdio_output@@YAPAXPAD@Z 10047300 f i libucrtd:output.obj
 0001:00046320       ??$peek_va_arg@U_CRT_DOUBLE@@@__crt_stdio_output@@YA?AU_CRT_DOUBLE@@PAD@Z 10047320 f i libucrtd:output.obj
 0001:00046340       ??$peek_va_arg@_J@__crt_stdio_output@@YA_JPAD@Z 10047340 f i libucrtd:output.obj
 0001:00046360       ??$peek_va_arg@_K@__crt_stdio_output@@YA_KPAD@Z 10047360 f i libucrtd:output.obj
 0001:00046380       ??$peek_va_arg@_W@__crt_stdio_output@@YA_WPAD@Z 10047380 f i libucrtd:output.obj
 0001:000463a0       ??$puttc_nolock@ABDPAU_iobuf@@@?$__crt_char_traits@D@@SAHABD$$QAPAU_iobuf@@@Z 100473a0 f i libucrtd:output.obj
 0001:000463c0       ??$puttc_nolock@AB_WPAU_iobuf@@@?$__crt_char_traits@_W@@SAGAB_W$$QAPAU_iobuf@@@Z 100473c0 f i libucrtd:output.obj
 0001:000463e0       ??$read_va_arg@C@__crt_stdio_output@@YACAAPAD@Z 100473e0 f i libucrtd:output.obj
 0001:00046400       ??$read_va_arg@E@__crt_stdio_output@@YAEAAPAD@Z 10047400 f i libucrtd:output.obj
 0001:00046420       ??$read_va_arg@F@__crt_stdio_output@@YAFAAPAD@Z 10047420 f i libucrtd:output.obj
 0001:00046440       ??$read_va_arg@G@__crt_stdio_output@@YAGAAPAD@Z 10047440 f i libucrtd:output.obj
 0001:00046460       ??$read_va_arg@H@__crt_stdio_output@@YAHAAPAD@Z 10047460 f i libucrtd:output.obj
 0001:00046480       ??$read_va_arg@I@__crt_stdio_output@@YAIAAPAD@Z 10047480 f i libucrtd:output.obj
 0001:000464a0       ??$read_va_arg@PAD@__crt_stdio_output@@YAPADAAPAD@Z 100474a0 f i libucrtd:output.obj
 0001:00046640       ??$read_va_arg@PAX@__crt_stdio_output@@YAPAXAAPAD@Z 10047640 f i libucrtd:output.obj
 0001:00046660       ??$read_va_arg@U_CRT_DOUBLE@@@__crt_stdio_output@@YA?AU_CRT_DOUBLE@@AAPAD@Z 10047660 f i libucrtd:output.obj
 0001:00046680       ??$read_va_arg@_J@__crt_stdio_output@@YA_JAAPAD@Z 10047680 f i libucrtd:output.obj
 0001:000466a0       ??$read_va_arg@_K@__crt_stdio_output@@YA_KAAPAD@Z 100476a0 f i libucrtd:output.obj
 0001:000466c0       ??$read_va_arg@_W@__crt_stdio_output@@YA_WAAPAD@Z 100476c0 f i libucrtd:output.obj
 0001:000466e0       ??$scratch_count@D@formatting_buffer@__crt_stdio_output@@QBEIXZ 100476e0 f i libucrtd:output.obj
 0001:00046700       ??$scratch_data@D@formatting_buffer@__crt_stdio_output@@QAEPADXZ 10047700 f i libucrtd:output.obj
 0001:00046750       ??$tcstol@AAPBDPAPADH@?$__crt_char_traits@D@@SAJAAPBD$$QAPAPAD$$QAH@Z 10047750 f i libucrtd:output.obj
 0001:00046780       ??$tcstol@AAPB_WPAPA_WH@?$__crt_char_traits@_W@@SAJAAPB_W$$QAPAPA_W$$QAH@Z 10047780 f i libucrtd:output.obj
 0001:000467b0       ??$tcstol@PBDPAPADH@?$__crt_char_traits@D@@SAJ$$QAPBD$$QAPAPAD$$QAH@Z 100477b0 f i libucrtd:output.obj
 0001:000467e0       ??$tcstol@PB_WPAPA_WH@?$__crt_char_traits@_W@@SAJ$$QAPB_W$$QAPAPA_W$$QAH@Z 100477e0 f i libucrtd:output.obj
 0001:00046810       ??$type_case_integer_parse_into_buffer@I@?$output_processor@DV?$stream_output_adapter@D@__crt_stdio_output@@V?$format_validation_base@DV?$stream_output_adapter@D@__crt_stdio_output@@@2@@__crt_stdio_output@@AAEXII_N@Z 10047810 f i libucrtd:output.obj
 0001:000468e0       ??$type_case_integer_parse_into_buffer@I@?$output_processor@DV?$stream_output_adapter@D@__crt_stdio_output@@V?$positional_parameter_base@DV?$stream_output_adapter@D@__crt_stdio_output@@@2@@__crt_stdio_output@@AAEXII_N@Z 100478e0 f i libucrtd:output.obj
 0001:000469b0       ??$type_case_integer_parse_into_buffer@I@?$output_processor@DV?$stream_output_adapter@D@__crt_stdio_output@@V?$standard_base@DV?$stream_output_adapter@D@__crt_stdio_output@@@2@@__crt_stdio_output@@AAEXII_N@Z 100479b0 f i libucrtd:output.obj
 0001:00046a80       ??$type_case_integer_parse_into_buffer@I@?$output_processor@DV?$string_output_adapter@D@__crt_stdio_output@@V?$format_validation_base@DV?$string_output_adapter@D@__crt_stdio_output@@@2@@__crt_stdio_output@@AAEXII_N@Z 10047a80 f i libucrtd:output.obj
 0001:00046b50       ??$type_case_integer_parse_into_buffer@I@?$output_processor@DV?$string_output_adapter@D@__crt_stdio_output@@V?$positional_parameter_base@DV?$string_output_adapter@D@__crt_stdio_output@@@2@@__crt_stdio_output@@AAEXII_N@Z 10047b50 f i libucrtd:output.obj
 0001:00046c20       ??$type_case_integer_parse_into_buffer@I@?$output_processor@DV?$string_output_adapter@D@__crt_stdio_output@@V?$standard_base@DV?$string_output_adapter@D@__crt_stdio_output@@@2@@__crt_stdio_output@@AAEXII_N@Z 10047c20 f i libucrtd:output.obj
 0001:00046cf0       ??$type_case_integer_parse_into_buffer@I@?$output_processor@_WV?$stream_output_adapter@_W@__crt_stdio_output@@V?$format_validation_base@_WV?$stream_output_adapter@_W@__crt_stdio_output@@@2@@__crt_stdio_output@@AAEXII_N@Z 10047cf0 f i libucrtd:output.obj
 0001:00046dd0       ??$type_case_integer_parse_into_buffer@I@?$output_processor@_WV?$stream_output_adapter@_W@__crt_stdio_output@@V?$positional_parameter_base@_WV?$stream_output_adapter@_W@__crt_stdio_output@@@2@@__crt_stdio_output@@AAEXII_N@Z 10047dd0 f i libucrtd:output.obj
 0001:00046eb0       ??$type_case_integer_parse_into_buffer@I@?$output_processor@_WV?$stream_output_adapter@_W@__crt_stdio_output@@V?$standard_base@_WV?$stream_output_adapter@_W@__crt_stdio_output@@@2@@__crt_stdio_output@@AAEXII_N@Z 10047eb0 f i libucrtd:output.obj
 0001:00046f90       ??$type_case_integer_parse_into_buffer@I@?$output_processor@_WV?$string_output_adapter@_W@__crt_stdio_output@@V?$format_validation_base@_WV?$string_output_adapter@_W@__crt_stdio_output@@@2@@__crt_stdio_output@@AAEXII_N@Z 10047f90 f i libucrtd:output.obj
 0001:00047070       ??$type_case_integer_parse_into_buffer@I@?$output_processor@_WV?$string_output_adapter@_W@__crt_stdio_output@@V?$positional_parameter_base@_WV?$string_output_adapter@_W@__crt_stdio_output@@@2@@__crt_stdio_output@@AAEXII_N@Z 10048070 f i libucrtd:output.obj
 0001:00047150       ??$type_case_integer_parse_into_buffer@I@?$output_processor@_WV?$string_output_adapter@_W@__crt_stdio_output@@V?$standard_base@_WV?$string_output_adapter@_W@__crt_stdio_output@@@2@@__crt_stdio_output@@AAEXII_N@Z 10048150 f i libucrtd:output.obj
 0001:00047230       ??$type_case_integer_parse_into_buffer@_K@?$output_processor@DV?$stream_output_adapter@D@__crt_stdio_output@@V?$format_validation_base@DV?$stream_output_adapter@D@__crt_stdio_output@@@2@@__crt_stdio_output@@AAEX_KI_N@Z 10048230 f i libucrtd:output.obj
 0001:00047320       ??$type_case_integer_parse_into_buffer@_K@?$output_processor@DV?$stream_output_adapter@D@__crt_stdio_output@@V?$positional_parameter_base@DV?$stream_output_adapter@D@__crt_stdio_output@@@2@@__crt_stdio_output@@AAEX_KI_N@Z 10048320 f i libucrtd:output.obj
 0001:00047410       ??$type_case_integer_parse_into_buffer@_K@?$output_processor@DV?$stream_output_adapter@D@__crt_stdio_output@@V?$standard_base@DV?$stream_output_adapter@D@__crt_stdio_output@@@2@@__crt_stdio_output@@AAEX_KI_N@Z 10048410 f i libucrtd:output.obj
 0001:00047500       ??$type_case_integer_parse_into_buffer@_K@?$output_processor@DV?$string_output_adapter@D@__crt_stdio_output@@V?$format_validation_base@DV?$string_output_adapter@D@__crt_stdio_output@@@2@@__crt_stdio_output@@AAEX_KI_N@Z 10048500 f i libucrtd:output.obj
 0001:000475f0       ??$type_case_integer_parse_into_buffer@_K@?$output_processor@DV?$string_output_adapter@D@__crt_stdio_output@@V?$positional_parameter_base@DV?$string_output_adapter@D@__crt_stdio_output@@@2@@__crt_stdio_output@@AAEX_KI_N@Z 100485f0 f i libucrtd:output.obj
 0001:000476e0       ??$type_case_integer_parse_into_buffer@_K@?$output_processor@DV?$string_output_adapter@D@__crt_stdio_output@@V?$standard_base@DV?$string_output_adapter@D@__crt_stdio_output@@@2@@__crt_stdio_output@@AAEX_KI_N@Z 100486e0 f i libucrtd:output.obj
 0001:000477d0       ??$type_case_integer_parse_into_buffer@_K@?$output_processor@_WV?$stream_output_adapter@_W@__crt_stdio_output@@V?$format_validation_base@_WV?$stream_output_adapter@_W@__crt_stdio_output@@@2@@__crt_stdio_output@@AAEX_KI_N@Z 100487d0 f i libucrtd:output.obj
 0001:000478d0       ??$type_case_integer_parse_into_buffer@_K@?$output_processor@_WV?$stream_output_adapter@_W@__crt_stdio_output@@V?$positional_parameter_base@_WV?$stream_output_adapter@_W@__crt_stdio_output@@@2@@__crt_stdio_output@@AAEX_KI_N@Z 100488d0 f i libucrtd:output.obj
 0001:000479d0       ??$type_case_integer_parse_into_buffer@_K@?$output_processor@_WV?$stream_output_adapter@_W@__crt_stdio_output@@V?$standard_base@_WV?$stream_output_adapter@_W@__crt_stdio_output@@@2@@__crt_stdio_output@@AAEX_KI_N@Z 100489d0 f i libucrtd:output.obj
 0001:00047ad0       ??$type_case_integer_parse_into_buffer@_K@?$output_processor@_WV?$string_output_adapter@_W@__crt_stdio_output@@V?$format_validation_base@_WV?$string_output_adapter@_W@__crt_stdio_output@@@2@@__crt_stdio_output@@AAEX_KI_N@Z 10048ad0 f i libucrtd:output.obj
 0001:00047bd0       ??$type_case_integer_parse_into_buffer@_K@?$output_processor@_WV?$string_output_adapter@_W@__crt_stdio_output@@V?$positional_parameter_base@_WV?$string_output_adapter@_W@__crt_stdio_output@@@2@@__crt_stdio_output@@AAEX_KI_N@Z 10048bd0 f i libucrtd:output.obj
 0001:00047cd0       ??$type_case_integer_parse_into_buffer@_K@?$output_processor@_WV?$string_output_adapter@_W@__crt_stdio_output@@V?$standard_base@_WV?$string_output_adapter@_W@__crt_stdio_output@@@2@@__crt_stdio_output@@AAEX_KI_N@Z 10048cd0 f i libucrtd:output.obj
 0001:00047dd0       ??$write_multiple_characters@V?$stream_output_adapter@D@__crt_stdio_output@@D@__crt_stdio_output@@YAXABV?$stream_output_adapter@D@0@DHQAH@Z 10048dd0 f i libucrtd:output.obj
 0001:00047e20       ??$write_multiple_characters@V?$stream_output_adapter@_W@__crt_stdio_output@@D@__crt_stdio_output@@YAXABV?$stream_output_adapter@_W@0@DHQAH@Z 10048e20 f i libucrtd:output.obj
 0001:00047e70       ??$write_multiple_characters@V?$string_output_adapter@D@__crt_stdio_output@@D@__crt_stdio_output@@YAXABV?$string_output_adapter@D@0@DHQAH@Z 10048e70 f i libucrtd:output.obj
 0001:00047ec0       ??$write_multiple_characters@V?$string_output_adapter@_W@__crt_stdio_output@@D@__crt_stdio_output@@YAXABV?$string_output_adapter@_W@0@DHQAH@Z 10048ec0 f i libucrtd:output.obj
 0001:00048210       ??0?$common_data@D@__crt_stdio_output@@IAE@XZ 10049210 f i libucrtd:output.obj
 0001:000482c0       ??0?$common_data@_W@__crt_stdio_output@@IAE@XZ 100492c0 f i libucrtd:output.obj
 0001:00048370       ??0?$output_adapter_data@DV?$stream_output_adapter@D@__crt_stdio_output@@@__crt_stdio_output@@IAE@ABV?$stream_output_adapter@D@1@_KQBDQAU__crt_locale_pointers@@QAD@Z 10049370 f i libucrtd:output.obj
 0001:000483d0       ??0?$output_adapter_data@DV?$string_output_adapter@D@__crt_stdio_output@@@__crt_stdio_output@@IAE@ABV?$string_output_adapter@D@1@_KQBDQAU__crt_locale_pointers@@QAD@Z 100493d0 f i libucrtd:output.obj
 0001:00048430       ??0?$output_adapter_data@_WV?$stream_output_adapter@_W@__crt_stdio_output@@@__crt_stdio_output@@IAE@ABV?$stream_output_adapter@_W@1@_KQB_WQAU__crt_locale_pointers@@QAD@Z 10049430 f i libucrtd:output.obj
 0001:00048490       ??0?$output_adapter_data@_WV?$string_output_adapter@_W@__crt_stdio_output@@@__crt_stdio_output@@IAE@ABV?$string_output_adapter@_W@1@_KQB_WQAU__crt_locale_pointers@@QAD@Z 10049490 f i libucrtd:output.obj
 0001:000484f0       ??0?$output_processor@DV?$stream_output_adapter@D@__crt_stdio_output@@V?$format_validation_base@DV?$stream_output_adapter@D@__crt_stdio_output@@@2@@__crt_stdio_output@@QAE@ABV?$stream_output_adapter@D@1@_KQBDQAU__crt_locale_pointers@@QAD@Z 100494f0 f i libucrtd:output.obj
 0001:00048520       ??0?$output_processor@DV?$stream_output_adapter@D@__crt_stdio_output@@V?$positional_parameter_base@DV?$stream_output_adapter@D@__crt_stdio_output@@@2@@__crt_stdio_output@@QAE@ABV?$stream_output_adapter@D@1@_KQBDQAU__crt_locale_pointers@@QAD@Z 10049520 f i libucrtd:output.obj
 0001:00048550       ??0?$output_processor@DV?$stream_output_adapter@D@__crt_stdio_output@@V?$standard_base@DV?$stream_output_adapter@D@__crt_stdio_output@@@2@@__crt_stdio_output@@QAE@ABV?$stream_output_adapter@D@1@_KQBDQAU__crt_locale_pointers@@QAD@Z 10049550 f i libucrtd:output.obj
 0001:00048580       ??0?$output_processor@DV?$string_output_adapter@D@__crt_stdio_output@@V?$format_validation_base@DV?$string_output_adapter@D@__crt_stdio_output@@@2@@__crt_stdio_output@@QAE@ABV?$string_output_adapter@D@1@_KQBDQAU__crt_locale_pointers@@QAD@Z 10049580 f i libucrtd:output.obj
 0001:000485b0       ??0?$output_processor@DV?$string_output_adapter@D@__crt_stdio_output@@V?$positional_parameter_base@DV?$string_output_adapter@D@__crt_stdio_output@@@2@@__crt_stdio_output@@QAE@ABV?$string_output_adapter@D@1@_KQBDQAU__crt_locale_pointers@@QAD@Z 100495b0 f i libucrtd:output.obj
 0001:000485e0       ??0?$output_processor@DV?$string_output_adapter@D@__crt_stdio_output@@V?$standard_base@DV?$string_output_adapter@D@__crt_stdio_output@@@2@@__crt_stdio_output@@QAE@ABV?$string_output_adapter@D@1@_KQBDQAU__crt_locale_pointers@@QAD@Z 100495e0 f i libucrtd:output.obj
 0001:00048610       ??0?$output_processor@_WV?$stream_output_adapter@_W@__crt_stdio_output@@V?$format_validation_base@_WV?$stream_output_adapter@_W@__crt_stdio_output@@@2@@__crt_stdio_output@@QAE@ABV?$stream_output_adapter@_W@1@_KQB_WQAU__crt_locale_pointers@@QAD@Z 10049610 f i libucrtd:output.obj
 0001:00048640       ??0?$output_processor@_WV?$stream_output_adapter@_W@__crt_stdio_output@@V?$positional_parameter_base@_WV?$stream_output_adapter@_W@__crt_stdio_output@@@2@@__crt_stdio_output@@QAE@ABV?$stream_output_adapter@_W@1@_KQB_WQAU__crt_locale_pointers@@QAD@Z 10049640 f i libucrtd:output.obj
 0001:00048670       ??0?$output_processor@_WV?$stream_output_adapter@_W@__crt_stdio_output@@V?$standard_base@_WV?$stream_output_adapter@_W@__crt_stdio_output@@@2@@__crt_stdio_output@@QAE@ABV?$stream_output_adapter@_W@1@_KQB_WQAU__crt_locale_pointers@@QAD@Z 10049670 f i libucrtd:output.obj
 0001:000486a0       ??0?$output_processor@_WV?$string_output_adapter@_W@__crt_stdio_output@@V?$format_validation_base@_WV?$string_output_adapter@_W@__crt_stdio_output@@@2@@__crt_stdio_output@@QAE@ABV?$string_output_adapter@_W@1@_KQB_WQAU__crt_locale_pointers@@QAD@Z 100496a0 f i libucrtd:output.obj
 0001:000486d0       ??0?$output_processor@_WV?$string_output_adapter@_W@__crt_stdio_output@@V?$positional_parameter_base@_WV?$string_output_adapter@_W@__crt_stdio_output@@@2@@__crt_stdio_output@@QAE@ABV?$string_output_adapter@_W@1@_KQB_WQAU__crt_locale_pointers@@QAD@Z 100496d0 f i libucrtd:output.obj
 0001:00048700       ??0?$output_processor@_WV?$string_output_adapter@_W@__crt_stdio_output@@V?$standard_base@_WV?$string_output_adapter@_W@__crt_stdio_output@@@2@@__crt_stdio_output@@QAE@ABV?$string_output_adapter@_W@1@_KQB_WQAU__crt_locale_pointers@@QAD@Z 10049700 f i libucrtd:output.obj
 0001:00048730       ??0?$stream_output_adapter@D@__crt_stdio_output@@QAE@QAU_iobuf@@@Z 10049730 f i libucrtd:output.obj
 0001:00048750       ??0?$stream_output_adapter@_W@__crt_stdio_output@@QAE@QAU_iobuf@@@Z 10049750 f i libucrtd:output.obj
 0001:00048770       ??0?$string_output_adapter@D@__crt_stdio_output@@QAE@QAU?$string_output_adapter_context@D@1@@Z 10049770 f i libucrtd:output.obj
 0001:00048790       ??0?$string_output_adapter@_W@__crt_stdio_output@@QAE@QAU?$string_output_adapter_context@_W@1@@Z 10049790 f i libucrtd:output.obj
 0001:000487b0       ??0_LocaleUpdate@@QAE@QAU__crt_locale_pointers@@@Z 100497b0 f i libucrtd:output.obj
 0001:00048890       ??0__acrt_stdio_temporary_buffering_guard@@QAE@QAU_iobuf@@@Z 10049890 f i libucrtd:output.obj
 0001:000488c0       ??0__crt_deferred_errno_cache@@QAE@XZ 100498c0 f i libucrtd:output.obj
 0001:000488e0       ??0__crt_errno_guard@@QAE@QAH@Z 100498e0 f i libucrtd:output.obj
 0001:00048910       ??0__crt_stdio_stream@@QAE@QAU_iobuf@@@Z 10049910 f i libucrtd:output.obj
 0001:00048930       ??0formatting_buffer@__crt_stdio_output@@QAE@XZ 10049930 f i libucrtd:output.obj
 0001:00048960       ??1?$common_data@D@__crt_stdio_output@@QAE@XZ 10049960 f i libucrtd:output.obj
 0001:00048980       ??1?$common_data@_W@__crt_stdio_output@@QAE@XZ 10049980 f i libucrtd:output.obj
 0001:000489a0       ??1?$format_validation_base@DV?$stream_output_adapter@D@__crt_stdio_output@@@__crt_stdio_output@@QAE@XZ 100499a0 f i libucrtd:output.obj
 0001:000489c0       ??1?$format_validation_base@DV?$string_output_adapter@D@__crt_stdio_output@@@__crt_stdio_output@@QAE@XZ 100499c0 f i libucrtd:output.obj
 0001:000489e0       ??1?$format_validation_base@_WV?$stream_output_adapter@_W@__crt_stdio_output@@@__crt_stdio_output@@QAE@XZ 100499e0 f i libucrtd:output.obj
 0001:00048a00       ??1?$format_validation_base@_WV?$string_output_adapter@_W@__crt_stdio_output@@@__crt_stdio_output@@QAE@XZ 10049a00 f i libucrtd:output.obj
 0001:00048a20       ??1?$output_adapter_data@DV?$stream_output_adapter@D@__crt_stdio_output@@@__crt_stdio_output@@QAE@XZ 10049a20 f i libucrtd:output.obj
 0001:00048a40       ??1?$output_adapter_data@DV?$string_output_adapter@D@__crt_stdio_output@@@__crt_stdio_output@@QAE@XZ 10049a40 f i libucrtd:output.obj
 0001:00048a60       ??1?$output_adapter_data@_WV?$stream_output_adapter@_W@__crt_stdio_output@@@__crt_stdio_output@@QAE@XZ 10049a60 f i libucrtd:output.obj
 0001:00048a80       ??1?$output_adapter_data@_WV?$string_output_adapter@_W@__crt_stdio_output@@@__crt_stdio_output@@QAE@XZ 10049a80 f i libucrtd:output.obj
 0001:00048aa0       ??1?$output_processor@DV?$stream_output_adapter@D@__crt_stdio_output@@V?$format_validation_base@DV?$stream_output_adapter@D@__crt_stdio_output@@@2@@__crt_stdio_output@@QAE@XZ 10049aa0 f i libucrtd:output.obj
 0001:00048ac0       ??1?$output_processor@DV?$stream_output_adapter@D@__crt_stdio_output@@V?$positional_parameter_base@DV?$stream_output_adapter@D@__crt_stdio_output@@@2@@__crt_stdio_output@@QAE@XZ 10049ac0 f i libucrtd:output.obj
 0001:00048ae0       ??1?$output_processor@DV?$stream_output_adapter@D@__crt_stdio_output@@V?$standard_base@DV?$stream_output_adapter@D@__crt_stdio_output@@@2@@__crt_stdio_output@@QAE@XZ 10049ae0 f i libucrtd:output.obj
 0001:00048b00       ??1?$output_processor@DV?$string_output_adapter@D@__crt_stdio_output@@V?$format_validation_base@DV?$string_output_adapter@D@__crt_stdio_output@@@2@@__crt_stdio_output@@QAE@XZ 10049b00 f i libucrtd:output.obj
 0001:00048b20       ??1?$output_processor@DV?$string_output_adapter@D@__crt_stdio_output@@V?$positional_parameter_base@DV?$string_output_adapter@D@__crt_stdio_output@@@2@@__crt_stdio_output@@QAE@XZ 10049b20 f i libucrtd:output.obj
 0001:00048b40       ??1?$output_processor@DV?$string_output_adapter@D@__crt_stdio_output@@V?$standard_base@DV?$string_output_adapter@D@__crt_stdio_output@@@2@@__crt_stdio_output@@QAE@XZ 10049b40 f i libucrtd:output.obj
 0001:00048b60       ??1?$output_processor@_WV?$stream_output_adapter@_W@__crt_stdio_output@@V?$format_validation_base@_WV?$stream_output_adapter@_W@__crt_stdio_output@@@2@@__crt_stdio_output@@QAE@XZ 10049b60 f i libucrtd:output.obj
 0001:00048b80       ??1?$output_processor@_WV?$stream_output_adapter@_W@__crt_stdio_output@@V?$positional_parameter_base@_WV?$stream_output_adapter@_W@__crt_stdio_output@@@2@@__crt_stdio_output@@QAE@XZ 10049b80 f i libucrtd:output.obj
 0001:00048ba0       ??1?$output_processor@_WV?$stream_output_adapter@_W@__crt_stdio_output@@V?$standard_base@_WV?$stream_output_adapter@_W@__crt_stdio_output@@@2@@__crt_stdio_output@@QAE@XZ 10049ba0 f i libucrtd:output.obj
 0001:00048bc0       ??1?$output_processor@_WV?$string_output_adapter@_W@__crt_stdio_output@@V?$format_validation_base@_WV?$string_output_adapter@_W@__crt_stdio_output@@@2@@__crt_stdio_output@@QAE@XZ 10049bc0 f i libucrtd:output.obj
 0001:00048be0       ??1?$output_processor@_WV?$string_output_adapter@_W@__crt_stdio_output@@V?$positional_parameter_base@_WV?$string_output_adapter@_W@__crt_stdio_output@@@2@@__crt_stdio_output@@QAE@XZ 10049be0 f i libucrtd:output.obj
 0001:00048c00       ??1?$output_processor@_WV?$string_output_adapter@_W@__crt_stdio_output@@V?$standard_base@_WV?$string_output_adapter@_W@__crt_stdio_output@@@2@@__crt_stdio_output@@QAE@XZ 10049c00 f i libucrtd:output.obj
 0001:00048c20       ??1?$positional_parameter_base@DV?$stream_output_adapter@D@__crt_stdio_output@@@__crt_stdio_output@@QAE@XZ 10049c20 f i libucrtd:output.obj
 0001:00048c40       ??1?$positional_parameter_base@DV?$string_output_adapter@D@__crt_stdio_output@@@__crt_stdio_output@@QAE@XZ 10049c40 f i libucrtd:output.obj
 0001:00048c60       ??1?$positional_parameter_base@_WV?$stream_output_adapter@_W@__crt_stdio_output@@@__crt_stdio_output@@QAE@XZ 10049c60 f i libucrtd:output.obj
 0001:00048c80       ??1?$positional_parameter_base@_WV?$string_output_adapter@_W@__crt_stdio_output@@@__crt_stdio_output@@QAE@XZ 10049c80 f i libucrtd:output.obj
 0001:00048ca0       ??1?$standard_base@DV?$stream_output_adapter@D@__crt_stdio_output@@@__crt_stdio_output@@QAE@XZ 10049ca0 f i libucrtd:output.obj
 0001:00048cc0       ??1?$standard_base@DV?$string_output_adapter@D@__crt_stdio_output@@@__crt_stdio_output@@QAE@XZ 10049cc0 f i libucrtd:output.obj
 0001:00048ce0       ??1?$standard_base@_WV?$stream_output_adapter@_W@__crt_stdio_output@@@__crt_stdio_output@@QAE@XZ 10049ce0 f i libucrtd:output.obj
 0001:00048d00       ??1?$standard_base@_WV?$string_output_adapter@_W@__crt_stdio_output@@@__crt_stdio_output@@QAE@XZ 10049d00 f i libucrtd:output.obj
 0001:00048d20       ??1_LocaleUpdate@@QAE@XZ   10049d20 f i libucrtd:output.obj
 0001:00048d60       ??1__acrt_stdio_temporary_buffering_guard@@QAE@XZ 10049d60 f i libucrtd:output.obj
 0001:00048d90       ??1__crt_errno_guard@@QAE@XZ 10049d90 f i libucrtd:output.obj
 0001:00048dc0       ??1formatting_buffer@__crt_stdio_output@@QAE@XZ 10049dc0 f i libucrtd:output.obj
 0001:00048de0       ??4?$__crt_unique_heap_ptr@DU__crt_internal_free_policy@@@@QAEAAV0@$$QAV0@@Z 10049de0 f i libucrtd:output.obj
 0001:00048e10       ??C__crt_stdio_stream@@QBEPAU__crt_stdio_stream_data@@XZ 10049e10 f i libucrtd:output.obj
 0001:00049550       ?GetLocaleT@_LocaleUpdate@@QAEPAU__crt_locale_pointers@@XZ 1004a550 f i libucrtd:output.obj
 0001:00049570       ?adjust_hexit@?$output_processor@DV?$stream_output_adapter@D@__crt_stdio_output@@V?$format_validation_base@DV?$stream_output_adapter@D@__crt_stdio_output@@@2@@__crt_stdio_output@@CADH_N@Z 1004a570 f i libucrtd:output.obj
 0001:000495b0       ?adjust_hexit@?$output_processor@DV?$stream_output_adapter@D@__crt_stdio_output@@V?$positional_parameter_base@DV?$stream_output_adapter@D@__crt_stdio_output@@@2@@__crt_stdio_output@@CADH_N@Z 1004a5b0 f i libucrtd:output.obj
 0001:000495f0       ?adjust_hexit@?$output_processor@DV?$stream_output_adapter@D@__crt_stdio_output@@V?$standard_base@DV?$stream_output_adapter@D@__crt_stdio_output@@@2@@__crt_stdio_output@@CADH_N@Z 1004a5f0 f i libucrtd:output.obj
 0001:00049630       ?adjust_hexit@?$output_processor@DV?$string_output_adapter@D@__crt_stdio_output@@V?$format_validation_base@DV?$string_output_adapter@D@__crt_stdio_output@@@2@@__crt_stdio_output@@CADH_N@Z 1004a630 f i libucrtd:output.obj
 0001:00049670       ?adjust_hexit@?$output_processor@DV?$string_output_adapter@D@__crt_stdio_output@@V?$positional_parameter_base@DV?$string_output_adapter@D@__crt_stdio_output@@@2@@__crt_stdio_output@@CADH_N@Z 1004a670 f i libucrtd:output.obj
 0001:000496b0       ?adjust_hexit@?$output_processor@DV?$string_output_adapter@D@__crt_stdio_output@@V?$standard_base@DV?$string_output_adapter@D@__crt_stdio_output@@@2@@__crt_stdio_output@@CADH_N@Z 1004a6b0 f i libucrtd:output.obj
 0001:000496f0       ?adjust_hexit@?$output_processor@_WV?$stream_output_adapter@_W@__crt_stdio_output@@V?$format_validation_base@_WV?$stream_output_adapter@_W@__crt_stdio_output@@@2@@__crt_stdio_output@@CADH_N@Z 1004a6f0 f i libucrtd:output.obj
 0001:00049730       ?adjust_hexit@?$output_processor@_WV?$stream_output_adapter@_W@__crt_stdio_output@@V?$positional_parameter_base@_WV?$stream_output_adapter@_W@__crt_stdio_output@@@2@@__crt_stdio_output@@CADH_N@Z 1004a730 f i libucrtd:output.obj
 0001:00049770       ?adjust_hexit@?$output_processor@_WV?$stream_output_adapter@_W@__crt_stdio_output@@V?$standard_base@_WV?$stream_output_adapter@_W@__crt_stdio_output@@@2@@__crt_stdio_output@@CADH_N@Z 1004a770 f i libucrtd:output.obj
 0001:000497b0       ?adjust_hexit@?$output_processor@_WV?$string_output_adapter@_W@__crt_stdio_output@@V?$format_validation_base@_WV?$string_output_adapter@_W@__crt_stdio_output@@@2@@__crt_stdio_output@@CADH_N@Z 1004a7b0 f i libucrtd:output.obj
 0001:000497f0       ?adjust_hexit@?$output_processor@_WV?$string_output_adapter@_W@__crt_stdio_output@@V?$positional_parameter_base@_WV?$string_output_adapter@_W@__crt_stdio_output@@@2@@__crt_stdio_output@@CADH_N@Z 1004a7f0 f i libucrtd:output.obj
 0001:00049830       ?adjust_hexit@?$output_processor@_WV?$string_output_adapter@_W@__crt_stdio_output@@V?$standard_base@_WV?$string_output_adapter@_W@__crt_stdio_output@@@2@@__crt_stdio_output@@CADH_N@Z 1004a830 f i libucrtd:output.obj
 0001:00049870       ?advance_to_next_pass@?$positional_parameter_base@DV?$stream_output_adapter@D@__crt_stdio_output@@@__crt_stdio_output@@IAE_NXZ 1004a870 f i libucrtd:output.obj
 0001:00049910       ?advance_to_next_pass@?$positional_parameter_base@DV?$string_output_adapter@D@__crt_stdio_output@@@__crt_stdio_output@@IAE_NXZ 1004a910 f i libucrtd:output.obj
 0001:000499b0       ?advance_to_next_pass@?$positional_parameter_base@_WV?$stream_output_adapter@_W@__crt_stdio_output@@@__crt_stdio_output@@IAE_NXZ 1004a9b0 f i libucrtd:output.obj
 0001:00049a50       ?advance_to_next_pass@?$positional_parameter_base@_WV?$string_output_adapter@_W@__crt_stdio_output@@@__crt_stdio_output@@IAE_NXZ 1004aa50 f i libucrtd:output.obj
 0001:00049af0       ?advance_to_next_pass@?$standard_base@DV?$stream_output_adapter@D@__crt_stdio_output@@@__crt_stdio_output@@IAE_NXZ 1004aaf0 f i libucrtd:output.obj
 0001:00049b40       ?advance_to_next_pass@?$standard_base@DV?$string_output_adapter@D@__crt_stdio_output@@@__crt_stdio_output@@IAE_NXZ 1004ab40 f i libucrtd:output.obj
 0001:00049b90       ?advance_to_next_pass@?$standard_base@_WV?$stream_output_adapter@_W@__crt_stdio_output@@@__crt_stdio_output@@IAE_NXZ 1004ab90 f i libucrtd:output.obj
 0001:00049be0       ?advance_to_next_pass@?$standard_base@_WV?$string_output_adapter@_W@__crt_stdio_output@@@__crt_stdio_output@@IAE_NXZ 1004abe0 f i libucrtd:output.obj
 0001:00049c30       ?crop_zeroes@__crt_stdio_output@@YAXPADQAU__crt_locale_pointers@@@Z 1004ac30 f i libucrtd:output.obj
 0001:00049d30       ?find_next_state@?$output_processor@DV?$stream_output_adapter@D@__crt_stdio_output@@V?$format_validation_base@DV?$stream_output_adapter@D@__crt_stdio_output@@@2@@__crt_stdio_output@@ABE?AW4state@2@DW432@@Z 1004ad30 f i libucrtd:output.obj
 0001:00049db0       ?find_next_state@?$output_processor@DV?$stream_output_adapter@D@__crt_stdio_output@@V?$positional_parameter_base@DV?$stream_output_adapter@D@__crt_stdio_output@@@2@@__crt_stdio_output@@ABE?AW4state@2@DW432@@Z 1004adb0 f i libucrtd:output.obj
 0001:00049e30       ?find_next_state@?$output_processor@DV?$stream_output_adapter@D@__crt_stdio_output@@V?$standard_base@DV?$stream_output_adapter@D@__crt_stdio_output@@@2@@__crt_stdio_output@@ABE?AW4state@2@DW432@@Z 1004ae30 f i libucrtd:output.obj
 0001:00049eb0       ?find_next_state@?$output_processor@DV?$string_output_adapter@D@__crt_stdio_output@@V?$format_validation_base@DV?$string_output_adapter@D@__crt_stdio_output@@@2@@__crt_stdio_output@@ABE?AW4state@2@DW432@@Z 1004aeb0 f i libucrtd:output.obj
 0001:00049f30       ?find_next_state@?$output_processor@DV?$string_output_adapter@D@__crt_stdio_output@@V?$positional_parameter_base@DV?$string_output_adapter@D@__crt_stdio_output@@@2@@__crt_stdio_output@@ABE?AW4state@2@DW432@@Z 1004af30 f i libucrtd:output.obj
 0001:00049fb0       ?find_next_state@?$output_processor@DV?$string_output_adapter@D@__crt_stdio_output@@V?$standard_base@DV?$string_output_adapter@D@__crt_stdio_output@@@2@@__crt_stdio_output@@ABE?AW4state@2@DW432@@Z 1004afb0 f i libucrtd:output.obj
 0001:0004a030       ?find_next_state@?$output_processor@_WV?$stream_output_adapter@_W@__crt_stdio_output@@V?$format_validation_base@_WV?$stream_output_adapter@_W@__crt_stdio_output@@@2@@__crt_stdio_output@@ABE?AW4state@2@_WW432@@Z 1004b030 f i libucrtd:output.obj
 0001:0004a0b0       ?find_next_state@?$output_processor@_WV?$stream_output_adapter@_W@__crt_stdio_output@@V?$positional_parameter_base@_WV?$stream_output_adapter@_W@__crt_stdio_output@@@2@@__crt_stdio_output@@ABE?AW4state@2@_WW432@@Z 1004b0b0 f i libucrtd:output.obj
 0001:0004a130       ?find_next_state@?$output_processor@_WV?$stream_output_adapter@_W@__crt_stdio_output@@V?$standard_base@_WV?$stream_output_adapter@_W@__crt_stdio_output@@@2@@__crt_stdio_output@@ABE?AW4state@2@_WW432@@Z 1004b130 f i libucrtd:output.obj
 0001:0004a1b0       ?find_next_state@?$output_processor@_WV?$string_output_adapter@_W@__crt_stdio_output@@V?$format_validation_base@_WV?$string_output_adapter@_W@__crt_stdio_output@@@2@@__crt_stdio_output@@ABE?AW4state@2@_WW432@@Z 1004b1b0 f i libucrtd:output.obj
 0001:0004a230       ?find_next_state@?$output_processor@_WV?$string_output_adapter@_W@__crt_stdio_output@@V?$positional_parameter_base@_WV?$string_output_adapter@_W@__crt_stdio_output@@@2@@__crt_stdio_output@@ABE?AW4state@2@_WW432@@Z 1004b230 f i libucrtd:output.obj
 0001:0004a2b0       ?find_next_state@?$output_processor@_WV?$string_output_adapter@_W@__crt_stdio_output@@V?$standard_base@_WV?$string_output_adapter@_W@__crt_stdio_output@@@2@@__crt_stdio_output@@ABE?AW4state@2@_WW432@@Z 1004b2b0 f i libucrtd:output.obj
 0001:0004a330       ?force_decimal_point@__crt_stdio_output@@YAXPADQAU__crt_locale_pointers@@@Z 1004b330 f i libucrtd:output.obj
 0001:0004a400       ?get@__crt_deferred_errno_cache@@QAEAAHXZ 1004b400 f i libucrtd:output.obj
 0001:0004a430       ?get_flags@__crt_stdio_stream@@QBEJXZ 1004b430 f i libucrtd:output.obj
 0001:0004a450       ?get_parameter_type@?$positional_parameter_base@DV?$stream_output_adapter@D@__crt_stdio_output@@@__crt_stdio_output@@CA?AW4parameter_type@12@F@Z 1004b450 f i libucrtd:output.obj
 0001:0004a460       ?get_parameter_type@?$positional_parameter_base@DV?$stream_output_adapter@D@__crt_stdio_output@@@__crt_stdio_output@@CA?AW4parameter_type@12@G@Z 1004b460 f i libucrtd:output.obj
 0001:0004a470       ?get_parameter_type@?$positional_parameter_base@DV?$stream_output_adapter@D@__crt_stdio_output@@@__crt_stdio_output@@CA?AW4parameter_type@12@H@Z 1004b470 f i libucrtd:output.obj
 0001:0004a480       ?get_parameter_type@?$positional_parameter_base@DV?$stream_output_adapter@D@__crt_stdio_output@@@__crt_stdio_output@@CA?AW4parameter_type@12@I@Z 1004b480 f i libucrtd:output.obj
 0001:0004a490       ?get_parameter_type@?$positional_parameter_base@DV?$stream_output_adapter@D@__crt_stdio_output@@@__crt_stdio_output@@CA?AW4parameter_type@12@U_CRT_DOUBLE@@@Z 1004b490 f i libucrtd:output.obj
 0001:0004a4a0       ?get_parameter_type@?$positional_parameter_base@DV?$stream_output_adapter@D@__crt_stdio_output@@@__crt_stdio_output@@CA?AW4parameter_type@12@_J@Z 1004b4a0 f i libucrtd:output.obj
 0001:0004a4b0       ?get_parameter_type@?$positional_parameter_base@DV?$stream_output_adapter@D@__crt_stdio_output@@@__crt_stdio_output@@CA?AW4parameter_type@12@_K@Z 1004b4b0 f i libucrtd:output.obj
 0001:0004a4c0       ?get_parameter_type@?$positional_parameter_base@DV?$stream_output_adapter@D@__crt_stdio_output@@@__crt_stdio_output@@CA?AW4parameter_type@12@_W@Z 1004b4c0 f i libucrtd:output.obj
 0001:0004a4d0       ?get_parameter_type@?$positional_parameter_base@DV?$string_output_adapter@D@__crt_stdio_output@@@__crt_stdio_output@@CA?AW4parameter_type@12@F@Z 1004b4d0 f i libucrtd:output.obj
 0001:0004a4e0       ?get_parameter_type@?$positional_parameter_base@DV?$string_output_adapter@D@__crt_stdio_output@@@__crt_stdio_output@@CA?AW4parameter_type@12@G@Z 1004b4e0 f i libucrtd:output.obj
 0001:0004a4f0       ?get_parameter_type@?$positional_parameter_base@DV?$string_output_adapter@D@__crt_stdio_output@@@__crt_stdio_output@@CA?AW4parameter_type@12@H@Z 1004b4f0 f i libucrtd:output.obj
 0001:0004a500       ?get_parameter_type@?$positional_parameter_base@DV?$string_output_adapter@D@__crt_stdio_output@@@__crt_stdio_output@@CA?AW4parameter_type@12@I@Z 1004b500 f i libucrtd:output.obj
 0001:0004a510       ?get_parameter_type@?$positional_parameter_base@DV?$string_output_adapter@D@__crt_stdio_output@@@__crt_stdio_output@@CA?AW4parameter_type@12@U_CRT_DOUBLE@@@Z 1004b510 f i libucrtd:output.obj
 0001:0004a520       ?get_parameter_type@?$positional_parameter_base@DV?$string_output_adapter@D@__crt_stdio_output@@@__crt_stdio_output@@CA?AW4parameter_type@12@_J@Z 1004b520 f i libucrtd:output.obj
 0001:0004a530       ?get_parameter_type@?$positional_parameter_base@DV?$string_output_adapter@D@__crt_stdio_output@@@__crt_stdio_output@@CA?AW4parameter_type@12@_K@Z 1004b530 f i libucrtd:output.obj
 0001:0004a540       ?get_parameter_type@?$positional_parameter_base@DV?$string_output_adapter@D@__crt_stdio_output@@@__crt_stdio_output@@CA?AW4parameter_type@12@_W@Z 1004b540 f i libucrtd:output.obj
 0001:0004a550       ?get_parameter_type@?$positional_parameter_base@_WV?$stream_output_adapter@_W@__crt_stdio_output@@@__crt_stdio_output@@CA?AW4parameter_type@12@F@Z 1004b550 f i libucrtd:output.obj
 0001:0004a560       ?get_parameter_type@?$positional_parameter_base@_WV?$stream_output_adapter@_W@__crt_stdio_output@@@__crt_stdio_output@@CA?AW4parameter_type@12@G@Z 1004b560 f i libucrtd:output.obj
 0001:0004a570       ?get_parameter_type@?$positional_parameter_base@_WV?$stream_output_adapter@_W@__crt_stdio_output@@@__crt_stdio_output@@CA?AW4parameter_type@12@H@Z 1004b570 f i libucrtd:output.obj
 0001:0004a580       ?get_parameter_type@?$positional_parameter_base@_WV?$stream_output_adapter@_W@__crt_stdio_output@@@__crt_stdio_output@@CA?AW4parameter_type@12@I@Z 1004b580 f i libucrtd:output.obj
 0001:0004a590       ?get_parameter_type@?$positional_parameter_base@_WV?$stream_output_adapter@_W@__crt_stdio_output@@@__crt_stdio_output@@CA?AW4parameter_type@12@U_CRT_DOUBLE@@@Z 1004b590 f i libucrtd:output.obj
 0001:0004a5a0       ?get_parameter_type@?$positional_parameter_base@_WV?$stream_output_adapter@_W@__crt_stdio_output@@@__crt_stdio_output@@CA?AW4parameter_type@12@_J@Z 1004b5a0 f i libucrtd:output.obj
 0001:0004a5b0       ?get_parameter_type@?$positional_parameter_base@_WV?$stream_output_adapter@_W@__crt_stdio_output@@@__crt_stdio_output@@CA?AW4parameter_type@12@_K@Z 1004b5b0 f i libucrtd:output.obj
 0001:0004a5c0       ?get_parameter_type@?$positional_parameter_base@_WV?$stream_output_adapter@_W@__crt_stdio_output@@@__crt_stdio_output@@CA?AW4parameter_type@12@_W@Z 1004b5c0 f i libucrtd:output.obj
 0001:0004a5d0       ?get_parameter_type@?$positional_parameter_base@_WV?$string_output_adapter@_W@__crt_stdio_output@@@__crt_stdio_output@@CA?AW4parameter_type@12@F@Z 1004b5d0 f i libucrtd:output.obj
 0001:0004a5e0       ?get_parameter_type@?$positional_parameter_base@_WV?$string_output_adapter@_W@__crt_stdio_output@@@__crt_stdio_output@@CA?AW4parameter_type@12@G@Z 1004b5e0 f i libucrtd:output.obj
 0001:0004a5f0       ?get_parameter_type@?$positional_parameter_base@_WV?$string_output_adapter@_W@__crt_stdio_output@@@__crt_stdio_output@@CA?AW4parameter_type@12@H@Z 1004b5f0 f i libucrtd:output.obj
 0001:0004a600       ?get_parameter_type@?$positional_parameter_base@_WV?$string_output_adapter@_W@__crt_stdio_output@@@__crt_stdio_output@@CA?AW4parameter_type@12@I@Z 1004b600 f i libucrtd:output.obj
 0001:0004a610       ?get_parameter_type@?$positional_parameter_base@_WV?$string_output_adapter@_W@__crt_stdio_output@@@__crt_stdio_output@@CA?AW4parameter_type@12@U_CRT_DOUBLE@@@Z 1004b610 f i libucrtd:output.obj
 0001:0004a620       ?get_parameter_type@?$positional_parameter_base@_WV?$string_output_adapter@_W@__crt_stdio_output@@@__crt_stdio_output@@CA?AW4parameter_type@12@_J@Z 1004b620 f i libucrtd:output.obj
 0001:0004a630       ?get_parameter_type@?$positional_parameter_base@_WV?$string_output_adapter@_W@__crt_stdio_output@@@__crt_stdio_output@@CA?AW4parameter_type@12@_K@Z 1004b630 f i libucrtd:output.obj
 0001:0004a640       ?get_parameter_type@?$positional_parameter_base@_WV?$string_output_adapter@_W@__crt_stdio_output@@@__crt_stdio_output@@CA?AW4parameter_type@12@_W@Z 1004b640 f i libucrtd:output.obj
 0001:0004a650       ?has_flag@?$output_processor@DV?$stream_output_adapter@D@__crt_stdio_output@@V?$format_validation_base@DV?$stream_output_adapter@D@__crt_stdio_output@@@2@@__crt_stdio_output@@ABE_NI@Z 1004b650 f i libucrtd:output.obj
 0001:0004a680       ?has_flag@?$output_processor@DV?$stream_output_adapter@D@__crt_stdio_output@@V?$positional_parameter_base@DV?$stream_output_adapter@D@__crt_stdio_output@@@2@@__crt_stdio_output@@ABE_NI@Z 1004b680 f i libucrtd:output.obj
 0001:0004a6b0       ?has_flag@?$output_processor@DV?$stream_output_adapter@D@__crt_stdio_output@@V?$standard_base@DV?$stream_output_adapter@D@__crt_stdio_output@@@2@@__crt_stdio_output@@ABE_NI@Z 1004b6b0 f i libucrtd:output.obj
 0001:0004a6e0       ?has_flag@?$output_processor@DV?$string_output_adapter@D@__crt_stdio_output@@V?$format_validation_base@DV?$string_output_adapter@D@__crt_stdio_output@@@2@@__crt_stdio_output@@ABE_NI@Z 1004b6e0 f i libucrtd:output.obj
 0001:0004a710       ?has_flag@?$output_processor@DV?$string_output_adapter@D@__crt_stdio_output@@V?$positional_parameter_base@DV?$string_output_adapter@D@__crt_stdio_output@@@2@@__crt_stdio_output@@ABE_NI@Z 1004b710 f i libucrtd:output.obj
 0001:0004a740       ?has_flag@?$output_processor@DV?$string_output_adapter@D@__crt_stdio_output@@V?$standard_base@DV?$string_output_adapter@D@__crt_stdio_output@@@2@@__crt_stdio_output@@ABE_NI@Z 1004b740 f i libucrtd:output.obj
 0001:0004a770       ?has_flag@?$output_processor@_WV?$stream_output_adapter@_W@__crt_stdio_output@@V?$format_validation_base@_WV?$stream_output_adapter@_W@__crt_stdio_output@@@2@@__crt_stdio_output@@ABE_NI@Z 1004b770 f i libucrtd:output.obj
 0001:0004a7a0       ?has_flag@?$output_processor@_WV?$stream_output_adapter@_W@__crt_stdio_output@@V?$positional_parameter_base@_WV?$stream_output_adapter@_W@__crt_stdio_output@@@2@@__crt_stdio_output@@ABE_NI@Z 1004b7a0 f i libucrtd:output.obj
 0001:0004a7d0       ?has_flag@?$output_processor@_WV?$stream_output_adapter@_W@__crt_stdio_output@@V?$standard_base@_WV?$stream_output_adapter@_W@__crt_stdio_output@@@2@@__crt_stdio_output@@ABE_NI@Z 1004b7d0 f i libucrtd:output.obj
 0001:0004a800       ?has_flag@?$output_processor@_WV?$string_output_adapter@_W@__crt_stdio_output@@V?$format_validation_base@_WV?$string_output_adapter@_W@__crt_stdio_output@@@2@@__crt_stdio_output@@ABE_NI@Z 1004b800 f i libucrtd:output.obj
 0001:0004a830       ?has_flag@?$output_processor@_WV?$string_output_adapter@_W@__crt_stdio_output@@V?$positional_parameter_base@_WV?$string_output_adapter@_W@__crt_stdio_output@@@2@@__crt_stdio_output@@ABE_NI@Z 1004b830 f i libucrtd:output.obj
 0001:0004a860       ?has_flag@?$output_processor@_WV?$string_output_adapter@_W@__crt_stdio_output@@V?$standard_base@_WV?$string_output_adapter@_W@__crt_stdio_output@@@2@@__crt_stdio_output@@ABE_NI@Z 1004b860 f i libucrtd:output.obj
 0001:0004a890       ?is_positional_parameter_reappearance_consistent@?$positional_parameter_base@DV?$stream_output_adapter@D@__crt_stdio_output@@@__crt_stdio_output@@AAE_NABUparameter_data@12@W4parameter_type@12@DW4length_modifier@2@@Z 1004b890 f i libucrtd:output.obj
 0001:0004aac0       ?is_positional_parameter_reappearance_consistent@?$positional_parameter_base@DV?$string_output_adapter@D@__crt_stdio_output@@@__crt_stdio_output@@AAE_NABUparameter_data@12@W4parameter_type@12@DW4length_modifier@2@@Z 1004bac0 f i libucrtd:output.obj
 0001:0004acf0       ?is_positional_parameter_reappearance_consistent@?$positional_parameter_base@_WV?$stream_output_adapter@_W@__crt_stdio_output@@@__crt_stdio_output@@AAE_NABUparameter_data@12@W4parameter_type@12@_WW4length_modifier@2@@Z 1004bcf0 f i libucrtd:output.obj
 0001:0004af20       ?is_positional_parameter_reappearance_consistent@?$positional_parameter_base@_WV?$string_output_adapter@_W@__crt_stdio_output@@@__crt_stdio_output@@AAE_NABUparameter_data@12@W4parameter_type@12@_WW4length_modifier@2@@Z 1004bf20 f i libucrtd:output.obj
 0001:0004b150       ?is_string_backed@__crt_stdio_stream@@QBE_NXZ 1004c150 f i libucrtd:output.obj
 0001:0004b190       ?narrow_null_string@?$output_processor@DV?$stream_output_adapter@D@__crt_stdio_output@@V?$format_validation_base@DV?$stream_output_adapter@D@__crt_stdio_output@@@2@@__crt_stdio_output@@CAPADXZ 1004c190 f i libucrtd:output.obj
 0001:0004b1a0       ?narrow_null_string@?$output_processor@DV?$stream_output_adapter@D@__crt_stdio_output@@V?$positional_parameter_base@DV?$stream_output_adapter@D@__crt_stdio_output@@@2@@__crt_stdio_output@@CAPADXZ 1004c1a0 f i libucrtd:output.obj
 0001:0004b1b0       ?narrow_null_string@?$output_processor@DV?$stream_output_adapter@D@__crt_stdio_output@@V?$standard_base@DV?$stream_output_adapter@D@__crt_stdio_output@@@2@@__crt_stdio_output@@CAPADXZ 1004c1b0 f i libucrtd:output.obj
 0001:0004b1c0       ?narrow_null_string@?$output_processor@DV?$string_output_adapter@D@__crt_stdio_output@@V?$format_validation_base@DV?$string_output_adapter@D@__crt_stdio_output@@@2@@__crt_stdio_output@@CAPADXZ 1004c1c0 f i libucrtd:output.obj
 0001:0004b1d0       ?narrow_null_string@?$output_processor@DV?$string_output_adapter@D@__crt_stdio_output@@V?$positional_parameter_base@DV?$string_output_adapter@D@__crt_stdio_output@@@2@@__crt_stdio_output@@CAPADXZ 1004c1d0 f i libucrtd:output.obj
 0001:0004b1e0       ?narrow_null_string@?$output_processor@DV?$string_output_adapter@D@__crt_stdio_output@@V?$standard_base@DV?$string_output_adapter@D@__crt_stdio_output@@@2@@__crt_stdio_output@@CAPADXZ 1004c1e0 f i libucrtd:output.obj
 0001:0004b1f0       ?narrow_null_string@?$output_processor@_WV?$stream_output_adapter@_W@__crt_stdio_output@@V?$format_validation_base@_WV?$stream_output_adapter@_W@__crt_stdio_output@@@2@@__crt_stdio_output@@CAPADXZ 1004c1f0 f i libucrtd:output.obj
 0001:0004b200       ?narrow_null_string@?$output_processor@_WV?$stream_output_adapter@_W@__crt_stdio_output@@V?$positional_parameter_base@_WV?$stream_output_adapter@_W@__crt_stdio_output@@@2@@__crt_stdio_output@@CAPADXZ 1004c200 f i libucrtd:output.obj
 0001:0004b210       ?narrow_null_string@?$output_processor@_WV?$stream_output_adapter@_W@__crt_stdio_output@@V?$standard_base@_WV?$stream_output_adapter@_W@__crt_stdio_output@@@2@@__crt_stdio_output@@CAPADXZ 1004c210 f i libucrtd:output.obj
 0001:0004b220       ?narrow_null_string@?$output_processor@_WV?$string_output_adapter@_W@__crt_stdio_output@@V?$format_validation_base@_WV?$string_output_adapter@_W@__crt_stdio_output@@@2@@__crt_stdio_output@@CAPADXZ 1004c220 f i libucrtd:output.obj
 0001:0004b230       ?narrow_null_string@?$output_processor@_WV?$string_output_adapter@_W@__crt_stdio_output@@V?$positional_parameter_base@_WV?$string_output_adapter@_W@__crt_stdio_output@@@2@@__crt_stdio_output@@CAPADXZ 1004c230 f i libucrtd:output.obj
 0001:0004b240       ?narrow_null_string@?$output_processor@_WV?$string_output_adapter@_W@__crt_stdio_output@@V?$standard_base@_WV?$string_output_adapter@_W@__crt_stdio_output@@@2@@__crt_stdio_output@@CAPADXZ 1004c240 f i libucrtd:output.obj
 0001:0004b250       ?parse_int_from_format_string@?$output_processor@DV?$stream_output_adapter@D@__crt_stdio_output@@V?$format_validation_base@DV?$stream_output_adapter@D@__crt_stdio_output@@@2@@__crt_stdio_output@@AAE_NQAH@Z 1004c250 f i libucrtd:output.obj
 0001:0004b310       ?parse_int_from_format_string@?$output_processor@DV?$stream_output_adapter@D@__crt_stdio_output@@V?$positional_parameter_base@DV?$stream_output_adapter@D@__crt_stdio_output@@@2@@__crt_stdio_output@@AAE_NQAH@Z 1004c310 f i libucrtd:output.obj
 0001:0004b3d0       ?parse_int_from_format_string@?$output_processor@DV?$stream_output_adapter@D@__crt_stdio_output@@V?$standard_base@DV?$stream_output_adapter@D@__crt_stdio_output@@@2@@__crt_stdio_output@@AAE_NQAH@Z 1004c3d0 f i libucrtd:output.obj
 0001:0004b490       ?parse_int_from_format_string@?$output_processor@DV?$string_output_adapter@D@__crt_stdio_output@@V?$format_validation_base@DV?$string_output_adapter@D@__crt_stdio_output@@@2@@__crt_stdio_output@@AAE_NQAH@Z 1004c490 f i libucrtd:output.obj
 0001:0004b550       ?parse_int_from_format_string@?$output_processor@DV?$string_output_adapter@D@__crt_stdio_output@@V?$positional_parameter_base@DV?$string_output_adapter@D@__crt_stdio_output@@@2@@__crt_stdio_output@@AAE_NQAH@Z 1004c550 f i libucrtd:output.obj
 0001:0004b610       ?parse_int_from_format_string@?$output_processor@DV?$string_output_adapter@D@__crt_stdio_output@@V?$standard_base@DV?$string_output_adapter@D@__crt_stdio_output@@@2@@__crt_stdio_output@@AAE_NQAH@Z 1004c610 f i libucrtd:output.obj
 0001:0004b6d0       ?parse_int_from_format_string@?$output_processor@_WV?$stream_output_adapter@_W@__crt_stdio_output@@V?$format_validation_base@_WV?$stream_output_adapter@_W@__crt_stdio_output@@@2@@__crt_stdio_output@@AAE_NQAH@Z 1004c6d0 f i libucrtd:output.obj
 0001:0004b790       ?parse_int_from_format_string@?$output_processor@_WV?$stream_output_adapter@_W@__crt_stdio_output@@V?$positional_parameter_base@_WV?$stream_output_adapter@_W@__crt_stdio_output@@@2@@__crt_stdio_output@@AAE_NQAH@Z 1004c790 f i libucrtd:output.obj
 0001:0004b850       ?parse_int_from_format_string@?$output_processor@_WV?$stream_output_adapter@_W@__crt_stdio_output@@V?$standard_base@_WV?$stream_output_adapter@_W@__crt_stdio_output@@@2@@__crt_stdio_output@@AAE_NQAH@Z 1004c850 f i libucrtd:output.obj
 0001:0004b910       ?parse_int_from_format_string@?$output_processor@_WV?$string_output_adapter@_W@__crt_stdio_output@@V?$format_validation_base@_WV?$string_output_adapter@_W@__crt_stdio_output@@@2@@__crt_stdio_output@@AAE_NQAH@Z 1004c910 f i libucrtd:output.obj
 0001:0004b9d0       ?parse_int_from_format_string@?$output_processor@_WV?$string_output_adapter@_W@__crt_stdio_output@@V?$positional_parameter_base@_WV?$string_output_adapter@_W@__crt_stdio_output@@@2@@__crt_stdio_output@@AAE_NQAH@Z 1004c9d0 f i libucrtd:output.obj
 0001:0004ba90       ?parse_int_from_format_string@?$output_processor@_WV?$string_output_adapter@_W@__crt_stdio_output@@V?$standard_base@_WV?$string_output_adapter@_W@__crt_stdio_output@@@2@@__crt_stdio_output@@AAE_NQAH@Z 1004ca90 f i libucrtd:output.obj
 0001:0004bb50       ?process@?$output_processor@DV?$stream_output_adapter@D@__crt_stdio_output@@V?$format_validation_base@DV?$stream_output_adapter@D@__crt_stdio_output@@@2@@__crt_stdio_output@@QAEHXZ 1004cb50 f i libucrtd:output.obj
 0001:0004be00       ?process@?$output_processor@DV?$stream_output_adapter@D@__crt_stdio_output@@V?$positional_parameter_base@DV?$stream_output_adapter@D@__crt_stdio_output@@@2@@__crt_stdio_output@@QAEHXZ 1004ce00 f i libucrtd:output.obj
 0001:0004c0b0       ?process@?$output_processor@DV?$stream_output_adapter@D@__crt_stdio_output@@V?$standard_base@DV?$stream_output_adapter@D@__crt_stdio_output@@@2@@__crt_stdio_output@@QAEHXZ 1004d0b0 f i libucrtd:output.obj
 0001:0004c360       ?process@?$output_processor@DV?$string_output_adapter@D@__crt_stdio_output@@V?$format_validation_base@DV?$string_output_adapter@D@__crt_stdio_output@@@2@@__crt_stdio_output@@QAEHXZ 1004d360 f i libucrtd:output.obj
 0001:0004c610       ?process@?$output_processor@DV?$string_output_adapter@D@__crt_stdio_output@@V?$positional_parameter_base@DV?$string_output_adapter@D@__crt_stdio_output@@@2@@__crt_stdio_output@@QAEHXZ 1004d610 f i libucrtd:output.obj
 0001:0004c8c0       ?process@?$output_processor@DV?$string_output_adapter@D@__crt_stdio_output@@V?$standard_base@DV?$string_output_adapter@D@__crt_stdio_output@@@2@@__crt_stdio_output@@QAEHXZ 1004d8c0 f i libucrtd:output.obj
 0001:0004cb70       ?process@?$output_processor@_WV?$stream_output_adapter@_W@__crt_stdio_output@@V?$format_validation_base@_WV?$stream_output_adapter@_W@__crt_stdio_output@@@2@@__crt_stdio_output@@QAEHXZ 1004db70 f i libucrtd:output.obj
 0001:0004ce20       ?process@?$output_processor@_WV?$stream_output_adapter@_W@__crt_stdio_output@@V?$positional_parameter_base@_WV?$stream_output_adapter@_W@__crt_stdio_output@@@2@@__crt_stdio_output@@QAEHXZ 1004de20 f i libucrtd:output.obj
 0001:0004d0d0       ?process@?$output_processor@_WV?$stream_output_adapter@_W@__crt_stdio_output@@V?$standard_base@_WV?$stream_output_adapter@_W@__crt_stdio_output@@@2@@__crt_stdio_output@@QAEHXZ 1004e0d0 f i libucrtd:output.obj
 0001:0004d380       ?process@?$output_processor@_WV?$string_output_adapter@_W@__crt_stdio_output@@V?$format_validation_base@_WV?$string_output_adapter@_W@__crt_stdio_output@@@2@@__crt_stdio_output@@QAEHXZ 1004e380 f i libucrtd:output.obj
 0001:0004d630       ?process@?$output_processor@_WV?$string_output_adapter@_W@__crt_stdio_output@@V?$positional_parameter_base@_WV?$string_output_adapter@_W@__crt_stdio_output@@@2@@__crt_stdio_output@@QAEHXZ 1004e630 f i libucrtd:output.obj
 0001:0004d8e0       ?process@?$output_processor@_WV?$string_output_adapter@_W@__crt_stdio_output@@V?$standard_base@_WV?$string_output_adapter@_W@__crt_stdio_output@@@2@@__crt_stdio_output@@QAEHXZ 1004e8e0 f i libucrtd:output.obj
 0001:0004db90       ?public_stream@__crt_stdio_stream@@QBEPAU_iobuf@@XZ 1004eb90 f i libucrtd:output.obj
 0001:0004dbb0       ?set_flag@?$output_processor@DV?$stream_output_adapter@D@__crt_stdio_output@@V?$format_validation_base@DV?$stream_output_adapter@D@__crt_stdio_output@@@2@@__crt_stdio_output@@AAEXI@Z 1004ebb0 f i libucrtd:output.obj
 0001:0004dbd0       ?set_flag@?$output_processor@DV?$stream_output_adapter@D@__crt_stdio_output@@V?$positional_parameter_base@DV?$stream_output_adapter@D@__crt_stdio_output@@@2@@__crt_stdio_output@@AAEXI@Z 1004ebd0 f i libucrtd:output.obj
 0001:0004dbf0       ?set_flag@?$output_processor@DV?$stream_output_adapter@D@__crt_stdio_output@@V?$standard_base@DV?$stream_output_adapter@D@__crt_stdio_output@@@2@@__crt_stdio_output@@AAEXI@Z 1004ebf0 f i libucrtd:output.obj
 0001:0004dc10       ?set_flag@?$output_processor@DV?$string_output_adapter@D@__crt_stdio_output@@V?$format_validation_base@DV?$string_output_adapter@D@__crt_stdio_output@@@2@@__crt_stdio_output@@AAEXI@Z 1004ec10 f i libucrtd:output.obj
 0001:0004dc30       ?set_flag@?$output_processor@DV?$string_output_adapter@D@__crt_stdio_output@@V?$positional_parameter_base@DV?$string_output_adapter@D@__crt_stdio_output@@@2@@__crt_stdio_output@@AAEXI@Z 1004ec30 f i libucrtd:output.obj
 0001:0004dc50       ?set_flag@?$output_processor@DV?$string_output_adapter@D@__crt_stdio_output@@V?$standard_base@DV?$string_output_adapter@D@__crt_stdio_output@@@2@@__crt_stdio_output@@AAEXI@Z 1004ec50 f i libucrtd:output.obj
 0001:0004dc70       ?set_flag@?$output_processor@_WV?$stream_output_adapter@_W@__crt_stdio_output@@V?$format_validation_base@_WV?$stream_output_adapter@_W@__crt_stdio_output@@@2@@__crt_stdio_output@@AAEXI@Z 1004ec70 f i libucrtd:output.obj
 0001:0004dc90       ?set_flag@?$output_processor@_WV?$stream_output_adapter@_W@__crt_stdio_output@@V?$positional_parameter_base@_WV?$stream_output_adapter@_W@__crt_stdio_output@@@2@@__crt_stdio_output@@AAEXI@Z 1004ec90 f i libucrtd:output.obj
 0001:0004dcb0       ?set_flag@?$output_processor@_WV?$stream_output_adapter@_W@__crt_stdio_output@@V?$standard_base@_WV?$stream_output_adapter@_W@__crt_stdio_output@@@2@@__crt_stdio_output@@AAEXI@Z 1004ecb0 f i libucrtd:output.obj
 0001:0004dcd0       ?set_flag@?$output_processor@_WV?$string_output_adapter@_W@__crt_stdio_output@@V?$format_validation_base@_WV?$string_output_adapter@_W@__crt_stdio_output@@@2@@__crt_stdio_output@@AAEXI@Z 1004ecd0 f i libucrtd:output.obj
 0001:0004dcf0       ?set_flag@?$output_processor@_WV?$string_output_adapter@_W@__crt_stdio_output@@V?$positional_parameter_base@_WV?$string_output_adapter@_W@__crt_stdio_output@@@2@@__crt_stdio_output@@AAEXI@Z 1004ecf0 f i libucrtd:output.obj
 0001:0004dd10       ?set_flag@?$output_processor@_WV?$string_output_adapter@_W@__crt_stdio_output@@V?$standard_base@_WV?$string_output_adapter@_W@__crt_stdio_output@@@2@@__crt_stdio_output@@AAEXI@Z 1004ed10 f i libucrtd:output.obj
 0001:0004dd30       ?should_format@?$positional_parameter_base@DV?$stream_output_adapter@D@__crt_stdio_output@@@__crt_stdio_output@@IAE_NXZ 1004ed30 f i libucrtd:output.obj
 0001:0004dd70       ?should_format@?$positional_parameter_base@DV?$string_output_adapter@D@__crt_stdio_output@@@__crt_stdio_output@@IAE_NXZ 1004ed70 f i libucrtd:output.obj
 0001:0004ddb0       ?should_format@?$positional_parameter_base@_WV?$stream_output_adapter@_W@__crt_stdio_output@@@__crt_stdio_output@@IAE_NXZ 1004edb0 f i libucrtd:output.obj
 0001:0004ddf0       ?should_format@?$positional_parameter_base@_WV?$string_output_adapter@_W@__crt_stdio_output@@@__crt_stdio_output@@IAE_NXZ 1004edf0 f i libucrtd:output.obj
 0001:0004de30       ?should_format@?$standard_base@DV?$stream_output_adapter@D@__crt_stdio_output@@@__crt_stdio_output@@IAE_NXZ 1004ee30 f i libucrtd:output.obj
 0001:0004de40       ?should_format@?$standard_base@DV?$string_output_adapter@D@__crt_stdio_output@@@__crt_stdio_output@@IAE_NXZ 1004ee40 f i libucrtd:output.obj
 0001:0004de50       ?should_format@?$standard_base@_WV?$stream_output_adapter@_W@__crt_stdio_output@@@__crt_stdio_output@@IAE_NXZ 1004ee50 f i libucrtd:output.obj
 0001:0004de60       ?should_format@?$standard_base@_WV?$string_output_adapter@_W@__crt_stdio_output@@@__crt_stdio_output@@IAE_NXZ 1004ee60 f i libucrtd:output.obj
 0001:0004de70       ?should_skip_normal_state_processing@?$positional_parameter_base@DV?$stream_output_adapter@D@__crt_stdio_output@@@__crt_stdio_output@@IAE_NXZ 1004ee70 f i libucrtd:output.obj
 0001:0004dec0       ?should_skip_normal_state_processing@?$positional_parameter_base@DV?$string_output_adapter@D@__crt_stdio_output@@@__crt_stdio_output@@IAE_NXZ 1004eec0 f i libucrtd:output.obj
 0001:0004df10       ?should_skip_normal_state_processing@?$positional_parameter_base@_WV?$stream_output_adapter@_W@__crt_stdio_output@@@__crt_stdio_output@@IAE_NXZ 1004ef10 f i libucrtd:output.obj
 0001:0004df60       ?should_skip_normal_state_processing@?$positional_parameter_base@_WV?$string_output_adapter@_W@__crt_stdio_output@@@__crt_stdio_output@@IAE_NXZ 1004ef60 f i libucrtd:output.obj
 0001:0004dfb0       ?should_skip_normal_state_processing@?$standard_base@DV?$stream_output_adapter@D@__crt_stdio_output@@@__crt_stdio_output@@IAE_NXZ 1004efb0 f i libucrtd:output.obj
 0001:0004dfc0       ?should_skip_normal_state_processing@?$standard_base@DV?$string_output_adapter@D@__crt_stdio_output@@@__crt_stdio_output@@IAE_NXZ 1004efc0 f i libucrtd:output.obj
 0001:0004dfd0       ?should_skip_normal_state_processing@?$standard_base@_WV?$stream_output_adapter@_W@__crt_stdio_output@@@__crt_stdio_output@@IAE_NXZ 1004efd0 f i libucrtd:output.obj
 0001:0004dfe0       ?should_skip_normal_state_processing@?$standard_base@_WV?$string_output_adapter@_W@__crt_stdio_output@@@__crt_stdio_output@@IAE_NXZ 1004efe0 f i libucrtd:output.obj
 0001:0004dff0       ?should_skip_type_state_output@?$positional_parameter_base@DV?$stream_output_adapter@D@__crt_stdio_output@@@__crt_stdio_output@@IBE_NXZ 1004eff0 f i libucrtd:output.obj
 0001:0004e030       ?should_skip_type_state_output@?$positional_parameter_base@DV?$string_output_adapter@D@__crt_stdio_output@@@__crt_stdio_output@@IBE_NXZ 1004f030 f i libucrtd:output.obj
 0001:0004e070       ?should_skip_type_state_output@?$positional_parameter_base@_WV?$stream_output_adapter@_W@__crt_stdio_output@@@__crt_stdio_output@@IBE_NXZ 1004f070 f i libucrtd:output.obj
 0001:0004e0b0       ?should_skip_type_state_output@?$positional_parameter_base@_WV?$string_output_adapter@_W@__crt_stdio_output@@@__crt_stdio_output@@IBE_NXZ 1004f0b0 f i libucrtd:output.obj
 0001:0004e0f0       ?should_skip_type_state_output@?$standard_base@DV?$stream_output_adapter@D@__crt_stdio_output@@@__crt_stdio_output@@IBE_NXZ 1004f0f0 f i libucrtd:output.obj
 0001:0004e100       ?should_skip_type_state_output@?$standard_base@DV?$string_output_adapter@D@__crt_stdio_output@@@__crt_stdio_output@@IBE_NXZ 1004f100 f i libucrtd:output.obj
 0001:0004e110       ?should_skip_type_state_output@?$standard_base@_WV?$stream_output_adapter@_W@__crt_stdio_output@@@__crt_stdio_output@@IBE_NXZ 1004f110 f i libucrtd:output.obj
 0001:0004e120       ?should_skip_type_state_output@?$standard_base@_WV?$string_output_adapter@_W@__crt_stdio_output@@@__crt_stdio_output@@IBE_NXZ 1004f120 f i libucrtd:output.obj
 0001:0004e130       ?state_case_dot@?$output_processor@DV?$stream_output_adapter@D@__crt_stdio_output@@V?$format_validation_base@DV?$stream_output_adapter@D@__crt_stdio_output@@@2@@__crt_stdio_output@@AAE_NXZ 1004f130 f i libucrtd:output.obj
 0001:0004e150       ?state_case_dot@?$output_processor@DV?$stream_output_adapter@D@__crt_stdio_output@@V?$positional_parameter_base@DV?$stream_output_adapter@D@__crt_stdio_output@@@2@@__crt_stdio_output@@AAE_NXZ 1004f150 f i libucrtd:output.obj
 0001:0004e170       ?state_case_dot@?$output_processor@DV?$stream_output_adapter@D@__crt_stdio_output@@V?$standard_base@DV?$stream_output_adapter@D@__crt_stdio_output@@@2@@__crt_stdio_output@@AAE_NXZ 1004f170 f i libucrtd:output.obj
 0001:0004e190       ?state_case_dot@?$output_processor@DV?$string_output_adapter@D@__crt_stdio_output@@V?$format_validation_base@DV?$string_output_adapter@D@__crt_stdio_output@@@2@@__crt_stdio_output@@AAE_NXZ 1004f190 f i libucrtd:output.obj
 0001:0004e1b0       ?state_case_dot@?$output_processor@DV?$string_output_adapter@D@__crt_stdio_output@@V?$positional_parameter_base@DV?$string_output_adapter@D@__crt_stdio_output@@@2@@__crt_stdio_output@@AAE_NXZ 1004f1b0 f i libucrtd:output.obj
 0001:0004e1d0       ?state_case_dot@?$output_processor@DV?$string_output_adapter@D@__crt_stdio_output@@V?$standard_base@DV?$string_output_adapter@D@__crt_stdio_output@@@2@@__crt_stdio_output@@AAE_NXZ 1004f1d0 f i libucrtd:output.obj
 0001:0004e1f0       ?state_case_dot@?$output_processor@_WV?$stream_output_adapter@_W@__crt_stdio_output@@V?$format_validation_base@_WV?$stream_output_adapter@_W@__crt_stdio_output@@@2@@__crt_stdio_output@@AAE_NXZ 1004f1f0 f i libucrtd:output.obj
 0001:0004e210       ?state_case_dot@?$output_processor@_WV?$stream_output_adapter@_W@__crt_stdio_output@@V?$positional_parameter_base@_WV?$stream_output_adapter@_W@__crt_stdio_output@@@2@@__crt_stdio_output@@AAE_NXZ 1004f210 f i libucrtd:output.obj
 0001:0004e230       ?state_case_dot@?$output_processor@_WV?$stream_output_adapter@_W@__crt_stdio_output@@V?$standard_base@_WV?$stream_output_adapter@_W@__crt_stdio_output@@@2@@__crt_stdio_output@@AAE_NXZ 1004f230 f i libucrtd:output.obj
 0001:0004e250       ?state_case_dot@?$output_processor@_WV?$string_output_adapter@_W@__crt_stdio_output@@V?$format_validation_base@_WV?$string_output_adapter@_W@__crt_stdio_output@@@2@@__crt_stdio_output@@AAE_NXZ 1004f250 f i libucrtd:output.obj
 0001:0004e270       ?state_case_dot@?$output_processor@_WV?$string_output_adapter@_W@__crt_stdio_output@@V?$positional_parameter_base@_WV?$string_output_adapter@_W@__crt_stdio_output@@@2@@__crt_stdio_output@@AAE_NXZ 1004f270 f i libucrtd:output.obj
 0001:0004e290       ?state_case_dot@?$output_processor@_WV?$string_output_adapter@_W@__crt_stdio_output@@V?$standard_base@_WV?$string_output_adapter@_W@__crt_stdio_output@@@2@@__crt_stdio_output@@AAE_NXZ 1004f290 f i libucrtd:output.obj
 0001:0004e2b0       ?state_case_flag@?$output_processor@DV?$stream_output_adapter@D@__crt_stdio_output@@V?$format_validation_base@DV?$stream_output_adapter@D@__crt_stdio_output@@@2@@__crt_stdio_output@@AAE_NXZ 1004f2b0 f i libucrtd:output.obj
 0001:0004e360       ?state_case_flag@?$output_processor@DV?$stream_output_adapter@D@__crt_stdio_output@@V?$positional_parameter_base@DV?$stream_output_adapter@D@__crt_stdio_output@@@2@@__crt_stdio_output@@AAE_NXZ 1004f360 f i libucrtd:output.obj
 0001:0004e410       ?state_case_flag@?$output_processor@DV?$stream_output_adapter@D@__crt_stdio_output@@V?$standard_base@DV?$stream_output_adapter@D@__crt_stdio_output@@@2@@__crt_stdio_output@@AAE_NXZ 1004f410 f i libucrtd:output.obj
 0001:0004e4c0       ?state_case_flag@?$output_processor@DV?$string_output_adapter@D@__crt_stdio_output@@V?$format_validation_base@DV?$string_output_adapter@D@__crt_stdio_output@@@2@@__crt_stdio_output@@AAE_NXZ 1004f4c0 f i libucrtd:output.obj
 0001:0004e570       ?state_case_flag@?$output_processor@DV?$string_output_adapter@D@__crt_stdio_output@@V?$positional_parameter_base@DV?$string_output_adapter@D@__crt_stdio_output@@@2@@__crt_stdio_output@@AAE_NXZ 1004f570 f i libucrtd:output.obj
 0001:0004e620       ?state_case_flag@?$output_processor@DV?$string_output_adapter@D@__crt_stdio_output@@V?$standard_base@DV?$string_output_adapter@D@__crt_stdio_output@@@2@@__crt_stdio_output@@AAE_NXZ 1004f620 f i libucrtd:output.obj
 0001:0004e6d0       ?state_case_flag@?$output_processor@_WV?$stream_output_adapter@_W@__crt_stdio_output@@V?$format_validation_base@_WV?$stream_output_adapter@_W@__crt_stdio_output@@@2@@__crt_stdio_output@@AAE_NXZ 1004f6d0 f i libucrtd:output.obj
 0001:0004e780       ?state_case_flag@?$output_processor@_WV?$stream_output_adapter@_W@__crt_stdio_output@@V?$positional_parameter_base@_WV?$stream_output_adapter@_W@__crt_stdio_output@@@2@@__crt_stdio_output@@AAE_NXZ 1004f780 f i libucrtd:output.obj
 0001:0004e830       ?state_case_flag@?$output_processor@_WV?$stream_output_adapter@_W@__crt_stdio_output@@V?$standard_base@_WV?$stream_output_adapter@_W@__crt_stdio_output@@@2@@__crt_stdio_output@@AAE_NXZ 1004f830 f i libucrtd:output.obj
 0001:0004e8e0       ?state_case_flag@?$output_processor@_WV?$string_output_adapter@_W@__crt_stdio_output@@V?$format_validation_base@_WV?$string_output_adapter@_W@__crt_stdio_output@@@2@@__crt_stdio_output@@AAE_NXZ 1004f8e0 f i libucrtd:output.obj
 0001:0004e990       ?state_case_flag@?$output_processor@_WV?$string_output_adapter@_W@__crt_stdio_output@@V?$positional_parameter_base@_WV?$string_output_adapter@_W@__crt_stdio_output@@@2@@__crt_stdio_output@@AAE_NXZ 1004f990 f i libucrtd:output.obj
 0001:0004ea40       ?state_case_flag@?$output_processor@_WV?$string_output_adapter@_W@__crt_stdio_output@@V?$standard_base@_WV?$string_output_adapter@_W@__crt_stdio_output@@@2@@__crt_stdio_output@@AAE_NXZ 1004fa40 f i libucrtd:output.obj
 0001:0004eaf0       ?state_case_normal@?$output_processor@DV?$stream_output_adapter@D@__crt_stdio_output@@V?$format_validation_base@DV?$stream_output_adapter@D@__crt_stdio_output@@@2@@__crt_stdio_output@@AAE_NXZ 1004faf0 f i libucrtd:output.obj
 0001:0004eba0       ?state_case_normal@?$output_processor@DV?$stream_output_adapter@D@__crt_stdio_output@@V?$positional_parameter_base@DV?$stream_output_adapter@D@__crt_stdio_output@@@2@@__crt_stdio_output@@AAE_NXZ 1004fba0 f i libucrtd:output.obj
 0001:0004ec50       ?state_case_normal@?$output_processor@DV?$stream_output_adapter@D@__crt_stdio_output@@V?$standard_base@DV?$stream_output_adapter@D@__crt_stdio_output@@@2@@__crt_stdio_output@@AAE_NXZ 1004fc50 f i libucrtd:output.obj
 0001:0004ed00       ?state_case_normal@?$output_processor@DV?$string_output_adapter@D@__crt_stdio_output@@V?$format_validation_base@DV?$string_output_adapter@D@__crt_stdio_output@@@2@@__crt_stdio_output@@AAE_NXZ 1004fd00 f i libucrtd:output.obj
 0001:0004edb0       ?state_case_normal@?$output_processor@DV?$string_output_adapter@D@__crt_stdio_output@@V?$positional_parameter_base@DV?$string_output_adapter@D@__crt_stdio_output@@@2@@__crt_stdio_output@@AAE_NXZ 1004fdb0 f i libucrtd:output.obj
 0001:0004ee60       ?state_case_normal@?$output_processor@DV?$string_output_adapter@D@__crt_stdio_output@@V?$standard_base@DV?$string_output_adapter@D@__crt_stdio_output@@@2@@__crt_stdio_output@@AAE_NXZ 1004fe60 f i libucrtd:output.obj
 0001:0004ef10       ?state_case_normal@?$output_processor@_WV?$stream_output_adapter@_W@__crt_stdio_output@@V?$format_validation_base@_WV?$stream_output_adapter@_W@__crt_stdio_output@@@2@@__crt_stdio_output@@AAE_NXZ 1004ff10 f i libucrtd:output.obj
 0001:0004efc0       ?state_case_normal@?$output_processor@_WV?$stream_output_adapter@_W@__crt_stdio_output@@V?$positional_parameter_base@_WV?$stream_output_adapter@_W@__crt_stdio_output@@@2@@__crt_stdio_output@@AAE_NXZ 1004ffc0 f i libucrtd:output.obj
 0001:0004f070       ?state_case_normal@?$output_processor@_WV?$stream_output_adapter@_W@__crt_stdio_output@@V?$standard_base@_WV?$stream_output_adapter@_W@__crt_stdio_output@@@2@@__crt_stdio_output@@AAE_NXZ 10050070 f i libucrtd:output.obj
 0001:0004f120       ?state_case_normal@?$output_processor@_WV?$string_output_adapter@_W@__crt_stdio_output@@V?$format_validation_base@_WV?$string_output_adapter@_W@__crt_stdio_output@@@2@@__crt_stdio_output@@AAE_NXZ 10050120 f i libucrtd:output.obj
 0001:0004f1d0       ?state_case_normal@?$output_processor@_WV?$string_output_adapter@_W@__crt_stdio_output@@V?$positional_parameter_base@_WV?$string_output_adapter@_W@__crt_stdio_output@@@2@@__crt_stdio_output@@AAE_NXZ 100501d0 f i libucrtd:output.obj
 0001:0004f280       ?state_case_normal@?$output_processor@_WV?$string_output_adapter@_W@__crt_stdio_output@@V?$standard_base@_WV?$string_output_adapter@_W@__crt_stdio_output@@@2@@__crt_stdio_output@@AAE_NXZ 10050280 f i libucrtd:output.obj
 0001:0004f330       ?state_case_normal_common@?$output_processor@DV?$stream_output_adapter@D@__crt_stdio_output@@V?$format_validation_base@DV?$stream_output_adapter@D@__crt_stdio_output@@@2@@__crt_stdio_output@@AAE_NXZ 10050330 f i libucrtd:output.obj
 0001:0004f380       ?state_case_normal_common@?$output_processor@DV?$stream_output_adapter@D@__crt_stdio_output@@V?$positional_parameter_base@DV?$stream_output_adapter@D@__crt_stdio_output@@@2@@__crt_stdio_output@@AAE_NXZ 10050380 f i libucrtd:output.obj
 0001:0004f3d0       ?state_case_normal_common@?$output_processor@DV?$stream_output_adapter@D@__crt_stdio_output@@V?$standard_base@DV?$stream_output_adapter@D@__crt_stdio_output@@@2@@__crt_stdio_output@@AAE_NXZ 100503d0 f i libucrtd:output.obj
 0001:0004f420       ?state_case_normal_common@?$output_processor@DV?$string_output_adapter@D@__crt_stdio_output@@V?$format_validation_base@DV?$string_output_adapter@D@__crt_stdio_output@@@2@@__crt_stdio_output@@AAE_NXZ 10050420 f i libucrtd:output.obj
 0001:0004f470       ?state_case_normal_common@?$output_processor@DV?$string_output_adapter@D@__crt_stdio_output@@V?$positional_parameter_base@DV?$string_output_adapter@D@__crt_stdio_output@@@2@@__crt_stdio_output@@AAE_NXZ 10050470 f i libucrtd:output.obj
 0001:0004f4c0       ?state_case_normal_common@?$output_processor@DV?$string_output_adapter@D@__crt_stdio_output@@V?$standard_base@DV?$string_output_adapter@D@__crt_stdio_output@@@2@@__crt_stdio_output@@AAE_NXZ 100504c0 f i libucrtd:output.obj
 0001:0004f510       ?state_case_normal_common@?$output_processor@_WV?$stream_output_adapter@_W@__crt_stdio_output@@V?$format_validation_base@_WV?$stream_output_adapter@_W@__crt_stdio_output@@@2@@__crt_stdio_output@@AAE_NXZ 10050510 f i libucrtd:output.obj
 0001:0004f560       ?state_case_normal_common@?$output_processor@_WV?$stream_output_adapter@_W@__crt_stdio_output@@V?$positional_parameter_base@_WV?$stream_output_adapter@_W@__crt_stdio_output@@@2@@__crt_stdio_output@@AAE_NXZ 10050560 f i libucrtd:output.obj
 0001:0004f5b0       ?state_case_normal_common@?$output_processor@_WV?$stream_output_adapter@_W@__crt_stdio_output@@V?$standard_base@_WV?$stream_output_adapter@_W@__crt_stdio_output@@@2@@__crt_stdio_output@@AAE_NXZ 100505b0 f i libucrtd:output.obj
 0001:0004f600       ?state_case_normal_common@?$output_processor@_WV?$string_output_adapter@_W@__crt_stdio_output@@V?$format_validation_base@_WV?$string_output_adapter@_W@__crt_stdio_output@@@2@@__crt_stdio_output@@AAE_NXZ 10050600 f i libucrtd:output.obj
 0001:0004f650       ?state_case_normal_common@?$output_processor@_WV?$string_output_adapter@_W@__crt_stdio_output@@V?$positional_parameter_base@_WV?$string_output_adapter@_W@__crt_stdio_output@@@2@@__crt_stdio_output@@AAE_NXZ 10050650 f i libucrtd:output.obj
 0001:0004f6a0       ?state_case_normal_common@?$output_processor@_WV?$string_output_adapter@_W@__crt_stdio_output@@V?$standard_base@_WV?$string_output_adapter@_W@__crt_stdio_output@@@2@@__crt_stdio_output@@AAE_NXZ 100506a0 f i libucrtd:output.obj
 0001:0004f6f0       ?state_case_normal_tchar@?$output_processor@DV?$stream_output_adapter@D@__crt_stdio_output@@V?$format_validation_base@DV?$stream_output_adapter@D@__crt_stdio_output@@@2@@__crt_stdio_output@@AAE_ND@Z 100506f0 f i libucrtd:output.obj
 0001:0004f7f0       ?state_case_normal_tchar@?$output_processor@DV?$stream_output_adapter@D@__crt_stdio_output@@V?$positional_parameter_base@DV?$stream_output_adapter@D@__crt_stdio_output@@@2@@__crt_stdio_output@@AAE_ND@Z 100507f0 f i libucrtd:output.obj
 0001:0004f8f0       ?state_case_normal_tchar@?$output_processor@DV?$stream_output_adapter@D@__crt_stdio_output@@V?$standard_base@DV?$stream_output_adapter@D@__crt_stdio_output@@@2@@__crt_stdio_output@@AAE_ND@Z 100508f0 f i libucrtd:output.obj
 0001:0004f9f0       ?state_case_normal_tchar@?$output_processor@DV?$string_output_adapter@D@__crt_stdio_output@@V?$format_validation_base@DV?$string_output_adapter@D@__crt_stdio_output@@@2@@__crt_stdio_output@@AAE_ND@Z 100509f0 f i libucrtd:output.obj
 0001:0004faf0       ?state_case_normal_tchar@?$output_processor@DV?$string_output_adapter@D@__crt_stdio_output@@V?$positional_parameter_base@DV?$string_output_adapter@D@__crt_stdio_output@@@2@@__crt_stdio_output@@AAE_ND@Z 10050af0 f i libucrtd:output.obj
 0001:0004fbf0       ?state_case_normal_tchar@?$output_processor@DV?$string_output_adapter@D@__crt_stdio_output@@V?$standard_base@DV?$string_output_adapter@D@__crt_stdio_output@@@2@@__crt_stdio_output@@AAE_ND@Z 10050bf0 f i libucrtd:output.obj
 0001:0004fcf0       ?state_case_normal_tchar@?$output_processor@_WV?$stream_output_adapter@_W@__crt_stdio_output@@V?$format_validation_base@_WV?$stream_output_adapter@_W@__crt_stdio_output@@@2@@__crt_stdio_output@@AAE_N_W@Z 10050cf0 f i libucrtd:output.obj
 0001:0004fd10       ?state_case_normal_tchar@?$output_processor@_WV?$stream_output_adapter@_W@__crt_stdio_output@@V?$positional_parameter_base@_WV?$stream_output_adapter@_W@__crt_stdio_output@@@2@@__crt_stdio_output@@AAE_N_W@Z 10050d10 f i libucrtd:output.obj
 0001:0004fd30       ?state_case_normal_tchar@?$output_processor@_WV?$stream_output_adapter@_W@__crt_stdio_output@@V?$standard_base@_WV?$stream_output_adapter@_W@__crt_stdio_output@@@2@@__crt_stdio_output@@AAE_N_W@Z 10050d30 f i libucrtd:output.obj
 0001:0004fd50       ?state_case_normal_tchar@?$output_processor@_WV?$string_output_adapter@_W@__crt_stdio_output@@V?$format_validation_base@_WV?$string_output_adapter@_W@__crt_stdio_output@@@2@@__crt_stdio_output@@AAE_N_W@Z 10050d50 f i libucrtd:output.obj
 0001:0004fd70       ?state_case_normal_tchar@?$output_processor@_WV?$string_output_adapter@_W@__crt_stdio_output@@V?$positional_parameter_base@_WV?$string_output_adapter@_W@__crt_stdio_output@@@2@@__crt_stdio_output@@AAE_N_W@Z 10050d70 f i libucrtd:output.obj
 0001:0004fd90       ?state_case_normal_tchar@?$output_processor@_WV?$string_output_adapter@_W@__crt_stdio_output@@V?$standard_base@_WV?$string_output_adapter@_W@__crt_stdio_output@@@2@@__crt_stdio_output@@AAE_N_W@Z 10050d90 f i libucrtd:output.obj
 0001:0004fdb0       ?state_case_percent@?$output_processor@DV?$stream_output_adapter@D@__crt_stdio_output@@V?$format_validation_base@DV?$stream_output_adapter@D@__crt_stdio_output@@@2@@__crt_stdio_output@@AAE_NXZ 10050db0 f i libucrtd:output.obj
 0001:0004fe00       ?state_case_percent@?$output_processor@DV?$stream_output_adapter@D@__crt_stdio_output@@V?$positional_parameter_base@DV?$stream_output_adapter@D@__crt_stdio_output@@@2@@__crt_stdio_output@@AAE_NXZ 10050e00 f i libucrtd:output.obj
 0001:0004fe50       ?state_case_percent@?$output_processor@DV?$stream_output_adapter@D@__crt_stdio_output@@V?$standard_base@DV?$stream_output_adapter@D@__crt_stdio_output@@@2@@__crt_stdio_output@@AAE_NXZ 10050e50 f i libucrtd:output.obj
 0001:0004fea0       ?state_case_percent@?$output_processor@DV?$string_output_adapter@D@__crt_stdio_output@@V?$format_validation_base@DV?$string_output_adapter@D@__crt_stdio_output@@@2@@__crt_stdio_output@@AAE_NXZ 10050ea0 f i libucrtd:output.obj
 0001:0004fef0       ?state_case_percent@?$output_processor@DV?$string_output_adapter@D@__crt_stdio_output@@V?$positional_parameter_base@DV?$string_output_adapter@D@__crt_stdio_output@@@2@@__crt_stdio_output@@AAE_NXZ 10050ef0 f i libucrtd:output.obj
 0001:0004ff40       ?state_case_percent@?$output_processor@DV?$string_output_adapter@D@__crt_stdio_output@@V?$standard_base@DV?$string_output_adapter@D@__crt_stdio_output@@@2@@__crt_stdio_output@@AAE_NXZ 10050f40 f i libucrtd:output.obj
 0001:0004ff90       ?state_case_percent@?$output_processor@_WV?$stream_output_adapter@_W@__crt_stdio_output@@V?$format_validation_base@_WV?$stream_output_adapter@_W@__crt_stdio_output@@@2@@__crt_stdio_output@@AAE_NXZ 10050f90 f i libucrtd:output.obj
 0001:0004ffe0       ?state_case_percent@?$output_processor@_WV?$stream_output_adapter@_W@__crt_stdio_output@@V?$positional_parameter_base@_WV?$stream_output_adapter@_W@__crt_stdio_output@@@2@@__crt_stdio_output@@AAE_NXZ 10050fe0 f i libucrtd:output.obj
 0001:00050030       ?state_case_percent@?$output_processor@_WV?$stream_output_adapter@_W@__crt_stdio_output@@V?$standard_base@_WV?$stream_output_adapter@_W@__crt_stdio_output@@@2@@__crt_stdio_output@@AAE_NXZ 10051030 f i libucrtd:output.obj
 0001:00050080       ?state_case_percent@?$output_processor@_WV?$string_output_adapter@_W@__crt_stdio_output@@V?$format_validation_base@_WV?$string_output_adapter@_W@__crt_stdio_output@@@2@@__crt_stdio_output@@AAE_NXZ 10051080 f i libucrtd:output.obj
 0001:000500d0       ?state_case_percent@?$output_processor@_WV?$string_output_adapter@_W@__crt_stdio_output@@V?$positional_parameter_base@_WV?$string_output_adapter@_W@__crt_stdio_output@@@2@@__crt_stdio_output@@AAE_NXZ 100510d0 f i libucrtd:output.obj
 0001:00050120       ?state_case_percent@?$output_processor@_WV?$string_output_adapter@_W@__crt_stdio_output@@V?$standard_base@_WV?$string_output_adapter@_W@__crt_stdio_output@@@2@@__crt_stdio_output@@AAE_NXZ 10051120 f i libucrtd:output.obj
 0001:00050170       ?state_case_precision@?$output_processor@DV?$stream_output_adapter@D@__crt_stdio_output@@V?$format_validation_base@DV?$stream_output_adapter@D@__crt_stdio_output@@@2@@__crt_stdio_output@@AAE_NXZ 10051170 f i libucrtd:output.obj
 0001:000501e0       ?state_case_precision@?$output_processor@DV?$stream_output_adapter@D@__crt_stdio_output@@V?$positional_parameter_base@DV?$stream_output_adapter@D@__crt_stdio_output@@@2@@__crt_stdio_output@@AAE_NXZ 100511e0 f i libucrtd:output.obj
 0001:00050250       ?state_case_precision@?$output_processor@DV?$stream_output_adapter@D@__crt_stdio_output@@V?$standard_base@DV?$stream_output_adapter@D@__crt_stdio_output@@@2@@__crt_stdio_output@@AAE_NXZ 10051250 f i libucrtd:output.obj
 0001:000502c0       ?state_case_precision@?$output_processor@DV?$string_output_adapter@D@__crt_stdio_output@@V?$format_validation_base@DV?$string_output_adapter@D@__crt_stdio_output@@@2@@__crt_stdio_output@@AAE_NXZ 100512c0 f i libucrtd:output.obj
 0001:00050330       ?state_case_precision@?$output_processor@DV?$string_output_adapter@D@__crt_stdio_output@@V?$positional_parameter_base@DV?$string_output_adapter@D@__crt_stdio_output@@@2@@__crt_stdio_output@@AAE_NXZ 10051330 f i libucrtd:output.obj
 0001:000503a0       ?state_case_precision@?$output_processor@DV?$string_output_adapter@D@__crt_stdio_output@@V?$standard_base@DV?$string_output_adapter@D@__crt_stdio_output@@@2@@__crt_stdio_output@@AAE_NXZ 100513a0 f i libucrtd:output.obj
 0001:00050410       ?state_case_precision@?$output_processor@_WV?$stream_output_adapter@_W@__crt_stdio_output@@V?$format_validation_base@_WV?$stream_output_adapter@_W@__crt_stdio_output@@@2@@__crt_stdio_output@@AAE_NXZ 10051410 f i libucrtd:output.obj
 0001:00050480       ?state_case_precision@?$output_processor@_WV?$stream_output_adapter@_W@__crt_stdio_output@@V?$positional_parameter_base@_WV?$stream_output_adapter@_W@__crt_stdio_output@@@2@@__crt_stdio_output@@AAE_NXZ 10051480 f i libucrtd:output.obj
 0001:000504f0       ?state_case_precision@?$output_processor@_WV?$stream_output_adapter@_W@__crt_stdio_output@@V?$standard_base@_WV?$stream_output_adapter@_W@__crt_stdio_output@@@2@@__crt_stdio_output@@AAE_NXZ 100514f0 f i libucrtd:output.obj
 0001:00050560       ?state_case_precision@?$output_processor@_WV?$string_output_adapter@_W@__crt_stdio_output@@V?$format_validation_base@_WV?$string_output_adapter@_W@__crt_stdio_output@@@2@@__crt_stdio_output@@AAE_NXZ 10051560 f i libucrtd:output.obj
 0001:000505d0       ?state_case_precision@?$output_processor@_WV?$string_output_adapter@_W@__crt_stdio_output@@V?$positional_parameter_base@_WV?$string_output_adapter@_W@__crt_stdio_output@@@2@@__crt_stdio_output@@AAE_NXZ 100515d0 f i libucrtd:output.obj
 0001:00050640       ?state_case_precision@?$output_processor@_WV?$string_output_adapter@_W@__crt_stdio_output@@V?$standard_base@_WV?$string_output_adapter@_W@__crt_stdio_output@@@2@@__crt_stdio_output@@AAE_NXZ 10051640 f i libucrtd:output.obj
 0001:000506b0       ?state_case_size@?$output_processor@DV?$stream_output_adapter@D@__crt_stdio_output@@V?$format_validation_base@DV?$stream_output_adapter@D@__crt_stdio_output@@@2@@__crt_stdio_output@@AAE_NXZ 100516b0 f i libucrtd:output.obj
 0001:00050a80       ?state_case_size@?$output_processor@DV?$stream_output_adapter@D@__crt_stdio_output@@V?$positional_parameter_base@DV?$stream_output_adapter@D@__crt_stdio_output@@@2@@__crt_stdio_output@@AAE_NXZ 10051a80 f i libucrtd:output.obj
 0001:00050e50       ?state_case_size@?$output_processor@DV?$stream_output_adapter@D@__crt_stdio_output@@V?$standard_base@DV?$stream_output_adapter@D@__crt_stdio_output@@@2@@__crt_stdio_output@@AAE_NXZ 10051e50 f i libucrtd:output.obj
 0001:00051220       ?state_case_size@?$output_processor@DV?$string_output_adapter@D@__crt_stdio_output@@V?$format_validation_base@DV?$string_output_adapter@D@__crt_stdio_output@@@2@@__crt_stdio_output@@AAE_NXZ 10052220 f i libucrtd:output.obj
 0001:000515f0       ?state_case_size@?$output_processor@DV?$string_output_adapter@D@__crt_stdio_output@@V?$positional_parameter_base@DV?$string_output_adapter@D@__crt_stdio_output@@@2@@__crt_stdio_output@@AAE_NXZ 100525f0 f i libucrtd:output.obj
 0001:000519c0       ?state_case_size@?$output_processor@DV?$string_output_adapter@D@__crt_stdio_output@@V?$standard_base@DV?$string_output_adapter@D@__crt_stdio_output@@@2@@__crt_stdio_output@@AAE_NXZ 100529c0 f i libucrtd:output.obj
 0001:00051d90       ?state_case_size@?$output_processor@_WV?$stream_output_adapter@_W@__crt_stdio_output@@V?$format_validation_base@_WV?$stream_output_adapter@_W@__crt_stdio_output@@@2@@__crt_stdio_output@@AAE_NXZ 10052d90 f i libucrtd:output.obj
 0001:00052160       ?state_case_size@?$output_processor@_WV?$stream_output_adapter@_W@__crt_stdio_output@@V?$positional_parameter_base@_WV?$stream_output_adapter@_W@__crt_stdio_output@@@2@@__crt_stdio_output@@AAE_NXZ 10053160 f i libucrtd:output.obj
 0001:00052530       ?state_case_size@?$output_processor@_WV?$stream_output_adapter@_W@__crt_stdio_output@@V?$standard_base@_WV?$stream_output_adapter@_W@__crt_stdio_output@@@2@@__crt_stdio_output@@AAE_NXZ 10053530 f i libucrtd:output.obj
 0001:00052900       ?state_case_size@?$output_processor@_WV?$string_output_adapter@_W@__crt_stdio_output@@V?$format_validation_base@_WV?$string_output_adapter@_W@__crt_stdio_output@@@2@@__crt_stdio_output@@AAE_NXZ 10053900 f i libucrtd:output.obj
 0001:00052cd0       ?state_case_size@?$output_processor@_WV?$string_output_adapter@_W@__crt_stdio_output@@V?$positional_parameter_base@_WV?$string_output_adapter@_W@__crt_stdio_output@@@2@@__crt_stdio_output@@AAE_NXZ 10053cd0 f i libucrtd:output.obj
 0001:000530a0       ?state_case_size@?$output_processor@_WV?$string_output_adapter@_W@__crt_stdio_output@@V?$standard_base@_WV?$string_output_adapter@_W@__crt_stdio_output@@@2@@__crt_stdio_output@@AAE_NXZ 100540a0 f i libucrtd:output.obj
 0001:00053470       ?state_case_type@?$output_processor@DV?$stream_output_adapter@D@__crt_stdio_output@@V?$format_validation_base@DV?$stream_output_adapter@D@__crt_stdio_output@@@2@@__crt_stdio_output@@AAE_NXZ 10054470 f i libucrtd:output.obj
 0001:00053820       ?state_case_type@?$output_processor@DV?$stream_output_adapter@D@__crt_stdio_output@@V?$positional_parameter_base@DV?$stream_output_adapter@D@__crt_stdio_output@@@2@@__crt_stdio_output@@AAE_NXZ 10054820 f i libucrtd:output.obj
 0001:00053bd0       ?state_case_type@?$output_processor@DV?$stream_output_adapter@D@__crt_stdio_output@@V?$standard_base@DV?$stream_output_adapter@D@__crt_stdio_output@@@2@@__crt_stdio_output@@AAE_NXZ 10054bd0 f i libucrtd:output.obj
 0001:00053f80       ?state_case_type@?$output_processor@DV?$string_output_adapter@D@__crt_stdio_output@@V?$format_validation_base@DV?$string_output_adapter@D@__crt_stdio_output@@@2@@__crt_stdio_output@@AAE_NXZ 10054f80 f i libucrtd:output.obj
 0001:00054330       ?state_case_type@?$output_processor@DV?$string_output_adapter@D@__crt_stdio_output@@V?$positional_parameter_base@DV?$string_output_adapter@D@__crt_stdio_output@@@2@@__crt_stdio_output@@AAE_NXZ 10055330 f i libucrtd:output.obj
 0001:000546e0       ?state_case_type@?$output_processor@DV?$string_output_adapter@D@__crt_stdio_output@@V?$standard_base@DV?$string_output_adapter@D@__crt_stdio_output@@@2@@__crt_stdio_output@@AAE_NXZ 100556e0 f i libucrtd:output.obj
 0001:00054a90       ?state_case_type@?$output_processor@_WV?$stream_output_adapter@_W@__crt_stdio_output@@V?$format_validation_base@_WV?$stream_output_adapter@_W@__crt_stdio_output@@@2@@__crt_stdio_output@@AAE_NXZ 10055a90 f i libucrtd:output.obj
 0001:00054e70       ?state_case_type@?$output_processor@_WV?$stream_output_adapter@_W@__crt_stdio_output@@V?$positional_parameter_base@_WV?$stream_output_adapter@_W@__crt_stdio_output@@@2@@__crt_stdio_output@@AAE_NXZ 10055e70 f i libucrtd:output.obj
 0001:00055250       ?state_case_type@?$output_processor@_WV?$stream_output_adapter@_W@__crt_stdio_output@@V?$standard_base@_WV?$stream_output_adapter@_W@__crt_stdio_output@@@2@@__crt_stdio_output@@AAE_NXZ 10056250 f i libucrtd:output.obj
 0001:00055630       ?state_case_type@?$output_processor@_WV?$string_output_adapter@_W@__crt_stdio_output@@V?$format_validation_base@_WV?$string_output_adapter@_W@__crt_stdio_output@@@2@@__crt_stdio_output@@AAE_NXZ 10056630 f i libucrtd:output.obj
 0001:00055a10       ?state_case_type@?$output_processor@_WV?$string_output_adapter@_W@__crt_stdio_output@@V?$positional_parameter_base@_WV?$string_output_adapter@_W@__crt_stdio_output@@@2@@__crt_stdio_output@@AAE_NXZ 10056a10 f i libucrtd:output.obj
 0001:00055df0       ?state_case_type@?$output_processor@_WV?$string_output_adapter@_W@__crt_stdio_output@@V?$standard_base@_WV?$string_output_adapter@_W@__crt_stdio_output@@@2@@__crt_stdio_output@@AAE_NXZ 10056df0 f i libucrtd:output.obj
 0001:000561d0       ?state_case_width@?$output_processor@DV?$stream_output_adapter@D@__crt_stdio_output@@V?$format_validation_base@DV?$stream_output_adapter@D@__crt_stdio_output@@@2@@__crt_stdio_output@@AAE_NXZ 100571d0 f i libucrtd:output.obj
 0001:00056250       ?state_case_width@?$output_processor@DV?$stream_output_adapter@D@__crt_stdio_output@@V?$positional_parameter_base@DV?$stream_output_adapter@D@__crt_stdio_output@@@2@@__crt_stdio_output@@AAE_NXZ 10057250 f i libucrtd:output.obj
 0001:000562d0       ?state_case_width@?$output_processor@DV?$stream_output_adapter@D@__crt_stdio_output@@V?$standard_base@DV?$stream_output_adapter@D@__crt_stdio_output@@@2@@__crt_stdio_output@@AAE_NXZ 100572d0 f i libucrtd:output.obj
 0001:00056350       ?state_case_width@?$output_processor@DV?$string_output_adapter@D@__crt_stdio_output@@V?$format_validation_base@DV?$string_output_adapter@D@__crt_stdio_output@@@2@@__crt_stdio_output@@AAE_NXZ 10057350 f i libucrtd:output.obj
 0001:000563d0       ?state_case_width@?$output_processor@DV?$string_output_adapter@D@__crt_stdio_output@@V?$positional_parameter_base@DV?$string_output_adapter@D@__crt_stdio_output@@@2@@__crt_stdio_output@@AAE_NXZ 100573d0 f i libucrtd:output.obj
 0001:00056450       ?state_case_width@?$output_processor@DV?$string_output_adapter@D@__crt_stdio_output@@V?$standard_base@DV?$string_output_adapter@D@__crt_stdio_output@@@2@@__crt_stdio_output@@AAE_NXZ 10057450 f i libucrtd:output.obj
 0001:000564d0       ?state_case_width@?$output_processor@_WV?$stream_output_adapter@_W@__crt_stdio_output@@V?$format_validation_base@_WV?$stream_output_adapter@_W@__crt_stdio_output@@@2@@__crt_stdio_output@@AAE_NXZ 100574d0 f i libucrtd:output.obj
 0001:00056550       ?state_case_width@?$output_processor@_WV?$stream_output_adapter@_W@__crt_stdio_output@@V?$positional_parameter_base@_WV?$stream_output_adapter@_W@__crt_stdio_output@@@2@@__crt_stdio_output@@AAE_NXZ 10057550 f i libucrtd:output.obj
 0001:000565d0       ?state_case_width@?$output_processor@_WV?$stream_output_adapter@_W@__crt_stdio_output@@V?$standard_base@_WV?$stream_output_adapter@_W@__crt_stdio_output@@@2@@__crt_stdio_output@@AAE_NXZ 100575d0 f i libucrtd:output.obj
 0001:00056650       ?state_case_width@?$output_processor@_WV?$string_output_adapter@_W@__crt_stdio_output@@V?$format_validation_base@_WV?$string_output_adapter@_W@__crt_stdio_output@@@2@@__crt_stdio_output@@AAE_NXZ 10057650 f i libucrtd:output.obj
 0001:000566d0       ?state_case_width@?$output_processor@_WV?$string_output_adapter@_W@__crt_stdio_output@@V?$positional_parameter_base@_WV?$string_output_adapter@_W@__crt_stdio_output@@@2@@__crt_stdio_output@@AAE_NXZ 100576d0 f i libucrtd:output.obj
 0001:00056750       ?state_case_width@?$output_processor@_WV?$string_output_adapter@_W@__crt_stdio_output@@V?$standard_base@_WV?$string_output_adapter@_W@__crt_stdio_output@@@2@@__crt_stdio_output@@AAE_NXZ 10057750 f i libucrtd:output.obj
 0001:000567d0       ?state_count@?$format_validation_base@DV?$stream_output_adapter@D@__crt_stdio_output@@@__crt_stdio_output@@KAIXZ 100577d0 f i libucrtd:output.obj
 0001:000567e0       ?state_count@?$format_validation_base@DV?$string_output_adapter@D@__crt_stdio_output@@@__crt_stdio_output@@KAIXZ 100577e0 f i libucrtd:output.obj
 0001:000567f0       ?state_count@?$format_validation_base@_WV?$stream_output_adapter@_W@__crt_stdio_output@@@__crt_stdio_output@@KAIXZ 100577f0 f i libucrtd:output.obj
 0001:00056800       ?state_count@?$format_validation_base@_WV?$string_output_adapter@_W@__crt_stdio_output@@@__crt_stdio_output@@KAIXZ 10057800 f i libucrtd:output.obj
 0001:00056810       ?state_count@?$standard_base@DV?$stream_output_adapter@D@__crt_stdio_output@@@__crt_stdio_output@@KAIXZ 10057810 f i libucrtd:output.obj
 0001:00056820       ?state_count@?$standard_base@DV?$string_output_adapter@D@__crt_stdio_output@@@__crt_stdio_output@@KAIXZ 10057820 f i libucrtd:output.obj
 0001:00056830       ?state_count@?$standard_base@_WV?$stream_output_adapter@_W@__crt_stdio_output@@@__crt_stdio_output@@KAIXZ 10057830 f i libucrtd:output.obj
 0001:00056840       ?state_count@?$standard_base@_WV?$string_output_adapter@_W@__crt_stdio_output@@@__crt_stdio_output@@KAIXZ 10057840 f i libucrtd:output.obj
 0001:00056850       ?state_transition_table@?$format_validation_base@DV?$stream_output_adapter@D@__crt_stdio_output@@@__crt_stdio_output@@KAPBEXZ 10057850 f i libucrtd:output.obj
 0001:00056860       ?state_transition_table@?$format_validation_base@DV?$string_output_adapter@D@__crt_stdio_output@@@__crt_stdio_output@@KAPBEXZ 10057860 f i libucrtd:output.obj
 0001:00056870       ?state_transition_table@?$format_validation_base@_WV?$stream_output_adapter@_W@__crt_stdio_output@@@__crt_stdio_output@@KAPBEXZ 10057870 f i libucrtd:output.obj
 0001:00056880       ?state_transition_table@?$format_validation_base@_WV?$string_output_adapter@_W@__crt_stdio_output@@@__crt_stdio_output@@KAPBEXZ 10057880 f i libucrtd:output.obj
 0001:00056890       ?state_transition_table@?$standard_base@DV?$stream_output_adapter@D@__crt_stdio_output@@@__crt_stdio_output@@KAPBEXZ 10057890 f i libucrtd:output.obj
 0001:000568a0       ?state_transition_table@?$standard_base@DV?$string_output_adapter@D@__crt_stdio_output@@@__crt_stdio_output@@KAPBEXZ 100578a0 f i libucrtd:output.obj
 0001:000568b0       ?state_transition_table@?$standard_base@_WV?$stream_output_adapter@_W@__crt_stdio_output@@@__crt_stdio_output@@KAPBEXZ 100578b0 f i libucrtd:output.obj
 0001:000568c0       ?state_transition_table@?$standard_base@_WV?$string_output_adapter@_W@__crt_stdio_output@@@__crt_stdio_output@@KAPBEXZ 100578c0 f i libucrtd:output.obj
 0001:000568d0       ?tchar_string@?$common_data@D@__crt_stdio_output@@IAEAAPADD@Z 100578d0 f i libucrtd:output.obj
 0001:000568f0       ?tchar_string@?$common_data@D@__crt_stdio_output@@IAEAAPADXZ 100578f0 f i libucrtd:output.obj
 0001:00056910       ?tchar_string@?$common_data@_W@__crt_stdio_output@@IAEAAPA_WXZ 10057910 f i libucrtd:output.obj
 0001:00056930       ?tchar_string@?$common_data@_W@__crt_stdio_output@@IAEAAPA_W_W@Z 10057930 f i libucrtd:output.obj
 0001:00056950       ?to_integer_size@__crt_stdio_output@@YAIW4length_modifier@1@@Z 10057950 f i libucrtd:output.obj
 0001:000569f0       ?type_case_X@?$output_processor@DV?$stream_output_adapter@D@__crt_stdio_output@@V?$format_validation_base@DV?$stream_output_adapter@D@__crt_stdio_output@@@2@@__crt_stdio_output@@AAE_NXZ 100579f0 f i libucrtd:output.obj
 0001:00056a10       ?type_case_X@?$output_processor@DV?$stream_output_adapter@D@__crt_stdio_output@@V?$positional_parameter_base@DV?$stream_output_adapter@D@__crt_stdio_output@@@2@@__crt_stdio_output@@AAE_NXZ 10057a10 f i libucrtd:output.obj
 0001:00056a30       ?type_case_X@?$output_processor@DV?$stream_output_adapter@D@__crt_stdio_output@@V?$standard_base@DV?$stream_output_adapter@D@__crt_stdio_output@@@2@@__crt_stdio_output@@AAE_NXZ 10057a30 f i libucrtd:output.obj
 0001:00056a50       ?type_case_X@?$output_processor@DV?$string_output_adapter@D@__crt_stdio_output@@V?$format_validation_base@DV?$string_output_adapter@D@__crt_stdio_output@@@2@@__crt_stdio_output@@AAE_NXZ 10057a50 f i libucrtd:output.obj
 0001:00056a70       ?type_case_X@?$output_processor@DV?$string_output_adapter@D@__crt_stdio_output@@V?$positional_parameter_base@DV?$string_output_adapter@D@__crt_stdio_output@@@2@@__crt_stdio_output@@AAE_NXZ 10057a70 f i libucrtd:output.obj
 0001:00056a90       ?type_case_X@?$output_processor@DV?$string_output_adapter@D@__crt_stdio_output@@V?$standard_base@DV?$string_output_adapter@D@__crt_stdio_output@@@2@@__crt_stdio_output@@AAE_NXZ 10057a90 f i libucrtd:output.obj
 0001:00056ab0       ?type_case_X@?$output_processor@_WV?$stream_output_adapter@_W@__crt_stdio_output@@V?$format_validation_base@_WV?$stream_output_adapter@_W@__crt_stdio_output@@@2@@__crt_stdio_output@@AAE_NXZ 10057ab0 f i libucrtd:output.obj
 0001:00056ad0       ?type_case_X@?$output_processor@_WV?$stream_output_adapter@_W@__crt_stdio_output@@V?$positional_parameter_base@_WV?$stream_output_adapter@_W@__crt_stdio_output@@@2@@__crt_stdio_output@@AAE_NXZ 10057ad0 f i libucrtd:output.obj
 0001:00056af0       ?type_case_X@?$output_processor@_WV?$stream_output_adapter@_W@__crt_stdio_output@@V?$standard_base@_WV?$stream_output_adapter@_W@__crt_stdio_output@@@2@@__crt_stdio_output@@AAE_NXZ 10057af0 f i libucrtd:output.obj
 0001:00056b10       ?type_case_X@?$output_processor@_WV?$string_output_adapter@_W@__crt_stdio_output@@V?$format_validation_base@_WV?$string_output_adapter@_W@__crt_stdio_output@@@2@@__crt_stdio_output@@AAE_NXZ 10057b10 f i libucrtd:output.obj
 0001:00056b30       ?type_case_X@?$output_processor@_WV?$string_output_adapter@_W@__crt_stdio_output@@V?$positional_parameter_base@_WV?$string_output_adapter@_W@__crt_stdio_output@@@2@@__crt_stdio_output@@AAE_NXZ 10057b30 f i libucrtd:output.obj
 0001:00056b50       ?type_case_X@?$output_processor@_WV?$string_output_adapter@_W@__crt_stdio_output@@V?$standard_base@_WV?$string_output_adapter@_W@__crt_stdio_output@@@2@@__crt_stdio_output@@AAE_NXZ 10057b50 f i libucrtd:output.obj
 0001:00056b70       ?type_case_Z@?$output_processor@DV?$stream_output_adapter@D@__crt_stdio_output@@V?$format_validation_base@DV?$stream_output_adapter@D@__crt_stdio_output@@@2@@__crt_stdio_output@@AAE_NXZ 10057b70 f i libucrtd:output.obj
 0001:00056c60       ?type_case_Z@?$output_processor@DV?$stream_output_adapter@D@__crt_stdio_output@@V?$positional_parameter_base@DV?$stream_output_adapter@D@__crt_stdio_output@@@2@@__crt_stdio_output@@AAE_NXZ 10057c60 f i libucrtd:output.obj
 0001:00056d50       ?type_case_Z@?$output_processor@DV?$stream_output_adapter@D@__crt_stdio_output@@V?$standard_base@DV?$stream_output_adapter@D@__crt_stdio_output@@@2@@__crt_stdio_output@@AAE_NXZ 10057d50 f i libucrtd:output.obj
 0001:00056e40       ?type_case_Z@?$output_processor@DV?$string_output_adapter@D@__crt_stdio_output@@V?$format_validation_base@DV?$string_output_adapter@D@__crt_stdio_output@@@2@@__crt_stdio_output@@AAE_NXZ 10057e40 f i libucrtd:output.obj
 0001:00056f30       ?type_case_Z@?$output_processor@DV?$string_output_adapter@D@__crt_stdio_output@@V?$positional_parameter_base@DV?$string_output_adapter@D@__crt_stdio_output@@@2@@__crt_stdio_output@@AAE_NXZ 10057f30 f i libucrtd:output.obj
 0001:00057020       ?type_case_Z@?$output_processor@DV?$string_output_adapter@D@__crt_stdio_output@@V?$standard_base@DV?$string_output_adapter@D@__crt_stdio_output@@@2@@__crt_stdio_output@@AAE_NXZ 10058020 f i libucrtd:output.obj
 0001:00057110       ?type_case_Z@?$output_processor@_WV?$stream_output_adapter@_W@__crt_stdio_output@@V?$format_validation_base@_WV?$stream_output_adapter@_W@__crt_stdio_output@@@2@@__crt_stdio_output@@AAE_NXZ 10058110 f i libucrtd:output.obj
 0001:00057200       ?type_case_Z@?$output_processor@_WV?$stream_output_adapter@_W@__crt_stdio_output@@V?$positional_parameter_base@_WV?$stream_output_adapter@_W@__crt_stdio_output@@@2@@__crt_stdio_output@@AAE_NXZ 10058200 f i libucrtd:output.obj
 0001:000572f0       ?type_case_Z@?$output_processor@_WV?$stream_output_adapter@_W@__crt_stdio_output@@V?$standard_base@_WV?$stream_output_adapter@_W@__crt_stdio_output@@@2@@__crt_stdio_output@@AAE_NXZ 100582f0 f i libucrtd:output.obj
 0001:000573e0       ?type_case_Z@?$output_processor@_WV?$string_output_adapter@_W@__crt_stdio_output@@V?$format_validation_base@_WV?$string_output_adapter@_W@__crt_stdio_output@@@2@@__crt_stdio_output@@AAE_NXZ 100583e0 f i libucrtd:output.obj
 0001:000574d0       ?type_case_Z@?$output_processor@_WV?$string_output_adapter@_W@__crt_stdio_output@@V?$positional_parameter_base@_WV?$string_output_adapter@_W@__crt_stdio_output@@@2@@__crt_stdio_output@@AAE_NXZ 100584d0 f i libucrtd:output.obj
 0001:000575c0       ?type_case_Z@?$output_processor@_WV?$string_output_adapter@_W@__crt_stdio_output@@V?$standard_base@_WV?$string_output_adapter@_W@__crt_stdio_output@@@2@@__crt_stdio_output@@AAE_NXZ 100585c0 f i libucrtd:output.obj
 0001:000576b0       ?type_case_a@?$output_processor@DV?$stream_output_adapter@D@__crt_stdio_output@@V?$format_validation_base@DV?$stream_output_adapter@D@__crt_stdio_output@@@2@@__crt_stdio_output@@AAE_NXZ 100586b0 f i libucrtd:output.obj
 0001:00057920       ?type_case_a@?$output_processor@DV?$stream_output_adapter@D@__crt_stdio_output@@V?$positional_parameter_base@DV?$stream_output_adapter@D@__crt_stdio_output@@@2@@__crt_stdio_output@@AAE_NXZ 10058920 f i libucrtd:output.obj
 0001:00057b90       ?type_case_a@?$output_processor@DV?$stream_output_adapter@D@__crt_stdio_output@@V?$standard_base@DV?$stream_output_adapter@D@__crt_stdio_output@@@2@@__crt_stdio_output@@AAE_NXZ 10058b90 f i libucrtd:output.obj
 0001:00057e00       ?type_case_a@?$output_processor@DV?$string_output_adapter@D@__crt_stdio_output@@V?$format_validation_base@DV?$string_output_adapter@D@__crt_stdio_output@@@2@@__crt_stdio_output@@AAE_NXZ 10058e00 f i libucrtd:output.obj
 0001:00058070       ?type_case_a@?$output_processor@DV?$string_output_adapter@D@__crt_stdio_output@@V?$positional_parameter_base@DV?$string_output_adapter@D@__crt_stdio_output@@@2@@__crt_stdio_output@@AAE_NXZ 10059070 f i libucrtd:output.obj
 0001:000582e0       ?type_case_a@?$output_processor@DV?$string_output_adapter@D@__crt_stdio_output@@V?$standard_base@DV?$string_output_adapter@D@__crt_stdio_output@@@2@@__crt_stdio_output@@AAE_NXZ 100592e0 f i libucrtd:output.obj
 0001:00058550       ?type_case_a@?$output_processor@_WV?$stream_output_adapter@_W@__crt_stdio_output@@V?$format_validation_base@_WV?$stream_output_adapter@_W@__crt_stdio_output@@@2@@__crt_stdio_output@@AAE_NXZ 10059550 f i libucrtd:output.obj
 0001:000587c0       ?type_case_a@?$output_processor@_WV?$stream_output_adapter@_W@__crt_stdio_output@@V?$positional_parameter_base@_WV?$stream_output_adapter@_W@__crt_stdio_output@@@2@@__crt_stdio_output@@AAE_NXZ 100597c0 f i libucrtd:output.obj
 0001:00058a30       ?type_case_a@?$output_processor@_WV?$stream_output_adapter@_W@__crt_stdio_output@@V?$standard_base@_WV?$stream_output_adapter@_W@__crt_stdio_output@@@2@@__crt_stdio_output@@AAE_NXZ 10059a30 f i libucrtd:output.obj
 0001:00058ca0       ?type_case_a@?$output_processor@_WV?$string_output_adapter@_W@__crt_stdio_output@@V?$format_validation_base@_WV?$string_output_adapter@_W@__crt_stdio_output@@@2@@__crt_stdio_output@@AAE_NXZ 10059ca0 f i libucrtd:output.obj
 0001:00058f10       ?type_case_a@?$output_processor@_WV?$string_output_adapter@_W@__crt_stdio_output@@V?$positional_parameter_base@_WV?$string_output_adapter@_W@__crt_stdio_output@@@2@@__crt_stdio_output@@AAE_NXZ 10059f10 f i libucrtd:output.obj
 0001:00059180       ?type_case_a@?$output_processor@_WV?$string_output_adapter@_W@__crt_stdio_output@@V?$standard_base@_WV?$string_output_adapter@_W@__crt_stdio_output@@@2@@__crt_stdio_output@@AAE_NXZ 1005a180 f i libucrtd:output.obj
 0001:000593f0       ?type_case_c@?$output_processor@DV?$stream_output_adapter@D@__crt_stdio_output@@V?$format_validation_base@DV?$stream_output_adapter@D@__crt_stdio_output@@@2@@__crt_stdio_output@@AAE_NXZ 1005a3f0 f i libucrtd:output.obj
 0001:00059410       ?type_case_c@?$output_processor@DV?$stream_output_adapter@D@__crt_stdio_output@@V?$positional_parameter_base@DV?$stream_output_adapter@D@__crt_stdio_output@@@2@@__crt_stdio_output@@AAE_NXZ 1005a410 f i libucrtd:output.obj
 0001:00059430       ?type_case_c@?$output_processor@DV?$stream_output_adapter@D@__crt_stdio_output@@V?$standard_base@DV?$stream_output_adapter@D@__crt_stdio_output@@@2@@__crt_stdio_output@@AAE_NXZ 1005a430 f i libucrtd:output.obj
 0001:00059450       ?type_case_c@?$output_processor@DV?$string_output_adapter@D@__crt_stdio_output@@V?$format_validation_base@DV?$string_output_adapter@D@__crt_stdio_output@@@2@@__crt_stdio_output@@AAE_NXZ 1005a450 f i libucrtd:output.obj
 0001:00059470       ?type_case_c@?$output_processor@DV?$string_output_adapter@D@__crt_stdio_output@@V?$positional_parameter_base@DV?$string_output_adapter@D@__crt_stdio_output@@@2@@__crt_stdio_output@@AAE_NXZ 1005a470 f i libucrtd:output.obj
 0001:00059490       ?type_case_c@?$output_processor@DV?$string_output_adapter@D@__crt_stdio_output@@V?$standard_base@DV?$string_output_adapter@D@__crt_stdio_output@@@2@@__crt_stdio_output@@AAE_NXZ 1005a490 f i libucrtd:output.obj
 0001:000594b0       ?type_case_c@?$output_processor@_WV?$stream_output_adapter@_W@__crt_stdio_output@@V?$format_validation_base@_WV?$stream_output_adapter@_W@__crt_stdio_output@@@2@@__crt_stdio_output@@AAE_NXZ 1005a4b0 f i libucrtd:output.obj
 0001:000594d0       ?type_case_c@?$output_processor@_WV?$stream_output_adapter@_W@__crt_stdio_output@@V?$positional_parameter_base@_WV?$stream_output_adapter@_W@__crt_stdio_output@@@2@@__crt_stdio_output@@AAE_NXZ 1005a4d0 f i libucrtd:output.obj
 0001:000594f0       ?type_case_c@?$output_processor@_WV?$stream_output_adapter@_W@__crt_stdio_output@@V?$standard_base@_WV?$stream_output_adapter@_W@__crt_stdio_output@@@2@@__crt_stdio_output@@AAE_NXZ 1005a4f0 f i libucrtd:output.obj
 0001:00059510       ?type_case_c@?$output_processor@_WV?$string_output_adapter@_W@__crt_stdio_output@@V?$format_validation_base@_WV?$string_output_adapter@_W@__crt_stdio_output@@@2@@__crt_stdio_output@@AAE_NXZ 1005a510 f i libucrtd:output.obj
 0001:00059530       ?type_case_c@?$output_processor@_WV?$string_output_adapter@_W@__crt_stdio_output@@V?$positional_parameter_base@_WV?$string_output_adapter@_W@__crt_stdio_output@@@2@@__crt_stdio_output@@AAE_NXZ 1005a530 f i libucrtd:output.obj
 0001:00059550       ?type_case_c@?$output_processor@_WV?$string_output_adapter@_W@__crt_stdio_output@@V?$standard_base@_WV?$string_output_adapter@_W@__crt_stdio_output@@@2@@__crt_stdio_output@@AAE_NXZ 1005a550 f i libucrtd:output.obj
 0001:00059570       ?type_case_c_tchar@?$output_processor@DV?$stream_output_adapter@D@__crt_stdio_output@@V?$format_validation_base@DV?$stream_output_adapter@D@__crt_stdio_output@@@2@@__crt_stdio_output@@AAE_ND@Z 1005a570 f i libucrtd:output.obj
 0001:00059680       ?type_case_c_tchar@?$output_processor@DV?$stream_output_adapter@D@__crt_stdio_output@@V?$positional_parameter_base@DV?$stream_output_adapter@D@__crt_stdio_output@@@2@@__crt_stdio_output@@AAE_ND@Z 1005a680 f i libucrtd:output.obj
 0001:00059790       ?type_case_c_tchar@?$output_processor@DV?$stream_output_adapter@D@__crt_stdio_output@@V?$standard_base@DV?$stream_output_adapter@D@__crt_stdio_output@@@2@@__crt_stdio_output@@AAE_ND@Z 1005a790 f i libucrtd:output.obj
 0001:000598a0       ?type_case_c_tchar@?$output_processor@DV?$string_output_adapter@D@__crt_stdio_output@@V?$format_validation_base@DV?$string_output_adapter@D@__crt_stdio_output@@@2@@__crt_stdio_output@@AAE_ND@Z 1005a8a0 f i libucrtd:output.obj
 0001:000599b0       ?type_case_c_tchar@?$output_processor@DV?$string_output_adapter@D@__crt_stdio_output@@V?$positional_parameter_base@DV?$string_output_adapter@D@__crt_stdio_output@@@2@@__crt_stdio_output@@AAE_ND@Z 1005a9b0 f i libucrtd:output.obj
 0001:00059ac0       ?type_case_c_tchar@?$output_processor@DV?$string_output_adapter@D@__crt_stdio_output@@V?$standard_base@DV?$string_output_adapter@D@__crt_stdio_output@@@2@@__crt_stdio_output@@AAE_ND@Z 1005aac0 f i libucrtd:output.obj
 0001:00059bd0       ?type_case_c_tchar@?$output_processor@_WV?$stream_output_adapter@_W@__crt_stdio_output@@V?$format_validation_base@_WV?$stream_output_adapter@_W@__crt_stdio_output@@@2@@__crt_stdio_output@@AAE_N_W@Z 1005abd0 f i libucrtd:output.obj
 0001:00059cd0       ?type_case_c_tchar@?$output_processor@_WV?$stream_output_adapter@_W@__crt_stdio_output@@V?$positional_parameter_base@_WV?$stream_output_adapter@_W@__crt_stdio_output@@@2@@__crt_stdio_output@@AAE_N_W@Z 1005acd0 f i libucrtd:output.obj
 0001:00059dd0       ?type_case_c_tchar@?$output_processor@_WV?$stream_output_adapter@_W@__crt_stdio_output@@V?$standard_base@_WV?$stream_output_adapter@_W@__crt_stdio_output@@@2@@__crt_stdio_output@@AAE_N_W@Z 1005add0 f i libucrtd:output.obj
 0001:00059ed0       ?type_case_c_tchar@?$output_processor@_WV?$string_output_adapter@_W@__crt_stdio_output@@V?$format_validation_base@_WV?$string_output_adapter@_W@__crt_stdio_output@@@2@@__crt_stdio_output@@AAE_N_W@Z 1005aed0 f i libucrtd:output.obj
 0001:00059fd0       ?type_case_c_tchar@?$output_processor@_WV?$string_output_adapter@_W@__crt_stdio_output@@V?$positional_parameter_base@_WV?$string_output_adapter@_W@__crt_stdio_output@@@2@@__crt_stdio_output@@AAE_N_W@Z 1005afd0 f i libucrtd:output.obj
 0001:0005a0d0       ?type_case_c_tchar@?$output_processor@_WV?$string_output_adapter@_W@__crt_stdio_output@@V?$standard_base@_WV?$string_output_adapter@_W@__crt_stdio_output@@@2@@__crt_stdio_output@@AAE_N_W@Z 1005b0d0 f i libucrtd:output.obj
 0001:0005a1d0       ?type_case_d@?$output_processor@DV?$stream_output_adapter@D@__crt_stdio_output@@V?$format_validation_base@DV?$stream_output_adapter@D@__crt_stdio_output@@@2@@__crt_stdio_output@@AAE_NXZ 1005b1d0 f i libucrtd:output.obj
 0001:0005a200       ?type_case_d@?$output_processor@DV?$stream_output_adapter@D@__crt_stdio_output@@V?$positional_parameter_base@DV?$stream_output_adapter@D@__crt_stdio_output@@@2@@__crt_stdio_output@@AAE_NXZ 1005b200 f i libucrtd:output.obj
 0001:0005a230       ?type_case_d@?$output_processor@DV?$stream_output_adapter@D@__crt_stdio_output@@V?$standard_base@DV?$stream_output_adapter@D@__crt_stdio_output@@@2@@__crt_stdio_output@@AAE_NXZ 1005b230 f i libucrtd:output.obj
 0001:0005a260       ?type_case_d@?$output_processor@DV?$string_output_adapter@D@__crt_stdio_output@@V?$format_validation_base@DV?$string_output_adapter@D@__crt_stdio_output@@@2@@__crt_stdio_output@@AAE_NXZ 1005b260 f i libucrtd:output.obj
 0001:0005a290       ?type_case_d@?$output_processor@DV?$string_output_adapter@D@__crt_stdio_output@@V?$positional_parameter_base@DV?$string_output_adapter@D@__crt_stdio_output@@@2@@__crt_stdio_output@@AAE_NXZ 1005b290 f i libucrtd:output.obj
 0001:0005a2c0       ?type_case_d@?$output_processor@DV?$string_output_adapter@D@__crt_stdio_output@@V?$standard_base@DV?$string_output_adapter@D@__crt_stdio_output@@@2@@__crt_stdio_output@@AAE_NXZ 1005b2c0 f i libucrtd:output.obj
 0001:0005a2f0       ?type_case_d@?$output_processor@_WV?$stream_output_adapter@_W@__crt_stdio_output@@V?$format_validation_base@_WV?$stream_output_adapter@_W@__crt_stdio_output@@@2@@__crt_stdio_output@@AAE_NXZ 1005b2f0 f i libucrtd:output.obj
 0001:0005a320       ?type_case_d@?$output_processor@_WV?$stream_output_adapter@_W@__crt_stdio_output@@V?$positional_parameter_base@_WV?$stream_output_adapter@_W@__crt_stdio_output@@@2@@__crt_stdio_output@@AAE_NXZ 1005b320 f i libucrtd:output.obj
 0001:0005a350       ?type_case_d@?$output_processor@_WV?$stream_output_adapter@_W@__crt_stdio_output@@V?$standard_base@_WV?$stream_output_adapter@_W@__crt_stdio_output@@@2@@__crt_stdio_output@@AAE_NXZ 1005b350 f i libucrtd:output.obj
 0001:0005a380       ?type_case_d@?$output_processor@_WV?$string_output_adapter@_W@__crt_stdio_output@@V?$format_validation_base@_WV?$string_output_adapter@_W@__crt_stdio_output@@@2@@__crt_stdio_output@@AAE_NXZ 1005b380 f i libucrtd:output.obj
 0001:0005a3b0       ?type_case_d@?$output_processor@_WV?$string_output_adapter@_W@__crt_stdio_output@@V?$positional_parameter_base@_WV?$string_output_adapter@_W@__crt_stdio_output@@@2@@__crt_stdio_output@@AAE_NXZ 1005b3b0 f i libucrtd:output.obj
 0001:0005a3e0       ?type_case_d@?$output_processor@_WV?$string_output_adapter@_W@__crt_stdio_output@@V?$standard_base@_WV?$string_output_adapter@_W@__crt_stdio_output@@@2@@__crt_stdio_output@@AAE_NXZ 1005b3e0 f i libucrtd:output.obj
 0001:0005a410       ?type_case_integer@?$output_processor@DV?$stream_output_adapter@D@__crt_stdio_output@@V?$format_validation_base@DV?$stream_output_adapter@D@__crt_stdio_output@@@2@@__crt_stdio_output@@AAE_NI_N@Z 1005b410 f i libucrtd:output.obj
 0001:0005a760       ?type_case_integer@?$output_processor@DV?$stream_output_adapter@D@__crt_stdio_output@@V?$positional_parameter_base@DV?$stream_output_adapter@D@__crt_stdio_output@@@2@@__crt_stdio_output@@AAE_NI_N@Z 1005b760 f i libucrtd:output.obj
 0001:0005aab0       ?type_case_integer@?$output_processor@DV?$stream_output_adapter@D@__crt_stdio_output@@V?$standard_base@DV?$stream_output_adapter@D@__crt_stdio_output@@@2@@__crt_stdio_output@@AAE_NI_N@Z 1005bab0 f i libucrtd:output.obj
 0001:0005ae00       ?type_case_integer@?$output_processor@DV?$string_output_adapter@D@__crt_stdio_output@@V?$format_validation_base@DV?$string_output_adapter@D@__crt_stdio_output@@@2@@__crt_stdio_output@@AAE_NI_N@Z 1005be00 f i libucrtd:output.obj
 0001:0005b150       ?type_case_integer@?$output_processor@DV?$string_output_adapter@D@__crt_stdio_output@@V?$positional_parameter_base@DV?$string_output_adapter@D@__crt_stdio_output@@@2@@__crt_stdio_output@@AAE_NI_N@Z 1005c150 f i libucrtd:output.obj
 0001:0005b4a0       ?type_case_integer@?$output_processor@DV?$string_output_adapter@D@__crt_stdio_output@@V?$standard_base@DV?$string_output_adapter@D@__crt_stdio_output@@@2@@__crt_stdio_output@@AAE_NI_N@Z 1005c4a0 f i libucrtd:output.obj
 0001:0005b7f0       ?type_case_integer@?$output_processor@_WV?$stream_output_adapter@_W@__crt_stdio_output@@V?$format_validation_base@_WV?$stream_output_adapter@_W@__crt_stdio_output@@@2@@__crt_stdio_output@@AAE_NI_N@Z 1005c7f0 f i libucrtd:output.obj
 0001:0005bb40       ?type_case_integer@?$output_processor@_WV?$stream_output_adapter@_W@__crt_stdio_output@@V?$positional_parameter_base@_WV?$stream_output_adapter@_W@__crt_stdio_output@@@2@@__crt_stdio_output@@AAE_NI_N@Z 1005cb40 f i libucrtd:output.obj
 0001:0005be90       ?type_case_integer@?$output_processor@_WV?$stream_output_adapter@_W@__crt_stdio_output@@V?$standard_base@_WV?$stream_output_adapter@_W@__crt_stdio_output@@@2@@__crt_stdio_output@@AAE_NI_N@Z 1005ce90 f i libucrtd:output.obj
 0001:0005c1e0       ?type_case_integer@?$output_processor@_WV?$string_output_adapter@_W@__crt_stdio_output@@V?$format_validation_base@_WV?$string_output_adapter@_W@__crt_stdio_output@@@2@@__crt_stdio_output@@AAE_NI_N@Z 1005d1e0 f i libucrtd:output.obj
 0001:0005c530       ?type_case_integer@?$output_processor@_WV?$string_output_adapter@_W@__crt_stdio_output@@V?$positional_parameter_base@_WV?$string_output_adapter@_W@__crt_stdio_output@@@2@@__crt_stdio_output@@AAE_NI_N@Z 1005d530 f i libucrtd:output.obj
 0001:0005c880       ?type_case_integer@?$output_processor@_WV?$string_output_adapter@_W@__crt_stdio_output@@V?$standard_base@_WV?$string_output_adapter@_W@__crt_stdio_output@@@2@@__crt_stdio_output@@AAE_NI_N@Z 1005d880 f i libucrtd:output.obj
 0001:0005cbd0       ?type_case_n@?$output_processor@DV?$stream_output_adapter@D@__crt_stdio_output@@V?$format_validation_base@DV?$stream_output_adapter@D@__crt_stdio_output@@@2@@__crt_stdio_output@@AAE_NXZ 1005dbd0 f i libucrtd:output.obj
 0001:0005cdc0       ?type_case_n@?$output_processor@DV?$stream_output_adapter@D@__crt_stdio_output@@V?$positional_parameter_base@DV?$stream_output_adapter@D@__crt_stdio_output@@@2@@__crt_stdio_output@@AAE_NXZ 1005ddc0 f i libucrtd:output.obj
 0001:0005cfb0       ?type_case_n@?$output_processor@DV?$stream_output_adapter@D@__crt_stdio_output@@V?$standard_base@DV?$stream_output_adapter@D@__crt_stdio_output@@@2@@__crt_stdio_output@@AAE_NXZ 1005dfb0 f i libucrtd:output.obj
 0001:0005d1a0       ?type_case_n@?$output_processor@DV?$string_output_adapter@D@__crt_stdio_output@@V?$format_validation_base@DV?$string_output_adapter@D@__crt_stdio_output@@@2@@__crt_stdio_output@@AAE_NXZ 1005e1a0 f i libucrtd:output.obj
 0001:0005d390       ?type_case_n@?$output_processor@DV?$string_output_adapter@D@__crt_stdio_output@@V?$positional_parameter_base@DV?$string_output_adapter@D@__crt_stdio_output@@@2@@__crt_stdio_output@@AAE_NXZ 1005e390 f i libucrtd:output.obj
 0001:0005d580       ?type_case_n@?$output_processor@DV?$string_output_adapter@D@__crt_stdio_output@@V?$standard_base@DV?$string_output_adapter@D@__crt_stdio_output@@@2@@__crt_stdio_output@@AAE_NXZ 1005e580 f i libucrtd:output.obj
 0001:0005d770       ?type_case_n@?$output_processor@_WV?$stream_output_adapter@_W@__crt_stdio_output@@V?$format_validation_base@_WV?$stream_output_adapter@_W@__crt_stdio_output@@@2@@__crt_stdio_output@@AAE_NXZ 1005e770 f i libucrtd:output.obj
 0001:0005d960       ?type_case_n@?$output_processor@_WV?$stream_output_adapter@_W@__crt_stdio_output@@V?$positional_parameter_base@_WV?$stream_output_adapter@_W@__crt_stdio_output@@@2@@__crt_stdio_output@@AAE_NXZ 1005e960 f i libucrtd:output.obj
 0001:0005db50       ?type_case_n@?$output_processor@_WV?$stream_output_adapter@_W@__crt_stdio_output@@V?$standard_base@_WV?$stream_output_adapter@_W@__crt_stdio_output@@@2@@__crt_stdio_output@@AAE_NXZ 1005eb50 f i libucrtd:output.obj
 0001:0005dd40       ?type_case_n@?$output_processor@_WV?$string_output_adapter@_W@__crt_stdio_output@@V?$format_validation_base@_WV?$string_output_adapter@_W@__crt_stdio_output@@@2@@__crt_stdio_output@@AAE_NXZ 1005ed40 f i libucrtd:output.obj
 0001:0005df30       ?type_case_n@?$output_processor@_WV?$string_output_adapter@_W@__crt_stdio_output@@V?$positional_parameter_base@_WV?$string_output_adapter@_W@__crt_stdio_output@@@2@@__crt_stdio_output@@AAE_NXZ 1005ef30 f i libucrtd:output.obj
 0001:0005e120       ?type_case_n@?$output_processor@_WV?$string_output_adapter@_W@__crt_stdio_output@@V?$standard_base@_WV?$string_output_adapter@_W@__crt_stdio_output@@@2@@__crt_stdio_output@@AAE_NXZ 1005f120 f i libucrtd:output.obj
 0001:0005e310       ?type_case_o@?$output_processor@DV?$stream_output_adapter@D@__crt_stdio_output@@V?$format_validation_base@DV?$stream_output_adapter@D@__crt_stdio_output@@@2@@__crt_stdio_output@@AAE_NXZ 1005f310 f i libucrtd:output.obj
 0001:0005e350       ?type_case_o@?$output_processor@DV?$stream_output_adapter@D@__crt_stdio_output@@V?$positional_parameter_base@DV?$stream_output_adapter@D@__crt_stdio_output@@@2@@__crt_stdio_output@@AAE_NXZ 1005f350 f i libucrtd:output.obj
 0001:0005e390       ?type_case_o@?$output_processor@DV?$stream_output_adapter@D@__crt_stdio_output@@V?$standard_base@DV?$stream_output_adapter@D@__crt_stdio_output@@@2@@__crt_stdio_output@@AAE_NXZ 1005f390 f i libucrtd:output.obj
 0001:0005e3d0       ?type_case_o@?$output_processor@DV?$string_output_adapter@D@__crt_stdio_output@@V?$format_validation_base@DV?$string_output_adapter@D@__crt_stdio_output@@@2@@__crt_stdio_output@@AAE_NXZ 1005f3d0 f i libucrtd:output.obj
 0001:0005e410       ?type_case_o@?$output_processor@DV?$string_output_adapter@D@__crt_stdio_output@@V?$positional_parameter_base@DV?$string_output_adapter@D@__crt_stdio_output@@@2@@__crt_stdio_output@@AAE_NXZ 1005f410 f i libucrtd:output.obj
 0001:0005e450       ?type_case_o@?$output_processor@DV?$string_output_adapter@D@__crt_stdio_output@@V?$standard_base@DV?$string_output_adapter@D@__crt_stdio_output@@@2@@__crt_stdio_output@@AAE_NXZ 1005f450 f i libucrtd:output.obj
 0001:0005e490       ?type_case_o@?$output_processor@_WV?$stream_output_adapter@_W@__crt_stdio_output@@V?$format_validation_base@_WV?$stream_output_adapter@_W@__crt_stdio_output@@@2@@__crt_stdio_output@@AAE_NXZ 1005f490 f i libucrtd:output.obj
 0001:0005e4d0       ?type_case_o@?$output_processor@_WV?$stream_output_adapter@_W@__crt_stdio_output@@V?$positional_parameter_base@_WV?$stream_output_adapter@_W@__crt_stdio_output@@@2@@__crt_stdio_output@@AAE_NXZ 1005f4d0 f i libucrtd:output.obj
 0001:0005e510       ?type_case_o@?$output_processor@_WV?$stream_output_adapter@_W@__crt_stdio_output@@V?$standard_base@_WV?$stream_output_adapter@_W@__crt_stdio_output@@@2@@__crt_stdio_output@@AAE_NXZ 1005f510 f i libucrtd:output.obj
 0001:0005e550       ?type_case_o@?$output_processor@_WV?$string_output_adapter@_W@__crt_stdio_output@@V?$format_validation_base@_WV?$string_output_adapter@_W@__crt_stdio_output@@@2@@__crt_stdio_output@@AAE_NXZ 1005f550 f i libucrtd:output.obj
 0001:0005e590       ?type_case_o@?$output_processor@_WV?$string_output_adapter@_W@__crt_stdio_output@@V?$positional_parameter_base@_WV?$string_output_adapter@_W@__crt_stdio_output@@@2@@__crt_stdio_output@@AAE_NXZ 1005f590 f i libucrtd:output.obj
 0001:0005e5d0       ?type_case_o@?$output_processor@_WV?$string_output_adapter@_W@__crt_stdio_output@@V?$standard_base@_WV?$string_output_adapter@_W@__crt_stdio_output@@@2@@__crt_stdio_output@@AAE_NXZ 1005f5d0 f i libucrtd:output.obj
 0001:0005e610       ?type_case_p@?$output_processor@DV?$stream_output_adapter@D@__crt_stdio_output@@V?$format_validation_base@DV?$stream_output_adapter@D@__crt_stdio_output@@@2@@__crt_stdio_output@@AAE_NXZ 1005f610 f i libucrtd:output.obj
 0001:0005e640       ?type_case_p@?$output_processor@DV?$stream_output_adapter@D@__crt_stdio_output@@V?$positional_parameter_base@DV?$stream_output_adapter@D@__crt_stdio_output@@@2@@__crt_stdio_output@@AAE_NXZ 1005f640 f i libucrtd:output.obj
 0001:0005e670       ?type_case_p@?$output_processor@DV?$stream_output_adapter@D@__crt_stdio_output@@V?$standard_base@DV?$stream_output_adapter@D@__crt_stdio_output@@@2@@__crt_stdio_output@@AAE_NXZ 1005f670 f i libucrtd:output.obj
 0001:0005e6a0       ?type_case_p@?$output_processor@DV?$string_output_adapter@D@__crt_stdio_output@@V?$format_validation_base@DV?$string_output_adapter@D@__crt_stdio_output@@@2@@__crt_stdio_output@@AAE_NXZ 1005f6a0 f i libucrtd:output.obj
 0001:0005e6d0       ?type_case_p@?$output_processor@DV?$string_output_adapter@D@__crt_stdio_output@@V?$positional_parameter_base@DV?$string_output_adapter@D@__crt_stdio_output@@@2@@__crt_stdio_output@@AAE_NXZ 1005f6d0 f i libucrtd:output.obj
 0001:0005e700       ?type_case_p@?$output_processor@DV?$string_output_adapter@D@__crt_stdio_output@@V?$standard_base@DV?$string_output_adapter@D@__crt_stdio_output@@@2@@__crt_stdio_output@@AAE_NXZ 1005f700 f i libucrtd:output.obj
 0001:0005e730       ?type_case_p@?$output_processor@_WV?$stream_output_adapter@_W@__crt_stdio_output@@V?$format_validation_base@_WV?$stream_output_adapter@_W@__crt_stdio_output@@@2@@__crt_stdio_output@@AAE_NXZ 1005f730 f i libucrtd:output.obj
 0001:0005e760       ?type_case_p@?$output_processor@_WV?$stream_output_adapter@_W@__crt_stdio_output@@V?$positional_parameter_base@_WV?$stream_output_adapter@_W@__crt_stdio_output@@@2@@__crt_stdio_output@@AAE_NXZ 1005f760 f i libucrtd:output.obj
 0001:0005e790       ?type_case_p@?$output_processor@_WV?$stream_output_adapter@_W@__crt_stdio_output@@V?$standard_base@_WV?$stream_output_adapter@_W@__crt_stdio_output@@@2@@__crt_stdio_output@@AAE_NXZ 1005f790 f i libucrtd:output.obj
 0001:0005e7c0       ?type_case_p@?$output_processor@_WV?$string_output_adapter@_W@__crt_stdio_output@@V?$format_validation_base@_WV?$string_output_adapter@_W@__crt_stdio_output@@@2@@__crt_stdio_output@@AAE_NXZ 1005f7c0 f i libucrtd:output.obj
 0001:0005e7f0       ?type_case_p@?$output_processor@_WV?$string_output_adapter@_W@__crt_stdio_output@@V?$positional_parameter_base@_WV?$string_output_adapter@_W@__crt_stdio_output@@@2@@__crt_stdio_output@@AAE_NXZ 1005f7f0 f i libucrtd:output.obj
 0001:0005e820       ?type_case_p@?$output_processor@_WV?$string_output_adapter@_W@__crt_stdio_output@@V?$standard_base@_WV?$string_output_adapter@_W@__crt_stdio_output@@@2@@__crt_stdio_output@@AAE_NXZ 1005f820 f i libucrtd:output.obj
 0001:0005e850       ?type_case_s@?$output_processor@DV?$stream_output_adapter@D@__crt_stdio_output@@V?$format_validation_base@DV?$stream_output_adapter@D@__crt_stdio_output@@@2@@__crt_stdio_output@@AAE_NXZ 1005f850 f i libucrtd:output.obj
 0001:0005e940       ?type_case_s@?$output_processor@DV?$stream_output_adapter@D@__crt_stdio_output@@V?$positional_parameter_base@DV?$stream_output_adapter@D@__crt_stdio_output@@@2@@__crt_stdio_output@@AAE_NXZ 1005f940 f i libucrtd:output.obj
 0001:0005ea30       ?type_case_s@?$output_processor@DV?$stream_output_adapter@D@__crt_stdio_output@@V?$standard_base@DV?$stream_output_adapter@D@__crt_stdio_output@@@2@@__crt_stdio_output@@AAE_NXZ 1005fa30 f i libucrtd:output.obj
 0001:0005eb20       ?type_case_s@?$output_processor@DV?$string_output_adapter@D@__crt_stdio_output@@V?$format_validation_base@DV?$string_output_adapter@D@__crt_stdio_output@@@2@@__crt_stdio_output@@AAE_NXZ 1005fb20 f i libucrtd:output.obj
 0001:0005ec10       ?type_case_s@?$output_processor@DV?$string_output_adapter@D@__crt_stdio_output@@V?$positional_parameter_base@DV?$string_output_adapter@D@__crt_stdio_output@@@2@@__crt_stdio_output@@AAE_NXZ 1005fc10 f i libucrtd:output.obj
 0001:0005ed00       ?type_case_s@?$output_processor@DV?$string_output_adapter@D@__crt_stdio_output@@V?$standard_base@DV?$string_output_adapter@D@__crt_stdio_output@@@2@@__crt_stdio_output@@AAE_NXZ 1005fd00 f i libucrtd:output.obj
 0001:0005edf0       ?type_case_s@?$output_processor@_WV?$stream_output_adapter@_W@__crt_stdio_output@@V?$format_validation_base@_WV?$stream_output_adapter@_W@__crt_stdio_output@@@2@@__crt_stdio_output@@AAE_NXZ 1005fdf0 f i libucrtd:output.obj
 0001:0005eee0       ?type_case_s@?$output_processor@_WV?$stream_output_adapter@_W@__crt_stdio_output@@V?$positional_parameter_base@_WV?$stream_output_adapter@_W@__crt_stdio_output@@@2@@__crt_stdio_output@@AAE_NXZ 1005fee0 f i libucrtd:output.obj
 0001:0005efd0       ?type_case_s@?$output_processor@_WV?$stream_output_adapter@_W@__crt_stdio_output@@V?$standard_base@_WV?$stream_output_adapter@_W@__crt_stdio_output@@@2@@__crt_stdio_output@@AAE_NXZ 1005ffd0 f i libucrtd:output.obj
 0001:0005f0c0       ?type_case_s@?$output_processor@_WV?$string_output_adapter@_W@__crt_stdio_output@@V?$format_validation_base@_WV?$string_output_adapter@_W@__crt_stdio_output@@@2@@__crt_stdio_output@@AAE_NXZ 100600c0 f i libucrtd:output.obj
 0001:0005f1b0       ?type_case_s@?$output_processor@_WV?$string_output_adapter@_W@__crt_stdio_output@@V?$positional_parameter_base@_WV?$string_output_adapter@_W@__crt_stdio_output@@@2@@__crt_stdio_output@@AAE_NXZ 100601b0 f i libucrtd:output.obj
 0001:0005f2a0       ?type_case_s@?$output_processor@_WV?$string_output_adapter@_W@__crt_stdio_output@@V?$standard_base@_WV?$string_output_adapter@_W@__crt_stdio_output@@@2@@__crt_stdio_output@@AAE_NXZ 100602a0 f i libucrtd:output.obj
 0001:0005f390       ?type_case_s_compute_narrow_string_length@?$output_processor@DV?$stream_output_adapter@D@__crt_stdio_output@@V?$format_validation_base@DV?$stream_output_adapter@D@__crt_stdio_output@@@2@@__crt_stdio_output@@ABEHHD@Z 10060390 f i libucrtd:output.obj
 0001:0005f3c0       ?type_case_s_compute_narrow_string_length@?$output_processor@DV?$stream_output_adapter@D@__crt_stdio_output@@V?$positional_parameter_base@DV?$stream_output_adapter@D@__crt_stdio_output@@@2@@__crt_stdio_output@@ABEHHD@Z 100603c0 f i libucrtd:output.obj
 0001:0005f3f0       ?type_case_s_compute_narrow_string_length@?$output_processor@DV?$stream_output_adapter@D@__crt_stdio_output@@V?$standard_base@DV?$stream_output_adapter@D@__crt_stdio_output@@@2@@__crt_stdio_output@@ABEHHD@Z 100603f0 f i libucrtd:output.obj
 0001:0005f420       ?type_case_s_compute_narrow_string_length@?$output_processor@DV?$string_output_adapter@D@__crt_stdio_output@@V?$format_validation_base@DV?$string_output_adapter@D@__crt_stdio_output@@@2@@__crt_stdio_output@@ABEHHD@Z 10060420 f i libucrtd:output.obj
 0001:0005f450       ?type_case_s_compute_narrow_string_length@?$output_processor@DV?$string_output_adapter@D@__crt_stdio_output@@V?$positional_parameter_base@DV?$string_output_adapter@D@__crt_stdio_output@@@2@@__crt_stdio_output@@ABEHHD@Z 10060450 f i libucrtd:output.obj
 0001:0005f480       ?type_case_s_compute_narrow_string_length@?$output_processor@DV?$string_output_adapter@D@__crt_stdio_output@@V?$standard_base@DV?$string_output_adapter@D@__crt_stdio_output@@@2@@__crt_stdio_output@@ABEHHD@Z 10060480 f i libucrtd:output.obj
 0001:0005f4b0       ?type_case_s_compute_narrow_string_length@?$output_processor@_WV?$stream_output_adapter@_W@__crt_stdio_output@@V?$format_validation_base@_WV?$stream_output_adapter@_W@__crt_stdio_output@@@2@@__crt_stdio_output@@ABEHH_W@Z 100604b0 f i libucrtd:output.obj
 0001:0005f520       ?type_case_s_compute_narrow_string_length@?$output_processor@_WV?$stream_output_adapter@_W@__crt_stdio_output@@V?$positional_parameter_base@_WV?$stream_output_adapter@_W@__crt_stdio_output@@@2@@__crt_stdio_output@@ABEHH_W@Z 10060520 f i libucrtd:output.obj
 0001:0005f590       ?type_case_s_compute_narrow_string_length@?$output_processor@_WV?$stream_output_adapter@_W@__crt_stdio_output@@V?$standard_base@_WV?$stream_output_adapter@_W@__crt_stdio_output@@@2@@__crt_stdio_output@@ABEHH_W@Z 10060590 f i libucrtd:output.obj
 0001:0005f600       ?type_case_s_compute_narrow_string_length@?$output_processor@_WV?$string_output_adapter@_W@__crt_stdio_output@@V?$format_validation_base@_WV?$string_output_adapter@_W@__crt_stdio_output@@@2@@__crt_stdio_output@@ABEHH_W@Z 10060600 f i libucrtd:output.obj
 0001:0005f670       ?type_case_s_compute_narrow_string_length@?$output_processor@_WV?$string_output_adapter@_W@__crt_stdio_output@@V?$positional_parameter_base@_WV?$string_output_adapter@_W@__crt_stdio_output@@@2@@__crt_stdio_output@@ABEHH_W@Z 10060670 f i libucrtd:output.obj
 0001:0005f6e0       ?type_case_s_compute_narrow_string_length@?$output_processor@_WV?$string_output_adapter@_W@__crt_stdio_output@@V?$standard_base@_WV?$string_output_adapter@_W@__crt_stdio_output@@@2@@__crt_stdio_output@@ABEHH_W@Z 100606e0 f i libucrtd:output.obj
 0001:0005f750       ?type_case_u@?$output_processor@DV?$stream_output_adapter@D@__crt_stdio_output@@V?$format_validation_base@DV?$stream_output_adapter@D@__crt_stdio_output@@@2@@__crt_stdio_output@@AAE_NXZ 10060750 f i libucrtd:output.obj
 0001:0005f770       ?type_case_u@?$output_processor@DV?$stream_output_adapter@D@__crt_stdio_output@@V?$positional_parameter_base@DV?$stream_output_adapter@D@__crt_stdio_output@@@2@@__crt_stdio_output@@AAE_NXZ 10060770 f i libucrtd:output.obj
 0001:0005f790       ?type_case_u@?$output_processor@DV?$stream_output_adapter@D@__crt_stdio_output@@V?$standard_base@DV?$stream_output_adapter@D@__crt_stdio_output@@@2@@__crt_stdio_output@@AAE_NXZ 10060790 f i libucrtd:output.obj
 0001:0005f7b0       ?type_case_u@?$output_processor@DV?$string_output_adapter@D@__crt_stdio_output@@V?$format_validation_base@DV?$string_output_adapter@D@__crt_stdio_output@@@2@@__crt_stdio_output@@AAE_NXZ 100607b0 f i libucrtd:output.obj
 0001:0005f7d0       ?type_case_u@?$output_processor@DV?$string_output_adapter@D@__crt_stdio_output@@V?$positional_parameter_base@DV?$string_output_adapter@D@__crt_stdio_output@@@2@@__crt_stdio_output@@AAE_NXZ 100607d0 f i libucrtd:output.obj
 0001:0005f7f0       ?type_case_u@?$output_processor@DV?$string_output_adapter@D@__crt_stdio_output@@V?$standard_base@DV?$string_output_adapter@D@__crt_stdio_output@@@2@@__crt_stdio_output@@AAE_NXZ 100607f0 f i libucrtd:output.obj
 0001:0005f810       ?type_case_u@?$output_processor@_WV?$stream_output_adapter@_W@__crt_stdio_output@@V?$format_validation_base@_WV?$stream_output_adapter@_W@__crt_stdio_output@@@2@@__crt_stdio_output@@AAE_NXZ 10060810 f i libucrtd:output.obj
 0001:0005f830       ?type_case_u@?$output_processor@_WV?$stream_output_adapter@_W@__crt_stdio_output@@V?$positional_parameter_base@_WV?$stream_output_adapter@_W@__crt_stdio_output@@@2@@__crt_stdio_output@@AAE_NXZ 10060830 f i libucrtd:output.obj
 0001:0005f850       ?type_case_u@?$output_processor@_WV?$stream_output_adapter@_W@__crt_stdio_output@@V?$standard_base@_WV?$stream_output_adapter@_W@__crt_stdio_output@@@2@@__crt_stdio_output@@AAE_NXZ 10060850 f i libucrtd:output.obj
 0001:0005f870       ?type_case_u@?$output_processor@_WV?$string_output_adapter@_W@__crt_stdio_output@@V?$format_validation_base@_WV?$string_output_adapter@_W@__crt_stdio_output@@@2@@__crt_stdio_output@@AAE_NXZ 10060870 f i libucrtd:output.obj
 0001:0005f890       ?type_case_u@?$output_processor@_WV?$string_output_adapter@_W@__crt_stdio_output@@V?$positional_parameter_base@_WV?$string_output_adapter@_W@__crt_stdio_output@@@2@@__crt_stdio_output@@AAE_NXZ 10060890 f i libucrtd:output.obj
 0001:0005f8b0       ?type_case_u@?$output_processor@_WV?$string_output_adapter@_W@__crt_stdio_output@@V?$standard_base@_WV?$string_output_adapter@_W@__crt_stdio_output@@@2@@__crt_stdio_output@@AAE_NXZ 100608b0 f i libucrtd:output.obj
 0001:0005f8d0       ?type_case_x@?$output_processor@DV?$stream_output_adapter@D@__crt_stdio_output@@V?$format_validation_base@DV?$stream_output_adapter@D@__crt_stdio_output@@@2@@__crt_stdio_output@@AAE_NXZ 100608d0 f i libucrtd:output.obj
 0001:0005f8f0       ?type_case_x@?$output_processor@DV?$stream_output_adapter@D@__crt_stdio_output@@V?$positional_parameter_base@DV?$stream_output_adapter@D@__crt_stdio_output@@@2@@__crt_stdio_output@@AAE_NXZ 100608f0 f i libucrtd:output.obj
 0001:0005f910       ?type_case_x@?$output_processor@DV?$stream_output_adapter@D@__crt_stdio_output@@V?$standard_base@DV?$stream_output_adapter@D@__crt_stdio_output@@@2@@__crt_stdio_output@@AAE_NXZ 10060910 f i libucrtd:output.obj
 0001:0005f930       ?type_case_x@?$output_processor@DV?$string_output_adapter@D@__crt_stdio_output@@V?$format_validation_base@DV?$string_output_adapter@D@__crt_stdio_output@@@2@@__crt_stdio_output@@AAE_NXZ 10060930 f i libucrtd:output.obj
 0001:0005f950       ?type_case_x@?$output_processor@DV?$string_output_adapter@D@__crt_stdio_output@@V?$positional_parameter_base@DV?$string_output_adapter@D@__crt_stdio_output@@@2@@__crt_stdio_output@@AAE_NXZ 10060950 f i libucrtd:output.obj
 0001:0005f970       ?type_case_x@?$output_processor@DV?$string_output_adapter@D@__crt_stdio_output@@V?$standard_base@DV?$string_output_adapter@D@__crt_stdio_output@@@2@@__crt_stdio_output@@AAE_NXZ 10060970 f i libucrtd:output.obj
 0001:0005f990       ?type_case_x@?$output_processor@_WV?$stream_output_adapter@_W@__crt_stdio_output@@V?$format_validation_base@_WV?$stream_output_adapter@_W@__crt_stdio_output@@@2@@__crt_stdio_output@@AAE_NXZ 10060990 f i libucrtd:output.obj
 0001:0005f9b0       ?type_case_x@?$output_processor@_WV?$stream_output_adapter@_W@__crt_stdio_output@@V?$positional_parameter_base@_WV?$stream_output_adapter@_W@__crt_stdio_output@@@2@@__crt_stdio_output@@AAE_NXZ 100609b0 f i libucrtd:output.obj
 0001:0005f9d0       ?type_case_x@?$output_processor@_WV?$stream_output_adapter@_W@__crt_stdio_output@@V?$standard_base@_WV?$stream_output_adapter@_W@__crt_stdio_output@@@2@@__crt_stdio_output@@AAE_NXZ 100609d0 f i libucrtd:output.obj
 0001:0005f9f0       ?type_case_x@?$output_processor@_WV?$string_output_adapter@_W@__crt_stdio_output@@V?$format_validation_base@_WV?$string_output_adapter@_W@__crt_stdio_output@@@2@@__crt_stdio_output@@AAE_NXZ 100609f0 f i libucrtd:output.obj
 0001:0005fa10       ?type_case_x@?$output_processor@_WV?$string_output_adapter@_W@__crt_stdio_output@@V?$positional_parameter_base@_WV?$string_output_adapter@_W@__crt_stdio_output@@@2@@__crt_stdio_output@@AAE_NXZ 10060a10 f i libucrtd:output.obj
 0001:0005fa30       ?type_case_x@?$output_processor@_WV?$string_output_adapter@_W@__crt_stdio_output@@V?$standard_base@_WV?$string_output_adapter@_W@__crt_stdio_output@@@2@@__crt_stdio_output@@AAE_NXZ 10060a30 f i libucrtd:output.obj
 0001:0005fa50       ?unset_flag@?$output_processor@DV?$stream_output_adapter@D@__crt_stdio_output@@V?$format_validation_base@DV?$stream_output_adapter@D@__crt_stdio_output@@@2@@__crt_stdio_output@@AAEXI@Z 10060a50 f i libucrtd:output.obj
 0001:0005fa70       ?unset_flag@?$output_processor@DV?$stream_output_adapter@D@__crt_stdio_output@@V?$positional_parameter_base@DV?$stream_output_adapter@D@__crt_stdio_output@@@2@@__crt_stdio_output@@AAEXI@Z 10060a70 f i libucrtd:output.obj
 0001:0005fa90       ?unset_flag@?$output_processor@DV?$stream_output_adapter@D@__crt_stdio_output@@V?$standard_base@DV?$stream_output_adapter@D@__crt_stdio_output@@@2@@__crt_stdio_output@@AAEXI@Z 10060a90 f i libucrtd:output.obj
 0001:0005fab0       ?unset_flag@?$output_processor@DV?$string_output_adapter@D@__crt_stdio_output@@V?$format_validation_base@DV?$string_output_adapter@D@__crt_stdio_output@@@2@@__crt_stdio_output@@AAEXI@Z 10060ab0 f i libucrtd:output.obj
 0001:0005fad0       ?unset_flag@?$output_processor@DV?$string_output_adapter@D@__crt_stdio_output@@V?$positional_parameter_base@DV?$string_output_adapter@D@__crt_stdio_output@@@2@@__crt_stdio_output@@AAEXI@Z 10060ad0 f i libucrtd:output.obj
 0001:0005faf0       ?unset_flag@?$output_processor@DV?$string_output_adapter@D@__crt_stdio_output@@V?$standard_base@DV?$string_output_adapter@D@__crt_stdio_output@@@2@@__crt_stdio_output@@AAEXI@Z 10060af0 f i libucrtd:output.obj
 0001:0005fb10       ?unset_flag@?$output_processor@_WV?$stream_output_adapter@_W@__crt_stdio_output@@V?$format_validation_base@_WV?$stream_output_adapter@_W@__crt_stdio_output@@@2@@__crt_stdio_output@@AAEXI@Z 10060b10 f i libucrtd:output.obj
 0001:0005fb30       ?unset_flag@?$output_processor@_WV?$stream_output_adapter@_W@__crt_stdio_output@@V?$positional_parameter_base@_WV?$stream_output_adapter@_W@__crt_stdio_output@@@2@@__crt_stdio_output@@AAEXI@Z 10060b30 f i libucrtd:output.obj
 0001:0005fb50       ?unset_flag@?$output_processor@_WV?$stream_output_adapter@_W@__crt_stdio_output@@V?$standard_base@_WV?$stream_output_adapter@_W@__crt_stdio_output@@@2@@__crt_stdio_output@@AAEXI@Z 10060b50 f i libucrtd:output.obj
 0001:0005fb70       ?unset_flag@?$output_processor@_WV?$string_output_adapter@_W@__crt_stdio_output@@V?$format_validation_base@_WV?$string_output_adapter@_W@__crt_stdio_output@@@2@@__crt_stdio_output@@AAEXI@Z 10060b70 f i libucrtd:output.obj
 0001:0005fb90       ?unset_flag@?$output_processor@_WV?$string_output_adapter@_W@__crt_stdio_output@@V?$positional_parameter_base@_WV?$string_output_adapter@_W@__crt_stdio_output@@@2@@__crt_stdio_output@@AAEXI@Z 10060b90 f i libucrtd:output.obj
 0001:0005fbb0       ?unset_flag@?$output_processor@_WV?$string_output_adapter@_W@__crt_stdio_output@@V?$standard_base@_WV?$string_output_adapter@_W@__crt_stdio_output@@@2@@__crt_stdio_output@@AAEXI@Z 10060bb0 f i libucrtd:output.obj
 0001:0005fbd0       ?update_field_width@?$positional_parameter_base@DV?$stream_output_adapter@D@__crt_stdio_output@@@__crt_stdio_output@@IAE_NXZ 10060bd0 f i libucrtd:output.obj
 0001:0005fd50       ?update_field_width@?$positional_parameter_base@DV?$string_output_adapter@D@__crt_stdio_output@@@__crt_stdio_output@@IAE_NXZ 10060d50 f i libucrtd:output.obj
 0001:0005fed0       ?update_field_width@?$positional_parameter_base@_WV?$stream_output_adapter@_W@__crt_stdio_output@@@__crt_stdio_output@@IAE_NXZ 10060ed0 f i libucrtd:output.obj
 0001:00060050       ?update_field_width@?$positional_parameter_base@_WV?$string_output_adapter@_W@__crt_stdio_output@@@__crt_stdio_output@@IAE_NXZ 10061050 f i libucrtd:output.obj
 0001:000601d0       ?update_field_width@?$standard_base@DV?$stream_output_adapter@D@__crt_stdio_output@@@__crt_stdio_output@@IAE_NXZ 100611d0 f i libucrtd:output.obj
 0001:00060200       ?update_field_width@?$standard_base@DV?$string_output_adapter@D@__crt_stdio_output@@@__crt_stdio_output@@IAE_NXZ 10061200 f i libucrtd:output.obj
 0001:00060230       ?update_field_width@?$standard_base@_WV?$stream_output_adapter@_W@__crt_stdio_output@@@__crt_stdio_output@@IAE_NXZ 10061230 f i libucrtd:output.obj
 0001:00060260       ?update_field_width@?$standard_base@_WV?$string_output_adapter@_W@__crt_stdio_output@@@__crt_stdio_output@@IAE_NXZ 10061260 f i libucrtd:output.obj
 0001:00060290       ?update_precision@?$positional_parameter_base@DV?$stream_output_adapter@D@__crt_stdio_output@@@__crt_stdio_output@@IAE_NXZ 10061290 f i libucrtd:output.obj
 0001:00060410       ?update_precision@?$positional_parameter_base@DV?$string_output_adapter@D@__crt_stdio_output@@@__crt_stdio_output@@IAE_NXZ 10061410 f i libucrtd:output.obj
 0001:00060590       ?update_precision@?$positional_parameter_base@_WV?$stream_output_adapter@_W@__crt_stdio_output@@@__crt_stdio_output@@IAE_NXZ 10061590 f i libucrtd:output.obj
 0001:00060710       ?update_precision@?$positional_parameter_base@_WV?$string_output_adapter@_W@__crt_stdio_output@@@__crt_stdio_output@@IAE_NXZ 10061710 f i libucrtd:output.obj
 0001:00060890       ?update_precision@?$standard_base@DV?$stream_output_adapter@D@__crt_stdio_output@@@__crt_stdio_output@@IAE_NXZ 10061890 f i libucrtd:output.obj
 0001:000608c0       ?update_precision@?$standard_base@DV?$string_output_adapter@D@__crt_stdio_output@@@__crt_stdio_output@@IAE_NXZ 100618c0 f i libucrtd:output.obj
 0001:000608f0       ?update_precision@?$standard_base@_WV?$stream_output_adapter@_W@__crt_stdio_output@@@__crt_stdio_output@@IAE_NXZ 100618f0 f i libucrtd:output.obj
 0001:00060920       ?update_precision@?$standard_base@_WV?$string_output_adapter@_W@__crt_stdio_output@@@__crt_stdio_output@@IAE_NXZ 10061920 f i libucrtd:output.obj
 0001:00060950       ?valid@__crt_stdio_stream@@QBE_NXZ 10061950 f i libucrtd:output.obj
 0001:00060980       ?validate@?$stream_output_adapter@D@__crt_stdio_output@@QBE_NXZ 10061980 f i libucrtd:output.obj
 0001:00060a30       ?validate@?$stream_output_adapter@_W@__crt_stdio_output@@QBE_NXZ 10061a30 f i libucrtd:output.obj
 0001:00060ae0       ?validate@?$string_output_adapter@D@__crt_stdio_output@@QBE_NXZ 10061ae0 f i libucrtd:output.obj
 0001:00060b70       ?validate@?$string_output_adapter@_W@__crt_stdio_output@@QBE_NXZ 10061b70 f i libucrtd:output.obj
 0001:00060c00       ?validate_and_store_parameter_data@?$positional_parameter_base@DV?$stream_output_adapter@D@__crt_stdio_output@@@__crt_stdio_output@@AAE_NAAUparameter_data@12@W4parameter_type@12@DW4length_modifier@2@@Z 10061c00 f i libucrtd:output.obj
 0001:00060cd0       ?validate_and_store_parameter_data@?$positional_parameter_base@DV?$string_output_adapter@D@__crt_stdio_output@@@__crt_stdio_output@@AAE_NAAUparameter_data@12@W4parameter_type@12@DW4length_modifier@2@@Z 10061cd0 f i libucrtd:output.obj
 0001:00060da0       ?validate_and_store_parameter_data@?$positional_parameter_base@_WV?$stream_output_adapter@_W@__crt_stdio_output@@@__crt_stdio_output@@AAE_NAAUparameter_data@12@W4parameter_type@12@_WW4length_modifier@2@@Z 10061da0 f i libucrtd:output.obj
 0001:00060e80       ?validate_and_store_parameter_data@?$positional_parameter_base@_WV?$string_output_adapter@_W@__crt_stdio_output@@@__crt_stdio_output@@AAE_NAAUparameter_data@12@W4parameter_type@12@_WW4length_modifier@2@@Z 10061e80 f i libucrtd:output.obj
 0001:00060f60       ?validate_and_update_state_at_beginning_of_format_character@?$positional_parameter_base@DV?$stream_output_adapter@D@__crt_stdio_output@@@__crt_stdio_output@@IAE_NXZ 10061f60 f i libucrtd:output.obj
 0001:00061180       ?validate_and_update_state_at_beginning_of_format_character@?$positional_parameter_base@DV?$string_output_adapter@D@__crt_stdio_output@@@__crt_stdio_output@@IAE_NXZ 10062180 f i libucrtd:output.obj
 0001:000613a0       ?validate_and_update_state_at_beginning_of_format_character@?$positional_parameter_base@_WV?$stream_output_adapter@_W@__crt_stdio_output@@@__crt_stdio_output@@IAE_NXZ 100623a0 f i libucrtd:output.obj
 0001:000615c0       ?validate_and_update_state_at_beginning_of_format_character@?$positional_parameter_base@_WV?$string_output_adapter@_W@__crt_stdio_output@@@__crt_stdio_output@@IAE_NXZ 100625c0 f i libucrtd:output.obj
 0001:000617e0       ?validate_and_update_state_at_beginning_of_format_character@?$standard_base@DV?$stream_output_adapter@D@__crt_stdio_output@@@__crt_stdio_output@@IAE_NXZ 100627e0 f i libucrtd:output.obj
 0001:000617f0       ?validate_and_update_state_at_beginning_of_format_character@?$standard_base@DV?$string_output_adapter@D@__crt_stdio_output@@@__crt_stdio_output@@IAE_NXZ 100627f0 f i libucrtd:output.obj
 0001:00061800       ?validate_and_update_state_at_beginning_of_format_character@?$standard_base@_WV?$stream_output_adapter@_W@__crt_stdio_output@@@__crt_stdio_output@@IAE_NXZ 10062800 f i libucrtd:output.obj
 0001:00061810       ?validate_and_update_state_at_beginning_of_format_character@?$standard_base@_WV?$string_output_adapter@_W@__crt_stdio_output@@@__crt_stdio_output@@IAE_NXZ 10062810 f i libucrtd:output.obj
 0001:00061820       ?validate_and_update_state_at_end_of_format_string@?$format_validation_base@DV?$stream_output_adapter@D@__crt_stdio_output@@@__crt_stdio_output@@IBE_NXZ 10062820 f i libucrtd:output.obj
 0001:000618c0       ?validate_and_update_state_at_end_of_format_string@?$format_validation_base@DV?$string_output_adapter@D@__crt_stdio_output@@@__crt_stdio_output@@IBE_NXZ 100628c0 f i libucrtd:output.obj
 0001:00061960       ?validate_and_update_state_at_end_of_format_string@?$format_validation_base@_WV?$stream_output_adapter@_W@__crt_stdio_output@@@__crt_stdio_output@@IBE_NXZ 10062960 f i libucrtd:output.obj
 0001:00061a00       ?validate_and_update_state_at_end_of_format_string@?$format_validation_base@_WV?$string_output_adapter@_W@__crt_stdio_output@@@__crt_stdio_output@@IBE_NXZ 10062a00 f i libucrtd:output.obj
 0001:00061aa0       ?validate_and_update_state_at_end_of_format_string@?$positional_parameter_base@DV?$stream_output_adapter@D@__crt_stdio_output@@@__crt_stdio_output@@IAE_NXZ 10062aa0 f i libucrtd:output.obj
 0001:00061c40       ?validate_and_update_state_at_end_of_format_string@?$positional_parameter_base@DV?$string_output_adapter@D@__crt_stdio_output@@@__crt_stdio_output@@IAE_NXZ 10062c40 f i libucrtd:output.obj
 0001:00061de0       ?validate_and_update_state_at_end_of_format_string@?$positional_parameter_base@_WV?$stream_output_adapter@_W@__crt_stdio_output@@@__crt_stdio_output@@IAE_NXZ 10062de0 f i libucrtd:output.obj
 0001:00061f80       ?validate_and_update_state_at_end_of_format_string@?$positional_parameter_base@_WV?$string_output_adapter@_W@__crt_stdio_output@@@__crt_stdio_output@@IAE_NXZ 10062f80 f i libucrtd:output.obj
 0001:00062120       ?validate_and_update_state_at_end_of_format_string@?$standard_base@DV?$stream_output_adapter@D@__crt_stdio_output@@@__crt_stdio_output@@IBE_NXZ 10063120 f i libucrtd:output.obj
 0001:00062130       ?validate_and_update_state_at_end_of_format_string@?$standard_base@DV?$string_output_adapter@D@__crt_stdio_output@@@__crt_stdio_output@@IBE_NXZ 10063130 f i libucrtd:output.obj
 0001:00062140       ?validate_and_update_state_at_end_of_format_string@?$standard_base@_WV?$stream_output_adapter@_W@__crt_stdio_output@@@__crt_stdio_output@@IBE_NXZ 10063140 f i libucrtd:output.obj
 0001:00062150       ?validate_and_update_state_at_end_of_format_string@?$standard_base@_WV?$string_output_adapter@_W@__crt_stdio_output@@@__crt_stdio_output@@IBE_NXZ 10063150 f i libucrtd:output.obj
 0001:00062160       ?validate_state_for_type_case_a@?$positional_parameter_base@DV?$stream_output_adapter@D@__crt_stdio_output@@@__crt_stdio_output@@IAE_NXZ 10063160 f i libucrtd:output.obj
 0001:00062250       ?validate_state_for_type_case_a@?$positional_parameter_base@DV?$string_output_adapter@D@__crt_stdio_output@@@__crt_stdio_output@@IAE_NXZ 10063250 f i libucrtd:output.obj
 0001:00062340       ?validate_state_for_type_case_a@?$positional_parameter_base@_WV?$stream_output_adapter@_W@__crt_stdio_output@@@__crt_stdio_output@@IAE_NXZ 10063340 f i libucrtd:output.obj
 0001:00062430       ?validate_state_for_type_case_a@?$positional_parameter_base@_WV?$string_output_adapter@_W@__crt_stdio_output@@@__crt_stdio_output@@IAE_NXZ 10063430 f i libucrtd:output.obj
 0001:00062520       ?validate_state_for_type_case_a@?$standard_base@DV?$stream_output_adapter@D@__crt_stdio_output@@@__crt_stdio_output@@IBE_NXZ 10063520 f i libucrtd:output.obj
 0001:00062530       ?validate_state_for_type_case_a@?$standard_base@DV?$string_output_adapter@D@__crt_stdio_output@@@__crt_stdio_output@@IBE_NXZ 10063530 f i libucrtd:output.obj
 0001:00062540       ?validate_state_for_type_case_a@?$standard_base@_WV?$stream_output_adapter@_W@__crt_stdio_output@@@__crt_stdio_output@@IBE_NXZ 10063540 f i libucrtd:output.obj
 0001:00062550       ?validate_state_for_type_case_a@?$standard_base@_WV?$string_output_adapter@_W@__crt_stdio_output@@@__crt_stdio_output@@IBE_NXZ 10063550 f i libucrtd:output.obj
 0001:00062560       ?validate_stream_is_ansi_if_required@?$__acrt_stdio_char_traits@D@@SA_NQAU_iobuf@@@Z 10063560 f i libucrtd:output.obj
 0001:00062690       ?validate_stream_is_ansi_if_required@?$__acrt_stdio_char_traits@_W@@SA_NQAU_iobuf@@@Z 10063690 f i libucrtd:output.obj
 0001:000626a0       ?wide_null_string@?$output_processor@DV?$stream_output_adapter@D@__crt_stdio_output@@V?$format_validation_base@DV?$stream_output_adapter@D@__crt_stdio_output@@@2@@__crt_stdio_output@@CAPA_WXZ 100636a0 f i libucrtd:output.obj
 0001:000626b0       ?wide_null_string@?$output_processor@DV?$stream_output_adapter@D@__crt_stdio_output@@V?$positional_parameter_base@DV?$stream_output_adapter@D@__crt_stdio_output@@@2@@__crt_stdio_output@@CAPA_WXZ 100636b0 f i libucrtd:output.obj
 0001:000626c0       ?wide_null_string@?$output_processor@DV?$stream_output_adapter@D@__crt_stdio_output@@V?$standard_base@DV?$stream_output_adapter@D@__crt_stdio_output@@@2@@__crt_stdio_output@@CAPA_WXZ 100636c0 f i libucrtd:output.obj
 0001:000626d0       ?wide_null_string@?$output_processor@DV?$string_output_adapter@D@__crt_stdio_output@@V?$format_validation_base@DV?$string_output_adapter@D@__crt_stdio_output@@@2@@__crt_stdio_output@@CAPA_WXZ 100636d0 f i libucrtd:output.obj
 0001:000626e0       ?wide_null_string@?$output_processor@DV?$string_output_adapter@D@__crt_stdio_output@@V?$positional_parameter_base@DV?$string_output_adapter@D@__crt_stdio_output@@@2@@__crt_stdio_output@@CAPA_WXZ 100636e0 f i libucrtd:output.obj
 0001:000626f0       ?wide_null_string@?$output_processor@DV?$string_output_adapter@D@__crt_stdio_output@@V?$standard_base@DV?$string_output_adapter@D@__crt_stdio_output@@@2@@__crt_stdio_output@@CAPA_WXZ 100636f0 f i libucrtd:output.obj
 0001:00062700       ?wide_null_string@?$output_processor@_WV?$stream_output_adapter@_W@__crt_stdio_output@@V?$format_validation_base@_WV?$stream_output_adapter@_W@__crt_stdio_output@@@2@@__crt_stdio_output@@CAPA_WXZ 10063700 f i libucrtd:output.obj
 0001:00062710       ?wide_null_string@?$output_processor@_WV?$stream_output_adapter@_W@__crt_stdio_output@@V?$positional_parameter_base@_WV?$stream_output_adapter@_W@__crt_stdio_output@@@2@@__crt_stdio_output@@CAPA_WXZ 10063710 f i libucrtd:output.obj
 0001:00062720       ?wide_null_string@?$output_processor@_WV?$stream_output_adapter@_W@__crt_stdio_output@@V?$standard_base@_WV?$stream_output_adapter@_W@__crt_stdio_output@@@2@@__crt_stdio_output@@CAPA_WXZ 10063720 f i libucrtd:output.obj
 0001:00062730       ?wide_null_string@?$output_processor@_WV?$string_output_adapter@_W@__crt_stdio_output@@V?$format_validation_base@_WV?$string_output_adapter@_W@__crt_stdio_output@@@2@@__crt_stdio_output@@CAPA_WXZ 10063730 f i libucrtd:output.obj
 0001:00062740       ?wide_null_string@?$output_processor@_WV?$string_output_adapter@_W@__crt_stdio_output@@V?$positional_parameter_base@_WV?$string_output_adapter@_W@__crt_stdio_output@@@2@@__crt_stdio_output@@CAPA_WXZ 10063740 f i libucrtd:output.obj
 0001:00062750       ?wide_null_string@?$output_processor@_WV?$string_output_adapter@_W@__crt_stdio_output@@V?$standard_base@_WV?$string_output_adapter@_W@__crt_stdio_output@@@2@@__crt_stdio_output@@CAPA_WXZ 10063750 f i libucrtd:output.obj
 0001:00062760       ?write_character@?$output_adapter_common@DV?$stream_output_adapter@D@__crt_stdio_output@@@__crt_stdio_output@@QBEXDQAH@Z 10063760 f i libucrtd:output.obj
 0001:000627a0       ?write_character@?$output_adapter_common@_WV?$stream_output_adapter@_W@__crt_stdio_output@@@__crt_stdio_output@@QBEX_WQAH@Z 100637a0 f i libucrtd:output.obj
 0001:000627e0       ?write_character@?$string_output_adapter@D@__crt_stdio_output@@QBE_NDQAH@Z 100637e0 f i libucrtd:output.obj
 0001:00062870       ?write_character@?$string_output_adapter@_W@__crt_stdio_output@@QBE_N_WQAH@Z 10063870 f i libucrtd:output.obj
 0001:00062910       ?write_character_without_count_update@?$stream_output_adapter@D@__crt_stdio_output@@QBE_ND@Z 10063910 f i libucrtd:output.obj
 0001:00062980       ?write_character_without_count_update@?$stream_output_adapter@_W@__crt_stdio_output@@QBE_N_W@Z 10063980 f i libucrtd:output.obj
 0001:000629f0       ?write_stored_string_tchar@?$output_processor@DV?$stream_output_adapter@D@__crt_stdio_output@@V?$format_validation_base@DV?$stream_output_adapter@D@__crt_stdio_output@@@2@@__crt_stdio_output@@AAE_ND@Z 100639f0 f i libucrtd:output.obj
 0001:00062b00       ?write_stored_string_tchar@?$output_processor@DV?$stream_output_adapter@D@__crt_stdio_output@@V?$positional_parameter_base@DV?$stream_output_adapter@D@__crt_stdio_output@@@2@@__crt_stdio_output@@AAE_ND@Z 10063b00 f i libucrtd:output.obj
 0001:00062c10       ?write_stored_string_tchar@?$output_processor@DV?$stream_output_adapter@D@__crt_stdio_output@@V?$standard_base@DV?$stream_output_adapter@D@__crt_stdio_output@@@2@@__crt_stdio_output@@AAE_ND@Z 10063c10 f i libucrtd:output.obj
 0001:00062d20       ?write_stored_string_tchar@?$output_processor@DV?$string_output_adapter@D@__crt_stdio_output@@V?$format_validation_base@DV?$string_output_adapter@D@__crt_stdio_output@@@2@@__crt_stdio_output@@AAE_ND@Z 10063d20 f i libucrtd:output.obj
 0001:00062e30       ?write_stored_string_tchar@?$output_processor@DV?$string_output_adapter@D@__crt_stdio_output@@V?$positional_parameter_base@DV?$string_output_adapter@D@__crt_stdio_output@@@2@@__crt_stdio_output@@AAE_ND@Z 10063e30 f i libucrtd:output.obj
 0001:00062f40       ?write_stored_string_tchar@?$output_processor@DV?$string_output_adapter@D@__crt_stdio_output@@V?$standard_base@DV?$string_output_adapter@D@__crt_stdio_output@@@2@@__crt_stdio_output@@AAE_ND@Z 10063f40 f i libucrtd:output.obj
 0001:00063050       ?write_stored_string_tchar@?$output_processor@_WV?$stream_output_adapter@_W@__crt_stdio_output@@V?$format_validation_base@_WV?$stream_output_adapter@_W@__crt_stdio_output@@@2@@__crt_stdio_output@@AAE_N_W@Z 10064050 f i libucrtd:output.obj
 0001:00063140       ?write_stored_string_tchar@?$output_processor@_WV?$stream_output_adapter@_W@__crt_stdio_output@@V?$positional_parameter_base@_WV?$stream_output_adapter@_W@__crt_stdio_output@@@2@@__crt_stdio_output@@AAE_N_W@Z 10064140 f i libucrtd:output.obj
 0001:00063230       ?write_stored_string_tchar@?$output_processor@_WV?$stream_output_adapter@_W@__crt_stdio_output@@V?$standard_base@_WV?$stream_output_adapter@_W@__crt_stdio_output@@@2@@__crt_stdio_output@@AAE_N_W@Z 10064230 f i libucrtd:output.obj
 0001:00063320       ?write_stored_string_tchar@?$output_processor@_WV?$string_output_adapter@_W@__crt_stdio_output@@V?$format_validation_base@_WV?$string_output_adapter@_W@__crt_stdio_output@@@2@@__crt_stdio_output@@AAE_N_W@Z 10064320 f i libucrtd:output.obj
 0001:00063410       ?write_stored_string_tchar@?$output_processor@_WV?$string_output_adapter@_W@__crt_stdio_output@@V?$positional_parameter_base@_WV?$string_output_adapter@_W@__crt_stdio_output@@@2@@__crt_stdio_output@@AAE_N_W@Z 10064410 f i libucrtd:output.obj
 0001:00063500       ?write_stored_string_tchar@?$output_processor@_WV?$string_output_adapter@_W@__crt_stdio_output@@V?$standard_base@_WV?$string_output_adapter@_W@__crt_stdio_output@@@2@@__crt_stdio_output@@AAE_N_W@Z 10064500 f i libucrtd:output.obj
 0001:000635f0       ?write_string@?$stream_output_adapter@D@__crt_stdio_output@@QBEXQBDHQAHAAV__crt_deferred_errno_cache@@@Z 100645f0 f i libucrtd:output.obj
 0001:00063650       ?write_string@?$stream_output_adapter@_W@__crt_stdio_output@@QBEXQB_WHQAHAAV__crt_deferred_errno_cache@@@Z 10064650 f i libucrtd:output.obj
 0001:000636b0       ?write_string@?$string_output_adapter@D@__crt_stdio_output@@QBEXQBDHQAHAAV__crt_deferred_errno_cache@@@Z 100646b0 f i libucrtd:output.obj
 0001:000637b0       ?write_string@?$string_output_adapter@_W@__crt_stdio_output@@QBEXQB_WHQAHAAV__crt_deferred_errno_cache@@@Z 100647b0 f i libucrtd:output.obj
 0001:000638c0       ?write_string_impl@?$output_adapter_common@DV?$stream_output_adapter@D@__crt_stdio_output@@@__crt_stdio_output@@IBEXQBDHQAHAAV__crt_deferred_errno_cache@@@Z 100648c0 f i libucrtd:output.obj
 0001:00063960       ?write_string_impl@?$output_adapter_common@_WV?$stream_output_adapter@_W@__crt_stdio_output@@@__crt_stdio_output@@IBEXQB_WHQAHAAV__crt_deferred_errno_cache@@@Z 10064960 f i libucrtd:output.obj
 0001:00063a00       ___acrt_isleadbyte_l_noupdate 10064a00 f i libucrtd:output.obj
 0001:00063a20       ___acrt_locale_changed     10064a20 f i libucrtd:output.obj
 0001:00063a50       ___acrt_locale_get_ctype_array_value 10064a50 f i libucrtd:output.obj
 0001:00063a80       ___stdio_common_vfprintf   10064a80 f   libucrtd:output.obj
 0001:00063ab0       ___stdio_common_vfprintf_p 10064ab0 f   libucrtd:output.obj
 0001:00063ae0       ___stdio_common_vfprintf_s 10064ae0 f   libucrtd:output.obj
 0001:00063b10       ___stdio_common_vfwprintf  10064b10 f   libucrtd:output.obj
 0001:00063b40       ___stdio_common_vfwprintf_p 10064b40 f   libucrtd:output.obj
 0001:00063b70       ___stdio_common_vfwprintf_s 10064b70 f   libucrtd:output.obj
 0001:00063ba0       ___stdio_common_vsnprintf_s 10064ba0 f   libucrtd:output.obj
 0001:00063bd0       ___stdio_common_vsnwprintf_s 10064bd0 f   libucrtd:output.obj
 0001:00063c00       ___stdio_common_vsprintf   10064c00 f   libucrtd:output.obj
 0001:00063c30       ___stdio_common_vsprintf_p 10064c30 f   libucrtd:output.obj
 0001:00063c60       ___stdio_common_vsprintf_s 10064c60 f   libucrtd:output.obj
 0001:00063c90       ___stdio_common_vswprintf  10064c90 f   libucrtd:output.obj
 0001:00063cc0       ___stdio_common_vswprintf_p 10064cc0 f   libucrtd:output.obj
 0001:00063cf0       ___stdio_common_vswprintf_s 10064cf0 f   libucrtd:output.obj
 0001:00063d20       __ctype_fast_check_internal 10064d20 f i libucrtd:output.obj
 0001:00063d40       __isdigit_fast_internal    10064d40 f i libucrtd:output.obj
 0001:00063d60       __tolower_fast_internal    10064d60 f i libucrtd:output.obj
 0001:00063d80       _free                      10064d80 f   libucrtd:free.obj
 0001:00063db0       _malloc                    10064db0 f   libucrtd:malloc.obj
 0001:00063dd0       ??$?RU?$__crt_report_hook_node@D@@@__crt_internal_free_policy@@QBEXQBU?$__crt_report_hook_node@D@@@Z 10064dd0 f i libucrtd:dbgrpt.obj
 0001:00063df0       ??$?RU?$__crt_report_hook_node@_W@@@__crt_internal_free_policy@@QBEXQBU?$__crt_report_hook_node@_W@@@Z 10064df0 f i libucrtd:dbgrpt.obj
 0001:00064be0       ??$get_module_file_name@AAPAUHINSTANCE__@@AAY0BAF@DK@?$__crt_char_traits@D@@SAKAAPAUHINSTANCE__@@AAY0BAF@D$$QAK@Z 10065be0 f i libucrtd:dbgrpt.obj
 0001:00064c00       ??$get_module_file_name@AAPAUHINSTANCE__@@AAY0BAF@_WK@?$__crt_char_traits@_W@@SAKAAPAUHINSTANCE__@@AAY0BAF@_W$$QAK@Z 10065c00 f i libucrtd:dbgrpt.obj
 0001:00064c20       ??$tcscpy_s@AAY0BAF@DIPBD@?$__crt_char_traits@D@@SAHAAY0BAF@D$$QAI$$QAPBD@Z 10065c20 f i libucrtd:dbgrpt.obj
 0001:00064c40       ??$tcscpy_s@AAY0BAF@_WIPB_W@?$__crt_char_traits@_W@@SAHAAY0BAF@_W$$QAI$$QAPB_W@Z 10065c40 f i libucrtd:dbgrpt.obj
 0001:00064c60       ??$tcslen@AAY0BAF@D@?$__crt_char_traits@D@@SAIAAY0BAF@D@Z 10065c60 f i libucrtd:dbgrpt.obj
 0001:00064c80       ??$tcslen@AAY0BAF@_W@?$__crt_char_traits@_W@@SAIAAY0BAF@_W@Z 10065c80 f i libucrtd:dbgrpt.obj
 0001:00064ca0       ??$tcslen@ABQBD@?$__crt_char_traits@D@@SAIABQBD@Z 10065ca0 f i libucrtd:dbgrpt.obj
 0001:00064cc0       ??$tcslen@ABQB_W@?$__crt_char_traits@_W@@SAIABQB_W@Z 10065cc0 f i libucrtd:dbgrpt.obj
 0001:00064dc0       ??0?$__crt_unique_heap_ptr@U?$__crt_report_hook_node@D@@U__crt_internal_free_policy@@@@QAE@QAU?$__crt_report_hook_node@D@@@Z 10065dc0 f i libucrtd:dbgrpt.obj
 0001:00064de0       ??0?$__crt_unique_heap_ptr@U?$__crt_report_hook_node@_W@@U__crt_internal_free_policy@@@@QAE@QAU?$__crt_report_hook_node@_W@@@Z 10065de0 f i libucrtd:dbgrpt.obj
 0001:00064e00       ??1?$__crt_unique_heap_ptr@U?$__crt_report_hook_node@D@@U__crt_internal_free_policy@@@@QAE@XZ 10065e00 f i libucrtd:dbgrpt.obj
 0001:00064e20       ??1?$__crt_unique_heap_ptr@U?$__crt_report_hook_node@_W@@U__crt_internal_free_policy@@@@QAE@XZ 10065e20 f i libucrtd:dbgrpt.obj
 0001:00064e40       ??B?$__crt_unique_heap_ptr@U?$__crt_report_hook_node@D@@U__crt_internal_free_policy@@@@QBE_NXZ 10065e40 f i libucrtd:dbgrpt.obj
 0001:00064e60       ??B?$__crt_unique_heap_ptr@U?$__crt_report_hook_node@_W@@U__crt_internal_free_policy@@@@QBE_NXZ 10065e60 f i libucrtd:dbgrpt.obj
 0001:000653a0       ?detach@?$__crt_unique_heap_ptr@U?$__crt_report_hook_node@D@@U__crt_internal_free_policy@@@@QAEPAU?$__crt_report_hook_node@D@@XZ 100663a0 f i libucrtd:dbgrpt.obj
 0001:000653d0       ?detach@?$__crt_unique_heap_ptr@U?$__crt_report_hook_node@_W@@U__crt_internal_free_policy@@@@QAEPAU?$__crt_report_hook_node@_W@@XZ 100663d0 f i libucrtd:dbgrpt.obj
 0001:00065400       ?get@?$__crt_unique_heap_ptr@U?$__crt_report_hook_node@D@@U__crt_internal_free_policy@@@@QBEPAU?$__crt_report_hook_node@D@@XZ 10066400 f i libucrtd:dbgrpt.obj
 0001:00065420       ?get@?$__crt_unique_heap_ptr@U?$__crt_report_hook_node@_W@@U__crt_internal_free_policy@@@@QBEPAU?$__crt_report_hook_node@_W@@XZ 10066420 f i libucrtd:dbgrpt.obj
 0001:000654a0       ?is_valid@?$__crt_unique_heap_ptr@U?$__crt_report_hook_node@D@@U__crt_internal_free_policy@@@@QBE_NXZ 100664a0 f i libucrtd:dbgrpt.obj
 0001:000654d0       ?is_valid@?$__crt_unique_heap_ptr@U?$__crt_report_hook_node@_W@@U__crt_internal_free_policy@@@@QBE_NXZ 100664d0 f i libucrtd:dbgrpt.obj
 0001:00065500       ?release@?$__crt_unique_heap_ptr@U?$__crt_report_hook_node@D@@U__crt_internal_free_policy@@@@QAEXXZ 10066500 f i libucrtd:dbgrpt.obj
 0001:00065530       ?release@?$__crt_unique_heap_ptr@U?$__crt_report_hook_node@_W@@U__crt_internal_free_policy@@@@QAEXXZ 10066530 f i libucrtd:dbgrpt.obj
 0001:00065560       __CrtDbgReport             10066560 f   libucrtd:dbgrpt.obj
 0001:000655b0       __CrtDbgReportW            100665b0 f   libucrtd:dbgrpt.obj
 0001:00065600       __CrtSetReportHook2        10066600 f   libucrtd:dbgrpt.obj
 0001:00065620       __CrtSetReportHookW2       10066620 f   libucrtd:dbgrpt.obj
 0001:00065640       ___acrt_MessageWindowA     10066640 f   libucrtd:dbgrpt.obj
 0001:00065670       ___acrt_MessageWindowW     10066670 f   libucrtd:dbgrpt.obj
 0001:000656a0       __invoke_watson_if_error   100666a0 f i libucrtd:dbgrpt.obj
 0001:000656d0       __invoke_watson_if_oneof   100666d0 f i libucrtd:dbgrpt.obj
 0001:00065710       __snwprintf_s              10066710 f i libucrtd:dbgrpt.obj
 0001:00065750       __vsnwprintf_s_l           10066750 f i libucrtd:dbgrpt.obj
 0001:00065ad0       _wcscpy_s                  10066ad0 f   libucrtd:wcscpy_s.obj
 0001:000667f0       ??1?$__crt_simd_cleanup_guard@$00@@QAE@XZ 100677f0 f i libucrtd:strnlen.obj
 0001:00066800       ??1?$__crt_simd_cleanup_guard@$0A@@@QAE@XZ 10067800 f i libucrtd:strnlen.obj
 0001:00066810       ?compare_equals@?$__crt_simd_traits@$00E@@SA?AT__m256i@@T2@0@Z 10067810 f i libucrtd:strnlen.obj
 0001:00066850       ?compare_equals@?$__crt_simd_traits@$00G@@SA?AT__m256i@@T2@0@Z 10067850 f i libucrtd:strnlen.obj
 0001:00066890       ?compare_equals@?$__crt_simd_traits@$0A@E@@SA?AT__m128i@@T2@0@Z 10067890 f i libucrtd:strnlen.obj
 0001:000668d0       ?compare_equals@?$__crt_simd_traits@$0A@G@@SA?AT__m128i@@T2@0@Z 100678d0 f i libucrtd:strnlen.obj
 0001:00066910       ?compute_byte_mask@?$__crt_simd_pack_traits@$00@@SAHT__m256i@@@Z 10067910 f i libucrtd:strnlen.obj
 0001:00066940       ?compute_byte_mask@?$__crt_simd_pack_traits@$0A@@@SAHT__m128i@@@Z 10067940 f i libucrtd:strnlen.obj
 0001:00066970       ?get_zero_pack@?$__crt_simd_pack_traits@$00@@SA?AT__m256i@@XZ 10067970 f i libucrtd:strnlen.obj
 0001:000669a0       ?get_zero_pack@?$__crt_simd_pack_traits@$0A@@@SA?AT__m128i@@XZ 100679a0 f i libucrtd:strnlen.obj
 0001:000669d0       _strnlen                   100679d0 f   libucrtd:strnlen.obj
 0001:000669f0       _wcslen                    100679f0 f   libucrtd:strnlen.obj
 0001:00066a10       _wcsnlen                   10067a10 f   libucrtd:strnlen.obj
 0001:00066a30       ??$__crt_fast_decode_pointer@P6AXPB_W00II@Z@@YAP6AXPB_W00II@ZQ6AX000II@Z@Z 10067a30 f i libucrtd:invalid_parameter.obj
 0001:00066a60       ??$__crt_fast_encode_pointer@P6AXPB_W00II@Z@@YAP6AXPB_W00II@ZQ6AX000II@Z@Z 10067a60 f i libucrtd:invalid_parameter.obj
 0001:00066a90       ??$initialize_from_array@$$BY00Q6AXPB_W00II@Z@?$dual_state_global@P6AXPB_W00II@Z@__crt_state_management@@QAAXAAY00Q6AXPB_W00II@Z@Z 10067a90 f i libucrtd:invalid_parameter.obj
 0001:00066ae0       ?__crt_rotate_pointer_value@@YAIIH@Z 10067ae0 f i libucrtd:invalid_parameter.obj
 0001:00066af0       ?dangerous_get_state_array@?$dual_state_global@P6AXPB_W00II@Z@__crt_state_management@@QAEPAP6AXPB_W00II@ZXZ 10067af0 f i libucrtd:invalid_parameter.obj
 0001:00066b00       ?get_current_state_index@__crt_state_management@@YAIXZ 10067b00 f i libucrtd:invalid_parameter.obj
 0001:00066b10       ?value@?$dual_state_global@P6AXPB_W00II@Z@__crt_state_management@@QAEAAP6AXPB_W00II@ZXZ 10067b10 f i libucrtd:invalid_parameter.obj
 0001:00066b30       ___acrt_call_reportfault   10067b30 f   libucrtd:invalid_parameter.obj
 0001:00066c90       ___acrt_initialize_invalid_parameter_handler 10067c90 f   libucrtd:invalid_parameter.obj
 0001:00066cc0       __get_invalid_parameter_handler 10067cc0 f   libucrtd:invalid_parameter.obj
 0001:00066ce0       __get_thread_local_invalid_parameter_handler 10067ce0 f   libucrtd:invalid_parameter.obj
 0001:00066d10       __invalid_parameter        10067d10 f   libucrtd:invalid_parameter.obj
 0001:00066dd0       __invalid_parameter_noinfo 10067dd0 f   libucrtd:invalid_parameter.obj
 0001:00066df0       __invalid_parameter_noinfo_noreturn 10067df0 f   libucrtd:invalid_parameter.obj
 0001:00066e20       __invoke_watson            10067e20 f   libucrtd:invalid_parameter.obj
 0001:00066e60       __set_invalid_parameter_handler 10067e60 f   libucrtd:invalid_parameter.obj
 0001:00066eb0       __set_thread_local_invalid_parameter_handler 10067eb0 f   libucrtd:invalid_parameter.obj
 0001:00066ee0       ___acrt_errno_from_os_error 10067ee0 f   libucrtd:errno.obj
 0001:00066f60       ___acrt_errno_map_os_error 10067f60 f   libucrtd:errno.obj
 0001:00066f90       ___doserrno                10067f90 f   libucrtd:errno.obj
 0001:00066fc0       __errno                    10067fc0 f   libucrtd:errno.obj
 0001:00066ff0       __get_doserrno             10067ff0 f   libucrtd:errno.obj
 0001:00067080       __get_errno                10068080 f   libucrtd:errno.obj
 0001:00067110       __set_doserrno             10068110 f   libucrtd:errno.obj
 0001:00067140       __set_errno                10068140 f   libucrtd:errno.obj
 0001:00067170       _calloc                    10068170 f   libucrtd:calloc.obj
 0001:00067190       __recalloc                 10068190 f   libucrtd:recalloc.obj
 0001:000671c0       __recalloc_base            100681c0 f   libucrtd:recalloc.obj
 0001:0006725a       __resetstkoflw             1006825a f   libucrtd:resetstk.obj
 0001:00067740       _wcscat_s                  10068740 f   libucrtd:wcscat_s.obj
 0001:00067b90       _wcsncpy_s                 10068b90 f   libucrtd:wcsncpy_s.obj
 0001:00067bd0       ___acrt_get_locale_data_prefix 10068bd0 f i libucrtd:_ctype.obj
 0001:00067bf0       ___isascii                 10068bf0 f i libucrtd:_ctype.obj
 0001:00067c20       ___iscsym                  10068c20 f i libucrtd:_ctype.obj
 0001:00067c60       ___iscsymf                 10068c60 f i libucrtd:_ctype.obj
 0001:00067ca0       ___toascii                 10068ca0 f i libucrtd:_ctype.obj
 0001:00067cb0       __chvalidchk_l             10068cb0 f i libucrtd:_ctype.obj
 0001:00067cd0       __isalnum_l                10068cd0 f i libucrtd:_ctype.obj
 0001:00067d10       __isalpha_l                10068d10 f i libucrtd:_ctype.obj
 0001:00067d50       __isblank_l                10068d50 f i libucrtd:_ctype.obj
 0001:00067db0       __ischartype_l             10068db0 f i libucrtd:_ctype.obj
 0001:00067e30       __iscntrl_l                10068e30 f i libucrtd:_ctype.obj
 0001:00067e70       __iscsym_l                 10068e70 f i libucrtd:_ctype.obj
 0001:00067eb0       __iscsymf_l                10068eb0 f i libucrtd:_ctype.obj
 0001:00067ef0       __isdigit_l                10068ef0 f i libucrtd:_ctype.obj
 0001:00067f30       __isgraph_l                10068f30 f i libucrtd:_ctype.obj
 0001:00067f70       __islower_l                10068f70 f i libucrtd:_ctype.obj
 0001:00067fb0       __isprint_l                10068fb0 f i libucrtd:_ctype.obj
 0001:00067ff0       __ispunct_l                10068ff0 f i libucrtd:_ctype.obj
 0001:00068030       __isspace_l                10069030 f i libucrtd:_ctype.obj
 0001:00068070       __isupper_l                10069070 f i libucrtd:_ctype.obj
 0001:000680b0       __isxdigit_l               100690b0 f i libucrtd:_ctype.obj
 0001:000680f0       _isalnum                   100690f0 f i libucrtd:_ctype.obj
 0001:00068130       _isalpha                   10069130 f i libucrtd:_ctype.obj
 0001:00068170       _isblank                   10069170 f i libucrtd:_ctype.obj
 0001:000681d0       _iscntrl                   100691d0 f i libucrtd:_ctype.obj
 0001:00068210       _isdigit                   10069210 f i libucrtd:_ctype.obj
 0001:00068250       _isgraph                   10069250 f i libucrtd:_ctype.obj
 0001:00068290       _islower                   10069290 f i libucrtd:_ctype.obj
 0001:000682d0       _isprint                   100692d0 f i libucrtd:_ctype.obj
 0001:00068310       _ispunct                   10069310 f i libucrtd:_ctype.obj
 0001:00068350       _isspace                   10069350 f i libucrtd:_ctype.obj
 0001:00068390       _isupper                   10069390 f i libucrtd:_ctype.obj
 0001:000683d0       _isxdigit                  100693d0 f i libucrtd:_ctype.obj
 0001:00068410       _wcscat                    10069410 f   libucrtd:wcscat.obj
 0001:00068470       _wcscpy                    10069470 f   libucrtd:wcscpy.obj
 0001:00068b00       ??$open_file@ABQBDABQBDABHPAU_iobuf@@@?$__crt_char_traits@D@@SAPAU_iobuf@@ABQBD0ABH$$QAPAU1@@Z 10069b00 f i libucrtd:fopen.obj
 0001:00068b30       ??$open_file@ABQB_WABQB_WABHPAU_iobuf@@@?$__crt_char_traits@_W@@SAPAU_iobuf@@ABQB_W0ABH$$QAPAU1@@Z 10069b30 f i libucrtd:fopen.obj
 0001:00068b60       ?unlock@__crt_stdio_stream@@QBEXXZ 10069b60 f i libucrtd:fopen.obj
 0001:00068b80       __fsopen                   10069b80 f   libucrtd:fopen.obj
 0001:00068ba0       __wfopen                   10069ba0 f   libucrtd:fopen.obj
 0001:00068bc0       __wfopen_s                 10069bc0 f   libucrtd:fopen.obj
 0001:00068be0       __wfsopen                  10069be0 f   libucrtd:fopen.obj
 0001:00068c00       _fopen                     10069c00 f   libucrtd:fopen.obj
 0001:00068c20       _fopen_s                   10069c20 f   libucrtd:fopen.obj
 0001:00068c40       ?is_in_use@__crt_stdio_stream@@QBE_NXZ 10069c40 f i libucrtd:fclose.obj
 0001:00068c80       __fclose_nolock            10069c80 f   libucrtd:fclose.obj
 0001:00068dc0       _fclose                    10069dc0 f   libucrtd:fclose.obj
 0001:00068f10       __fputc_nolock             10069f10 f   libucrtd:fputc.obj
 0001:00068fa0       __fputchar                 10069fa0 f   libucrtd:fputc.obj
 0001:00068fc0       __putc_nolock              10069fc0 f   libucrtd:fputc.obj
 0001:00068fe0       _fputc                     10069fe0 f   libucrtd:fputc.obj
 0001:00069220       _putc                      1006a220 f   libucrtd:fputc.obj
 0001:00069240       _putchar                   1006a240 f   libucrtd:fputc.obj
 0001:000692b0       __seh_filter_dll           1006a2b0 f   libucrtd:exception_filter.obj
 0001:000692e0       __seh_filter_exe           1006a2e0 f   libucrtd:exception_filter.obj
 0001:000694f0       ??$?B$$A6GXPAXK0@Z@__crt_fast_encoded_nullptr_t@@QBEP6GXPAXK0@ZXZ 1006a4f0 f i libucrtd:exit.obj
 0001:000695d0       ??$__crt_fast_decode_pointer@P6GXPAXK0@Z@@YAP6GXPAXK0@ZQ6GX0K0@Z@Z 1006a5d0 f i libucrtd:exit.obj
 0001:00069600       ??$__crt_fast_encode_pointer@P6GXPAXK0@Z@@YAP6GXPAXK0@ZQ6GX0K0@Z@Z 1006a600 f i libucrtd:exit.obj
 0001:00069630       ??$__crt_get_proc_address@P6GXI@Z@@YAP6GXI@ZQAUHINSTANCE__@@QBD@Z 1006a630 f i libucrtd:exit.obj
 0001:000696c0       ??0?$__crt_unique_handle_t@U__crt_hmodule_traits@@@@QAE@QAUHINSTANCE__@@@Z 1006a6c0 f i libucrtd:exit.obj
 0001:000696e0       ??1?$__crt_unique_handle_t@U__crt_hmodule_traits@@@@QAE@XZ 1006a6e0 f i libucrtd:exit.obj
 0001:000698a0       ?__acrt_select_exit_lock@@YA?AW4__acrt_lock_id@@XZ 1006a8a0 f i libucrtd:exit.obj
 0001:000698b0       ?__crt_fast_encode_pointer@@YA?AU__crt_fast_encoded_nullptr_t@@$$T@Z 1006a8b0 f i libucrtd:exit.obj
 0001:000698e0       ?close@?$__crt_unique_handle_t@U__crt_hmodule_traits@@@@QAEXXZ 1006a8e0 f i libucrtd:exit.obj
 0001:00069920       ?close@__crt_hmodule_traits@@SA_NPAUHINSTANCE__@@@Z 1006a920 f i libucrtd:exit.obj
 0001:00069a10       ?get@?$__crt_unique_handle_t@U__crt_hmodule_traits@@@@QBEPAUHINSTANCE__@@XZ 1006aa10 f i libucrtd:exit.obj
 0001:00069a30       ?get_address_of@?$__crt_unique_handle_t@U__crt_hmodule_traits@@@@QAEPAPAUHINSTANCE__@@XZ 1006aa30 f i libucrtd:exit.obj
 0001:00069a40       ?get_invalid_value@__crt_hmodule_traits@@SAPAUHINSTANCE__@@XZ 1006aa40 f i libucrtd:exit.obj
 0001:00069bc0       __Exit                     1006abc0 f   libucrtd:exit.obj
 0001:00069be0       ___acrt_initialize_thread_local_exit_callback 1006abe0 f   libucrtd:exit.obj
 0001:00069bf0       __c_exit                   1006abf0 f   libucrtd:exit.obj
 0001:00069c10       __cexit                    1006ac10 f   libucrtd:exit.obj
 0001:00069c30       __exit                     1006ac30 f   libucrtd:exit.obj
 0001:00069c50       __is_c_termination_complete 1006ac50 f   libucrtd:exit.obj
 0001:00069c70       __register_thread_local_exe_atexit_callback 1006ac70 f   libucrtd:exit.obj
 0001:00069cb0       _exit                      1006acb0 f   libucrtd:exit.obj
 0001:00069cd0       _quick_exit                1006acd0 f   libucrtd:exit.obj
 0001:00069cf0       ??$?RE@__crt_internal_free_policy@@QBEXQBE@Z 1006acf0 f i libucrtd:argv_parsing.obj
 0001:00069d10       ??$?RPAD@__crt_internal_free_policy@@QBEXQBQAD@Z 1006ad10 f i libucrtd:argv_parsing.obj
 0001:00069d30       ??$?RPA_W@__crt_internal_free_policy@@QBEXQBQA_W@Z 1006ad30 f i libucrtd:argv_parsing.obj
 0001:0006a290       ??$get_module_file_name@$$TAAY0BAF@DH@?$__crt_char_traits@D@@SAK$$QA$$TAAY0BAF@D$$QAH@Z 1006b290 f i libucrtd:argv_parsing.obj
 0001:0006a2b0       ??$get_module_file_name@$$TAAY0BAF@_WH@?$__crt_char_traits@_W@@SAK$$QA$$TAAY0BAF@_W$$QAH@Z 1006b2b0 f i libucrtd:argv_parsing.obj
 0001:0006a9d0       ??$set_program_name@PAD@?$__crt_char_traits@D@@SAX$$QAPAD@Z 1006b9d0 f i libucrtd:argv_parsing.obj
 0001:0006a9f0       ??$set_program_name@PA_W@?$__crt_char_traits@_W@@SAX$$QAPA_W@Z 1006b9f0 f i libucrtd:argv_parsing.obj
 0001:0006aa50       ??0?$__crt_unique_heap_ptr@EU__crt_internal_free_policy@@@@QAE@QAE@Z 1006ba50 f i libucrtd:argv_parsing.obj
 0001:0006aa70       ??0?$__crt_unique_heap_ptr@PADU__crt_internal_free_policy@@@@QAE@QAPAD@Z 1006ba70 f i libucrtd:argv_parsing.obj
 0001:0006aa90       ??0?$__crt_unique_heap_ptr@PA_WU__crt_internal_free_policy@@@@QAE@QAPA_W@Z 1006ba90 f i libucrtd:argv_parsing.obj
 0001:0006aab0       ??1?$__crt_unique_heap_ptr@EU__crt_internal_free_policy@@@@QAE@XZ 1006bab0 f i libucrtd:argv_parsing.obj
 0001:0006aad0       ??1?$__crt_unique_heap_ptr@PADU__crt_internal_free_policy@@@@QAE@XZ 1006bad0 f i libucrtd:argv_parsing.obj
 0001:0006aaf0       ??1?$__crt_unique_heap_ptr@PA_WU__crt_internal_free_policy@@@@QAE@XZ 1006baf0 f i libucrtd:argv_parsing.obj
 0001:0006ab10       ??B?$__crt_unique_heap_ptr@EU__crt_internal_free_policy@@@@QBE_NXZ 1006bb10 f i libucrtd:argv_parsing.obj
 0001:0006abd0       ?detach@?$__crt_unique_heap_ptr@EU__crt_internal_free_policy@@@@QAEPAEXZ 1006bbd0 f i libucrtd:argv_parsing.obj
 0001:0006ac00       ?detach@?$__crt_unique_heap_ptr@PADU__crt_internal_free_policy@@@@QAEPAPADXZ 1006bc00 f i libucrtd:argv_parsing.obj
 0001:0006ac30       ?detach@?$__crt_unique_heap_ptr@PA_WU__crt_internal_free_policy@@@@QAEPAPA_WXZ 1006bc30 f i libucrtd:argv_parsing.obj
 0001:0006acc0       ?get@?$__crt_unique_heap_ptr@EU__crt_internal_free_policy@@@@QBEPAEXZ 1006bcc0 f i libucrtd:argv_parsing.obj
 0001:0006ace0       ?get@?$__crt_unique_heap_ptr@PADU__crt_internal_free_policy@@@@QBEPAPADXZ 1006bce0 f i libucrtd:argv_parsing.obj
 0001:0006ad00       ?get@?$__crt_unique_heap_ptr@PA_WU__crt_internal_free_policy@@@@QBEPAPA_WXZ 1006bd00 f i libucrtd:argv_parsing.obj
 0001:0006ad20       ?get_address_of@?$__crt_unique_heap_ptr@PADU__crt_internal_free_policy@@@@QAEPAPAPADXZ 1006bd20 f i libucrtd:argv_parsing.obj
 0001:0006ad30       ?get_address_of@?$__crt_unique_heap_ptr@PA_WU__crt_internal_free_policy@@@@QAEPAPAPA_WXZ 1006bd30 f i libucrtd:argv_parsing.obj
 0001:0006ad80       ?is_valid@?$__crt_unique_heap_ptr@EU__crt_internal_free_policy@@@@QBE_NXZ 1006bd80 f i libucrtd:argv_parsing.obj
 0001:0006adb0       ?release@?$__crt_unique_heap_ptr@EU__crt_internal_free_policy@@@@QAEXXZ 1006bdb0 f i libucrtd:argv_parsing.obj
 0001:0006ade0       ?release@?$__crt_unique_heap_ptr@PADU__crt_internal_free_policy@@@@QAEXXZ 1006bde0 f i libucrtd:argv_parsing.obj
 0001:0006ae10       ?release@?$__crt_unique_heap_ptr@PA_WU__crt_internal_free_policy@@@@QAEXXZ 1006be10 f i libucrtd:argv_parsing.obj
 0001:0006ae80       ___acrt_allocate_buffer_for_argv 1006be80 f   libucrtd:argv_parsing.obj
 0001:0006af40       __configure_narrow_argv    1006bf40 f   libucrtd:argv_parsing.obj
 0001:0006af60       __configure_wide_argv      1006bf60 f   libucrtd:argv_parsing.obj
 0001:0006af80       __set_pgmptr               1006bf80 f i libucrtd:argv_parsing.obj
 0001:0006af90       __set_wpgmptr              1006bf90 f i libucrtd:argv_parsing.obj
 0001:0006af9f       ??$?R_W@__crt_internal_free_policy@@QBEXQB_W@Z 1006bf9f f i libucrtd:environment_initialization.obj
 0001:0006b408       ??$get_environment_from_os@$$V@?$__crt_char_traits@D@@SAPADXZ 1006c408 f i libucrtd:environment_initialization.obj
 0001:0006b40d       ??$get_environment_from_os@$$V@?$__crt_char_traits@_W@@SAPA_WXZ 1006c40d f i libucrtd:environment_initialization.obj
 0001:0006b536       ??$set_variable_in_environment_nolock@PADH@?$__crt_char_traits@D@@SAH$$QAPAD$$QAH@Z 1006c536 f i libucrtd:environment_initialization.obj
 0001:0006b54e       ??$set_variable_in_environment_nolock@PA_WH@?$__crt_char_traits@_W@@SAH$$QAPA_W$$QAH@Z 1006c54e f i libucrtd:environment_initialization.obj
 0001:0006b566       ??$tcscpy_s@PADABIAAPAD@?$__crt_char_traits@D@@SAH$$QAPADABIAAPAD@Z 1006c566 f i libucrtd:environment_initialization.obj
 0001:0006b584       ??$tcscpy_s@PA_WABIAAPA_W@?$__crt_char_traits@_W@@SAH$$QAPA_WABIAAPA_W@Z 1006c584 f i libucrtd:environment_initialization.obj
 0001:0006b5a2       ??$tcslen@AAPAD@?$__crt_char_traits@D@@SAIAAPAD@Z 1006c5a2 f i libucrtd:environment_initialization.obj
 0001:0006b5ba       ??$tcslen@AAPA_W@?$__crt_char_traits@_W@@SAIAAPA_W@Z 1006c5ba f i libucrtd:environment_initialization.obj
 0001:0006b5d8       ??$uninitialize@A6AXAAPAPAD@Z@?$dual_state_global@PAPAD@__crt_state_management@@QAEXA6AXAAPAPAD@Z@Z 1006c5d8 f i libucrtd:environment_initialization.obj
 0001:0006b601       ??$uninitialize@A6AXAAPAPA_W@Z@?$dual_state_global@PAPA_W@__crt_state_management@@QAEXA6AXAAPAPA_W@Z@Z 1006c601 f i libucrtd:environment_initialization.obj
 0001:0006b660       ??0?$__crt_unique_heap_ptr@_WU__crt_internal_free_policy@@@@QAE@QA_W@Z 1006c660 f i libucrtd:environment_initialization.obj
 0001:0006b670       ??1?$__crt_unique_heap_ptr@_WU__crt_internal_free_policy@@@@QAE@XZ 1006c670 f i libucrtd:environment_initialization.obj
 0001:0006b685       ??B?$__crt_unique_heap_ptr@PADU__crt_internal_free_policy@@@@QBE_NXZ 1006c685 f i libucrtd:environment_initialization.obj
 0001:0006b68c       ??B?$__crt_unique_heap_ptr@PA_WU__crt_internal_free_policy@@@@QBE_NXZ 1006c68c f i libucrtd:environment_initialization.obj
 0001:0006b693       ??B?$__crt_unique_heap_ptr@_WU__crt_internal_free_policy@@@@QBE_NXZ 1006c693 f i libucrtd:environment_initialization.obj
 0001:0006b69a       ?__crt_compute_required_transform_buffer_count@@YAIIQBD@Z 1006c69a f i libucrtd:environment_initialization.obj
 0001:0006b6b6       ?__crt_compute_required_transform_buffer_count@@YAIIQB_W@Z 1006c6b6 f i libucrtd:environment_initialization.obj
 0001:0006b6d4       ?__crt_transform_string@@YAIIQBDQA_WI@Z 1006c6d4 f i libucrtd:environment_initialization.obj
 0001:0006b6f3       ?__crt_transform_string@@YAIIQB_WQADI@Z 1006c6f3 f i libucrtd:environment_initialization.obj
 0001:0006b715       ?detach@?$__crt_unique_heap_ptr@DU__crt_internal_free_policy@@@@QAEPADXZ 1006c715 f i libucrtd:environment_initialization.obj
 0001:0006b71b       ?detach@?$__crt_unique_heap_ptr@_WU__crt_internal_free_policy@@@@QAEPA_WXZ 1006c71b f i libucrtd:environment_initialization.obj
 0001:0006b721       ?get@?$__crt_unique_heap_ptr@_WU__crt_internal_free_policy@@@@QBEPA_WXZ 1006c721 f i libucrtd:environment_initialization.obj
 0001:0006b748       ?initialize@?$dual_state_global@PAPAD@__crt_state_management@@QAEXQAPAD@Z 1006c748 f i libucrtd:environment_initialization.obj
 0001:0006b76e       ?initialize@?$dual_state_global@PAPA_W@__crt_state_management@@QAEXQAPA_W@Z 1006c76e f i libucrtd:environment_initialization.obj
 0001:0006b794       ?is_valid@?$__crt_unique_heap_ptr@PADU__crt_internal_free_policy@@@@QBE_NXZ 1006c794 f i libucrtd:environment_initialization.obj
 0001:0006b79b       ?is_valid@?$__crt_unique_heap_ptr@PA_WU__crt_internal_free_policy@@@@QBE_NXZ 1006c79b f i libucrtd:environment_initialization.obj
 0001:0006b7a2       ?is_valid@?$__crt_unique_heap_ptr@_WU__crt_internal_free_policy@@@@QBE_NXZ 1006c7a2 f i libucrtd:environment_initialization.obj
 0001:0006b7b1       ?release@?$__crt_unique_heap_ptr@_WU__crt_internal_free_policy@@@@QAEXXZ 1006c7b1 f i libucrtd:environment_initialization.obj
 0001:0006b7c6       ?value@?$dual_state_global@PAPAD@__crt_state_management@@QAEAAPAPADXZ 1006c7c6 f i libucrtd:environment_initialization.obj
 0001:0006b7c9       ?value@?$dual_state_global@PAPA_W@__crt_state_management@@QAEAAPAPA_WXZ 1006c7c9 f i libucrtd:environment_initialization.obj
 0001:0006b7cc       ___dcrt_get_or_create_narrow_environment_nolock 1006c7cc f   libucrtd:environment_initialization.obj
 0001:0006b7d1       ___dcrt_get_or_create_wide_environment_nolock 1006c7d1 f   libucrtd:environment_initialization.obj
 0001:0006b7d6       ___dcrt_uninitialize_environments_nolock 1006c7d6 f   libucrtd:environment_initialization.obj
 0001:0006b80d       ___p__environ              1006c80d f   libucrtd:environment_initialization.obj
 0001:0006b813       ___p__wenviron             1006c813 f   libucrtd:environment_initialization.obj
 0001:0006b819       __get_initial_narrow_environment 1006c819 f   libucrtd:environment_initialization.obj
 0001:0006b82d       __get_initial_wide_environment 1006c82d f   libucrtd:environment_initialization.obj
 0001:0006b841       __initialize_narrow_environment 1006c841 f   libucrtd:environment_initialization.obj
 0001:0006b846       __initialize_wide_environment 1006c846 f   libucrtd:environment_initialization.obj
 0001:0006b850       ??$?B$$A6AXXZ@__crt_fast_encoded_nullptr_t@@QBEP6AXXZXZ 1006c850 f i libucrtd:onexit.obj
 0001:0006b870       ??$?BP6AXXZ@__crt_fast_encoded_nullptr_t@@QBEPAP6AXXZXZ 1006c870 f i libucrtd:onexit.obj
 0001:0006b890       ??$?RP6AXXZ@__crt_internal_free_policy@@QBEXQBQ6AXXZ@Z 1006c890 f i libucrtd:onexit.obj
 0001:0006ba50       ??$__crt_fast_decode_pointer@P6AXXZ@@YAP6AXXZQ6AXXZ@Z 1006ca50 f i libucrtd:onexit.obj
 0001:0006ba80       ??$__crt_fast_decode_pointer@PAP6AXXZ@@YAPAP6AXXZQAP6AXXZ@Z 1006ca80 f i libucrtd:onexit.obj
 0001:0006bab0       ??$__crt_fast_encode_pointer@P6AHXZ@@YAP6AHXZQ6AHXZ@Z 1006cab0 f i libucrtd:onexit.obj
 0001:0006bae0       ??$__crt_fast_encode_pointer@P6AXXZ@@YAP6AXXZQ6AXXZ@Z 1006cae0 f i libucrtd:onexit.obj
 0001:0006bb10       ??$__crt_fast_encode_pointer@PAP6AXXZ@@YAPAP6AXXZQAP6AXXZ@Z 1006cb10 f i libucrtd:onexit.obj
 0001:0006bc10       ??0?$__crt_unique_heap_ptr@P6AXXZU__crt_internal_free_policy@@@@QAE@QAP6AXXZ@Z 1006cc10 f i libucrtd:onexit.obj
 0001:0006bc30       ??1?$__crt_unique_heap_ptr@P6AXXZU__crt_internal_free_policy@@@@QAE@XZ 1006cc30 f i libucrtd:onexit.obj
 0001:0006bc50       ??1scoped_global_state_reset@__crt_state_management@@QAE@XZ 1006cc50 f i libucrtd:onexit.obj
 0001:0006c0c0       ?detach@?$__crt_unique_heap_ptr@P6AXXZU__crt_internal_free_policy@@@@QAEPAP6AXXZXZ 1006d0c0 f i libucrtd:onexit.obj
 0001:0006c0f0       ?release@?$__crt_unique_heap_ptr@P6AXXZU__crt_internal_free_policy@@@@QAEXXZ 1006d0f0 f i libucrtd:onexit.obj
 0001:0006c120       __crt_at_quick_exit        1006d120 f   libucrtd:onexit.obj
 0001:0006c140       __crt_atexit               1006d140 f   libucrtd:onexit.obj
 0001:0006c160       __execute_onexit_table     1006d160 f   libucrtd:onexit.obj
 0001:0006c190       __initialize_onexit_table  1006d190 f   libucrtd:onexit.obj
 0001:0006c1f0       __register_onexit_function 1006d1f0 f   libucrtd:onexit.obj
 0001:0006c430       ??$?BX@__crt_fast_encoded_nullptr_t@@QBEPAXXZ 1006d430 f i libucrtd:initialization.obj
 0001:0006c450       ??$__crt_fast_encode_pointer@PAX@@YAPAXQAX@Z 1006d450 f i libucrtd:initialization.obj
 0001:0006c510       ?initialize@?$dual_state_global@PAU__crt_locale_data@@@__crt_state_management@@QAEXQAU__crt_locale_data@@@Z 1006d510 f i libucrtd:initialization.obj
 0001:0006c550       ___acrt_initialize         1006d550 f   libucrtd:initialization.obj
 0001:0006c570       ___acrt_thread_attach      1006d570 f   libucrtd:initialization.obj
 0001:0006c590       ___acrt_thread_detach      1006d590 f   libucrtd:initialization.obj
 0001:0006c5a0       ___acrt_uninitialize       1006d5a0 f   libucrtd:initialization.obj
 0001:0006c5c0       ___acrt_uninitialize_critical 1006d5c0 f   libucrtd:initialization.obj
 0001:0006de30       __CrtCheckMemory           1006ee30 f   libucrtd:debug_heap.obj
 0001:0006dfc0       __CrtDoForAllClientObjects 1006efc0 f   libucrtd:debug_heap.obj
 0001:0006e110       __CrtDumpMemoryLeaks       1006f110 f   libucrtd:debug_heap.obj
 0001:0006e1b0       __CrtGetAllocHook          1006f1b0 f   libucrtd:debug_heap.obj
 0001:0006e1c0       __CrtGetDumpClient         1006f1c0 f   libucrtd:debug_heap.obj
 0001:0006e1d0       __CrtIsMemoryBlock         1006f1d0 f   libucrtd:debug_heap.obj
 0001:0006e320       __CrtIsValidHeapPointer    1006f320 f   libucrtd:debug_heap.obj
 0001:0006e350       __CrtIsValidPointer        1006f350 f   libucrtd:debug_heap.obj
 0001:0006e380       __CrtMemCheckpoint         1006f380 f   libucrtd:debug_heap.obj
 0001:0006e5b0       __CrtMemDifference         1006f5b0 f   libucrtd:debug_heap.obj
 0001:0006e820       __CrtMemDumpAllObjectsSince 1006f820 f   libucrtd:debug_heap.obj
 0001:0006e8c0       __CrtMemDumpStatistics     1006f8c0 f   libucrtd:debug_heap.obj
 0001:0006e9f0       __CrtReportBlockType       1006f9f0 f   libucrtd:debug_heap.obj
 0001:0006ea20       __CrtSetAllocHook          1006fa20 f   libucrtd:debug_heap.obj
 0001:0006ea40       __CrtSetBreakAlloc         1006fa40 f   libucrtd:debug_heap.obj
 0001:0006ea60       __CrtSetDbgBlockType       1006fa60 f   libucrtd:debug_heap.obj
 0001:0006eb40       __CrtSetDbgFlag            1006fb40 f   libucrtd:debug_heap.obj
 0001:0006ecb0       __CrtSetDumpClient         1006fcb0 f   libucrtd:debug_heap.obj
 0001:0006ecd0       ___p__crtBreakAlloc        1006fcd0 f   libucrtd:debug_heap.obj
 0001:0006ece0       ___p__crtDbgFlag           1006fce0 f   libucrtd:debug_heap.obj
 0001:0006ecf0       __aligned_free_dbg         1006fcf0 f   libucrtd:debug_heap.obj
 0001:0006eda0       __aligned_malloc_dbg       1006fda0 f   libucrtd:debug_heap.obj
 0001:0006edd0       __aligned_msize_dbg        1006fdd0 f   libucrtd:debug_heap.obj
 0001:0006ef00       __aligned_offset_malloc_dbg 1006ff00 f   libucrtd:debug_heap.obj
 0001:0006f0e0       __aligned_offset_realloc_dbg 100700e0 f   libucrtd:debug_heap.obj
 0001:0006f3f0       __aligned_offset_recalloc_dbg 100703f0 f   libucrtd:debug_heap.obj
 0001:0006f4b0       __aligned_realloc_dbg      100704b0 f   libucrtd:debug_heap.obj
 0001:0006f4e0       __aligned_recalloc_dbg     100704e0 f   libucrtd:debug_heap.obj
 0001:0006f510       __calloc_dbg               10070510 f   libucrtd:debug_heap.obj
 0001:0006f580       __expand_dbg               10070580 f   libucrtd:debug_heap.obj
 0001:0006f6b0       __free_dbg                 100706b0 f   libucrtd:debug_heap.obj
 0001:0006f760       __malloc_dbg               10070760 f   libucrtd:debug_heap.obj
 0001:0006f780       __msize_dbg                10070780 f   libucrtd:debug_heap.obj
 0001:0006f910       __realloc_dbg              10070910 f   libucrtd:debug_heap.obj
 0001:0006f9b0       __recalloc_dbg             100709b0 f   libucrtd:debug_heap.obj
 0001:0006fa60       __initterm                 10070a60 f   libucrtd:initterm.obj
 0001:0006fab0       __initterm_e               10070ab0 f   libucrtd:initterm.obj
 0001:0006fe20       _strcpy_s                  10070e20 f   libucrtd:strcpy_s.obj
 0001:00070250       _strcat_s                  10071250 f   libucrtd:strcat_s.obj
 0001:00070270       ??$?B$$A6AHI@Z@__crt_fast_encoded_nullptr_t@@QBEP6AHI@ZXZ 10071270 f i libucrtd:new_handler.obj
 0001:00070290       ??$__crt_fast_decode_pointer@P6AHI@Z@@YAP6AHI@ZQ6AHI@Z@Z 10071290 f i libucrtd:new_handler.obj
 0001:000702c0       ??$__crt_fast_encode_pointer@P6AHI@Z@@YAP6AHI@ZQ6AHI@Z@Z 100712c0 f i libucrtd:new_handler.obj
 0001:000702f0       ?_set_new_handler@@YAP6AHI@ZH@Z 100712f0 f   libucrtd:new_handler.obj
 0001:00070350       ?initialize@?$dual_state_global@P6AHI@Z@__crt_state_management@@QAEXQ6AHI@Z@Z 10071350 f i libucrtd:new_handler.obj
 0001:00070390       ?value@?$dual_state_global@P6AHI@Z@__crt_state_management@@QAEAAP6AHI@ZXZ 10071390 f i libucrtd:new_handler.obj
 0001:000703b0       ___acrt_initialize_new_handler 100713b0 f   libucrtd:new_handler.obj
 0001:000703d0       __callnewh                 100713d0 f   libucrtd:new_handler.obj
 0001:00070410       __query_new_handler        10071410 f   libucrtd:new_handler.obj
 0001:000704a0       __set_new_handler          100714a0 f   libucrtd:new_handler.obj
 0001:00070580       __get_terminate            10071580 f   libucrtd:terminate.obj
 0001:000705a0       _set_terminate             100715a0 f   libucrtd:terminate.obj
 0001:000705d0       _terminate                 100715d0 f   libucrtd:terminate.obj
 0001:00070fa0       __makepath                 10071fa0 f   libucrtd:makepath.obj
 0001:00070fd0       __makepath_s               10071fd0 f   libucrtd:makepath.obj
 0001:00071000       __wmakepath                10072000 f   libucrtd:makepath.obj
 0001:00071030       __wmakepath_s              10072030 f   libucrtd:makepath.obj
 0001:00072980       ??$tcsncpy_s@AAPADIAAPBDABI@?$__crt_char_traits@D@@SAHAAPAD$$QAIAAPBDABI@Z 10073980 f i libucrtd:splitpath.obj
 0001:000729b0       ??$tcsncpy_s@AAPADIAAPBDH@?$__crt_char_traits@D@@SAHAAPAD$$QAIAAPBD$$QAH@Z 100739b0 f i libucrtd:splitpath.obj
 0001:000729e0       ??$tcsncpy_s@AAPA_WIAAPB_WABI@?$__crt_char_traits@_W@@SAHAAPA_W$$QAIAAPB_WABI@Z 100739e0 f i libucrtd:splitpath.obj
 0001:00072a10       ??$tcsncpy_s@AAPA_WIAAPB_WH@?$__crt_char_traits@_W@@SAHAAPA_W$$QAIAAPB_W$$QAH@Z 10073a10 f i libucrtd:splitpath.obj
 0001:00072c50       __splitpath                10073c50 f   libucrtd:splitpath.obj
 0001:00072c80       __splitpath_s              10073c80 f   libucrtd:splitpath.obj
 0001:00072cd0       __wsplitpath               10073cd0 f   libucrtd:splitpath.obj
 0001:00072d00       __wsplitpath_s             10073d00 f   libucrtd:splitpath.obj
 0001:00072d50       __set_abort_behavior       10073d50 f   libucrtd:abort.obj
 0001:00072d80       _abort                     10073d80 f   libucrtd:abort.obj
 0001:00072df0       _strcmp                    10073df0 f   libucrtd:strcmp.obj
 0001:00072e80       _strlen                    10073e80 f   libucrtd:strlen.obj
 0001:00072f10       ??$is_overflow_condition@K@__crt_strtox@@YA_NIK@Z 10073f10 f i libucrtd:atox.obj
 0001:00072f70       ??$is_overflow_condition@_K@__crt_strtox@@YA_NI_K@Z 10073f70 f i libucrtd:atox.obj
 0001:00073000       ??$make_c_string_character_source@D$$T@__crt_strtox@@YA?AV?$c_string_character_source@D@0@QBD$$T@Z 10074000 f i libucrtd:atox.obj
 0001:00073020       ??$make_c_string_character_source@_W$$T@__crt_strtox@@YA?AV?$c_string_character_source@_W@0@QB_W$$T@Z 10074020 f i libucrtd:atox.obj
 0001:00073040       ??$parse_integer@KV?$c_string_character_source@D@__crt_strtox@@@__crt_strtox@@YAKQAU__crt_locale_pointers@@V?$c_string_character_source@D@0@H_N@Z 10074040 f i libucrtd:atox.obj
 0001:000733b0       ??$parse_integer@KV?$c_string_character_source@_W@__crt_strtox@@@__crt_strtox@@YAKQAU__crt_locale_pointers@@V?$c_string_character_source@_W@0@H_N@Z 100743b0 f i libucrtd:atox.obj
 0001:00073720       ??$parse_integer@_KV?$c_string_character_source@D@__crt_strtox@@@__crt_strtox@@YA_KQAU__crt_locale_pointers@@V?$c_string_character_source@D@0@H_N@Z 10074720 f i libucrtd:atox.obj
 0001:00073b40       ??$parse_integer@_KV?$c_string_character_source@_W@__crt_strtox@@@__crt_strtox@@YA_KQAU__crt_locale_pointers@@V?$c_string_character_source@_W@0@H_N@Z 10074b40 f i libucrtd:atox.obj
 0001:00073f70       ??$parse_integer_from_string@JD$$T@__crt_strtox@@YAJQBD$$THQAU__crt_locale_pointers@@@Z 10074f70 f i libucrtd:atox.obj
 0001:00073fb0       ??$parse_integer_from_string@J_W$$T@__crt_strtox@@YAJQB_W$$THQAU__crt_locale_pointers@@@Z 10074fb0 f i libucrtd:atox.obj
 0001:00073ff0       ??$parse_integer_from_string@_JD$$T@__crt_strtox@@YA_JQBD$$THQAU__crt_locale_pointers@@@Z 10074ff0 f i libucrtd:atox.obj
 0001:00074030       ??$parse_integer_from_string@_J_W$$T@__crt_strtox@@YA_JQB_W$$THQAU__crt_locale_pointers@@@Z 10075030 f i libucrtd:atox.obj
 0001:00074070       ??0?$c_string_character_source@D@__crt_strtox@@QAE@QBDQAPBD@Z 10075070 f i libucrtd:atox.obj
 0001:000740b0       ??0?$c_string_character_source@_W@__crt_strtox@@QAE@QB_WQAPB_W@Z 100750b0 f i libucrtd:atox.obj
 0001:000740f0       ??1?$c_string_character_source@D@__crt_strtox@@QAE@XZ 100750f0 f i libucrtd:atox.obj
 0001:00074120       ??1?$c_string_character_source@_W@__crt_strtox@@QAE@XZ 10075120 f i libucrtd:atox.obj
 0001:00074150       ?get@?$c_string_character_source@D@__crt_strtox@@QAEDXZ 10075150 f i libucrtd:atox.obj
 0001:00074180       ?get@?$c_string_character_source@_W@__crt_strtox@@QAE_WXZ 10075180 f i libucrtd:atox.obj
 0001:000741b0       ?is_space@__crt_strtox@@YA_NDQAU__crt_locale_pointers@@@Z 100751b0 f i libucrtd:atox.obj
 0001:000741f0       ?is_space@__crt_strtox@@YA_N_WPAU__crt_locale_pointers@@@Z 100751f0 f i libucrtd:atox.obj
 0001:00074220       ?maximum_signed_value@__crt_strtox@@YAJK@Z 10075220 f i libucrtd:atox.obj
 0001:00074230       ?maximum_signed_value@__crt_strtox@@YA_J_K@Z 10075230 f i libucrtd:atox.obj
 0001:00074240       ?minimum_signed_value@__crt_strtox@@YAJK@Z 10075240 f i libucrtd:atox.obj
 0001:00074250       ?minimum_signed_value@__crt_strtox@@YA_J_K@Z 10075250 f i libucrtd:atox.obj
 0001:00074260       ?parse_digit@__crt_strtox@@YAID@Z 10075260 f i libucrtd:atox.obj
 0001:000742c0       ?parse_digit@__crt_strtox@@YAI_W@Z 100752c0 f i libucrtd:atox.obj
 0001:00074310       ?restore_state@?$c_string_character_source@D@__crt_strtox@@QAE_NQBD@Z 10075310 f i libucrtd:atox.obj
 0001:00074330       ?restore_state@?$c_string_character_source@_W@__crt_strtox@@QAE_NQB_W@Z 10075330 f i libucrtd:atox.obj
 0001:00074350       ?save_state@?$c_string_character_source@D@__crt_strtox@@QBEPBDXZ 10075350 f i libucrtd:atox.obj
 0001:00074370       ?save_state@?$c_string_character_source@_W@__crt_strtox@@QBEPB_WXZ 10075370 f i libucrtd:atox.obj
 0001:00074390       ?unget@?$c_string_character_source@D@__crt_strtox@@QAEXD@Z 10075390 f i libucrtd:atox.obj
 0001:00074440       ?unget@?$c_string_character_source@_W@__crt_strtox@@QAEX_W@Z 10075440 f i libucrtd:atox.obj
 0001:000744f0       ?validate@?$c_string_character_source@D@__crt_strtox@@QBE_NXZ 100754f0 f i libucrtd:atox.obj
 0001:00074580       ?validate@?$c_string_character_source@_W@__crt_strtox@@QBE_NXZ 10075580 f i libucrtd:atox.obj
 0001:00074610       ?wide_character_to_digit@__crt_strtox@@YAH_W@Z 10075610 f i libucrtd:atox.obj
 0001:00074940       ___ascii_iswalpha          10075940 f i libucrtd:atox.obj
 0001:00074980       ___ascii_toupper           10075980 f i libucrtd:atox.obj
 0001:000749a0       ___ascii_towupper          100759a0 f i libucrtd:atox.obj
 0001:000749c0       __atoi64                   100759c0 f   libucrtd:atox.obj
 0001:000749e0       __atoi64_l                 100759e0 f   libucrtd:atox.obj
 0001:00074a00       __atoi_l                   10075a00 f   libucrtd:atox.obj
 0001:00074a20       __atol_l                   10075a20 f   libucrtd:atox.obj
 0001:00074a40       __atoll_l                  10075a40 f   libucrtd:atox.obj
 0001:00074a60       __wtoi                     10075a60 f   libucrtd:atox.obj
 0001:00074a80       __wtoi64                   10075a80 f   libucrtd:atox.obj
 0001:00074aa0       __wtoi64_l                 10075aa0 f   libucrtd:atox.obj
 0001:00074ac0       __wtoi_l                   10075ac0 f   libucrtd:atox.obj
 0001:00074ae0       __wtol                     10075ae0 f   libucrtd:atox.obj
 0001:00074b00       __wtol_l                   10075b00 f   libucrtd:atox.obj
 0001:00074b20       __wtoll                    10075b20 f   libucrtd:atox.obj
 0001:00074b40       __wtoll_l                  10075b40 f   libucrtd:atox.obj
 0001:00074b60       _atoi                      10075b60 f   libucrtd:atox.obj
 0001:00074b80       _atol                      10075b80 f   libucrtd:atox.obj
 0001:00074ba0       _atoll                     10075ba0 f   libucrtd:atox.obj
 0001:00074bc0       _strncmp                   10075bc0 f   libucrtd:strncmp.obj
 0001:00074c40       _wcsncmp                   10075c40 f   libucrtd:wcsncmp.obj
 0001:00074ca0       __CrtGetDebugFillThreshold 10075ca0 f   libucrtd:debug_fill_threshold.obj
 0001:00074cb0       __CrtSetDebugFillThreshold 10075cb0 f   libucrtd:debug_fill_threshold.obj
 0001:00074cd0       ??$make_c_string_character_source@DPAPAD@__crt_strtox@@YA?AV?$c_string_character_source@D@0@QBDQAPAD@Z 10075cd0 f i libucrtd:strtox.obj
 0001:00074cf0       ??$make_c_string_character_source@_WPAPA_W@__crt_strtox@@YA?AV?$c_string_character_source@_W@0@QB_WQAPA_W@Z 10075cf0 f i libucrtd:strtox.obj
 0001:00074d10       ??$parse_integer_from_string@JDPAPAD@__crt_strtox@@YAJQBDQAPADHQAU__crt_locale_pointers@@@Z 10075d10 f i libucrtd:strtox.obj
 0001:00074d50       ??$parse_integer_from_string@J_WPAPA_W@__crt_strtox@@YAJQB_WQAPA_WHQAU__crt_locale_pointers@@@Z 10075d50 f i libucrtd:strtox.obj
 0001:00074d90       ??$parse_integer_from_string@KDPAPAD@__crt_strtox@@YAKQBDQAPADHQAU__crt_locale_pointers@@@Z 10075d90 f i libucrtd:strtox.obj
 0001:00074dd0       ??$parse_integer_from_string@K_WPAPA_W@__crt_strtox@@YAKQB_WQAPA_WHQAU__crt_locale_pointers@@@Z 10075dd0 f i libucrtd:strtox.obj
 0001:00074e10       ??$parse_integer_from_string@_JDPAPAD@__crt_strtox@@YA_JQBDQAPADHQAU__crt_locale_pointers@@@Z 10075e10 f i libucrtd:strtox.obj
 0001:00074e50       ??$parse_integer_from_string@_J_WPAPA_W@__crt_strtox@@YA_JQB_WQAPA_WHQAU__crt_locale_pointers@@@Z 10075e50 f i libucrtd:strtox.obj
 0001:00074e90       ??$parse_integer_from_string@_KDPAPAD@__crt_strtox@@YA_KQBDQAPADHQAU__crt_locale_pointers@@@Z 10075e90 f i libucrtd:strtox.obj
 0001:00074ed0       ??$parse_integer_from_string@_K_WPAPA_W@__crt_strtox@@YA_KQB_WQAPA_WHQAU__crt_locale_pointers@@@Z 10075ed0 f i libucrtd:strtox.obj
 0001:00074f10       __strtoi64                 10075f10 f   libucrtd:strtox.obj
 0001:00074f30       __strtoi64_l               10075f30 f   libucrtd:strtox.obj
 0001:00074f50       __strtoimax_l              10075f50 f   libucrtd:strtox.obj
 0001:00074f70       __strtol_l                 10075f70 f   libucrtd:strtox.obj
 0001:00074f90       __strtoll_l                10075f90 f   libucrtd:strtox.obj
 0001:00074fb0       __strtoui64                10075fb0 f   libucrtd:strtox.obj
 0001:00074fd0       __strtoui64_l              10075fd0 f   libucrtd:strtox.obj
 0001:00074ff0       __strtoul_l                10075ff0 f   libucrtd:strtox.obj
 0001:00075010       __strtoull_l               10076010 f   libucrtd:strtox.obj
 0001:00075030       __strtoumax_l              10076030 f   libucrtd:strtox.obj
 0001:00075050       __wcstoi64                 10076050 f   libucrtd:strtox.obj
 0001:00075070       __wcstoi64_l               10076070 f   libucrtd:strtox.obj
 0001:00075090       __wcstoimax_l              10076090 f   libucrtd:strtox.obj
 0001:000750b0       __wcstol_l                 100760b0 f   libucrtd:strtox.obj
 0001:000750d0       __wcstoll_l                100760d0 f   libucrtd:strtox.obj
 0001:000750f0       __wcstoui64                100760f0 f   libucrtd:strtox.obj
 0001:00075110       __wcstoui64_l              10076110 f   libucrtd:strtox.obj
 0001:00075130       __wcstoul_l                10076130 f   libucrtd:strtox.obj
 0001:00075150       __wcstoull_l               10076150 f   libucrtd:strtox.obj
 0001:00075170       __wcstoumax_l              10076170 f   libucrtd:strtox.obj
 0001:00075190       _strtoimax                 10076190 f   libucrtd:strtox.obj
 0001:000751b0       _strtol                    100761b0 f   libucrtd:strtox.obj
 0001:000751d0       _strtoll                   100761d0 f   libucrtd:strtox.obj
 0001:000751f0       _strtoul                   100761f0 f   libucrtd:strtox.obj
 0001:00075210       _strtoull                  10076210 f   libucrtd:strtox.obj
 0001:00075230       _strtoumax                 10076230 f   libucrtd:strtox.obj
 0001:00075250       _wcstoimax                 10076250 f   libucrtd:strtox.obj
 0001:00075270       _wcstol                    10076270 f   libucrtd:strtox.obj
 0001:00075290       _wcstoll                   10076290 f   libucrtd:strtox.obj
 0001:000752b0       _wcstoul                   100762b0 f   libucrtd:strtox.obj
 0001:000752d0       _wcstoull                  100762d0 f   libucrtd:strtox.obj
 0001:000752f0       _wcstoumax                 100762f0 f   libucrtd:strtox.obj
 0001:00075310       __mbtowc_l                 10076310 f   libucrtd:mbtowc.obj
 0001:00075630       _mbtowc                    10076630 f   libucrtd:mbtowc.obj
 0001:00075650       __wctomb_l                 10076650 f   libucrtd:wctomb.obj
 0001:000756d0       __wctomb_s_l               100766d0 f   libucrtd:wctomb.obj
 0001:00075a90       _wctomb                    10076a90 f   libucrtd:wctomb.obj
 0001:00075ae0       _wctomb_s                  10076ae0 f   libucrtd:wctomb.obj
 0001:00075b10       ??$?RU__acrt_ptd@@@__crt_internal_free_policy@@QBEXQBU__acrt_ptd@@@Z 10076b10 f i libucrtd:per_thread_data.obj
 0001:00075fc0       ??0?$__crt_unique_heap_ptr@U__acrt_ptd@@U__crt_internal_free_policy@@@@QAE@QAU__acrt_ptd@@@Z 10076fc0 f i libucrtd:per_thread_data.obj
 0001:00075fe0       ??0__crt_scoped_get_last_error_reset@@QAE@XZ 10076fe0 f i libucrtd:per_thread_data.obj
 0001:00076000       ??1?$__crt_unique_heap_ptr@U__acrt_ptd@@U__crt_internal_free_policy@@@@QAE@XZ 10077000 f i libucrtd:per_thread_data.obj
 0001:00076020       ??1__crt_scoped_get_last_error_reset@@QAE@XZ 10077020 f i libucrtd:per_thread_data.obj
 0001:00076040       ??B?$__crt_unique_heap_ptr@U__acrt_ptd@@U__crt_internal_free_policy@@@@QBE_NXZ 10077040 f i libucrtd:per_thread_data.obj
 0001:00076320       ?dangerous_get_state_array@?$dual_state_global@PAU__crt_locale_data@@@__crt_state_management@@QAEPAPAU__crt_locale_data@@XZ 10077320 f i libucrtd:per_thread_data.obj
 0001:000764a0       ?detach@?$__crt_unique_heap_ptr@U__acrt_ptd@@U__crt_internal_free_policy@@@@QAEPAU__acrt_ptd@@XZ 100774a0 f i libucrtd:per_thread_data.obj
 0001:000764d0       ?get@?$__crt_unique_heap_ptr@U__acrt_ptd@@U__crt_internal_free_policy@@@@QBEPAU__acrt_ptd@@XZ 100774d0 f i libucrtd:per_thread_data.obj
 0001:000764f0       ?get_current_state_index@__crt_state_management@@YAIABV__crt_scoped_get_last_error_reset@@@Z 100774f0 f i libucrtd:per_thread_data.obj
 0001:00076660       ?is_valid@?$__crt_unique_heap_ptr@U__acrt_ptd@@U__crt_internal_free_policy@@@@QBE_NXZ 10077660 f i libucrtd:per_thread_data.obj
 0001:00076690       ?release@?$__crt_unique_heap_ptr@U__acrt_ptd@@U__crt_internal_free_policy@@@@QAEXXZ 10077690 f i libucrtd:per_thread_data.obj
 0001:00076780       ?value@?$dual_state_global@PAU__crt_locale_data@@@__crt_state_management@@QAEAAPAU__crt_locale_data@@XZ 10077780 f i libucrtd:per_thread_data.obj
 0001:000767a0       ___acrt_freeptd            100777a0 f   libucrtd:per_thread_data.obj
 0001:000767d0       ___acrt_getptd             100777d0 f   libucrtd:per_thread_data.obj
 0001:000767f0       ___acrt_getptd_head        100777f0 f   libucrtd:per_thread_data.obj
 0001:00076810       ___acrt_getptd_noexit      10077810 f   libucrtd:per_thread_data.obj
 0001:00076820       ___acrt_initialize_ptd     10077820 f   libucrtd:per_thread_data.obj
 0001:00076860       ___acrt_uninitialize_ptd   10077860 f   libucrtd:per_thread_data.obj
 0001:00076890       ___threadhandle            10077890 f   libucrtd:per_thread_data.obj
 0001:000768a0       ___threadid                100778a0 f   libucrtd:per_thread_data.obj
 0001:000768b0       ?value@?$dual_state_global@PAU__crt_multibyte_data@@@__crt_state_management@@QAEAAPAU__crt_multibyte_data@@XZ 100778b0 f i libucrtd:locale_update.obj
 0001:000768d0       ___acrt_update_locale_info 100778d0 f   libucrtd:locale_update.obj
 0001:00076910       ___acrt_update_multibyte_info 10077910 f   libucrtd:locale_update.obj
 0001:00076950       ?__acrt_fp_classify@@YA?AW4__acrt_fp_class@@ABN@Z 10077950 f i libucrtd:cvt.obj
 0001:00076a70       ?__acrt_fp_is_negative@@YA_NABN@Z 10077a70 f i libucrtd:cvt.obj
 0001:00077ac0       ?strrchr@@YAPADQADH@Z      10078ac0 f i libucrtd:cvt.obj
 0001:00077ae0       ___acrt_fp_format          10078ae0 f   libucrtd:cvt.obj
 0001:00077f70       __fputwc_nolock            10078f70 f   libucrtd:fputwc.obj
 0001:00078160       __fputwchar                10079160 f   libucrtd:fputwc.obj
 0001:00078180       __putwc_nolock             10079180 f   libucrtd:fputwc.obj
 0001:000781a0       _fputwc                    100791a0 f   libucrtd:fputwc.obj
 0001:000782b0       _putwc                     100792b0 f   libucrtd:fputwc.obj
 0001:000782d0       _putwchar                  100792d0 f   libucrtd:fputwc.obj
 0001:000782f0       ?lowio_handle@__crt_stdio_stream@@QBEHXZ 100792f0 f i libucrtd:fileno.obj
 0001:00078310       __fileno                   10079310 f   libucrtd:fileno.obj
 0001:000783b0       ??$?RPAU__crt_stdio_stream_data@@@__crt_internal_free_policy@@QBEXQBQAU__crt_stdio_stream_data@@@Z 100793b0 f i libucrtd:_file.obj
 0001:000783d0       ??0?$__crt_unique_heap_ptr@PAU__crt_stdio_stream_data@@U__crt_internal_free_policy@@@@QAE@QAPAU__crt_stdio_stream_data@@@Z 100793d0 f i libucrtd:_file.obj
 0001:000783f0       ??1?$__crt_unique_heap_ptr@PAU__crt_stdio_stream_data@@U__crt_internal_free_policy@@@@QAE@XZ 100793f0 f i libucrtd:_file.obj
 0001:00078410       ?detach@?$__crt_unique_heap_ptr@PAU__crt_stdio_stream_data@@U__crt_internal_free_policy@@@@QAEPAPAU__crt_stdio_stream_data@@XZ 10079410 f i libucrtd:_file.obj
 0001:00078440       ?release@?$__crt_unique_heap_ptr@PAU__crt_stdio_stream_data@@U__crt_internal_free_policy@@@@QAEXXZ 10079440 f i libucrtd:_file.obj
 0001:00078470       ___acrt_initialize_stdio   10079470 f   libucrtd:_file.obj
 0001:000785e0       ___acrt_iob_func           100795e0 f   libucrtd:_file.obj
 0001:000785f0       ___acrt_uninitialize_stdio 100795f0 f   libucrtd:_file.obj
 0001:00078670       __get_stream_buffer_pointers 10079670 f   libucrtd:_file.obj
 0001:00078750       __lock_file                10079750 f   libucrtd:_file.obj
 0001:00078780       __unlock_file              10079780 f   libucrtd:_file.obj
 0001:000787b0       __get_printf_count_output  100797b0 f   libucrtd:printf_count_output.obj
 0001:000787e0       __set_printf_count_output  100797e0 f   libucrtd:printf_count_output.obj
 0001:00078840       ?has_any_buffer@__crt_stdio_stream@@QBE_NXZ 10079840 f i libucrtd:_sftbuf.obj
 0001:00078860       ?has_any_of@__crt_stdio_stream@@QBE_NJ@Z 10079860 f i libucrtd:_sftbuf.obj
 0001:000788a0       ?has_temporary_buffer@__crt_stdio_stream@@QBE_NXZ 100798a0 f i libucrtd:_sftbuf.obj
 0001:000788c0       ?set_flags@__crt_stdio_stream@@QBE_NJ@Z 100798c0 f i libucrtd:_sftbuf.obj
 0001:00078910       ?unset_flags@__crt_stdio_stream@@QBE_NJ@Z 10079910 f i libucrtd:_sftbuf.obj
 0001:00078960       ___acrt_stdio_begin_temporary_buffering_nolock 10079960 f   libucrtd:_sftbuf.obj
 0001:00078b20       ___acrt_stdio_end_temporary_buffering_nolock 10079b20 f   libucrtd:_sftbuf.obj
 0001:00078bb0       ??$?RU__crt_locale_data@@@__crt_internal_free_policy@@QBEXQBU__crt_locale_data@@@Z 10079bb0 f i libucrtd:wsetlocale.obj
 0001:00078bd0       ??$?RU__crt_locale_pointers@@@__crt_internal_free_policy@@QBEXQBU__crt_locale_pointers@@@Z 10079bd0 f i libucrtd:wsetlocale.obj
 0001:00078bf0       ??$?RU__crt_multibyte_data@@@__crt_internal_free_policy@@QBEXQBU__crt_multibyte_data@@@Z 10079bf0 f i libucrtd:wsetlocale.obj
 0001:000791e0       ??0?$__crt_unique_heap_ptr@U__crt_locale_data@@U__crt_internal_free_policy@@@@QAE@QAU__crt_locale_data@@@Z 1007a1e0 f i libucrtd:wsetlocale.obj
 0001:00079200       ??0?$__crt_unique_heap_ptr@U__crt_locale_pointers@@U__crt_internal_free_policy@@@@QAE@QAU__crt_locale_pointers@@@Z 1007a200 f i libucrtd:wsetlocale.obj
 0001:00079220       ??0?$__crt_unique_heap_ptr@U__crt_multibyte_data@@U__crt_internal_free_policy@@@@QAE@QAU__crt_multibyte_data@@@Z 1007a220 f i libucrtd:wsetlocale.obj
 0001:00079240       ??0_expandlocale_locale_name_cache@@QAE@QA_WIQAU__crt_qualified_locale_data@@@Z 1007a240 f i libucrtd:wsetlocale.obj
 0001:000792b0       ??1?$__crt_unique_heap_ptr@U__crt_locale_data@@U__crt_internal_free_policy@@@@QAE@XZ 1007a2b0 f i libucrtd:wsetlocale.obj
 0001:000792d0       ??1?$__crt_unique_heap_ptr@U__crt_locale_pointers@@U__crt_internal_free_policy@@@@QAE@XZ 1007a2d0 f i libucrtd:wsetlocale.obj
 0001:000792f0       ??1?$__crt_unique_heap_ptr@U__crt_multibyte_data@@U__crt_internal_free_policy@@@@QAE@XZ 1007a2f0 f i libucrtd:wsetlocale.obj
 0001:00079310       ??1_expandlocale_locale_name_cache@@QAE@XZ 1007a310 f i libucrtd:wsetlocale.obj
 0001:00079370       ??B?$__crt_unique_heap_ptr@U__crt_locale_data@@U__crt_internal_free_policy@@@@QBE_NXZ 1007a370 f i libucrtd:wsetlocale.obj
 0001:00079390       ??B?$__crt_unique_heap_ptr@U__crt_locale_pointers@@U__crt_internal_free_policy@@@@QBE_NXZ 1007a390 f i libucrtd:wsetlocale.obj
 0001:000793b0       ??B?$__crt_unique_heap_ptr@U__crt_multibyte_data@@U__crt_internal_free_policy@@@@QBE_NXZ 1007a3b0 f i libucrtd:wsetlocale.obj
 0001:000797a0       ?commit_locale_name@_expandlocale_locale_name_cache@@QAEXQB_WI@Z 1007a7a0 f i libucrtd:wsetlocale.obj
 0001:00079800       ?commit_locale_name_cache_already_updated@_expandlocale_locale_name_cache@@QAEXQB_WI@Z 1007a800 f i libucrtd:wsetlocale.obj
 0001:00079860       ?detach@?$__crt_unique_heap_ptr@U__crt_locale_data@@U__crt_internal_free_policy@@@@QAEPAU__crt_locale_data@@XZ 1007a860 f i libucrtd:wsetlocale.obj
 0001:00079890       ?detach@?$__crt_unique_heap_ptr@U__crt_locale_pointers@@U__crt_internal_free_policy@@@@QAEPAU__crt_locale_pointers@@XZ 1007a890 f i libucrtd:wsetlocale.obj
 0001:000798c0       ?detach@?$__crt_unique_heap_ptr@U__crt_multibyte_data@@U__crt_internal_free_policy@@@@QAEPAU__crt_multibyte_data@@XZ 1007a8c0 f i libucrtd:wsetlocale.obj
 0001:000798f0       ?get@?$__crt_unique_heap_ptr@U__crt_locale_data@@U__crt_internal_free_policy@@@@QBEPAU__crt_locale_data@@XZ 1007a8f0 f i libucrtd:wsetlocale.obj
 0001:00079910       ?get@?$__crt_unique_heap_ptr@U__crt_locale_pointers@@U__crt_internal_free_policy@@@@QBEPAU__crt_locale_pointers@@XZ 1007a910 f i libucrtd:wsetlocale.obj
 0001:00079930       ?get@?$__crt_unique_heap_ptr@U__crt_multibyte_data@@U__crt_internal_free_policy@@@@QBEPAU__crt_multibyte_data@@XZ 1007a930 f i libucrtd:wsetlocale.obj
 0001:00079950       ?is_valid@?$__crt_unique_heap_ptr@U__crt_locale_data@@U__crt_internal_free_policy@@@@QBE_NXZ 1007a950 f i libucrtd:wsetlocale.obj
 0001:00079980       ?is_valid@?$__crt_unique_heap_ptr@U__crt_locale_pointers@@U__crt_internal_free_policy@@@@QBE_NXZ 1007a980 f i libucrtd:wsetlocale.obj
 0001:000799b0       ?is_valid@?$__crt_unique_heap_ptr@U__crt_multibyte_data@@U__crt_internal_free_policy@@@@QBE_NXZ 1007a9b0 f i libucrtd:wsetlocale.obj
 0001:000799e0       ?release@?$__crt_unique_heap_ptr@U__crt_locale_data@@U__crt_internal_free_policy@@@@QAEXXZ 1007a9e0 f i libucrtd:wsetlocale.obj
 0001:00079a10       ?release@?$__crt_unique_heap_ptr@U__crt_locale_pointers@@U__crt_internal_free_policy@@@@QAEXXZ 1007aa10 f i libucrtd:wsetlocale.obj
 0001:00079a40       ?release@?$__crt_unique_heap_ptr@U__crt_multibyte_data@@U__crt_internal_free_policy@@@@QAEXXZ 1007aa40 f i libucrtd:wsetlocale.obj
 0001:00079a70       ___acrt_copy_locale_name   1007aa70 f   libucrtd:wsetlocale.obj
 0001:00079b10       ___acrt_set_locale_changed 1007ab10 f   libucrtd:wsetlocale.obj
 0001:00079b30       ___acrt_uninitialize_locale 1007ab30 f   libucrtd:wsetlocale.obj
 0001:00079b50       ___ascii_tolower           1007ab50 f i libucrtd:wsetlocale.obj
 0001:00079b70       ___ascii_towlower          1007ab70 f i libucrtd:wsetlocale.obj
 0001:00079b90       ___lc_lctowcs              1007ab90 f   libucrtd:wsetlocale.obj
 0001:00079c40       ___lc_wcstolc              1007ac40 f   libucrtd:wsetlocale.obj
 0001:00079e70       __configthreadlocale       1007ae70 f   libucrtd:wsetlocale.obj
 0001:00079ff0       __create_locale            1007aff0 f   libucrtd:wsetlocale.obj
 0001:0007a630       __free_locale              1007b630 f   libucrtd:wsetlocale.obj
 0001:0007a760       __get_current_locale       1007b760 f   libucrtd:wsetlocale.obj
 0001:0007a830       __wcreate_locale           1007b830 f   libucrtd:wsetlocale.obj
 0001:0007aa70       __wcscats                  1007ba70 f   libucrtd:wsetlocale.obj
 0001:0007aaf0       __wsetlocale               1007baf0 f   libucrtd:wsetlocale.obj
 0001:0007c1f0       ___p___mb_cur_max          1007d1f0 f   libucrtd:nlsdata.obj
 0001:0007c4f0       ___acrt_initialize_lowio   1007d4f0 f   libucrtd:ioinit.obj
 0001:0007c590       ___acrt_uninitialize_lowio 1007d590 f   libucrtd:ioinit.obj
 0001:0007c5f0       __CrtGetReportHook         1007d5f0 f   libucrtd:dbgrptt.obj
 0001:0007c600       __CrtSetReportFile         1007d600 f   libucrtd:dbgrptt.obj
 0001:0007c700       __CrtSetReportHook         1007d700 f   libucrtd:dbgrptt.obj
 0001:0007c720       __CrtSetReportMode         1007d720 f   libucrtd:dbgrptt.obj
 0001:0007c860       __VCrtDbgReportA           1007d860 f   libucrtd:dbgrptt.obj
 0001:0007d0e0       __VCrtDbgReportW           1007e0e0 f   libucrtd:dbgrptt.obj
 0001:0007da90       __snprintf_s               1007ea90 f i libucrtd:dbgrptt.obj
 0001:0007dad0       __vsnprintf_s              1007ead0 f i libucrtd:dbgrptt.obj
 0001:0007db00       __vsnprintf_s_l            1007eb00 f i libucrtd:dbgrptt.obj
 0001:0007dc90       ??$__acrt_wcs_to_mbs_cp@U__crt_win32_buffer_no_resizing@@@@YAHQB_WAAV?$__crt_win32_buffer@DU__crt_win32_buffer_no_resizing@@@@I@Z 1007ec90 f i libucrtd:getmodulefilenamea.obj
 0001:0007dcc0       ??0?$__crt_win32_buffer@DU__crt_win32_buffer_no_resizing@@@@QAE@QADI@Z 1007ecc0 f i libucrtd:getmodulefilenamea.obj
 0001:0007dd10       ??1?$__crt_win32_buffer@DU__crt_win32_buffer_no_resizing@@@@QAE@XZ 1007ed10 f i libucrtd:getmodulefilenamea.obj
 0001:0007dd80       ?__acrt_get_utf8_acp_compatibility_codepage@@YAIXZ 1007ed80 f i libucrtd:getmodulefilenamea.obj
 0001:0007de10       ?_deallocate@?$__crt_win32_buffer@DU__crt_win32_buffer_no_resizing@@@@AAEXXZ 1007ee10 f i libucrtd:getmodulefilenamea.obj
 0001:0007de50       ?allocate@?$__crt_win32_buffer@DU__crt_win32_buffer_no_resizing@@@@QAEHI@Z 1007ee50 f i libucrtd:getmodulefilenamea.obj
 0001:0007dec0       ?allocate@__crt_win32_buffer_no_resizing@@SAHQAPAXIABV__crt_win32_buffer_empty_debug_info@@@Z 1007eec0 f i libucrtd:getmodulefilenamea.obj
 0001:0007dee0       ?capacity@?$__crt_win32_buffer@DU__crt_win32_buffer_no_resizing@@@@QBEIXZ 1007eee0 f i libucrtd:getmodulefilenamea.obj
 0001:0007df00       ?data@?$__crt_win32_buffer@DU__crt_win32_buffer_no_resizing@@@@QAEPADXZ 1007ef00 f i libucrtd:getmodulefilenamea.obj
 0001:0007df20       ?deallocate@__crt_win32_buffer_no_resizing@@SAXQAXABV__crt_win32_buffer_empty_debug_info@@@Z 1007ef20 f i libucrtd:getmodulefilenamea.obj
 0001:0007df30       ?debug_info@?$__crt_win32_buffer@DU__crt_win32_buffer_no_resizing@@@@QBEABV__crt_win32_buffer_empty_debug_info@@XZ 1007ef30 f i libucrtd:getmodulefilenamea.obj
 0001:0007df40       ?set_to_nullptr@?$__crt_win32_buffer@DU__crt_win32_buffer_no_resizing@@@@QAEXXZ 1007ef40 f i libucrtd:getmodulefilenamea.obj
 0001:0007df80       ?size@?$__crt_win32_buffer@DU__crt_win32_buffer_no_resizing@@@@QAEXI@Z 1007ef80 f i libucrtd:getmodulefilenamea.obj
 0001:0007dfa0       ?size@?$__crt_win32_buffer@DU__crt_win32_buffer_no_resizing@@@@QBEIXZ 1007efa0 f i libucrtd:getmodulefilenamea.obj
 0001:0007dfc0       ___acrt_GetModuleFileNameA 1007efc0 f   libucrtd:getmodulefilenamea.obj
 0001:0007e2a0       ??$message_box@$$TABQBDABQBDK@?$__crt_char_traits@D@@SAH$$QA$$TABQBD1$$QAK@Z 1007f2a0 f i libucrtd:crtmbox.obj
 0001:0007e2d0       ??$message_box@$$TABQB_WABQB_WK@?$__crt_char_traits@_W@@SAH$$QA$$TABQB_W1$$QAK@Z 1007f2d0 f i libucrtd:crtmbox.obj
 0001:0007e300       ??$message_box@PAUHWND__@@ABQBDABQBDABI@?$__crt_char_traits@D@@SAH$$QAPAUHWND__@@ABQBD1ABI@Z 1007f300 f i libucrtd:crtmbox.obj
 0001:0007e330       ??$message_box@PAUHWND__@@ABQB_WABQB_WABI@?$__crt_char_traits@_W@@SAH$$QAPAUHWND__@@ABQB_W1ABI@Z 1007f330 f i libucrtd:crtmbox.obj
 0001:0007e360       ??$output_debug_string@ABQBD@?$__crt_char_traits@D@@SAXABQBD@Z 1007f360 f i libucrtd:crtmbox.obj
 0001:0007e380       ??$output_debug_string@ABQB_W@?$__crt_char_traits@_W@@SAXABQB_W@Z 1007f380 f i libucrtd:crtmbox.obj
 0001:0007e3a0       ___acrt_show_narrow_message_box 1007f3a0 f   libucrtd:crtmbox.obj
 0001:0007e3c0       ___acrt_show_wide_message_box 1007f3c0 f   libucrtd:crtmbox.obj
 0001:0007e3e0       ___acrt_initialize_locks   1007f3e0 f   libucrtd:locks.obj
 0001:0007e440       ___acrt_lock               1007f440 f   libucrtd:locks.obj
 0001:0007e460       ___acrt_uninitialize_locks 1007f460 f   libucrtd:locks.obj
 0001:0007e4b0       ___acrt_unlock             1007f4b0 f   libucrtd:locks.obj
 0001:0007e4d0       __lock_locales             1007f4d0 f   libucrtd:locks.obj
 0001:0007e4f0       __unlock_locales           1007f4f0 f   libucrtd:locks.obj
 0001:0007e510       ??$?B$$A6AXH@Z@__crt_fast_encoded_nullptr_t@@QBEP6AXH@ZXZ 1007f510 f i libucrtd:signal.obj
 0001:0007e600       ??$__crt_fast_decode_pointer@P6AXH@Z@@YAP6AXH@ZQ6AXH@Z@Z 1007f600 f i libucrtd:signal.obj
 0001:0007e630       ??$__crt_fast_encode_pointer@P6AXH@Z@@YAP6AXH@ZQ6AXH@Z@Z 1007f630 f i libucrtd:signal.obj
 0001:0007e8e0       ?initialize@?$dual_state_global@P6AXH@Z@__crt_state_management@@QAEXQ6AXH@Z@Z 1007f8e0 f i libucrtd:signal.obj
 0001:0007ea20       ?value@?$dual_state_global@P6AXH@Z@__crt_state_management@@QAEAAP6AXH@ZXZ 1007fa20 f i libucrtd:signal.obj
 0001:0007ea40       ___acrt_get_sigabrt_handler 1007fa40 f   libucrtd:signal.obj
 0001:0007ea60       ___acrt_initialize_signal_handlers 1007fa60 f   libucrtd:signal.obj
 0001:0007eaa0       ___fpecode                 1007faa0 f   libucrtd:signal.obj
 0001:0007eab0       ___pxcptinfoptrs           1007fab0 f   libucrtd:signal.obj
 0001:0007eac0       _raise                     1007fac0 f   libucrtd:signal.obj
 0001:0007ee90       _signal                    1007fe90 f   libucrtd:signal.obj
 0001:0007f110       __msize                    10080110 f   libucrtd:msize.obj
 0001:0007f130       __msize_base               10080130 f   libucrtd:msize.obj
 0001:0007f1d0       __realloc_base             100801d0 f   libucrtd:realloc_base.obj
 0001:0007f290       ??$?B$$A6GHPA_WKJ@Z@__crt_fast_encoded_nullptr_t@@QBEP6GHPA_WKJ@ZXZ 10080290 f i libucrtd:winapi_thunks.obj
 0001:0007f380       ??$__crt_fast_decode_pointer@P6GHPA_WKJ@Z@@YAP6GHPA_WKJ@ZQ6GH0KJ@Z@Z 10080380 f i libucrtd:winapi_thunks.obj
 0001:0007f3b0       ??$__crt_fast_decode_pointer@PAX@@YAPAXQAX@Z 100803b0 f i libucrtd:winapi_thunks.obj
 0001:0007f3e0       ??$__crt_fast_encode_pointer@P6GHPA_WKJ@Z@@YAP6GHPA_WKJ@ZQ6GH0KJ@Z@Z 100803e0 f i libucrtd:winapi_thunks.obj
 0001:0007fd40       _GetCurrentThreadEffectiveToken 10080d40 f i libucrtd:winapi_thunks.obj
 0001:0007fd50       ___acrt_AppPolicyGetProcessTerminationMethodInternal@4 10080d50 f   libucrtd:winapi_thunks.obj
 0001:0007fd90       ___acrt_AppPolicyGetShowDeveloperDiagnosticInternal@4 10080d90 f   libucrtd:winapi_thunks.obj
 0001:0007fdd0       ___acrt_AppPolicyGetThreadInitializationTypeInternal@4 10080dd0 f   libucrtd:winapi_thunks.obj
 0001:0007fe10       ___acrt_AppPolicyGetWindowingModelInternal@4 10080e10 f   libucrtd:winapi_thunks.obj
 0001:0007fe50       ___acrt_AreFileApisANSI@0  10080e50 f   libucrtd:winapi_thunks.obj
 0001:0007fe90       ___acrt_CompareStringEx@36 10080e90 f   libucrtd:winapi_thunks.obj
 0001:0007ff10       ___acrt_EnumSystemLocalesEx@16 10080f10 f   libucrtd:winapi_thunks.obj
 0001:0007ff70       ___acrt_FlsAlloc@4         10080f70 f   libucrtd:winapi_thunks.obj
 0001:0007ffb0       ___acrt_FlsFree@4          10080fb0 f   libucrtd:winapi_thunks.obj
 0001:0007fff0       ___acrt_FlsGetValue@4      10080ff0 f   libucrtd:winapi_thunks.obj
 0001:00080030       ___acrt_FlsSetValue@8      10081030 f   libucrtd:winapi_thunks.obj
 0001:00080080       ___acrt_GetDateFormatEx@28 10081080 f   libucrtd:winapi_thunks.obj
 0001:00080100       ___acrt_GetEnabledXStateFeatures@0 10081100 f   libucrtd:winapi_thunks.obj
 0001:00080140       ___acrt_GetLocaleInfoEx@16 10081140 f   libucrtd:winapi_thunks.obj
 0001:000801a0       ___acrt_GetSystemTimePreciseAsFileTime@4 100811a0 f   libucrtd:winapi_thunks.obj
 0001:000801e0       ___acrt_GetTimeFormatEx@24 100811e0 f   libucrtd:winapi_thunks.obj
 0001:00080250       ___acrt_GetUserDefaultLocaleName@8 10081250 f   libucrtd:winapi_thunks.obj
 0001:000802a0       ___acrt_GetXStateFeaturesMask@8 100812a0 f   libucrtd:winapi_thunks.obj
 0001:000802e0       ___acrt_InitializeCriticalSectionEx@12 100812e0 f   libucrtd:winapi_thunks.obj
 0001:00080330       ___acrt_IsValidLocaleName@4 10081330 f   libucrtd:winapi_thunks.obj
 0001:00080380       ___acrt_LCIDToLocaleName@16 10081380 f   libucrtd:winapi_thunks.obj
 0001:000803e0       ___acrt_LCMapStringEx@36   100813e0 f   libucrtd:winapi_thunks.obj
 0001:00080460       ___acrt_LocaleNameToLCID@8 10081460 f   libucrtd:winapi_thunks.obj
 0001:000804b0       ___acrt_LocateXStateFeature@12 100814b0 f   libucrtd:winapi_thunks.obj
 0001:00080500       ___acrt_MessageBoxA@16     10081500 f   libucrtd:winapi_thunks.obj
 0001:00080550       ___acrt_MessageBoxW@16     10081550 f   libucrtd:winapi_thunks.obj
 0001:000805a0       ___acrt_RoInitialize@4     100815a0 f   libucrtd:winapi_thunks.obj
 0001:000805e0       ___acrt_RoUninitialize@0   100815e0 f   libucrtd:winapi_thunks.obj
 0001:00080610       ___acrt_RtlGenRandom@8     10081610 f   libucrtd:winapi_thunks.obj
 0001:00080650       ___acrt_SetThreadStackGuarantee@4 10081650 f   libucrtd:winapi_thunks.obj
 0001:00080690       ___acrt_can_show_message_box 10081690 f   libucrtd:winapi_thunks.obj
 0001:000806d0       ___acrt_can_use_vista_locale_apis 100816d0 f   libucrtd:winapi_thunks.obj
 0001:00080700       ___acrt_can_use_xstate_apis 10081700 f   libucrtd:winapi_thunks.obj
 0001:00080730       ___acrt_eagerly_load_locale_apis 10081730 f   libucrtd:winapi_thunks.obj
 0001:00080770       ___acrt_get_parent_window  10081770 f   libucrtd:winapi_thunks.obj
 0001:000807e0       ___acrt_initialize_winapi_thunks 100817e0 f   libucrtd:winapi_thunks.obj
 0001:00080850       ___acrt_is_interactive     10081850 f   libucrtd:winapi_thunks.obj
 0001:00080900       ___acrt_uninitialize_winapi_thunks 10081900 f   libucrtd:winapi_thunks.obj
 0001:00080970       __chvalidator              10081970 f   libucrtd:isctype.obj
 0001:000809c0       __chvalidator_l            100819c0 f   libucrtd:isctype.obj
 0001:00080a40       __isctype                  10081a40 f   libucrtd:isctype.obj
 0001:00080a80       __isctype_l                10081a80 f   libucrtd:isctype.obj
 0001:00080c00       __isleadbyte_fast_internal 10081c00 f i libucrtd:isctype.obj
 0001:00080c20       ??$?RU__crt_stdio_stream_data@@@__crt_internal_free_policy@@QBEXQBU__crt_stdio_stream_data@@@Z 10081c20 f i libucrtd:stream.obj
 0001:00080c40       ??0?$__crt_unique_heap_ptr@U__crt_stdio_stream_data@@U__crt_internal_free_policy@@@@QAE@QAU__crt_stdio_stream_data@@@Z 10081c40 f i libucrtd:stream.obj
 0001:00080c60       ??0__crt_stdio_stream@@QAE@QAU__crt_stdio_stream_data@@@Z 10081c60 f i libucrtd:stream.obj
 0001:00080c80       ??0__crt_stdio_stream@@QAE@XZ 10081c80 f i libucrtd:stream.obj
 0001:00080ca0       ??1?$__crt_unique_heap_ptr@U__crt_stdio_stream_data@@U__crt_internal_free_policy@@@@QAE@XZ 10081ca0 f i libucrtd:stream.obj
 0001:00080cc0       ?__acrt_stdio_allocate_stream@@YA?AV__crt_stdio_stream@@XZ 10081cc0 f   libucrtd:stream.obj
 0001:00080db0       ?__acrt_stdio_free_stream@@YAXV__crt_stdio_stream@@@Z 10081db0 f   libucrtd:stream.obj
 0001:00080e30       ?deallocate@__crt_stdio_stream@@QAEXXZ 10081e30 f i libucrtd:stream.obj
 0001:00080e50       ?detach@?$__crt_unique_heap_ptr@U__crt_stdio_stream_data@@U__crt_internal_free_policy@@@@QAEPAU__crt_stdio_stream_data@@XZ 10081e50 f i libucrtd:stream.obj
 0001:00080fc0       ?lock@__crt_stdio_stream@@QBEXXZ 10081fc0 f i libucrtd:stream.obj
 0001:00080fe0       ?release@?$__crt_unique_heap_ptr@U__crt_stdio_stream_data@@U__crt_internal_free_policy@@@@QAEXXZ 10081fe0 f i libucrtd:stream.obj
 0001:00081010       ?try_allocate@__crt_stdio_stream@@QAE_NXZ 10082010 f i libucrtd:stream.obj
 0001:00081060       ??$__acrt_stdio_parse_mode@D@@YA?AU__acrt_stdio_stream_mode@@QBD@Z 10082060 f i libucrtd:openfile.obj
 0001:000818d0       ??$__acrt_stdio_parse_mode@_W@@YA?AU__acrt_stdio_stream_mode@@QB_W@Z 100828d0 f i libucrtd:openfile.obj
 0001:00082460       ??$tcsncmp@AAPBDAAY02$$CBDI@?$__crt_char_traits@D@@SAHAAPBDAAY02$$CBD$$QAI@Z 10083460 f i libucrtd:openfile.obj
 0001:00082480       ??$tcsncmp@AAPB_WAAY02$$CB_WI@?$__crt_char_traits@_W@@SAHAAPB_WAAY02$$CB_W$$QAI@Z 10083480 f i libucrtd:openfile.obj
 0001:000824a0       ??$tcsnicmp@AAPBDAAY04$$CBDI@?$__crt_char_traits@D@@SAHAAPBDAAY04$$CBD$$QAI@Z 100834a0 f i libucrtd:openfile.obj
 0001:000824c0       ??$tcsnicmp@AAPBDAAY06$$CBDI@?$__crt_char_traits@D@@SAHAAPBDAAY06$$CBD$$QAI@Z 100834c0 f i libucrtd:openfile.obj
 0001:000824e0       ??$tcsnicmp@AAPBDAAY07$$CBDI@?$__crt_char_traits@D@@SAHAAPBDAAY07$$CBD$$QAI@Z 100834e0 f i libucrtd:openfile.obj
 0001:00082500       ??$tcsnicmp@AAPB_WAAY04$$CB_WI@?$__crt_char_traits@_W@@SAHAAPB_WAAY04$$CB_W$$QAI@Z 10083500 f i libucrtd:openfile.obj
 0001:00082520       ??$tcsnicmp@AAPB_WAAY06$$CB_WI@?$__crt_char_traits@_W@@SAHAAPB_WAAY06$$CB_W$$QAI@Z 10083520 f i libucrtd:openfile.obj
 0001:00082540       ??$tcsnicmp@AAPB_WAAY07$$CB_WI@?$__crt_char_traits@_W@@SAHAAPB_WAAY07$$CB_W$$QAI@Z 10083540 f i libucrtd:openfile.obj
 0001:00082560       ??$tsopen_s@PAHABQBDABHABHH@?$__crt_char_traits@D@@SAH$$QAPAHABQBDABH2$$QAH@Z 10083560 f i libucrtd:openfile.obj
 0001:00082590       ??$tsopen_s@PAHABQB_WABHABHH@?$__crt_char_traits@_W@@SAH$$QAPAHABQB_WABH2$$QAH@Z 10083590 f i libucrtd:openfile.obj
 0001:000825c0       ?__acrt_stdio_parse_mode_D@@YA_NAAU__acrt_stdio_stream_mode@@@Z 100835c0 f i libucrtd:openfile.obj
 0001:000825f0       ?__acrt_stdio_parse_mode_N@@YA_NAAU__acrt_stdio_stream_mode@@@Z 100835f0 f i libucrtd:openfile.obj
 0001:00082610       ?__acrt_stdio_parse_mode_R@@YA_NAAU__acrt_stdio_stream_mode@@AA_N@Z 10083610 f i libucrtd:openfile.obj
 0001:00082640       ?__acrt_stdio_parse_mode_S@@YA_NAAU__acrt_stdio_stream_mode@@AA_N@Z 10083640 f i libucrtd:openfile.obj
 0001:00082670       ?__acrt_stdio_parse_mode_T@@YA_NAAU__acrt_stdio_stream_mode@@@Z 10083670 f i libucrtd:openfile.obj
 0001:000826a0       ?__acrt_stdio_parse_mode_b@@YA_NAAU__acrt_stdio_stream_mode@@@Z 100836a0 f i libucrtd:openfile.obj
 0001:000826d0       ?__acrt_stdio_parse_mode_c@@YA_NAAU__acrt_stdio_stream_mode@@AA_N@Z 100836d0 f i libucrtd:openfile.obj
 0001:00082700       ?__acrt_stdio_parse_mode_n@@YA_NAAU__acrt_stdio_stream_mode@@AA_N@Z 10083700 f i libucrtd:openfile.obj
 0001:00082730       ?__acrt_stdio_parse_mode_plus@@YA_NAAU__acrt_stdio_stream_mode@@AA_N@Z 10083730 f i libucrtd:openfile.obj
 0001:000827a0       ?__acrt_stdio_parse_mode_t@@YA_NAAU__acrt_stdio_stream_mode@@@Z 100837a0 f i libucrtd:openfile.obj
 0001:000827d0       ?__acrt_stdio_parse_mode_x@@YA_NAAU__acrt_stdio_stream_mode@@@Z 100837d0 f i libucrtd:openfile.obj
 0001:00082800       __openfile                 10083800 f   libucrtd:openfile.obj
 0001:00082830       __wopenfile                10083830 f   libucrtd:openfile.obj
 0001:00082b10       __close                    10083b10 f   libucrtd:close.obj
 0001:00082c90       __close_nolock             10083c90 f   libucrtd:close.obj
 0001:00082cf0       ?has_crt_buffer@__crt_stdio_stream@@QBE_NXZ 10083cf0 f i libucrtd:_freebuf.obj
 0001:00082d10       ___acrt_stdio_free_buffer_nolock 10083d10 f   libucrtd:_freebuf.obj
 0001:00083370       ?__acrt_stdio_reset_buffer@@YAXV__crt_stdio_stream@@@Z 10084370 f i libucrtd:fflush.obj
 0001:00083470       ?has_all_of@__crt_stdio_stream@@QBE_NJ@Z 10084470 f i libucrtd:fflush.obj
 0001:00083540       ___acrt_stdio_flush_nolock 10084540 f   libucrtd:fflush.obj
 0001:00083610       __fflush_nolock            10084610 f   libucrtd:fflush.obj
 0001:00083690       __flushall                 10084690 f   libucrtd:fflush.obj
 0001:000836b0       _fflush                    100846b0 f   libucrtd:fflush.obj
 0001:00083e60       ?has_big_buffer@__crt_stdio_stream@@QBE_NXZ 10084e60 f i libucrtd:_flsbuf.obj
 0001:00083f60       ___acrt_stdio_flush_and_write_narrow_nolock 10084f60 f   libucrtd:_flsbuf.obj
 0001:00083f90       ___acrt_stdio_flush_and_write_wide_nolock 10084f90 f   libucrtd:_flsbuf.obj
 0001:000842c0       ___acrt_get_begin_thread_init_policy 100852c0 f   libucrtd:win_policies.obj
 0001:000842e0       ___acrt_get_developer_information_policy 100852e0 f   libucrtd:win_policies.obj
 0001:00084300       ___acrt_get_process_end_policy 10085300 f   libucrtd:win_policies.obj
 0001:00084320       ___acrt_get_windowing_model_policy 10085320 f   libucrtd:win_policies.obj
 0001:000845f0       ??$__acrt_mbs_to_wcs_cp@U__crt_win32_buffer_internal_dynamic_resizing@@@@YAHQBDAAV?$__crt_win32_buffer@_WU__crt_win32_buffer_internal_dynamic_resizing@@@@I@Z 100855f0 f i libucrtd:argv_wildcards.obj
 0001:00084620       ??$__acrt_wcs_to_mbs_cp@U__crt_win32_buffer_internal_dynamic_resizing@@@@YAHQB_WAAV?$__crt_win32_buffer@DU__crt_win32_buffer_internal_dynamic_resizing@@@@I@Z 10085620 f i libucrtd:argv_wildcards.obj
 0001:00085570       ??$tcsncpy_s@AAPADIAAPADABI@?$__crt_char_traits@D@@SAHAAPAD$$QAI0ABI@Z 10086570 f i libucrtd:argv_wildcards.obj
 0001:000855a0       ??$tcsncpy_s@AAPA_WIAAPA_WABI@?$__crt_char_traits@_W@@SAHAAPA_W$$QAI0ABI@Z 100865a0 f i libucrtd:argv_wildcards.obj
 0001:000855d0       ??$tcsncpy_s@PADABIABQBDABI@?$__crt_char_traits@D@@SAH$$QAPADABIABQBD1@Z 100865d0 f i libucrtd:argv_wildcards.obj
 0001:00085600       ??$tcsncpy_s@PADIABQBDABI@?$__crt_char_traits@D@@SAH$$QAPAD$$QAIABQBDABI@Z 10086600 f i libucrtd:argv_wildcards.obj
 0001:00085630       ??$tcsncpy_s@PA_WABIABQB_WABI@?$__crt_char_traits@_W@@SAH$$QAPA_WABIABQB_W1@Z 10086630 f i libucrtd:argv_wildcards.obj
 0001:00085660       ??$tcsncpy_s@PA_WIABQB_WABI@?$__crt_char_traits@_W@@SAH$$QAPA_W$$QAIABQB_WABI@Z 10086660 f i libucrtd:argv_wildcards.obj
 0001:00085690       ??$tcspbrk@AAPADAAY02$$CBD@?$__crt_char_traits@D@@SAPADAAPADAAY02$$CBD@Z 10086690 f i libucrtd:argv_wildcards.obj
 0001:000856b0       ??$tcspbrk@AAPA_WAAY02$$CB_W@?$__crt_char_traits@_W@@SAPA_WAAPA_WAAY02$$CB_W@Z 100866b0 f i libucrtd:argv_wildcards.obj
 0001:000856d0       ??0?$__crt_unique_handle_t@U__crt_findfile_traits@@@@QAE@QAX@Z 100866d0 f i libucrtd:argv_wildcards.obj
 0001:000856f0       ??0?$__crt_win32_buffer@DU__crt_win32_buffer_internal_dynamic_resizing@@@@QAE@XZ 100866f0 f i libucrtd:argv_wildcards.obj
 0001:00085740       ??0?$__crt_win32_buffer@_WU__crt_win32_buffer_internal_dynamic_resizing@@@@QAE@XZ 10086740 f i libucrtd:argv_wildcards.obj
 0001:000857f0       ??1?$__crt_unique_handle_t@U__crt_findfile_traits@@@@QAE@XZ 100867f0 f i libucrtd:argv_wildcards.obj
 0001:00085810       ??1?$__crt_win32_buffer@DU__crt_win32_buffer_internal_dynamic_resizing@@@@QAE@XZ 10086810 f i libucrtd:argv_wildcards.obj
 0001:00085850       ??1?$__crt_win32_buffer@_WU__crt_win32_buffer_internal_dynamic_resizing@@@@QAE@XZ 10086850 f i libucrtd:argv_wildcards.obj
 0001:00085ab0       ?_deallocate@?$__crt_win32_buffer@DU__crt_win32_buffer_internal_dynamic_resizing@@@@AAEXXZ 10086ab0 f i libucrtd:argv_wildcards.obj
 0001:00085af0       ?_deallocate@?$__crt_win32_buffer@_WU__crt_win32_buffer_internal_dynamic_resizing@@@@AAEXXZ 10086af0 f i libucrtd:argv_wildcards.obj
 0001:00085b30       ?allocate@?$__crt_win32_buffer@DU__crt_win32_buffer_internal_dynamic_resizing@@@@QAEHI@Z 10086b30 f i libucrtd:argv_wildcards.obj
 0001:00085ba0       ?allocate@?$__crt_win32_buffer@_WU__crt_win32_buffer_internal_dynamic_resizing@@@@QAEHI@Z 10086ba0 f i libucrtd:argv_wildcards.obj
 0001:00085c10       ?allocate@__crt_win32_buffer_internal_dynamic_resizing@@SAHQAPAXIABV__crt_win32_buffer_empty_debug_info@@@Z 10086c10 f i libucrtd:argv_wildcards.obj
 0001:00085d50       ?capacity@?$__crt_win32_buffer@DU__crt_win32_buffer_internal_dynamic_resizing@@@@QBEIXZ 10086d50 f i libucrtd:argv_wildcards.obj
 0001:00085d70       ?capacity@?$__crt_win32_buffer@_WU__crt_win32_buffer_internal_dynamic_resizing@@@@QBEIXZ 10086d70 f i libucrtd:argv_wildcards.obj
 0001:00085d90       ?close@?$__crt_unique_handle_t@U__crt_findfile_traits@@@@QAEXXZ 10086d90 f i libucrtd:argv_wildcards.obj
 0001:00085dd0       ?close@__crt_findfile_traits@@SA_NPAX@Z 10086dd0 f i libucrtd:argv_wildcards.obj
 0001:00085e00       ?data@?$__crt_win32_buffer@DU__crt_win32_buffer_internal_dynamic_resizing@@@@QAEPADXZ 10086e00 f i libucrtd:argv_wildcards.obj
 0001:00085e20       ?data@?$__crt_win32_buffer@_WU__crt_win32_buffer_internal_dynamic_resizing@@@@QAEPA_WXZ 10086e20 f i libucrtd:argv_wildcards.obj
 0001:00085e40       ?deallocate@__crt_win32_buffer_internal_dynamic_resizing@@SAXQAXABV__crt_win32_buffer_empty_debug_info@@@Z 10086e40 f i libucrtd:argv_wildcards.obj
 0001:00085e60       ?debug_info@?$__crt_win32_buffer@DU__crt_win32_buffer_internal_dynamic_resizing@@@@QBEABV__crt_win32_buffer_empty_debug_info@@XZ 10086e60 f i libucrtd:argv_wildcards.obj
 0001:00085e70       ?debug_info@?$__crt_win32_buffer@_WU__crt_win32_buffer_internal_dynamic_resizing@@@@QBEABV__crt_win32_buffer_empty_debug_info@@XZ 10086e70 f i libucrtd:argv_wildcards.obj
 0001:00086180       ?get@?$__crt_unique_handle_t@U__crt_findfile_traits@@@@QBEPAXXZ 10087180 f i libucrtd:argv_wildcards.obj
 0001:000861f0       ?get_invalid_value@__crt_findfile_traits@@SAPAXXZ 100871f0 f i libucrtd:argv_wildcards.obj
 0001:00086280       ?set_to_nullptr@?$__crt_win32_buffer@DU__crt_win32_buffer_internal_dynamic_resizing@@@@QAEXXZ 10087280 f i libucrtd:argv_wildcards.obj
 0001:000862c0       ?set_to_nullptr@?$__crt_win32_buffer@_WU__crt_win32_buffer_internal_dynamic_resizing@@@@QAEXXZ 100872c0 f i libucrtd:argv_wildcards.obj
 0001:00086300       ?size@?$__crt_win32_buffer@DU__crt_win32_buffer_internal_dynamic_resizing@@@@QAEXI@Z 10087300 f i libucrtd:argv_wildcards.obj
 0001:00086320       ?size@?$__crt_win32_buffer@_WU__crt_win32_buffer_internal_dynamic_resizing@@@@QAEXI@Z 10087320 f i libucrtd:argv_wildcards.obj
 0001:00086380       ?strpbrk@@YAPADQADQBD@Z    10087380 f i libucrtd:argv_wildcards.obj
 0001:000863a0       ?wcspbrk@@YAPA_WPA_WPB_W@Z 100873a0 f i libucrtd:argv_wildcards.obj
 0001:000863c0       ___acrt_expand_narrow_argv_wildcards 100873c0 f   libucrtd:argv_wildcards.obj
 0001:000863e0       ___acrt_expand_wide_argv_wildcards 100873e0 f   libucrtd:argv_wildcards.obj
 0001:000864c0       ??$initialize_from_array@$$BY10BAA@E@?$dual_state_global@PAE@__crt_state_management@@QAAXAAY10BAA@E@Z 100874c0 f i libucrtd:mbctype.obj
 0001:00086510       ??$initialize_from_array@$$BY10BAB@E@?$dual_state_global@PAE@__crt_state_management@@QAAXAAY10BAB@E@Z 10087510 f i libucrtd:mbctype.obj
 0001:00086780       ?dangerous_get_state_array@?$dual_state_global@PAE@__crt_state_management@@QAEPAPAEXZ 10087780 f i libucrtd:mbctype.obj
 0001:00086790       ?dangerous_get_state_array@?$dual_state_global@PAU__crt_multibyte_data@@@__crt_state_management@@QAEPAPAU__crt_multibyte_data@@XZ 10087790 f i libucrtd:mbctype.obj
 0001:00086860       ?initialize@?$dual_state_global@PAU__crt_multibyte_data@@@__crt_state_management@@QAEXQAU__crt_multibyte_data@@@Z 10087860 f i libucrtd:mbctype.obj
 0001:00086fc0       ?value@?$dual_state_global@PAE@__crt_state_management@@QAEAAPAEXZ 10087fc0 f i libucrtd:mbctype.obj
 0001:00086fe0       ___acrt_initialize_multibyte 10087fe0 f   libucrtd:mbctype.obj
 0001:00087090       ___acrt_update_thread_multibyte_data 10088090 f   libucrtd:mbctype.obj
 0001:000870b0       ___p__mbcasemap            100880b0 f   libucrtd:mbctype.obj
 0001:000870d0       ___p__mbctype              100880d0 f   libucrtd:mbctype.obj
 0001:000870f0       __getmbcp                  100880f0 f   libucrtd:mbctype.obj
 0001:00087160       __setmbcp                  10088160 f   libucrtd:mbctype.obj
 0001:00087190       __setmbcp_nolock           10088190 f   libucrtd:mbctype.obj
 0001:00087701       __ismbbalnum               10088701 f   libucrtd:ismbbyte.obj
 0001:0008771c       __ismbbalnum_l             1008871c f   libucrtd:ismbbyte.obj
 0001:00087738       __ismbbalpha               10088738 f   libucrtd:ismbbyte.obj
 0001:00087753       __ismbbalpha_l             10088753 f   libucrtd:ismbbyte.obj
 0001:0008776f       __ismbbblank               1008876f f   libucrtd:ismbbyte.obj
 0001:00087792       __ismbbblank_l             10088792 f   libucrtd:ismbbyte.obj
 0001:000877b6       __ismbbgraph               100887b6 f   libucrtd:ismbbyte.obj
 0001:000877d1       __ismbbgraph_l             100887d1 f   libucrtd:ismbbyte.obj
 0001:000877ed       __ismbbkalnum              100887ed f   libucrtd:ismbbyte.obj
 0001:00087805       __ismbbkalnum_l            10088805 f   libucrtd:ismbbyte.obj
 0001:0008781e       __ismbbkana                1008881e f   libucrtd:ismbbyte.obj
 0001:00087831       __ismbbkana_l              10088831 f   libucrtd:ismbbyte.obj
 0001:00087880       __ismbbkprint              10088880 f   libucrtd:ismbbyte.obj
 0001:00087898       __ismbbkprint_l            10088898 f   libucrtd:ismbbyte.obj
 0001:000878b1       __ismbbkpunct              100888b1 f   libucrtd:ismbbyte.obj
 0001:000878c9       __ismbbkpunct_l            100888c9 f   libucrtd:ismbbyte.obj
 0001:000878e2       __ismbblead                100888e2 f   libucrtd:ismbbyte.obj
 0001:000878fa       __ismbblead_l              100888fa f   libucrtd:ismbbyte.obj
 0001:00087913       __ismbbprint               10088913 f   libucrtd:ismbbyte.obj
 0001:0008792e       __ismbbprint_l             1008892e f   libucrtd:ismbbyte.obj
 0001:0008794a       __ismbbpunct               1008894a f   libucrtd:ismbbyte.obj
 0001:00087962       __ismbbpunct_l             10088962 f   libucrtd:ismbbyte.obj
 0001:0008797b       __ismbbtrail               1008897b f   libucrtd:ismbbyte.obj
 0001:00087993       __ismbbtrail_l             10088993 f   libucrtd:ismbbyte.obj
 0001:000879b0       ___acrt_initialize_command_line 100889b0 f   libucrtd:argv_data.obj
 0001:000879d0       ___acrt_uninitialize_command_line 100889d0 f   libucrtd:argv_data.obj
 0001:000879e0       ___p___argc                100889e0 f   libucrtd:argv_data.obj
 0001:000879f0       ___p___argv                100889f0 f   libucrtd:argv_data.obj
 0001:00087a00       ___p___wargv               10088a00 f   libucrtd:argv_data.obj
 0001:00087a10       ___p__acmdln               10088a10 f   libucrtd:argv_data.obj
 0001:00087a20       ___p__pgmptr               10088a20 f   libucrtd:argv_data.obj
 0001:00087a30       ___p__wcmdln               10088a30 f   libucrtd:argv_data.obj
 0001:00087a40       ___p__wpgmptr              10088a40 f   libucrtd:argv_data.obj
 0001:00087a50       __get_pgmptr               10088a50 f   libucrtd:argv_data.obj
 0001:00087b60       __get_wpgmptr              10088b60 f   libucrtd:argv_data.obj
 0001:00087d20       ___acrt_MultiByteToWideChar 10088d20 f   libucrtd:multibytetowidechar.obj
 0001:00087e20       ___acrt_WideCharToMultiByte 10088e20 f   libucrtd:widechartomultibyte.obj
 0001:00087f62       ___dcrt_get_narrow_environment_from_os 10088f62 f   libucrtd:get_environment_from_os.obj
 0001:00087ff4       ___dcrt_get_wide_environment_from_os 10088ff4 f   libucrtd:get_environment_from_os.obj
 0001:00088989       ??$get_or_create_environment_nolock@$$V@?$__crt_char_traits@D@@SAPAPADXZ 10089989 f i libucrtd:setenv.obj
 0001:0008898e       ??$get_or_create_environment_nolock@$$V@?$__crt_char_traits@_W@@SAPAPA_WXZ 1008998e f i libucrtd:setenv.obj
 0001:00088993       ??$set_environment_variable@ABQADQAD@?$__crt_char_traits@D@@SAHABQAD$$QBQAD@Z 10089993 f i libucrtd:setenv.obj
 0001:000889ab       ??$set_environment_variable@ABQA_WQA_W@?$__crt_char_traits@_W@@SAHABQA_W$$QBQA_W@Z 100899ab f i libucrtd:setenv.obj
 0001:000889c2       ??$tcschr@ABQADD@?$__crt_char_traits@D@@SAPADABQAD$$QAD@Z 100899c2 f i libucrtd:setenv.obj
 0001:000889dc       ??$tcschr@ABQA_WD@?$__crt_char_traits@_W@@SAPA_WABQA_W$$QAD@Z 100899dc f i libucrtd:setenv.obj
 0001:000889fa       ??$tcscpy_s@AAPADABIAAPAD@?$__crt_char_traits@D@@SAHAAPADABI0@Z 100899fa f i libucrtd:setenv.obj
 0001:00088a18       ??$tcscpy_s@AAPA_WABIAAPA_W@?$__crt_char_traits@_W@@SAHAAPA_WABI0@Z 10089a18 f i libucrtd:setenv.obj
 0001:00088a36       ??$tcscpy_s@ABQADABIABQAD@?$__crt_char_traits@D@@SAHABQADABI0@Z 10089a36 f i libucrtd:setenv.obj
 0001:00088a54       ??$tcscpy_s@ABQA_WABIABQA_W@?$__crt_char_traits@_W@@SAHABQA_WABI0@Z 10089a54 f i libucrtd:setenv.obj
 0001:00088a72       ??$tcslen@ABQAD@?$__crt_char_traits@D@@SAIABQAD@Z 10089a72 f i libucrtd:setenv.obj
 0001:00088a8a       ??$tcslen@ABQA_W@?$__crt_char_traits@_W@@SAIABQA_W@Z 10089a8a f i libucrtd:setenv.obj
 0001:00088aa8       ??$tcsnicoll@ABQBDAAPADABI@?$__crt_char_traits@D@@SAHABQBDAAPADABI@Z 10089aa8 f i libucrtd:setenv.obj
 0001:00088ac6       ??$tcsnicoll@ABQB_WAAPA_WABI@?$__crt_char_traits@_W@@SAHABQB_WAAPA_WABI@Z 10089ac6 f i libucrtd:setenv.obj
 0001:00088ae4       ??$tcsnlen@PADH@?$__crt_char_traits@D@@SAI$$QAPAD$$QAH@Z 10089ae4 f i libucrtd:setenv.obj
 0001:00088afc       ??$tcsnlen@PA_WH@?$__crt_char_traits@_W@@SAI$$QAPA_W$$QAH@Z 10089afc f i libucrtd:setenv.obj
 0001:00088b38       ?strchr@@YAPADQADH@Z       10089b38 f i libucrtd:setenv.obj
 0001:00088b43       ?wcschr@@YAPA_WPA_W_W@Z    10089b43 f i libucrtd:setenv.obj
 0001:00088b4e       ___dcrt_set_variable_in_narrow_environment_nolock 10089b4e f   libucrtd:setenv.obj
 0001:00088b59       ___dcrt_set_variable_in_wide_environment_nolock 10089b59 f   libucrtd:setenv.obj
 0001:00088b70       ___acrt_getheap            10089b70 f   libucrtd:heap_handle.obj
 0001:00088bb0       ___acrt_initialize_heap    10089bb0 f   libucrtd:heap_handle.obj
 0001:00088be0       ___acrt_uninitialize_heap  10089be0 f   libucrtd:heap_handle.obj
 0001:00088c00       __get_heap_handle          10089c00 f   libucrtd:heap_handle.obj
 0001:00088c40       ___acrt_execute_initializers 10089c40 f   libucrtd:shared_initialization.obj
 0001:00088cf0       ___acrt_execute_uninitializers 10089cf0 f   libucrtd:shared_initialization.obj
 0001:00088d50       ??$__crt_fast_decode_pointer@P6AHPAU_exception@@@Z@@YAP6AHPAU_exception@@@ZQ6AH0@Z@Z 10089d50 f i libucrtd:matherr.obj
 0001:00088d80       ??$__crt_fast_encode_pointer@P6AHPAU_exception@@@Z@@YAP6AHPAU_exception@@@ZQ6AH0@Z@Z 10089d80 f i libucrtd:matherr.obj
 0001:00088db0       ?initialize@?$dual_state_global@P6AHPAU_exception@@@Z@__crt_state_management@@QAEXQ6AHPAU_exception@@@Z@Z 10089db0 f i libucrtd:matherr.obj
 0001:00088df0       ?value@?$dual_state_global@P6AHPAU_exception@@@Z@__crt_state_management@@QAEAAP6AHPAU_exception@@@ZXZ 10089df0 f i libucrtd:matherr.obj
 0001:00088e10       ___acrt_has_user_matherr   10089e10 f   libucrtd:matherr.obj
 0001:00088e50       ___acrt_initialize_user_matherr 10089e50 f   libucrtd:matherr.obj
 0001:00088e70       ___acrt_invoke_user_matherr 10089e70 f   libucrtd:matherr.obj
 0001:00088ec0       ___setusermatherr          10089ec0 f   libucrtd:matherr.obj
 0001:00088f00       __free_base                10089f00 f   libucrtd:free_base.obj
 0001:00088fb0       __expand                   10089fb0 f   libucrtd:expand.obj
 0001:00088fd0       __expand_base              10089fd0 f   libucrtd:expand.obj
 0001:00089100       ?value@?$dual_state_global@J@__crt_state_management@@QAEAAJXZ 1008a100 f i libucrtd:new_mode.obj
 0001:00089120       __query_new_mode           1008a120 f   libucrtd:new_mode.obj
 0001:00089140       __set_new_mode             1008a140 f   libucrtd:new_mode.obj
 0001:000891e0       __CrtDefaultAllocHook      1008a1e0 f   libucrtd:debug_heap_hook.obj
 0001:000891ec       __mbsdec                   1008a1ec f   libucrtd:mbsdec.obj
 0001:00089203       __mbsdec_l                 1008a203 f   libucrtd:mbsdec.obj
 0001:000896f0       _strncpy_s                 1008a6f0 f   libucrtd:strncpy_s.obj
 0001:000898c0       ___acrt_report_runtime_error 1008a8c0 f   libucrtd:report_runtime_error.obj
 0001:00089ab0       __query_app_type           1008aab0 f   libucrtd:report_runtime_error.obj
 0001:00089ac0       __set_app_type             1008aac0 f   libucrtd:report_runtime_error.obj
 0001:00089ad0       __iswctype_l               1008aad0 f   libucrtd:iswctype.obj
 0001:00089af0       _iswctype                  1008aaf0 f   libucrtd:iswctype.obj
 0001:00089b60       ___iswcsym                 1008ab60 f i libucrtd:_wctype.obj
 0001:00089ba0       ___iswcsymf                1008aba0 f i libucrtd:_wctype.obj
 0001:00089be0       __isleadbyte_l             1008abe0 f i libucrtd:_wctype.obj
 0001:00089c30       __iswalnum_l               1008ac30 f i libucrtd:_wctype.obj
 0001:00089c50       __iswalpha_l               1008ac50 f i libucrtd:_wctype.obj
 0001:00089c70       __iswblank_l               1008ac70 f i libucrtd:_wctype.obj
 0001:00089cb0       __iswcntrl_l               1008acb0 f i libucrtd:_wctype.obj
 0001:00089cd0       __iswcsym_l                1008acd0 f i libucrtd:_wctype.obj
 0001:00089d10       __iswcsymf_l               1008ad10 f i libucrtd:_wctype.obj
 0001:00089d50       __iswdigit_l               1008ad50 f i libucrtd:_wctype.obj
 0001:00089d70       __iswgraph_l               1008ad70 f i libucrtd:_wctype.obj
 0001:00089d90       __iswlower_l               1008ad90 f i libucrtd:_wctype.obj
 0001:00089db0       __iswprint_l               1008adb0 f i libucrtd:_wctype.obj
 0001:00089dd0       __iswpunct_l               1008add0 f i libucrtd:_wctype.obj
 0001:00089df0       __iswspace_l               1008adf0 f i libucrtd:_wctype.obj
 0001:00089e10       __iswupper_l               1008ae10 f i libucrtd:_wctype.obj
 0001:00089e30       __iswxdigit_l              1008ae30 f i libucrtd:_wctype.obj
 0001:00089e50       _isleadbyte                1008ae50 f i libucrtd:_wctype.obj
 0001:00089e70       _iswalnum                  1008ae70 f i libucrtd:_wctype.obj
 0001:00089e90       _iswalpha                  1008ae90 f i libucrtd:_wctype.obj
 0001:00089eb0       _iswascii                  1008aeb0 f i libucrtd:_wctype.obj
 0001:00089ee0       _iswblank                  1008aee0 f i libucrtd:_wctype.obj
 0001:00089f20       _iswcntrl                  1008af20 f i libucrtd:_wctype.obj
 0001:00089f40       _iswdigit                  1008af40 f i libucrtd:_wctype.obj
 0001:00089f60       _iswgraph                  1008af60 f i libucrtd:_wctype.obj
 0001:00089f80       _iswlower                  1008af80 f i libucrtd:_wctype.obj
 0001:00089fa0       _iswprint                  1008afa0 f i libucrtd:_wctype.obj
 0001:00089fc0       _iswpunct                  1008afc0 f i libucrtd:_wctype.obj
 0001:00089fe0       _iswspace                  1008afe0 f i libucrtd:_wctype.obj
 0001:0008a000       _iswupper                  1008b000 f i libucrtd:_wctype.obj
 0001:0008a020       _iswxdigit                 1008b020 f i libucrtd:_wctype.obj
 0001:0008a0b0       ?__mbrtowc_utf8@__crt_mbstring@@YAIPA_WPBDIPAU_Mbstatet@@@Z 1008b0b0 f   libucrtd:mbrtowc.obj
 0001:0008a100       ?__mbsrtowcs_utf8@__crt_mbstring@@YAIPA_WPAPBDIPAU_Mbstatet@@@Z 1008b100 f   libucrtd:mbrtowc.obj
 0001:0008a970       _btowc                     1008b970 f   libucrtd:mbrtowc.obj
 0001:0008a9e0       _mbrlen                    1008b9e0 f   libucrtd:mbrtowc.obj
 0001:0008aa30       _mbrtowc                   1008ba30 f   libucrtd:mbrtowc.obj
 0001:0008aac0       _mbsrtowcs                 1008bac0 f   libucrtd:mbrtowc.obj
 0001:0008aae0       _mbsrtowcs_s               1008bae0 f   libucrtd:mbrtowc.obj
 0001:0008ae30       ??$?RG@__crt_internal_free_policy@@QBEXQBG@Z 1008be30 f i libucrtd:initctype.obj
 0001:0008ae50       ??$?RJ@__crt_internal_free_policy@@QBEXQBJ@Z 1008be50 f i libucrtd:initctype.obj
 0001:0008ae70       ??0?$__crt_unique_heap_ptr@GU__crt_internal_free_policy@@@@QAE@QAG@Z 1008be70 f i libucrtd:initctype.obj
 0001:0008ae90       ??0?$__crt_unique_heap_ptr@JU__crt_internal_free_policy@@@@QAE@QAJ@Z 1008be90 f i libucrtd:initctype.obj
 0001:0008aeb0       ??1?$__crt_unique_heap_ptr@GU__crt_internal_free_policy@@@@QAE@XZ 1008beb0 f i libucrtd:initctype.obj
 0001:0008aed0       ??1?$__crt_unique_heap_ptr@JU__crt_internal_free_policy@@@@QAE@XZ 1008bed0 f i libucrtd:initctype.obj
 0001:0008aef0       ?detach@?$__crt_unique_heap_ptr@GU__crt_internal_free_policy@@@@QAEPAGXZ 1008bef0 f i libucrtd:initctype.obj
 0001:0008af20       ?detach@?$__crt_unique_heap_ptr@JU__crt_internal_free_policy@@@@QAEPAJXZ 1008bf20 f i libucrtd:initctype.obj
 0001:0008af50       ?release@?$__crt_unique_heap_ptr@GU__crt_internal_free_policy@@@@QAEXXZ 1008bf50 f i libucrtd:initctype.obj
 0001:0008af80       ?release@?$__crt_unique_heap_ptr@JU__crt_internal_free_policy@@@@QAEXXZ 1008bf80 f i libucrtd:initctype.obj
 0001:0008afb0       ____lc_codepage_func       1008bfb0 f   libucrtd:initctype.obj
 0001:0008aff0       ____lc_collate_cp_func     1008bff0 f   libucrtd:initctype.obj
 0001:0008b030       ____lc_locale_name_func    1008c030 f   libucrtd:initctype.obj
 0001:0008b070       ____mb_cur_max_func        1008c070 f   libucrtd:initctype.obj
 0001:0008b0b0       ____mb_cur_max_l_func      1008c0b0 f   libucrtd:initctype.obj
 0001:0008b0e0       ___acrt_locale_initialize_ctype 1008c0e0 f   libucrtd:initctype.obj
 0001:0008b860       ?__c32rtomb_utf8@__crt_mbstring@@YAIPAD_UPAU_Mbstatet@@@Z 1008c860 f   libucrtd:c32rtomb.obj
 0001:0008ba40       ?reset_and_return@__crt_mbstring@@YAIIPAU_Mbstatet@@@Z 1008ca40 f i libucrtd:c32rtomb.obj
 0001:0008ba70       ?return_illegal_sequence@__crt_mbstring@@YAIPAU_Mbstatet@@@Z 1008ca70 f i libucrtd:c32rtomb.obj
 0001:0008baa0       _c32rtomb                  1008caa0 f   libucrtd:c32rtomb.obj
 0001:0008bac0       ___acrt_add_locale_ref     1008cac0 f   libucrtd:locale_refcounting.obj
 0001:0008bbd0       ___acrt_free_locale        1008cbd0 f   libucrtd:locale_refcounting.obj
 0001:0008bea0       ___acrt_locale_add_lc_time_reference 1008cea0 f   libucrtd:locale_refcounting.obj
 0001:0008bee0       ___acrt_locale_free_lc_time_if_unreferenced 1008cee0 f   libucrtd:locale_refcounting.obj
 0001:0008bf30       ___acrt_locale_release_lc_time_reference 1008cf30 f   libucrtd:locale_refcounting.obj
 0001:0008bf60       ___acrt_release_locale_ref 1008cf60 f   libucrtd:locale_refcounting.obj
 0001:0008c070       ___acrt_update_thread_locale_data 1008d070 f   libucrtd:locale_refcounting.obj
 0001:0008c140       __updatetlocinfoEx_nolock  1008d140 f   libucrtd:locale_refcounting.obj
 0001:0008c1c0       ___acrt_fp_strflt_to_string 1008d1c0 f   libucrtd:_fptostr.obj
 0001:0008cb00       ??0big_integer@__crt_strtox@@QAE@ABU01@@Z 1008db00 f i libucrtd:cfout.obj
 0001:0008cb40       ??0big_integer@__crt_strtox@@QAE@XZ 1008db40 f i libucrtd:cfout.obj
 0001:0008cc00       ??4big_integer@__crt_strtox@@QAEAAU01@ABU01@@Z 1008dc00 f i libucrtd:cfout.obj
 0001:0008cc40       ??8__crt_strtox@@YA_NABUbig_integer@0@0@Z 1008dc40 f i libucrtd:cfout.obj
 0001:0008cca0       ??9__crt_strtox@@YA_NABUbig_integer@0@0@Z 1008dca0 f i libucrtd:cfout.obj
 0001:0008cce0       ?add_carry@__crt_strtox@@YAIAAIII@Z 1008dce0 f i libucrtd:cfout.obj
 0001:0008cd20       ?add_multiply_carry@__crt_strtox@@YAIAAIIII@Z 1008dd20 f i libucrtd:cfout.obj
 0001:0008cd60       ?bit_scan_reverse@__crt_strtox@@YAII@Z 1008dd60 f i libucrtd:cfout.obj
 0001:0008cd90       ?count_sequential_high_zeroes@__crt_strtox@@YAII@Z 1008dd90 f i libucrtd:cfout.obj
 0001:0008cdd0       ?divide@__crt_strtox@@YA_KAAUbig_integer@1@ABU21@@Z 1008ddd0 f i libucrtd:cfout.obj
 0001:0008d850       ?is_zero@__crt_strtox@@YA_NABUbig_integer@1@@Z 1008e850 f i libucrtd:cfout.obj
 0001:0008d880       ?make_big_integer@__crt_strtox@@YA?AUbig_integer@1@_K@Z 1008e880 f i libucrtd:cfout.obj
 0001:0008d930       ?make_big_integer_power_of_two@__crt_strtox@@YA?AUbig_integer@1@I@Z 1008e930 f i libucrtd:cfout.obj
 0001:0008d9e0       ?multiply@__crt_strtox@@YA_NAAUbig_integer@1@ABU21@@Z 1008e9e0 f i libucrtd:cfout.obj
 0001:0008dd60       ?multiply@__crt_strtox@@YA_NAAUbig_integer@1@I@Z 1008ed60 f i libucrtd:cfout.obj
 0001:0008de30       ?multiply_64_32@__crt_strtox@@YA_K_KI@Z 1008ee30 f i libucrtd:cfout.obj
 0001:0008de50       ?multiply_by_power_of_ten@__crt_strtox@@YA_NAAUbig_integer@1@I@Z 1008ee50 f i libucrtd:cfout.obj
 0001:0008dff0       ?multiply_core@__crt_strtox@@YAIQAIII@Z 1008eff0 f i libucrtd:cfout.obj
 0001:0008e060       ?shift_left@__crt_strtox@@YA_NAAUbig_integer@1@I@Z 1008f060 f i libucrtd:cfout.obj
 0001:0008e3b0       ___acrt_fltout             1008f3b0 f   libucrtd:cfout.obj
 0001:0008e760       __fcloseall                1008f760 f   libucrtd:closeall.obj
 0001:0008e890       __isatty                   1008f890 f   libucrtd:isatty.obj
 0001:0008e960       ??$?RUlconv@@@__crt_internal_free_policy@@QBEXQBUlconv@@@Z 1008f960 f i libucrtd:initmon.obj
 0001:0008e980       ??0?$__crt_unique_heap_ptr@Ulconv@@U__crt_internal_free_policy@@@@QAE@QAUlconv@@@Z 1008f980 f i libucrtd:initmon.obj
 0001:0008e9a0       ??1?$__crt_unique_heap_ptr@Ulconv@@U__crt_internal_free_policy@@@@QAE@XZ 1008f9a0 f i libucrtd:initmon.obj
 0001:0008e9c0       ?detach@?$__crt_unique_heap_ptr@Ulconv@@U__crt_internal_free_policy@@@@QAEPAUlconv@@XZ 1008f9c0 f i libucrtd:initmon.obj
 0001:0008e9f0       ?release@?$__crt_unique_heap_ptr@Ulconv@@U__crt_internal_free_policy@@@@QAEXXZ 1008f9f0 f i libucrtd:initmon.obj
 0001:0008ea20       ___acrt_locale_free_monetary 1008fa20 f   libucrtd:initmon.obj
 0001:0008ebd0       ___acrt_locale_initialize_monetary 1008fbd0 f   libucrtd:initmon.obj
 0001:0008f270       ___acrt_locale_free_numeric 10090270 f   libucrtd:initnum.obj
 0001:0008f320       ___acrt_locale_initialize_numeric 10090320 f   libucrtd:initnum.obj
 0001:0008f770       ??$?RU__crt_lc_time_data@@@__crt_internal_free_policy@@QBEXQBU__crt_lc_time_data@@@Z 10090770 f i libucrtd:inittime.obj
 0001:0008f850       ??0?$__crt_unique_heap_ptr@U__crt_lc_time_data@@U__crt_internal_free_policy@@@@QAE@QAU__crt_lc_time_data@@@Z 10090850 f i libucrtd:inittime.obj
 0001:0008f870       ??1?$__crt_unique_heap_ptr@U__crt_lc_time_data@@U__crt_internal_free_policy@@@@QAE@XZ 10090870 f i libucrtd:inittime.obj
 0001:0008f890       ??B?$__crt_unique_heap_ptr@U__crt_lc_time_data@@U__crt_internal_free_policy@@@@QBE_NXZ 10090890 f i libucrtd:inittime.obj
 0001:0008f8b0       ?detach@?$__crt_unique_heap_ptr@U__crt_lc_time_data@@U__crt_internal_free_policy@@@@QAEPAU__crt_lc_time_data@@XZ 100908b0 f i libucrtd:inittime.obj
 0001:0008f920       ?get@?$__crt_unique_heap_ptr@U__crt_lc_time_data@@U__crt_internal_free_policy@@@@QBEPAU__crt_lc_time_data@@XZ 10090920 f i libucrtd:inittime.obj
 0001:0008fdf0       ?is_valid@?$__crt_unique_heap_ptr@U__crt_lc_time_data@@U__crt_internal_free_policy@@@@QBE_NXZ 10090df0 f i libucrtd:inittime.obj
 0001:0008fe20       ?release@?$__crt_unique_heap_ptr@U__crt_lc_time_data@@U__crt_internal_free_policy@@@@QAEXXZ 10090e20 f i libucrtd:inittime.obj
 0001:0008fe50       ___acrt_locale_free_time   10090e50 f   libucrtd:inittime.obj
 0001:0008ffa0       ___acrt_locale_initialize_time 10090fa0 f   libucrtd:inittime.obj
 0001:00090020       ___pctype_func             10091020 f   libucrtd:ctype.obj
 0001:00090060       ___pwctype_func            10091060 f   libucrtd:ctype.obj
 0001:00090540       _wcsncat_s                 10091540 f   libucrtd:wcsncat_s.obj
 0001:00090560       _wcscmp                    10091560 f   libucrtd:wcscmp.obj
 0001:000905e0       _wcscspn                   100915e0 f   libucrtd:wcscspn.obj
 0001:00090650       _wcspbrk                   10091650 f   libucrtd:wcspbrk.obj
 0001:000906b0       ??0?$__crt_scoped_stack_ptr@_W@@QAE@U?$__crt_scoped_stack_ptr_tag@_W@@@Z 100916b0 f i libucrtd:getstringtypea.obj
 0001:000906d0       ??0?$__crt_scoped_stack_ptr_tag@_W@@QAE@QA_W@Z 100916d0 f i libucrtd:getstringtypea.obj
 0001:000906f0       ??1?$__crt_scoped_stack_ptr@_W@@QAE@XZ 100916f0 f i libucrtd:getstringtypea.obj
 0001:00090710       ?get@?$__crt_scoped_stack_ptr@_W@@QBEPA_WXZ 10091710 f i libucrtd:getstringtypea.obj
 0001:00090730       __MallocaComputeSize       10091730 f i libucrtd:getstringtypea.obj
 0001:00090760       __MarkAllocaS              10091760 f i libucrtd:getstringtypea.obj
 0001:00090790       ___acrt_GetStringTypeA     10091790 f   libucrtd:getstringtypea.obj
 0001:00090940       __freea_crt                10091940 f i libucrtd:getstringtypea.obj
 0001:00091510       ___acrt_get_qualified_locale 10092510 f   libucrtd:get_qualified_locale.obj
 0001:00092520       ___acrt_get_qualified_locale_downlevel 10093520 f   libucrtd:getqloc_downlevel.obj
 0001:000927c0       _localeconv                100937c0 f   libucrtd:localeconv.obj
 0001:00092800       ??$?RU__crt_lowio_handle_data@@@__crt_internal_free_policy@@QBEXQBU__crt_lowio_handle_data@@@Z 10093800 f i libucrtd:osfinfo.obj
 0001:00092820       ??0?$__crt_unique_heap_ptr@U__crt_lowio_handle_data@@U__crt_internal_free_policy@@@@QAE@QAU__crt_lowio_handle_data@@@Z 10093820 f i libucrtd:osfinfo.obj
 0001:00092840       ??1?$__crt_unique_heap_ptr@U__crt_lowio_handle_data@@U__crt_internal_free_policy@@@@QAE@XZ 10093840 f i libucrtd:osfinfo.obj
 0001:00092860       ??B?$__crt_unique_heap_ptr@U__crt_lowio_handle_data@@U__crt_internal_free_policy@@@@QBE_NXZ 10093860 f i libucrtd:osfinfo.obj
 0001:00092880       ?detach@?$__crt_unique_heap_ptr@U__crt_lowio_handle_data@@U__crt_internal_free_policy@@@@QAEPAU__crt_lowio_handle_data@@XZ 10093880 f i libucrtd:osfinfo.obj
 0001:000928b0       ?get@?$__crt_unique_heap_ptr@U__crt_lowio_handle_data@@U__crt_internal_free_policy@@@@QBEPAU__crt_lowio_handle_data@@XZ 100938b0 f i libucrtd:osfinfo.obj
 0001:000928d0       ?is_valid@?$__crt_unique_heap_ptr@U__crt_lowio_handle_data@@U__crt_internal_free_policy@@@@QBE_NXZ 100938d0 f i libucrtd:osfinfo.obj
 0001:00092900       ?release@?$__crt_unique_heap_ptr@U__crt_lowio_handle_data@@U__crt_internal_free_policy@@@@QAEXXZ 10093900 f i libucrtd:osfinfo.obj
 0001:00092930       ___acrt_lowio_create_handle_array 10093930 f   libucrtd:osfinfo.obj
 0001:00092a90       ___acrt_lowio_destroy_handle_array 10093a90 f   libucrtd:osfinfo.obj
 0001:00092af0       ___acrt_lowio_ensure_fh_exists 10093af0 f   libucrtd:osfinfo.obj
 0001:00092c50       ___acrt_lowio_lock_fh      10093c50 f   libucrtd:osfinfo.obj
 0001:00092c80       ___acrt_lowio_set_os_handle 10093c80 f   libucrtd:osfinfo.obj
 0001:00092d50       ___acrt_lowio_unlock_fh    10093d50 f   libucrtd:osfinfo.obj
 0001:00092d80       __alloc_osfhnd             10093d80 f   libucrtd:osfinfo.obj
 0001:00092f60       __free_osfhnd              10093f60 f   libucrtd:osfinfo.obj
 0001:00093050       __get_osfhandle            10094050 f   libucrtd:osfinfo.obj
 0001:000931d0       __open_osfhandle           100941d0 f   libucrtd:osfinfo.obj
 0001:000944e0       __i64toa                   100954e0 f   libucrtd:xtoa.obj
 0001:00094530       __i64toa_s                 10095530 f   libucrtd:xtoa.obj
 0001:00094580       __i64tow                   10095580 f   libucrtd:xtoa.obj
 0001:000945d0       __i64tow_s                 100955d0 f   libucrtd:xtoa.obj
 0001:00094620       __itoa                     10095620 f   libucrtd:xtoa.obj
 0001:00094670       __itoa_s                   10095670 f   libucrtd:xtoa.obj
 0001:000946c0       __itow                     100956c0 f   libucrtd:xtoa.obj
 0001:00094710       __itow_s                   10095710 f   libucrtd:xtoa.obj
 0001:00094760       __ltoa                     10095760 f   libucrtd:xtoa.obj
 0001:000947b0       __ltoa_s                   100957b0 f   libucrtd:xtoa.obj
 0001:00094800       __ltow                     10095800 f   libucrtd:xtoa.obj
 0001:00094850       __ltow_s                   10095850 f   libucrtd:xtoa.obj
 0001:000948a0       __ui64toa                  100958a0 f   libucrtd:xtoa.obj
 0001:000948d0       __ui64toa_s                100958d0 f   libucrtd:xtoa.obj
 0001:00094900       __ui64tow                  10095900 f   libucrtd:xtoa.obj
 0001:00094930       __ui64tow_s                10095930 f   libucrtd:xtoa.obj
 0001:00094960       __ultoa                    10095960 f   libucrtd:xtoa.obj
 0001:00094990       __ultoa_s                  10095990 f   libucrtd:xtoa.obj
 0001:000949c0       __ultow                    100959c0 f   libucrtd:xtoa.obj
 0001:000949f0       __ultow_s                  100959f0 f   libucrtd:xtoa.obj
 0001:00094e00       __mbstowcs_l               10095e00 f   libucrtd:mbstowcs.obj
 0001:00094e20       __mbstowcs_s_l             10095e20 f   libucrtd:mbstowcs.obj
 0001:000951e0       _mbstowcs                  100961e0 f   libucrtd:mbstowcs.obj
 0001:00095230       _mbstowcs_s                10096230 f   libucrtd:mbstowcs.obj
 0001:00095920       __wcstombs_l               10096920 f   libucrtd:wcstombs.obj
 0001:00095940       __wcstombs_s_l             10096940 f   libucrtd:wcstombs.obj
 0001:00095cb0       _wcstombs                  10096cb0 f   libucrtd:wcstombs.obj
 0001:00095cd0       _wcstombs_s                10096cd0 f   libucrtd:wcstombs.obj
 0001:00095d00       ___acrt_OutputDebugStringA@4 10096d00 f   libucrtd:outputdebugstringa.obj
 0001:00095d90       __malloc_base              10096d90 f   libucrtd:malloc_base.obj
 0001:00095f20       ___acrt_DownlevelLCIDToLocaleName 10096f20 f   libucrtd:lcidtoname_downlevel.obj
 0001:00095ff0       ___acrt_DownlevelLocaleNameToLCID 10096ff0 f   libucrtd:lcidtoname_downlevel.obj
 0001:00096030       ___ascii_wcsnicmp          10097030 f   libucrtd:wcsnicmp.obj
 0001:000960c0       __towlower_fast_internal   100970c0 f i libucrtd:wcsnicmp.obj
 0001:00096100       __towlower_internal        10097100 f i libucrtd:wcsnicmp.obj
 0001:00096140       __wcsnicmp                 10097140 f   libucrtd:wcsnicmp.obj
 0001:00096280       __wcsnicmp_l               10097280 f   libucrtd:wcsnicmp.obj
 0001:00096480       __strnicmp                 10097480 f   libucrtd:strnicmp.obj
 0001:00096640       __strnicmp_l               10097640 f   libucrtd:strnicmp.obj
 0001:00097240       ??$tsopen_nolock@PAHABQAHABQBDABHABHABHABH@?$__crt_char_traits@D@@SAH$$QAPAHABQAHABQBDABH333@Z 10098240 f i libucrtd:open.obj
 0001:00097280       ??$tsopen_nolock@PAHABQAHABQB_WABHABHABHABH@?$__crt_char_traits@_W@@SAH$$QAPAHABQAHABQB_WABH333@Z 10098280 f i libucrtd:open.obj
 0001:000972c0       ??$tsopen_nolock@PAHPAHABQBDABHHABHH@?$__crt_char_traits@D@@SAH$$QAPAH0ABQBDABH$$QAH23@Z 100982c0 f i libucrtd:open.obj
 0001:00097300       ??$tsopen_nolock@PAHPAHABQB_WABHHABHH@?$__crt_char_traits@_W@@SAH$$QAPAH0ABQB_WABH$$QAH23@Z 10098300 f i libucrtd:open.obj
 0001:00097ea0       __open                     10098ea0 f   libucrtd:open.obj
 0001:00097ee0       __sopen                    10098ee0 f   libucrtd:open.obj
 0001:00097f50       __sopen_dispatch           10098f50 f   libucrtd:open.obj
 0001:00097f80       __sopen_nolock             10098f80 f   libucrtd:open.obj
 0001:00098000       __sopen_s                  10099000 f   libucrtd:open.obj
 0001:00098030       __wopen                    10099030 f   libucrtd:open.obj
 0001:00098070       __wsopen                   10099070 f   libucrtd:open.obj
 0001:000980e0       __wsopen_dispatch          100990e0 f   libucrtd:open.obj
 0001:00098110       __wsopen_nolock            10099110 f   libucrtd:open.obj
 0001:000986a0       __wsopen_s                 100996a0 f   libucrtd:open.obj
 0001:000986d0       ___p__commode              100996d0 f   libucrtd:ncommode.obj
 0001:000988f0       __commit                   100998f0 f   libucrtd:commit.obj
 0001:00099fb0       __utf8_no_of_trailbytes    1009afb0 f i libucrtd:write.obj
 0001:00099fd0       __write                    1009afd0 f   libucrtd:write.obj
 0001:0009a220       __write_nolock             1009b220 f   libucrtd:write.obj
 0001:0009ade0       __lseek                    1009bde0 f   libucrtd:lseek.obj
 0001:0009ae00       __lseek_nolock             1009be00 f   libucrtd:lseek.obj
 0001:0009ae20       __lseeki64                 1009be20 f   libucrtd:lseek.obj
 0001:0009ae40       __lseeki64_nolock          1009be40 f   libucrtd:lseek.obj
 0001:0009ae60       ___acrt_stdio_allocate_buffer_nolock 1009be60 f   libucrtd:_getbuf.obj
 0001:0009b090       _qsort                     1009c090 f   libucrtd:qsort.obj
 0001:0009b710       _strpbrk                   1009c710 f   libucrtd:strpbrk.obj
 0001:0009b750       ??B?$__crt_scoped_stack_ptr@_W@@QBE_NXZ 1009c750 f i libucrtd:lcmapstringa.obj
 0001:0009bb40       ___acrt_LCMapStringA       1009cb40 f   libucrtd:lcmapstringa.obj
 0001:0009bbd0       __wcsnicoll                1009cbd0 f   libucrtd:wcsnicol.obj
 0001:0009bd90       __wcsnicoll_l              1009cd90 f   libucrtd:wcsnicol.obj
 0001:0009bfe0       __strnicoll                1009cfe0 f   libucrtd:strnicol.obj
 0001:0009c030       __strnicoll_l              1009d030 f   libucrtd:strnicol.obj
