 OPOSElectronicValueRW

 Timestamp is 5d429def (Thu Aug  1 17:08:15 2019)

 Preferred load address is 10000000

 Start         Length     Name                   Class
 0001:00000000 00000d90H .text$di                CODE
 0001:00000d90 000ab8f0H .text$mn                CODE
 0001:000ac680 000001c0H .text$x                 CODE
 0001:000ac840 00000120H .text$yd                CODE
 0002:00000000 00000358H .idata$5                DATA
 0002:00000358 00000004H .00cfg                  DATA
 0002:0000035c 00000004H .CRT$XCA                DATA
 0002:00000360 00000004H .CRT$XCL                DATA
 0002:00000364 0000006cH .CRT$XCU                DATA
 0002:000003d0 00000004H .CRT$XCZ                DATA
 0002:000003d4 00000004H .CRT$XIA                DATA
 0002:000003d8 00000010H .CRT$XIC                DATA
 0002:000003e8 00000004H .CRT$XIZ                DATA
 0002:000003ec 00000004H .CRT$XLA                DATA
 0002:000003f0 00000004H .CRT$XLZ                DATA
 0002:000003f4 00000004H .CRT$XPA                DATA
 0002:000003f8 00000008H .CRT$XPX                DATA
 0002:00000400 00000004H .CRT$XPXA               DATA
 0002:00000404 00000004H .CRT$XPZ                DATA
 0002:00000408 00000004H .CRT$XTA                DATA
 0002:0000040c 00000004H .CRT$XTZ                DATA
 0002:00000410 00000000H .gfids$y                DATA
 0002:00000410 00030a5cH .rdata                  DATA
 0002:00030e6c 00000018H .rdata$T                DATA
 0002:00030e84 0000033cH .rdata$r                DATA
 0002:000311c0 00000044H .rdata$sxdata           DATA
 0002:00031204 0000040cH .rdata$zzzdbg           DATA
 0002:00031610 00000004H .rtc$IAA                DATA
 0002:00031614 00000018H .rtc$IMZ                DATA
 0002:0003162c 00000004H .rtc$IZZ                DATA
 0002:00031630 00000004H .rtc$TAA                DATA
 0002:00031634 00000018H .rtc$TMZ                DATA
 0002:0003164c 00000004H .rtc$TZZ                DATA
 0002:00031650 00000004H .tls                    DATA
 0002:00031654 00000004H .tls$                   DATA
 0002:00031658 00000008H .tls$ZZZ                DATA
 0002:00031660 00000e44H .xdata$x                DATA
 0002:000324a4 00000004H ATL$__a                 DATA
 0002:000324a8 00000008H ATL$__z                 DATA
 0002:000324b0 000000b4H .edata                  DATA
 0002:00032564 00000078H .idata$2                DATA
 0002:000325dc 00000014H .idata$3                DATA
 0002:000325f0 00000358H .idata$4                DATA
 0002:00032948 00000d50H .idata$6                DATA
 0003:00000000 00000c60H .data                   DATA
 0003:00000c60 00000138H .data$r                 DATA
 0003:00000d98 000035c0H .bss                    DATA
 0004:00000000 00000220H .rsrc$01                DATA
 0004:00000220 00007e98H .rsrc$02                DATA

  Address         Publics by Value              Rva+Base       Lib:Object

 0000:00000000       ___hybrid_auxiliary_iat    00000000     <absolute>
 0000:00000000       ___guard_iat_count         00000000     <absolute>
 0000:00000000       ___guard_fids_table        00000000     <absolute>
 0000:00000000       ___guard_longjmp_count     00000000     <absolute>
 0000:00000000       ___volatile_metadata       00000000     <absolute>
 0000:00000000       ___guard_fids_count        00000000     <absolute>
 0000:00000000       ___dynamic_value_reloc_table 00000000     <absolute>
 0000:00000000       ___enclave_config          00000000     <absolute>
 0000:00000000       __except_list              00000000     <absolute>
 0000:00000000       ___guard_longjmp_table     00000000     <absolute>
 0000:00000000       ___guard_iat_table         00000000     <absolute>
 0000:00000000       ___hybrid_code_map         00000000     <absolute>
 0000:00000000       ___AbsoluteZero            00000000     <absolute>
 0000:00000000       ___hybrid_code_map_count   00000000     <absolute>
 0000:00000011       ___safe_se_handler_count   00000011     <absolute>
 0000:0000002c       __tls_array                0000002c     <absolute>
 0000:00000100       ___guard_flags             00000100     <absolute>
 0000:00000000       ___ImageBase               10000000     <linker-defined>
 0001:00000d90       ?_assert@@YAXPB_W0I@Z      10001d90 f   Assert.obj
 0001:00000ec0       ___local_stdio_printf_options 10001ec0 f i Assert.obj
 0001:00000ed0       ___vswprintf_l             10001ed0 f i Assert.obj
 0001:00000f00       __swprintf                 10001f00 f i Assert.obj
 0001:00000f60       __vswprintf_c_l            10001f60 f i Assert.obj
 0001:00000fd0       __vswprintf_l              10001fd0 f i Assert.obj
 0001:00001000       ?cw_memcpy@@YGHPADPB_WH@Z  10002000 f   CWString.obj
 0001:00001060       ?cw_memcpy@@YGHPA_WPBDH@Z  10002060 f   CWString.obj
 0001:000010c0       ?cw_memcpy@@YGHPADPBDH@Z   100020c0 f   CWString.obj
 0001:00001110       ?cw_memcpy@@YGHPA_WPB_WH@Z 10002110 f   CWString.obj
 0001:00001150       ?cw_memset@@YAXPADDH@Z     10002150 f   CWString.obj
 0001:00001170       ?cw_memset@@YAXPA_W_WH@Z   10002170 f   CWString.obj
 0001:00001190       ?cw_strlen@@YAHPBD@Z       10002190 f   CWString.obj
 0001:000011e0       ?cw_strlen@@YAHPB_W@Z      100021e0 f   CWString.obj
 0001:00001230       ?cw_strcpy@@YAHPADPB_W@Z   10002230 f   CWString.obj
 0001:00001250       ?cw_strcpy@@YAHPA_WPBD@Z   10002250 f   CWString.obj
 0001:00001270       ?cw_strcpy@@YAHPADPBD@Z    10002270 f   CWString.obj
 0001:00001290       ?cw_strcpy@@YAHPA_WPB_W@Z  10002290 f   CWString.obj
 0001:000012b0       ?cw_strcat@@YAHPADPB_W@Z   100022b0 f   CWString.obj
 0001:000012e0       ?cw_strcat@@YAHPA_WPBD@Z   100022e0 f   CWString.obj
 0001:00001310       ?cw_strcat@@YAHPADPBD@Z    10002310 f   CWString.obj
 0001:00001340       ?cw_strcat@@YAHPA_WPB_W@Z  10002340 f   CWString.obj
 0001:00001370       ?cw_dup@@YGXPBDAAHAAPA_W1@Z 10002370 f   CWString.obj
 0001:00001430       ?cw_dup@@YGXPB_WAAHAAPAD1@Z 10002430 f   CWString.obj
 0001:000014e0       ?DupChar@_CW@@AAEXXZ       100024e0 f   CWString.obj
 0001:00001530       ?DupWide@_CW@@AAEXXZ       10002530 f   CWString.obj
 0001:00001580       ?GetCharsMbcs@_CW@@QAEHXZ  10002580 f   CWString.obj
 0001:000015e0       ?GetCharsWide@_CW@@QAEHXZ  100025e0 f   CWString.obj
 0001:00001640       ?SetVARIANT_BOOL@OposVariant@@QAEXF@Z 10002640 f   OposVariant.obj
 0001:000016a0       ?SetVARIANT_BOOL_Ptr@OposVariant@@QAEXPAFAAJ@Z 100026a0 f   OposVariant.obj
 0001:000016f0       ?GetLONG@OposVariant@@QAEJXZ 100026f0 f   OposVariant.obj
 0001:00001780       ?ChangeLONG@OposVariant@@QAEXPAJAAJ@Z 10002780 f   OposVariant.obj
 0001:00001840       ?SetLONG@OposVariant@@QAEXJ@Z 10002840 f   OposVariant.obj
 0001:00001880       ?SetLONG_Ptr@OposVariant@@QAEXPAJAAJ@Z 10002880 f   OposVariant.obj
 0001:000018d0       ?ChangeCURRENCY@OposVariant@@QAEXPATtagCY@@AAJ@Z 100028d0 f   OposVariant.obj
 0001:00001990       ?SetCURRENCY@OposVariant@@QAEXTtagCY@@@Z 10002990 f   OposVariant.obj
 0001:000019d0       ?SetCURRENCY_Ptr@OposVariant@@QAEXPATtagCY@@AAJ@Z 100029d0 f   OposVariant.obj
 0001:00001a20       ?ChangeBSTR@OposVariant@@QAEXPAPA_WAAJ@Z 10002a20 f   OposVariant.obj
 0001:00001ae0       ?SetBSTR@OposVariant@@QAEXPA_WAAJ@Z 10002ae0 f   OposVariant.obj
 0001:00001b30       ?SetBSTR_Copy@OposVariant@@QAEXPA_WAAJ@Z 10002b30 f   OposVariant.obj
 0001:00001bd0       ?SetBSTR_OutPtr@OposVariant@@QAE_NPAPA_WAAJ@Z 10002bd0 f   OposVariant.obj
 0001:00001c20       ?SetBSTR_InOutPtr@OposVariant@@QAE_NPAPA_WAAJ@Z 10002c20 f   OposVariant.obj
 0001:00001c70       ?SetVARIANT@OposVariant@@QAEXAAUtagVARIANT@@GAAJ@Z 10002c70 f   OposVariant.obj
 0001:00001cf0       ?SetVARIANT_Ptr@OposVariant@@QAEXAAPAUtagVARIANT@@GAAJ@Z 10002cf0 f   OposVariant.obj
 0001:00001d90       ?SetString@OposVariant@@QAEXPB_WAAJ@Z 10002d90 f   OposVariant.obj
 0001:00001e20       ?SetDispatch_Ptr@OposVariant@@QAEXPAUIDispatch@@AAJ@Z 10002e20 f   OposVariant.obj
 0001:00001e90       ??0OposDispParms@@QAE@PAVOposVariant@@H@Z 10002e90 f   OposVariant.obj
 0001:00001f60       ??1OposDispParms@@QAE@XZ   10002f60 f   OposVariant.obj
 0001:00001fb0       ??$AtlMultiply@I@ATL@@YAJPAIII@Z 10002fb0 f i OposVariant.obj
 0001:00002010       ??0?$CHeapPtr@_WVCCRTAllocator@ATL@@@ATL@@QAE@XZ 10003010 f i OposVariant.obj
 0001:00002040       ??0?$CHeapPtrBase@_WVCCRTAllocator@ATL@@@ATL@@IAE@XZ 10003040 f i OposVariant.obj
 0001:00002060       ??0?$CSimpleArray@GV?$CSimpleArrayEqualHelper@G@ATL@@@ATL@@QAE@XZ 10003060 f i OposVariant.obj
 0001:000020a0       ??0?$CTraceCategoryEx@$00$0A@@ATL@@QAE@PB_W@Z 100030a0 f i OposVariant.obj
 0001:000020d0       ??0?$CTraceCategoryEx@$01$0A@@ATL@@QAE@PB_W@Z 100030d0 f i OposVariant.obj
 0001:00002100       ??0?$CTraceCategoryEx@$03$0A@@ATL@@QAE@PB_W@Z 10003100 f i OposVariant.obj
 0001:00002130       ??0?$CTraceCategoryEx@$07$0A@@ATL@@QAE@PB_W@Z 10003130 f i OposVariant.obj
 0001:00002160       ??0?$CTraceCategoryEx@$0BA@$0A@@ATL@@QAE@PB_W@Z 10003160 f i OposVariant.obj
 0001:00002190       ??0?$CTraceCategoryEx@$0BAA@$0A@@ATL@@QAE@PB_W@Z 10003190 f i OposVariant.obj
 0001:000021d0       ??0?$CTraceCategoryEx@$0BAAA@$0A@@ATL@@QAE@PB_W@Z 100031d0 f i OposVariant.obj
 0001:00002210       ??0?$CTraceCategoryEx@$0BAAAA@$0A@@ATL@@QAE@PB_W@Z 10003210 f i OposVariant.obj
 0001:00002250       ??0?$CTraceCategoryEx@$0BAAAAA@$0A@@ATL@@QAE@PB_W@Z 10003250 f i OposVariant.obj
 0001:00002290       ??0?$CTraceCategoryEx@$0CA@$0A@@ATL@@QAE@PB_W@Z 10003290 f i OposVariant.obj
 0001:000022c0       ??0?$CTraceCategoryEx@$0CAA@$0A@@ATL@@QAE@PB_W@Z 100032c0 f i OposVariant.obj
 0001:00002300       ??0?$CTraceCategoryEx@$0CAAA@$0A@@ATL@@QAE@PB_W@Z 10003300 f i OposVariant.obj
 0001:00002340       ??0?$CTraceCategoryEx@$0CAAAA@$0A@@ATL@@QAE@PB_W@Z 10003340 f i OposVariant.obj
 0001:00002380       ??0?$CTraceCategoryEx@$0CAAAAA@$0A@@ATL@@QAE@PB_W@Z 10003380 f i OposVariant.obj
 0001:000023c0       ??0?$CTraceCategoryEx@$0EA@$0A@@ATL@@QAE@PB_W@Z 100033c0 f i OposVariant.obj
 0001:000023f0       ??0?$CTraceCategoryEx@$0EAA@$0A@@ATL@@QAE@PB_W@Z 100033f0 f i OposVariant.obj
 0001:00002430       ??0?$CTraceCategoryEx@$0EAAA@$0A@@ATL@@QAE@PB_W@Z 10003430 f i OposVariant.obj
 0001:00002470       ??0?$CTraceCategoryEx@$0EAAAA@$0A@@ATL@@QAE@PB_W@Z 10003470 f i OposVariant.obj
 0001:000024b0       ??0?$CTraceCategoryEx@$0EAAAAA@$0A@@ATL@@QAE@PB_W@Z 100034b0 f i OposVariant.obj
 0001:000024f0       ??0?$CTraceCategoryEx@$0IA@$0A@@ATL@@QAE@PB_W@Z 100034f0 f i OposVariant.obj
 0001:00002530       ??0?$CTraceCategoryEx@$0IAA@$0A@@ATL@@QAE@PB_W@Z 10003530 f i OposVariant.obj
 0001:00002570       ??0?$CTraceCategoryEx@$0IAAA@$0A@@ATL@@QAE@PB_W@Z 10003570 f i OposVariant.obj
 0001:000025b0       ??0?$CTraceCategoryEx@$0IAAAA@$0A@@ATL@@QAE@PB_W@Z 100035b0 f i OposVariant.obj
 0001:000025f0       ??0CAtlComModule@ATL@@QAE@XZ 100035f0 f i OposVariant.obj
 0001:000026d0       ??0CAtlWinModule@ATL@@QAE@XZ 100036d0 f i OposVariant.obj
 0001:00002760       ??0CComCriticalSection@ATL@@QAE@XZ 10003760 f i OposVariant.obj
 0001:00002790       ??0CPreserveLastError@ATL@@QAE@XZ 10003790 f i OposVariant.obj
 0001:000027d0       ??0CTraceFileAndLineInfo@ATL@@QAE@PBDH@Z 100037d0 f i OposVariant.obj
 0001:00002800       ??0_ATL_COM_MODULE70@ATL@@QAE@XZ 10003800 f i OposVariant.obj
 0001:00002830       ??0_ATL_WIN_MODULE70@ATL@@QAE@XZ 10003830 f i OposVariant.obj
 0001:00002870       ??1?$CHeapPtr@_WVCCRTAllocator@ATL@@@ATL@@QAE@XZ 10003870 f i OposVariant.obj
 0001:000028a0       ??1?$CHeapPtrBase@_WVCCRTAllocator@ATL@@@ATL@@QAE@XZ 100038a0 f i OposVariant.obj
 0001:000028d0       ??1?$CSimpleArray@GV?$CSimpleArrayEqualHelper@G@ATL@@@ATL@@QAE@XZ 100038d0 f i OposVariant.obj
 0001:00002900       ??1CAtlComModule@ATL@@QAE@XZ 10003900 f i OposVariant.obj
 0001:00002930       ??1CAtlWinModule@ATL@@QAE@XZ 10003930 f i OposVariant.obj
 0001:00002960       ??1CComBSTR@ATL@@QAE@XZ    10003960 f i OposVariant.obj
 0001:000029a0       ??1CComCriticalSection@ATL@@QAE@XZ 100039a0 f i OposVariant.obj
 0001:000029c0       ??1CPreserveLastError@ATL@@QAE@XZ 100039c0 f i OposVariant.obj
 0001:00002a00       ??1_ATL_COM_MODULE70@ATL@@QAE@XZ 10003a00 f i OposVariant.obj
 0001:00002a30       ??1_ATL_WIN_MODULE70@ATL@@QAE@XZ 10003a30 f i OposVariant.obj
 0001:00002a70       ??1stringdispid@CComTypeInfoHolder@ATL@@QAE@XZ 10003a70 f i OposVariant.obj
 0001:00002aa0       ??A?$CSimpleArray@GV?$CSimpleArrayEqualHelper@G@ATL@@@ATL@@QAEAAGH@Z 10003aa0 f i OposVariant.obj
 0001:00002b20       ??B?$CHeapPtrBase@_WVCCRTAllocator@ATL@@@ATL@@QBEPA_WXZ 10003b20 f i OposVariant.obj
 0001:00002b40       ??B?$CTraceCategoryEx@$01$0A@@ATL@@QAEIXZ 10003b40 f i OposVariant.obj
 0001:00002b60       ??B?$CTraceCategoryEx@$0CA@$0A@@ATL@@QAEIXZ 10003b60 f i OposVariant.obj
 0001:00002b80       ??RCTraceFileAndLineInfo@ATL@@QBAXHIPB_WZZ 10003b80 f i OposVariant.obj
 0001:00002c20       ??_Estringdispid@CComTypeInfoHolder@ATL@@QAEPAXI@Z 10003c20 f i OposVariant.obj
 0001:00002cb0       ??_H@YGXPAXIIP6EPAX0@Z@Z   10003cb0 f i OposVariant.obj
 0001:00002d20       ??_I@YGXPAXIIP6EX0@Z@Z     10003d20 f i OposVariant.obj
 0001:00002da0       ?Allocate@?$CHeapPtr@_WVCCRTAllocator@ATL@@@ATL@@QAE_NI@Z 10003da0 f i OposVariant.obj
 0001:00002e30       ?Allocate@CCRTAllocator@ATL@@SAPAXI@Z 10003e30 f i OposVariant.obj
 0001:00002e50       ?AllocateBytes@?$CHeapPtrBase@_WVCCRTAllocator@ATL@@@ATL@@QAE_NI@Z 10003e50 f i OposVariant.obj
 0001:00002ec0       ?AtlWinModuleInit@ATL@@YGJPAU_ATL_WIN_MODULE70@1@@Z 10003ec0 f i OposVariant.obj
 0001:00002f90       ?AtlWinModuleTerm@ATL@@YGJPAU_ATL_WIN_MODULE70@1@PAUHINSTANCE__@@@Z 10003f90 f i OposVariant.obj
 0001:00003050       ?Clear@OposVariant@@QAEJXZ 10004050 f i OposVariant.obj
 0001:00003090       ?Free@?$CHeapPtrBase@_WVCCRTAllocator@ATL@@@ATL@@QAEXXZ 10004090 f i OposVariant.obj
 0001:000030d0       ?Free@CCRTAllocator@ATL@@SAXPAX@Z 100040d0 f i OposVariant.obj
 0001:000030f0       ?GetCategoryName@CTrace@ATL@@CAPA_WI@Z 100040f0 f i OposVariant.obj
 0001:00003140       ?GetModuleInstance@CAtlBaseModule@ATL@@QAEPAUHINSTANCE__@@XZ 10004140 f i OposVariant.obj
 0001:00003160       ?GetSize@?$CSimpleArray@GV?$CSimpleArrayEqualHelper@G@ATL@@@ATL@@QBEHXZ 10004160 f i OposVariant.obj
 0001:00003180       ?Init@CComCriticalSection@ATL@@QAEJXZ 10004180 f i OposVariant.obj
 0001:000031e0       ?RegisterCategory@CTrace@ATL@@SAXPB_WI@Z 100041e0 f i OposVariant.obj
 0001:00003270       ?RemoveAll@?$CSimpleArray@GV?$CSimpleArrayEqualHelper@G@ATL@@@ATL@@QAEXXZ 10004270 f i OposVariant.obj
 0001:000032f0       ?Term@CAtlComModule@ATL@@QAEXXZ 100042f0 f i OposVariant.obj
 0001:000033b0       ?Term@CAtlWinModule@ATL@@QAEXXZ 100043b0 f i OposVariant.obj
 0001:000033e0       ?Term@CComCriticalSection@ATL@@QAEJXZ 100043e0 f i OposVariant.obj
 0001:00003420       ?TraceV@CTrace@ATL@@CAXPBDHIIPB_W@Z 10004420 f i OposVariant.obj
 0001:000036a0       ?TraceV@CTrace@ATL@@SAXPBDHIIPB_WPAD@Z 100046a0 f i OposVariant.obj
 0001:000037e0       ?_AtlInitializeCriticalSectionEx@ATL@@YAHPAU_RTL_CRITICAL_SECTION@@KK@Z 100047e0 f i OposVariant.obj
 0001:00003810       ?_AtlRaiseException@ATL@@YAXKK@Z 10004810 f i OposVariant.obj
 0001:00003840       _HRESULT_FROM_WIN32        10004840 f i OposVariant.obj
 0001:00003880       __vswprintf_s_l            10004880 f i OposVariant.obj
 0001:000038f0       _swprintf_s                100048f0 f i OposVariant.obj
 0001:00003950       ?ObjectMain@CComObjectRootBase@ATL@@SGX_N@Z 10004950 f i ElectronicValueRW.obj
 0001:00003960       ?GetCategoryMap@CComObjectRootBase@ATL@@SAPBU_ATL_CATMAP_ENTRY@2@XZ 10004960 f i ElectronicValueRW.obj
 0001:00003970       ?GetObjectDescription@?$CComCoClass@VCOPOSElectronicValueRW@@$1?CLSID_OPOSElectronicValueRW@@3U_GUID@@B@ATL@@SGPB_WXZ 10004970 f i ElectronicValueRW.obj
 0001:00003980       ?UpdateRegistry@COPOSElectronicValueRW@@SGJH@Z 10004980 f i ElectronicValueRW.obj
 0001:000039a0       ?CreateInstance@?$CComCreator@V?$CComObjectCached@VCComClassFactory@ATL@@@ATL@@@ATL@@SGJPAXABU_GUID@@PAPAX@Z 100049a0 f i ElectronicValueRW.obj
 0001:00003b20       ?CreateInstance@?$CComCreator2@V?$CComCreator@V?$CComObject@VCOPOSElectronicValueRW@@@ATL@@@ATL@@V?$CComCreator@V?$CComAggObject@VCOPOSElectronicValueRW@@@ATL@@@2@@ATL@@SGJPAXABU_GUID@@PAPAX@Z 10004b20 f i ElectronicValueRW.obj
 0001:00003cd0       _DllGetClassObject@12      10004cd0 f   ElectronicValueRW.obj
 0001:00003d00       _DllCanUnloadNow@0         10004d00 f   ElectronicValueRW.obj
 0001:00003d40       _DllRegisterServer@0       10004d40 f   ElectronicValueRW.obj
 0001:00003d60       _DllUnregisterServer@0     10004d60 f   ElectronicValueRW.obj
 0001:00003ef0       _DllMain@12                10004ef0 f   ElectronicValueRW.obj
 0001:00003f50       ??$?2G@Wrapper@?$CSimpleArray@GV?$CSimpleArrayEqualHelper@G@ATL@@@ATL@@SAPAXIPAG@Z 10004f50 f i ElectronicValueRW.obj
 0001:00003f60       ??$?2PA_W@?$Wrapper@PA_W@?$CSimpleMap@PA_WPA_WVCExpansionVectorEqualHelper@ATL@@@ATL@@SAPAXIPAPA_W@Z 10004f60 f i ElectronicValueRW.obj
 0001:00003f70       ??$?4UITypeInfo2@@@?$CComPtr@UITypeInfo@@@ATL@@QAEPAUITypeInfo@@ABV?$CComPtr@UITypeInfo2@@@1@@Z 10004f70 f i ElectronicValueRW.obj
 0001:00003fd0       ??$AtlAdd@K@ATL@@YAJPAKKK@Z 10004fd0 f i ElectronicValueRW.obj
 0001:00004010       ??$AtlAdd@_K@ATL@@YAJPA_K_K1@Z 10005010 f i ElectronicValueRW.obj
 0001:00004080       ??$AtlAddThrow@K@ATL@@YAKKK@Z 10005080 f i ElectronicValueRW.obj
 0001:00004100       ??$AtlModuleRegisterWndClassInfoT@VAtlModuleRegisterWndClassInfoParamW@ATL@@@ATL@@YAGPAU_ATL_BASE_MODULE70@0@PAU_ATL_WIN_MODULE70@0@PAU_ATL_WNDCLASSINFOW@0@PAP6GJPAUHWND__@@IIJ@ZVAtlModuleRegisterWndClassInfoParamW@0@@Z 10005100 f i ElectronicValueRW.obj
 0001:00004510       ??$AtlMultiply@H@ATL@@YAJPAHHH@Z 10005510 f i ElectronicValueRW.obj
 0001:00004590       ??$AtlMultiply@K@ATL@@YAJPAKKK@Z 10005590 f i ElectronicValueRW.obj
 0001:000045f0       ??$AtlMultiplyThrow@I@ATL@@YAIII@Z 100055f0 f i ElectronicValueRW.obj
 0001:00004670       ??$QueryInterface@UIPersistStream@@@IUnknown@@QAGJPAPAUIPersistStream@@@Z 10005670 f i ElectronicValueRW.obj
 0001:000046a0       ??$QueryInterface@UITypeInfo2@@@IUnknown@@QAGJPAPAUITypeInfo2@@@Z 100056a0 f i ElectronicValueRW.obj
 0001:000046d0       ??0?$CAtlModuleT@VCComModule@ATL@@@ATL@@QAE@XZ 100056d0 f i ElectronicValueRW.obj
 0001:00004700       ??0?$CAtlSafeAllocBufferManager@VCCRTAllocator@ATL@@@_ATL_SAFE_ALLOCA_IMPL@ATL@@QAE@XZ 10005700 f i ElectronicValueRW.obj
 0001:00004720       ??0?$CAutoVectorPtr@_W@ATL@@QAE@XZ 10005720 f i ElectronicValueRW.obj
 0001:00004740       ??0?$CComAggObject@VCOPOSElectronicValueRW@@@ATL@@QAE@PAX@Z 10005740 f i ElectronicValueRW.obj
 0001:000047b0       ??0?$CComContainedObject@VCOPOSElectronicValueRW@@@ATL@@QAE@PAX@Z 100057b0 f i ElectronicValueRW.obj
 0001:000048c0       ??0?$CComCritSecLock@VCComCriticalSection@ATL@@@ATL@@QAE@AAVCComCriticalSection@1@_N@Z 100058c0 f i ElectronicValueRW.obj
 0001:00004920       ??0?$CComEnum@UIEnumConnectionPoints@@$1?_GUID_b196b285_bab4_101a_b69c_00aa00341d07@@3U__s_GUID@@BPAUIConnectionPoint@@V?$_CopyInterface@UIConnectionPoint@@@ATL@@VCComSingleThreadModel@6@@ATL@@QAE@XZ 10005920 f i ElectronicValueRW.obj
 0001:00004960       ??0?$CComEnum@UIEnumConnections@@$1?_GUID_b196b287_bab4_101a_b69c_00aa00341d07@@3U__s_GUID@@BUtagCONNECTDATA@@V?$_Copy@UtagCONNECTDATA@@@ATL@@VCComSingleThreadModel@6@@ATL@@QAE@XZ 10005960 f i ElectronicValueRW.obj
 0001:000049a0       ??0?$CComEnumImpl@UIEnumConnectionPoints@@$1?_GUID_b196b285_bab4_101a_b69c_00aa00341d07@@3U__s_GUID@@BPAUIConnectionPoint@@V?$_CopyInterface@UIConnectionPoint@@@ATL@@@ATL@@QAE@XZ 100059a0 f i ElectronicValueRW.obj
 0001:00004a00       ??0?$CComEnumImpl@UIEnumConnections@@$1?_GUID_b196b287_bab4_101a_b69c_00aa00341d07@@3U__s_GUID@@BUtagCONNECTDATA@@V?$_Copy@UtagCONNECTDATA@@@ATL@@@ATL@@QAE@XZ 10005a00 f i ElectronicValueRW.obj
 0001:00004a60       ??0?$CComObject@V?$CComEnum@UIEnumConnectionPoints@@$1?_GUID_b196b285_bab4_101a_b69c_00aa00341d07@@3U__s_GUID@@BPAUIConnectionPoint@@V?$_CopyInterface@UIConnectionPoint@@@ATL@@VCComSingleThreadModel@6@@ATL@@@ATL@@QAE@PAX@Z 10005a60 f i ElectronicValueRW.obj
 0001:00004ab0       ??0?$CComObject@V?$CComEnum@UIEnumConnections@@$1?_GUID_b196b287_bab4_101a_b69c_00aa00341d07@@3U__s_GUID@@BUtagCONNECTDATA@@V?$_Copy@UtagCONNECTDATA@@@ATL@@VCComSingleThreadModel@6@@ATL@@@ATL@@QAE@PAX@Z 10005ab0 f i ElectronicValueRW.obj
 0001:00004b00       ??0?$CComObject@VCOPOSElectronicValueRW@@@ATL@@QAE@PAX@Z 10005b00 f i ElectronicValueRW.obj
 0001:00004c20       ??0?$CComObjectCached@VCComClassFactory@ATL@@@ATL@@QAE@PAX@Z 10005c20 f i ElectronicValueRW.obj
 0001:00004c60       ??0?$CComObjectRootEx@VCComMultiThreadModel@ATL@@@ATL@@QAE@XZ 10005c60 f i ElectronicValueRW.obj
 0001:00004ca0       ??0?$CComObjectRootEx@VCComSingleThreadModel@ATL@@@ATL@@QAE@XZ 10005ca0 f i ElectronicValueRW.obj
 0001:00004cd0       ??0?$CComPtr@UIAdviseSink@@@ATL@@QAE@PAUIAdviseSink@@@Z 10005cd0 f i ElectronicValueRW.obj
 0001:00004d00       ??0?$CComPtr@UICatRegister@@@ATL@@QAE@XZ 10005d00 f i ElectronicValueRW.obj
 0001:00004d30       ??0?$CComPtr@UIConnectionPoint@@@ATL@@QAE@XZ 10005d30 f i ElectronicValueRW.obj
 0001:00004d60       ??0?$CComPtr@UIConnectionPointContainer@@@ATL@@QAE@XZ 10005d60 f i ElectronicValueRW.obj
 0001:00004d90       ??0?$CComPtr@UIDataObject@@@ATL@@QAE@XZ 10005d90 f i ElectronicValueRW.obj
 0001:00004dc0       ??0?$CComPtr@UIDispatch@@@ATL@@QAE@XZ 10005dc0 f i ElectronicValueRW.obj
 0001:00004df0       ??0?$CComPtr@UIOleClientSite@@@ATL@@QAE@PAUIOleClientSite@@@Z 10005df0 f i ElectronicValueRW.obj
 0001:00004e20       ??0?$CComPtr@UIOleControlSite@@@ATL@@QAE@XZ 10005e20 f i ElectronicValueRW.obj
 0001:00004e50       ??0?$CComPtr@UIOleInPlaceActiveObject@@@ATL@@QAE@XZ 10005e50 f i ElectronicValueRW.obj
 0001:00004e80       ??0?$CComPtr@UIOleInPlaceFrame@@@ATL@@QAE@XZ 10005e80 f i ElectronicValueRW.obj
 0001:00004eb0       ??0?$CComPtr@UIOleInPlaceObject@@@ATL@@QAE@XZ 10005eb0 f i ElectronicValueRW.obj
 0001:00004ee0       ??0?$CComPtr@UIOleInPlaceUIWindow@@@ATL@@QAE@XZ 10005ee0 f i ElectronicValueRW.obj
 0001:00004f10       ??0?$CComPtr@UIOleObject@@@ATL@@QAE@XZ 10005f10 f i ElectronicValueRW.obj
 0001:00004f40       ??0?$CComPtr@UIPersistStream@@@ATL@@QAE@XZ 10005f40 f i ElectronicValueRW.obj
 0001:00004f70       ??0?$CComPtr@UIPersistStreamInit@@@ATL@@QAE@XZ 10005f70 f i ElectronicValueRW.obj
 0001:00004fa0       ??0?$CComPtr@UIPointerInactive@@@ATL@@QAE@XZ 10005fa0 f i ElectronicValueRW.obj
 0001:00004fd0       ??0?$CComPtr@UIProvideClassInfo2@@@ATL@@QAE@XZ 10005fd0 f i ElectronicValueRW.obj
 0001:00005000       ??0?$CComPtr@UISpecifyPropertyPages@@@ATL@@QAE@XZ 10006000 f i ElectronicValueRW.obj
 0001:00005030       ??0?$CComPtr@UIStream@@@ATL@@QAE@XZ 10006030 f i ElectronicValueRW.obj
 0001:00005060       ??0?$CComPtr@UITypeInfo2@@@ATL@@QAE@XZ 10006060 f i ElectronicValueRW.obj
 0001:00005090       ??0?$CComPtr@UITypeInfo@@@ATL@@QAE@ABV01@@Z 10006090 f i ElectronicValueRW.obj
 0001:000050c0       ??0?$CComPtr@UITypeInfo@@@ATL@@QAE@XZ 100060c0 f i ElectronicValueRW.obj
 0001:000050f0       ??0?$CComPtr@UITypeLib@@@ATL@@QAE@XZ 100060f0 f i ElectronicValueRW.obj
 0001:00005120       ??0?$CComPtr@UIUnknown@@@ATL@@QAE@ABV01@@Z 10006120 f i ElectronicValueRW.obj
 0001:00005150       ??0?$CComPtr@UIUnknown@@@ATL@@QAE@PAUIUnknown@@@Z 10006150 f i ElectronicValueRW.obj
 0001:00005180       ??0?$CComPtr@UIUnknown@@@ATL@@QAE@XZ 10006180 f i ElectronicValueRW.obj
 0001:000051b0       ??0?$CComPtr@UIViewObjectEx@@@ATL@@QAE@XZ 100061b0 f i ElectronicValueRW.obj
 0001:000051e0       ??0?$CComPtrBase@UIAdviseSink@@@ATL@@IAE@PAUIAdviseSink@@@Z 100061e0 f i ElectronicValueRW.obj
 0001:00005230       ??0?$CComPtrBase@UICatRegister@@@ATL@@IAE@XZ 10006230 f i ElectronicValueRW.obj
 0001:00005250       ??0?$CComPtrBase@UIConnectionPoint@@@ATL@@IAE@XZ 10006250 f i ElectronicValueRW.obj
 0001:00005270       ??0?$CComPtrBase@UIConnectionPointContainer@@@ATL@@IAE@XZ 10006270 f i ElectronicValueRW.obj
 0001:00005290       ??0?$CComPtrBase@UIDataObject@@@ATL@@IAE@XZ 10006290 f i ElectronicValueRW.obj
 0001:000052b0       ??0?$CComPtrBase@UIDispatch@@@ATL@@IAE@XZ 100062b0 f i ElectronicValueRW.obj
 0001:000052d0       ??0?$CComPtrBase@UIOleClientSite@@@ATL@@IAE@PAUIOleClientSite@@@Z 100062d0 f i ElectronicValueRW.obj
 0001:00005320       ??0?$CComPtrBase@UIOleControlSite@@@ATL@@IAE@XZ 10006320 f i ElectronicValueRW.obj
 0001:00005340       ??0?$CComPtrBase@UIOleInPlaceActiveObject@@@ATL@@IAE@XZ 10006340 f i ElectronicValueRW.obj
 0001:00005360       ??0?$CComPtrBase@UIOleInPlaceFrame@@@ATL@@IAE@XZ 10006360 f i ElectronicValueRW.obj
 0001:00005380       ??0?$CComPtrBase@UIOleInPlaceObject@@@ATL@@IAE@XZ 10006380 f i ElectronicValueRW.obj
 0001:000053a0       ??0?$CComPtrBase@UIOleInPlaceUIWindow@@@ATL@@IAE@XZ 100063a0 f i ElectronicValueRW.obj
 0001:000053c0       ??0?$CComPtrBase@UIOleObject@@@ATL@@IAE@XZ 100063c0 f i ElectronicValueRW.obj
 0001:000053e0       ??0?$CComPtrBase@UIPersistStream@@@ATL@@IAE@XZ 100063e0 f i ElectronicValueRW.obj
 0001:00005400       ??0?$CComPtrBase@UIPersistStreamInit@@@ATL@@IAE@XZ 10006400 f i ElectronicValueRW.obj
 0001:00005420       ??0?$CComPtrBase@UIPointerInactive@@@ATL@@IAE@XZ 10006420 f i ElectronicValueRW.obj
 0001:00005440       ??0?$CComPtrBase@UIProvideClassInfo2@@@ATL@@IAE@XZ 10006440 f i ElectronicValueRW.obj
 0001:00005460       ??0?$CComPtrBase@UISpecifyPropertyPages@@@ATL@@IAE@XZ 10006460 f i ElectronicValueRW.obj
 0001:00005480       ??0?$CComPtrBase@UIStream@@@ATL@@IAE@XZ 10006480 f i ElectronicValueRW.obj
 0001:000054a0       ??0?$CComPtrBase@UITypeInfo2@@@ATL@@IAE@XZ 100064a0 f i ElectronicValueRW.obj
 0001:000054c0       ??0?$CComPtrBase@UITypeInfo@@@ATL@@IAE@PAUITypeInfo@@@Z 100064c0 f i ElectronicValueRW.obj
 0001:00005510       ??0?$CComPtrBase@UITypeInfo@@@ATL@@IAE@XZ 10006510 f i ElectronicValueRW.obj
 0001:00005530       ??0?$CComPtrBase@UITypeLib@@@ATL@@IAE@XZ 10006530 f i ElectronicValueRW.obj
 0001:00005550       ??0?$CComPtrBase@UIUnknown@@@ATL@@IAE@PAUIUnknown@@@Z 10006550 f i ElectronicValueRW.obj
 0001:000055a0       ??0?$CComPtrBase@UIUnknown@@@ATL@@IAE@XZ 100065a0 f i ElectronicValueRW.obj
 0001:000055c0       ??0?$CComPtrBase@UIViewObjectEx@@@ATL@@IAE@XZ 100065c0 f i ElectronicValueRW.obj
 0001:000055e0       ??0?$CComQIPtr@UIOleControlSite@@$1?_GUID_b196b289_bab4_101a_b69c_00aa00341d07@@3U__s_GUID@@B@ATL@@QAE@PAUIUnknown@@@Z 100065e0 f i ElectronicValueRW.obj
 0001:00005640       ??0?$CComQIPtr@UIOleObject@@$1?_GUID_00000112_0000_0000_c000_000000000046@@3U__s_GUID@@B@ATL@@QAE@XZ 10006640 f i ElectronicValueRW.obj
 0001:00005670       ??0?$CComQIPtr@UISpecifyPropertyPages@@$1?_GUID_b196b28b_bab4_101a_b69c_00aa00341d07@@3U__s_GUID@@B@ATL@@QAE@XZ 10006670 f i ElectronicValueRW.obj
 0001:000056a0       ??0?$CSimpleMap@PA_WPA_WVCExpansionVectorEqualHelper@ATL@@@ATL@@QAE@XZ 100066a0 f i ElectronicValueRW.obj
 0001:000056e0       ??0?$CTempBuffer@E$0BAA@VCCRTAllocator@ATL@@@ATL@@QAE@XZ 100066e0 f i ElectronicValueRW.obj
 0001:00005700       ??0?$CTempBuffer@_W$0BAA@VCCRTAllocator@ATL@@@ATL@@QAE@XZ 10006700 f i ElectronicValueRW.obj
 0001:00005720       ??0?$CTempBuffer@_W$0EAA@VCCRTAllocator@ATL@@@ATL@@QAE@XZ 10006720 f i ElectronicValueRW.obj
 0001:00005740       ??0?$Wrapper@PA_W@?$CSimpleMap@PA_WPA_WVCExpansionVectorEqualHelper@ATL@@@ATL@@QAE@ABQA_W@Z 10006740 f i ElectronicValueRW.obj
 0001:00005770       ??0CAtlModule@ATL@@QAE@XZ  10006770 f i ElectronicValueRW.obj
 0001:00005890       ??0CComAutoDeleteCriticalSection@ATL@@QAE@XZ 10006890 f i ElectronicValueRW.obj
 0001:000058c0       ??0CComBSTR@ATL@@QAE@XZ    100068c0 f i ElectronicValueRW.obj
 0001:000058e0       ??0CComClassFactory@ATL@@QAE@XZ 100068e0 f i ElectronicValueRW.obj
 0001:00005920       ??0CComModule@ATL@@QAE@XZ  10006920 f i ElectronicValueRW.obj
 0001:00005990       ??0CComObjectRootBase@ATL@@QAE@XZ 10006990 f i ElectronicValueRW.obj
 0001:000059b0       ??0CComSafeDeleteCriticalSection@ATL@@QAE@XZ 100069b0 f i ElectronicValueRW.obj
 0001:000059e0       ??0CComVariant@ATL@@QAE@XZ 100069e0 f i ElectronicValueRW.obj
 0001:00005a30       ??0CExpansionVector@ATL@@QAE@XZ 10006a30 f i ElectronicValueRW.obj
 0001:00005a60       ??0CParseBuffer@CRegParser@ATL@@QAE@H@Z 10006a60 f i ElectronicValueRW.obj
 0001:00005ad0       ??0CRegKey@ATL@@QAE@PAUHKEY__@@@Z 10006ad0 f i ElectronicValueRW.obj
 0001:00005b10       ??0CRegKey@ATL@@QAE@PAVCAtlTransactionManager@1@@Z 10006b10 f i ElectronicValueRW.obj
 0001:00005b50       ??0CRegObject@ATL@@QAE@XZ  10006b50 f i ElectronicValueRW.obj
 0001:00005b90       ??0CRegParser@ATL@@QAE@PAVCRegObject@1@@Z 10006b90 f i ElectronicValueRW.obj
 0001:00005bc0       ??0IClassFactory@@QAE@XZ   10006bc0 f i ElectronicValueRW.obj
 0001:00005bf0       ??0IEnumConnectionPoints@@QAE@XZ 10006bf0 f i ElectronicValueRW.obj
 0001:00005c20       ??0IEnumConnections@@QAE@XZ 10006c20 f i ElectronicValueRW.obj
 0001:00005c50       ??0IRegistrarBase@@QAE@XZ  10006c50 f i ElectronicValueRW.obj
 0001:00005c80       ??0IUnknown@@QAE@XZ        10006c80 f i ElectronicValueRW.obj
 0001:00005ca0       ??0ModuleLockHelper@ATL@@QAE@XZ 10006ca0 f i ElectronicValueRW.obj
 0001:00005ce0       ??0OposVariant@@QAE@XZ     10006ce0 f i ElectronicValueRW.obj
 0001:00005d10       ??0Wrapper@?$CSimpleArray@GV?$CSimpleArrayEqualHelper@G@ATL@@@ATL@@QAE@ABG@Z 10006d10 f i ElectronicValueRW.obj
 0001:00005d40       ??0_ATL_MODULE70@ATL@@QAE@XZ 10006d40 f i ElectronicValueRW.obj
 0001:00005d70       ??0_ATL_MSG@ATL@@QAE@PAUHWND__@@IIJH@Z 10006d70 f i ElectronicValueRW.obj
 0001:00005de0       ??0_U_MENUorID@ATL@@QAE@I@Z 10006de0 f i ElectronicValueRW.obj
 0001:00005e00       ??0_U_RECT@ATL@@QAE@AAUtagRECT@@@Z 10006e00 f i ElectronicValueRW.obj
 0001:00005e20       ??0stringdispid@CComTypeInfoHolder@ATL@@QAE@XZ 10006e20 f i ElectronicValueRW.obj
 0001:00005e60       ??1?$CAtlModuleT@VCComModule@ATL@@@ATL@@UAE@XZ 10006e60 f i ElectronicValueRW.obj
 0001:00005e90       ??1?$CAtlSafeAllocBufferManager@VCCRTAllocator@ATL@@@_ATL_SAFE_ALLOCA_IMPL@ATL@@QAE@XZ 10006e90 f i ElectronicValueRW.obj
 0001:00005ee0       ??1?$CAutoVectorPtr@_W@ATL@@QAE@XZ 10006ee0 f i ElectronicValueRW.obj
 0001:00005f10       ??1?$CComAggObject@VCOPOSElectronicValueRW@@@ATL@@UAE@XZ 10006f10 f i ElectronicValueRW.obj
 0001:00005f80       ??1?$CComContainedObject@VCOPOSElectronicValueRW@@@ATL@@UAE@XZ 10006f80 f i ElectronicValueRW.obj
 0001:00005fb0       ??1?$CComCritSecLock@VCComCriticalSection@ATL@@@ATL@@QAE@XZ 10006fb0 f i ElectronicValueRW.obj
 0001:00005fe0       ??1?$CComEnum@UIEnumConnectionPoints@@$1?_GUID_b196b285_bab4_101a_b69c_00aa00341d07@@3U__s_GUID@@BPAUIConnectionPoint@@V?$_CopyInterface@UIConnectionPoint@@@ATL@@VCComSingleThreadModel@6@@ATL@@UAE@XZ 10006fe0 f i ElectronicValueRW.obj
 0001:00006010       ??1?$CComEnum@UIEnumConnections@@$1?_GUID_b196b287_bab4_101a_b69c_00aa00341d07@@3U__s_GUID@@BUtagCONNECTDATA@@V?$_Copy@UtagCONNECTDATA@@@ATL@@VCComSingleThreadModel@6@@ATL@@UAE@XZ 10007010 f i ElectronicValueRW.obj
 0001:00006040       ??1?$CComEnumImpl@UIEnumConnectionPoints@@$1?_GUID_b196b285_bab4_101a_b69c_00aa00341d07@@3U__s_GUID@@BPAUIConnectionPoint@@V?$_CopyInterface@UIConnectionPoint@@@ATL@@@ATL@@UAE@XZ 10007040 f i ElectronicValueRW.obj
 0001:000060d0       ??1?$CComEnumImpl@UIEnumConnections@@$1?_GUID_b196b287_bab4_101a_b69c_00aa00341d07@@3U__s_GUID@@BUtagCONNECTDATA@@V?$_Copy@UtagCONNECTDATA@@@ATL@@@ATL@@UAE@XZ 100070d0 f i ElectronicValueRW.obj
 0001:00006160       ??1?$CComObject@V?$CComEnum@UIEnumConnectionPoints@@$1?_GUID_b196b285_bab4_101a_b69c_00aa00341d07@@3U__s_GUID@@BPAUIConnectionPoint@@V?$_CopyInterface@UIConnectionPoint@@@ATL@@VCComSingleThreadModel@6@@ATL@@@ATL@@UAE@XZ 10007160 f i ElectronicValueRW.obj
 0001:000061c0       ??1?$CComObject@V?$CComEnum@UIEnumConnections@@$1?_GUID_b196b287_bab4_101a_b69c_00aa00341d07@@3U__s_GUID@@BUtagCONNECTDATA@@V?$_Copy@UtagCONNECTDATA@@@ATL@@VCComSingleThreadModel@6@@ATL@@@ATL@@UAE@XZ 100071c0 f i ElectronicValueRW.obj
 0001:00006220       ??1?$CComObject@VCOPOSElectronicValueRW@@@ATL@@UAE@XZ 10007220 f i ElectronicValueRW.obj
 0001:00006360       ??1?$CComObjectCached@VCComClassFactory@ATL@@@ATL@@UAE@XZ 10007360 f i ElectronicValueRW.obj
 0001:000063b0       ??1?$CComObjectRootEx@VCComMultiThreadModel@ATL@@@ATL@@QAE@XZ 100073b0 f i ElectronicValueRW.obj
 0001:000063e0       ??1?$CComObjectRootEx@VCComSingleThreadModel@ATL@@@ATL@@QAE@XZ 100073e0 f i ElectronicValueRW.obj
 0001:00006410       ??1?$CComPtr@UIAdviseSink@@@ATL@@QAE@XZ 10007410 f i ElectronicValueRW.obj
 0001:00006440       ??1?$CComPtr@UICatRegister@@@ATL@@QAE@XZ 10007440 f i ElectronicValueRW.obj
 0001:00006470       ??1?$CComPtr@UIConnectionPoint@@@ATL@@QAE@XZ 10007470 f i ElectronicValueRW.obj
 0001:000064a0       ??1?$CComPtr@UIConnectionPointContainer@@@ATL@@QAE@XZ 100074a0 f i ElectronicValueRW.obj
 0001:000064d0       ??1?$CComPtr@UIDataObject@@@ATL@@QAE@XZ 100074d0 f i ElectronicValueRW.obj
 0001:00006500       ??1?$CComPtr@UIDispatch@@@ATL@@QAE@XZ 10007500 f i ElectronicValueRW.obj
 0001:00006530       ??1?$CComPtr@UIOleClientSite@@@ATL@@QAE@XZ 10007530 f i ElectronicValueRW.obj
 0001:00006560       ??1?$CComPtr@UIOleControlSite@@@ATL@@QAE@XZ 10007560 f i ElectronicValueRW.obj
 0001:00006590       ??1?$CComPtr@UIOleInPlaceActiveObject@@@ATL@@QAE@XZ 10007590 f i ElectronicValueRW.obj
 0001:000065c0       ??1?$CComPtr@UIOleInPlaceFrame@@@ATL@@QAE@XZ 100075c0 f i ElectronicValueRW.obj
 0001:000065f0       ??1?$CComPtr@UIOleInPlaceObject@@@ATL@@QAE@XZ 100075f0 f i ElectronicValueRW.obj
 0001:00006620       ??1?$CComPtr@UIOleInPlaceUIWindow@@@ATL@@QAE@XZ 10007620 f i ElectronicValueRW.obj
 0001:00006650       ??1?$CComPtr@UIOleObject@@@ATL@@QAE@XZ 10007650 f i ElectronicValueRW.obj
 0001:00006680       ??1?$CComPtr@UIPersistStream@@@ATL@@QAE@XZ 10007680 f i ElectronicValueRW.obj
 0001:000066b0       ??1?$CComPtr@UIPersistStreamInit@@@ATL@@QAE@XZ 100076b0 f i ElectronicValueRW.obj
 0001:000066e0       ??1?$CComPtr@UIPointerInactive@@@ATL@@QAE@XZ 100076e0 f i ElectronicValueRW.obj
 0001:00006710       ??1?$CComPtr@UIProvideClassInfo2@@@ATL@@QAE@XZ 10007710 f i ElectronicValueRW.obj
 0001:00006740       ??1?$CComPtr@UISpecifyPropertyPages@@@ATL@@QAE@XZ 10007740 f i ElectronicValueRW.obj
 0001:00006770       ??1?$CComPtr@UIStream@@@ATL@@QAE@XZ 10007770 f i ElectronicValueRW.obj
 0001:000067a0       ??1?$CComPtr@UITypeInfo2@@@ATL@@QAE@XZ 100077a0 f i ElectronicValueRW.obj
 0001:000067d0       ??1?$CComPtr@UITypeInfo@@@ATL@@QAE@XZ 100077d0 f i ElectronicValueRW.obj
 0001:00006800       ??1?$CComPtr@UITypeLib@@@ATL@@QAE@XZ 10007800 f i ElectronicValueRW.obj
 0001:00006830       ??1?$CComPtr@UIUnknown@@@ATL@@QAE@XZ 10007830 f i ElectronicValueRW.obj
 0001:00006860       ??1?$CComPtr@UIViewObjectEx@@@ATL@@QAE@XZ 10007860 f i ElectronicValueRW.obj
 0001:00006890       ??1?$CComPtrBase@UIAdviseSink@@@ATL@@QAE@XZ 10007890 f i ElectronicValueRW.obj
 0001:000068e0       ??1?$CComPtrBase@UICatRegister@@@ATL@@QAE@XZ 100078e0 f i ElectronicValueRW.obj
 0001:00006930       ??1?$CComPtrBase@UIConnectionPoint@@@ATL@@QAE@XZ 10007930 f i ElectronicValueRW.obj
 0001:00006980       ??1?$CComPtrBase@UIConnectionPointContainer@@@ATL@@QAE@XZ 10007980 f i ElectronicValueRW.obj
 0001:000069d0       ??1?$CComPtrBase@UIDataObject@@@ATL@@QAE@XZ 100079d0 f i ElectronicValueRW.obj
 0001:00006a20       ??1?$CComPtrBase@UIDispatch@@@ATL@@QAE@XZ 10007a20 f i ElectronicValueRW.obj
 0001:00006a70       ??1?$CComPtrBase@UIOleClientSite@@@ATL@@QAE@XZ 10007a70 f i ElectronicValueRW.obj
 0001:00006ac0       ??1?$CComPtrBase@UIOleControlSite@@@ATL@@QAE@XZ 10007ac0 f i ElectronicValueRW.obj
 0001:00006b10       ??1?$CComPtrBase@UIOleInPlaceActiveObject@@@ATL@@QAE@XZ 10007b10 f i ElectronicValueRW.obj
 0001:00006b60       ??1?$CComPtrBase@UIOleInPlaceFrame@@@ATL@@QAE@XZ 10007b60 f i ElectronicValueRW.obj
 0001:00006bb0       ??1?$CComPtrBase@UIOleInPlaceObject@@@ATL@@QAE@XZ 10007bb0 f i ElectronicValueRW.obj
 0001:00006c00       ??1?$CComPtrBase@UIOleInPlaceUIWindow@@@ATL@@QAE@XZ 10007c00 f i ElectronicValueRW.obj
 0001:00006c50       ??1?$CComPtrBase@UIOleObject@@@ATL@@QAE@XZ 10007c50 f i ElectronicValueRW.obj
 0001:00006ca0       ??1?$CComPtrBase@UIPersistStream@@@ATL@@QAE@XZ 10007ca0 f i ElectronicValueRW.obj
 0001:00006cf0       ??1?$CComPtrBase@UIPersistStreamInit@@@ATL@@QAE@XZ 10007cf0 f i ElectronicValueRW.obj
 0001:00006d40       ??1?$CComPtrBase@UIPointerInactive@@@ATL@@QAE@XZ 10007d40 f i ElectronicValueRW.obj
 0001:00006d90       ??1?$CComPtrBase@UIProvideClassInfo2@@@ATL@@QAE@XZ 10007d90 f i ElectronicValueRW.obj
 0001:00006de0       ??1?$CComPtrBase@UISpecifyPropertyPages@@@ATL@@QAE@XZ 10007de0 f i ElectronicValueRW.obj
 0001:00006e30       ??1?$CComPtrBase@UIStream@@@ATL@@QAE@XZ 10007e30 f i ElectronicValueRW.obj
 0001:00006e80       ??1?$CComPtrBase@UITypeInfo2@@@ATL@@QAE@XZ 10007e80 f i ElectronicValueRW.obj
 0001:00006ed0       ??1?$CComPtrBase@UITypeInfo@@@ATL@@QAE@XZ 10007ed0 f i ElectronicValueRW.obj
 0001:00006f20       ??1?$CComPtrBase@UITypeLib@@@ATL@@QAE@XZ 10007f20 f i ElectronicValueRW.obj
 0001:00006f70       ??1?$CComPtrBase@UIUnknown@@@ATL@@QAE@XZ 10007f70 f i ElectronicValueRW.obj
 0001:00006fc0       ??1?$CComPtrBase@UIViewObjectEx@@@ATL@@QAE@XZ 10007fc0 f i ElectronicValueRW.obj
 0001:00007010       ??1?$CComQIPtr@UIOleControlSite@@$1?_GUID_b196b289_bab4_101a_b69c_00aa00341d07@@3U__s_GUID@@B@ATL@@QAE@XZ 10008010 f i ElectronicValueRW.obj
 0001:00007040       ??1?$CComQIPtr@UIOleObject@@$1?_GUID_00000112_0000_0000_c000_000000000046@@3U__s_GUID@@B@ATL@@QAE@XZ 10008040 f i ElectronicValueRW.obj
 0001:00007070       ??1?$CComQIPtr@UISpecifyPropertyPages@@$1?_GUID_b196b28b_bab4_101a_b69c_00aa00341d07@@3U__s_GUID@@B@ATL@@QAE@XZ 10008070 f i ElectronicValueRW.obj
 0001:000070a0       ??1?$CSimpleMap@PA_WPA_WVCExpansionVectorEqualHelper@ATL@@@ATL@@QAE@XZ 100080a0 f i ElectronicValueRW.obj
 0001:000070d0       ??1?$CTempBuffer@E$0BAA@VCCRTAllocator@ATL@@@ATL@@QAE@XZ 100080d0 f i ElectronicValueRW.obj
 0001:00007110       ??1?$CTempBuffer@_W$0BAA@VCCRTAllocator@ATL@@@ATL@@QAE@XZ 10008110 f i ElectronicValueRW.obj
 0001:00007150       ??1?$CTempBuffer@_W$0EAA@VCCRTAllocator@ATL@@@ATL@@QAE@XZ 10008150 f i ElectronicValueRW.obj
 0001:00007190       ??1CAtlModule@ATL@@UAE@XZ  10008190 f i ElectronicValueRW.obj
 0001:000071c0       ??1CComAutoDeleteCriticalSection@ATL@@QAE@XZ 100081c0 f i ElectronicValueRW.obj
 0001:000071f0       ??1CComClassFactory@ATL@@UAE@XZ 100081f0 f i ElectronicValueRW.obj
 0001:00007220       ??1CComModule@ATL@@UAE@XZ  10008220 f i ElectronicValueRW.obj
 0001:00007250       ??1CComObjectRootBase@ATL@@QAE@XZ 10008250 f i ElectronicValueRW.obj
 0001:00007270       ??1CComSafeDeleteCriticalSection@ATL@@QAE@XZ 10008270 f i ElectronicValueRW.obj
 0001:000072b0       ??1CComVariant@ATL@@QAE@XZ 100082b0 f i ElectronicValueRW.obj
 0001:00007310       ??1CExpansionVector@ATL@@QAE@XZ 10008310 f i ElectronicValueRW.obj
 0001:00007340       ??1CParseBuffer@CRegParser@ATL@@QAE@XZ 10008340 f i ElectronicValueRW.obj
 0001:00007380       ??1CRegKey@ATL@@QAE@XZ     10008380 f i ElectronicValueRW.obj
 0001:000073b0       ??1CRegObject@ATL@@UAE@XZ  100083b0 f i ElectronicValueRW.obj
 0001:000073f0       ??1ModuleLockHelper@ATL@@QAE@XZ 100083f0 f i ElectronicValueRW.obj
 0001:00007430       ??1OposVariant@@QAE@XZ     10008430 f i ElectronicValueRW.obj
 0001:00007460       ??1_ATL_MODULE70@ATL@@QAE@XZ 10008460 f i ElectronicValueRW.obj
 0001:00007490       ??4?$CComPtr@UIAdviseSink@@@ATL@@QAEPAUIAdviseSink@@PAU2@@Z 10008490 f i ElectronicValueRW.obj
 0001:00007500       ??4?$CComPtr@UIOleClientSite@@@ATL@@QAEPAUIOleClientSite@@PAU2@@Z 10008500 f i ElectronicValueRW.obj
 0001:00007570       ??4?$CComPtr@UIUnknown@@@ATL@@QAEPAUIUnknown@@PAU2@@Z 10008570 f i ElectronicValueRW.obj
 0001:000075e0       ??4?$CComQIPtr@UIOleObject@@$1?_GUID_00000112_0000_0000_c000_000000000046@@3U__s_GUID@@B@ATL@@QAEPAUIOleObject@@PAUIUnknown@@@Z 100085e0 f i ElectronicValueRW.obj
 0001:00007630       ??4?$CComQIPtr@UISpecifyPropertyPages@@$1?_GUID_b196b28b_bab4_101a_b69c_00aa00341d07@@3U__s_GUID@@B@ATL@@QAEPAUISpecifyPropertyPages@@PAUIUnknown@@@Z 10008630 f i ElectronicValueRW.obj
 0001:00007680       ??7?$CComPtrBase@UIOleClientSite@@@ATL@@QBE_NXZ 10008680 f i ElectronicValueRW.obj
 0001:000076c0       ??7?$CComPtrBase@UIOleInPlaceSiteWindowless@@@ATL@@QBE_NXZ 100086c0 f i ElectronicValueRW.obj
 0001:00007700       ??7CComBSTR@ATL@@QBE_NXZ   10008700 f i ElectronicValueRW.obj
 0001:00007740       ??8?$CComPtrBase@UIAdviseSink@@@ATL@@QBE_NPAUIAdviseSink@@@Z 10008740 f i ElectronicValueRW.obj
 0001:00007780       ??8?$CComPtrBase@UIConnectionPointContainer@@@ATL@@QBE_NPAUIConnectionPointContainer@@@Z 10008780 f i ElectronicValueRW.obj
 0001:000077c0       ??8?$CComPtrBase@UIDataAdviseHolder@@@ATL@@QBE_NPAUIDataAdviseHolder@@@Z 100087c0 f i ElectronicValueRW.obj
 0001:00007800       ??8?$CComPtrBase@UIOleAdviseHolder@@@ATL@@QBE_NPAUIOleAdviseHolder@@@Z 10008800 f i ElectronicValueRW.obj
 0001:00007840       ??8?$CComPtrBase@UIOleClientSite@@@ATL@@QBE_NPAUIOleClientSite@@@Z 10008840 f i ElectronicValueRW.obj
 0001:00007880       ??8?$CComPtrBase@UIOleControlSite@@@ATL@@QBE_NPAUIOleControlSite@@@Z 10008880 f i ElectronicValueRW.obj
 0001:000078c0       ??8?$CComPtrBase@UIOleInPlaceObject@@@ATL@@QBE_NPAUIOleInPlaceObject@@@Z 100088c0 f i ElectronicValueRW.obj
 0001:00007900       ??8?$CComPtrBase@UIOleInPlaceSiteWindowless@@@ATL@@QBE_NPAUIOleInPlaceSiteWindowless@@@Z 10008900 f i ElectronicValueRW.obj
 0001:00007940       ??8?$CComPtrBase@UIOleObject@@@ATL@@QBE_NPAUIOleObject@@@Z 10008940 f i ElectronicValueRW.obj
 0001:00007980       ??8?$CComPtrBase@UIPersistStream@@@ATL@@QBE_NPAUIPersistStream@@@Z 10008980 f i ElectronicValueRW.obj
 0001:000079c0       ??8?$CComPtrBase@UIPersistStreamInit@@@ATL@@QBE_NPAUIPersistStreamInit@@@Z 100089c0 f i ElectronicValueRW.obj
 0001:00007a00       ??8?$CComPtrBase@UIPointerInactive@@@ATL@@QBE_NPAUIPointerInactive@@@Z 10008a00 f i ElectronicValueRW.obj
 0001:00007a40       ??8?$CComPtrBase@UIUnknown@@@ATL@@QBE_NPAUIUnknown@@@Z 10008a40 f i ElectronicValueRW.obj
 0001:00007a80       ??8?$CComPtrBase@UIViewObjectEx@@@ATL@@QBE_NPAUIViewObjectEx@@@Z 10008a80 f i ElectronicValueRW.obj
 0001:00007ac0       ??8CComBSTR@ATL@@QBE_NH@Z  10008ac0 f i ElectronicValueRW.obj
 0001:00007b20       ??9?$CComPtrBase@UIAdviseSink@@@ATL@@QBE_NPAUIAdviseSink@@@Z 10008b20 f i ElectronicValueRW.obj
 0001:00007b70       ??9?$CComPtrBase@UIConnectionPointContainer@@@ATL@@QBE_NPAUIConnectionPointContainer@@@Z 10008b70 f i ElectronicValueRW.obj
 0001:00007bc0       ??9?$CComPtrBase@UIDataAdviseHolder@@@ATL@@QBE_NPAUIDataAdviseHolder@@@Z 10008bc0 f i ElectronicValueRW.obj
 0001:00007c10       ??9?$CComPtrBase@UIOleAdviseHolder@@@ATL@@QBE_NPAUIOleAdviseHolder@@@Z 10008c10 f i ElectronicValueRW.obj
 0001:00007c60       ??9?$CComPtrBase@UIOleClientSite@@@ATL@@QBE_NPAUIOleClientSite@@@Z 10008c60 f i ElectronicValueRW.obj
 0001:00007cb0       ??9?$CComPtrBase@UIOleControlSite@@@ATL@@QBE_NPAUIOleControlSite@@@Z 10008cb0 f i ElectronicValueRW.obj
 0001:00007d00       ??9?$CComPtrBase@UIOleInPlaceObject@@@ATL@@QBE_NPAUIOleInPlaceObject@@@Z 10008d00 f i ElectronicValueRW.obj
 0001:00007d50       ??9?$CComPtrBase@UIOleInPlaceSiteWindowless@@@ATL@@QBE_NPAUIOleInPlaceSiteWindowless@@@Z 10008d50 f i ElectronicValueRW.obj
 0001:00007da0       ??9?$CComPtrBase@UIOleObject@@@ATL@@QBE_NPAUIOleObject@@@Z 10008da0 f i ElectronicValueRW.obj
 0001:00007df0       ??9?$CComPtrBase@UIPersistStream@@@ATL@@QBE_NPAUIPersistStream@@@Z 10008df0 f i ElectronicValueRW.obj
 0001:00007e40       ??9?$CComPtrBase@UIPersistStreamInit@@@ATL@@QBE_NPAUIPersistStreamInit@@@Z 10008e40 f i ElectronicValueRW.obj
 0001:00007e90       ??9?$CComPtrBase@UIPointerInactive@@@ATL@@QBE_NPAUIPointerInactive@@@Z 10008e90 f i ElectronicValueRW.obj
 0001:00007ee0       ??9?$CComPtrBase@UIUnknown@@@ATL@@QBE_NPAUIUnknown@@@Z 10008ee0 f i ElectronicValueRW.obj
 0001:00007f30       ??9?$CComPtrBase@UIViewObjectEx@@@ATL@@QBE_NPAUIViewObjectEx@@@Z 10008f30 f i ElectronicValueRW.obj
 0001:00007f80       ??9CComBSTR@ATL@@QBE_NH@Z  10008f80 f i ElectronicValueRW.obj
 0001:00007fd0       ??B?$CComPtrBase@UIAdviseSink@@@ATL@@QBEPAUIAdviseSink@@XZ 10008fd0 f i ElectronicValueRW.obj
 0001:00007ff0       ??B?$CComPtrBase@UIDataAdviseHolder@@@ATL@@QBEPAUIDataAdviseHolder@@XZ 10008ff0 f i ElectronicValueRW.obj
 0001:00008010       ??B?$CComPtrBase@UIDataObject@@@ATL@@QBEPAUIDataObject@@XZ 10009010 f i ElectronicValueRW.obj
 0001:00008030       ??B?$CComPtrBase@UIOleAdviseHolder@@@ATL@@QBEPAUIOleAdviseHolder@@XZ 10009030 f i ElectronicValueRW.obj
 0001:00008050       ??B?$CComPtrBase@UIOleClientSite@@@ATL@@QBEPAUIOleClientSite@@XZ 10009050 f i ElectronicValueRW.obj
 0001:00008070       ??B?$CComPtrBase@UIOleControlSite@@@ATL@@QBEPAUIOleControlSite@@XZ 10009070 f i ElectronicValueRW.obj
 0001:00008090       ??B?$CComPtrBase@UIOleInPlaceActiveObject@@@ATL@@QBEPAUIOleInPlaceActiveObject@@XZ 10009090 f i ElectronicValueRW.obj
 0001:000080b0       ??B?$CComPtrBase@UIOleInPlaceFrame@@@ATL@@QBEPAUIOleInPlaceFrame@@XZ 100090b0 f i ElectronicValueRW.obj
 0001:000080d0       ??B?$CComPtrBase@UIOleInPlaceSiteWindowless@@@ATL@@QBEPAUIOleInPlaceSiteWindowless@@XZ 100090d0 f i ElectronicValueRW.obj
 0001:000080f0       ??B?$CComPtrBase@UIOleInPlaceUIWindow@@@ATL@@QBEPAUIOleInPlaceUIWindow@@XZ 100090f0 f i ElectronicValueRW.obj
 0001:00008110       ??B?$CComPtrBase@UIOleObject@@@ATL@@QBEPAUIOleObject@@XZ 10009110 f i ElectronicValueRW.obj
 0001:00008130       ??B?$CComPtrBase@UIPersistStream@@@ATL@@QBEPAUIPersistStream@@XZ 10009130 f i ElectronicValueRW.obj
 0001:00008150       ??B?$CComPtrBase@UIProvideClassInfo2@@@ATL@@QBEPAUIProvideClassInfo2@@XZ 10009150 f i ElectronicValueRW.obj
 0001:00008170       ??B?$CComPtrBase@UISpecifyPropertyPages@@@ATL@@QBEPAUISpecifyPropertyPages@@XZ 10009170 f i ElectronicValueRW.obj
 0001:00008190       ??B?$CComPtrBase@UIStream@@@ATL@@QBEPAUIStream@@XZ 10009190 f i ElectronicValueRW.obj
 0001:000081b0       ??B?$CComPtrBase@UITypeInfo2@@@ATL@@QBEPAUITypeInfo2@@XZ 100091b0 f i ElectronicValueRW.obj
 0001:000081d0       ??B?$CComPtrBase@UITypeInfo@@@ATL@@QBEPAUITypeInfo@@XZ 100091d0 f i ElectronicValueRW.obj
 0001:000081f0       ??B?$CComPtrBase@UITypeLib@@@ATL@@QBEPAUITypeLib@@XZ 100091f0 f i ElectronicValueRW.obj
 0001:00008210       ??B?$CComPtrBase@UIUnknown@@@ATL@@QBEPAUIUnknown@@XZ 10009210 f i ElectronicValueRW.obj
 0001:00008230       ??B?$CTempBuffer@E$0BAA@VCCRTAllocator@ATL@@@ATL@@QBEPAEXZ 10009230 f i ElectronicValueRW.obj
 0001:00008250       ??B?$CTempBuffer@_W$0BAA@VCCRTAllocator@ATL@@@ATL@@QBEPA_WXZ 10009250 f i ElectronicValueRW.obj
 0001:00008270       ??B?$CTempBuffer@_W$0EAA@VCCRTAllocator@ATL@@@ATL@@QBEPA_WXZ 10009270 f i ElectronicValueRW.obj
 0001:00008290       ??B?$CTraceCategoryEx@$00$0A@@ATL@@QAEIXZ 10009290 f i ElectronicValueRW.obj
 0001:000082b0       ??B?$CTraceCategoryEx@$07$0A@@ATL@@QAEIXZ 100092b0 f i ElectronicValueRW.obj
 0001:000082d0       ??B?$CTraceCategoryEx@$0CAAA@$0A@@ATL@@QAEIXZ 100092d0 f i ElectronicValueRW.obj
 0001:000082f0       ??B?$CTraceCategoryEx@$0EA@$0A@@ATL@@QAEIXZ 100092f0 f i ElectronicValueRW.obj
 0001:00008310       ??B?$CTraceCategoryEx@$0IAA@$0A@@ATL@@QAEIXZ 10009310 f i ElectronicValueRW.obj
 0001:00008330       ??BCComBSTR@ATL@@QBEPA_WXZ 10009330 f i ElectronicValueRW.obj
 0001:00008350       ??BCRegKey@ATL@@QBEPAUHKEY__@@XZ 10009350 f i ElectronicValueRW.obj
 0001:00008370       ??C?$CComPtrBase@UIAdviseSink@@@ATL@@QBEPAV?$_NoAddRefReleaseOnCComPtr@UIAdviseSink@@@1@XZ 10009370 f i ElectronicValueRW.obj
 0001:000083c0       ??C?$CComPtrBase@UICatRegister@@@ATL@@QBEPAV?$_NoAddRefReleaseOnCComPtr@UICatRegister@@@1@XZ 100093c0 f i ElectronicValueRW.obj
 0001:00008410       ??C?$CComPtrBase@UIConnectionPoint@@@ATL@@QBEPAV?$_NoAddRefReleaseOnCComPtr@UIConnectionPoint@@@1@XZ 10009410 f i ElectronicValueRW.obj
 0001:00008460       ??C?$CComPtrBase@UIConnectionPointContainer@@@ATL@@QBEPAV?$_NoAddRefReleaseOnCComPtr@UIConnectionPointContainer@@@1@XZ 10009460 f i ElectronicValueRW.obj
 0001:000084b0       ??C?$CComPtrBase@UIDataAdviseHolder@@@ATL@@QBEPAV?$_NoAddRefReleaseOnCComPtr@UIDataAdviseHolder@@@1@XZ 100094b0 f i ElectronicValueRW.obj
 0001:00008500       ??C?$CComPtrBase@UIOleAdviseHolder@@@ATL@@QBEPAV?$_NoAddRefReleaseOnCComPtr@UIOleAdviseHolder@@@1@XZ 10009500 f i ElectronicValueRW.obj
 0001:00008550       ??C?$CComPtrBase@UIOleClientSite@@@ATL@@QBEPAV?$_NoAddRefReleaseOnCComPtr@UIOleClientSite@@@1@XZ 10009550 f i ElectronicValueRW.obj
 0001:000085a0       ??C?$CComPtrBase@UIOleControlSite@@@ATL@@QBEPAV?$_NoAddRefReleaseOnCComPtr@UIOleControlSite@@@1@XZ 100095a0 f i ElectronicValueRW.obj
 0001:000085f0       ??C?$CComPtrBase@UIOleInPlaceFrame@@@ATL@@QBEPAV?$_NoAddRefReleaseOnCComPtr@UIOleInPlaceFrame@@@1@XZ 100095f0 f i ElectronicValueRW.obj
 0001:00008640       ??C?$CComPtrBase@UIOleInPlaceObject@@@ATL@@QBEPAV?$_NoAddRefReleaseOnCComPtr@UIOleInPlaceObject@@@1@XZ 10009640 f i ElectronicValueRW.obj
 0001:00008690       ??C?$CComPtrBase@UIOleInPlaceSiteWindowless@@@ATL@@QBEPAV?$_NoAddRefReleaseOnCComPtr@UIOleInPlaceSiteWindowless@@@1@XZ 10009690 f i ElectronicValueRW.obj
 0001:000086e0       ??C?$CComPtrBase@UIOleInPlaceUIWindow@@@ATL@@QBEPAV?$_NoAddRefReleaseOnCComPtr@UIOleInPlaceUIWindow@@@1@XZ 100096e0 f i ElectronicValueRW.obj
 0001:00008730       ??C?$CComPtrBase@UIOleObject@@@ATL@@QBEPAV?$_NoAddRefReleaseOnCComPtr@UIOleObject@@@1@XZ 10009730 f i ElectronicValueRW.obj
 0001:00008780       ??C?$CComPtrBase@UIPersistStream@@@ATL@@QBEPAV?$_NoAddRefReleaseOnCComPtr@UIPersistStream@@@1@XZ 10009780 f i ElectronicValueRW.obj
 0001:000087d0       ??C?$CComPtrBase@UIPersistStreamInit@@@ATL@@QBEPAV?$_NoAddRefReleaseOnCComPtr@UIPersistStreamInit@@@1@XZ 100097d0 f i ElectronicValueRW.obj
 0001:00008820       ??C?$CComPtrBase@UIPointerInactive@@@ATL@@QBEPAV?$_NoAddRefReleaseOnCComPtr@UIPointerInactive@@@1@XZ 10009820 f i ElectronicValueRW.obj
 0001:00008870       ??C?$CComPtrBase@UIProvideClassInfo2@@@ATL@@QBEPAV?$_NoAddRefReleaseOnCComPtr@UIProvideClassInfo2@@@1@XZ 10009870 f i ElectronicValueRW.obj
 0001:000088c0       ??C?$CComPtrBase@UISpecifyPropertyPages@@@ATL@@QBEPAV?$_NoAddRefReleaseOnCComPtr@UISpecifyPropertyPages@@@1@XZ 100098c0 f i ElectronicValueRW.obj
 0001:00008910       ??C?$CComPtrBase@UITypeInfo@@@ATL@@QBEPAV?$_NoAddRefReleaseOnCComPtr@UITypeInfo@@@1@XZ 10009910 f i ElectronicValueRW.obj
 0001:00008960       ??C?$CComPtrBase@UITypeLib@@@ATL@@QBEPAV?$_NoAddRefReleaseOnCComPtr@UITypeLib@@@1@XZ 10009960 f i ElectronicValueRW.obj
 0001:000089b0       ??C?$CComPtrBase@UIUnknown@@@ATL@@QBEPAV?$_NoAddRefReleaseOnCComPtr@UIUnknown@@@1@XZ 100099b0 f i ElectronicValueRW.obj
 0001:00008a00       ??C?$CComPtrBase@UIViewObjectEx@@@ATL@@QBEPAV?$_NoAddRefReleaseOnCComPtr@UIViewObjectEx@@@1@XZ 10009a00 f i ElectronicValueRW.obj
 0001:00008a50       ??I?$CComPtrBase@UICatRegister@@@ATL@@QAEPAPAUICatRegister@@XZ 10009a50 f i ElectronicValueRW.obj
 0001:00008aa0       ??I?$CComPtrBase@UIConnectionPoint@@@ATL@@QAEPAPAUIConnectionPoint@@XZ 10009aa0 f i ElectronicValueRW.obj
 0001:00008af0       ??I?$CComPtrBase@UIConnectionPointContainer@@@ATL@@QAEPAPAUIConnectionPointContainer@@XZ 10009af0 f i ElectronicValueRW.obj
 0001:00008b40       ??I?$CComPtrBase@UIDataAdviseHolder@@@ATL@@QAEPAPAUIDataAdviseHolder@@XZ 10009b40 f i ElectronicValueRW.obj
 0001:00008b90       ??I?$CComPtrBase@UIDataObject@@@ATL@@QAEPAPAUIDataObject@@XZ 10009b90 f i ElectronicValueRW.obj
 0001:00008be0       ??I?$CComPtrBase@UIDispatch@@@ATL@@QAEPAPAUIDispatch@@XZ 10009be0 f i ElectronicValueRW.obj
 0001:00008c30       ??I?$CComPtrBase@UIOleAdviseHolder@@@ATL@@QAEPAPAUIOleAdviseHolder@@XZ 10009c30 f i ElectronicValueRW.obj
 0001:00008c80       ??I?$CComPtrBase@UIOleControlSite@@@ATL@@QAEPAPAUIOleControlSite@@XZ 10009c80 f i ElectronicValueRW.obj
 0001:00008cd0       ??I?$CComPtrBase@UIOleInPlaceActiveObject@@@ATL@@QAEPAPAUIOleInPlaceActiveObject@@XZ 10009cd0 f i ElectronicValueRW.obj
 0001:00008d20       ??I?$CComPtrBase@UIOleInPlaceFrame@@@ATL@@QAEPAPAUIOleInPlaceFrame@@XZ 10009d20 f i ElectronicValueRW.obj
 0001:00008d70       ??I?$CComPtrBase@UIOleInPlaceObject@@@ATL@@QAEPAPAUIOleInPlaceObject@@XZ 10009d70 f i ElectronicValueRW.obj
 0001:00008dc0       ??I?$CComPtrBase@UIOleInPlaceSiteWindowless@@@ATL@@QAEPAPAUIOleInPlaceSiteWindowless@@XZ 10009dc0 f i ElectronicValueRW.obj
 0001:00008e10       ??I?$CComPtrBase@UIOleInPlaceUIWindow@@@ATL@@QAEPAPAUIOleInPlaceUIWindow@@XZ 10009e10 f i ElectronicValueRW.obj
 0001:00008e60       ??I?$CComPtrBase@UIOleObject@@@ATL@@QAEPAPAUIOleObject@@XZ 10009e60 f i ElectronicValueRW.obj
 0001:00008eb0       ??I?$CComPtrBase@UIPersistStream@@@ATL@@QAEPAPAUIPersistStream@@XZ 10009eb0 f i ElectronicValueRW.obj
 0001:00008f00       ??I?$CComPtrBase@UIPointerInactive@@@ATL@@QAEPAPAUIPointerInactive@@XZ 10009f00 f i ElectronicValueRW.obj
 0001:00008f50       ??I?$CComPtrBase@UIProvideClassInfo2@@@ATL@@QAEPAPAUIProvideClassInfo2@@XZ 10009f50 f i ElectronicValueRW.obj
 0001:00008fa0       ??I?$CComPtrBase@UIStream@@@ATL@@QAEPAPAUIStream@@XZ 10009fa0 f i ElectronicValueRW.obj
 0001:00008ff0       ??I?$CComPtrBase@UITypeInfo2@@@ATL@@QAEPAPAUITypeInfo2@@XZ 10009ff0 f i ElectronicValueRW.obj
 0001:00009040       ??I?$CComPtrBase@UITypeInfo@@@ATL@@QAEPAPAUITypeInfo@@XZ 1000a040 f i ElectronicValueRW.obj
 0001:00009090       ??I?$CComPtrBase@UITypeLib@@@ATL@@QAEPAPAUITypeLib@@XZ 1000a090 f i ElectronicValueRW.obj
 0001:000090e0       ??I?$CComPtrBase@UIUnknown@@@ATL@@QAEPAPAUIUnknown@@XZ 1000a0e0 f i ElectronicValueRW.obj
 0001:00009130       ??I?$CComPtrBase@UIViewObjectEx@@@ATL@@QAEPAPAUIViewObjectEx@@XZ 1000a130 f i ElectronicValueRW.obj
 0001:00009180       ??ICComBSTR@ATL@@QAEPAPA_WXZ 1000a180 f i ElectronicValueRW.obj
 0001:00009195       ??_E?$CComContainedObject@VCOPOSElectronicValueRW@@@ATL@@W3AEPAXI@Z 1000a195 f i ElectronicValueRW.obj
 0001:0000919d       ??_E?$CComContainedObject@VCOPOSElectronicValueRW@@@ATL@@WEM@AEPAXI@Z 1000a19d f i ElectronicValueRW.obj
 0001:000091a5       ??_E?$CComObject@VCOPOSElectronicValueRW@@@ATL@@W3AEPAXI@Z 1000a1a5 f i ElectronicValueRW.obj
 0001:000091ad       ??_E?$CComObject@VCOPOSElectronicValueRW@@@ATL@@WEM@AEPAXI@Z 1000a1ad f i ElectronicValueRW.obj
 0001:000091c0       ??_E?$CComAggObject@VCOPOSElectronicValueRW@@@ATL@@UAEPAXI@Z 1000a1c0 f i ElectronicValueRW.obj
 0001:000091c0       ??_G?$CComAggObject@VCOPOSElectronicValueRW@@@ATL@@UAEPAXI@Z 1000a1c0 f i ElectronicValueRW.obj
 0001:00009210       ??_E?$CComContainedObject@VCOPOSElectronicValueRW@@@ATL@@UAEPAXI@Z 1000a210 f i ElectronicValueRW.obj
 0001:00009210       ??_G?$CComContainedObject@VCOPOSElectronicValueRW@@@ATL@@UAEPAXI@Z 1000a210 f i ElectronicValueRW.obj
 0001:00009260       ??_G?$CComObject@V?$CComEnum@UIEnumConnectionPoints@@$1?_GUID_b196b285_bab4_101a_b69c_00aa00341d07@@3U__s_GUID@@BPAUIConnectionPoint@@V?$_CopyInterface@UIConnectionPoint@@@ATL@@VCComSingleThreadModel@6@@ATL@@@ATL@@UAEPAXI@Z 1000a260 f i ElectronicValueRW.obj
 0001:00009260       ??_E?$CComObject@V?$CComEnum@UIEnumConnectionPoints@@$1?_GUID_b196b285_bab4_101a_b69c_00aa00341d07@@3U__s_GUID@@BPAUIConnectionPoint@@V?$_CopyInterface@UIConnectionPoint@@@ATL@@VCComSingleThreadModel@6@@ATL@@@ATL@@UAEPAXI@Z 1000a260 f i ElectronicValueRW.obj
 0001:000092a0       ??_E?$CComObject@V?$CComEnum@UIEnumConnections@@$1?_GUID_b196b287_bab4_101a_b69c_00aa00341d07@@3U__s_GUID@@BUtagCONNECTDATA@@V?$_Copy@UtagCONNECTDATA@@@ATL@@VCComSingleThreadModel@6@@ATL@@@ATL@@UAEPAXI@Z 1000a2a0 f i ElectronicValueRW.obj
 0001:000092a0       ??_G?$CComObject@V?$CComEnum@UIEnumConnections@@$1?_GUID_b196b287_bab4_101a_b69c_00aa00341d07@@3U__s_GUID@@BUtagCONNECTDATA@@V?$_Copy@UtagCONNECTDATA@@@ATL@@VCComSingleThreadModel@6@@ATL@@@ATL@@UAEPAXI@Z 1000a2a0 f i ElectronicValueRW.obj
 0001:000092e0       ??_E?$CComObject@VCOPOSElectronicValueRW@@@ATL@@UAEPAXI@Z 1000a2e0 f i ElectronicValueRW.obj
 0001:000092e0       ??_G?$CComObject@VCOPOSElectronicValueRW@@@ATL@@UAEPAXI@Z 1000a2e0 f i ElectronicValueRW.obj
 0001:00009330       ??_E?$CComObjectCached@VCComClassFactory@ATL@@@ATL@@UAEPAXI@Z 1000a330 f i ElectronicValueRW.obj
 0001:00009330       ??_G?$CComObjectCached@VCComClassFactory@ATL@@@ATL@@UAEPAXI@Z 1000a330 f i ElectronicValueRW.obj
 0001:00009370       ??_ECComClassFactory@ATL@@UAEPAXI@Z 1000a370 f i ElectronicValueRW.obj
 0001:00009370       ??_GCComClassFactory@ATL@@UAEPAXI@Z 1000a370 f i ElectronicValueRW.obj
 0001:000093b0       ??_GCComModule@ATL@@UAEPAXI@Z 1000a3b0 f i ElectronicValueRW.obj
 0001:000093b0       ??_ECComModule@ATL@@UAEPAXI@Z 1000a3b0 f i ElectronicValueRW.obj
 0001:000093f0       ??_ECRegObject@ATL@@UAEPAXI@Z 1000a3f0 f i ElectronicValueRW.obj
 0001:000093f0       ??_GCRegObject@ATL@@UAEPAXI@Z 1000a3f0 f i ElectronicValueRW.obj
 0001:00009430       ?Add@?$CSimpleArray@GV?$CSimpleArrayEqualHelper@G@ATL@@@ATL@@QAEHABG@Z 1000a430 f i ElectronicValueRW.obj
 0001:00009580       ?Add@?$CSimpleMap@PA_WPA_WVCExpansionVectorEqualHelper@ATL@@@ATL@@QAEHABQA_W0@Z 1000a580 f i ElectronicValueRW.obj
 0001:00009640       ?Add@CComDynamicUnkArray@ATL@@QAEKPAUIUnknown@@@Z 1000a640 f i ElectronicValueRW.obj
 0001:000097e0       ?Add@CExpansionVector@ATL@@QAEHPB_W0@Z 1000a7e0 f i ElectronicValueRW.obj
 0001:00009a70       ?AddChar@CParseBuffer@CRegParser@ATL@@QAEHPB_W@Z 1000aa70 f i ElectronicValueRW.obj
 0001:00009ab0       ?AddCommonRGSReplacements@?$CAtlModuleT@VCComModule@ATL@@@ATL@@UAEJPAUIRegistrarBase@@@Z 1000aab0 f i ElectronicValueRW.obj
 0001:00009b00       ?AddCreateWndData@CAtlWinModule@ATL@@QAEXPAU_AtlCreateWndData@2@PAX@Z 1000ab00 f i ElectronicValueRW.obj
 0001:00009b30       ?AddRef@?$CComAggObject@VCOPOSElectronicValueRW@@@ATL@@UAGKXZ 1000ab30 f i ElectronicValueRW.obj
 0001:00009b50       ?AddRef@?$CComContainedObject@VCOPOSElectronicValueRW@@@ATL@@UAGKXZ 1000ab50 f i ElectronicValueRW.obj
 0001:00009b6c       ?AddRef@?$CComContainedObject@VCOPOSElectronicValueRW@@@ATL@@WHA@AGKXZ 1000ab6c f i ElectronicValueRW.obj
 0001:00009b76       ?AddRef@?$CComContainedObject@VCOPOSElectronicValueRW@@@ATL@@WHE@AGKXZ 1000ab76 f i ElectronicValueRW.obj
 0001:00009b80       ?AddRef@?$CComContainedObject@VCOPOSElectronicValueRW@@@ATL@@WHI@AGKXZ 1000ab80 f i ElectronicValueRW.obj
 0001:00009b8a       ?AddRef@?$CComContainedObject@VCOPOSElectronicValueRW@@@ATL@@WHM@AGKXZ 1000ab8a f i ElectronicValueRW.obj
 0001:00009b94       ?AddRef@?$CComContainedObject@VCOPOSElectronicValueRW@@@ATL@@WIA@AGKXZ 1000ab94 f i ElectronicValueRW.obj
 0001:00009ba1       ?AddRef@?$CComContainedObject@VCOPOSElectronicValueRW@@@ATL@@WIE@AGKXZ 1000aba1 f i ElectronicValueRW.obj
 0001:00009bae       ?AddRef@?$CComContainedObject@VCOPOSElectronicValueRW@@@ATL@@WII@AGKXZ 1000abae f i ElectronicValueRW.obj
 0001:00009bbb       ?AddRef@?$CComContainedObject@VCOPOSElectronicValueRW@@@ATL@@WIM@AGKXZ 1000abbb f i ElectronicValueRW.obj
 0001:00009bc8       ?AddRef@?$CComContainedObject@VCOPOSElectronicValueRW@@@ATL@@WJA@AGKXZ 1000abc8 f i ElectronicValueRW.obj
 0001:00009bd5       ?AddRef@?$CComContainedObject@VCOPOSElectronicValueRW@@@ATL@@WJE@AGKXZ 1000abd5 f i ElectronicValueRW.obj
 0001:00009be2       ?AddRef@?$CComContainedObject@VCOPOSElectronicValueRW@@@ATL@@WJI@AGKXZ 1000abe2 f i ElectronicValueRW.obj
 0001:00009bef       ?AddRef@?$CComContainedObject@VCOPOSElectronicValueRW@@@ATL@@WJM@AGKXZ 1000abef f i ElectronicValueRW.obj
 0001:00009bfc       ?AddRef@?$CComContainedObject@VCOPOSElectronicValueRW@@@ATL@@WKA@AGKXZ 1000abfc f i ElectronicValueRW.obj
 0001:00009c09       ?AddRef@?$CComContainedObject@VCOPOSElectronicValueRW@@@ATL@@WKI@AGKXZ 1000ac09 f i ElectronicValueRW.obj
 0001:00009c16       ?AddRef@?$CComContainedObject@VCOPOSElectronicValueRW@@@ATL@@WLE@AGKXZ 1000ac16 f i ElectronicValueRW.obj
 0001:00009c30       ?AddRef@?$CComObject@V?$CComEnum@UIEnumConnectionPoints@@$1?_GUID_b196b285_bab4_101a_b69c_00aa00341d07@@3U__s_GUID@@BPAUIConnectionPoint@@V?$_CopyInterface@UIConnectionPoint@@@ATL@@VCComSingleThreadModel@6@@ATL@@@ATL@@UAGKXZ 1000ac30 f i ElectronicValueRW.obj
 0001:00009c50       ?AddRef@?$CComObject@V?$CComEnum@UIEnumConnections@@$1?_GUID_b196b287_bab4_101a_b69c_00aa00341d07@@3U__s_GUID@@BUtagCONNECTDATA@@V?$_Copy@UtagCONNECTDATA@@@ATL@@VCComSingleThreadModel@6@@ATL@@@ATL@@UAGKXZ 1000ac50 f i ElectronicValueRW.obj
 0001:00009c70       ?AddRef@?$CComObject@VCOPOSElectronicValueRW@@@ATL@@UAGKXZ 1000ac70 f i ElectronicValueRW.obj
 0001:00009c8c       ?AddRef@?$CComObject@VCOPOSElectronicValueRW@@@ATL@@WHA@AGKXZ 1000ac8c f i ElectronicValueRW.obj
 0001:00009c96       ?AddRef@?$CComObject@VCOPOSElectronicValueRW@@@ATL@@WHE@AGKXZ 1000ac96 f i ElectronicValueRW.obj
 0001:00009ca0       ?AddRef@?$CComObject@VCOPOSElectronicValueRW@@@ATL@@WHI@AGKXZ 1000aca0 f i ElectronicValueRW.obj
 0001:00009caa       ?AddRef@?$CComObject@VCOPOSElectronicValueRW@@@ATL@@WHM@AGKXZ 1000acaa f i ElectronicValueRW.obj
 0001:00009cb4       ?AddRef@?$CComObject@VCOPOSElectronicValueRW@@@ATL@@WIA@AGKXZ 1000acb4 f i ElectronicValueRW.obj
 0001:00009cc1       ?AddRef@?$CComObject@VCOPOSElectronicValueRW@@@ATL@@WIE@AGKXZ 1000acc1 f i ElectronicValueRW.obj
 0001:00009cce       ?AddRef@?$CComObject@VCOPOSElectronicValueRW@@@ATL@@WII@AGKXZ 1000acce f i ElectronicValueRW.obj
 0001:00009cdb       ?AddRef@?$CComObject@VCOPOSElectronicValueRW@@@ATL@@WIM@AGKXZ 1000acdb f i ElectronicValueRW.obj
 0001:00009ce8       ?AddRef@?$CComObject@VCOPOSElectronicValueRW@@@ATL@@WJA@AGKXZ 1000ace8 f i ElectronicValueRW.obj
 0001:00009cf5       ?AddRef@?$CComObject@VCOPOSElectronicValueRW@@@ATL@@WJE@AGKXZ 1000acf5 f i ElectronicValueRW.obj
 0001:00009d02       ?AddRef@?$CComObject@VCOPOSElectronicValueRW@@@ATL@@WJI@AGKXZ 1000ad02 f i ElectronicValueRW.obj
 0001:00009d0f       ?AddRef@?$CComObject@VCOPOSElectronicValueRW@@@ATL@@WJM@AGKXZ 1000ad0f f i ElectronicValueRW.obj
 0001:00009d1c       ?AddRef@?$CComObject@VCOPOSElectronicValueRW@@@ATL@@WKA@AGKXZ 1000ad1c f i ElectronicValueRW.obj
 0001:00009d29       ?AddRef@?$CComObject@VCOPOSElectronicValueRW@@@ATL@@WKI@AGKXZ 1000ad29 f i ElectronicValueRW.obj
 0001:00009d36       ?AddRef@?$CComObject@VCOPOSElectronicValueRW@@@ATL@@WLE@AGKXZ 1000ad36 f i ElectronicValueRW.obj
 0001:00009d50       ?AddRef@?$CComObjectCached@VCComClassFactory@ATL@@@ATL@@UAGKXZ 1000ad50 f i ElectronicValueRW.obj
 0001:00009da0       ?AddRef@CRegObject@ATL@@UAGKXZ 1000ada0 f i ElectronicValueRW.obj
 0001:00009df0       ?AddReplacement@CRegObject@ATL@@UAGJPB_W0@Z 1000adf0 f i ElectronicValueRW.obj
 0001:00009f00       ?AddString@CParseBuffer@CRegParser@ATL@@QAEHPB_W@Z 1000af00 f i ElectronicValueRW.obj
 0001:00009ff0       ?AddTermFunc@CAtlModule@ATL@@QAEJP6GXK@ZK@Z 1000aff0 f i ElectronicValueRW.obj
 0001:0000a040       ?AddValue@CRegParser@ATL@@IAEJAAVCRegKey@2@PB_WPA_W@Z 1000b040 f i ElectronicValueRW.obj
 0001:0000a7d0       ?Advise@?$CProxy_IOPOSEvents@VCOPOSElectronicValueRW@@@@UAGJPAUIUnknown@@PAK@Z 1000b7d0 f i ElectronicValueRW.obj
 0001:0000a820       ?Advise@?$IConnectionPointImpl@VCOPOSElectronicValueRW@@$1?DIID__IOPOSElectronicValueRWEvents@@3U_GUID@@BVCComDynamicUnkArray@ATL@@@ATL@@UAGJPAUIUnknown@@PAK@Z 1000b820 f i ElectronicValueRW.obj
 0001:0000a9c0       ?Advise@?$IConnectionPointImpl@VCOPOSElectronicValueRW@@$1?IID_IPropertyNotifySink@@3U_GUID@@BVCComDynamicUnkArray@ATL@@@ATL@@UAGJPAUIUnknown@@PAK@Z 1000b9c0 f i ElectronicValueRW.obj
 0001:0000ab60       ?Advise@?$IOleObjectImpl@VCOPOSElectronicValueRW@@@ATL@@UAGJPAUIAdviseSink@@PAK@Z 1000bb60 f i ElectronicValueRW.obj
 0001:0000abf0       ?Allocate@?$CAtlSafeAllocBufferManager@VCCRTAllocator@ATL@@@_ATL_SAFE_ALLOCA_IMPL@ATL@@QAEPAXK@Z 1000bbf0 f i ElectronicValueRW.obj
 0001:0000ac60       ?Allocate@?$CTempBuffer@E$0BAA@VCCRTAllocator@ATL@@@ATL@@QAEPAEI@Z 1000bc60 f i ElectronicValueRW.obj
 0001:0000aca0       ?Allocate@?$CTempBuffer@_W$0BAA@VCCRTAllocator@ATL@@@ATL@@QAEPA_WI@Z 1000bca0 f i ElectronicValueRW.obj
 0001:0000ace0       ?Allocate@?$CTempBuffer@_W$0EAA@VCCRTAllocator@ATL@@@ATL@@QAEPA_WI@Z 1000bce0 f i ElectronicValueRW.obj
 0001:0000ad20       ?AllocateBytes@?$CTempBuffer@E$0BAA@VCCRTAllocator@ATL@@@ATL@@QAEPAEI@Z 1000bd20 f i ElectronicValueRW.obj
 0001:0000ada0       ?AllocateBytes@?$CTempBuffer@_W$0BAA@VCCRTAllocator@ATL@@@ATL@@QAEPA_WI@Z 1000bda0 f i ElectronicValueRW.obj
 0001:0000ae20       ?AllocateBytes@?$CTempBuffer@_W$0EAA@VCCRTAllocator@ATL@@@ATL@@QAEPA_WI@Z 1000be20 f i ElectronicValueRW.obj
 0001:0000aea0       ?AllocateHeap@?$CTempBuffer@E$0BAA@VCCRTAllocator@ATL@@@ATL@@AAEXI@Z 1000bea0 f i ElectronicValueRW.obj
 0001:0000aef0       ?AllocateHeap@?$CTempBuffer@_W$0BAA@VCCRTAllocator@ATL@@@ATL@@AAEXI@Z 1000bef0 f i ElectronicValueRW.obj
 0001:0000af40       ?AllocateHeap@?$CTempBuffer@_W$0EAA@VCCRTAllocator@ATL@@@ATL@@AAEXI@Z 1000bf40 f i ElectronicValueRW.obj
 0001:0000af90       ?Append@CParseBuffer@CRegParser@ATL@@QAEHPB_WH@Z 1000bf90 f i ElectronicValueRW.obj
 0001:0000b130       ?AtlCallTermFunc@ATL@@YGXPAU_ATL_MODULE70@1@@Z 1000c130 f i ElectronicValueRW.obj
 0001:0000b1d0       ?AtlCoTaskMemCAlloc@ATL@@YAPAXKK@Z 1000c1d0 f i ElectronicValueRW.obj
 0001:0000b260       ?AtlCoTaskMemRecalloc@ATL@@YAPAXPAXKK@Z 1000c260 f i ElectronicValueRW.obj
 0001:0000b300       ?AtlComModuleGetClassObject@ATL@@YGJPAU_ATL_COM_MODULE70@1@ABU_GUID@@1PAPAX@Z 1000c300 f i ElectronicValueRW.obj
 0001:0000b590       ?AtlComModuleRegisterServer@ATL@@YGJPAU_ATL_COM_MODULE70@1@HPBU_GUID@@@Z 1000c590 f i ElectronicValueRW.obj
 0001:0000b720       ?AtlComModuleUnregisterServer@ATL@@YGJPAU_ATL_COM_MODULE70@1@HPBU_GUID@@@Z 1000c720 f i ElectronicValueRW.obj
 0001:0000b850       ?AtlComQIPtrAssign2@ATL@@YAXPAPAUIUnknown@@PAU2@ABU_GUID@@@Z 1000c850 f i ElectronicValueRW.obj
 0001:0000b8d0       ?AtlCreateTargetDC@ATL@@YGPAUHDC__@@PAU2@PAUtagDVTARGETDEVICE@@@Z 1000c8d0 f i ElectronicValueRW.obj
 0001:0000ba70       ?AtlCrtErrorCheck@ATL@@YAHH@Z 1000ca70 f i ElectronicValueRW.obj
 0001:0000bb40       ?AtlGetPerUserRegistration@ATL@@YGJPA_N@Z 1000cb40 f i ElectronicValueRW.obj
 0001:0000bb70       ?AtlHiMetricToPixel@ATL@@YGXPBUtagSIZE@@PAU2@@Z 1000cb70 f i ElectronicValueRW.obj
 0001:0000bd40       ?AtlHresultFromLastError@ATL@@YAJXZ 1000cd40 f i ElectronicValueRW.obj
 0001:0000bd80       ?AtlHresultFromWin32@ATL@@YAJK@Z 1000cd80 f i ElectronicValueRW.obj
 0001:0000bda0       ?AtlIPersistStreamInit_Load@ATL@@YGJPAUIStream@@PBUATL_PROPMAP_ENTRY@1@PAXPAUIUnknown@@@Z 1000cda0 f i ElectronicValueRW.obj
 0001:0000c200       ?AtlIPersistStreamInit_Save@ATL@@YGJPAUIStream@@HPBUATL_PROPMAP_ENTRY@1@PAXPAUIUnknown@@@Z 1000d200 f i ElectronicValueRW.obj
 0001:0000c5e0       ?AtlInternalOleLoadFromStream@ATL@@YAJPAUIStream@@ABU_GUID@@PAPAXTClassesAllowedInStream@1@K@Z 1000d5e0 f i ElectronicValueRW.obj
 0001:0000c880       ?AtlInternalQueryInterface@ATL@@YGJPAXPBU_ATL_INTMAP_ENTRY@1@ABU_GUID@@PAPAX@Z 1000d880 f i ElectronicValueRW.obj
 0001:0000cab0       ?AtlLoadTypeLib@ATL@@YGJPAUHINSTANCE__@@PB_WPAPA_WPAPAUITypeLib@@@Z 1000dab0 f i ElectronicValueRW.obj
 0001:0000cf10       ?AtlModuleAddTermFunc@ATL@@YGJPAU_ATL_MODULE70@1@P6GXK@ZK@Z 1000df10 f i ElectronicValueRW.obj
 0001:0000d070       ?AtlRegisterClassCategoriesHelper@ATL@@YGJABU_GUID@@PBU_ATL_CATMAP_ENTRY@1@H@Z 1000e070 f i ElectronicValueRW.obj
 0001:0000d750       ?AtlRegisterTypeLib@ATL@@YGJPAUHINSTANCE__@@PB_W@Z 1000e750 f i ElectronicValueRW.obj
 0001:0000da90       ?AtlThrowImpl@ATL@@YGXJ@Z  1000ea90 f i ElectronicValueRW.obj
 0001:0000db40       ?AtlUnRegisterTypeLib@ATL@@YGJPAUHINSTANCE__@@PB_W@Z 1000eb40 f i ElectronicValueRW.obj
 0001:0000dd50       ?AtlWinModuleAddCreateWndData@ATL@@YGXPAU_ATL_WIN_MODULE70@1@PAU_AtlCreateWndData@1@PAX@Z 1000ed50 f i ElectronicValueRW.obj
 0001:0000dec0       ?AtlWinModuleExtractCreateWndData@ATL@@YGPAXPAU_ATL_WIN_MODULE70@1@@Z 1000eec0 f i ElectronicValueRW.obj
 0001:0000e040       ?AtlWinModuleRegisterClassExW@ATL@@YGGPAU_ATL_WIN_MODULE70@1@PBUtagWNDCLASSEXW@@@Z 1000f040 f i ElectronicValueRW.obj
 0001:0000e110       ?AtlWinModuleRegisterWndClassInfoW@ATL@@YGGPAU_ATL_WIN_MODULE70@1@PAU_ATL_BASE_MODULE70@1@PAU_ATL_WNDCLASSINFOW@1@PAP6GJPAUHWND__@@IIJ@Z@Z 1000f110 f i ElectronicValueRW.obj
 0001:0000e1a0       ?Attach@?$CAutoVectorPtr@_W@ATL@@QAEXPA_W@Z 1000f1a0 f i ElectronicValueRW.obj
 0001:0000e200       ?Attach@CComBSTR@ATL@@QAEXPA_W@Z 1000f200 f i ElectronicValueRW.obj
 0001:0000e250       ?Attach@CRegKey@ATL@@QAEXPAUHKEY__@@@Z 1000f250 f i ElectronicValueRW.obj
 0001:0000e2c0       ?CanForceRemoveKey@CRegParser@ATL@@IAEHPB_W@Z 1000f2c0 f i ElectronicValueRW.obj
 0001:0000e330       ?ChToByte@CRegParser@ATL@@KAE_W@Z 1000f330 f i ElectronicValueRW.obj
 0001:0000e450       ?ChangeType@CComVariant@ATL@@QAEJGPBUtagVARIANT@@@Z 1000f450 f i ElectronicValueRW.obj
 0001:0000e4b0       ?Cleanup@CComTypeInfoHolder@ATL@@SGXK@Z 1000f4b0 f i ElectronicValueRW.obj
 0001:0000e580       ?Clear@CComVariant@ATL@@QAEJXZ 1000f580 f i ElectronicValueRW.obj
 0001:0000e5c0       ?ClearReplacements@CExpansionVector@ATL@@QAEJXZ 1000f5c0 f i ElectronicValueRW.obj
 0001:0000e650       ?ClearReplacements@CRegObject@ATL@@UAGJXZ 1000f650 f i ElectronicValueRW.obj
 0001:0000e6a0       ?Clone@?$CComEnumImpl@UIEnumConnectionPoints@@$1?_GUID_b196b285_bab4_101a_b69c_00aa00341d07@@3U__s_GUID@@BPAUIConnectionPoint@@V?$_CopyInterface@UIConnectionPoint@@@ATL@@@ATL@@UAGJPAPAUIEnumConnectionPoints@@@Z 1000f6a0 f i ElectronicValueRW.obj
 0001:0000e810       ?Clone@?$CComEnumImpl@UIEnumConnections@@$1?_GUID_b196b287_bab4_101a_b69c_00aa00341d07@@3U__s_GUID@@BUtagCONNECTDATA@@V?$_Copy@UtagCONNECTDATA@@@ATL@@@ATL@@UAGJPAPAUIEnumConnections@@@Z 1000f810 f i ElectronicValueRW.obj
 0001:0000e980       ?Close@?$IOleObjectImpl@VCOPOSElectronicValueRW@@@ATL@@UAGJK@Z 1000f980 f i ElectronicValueRW.obj
 0001:0000ea10       ?Close@CRegKey@ATL@@QAEJXZ 1000fa10 f i ElectronicValueRW.obj
 0001:0000ea80       ?ContextSensitiveHelp@?$IOleInPlaceActiveObjectImpl@VCOPOSElectronicValueRW@@@ATL@@UAGJH@Z 1000fa80 f i ElectronicValueRW.obj
 0001:0000eaf0       ?ContextSensitiveHelp@?$IOleInPlaceObjectWindowlessImpl@VCOPOSElectronicValueRW@@@ATL@@UAGJH@Z 1000faf0 f i ElectronicValueRW.obj
 0001:0000eb60       ?ControlQueryInterface@?$CComControl@VCOPOSElectronicValueRW@@V?$CWindowImpl@VCOPOSElectronicValueRW@@VCWindow@ATL@@V?$CWinTraits@$0FGAAAAAA@$0A@@3@@ATL@@@ATL@@UAEJABU_GUID@@PAPAX@Z 1000fb60 f i ElectronicValueRW.obj
 0001:0000ebe0       ?CreateControlWindow@?$CComControl@VCOPOSElectronicValueRW@@V?$CWindowImpl@VCOPOSElectronicValueRW@@VCWindow@ATL@@V?$CWinTraits@$0FGAAAAAA@$0A@@3@@ATL@@@ATL@@UAEPAUHWND__@@PAU3@AAUtagRECT@@@Z 1000fbe0 f i ElectronicValueRW.obj
 0001:0000ec60       ?CreateInstance@?$CComCreator@V?$CComAggObject@VCOPOSElectronicValueRW@@@ATL@@@ATL@@SGJPAXABU_GUID@@PAPAX@Z 1000fc60 f i ElectronicValueRW.obj
 0001:0000ede0       ?CreateInstance@?$CComCreator@V?$CComObject@VCOPOSElectronicValueRW@@@ATL@@@ATL@@SGJPAXABU_GUID@@PAPAX@Z 1000fde0 f i ElectronicValueRW.obj
 0001:0000ef70       ?CreateInstance@?$CComObject@V?$CComEnum@UIEnumConnectionPoints@@$1?_GUID_b196b285_bab4_101a_b69c_00aa00341d07@@3U__s_GUID@@BPAUIConnectionPoint@@V?$_CopyInterface@UIConnectionPoint@@@ATL@@VCComSingleThreadModel@6@@ATL@@@ATL@@SGJPAPAV12@@Z 1000ff70 f i ElectronicValueRW.obj
 0001:0000f0e0       ?CreateInstance@?$CComObject@V?$CComEnum@UIEnumConnections@@$1?_GUID_b196b287_bab4_101a_b69c_00aa00341d07@@3U__s_GUID@@BUtagCONNECTDATA@@V?$_Copy@UtagCONNECTDATA@@@ATL@@VCComSingleThreadModel@6@@ATL@@@ATL@@SGJPAPAV12@@Z 100100e0 f i ElectronicValueRW.obj
 0001:0000f250       ?CreateInstance@CComClassFactory@ATL@@UAGJPAUIUnknown@@ABU_GUID@@PAPAX@Z 10010250 f i ElectronicValueRW.obj
 0001:0000f340       ?DAdvise@?$IDataObjectImpl@VCOPOSElectronicValueRW@@@ATL@@UAGJPAUtagFORMATETC@@KPAUIAdviseSink@@PAK@Z 10010340 f i ElectronicValueRW.obj
 0001:0000f440       ?DEVMODEOLE2T_EX@@YAPAU_devicemodeW@@PAU1@@Z 10010440 f i ElectronicValueRW.obj
 0001:0000f450       ?DUnadvise@?$IDataObjectImpl@VCOPOSElectronicValueRW@@@ATL@@UAGJK@Z 10010450 f i ElectronicValueRW.obj
 0001:0000f520       ?Decrement@CComMultiThreadModel@ATL@@SGKPAJ@Z 10010520 f i ElectronicValueRW.obj
 0001:0000f540       ?Decrement@CComSingleThreadModel@ATL@@SGKPAJ@Z 10010540 f i ElectronicValueRW.obj
 0001:0000f560       ?DefWindowProcW@?$CWindowImplBaseT@VCWindow@ATL@@V?$CWinTraits@$0FGAAAAAA@$0A@@2@@ATL@@QAEJIIJ@Z 10010560 f i ElectronicValueRW.obj
 0001:0000f5b0       ?DefaultReflectionHandler@?$CWindowImplRoot@VCWindow@ATL@@@ATL@@SAHPAUHWND__@@IIJAAJ@Z 100105b0 f i ElectronicValueRW.obj
 0001:0000f7a0       ?DeleteSubKey@CRegKey@ATL@@QAEJPB_W@Z 100107a0 f i ElectronicValueRW.obj
 0001:0000f8b0       ?DeleteValue@CRegKey@ATL@@QAEJPB_W@Z 100108b0 f i ElectronicValueRW.obj
 0001:0000f920       ?Detach@?$CAutoVectorPtr@_W@ATL@@QAEPA_WXZ 10010920 f i ElectronicValueRW.obj
 0001:0000f950       ?Detach@?$CComPtrBase@UIPersistStream@@@ATL@@QAEPAUIPersistStream@@XZ 10010950 f i ElectronicValueRW.obj
 0001:0000f980       ?Detach@?$CComPtrBase@UITypeInfo@@@ATL@@QAEPAUITypeInfo@@XZ 10010980 f i ElectronicValueRW.obj
 0001:0000f9b0       ?Detach@?$CComPtrBase@UIUnknown@@@ATL@@QAEPAUIUnknown@@XZ 100109b0 f i ElectronicValueRW.obj
 0001:0000f9e0       ?Detach@CComBSTR@ATL@@QAEPA_WXZ 100109e0 f i ElectronicValueRW.obj
 0001:0000fa10       ?Detach@CParseBuffer@CRegParser@ATL@@QAEPA_WXZ 10010a10 f i ElectronicValueRW.obj
 0001:0000fa60       ?Detach@CRegKey@ATL@@QAEPAUHKEY__@@XZ 10010a60 f i ElectronicValueRW.obj
 0001:0000fab0       ?DoEvent@COPOSElectronicValueRW@@IAEXIIJ@Z 10010ab0 f i ElectronicValueRW.obj
 0001:0000fbf0       ?DoVerb@?$IOleObjectImpl@VCOPOSElectronicValueRW@@@ATL@@UAGJJPAUtagMSG@@PAUIOleClientSite@@JPAUHWND__@@PBUtagRECT@@@Z 10010bf0 f i ElectronicValueRW.obj
 0001:0000fe00       ?DoVerbDiscardUndo@?$IOleObjectImpl@VCOPOSElectronicValueRW@@@ATL@@QAEJPBUtagRECT@@PAUHWND__@@@Z 10010e00 f i ElectronicValueRW.obj
 0001:0000fe70       ?DoVerbHide@?$IOleObjectImpl@VCOPOSElectronicValueRW@@@ATL@@QAEJPBUtagRECT@@PAUHWND__@@@Z 10010e70 f i ElectronicValueRW.obj
 0001:0000ff20       ?DoVerbInPlaceActivate@?$IOleObjectImpl@VCOPOSElectronicValueRW@@@ATL@@QAEJPBUtagRECT@@PAUHWND__@@@Z 10010f20 f i ElectronicValueRW.obj
 0001:0000ffc0       ?DoVerbOpen@?$IOleObjectImpl@VCOPOSElectronicValueRW@@@ATL@@QAEJPBUtagRECT@@PAUHWND__@@@Z 10010fc0 f i ElectronicValueRW.obj
 0001:00010030       ?DoVerbPrimary@?$IOleObjectImpl@VCOPOSElectronicValueRW@@@ATL@@QAEJPBUtagRECT@@PAUHWND__@@@Z 10011030 f i ElectronicValueRW.obj
 0001:00010140       ?DoVerbProperties@CComControlBase@ATL@@QAEJPBUtagRECT@@PAUHWND__@@@Z 10011140 f i ElectronicValueRW.obj
 0001:00010460       ?DoVerbShow@?$IOleObjectImpl@VCOPOSElectronicValueRW@@@ATL@@QAEJPBUtagRECT@@PAUHWND__@@@Z 10011460 f i ElectronicValueRW.obj
 0001:000104f0       ?DoVerbUIActivate@?$IOleObjectImpl@VCOPOSElectronicValueRW@@@ATL@@QAEJPBUtagRECT@@PAUHWND__@@@Z 100114f0 f i ElectronicValueRW.obj
 0001:00010590       ?DoesVerbActivate@CComControlBase@ATL@@QAEHJ@Z 10011590 f i ElectronicValueRW.obj
 0001:00010600       ?DoesVerbUIActivate@CComControlBase@ATL@@QAEHJ@Z 10011600 f i ElectronicValueRW.obj
 0001:00010680       ?Draw@?$IViewObjectExImpl@VCOPOSElectronicValueRW@@@ATL@@UAGJKJPAXPAUtagDVTARGETDEVICE@@PAUHDC__@@2PBU_RECTL@@3P6GHK@ZK@Z 10011680 f i ElectronicValueRW.obj
 0001:00010720       ?Empty@CComBSTR@ATL@@QAEXXZ 10011720 f i ElectronicValueRW.obj
 0001:00010760       ?EnableModeless@?$IOleInPlaceActiveObjectImpl@VCOPOSElectronicValueRW@@@ATL@@UAGJH@Z 10011760 f i ElectronicValueRW.obj
 0001:000107c0       ?EndOfVar@CRegParser@ATL@@IAEHXZ 100117c0 f i ElectronicValueRW.obj
 0001:00010830       ?EnsureTI@CComTypeInfoHolder@ATL@@QAEJK@Z 10011830 f i ElectronicValueRW.obj
 0001:00010890       ?EnumAdvise@?$IOleObjectImpl@VCOPOSElectronicValueRW@@@ATL@@UAGJPAPAUIEnumSTATDATA@@@Z 10011890 f i ElectronicValueRW.obj
 0001:000109a0       ?EnumConnectionPoints@?$IConnectionPointContainerImpl@VCOPOSElectronicValueRW@@@ATL@@UAGJPAPAUIEnumConnectionPoints@@@Z 100119a0 f i ElectronicValueRW.obj
 0001:00010dd0       ?EnumConnections@?$IConnectionPointImpl@VCOPOSElectronicValueRW@@$1?DIID__IOPOSElectronicValueRWEvents@@3U_GUID@@BVCComDynamicUnkArray@ATL@@@ATL@@UAGJPAPAUIEnumConnections@@@Z 10011dd0 f i ElectronicValueRW.obj
 0001:00011020       ?EnumConnections@?$IConnectionPointImpl@VCOPOSElectronicValueRW@@$1?IID_IPropertyNotifySink@@3U_GUID@@BVCComDynamicUnkArray@ATL@@@ATL@@UAGJPAPAUIEnumConnections@@@Z 10012020 f i ElectronicValueRW.obj
 0001:00011270       ?EnumDAdvise@?$IDataObjectImpl@VCOPOSElectronicValueRW@@@ATL@@UAGJPAPAUIEnumSTATDATA@@@Z 10012270 f i ElectronicValueRW.obj
 0001:00011370       ?EnumFormatEtc@?$IDataObjectImpl@VCOPOSElectronicValueRW@@@ATL@@UAGJKPAPAUIEnumFORMATETC@@@Z 10012370 f i ElectronicValueRW.obj
 0001:000113e0       ?EnumVerbs@?$IOleObjectImpl@VCOPOSElectronicValueRW@@@ATL@@UAGJPAPAUIEnumOLEVERB@@@Z 100123e0 f i ElectronicValueRW.obj
 0001:00011490       ?EscapeSingleQuote@CAtlModule@ATL@@SAXPA_WIPB_W@Z 10012490 f i ElectronicValueRW.obj
 0001:00011540       ?ExtractCreateWndData@CAtlWinModule@ATL@@QAEPAXXZ 10012540 f i ElectronicValueRW.obj
 0001:00011570       ?FAccessAllowed@?$IObjectSafetyImpl@VCOPOSElectronicValueRW@@$02@ATL@@MAEHXZ 10012570 f i ElectronicValueRW.obj
 0001:00011590       ?FinalConstruct@?$CComAggObject@VCOPOSElectronicValueRW@@@ATL@@QAEJXZ 10012590 f i ElectronicValueRW.obj
 0001:000115d0       ?FinalConstruct@CComObjectRootBase@ATL@@QAEJXZ 100125d0 f i ElectronicValueRW.obj
 0001:000115f0       ?FinalConstruct@CRegObject@ATL@@QAEJXZ 100125f0 f i ElectronicValueRW.obj
 0001:00011620       ?FinalRelease@?$CComAggObject@VCOPOSElectronicValueRW@@@ATL@@QAEXXZ 10012620 f i ElectronicValueRW.obj
 0001:00011660       ?FinalRelease@CComObjectRootBase@ATL@@QAEXXZ 10012660 f i ElectronicValueRW.obj
 0001:00011680       ?FindConnectionPoint@?$IConnectionPointContainerImpl@VCOPOSElectronicValueRW@@@ATL@@UAGJABU_GUID@@PAPAUIConnectionPoint@@@Z 10012680 f i ElectronicValueRW.obj
 0001:000117d0       ?FindKey@?$CSimpleMap@PA_WPA_WVCExpansionVectorEqualHelper@ATL@@@ATL@@QBEHABQA_W@Z 100127d0 f i ElectronicValueRW.obj
 0001:00011840       ?FireTheEvent@?$CProxy_IOPOSEvents@VCOPOSElectronicValueRW@@@@IAEXPAUIUnknown@@PAVOposVariant@@IAAJPB_WJ@Z 10012840 f i ElectronicValueRW.obj
 0001:000119b0       ?FireViewChange@CComControlBase@ATL@@QAEJXZ 100129b0 f i ElectronicValueRW.obj
 0001:00011a70       ?Fire_DataEvent@?$CProxy_IOPOSEvents@VCOPOSElectronicValueRW@@@@QAEXJ@Z 10012a70 f i ElectronicValueRW.obj
 0001:00011bd0       ?Fire_DirectIOEvent@?$CProxy_IOPOSEvents@VCOPOSElectronicValueRW@@@@QAEXJPAJPAPA_W@Z 10012bd0 f i ElectronicValueRW.obj
 0001:00011da0       ?Fire_ErrorEvent@?$CProxy_IOPOSEvents@VCOPOSElectronicValueRW@@@@QAEXJJJPAJ@Z 10012da0 f i ElectronicValueRW.obj
 0001:00011f90       ?Fire_OutputCompleteEvent@?$CProxy_IOPOSEvents@VCOPOSElectronicValueRW@@@@QAEXJ@Z 10012f90 f i ElectronicValueRW.obj
 0001:000120f0       ?Fire_StatusUpdateEvent@?$CProxy_IOPOSEvents@VCOPOSElectronicValueRW@@@@QAEXJ@Z 100130f0 f i ElectronicValueRW.obj
 0001:00012250       ?Fire_TransitionEvent@?$CProxy_IOPOSEvents@VCOPOSElectronicValueRW@@@@QAEXJPAJPAPA_W@Z 10013250 f i ElectronicValueRW.obj
 0001:00012420       ?FormatWindowClassName@AtlModuleRegisterWndClassInfoParamW@ATL@@SAXPA_WKPAX@Z 10013420 f i ElectronicValueRW.obj
 0001:00012450       ?Free@?$CAutoVectorPtr@_W@ATL@@QAEXXZ 10013450 f i ElectronicValueRW.obj
 0001:000124a0       ?FreeHeap@?$CTempBuffer@E$0BAA@VCCRTAllocator@ATL@@@ATL@@AAEXXZ 100134a0 f i ElectronicValueRW.obj
 0001:000124d0       ?FreeHeap@?$CTempBuffer@_W$0BAA@VCCRTAllocator@ATL@@@ATL@@AAEXXZ 100134d0 f i ElectronicValueRW.obj
 0001:00012500       ?FreeHeap@?$CTempBuffer@_W$0EAA@VCCRTAllocator@ATL@@@ATL@@AAEXXZ 10013500 f i ElectronicValueRW.obj
 0001:00012530       ?Freeze@?$IViewObjectExImpl@VCOPOSElectronicValueRW@@@ATL@@UAGJKJPAXPAK@Z 10013530 f i ElectronicValueRW.obj
 0001:000125a0       ?GenerateError@CRegParser@ATL@@IAEJI@Z 100135a0 f i ElectronicValueRW.obj
 0001:000125c0       ?GetAdvise@?$IViewObjectExImpl@VCOPOSElectronicValueRW@@@ATL@@UAGJPAK0PAPAUIAdviseSink@@@Z 100135c0 f i ElectronicValueRW.obj
 0001:000126c0       ?GetAmbientLocaleID@CComControlBase@ATL@@QAEJAAK@Z 100136c0 f i ElectronicValueRW.obj
 0001:000127a0       ?GetAmbientProperty@CComControlBase@ATL@@QAEJJAAUtagVARIANT@@@Z 100137a0 f i ElectronicValueRW.obj
 0001:000127f0       ?GetAmbientUserMode@CComControlBase@ATL@@QAEJAAH@Z 100137f0 f i ElectronicValueRW.obj
 0001:000128f0       ?GetAppId@?$CAtlModuleT@VCComModule@ATL@@@ATL@@SAPB_WXZ 100138f0 f i ElectronicValueRW.obj
 0001:00012900       ?GetAt@CComDynamicUnkArray@ATL@@QAEPAUIUnknown@@H@Z 10013900 f i ElectronicValueRW.obj
 0001:00012980       ?GetCanonicalFormatEtc@?$IDataObjectImpl@VCOPOSElectronicValueRW@@@ATL@@UAGJPAUtagFORMATETC@@0@Z 10013980 f i ElectronicValueRW.obj
 0001:000129f0       ?GetClassID@?$IPersistStorageImpl@VCOPOSElectronicValueRW@@@ATL@@UAGJPAU_GUID@@@Z 100139f0 f i ElectronicValueRW.obj
 0001:00012a70       ?GetClassID@?$IPersistStreamInitImpl@VCOPOSElectronicValueRW@@@ATL@@UAGJPAU_GUID@@@Z 10013a70 f i ElectronicValueRW.obj
 0001:00012af0       ?GetClassInfoExW@AtlModuleRegisterWndClassInfoParamW@ATL@@SAHPAUHINSTANCE__@@PB_WPAUtagWNDCLASSEXW@@@Z 10013af0 f i ElectronicValueRW.obj
 0001:00012b20       ?GetClassInfoW@?$IProvideClassInfo2Impl@$1?CLSID_OPOSElectronicValueRW@@3U_GUID@@B$1?DIID__IOPOSElectronicValueRWEvents@@3U2@B$1?LIBID_OposElectronicValueRW_CCO@@3U2@B$00$0A@VCComTypeInfoHolder@ATL@@@ATL@@UAGJPAPAUITypeInfo@@@Z 10013b20 f i ElectronicValueRW.obj
 0001:00012b40       ?GetClassObject@CComModule@ATL@@QAEJABU_GUID@@0PAPAX@Z 10013b40 f i ElectronicValueRW.obj
 0001:00012d40       ?GetClientSite@?$IOleObjectImpl@VCOPOSElectronicValueRW@@@ATL@@UAGJPAPAUIOleClientSite@@@Z 10013d40 f i ElectronicValueRW.obj
 0001:00012dd0       ?GetClipboardData@?$IOleObjectImpl@VCOPOSElectronicValueRW@@@ATL@@UAGJKPAPAUIDataObject@@@Z 10013dd0 f i ElectronicValueRW.obj
 0001:00012e40       ?GetCodeAddress@CDynamicStdCallThunk2@ATL@@QAEPAXXZ 10013e40 f i ElectronicValueRW.obj
 0001:00012e70       ?GetColorSet@?$IViewObjectExImpl@VCOPOSElectronicValueRW@@@ATL@@UAGJKJPAXPAUtagDVTARGETDEVICE@@PAUHDC__@@PAPAUtagLOGPALETTE@@@Z 10013e70 f i ElectronicValueRW.obj
 0001:00012ee0       ?GetConnMap@COPOSElectronicValueRW@@SAPBU_ATL_CONNMAP_ENTRY@ATL@@PAH@Z 10013ee0 f i ElectronicValueRW.obj
 0001:00013020       ?GetConnectionInterface@?$IConnectionPointImpl@VCOPOSElectronicValueRW@@$1?DIID__IOPOSElectronicValueRWEvents@@3U_GUID@@BVCComDynamicUnkArray@ATL@@@ATL@@UAGJPAU_GUID@@@Z 10014020 f i ElectronicValueRW.obj
 0001:00013060       ?GetConnectionInterface@?$IConnectionPointImpl@VCOPOSElectronicValueRW@@$1?IID_IPropertyNotifySink@@3U_GUID@@BVCComDynamicUnkArray@ATL@@@ATL@@UAGJPAU_GUID@@@Z 10014060 f i ElectronicValueRW.obj
 0001:000130a0       ?GetConnectionPointContainer@?$IConnectionPointImpl@VCOPOSElectronicValueRW@@$1?DIID__IOPOSElectronicValueRWEvents@@3U_GUID@@BVCComDynamicUnkArray@ATL@@@ATL@@UAGJPAPAUIConnectionPointContainer@@@Z 100140a0 f i ElectronicValueRW.obj
 0001:00013110       ?GetConnectionPointContainer@?$IConnectionPointImpl@VCOPOSElectronicValueRW@@$1?IID_IPropertyNotifySink@@3U_GUID@@BVCComDynamicUnkArray@ATL@@@ATL@@UAGJPAPAUIConnectionPointContainer@@@Z 10014110 f i ElectronicValueRW.obj
 0001:00013180       ?GetContentExtent@?$IQuickActivateImpl@VCOPOSElectronicValueRW@@@ATL@@UAGJPAUtagSIZE@@@Z 10014180 f i ElectronicValueRW.obj
 0001:00013210       ?GetControlInfo@?$IOleControlImpl@VCOPOSElectronicValueRW@@@ATL@@UAGJPAUtagCONTROLINFO@@@Z 10014210 f i ElectronicValueRW.obj
 0001:00013280       ?GetCookie@CComDynamicUnkArray@ATL@@QAGKPAPAUIUnknown@@@Z 10014280 f i ElectronicValueRW.obj
 0001:00013340       ?GetData@?$IDataObjectImpl@VCOPOSElectronicValueRW@@@ATL@@UAGJPAUtagFORMATETC@@PAUtagSTGMEDIUM@@@Z 10014340 f i ElectronicValueRW.obj
 0001:000133d0       ?GetData@CAtlSafeAllocBufferNode@?$CAtlSafeAllocBufferManager@VCCRTAllocator@ATL@@@_ATL_SAFE_ALLOCA_IMPL@ATL@@QAEPAXXZ 100143d0 f i ElectronicValueRW.obj
 0001:000133f0       ?GetDataHere@?$IDataObjectImpl@VCOPOSElectronicValueRW@@@ATL@@UAGJPAUtagFORMATETC@@PAUtagSTGMEDIUM@@@Z 100143f0 f i ElectronicValueRW.obj
 0001:00013460       ?GetDropTarget@?$IOleInPlaceObjectWindowlessImpl@VCOPOSElectronicValueRW@@@ATL@@UAGJPAPAUIDropTarget@@@Z 10014460 f i ElectronicValueRW.obj
 0001:000134d0       ?GetExtent@?$IOleObjectImpl@VCOPOSElectronicValueRW@@@ATL@@UAGJKPAUtagSIZE@@@Z 100144d0 f i ElectronicValueRW.obj
 0001:00013570       ?GetExtent@?$IViewObjectExImpl@VCOPOSElectronicValueRW@@@ATL@@UAGJKJPAUtagDVTARGETDEVICE@@PAUtagSIZE@@@Z 10014570 f i ElectronicValueRW.obj
 0001:00013640       ?GetGITPtr@CAtlModule@ATL@@UAEJPAPAUIGlobalInterfaceTable@@@Z 10014640 f i ElectronicValueRW.obj
 0001:00013740       ?GetGUID@?$IProvideClassInfo2Impl@$1?CLSID_OPOSElectronicValueRW@@3U_GUID@@B$1?DIID__IOPOSElectronicValueRWEvents@@3U2@B$1?LIBID_OposElectronicValueRW_CCO@@3U2@B$00$0A@VCComTypeInfoHolder@ATL@@@ATL@@UAGJKPAU_GUID@@@Z 10014740 f i ElectronicValueRW.obj
 0001:000137c0       ?GetIDsOfNames@?$IDispatchImpl@UIOPOSElectronicValueRW@@$1?IID_IOPOSElectronicValueRW@@3U_GUID@@B$1?LIBID_OposElectronicValueRW_CCO@@3U3@B$00$0A@VCComTypeInfoHolder@ATL@@@ATL@@UAGJABU_GUID@@PAPA_WIKPAJ@Z 100147c0 f i ElectronicValueRW.obj
 0001:000137f0       ?GetIDsOfNames@CComTypeInfoHolder@ATL@@QAEJABU_GUID@@PAPA_WIKPAJ@Z 100147f0 f i ElectronicValueRW.obj
 0001:000139a0       ?GetInterfaceSafetyOptions@?$IObjectSafetyImpl@VCOPOSElectronicValueRW@@$02@ATL@@UAGJABU_GUID@@PAK1@Z 100149a0 f i ElectronicValueRW.obj
 0001:00013b10       ?GetKeyAt@?$CSimpleMap@PA_WPA_WVCExpansionVectorEqualHelper@ATL@@@ATL@@QBEAAPA_WH@Z 10014b10 f i ElectronicValueRW.obj
 0001:00013b90       ?GetLockCount@CAtlModule@ATL@@UAEJXZ 10014b90 f i ElectronicValueRW.obj
 0001:00013bb0       ?GetMiscStatus@?$IOleObjectImpl@VCOPOSElectronicValueRW@@@ATL@@UAGJKPAK@Z 10014bb0 f i ElectronicValueRW.obj
 0001:00013c20       ?GetMoniker@?$IOleObjectImpl@VCOPOSElectronicValueRW@@@ATL@@UAGJKKPAPAUIMoniker@@@Z 10014c20 f i ElectronicValueRW.obj
 0001:00013c90       ?GetNaturalExtent@?$IViewObjectExImpl@VCOPOSElectronicValueRW@@@ATL@@UAGJKJPAUtagDVTARGETDEVICE@@PAUHDC__@@PAUtagExtentInfo@@PAUtagSIZE@@@Z 10014c90 f i ElectronicValueRW.obj
 0001:00013db0       ?GetObjectCLSID@?$CComCoClass@VCOPOSElectronicValueRW@@$1?CLSID_OPOSElectronicValueRW@@3U_GUID@@B@ATL@@SGABU_GUID@@XZ 10014db0 f i ElectronicValueRW.obj
 0001:00013dc0       ?GetPages@?$ISpecifyPropertyPagesImpl@VCOPOSElectronicValueRW@@@ATL@@UAGJPAUtagCAUUID@@@Z 10014dc0 f i ElectronicValueRW.obj
 0001:00013e30       ?GetPagesHelper@?$ISpecifyPropertyPagesImpl@VCOPOSElectronicValueRW@@@ATL@@IAEJPAUtagCAUUID@@PBUATL_PROPMAP_ENTRY@2@@Z 10014e30 f i ElectronicValueRW.obj
 0001:00014030       ?GetProperty@?$CComPtr@UIDispatch@@@ATL@@QAEJJPAUtagVARIANT@@@Z 10015030 f i ElectronicValueRW.obj
 0001:00014070       ?GetProperty@?$CComPtr@UIDispatch@@@ATL@@SAJPAUIDispatch@@JPAUtagVARIANT@@@Z 10015070 f i ElectronicValueRW.obj
 0001:000141d0       ?GetPropertyMap@COPOSElectronicValueRW@@SAPBUATL_PROPMAP_ENTRY@ATL@@XZ 100151d0 f i ElectronicValueRW.obj
 0001:000141e0       ?GetRect@?$IViewObjectExImpl@VCOPOSElectronicValueRW@@@ATL@@UAGJKPAU_RECTL@@@Z 100151e0 f i ElectronicValueRW.obj
 0001:00014250       ?GetSize@?$CSimpleMap@PA_WPA_WVCExpansionVectorEqualHelper@ATL@@@ATL@@QBEHXZ 10015250 f i ElectronicValueRW.obj
 0001:00014270       ?GetSize@CComDynamicUnkArray@ATL@@QBEHXZ 10015270 f i ElectronicValueRW.obj
 0001:00014290       ?GetSizeMax@?$IPersistStreamInitImpl@VCOPOSElectronicValueRW@@@ATL@@UAGJPAT_ULARGE_INTEGER@@@Z 10015290 f i ElectronicValueRW.obj
 0001:00014800       ?GetSizeMax@CComVariant@ATL@@QBEJPAT_ULARGE_INTEGER@@@Z 10015800 f i ElectronicValueRW.obj
 0001:00014b60       ?GetStreamSize@CComBSTR@ATL@@SAKPA_W@Z 10015b60 f i ElectronicValueRW.obj
 0001:00014bb0       ?GetTI@CComTypeInfoHolder@ATL@@QAEJK@Z 10015bb0 f i ElectronicValueRW.obj
 0001:000153c0       ?GetTI@CComTypeInfoHolder@ATL@@QAEJKPAPAUITypeInfo@@@Z 100163c0 f i ElectronicValueRW.obj
 0001:00015480       ?GetTypeInfo@?$IDispatchImpl@UIOPOSElectronicValueRW@@$1?IID_IOPOSElectronicValueRW@@3U_GUID@@B$1?LIBID_OposElectronicValueRW_CCO@@3U3@B$00$0A@VCComTypeInfoHolder@ATL@@@ATL@@UAGJIKPAPAUITypeInfo@@@Z 10016480 f i ElectronicValueRW.obj
 0001:000154b0       ?GetTypeInfo@CComTypeInfoHolder@ATL@@QAEJIKPAPAUITypeInfo@@@Z 100164b0 f i ElectronicValueRW.obj
 0001:000154f0       ?GetTypeInfoCount@?$IDispatchImpl@UIOPOSElectronicValueRW@@$1?IID_IOPOSElectronicValueRW@@3U_GUID@@B$1?LIBID_OposElectronicValueRW_CCO@@3U3@B$00$0A@VCComTypeInfoHolder@ATL@@@ATL@@UAGJPAI@Z 100164f0 f i ElectronicValueRW.obj
 0001:00015510       ?GetUnknown@CComDynamicUnkArray@ATL@@QAGPAUIUnknown@@K@Z 10016510 f i ElectronicValueRW.obj
 0001:00015580       ?GetUnknown@COPOSElectronicValueRW@@QAEPAUIUnknown@@XZ 10016580 f i ElectronicValueRW.obj
 0001:000155b0       ?GetUserClassID@?$IOleObjectImpl@VCOPOSElectronicValueRW@@@ATL@@UAGJPAU_GUID@@@Z 100165b0 f i ElectronicValueRW.obj
 0001:00015660       ?GetUserType@?$IOleObjectImpl@VCOPOSElectronicValueRW@@@ATL@@UAGJKPAPA_W@Z 10016660 f i ElectronicValueRW.obj
 0001:000156d0       ?GetValueAt@?$CSimpleMap@PA_WPA_WVCExpansionVectorEqualHelper@ATL@@@ATL@@QBEAAPA_WH@Z 100166d0 f i ElectronicValueRW.obj
 0001:00015750       ?GetViewStatus@?$IViewObjectExImpl@VCOPOSElectronicValueRW@@@ATL@@UAGJPAK@Z 10016750 f i ElectronicValueRW.obj
 0001:00015810       ?GetWNDPROC@CWndProcThunk@ATL@@QAEP6GJPAUHWND__@@IIJ@ZXZ 10016810 f i ElectronicValueRW.obj
 0001:00015840       ?GetWindow@?$IOleInPlaceActiveObjectImpl@VCOPOSElectronicValueRW@@@ATL@@UAGJPAPAUHWND__@@@Z 10016840 f i ElectronicValueRW.obj
 0001:00015910       ?GetWindow@?$IOleInPlaceObjectWindowlessImpl@VCOPOSElectronicValueRW@@@ATL@@UAGJPAPAUHWND__@@@Z 10016910 f i ElectronicValueRW.obj
 0001:000159e0       ?GetWindowLongPtrW@@YAJPAUHWND__@@H@Z 100169e0 f i ElectronicValueRW.obj
 0001:00015a10       ?GetWindowProc@?$CWindowImplBaseT@VCWindow@ATL@@V?$CWinTraits@$0FGAAAAAA@$0A@@2@@ATL@@UAEP6GJPAUHWND__@@IIJ@ZXZ 10016a10 f i ElectronicValueRW.obj
 0001:00015a30       ?GetWndCaption@?$CWindowImpl@VCOPOSElectronicValueRW@@VCWindow@ATL@@V?$CWinTraits@$0FGAAAAAA@$0A@@3@@ATL@@SAPB_WXZ 10016a30 f i ElectronicValueRW.obj
 0001:00015a40       ?GetWndClassInfo@?$CWindowImpl@VCOPOSElectronicValueRW@@VCWindow@ATL@@V?$CWinTraits@$0FGAAAAAA@$0A@@3@@ATL@@SAAAU_ATL_WNDCLASSINFOW@2@XZ 10016a40 f i ElectronicValueRW.obj
 0001:00015a50       ?GetWndClassName@CWindow@ATL@@SAPB_WXZ 10016a50 f i ElectronicValueRW.obj
 0001:00015a60       ?GetWndExStyle@?$CWinTraits@$0FGAAAAAA@$0A@@ATL@@SAKK@Z 10016a60 f i ElectronicValueRW.obj
 0001:00015a90       ?GetWndExStyle@?$CWindowImplBaseT@VCWindow@ATL@@V?$CWinTraits@$0FGAAAAAA@$0A@@2@@ATL@@SAKK@Z 10016a90 f i ElectronicValueRW.obj
 0001:00015ab0       ?GetWndStyle@?$CWinTraits@$0FGAAAAAA@$0A@@ATL@@SAKK@Z 10016ab0 f i ElectronicValueRW.obj
 0001:00015ae0       ?GetWndStyle@?$CWindowImplBaseT@VCWindow@ATL@@V?$CWinTraits@$0FGAAAAAA@$0A@@2@@ATL@@SAKK@Z 10016ae0 f i ElectronicValueRW.obj
 0001:00015b00       ?GetZoomInfo@CComControlBase@ATL@@QAEXAAUATL_DRAWINFO@@@Z 10016b00 f i ElectronicValueRW.obj
 0001:00015c70       ?HKeyFromString@CRegParser@ATL@@KAPAUHKEY__@@PA_W@Z 10016c70 f i ElectronicValueRW.obj
 0001:00015ce0       ?HandsOffStorage@?$IPersistStorageImpl@VCOPOSElectronicValueRW@@@ATL@@UAGJXZ 10016ce0 f i ElectronicValueRW.obj
 0001:00015d40       ?HasSubKeys@CRegParser@ATL@@IAEHPAUHKEY__@@@Z 10016d40 f i ElectronicValueRW.obj
 0001:00015e50       ?IDataObject_GetData@CComControlBase@ATL@@QAEJPAUtagFORMATETC@@PAUtagSTGMEDIUM@@@Z 10016e50 f i ElectronicValueRW.obj
 0001:00016270       ?IOleInPlaceObject_InPlaceDeactivate@CComControlBase@ATL@@QAEJXZ 10017270 f i ElectronicValueRW.obj
 0001:00016470       ?IOleInPlaceObject_SetObjectRects@CComControlBase@ATL@@QAEJPBUtagRECT@@0@Z 10017470 f i ElectronicValueRW.obj
 0001:00016630       ?IOleInPlaceObject_UIDeactivate@CComControlBase@ATL@@QAEJXZ 10017630 f i ElectronicValueRW.obj
 0001:000168a0       ?IOleObject_Advise@CComControlBase@ATL@@QAEJPAUIAdviseSink@@PAK@Z 100178a0 f i ElectronicValueRW.obj
 0001:00016950       ?IOleObject_Close@CComControlBase@ATL@@QAEJK@Z 10017950 f i ElectronicValueRW.obj
 0001:00016c00       ?IOleObject_GetClientSite@CComControlBase@ATL@@QAEJPAPAUIOleClientSite@@@Z 10017c00 f i ElectronicValueRW.obj
 0001:00016ca0       ?IOleObject_SetClientSite@CComControlBase@ATL@@QAEJPAUIOleClientSite@@@Z 10017ca0 f i ElectronicValueRW.obj
 0001:00016d70       ?IOleObject_SetExtent@CComControlBase@ATL@@QAEJKPAUtagSIZE@@@Z 10017d70 f i ElectronicValueRW.obj
 0001:00016eb0       ?IPSI_GetIPersistStreamInit@?$IPersistStorageImpl@VCOPOSElectronicValueRW@@@ATL@@AAEPAUIPersistStreamInit@@XZ 10017eb0 f i ElectronicValueRW.obj
 0001:00016f80       ?IPersistStreamInit_Load@?$IPersistStreamInitImpl@VCOPOSElectronicValueRW@@@ATL@@QAEJPAUIStream@@PBUATL_PROPMAP_ENTRY@2@@Z 10017f80 f i ElectronicValueRW.obj
 0001:00017000       ?IPersistStreamInit_Save@?$IPersistStreamInitImpl@VCOPOSElectronicValueRW@@@ATL@@QAEJPAUIStream@@HPBUATL_PROPMAP_ENTRY@2@@Z 10018000 f i ElectronicValueRW.obj
 0001:00017090       ?IQuickActivate_QuickActivate@CComControlBase@ATL@@QAEJPAUtagQACONTAINER@@PAUtagQACONTROL@@@Z 10018090 f i ElectronicValueRW.obj
 0001:000176e0       ?IViewObject_Draw@CComControlBase@ATL@@QAEJKJPAXPAUtagDVTARGETDEVICE@@PAUHDC__@@2PBU_RECTL@@3@Z 100186e0 f i ElectronicValueRW.obj
 0001:00017980       ?InPlaceActivate@CComControlBase@ATL@@QAEJJPBUtagRECT@@@Z 10018980 f i ElectronicValueRW.obj
 0001:00018310       ?InPlaceDeactivate@?$IOleInPlaceObjectWindowlessImpl@VCOPOSElectronicValueRW@@@ATL@@UAGJXZ 10019310 f i ElectronicValueRW.obj
 0001:00018390       ?Increment@CComMultiThreadModel@ATL@@SGKPAJ@Z 10019390 f i ElectronicValueRW.obj
 0001:000183b0       ?Increment@CComSingleThreadModel@ATL@@SGKPAJ@Z 100193b0 f i ElectronicValueRW.obj
 0001:000183d0       ?Init@?$CComEnumImpl@UIEnumConnectionPoints@@$1?_GUID_b196b285_bab4_101a_b69c_00aa00341d07@@3U__s_GUID@@BPAUIConnectionPoint@@V?$_CopyInterface@UIConnectionPoint@@@ATL@@@ATL@@QAEJPAPAUIConnectionPoint@@0PAUIUnknown@@W4CComEnumFlags@2@@Z 100193d0 f i ElectronicValueRW.obj
 0001:000185b0       ?Init@?$CComEnumImpl@UIEnumConnections@@$1?_GUID_b196b287_bab4_101a_b69c_00aa00341d07@@3U__s_GUID@@BUtagCONNECTDATA@@V?$_Copy@UtagCONNECTDATA@@@ATL@@@ATL@@QAEJPAUtagCONNECTDATA@@0PAUIUnknown@@W4CComEnumFlags@2@@Z 100195b0 f i ElectronicValueRW.obj
 0001:00018790       ?Init@CComFakeCriticalSection@ATL@@QAEJXZ 10019790 f i ElectronicValueRW.obj
 0001:000187b0       ?Init@CComModule@ATL@@QAEJPAU_ATL_OBJMAP_ENTRY30@2@PAUHINSTANCE__@@PBU_GUID@@@Z 100197b0 f i ElectronicValueRW.obj
 0001:000188a0       ?Init@CComSafeDeleteCriticalSection@ATL@@QAEJXZ 100198a0 f i ElectronicValueRW.obj
 0001:00018920       ?Init@CDynamicStdCallThunk2@ATL@@QAEHKPAX@Z 10019920 f i ElectronicValueRW.obj
 0001:00018980       ?Init@CWndProcThunk@ATL@@QAEHP6GJPAUHWND__@@IIJ@ZPAX@Z 10019980 f i ElectronicValueRW.obj
 0001:000189c0       ?InitFromData@?$IOleObjectImpl@VCOPOSElectronicValueRW@@@ATL@@UAGJPAUIDataObject@@HK@Z 100199c0 f i ElectronicValueRW.obj
 0001:00018a30       ?InitLibId@?$CAtlModuleT@VCComModule@ATL@@@ATL@@SAXXZ 10019a30 f i ElectronicValueRW.obj
 0001:00018a40       ?InitNew@?$IPersistStorageImpl@VCOPOSElectronicValueRW@@@ATL@@UAGJPAUIStorage@@@Z 10019a40 f i ElectronicValueRW.obj
 0001:00018b30       ?InitNew@?$IPersistStreamInitImpl@VCOPOSElectronicValueRW@@@ATL@@UAGJXZ 10019b30 f i ElectronicValueRW.obj
 0001:00018bc0       ?InlineIsEqualUnknown@ATL@@YGHABU_GUID@@@Z 10019bc0 f i ElectronicValueRW.obj
 0001:00018c30       ?InternalAddRef@?$CComObjectRootEx@VCComMultiThreadModel@ATL@@@ATL@@QAEKXZ 10019c30 f i ElectronicValueRW.obj
 0001:00018c90       ?InternalAddRef@?$CComObjectRootEx@VCComSingleThreadModel@ATL@@@ATL@@QAEKXZ 10019c90 f i ElectronicValueRW.obj
 0001:00018cf0       ?InternalFinalConstructAddRef@CComObjectRootBase@ATL@@QAEXXZ 10019cf0 f i ElectronicValueRW.obj
 0001:00018d10       ?InternalFinalConstructAddRef@COPOSElectronicValueRW@@QAEXXZ 10019d10 f i ElectronicValueRW.obj
 0001:00018d40       ?InternalFinalConstructRelease@CComObjectRootBase@ATL@@QAEXXZ 10019d40 f i ElectronicValueRW.obj
 0001:00018d90       ?InternalFinalConstructRelease@COPOSElectronicValueRW@@QAEXXZ 10019d90 f i ElectronicValueRW.obj
 0001:00018dc0       ?InternalGetSite@CComControlBase@ATL@@QAEJABU_GUID@@PAPAX@Z 10019dc0 f i ElectronicValueRW.obj
 0001:00018e80       ?InternalQueryInterface@CComObjectRootBase@ATL@@SGJPAXPBU_ATL_INTMAP_ENTRY@2@ABU_GUID@@PAPAX@Z 10019e80 f i ElectronicValueRW.obj
 0001:00018f40       ?InternalRelease@?$CComObjectRootEx@VCComMultiThreadModel@ATL@@@ATL@@QAEKXZ 10019f40 f i ElectronicValueRW.obj
 0001:00018fb0       ?InternalRelease@?$CComObjectRootEx@VCComSingleThreadModel@ATL@@@ATL@@QAEKXZ 10019fb0 f i ElectronicValueRW.obj
 0001:00019020       ?InternalSetAtIndex@?$CSimpleArray@GV?$CSimpleArrayEqualHelper@G@ATL@@@ATL@@QAEXHABG@Z 1001a020 f i ElectronicValueRW.obj
 0001:00019090       ?InternalSetAtIndex@?$CSimpleMap@PA_WPA_WVCExpansionVectorEqualHelper@ATL@@@ATL@@QAEXHABQA_W0@Z 1001a090 f i ElectronicValueRW.obj
 0001:00019130       ?Invoke@?$IDispatchImpl@UIOPOSElectronicValueRW@@$1?IID_IOPOSElectronicValueRW@@3U_GUID@@B$1?LIBID_OposElectronicValueRW_CCO@@3U3@B$00$0A@VCComTypeInfoHolder@ATL@@@ATL@@UAGJJABU_GUID@@KGPAUtagDISPPARAMS@@PAUtagVARIANT@@PAUtagEXCEPINFO@@PAI@Z 1001a130 f i ElectronicValueRW.obj
 0001:00019170       ?Invoke@CComTypeInfoHolder@ATL@@QAEJPAUIDispatch@@JABU_GUID@@KGPAUtagDISPPARAMS@@PAUtagVARIANT@@PAUtagEXCEPINFO@@PAI@Z 1001a170 f i ElectronicValueRW.obj
 0001:00019200       ?IsDirty@?$IPersistStorageImpl@VCOPOSElectronicValueRW@@@ATL@@UAGJXZ 1001a200 f i ElectronicValueRW.obj
 0001:000192f0       ?IsDirty@?$IPersistStreamInitImpl@VCOPOSElectronicValueRW@@@ATL@@UAGJXZ 1001a2f0 f i ElectronicValueRW.obj
 0001:00019390       ?IsEqualKey@CExpansionVectorEqualHelper@ATL@@SA_NQA_W0@Z 1001a390 f i ElectronicValueRW.obj
 0001:000193c0       ?IsEqualObject@?$CComPtrBase@UIOleClientSite@@@ATL@@QAE_NPAUIUnknown@@@Z 1001a3c0 f i ElectronicValueRW.obj
 0001:000194f0       ?IsEqualObject@?$CComPtrBase@UITypeInfo@@@ATL@@QAE_NPAUIUnknown@@@Z 1001a4f0 f i ElectronicValueRW.obj
 0001:00019620       ?IsSpace@CRegParser@ATL@@IAEH_W@Z 1001a620 f i ElectronicValueRW.obj
 0001:00019690       ?IsUpToDate@?$IOleObjectImpl@VCOPOSElectronicValueRW@@@ATL@@UAGJXZ 1001a690 f i ElectronicValueRW.obj
 0001:000196f0       ?Length@CComBSTR@ATL@@QBEIXZ 1001a6f0 f i ElectronicValueRW.obj
 0001:00019730       ?Load@?$IPersistStorageImpl@VCOPOSElectronicValueRW@@@ATL@@UAGJPAUIStorage@@@Z 1001a730 f i ElectronicValueRW.obj
 0001:00019890       ?Load@?$IPersistStreamInitImpl@VCOPOSElectronicValueRW@@@ATL@@UAGJPAUIStream@@@Z 1001a890 f i ElectronicValueRW.obj
 0001:00019920       ?LoadCursorW@AtlModuleRegisterWndClassInfoParamW@ATL@@SAPAUHICON__@@PAUHINSTANCE__@@PB_W@Z 1001a920 f i ElectronicValueRW.obj
 0001:00019950       ?LoadNameCache@CComTypeInfoHolder@ATL@@QAEJPAUITypeInfo@@@Z 1001a950 f i ElectronicValueRW.obj
 0001:00019be0       ?Lock@?$CComCritSecLock@VCComCriticalSection@ATL@@@ATL@@QAEJXZ 1001abe0 f i ElectronicValueRW.obj
 0001:00019c90       ?Lock@?$CComObjectRootEx@VCComSingleThreadModel@ATL@@@ATL@@QAEXXZ 1001ac90 f i ElectronicValueRW.obj
 0001:00019cb0       ?Lock@CAtlModule@ATL@@UAEJXZ 1001acb0 f i ElectronicValueRW.obj
 0001:00019ce0       ?Lock@CComCriticalSection@ATL@@QAEJXZ 1001ace0 f i ElectronicValueRW.obj
 0001:00019d20       ?Lock@CComFakeCriticalSection@ATL@@QAEJXZ 1001ad20 f i ElectronicValueRW.obj
 0001:00019d40       ?LockServer@CComClassFactory@ATL@@UAGJH@Z 1001ad40 f i ElectronicValueRW.obj
 0001:00019da0       ?Lookup@?$CSimpleMap@PA_WPA_WVCExpansionVectorEqualHelper@ATL@@@ATL@@QBEPA_WABQA_W@Z 1001ada0 f i ElectronicValueRW.obj
 0001:00019df0       ?Next@?$CComEnumImpl@UIEnumConnectionPoints@@$1?_GUID_b196b285_bab4_101a_b69c_00aa00341d07@@3U__s_GUID@@BPAUIConnectionPoint@@V?$_CopyInterface@UIConnectionPoint@@@ATL@@@ATL@@UAGJKPAPAUIConnectionPoint@@PAK@Z 1001adf0 f i ElectronicValueRW.obj
 0001:00019f60       ?Next@?$CComEnumImpl@UIEnumConnections@@$1?_GUID_b196b287_bab4_101a_b69c_00aa00341d07@@3U__s_GUID@@BUtagCONNECTDATA@@V?$_Copy@UtagCONNECTDATA@@@ATL@@@ATL@@UAGJKPAUtagCONNECTDATA@@PAK@Z 1001af60 f i ElectronicValueRW.obj
 0001:0001a0d0       ?NextToken@CRegParser@ATL@@IAEJPA_W@Z 1001b0d0 f i ElectronicValueRW.obj
 0001:0001a370       ?OLE2CT_EX@@YAPB_WPB_WI@Z  1001b370 f i ElectronicValueRW.obj
 0001:0001a380       ?OLE2CT_EX_DEF@@YAPB_WPB_W@Z 1001b380 f i ElectronicValueRW.obj
 0001:0001a390       ?OLE2T_EX@@YAPA_WPA_WI@Z   1001b390 f i ElectronicValueRW.obj
 0001:0001a3a0       ?OnAmbientPropertyChange@?$IOleControlImpl@VCOPOSElectronicValueRW@@@ATL@@UAGJJ@Z 1001b3a0 f i ElectronicValueRW.obj
 0001:0001a430       ?OnDocWindowActivate@?$IOleInPlaceActiveObjectImpl@VCOPOSElectronicValueRW@@@ATL@@UAGJH@Z 1001b430 f i ElectronicValueRW.obj
 0001:0001a4c0       ?OnDrawAdvanced@CComControlBase@ATL@@UAEJAAUATL_DRAWINFO@@@Z 1001b4c0 f i ElectronicValueRW.obj
 0001:0001a6e0       ?OnFinalMessage@?$CWindowImplBaseT@VCWindow@ATL@@V?$CWinTraits@$0FGAAAAAA@$0A@@2@@ATL@@UAEXPAUHWND__@@@Z 1001b6e0 f i ElectronicValueRW.obj
 0001:0001a700       ?OnFrameWindowActivate@?$IOleInPlaceActiveObjectImpl@VCOPOSElectronicValueRW@@@ATL@@UAGJH@Z 1001b700 f i ElectronicValueRW.obj
 0001:0001a760       ?OnKillFocus@CComControlBase@ATL@@QAEJIIJAAH@Z 1001b760 f i ElectronicValueRW.obj
 0001:0001a860       ?OnMnemonic@?$IOleControlImpl@VCOPOSElectronicValueRW@@@ATL@@UAGJPAUtagMSG@@@Z 1001b860 f i ElectronicValueRW.obj
 0001:0001a8d0       ?OnMouseActivate@CComControlBase@ATL@@QAEJIIJAAH@Z 1001b8d0 f i ElectronicValueRW.obj
 0001:0001aa20       ?OnPaint@CComControlBase@ATL@@QAEJIIJAAH@Z 1001ba20 f i ElectronicValueRW.obj
 0001:0001aba0       ?OnPostVerbDiscardUndo@?$IOleObjectImpl@VCOPOSElectronicValueRW@@@ATL@@QAEJXZ 1001bba0 f i ElectronicValueRW.obj
 0001:0001abc0       ?OnPostVerbHide@?$IOleObjectImpl@VCOPOSElectronicValueRW@@@ATL@@QAEJXZ 1001bbc0 f i ElectronicValueRW.obj
 0001:0001abe0       ?OnPostVerbInPlaceActivate@?$IOleObjectImpl@VCOPOSElectronicValueRW@@@ATL@@QAEJXZ 1001bbe0 f i ElectronicValueRW.obj
 0001:0001ac00       ?OnPostVerbOpen@?$IOleObjectImpl@VCOPOSElectronicValueRW@@@ATL@@QAEJXZ 1001bc00 f i ElectronicValueRW.obj
 0001:0001ac20       ?OnPostVerbShow@?$IOleObjectImpl@VCOPOSElectronicValueRW@@@ATL@@QAEJXZ 1001bc20 f i ElectronicValueRW.obj
 0001:0001ac40       ?OnPostVerbUIActivate@?$IOleObjectImpl@VCOPOSElectronicValueRW@@@ATL@@QAEJXZ 1001bc40 f i ElectronicValueRW.obj
 0001:0001ac60       ?OnPreVerbDiscardUndo@?$IOleObjectImpl@VCOPOSElectronicValueRW@@@ATL@@QAEJXZ 1001bc60 f i ElectronicValueRW.obj
 0001:0001ac80       ?OnPreVerbHide@?$IOleObjectImpl@VCOPOSElectronicValueRW@@@ATL@@QAEJXZ 1001bc80 f i ElectronicValueRW.obj
 0001:0001aca0       ?OnPreVerbInPlaceActivate@?$IOleObjectImpl@VCOPOSElectronicValueRW@@@ATL@@QAEJXZ 1001bca0 f i ElectronicValueRW.obj
 0001:0001acc0       ?OnPreVerbOpen@?$IOleObjectImpl@VCOPOSElectronicValueRW@@@ATL@@QAEJXZ 1001bcc0 f i ElectronicValueRW.obj
 0001:0001ace0       ?OnPreVerbShow@?$IOleObjectImpl@VCOPOSElectronicValueRW@@@ATL@@QAEJXZ 1001bce0 f i ElectronicValueRW.obj
 0001:0001ad00       ?OnPreVerbUIActivate@?$IOleObjectImpl@VCOPOSElectronicValueRW@@@ATL@@QAEJXZ 1001bd00 f i ElectronicValueRW.obj
 0001:0001ad20       ?OnSetFocus@CComControlBase@ATL@@QAEJIIJAAH@Z 1001bd20 f i ElectronicValueRW.obj
 0001:0001aeb0       ?OnWindowMessage@?$IOleInPlaceObjectWindowlessImpl@VCOPOSElectronicValueRW@@@ATL@@UAGJIIJPAJ@Z 1001beb0 f i ElectronicValueRW.obj
 0001:0001b010       ?Open@CRegKey@ATL@@QAEJPAUHKEY__@@PB_WK@Z 1001c010 f i ElectronicValueRW.obj
 0001:0001b160       ?OuterAddRef@CComObjectRootBase@ATL@@QAEKXZ 1001c160 f i ElectronicValueRW.obj
 0001:0001b1a0       ?OuterQueryInterface@CComObjectRootBase@ATL@@QAEJABU_GUID@@PAPAX@Z 1001c1a0 f i ElectronicValueRW.obj
 0001:0001b1f0       ?OuterRelease@CComObjectRootBase@ATL@@QAEKXZ 1001c1f0 f i ElectronicValueRW.obj
 0001:0001b230       ?PreProcessBuffer@CRegParser@ATL@@QAEJPA_WPAPA_W@Z 1001c230 f i ElectronicValueRW.obj
 0001:0001b770       ?PreTranslateAccelerator@CComControlBase@ATL@@QAEHPAUtagMSG@@AAJ@Z 1001c770 f i ElectronicValueRW.obj
 0001:0001b790       ?ProcessWindowMessage@?$CComControl@VCOPOSElectronicValueRW@@V?$CWindowImpl@VCOPOSElectronicValueRW@@VCWindow@ATL@@V?$CWinTraits@$0FGAAAAAA@$0A@@3@@ATL@@@ATL@@UAEHPAUHWND__@@IIJAAJK@Z 1001c790 f i ElectronicValueRW.obj
 0001:0001b960       ?ProcessWindowMessage@COPOSElectronicValueRW@@UAEHPAUHWND__@@IIJAAJK@Z 1001c960 f i ElectronicValueRW.obj
 0001:0001ba60       ?PutProperty@?$CComPtr@UIDispatch@@@ATL@@QAEJJPAUtagVARIANT@@@Z 1001ca60 f i ElectronicValueRW.obj
 0001:0001baa0       ?PutProperty@?$CComPtr@UIDispatch@@@ATL@@SAJPAUIDispatch@@JPAUtagVARIANT@@@Z 1001caa0 f i ElectronicValueRW.obj
 0001:0001bc90       ?QueryGetData@?$IDataObjectImpl@VCOPOSElectronicValueRW@@@ATL@@UAGJPAUtagFORMATETC@@@Z 1001cc90 f i ElectronicValueRW.obj
 0001:0001bd00       ?QueryHitPoint@?$IViewObjectExImpl@VCOPOSElectronicValueRW@@@ATL@@UAGJKPBUtagRECT@@UtagPOINT@@JPAK@Z 1001cd00 f i ElectronicValueRW.obj
 0001:0001be10       ?QueryHitRect@?$IViewObjectExImpl@VCOPOSElectronicValueRW@@@ATL@@UAGJKPBUtagRECT@@0JPAK@Z 1001ce10 f i ElectronicValueRW.obj
 0001:0001bf60       ?QueryInterface@?$CComAggObject@VCOPOSElectronicValueRW@@@ATL@@UAGJABU_GUID@@PAPAX@Z 1001cf60 f i ElectronicValueRW.obj
 0001:0001c010       ?QueryInterface@?$CComContainedObject@VCOPOSElectronicValueRW@@@ATL@@UAGJABU_GUID@@PAPAX@Z 1001d010 f i ElectronicValueRW.obj
 0001:0001c034       ?QueryInterface@?$CComContainedObject@VCOPOSElectronicValueRW@@@ATL@@WHA@AGJABU_GUID@@PAPAX@Z 1001d034 f i ElectronicValueRW.obj
 0001:0001c03e       ?QueryInterface@?$CComContainedObject@VCOPOSElectronicValueRW@@@ATL@@WHE@AGJABU_GUID@@PAPAX@Z 1001d03e f i ElectronicValueRW.obj
 0001:0001c048       ?QueryInterface@?$CComContainedObject@VCOPOSElectronicValueRW@@@ATL@@WHI@AGJABU_GUID@@PAPAX@Z 1001d048 f i ElectronicValueRW.obj
 0001:0001c052       ?QueryInterface@?$CComContainedObject@VCOPOSElectronicValueRW@@@ATL@@WHM@AGJABU_GUID@@PAPAX@Z 1001d052 f i ElectronicValueRW.obj
 0001:0001c05c       ?QueryInterface@?$CComContainedObject@VCOPOSElectronicValueRW@@@ATL@@WIA@AGJABU_GUID@@PAPAX@Z 1001d05c f i ElectronicValueRW.obj
 0001:0001c069       ?QueryInterface@?$CComContainedObject@VCOPOSElectronicValueRW@@@ATL@@WIE@AGJABU_GUID@@PAPAX@Z 1001d069 f i ElectronicValueRW.obj
 0001:0001c076       ?QueryInterface@?$CComContainedObject@VCOPOSElectronicValueRW@@@ATL@@WII@AGJABU_GUID@@PAPAX@Z 1001d076 f i ElectronicValueRW.obj
 0001:0001c083       ?QueryInterface@?$CComContainedObject@VCOPOSElectronicValueRW@@@ATL@@WIM@AGJABU_GUID@@PAPAX@Z 1001d083 f i ElectronicValueRW.obj
 0001:0001c090       ?QueryInterface@?$CComContainedObject@VCOPOSElectronicValueRW@@@ATL@@WJA@AGJABU_GUID@@PAPAX@Z 1001d090 f i ElectronicValueRW.obj
 0001:0001c09d       ?QueryInterface@?$CComContainedObject@VCOPOSElectronicValueRW@@@ATL@@WJE@AGJABU_GUID@@PAPAX@Z 1001d09d f i ElectronicValueRW.obj
 0001:0001c0aa       ?QueryInterface@?$CComContainedObject@VCOPOSElectronicValueRW@@@ATL@@WJI@AGJABU_GUID@@PAPAX@Z 1001d0aa f i ElectronicValueRW.obj
 0001:0001c0b7       ?QueryInterface@?$CComContainedObject@VCOPOSElectronicValueRW@@@ATL@@WJM@AGJABU_GUID@@PAPAX@Z 1001d0b7 f i ElectronicValueRW.obj
 0001:0001c0c4       ?QueryInterface@?$CComContainedObject@VCOPOSElectronicValueRW@@@ATL@@WKA@AGJABU_GUID@@PAPAX@Z 1001d0c4 f i ElectronicValueRW.obj
 0001:0001c0e0       ?QueryInterface@?$CComObject@V?$CComEnum@UIEnumConnectionPoints@@$1?_GUID_b196b285_bab4_101a_b69c_00aa00341d07@@3U__s_GUID@@BPAUIConnectionPoint@@V?$_CopyInterface@UIConnectionPoint@@@ATL@@VCComSingleThreadModel@6@@ATL@@@ATL@@UAGJABU_GUID@@PAPAX@Z 1001d0e0 f i ElectronicValueRW.obj
 0001:0001c100       ?QueryInterface@?$CComObject@V?$CComEnum@UIEnumConnections@@$1?_GUID_b196b287_bab4_101a_b69c_00aa00341d07@@3U__s_GUID@@BUtagCONNECTDATA@@V?$_Copy@UtagCONNECTDATA@@@ATL@@VCComSingleThreadModel@6@@ATL@@@ATL@@UAGJABU_GUID@@PAPAX@Z 1001d100 f i ElectronicValueRW.obj
 0001:0001c120       ?QueryInterface@?$CComObject@VCOPOSElectronicValueRW@@@ATL@@UAGJABU_GUID@@PAPAX@Z 1001d120 f i ElectronicValueRW.obj
 0001:0001c13e       ?QueryInterface@?$CComObject@VCOPOSElectronicValueRW@@@ATL@@WHA@AGJABU_GUID@@PAPAX@Z 1001d13e f i ElectronicValueRW.obj
 0001:0001c148       ?QueryInterface@?$CComObject@VCOPOSElectronicValueRW@@@ATL@@WHE@AGJABU_GUID@@PAPAX@Z 1001d148 f i ElectronicValueRW.obj
 0001:0001c152       ?QueryInterface@?$CComObject@VCOPOSElectronicValueRW@@@ATL@@WHI@AGJABU_GUID@@PAPAX@Z 1001d152 f i ElectronicValueRW.obj
 0001:0001c15c       ?QueryInterface@?$CComObject@VCOPOSElectronicValueRW@@@ATL@@WHM@AGJABU_GUID@@PAPAX@Z 1001d15c f i ElectronicValueRW.obj
 0001:0001c166       ?QueryInterface@?$CComObject@VCOPOSElectronicValueRW@@@ATL@@WIA@AGJABU_GUID@@PAPAX@Z 1001d166 f i ElectronicValueRW.obj
 0001:0001c173       ?QueryInterface@?$CComObject@VCOPOSElectronicValueRW@@@ATL@@WIE@AGJABU_GUID@@PAPAX@Z 1001d173 f i ElectronicValueRW.obj
 0001:0001c180       ?QueryInterface@?$CComObject@VCOPOSElectronicValueRW@@@ATL@@WII@AGJABU_GUID@@PAPAX@Z 1001d180 f i ElectronicValueRW.obj
 0001:0001c18d       ?QueryInterface@?$CComObject@VCOPOSElectronicValueRW@@@ATL@@WIM@AGJABU_GUID@@PAPAX@Z 1001d18d f i ElectronicValueRW.obj
 0001:0001c19a       ?QueryInterface@?$CComObject@VCOPOSElectronicValueRW@@@ATL@@WJA@AGJABU_GUID@@PAPAX@Z 1001d19a f i ElectronicValueRW.obj
 0001:0001c1a7       ?QueryInterface@?$CComObject@VCOPOSElectronicValueRW@@@ATL@@WJE@AGJABU_GUID@@PAPAX@Z 1001d1a7 f i ElectronicValueRW.obj
 0001:0001c1b4       ?QueryInterface@?$CComObject@VCOPOSElectronicValueRW@@@ATL@@WJI@AGJABU_GUID@@PAPAX@Z 1001d1b4 f i ElectronicValueRW.obj
 0001:0001c1c1       ?QueryInterface@?$CComObject@VCOPOSElectronicValueRW@@@ATL@@WJM@AGJABU_GUID@@PAPAX@Z 1001d1c1 f i ElectronicValueRW.obj
 0001:0001c1ce       ?QueryInterface@?$CComObject@VCOPOSElectronicValueRW@@@ATL@@WKA@AGJABU_GUID@@PAPAX@Z 1001d1ce f i ElectronicValueRW.obj
 0001:0001c1e0       ?QueryInterface@?$CComObjectCached@VCComClassFactory@ATL@@@ATL@@UAGJABU_GUID@@PAPAX@Z 1001d1e0 f i ElectronicValueRW.obj
 0001:0001c200       ?QueryInterface@CRegObject@ATL@@UAGJABU_GUID@@PAPAX@Z 1001d200 f i ElectronicValueRW.obj
 0001:0001c250       ?QuickActivate@?$IQuickActivateImpl@VCOPOSElectronicValueRW@@@ATL@@UAGJPAUtagQACONTAINER@@PAUtagQACONTROL@@@Z 1001d250 f i ElectronicValueRW.obj
 0001:0001c2e0       ?ReactivateAndUndo@?$IOleInPlaceObjectWindowlessImpl@VCOPOSElectronicValueRW@@@ATL@@UAGJXZ 1001d2e0 f i ElectronicValueRW.obj
 0001:0001c350       ?ReadFromStream@CComBSTR@ATL@@QAEJPAUIStream@@@Z 1001d350 f i ElectronicValueRW.obj
 0001:0001c750       ?ReadFromStream@CComVariant@ATL@@QAEJPAUIStream@@GTClassesAllowedInStream@2@K@Z 1001d750 f i ElectronicValueRW.obj
 0001:0001cab0       ?RecurseDeleteKey@CRegKey@ATL@@QAEJPB_W@Z 1001dab0 f i ElectronicValueRW.obj
 0001:0001cc90       ?RegCreateKeyExW@CAtlTransactionManager@ATL@@QAEJPAUHKEY__@@PB_WKPA_WKKQAU_SECURITY_ATTRIBUTES@@PAPAU3@PAK@Z 1001dc90 f i ElectronicValueRW.obj
 0001:0001cdc0       ?RegDeleteKeyW@CAtlTransactionManager@ATL@@QAEJPAUHKEY__@@PB_W@Z 1001ddc0 f i ElectronicValueRW.obj
 0001:0001cec0       ?RegOpenKeyExW@CAtlTransactionManager@ATL@@QAEJPAUHKEY__@@PB_WKKPAPAU3@@Z 1001dec0 f i ElectronicValueRW.obj
 0001:0001cfd0       ?Register@_ATL_WNDCLASSINFOW@ATL@@QAEGPAP6GJPAUHWND__@@IIJ@Z@Z 1001dfd0 f i ElectronicValueRW.obj
 0001:0001d010       ?RegisterBuffer@CRegParser@ATL@@QAEJPA_WH@Z 1001e010 f i ElectronicValueRW.obj
 0001:0001d340       ?RegisterClassExW@AtlModuleRegisterWndClassInfoParamW@ATL@@SAGPAU_ATL_WIN_MODULE70@2@PBUtagWNDCLASSEXW@@@Z 1001e340 f i ElectronicValueRW.obj
 0001:0001d360       ?RegisterFromResource@CRegObject@ATL@@IAEJPB_W00H@Z 1001e360 f i ElectronicValueRW.obj
 0001:0001d6f0       ?RegisterServer@?$CAtlModuleT@VCComModule@ATL@@@ATL@@QAEJHPBU_GUID@@@Z 1001e6f0 f i ElectronicValueRW.obj
 0001:0001d770       ?RegisterServer@CAtlComModule@ATL@@QAEJHPBU_GUID@@@Z 1001e770 f i ElectronicValueRW.obj
 0001:0001d7a0       ?RegisterServer@CComModule@ATL@@QAEJHPBU_GUID@@@Z 1001e7a0 f i ElectronicValueRW.obj
 0001:0001d880       ?RegisterSubkeys@CRegParser@ATL@@IAEJPA_WPAUHKEY__@@HH@Z 1001e880 f i ElectronicValueRW.obj
 0001:0001e3a0       ?Release@?$CComAggObject@VCOPOSElectronicValueRW@@@ATL@@UAGKXZ 1001f3a0 f i ElectronicValueRW.obj
 0001:0001e460       ?Release@?$CComContainedObject@VCOPOSElectronicValueRW@@@ATL@@UAGKXZ 1001f460 f i ElectronicValueRW.obj
 0001:0001e47c       ?Release@?$CComContainedObject@VCOPOSElectronicValueRW@@@ATL@@WHA@AGKXZ 1001f47c f i ElectronicValueRW.obj
 0001:0001e486       ?Release@?$CComContainedObject@VCOPOSElectronicValueRW@@@ATL@@WHE@AGKXZ 1001f486 f i ElectronicValueRW.obj
 0001:0001e490       ?Release@?$CComContainedObject@VCOPOSElectronicValueRW@@@ATL@@WHI@AGKXZ 1001f490 f i ElectronicValueRW.obj
 0001:0001e49a       ?Release@?$CComContainedObject@VCOPOSElectronicValueRW@@@ATL@@WHM@AGKXZ 1001f49a f i ElectronicValueRW.obj
 0001:0001e4a4       ?Release@?$CComContainedObject@VCOPOSElectronicValueRW@@@ATL@@WIA@AGKXZ 1001f4a4 f i ElectronicValueRW.obj
 0001:0001e4b1       ?Release@?$CComContainedObject@VCOPOSElectronicValueRW@@@ATL@@WIE@AGKXZ 1001f4b1 f i ElectronicValueRW.obj
 0001:0001e4be       ?Release@?$CComContainedObject@VCOPOSElectronicValueRW@@@ATL@@WII@AGKXZ 1001f4be f i ElectronicValueRW.obj
 0001:0001e4cb       ?Release@?$CComContainedObject@VCOPOSElectronicValueRW@@@ATL@@WIM@AGKXZ 1001f4cb f i ElectronicValueRW.obj
 0001:0001e4d8       ?Release@?$CComContainedObject@VCOPOSElectronicValueRW@@@ATL@@WJA@AGKXZ 1001f4d8 f i ElectronicValueRW.obj
 0001:0001e4e5       ?Release@?$CComContainedObject@VCOPOSElectronicValueRW@@@ATL@@WJE@AGKXZ 1001f4e5 f i ElectronicValueRW.obj
 0001:0001e4f2       ?Release@?$CComContainedObject@VCOPOSElectronicValueRW@@@ATL@@WJI@AGKXZ 1001f4f2 f i ElectronicValueRW.obj
 0001:0001e4ff       ?Release@?$CComContainedObject@VCOPOSElectronicValueRW@@@ATL@@WJM@AGKXZ 1001f4ff f i ElectronicValueRW.obj
 0001:0001e50c       ?Release@?$CComContainedObject@VCOPOSElectronicValueRW@@@ATL@@WKA@AGKXZ 1001f50c f i ElectronicValueRW.obj
 0001:0001e519       ?Release@?$CComContainedObject@VCOPOSElectronicValueRW@@@ATL@@WKI@AGKXZ 1001f519 f i ElectronicValueRW.obj
 0001:0001e526       ?Release@?$CComContainedObject@VCOPOSElectronicValueRW@@@ATL@@WLE@AGKXZ 1001f526 f i ElectronicValueRW.obj
 0001:0001e540       ?Release@?$CComObject@V?$CComEnum@UIEnumConnectionPoints@@$1?_GUID_b196b285_bab4_101a_b69c_00aa00341d07@@3U__s_GUID@@BPAUIConnectionPoint@@V?$_CopyInterface@UIConnectionPoint@@@ATL@@VCComSingleThreadModel@6@@ATL@@@ATL@@UAGKXZ 1001f540 f i ElectronicValueRW.obj
 0001:0001e600       ?Release@?$CComObject@V?$CComEnum@UIEnumConnections@@$1?_GUID_b196b287_bab4_101a_b69c_00aa00341d07@@3U__s_GUID@@BUtagCONNECTDATA@@V?$_Copy@UtagCONNECTDATA@@@ATL@@VCComSingleThreadModel@6@@ATL@@@ATL@@UAGKXZ 1001f600 f i ElectronicValueRW.obj
 0001:0001e6c0       ?Release@?$CComObject@VCOPOSElectronicValueRW@@@ATL@@UAGKXZ 1001f6c0 f i ElectronicValueRW.obj
 0001:0001e779       ?Release@?$CComObject@VCOPOSElectronicValueRW@@@ATL@@WHA@AGKXZ 1001f779 f i ElectronicValueRW.obj
 0001:0001e783       ?Release@?$CComObject@VCOPOSElectronicValueRW@@@ATL@@WHE@AGKXZ 1001f783 f i ElectronicValueRW.obj
 0001:0001e78d       ?Release@?$CComObject@VCOPOSElectronicValueRW@@@ATL@@WHI@AGKXZ 1001f78d f i ElectronicValueRW.obj
 0001:0001e797       ?Release@?$CComObject@VCOPOSElectronicValueRW@@@ATL@@WHM@AGKXZ 1001f797 f i ElectronicValueRW.obj
 0001:0001e7a1       ?Release@?$CComObject@VCOPOSElectronicValueRW@@@ATL@@WIA@AGKXZ 1001f7a1 f i ElectronicValueRW.obj
 0001:0001e7ae       ?Release@?$CComObject@VCOPOSElectronicValueRW@@@ATL@@WIE@AGKXZ 1001f7ae f i ElectronicValueRW.obj
 0001:0001e7bb       ?Release@?$CComObject@VCOPOSElectronicValueRW@@@ATL@@WII@AGKXZ 1001f7bb f i ElectronicValueRW.obj
 0001:0001e7c8       ?Release@?$CComObject@VCOPOSElectronicValueRW@@@ATL@@WIM@AGKXZ 1001f7c8 f i ElectronicValueRW.obj
 0001:0001e7d5       ?Release@?$CComObject@VCOPOSElectronicValueRW@@@ATL@@WJA@AGKXZ 1001f7d5 f i ElectronicValueRW.obj
 0001:0001e7e2       ?Release@?$CComObject@VCOPOSElectronicValueRW@@@ATL@@WJE@AGKXZ 1001f7e2 f i ElectronicValueRW.obj
 0001:0001e7ef       ?Release@?$CComObject@VCOPOSElectronicValueRW@@@ATL@@WJI@AGKXZ 1001f7ef f i ElectronicValueRW.obj
 0001:0001e7fc       ?Release@?$CComObject@VCOPOSElectronicValueRW@@@ATL@@WJM@AGKXZ 1001f7fc f i ElectronicValueRW.obj
 0001:0001e809       ?Release@?$CComObject@VCOPOSElectronicValueRW@@@ATL@@WKA@AGKXZ 1001f809 f i ElectronicValueRW.obj
 0001:0001e816       ?Release@?$CComObject@VCOPOSElectronicValueRW@@@ATL@@WKI@AGKXZ 1001f816 f i ElectronicValueRW.obj
 0001:0001e823       ?Release@?$CComObject@VCOPOSElectronicValueRW@@@ATL@@WLE@AGKXZ 1001f823 f i ElectronicValueRW.obj
 0001:0001e830       ?Release@?$CComObjectCached@VCComClassFactory@ATL@@@ATL@@UAGKXZ 1001f830 f i ElectronicValueRW.obj
 0001:0001e8d0       ?Release@?$CComPtrBase@UIAdviseSink@@@ATL@@QAEXXZ 1001f8d0 f i ElectronicValueRW.obj
 0001:0001e930       ?Release@?$CComPtrBase@UIDispatch@@@ATL@@QAEXXZ 1001f930 f i ElectronicValueRW.obj
 0001:0001e990       ?Release@?$CComPtrBase@UIOleInPlaceSiteWindowless@@@ATL@@QAEXXZ 1001f990 f i ElectronicValueRW.obj
 0001:0001e9f0       ?Release@CRegObject@ATL@@UAGKXZ 1001f9f0 f i ElectronicValueRW.obj
 0001:0001ea30       ?Remove@CComDynamicUnkArray@ATL@@QAEHK@Z 1001fa30 f i ElectronicValueRW.obj
 0001:0001eae0       ?RemoveAll@?$CSimpleMap@PA_WPA_WVCExpansionVectorEqualHelper@ATL@@@ATL@@QAEXXZ 1001fae0 f i ElectronicValueRW.obj
 0001:0001eb70       ?Reset@?$CComEnumImpl@UIEnumConnectionPoints@@$1?_GUID_b196b285_bab4_101a_b69c_00aa00341d07@@3U__s_GUID@@BPAUIConnectionPoint@@V?$_CopyInterface@UIConnectionPoint@@@ATL@@@ATL@@UAGJXZ 1001fb70 f i ElectronicValueRW.obj
 0001:0001eb90       ?Reset@?$CComEnumImpl@UIEnumConnections@@$1?_GUID_b196b287_bab4_101a_b69c_00aa00341d07@@3U__s_GUID@@BUtagCONNECTDATA@@V?$_Copy@UtagCONNECTDATA@@@ATL@@@ATL@@UAGJXZ 1001fb90 f i ElectronicValueRW.obj
 0001:0001ebb0       ?ResizeBorder@?$IOleInPlaceActiveObjectImpl@VCOPOSElectronicValueRW@@@ATL@@UAGJPBUtagRECT@@PAUIOleInPlaceUIWindow@@H@Z 1001fbb0 f i ElectronicValueRW.obj
 0001:0001ec10       ?ResourceRegister@CRegObject@ATL@@QAGJPB_WI0@Z 1001fc10 f i ElectronicValueRW.obj
 0001:0001ecf0       ?ResourceRegisterSz@CRegObject@ATL@@QAGJPB_W00@Z 1001fcf0 f i ElectronicValueRW.obj
 0001:0001edf0       ?ResourceUnregister@CRegObject@ATL@@QAGJPB_WI0@Z 1001fdf0 f i ElectronicValueRW.obj
 0001:0001eed0       ?ResourceUnregisterSz@CRegObject@ATL@@QAGJPB_W00@Z 1001fed0 f i ElectronicValueRW.obj
 0001:0001efd0       ?SOData@COPOSElectronicValueRW@@MAGJJ@Z 1001ffd0 f i ElectronicValueRW.obj
 0001:0001f050       ?SODirectIO@COPOSElectronicValueRW@@MAGJJPAJPAPA_W@Z 10020050 f i ElectronicValueRW.obj
 0001:0001f210       ?SOError@COPOSElectronicValueRW@@MAGJJJJPAJ@Z 10020210 f i ElectronicValueRW.obj
 0001:0001f2d0       ?SOOutputComplete@COPOSElectronicValueRW@@MAGJJ@Z 100202d0 f i ElectronicValueRW.obj
 0001:0001f350       ?SOStatusUpdate@COPOSElectronicValueRW@@MAGJJ@Z 10020350 f i ElectronicValueRW.obj
 0001:0001f3d0       ?SOTransition@COPOSElectronicValueRW@@MAGJJPAJPAPA_W@Z 100203d0 f i ElectronicValueRW.obj
 0001:0001f590       ?Save@?$IPersistStorageImpl@VCOPOSElectronicValueRW@@@ATL@@UAGJPAUIStorage@@H@Z 10020590 f i ElectronicValueRW.obj
 0001:0001f6f0       ?Save@?$IPersistStreamInitImpl@VCOPOSElectronicValueRW@@@ATL@@UAGJPAUIStream@@H@Z 100206f0 f i ElectronicValueRW.obj
 0001:0001f780       ?SaveCompleted@?$IPersistStorageImpl@VCOPOSElectronicValueRW@@@ATL@@UAGJPAUIStorage@@@Z 10020780 f i ElectronicValueRW.obj
 0001:0001f7e0       ?SendOnDataChange@CComControlBase@ATL@@QAEJK@Z 100207e0 f i ElectronicValueRW.obj
 0001:0001f8d0       ?SendOnSave@CComControlBase@ATL@@QAEJXZ 100208d0 f i ElectronicValueRW.obj
 0001:0001f940       ?SendOnViewChange@CComControlBase@ATL@@QAEJKJ@Z 10020940 f i ElectronicValueRW.obj
 0001:0001f9b0       ?SetAdvise@?$IViewObjectExImpl@VCOPOSElectronicValueRW@@@ATL@@UAGJKKPAUIAdviseSink@@@Z 100209b0 f i ElectronicValueRW.obj
 0001:0001fa40       ?SetClientSite@?$IOleObjectImpl@VCOPOSElectronicValueRW@@@ATL@@UAGJPAUIOleClientSite@@@Z 10020a40 f i ElectronicValueRW.obj
 0001:0001fad0       ?SetColorScheme@?$IOleObjectImpl@VCOPOSElectronicValueRW@@@ATL@@UAGJPAUtagLOGPALETTE@@@Z 10020ad0 f i ElectronicValueRW.obj
 0001:0001fb40       ?SetContentExtent@?$IQuickActivateImpl@VCOPOSElectronicValueRW@@@ATL@@UAGJPAUtagSIZE@@@Z 10020b40 f i ElectronicValueRW.obj
 0001:0001fbd0       ?SetControlFocus@CComControlBase@ATL@@QAEHH@Z 10020bd0 f i ElectronicValueRW.obj
 0001:0001fd50       ?SetDWORDValue@CRegKey@ATL@@QAEJPB_WK@Z 10020d50 f i ElectronicValueRW.obj
 0001:0001fdd0       ?SetData@?$IDataObjectImpl@VCOPOSElectronicValueRW@@@ATL@@UAGJPAUtagFORMATETC@@PAUtagSTGMEDIUM@@H@Z 10020dd0 f i ElectronicValueRW.obj
 0001:0001fe40       ?SetExtent@?$IOleObjectImpl@VCOPOSElectronicValueRW@@@ATL@@UAGJKPAUtagSIZE@@@Z 10020e40 f i ElectronicValueRW.obj
 0001:0001fed0       ?SetHostNames@?$IOleObjectImpl@VCOPOSElectronicValueRW@@@ATL@@UAGJPB_W0@Z 10020ed0 f i ElectronicValueRW.obj
 0001:0001ff30       ?SetInterfaceSafetyOptions@?$IObjectSafetyImpl@VCOPOSElectronicValueRW@@$02@ATL@@UAGJABU_GUID@@KK@Z 10020f30 f i ElectronicValueRW.obj
 0001:000200a0       ?SetMoniker@?$IOleObjectImpl@VCOPOSElectronicValueRW@@@ATL@@UAGJKPAUIMoniker@@@Z 100210a0 f i ElectronicValueRW.obj
 0001:00020110       ?SetMultiStringValue@CRegKey@ATL@@QAEJPB_W0@Z 10021110 f i ElectronicValueRW.obj
 0001:00020230       ?SetObjectRects@?$IOleInPlaceObjectWindowlessImpl@VCOPOSElectronicValueRW@@@ATL@@UAGJPBUtagRECT@@0@Z 10021230 f i ElectronicValueRW.obj
 0001:000202c0       ?SetStringValue@CRegKey@ATL@@QAEJPB_W0K@Z 100212c0 f i ElectronicValueRW.obj
 0001:000203f0       ?SetVoid@CComClassFactory@ATL@@QAEXPAX@Z 100213f0 f i ElectronicValueRW.obj
 0001:00020410       ?SetVoid@CComObjectRootBase@ATL@@QAEXPAX@Z 10021410 f i ElectronicValueRW.obj
 0001:00020430       ?SetWindowLongPtrW@@YAJPAUHWND__@@HJ@Z 10021430 f i ElectronicValueRW.obj
 0001:00020460       ?ShowWindow@CWindow@ATL@@QAEHH@Z 10021460 f i ElectronicValueRW.obj
 0001:000204e0       ?Skip@?$CComEnumImpl@UIEnumConnectionPoints@@$1?_GUID_b196b285_bab4_101a_b69c_00aa00341d07@@3U__s_GUID@@BPAUIConnectionPoint@@V?$_CopyInterface@UIConnectionPoint@@@ATL@@@ATL@@UAGJK@Z 100214e0 f i ElectronicValueRW.obj
 0001:00020560       ?Skip@?$CComEnumImpl@UIEnumConnections@@$1?_GUID_b196b287_bab4_101a_b69c_00aa00341d07@@3U__s_GUID@@BUtagCONNECTDATA@@V?$_Copy@UtagCONNECTDATA@@@ATL@@@ATL@@UAGJK@Z 10021560 f i ElectronicValueRW.obj
 0001:000205e0       ?SkipAssignment@CRegParser@ATL@@IAEJPA_W@Z 100215e0 f i ElectronicValueRW.obj
 0001:000206c0       ?SkipWhiteSpace@CRegParser@ATL@@IAEXXZ 100216c0 f i ElectronicValueRW.obj
 0001:00020710       ?StartWindowProc@?$CWindowImplBaseT@VCWindow@ATL@@V?$CWinTraits@$0FGAAAAAA@$0A@@2@@ATL@@SGJPAUHWND__@@IIJ@Z 10021710 f i ElectronicValueRW.obj
 0001:00020830       ?StrChrW@CRegParser@ATL@@KAPA_WPA_W_W@Z 10021830 f i ElectronicValueRW.obj
 0001:000208a0       ?StrFromMap@CRegObject@ATL@@QAEPB_WPA_W@Z 100218a0 f i ElectronicValueRW.obj
 0001:00020930       ?Swap@?$CComPtrBase@UIAdviseSink@@@ATL@@IAEXAAV12@@Z 10021930 f i ElectronicValueRW.obj
 0001:00020970       ?Swap@?$CComPtrBase@UIOleClientSite@@@ATL@@IAEXAAV12@@Z 10021970 f i ElectronicValueRW.obj
 0001:000209b0       ?Swap@?$CComPtrBase@UIUnknown@@@ATL@@IAEXAAV12@@Z 100219b0 f i ElectronicValueRW.obj
 0001:000209f0       ?T2COLE_EX@@YAPB_WPB_WI@Z  100219f0 f i ElectronicValueRW.obj
 0001:00020a00       ?T2OLE_EX@@YAPA_WPA_WI@Z   10021a00 f i ElectronicValueRW.obj
 0001:00020a10       ?Term@CAtlModule@ATL@@QAEXXZ 10021a10 f i ElectronicValueRW.obj
 0001:00020ac0       ?Term@CComModule@ATL@@QAEXXZ 10021ac0 f i ElectronicValueRW.obj
 0001:00020bb0       ?TranslateAcceleratorW@?$IOleInPlaceActiveObjectImpl@VCOPOSElectronicValueRW@@@ATL@@UAGJPAUtagMSG@@@Z 10021bb0 f i ElectronicValueRW.obj
 0001:00020db0       ?UIDeactivate@?$IOleInPlaceObjectWindowlessImpl@VCOPOSElectronicValueRW@@@ATL@@UAGJXZ 10021db0 f i ElectronicValueRW.obj
 0001:00020e30       ?Unadvise@?$CProxy_IOPOSEvents@VCOPOSElectronicValueRW@@@@UAGJK@Z 10021e30 f i ElectronicValueRW.obj
 0001:00020e70       ?Unadvise@?$IConnectionPointImpl@VCOPOSElectronicValueRW@@$1?DIID__IOPOSElectronicValueRWEvents@@3U_GUID@@BVCComDynamicUnkArray@ATL@@@ATL@@UAGJK@Z 10021e70 f i ElectronicValueRW.obj
 0001:00020f40       ?Unadvise@?$IConnectionPointImpl@VCOPOSElectronicValueRW@@$1?IID_IPropertyNotifySink@@3U_GUID@@BVCComDynamicUnkArray@ATL@@@ATL@@UAGJK@Z 10021f40 f i ElectronicValueRW.obj
 0001:00021010       ?Unadvise@?$IOleObjectImpl@VCOPOSElectronicValueRW@@@ATL@@UAGJK@Z 10022010 f i ElectronicValueRW.obj
 0001:000210e0       ?Unfreeze@?$IViewObjectExImpl@VCOPOSElectronicValueRW@@@ATL@@UAGJK@Z 100220e0 f i ElectronicValueRW.obj
 0001:00021150       ?Unlock@?$CComCritSecLock@VCComCriticalSection@ATL@@@ATL@@QAEXXZ 10022150 f i ElectronicValueRW.obj
 0001:000211c0       ?Unlock@?$CComObjectRootEx@VCComSingleThreadModel@ATL@@@ATL@@QAEXXZ 100221c0 f i ElectronicValueRW.obj
 0001:000211e0       ?Unlock@CAtlModule@ATL@@UAEJXZ 100221e0 f i ElectronicValueRW.obj
 0001:00021210       ?Unlock@CComCriticalSection@ATL@@QAEJXZ 10022210 f i ElectronicValueRW.obj
 0001:00021250       ?Unlock@CComFakeCriticalSection@ATL@@QAEJXZ 10022250 f i ElectronicValueRW.obj
 0001:00021270       ?UnregisterServer@?$CAtlModuleT@VCComModule@ATL@@@ATL@@QAEJHPBU_GUID@@@Z 10022270 f i ElectronicValueRW.obj
 0001:000212e0       ?UnregisterServer@CAtlComModule@ATL@@QAEJHPBU_GUID@@@Z 100222e0 f i ElectronicValueRW.obj
 0001:00021310       ?UnregisterServer@CComModule@ATL@@QAEJHPBU_GUID@@@Z 10022310 f i ElectronicValueRW.obj
 0001:000213f0       ?Update@?$IOleObjectImpl@VCOPOSElectronicValueRW@@@ATL@@UAGJXZ 100223f0 f i ElectronicValueRW.obj
 0001:00021450       ?UpdateRegistryFromResource@CAtlModule@ATL@@QAGJIHPAU_ATL_REGMAP_ENTRY@2@@Z 10022450 f i ElectronicValueRW.obj
 0001:00021920       ?UpdateRegistryFromResource@CAtlModule@ATL@@QAGJPB_WHPAU_ATL_REGMAP_ENTRY@2@@Z 10022920 f i ElectronicValueRW.obj
 0001:00021e10       ?UpdateRegistryFromResource@CComModule@ATL@@UAGJIHPAU_ATL_REGMAP_ENTRY@2@@Z 10022e10 f i ElectronicValueRW.obj
 0001:00021e40       ?UpdateRegistryFromResource@CComModule@ATL@@UAGJPB_WHPAU_ATL_REGMAP_ENTRY@2@@Z 10022e40 f i ElectronicValueRW.obj
 0001:00021e70       ?UpdateRegistryFromResourceD@CComModule@ATL@@UAGJIHPAU_ATL_REGMAP_ENTRY@2@@Z 10022e70 f i ElectronicValueRW.obj
 0001:00021e80       ?UpdateRegistryFromResourceD@CComModule@ATL@@UAGJPB_WHPAU_ATL_REGMAP_ENTRY@2@@Z 10022e80 f i ElectronicValueRW.obj
 0001:00021e90       ?VTFromRegType@CRegParser@ATL@@KAHPB_WAAG@Z 10022e90 f i ElectronicValueRW.obj
 0001:00021f70       ?WindowProc@?$CWindowImplBaseT@VCWindow@ATL@@V?$CWinTraits@$0FGAAAAAA@$0A@@2@@ATL@@SGJPAUHWND__@@IIJ@Z 10022f70 f i ElectronicValueRW.obj
 0001:00022180       ?WriteToStream@CComBSTR@ATL@@QAEJPAUIStream@@@Z 10023180 f i ElectronicValueRW.obj
 0001:000222e0       ?WriteToStream@CComVariant@ATL@@QAEJPAUIStream@@@Z 100232e0 f i ElectronicValueRW.obj
 0001:00022620       ?WriteToStream@CComVariant@ATL@@QAEJPAUIStream@@G@Z 10023620 f i ElectronicValueRW.obj
 0001:000226f0       ?_AtlFinalConstruct@CComObjectRootBase@ATL@@QAEJXZ 100236f0 f i ElectronicValueRW.obj
 0001:00022710       ?_AtlGetConversionACP@ATL@@YGIXZ 10023710 f i ElectronicValueRW.obj
 0001:00022720       ?_AtlInitialConstruct@?$CComAggObject@VCOPOSElectronicValueRW@@@ATL@@QAEJXZ 10023720 f i ElectronicValueRW.obj
 0001:00022770       ?_AtlInitialConstruct@?$CComObjectRootEx@VCComMultiThreadModel@ATL@@@ATL@@QAEJXZ 10023770 f i ElectronicValueRW.obj
 0001:000227a0       ?_AtlInitialConstruct@?$CComObjectRootEx@VCComSingleThreadModel@ATL@@@ATL@@QAEJXZ 100237a0 f i ElectronicValueRW.obj
 0001:000227c0       ?_AtlVerifyStackAvailable@_ATL_SAFE_ALLOCA_IMPL@ATL@@YA_NK@Z 100237c0 f i ElectronicValueRW.obj
 0001:00022970       ?_GetEntries@?$CComEnum@UIEnumConnectionPoints@@$1?_GUID_b196b285_bab4_101a_b69c_00aa00341d07@@3U__s_GUID@@BPAUIConnectionPoint@@V?$_CopyInterface@UIConnectionPoint@@@ATL@@VCComSingleThreadModel@6@@ATL@@SGPBU_ATL_INTMAP_ENTRY@2@XZ 10023970 f i ElectronicValueRW.obj
 0001:00022990       ?_GetEntries@?$CComEnum@UIEnumConnections@@$1?_GUID_b196b287_bab4_101a_b69c_00aa00341d07@@3U__s_GUID@@BUtagCONNECTDATA@@V?$_Copy@UtagCONNECTDATA@@@ATL@@VCComSingleThreadModel@6@@ATL@@SGPBU_ATL_INTMAP_ENTRY@2@XZ 10023990 f i ElectronicValueRW.obj
 0001:000229b0       ?_GetEntries@CComClassFactory@ATL@@SGPBU_ATL_INTMAP_ENTRY@2@XZ 100239b0 f i ElectronicValueRW.obj
 0001:000229d0       ?_GetEntries@COPOSElectronicValueRW@@SGPBU_ATL_INTMAP_ENTRY@ATL@@XZ 100239d0 f i ElectronicValueRW.obj
 0001:000229f0       ?_GetRawUnknown@COPOSElectronicValueRW@@QAEPAUIUnknown@@XZ 100239f0 f i ElectronicValueRW.obj
 0001:00022a60       ?_GetViewStatus@COPOSElectronicValueRW@@QAEKXZ 10023a60 f i ElectronicValueRW.obj
 0001:00022a80       ?_InternalQueryInterface@?$CComEnum@UIEnumConnectionPoints@@$1?_GUID_b196b285_bab4_101a_b69c_00aa00341d07@@3U__s_GUID@@BPAUIConnectionPoint@@V?$_CopyInterface@UIConnectionPoint@@@ATL@@VCComSingleThreadModel@6@@ATL@@QAEJABU_GUID@@PAPAX@Z 10023a80 f i ElectronicValueRW.obj
 0001:00022ac0       ?_InternalQueryInterface@?$CComEnum@UIEnumConnections@@$1?_GUID_b196b287_bab4_101a_b69c_00aa00341d07@@3U__s_GUID@@BUtagCONNECTDATA@@V?$_Copy@UtagCONNECTDATA@@@ATL@@VCComSingleThreadModel@6@@ATL@@QAEJABU_GUID@@PAPAX@Z 10023ac0 f i ElectronicValueRW.obj
 0001:00022b00       ?_InternalQueryInterface@CComClassFactory@ATL@@QAEJABU_GUID@@PAPAX@Z 10023b00 f i ElectronicValueRW.obj
 0001:00022b40       ?_InternalQueryInterface@COPOSElectronicValueRW@@QAEJABU_GUID@@PAPAX@Z 10023b40 f i ElectronicValueRW.obj
 0001:00022b80       ?_LocCPQueryInterface@?$IConnectionPointImpl@VCOPOSElectronicValueRW@@$1?DIID__IOPOSElectronicValueRWEvents@@3U_GUID@@BVCComDynamicUnkArray@ATL@@@ATL@@UAGJABU_GUID@@PAPAX@Z 10023b80 f i ElectronicValueRW.obj
 0001:00022c20       ?_LocCPQueryInterface@?$IConnectionPointImpl@VCOPOSElectronicValueRW@@$1?IID_IPropertyNotifySink@@3U_GUID@@BVCComDynamicUnkArray@ATL@@@ATL@@UAGJABU_GUID@@PAPAX@Z 10023c20 f i ElectronicValueRW.obj
 0001:00022cc0       ?atlCreate@?$CWindowImpl@VCOPOSElectronicValueRW@@VCWindow@ATL@@V?$CWinTraits@$0FGAAAAAA@$0A@@3@@ATL@@QAEPAUHWND__@@PAU3@V_U_RECT@2@PB_WKKV_U_MENUorID@2@PAX@Z 10023cc0 f i ElectronicValueRW.obj
 0001:00022d70       ?atlCreate@?$CWindowImplBaseT@VCWindow@ATL@@V?$CWinTraits@$0FGAAAAAA@$0A@@2@@ATL@@QAEPAUHWND__@@PAU3@V_U_RECT@2@PB_WKKV_U_MENUorID@2@GPAX@Z 10023d70 f i ElectronicValueRW.obj
 0001:00022ef0       ?atlCreate@CRegKey@ATL@@QAEJPAUHKEY__@@PB_WPA_WKKPAU_SECURITY_ATTRIBUTES@@PAK@Z 10023ef0 f i ElectronicValueRW.obj
 0001:00023050       ?begin@CComDynamicUnkArray@ATL@@QAEPAPAUIUnknown@@XZ 10024050 f i ElectronicValueRW.obj
 0001:00023070       ?copy@?$_Copy@UtagCONNECTDATA@@@ATL@@SAJPAUtagCONNECTDATA@@PBU3@@Z 10024070 f i ElectronicValueRW.obj
 0001:00023130       ?copy@?$_CopyInterface@UIConnectionPoint@@@ATL@@SAJPAPAUIConnectionPoint@@PBQAU3@@Z 10024130 f i ElectronicValueRW.obj
 0001:000231f0       ?destroy@?$_Copy@UtagCONNECTDATA@@@ATL@@SAXPAUtagCONNECTDATA@@@Z 100241f0 f i ElectronicValueRW.obj
 0001:00023230       ?destroy@?$_CopyInterface@UIConnectionPoint@@@ATL@@SAXPAPAUIConnectionPoint@@@Z 10024230 f i ElectronicValueRW.obj
 0001:00023270       ?end@CComDynamicUnkArray@ATL@@QAEPAPAUIUnknown@@XZ 10024270 f i ElectronicValueRW.obj
 0001:00023290       ?init@?$_Copy@UtagCONNECTDATA@@@ATL@@SAXPAUtagCONNECTDATA@@@Z 10024290 f i ElectronicValueRW.obj
 0001:000232a0       ?init@?$_CopyInterface@UIConnectionPoint@@@ATL@@SAXPAPAUIConnectionPoint@@@Z 100242a0 f i ElectronicValueRW.obj
 0001:000232b0       ?memcpy_s@Checked@ATL@@YAXPAXIPBXI@Z 100242b0 f i ElectronicValueRW.obj
 0001:000232e0       ?ocscpy_s@@YA_NPA_WIPB_W@Z 100242e0 f i ElectronicValueRW.obj
 0001:00023340       ?ocslen@@YAHPB_W@Z         10024340 f i ElectronicValueRW.obj
 0001:00023370       ?tcsncpy_s@Checked@ATL@@YAHPA_WIPB_WI@Z 10024370 f i ElectronicValueRW.obj
 0001:000233a0       ?wcscat_s@Checked@ATL@@YAXPA_WIPB_W@Z 100243a0 f i ElectronicValueRW.obj
 0001:000233d0       ?wcscpy_s@Checked@ATL@@YAXPA_WIPB_W@Z 100243d0 f i ElectronicValueRW.obj
 0001:00023400       ?wcsncpy_s@Checked@ATL@@YAHPA_WIPB_WI@Z 10024400 f i ElectronicValueRW.obj
 0001:00023430       ?wcsstr@@YAPA_WPA_WPB_W@Z  10024430 f i ElectronicValueRW.obj
 0001:00023450       _InlineIsEqualGUID         10024450 f i ElectronicValueRW.obj
 0001:000234f0       _IsEqualGUID               100244f0 f i ElectronicValueRW.obj
 0001:00023540       ??0COPOSElectronicValueRW@@QAE@XZ 10024540 f   ElectronicValueRWImpl.obj
 0001:00023650       ?FinalConstruct@COPOSElectronicValueRW@@QAEJXZ 10024650 f   ElectronicValueRWImpl.obj
 0001:00023720       ??1COPOSElectronicValueRW@@UAE@XZ 10024720 f   ElectronicValueRWImpl.obj
 0001:00023800       ?WriteTrace@COPOSElectronicValueRW@@QAAXPB_WZZ 10024800 f   ElectronicValueRWImpl.obj
 0001:000238b0       ?WriteTraceString@COPOSElectronicValueRW@@QAEXPB_WPA_W@Z 100248b0 f   ElectronicValueRWImpl.obj
 0001:00023c20       ?WriteTraceString@COPOSElectronicValueRW@@QAAXPAXHHHPB_WZZ 10024c20 f   ElectronicValueRWImpl.obj
 0001:00023e50       ?WriteTraceError@COPOSElectronicValueRW@@QAEXPB_WK@Z 10024e50 f   ElectronicValueRWImpl.obj
 0001:00023f40       ?WriteTraceMethods@COPOSElectronicValueRW@@QAEXPAJH@Z 10024f40 f   ElectronicValueRWImpl.obj
 0001:00023fb0       ?FormatCurrency@COPOSElectronicValueRW@@QAEPB_WTtagCY@@@Z 10024fb0 f   ElectronicValueRWImpl.obj
 0001:000240d0       ?GetOposProp@COPOSElectronicValueRW@@IAEJPBDJPAJJ@Z 100250d0 f   ElectronicValueRWImpl.obj
 0001:00024340       ?SetOposProp@COPOSElectronicValueRW@@IAEJPBDJJJ@Z 10025340 f   ElectronicValueRWImpl.obj
 0001:000245d0       ?GetOposProp@COPOSElectronicValueRW@@IAEJPBDJPAFJ@Z 100255d0 f   ElectronicValueRWImpl.obj
 0001:00024670       ?SetOposProp@COPOSElectronicValueRW@@IAEJPBDJFJ@Z 10025670 f   ElectronicValueRWImpl.obj
 0001:000246d0       ?GetOposProp@COPOSElectronicValueRW@@IAEJPBDJPAPA_WJ@Z 100256d0 f   ElectronicValueRWImpl.obj
 0001:00024950       ?SetOposProp@COPOSElectronicValueRW@@IAEJPBDJPA_WJ@Z 10025950 f   ElectronicValueRWImpl.obj
 0001:00024c90       ?DoInvoke@COPOSElectronicValueRW@@IAEJPBDJPAVOposVariant@@IHPAJ_N@Z 10025c90 f   ElectronicValueRWImpl.obj
 0001:000256a0       ?SetCOFreezeEvents@COPOSElectronicValueRW@@IAEXF@Z 100266a0 f   ElectronicValueRWImpl.obj
 0001:000257e0       ?FreezeEvents@COPOSElectronicValueRW@@MAGJH@Z 100267e0 f   ElectronicValueRWImpl.obj
 0001:000258c0       ?OnDraw@COPOSElectronicValueRW@@MAEJAAUATL_DRAWINFO@@@Z 100268c0 f   ElectronicValueRWImpl.obj
 0001:00025a60       ?SOProcessID@COPOSElectronicValueRW@@UAGJPAJ@Z 10026a60 f   ElectronicValueRWImpl.obj
 0001:00025aa0       ?get_OpenResult@COPOSElectronicValueRW@@UAGJPAJ@Z 10026aa0 f   ElectronicValueRWImpl.obj
 0001:00025ae0       ?get_AutoDisable@COPOSElectronicValueRW@@UAGJPAF@Z 10026ae0 f   ElectronicValueRWImpl.obj
 0001:00025b10       ?put_AutoDisable@COPOSElectronicValueRW@@UAGJF@Z 10026b10 f   ElectronicValueRWImpl.obj
 0001:00025b40       ?get_BinaryConversion@COPOSElectronicValueRW@@UAGJPAJ@Z 10026b40 f   ElectronicValueRWImpl.obj
 0001:00025b70       ?put_BinaryConversion@COPOSElectronicValueRW@@UAGJJ@Z 10026b70 f   ElectronicValueRWImpl.obj
 0001:00025ba0       ?get_CapPowerReporting@COPOSElectronicValueRW@@UAGJPAJ@Z 10026ba0 f   ElectronicValueRWImpl.obj
 0001:00025bd0       ?get_CheckHealthText@COPOSElectronicValueRW@@UAGJPAPA_W@Z 10026bd0 f   ElectronicValueRWImpl.obj
 0001:00025c00       ?get_Claimed@COPOSElectronicValueRW@@UAGJPAF@Z 10026c00 f   ElectronicValueRWImpl.obj
 0001:00025c30       ?get_DataCount@COPOSElectronicValueRW@@UAGJPAJ@Z 10026c30 f   ElectronicValueRWImpl.obj
 0001:00025c60       ?get_DataEventEnabled@COPOSElectronicValueRW@@UAGJPAF@Z 10026c60 f   ElectronicValueRWImpl.obj
 0001:00025c90       ?put_DataEventEnabled@COPOSElectronicValueRW@@UAGJF@Z 10026c90 f   ElectronicValueRWImpl.obj
 0001:00025cc0       ?get_DeviceEnabled@COPOSElectronicValueRW@@UAGJPAF@Z 10026cc0 f   ElectronicValueRWImpl.obj
 0001:00025cf0       ?put_DeviceEnabled@COPOSElectronicValueRW@@UAGJF@Z 10026cf0 f   ElectronicValueRWImpl.obj
 0001:00025d20       ?get_FreezeEvents@COPOSElectronicValueRW@@UAGJPAF@Z 10026d20 f   ElectronicValueRWImpl.obj
 0001:00025d50       ?put_FreezeEvents@COPOSElectronicValueRW@@UAGJF@Z 10026d50 f   ElectronicValueRWImpl.obj
 0001:00025de0       ?get_OutputID@COPOSElectronicValueRW@@UAGJPAJ@Z 10026de0 f   ElectronicValueRWImpl.obj
 0001:00025e10       ?get_PowerNotify@COPOSElectronicValueRW@@UAGJPAJ@Z 10026e10 f   ElectronicValueRWImpl.obj
 0001:00025e40       ?put_PowerNotify@COPOSElectronicValueRW@@UAGJJ@Z 10026e40 f   ElectronicValueRWImpl.obj
 0001:00025e70       ?get_PowerState@COPOSElectronicValueRW@@UAGJPAJ@Z 10026e70 f   ElectronicValueRWImpl.obj
 0001:00025ea0       ?get_ResultCode@COPOSElectronicValueRW@@UAGJPAJ@Z 10026ea0 f   ElectronicValueRWImpl.obj
 0001:00025f30       ?get_ResultCodeExtended@COPOSElectronicValueRW@@UAGJPAJ@Z 10026f30 f   ElectronicValueRWImpl.obj
 0001:00025f60       ?get_State@COPOSElectronicValueRW@@UAGJPAJ@Z 10026f60 f   ElectronicValueRWImpl.obj
 0001:00025fb0       ?get_ControlObjectDescription@COPOSElectronicValueRW@@UAGJPAPA_W@Z 10026fb0 f   ElectronicValueRWImpl.obj
 0001:00026030       ?get_ControlObjectVersion@COPOSElectronicValueRW@@UAGJPAJ@Z 10027030 f   ElectronicValueRWImpl.obj
 0001:00026070       ?get_ServiceObjectDescription@COPOSElectronicValueRW@@UAGJPAPA_W@Z 10027070 f   ElectronicValueRWImpl.obj
 0001:000260a0       ?get_ServiceObjectVersion@COPOSElectronicValueRW@@UAGJPAJ@Z 100270a0 f   ElectronicValueRWImpl.obj
 0001:000260d0       ?get_DeviceDescription@COPOSElectronicValueRW@@UAGJPAPA_W@Z 100270d0 f   ElectronicValueRWImpl.obj
 0001:00026100       ?get_DeviceName@COPOSElectronicValueRW@@UAGJPAPA_W@Z 10027100 f   ElectronicValueRWImpl.obj
 0001:00026130       ?get_CapStatisticsReporting@COPOSElectronicValueRW@@UAGJPAF@Z 10027130 f   ElectronicValueRWImpl.obj
 0001:00026160       ?get_CapUpdateStatistics@COPOSElectronicValueRW@@UAGJPAF@Z 10027160 f   ElectronicValueRWImpl.obj
 0001:00026190       ?get_CapCompareFirmwareVersion@COPOSElectronicValueRW@@UAGJPAF@Z 10027190 f   ElectronicValueRWImpl.obj
 0001:000261c0       ?get_CapUpdateFirmware@COPOSElectronicValueRW@@UAGJPAF@Z 100271c0 f   ElectronicValueRWImpl.obj
 0001:000261f0       ?CheckHealth@COPOSElectronicValueRW@@UAGJJPAJ@Z 100271f0 f   ElectronicValueRWImpl.obj
 0001:00026290       ?ClaimDevice@COPOSElectronicValueRW@@UAGJJPAJ@Z 10027290 f   ElectronicValueRWImpl.obj
 0001:00026370       ?ClearInput@COPOSElectronicValueRW@@UAGJPAJ@Z 10027370 f   ElectronicValueRWImpl.obj
 0001:000263a0       ?ClearOutput@COPOSElectronicValueRW@@UAGJPAJ@Z 100273a0 f   ElectronicValueRWImpl.obj
 0001:000263d0       ?Close@COPOSElectronicValueRW@@UAGJPAJ@Z 100273d0 f   ElectronicValueRWImpl.obj
 0001:000264a0       ?DirectIO@COPOSElectronicValueRW@@UAGJJPAJPAPA_W0@Z 100274a0 f   ElectronicValueRWImpl.obj
 0001:000265b0       ?Open@COPOSElectronicValueRW@@UAGJPA_WPAJ@Z 100275b0 f   ElectronicValueRWImpl.obj
 0001:000277c0       ?ReleaseDevice@COPOSElectronicValueRW@@UAGJPAJ@Z 100287c0 f   ElectronicValueRWImpl.obj
 0001:00027830       ?ResetStatistics@COPOSElectronicValueRW@@UAGJPA_WPAJ@Z 10028830 f   ElectronicValueRWImpl.obj
 0001:000278e0       ?RetrieveStatistics@COPOSElectronicValueRW@@UAGJPAPA_WPAJ@Z 100288e0 f   ElectronicValueRWImpl.obj
 0001:00027990       ?UpdateStatistics@COPOSElectronicValueRW@@UAGJPA_WPAJ@Z 10028990 f   ElectronicValueRWImpl.obj
 0001:00027a40       ?CompareFirmwareVersion@COPOSElectronicValueRW@@UAGJPA_WPAJ1@Z 10028a40 f   ElectronicValueRWImpl.obj
 0001:00027b30       ?UpdateFirmware@COPOSElectronicValueRW@@UAGJPA_WPAJ@Z 10028b30 f   ElectronicValueRWImpl.obj
 0001:00027be0       ?ClearInputProperties@COPOSElectronicValueRW@@UAGJPAJ@Z 10028be0 f   ElectronicValueRWImpl.obj
 0001:00027c10       ?get_AccountNumber@COPOSElectronicValueRW@@UAGJPAPA_W@Z 10028c10 f   ElectronicValueRWImpl.obj
 0001:00027c40       ?get_AdditionalSecurityInformation@COPOSElectronicValueRW@@UAGJPAPA_W@Z 10028c40 f   ElectronicValueRWImpl.obj
 0001:00027c70       ?put_AdditionalSecurityInformation@COPOSElectronicValueRW@@UAGJPA_W@Z 10028c70 f   ElectronicValueRWImpl.obj
 0001:00027ca0       ?get_Amount@COPOSElectronicValueRW@@UAGJPATtagCY@@@Z 10028ca0 f   ElectronicValueRWImpl.obj
 0001:00027e90       ?put_Amount@COPOSElectronicValueRW@@UAGJTtagCY@@@Z 10028e90 f   ElectronicValueRWImpl.obj
 0001:00028080       ?get_ApprovalCode@COPOSElectronicValueRW@@UAGJPAPA_W@Z 10029080 f   ElectronicValueRWImpl.obj
 0001:000280b0       ?put_ApprovalCode@COPOSElectronicValueRW@@UAGJPA_W@Z 100290b0 f   ElectronicValueRWImpl.obj
 0001:000280e0       ?get_AsyncMode@COPOSElectronicValueRW@@UAGJPAF@Z 100290e0 f   ElectronicValueRWImpl.obj
 0001:00028110       ?put_AsyncMode@COPOSElectronicValueRW@@UAGJF@Z 10029110 f   ElectronicValueRWImpl.obj
 0001:00028140       ?get_Balance@COPOSElectronicValueRW@@UAGJPATtagCY@@@Z 10029140 f   ElectronicValueRWImpl.obj
 0001:00028330       ?get_BalanceOfPoint@COPOSElectronicValueRW@@UAGJPATtagCY@@@Z 10029330 f   ElectronicValueRWImpl.obj
 0001:00028520       ?get_CapActivateService@COPOSElectronicValueRW@@UAGJPAF@Z 10029520 f   ElectronicValueRWImpl.obj
 0001:00028550       ?get_CapAddValue@COPOSElectronicValueRW@@UAGJPAF@Z 10029550 f   ElectronicValueRWImpl.obj
 0001:00028580       ?get_CapCancelValue@COPOSElectronicValueRW@@UAGJPAF@Z 10029580 f   ElectronicValueRWImpl.obj
 0001:000285b0       ?get_CapCardSensor@COPOSElectronicValueRW@@UAGJPAJ@Z 100295b0 f   ElectronicValueRWImpl.obj
 0001:000285e0       ?get_CapDetectionControl@COPOSElectronicValueRW@@UAGJPAJ@Z 100295e0 f   ElectronicValueRWImpl.obj
 0001:00028610       ?get_CapElectronicMoney@COPOSElectronicValueRW@@UAGJPAF@Z 10029610 f   ElectronicValueRWImpl.obj
 0001:00028640       ?get_CapEnumerateCardServices@COPOSElectronicValueRW@@UAGJPAF@Z 10029640 f   ElectronicValueRWImpl.obj
 0001:00028670       ?get_CapIndirectTransactionLog@COPOSElectronicValueRW@@UAGJPAF@Z 10029670 f   ElectronicValueRWImpl.obj
 0001:000286a0       ?get_CapLockTerminal@COPOSElectronicValueRW@@UAGJPAF@Z 100296a0 f   ElectronicValueRWImpl.obj
 0001:000286d0       ?get_CapLogStatus@COPOSElectronicValueRW@@UAGJPAF@Z 100296d0 f   ElectronicValueRWImpl.obj
 0001:00028700       ?get_CapMediumID@COPOSElectronicValueRW@@UAGJPAF@Z 10029700 f   ElectronicValueRWImpl.obj
 0001:00028730       ?get_CapPoint@COPOSElectronicValueRW@@UAGJPAF@Z 10029730 f   ElectronicValueRWImpl.obj
 0001:00028760       ?get_CapSubtractValue@COPOSElectronicValueRW@@UAGJPAF@Z 10029760 f   ElectronicValueRWImpl.obj
 0001:00028790       ?get_CapTransaction@COPOSElectronicValueRW@@UAGJPAF@Z 10029790 f   ElectronicValueRWImpl.obj
 0001:000287c0       ?get_CapTransactionLog@COPOSElectronicValueRW@@UAGJPAF@Z 100297c0 f   ElectronicValueRWImpl.obj
 0001:000287f0       ?get_CapUnlockTerminal@COPOSElectronicValueRW@@UAGJPAF@Z 100297f0 f   ElectronicValueRWImpl.obj
 0001:00028820       ?get_CapUpdateKey@COPOSElectronicValueRW@@UAGJPAF@Z 10029820 f   ElectronicValueRWImpl.obj
 0001:00028850       ?get_CapVoucher@COPOSElectronicValueRW@@UAGJPAF@Z 10029850 f   ElectronicValueRWImpl.obj
 0001:00028880       ?get_CapWriteValue@COPOSElectronicValueRW@@UAGJPAF@Z 10029880 f   ElectronicValueRWImpl.obj
 0001:000288b0       ?get_CardServiceList@COPOSElectronicValueRW@@UAGJPAPA_W@Z 100298b0 f   ElectronicValueRWImpl.obj
 0001:000288e0       ?get_CurrentService@COPOSElectronicValueRW@@UAGJPAPA_W@Z 100298e0 f   ElectronicValueRWImpl.obj
 0001:00028910       ?put_CurrentService@COPOSElectronicValueRW@@UAGJPA_W@Z 10029910 f   ElectronicValueRWImpl.obj
 0001:00028940       ?get_DetectionControl@COPOSElectronicValueRW@@UAGJPAF@Z 10029940 f   ElectronicValueRWImpl.obj
 0001:00028970       ?put_DetectionControl@COPOSElectronicValueRW@@UAGJF@Z 10029970 f   ElectronicValueRWImpl.obj
 0001:000289a0       ?get_DetectionStatus@COPOSElectronicValueRW@@UAGJPAJ@Z 100299a0 f   ElectronicValueRWImpl.obj
 0001:000289d0       ?get_ExpirationDate@COPOSElectronicValueRW@@UAGJPAPA_W@Z 100299d0 f   ElectronicValueRWImpl.obj
 0001:00028a00       ?get_LastUsedDate@COPOSElectronicValueRW@@UAGJPAPA_W@Z 10029a00 f   ElectronicValueRWImpl.obj
 0001:00028a30       ?get_LogStatus@COPOSElectronicValueRW@@UAGJPAJ@Z 10029a30 f   ElectronicValueRWImpl.obj
 0001:00028a60       ?get_MediumID@COPOSElectronicValueRW@@UAGJPAPA_W@Z 10029a60 f   ElectronicValueRWImpl.obj
 0001:00028a90       ?put_MediumID@COPOSElectronicValueRW@@UAGJPA_W@Z 10029a90 f   ElectronicValueRWImpl.obj
 0001:00028ac0       ?get_Point@COPOSElectronicValueRW@@UAGJPATtagCY@@@Z 10029ac0 f   ElectronicValueRWImpl.obj
 0001:00028cb0       ?put_Point@COPOSElectronicValueRW@@UAGJTtagCY@@@Z 10029cb0 f   ElectronicValueRWImpl.obj
 0001:00028ea0       ?get_ReaderWriterServiceList@COPOSElectronicValueRW@@UAGJPAPA_W@Z 10029ea0 f   ElectronicValueRWImpl.obj
 0001:00028ed0       ?get_SequenceNumber@COPOSElectronicValueRW@@UAGJPAJ@Z 10029ed0 f   ElectronicValueRWImpl.obj
 0001:00028f00       ?get_SettledAmount@COPOSElectronicValueRW@@UAGJPATtagCY@@@Z 10029f00 f   ElectronicValueRWImpl.obj
 0001:000290f0       ?get_SettledPoint@COPOSElectronicValueRW@@UAGJPATtagCY@@@Z 1002a0f0 f   ElectronicValueRWImpl.obj
 0001:000292e0       ?get_TransactionLog@COPOSElectronicValueRW@@UAGJPAPA_W@Z 1002a2e0 f   ElectronicValueRWImpl.obj
 0001:00029310       ?get_VoucherID@COPOSElectronicValueRW@@UAGJPAPA_W@Z 1002a310 f   ElectronicValueRWImpl.obj
 0001:00029340       ?put_VoucherID@COPOSElectronicValueRW@@UAGJPA_W@Z 1002a340 f   ElectronicValueRWImpl.obj
 0001:00029370       ?get_VoucherIDList@COPOSElectronicValueRW@@UAGJPAPA_W@Z 1002a370 f   ElectronicValueRWImpl.obj
 0001:000293a0       ?put_VoucherIDList@COPOSElectronicValueRW@@UAGJPA_W@Z 1002a3a0 f   ElectronicValueRWImpl.obj
 0001:000293d0       ?AccessLog@COPOSElectronicValueRW@@UAGJJJJPAJ@Z 1002a3d0 f   ElectronicValueRWImpl.obj
 0001:000294c0       ?ActivateService@COPOSElectronicValueRW@@UAGJPAJPAPA_W0@Z 1002a4c0 f   ElectronicValueRWImpl.obj
 0001:000295b0       ?AddValue@COPOSElectronicValueRW@@UAGJJJPAJ@Z 1002a5b0 f   ElectronicValueRWImpl.obj
 0001:00029680       ?BeginDetection@COPOSElectronicValueRW@@UAGJJJPAJ@Z 1002a680 f   ElectronicValueRWImpl.obj
 0001:00029750       ?BeginRemoval@COPOSElectronicValueRW@@UAGJJPAJ@Z 1002a750 f   ElectronicValueRWImpl.obj
 0001:000297f0       ?CancelValue@COPOSElectronicValueRW@@UAGJJJPAJ@Z 1002a7f0 f   ElectronicValueRWImpl.obj
 0001:000298c0       ?CaptureCard@COPOSElectronicValueRW@@UAGJPAJ@Z 1002a8c0 f   ElectronicValueRWImpl.obj
 0001:000298f0       ?EndDetection@COPOSElectronicValueRW@@UAGJPAJ@Z 1002a8f0 f   ElectronicValueRWImpl.obj
 0001:00029920       ?EndRemoval@COPOSElectronicValueRW@@UAGJPAJ@Z 1002a920 f   ElectronicValueRWImpl.obj
 0001:00029950       ?EnumerateCardServices@COPOSElectronicValueRW@@UAGJPAJ@Z 1002a950 f   ElectronicValueRWImpl.obj
 0001:00029980       ?LockTerminal@COPOSElectronicValueRW@@UAGJPAJ@Z 1002a980 f   ElectronicValueRWImpl.obj
 0001:000299b0       ?ReadValue@COPOSElectronicValueRW@@UAGJJJPAJ@Z 1002a9b0 f   ElectronicValueRWImpl.obj
 0001:00029a80       ?SubtractValue@COPOSElectronicValueRW@@UAGJJJPAJ@Z 1002aa80 f   ElectronicValueRWImpl.obj
 0001:00029b50       ?TransactionAccess@COPOSElectronicValueRW@@UAGJJPAJ@Z 1002ab50 f   ElectronicValueRWImpl.obj
 0001:00029bf0       ?UnlockTerminal@COPOSElectronicValueRW@@UAGJPAJ@Z 1002abf0 f   ElectronicValueRWImpl.obj
 0001:00029c20       ?UpdateKey@COPOSElectronicValueRW@@UAGJPAJPAPA_W0@Z 1002ac20 f   ElectronicValueRWImpl.obj
 0001:00029d10       ?WriteValue@COPOSElectronicValueRW@@UAGJJJPAJ@Z 1002ad10 f   ElectronicValueRWImpl.obj
 0001:00029de0       ?get_CapPINDevice@COPOSElectronicValueRW@@UAGJPAF@Z 1002ade0 f   ElectronicValueRWImpl.obj
 0001:00029e10       ?get_CapTrainingMode@COPOSElectronicValueRW@@UAGJPAF@Z 1002ae10 f   ElectronicValueRWImpl.obj
 0001:00029e40       ?get_PINEntry@COPOSElectronicValueRW@@UAGJPAJ@Z 1002ae40 f   ElectronicValueRWImpl.obj
 0001:00029e70       ?put_PINEntry@COPOSElectronicValueRW@@UAGJJ@Z 1002ae70 f   ElectronicValueRWImpl.obj
 0001:00029ea0       ?get_TrainingModeState@COPOSElectronicValueRW@@UAGJPAJ@Z 1002aea0 f   ElectronicValueRWImpl.obj
 0001:00029ed0       ?put_TrainingModeState@COPOSElectronicValueRW@@UAGJJ@Z 1002aed0 f   ElectronicValueRWImpl.obj
 0001:00029f00       ?ClearParameterInformation@COPOSElectronicValueRW@@UAGJPAJ@Z 1002af00 f   ElectronicValueRWImpl.obj
 0001:00029f30       ?QueryLastSuccessfulTransactionResult@COPOSElectronicValueRW@@UAGJPAJ@Z 1002af30 f   ElectronicValueRWImpl.obj
 0001:00029f60       ?RetrieveResultInformation@COPOSElectronicValueRW@@UAGJPA_WPAPA_WPAJ@Z 1002af60 f   ElectronicValueRWImpl.obj
 0001:0002a050       ?SetParameterInformation@COPOSElectronicValueRW@@UAGJPA_W0PAJ@Z 1002b050 f   ElectronicValueRWImpl.obj
 0001:0002a140       ?get_CapMembershipCertificate@COPOSElectronicValueRW@@UAGJPAF@Z 1002b140 f   ElectronicValueRWImpl.obj
 0001:0002a170       ?get_ServiceType@COPOSElectronicValueRW@@UAGJPAJ@Z 1002b170 f   ElectronicValueRWImpl.obj
 0001:0002a1a0       ?AccessData@COPOSElectronicValueRW@@UAGJJPAJPAPA_W0@Z 1002b1a0 f   ElectronicValueRWImpl.obj
 0001:0002a2b0       ?ActivateEVService@COPOSElectronicValueRW@@UAGJPAJPAPA_W0@Z 1002b2b0 f   ElectronicValueRWImpl.obj
 0001:0002a3a0       ?CheckServiceRegistrationToMedium@COPOSElectronicValueRW@@UAGJJJPAJ@Z 1002b3a0 f   ElectronicValueRWImpl.obj
 0001:0002a470       ?CloseDailyEVService@COPOSElectronicValueRW@@UAGJPAJPAPA_W0@Z 1002b470 f   ElectronicValueRWImpl.obj
 0001:0002a560       ?DeactivateEVService@COPOSElectronicValueRW@@UAGJPAJPAPA_W0@Z 1002b560 f   ElectronicValueRWImpl.obj
 0001:0002a650       ?OpenDailyEVService@COPOSElectronicValueRW@@UAGJPAJPAPA_W0@Z 1002b650 f   ElectronicValueRWImpl.obj
 0001:0002a740       ?RegisterServiceToMedium@COPOSElectronicValueRW@@UAGJJJPAJ@Z 1002b740 f   ElectronicValueRWImpl.obj
 0001:0002a810       ?UnregisterServiceToMedium@COPOSElectronicValueRW@@UAGJJJPAJ@Z 1002b810 f   ElectronicValueRWImpl.obj
 0001:0002a8e0       ?UpdateData@COPOSElectronicValueRW@@UAGJJPAJPAPA_W0@Z 1002b8e0 f   ElectronicValueRWImpl.obj
 0001:0002a9f0       ?get_CapAdditionalSecurityInformation@COPOSElectronicValueRW@@UAGJPAF@Z 1002b9f0 f   ElectronicValueRWImpl.obj
 0001:0002aa20       ?get_CapAuthorizeCompletion@COPOSElectronicValueRW@@UAGJPAF@Z 1002ba20 f   ElectronicValueRWImpl.obj
 0001:0002aa50       ?get_CapAuthorizePreSales@COPOSElectronicValueRW@@UAGJPAF@Z 1002ba50 f   ElectronicValueRWImpl.obj
 0001:0002aa80       ?get_CapAuthorizeRefund@COPOSElectronicValueRW@@UAGJPAF@Z 1002ba80 f   ElectronicValueRWImpl.obj
 0001:0002aab0       ?get_CapAuthorizeVoid@COPOSElectronicValueRW@@UAGJPAF@Z 1002bab0 f   ElectronicValueRWImpl.obj
 0001:0002aae0       ?get_CapAuthorizeVoidPreSales@COPOSElectronicValueRW@@UAGJPAF@Z 1002bae0 f   ElectronicValueRWImpl.obj
 0001:0002ab10       ?get_CapCashDeposit@COPOSElectronicValueRW@@UAGJPAF@Z 1002bb10 f   ElectronicValueRWImpl.obj
 0001:0002ab40       ?get_CapCenterResultCode@COPOSElectronicValueRW@@UAGJPAF@Z 1002bb40 f   ElectronicValueRWImpl.obj
 0001:0002ab70       ?get_CapCheckCard@COPOSElectronicValueRW@@UAGJPAF@Z 1002bb70 f   ElectronicValueRWImpl.obj
 0001:0002aba0       ?get_CapDailyLog@COPOSElectronicValueRW@@UAGJPAJ@Z 1002bba0 f   ElectronicValueRWImpl.obj
 0001:0002abd0       ?get_CapInstallments@COPOSElectronicValueRW@@UAGJPAF@Z 1002bbd0 f   ElectronicValueRWImpl.obj
 0001:0002ac00       ?get_CapPaymentDetail@COPOSElectronicValueRW@@UAGJPAF@Z 1002bc00 f   ElectronicValueRWImpl.obj
 0001:0002ac30       ?get_CapTaxOthers@COPOSElectronicValueRW@@UAGJPAF@Z 1002bc30 f   ElectronicValueRWImpl.obj
 0001:0002ac60       ?get_CapTransactionNumber@COPOSElectronicValueRW@@UAGJPAF@Z 1002bc60 f   ElectronicValueRWImpl.obj
 0001:0002ac90       ?get_CardCompanyID@COPOSElectronicValueRW@@UAGJPAPA_W@Z 1002bc90 f   ElectronicValueRWImpl.obj
 0001:0002acc0       ?get_CenterResultCode@COPOSElectronicValueRW@@UAGJPAPA_W@Z 1002bcc0 f   ElectronicValueRWImpl.obj
 0001:0002acf0       ?get_DailyLog@COPOSElectronicValueRW@@UAGJPAPA_W@Z 1002bcf0 f   ElectronicValueRWImpl.obj
 0001:0002ad20       ?get_PaymentCondition@COPOSElectronicValueRW@@UAGJPAJ@Z 1002bd20 f   ElectronicValueRWImpl.obj
 0001:0002ad50       ?get_PaymentDetail@COPOSElectronicValueRW@@UAGJPAPA_W@Z 1002bd50 f   ElectronicValueRWImpl.obj
 0001:0002ad80       ?get_SlipNumber@COPOSElectronicValueRW@@UAGJPAPA_W@Z 1002bd80 f   ElectronicValueRWImpl.obj
 0001:0002adb0       ?get_PaymentMedia@COPOSElectronicValueRW@@UAGJPAJ@Z 1002bdb0 f   ElectronicValueRWImpl.obj
 0001:0002ade0       ?put_PaymentMedia@COPOSElectronicValueRW@@UAGJJ@Z 1002bde0 f   ElectronicValueRWImpl.obj
 0001:0002ae10       ?get_TransactionNumber@COPOSElectronicValueRW@@UAGJPAPA_W@Z 1002be10 f   ElectronicValueRWImpl.obj
 0001:0002ae40       ?get_TransactionType@COPOSElectronicValueRW@@UAGJPAJ@Z 1002be40 f   ElectronicValueRWImpl.obj
 0001:0002ae70       ?AccessDailyLog@COPOSElectronicValueRW@@UAGJJJJPAJ@Z 1002be70 f   ElectronicValueRWImpl.obj
 0001:0002af60       ?AuthorizeCompletion@COPOSElectronicValueRW@@UAGJJTtagCY@@0JPAJ@Z 1002bf60 f   ElectronicValueRWImpl.obj
 0001:0002b070       ?AuthorizePreSales@COPOSElectronicValueRW@@UAGJJTtagCY@@0JPAJ@Z 1002c070 f   ElectronicValueRWImpl.obj
 0001:0002b180       ?AuthorizeRefund@COPOSElectronicValueRW@@UAGJJTtagCY@@0JPAJ@Z 1002c180 f   ElectronicValueRWImpl.obj
 0001:0002b290       ?AuthorizeSales@COPOSElectronicValueRW@@UAGJJTtagCY@@0JPAJ@Z 1002c290 f   ElectronicValueRWImpl.obj
 0001:0002b3a0       ?AuthorizeVoid@COPOSElectronicValueRW@@UAGJJTtagCY@@0JPAJ@Z 1002c3a0 f   ElectronicValueRWImpl.obj
 0001:0002b4b0       ?AuthorizeVoidPreSales@COPOSElectronicValueRW@@UAGJJTtagCY@@0JPAJ@Z 1002c4b0 f   ElectronicValueRWImpl.obj
 0001:0002b5c0       ?CashDeposit@COPOSElectronicValueRW@@UAGJJTtagCY@@JPAJ@Z 1002c5c0 f   ElectronicValueRWImpl.obj
 0001:0002b6c0       ?CheckCard@COPOSElectronicValueRW@@UAGJJJPAJ@Z 1002c6c0 f   ElectronicValueRWImpl.obj
 0001:0002b790       ??0?$CComControl@VCOPOSElectronicValueRW@@V?$CWindowImpl@VCOPOSElectronicValueRW@@VCWindow@ATL@@V?$CWinTraits@$0FGAAAAAA@$0A@@3@@ATL@@@ATL@@QAE@XZ 1002c790 f i ElectronicValueRWImpl.obj
 0001:0002b7d0       ??0?$CComPtr@UIAdviseSink@@@ATL@@QAE@XZ 1002c7d0 f i ElectronicValueRWImpl.obj
 0001:0002b800       ??0?$CComPtr@UIDataAdviseHolder@@@ATL@@QAE@XZ 1002c800 f i ElectronicValueRWImpl.obj
 0001:0002b830       ??0?$CComPtr@UIOleAdviseHolder@@@ATL@@QAE@XZ 1002c830 f i ElectronicValueRWImpl.obj
 0001:0002b860       ??0?$CComPtr@UIOleClientSite@@@ATL@@QAE@XZ 1002c860 f i ElectronicValueRWImpl.obj
 0001:0002b890       ??0?$CComPtr@UIOleInPlaceSiteWindowless@@@ATL@@QAE@XZ 1002c890 f i ElectronicValueRWImpl.obj
 0001:0002b8c0       ??0?$CComPtrBase@UIAdviseSink@@@ATL@@IAE@XZ 1002c8c0 f i ElectronicValueRWImpl.obj
 0001:0002b8e0       ??0?$CComPtrBase@UIDataAdviseHolder@@@ATL@@IAE@XZ 1002c8e0 f i ElectronicValueRWImpl.obj
 0001:0002b900       ??0?$CComPtrBase@UIOleAdviseHolder@@@ATL@@IAE@XZ 1002c900 f i ElectronicValueRWImpl.obj
 0001:0002b920       ??0?$CComPtrBase@UIOleClientSite@@@ATL@@IAE@XZ 1002c920 f i ElectronicValueRWImpl.obj
 0001:0002b940       ??0?$CComPtrBase@UIOleInPlaceSiteWindowless@@@ATL@@IAE@XZ 1002c940 f i ElectronicValueRWImpl.obj
 0001:0002b960       ??0?$CComQIPtr@UIDispatch@@$1?_GUID_00020400_0000_0000_c000_000000000046@@3U__s_GUID@@B@ATL@@QAE@XZ 1002c960 f i ElectronicValueRWImpl.obj
 0001:0002b990       ??0?$CProxy_IOPOSEvents@VCOPOSElectronicValueRW@@@@QAE@PAVCOPOSElectronicValueRW@@@Z 1002c990 f i ElectronicValueRWImpl.obj
 0001:0002ba10       ??0?$CWindowImpl@VCOPOSElectronicValueRW@@VCWindow@ATL@@V?$CWinTraits@$0FGAAAAAA@$0A@@3@@ATL@@QAE@XZ 1002ca10 f i ElectronicValueRWImpl.obj
 0001:0002ba40       ??0?$CWindowImplBaseT@VCWindow@ATL@@V?$CWinTraits@$0FGAAAAAA@$0A@@2@@ATL@@QAE@XZ 1002ca40 f i ElectronicValueRWImpl.obj
 0001:0002ba80       ??0?$CWindowImplRoot@VCWindow@ATL@@@ATL@@QAE@XZ 1002ca80 f i ElectronicValueRWImpl.obj
 0001:0002bae0       ??0?$IConnectionPointContainerImpl@VCOPOSElectronicValueRW@@@ATL@@QAE@XZ 1002cae0 f i ElectronicValueRWImpl.obj
 0001:0002bb10       ??0?$IConnectionPointImpl@VCOPOSElectronicValueRW@@$1?DIID__IOPOSElectronicValueRWEvents@@3U_GUID@@BVCComDynamicUnkArray@ATL@@@ATL@@QAE@XZ 1002cb10 f i ElectronicValueRWImpl.obj
 0001:0002bb50       ??0?$IConnectionPointImpl@VCOPOSElectronicValueRW@@$1?IID_IPropertyNotifySink@@3U_GUID@@BVCComDynamicUnkArray@ATL@@@ATL@@QAE@XZ 1002cb50 f i ElectronicValueRWImpl.obj
 0001:0002bb90       ??0?$IDataObjectImpl@VCOPOSElectronicValueRW@@@ATL@@QAE@XZ 1002cb90 f i ElectronicValueRWImpl.obj
 0001:0002bbc0       ??0?$IDispatchImpl@UIOPOSElectronicValueRW@@$1?IID_IOPOSElectronicValueRW@@3U_GUID@@B$1?LIBID_OposElectronicValueRW_CCO@@3U3@B$00$0A@VCComTypeInfoHolder@ATL@@@ATL@@QAE@XZ 1002cbc0 f i ElectronicValueRWImpl.obj
 0001:0002bbf0       ??0?$IObjectSafetyImpl@VCOPOSElectronicValueRW@@$02@ATL@@QAE@XZ 1002cbf0 f i ElectronicValueRWImpl.obj
 0001:0002bc30       ??0?$IOleControlImpl@VCOPOSElectronicValueRW@@@ATL@@QAE@XZ 1002cc30 f i ElectronicValueRWImpl.obj
 0001:0002bc60       ??0?$IOleInPlaceActiveObjectImpl@VCOPOSElectronicValueRW@@@ATL@@QAE@XZ 1002cc60 f i ElectronicValueRWImpl.obj
 0001:0002bc90       ??0?$IOleInPlaceObjectWindowlessImpl@VCOPOSElectronicValueRW@@@ATL@@QAE@XZ 1002cc90 f i ElectronicValueRWImpl.obj
 0001:0002bcc0       ??0?$IOleObjectImpl@VCOPOSElectronicValueRW@@@ATL@@QAE@XZ 1002ccc0 f i ElectronicValueRWImpl.obj
 0001:0002bcf0       ??0?$IPersistStorageImpl@VCOPOSElectronicValueRW@@@ATL@@QAE@XZ 1002ccf0 f i ElectronicValueRWImpl.obj
 0001:0002bd20       ??0?$IPersistStreamInitImpl@VCOPOSElectronicValueRW@@@ATL@@QAE@XZ 1002cd20 f i ElectronicValueRWImpl.obj
 0001:0002bd50       ??0?$IPropertyNotifySinkCP@VCOPOSElectronicValueRW@@VCComDynamicUnkArray@ATL@@@ATL@@QAE@XZ 1002cd50 f i ElectronicValueRWImpl.obj
 0001:0002bd80       ??0?$IProvideClassInfo2Impl@$1?CLSID_OPOSElectronicValueRW@@3U_GUID@@B$1?DIID__IOPOSElectronicValueRWEvents@@3U2@B$1?LIBID_OposElectronicValueRW_CCO@@3U2@B$00$0A@VCComTypeInfoHolder@ATL@@@ATL@@QAE@XZ 1002cd80 f i ElectronicValueRWImpl.obj
 0001:0002bdb0       ??0?$IQuickActivateImpl@VCOPOSElectronicValueRW@@@ATL@@QAE@XZ 1002cdb0 f i ElectronicValueRWImpl.obj
 0001:0002bde0       ??0?$ISpecifyPropertyPagesImpl@VCOPOSElectronicValueRW@@@ATL@@QAE@XZ 1002cde0 f i ElectronicValueRWImpl.obj
 0001:0002be10       ??0?$IViewObjectExImpl@VCOPOSElectronicValueRW@@@ATL@@QAE@XZ 1002ce10 f i ElectronicValueRWImpl.obj
 0001:0002be40       ??0?$_ICPLocator@$1?DIID__IOPOSElectronicValueRWEvents@@3U_GUID@@B@ATL@@QAE@XZ 1002ce40 f i ElectronicValueRWImpl.obj
 0001:0002be60       ??0?$_ICPLocator@$1?IID_IPropertyNotifySink@@3U_GUID@@B@ATL@@QAE@XZ 1002ce60 f i ElectronicValueRWImpl.obj
 0001:0002be80       ??0CComControlBase@ATL@@QAE@AAPAUHWND__@@@Z 1002ce80 f i ElectronicValueRWImpl.obj
 0001:0002c030       ??0CComDynamicUnkArray@ATL@@QAE@XZ 1002d030 f i ElectronicValueRWImpl.obj
 0001:0002c060       ??0CDynamicStdCallThunk2@ATL@@QAE@XZ 1002d060 f i ElectronicValueRWImpl.obj
 0001:0002c080       ??0CMessageMap@ATL@@QAE@XZ 1002d080 f i ElectronicValueRWImpl.obj
 0001:0002c0a0       ??0CWindow@ATL@@QAE@PAUHWND__@@@Z 1002d0a0 f i ElectronicValueRWImpl.obj
 0001:0002c0c0       ??0CWndProcThunk@ATL@@QAE@XZ 1002d0c0 f i ElectronicValueRWImpl.obj
 0001:0002c0f0       ??0IConnectionPointContainer@@QAE@XZ 1002d0f0 f i ElectronicValueRWImpl.obj
 0001:0002c120       ??0IDataObject@@QAE@XZ     1002d120 f i ElectronicValueRWImpl.obj
 0001:0002c150       ??0IDispatch@@QAE@XZ       1002d150 f i ElectronicValueRWImpl.obj
 0001:0002c180       ??0IOPOSElectronicValueRW@@QAE@XZ 1002d180 f i ElectronicValueRWImpl.obj
 0001:0002c1b0       ??0IOPOSElectronicValueRW_1_12@@QAE@XZ 1002d1b0 f i ElectronicValueRWImpl.obj
 0001:0002c1e0       ??0IOPOSElectronicValueRW_1_14@@QAE@XZ 1002d1e0 f i ElectronicValueRWImpl.obj
 0001:0002c210       ??0IOPOSElectronicValueRW_1_14_100@@QAE@XZ 1002d210 f i ElectronicValueRWImpl.obj
 0001:0002c240       ??0IOPOSElectronicValueRW_1_15@@QAE@XZ 1002d240 f i ElectronicValueRWImpl.obj
 0001:0002c270       ??0IObjectSafety@@QAE@XZ   1002d270 f i ElectronicValueRWImpl.obj
 0001:0002c2a0       ??0IOleControl@@QAE@XZ     1002d2a0 f i ElectronicValueRWImpl.obj
 0001:0002c2d0       ??0IOleInPlaceActiveObject@@QAE@XZ 1002d2d0 f i ElectronicValueRWImpl.obj
 0001:0002c300       ??0IOleInPlaceObject@@QAE@XZ 1002d300 f i ElectronicValueRWImpl.obj
 0001:0002c330       ??0IOleInPlaceObjectWindowless@@QAE@XZ 1002d330 f i ElectronicValueRWImpl.obj
 0001:0002c360       ??0IOleObject@@QAE@XZ      1002d360 f i ElectronicValueRWImpl.obj
 0001:0002c390       ??0IOleWindow@@QAE@XZ      1002d390 f i ElectronicValueRWImpl.obj
 0001:0002c3c0       ??0IPersist@@QAE@XZ        1002d3c0 f i ElectronicValueRWImpl.obj
 0001:0002c3f0       ??0IPersistStorage@@QAE@XZ 1002d3f0 f i ElectronicValueRWImpl.obj
 0001:0002c420       ??0IPersistStreamInit@@QAE@XZ 1002d420 f i ElectronicValueRWImpl.obj
 0001:0002c450       ??0IProvideClassInfo2@@QAE@XZ 1002d450 f i ElectronicValueRWImpl.obj
 0001:0002c480       ??0IProvideClassInfo@@QAE@XZ 1002d480 f i ElectronicValueRWImpl.obj
 0001:0002c4b0       ??0IQuickActivate@@QAE@XZ  1002d4b0 f i ElectronicValueRWImpl.obj
 0001:0002c4e0       ??0ISpecifyPropertyPages@@QAE@XZ 1002d4e0 f i ElectronicValueRWImpl.obj
 0001:0002c510       ??0IViewObject2@@QAE@XZ    1002d510 f i ElectronicValueRWImpl.obj
 0001:0002c540       ??0IViewObject@@QAE@XZ     1002d540 f i ElectronicValueRWImpl.obj
 0001:0002c570       ??0IViewObjectEx@@QAE@XZ   1002d570 f i ElectronicValueRWImpl.obj
 0001:0002c5a0       ??0OposVariantResult@@QAE@XZ 1002d5a0 f i ElectronicValueRWImpl.obj
 0001:0002c5d0       ??0_CW@@QAE@PBD@Z          1002d5d0 f i ElectronicValueRWImpl.obj
 0001:0002c610       ??0_CW@@QAE@PB_W@Z         1002d610 f i ElectronicValueRWImpl.obj
 0001:0002c650       ??0_CWNCC@@QAE@PBD@Z       1002d650 f i ElectronicValueRWImpl.obj
 0001:0002c680       ??1?$CComControl@VCOPOSElectronicValueRW@@V?$CWindowImpl@VCOPOSElectronicValueRW@@VCWindow@ATL@@V?$CWinTraits@$0FGAAAAAA@$0A@@3@@ATL@@@ATL@@UAE@XZ 1002d680 f i ElectronicValueRWImpl.obj
 0001:0002c6b0       ??1?$CComPtr@UIDataAdviseHolder@@@ATL@@QAE@XZ 1002d6b0 f i ElectronicValueRWImpl.obj
 0001:0002c6e0       ??1?$CComPtr@UIOleAdviseHolder@@@ATL@@QAE@XZ 1002d6e0 f i ElectronicValueRWImpl.obj
 0001:0002c710       ??1?$CComPtr@UIOleInPlaceSiteWindowless@@@ATL@@QAE@XZ 1002d710 f i ElectronicValueRWImpl.obj
 0001:0002c740       ??1?$CComPtrBase@UIDataAdviseHolder@@@ATL@@QAE@XZ 1002d740 f i ElectronicValueRWImpl.obj
 0001:0002c790       ??1?$CComPtrBase@UIOleAdviseHolder@@@ATL@@QAE@XZ 1002d790 f i ElectronicValueRWImpl.obj
 0001:0002c7e0       ??1?$CComPtrBase@UIOleInPlaceSiteWindowless@@@ATL@@QAE@XZ 1002d7e0 f i ElectronicValueRWImpl.obj
 0001:0002c830       ??1?$CComQIPtr@UIDispatch@@$1?_GUID_00020400_0000_0000_c000_000000000046@@3U__s_GUID@@B@ATL@@QAE@XZ 1002d830 f i ElectronicValueRWImpl.obj
 0001:0002c860       ??1?$CProxy_IOPOSEvents@VCOPOSElectronicValueRW@@@@QAE@XZ 1002d860 f i ElectronicValueRWImpl.obj
 0001:0002c890       ??1?$CWindowImpl@VCOPOSElectronicValueRW@@VCWindow@ATL@@V?$CWinTraits@$0FGAAAAAA@$0A@@3@@ATL@@UAE@XZ 1002d890 f i ElectronicValueRWImpl.obj
 0001:0002c8c0       ??1?$CWindowImplBaseT@VCWindow@ATL@@V?$CWinTraits@$0FGAAAAAA@$0A@@2@@ATL@@UAE@XZ 1002d8c0 f i ElectronicValueRWImpl.obj
 0001:0002c8f0       ??1?$CWindowImplRoot@VCWindow@ATL@@@ATL@@UAE@XZ 1002d8f0 f i ElectronicValueRWImpl.obj
 0001:0002c990       ??1?$IConnectionPointImpl@VCOPOSElectronicValueRW@@$1?DIID__IOPOSElectronicValueRWEvents@@3U_GUID@@BVCComDynamicUnkArray@ATL@@@ATL@@QAE@XZ 1002d990 f i ElectronicValueRWImpl.obj
 0001:0002ca10       ??1?$IConnectionPointImpl@VCOPOSElectronicValueRW@@$1?IID_IPropertyNotifySink@@3U_GUID@@BVCComDynamicUnkArray@ATL@@@ATL@@QAE@XZ 1002da10 f i ElectronicValueRWImpl.obj
 0001:0002ca90       ??1?$IPropertyNotifySinkCP@VCOPOSElectronicValueRW@@VCComDynamicUnkArray@ATL@@@ATL@@QAE@XZ 1002da90 f i ElectronicValueRWImpl.obj
 0001:0002cac0       ??1CComControlBase@ATL@@UAE@XZ 1002dac0 f i ElectronicValueRWImpl.obj
 0001:0002cb80       ??1CComDynamicUnkArray@ATL@@QAE@XZ 1002db80 f i ElectronicValueRWImpl.obj
 0001:0002cbc0       ??1CDynamicStdCallThunk2@ATL@@QAE@XZ 1002dbc0 f i ElectronicValueRWImpl.obj
 0001:0002cbf0       ??1CWndProcThunk@ATL@@QAE@XZ 1002dbf0 f i ElectronicValueRWImpl.obj
 0001:0002cc20       ??1OposVariantResult@@QAE@XZ 1002dc20 f i ElectronicValueRWImpl.obj
 0001:0002cc50       ??1_CW@@QAE@XZ             1002dc50 f i ElectronicValueRWImpl.obj
 0001:0002ccc0       ??1_CWNCC@@QAE@XZ          1002dcc0 f i ElectronicValueRWImpl.obj
 0001:0002ccf0       ??B_CW@@QAEPB_WXZ          1002dcf0 f i ElectronicValueRWImpl.obj
 0001:0002cd30       ??B_CWNCC@@QAEPA_WXZ       1002dd30 f i ElectronicValueRWImpl.obj
 0001:0002cd60       ??_EOposVariant@@QAEPAXI@Z 1002dd60 f i ElectronicValueRWImpl.obj
 0001:0002cdf0       ?EventClaim@COPOSElectronicValueRW@@IAEXXZ 1002ddf0 f i ElectronicValueRWImpl.obj
 0001:0002ce30       ?EventClose@COPOSElectronicValueRW@@IAEXXZ 1002de30 f i ElectronicValueRWImpl.obj
 0001:0002ced0       ?EventInit@COPOSElectronicValueRW@@IAEJXZ 1002ded0 f i ElectronicValueRWImpl.obj
 0001:0002d100       ?EventOpen@COPOSElectronicValueRW@@IAEXXZ 1002e100 f i ElectronicValueRWImpl.obj
 0001:0002d140       ?EventPreCloseRelease@COPOSElectronicValueRW@@IAEXXZ 1002e140 f i ElectronicValueRWImpl.obj
 0001:0002d1c0       ?EventUninit@COPOSElectronicValueRW@@IAEXXZ 1002e1c0 f i ElectronicValueRWImpl.obj
 0001:0002d2f0       ?EventWindowProc@COPOSElectronicValueRW@@IAGJIIJ@Z 1002e2f0 f i ElectronicValueRWImpl.obj
 0001:0002d510       ?FireEventCleanup@COPOSElectronicValueRW@@IAEXXZ 1002e510 f i ElectronicValueRWImpl.obj
 0001:0002d560       ?FireEventSetup@COPOSElectronicValueRW@@IAE_NXZ 1002e560 f i ElectronicValueRWImpl.obj
 0001:0002d5d0       ?GetModuleInstance@CComModule@ATL@@QAEPAUHINSTANCE__@@XZ 1002e5d0 f i ElectronicValueRWImpl.obj
 0001:0002d5f0       ?SetRC@COPOSElectronicValueRW@@IAEJJ@Z 1002e5f0 f i ElectronicValueRWImpl.obj
 0001:0002d620       ?s_EventWindowProc@COPOSElectronicValueRW@@KGJPAUHWND__@@IIJ@Z 1002e620 f i ElectronicValueRWImpl.obj
 0001:0002d6c0       __snwprintf                1002e6c0 f i ElectronicValueRWImpl.obj
 0001:0002d720       __vfwprintf_l              1002e720 f i ElectronicValueRWImpl.obj
 0001:0002d750       __vsnwprintf               1002e750 f i ElectronicValueRWImpl.obj
 0001:0002d780       __vsnwprintf_l             1002e780 f i ElectronicValueRWImpl.obj
 0001:0002d7f0       _vfwprintf                 1002e7f0 f i ElectronicValueRWImpl.obj
 0001:0002d812       _DebugBreak@0              1002e812 f   kernel32:KERNEL32.dll
 0001:0002d818       _Sleep@4                   1002e818 f   kernel32:KERNEL32.dll
 0001:0002d81e       _GetCurrentProcess@0       1002e81e f   kernel32:KERNEL32.dll
 0001:0002d824       _TerminateProcess@8        1002e824 f   kernel32:KERNEL32.dll
 0001:0002d82a       _MultiByteToWideChar@24    1002e82a f   kernel32:KERNEL32.dll
 0001:0002d830       _WideCharToMultiByte@32    1002e830 f   kernel32:KERNEL32.dll
 0001:0002d836       _DecodePointer@4           1002e836 f   kernel32:KERNEL32.dll
 0001:0002d83c       _RaiseException@16         1002e83c f   kernel32:KERNEL32.dll
 0001:0002d842       _GetLastError@0            1002e842 f   kernel32:KERNEL32.dll
 0001:0002d848       _SetLastError@4            1002e848 f   kernel32:KERNEL32.dll
 0001:0002d84e       _InitializeCriticalSectionEx@12 1002e84e f   kernel32:KERNEL32.dll
 0001:0002d854       _DeleteCriticalSection@4   1002e854 f   kernel32:KERNEL32.dll
 0001:0002d85a       _EncodePointer@4           1002e85a f   kernel32:KERNEL32.dll
 0001:0002d860       _EnterCriticalSection@4    1002e860 f   kernel32:KERNEL32.dll
 0001:0002d866       _LeaveCriticalSection@4    1002e866 f   kernel32:KERNEL32.dll
 0001:0002d86c       _ResetEvent@4              1002e86c f   kernel32:KERNEL32.dll
 0001:0002d872       _ReleaseMutex@4            1002e872 f   kernel32:KERNEL32.dll
 0001:0002d878       _WaitForSingleObject@8     1002e878 f   kernel32:KERNEL32.dll
 0001:0002d87e       _GetCurrentThreadId@0      1002e87e f   kernel32:KERNEL32.dll
 0001:0002d884       _DisableThreadLibraryCalls@4 1002e884 f   kernel32:KERNEL32.dll
 0001:0002d88a       _FreeLibrary@4             1002e88a f   kernel32:KERNEL32.dll
 0001:0002d890       _GetModuleFileNameW@12     1002e890 f   kernel32:KERNEL32.dll
 0001:0002d896       _GetModuleHandleW@4        1002e896 f   kernel32:KERNEL32.dll
 0001:0002d89c       _GetProcAddress@8          1002e89c f   kernel32:KERNEL32.dll
 0001:0002d8a2       _LoadLibraryExW@12         1002e8a2 f   kernel32:KERNEL32.dll
 0001:0002d8a8       _LoadResource@8            1002e8a8 f   kernel32:KERNEL32.dll
 0001:0002d8ae       _SizeofResource@8          1002e8ae f   kernel32:KERNEL32.dll
 0001:0002d8b4       _FindResourceW@12          1002e8b4 f   kernel32:KERNEL32.dll
 0001:0002d8ba       _GlobalAlloc@8             1002e8ba f   kernel32:KERNEL32.dll
 0001:0002d8c0       _GlobalUnlock@4            1002e8c0 f   kernel32:KERNEL32.dll
 0001:0002d8c6       _GlobalLock@4              1002e8c6 f   kernel32:KERNEL32.dll
 0001:0002d8cc       _MulDiv@12                 1002e8cc f   kernel32:KERNEL32.dll
 0001:0002d8d2       _lstrcmpiW@8               1002e8d2 f   kernel32:KERNEL32.dll
 0001:0002d8d8       _DeleteFileW@4             1002e8d8 f   kernel32:KERNEL32.dll
 0001:0002d8de       _CloseHandle@4             1002e8de f   kernel32:KERNEL32.dll
 0001:0002d8e4       _SetEvent@4                1002e8e4 f   kernel32:KERNEL32.dll
 0001:0002d8ea       _CreateMutexW@12           1002e8ea f   kernel32:KERNEL32.dll
 0001:0002d8f0       _CreateEventW@16           1002e8f0 f   kernel32:KERNEL32.dll
 0001:0002d8f6       _GetCurrentProcessId@0     1002e8f6 f   kernel32:KERNEL32.dll
 0001:0002d8fc       _LocalFree@4               1002e8fc f   kernel32:KERNEL32.dll
 0001:0002d902       _FormatMessageW@28         1002e902 f   kernel32:KERNEL32.dll
 0001:0002d908       _GetActiveWindow@0         1002e908 f   user32:USER32.dll
 0001:0002d90e       _MessageBoxW@16            1002e90e f   user32:USER32.dll
 0001:0002d914       _UnregisterClassW@8        1002e914 f   user32:USER32.dll
 0001:0002d91a       _PostMessageW@16           1002e91a f   user32:USER32.dll
 0001:0002d920       _DefWindowProcW@16         1002e920 f   user32:USER32.dll
 0001:0002d926       _CallWindowProcW@20        1002e926 f   user32:USER32.dll
 0001:0002d92c       _RegisterClassExW@4        1002e92c f   user32:USER32.dll
 0001:0002d932       _GetClassInfoExW@12        1002e932 f   user32:USER32.dll
 0001:0002d938       _CreateWindowExW@48        1002e938 f   user32:USER32.dll
 0001:0002d93e       _IsWindow@4                1002e93e f   user32:USER32.dll
 0001:0002d944       _IsChild@8                 1002e944 f   user32:USER32.dll
 0001:0002d94a       _DestroyWindow@4           1002e94a f   user32:USER32.dll
 0001:0002d950       _ShowWindow@8              1002e950 f   user32:USER32.dll
 0001:0002d956       _SetWindowPos@28           1002e956 f   user32:USER32.dll
 0001:0002d95c       _CharNextW@4               1002e95c f   user32:USER32.dll
 0001:0002d962       _SetFocus@4                1002e962 f   user32:USER32.dll
 0001:0002d968       _GetFocus@0                1002e968 f   user32:USER32.dll
 0001:0002d96e       _GetKeyState@4             1002e96e f   user32:USER32.dll
 0001:0002d974       _GetDC@4                   1002e974 f   user32:USER32.dll
 0001:0002d97a       _ReleaseDC@8               1002e97a f   user32:USER32.dll
 0001:0002d980       _BeginPaint@8              1002e980 f   user32:USER32.dll
 0001:0002d986       _EndPaint@8                1002e986 f   user32:USER32.dll
 0001:0002d98c       _SetWindowRgn@12           1002e98c f   user32:USER32.dll
 0001:0002d992       _InvalidateRect@12         1002e992 f   user32:USER32.dll
 0001:0002d998       _GetClientRect@8           1002e998 f   user32:USER32.dll
 0001:0002d99e       _IntersectRect@12          1002e99e f   user32:USER32.dll
 0001:0002d9a4       _UnionRect@12              1002e9a4 f   user32:USER32.dll
 0001:0002d9aa       _OffsetRect@12             1002e9aa f   user32:USER32.dll
 0001:0002d9b0       _EqualRect@8               1002e9b0 f   user32:USER32.dll
 0001:0002d9b6       _PtInRect@12               1002e9b6 f   user32:USER32.dll
 0001:0002d9bc       _GetWindowLongW@8          1002e9bc f   user32:USER32.dll
 0001:0002d9c2       _SetWindowLongW@12         1002e9c2 f   user32:USER32.dll
 0001:0002d9c8       _GetParent@4               1002e9c8 f   user32:USER32.dll
 0001:0002d9ce       _LoadCursorW@8             1002e9ce f   user32:USER32.dll
 0001:0002d9d4       _PeekMessageW@20           1002e9d4 f   user32:USER32.dll
 0001:0002d9da       _RegisterClassW@4          1002e9da f   user32:USER32.dll
 0001:0002d9e0       _LoadBitmapW@8             1002e9e0 f   user32:USER32.dll
 0001:0002d9e6       _CloseMetaFile@4           1002e9e6 f   gdi32:GDI32.dll
 0001:0002d9ec       _CreateDCW@16              1002e9ec f   gdi32:GDI32.dll
 0001:0002d9f2       _CreateMetaFileW@4         1002e9f2 f   gdi32:GDI32.dll
 0001:0002d9f8       _CreateRectRgnIndirect@4   1002e9f8 f   gdi32:GDI32.dll
 0001:0002d9fe       _DeleteDC@4                1002e9fe f   gdi32:GDI32.dll
 0001:0002da04       _DeleteMetaFile@4          1002ea04 f   gdi32:GDI32.dll
 0001:0002da0a       _GetDeviceCaps@8           1002ea0a f   gdi32:GDI32.dll
 0001:0002da10       _RestoreDC@8               1002ea10 f   gdi32:GDI32.dll
 0001:0002da16       _SaveDC@4                  1002ea16 f   gdi32:GDI32.dll
 0001:0002da1c       _SetMapMode@8              1002ea1c f   gdi32:GDI32.dll
 0001:0002da22       _LPtoDP@12                 1002ea22 f   gdi32:GDI32.dll
 0001:0002da28       _SetViewportOrgEx@16       1002ea28 f   gdi32:GDI32.dll
 0001:0002da2e       _SetWindowExtEx@16         1002ea2e f   gdi32:GDI32.dll
 0001:0002da34       _SetWindowOrgEx@16         1002ea34 f   gdi32:GDI32.dll
 0001:0002da3a       _BitBlt@36                 1002ea3a f   gdi32:GDI32.dll
 0001:0002da40       _CreateCompatibleDC@4      1002ea40 f   gdi32:GDI32.dll
 0001:0002da46       _DeleteObject@4            1002ea46 f   gdi32:GDI32.dll
 0001:0002da4c       _SelectObject@8            1002ea4c f   gdi32:GDI32.dll
 0001:0002da52       _GetObjectW@12             1002ea52 f   gdi32:GDI32.dll
 0001:0002da58       _RegCloseKey@4             1002ea58 f   advapi32:ADVAPI32.dll
 0001:0002da5e       _RegCreateKeyExW@36        1002ea5e f   advapi32:ADVAPI32.dll
 0001:0002da64       _RegDeleteKeyW@8           1002ea64 f   advapi32:ADVAPI32.dll
 0001:0002da6a       _RegDeleteValueW@8         1002ea6a f   advapi32:ADVAPI32.dll
 0001:0002da70       _RegEnumKeyExW@32          1002ea70 f   advapi32:ADVAPI32.dll
 0001:0002da76       _RegOpenKeyExW@20          1002ea76 f   advapi32:ADVAPI32.dll
 0001:0002da7c       _RegQueryInfoKeyW@48       1002ea7c f   advapi32:ADVAPI32.dll
 0001:0002da82       _RegSetValueExW@24         1002ea82 f   advapi32:ADVAPI32.dll
 0001:0002da88       _RegQueryValueExW@24       1002ea88 f   advapi32:ADVAPI32.dll
 0001:0002da8e       _CoCreateInstance@20       1002ea8e f   ole32:ole32.dll
 0001:0002da94       _StringFromGUID2@12        1002ea94 f   ole32:ole32.dll
 0001:0002da9a       _CoTaskMemAlloc@4          1002ea9a f   ole32:ole32.dll
 0001:0002daa0       _CoTaskMemRealloc@8        1002eaa0 f   ole32:ole32.dll
 0001:0002daa6       _CoTaskMemFree@4           1002eaa6 f   ole32:ole32.dll
 0001:0002daac       _ReadClassStm@8            1002eaac f   ole32:ole32.dll
 0001:0002dab2       _WriteClassStm@8           1002eab2 f   ole32:ole32.dll
 0001:0002dab8       _CreateDataAdviseHolder@4  1002eab8 f   ole32:ole32.dll
 0001:0002dabe       _OleSaveToStream@8         1002eabe f   ole32:ole32.dll
 0001:0002dac4       _CreateOleAdviseHolder@4   1002eac4 f   ole32:ole32.dll
 0001:0002daca       _OleRegGetUserType@12      1002eaca f   ole32:ole32.dll
 0001:0002dad0       _OleRegGetMiscStatus@12    1002ead0 f   ole32:ole32.dll
 0001:0002dad6       _OleRegEnumVerbs@8         1002ead6 f   ole32:ole32.dll
 0001:0002dadc       _CLSIDFromProgID@8         1002eadc f   ole32:ole32.dll
 0001:0002dae2       _SysAllocString@4          1002eae2 f   oleaut32:OLEAUT32.dll
 0001:0002dae8       _SysAllocStringLen@8       1002eae8 f   oleaut32:OLEAUT32.dll
 0001:0002daee       _SysFreeString@4           1002eaee f   oleaut32:OLEAUT32.dll
 0001:0002daf4       _SysStringLen@4            1002eaf4 f   oleaut32:OLEAUT32.dll
 0001:0002dafa       _VariantClear@4            1002eafa f   oleaut32:OLEAUT32.dll
 0001:0002db00       _VariantCopyInd@8          1002eb00 f   oleaut32:OLEAUT32.dll
 0001:0002db06       _VariantChangeType@16      1002eb06 f   oleaut32:OLEAUT32.dll
 0001:0002db0c       _SysStringByteLen@4        1002eb0c f   oleaut32:OLEAUT32.dll
 0001:0002db12       _SysAllocStringByteLen@8   1002eb12 f   oleaut32:OLEAUT32.dll
 0001:0002db18       _VariantInit@4             1002eb18 f   oleaut32:OLEAUT32.dll
 0001:0002db1e       _VarUI4FromStr@16          1002eb1e f   oleaut32:OLEAUT32.dll
 0001:0002db24       _LoadTypeLib@8             1002eb24 f   oleaut32:OLEAUT32.dll
 0001:0002db2a       _LoadRegTypeLib@20         1002eb2a f   oleaut32:OLEAUT32.dll
 0001:0002db30       _RegisterTypeLib@12        1002eb30 f   oleaut32:OLEAUT32.dll
 0001:0002db36       _UnRegisterTypeLib@20      1002eb36 f   oleaut32:OLEAUT32.dll
 0001:0002db3c       _OleCreatePropertyFrame@44 1002eb3c f   oleaut32:OLEAUT32.dll
 0001:0002db50       @_RTC_AllocaHelper@12      1002eb50 f   LIBCMTD:stack.obj
 0001:0002db90       @_RTC_CheckStackVars2@12   1002eb90 f   LIBCMTD:stack.obj
 0001:0002dc70       @_RTC_CheckStackVars@8     1002ec70 f   LIBCMTD:stack.obj
 0001:0002dce0       __RTC_CheckEsp             1002ece0 f   LIBCMTD:stack.obj
 0001:0002dd20       @__security_check_cookie@4 1002ed20 f   LIBCMTD:secchk.obj
 0001:0002dd40       __CRT_RTC_INIT             1002ed40 f   LIBCMTD:init.obj
 0001:0002dd50       __CRT_RTC_INITW            1002ed50 f   LIBCMTD:init.obj
 0001:0002dd60       __RTC_InitBase             1002ed60 f   LIBCMTD:init.obj
 0001:0002dd90       __RTC_Shutdown             1002ed90 f   LIBCMTD:init.obj
 0001:0002ddb0       ??_U@YAPAXI@Z              1002edb0 f   LIBCMTD:new_array.obj
 0001:0002ddd0       ??3@YAXPAXI@Z              1002edd0 f   LIBCMTD:delete_scalar_size.obj
 0001:0002ddf0       ??_V@YAXPAX@Z              1002edf0 f   LIBCMTD:delete_array.obj
 0001:0002de10       ??_V@YAXPAXI@Z             1002ee10 f   LIBCMTD:delete_array_size.obj
 0001:0002de30       ?configure_argv@__scrt_narrow_argv_policy@@SAHXZ 1002ee30 f i LIBCMTD:utility.obj
 0001:0002dee0       ?initialize_environment@__scrt_narrow_environment_policy@@SAHXZ 1002eee0 f i LIBCMTD:utility.obj
 0001:0002df60       _NtCurrentTeb              1002ef60 f i LIBCMTD:utility.obj
 0001:0002df70       ___scrt_acquire_startup_lock 1002ef70 f   LIBCMTD:utility.obj
 0001:0002dfc0       ___scrt_dllmain_after_initialize_c 1002efc0 f   LIBCMTD:utility.obj
 0001:0002dff0       ___scrt_dllmain_before_initialize_c 1002eff0 f   LIBCMTD:utility.obj
 0001:0002e010       ___scrt_dllmain_crt_thread_attach 1002f010 f   LIBCMTD:utility.obj
 0001:0002e040       ___scrt_dllmain_crt_thread_detach 1002f040 f   LIBCMTD:utility.obj
 0001:0002e060       ___scrt_dllmain_exception_filter 1002f060 f   LIBCMTD:utility.obj
 0001:0002e0b0       ___scrt_dllmain_uninitialize_c 1002f0b0 f   LIBCMTD:utility.obj
 0001:0002e0e0       ___scrt_dllmain_uninitialize_critical 1002f0e0 f   LIBCMTD:utility.obj
 0001:0002e100       ___scrt_initialize_crt     1002f100 f   LIBCMTD:utility.obj
 0001:0002e150       ___scrt_initialize_onexit_tables 1002f150 f   LIBCMTD:utility.obj
 0001:0002e230       ___scrt_is_nonwritable_in_current_image 1002f230 f   LIBCMTD:utility.obj
 0001:0002e360       ___scrt_release_startup_lock 1002f360 f   LIBCMTD:utility.obj
 0001:0002e390       ___scrt_uninitialize_crt   1002f390 f   LIBCMTD:utility.obj
 0001:0002e3d0       __onexit                   1002f3d0 f   LIBCMTD:utility.obj
 0001:0002e440       _at_quick_exit             1002f440 f   LIBCMTD:utility.obj
 0001:0002e480       _atexit                    1002f480 f   LIBCMTD:utility.obj
 0001:0002e4b0       ??3@YAXPAX@Z               1002f4b0 f   LIBCMTD:delete_scalar.obj
 0001:0002e4d0       ___raise_securityfailure   1002f4d0 f   LIBCMTD:gs_report.obj
 0001:0002e500       ___report_gsfailure        1002f500 f   LIBCMTD:gs_report.obj
 0001:0002e610       ___report_rangecheckfailure 1002f610 f   LIBCMTD:gs_report.obj
 0001:0002e620       ___report_securityfailure  1002f620 f   LIBCMTD:gs_report.obj
 0001:0002e700       ___report_securityfailureEx 1002f700 f   LIBCMTD:gs_report.obj
 0001:0002e950       __Init_thread_abort        1002f950 f   LIBCMTD:thread_safe_statics.obj
 0001:0002e970       __Init_thread_footer       1002f970 f   LIBCMTD:thread_safe_statics.obj
 0001:0002e9c0       __Init_thread_header       1002f9c0 f   LIBCMTD:thread_safe_statics.obj
 0001:0002ea30       __Init_thread_lock         1002fa30 f   LIBCMTD:thread_safe_statics.obj
 0001:0002ea40       __Init_thread_notify       1002fa40 f   LIBCMTD:thread_safe_statics.obj
 0001:0002ea90       __Init_thread_unlock       1002fa90 f   LIBCMTD:thread_safe_statics.obj
 0001:0002eaa0       __Init_thread_wait         1002faa0 f   LIBCMTD:thread_safe_statics.obj
 0001:0002eb30       ??2@YAPAXIABUnothrow_t@std@@@Z 1002fb30 f   LIBCMTD:new_scalar_nothrow.obj
 0001:0002ebb0       ??_U@YAPAXIABUnothrow_t@std@@@Z 1002fbb0 f   LIBCMTD:new_array_nothrow.obj
 0001:0002ebd0       __allmul                   1002fbd0 f   LIBCMTD:llmul.obj
 0001:0002ec10       __alloca_probe_16          1002fc10 f   LIBCMTD:alloca16.obj
 0001:0002ec26       __alloca_probe_8           1002fc26     LIBCMTD:alloca16.obj
 0001:0002ec40       __alloca_probe             1002fc40 f   LIBCMTD:chkstk.obj
 0001:0002ec40       __chkstk                   1002fc40 f   LIBCMTD:chkstk.obj
 0001:0002ec70       __alldiv                   1002fc70 f   LIBCMTD:lldiv.obj
 0001:0002ed20       __allrem                   1002fd20 f   LIBCMTD:llrem.obj
 0001:0002f290       __CRT_INIT@12              10030290 f   LIBCMTD:dll_dllmain.obj
 0001:0002f2b0       __DllMainCRTStartup@12     100302b0 f   LIBCMTD:dll_dllmain.obj
 0001:0002f370       ?_RTC_AllocaFailure@@YAXPAXPAU_RTC_ALLOCA_NODE@@H@Z 10030370 f   LIBCMTD:error.obj
 0001:0002f460       ?_RTC_Failure@@YAXPAXH@Z   10030460 f   LIBCMTD:error.obj
 0001:0002f4b0       ?_RTC_StackFailure@@YAXPAXPBD@Z 100304b0 f   LIBCMTD:error.obj
 0001:0002f870       __RTC_UninitUse            10030870 f   LIBCMTD:error.obj
 0001:0002f920       __vsprintf_s_l             10030920 f i LIBCMTD:error.obj
 0001:0002f950       _sprintf_s                 10030950 f i LIBCMTD:error.obj
 0001:0002f970       ?_RTC_GetErrorFunc@@YAP6AHHPBDH00ZZPBX@Z 10030970 f   LIBCMTD:userapi.obj
 0001:0002f980       ?_RTC_GetErrorFuncW@@YAP6AHHPB_WH00ZZPBX@Z 10030980 f   LIBCMTD:userapi.obj
 0001:0002f990       __RTC_GetErrDesc           10030990 f   LIBCMTD:userapi.obj
 0001:0002f9b0       __RTC_NumErrors            100309b0 f   LIBCMTD:userapi.obj
 0001:0002f9c0       __RTC_SetErrorFunc         100309c0 f   LIBCMTD:userapi.obj
 0001:0002f9e0       __RTC_SetErrorFuncW        100309e0 f   LIBCMTD:userapi.obj
 0001:0002fa00       __RTC_SetErrorType         10030a00 f   LIBCMTD:userapi.obj
 0001:0002fa30       ??2@YAPAXI@Z               10030a30 f   LIBCMTD:new_scalar.obj
 0001:0002fa80       ___isa_available_init      10030a80 f   LIBCMTD:cpu_disp.obj
 0001:0002fd60       __get_startup_argv_mode    10030d60 f   LIBCMTD:argv_mode.obj
 0001:0002fd70       ___scrt_is_ucrt_dll_in_use 10030d70 f   LIBCMTD:ucrt_detection.obj
 0001:0002fda0       ___scrt_fastfail           10030da0 f   LIBCMTD:utility_desktop.obj
 0001:0002fee0       ___scrt_get_show_window_mode 10030ee0 f   LIBCMTD:utility_desktop.obj
 0001:0002ff20       ___scrt_initialize_mta     10030f20 f   LIBCMTD:utility_desktop.obj
 0001:0002ff30       ___scrt_initialize_winrt   10030f30 f   LIBCMTD:utility_desktop.obj
 0001:0002ff40       ___scrt_is_managed_app     10030f40 f   LIBCMTD:utility_desktop.obj
 0001:0002ffd0       ___scrt_set_unhandled_exception_filter 10030fd0 f   LIBCMTD:utility_desktop.obj
 0001:0002ffe0       ___scrt_exe_initialize_mta 10030fe0 f   LIBCMTD:utility_desktop.obj
 0001:0002ffe0       ___scrt_stub_for_initialize_mta 10030fe0 f   LIBCMTD:utility_desktop.obj
 0001:0002fff0       ___scrt_unhandled_exception_filter@4 10030ff0 f   LIBCMTD:utility_desktop.obj
 0001:00030050       __crt_debugger_hook        10031050 f   LIBCMTD:utility_desktop.obj
 0001:00030060       @_guard_check_icall_nop@4  10031060 f i LIBCMTD:guard_support.obj
 0001:00030070       _ReadNoFence               10031070 f i LIBCMTD:guard_support.obj
 0001:00030090       _ReadPointerNoFence        10031090 f i LIBCMTD:guard_support.obj
 0001:000300b0       __guard_icall_checks_enforced 100310b0 f i LIBCMTD:guard_support.obj
 0001:00030150       ___security_init_cookie    10031150 f   LIBCMTD:gs_support.obj
 0001:000301d0       ?__scrt_initialize_type_info@@YAXXZ 100311d0 f   LIBCMTD:tncleanup.obj
 0001:000301e0       ?__scrt_uninitialize_type_info@@YAXXZ 100311e0 f   LIBCMTD:tncleanup.obj
 0001:00030200       ___local_stdio_scanf_options 10031200 f i LIBCMTD:default_local_stdio_options.obj
 0001:00030210       ___scrt_initialize_default_local_stdio_options 10031210 f   LIBCMTD:default_local_stdio_options.obj
 0001:00030250       ___scrt_get_dyn_tls_init_callback 10031250 f   LIBCMTD:dyn_tls_init.obj
 0001:00030260       __RTC_Initialize           10031260 f   LIBCMTD:initsect.obj
 0001:00030290       __RTC_Terminate            10031290 f   LIBCMTD:initsect.obj
 0001:00030740       ?_RTC_GetSrcLine@@YAHPAEPA_WKPAH1K@Z 10031740 f   LIBCMTD:pdblkup.obj
 0001:00030ad0       __except_handler4_noexcept 10031ad0 f   LIBCMTD:chandler4_noexcept.obj
 0001:00030b20       ??0bad_alloc@std@@AAE@QBD@Z 10031b20 f i LIBCMTD:throw_bad_alloc.obj
 0001:00030b50       ??0bad_alloc@std@@QAE@ABV01@@Z 10031b50 f i LIBCMTD:throw_bad_alloc.obj
 0001:00030b80       ??0bad_alloc@std@@QAE@XZ   10031b80 f i LIBCMTD:throw_bad_alloc.obj
 0001:00030bb0       ??0bad_array_new_length@std@@QAE@ABV01@@Z 10031bb0 f i LIBCMTD:throw_bad_alloc.obj
 0001:00030be0       ??0bad_array_new_length@std@@QAE@XZ 10031be0 f i LIBCMTD:throw_bad_alloc.obj
 0001:00030c10       ??0exception@std@@QAE@ABV01@@Z 10031c10 f i LIBCMTD:throw_bad_alloc.obj
 0001:00030c50       ??0exception@std@@QAE@QBDH@Z 10031c50 f i LIBCMTD:throw_bad_alloc.obj
 0001:00030c80       ??1bad_alloc@std@@UAE@XZ   10031c80 f i LIBCMTD:throw_bad_alloc.obj
 0001:00030ca0       ??1bad_array_new_length@std@@UAE@XZ 10031ca0 f i LIBCMTD:throw_bad_alloc.obj
 0001:00030cc0       ??1exception@std@@UAE@XZ   10031cc0 f i LIBCMTD:throw_bad_alloc.obj
 0001:00030cf0       ??_Ebad_alloc@std@@UAEPAXI@Z 10031cf0 f i LIBCMTD:throw_bad_alloc.obj
 0001:00030cf0       ??_Gbad_alloc@std@@UAEPAXI@Z 10031cf0 f i LIBCMTD:throw_bad_alloc.obj
 0001:00030d20       ??_Ebad_array_new_length@std@@UAEPAXI@Z 10031d20 f i LIBCMTD:throw_bad_alloc.obj
 0001:00030d20       ??_Gbad_array_new_length@std@@UAEPAXI@Z 10031d20 f i LIBCMTD:throw_bad_alloc.obj
 0001:00030d50       ??_Eexception@std@@UAEPAXI@Z 10031d50 f i LIBCMTD:throw_bad_alloc.obj
 0001:00030d50       ??_Gexception@std@@UAEPAXI@Z 10031d50 f i LIBCMTD:throw_bad_alloc.obj
 0001:00030d80       ?__scrt_throw_std_bad_alloc@@YAXXZ 10031d80 f   LIBCMTD:throw_bad_alloc.obj
 0001:00030da0       ?__scrt_throw_std_bad_array_new_length@@YAXXZ 10031da0 f   LIBCMTD:throw_bad_alloc.obj
 0001:00030dc0       ?what@exception@std@@UBEPBDXZ 10031dc0 f i LIBCMTD:throw_bad_alloc.obj
 0001:00030df0       ??1type_info@@UAE@XZ       10031df0 f   LIBCMTD:std_type_info_static.obj
 0001:00030e10       ??_Gtype_info@@UAEPAXI@Z   10031e10 f i LIBCMTD:std_type_info_static.obj
 0001:00030e10       ??_Etype_info@@UAEPAXI@Z   10031e10 f i LIBCMTD:std_type_info_static.obj
 0001:00030e3e       ??$?2PAUHINSTANCE__@@@Wrapper@?$CSimpleArray@PAUHINSTANCE__@@V?$CSimpleArrayEqualHelper@PAUHINSTANCE__@@@ATL@@@ATL@@SAPAXIPAPAUHINSTANCE__@@@Z 10031e3e f i atls:atlbase.obj
 0001:00030e46       ??0?$CSimpleArray@PAUHINSTANCE__@@V?$CSimpleArrayEqualHelper@PAUHINSTANCE__@@@ATL@@@ATL@@QAE@XZ 10031e46 f i atls:atlbase.obj
 0001:00030e53       ??0CAtlBaseModule@ATL@@QAE@XZ 10031e53 f   atls:atlbase.obj
 0001:00030ea6       ??0Wrapper@?$CSimpleArray@PAUHINSTANCE__@@V?$CSimpleArrayEqualHelper@PAUHINSTANCE__@@@ATL@@@ATL@@QAE@ABQAUHINSTANCE__@@@Z 10031ea6 f i atls:atlbase.obj
 0001:00030eb6       ??0_ATL_BASE_MODULE70@ATL@@QAE@XZ 10031eb6 f i atls:atlbase.obj
 0001:00030ed9       ??1?$CSimpleArray@PAUHINSTANCE__@@V?$CSimpleArrayEqualHelper@PAUHINSTANCE__@@@ATL@@@ATL@@QAE@XZ 10031ed9 f i atls:atlbase.obj
 0001:00030ede       ??1CAtlBaseModule@ATL@@QAE@XZ 10031ede f   atls:atlbase.obj
 0001:00030ef4       ??1_ATL_BASE_MODULE70@ATL@@QAE@XZ 10031ef4 f i atls:atlbase.obj
 0001:00030efc       ??A?$CSimpleArray@PAUHINSTANCE__@@V?$CSimpleArrayEqualHelper@PAUHINSTANCE__@@@ATL@@@ATL@@QAEAAPAUHINSTANCE__@@H@Z 10031efc f i atls:atlbase.obj
 0001:00030f21       ?Add@?$CSimpleArray@PAUHINSTANCE__@@V?$CSimpleArrayEqualHelper@PAUHINSTANCE__@@@ATL@@@ATL@@QAEHABQAUHINSTANCE__@@@Z 10031f21 f i atls:atlbase.obj
 0001:00030fa3       ?AddResourceInstance@CAtlBaseModule@ATL@@QAE_NPAUHINSTANCE__@@@Z 10031fa3 f   atls:atlbase.obj
 0001:00030fd6       ?GetHInstanceAt@CAtlBaseModule@ATL@@QAEPAUHINSTANCE__@@H@Z 10031fd6 f   atls:atlbase.obj
 0001:0003101b       ?GetSize@?$CSimpleArray@PAUHINSTANCE__@@V?$CSimpleArrayEqualHelper@PAUHINSTANCE__@@@ATL@@@ATL@@QBEHXZ 1003201b f i atls:atlbase.obj
 0001:0003101f       ?InternalSetAtIndex@?$CSimpleArray@PAUHINSTANCE__@@V?$CSimpleArrayEqualHelper@PAUHINSTANCE__@@@ATL@@@ATL@@QAEXHABQAUHINSTANCE__@@@Z 1003201f f i atls:atlbase.obj
 0001:00031039       ?RemoveAll@?$CSimpleArray@PAUHINSTANCE__@@V?$CSimpleArrayEqualHelper@PAUHINSTANCE__@@@ATL@@@ATL@@QAEXXZ 10032039 f i atls:atlbase.obj
 0001:00031056       ?RemoveAt@?$CSimpleArray@PAUHINSTANCE__@@V?$CSimpleArrayEqualHelper@PAUHINSTANCE__@@@ATL@@@ATL@@QAEHH@Z 10032056 f i atls:atlbase.obj
 0001:000310a4       ?RemoveResourceInstance@CAtlBaseModule@ATL@@QAE_NPAUHINSTANCE__@@@Z 100320a4 f   atls:atlbase.obj
 0001:00031101       ?memmove_s@Checked@ATL@@YAXPAXIPBXI@Z 10032101 f i atls:atlbase.obj
 0001:0003145e       ?GetCodeAddress@_stdcallthunk@ATL@@QAEPAXXZ 1003245e f i atls:atlthunk.obj
 0001:00031488       ?Init@_stdcallthunk@ATL@@QAEHKPAX@Z 10032488 f i atls:atlthunk.obj
 0001:000314bd       ?__AllocStdCallThunk@@YGPAXXZ 100324bd f   atls:atlthunk.obj
 0001:000314c2       ?__AllocStdCallThunk@ATL@@YGPAXXZ 100324c2 f   atls:atlthunk.obj
 0001:000314c7       ?__AllocStdCallThunk_cmn@@YAPAXXZ 100324c7 f   atls:atlthunk.obj
 0001:0003158d       ?__FreeStdCallThunk@@YGXPAX@Z 1003258d f   atls:atlthunk.obj
 0001:0003159d       ?__FreeStdCallThunk@ATL@@YGXPAX@Z 1003259d f   atls:atlthunk.obj
 0001:000315ad       ?__FreeStdCallThunk_cmn@@YAXPAX@Z 100325ad f   atls:atlthunk.obj
 0001:00031648       _AtlThunk_AllocateData@0   10032648 f   atls:atlthunk.obj
 0001:000316ad       _AtlThunk_DataToCode@4     100326ad f   atls:atlthunk.obj
 0001:000316f4       _AtlThunk_FreeData@4       100326f4 f   atls:atlthunk.obj
 0001:0003174a       _AtlThunk_InitData@12      1003274a f   atls:atlthunk.obj
 0001:00031799       _MemoryBarrier             10032799 f i atls:atlthunk.obj
 0001:000317a7       __InlineInterlockedCompareExchangePointer 100327a7 f i atls:atlthunk.obj
 0001:000317c0       _memset                    100327c0 f   libvcruntimed:memset.obj
 0001:00031920       ??$__crt_interlocked_exchange_pointer@$$A6AXXZP6AXXZ@@YAP6AXXZPDS6AXXZQ6AXXZ@Z 10032920 f i libvcruntimed:purevirt.obj
 0001:00031930       ??$__crt_interlocked_read_pointer@$$A6AXXZ@@YAP6AXXZPDS6AXXZ@Z 10032930 f i libvcruntimed:purevirt.obj
 0001:00031950       ?__crt_interlocked_read_32@@YAHPDH@Z 10032950 f i libvcruntimed:purevirt.obj
 0001:00031970       __get_purecall_handler     10032970 f   libvcruntimed:purevirt.obj
 0001:00031990       __purecall                 10032990 f   libvcruntimed:purevirt.obj
 0001:000319c0       __set_purecall_handler     100329c0 f   libvcruntimed:purevirt.obj
 0001:00031b90       _memcmp                    10032b90 f   libvcruntimed:memcmp.obj
 0001:00032460       _memcpy                    10033460 f   libvcruntimed:memcpy.obj
 0001:000329e0       _wcsstr                    100339e0 f   libvcruntimed:wcsstr.obj
 0001:00032f10       __except_handler4          10033f10 f   libvcruntimed:chandler4.obj
 0001:00033100       ___vcrt_initialize         10034100 f   libvcruntimed:initialization.obj
 0001:00033140       ___vcrt_thread_attach      10034140 f   libvcruntimed:initialization.obj
 0001:00033160       ___vcrt_thread_detach      10034160 f   libvcruntimed:initialization.obj
 0001:00033180       ___vcrt_uninitialize       10034180 f   libvcruntimed:initialization.obj
 0001:000331a0       ___vcrt_uninitialize_critical 100341a0 f   libvcruntimed:initialization.obj
 0001:000331c0       ??$?0AAViterator@TryBlockMap@__FrameHandler3@@AAV012@$0A@@?$pair@Viterator@TryBlockMap@__FrameHandler3@@V123@@std@@QAE@AAViterator@TryBlockMap@__FrameHandler3@@0@Z 100341c0 f i libvcruntimed:trnsctrl.obj
 0001:00033210       ??$forward@AAViterator@TryBlockMap@__FrameHandler3@@@std@@YAAAViterator@TryBlockMap@__FrameHandler3@@AAV123@@Z 10034210 f i libvcruntimed:trnsctrl.obj
 0001:00033220       ??0iterator@TryBlockMap@__FrameHandler3@@QAE@AAV12@I@Z 10034220 f i libvcruntimed:trnsctrl.obj
 0001:00033250       ?GetRangeOfTrysToCheck@__FrameHandler3@@SA?AU?$pair@Viterator@TryBlockMap@__FrameHandler3@@V123@@std@@AAVTryBlockMap@1@HPAXPBU_s_FuncInfo@@H@Z 10034250 f   libvcruntimed:trnsctrl.obj
 0001:00033330       ?_CallCatchBlock2@@YAPAXPAUEHRegistrationNode@@PBU_s_FuncInfo@@PAXHK@Z 10034330 f   libvcruntimed:trnsctrl.obj
 0001:000333a0       ?_CallSETranslator@@YAHPAUEHExceptionRecord@@PAUEHRegistrationNode@@PAX2PBU_s_FuncInfo@@H1@Z 100343a0 f   libvcruntimed:trnsctrl.obj
 0001:000334a0       ?_JumpToContinuation@@YGXPAXPAUEHRegistrationNode@@@Z 100344a0 f   libvcruntimed:trnsctrl.obj
 0001:000334e0       ?_UnwindNestedFrames@@YGXPAUEHRegistrationNode@@PAUEHExceptionRecord@@@Z 100344e0 f   libvcruntimed:trnsctrl.obj
 0001:00033540       __CatchGuardHandler        10034540 f   libvcruntimed:trnsctrl.obj
 0001:00033590       __CreateFrameInfo          10034590 f   libvcruntimed:trnsctrl.obj
 0001:000335c0       __FindAndUnlinkFrame       100345c0 f   libvcruntimed:trnsctrl.obj
 0001:00033640       __TranslatorGuardHandler   10034640 f   libvcruntimed:trnsctrl.obj
 0001:000336f0       ___CxxFrameHandler         100346f0 f   libvcruntimed:trnsctrl.obj
 0001:00033730       ___CxxFrameHandler2        10034730 f   libvcruntimed:trnsctrl.obj
 0001:00033770       ___CxxFrameHandler3        10034770 f   libvcruntimed:trnsctrl.obj
 0001:000337b0       ___CxxLongjmpUnwind@4      100347b0 f   libvcruntimed:trnsctrl.obj
 0001:000337f0       ?<lambda_invoker_cdecl>@_Closure_wrapper_b3626920_1@@CAPAXI@Z 100347f0 f i libvcruntimed:std_type_info.obj
 0001:00033800       ?<lambda_invoker_cdecl>@_Closure_wrapper_b3626920_2@@CAXQAX@Z 10034800 f i libvcruntimed:std_type_info.obj
 0001:00033810       ??$?RD@__crt_internal_free_policy@@QBEXQBD@Z 10034810 f i libvcruntimed:std_type_info.obj
 0001:00033830       ??$?RX@__crt_internal_free_policy@@QBEXQBX@Z 10034830 f i libvcruntimed:std_type_info.obj
 0001:00033850       ??$__crt_interlocked_compare_exchange_pointer@$$CBDPAD$$T@@YAPBDPDSBDQAD$$T@Z 10034850 f i libvcruntimed:std_type_info.obj
 0001:00033870       ??$__crt_interlocked_read_pointer@$$CBD@@YAPBDPDSBD@Z 10034870 f i libvcruntimed:std_type_info.obj
 0001:00033890       ??0?$__crt_unique_heap_ptr@DU__crt_internal_free_policy@@@@QAE@QAD@Z 10034890 f i libvcruntimed:std_type_info.obj
 0001:000338b0       ??0?$__crt_unique_heap_ptr@XU__crt_internal_free_policy@@@@QAE@QAX@Z 100348b0 f i libvcruntimed:std_type_info.obj
 0001:000338d0       ??1?$__crt_unique_heap_ptr@DU__crt_internal_free_policy@@@@QAE@XZ 100348d0 f i libvcruntimed:std_type_info.obj
 0001:000338f0       ??1?$__crt_unique_heap_ptr@XU__crt_internal_free_policy@@@@QAE@XZ 100348f0 f i libvcruntimed:std_type_info.obj
 0001:00033910       ??B?$__crt_unique_heap_ptr@DU__crt_internal_free_policy@@@@QBE_NXZ 10034910 f i libvcruntimed:std_type_info.obj
 0001:00033930       ??B?$__crt_unique_heap_ptr@XU__crt_internal_free_policy@@@@QBE_NXZ 10034930 f i libvcruntimed:std_type_info.obj
 0001:00033950       ??B_Closure_wrapper_b3626920_1@@QBEP6APAXI@ZXZ 10034950 f i libvcruntimed:std_type_info.obj
 0001:00033960       ??B_Closure_wrapper_b3626920_2@@QBEP6AXQAX@ZXZ 10034960 f i libvcruntimed:std_type_info.obj
 0001:000339c0       ?detach@?$__crt_unique_heap_ptr@XU__crt_internal_free_policy@@@@QAEPAXXZ 100349c0 f i libvcruntimed:std_type_info.obj
 0001:000339f0       ?get@?$__crt_unique_heap_ptr@DU__crt_internal_free_policy@@@@QBEPADXZ 100349f0 f i libvcruntimed:std_type_info.obj
 0001:00033a00       ?get@?$__crt_unique_heap_ptr@XU__crt_internal_free_policy@@@@QBEPAXXZ 10034a00 f i libvcruntimed:std_type_info.obj
 0001:00033a10       ?is_valid@?$__crt_unique_heap_ptr@DU__crt_internal_free_policy@@@@QBE_NXZ 10034a10 f i libvcruntimed:std_type_info.obj
 0001:00033a40       ?is_valid@?$__crt_unique_heap_ptr@XU__crt_internal_free_policy@@@@QBE_NXZ 10034a40 f i libvcruntimed:std_type_info.obj
 0001:00033a70       ?release@?$__crt_unique_heap_ptr@DU__crt_internal_free_policy@@@@QAEXXZ 10034a70 f i libvcruntimed:std_type_info.obj
 0001:00033aa0       ?release@?$__crt_unique_heap_ptr@XU__crt_internal_free_policy@@@@QAEXXZ 10034aa0 f i libvcruntimed:std_type_info.obj
 0001:00033ad0       ___std_type_info_compare   10034ad0 f   libvcruntimed:std_type_info.obj
 0001:00033b00       ___std_type_info_destroy_list 10034b00 f   libvcruntimed:std_type_info.obj
 0001:00033b40       ___std_type_info_hash      10034b40 f   libvcruntimed:std_type_info.obj
 0001:00033ba0       ___std_type_info_name      10034ba0 f   libvcruntimed:std_type_info.obj
 0001:00033d80       ___vcrt_GetModuleFileNameW 10034d80 f   libvcruntimed:winapi_thunks.obj
 0001:00033da0       ___vcrt_GetModuleHandleW   10034da0 f   libvcruntimed:winapi_thunks.obj
 0001:00033db0       ___vcrt_LoadLibraryExW     10034db0 f   libvcruntimed:winapi_thunks.obj
 0001:00033dd0       ??$?RD@__crt_public_free_policy@@QBEXQBD@Z 10034dd0 f i libvcruntimed:std_exception.obj
 0001:00033df0       ??0?$__crt_unique_heap_ptr@DU__crt_public_free_policy@@@@QAE@QAD@Z 10034df0 f i libvcruntimed:std_exception.obj
 0001:00033e10       ??1?$__crt_unique_heap_ptr@DU__crt_public_free_policy@@@@QAE@XZ 10034e10 f i libvcruntimed:std_exception.obj
 0001:00033e30       ??B?$__crt_unique_heap_ptr@DU__crt_public_free_policy@@@@QBE_NXZ 10034e30 f i libvcruntimed:std_exception.obj
 0001:00033e50       ?detach@?$__crt_unique_heap_ptr@DU__crt_public_free_policy@@@@QAEPADXZ 10034e50 f i libvcruntimed:std_exception.obj
 0001:00033e80       ?get@?$__crt_unique_heap_ptr@DU__crt_public_free_policy@@@@QBEPADXZ 10034e80 f i libvcruntimed:std_exception.obj
 0001:00033e90       ?is_valid@?$__crt_unique_heap_ptr@DU__crt_public_free_policy@@@@QBE_NXZ 10034e90 f i libvcruntimed:std_exception.obj
 0001:00033ec0       ?release@?$__crt_unique_heap_ptr@DU__crt_public_free_policy@@@@QAEXXZ 10034ec0 f i libvcruntimed:std_exception.obj
 0001:00033ef0       ___std_exception_copy      10034ef0 f   libvcruntimed:std_exception.obj
 0001:00033fe0       ___std_exception_destroy   10034fe0 f   libvcruntimed:std_exception.obj
 0001:00034010       __CxxThrowException@8      10035010 f   libvcruntimed:throw.obj
 0001:000340d0       _memmove                   100350d0 f   libvcruntimed:memmove.obj
 0001:00034650       __local_unwind4            10035650 f   libvcruntimed:exsup4.obj
 0001:00034728       __seh_longjmp_unwind4@4    10035728 f   libvcruntimed:exsup4.obj
 0001:00034750       @_EH4_CallFilterFunc@8     10035750 f   libvcruntimed:exsup4.obj
 0001:00034768       @_EH4_TransferToHandler@8  10035768 f   libvcruntimed:exsup4.obj
 0001:00034784       @_EH4_GlobalUnwind2@8      10035784 f   libvcruntimed:exsup4.obj
 0001:000347a0       @_EH4_LocalUnwind@16       100357a0 f   libvcruntimed:exsup4.obj
 0001:000347d0       ___except_validate_context_record 100357d0 f   libvcruntimed:jbcxrval.obj
 0001:00034820       ___except_validate_jump_buffer 10035820 f   libvcruntimed:jbcxrval.obj
 0001:00034840       ___except_validate_jump_buffer_common 10035840 f i libvcruntimed:jbcxrval.obj
 0001:000348a0       ??$?RU__vcrt_ptd@@@__crt_internal_free_policy@@QBEXQBU__vcrt_ptd@@@Z 100358a0 f i libvcruntimed:per_thread_data.obj
 0001:000348c0       ??0?$__crt_unique_heap_ptr@U__vcrt_ptd@@U__crt_internal_free_policy@@@@QAE@QAU__vcrt_ptd@@@Z 100358c0 f i libvcruntimed:per_thread_data.obj
 0001:00034900       ??1?$__crt_unique_heap_ptr@U__vcrt_ptd@@U__crt_internal_free_policy@@@@QAE@XZ 10035900 f i libvcruntimed:per_thread_data.obj
 0001:00034940       ??B?$__crt_unique_heap_ptr@U__vcrt_ptd@@U__crt_internal_free_policy@@@@QBE_NXZ 10035940 f i libvcruntimed:per_thread_data.obj
 0001:00034960       ?detach@?$__crt_unique_heap_ptr@U__vcrt_ptd@@U__crt_internal_free_policy@@@@QAEPAU__vcrt_ptd@@XZ 10035960 f i libvcruntimed:per_thread_data.obj
 0001:00034990       ?get@?$__crt_unique_heap_ptr@U__vcrt_ptd@@U__crt_internal_free_policy@@@@QBEPAU__vcrt_ptd@@XZ 10035990 f i libvcruntimed:per_thread_data.obj
 0001:000349a0       ?is_valid@?$__crt_unique_heap_ptr@U__vcrt_ptd@@U__crt_internal_free_policy@@@@QBE_NXZ 100359a0 f i libvcruntimed:per_thread_data.obj
 0001:000349d0       ?release@?$__crt_unique_heap_ptr@U__vcrt_ptd@@U__crt_internal_free_policy@@@@QAEXXZ 100359d0 f i libvcruntimed:per_thread_data.obj
 0001:00034a30       ___vcrt_freefls@4          10035a30 f   libvcruntimed:per_thread_data.obj
 0001:00034a60       ___vcrt_freeptd            10035a60 f   libvcruntimed:per_thread_data.obj
 0001:00034ac0       ___vcrt_getptd             10035ac0 f   libvcruntimed:per_thread_data.obj
 0001:00034ae0       ___vcrt_getptd_noexit      10035ae0 f   libvcruntimed:per_thread_data.obj
 0001:00034c40       ___vcrt_getptd_noinit      10035c40 f   libvcruntimed:per_thread_data.obj
 0001:00034ca0       ___vcrt_initialize_ptd     10035ca0 f   libvcruntimed:per_thread_data.obj
 0001:00034cf0       ___vcrt_uninitialize_ptd   10035cf0 f   libvcruntimed:per_thread_data.obj
 0001:00034d20       ___vcrt_initialize_locks   10035d20 f   libvcruntimed:locks.obj
 0001:00034d80       ___vcrt_lock               10035d80 f   libvcruntimed:locks.obj
 0001:00034da0       ___vcrt_uninitialize_locks 10035da0 f   libvcruntimed:locks.obj
 0001:00034df0       ___vcrt_unlock             10035df0 f   libvcruntimed:locks.obj
 0001:00035a20       ??$TypeMatchHelper@V__FrameHandler3@@@@YAHPBU_s_HandlerType@@PBU_s_CatchableType@@PBU_s_ThrowInfo@@@Z 10036a20 f i libvcruntimed:frame.obj
 0001:00035b00       ??$__InternalCxxFrameHandler@V__FrameHandler3@@@@YA?AW4_EXCEPTION_DISPOSITION@@PAUEHExceptionRecord@@PAUEHRegistrationNode@@PAU_CONTEXT@@PAXPBU_s_FuncInfo@@H1E@Z 10036b00 f i libvcruntimed:frame.obj
 0001:00035ce0       ??0HandlerMap@__FrameHandler3@@QAE@PBU_s_TryBlockMapEntry@@II@Z 10036ce0 f i libvcruntimed:frame.obj
 0001:00035d10       ??0TryBlockMap@__FrameHandler3@@QAE@PBU_s_FuncInfo@@I@Z 10036d10 f i libvcruntimed:frame.obj
 0001:00035d40       ??0bad_exception@std@@QAE@ABV01@@Z 10036d40 f i libvcruntimed:frame.obj
 0001:00035d70       ??0bad_exception@std@@QAE@XZ 10036d70 f i libvcruntimed:frame.obj
 0001:00035da0       ??0iterator@HandlerMap@__FrameHandler3@@QAE@AAV12@I@Z 10036da0 f i libvcruntimed:frame.obj
 0001:00035dd0       ??1bad_exception@std@@UAE@XZ 10036dd0 f i libvcruntimed:frame.obj
 0001:00035df0       ??8iterator@HandlerMap@__FrameHandler3@@QBE_NABV012@@Z 10036df0 f i libvcruntimed:frame.obj
 0001:00035e20       ??8type_info@@QBE_NABV0@@Z 10036e20 f i libvcruntimed:frame.obj
 0001:00035e60       ??9iterator@HandlerMap@__FrameHandler3@@QBE_NABV012@@Z 10036e60 f i libvcruntimed:frame.obj
 0001:00035ea0       ??Diterator@HandlerMap@__FrameHandler3@@QAE?BU_s_HandlerType@@XZ 10036ea0 f i libvcruntimed:frame.obj
 0001:00035ee0       ??Diterator@TryBlockMap@__FrameHandler3@@QAE?BU_s_TryBlockMapEntry@@XZ 10036ee0 f i libvcruntimed:frame.obj
 0001:00035f30       ??Eiterator@HandlerMap@__FrameHandler3@@QAEAAV012@XZ 10036f30 f i libvcruntimed:frame.obj
 0001:00035f50       ??Eiterator@TryBlockMap@__FrameHandler3@@QAEAAV012@XZ 10036f50 f i libvcruntimed:frame.obj
 0001:00035f70       ??Miterator@TryBlockMap@__FrameHandler3@@QBE_NABV012@@Z 10036f70 f i libvcruntimed:frame.obj
 0001:00035fa0       ??_Gbad_exception@std@@UAEPAXI@Z 10036fa0 f i libvcruntimed:frame.obj
 0001:00035fa0       ??_Ebad_exception@std@@UAEPAXI@Z 10036fa0 f i libvcruntimed:frame.obj
 0001:00035fd0       ?BuildCatchObject@__FrameHandler3@@SAXPAUEHExceptionRecord@@PAXPBU_s_HandlerType@@PBU_s_CatchableType@@@Z 10036fd0 f   libvcruntimed:frame.obj
 0001:00035ff0       ?BuildCatchObjectHelper@__FrameHandler3@@SAHPAUEHExceptionRecord@@PAXPBU_s_HandlerType@@PBU_s_CatchableType@@@Z 10036ff0 f   libvcruntimed:frame.obj
 0001:00036390       ?FrameUnwindToEmptyState@__FrameHandler3@@SAXPAUEHRegistrationNode@@PAXPBU_s_FuncInfo@@@Z 10037390 f   libvcruntimed:frame.obj
 0001:000363b0       ?FrameUnwindToState@__FrameHandler3@@SAXPAUEHRegistrationNode@@PAXPBU_s_FuncInfo@@H@Z 100373b0 f   libvcruntimed:frame.obj
 0001:00036530       ?GetMaxState@__FrameHandler3@@SAHPAXPBU_s_FuncInfo@@@Z 10037530 f i libvcruntimed:frame.obj
 0001:00036660       ?TypeMatch@__FrameHandler3@@SAHPBU_s_HandlerType@@PBU_s_CatchableType@@PBU_s_ThrowInfo@@@Z 10037660 f   libvcruntimed:frame.obj
 0001:00036680       ?_CallMemberFunction1@@YGXQAX00@Z 10037680 f i libvcruntimed:frame.obj
 0001:000366b0       ?_CallMemberFunction2@@YGXQAX00H@Z 100376b0 f i libvcruntimed:frame.obj
 0001:000366e0       ?_ValidateExecute@@YA_NP6GHXZ@Z 100376e0 f i libvcruntimed:frame.obj
 0001:00036700       ?_ValidateRead@@YA_NPBXI@Z 10037700 f i libvcruntimed:frame.obj
 0001:00036720       ?_ValidateWrite@@YA_NPAXI@Z 10037720 f i libvcruntimed:frame.obj
 0001:00036740       ?begin@HandlerMap@__FrameHandler3@@QAE?AViterator@12@XZ 10037740 f i libvcruntimed:frame.obj
 0001:00036760       ?end@HandlerMap@__FrameHandler3@@QAE?AViterator@12@XZ 10037760 f i libvcruntimed:frame.obj
 0001:00036790       ?getESTypes@__FrameHandler3@@SAPBU_s_ESTypeList@@PBU_s_FuncInfo@@@Z 10037790 f i libvcruntimed:frame.obj
 0001:000367a0       ?getLastEntry@HandlerMap@__FrameHandler3@@QAEPBU_s_HandlerType@@XZ 100377a0 f i libvcruntimed:frame.obj
 0001:000367c0       ?getMagicNum@__FrameHandler3@@SAIPBU_s_FuncInfo@@@Z 100377c0 f i libvcruntimed:frame.obj
 0001:000367d0       ?getNumTryBlocks@TryBlockMap@__FrameHandler3@@QAEIXZ 100377d0 f i libvcruntimed:frame.obj
 0001:000367f0       ?isEHs@__FrameHandler3@@SA_NPBU_s_FuncInfo@@@Z 100377f0 f i libvcruntimed:frame.obj
 0001:00036820       ?isNoExcept@__FrameHandler3@@SA_NPBU_s_FuncInfo@@@Z 10037820 f i libvcruntimed:frame.obj
 0001:00036850       ___BuildCatchObject        10037850 f   libvcruntimed:frame.obj
 0001:00036870       ___BuildCatchObjectHelper  10037870 f   libvcruntimed:frame.obj
 0001:00036890       ___TypeMatch               10037890 f   libvcruntimed:frame.obj
 0001:000368b0       ___vcrt_EncodePointer      100378b0 f i libvcruntimed:frame.obj
 0001:000368c0       __CallSettingFrame@12      100378c0 f   libvcruntimed:lowhelpr.obj
 0001:000368e7       __NLG_Return               100378e7     libvcruntimed:lowhelpr.obj
 0001:00036910       ??0Block@_HeapManager@@QAE@XZ 10037910 f i libvcruntimed:undname.obj
 0001:00036930       ??0DName@@QAE@AAPBDD@Z     10037930 f   libvcruntimed:undname.obj
 0001:00036b60       ??0DName@@QAE@ABV0@@Z      10037b60 f i libvcruntimed:undname.obj
 0001:00036b90       ??0DName@@QAE@D@Z          10037b90 f   libvcruntimed:undname.obj
 0001:00036bd0       ??0DName@@QAE@PAV0@@Z      10037bd0 f   libvcruntimed:undname.obj
 0001:00036c80       ??0DName@@QAE@PBD@Z        10037c80 f   libvcruntimed:undname.obj
 0001:00036cd0       ??0DName@@QAE@W4DNameStatus@@@Z 10037cd0 f   libvcruntimed:undname.obj
 0001:00036d70       ??0DName@@QAE@XZ           10037d70 f i libvcruntimed:undname.obj
 0001:00036da0       ??0DName@@QAE@_J@Z         10037da0 f   libvcruntimed:undname.obj
 0001:00036e90       ??0DName@@QAE@_K@Z         10037e90 f   libvcruntimed:undname.obj
 0001:00036f40       ??0DNameNode@@IAE@XZ       10037f40 f i libvcruntimed:undname.obj
 0001:00036f60       ??0Replicator@@QAE@XZ      10037f60 f i libvcruntimed:undname.obj
 0001:00036fa0       ??0UnDecorator@@QAE@PBDP6APADJ@ZK@Z 10037fa0 f i libvcruntimed:undname.obj
 0001:00037020       ??0charNode@@QAE@D@Z       10038020 f i libvcruntimed:undname.obj
 0001:00037050       ??0pDNameNode@@QAE@PAVDName@@@Z 10038050 f   libvcruntimed:undname.obj
 0001:000370b0       ??0pairNode@@QAE@PBVDNameNode@@0@Z 100380b0 f i libvcruntimed:undname.obj
 0001:000370f0       ??0pcharNode@@QAE@PBDH@Z   100380f0 f   libvcruntimed:undname.obj
 0001:000371b0       ??2@YAPAXIAAV_HeapManager@@H@Z 100381b0 f i libvcruntimed:undname.obj
 0001:000371d0       ??4DName@@QAEAAV0@ABV0@@Z  100381d0 f   libvcruntimed:undname.obj
 0001:00037200       ??4DName@@QAEAAV0@D@Z      10038200 f i libvcruntimed:undname.obj
 0001:00037240       ??4DName@@QAEAAV0@PAV0@@Z  10038240 f   libvcruntimed:undname.obj
 0001:000372e0       ??4DName@@QAEAAV0@PBD@Z    100382e0 f   libvcruntimed:undname.obj
 0001:00037320       ??4DName@@QAEAAV0@W4DNameStatus@@@Z 10038320 f   libvcruntimed:undname.obj
 0001:000373a0       ??AReplicator@@QBE?AVDName@@H@Z 100383a0 f   libvcruntimed:undname.obj
 0001:00037410       ??H@YA?AVDName@@DABV0@@Z   10038410 f i libvcruntimed:undname.obj
 0001:00037440       ??H@YA?AVDName@@PBDABV0@@Z 10038440 f i libvcruntimed:undname.obj
 0001:00037470       ??H@YA?AVDName@@W4DNameStatus@@ABV0@@Z 10038470 f i libvcruntimed:undname.obj
 0001:000374a0       ??HDName@@QBE?AV0@ABV0@@Z  100384a0 f   libvcruntimed:undname.obj
 0001:000374e0       ??HDName@@QBE?AV0@D@Z      100384e0 f   libvcruntimed:undname.obj
 0001:00037520       ??HDName@@QBE?AV0@PAV0@@Z  10038520 f   libvcruntimed:undname.obj
 0001:00037560       ??HDName@@QBE?AV0@PBD@Z    10038560 f   libvcruntimed:undname.obj
 0001:000375a0       ??HDName@@QBE?AV0@W4DNameStatus@@@Z 100385a0 f   libvcruntimed:undname.obj
 0001:000375e0       ??YDName@@QAEAAV0@ABV0@@Z  100385e0 f   libvcruntimed:undname.obj
 0001:00037650       ??YDName@@QAEAAV0@D@Z      10038650 f   libvcruntimed:undname.obj
 0001:000376d0       ??YDName@@QAEAAV0@PAV0@@Z  100386d0 f   libvcruntimed:undname.obj
 0001:00037780       ??YDName@@QAEAAV0@PBD@Z    10038780 f   libvcruntimed:undname.obj
 0001:00037820       ??YDName@@QAEAAV0@W4DNameStatus@@@Z 10038820 f   libvcruntimed:undname.obj
 0001:00037880       ??YReplicator@@QAEAAV0@ABVDName@@@Z 10038880 f   libvcruntimed:undname.obj
 0001:00037910       ??_5DName@@QAEAAV0@ABV0@@Z 10038910 f   libvcruntimed:undname.obj
 0001:00037970       ?Constructor@_HeapManager@@QAEXP6APAXI@ZP6AXPAX@Z@Z 10038970 f i libvcruntimed:undname.obj
 0001:000379b0       ?Destructor@_HeapManager@@QAEXXZ 100389b0 f i libvcruntimed:undname.obj
 0001:00037a10       ?UScore@UnDecorator@@SAPBDW4Tokens@@@Z 10038a10 f   libvcruntimed:undname.obj
 0001:00037a40       ?append@DName@@AAEXPBVDNameNode@@@Z 10038a40 f   libvcruntimed:undname.obj
 0001:00037ad0       ?composeDeclaration@UnDecorator@@CA?AVDName@@ABV2@@Z 10038ad0 f i libvcruntimed:undname.obj
 0001:00039850       ?dbGetString@DName@@QBEPADXZ 1003a850 f   libvcruntimed:undname.obj
 0001:00039870       ?doAccessSpecifiers@UnDecorator@@SAHXZ 1003a870 f i libvcruntimed:undname.obj
 0001:000398a0       ?doAllocationLanguage@UnDecorator@@SAHXZ 1003a8a0 f i libvcruntimed:undname.obj
 0001:000398d0       ?doAllocationModel@UnDecorator@@SAHXZ 1003a8d0 f i libvcruntimed:undname.obj
 0001:00039900       ?doEcsu@UnDecorator@@SAHXZ 1003a900 f i libvcruntimed:undname.obj
 0001:00039930       ?doEllipsis@UnDecorator@@SAHXZ 1003a930 f i libvcruntimed:undname.obj
 0001:00039960       ?doFunctionReturns@UnDecorator@@SAHXZ 1003a960 f i libvcruntimed:undname.obj
 0001:00039990       ?doMSKeywords@UnDecorator@@SAHXZ 1003a990 f i libvcruntimed:undname.obj
 0001:000399c0       ?doMemberTypes@UnDecorator@@SAHXZ 1003a9c0 f i libvcruntimed:undname.obj
 0001:000399f0       ?doNameOnly@UnDecorator@@SAHXZ 1003a9f0 f i libvcruntimed:undname.obj
 0001:00039a00       ?doNoIdentCharCheck@UnDecorator@@SAHXZ 1003aa00 f i libvcruntimed:undname.obj
 0001:00039a10       ?doPchar@DName@@AAEXPBDH@Z 1003aa10 f   libvcruntimed:undname.obj
 0001:00039b50       ?doPtr64@UnDecorator@@SAHXZ 1003ab50 f i libvcruntimed:undname.obj
 0001:00039b80       ?doRestrictionSpec@UnDecorator@@SAHXZ 1003ab80 f i libvcruntimed:undname.obj
 0001:00039bb0       ?doThisTypes@UnDecorator@@SAHXZ 1003abb0 f i libvcruntimed:undname.obj
 0001:00039be0       ?doThrowTypes@UnDecorator@@SAHXZ 1003abe0 f i libvcruntimed:undname.obj
 0001:00039c10       ?doTypeOnly@UnDecorator@@SAHXZ 1003ac10 f i libvcruntimed:undname.obj
 0001:00039c20       ?doUnderScore@UnDecorator@@SAHXZ 1003ac20 f i libvcruntimed:undname.obj
 0001:00039c50       ?getArgumentList@UnDecorator@@CA?AVDName@@XZ 1003ac50 f   libvcruntimed:undname.obj
 0001:00039da0       ?getArgumentTypes@UnDecorator@@CA?AVDName@@XZ 1003ada0 f   libvcruntimed:undname.obj
 0001:00039ef0       ?getArrayType@UnDecorator@@CA?AVDName@@ABV2@@Z 1003aef0 f i libvcruntimed:undname.obj
 0001:0003a160       ?getBasedType@UnDecorator@@CA?AVDName@@XZ 1003b160 f   libvcruntimed:undname.obj
 0001:0003a220       ?getBasicDataType@UnDecorator@@CA?AVDName@@ABV2@@Z 1003b220 f   libvcruntimed:undname.obj
 0001:0003a820       ?getCHPEName@UnDecorator@@QAEPADPADH@Z 1003b820 f i libvcruntimed:undname.obj
 0001:0003a980       ?getCallIndex@UnDecorator@@CA?AVDName@@XZ 1003b980 f i libvcruntimed:undname.obj
 0001:0003a9a0       ?getCallingConvention@UnDecorator@@CA?AVDName@@XZ 1003b9a0 f   libvcruntimed:undname.obj
 0001:0003ab80       ?getDataIndirectType@UnDecorator@@CA?AVDName@@ABV2@PBD0H@Z 1003bb80 f   libvcruntimed:undname.obj
 0001:0003b3a0       ?getDataIndirectType@UnDecorator@@CA?AVDName@@XZ 1003c3a0 f i libvcruntimed:undname.obj
 0001:0003b3f0       ?getDataType@UnDecorator@@CA?AVDName@@PAV2@@Z 1003c3f0 f   libvcruntimed:undname.obj
 0001:0003b510       ?getDecoratedName@UnDecorator@@CA?AVDName@@XZ 1003c510 f   libvcruntimed:undname.obj
 0001:0003b910       ?getDimension@UnDecorator@@CA?AVDName@@_N@Z 1003c910 f   libvcruntimed:undname.obj
 0001:0003bbc0       ?getDispatchTarget@UnDecorator@@CA?AVDName@@XZ 1003cbc0 f   libvcruntimed:undname.obj
 0001:0003bc60       ?getDisplacement@UnDecorator@@CA?AVDName@@XZ 1003cc60 f i libvcruntimed:undname.obj
 0001:0003bc80       ?getECSUDataType@UnDecorator@@CA?AVDName@@XZ 1003cc80 f   libvcruntimed:undname.obj
 0001:0003be50       ?getECSUName@UnDecorator@@CA?AVDName@@XZ 1003ce50 f i libvcruntimed:undname.obj
 0001:0003be70       ?getEnumType@UnDecorator@@CA?AVDName@@XZ 1003ce70 f i libvcruntimed:undname.obj
 0001:0003bfc0       ?getExtendedDataIndirectType@UnDecorator@@CA?AVDName@@AAPBDAA_NH@Z 1003cfc0 f   libvcruntimed:undname.obj
 0001:0003c210       ?getExternalDataType@UnDecorator@@CA?AVDName@@ABV2@@Z 1003d210 f i libvcruntimed:undname.obj
 0001:0003c2b0       ?getFunctionIndirectType@UnDecorator@@CA?AVDName@@ABV2@@Z 1003d2b0 f   libvcruntimed:undname.obj
 0001:0003c780       ?getGuardNumber@UnDecorator@@CA?AVDName@@XZ 1003d780 f i libvcruntimed:undname.obj
 0001:0003c7a0       ?getLastChar@DName@@QBEDXZ 1003d7a0 f i libvcruntimed:undname.obj
 0001:0003c7e0       ?getLastChar@DNameStatusNode@@UBEDXZ 1003d7e0 f i libvcruntimed:undname.obj
 0001:0003c810       ?getLastChar@charNode@@UBEDXZ 1003d810 f i libvcruntimed:undname.obj
 0001:0003c830       ?getLastChar@pDNameNode@@UBEDXZ 1003d830 f i libvcruntimed:undname.obj
 0001:0003c860       ?getLastChar@pairNode@@UBEDXZ 1003d860 f i libvcruntimed:undname.obj
 0001:0003c8d0       ?getLastChar@pcharNode@@UBEDXZ 1003d8d0 f i libvcruntimed:undname.obj
 0001:0003c910       ?getLexicalFrame@UnDecorator@@CA?AVDName@@XZ 1003d910 f i libvcruntimed:undname.obj
 0001:0003c950       ?getMemory@_HeapManager@@QAEPAXIH@Z 1003d950 f   libvcruntimed:undname.obj
 0001:0003ca70       ?getNoexcept@UnDecorator@@CA?AVDName@@XZ 1003da70 f   libvcruntimed:undname.obj
 0001:0003cae0       ?getNumberOfDimensions@UnDecorator@@CAHXZ 1003dae0 f   libvcruntimed:undname.obj
 0001:0003cbe0       ?getOperatorName@UnDecorator@@CA?AVDName@@_NPA_N@Z 1003dbe0 f i libvcruntimed:undname.obj
 0001:0003d650       ?getPointerType@UnDecorator@@CA?AVDName@@ABV2@0@Z 1003e650 f i libvcruntimed:undname.obj
 0001:0003d680       ?getPointerTypeArray@UnDecorator@@CA?AVDName@@ABV2@0@Z 1003e680 f i libvcruntimed:undname.obj
 0001:0003d6b0       ?getPrimaryDataType@UnDecorator@@CA?AVDName@@ABV2@@Z 1003e6b0 f   libvcruntimed:undname.obj
 0001:0003dab0       ?getPtrRefDataType@UnDecorator@@CA?AVDName@@ABV2@H@Z 1003eab0 f   libvcruntimed:undname.obj
 0001:0003dce0       ?getPtrRefType@UnDecorator@@CA?AVDName@@ABV2@0PBD@Z 1003ece0 f   libvcruntimed:undname.obj
 0001:0003de50       ?getReferenceType@UnDecorator@@CA?AVDName@@ABV2@0PBD@Z 1003ee50 f i libvcruntimed:undname.obj
 0001:0003de70       ?getRestrictionSpec@UnDecorator@@CA?AVDName@@XZ 1003ee70 f   libvcruntimed:undname.obj
 0001:0003dfe0       ?getReturnType@UnDecorator@@CA?AVDName@@PAV2@@Z 1003efe0 f   libvcruntimed:undname.obj
 0001:0003e030       ?getScope@UnDecorator@@CA?AVDName@@XZ 1003f030 f   libvcruntimed:undname.obj
 0001:0003e560       ?getScopedName@UnDecorator@@CA?AVDName@@XZ 1003f560 f   libvcruntimed:undname.obj
 0001:0003e690       ?getSignedDimension@UnDecorator@@CA?AVDName@@XZ 1003f690 f   libvcruntimed:undname.obj
 0001:0003e710       ?getStorageConvention@UnDecorator@@CA?AVDName@@XZ 1003f710 f i libvcruntimed:undname.obj
 0001:0003e730       ?getString@DName@@QBEPADPAD0@Z 1003f730 f i libvcruntimed:undname.obj
 0001:0003e790       ?getString@DName@@QBEPADPADH@Z 1003f790 f i libvcruntimed:undname.obj
 0001:0003e820       ?getString@DNameStatusNode@@UBEPADPAD0@Z 1003f820 f i libvcruntimed:undname.obj
 0001:0003e860       ?getString@charNode@@UBEPADPAD0@Z 1003f860 f i libvcruntimed:undname.obj
 0001:0003e890       ?getString@pDNameNode@@UBEPADPAD0@Z 1003f890 f i libvcruntimed:undname.obj
 0001:0003e8d0       ?getString@pairNode@@UBEPADPAD0@Z 1003f8d0 f i libvcruntimed:undname.obj
 0001:0003e960       ?getString@pcharNode@@UBEPADPAD0@Z 1003f960 f i libvcruntimed:undname.obj
 0001:0003e990       ?getStringEncoding@UnDecorator@@CA?AVDName@@PBDH@Z 1003f990 f   libvcruntimed:undname.obj
 0001:0003eaa0       ?getStringHelper@@YAPADPADPBD1H@Z 1003faa0 f i libvcruntimed:undname.obj
 0001:0003eae0       ?getSymbolName@UnDecorator@@CA?AVDName@@XZ 1003fae0 f i libvcruntimed:undname.obj
 0001:0003eb70       ?getTemplateArgumentList@UnDecorator@@CA?AVDName@@XZ 1003fb70 f   libvcruntimed:undname.obj
 0001:0003ee30       ?getTemplateName@UnDecorator@@CA?AVDName@@_N@Z 1003fe30 f   libvcruntimed:undname.obj
 0001:0003f000       ?getTemplateNonTypeArgument@UnDecorator@@CA?AVDName@@XZ 10040000 f   libvcruntimed:undname.obj
 0001:0003f630       ?getTemplateTypeArgument@UnDecorator@@CA?AVDName@@XZ 10040630 f   libvcruntimed:undname.obj
 0001:0003f790       ?getThisType@UnDecorator@@CA?AVDName@@XZ 10040790 f i libvcruntimed:undname.obj
 0001:0003f7e0       ?getThrowTypes@UnDecorator@@CA?AVDName@@XZ 100407e0 f   libvcruntimed:undname.obj
 0001:0003f820       ?getTypeEncoding@UnDecorator@@CAHXZ 10040820 f i libvcruntimed:undname.obj
 0001:000402b0       ?getUndecoratedName@UnDecorator@@QAEPADPADH@Z 100412b0 f i libvcruntimed:undname.obj
 0001:00040400       ?getVCallThunkType@UnDecorator@@CA?AVDName@@XZ 10041400 f i libvcruntimed:undname.obj
 0001:00040460       ?getVbTableType@UnDecorator@@CA?AVDName@@ABV2@@Z 10041460 f i libvcruntimed:undname.obj
 0001:00040480       ?getVdispMapType@UnDecorator@@CA?AVDName@@ABV2@@Z 10041480 f i libvcruntimed:undname.obj
 0001:000404f0       ?getVfTableType@UnDecorator@@CA?AVDName@@ABV2@@Z 100414f0 f i libvcruntimed:undname.obj
 0001:000406c0       ?getZName@UnDecorator@@CA?AVDName@@_N0@Z 100416c0 f   libvcruntimed:undname.obj
 0001:000409a0       ?haveTemplateParameters@UnDecorator@@SAHXZ 100419a0 f i libvcruntimed:undname.obj
 0001:000409b0       ?isArray@DName@@QBEHXZ     100419b0 f i libvcruntimed:undname.obj
 0001:000409d0       ?isComArray@DName@@QBEHXZ  100419d0 f i libvcruntimed:undname.obj
 0001:000409f0       ?isEmpty@DName@@QBEHXZ     100419f0 f i libvcruntimed:undname.obj
 0001:00040a20       ?isFull@Replicator@@QBEHXZ 10041a20 f i libvcruntimed:undname.obj
 0001:00040a50       ?isNoTE@DName@@QBEHXZ      10041a50 f i libvcruntimed:undname.obj
 0001:00040a70       ?isPinPtr@DName@@QBEHXZ    10041a70 f i libvcruntimed:undname.obj
 0001:00040a90       ?isPtrRef@DName@@QBEHXZ    10041a90 f i libvcruntimed:undname.obj
 0001:00040ab0       ?isUDC@DName@@QBEHXZ       10041ab0 f i libvcruntimed:undname.obj
 0001:00040af0       ?isUDTThunk@DName@@QBEHXZ  10041af0 f i libvcruntimed:undname.obj
 0001:00040b30       ?isVCallThunk@DName@@QBEHXZ 10041b30 f i libvcruntimed:undname.obj
 0001:00040b50       ?isValid@DName@@QBEHXZ     10041b50 f i libvcruntimed:undname.obj
 0001:00040b90       ?length@DName@@QBEHXZ      10041b90 f i libvcruntimed:undname.obj
 0001:00040bd0       ?length@DNameStatusNode@@UBEHXZ 10041bd0 f i libvcruntimed:undname.obj
 0001:00040bf0       ?length@charNode@@UBEHXZ   10041bf0 f i libvcruntimed:undname.obj
 0001:00040c00       ?length@pDNameNode@@UBEHXZ 10041c00 f i libvcruntimed:undname.obj
 0001:00040c30       ?length@pairNode@@UBEHXZ   10041c30 f i libvcruntimed:undname.obj
 0001:00040ca0       ?length@pcharNode@@UBEHXZ  10041ca0 f i libvcruntimed:undname.obj
 0001:00040cc0       ?make@DNameStatusNode@@SAPBV1@W4DNameStatus@@@Z 10041cc0 f i libvcruntimed:undname.obj
 0001:00040cf0       ?parseDecoratedName@UnDecorator@@CA?AVDName@@XZ 10041cf0 f   libvcruntimed:undname.obj
 0001:00040e70       ?setIsArray@DName@@QAEXXZ  10041e70 f i libvcruntimed:undname.obj
 0001:00040e90       ?setIsComArray@DName@@QAEXXZ 10041e90 f i libvcruntimed:undname.obj
 0001:00040eb0       ?setIsNoTE@DName@@QAEXXZ   10041eb0 f i libvcruntimed:undname.obj
 0001:00040ed0       ?setIsPinPtr@DName@@QAEXXZ 10041ed0 f i libvcruntimed:undname.obj
 0001:00040ef0       ?setIsUDC@DName@@QAEXXZ    10041ef0 f i libvcruntimed:undname.obj
 0001:00040f20       ?setIsVCallThunk@DName@@QAEXXZ 10041f20 f i libvcruntimed:undname.obj
 0001:00040f40       ?setPtrRef@DName@@QAEAAV1@XZ 10041f40 f i libvcruntimed:undname.obj
 0001:00040f60       ?status@DName@@QBE?AW4DNameStatus@@XZ 10041f60 f i libvcruntimed:undname.obj
 0001:00041060       ___unDName                 10042060 f   libvcruntimed:undname.obj
 0001:00041090       ___unDNameEx               10042090 f   libvcruntimed:undname.obj
 0001:00041160       _unDNameGenerateCHPE       10042160 f   libvcruntimed:undname.obj
 0001:000411c0       __global_unwind2           100421c0 f   libvcruntimed:exsup.obj
 0001:00041226       __local_unwind2            10042226 f   libvcruntimed:exsup.obj
 0001:000412aa       __abnormal_termination     100422aa f   libvcruntimed:exsup.obj
 0001:000412d0       __NLG_Notify1              100422d0 f   libvcruntimed:exsup.obj
 0001:000412dc       __NLG_Notify               100422dc f   libvcruntimed:exsup.obj
 0001:000412f3       __NLG_Dispatch2            100422f3     libvcruntimed:exsup.obj
 0001:000412f3       __NLG_Dispatch             100422f3     libvcruntimed:exsup.obj
 0001:000412fb       __NLG_Call                 100422fb f   libvcruntimed:exsup.obj
 0001:000412fd       __NLG_Return2              100422fd     libvcruntimed:exsup.obj
 0001:00041300       ??$__crt_interlocked_exchange_pointer@UHINSTANCE__@@PAU1@@@YAPAUHINSTANCE__@@PDSAU0@QAU0@@Z 10042300 f i libvcruntimed:winapi_downlevel.obj
 0001:00041310       ??$__crt_interlocked_exchange_pointer@UHINSTANCE__@@PAX@@YAPAUHINSTANCE__@@PDSAU0@QAX@Z 10042310 f i libvcruntimed:winapi_downlevel.obj
 0001:00041320       ??$__crt_interlocked_exchange_pointer@XPAX@@YAPAXPDSAXQAX@Z 10042320 f i libvcruntimed:winapi_downlevel.obj
 0001:00041330       ??$__crt_interlocked_read_pointer@UHINSTANCE__@@@@YAPAUHINSTANCE__@@PDSAU0@@Z 10042330 f i libvcruntimed:winapi_downlevel.obj
 0001:00041350       ??$__crt_interlocked_read_pointer@X@@YAPAXPDSAX@Z 10042350 f i libvcruntimed:winapi_downlevel.obj
 0001:00041720       ___vcrt_FlsAlloc           10042720 f   libvcruntimed:winapi_downlevel.obj
 0001:00041760       ___vcrt_FlsFree            10042760 f   libvcruntimed:winapi_downlevel.obj
 0001:000417a0       ___vcrt_FlsGetValue        100427a0 f   libvcruntimed:winapi_downlevel.obj
 0001:000417e0       ___vcrt_FlsSetValue        100427e0 f   libvcruntimed:winapi_downlevel.obj
 0001:00041830       ___vcrt_InitializeCriticalSectionEx 10042830 f   libvcruntimed:winapi_downlevel.obj
 0001:000418b0       __get_unexpected           100428b0 f   libvcruntimed:unexpected.obj
 0001:000418d0       _set_unexpected            100428d0 f   libvcruntimed:unexpected.obj
 0001:00041900       _unexpected                10042900 f   libvcruntimed:unexpected.obj
 0001:00041940       ?GetCurrentState@__FrameHandler3@@SAHPAUEHRegistrationNode@@PAXPBU_s_FuncInfo@@@Z 10042940 f   libvcruntimed:ehstate.obj
 0001:00041970       ?SetState@__FrameHandler3@@SAXPAUEHRegistrationNode@@PBU_s_FuncInfo@@H@Z 10042970 f   libvcruntimed:ehstate.obj
 0001:00041980       ___DestructExceptionObject 10042980 f   libvcruntimed:ehhelpers.obj
 0001:00041ab0       ?_CallMemberFunction0@@YGXQAX0@Z 10042ab0 f i libvcruntimed:ehhelpers.obj
 0001:00041ad0       ?raw_name@type_info@@QBEPBDXZ 10042ad0 f i libvcruntimed:ehhelpers.obj
 0001:00041af0       __IsExceptionObjectToBeDestroyed 10042af0 f   libvcruntimed:ehhelpers.obj
 0001:00041b30       __SetWinRTOutOfMemoryExceptionCallback 10042b30 f   libvcruntimed:ehhelpers.obj
 0001:00041b40       ___AdjustPointer           10042b40 f   libvcruntimed:ehhelpers.obj
 0001:00041b90       ___FrameUnwindFilter       10042b90 f   libvcruntimed:ehhelpers.obj
 0001:00041c10       ___GetPlatformExceptionInfo 10042c10 f   libvcruntimed:ehhelpers.obj
 0001:00041c90       ___current_exception       10042c90 f   libvcruntimed:ehhelpers.obj
 0001:00041ca0       ___current_exception_context 10042ca0 f   libvcruntimed:ehhelpers.obj
 0001:00041cb0       ___processing_throw        10042cb0 f   libvcruntimed:ehhelpers.obj
 0001:00041cc0       ___std_terminate           10042cc0 f   libvcruntimed:ehhelpers.obj
 0001:00041cd0       __is_exception_typeof      10042cd0 f   libvcruntimed:ehhelpers.obj
 0001:00041db0       ??$?0ABV?$stream_output_adapter@D@__crt_stdio_output@@AB_KABQBDABQAU__crt_locale_pointers@@ABQAD@?$format_validation_base@DV?$stream_output_adapter@D@__crt_stdio_output@@@__crt_stdio_output@@IAE@ABV?$stream_output_adapter@D@1@AB_KABQBDABQAU__crt_locale_pointers@@ABQAD@Z 10042db0 f i libucrtd:output.obj
 0001:00041de0       ??$?0ABV?$stream_output_adapter@D@__crt_stdio_output@@AB_KABQBDABQAU__crt_locale_pointers@@ABQAD@?$positional_parameter_base@DV?$stream_output_adapter@D@__crt_stdio_output@@@__crt_stdio_output@@IAE@ABV?$stream_output_adapter@D@1@AB_KABQBDABQAU__crt_locale_pointers@@ABQAD@Z 10042de0 f i libucrtd:output.obj
 0001:00041e60       ??$?0ABV?$stream_output_adapter@D@__crt_stdio_output@@AB_KABQBDABQAU__crt_locale_pointers@@ABQAD@?$standard_base@DV?$stream_output_adapter@D@__crt_stdio_output@@@__crt_stdio_output@@IAE@ABV?$stream_output_adapter@D@1@AB_KABQBDABQAU__crt_locale_pointers@@ABQAD@Z 10042e60 f i libucrtd:output.obj
 0001:00041eb0       ??$?0ABV?$stream_output_adapter@_W@__crt_stdio_output@@AB_KABQB_WABQAU__crt_locale_pointers@@ABQAD@?$format_validation_base@_WV?$stream_output_adapter@_W@__crt_stdio_output@@@__crt_stdio_output@@IAE@ABV?$stream_output_adapter@_W@1@AB_KABQB_WABQAU__crt_locale_pointers@@ABQAD@Z 10042eb0 f i libucrtd:output.obj
 0001:00041ee0       ??$?0ABV?$stream_output_adapter@_W@__crt_stdio_output@@AB_KABQB_WABQAU__crt_locale_pointers@@ABQAD@?$positional_parameter_base@_WV?$stream_output_adapter@_W@__crt_stdio_output@@@__crt_stdio_output@@IAE@ABV?$stream_output_adapter@_W@1@AB_KABQB_WABQAU__crt_locale_pointers@@ABQAD@Z 10042ee0 f i libucrtd:output.obj
 0001:00041f60       ??$?0ABV?$stream_output_adapter@_W@__crt_stdio_output@@AB_KABQB_WABQAU__crt_locale_pointers@@ABQAD@?$standard_base@_WV?$stream_output_adapter@_W@__crt_stdio_output@@@__crt_stdio_output@@IAE@ABV?$stream_output_adapter@_W@1@AB_KABQB_WABQAU__crt_locale_pointers@@ABQAD@Z 10042f60 f i libucrtd:output.obj
 0001:00041fb0       ??$?0ABV?$string_output_adapter@D@__crt_stdio_output@@AB_KABQBDABQAU__crt_locale_pointers@@ABQAD@?$format_validation_base@DV?$string_output_adapter@D@__crt_stdio_output@@@__crt_stdio_output@@IAE@ABV?$string_output_adapter@D@1@AB_KABQBDABQAU__crt_locale_pointers@@ABQAD@Z 10042fb0 f i libucrtd:output.obj
 0001:00041fe0       ??$?0ABV?$string_output_adapter@D@__crt_stdio_output@@AB_KABQBDABQAU__crt_locale_pointers@@ABQAD@?$positional_parameter_base@DV?$string_output_adapter@D@__crt_stdio_output@@@__crt_stdio_output@@IAE@ABV?$string_output_adapter@D@1@AB_KABQBDABQAU__crt_locale_pointers@@ABQAD@Z 10042fe0 f i libucrtd:output.obj
 0001:00042060       ??$?0ABV?$string_output_adapter@D@__crt_stdio_output@@AB_KABQBDABQAU__crt_locale_pointers@@ABQAD@?$standard_base@DV?$string_output_adapter@D@__crt_stdio_output@@@__crt_stdio_output@@IAE@ABV?$string_output_adapter@D@1@AB_KABQBDABQAU__crt_locale_pointers@@ABQAD@Z 10043060 f i libucrtd:output.obj
 0001:000420b0       ??$?0ABV?$string_output_adapter@_W@__crt_stdio_output@@AB_KABQB_WABQAU__crt_locale_pointers@@ABQAD@?$format_validation_base@_WV?$string_output_adapter@_W@__crt_stdio_output@@@__crt_stdio_output@@IAE@ABV?$string_output_adapter@_W@1@AB_KABQB_WABQAU__crt_locale_pointers@@ABQAD@Z 100430b0 f i libucrtd:output.obj
 0001:000420e0       ??$?0ABV?$string_output_adapter@_W@__crt_stdio_output@@AB_KABQB_WABQAU__crt_locale_pointers@@ABQAD@?$positional_parameter_base@_WV?$string_output_adapter@_W@__crt_stdio_output@@@__crt_stdio_output@@IAE@ABV?$string_output_adapter@_W@1@AB_KABQB_WABQAU__crt_locale_pointers@@ABQAD@Z 100430e0 f i libucrtd:output.obj
 0001:00042160       ??$?0ABV?$string_output_adapter@_W@__crt_stdio_output@@AB_KABQB_WABQAU__crt_locale_pointers@@ABQAD@?$standard_base@_WV?$string_output_adapter@_W@__crt_stdio_output@@@__crt_stdio_output@@IAE@ABV?$string_output_adapter@_W@1@AB_KABQB_WABQAU__crt_locale_pointers@@ABQAD@Z 10043160 f i libucrtd:output.obj
 0001:00042690       ??$__crt_interlocked_read@J@@YAJPDJ@Z 10043690 f i libucrtd:output.obj
 0001:00045430       ??$count@D@formatting_buffer@__crt_stdio_output@@QBEIXZ 10046430 f i libucrtd:output.obj
 0001:00045470       ??$count@_W@formatting_buffer@__crt_stdio_output@@QBEIXZ 10046470 f i libucrtd:output.obj
 0001:000454b0       ??$data@D@formatting_buffer@__crt_stdio_output@@QAEPADXZ 100464b0 f i libucrtd:output.obj
 0001:000454f0       ??$data@_W@formatting_buffer@__crt_stdio_output@@QAEPA_WXZ 100464f0 f i libucrtd:output.obj
 0001:00045530       ??$ensure_buffer_is_big_enough@D@formatting_buffer@__crt_stdio_output@@QAE_NI@Z 10046530 f i libucrtd:output.obj
 0001:00045610       ??$ensure_buffer_is_big_enough@_W@formatting_buffer@__crt_stdio_output@@QAE_NI@Z 10046610 f i libucrtd:output.obj
 0001:00045700       ??$extract_argument_from_va_list@C_J@?$positional_parameter_base@DV?$stream_output_adapter@D@__crt_stdio_output@@@__crt_stdio_output@@IAE_NAA_J@Z 10046700 f i libucrtd:output.obj
 0001:00045840       ??$extract_argument_from_va_list@C_J@?$positional_parameter_base@DV?$string_output_adapter@D@__crt_stdio_output@@@__crt_stdio_output@@IAE_NAA_J@Z 10046840 f i libucrtd:output.obj
 0001:00045980       ??$extract_argument_from_va_list@C_J@?$positional_parameter_base@_WV?$stream_output_adapter@_W@__crt_stdio_output@@@__crt_stdio_output@@IAE_NAA_J@Z 10046980 f i libucrtd:output.obj
 0001:00045ac0       ??$extract_argument_from_va_list@C_J@?$positional_parameter_base@_WV?$string_output_adapter@_W@__crt_stdio_output@@@__crt_stdio_output@@IAE_NAA_J@Z 10046ac0 f i libucrtd:output.obj
 0001:00045c00       ??$extract_argument_from_va_list@C_J@?$standard_base@DV?$stream_output_adapter@D@__crt_stdio_output@@@__crt_stdio_output@@IAE_NAA_J@Z 10046c00 f i libucrtd:output.obj
 0001:00045c30       ??$extract_argument_from_va_list@C_J@?$standard_base@DV?$string_output_adapter@D@__crt_stdio_output@@@__crt_stdio_output@@IAE_NAA_J@Z 10046c30 f i libucrtd:output.obj
 0001:00045c60       ??$extract_argument_from_va_list@C_J@?$standard_base@_WV?$stream_output_adapter@_W@__crt_stdio_output@@@__crt_stdio_output@@IAE_NAA_J@Z 10046c60 f i libucrtd:output.obj
 0001:00045c90       ??$extract_argument_from_va_list@C_J@?$standard_base@_WV?$string_output_adapter@_W@__crt_stdio_output@@@__crt_stdio_output@@IAE_NAA_J@Z 10046c90 f i libucrtd:output.obj
 0001:00045cc0       ??$extract_argument_from_va_list@E_J@?$positional_parameter_base@DV?$stream_output_adapter@D@__crt_stdio_output@@@__crt_stdio_output@@IAE_NAA_J@Z 10046cc0 f i libucrtd:output.obj
 0001:00045e00       ??$extract_argument_from_va_list@E_J@?$positional_parameter_base@DV?$string_output_adapter@D@__crt_stdio_output@@@__crt_stdio_output@@IAE_NAA_J@Z 10046e00 f i libucrtd:output.obj
 0001:00045f40       ??$extract_argument_from_va_list@E_J@?$positional_parameter_base@_WV?$stream_output_adapter@_W@__crt_stdio_output@@@__crt_stdio_output@@IAE_NAA_J@Z 10046f40 f i libucrtd:output.obj
 0001:00046080       ??$extract_argument_from_va_list@E_J@?$positional_parameter_base@_WV?$string_output_adapter@_W@__crt_stdio_output@@@__crt_stdio_output@@IAE_NAA_J@Z 10047080 f i libucrtd:output.obj
 0001:000461c0       ??$extract_argument_from_va_list@E_J@?$standard_base@DV?$stream_output_adapter@D@__crt_stdio_output@@@__crt_stdio_output@@IAE_NAA_J@Z 100471c0 f i libucrtd:output.obj
 0001:000461f0       ??$extract_argument_from_va_list@E_J@?$standard_base@DV?$string_output_adapter@D@__crt_stdio_output@@@__crt_stdio_output@@IAE_NAA_J@Z 100471f0 f i libucrtd:output.obj
 0001:00046220       ??$extract_argument_from_va_list@E_J@?$standard_base@_WV?$stream_output_adapter@_W@__crt_stdio_output@@@__crt_stdio_output@@IAE_NAA_J@Z 10047220 f i libucrtd:output.obj
 0001:00046250       ??$extract_argument_from_va_list@E_J@?$standard_base@_WV?$string_output_adapter@_W@__crt_stdio_output@@@__crt_stdio_output@@IAE_NAA_J@Z 10047250 f i libucrtd:output.obj
 0001:00046280       ??$extract_argument_from_va_list@F_J@?$positional_parameter_base@DV?$stream_output_adapter@D@__crt_stdio_output@@@__crt_stdio_output@@IAE_NAA_J@Z 10047280 f i libucrtd:output.obj
 0001:000463b0       ??$extract_argument_from_va_list@F_J@?$positional_parameter_base@DV?$string_output_adapter@D@__crt_stdio_output@@@__crt_stdio_output@@IAE_NAA_J@Z 100473b0 f i libucrtd:output.obj
 0001:000464e0       ??$extract_argument_from_va_list@F_J@?$positional_parameter_base@_WV?$stream_output_adapter@_W@__crt_stdio_output@@@__crt_stdio_output@@IAE_NAA_J@Z 100474e0 f i libucrtd:output.obj
 0001:00046610       ??$extract_argument_from_va_list@F_J@?$positional_parameter_base@_WV?$string_output_adapter@_W@__crt_stdio_output@@@__crt_stdio_output@@IAE_NAA_J@Z 10047610 f i libucrtd:output.obj
 0001:00046740       ??$extract_argument_from_va_list@F_J@?$standard_base@DV?$stream_output_adapter@D@__crt_stdio_output@@@__crt_stdio_output@@IAE_NAA_J@Z 10047740 f i libucrtd:output.obj
 0001:00046770       ??$extract_argument_from_va_list@F_J@?$standard_base@DV?$string_output_adapter@D@__crt_stdio_output@@@__crt_stdio_output@@IAE_NAA_J@Z 10047770 f i libucrtd:output.obj
 0001:000467a0       ??$extract_argument_from_va_list@F_J@?$standard_base@_WV?$stream_output_adapter@_W@__crt_stdio_output@@@__crt_stdio_output@@IAE_NAA_J@Z 100477a0 f i libucrtd:output.obj
 0001:000467d0       ??$extract_argument_from_va_list@F_J@?$standard_base@_WV?$string_output_adapter@_W@__crt_stdio_output@@@__crt_stdio_output@@IAE_NAA_J@Z 100477d0 f i libucrtd:output.obj
 0001:00046800       ??$extract_argument_from_va_list@GD@?$positional_parameter_base@DV?$stream_output_adapter@D@__crt_stdio_output@@@__crt_stdio_output@@IAE_NAAD@Z 10047800 f i libucrtd:output.obj
 0001:00046930       ??$extract_argument_from_va_list@GD@?$positional_parameter_base@DV?$string_output_adapter@D@__crt_stdio_output@@@__crt_stdio_output@@IAE_NAAD@Z 10047930 f i libucrtd:output.obj
 0001:00046a60       ??$extract_argument_from_va_list@GD@?$standard_base@DV?$stream_output_adapter@D@__crt_stdio_output@@@__crt_stdio_output@@IAE_NAAD@Z 10047a60 f i libucrtd:output.obj
 0001:00046a90       ??$extract_argument_from_va_list@GD@?$standard_base@DV?$string_output_adapter@D@__crt_stdio_output@@@__crt_stdio_output@@IAE_NAAD@Z 10047a90 f i libucrtd:output.obj
 0001:00046ac0       ??$extract_argument_from_va_list@G_J@?$positional_parameter_base@DV?$stream_output_adapter@D@__crt_stdio_output@@@__crt_stdio_output@@IAE_NAA_J@Z 10047ac0 f i libucrtd:output.obj
 0001:00046c00       ??$extract_argument_from_va_list@G_J@?$positional_parameter_base@DV?$string_output_adapter@D@__crt_stdio_output@@@__crt_stdio_output@@IAE_NAA_J@Z 10047c00 f i libucrtd:output.obj
 0001:00046d40       ??$extract_argument_from_va_list@G_J@?$positional_parameter_base@_WV?$stream_output_adapter@_W@__crt_stdio_output@@@__crt_stdio_output@@IAE_NAA_J@Z 10047d40 f i libucrtd:output.obj
 0001:00046e80       ??$extract_argument_from_va_list@G_J@?$positional_parameter_base@_WV?$string_output_adapter@_W@__crt_stdio_output@@@__crt_stdio_output@@IAE_NAA_J@Z 10047e80 f i libucrtd:output.obj
 0001:00046fc0       ??$extract_argument_from_va_list@G_J@?$standard_base@DV?$stream_output_adapter@D@__crt_stdio_output@@@__crt_stdio_output@@IAE_NAA_J@Z 10047fc0 f i libucrtd:output.obj
 0001:00046ff0       ??$extract_argument_from_va_list@G_J@?$standard_base@DV?$string_output_adapter@D@__crt_stdio_output@@@__crt_stdio_output@@IAE_NAA_J@Z 10047ff0 f i libucrtd:output.obj
 0001:00047020       ??$extract_argument_from_va_list@G_J@?$standard_base@_WV?$stream_output_adapter@_W@__crt_stdio_output@@@__crt_stdio_output@@IAE_NAA_J@Z 10048020 f i libucrtd:output.obj
 0001:00047050       ??$extract_argument_from_va_list@G_J@?$standard_base@_WV?$string_output_adapter@_W@__crt_stdio_output@@@__crt_stdio_output@@IAE_NAA_J@Z 10048050 f i libucrtd:output.obj
 0001:00047080       ??$extract_argument_from_va_list@H_J@?$positional_parameter_base@DV?$stream_output_adapter@D@__crt_stdio_output@@@__crt_stdio_output@@IAE_NAA_J@Z 10048080 f i libucrtd:output.obj
 0001:000471b0       ??$extract_argument_from_va_list@H_J@?$positional_parameter_base@DV?$string_output_adapter@D@__crt_stdio_output@@@__crt_stdio_output@@IAE_NAA_J@Z 100481b0 f i libucrtd:output.obj
 0001:000472e0       ??$extract_argument_from_va_list@H_J@?$positional_parameter_base@_WV?$stream_output_adapter@_W@__crt_stdio_output@@@__crt_stdio_output@@IAE_NAA_J@Z 100482e0 f i libucrtd:output.obj
 0001:00047410       ??$extract_argument_from_va_list@H_J@?$positional_parameter_base@_WV?$string_output_adapter@_W@__crt_stdio_output@@@__crt_stdio_output@@IAE_NAA_J@Z 10048410 f i libucrtd:output.obj
 0001:00047540       ??$extract_argument_from_va_list@H_J@?$standard_base@DV?$stream_output_adapter@D@__crt_stdio_output@@@__crt_stdio_output@@IAE_NAA_J@Z 10048540 f i libucrtd:output.obj
 0001:00047570       ??$extract_argument_from_va_list@H_J@?$standard_base@DV?$string_output_adapter@D@__crt_stdio_output@@@__crt_stdio_output@@IAE_NAA_J@Z 10048570 f i libucrtd:output.obj
 0001:000475a0       ??$extract_argument_from_va_list@H_J@?$standard_base@_WV?$stream_output_adapter@_W@__crt_stdio_output@@@__crt_stdio_output@@IAE_NAA_J@Z 100485a0 f i libucrtd:output.obj
 0001:000475d0       ??$extract_argument_from_va_list@H_J@?$standard_base@_WV?$string_output_adapter@_W@__crt_stdio_output@@@__crt_stdio_output@@IAE_NAA_J@Z 100485d0 f i libucrtd:output.obj
 0001:00047600       ??$extract_argument_from_va_list@I_J@?$positional_parameter_base@DV?$stream_output_adapter@D@__crt_stdio_output@@@__crt_stdio_output@@IAE_NAA_J@Z 10048600 f i libucrtd:output.obj
 0001:00047730       ??$extract_argument_from_va_list@I_J@?$positional_parameter_base@DV?$string_output_adapter@D@__crt_stdio_output@@@__crt_stdio_output@@IAE_NAA_J@Z 10048730 f i libucrtd:output.obj
 0001:00047860       ??$extract_argument_from_va_list@I_J@?$positional_parameter_base@_WV?$stream_output_adapter@_W@__crt_stdio_output@@@__crt_stdio_output@@IAE_NAA_J@Z 10048860 f i libucrtd:output.obj
 0001:00047990       ??$extract_argument_from_va_list@I_J@?$positional_parameter_base@_WV?$string_output_adapter@_W@__crt_stdio_output@@@__crt_stdio_output@@IAE_NAA_J@Z 10048990 f i libucrtd:output.obj
 0001:00047ac0       ??$extract_argument_from_va_list@I_J@?$standard_base@DV?$stream_output_adapter@D@__crt_stdio_output@@@__crt_stdio_output@@IAE_NAA_J@Z 10048ac0 f i libucrtd:output.obj
 0001:00047af0       ??$extract_argument_from_va_list@I_J@?$standard_base@DV?$string_output_adapter@D@__crt_stdio_output@@@__crt_stdio_output@@IAE_NAA_J@Z 10048af0 f i libucrtd:output.obj
 0001:00047b20       ??$extract_argument_from_va_list@I_J@?$standard_base@_WV?$stream_output_adapter@_W@__crt_stdio_output@@@__crt_stdio_output@@IAE_NAA_J@Z 10048b20 f i libucrtd:output.obj
 0001:00047b50       ??$extract_argument_from_va_list@I_J@?$standard_base@_WV?$string_output_adapter@_W@__crt_stdio_output@@@__crt_stdio_output@@IAE_NAA_J@Z 10048b50 f i libucrtd:output.obj
 0001:00047b80       ??$extract_argument_from_va_list@PADPAD@?$positional_parameter_base@DV?$stream_output_adapter@D@__crt_stdio_output@@@__crt_stdio_output@@IAE_NAAPAD@Z 10048b80 f i libucrtd:output.obj
 0001:00047cb0       ??$extract_argument_from_va_list@PADPAD@?$positional_parameter_base@DV?$string_output_adapter@D@__crt_stdio_output@@@__crt_stdio_output@@IAE_NAAPAD@Z 10048cb0 f i libucrtd:output.obj
 0001:00047de0       ??$extract_argument_from_va_list@PADPAD@?$positional_parameter_base@_WV?$stream_output_adapter@_W@__crt_stdio_output@@@__crt_stdio_output@@IAE_NAAPAD@Z 10048de0 f i libucrtd:output.obj
 0001:00047f10       ??$extract_argument_from_va_list@PADPAD@?$positional_parameter_base@_WV?$string_output_adapter@_W@__crt_stdio_output@@@__crt_stdio_output@@IAE_NAAPAD@Z 10048f10 f i libucrtd:output.obj
 0001:00048040       ??$extract_argument_from_va_list@PADPAD@?$standard_base@DV?$stream_output_adapter@D@__crt_stdio_output@@@__crt_stdio_output@@IAE_NAAPAD@Z 10049040 f i libucrtd:output.obj
 0001:00048070       ??$extract_argument_from_va_list@PADPAD@?$standard_base@DV?$string_output_adapter@D@__crt_stdio_output@@@__crt_stdio_output@@IAE_NAAPAD@Z 10049070 f i libucrtd:output.obj
 0001:000480a0       ??$extract_argument_from_va_list@PADPAD@?$standard_base@_WV?$stream_output_adapter@_W@__crt_stdio_output@@@__crt_stdio_output@@IAE_NAAPAD@Z 100490a0 f i libucrtd:output.obj
 0001:000480d0       ??$extract_argument_from_va_list@PADPAD@?$standard_base@_WV?$string_output_adapter@_W@__crt_stdio_output@@@__crt_stdio_output@@IAE_NAAPAD@Z 100490d0 f i libucrtd:output.obj
 0001:00048800       ??$extract_argument_from_va_list@PAXPAX@?$positional_parameter_base@DV?$stream_output_adapter@D@__crt_stdio_output@@@__crt_stdio_output@@IAE_NAAPAX@Z 10049800 f i libucrtd:output.obj
 0001:00048930       ??$extract_argument_from_va_list@PAXPAX@?$positional_parameter_base@DV?$string_output_adapter@D@__crt_stdio_output@@@__crt_stdio_output@@IAE_NAAPAX@Z 10049930 f i libucrtd:output.obj
 0001:00048a60       ??$extract_argument_from_va_list@PAXPAX@?$positional_parameter_base@_WV?$stream_output_adapter@_W@__crt_stdio_output@@@__crt_stdio_output@@IAE_NAAPAX@Z 10049a60 f i libucrtd:output.obj
 0001:00048b90       ??$extract_argument_from_va_list@PAXPAX@?$positional_parameter_base@_WV?$string_output_adapter@_W@__crt_stdio_output@@@__crt_stdio_output@@IAE_NAAPAX@Z 10049b90 f i libucrtd:output.obj
 0001:00048cc0       ??$extract_argument_from_va_list@PAXPAX@?$standard_base@DV?$stream_output_adapter@D@__crt_stdio_output@@@__crt_stdio_output@@IAE_NAAPAX@Z 10049cc0 f i libucrtd:output.obj
 0001:00048cf0       ??$extract_argument_from_va_list@PAXPAX@?$standard_base@DV?$string_output_adapter@D@__crt_stdio_output@@@__crt_stdio_output@@IAE_NAAPAX@Z 10049cf0 f i libucrtd:output.obj
 0001:00048d20       ??$extract_argument_from_va_list@PAXPAX@?$standard_base@_WV?$stream_output_adapter@_W@__crt_stdio_output@@@__crt_stdio_output@@IAE_NAAPAX@Z 10049d20 f i libucrtd:output.obj
 0001:00048d50       ??$extract_argument_from_va_list@PAXPAX@?$standard_base@_WV?$string_output_adapter@_W@__crt_stdio_output@@@__crt_stdio_output@@IAE_NAAPAX@Z 10049d50 f i libucrtd:output.obj
 0001:00048d80       ??$extract_argument_from_va_list@U_CRT_DOUBLE@@U1@@?$positional_parameter_base@DV?$stream_output_adapter@D@__crt_stdio_output@@@__crt_stdio_output@@IAE_NAAU_CRT_DOUBLE@@@Z 10049d80 f i libucrtd:output.obj
 0001:00048ee0       ??$extract_argument_from_va_list@U_CRT_DOUBLE@@U1@@?$positional_parameter_base@DV?$string_output_adapter@D@__crt_stdio_output@@@__crt_stdio_output@@IAE_NAAU_CRT_DOUBLE@@@Z 10049ee0 f i libucrtd:output.obj
 0001:00049040       ??$extract_argument_from_va_list@U_CRT_DOUBLE@@U1@@?$positional_parameter_base@_WV?$stream_output_adapter@_W@__crt_stdio_output@@@__crt_stdio_output@@IAE_NAAU_CRT_DOUBLE@@@Z 1004a040 f i libucrtd:output.obj
 0001:000491a0       ??$extract_argument_from_va_list@U_CRT_DOUBLE@@U1@@?$positional_parameter_base@_WV?$string_output_adapter@_W@__crt_stdio_output@@@__crt_stdio_output@@IAE_NAAU_CRT_DOUBLE@@@Z 1004a1a0 f i libucrtd:output.obj
 0001:00049300       ??$extract_argument_from_va_list@U_CRT_DOUBLE@@U1@@?$standard_base@DV?$stream_output_adapter@D@__crt_stdio_output@@@__crt_stdio_output@@IAE_NAAU_CRT_DOUBLE@@@Z 1004a300 f i libucrtd:output.obj
 0001:00049350       ??$extract_argument_from_va_list@U_CRT_DOUBLE@@U1@@?$standard_base@DV?$string_output_adapter@D@__crt_stdio_output@@@__crt_stdio_output@@IAE_NAAU_CRT_DOUBLE@@@Z 1004a350 f i libucrtd:output.obj
 0001:000493a0       ??$extract_argument_from_va_list@U_CRT_DOUBLE@@U1@@?$standard_base@_WV?$stream_output_adapter@_W@__crt_stdio_output@@@__crt_stdio_output@@IAE_NAAU_CRT_DOUBLE@@@Z 1004a3a0 f i libucrtd:output.obj
 0001:000493f0       ??$extract_argument_from_va_list@U_CRT_DOUBLE@@U1@@?$standard_base@_WV?$string_output_adapter@_W@__crt_stdio_output@@@__crt_stdio_output@@IAE_NAAU_CRT_DOUBLE@@@Z 1004a3f0 f i libucrtd:output.obj
 0001:00049440       ??$extract_argument_from_va_list@_J_J@?$positional_parameter_base@DV?$stream_output_adapter@D@__crt_stdio_output@@@__crt_stdio_output@@IAE_NAA_J@Z 1004a440 f i libucrtd:output.obj
 0001:00049570       ??$extract_argument_from_va_list@_J_J@?$positional_parameter_base@DV?$string_output_adapter@D@__crt_stdio_output@@@__crt_stdio_output@@IAE_NAA_J@Z 1004a570 f i libucrtd:output.obj
 0001:000496a0       ??$extract_argument_from_va_list@_J_J@?$positional_parameter_base@_WV?$stream_output_adapter@_W@__crt_stdio_output@@@__crt_stdio_output@@IAE_NAA_J@Z 1004a6a0 f i libucrtd:output.obj
 0001:000497d0       ??$extract_argument_from_va_list@_J_J@?$positional_parameter_base@_WV?$string_output_adapter@_W@__crt_stdio_output@@@__crt_stdio_output@@IAE_NAA_J@Z 1004a7d0 f i libucrtd:output.obj
 0001:00049900       ??$extract_argument_from_va_list@_J_J@?$standard_base@DV?$stream_output_adapter@D@__crt_stdio_output@@@__crt_stdio_output@@IAE_NAA_J@Z 1004a900 f i libucrtd:output.obj
 0001:00049930       ??$extract_argument_from_va_list@_J_J@?$standard_base@DV?$string_output_adapter@D@__crt_stdio_output@@@__crt_stdio_output@@IAE_NAA_J@Z 1004a930 f i libucrtd:output.obj
 0001:00049960       ??$extract_argument_from_va_list@_J_J@?$standard_base@_WV?$stream_output_adapter@_W@__crt_stdio_output@@@__crt_stdio_output@@IAE_NAA_J@Z 1004a960 f i libucrtd:output.obj
 0001:00049990       ??$extract_argument_from_va_list@_J_J@?$standard_base@_WV?$string_output_adapter@_W@__crt_stdio_output@@@__crt_stdio_output@@IAE_NAA_J@Z 1004a990 f i libucrtd:output.obj
 0001:000499c0       ??$extract_argument_from_va_list@_K_J@?$positional_parameter_base@DV?$stream_output_adapter@D@__crt_stdio_output@@@__crt_stdio_output@@IAE_NAA_J@Z 1004a9c0 f i libucrtd:output.obj
 0001:00049af0       ??$extract_argument_from_va_list@_K_J@?$positional_parameter_base@DV?$string_output_adapter@D@__crt_stdio_output@@@__crt_stdio_output@@IAE_NAA_J@Z 1004aaf0 f i libucrtd:output.obj
 0001:00049c20       ??$extract_argument_from_va_list@_K_J@?$positional_parameter_base@_WV?$stream_output_adapter@_W@__crt_stdio_output@@@__crt_stdio_output@@IAE_NAA_J@Z 1004ac20 f i libucrtd:output.obj
 0001:00049d50       ??$extract_argument_from_va_list@_K_J@?$positional_parameter_base@_WV?$string_output_adapter@_W@__crt_stdio_output@@@__crt_stdio_output@@IAE_NAA_J@Z 1004ad50 f i libucrtd:output.obj
 0001:00049e80       ??$extract_argument_from_va_list@_K_J@?$standard_base@DV?$stream_output_adapter@D@__crt_stdio_output@@@__crt_stdio_output@@IAE_NAA_J@Z 1004ae80 f i libucrtd:output.obj
 0001:00049eb0       ??$extract_argument_from_va_list@_K_J@?$standard_base@DV?$string_output_adapter@D@__crt_stdio_output@@@__crt_stdio_output@@IAE_NAA_J@Z 1004aeb0 f i libucrtd:output.obj
 0001:00049ee0       ??$extract_argument_from_va_list@_K_J@?$standard_base@_WV?$stream_output_adapter@_W@__crt_stdio_output@@@__crt_stdio_output@@IAE_NAA_J@Z 1004aee0 f i libucrtd:output.obj
 0001:00049f10       ??$extract_argument_from_va_list@_K_J@?$standard_base@_WV?$string_output_adapter@_W@__crt_stdio_output@@@__crt_stdio_output@@IAE_NAA_J@Z 1004af10 f i libucrtd:output.obj
 0001:00049f40       ??$extract_argument_from_va_list@_W_W@?$positional_parameter_base@DV?$stream_output_adapter@D@__crt_stdio_output@@@__crt_stdio_output@@IAE_NAA_W@Z 1004af40 f i libucrtd:output.obj
 0001:0004a070       ??$extract_argument_from_va_list@_W_W@?$positional_parameter_base@DV?$string_output_adapter@D@__crt_stdio_output@@@__crt_stdio_output@@IAE_NAA_W@Z 1004b070 f i libucrtd:output.obj
 0001:0004a1a0       ??$extract_argument_from_va_list@_W_W@?$positional_parameter_base@_WV?$stream_output_adapter@_W@__crt_stdio_output@@@__crt_stdio_output@@IAE_NAA_W@Z 1004b1a0 f i libucrtd:output.obj
 0001:0004a2d0       ??$extract_argument_from_va_list@_W_W@?$positional_parameter_base@_WV?$string_output_adapter@_W@__crt_stdio_output@@@__crt_stdio_output@@IAE_NAA_W@Z 1004b2d0 f i libucrtd:output.obj
 0001:0004a400       ??$extract_argument_from_va_list@_W_W@?$standard_base@DV?$stream_output_adapter@D@__crt_stdio_output@@@__crt_stdio_output@@IAE_NAA_W@Z 1004b400 f i libucrtd:output.obj
 0001:0004a430       ??$extract_argument_from_va_list@_W_W@?$standard_base@DV?$string_output_adapter@D@__crt_stdio_output@@@__crt_stdio_output@@IAE_NAA_W@Z 1004b430 f i libucrtd:output.obj
 0001:0004a460       ??$extract_argument_from_va_list@_W_W@?$standard_base@_WV?$stream_output_adapter@_W@__crt_stdio_output@@@__crt_stdio_output@@IAE_NAA_W@Z 1004b460 f i libucrtd:output.obj
 0001:0004a490       ??$extract_argument_from_va_list@_W_W@?$standard_base@_WV?$string_output_adapter@_W@__crt_stdio_output@@@__crt_stdio_output@@IAE_NAA_W@Z 1004b490 f i libucrtd:output.obj
 0001:0004a4c0       ??$get_parameter_type@D@?$positional_parameter_base@DV?$stream_output_adapter@D@__crt_stdio_output@@@__crt_stdio_output@@CA?AW4parameter_type@01@PAD@Z 1004b4c0 f i libucrtd:output.obj
 0001:0004a4d0       ??$get_parameter_type@D@?$positional_parameter_base@DV?$string_output_adapter@D@__crt_stdio_output@@@__crt_stdio_output@@CA?AW4parameter_type@01@PAD@Z 1004b4d0 f i libucrtd:output.obj
 0001:0004a4e0       ??$get_parameter_type@D@?$positional_parameter_base@_WV?$stream_output_adapter@_W@__crt_stdio_output@@@__crt_stdio_output@@CA?AW4parameter_type@01@PAD@Z 1004b4e0 f i libucrtd:output.obj
 0001:0004a4f0       ??$get_parameter_type@D@?$positional_parameter_base@_WV?$string_output_adapter@_W@__crt_stdio_output@@@__crt_stdio_output@@CA?AW4parameter_type@01@PAD@Z 1004b4f0 f i libucrtd:output.obj
 0001:0004a540       ??$get_parameter_type@X@?$positional_parameter_base@DV?$stream_output_adapter@D@__crt_stdio_output@@@__crt_stdio_output@@CA?AW4parameter_type@01@PAX@Z 1004b540 f i libucrtd:output.obj
 0001:0004a550       ??$get_parameter_type@X@?$positional_parameter_base@DV?$string_output_adapter@D@__crt_stdio_output@@@__crt_stdio_output@@CA?AW4parameter_type@01@PAX@Z 1004b550 f i libucrtd:output.obj
 0001:0004a560       ??$get_parameter_type@X@?$positional_parameter_base@_WV?$stream_output_adapter@_W@__crt_stdio_output@@@__crt_stdio_output@@CA?AW4parameter_type@01@PAX@Z 1004b560 f i libucrtd:output.obj
 0001:0004a570       ??$get_parameter_type@X@?$positional_parameter_base@_WV?$string_output_adapter@_W@__crt_stdio_output@@@__crt_stdio_output@@CA?AW4parameter_type@01@PAX@Z 1004b570 f i libucrtd:output.obj
 0001:0004a580       ??$is_character_specifier@D@?$positional_parameter_base@DV?$stream_output_adapter@D@__crt_stdio_output@@@__crt_stdio_output@@CA_ND@Z 1004b580 f i libucrtd:output.obj
 0001:0004a5b0       ??$is_character_specifier@D@?$positional_parameter_base@DV?$string_output_adapter@D@__crt_stdio_output@@@__crt_stdio_output@@CA_ND@Z 1004b5b0 f i libucrtd:output.obj
 0001:0004a5e0       ??$is_character_specifier@_W@?$positional_parameter_base@_WV?$stream_output_adapter@_W@__crt_stdio_output@@@__crt_stdio_output@@CA_N_W@Z 1004b5e0 f i libucrtd:output.obj
 0001:0004a610       ??$is_character_specifier@_W@?$positional_parameter_base@_WV?$string_output_adapter@_W@__crt_stdio_output@@@__crt_stdio_output@@CA_N_W@Z 1004b610 f i libucrtd:output.obj
 0001:0004a640       ??$is_integral_specifier@D@?$positional_parameter_base@DV?$stream_output_adapter@D@__crt_stdio_output@@@__crt_stdio_output@@CA_ND@Z 1004b640 f i libucrtd:output.obj
 0001:0004a6a0       ??$is_integral_specifier@D@?$positional_parameter_base@DV?$string_output_adapter@D@__crt_stdio_output@@@__crt_stdio_output@@CA_ND@Z 1004b6a0 f i libucrtd:output.obj
 0001:0004a700       ??$is_integral_specifier@_W@?$positional_parameter_base@_WV?$stream_output_adapter@_W@__crt_stdio_output@@@__crt_stdio_output@@CA_N_W@Z 1004b700 f i libucrtd:output.obj
 0001:0004a760       ??$is_integral_specifier@_W@?$positional_parameter_base@_WV?$string_output_adapter@_W@__crt_stdio_output@@@__crt_stdio_output@@CA_N_W@Z 1004b760 f i libucrtd:output.obj
 0001:0004a7c0       ??$is_pointer_specifier@D@?$positional_parameter_base@DV?$stream_output_adapter@D@__crt_stdio_output@@@__crt_stdio_output@@CA_ND@Z 1004b7c0 f i libucrtd:output.obj
 0001:0004a7f0       ??$is_pointer_specifier@D@?$positional_parameter_base@DV?$string_output_adapter@D@__crt_stdio_output@@@__crt_stdio_output@@CA_ND@Z 1004b7f0 f i libucrtd:output.obj
 0001:0004a820       ??$is_pointer_specifier@_W@?$positional_parameter_base@_WV?$stream_output_adapter@_W@__crt_stdio_output@@@__crt_stdio_output@@CA_N_W@Z 1004b820 f i libucrtd:output.obj
 0001:0004a850       ??$is_pointer_specifier@_W@?$positional_parameter_base@_WV?$string_output_adapter@_W@__crt_stdio_output@@@__crt_stdio_output@@CA_N_W@Z 1004b850 f i libucrtd:output.obj
 0001:0004a880       ??$is_string_specifier@D@?$positional_parameter_base@DV?$stream_output_adapter@D@__crt_stdio_output@@@__crt_stdio_output@@CA_ND@Z 1004b880 f i libucrtd:output.obj
 0001:0004a8b0       ??$is_string_specifier@D@?$positional_parameter_base@DV?$string_output_adapter@D@__crt_stdio_output@@@__crt_stdio_output@@CA_ND@Z 1004b8b0 f i libucrtd:output.obj
 0001:0004a8e0       ??$is_string_specifier@_W@?$positional_parameter_base@_WV?$stream_output_adapter@_W@__crt_stdio_output@@@__crt_stdio_output@@CA_N_W@Z 1004b8e0 f i libucrtd:output.obj
 0001:0004a910       ??$is_string_specifier@_W@?$positional_parameter_base@_WV?$string_output_adapter@_W@__crt_stdio_output@@@__crt_stdio_output@@CA_N_W@Z 1004b910 f i libucrtd:output.obj
 0001:0004a940       ??$is_wide_character_specifier@D@__crt_stdio_output@@YA_N_KDW4length_modifier@0@@Z 1004b940 f i libucrtd:output.obj
 0001:0004a9c0       ??$is_wide_character_specifier@_W@__crt_stdio_output@@YA_N_K_WW4length_modifier@0@@Z 1004b9c0 f i libucrtd:output.obj
 0001:0004aa80       ??$peek_va_arg@C@__crt_stdio_output@@YACPAD@Z 1004ba80 f i libucrtd:output.obj
 0001:0004aaa0       ??$peek_va_arg@E@__crt_stdio_output@@YAEPAD@Z 1004baa0 f i libucrtd:output.obj
 0001:0004aac0       ??$peek_va_arg@F@__crt_stdio_output@@YAFPAD@Z 1004bac0 f i libucrtd:output.obj
 0001:0004aae0       ??$peek_va_arg@G@__crt_stdio_output@@YAGPAD@Z 1004bae0 f i libucrtd:output.obj
 0001:0004ab00       ??$peek_va_arg@H@__crt_stdio_output@@YAHPAD@Z 1004bb00 f i libucrtd:output.obj
 0001:0004ab20       ??$peek_va_arg@I@__crt_stdio_output@@YAIPAD@Z 1004bb20 f i libucrtd:output.obj
 0001:0004ab40       ??$peek_va_arg@PAD@__crt_stdio_output@@YAPADPAD@Z 1004bb40 f i libucrtd:output.obj
 0001:0004abe0       ??$peek_va_arg@PAX@__crt_stdio_output@@YAPAXPAD@Z 1004bbe0 f i libucrtd:output.obj
 0001:0004ac00       ??$peek_va_arg@U_CRT_DOUBLE@@@__crt_stdio_output@@YA?AU_CRT_DOUBLE@@PAD@Z 1004bc00 f i libucrtd:output.obj
 0001:0004ac20       ??$peek_va_arg@_J@__crt_stdio_output@@YA_JPAD@Z 1004bc20 f i libucrtd:output.obj
 0001:0004ac40       ??$peek_va_arg@_K@__crt_stdio_output@@YA_KPAD@Z 1004bc40 f i libucrtd:output.obj
 0001:0004ac60       ??$peek_va_arg@_W@__crt_stdio_output@@YA_WPAD@Z 1004bc60 f i libucrtd:output.obj
 0001:0004ac80       ??$puttc_nolock@ABDPAU_iobuf@@@?$__crt_char_traits@D@@SAHABD$$QAPAU_iobuf@@@Z 1004bc80 f i libucrtd:output.obj
 0001:0004aca0       ??$puttc_nolock@AB_WPAU_iobuf@@@?$__crt_char_traits@_W@@SAGAB_W$$QAPAU_iobuf@@@Z 1004bca0 f i libucrtd:output.obj
 0001:0004acc0       ??$read_va_arg@C@__crt_stdio_output@@YACAAPAD@Z 1004bcc0 f i libucrtd:output.obj
 0001:0004ace0       ??$read_va_arg@E@__crt_stdio_output@@YAEAAPAD@Z 1004bce0 f i libucrtd:output.obj
 0001:0004ad00       ??$read_va_arg@F@__crt_stdio_output@@YAFAAPAD@Z 1004bd00 f i libucrtd:output.obj
 0001:0004ad20       ??$read_va_arg@G@__crt_stdio_output@@YAGAAPAD@Z 1004bd20 f i libucrtd:output.obj
 0001:0004ad40       ??$read_va_arg@H@__crt_stdio_output@@YAHAAPAD@Z 1004bd40 f i libucrtd:output.obj
 0001:0004ad60       ??$read_va_arg@I@__crt_stdio_output@@YAIAAPAD@Z 1004bd60 f i libucrtd:output.obj
 0001:0004ad80       ??$read_va_arg@PAD@__crt_stdio_output@@YAPADAAPAD@Z 1004bd80 f i libucrtd:output.obj
 0001:0004af20       ??$read_va_arg@PAX@__crt_stdio_output@@YAPAXAAPAD@Z 1004bf20 f i libucrtd:output.obj
 0001:0004af40       ??$read_va_arg@U_CRT_DOUBLE@@@__crt_stdio_output@@YA?AU_CRT_DOUBLE@@AAPAD@Z 1004bf40 f i libucrtd:output.obj
 0001:0004af60       ??$read_va_arg@_J@__crt_stdio_output@@YA_JAAPAD@Z 1004bf60 f i libucrtd:output.obj
 0001:0004af80       ??$read_va_arg@_K@__crt_stdio_output@@YA_KAAPAD@Z 1004bf80 f i libucrtd:output.obj
 0001:0004afa0       ??$read_va_arg@_W@__crt_stdio_output@@YA_WAAPAD@Z 1004bfa0 f i libucrtd:output.obj
 0001:0004afc0       ??$scratch_count@D@formatting_buffer@__crt_stdio_output@@QBEIXZ 1004bfc0 f i libucrtd:output.obj
 0001:0004afe0       ??$scratch_data@D@formatting_buffer@__crt_stdio_output@@QAEPADXZ 1004bfe0 f i libucrtd:output.obj
 0001:0004b030       ??$tcstol@AAPBDPAPADH@?$__crt_char_traits@D@@SAJAAPBD$$QAPAPAD$$QAH@Z 1004c030 f i libucrtd:output.obj
 0001:0004b060       ??$tcstol@AAPB_WPAPA_WH@?$__crt_char_traits@_W@@SAJAAPB_W$$QAPAPA_W$$QAH@Z 1004c060 f i libucrtd:output.obj
 0001:0004b090       ??$tcstol@PBDPAPADH@?$__crt_char_traits@D@@SAJ$$QAPBD$$QAPAPAD$$QAH@Z 1004c090 f i libucrtd:output.obj
 0001:0004b0c0       ??$tcstol@PB_WPAPA_WH@?$__crt_char_traits@_W@@SAJ$$QAPB_W$$QAPAPA_W$$QAH@Z 1004c0c0 f i libucrtd:output.obj
 0001:0004b0f0       ??$type_case_integer_parse_into_buffer@I@?$output_processor@DV?$stream_output_adapter@D@__crt_stdio_output@@V?$format_validation_base@DV?$stream_output_adapter@D@__crt_stdio_output@@@2@@__crt_stdio_output@@AAEXII_N@Z 1004c0f0 f i libucrtd:output.obj
 0001:0004b1c0       ??$type_case_integer_parse_into_buffer@I@?$output_processor@DV?$stream_output_adapter@D@__crt_stdio_output@@V?$positional_parameter_base@DV?$stream_output_adapter@D@__crt_stdio_output@@@2@@__crt_stdio_output@@AAEXII_N@Z 1004c1c0 f i libucrtd:output.obj
 0001:0004b290       ??$type_case_integer_parse_into_buffer@I@?$output_processor@DV?$stream_output_adapter@D@__crt_stdio_output@@V?$standard_base@DV?$stream_output_adapter@D@__crt_stdio_output@@@2@@__crt_stdio_output@@AAEXII_N@Z 1004c290 f i libucrtd:output.obj
 0001:0004b360       ??$type_case_integer_parse_into_buffer@I@?$output_processor@DV?$string_output_adapter@D@__crt_stdio_output@@V?$format_validation_base@DV?$string_output_adapter@D@__crt_stdio_output@@@2@@__crt_stdio_output@@AAEXII_N@Z 1004c360 f i libucrtd:output.obj
 0001:0004b430       ??$type_case_integer_parse_into_buffer@I@?$output_processor@DV?$string_output_adapter@D@__crt_stdio_output@@V?$positional_parameter_base@DV?$string_output_adapter@D@__crt_stdio_output@@@2@@__crt_stdio_output@@AAEXII_N@Z 1004c430 f i libucrtd:output.obj
 0001:0004b500       ??$type_case_integer_parse_into_buffer@I@?$output_processor@DV?$string_output_adapter@D@__crt_stdio_output@@V?$standard_base@DV?$string_output_adapter@D@__crt_stdio_output@@@2@@__crt_stdio_output@@AAEXII_N@Z 1004c500 f i libucrtd:output.obj
 0001:0004b5d0       ??$type_case_integer_parse_into_buffer@I@?$output_processor@_WV?$stream_output_adapter@_W@__crt_stdio_output@@V?$format_validation_base@_WV?$stream_output_adapter@_W@__crt_stdio_output@@@2@@__crt_stdio_output@@AAEXII_N@Z 1004c5d0 f i libucrtd:output.obj
 0001:0004b6b0       ??$type_case_integer_parse_into_buffer@I@?$output_processor@_WV?$stream_output_adapter@_W@__crt_stdio_output@@V?$positional_parameter_base@_WV?$stream_output_adapter@_W@__crt_stdio_output@@@2@@__crt_stdio_output@@AAEXII_N@Z 1004c6b0 f i libucrtd:output.obj
 0001:0004b790       ??$type_case_integer_parse_into_buffer@I@?$output_processor@_WV?$stream_output_adapter@_W@__crt_stdio_output@@V?$standard_base@_WV?$stream_output_adapter@_W@__crt_stdio_output@@@2@@__crt_stdio_output@@AAEXII_N@Z 1004c790 f i libucrtd:output.obj
 0001:0004b870       ??$type_case_integer_parse_into_buffer@I@?$output_processor@_WV?$string_output_adapter@_W@__crt_stdio_output@@V?$format_validation_base@_WV?$string_output_adapter@_W@__crt_stdio_output@@@2@@__crt_stdio_output@@AAEXII_N@Z 1004c870 f i libucrtd:output.obj
 0001:0004b950       ??$type_case_integer_parse_into_buffer@I@?$output_processor@_WV?$string_output_adapter@_W@__crt_stdio_output@@V?$positional_parameter_base@_WV?$string_output_adapter@_W@__crt_stdio_output@@@2@@__crt_stdio_output@@AAEXII_N@Z 1004c950 f i libucrtd:output.obj
 0001:0004ba30       ??$type_case_integer_parse_into_buffer@I@?$output_processor@_WV?$string_output_adapter@_W@__crt_stdio_output@@V?$standard_base@_WV?$string_output_adapter@_W@__crt_stdio_output@@@2@@__crt_stdio_output@@AAEXII_N@Z 1004ca30 f i libucrtd:output.obj
 0001:0004bb10       ??$type_case_integer_parse_into_buffer@_K@?$output_processor@DV?$stream_output_adapter@D@__crt_stdio_output@@V?$format_validation_base@DV?$stream_output_adapter@D@__crt_stdio_output@@@2@@__crt_stdio_output@@AAEX_KI_N@Z 1004cb10 f i libucrtd:output.obj
 0001:0004bc00       ??$type_case_integer_parse_into_buffer@_K@?$output_processor@DV?$stream_output_adapter@D@__crt_stdio_output@@V?$positional_parameter_base@DV?$stream_output_adapter@D@__crt_stdio_output@@@2@@__crt_stdio_output@@AAEX_KI_N@Z 1004cc00 f i libucrtd:output.obj
 0001:0004bcf0       ??$type_case_integer_parse_into_buffer@_K@?$output_processor@DV?$stream_output_adapter@D@__crt_stdio_output@@V?$standard_base@DV?$stream_output_adapter@D@__crt_stdio_output@@@2@@__crt_stdio_output@@AAEX_KI_N@Z 1004ccf0 f i libucrtd:output.obj
 0001:0004bde0       ??$type_case_integer_parse_into_buffer@_K@?$output_processor@DV?$string_output_adapter@D@__crt_stdio_output@@V?$format_validation_base@DV?$string_output_adapter@D@__crt_stdio_output@@@2@@__crt_stdio_output@@AAEX_KI_N@Z 1004cde0 f i libucrtd:output.obj
 0001:0004bed0       ??$type_case_integer_parse_into_buffer@_K@?$output_processor@DV?$string_output_adapter@D@__crt_stdio_output@@V?$positional_parameter_base@DV?$string_output_adapter@D@__crt_stdio_output@@@2@@__crt_stdio_output@@AAEX_KI_N@Z 1004ced0 f i libucrtd:output.obj
 0001:0004bfc0       ??$type_case_integer_parse_into_buffer@_K@?$output_processor@DV?$string_output_adapter@D@__crt_stdio_output@@V?$standard_base@DV?$string_output_adapter@D@__crt_stdio_output@@@2@@__crt_stdio_output@@AAEX_KI_N@Z 1004cfc0 f i libucrtd:output.obj
 0001:0004c0b0       ??$type_case_integer_parse_into_buffer@_K@?$output_processor@_WV?$stream_output_adapter@_W@__crt_stdio_output@@V?$format_validation_base@_WV?$stream_output_adapter@_W@__crt_stdio_output@@@2@@__crt_stdio_output@@AAEX_KI_N@Z 1004d0b0 f i libucrtd:output.obj
 0001:0004c1b0       ??$type_case_integer_parse_into_buffer@_K@?$output_processor@_WV?$stream_output_adapter@_W@__crt_stdio_output@@V?$positional_parameter_base@_WV?$stream_output_adapter@_W@__crt_stdio_output@@@2@@__crt_stdio_output@@AAEX_KI_N@Z 1004d1b0 f i libucrtd:output.obj
 0001:0004c2b0       ??$type_case_integer_parse_into_buffer@_K@?$output_processor@_WV?$stream_output_adapter@_W@__crt_stdio_output@@V?$standard_base@_WV?$stream_output_adapter@_W@__crt_stdio_output@@@2@@__crt_stdio_output@@AAEX_KI_N@Z 1004d2b0 f i libucrtd:output.obj
 0001:0004c3b0       ??$type_case_integer_parse_into_buffer@_K@?$output_processor@_WV?$string_output_adapter@_W@__crt_stdio_output@@V?$format_validation_base@_WV?$string_output_adapter@_W@__crt_stdio_output@@@2@@__crt_stdio_output@@AAEX_KI_N@Z 1004d3b0 f i libucrtd:output.obj
 0001:0004c4b0       ??$type_case_integer_parse_into_buffer@_K@?$output_processor@_WV?$string_output_adapter@_W@__crt_stdio_output@@V?$positional_parameter_base@_WV?$string_output_adapter@_W@__crt_stdio_output@@@2@@__crt_stdio_output@@AAEX_KI_N@Z 1004d4b0 f i libucrtd:output.obj
 0001:0004c5b0       ??$type_case_integer_parse_into_buffer@_K@?$output_processor@_WV?$string_output_adapter@_W@__crt_stdio_output@@V?$standard_base@_WV?$string_output_adapter@_W@__crt_stdio_output@@@2@@__crt_stdio_output@@AAEX_KI_N@Z 1004d5b0 f i libucrtd:output.obj
 0001:0004c6b0       ??$write_multiple_characters@V?$stream_output_adapter@D@__crt_stdio_output@@D@__crt_stdio_output@@YAXABV?$stream_output_adapter@D@0@DHQAH@Z 1004d6b0 f i libucrtd:output.obj
 0001:0004c700       ??$write_multiple_characters@V?$stream_output_adapter@_W@__crt_stdio_output@@D@__crt_stdio_output@@YAXABV?$stream_output_adapter@_W@0@DHQAH@Z 1004d700 f i libucrtd:output.obj
 0001:0004c750       ??$write_multiple_characters@V?$string_output_adapter@D@__crt_stdio_output@@D@__crt_stdio_output@@YAXABV?$string_output_adapter@D@0@DHQAH@Z 1004d750 f i libucrtd:output.obj
 0001:0004c7a0       ??$write_multiple_characters@V?$string_output_adapter@_W@__crt_stdio_output@@D@__crt_stdio_output@@YAXABV?$string_output_adapter@_W@0@DHQAH@Z 1004d7a0 f i libucrtd:output.obj
 0001:0004caf0       ??0?$common_data@D@__crt_stdio_output@@IAE@XZ 1004daf0 f i libucrtd:output.obj
 0001:0004cba0       ??0?$common_data@_W@__crt_stdio_output@@IAE@XZ 1004dba0 f i libucrtd:output.obj
 0001:0004cc50       ??0?$output_adapter_data@DV?$stream_output_adapter@D@__crt_stdio_output@@@__crt_stdio_output@@IAE@ABV?$stream_output_adapter@D@1@_KQBDQAU__crt_locale_pointers@@QAD@Z 1004dc50 f i libucrtd:output.obj
 0001:0004ccb0       ??0?$output_adapter_data@DV?$string_output_adapter@D@__crt_stdio_output@@@__crt_stdio_output@@IAE@ABV?$string_output_adapter@D@1@_KQBDQAU__crt_locale_pointers@@QAD@Z 1004dcb0 f i libucrtd:output.obj
 0001:0004cd10       ??0?$output_adapter_data@_WV?$stream_output_adapter@_W@__crt_stdio_output@@@__crt_stdio_output@@IAE@ABV?$stream_output_adapter@_W@1@_KQB_WQAU__crt_locale_pointers@@QAD@Z 1004dd10 f i libucrtd:output.obj
 0001:0004cd70       ??0?$output_adapter_data@_WV?$string_output_adapter@_W@__crt_stdio_output@@@__crt_stdio_output@@IAE@ABV?$string_output_adapter@_W@1@_KQB_WQAU__crt_locale_pointers@@QAD@Z 1004dd70 f i libucrtd:output.obj
 0001:0004cdd0       ??0?$output_processor@DV?$stream_output_adapter@D@__crt_stdio_output@@V?$format_validation_base@DV?$stream_output_adapter@D@__crt_stdio_output@@@2@@__crt_stdio_output@@QAE@ABV?$stream_output_adapter@D@1@_KQBDQAU__crt_locale_pointers@@QAD@Z 1004ddd0 f i libucrtd:output.obj
 0001:0004ce00       ??0?$output_processor@DV?$stream_output_adapter@D@__crt_stdio_output@@V?$positional_parameter_base@DV?$stream_output_adapter@D@__crt_stdio_output@@@2@@__crt_stdio_output@@QAE@ABV?$stream_output_adapter@D@1@_KQBDQAU__crt_locale_pointers@@QAD@Z 1004de00 f i libucrtd:output.obj
 0001:0004ce30       ??0?$output_processor@DV?$stream_output_adapter@D@__crt_stdio_output@@V?$standard_base@DV?$stream_output_adapter@D@__crt_stdio_output@@@2@@__crt_stdio_output@@QAE@ABV?$stream_output_adapter@D@1@_KQBDQAU__crt_locale_pointers@@QAD@Z 1004de30 f i libucrtd:output.obj
 0001:0004ce60       ??0?$output_processor@DV?$string_output_adapter@D@__crt_stdio_output@@V?$format_validation_base@DV?$string_output_adapter@D@__crt_stdio_output@@@2@@__crt_stdio_output@@QAE@ABV?$string_output_adapter@D@1@_KQBDQAU__crt_locale_pointers@@QAD@Z 1004de60 f i libucrtd:output.obj
 0001:0004ce90       ??0?$output_processor@DV?$string_output_adapter@D@__crt_stdio_output@@V?$positional_parameter_base@DV?$string_output_adapter@D@__crt_stdio_output@@@2@@__crt_stdio_output@@QAE@ABV?$string_output_adapter@D@1@_KQBDQAU__crt_locale_pointers@@QAD@Z 1004de90 f i libucrtd:output.obj
 0001:0004cec0       ??0?$output_processor@DV?$string_output_adapter@D@__crt_stdio_output@@V?$standard_base@DV?$string_output_adapter@D@__crt_stdio_output@@@2@@__crt_stdio_output@@QAE@ABV?$string_output_adapter@D@1@_KQBDQAU__crt_locale_pointers@@QAD@Z 1004dec0 f i libucrtd:output.obj
 0001:0004cef0       ??0?$output_processor@_WV?$stream_output_adapter@_W@__crt_stdio_output@@V?$format_validation_base@_WV?$stream_output_adapter@_W@__crt_stdio_output@@@2@@__crt_stdio_output@@QAE@ABV?$stream_output_adapter@_W@1@_KQB_WQAU__crt_locale_pointers@@QAD@Z 1004def0 f i libucrtd:output.obj
 0001:0004cf20       ??0?$output_processor@_WV?$stream_output_adapter@_W@__crt_stdio_output@@V?$positional_parameter_base@_WV?$stream_output_adapter@_W@__crt_stdio_output@@@2@@__crt_stdio_output@@QAE@ABV?$stream_output_adapter@_W@1@_KQB_WQAU__crt_locale_pointers@@QAD@Z 1004df20 f i libucrtd:output.obj
 0001:0004cf50       ??0?$output_processor@_WV?$stream_output_adapter@_W@__crt_stdio_output@@V?$standard_base@_WV?$stream_output_adapter@_W@__crt_stdio_output@@@2@@__crt_stdio_output@@QAE@ABV?$stream_output_adapter@_W@1@_KQB_WQAU__crt_locale_pointers@@QAD@Z 1004df50 f i libucrtd:output.obj
 0001:0004cf80       ??0?$output_processor@_WV?$string_output_adapter@_W@__crt_stdio_output@@V?$format_validation_base@_WV?$string_output_adapter@_W@__crt_stdio_output@@@2@@__crt_stdio_output@@QAE@ABV?$string_output_adapter@_W@1@_KQB_WQAU__crt_locale_pointers@@QAD@Z 1004df80 f i libucrtd:output.obj
 0001:0004cfb0       ??0?$output_processor@_WV?$string_output_adapter@_W@__crt_stdio_output@@V?$positional_parameter_base@_WV?$string_output_adapter@_W@__crt_stdio_output@@@2@@__crt_stdio_output@@QAE@ABV?$string_output_adapter@_W@1@_KQB_WQAU__crt_locale_pointers@@QAD@Z 1004dfb0 f i libucrtd:output.obj
 0001:0004cfe0       ??0?$output_processor@_WV?$string_output_adapter@_W@__crt_stdio_output@@V?$standard_base@_WV?$string_output_adapter@_W@__crt_stdio_output@@@2@@__crt_stdio_output@@QAE@ABV?$string_output_adapter@_W@1@_KQB_WQAU__crt_locale_pointers@@QAD@Z 1004dfe0 f i libucrtd:output.obj
 0001:0004d010       ??0?$stream_output_adapter@D@__crt_stdio_output@@QAE@QAU_iobuf@@@Z 1004e010 f i libucrtd:output.obj
 0001:0004d030       ??0?$stream_output_adapter@_W@__crt_stdio_output@@QAE@QAU_iobuf@@@Z 1004e030 f i libucrtd:output.obj
 0001:0004d050       ??0?$string_output_adapter@D@__crt_stdio_output@@QAE@QAU?$string_output_adapter_context@D@1@@Z 1004e050 f i libucrtd:output.obj
 0001:0004d070       ??0?$string_output_adapter@_W@__crt_stdio_output@@QAE@QAU?$string_output_adapter_context@_W@1@@Z 1004e070 f i libucrtd:output.obj
 0001:0004d090       ??0_LocaleUpdate@@QAE@QAU__crt_locale_pointers@@@Z 1004e090 f i libucrtd:output.obj
 0001:0004d170       ??0__acrt_stdio_temporary_buffering_guard@@QAE@QAU_iobuf@@@Z 1004e170 f i libucrtd:output.obj
 0001:0004d1a0       ??0__crt_deferred_errno_cache@@QAE@XZ 1004e1a0 f i libucrtd:output.obj
 0001:0004d1c0       ??0__crt_errno_guard@@QAE@QAH@Z 1004e1c0 f i libucrtd:output.obj
 0001:0004d1f0       ??0__crt_stdio_stream@@QAE@QAU_iobuf@@@Z 1004e1f0 f i libucrtd:output.obj
 0001:0004d210       ??0formatting_buffer@__crt_stdio_output@@QAE@XZ 1004e210 f i libucrtd:output.obj
 0001:0004d240       ??1?$common_data@D@__crt_stdio_output@@QAE@XZ 1004e240 f i libucrtd:output.obj
 0001:0004d260       ??1?$common_data@_W@__crt_stdio_output@@QAE@XZ 1004e260 f i libucrtd:output.obj
 0001:0004d280       ??1?$format_validation_base@DV?$stream_output_adapter@D@__crt_stdio_output@@@__crt_stdio_output@@QAE@XZ 1004e280 f i libucrtd:output.obj
 0001:0004d2a0       ??1?$format_validation_base@DV?$string_output_adapter@D@__crt_stdio_output@@@__crt_stdio_output@@QAE@XZ 1004e2a0 f i libucrtd:output.obj
 0001:0004d2c0       ??1?$format_validation_base@_WV?$stream_output_adapter@_W@__crt_stdio_output@@@__crt_stdio_output@@QAE@XZ 1004e2c0 f i libucrtd:output.obj
 0001:0004d2e0       ??1?$format_validation_base@_WV?$string_output_adapter@_W@__crt_stdio_output@@@__crt_stdio_output@@QAE@XZ 1004e2e0 f i libucrtd:output.obj
 0001:0004d300       ??1?$output_adapter_data@DV?$stream_output_adapter@D@__crt_stdio_output@@@__crt_stdio_output@@QAE@XZ 1004e300 f i libucrtd:output.obj
 0001:0004d320       ??1?$output_adapter_data@DV?$string_output_adapter@D@__crt_stdio_output@@@__crt_stdio_output@@QAE@XZ 1004e320 f i libucrtd:output.obj
 0001:0004d340       ??1?$output_adapter_data@_WV?$stream_output_adapter@_W@__crt_stdio_output@@@__crt_stdio_output@@QAE@XZ 1004e340 f i libucrtd:output.obj
 0001:0004d360       ??1?$output_adapter_data@_WV?$string_output_adapter@_W@__crt_stdio_output@@@__crt_stdio_output@@QAE@XZ 1004e360 f i libucrtd:output.obj
 0001:0004d380       ??1?$output_processor@DV?$stream_output_adapter@D@__crt_stdio_output@@V?$format_validation_base@DV?$stream_output_adapter@D@__crt_stdio_output@@@2@@__crt_stdio_output@@QAE@XZ 1004e380 f i libucrtd:output.obj
 0001:0004d3a0       ??1?$output_processor@DV?$stream_output_adapter@D@__crt_stdio_output@@V?$positional_parameter_base@DV?$stream_output_adapter@D@__crt_stdio_output@@@2@@__crt_stdio_output@@QAE@XZ 1004e3a0 f i libucrtd:output.obj
 0001:0004d3c0       ??1?$output_processor@DV?$stream_output_adapter@D@__crt_stdio_output@@V?$standard_base@DV?$stream_output_adapter@D@__crt_stdio_output@@@2@@__crt_stdio_output@@QAE@XZ 1004e3c0 f i libucrtd:output.obj
 0001:0004d3e0       ??1?$output_processor@DV?$string_output_adapter@D@__crt_stdio_output@@V?$format_validation_base@DV?$string_output_adapter@D@__crt_stdio_output@@@2@@__crt_stdio_output@@QAE@XZ 1004e3e0 f i libucrtd:output.obj
 0001:0004d400       ??1?$output_processor@DV?$string_output_adapter@D@__crt_stdio_output@@V?$positional_parameter_base@DV?$string_output_adapter@D@__crt_stdio_output@@@2@@__crt_stdio_output@@QAE@XZ 1004e400 f i libucrtd:output.obj
 0001:0004d420       ??1?$output_processor@DV?$string_output_adapter@D@__crt_stdio_output@@V?$standard_base@DV?$string_output_adapter@D@__crt_stdio_output@@@2@@__crt_stdio_output@@QAE@XZ 1004e420 f i libucrtd:output.obj
 0001:0004d440       ??1?$output_processor@_WV?$stream_output_adapter@_W@__crt_stdio_output@@V?$format_validation_base@_WV?$stream_output_adapter@_W@__crt_stdio_output@@@2@@__crt_stdio_output@@QAE@XZ 1004e440 f i libucrtd:output.obj
 0001:0004d460       ??1?$output_processor@_WV?$stream_output_adapter@_W@__crt_stdio_output@@V?$positional_parameter_base@_WV?$stream_output_adapter@_W@__crt_stdio_output@@@2@@__crt_stdio_output@@QAE@XZ 1004e460 f i libucrtd:output.obj
 0001:0004d480       ??1?$output_processor@_WV?$stream_output_adapter@_W@__crt_stdio_output@@V?$standard_base@_WV?$stream_output_adapter@_W@__crt_stdio_output@@@2@@__crt_stdio_output@@QAE@XZ 1004e480 f i libucrtd:output.obj
 0001:0004d4a0       ??1?$output_processor@_WV?$string_output_adapter@_W@__crt_stdio_output@@V?$format_validation_base@_WV?$string_output_adapter@_W@__crt_stdio_output@@@2@@__crt_stdio_output@@QAE@XZ 1004e4a0 f i libucrtd:output.obj
 0001:0004d4c0       ??1?$output_processor@_WV?$string_output_adapter@_W@__crt_stdio_output@@V?$positional_parameter_base@_WV?$string_output_adapter@_W@__crt_stdio_output@@@2@@__crt_stdio_output@@QAE@XZ 1004e4c0 f i libucrtd:output.obj
 0001:0004d4e0       ??1?$output_processor@_WV?$string_output_adapter@_W@__crt_stdio_output@@V?$standard_base@_WV?$string_output_adapter@_W@__crt_stdio_output@@@2@@__crt_stdio_output@@QAE@XZ 1004e4e0 f i libucrtd:output.obj
 0001:0004d500       ??1?$positional_parameter_base@DV?$stream_output_adapter@D@__crt_stdio_output@@@__crt_stdio_output@@QAE@XZ 1004e500 f i libucrtd:output.obj
 0001:0004d520       ??1?$positional_parameter_base@DV?$string_output_adapter@D@__crt_stdio_output@@@__crt_stdio_output@@QAE@XZ 1004e520 f i libucrtd:output.obj
 0001:0004d540       ??1?$positional_parameter_base@_WV?$stream_output_adapter@_W@__crt_stdio_output@@@__crt_stdio_output@@QAE@XZ 1004e540 f i libucrtd:output.obj
 0001:0004d560       ??1?$positional_parameter_base@_WV?$string_output_adapter@_W@__crt_stdio_output@@@__crt_stdio_output@@QAE@XZ 1004e560 f i libucrtd:output.obj
 0001:0004d580       ??1?$standard_base@DV?$stream_output_adapter@D@__crt_stdio_output@@@__crt_stdio_output@@QAE@XZ 1004e580 f i libucrtd:output.obj
 0001:0004d5a0       ??1?$standard_base@DV?$string_output_adapter@D@__crt_stdio_output@@@__crt_stdio_output@@QAE@XZ 1004e5a0 f i libucrtd:output.obj
 0001:0004d5c0       ??1?$standard_base@_WV?$stream_output_adapter@_W@__crt_stdio_output@@@__crt_stdio_output@@QAE@XZ 1004e5c0 f i libucrtd:output.obj
 0001:0004d5e0       ??1?$standard_base@_WV?$string_output_adapter@_W@__crt_stdio_output@@@__crt_stdio_output@@QAE@XZ 1004e5e0 f i libucrtd:output.obj
 0001:0004d600       ??1_LocaleUpdate@@QAE@XZ   1004e600 f i libucrtd:output.obj
 0001:0004d640       ??1__acrt_stdio_temporary_buffering_guard@@QAE@XZ 1004e640 f i libucrtd:output.obj
 0001:0004d670       ??1__crt_errno_guard@@QAE@XZ 1004e670 f i libucrtd:output.obj
 0001:0004d6a0       ??1formatting_buffer@__crt_stdio_output@@QAE@XZ 1004e6a0 f i libucrtd:output.obj
 0001:0004d6c0       ??4?$__crt_unique_heap_ptr@DU__crt_internal_free_policy@@@@QAEAAV0@$$QAV0@@Z 1004e6c0 f i libucrtd:output.obj
 0001:0004d6f0       ??C__crt_stdio_stream@@QBEPAU__crt_stdio_stream_data@@XZ 1004e6f0 f i libucrtd:output.obj
 0001:0004de30       ?GetLocaleT@_LocaleUpdate@@QAEPAU__crt_locale_pointers@@XZ 1004ee30 f i libucrtd:output.obj
 0001:0004de50       ?adjust_hexit@?$output_processor@DV?$stream_output_adapter@D@__crt_stdio_output@@V?$format_validation_base@DV?$stream_output_adapter@D@__crt_stdio_output@@@2@@__crt_stdio_output@@CADH_N@Z 1004ee50 f i libucrtd:output.obj
 0001:0004de90       ?adjust_hexit@?$output_processor@DV?$stream_output_adapter@D@__crt_stdio_output@@V?$positional_parameter_base@DV?$stream_output_adapter@D@__crt_stdio_output@@@2@@__crt_stdio_output@@CADH_N@Z 1004ee90 f i libucrtd:output.obj
 0001:0004ded0       ?adjust_hexit@?$output_processor@DV?$stream_output_adapter@D@__crt_stdio_output@@V?$standard_base@DV?$stream_output_adapter@D@__crt_stdio_output@@@2@@__crt_stdio_output@@CADH_N@Z 1004eed0 f i libucrtd:output.obj
 0001:0004df10       ?adjust_hexit@?$output_processor@DV?$string_output_adapter@D@__crt_stdio_output@@V?$format_validation_base@DV?$string_output_adapter@D@__crt_stdio_output@@@2@@__crt_stdio_output@@CADH_N@Z 1004ef10 f i libucrtd:output.obj
 0001:0004df50       ?adjust_hexit@?$output_processor@DV?$string_output_adapter@D@__crt_stdio_output@@V?$positional_parameter_base@DV?$string_output_adapter@D@__crt_stdio_output@@@2@@__crt_stdio_output@@CADH_N@Z 1004ef50 f i libucrtd:output.obj
 0001:0004df90       ?adjust_hexit@?$output_processor@DV?$string_output_adapter@D@__crt_stdio_output@@V?$standard_base@DV?$string_output_adapter@D@__crt_stdio_output@@@2@@__crt_stdio_output@@CADH_N@Z 1004ef90 f i libucrtd:output.obj
 0001:0004dfd0       ?adjust_hexit@?$output_processor@_WV?$stream_output_adapter@_W@__crt_stdio_output@@V?$format_validation_base@_WV?$stream_output_adapter@_W@__crt_stdio_output@@@2@@__crt_stdio_output@@CADH_N@Z 1004efd0 f i libucrtd:output.obj
 0001:0004e010       ?adjust_hexit@?$output_processor@_WV?$stream_output_adapter@_W@__crt_stdio_output@@V?$positional_parameter_base@_WV?$stream_output_adapter@_W@__crt_stdio_output@@@2@@__crt_stdio_output@@CADH_N@Z 1004f010 f i libucrtd:output.obj
 0001:0004e050       ?adjust_hexit@?$output_processor@_WV?$stream_output_adapter@_W@__crt_stdio_output@@V?$standard_base@_WV?$stream_output_adapter@_W@__crt_stdio_output@@@2@@__crt_stdio_output@@CADH_N@Z 1004f050 f i libucrtd:output.obj
 0001:0004e090       ?adjust_hexit@?$output_processor@_WV?$string_output_adapter@_W@__crt_stdio_output@@V?$format_validation_base@_WV?$string_output_adapter@_W@__crt_stdio_output@@@2@@__crt_stdio_output@@CADH_N@Z 1004f090 f i libucrtd:output.obj
 0001:0004e0d0       ?adjust_hexit@?$output_processor@_WV?$string_output_adapter@_W@__crt_stdio_output@@V?$positional_parameter_base@_WV?$string_output_adapter@_W@__crt_stdio_output@@@2@@__crt_stdio_output@@CADH_N@Z 1004f0d0 f i libucrtd:output.obj
 0001:0004e110       ?adjust_hexit@?$output_processor@_WV?$string_output_adapter@_W@__crt_stdio_output@@V?$standard_base@_WV?$string_output_adapter@_W@__crt_stdio_output@@@2@@__crt_stdio_output@@CADH_N@Z 1004f110 f i libucrtd:output.obj
 0001:0004e150       ?advance_to_next_pass@?$positional_parameter_base@DV?$stream_output_adapter@D@__crt_stdio_output@@@__crt_stdio_output@@IAE_NXZ 1004f150 f i libucrtd:output.obj
 0001:0004e1f0       ?advance_to_next_pass@?$positional_parameter_base@DV?$string_output_adapter@D@__crt_stdio_output@@@__crt_stdio_output@@IAE_NXZ 1004f1f0 f i libucrtd:output.obj
 0001:0004e290       ?advance_to_next_pass@?$positional_parameter_base@_WV?$stream_output_adapter@_W@__crt_stdio_output@@@__crt_stdio_output@@IAE_NXZ 1004f290 f i libucrtd:output.obj
 0001:0004e330       ?advance_to_next_pass@?$positional_parameter_base@_WV?$string_output_adapter@_W@__crt_stdio_output@@@__crt_stdio_output@@IAE_NXZ 1004f330 f i libucrtd:output.obj
 0001:0004e3d0       ?advance_to_next_pass@?$standard_base@DV?$stream_output_adapter@D@__crt_stdio_output@@@__crt_stdio_output@@IAE_NXZ 1004f3d0 f i libucrtd:output.obj
 0001:0004e420       ?advance_to_next_pass@?$standard_base@DV?$string_output_adapter@D@__crt_stdio_output@@@__crt_stdio_output@@IAE_NXZ 1004f420 f i libucrtd:output.obj
 0001:0004e470       ?advance_to_next_pass@?$standard_base@_WV?$stream_output_adapter@_W@__crt_stdio_output@@@__crt_stdio_output@@IAE_NXZ 1004f470 f i libucrtd:output.obj
 0001:0004e4c0       ?advance_to_next_pass@?$standard_base@_WV?$string_output_adapter@_W@__crt_stdio_output@@@__crt_stdio_output@@IAE_NXZ 1004f4c0 f i libucrtd:output.obj
 0001:0004e510       ?crop_zeroes@__crt_stdio_output@@YAXPADQAU__crt_locale_pointers@@@Z 1004f510 f i libucrtd:output.obj
 0001:0004e610       ?find_next_state@?$output_processor@DV?$stream_output_adapter@D@__crt_stdio_output@@V?$format_validation_base@DV?$stream_output_adapter@D@__crt_stdio_output@@@2@@__crt_stdio_output@@ABE?AW4state@2@DW432@@Z 1004f610 f i libucrtd:output.obj
 0001:0004e690       ?find_next_state@?$output_processor@DV?$stream_output_adapter@D@__crt_stdio_output@@V?$positional_parameter_base@DV?$stream_output_adapter@D@__crt_stdio_output@@@2@@__crt_stdio_output@@ABE?AW4state@2@DW432@@Z 1004f690 f i libucrtd:output.obj
 0001:0004e710       ?find_next_state@?$output_processor@DV?$stream_output_adapter@D@__crt_stdio_output@@V?$standard_base@DV?$stream_output_adapter@D@__crt_stdio_output@@@2@@__crt_stdio_output@@ABE?AW4state@2@DW432@@Z 1004f710 f i libucrtd:output.obj
 0001:0004e790       ?find_next_state@?$output_processor@DV?$string_output_adapter@D@__crt_stdio_output@@V?$format_validation_base@DV?$string_output_adapter@D@__crt_stdio_output@@@2@@__crt_stdio_output@@ABE?AW4state@2@DW432@@Z 1004f790 f i libucrtd:output.obj
 0001:0004e810       ?find_next_state@?$output_processor@DV?$string_output_adapter@D@__crt_stdio_output@@V?$positional_parameter_base@DV?$string_output_adapter@D@__crt_stdio_output@@@2@@__crt_stdio_output@@ABE?AW4state@2@DW432@@Z 1004f810 f i libucrtd:output.obj
 0001:0004e890       ?find_next_state@?$output_processor@DV?$string_output_adapter@D@__crt_stdio_output@@V?$standard_base@DV?$string_output_adapter@D@__crt_stdio_output@@@2@@__crt_stdio_output@@ABE?AW4state@2@DW432@@Z 1004f890 f i libucrtd:output.obj
 0001:0004e910       ?find_next_state@?$output_processor@_WV?$stream_output_adapter@_W@__crt_stdio_output@@V?$format_validation_base@_WV?$stream_output_adapter@_W@__crt_stdio_output@@@2@@__crt_stdio_output@@ABE?AW4state@2@_WW432@@Z 1004f910 f i libucrtd:output.obj
 0001:0004e990       ?find_next_state@?$output_processor@_WV?$stream_output_adapter@_W@__crt_stdio_output@@V?$positional_parameter_base@_WV?$stream_output_adapter@_W@__crt_stdio_output@@@2@@__crt_stdio_output@@ABE?AW4state@2@_WW432@@Z 1004f990 f i libucrtd:output.obj
 0001:0004ea10       ?find_next_state@?$output_processor@_WV?$stream_output_adapter@_W@__crt_stdio_output@@V?$standard_base@_WV?$stream_output_adapter@_W@__crt_stdio_output@@@2@@__crt_stdio_output@@ABE?AW4state@2@_WW432@@Z 1004fa10 f i libucrtd:output.obj
 0001:0004ea90       ?find_next_state@?$output_processor@_WV?$string_output_adapter@_W@__crt_stdio_output@@V?$format_validation_base@_WV?$string_output_adapter@_W@__crt_stdio_output@@@2@@__crt_stdio_output@@ABE?AW4state@2@_WW432@@Z 1004fa90 f i libucrtd:output.obj
 0001:0004eb10       ?find_next_state@?$output_processor@_WV?$string_output_adapter@_W@__crt_stdio_output@@V?$positional_parameter_base@_WV?$string_output_adapter@_W@__crt_stdio_output@@@2@@__crt_stdio_output@@ABE?AW4state@2@_WW432@@Z 1004fb10 f i libucrtd:output.obj
 0001:0004eb90       ?find_next_state@?$output_processor@_WV?$string_output_adapter@_W@__crt_stdio_output@@V?$standard_base@_WV?$string_output_adapter@_W@__crt_stdio_output@@@2@@__crt_stdio_output@@ABE?AW4state@2@_WW432@@Z 1004fb90 f i libucrtd:output.obj
 0001:0004ec10       ?force_decimal_point@__crt_stdio_output@@YAXPADQAU__crt_locale_pointers@@@Z 1004fc10 f i libucrtd:output.obj
 0001:0004ece0       ?get@__crt_deferred_errno_cache@@QAEAAHXZ 1004fce0 f i libucrtd:output.obj
 0001:0004ed10       ?get_flags@__crt_stdio_stream@@QBEJXZ 1004fd10 f i libucrtd:output.obj
 0001:0004ed30       ?get_parameter_type@?$positional_parameter_base@DV?$stream_output_adapter@D@__crt_stdio_output@@@__crt_stdio_output@@CA?AW4parameter_type@12@F@Z 1004fd30 f i libucrtd:output.obj
 0001:0004ed40       ?get_parameter_type@?$positional_parameter_base@DV?$stream_output_adapter@D@__crt_stdio_output@@@__crt_stdio_output@@CA?AW4parameter_type@12@G@Z 1004fd40 f i libucrtd:output.obj
 0001:0004ed50       ?get_parameter_type@?$positional_parameter_base@DV?$stream_output_adapter@D@__crt_stdio_output@@@__crt_stdio_output@@CA?AW4parameter_type@12@H@Z 1004fd50 f i libucrtd:output.obj
 0001:0004ed60       ?get_parameter_type@?$positional_parameter_base@DV?$stream_output_adapter@D@__crt_stdio_output@@@__crt_stdio_output@@CA?AW4parameter_type@12@I@Z 1004fd60 f i libucrtd:output.obj
 0001:0004ed70       ?get_parameter_type@?$positional_parameter_base@DV?$stream_output_adapter@D@__crt_stdio_output@@@__crt_stdio_output@@CA?AW4parameter_type@12@U_CRT_DOUBLE@@@Z 1004fd70 f i libucrtd:output.obj
 0001:0004ed80       ?get_parameter_type@?$positional_parameter_base@DV?$stream_output_adapter@D@__crt_stdio_output@@@__crt_stdio_output@@CA?AW4parameter_type@12@_J@Z 1004fd80 f i libucrtd:output.obj
 0001:0004ed90       ?get_parameter_type@?$positional_parameter_base@DV?$stream_output_adapter@D@__crt_stdio_output@@@__crt_stdio_output@@CA?AW4parameter_type@12@_K@Z 1004fd90 f i libucrtd:output.obj
 0001:0004eda0       ?get_parameter_type@?$positional_parameter_base@DV?$stream_output_adapter@D@__crt_stdio_output@@@__crt_stdio_output@@CA?AW4parameter_type@12@_W@Z 1004fda0 f i libucrtd:output.obj
 0001:0004edb0       ?get_parameter_type@?$positional_parameter_base@DV?$string_output_adapter@D@__crt_stdio_output@@@__crt_stdio_output@@CA?AW4parameter_type@12@F@Z 1004fdb0 f i libucrtd:output.obj
 0001:0004edc0       ?get_parameter_type@?$positional_parameter_base@DV?$string_output_adapter@D@__crt_stdio_output@@@__crt_stdio_output@@CA?AW4parameter_type@12@G@Z 1004fdc0 f i libucrtd:output.obj
 0001:0004edd0       ?get_parameter_type@?$positional_parameter_base@DV?$string_output_adapter@D@__crt_stdio_output@@@__crt_stdio_output@@CA?AW4parameter_type@12@H@Z 1004fdd0 f i libucrtd:output.obj
 0001:0004ede0       ?get_parameter_type@?$positional_parameter_base@DV?$string_output_adapter@D@__crt_stdio_output@@@__crt_stdio_output@@CA?AW4parameter_type@12@I@Z 1004fde0 f i libucrtd:output.obj
 0001:0004edf0       ?get_parameter_type@?$positional_parameter_base@DV?$string_output_adapter@D@__crt_stdio_output@@@__crt_stdio_output@@CA?AW4parameter_type@12@U_CRT_DOUBLE@@@Z 1004fdf0 f i libucrtd:output.obj
 0001:0004ee00       ?get_parameter_type@?$positional_parameter_base@DV?$string_output_adapter@D@__crt_stdio_output@@@__crt_stdio_output@@CA?AW4parameter_type@12@_J@Z 1004fe00 f i libucrtd:output.obj
 0001:0004ee10       ?get_parameter_type@?$positional_parameter_base@DV?$string_output_adapter@D@__crt_stdio_output@@@__crt_stdio_output@@CA?AW4parameter_type@12@_K@Z 1004fe10 f i libucrtd:output.obj
 0001:0004ee20       ?get_parameter_type@?$positional_parameter_base@DV?$string_output_adapter@D@__crt_stdio_output@@@__crt_stdio_output@@CA?AW4parameter_type@12@_W@Z 1004fe20 f i libucrtd:output.obj
 0001:0004ee30       ?get_parameter_type@?$positional_parameter_base@_WV?$stream_output_adapter@_W@__crt_stdio_output@@@__crt_stdio_output@@CA?AW4parameter_type@12@F@Z 1004fe30 f i libucrtd:output.obj
 0001:0004ee40       ?get_parameter_type@?$positional_parameter_base@_WV?$stream_output_adapter@_W@__crt_stdio_output@@@__crt_stdio_output@@CA?AW4parameter_type@12@G@Z 1004fe40 f i libucrtd:output.obj
 0001:0004ee50       ?get_parameter_type@?$positional_parameter_base@_WV?$stream_output_adapter@_W@__crt_stdio_output@@@__crt_stdio_output@@CA?AW4parameter_type@12@H@Z 1004fe50 f i libucrtd:output.obj
 0001:0004ee60       ?get_parameter_type@?$positional_parameter_base@_WV?$stream_output_adapter@_W@__crt_stdio_output@@@__crt_stdio_output@@CA?AW4parameter_type@12@I@Z 1004fe60 f i libucrtd:output.obj
 0001:0004ee70       ?get_parameter_type@?$positional_parameter_base@_WV?$stream_output_adapter@_W@__crt_stdio_output@@@__crt_stdio_output@@CA?AW4parameter_type@12@U_CRT_DOUBLE@@@Z 1004fe70 f i libucrtd:output.obj
 0001:0004ee80       ?get_parameter_type@?$positional_parameter_base@_WV?$stream_output_adapter@_W@__crt_stdio_output@@@__crt_stdio_output@@CA?AW4parameter_type@12@_J@Z 1004fe80 f i libucrtd:output.obj
 0001:0004ee90       ?get_parameter_type@?$positional_parameter_base@_WV?$stream_output_adapter@_W@__crt_stdio_output@@@__crt_stdio_output@@CA?AW4parameter_type@12@_K@Z 1004fe90 f i libucrtd:output.obj
 0001:0004eea0       ?get_parameter_type@?$positional_parameter_base@_WV?$stream_output_adapter@_W@__crt_stdio_output@@@__crt_stdio_output@@CA?AW4parameter_type@12@_W@Z 1004fea0 f i libucrtd:output.obj
 0001:0004eeb0       ?get_parameter_type@?$positional_parameter_base@_WV?$string_output_adapter@_W@__crt_stdio_output@@@__crt_stdio_output@@CA?AW4parameter_type@12@F@Z 1004feb0 f i libucrtd:output.obj
 0001:0004eec0       ?get_parameter_type@?$positional_parameter_base@_WV?$string_output_adapter@_W@__crt_stdio_output@@@__crt_stdio_output@@CA?AW4parameter_type@12@G@Z 1004fec0 f i libucrtd:output.obj
 0001:0004eed0       ?get_parameter_type@?$positional_parameter_base@_WV?$string_output_adapter@_W@__crt_stdio_output@@@__crt_stdio_output@@CA?AW4parameter_type@12@H@Z 1004fed0 f i libucrtd:output.obj
 0001:0004eee0       ?get_parameter_type@?$positional_parameter_base@_WV?$string_output_adapter@_W@__crt_stdio_output@@@__crt_stdio_output@@CA?AW4parameter_type@12@I@Z 1004fee0 f i libucrtd:output.obj
 0001:0004eef0       ?get_parameter_type@?$positional_parameter_base@_WV?$string_output_adapter@_W@__crt_stdio_output@@@__crt_stdio_output@@CA?AW4parameter_type@12@U_CRT_DOUBLE@@@Z 1004fef0 f i libucrtd:output.obj
 0001:0004ef00       ?get_parameter_type@?$positional_parameter_base@_WV?$string_output_adapter@_W@__crt_stdio_output@@@__crt_stdio_output@@CA?AW4parameter_type@12@_J@Z 1004ff00 f i libucrtd:output.obj
 0001:0004ef10       ?get_parameter_type@?$positional_parameter_base@_WV?$string_output_adapter@_W@__crt_stdio_output@@@__crt_stdio_output@@CA?AW4parameter_type@12@_K@Z 1004ff10 f i libucrtd:output.obj
 0001:0004ef20       ?get_parameter_type@?$positional_parameter_base@_WV?$string_output_adapter@_W@__crt_stdio_output@@@__crt_stdio_output@@CA?AW4parameter_type@12@_W@Z 1004ff20 f i libucrtd:output.obj
 0001:0004ef30       ?has_flag@?$output_processor@DV?$stream_output_adapter@D@__crt_stdio_output@@V?$format_validation_base@DV?$stream_output_adapter@D@__crt_stdio_output@@@2@@__crt_stdio_output@@ABE_NI@Z 1004ff30 f i libucrtd:output.obj
 0001:0004ef60       ?has_flag@?$output_processor@DV?$stream_output_adapter@D@__crt_stdio_output@@V?$positional_parameter_base@DV?$stream_output_adapter@D@__crt_stdio_output@@@2@@__crt_stdio_output@@ABE_NI@Z 1004ff60 f i libucrtd:output.obj
 0001:0004ef90       ?has_flag@?$output_processor@DV?$stream_output_adapter@D@__crt_stdio_output@@V?$standard_base@DV?$stream_output_adapter@D@__crt_stdio_output@@@2@@__crt_stdio_output@@ABE_NI@Z 1004ff90 f i libucrtd:output.obj
 0001:0004efc0       ?has_flag@?$output_processor@DV?$string_output_adapter@D@__crt_stdio_output@@V?$format_validation_base@DV?$string_output_adapter@D@__crt_stdio_output@@@2@@__crt_stdio_output@@ABE_NI@Z 1004ffc0 f i libucrtd:output.obj
 0001:0004eff0       ?has_flag@?$output_processor@DV?$string_output_adapter@D@__crt_stdio_output@@V?$positional_parameter_base@DV?$string_output_adapter@D@__crt_stdio_output@@@2@@__crt_stdio_output@@ABE_NI@Z 1004fff0 f i libucrtd:output.obj
 0001:0004f020       ?has_flag@?$output_processor@DV?$string_output_adapter@D@__crt_stdio_output@@V?$standard_base@DV?$string_output_adapter@D@__crt_stdio_output@@@2@@__crt_stdio_output@@ABE_NI@Z 10050020 f i libucrtd:output.obj
 0001:0004f050       ?has_flag@?$output_processor@_WV?$stream_output_adapter@_W@__crt_stdio_output@@V?$format_validation_base@_WV?$stream_output_adapter@_W@__crt_stdio_output@@@2@@__crt_stdio_output@@ABE_NI@Z 10050050 f i libucrtd:output.obj
 0001:0004f080       ?has_flag@?$output_processor@_WV?$stream_output_adapter@_W@__crt_stdio_output@@V?$positional_parameter_base@_WV?$stream_output_adapter@_W@__crt_stdio_output@@@2@@__crt_stdio_output@@ABE_NI@Z 10050080 f i libucrtd:output.obj
 0001:0004f0b0       ?has_flag@?$output_processor@_WV?$stream_output_adapter@_W@__crt_stdio_output@@V?$standard_base@_WV?$stream_output_adapter@_W@__crt_stdio_output@@@2@@__crt_stdio_output@@ABE_NI@Z 100500b0 f i libucrtd:output.obj
 0001:0004f0e0       ?has_flag@?$output_processor@_WV?$string_output_adapter@_W@__crt_stdio_output@@V?$format_validation_base@_WV?$string_output_adapter@_W@__crt_stdio_output@@@2@@__crt_stdio_output@@ABE_NI@Z 100500e0 f i libucrtd:output.obj
 0001:0004f110       ?has_flag@?$output_processor@_WV?$string_output_adapter@_W@__crt_stdio_output@@V?$positional_parameter_base@_WV?$string_output_adapter@_W@__crt_stdio_output@@@2@@__crt_stdio_output@@ABE_NI@Z 10050110 f i libucrtd:output.obj
 0001:0004f140       ?has_flag@?$output_processor@_WV?$string_output_adapter@_W@__crt_stdio_output@@V?$standard_base@_WV?$string_output_adapter@_W@__crt_stdio_output@@@2@@__crt_stdio_output@@ABE_NI@Z 10050140 f i libucrtd:output.obj
 0001:0004f170       ?is_positional_parameter_reappearance_consistent@?$positional_parameter_base@DV?$stream_output_adapter@D@__crt_stdio_output@@@__crt_stdio_output@@AAE_NABUparameter_data@12@W4parameter_type@12@DW4length_modifier@2@@Z 10050170 f i libucrtd:output.obj
 0001:0004f3a0       ?is_positional_parameter_reappearance_consistent@?$positional_parameter_base@DV?$string_output_adapter@D@__crt_stdio_output@@@__crt_stdio_output@@AAE_NABUparameter_data@12@W4parameter_type@12@DW4length_modifier@2@@Z 100503a0 f i libucrtd:output.obj
 0001:0004f5d0       ?is_positional_parameter_reappearance_consistent@?$positional_parameter_base@_WV?$stream_output_adapter@_W@__crt_stdio_output@@@__crt_stdio_output@@AAE_NABUparameter_data@12@W4parameter_type@12@_WW4length_modifier@2@@Z 100505d0 f i libucrtd:output.obj
 0001:0004f800       ?is_positional_parameter_reappearance_consistent@?$positional_parameter_base@_WV?$string_output_adapter@_W@__crt_stdio_output@@@__crt_stdio_output@@AAE_NABUparameter_data@12@W4parameter_type@12@_WW4length_modifier@2@@Z 10050800 f i libucrtd:output.obj
 0001:0004fa30       ?is_string_backed@__crt_stdio_stream@@QBE_NXZ 10050a30 f i libucrtd:output.obj
 0001:0004fa70       ?narrow_null_string@?$output_processor@DV?$stream_output_adapter@D@__crt_stdio_output@@V?$format_validation_base@DV?$stream_output_adapter@D@__crt_stdio_output@@@2@@__crt_stdio_output@@CAPADXZ 10050a70 f i libucrtd:output.obj
 0001:0004fa80       ?narrow_null_string@?$output_processor@DV?$stream_output_adapter@D@__crt_stdio_output@@V?$positional_parameter_base@DV?$stream_output_adapter@D@__crt_stdio_output@@@2@@__crt_stdio_output@@CAPADXZ 10050a80 f i libucrtd:output.obj
 0001:0004fa90       ?narrow_null_string@?$output_processor@DV?$stream_output_adapter@D@__crt_stdio_output@@V?$standard_base@DV?$stream_output_adapter@D@__crt_stdio_output@@@2@@__crt_stdio_output@@CAPADXZ 10050a90 f i libucrtd:output.obj
 0001:0004faa0       ?narrow_null_string@?$output_processor@DV?$string_output_adapter@D@__crt_stdio_output@@V?$format_validation_base@DV?$string_output_adapter@D@__crt_stdio_output@@@2@@__crt_stdio_output@@CAPADXZ 10050aa0 f i libucrtd:output.obj
 0001:0004fab0       ?narrow_null_string@?$output_processor@DV?$string_output_adapter@D@__crt_stdio_output@@V?$positional_parameter_base@DV?$string_output_adapter@D@__crt_stdio_output@@@2@@__crt_stdio_output@@CAPADXZ 10050ab0 f i libucrtd:output.obj
 0001:0004fac0       ?narrow_null_string@?$output_processor@DV?$string_output_adapter@D@__crt_stdio_output@@V?$standard_base@DV?$string_output_adapter@D@__crt_stdio_output@@@2@@__crt_stdio_output@@CAPADXZ 10050ac0 f i libucrtd:output.obj
 0001:0004fad0       ?narrow_null_string@?$output_processor@_WV?$stream_output_adapter@_W@__crt_stdio_output@@V?$format_validation_base@_WV?$stream_output_adapter@_W@__crt_stdio_output@@@2@@__crt_stdio_output@@CAPADXZ 10050ad0 f i libucrtd:output.obj
 0001:0004fae0       ?narrow_null_string@?$output_processor@_WV?$stream_output_adapter@_W@__crt_stdio_output@@V?$positional_parameter_base@_WV?$stream_output_adapter@_W@__crt_stdio_output@@@2@@__crt_stdio_output@@CAPADXZ 10050ae0 f i libucrtd:output.obj
 0001:0004faf0       ?narrow_null_string@?$output_processor@_WV?$stream_output_adapter@_W@__crt_stdio_output@@V?$standard_base@_WV?$stream_output_adapter@_W@__crt_stdio_output@@@2@@__crt_stdio_output@@CAPADXZ 10050af0 f i libucrtd:output.obj
 0001:0004fb00       ?narrow_null_string@?$output_processor@_WV?$string_output_adapter@_W@__crt_stdio_output@@V?$format_validation_base@_WV?$string_output_adapter@_W@__crt_stdio_output@@@2@@__crt_stdio_output@@CAPADXZ 10050b00 f i libucrtd:output.obj
 0001:0004fb10       ?narrow_null_string@?$output_processor@_WV?$string_output_adapter@_W@__crt_stdio_output@@V?$positional_parameter_base@_WV?$string_output_adapter@_W@__crt_stdio_output@@@2@@__crt_stdio_output@@CAPADXZ 10050b10 f i libucrtd:output.obj
 0001:0004fb20       ?narrow_null_string@?$output_processor@_WV?$string_output_adapter@_W@__crt_stdio_output@@V?$standard_base@_WV?$string_output_adapter@_W@__crt_stdio_output@@@2@@__crt_stdio_output@@CAPADXZ 10050b20 f i libucrtd:output.obj
 0001:0004fb30       ?parse_int_from_format_string@?$output_processor@DV?$stream_output_adapter@D@__crt_stdio_output@@V?$format_validation_base@DV?$stream_output_adapter@D@__crt_stdio_output@@@2@@__crt_stdio_output@@AAE_NQAH@Z 10050b30 f i libucrtd:output.obj
 0001:0004fbf0       ?parse_int_from_format_string@?$output_processor@DV?$stream_output_adapter@D@__crt_stdio_output@@V?$positional_parameter_base@DV?$stream_output_adapter@D@__crt_stdio_output@@@2@@__crt_stdio_output@@AAE_NQAH@Z 10050bf0 f i libucrtd:output.obj
 0001:0004fcb0       ?parse_int_from_format_string@?$output_processor@DV?$stream_output_adapter@D@__crt_stdio_output@@V?$standard_base@DV?$stream_output_adapter@D@__crt_stdio_output@@@2@@__crt_stdio_output@@AAE_NQAH@Z 10050cb0 f i libucrtd:output.obj
 0001:0004fd70       ?parse_int_from_format_string@?$output_processor@DV?$string_output_adapter@D@__crt_stdio_output@@V?$format_validation_base@DV?$string_output_adapter@D@__crt_stdio_output@@@2@@__crt_stdio_output@@AAE_NQAH@Z 10050d70 f i libucrtd:output.obj
 0001:0004fe30       ?parse_int_from_format_string@?$output_processor@DV?$string_output_adapter@D@__crt_stdio_output@@V?$positional_parameter_base@DV?$string_output_adapter@D@__crt_stdio_output@@@2@@__crt_stdio_output@@AAE_NQAH@Z 10050e30 f i libucrtd:output.obj
 0001:0004fef0       ?parse_int_from_format_string@?$output_processor@DV?$string_output_adapter@D@__crt_stdio_output@@V?$standard_base@DV?$string_output_adapter@D@__crt_stdio_output@@@2@@__crt_stdio_output@@AAE_NQAH@Z 10050ef0 f i libucrtd:output.obj
 0001:0004ffb0       ?parse_int_from_format_string@?$output_processor@_WV?$stream_output_adapter@_W@__crt_stdio_output@@V?$format_validation_base@_WV?$stream_output_adapter@_W@__crt_stdio_output@@@2@@__crt_stdio_output@@AAE_NQAH@Z 10050fb0 f i libucrtd:output.obj
 0001:00050070       ?parse_int_from_format_string@?$output_processor@_WV?$stream_output_adapter@_W@__crt_stdio_output@@V?$positional_parameter_base@_WV?$stream_output_adapter@_W@__crt_stdio_output@@@2@@__crt_stdio_output@@AAE_NQAH@Z 10051070 f i libucrtd:output.obj
 0001:00050130       ?parse_int_from_format_string@?$output_processor@_WV?$stream_output_adapter@_W@__crt_stdio_output@@V?$standard_base@_WV?$stream_output_adapter@_W@__crt_stdio_output@@@2@@__crt_stdio_output@@AAE_NQAH@Z 10051130 f i libucrtd:output.obj
 0001:000501f0       ?parse_int_from_format_string@?$output_processor@_WV?$string_output_adapter@_W@__crt_stdio_output@@V?$format_validation_base@_WV?$string_output_adapter@_W@__crt_stdio_output@@@2@@__crt_stdio_output@@AAE_NQAH@Z 100511f0 f i libucrtd:output.obj
 0001:000502b0       ?parse_int_from_format_string@?$output_processor@_WV?$string_output_adapter@_W@__crt_stdio_output@@V?$positional_parameter_base@_WV?$string_output_adapter@_W@__crt_stdio_output@@@2@@__crt_stdio_output@@AAE_NQAH@Z 100512b0 f i libucrtd:output.obj
 0001:00050370       ?parse_int_from_format_string@?$output_processor@_WV?$string_output_adapter@_W@__crt_stdio_output@@V?$standard_base@_WV?$string_output_adapter@_W@__crt_stdio_output@@@2@@__crt_stdio_output@@AAE_NQAH@Z 10051370 f i libucrtd:output.obj
 0001:00050430       ?process@?$output_processor@DV?$stream_output_adapter@D@__crt_stdio_output@@V?$format_validation_base@DV?$stream_output_adapter@D@__crt_stdio_output@@@2@@__crt_stdio_output@@QAEHXZ 10051430 f i libucrtd:output.obj
 0001:000506e0       ?process@?$output_processor@DV?$stream_output_adapter@D@__crt_stdio_output@@V?$positional_parameter_base@DV?$stream_output_adapter@D@__crt_stdio_output@@@2@@__crt_stdio_output@@QAEHXZ 100516e0 f i libucrtd:output.obj
 0001:00050990       ?process@?$output_processor@DV?$stream_output_adapter@D@__crt_stdio_output@@V?$standard_base@DV?$stream_output_adapter@D@__crt_stdio_output@@@2@@__crt_stdio_output@@QAEHXZ 10051990 f i libucrtd:output.obj
 0001:00050c40       ?process@?$output_processor@DV?$string_output_adapter@D@__crt_stdio_output@@V?$format_validation_base@DV?$string_output_adapter@D@__crt_stdio_output@@@2@@__crt_stdio_output@@QAEHXZ 10051c40 f i libucrtd:output.obj
 0001:00050ef0       ?process@?$output_processor@DV?$string_output_adapter@D@__crt_stdio_output@@V?$positional_parameter_base@DV?$string_output_adapter@D@__crt_stdio_output@@@2@@__crt_stdio_output@@QAEHXZ 10051ef0 f i libucrtd:output.obj
 0001:000511a0       ?process@?$output_processor@DV?$string_output_adapter@D@__crt_stdio_output@@V?$standard_base@DV?$string_output_adapter@D@__crt_stdio_output@@@2@@__crt_stdio_output@@QAEHXZ 100521a0 f i libucrtd:output.obj
 0001:00051450       ?process@?$output_processor@_WV?$stream_output_adapter@_W@__crt_stdio_output@@V?$format_validation_base@_WV?$stream_output_adapter@_W@__crt_stdio_output@@@2@@__crt_stdio_output@@QAEHXZ 10052450 f i libucrtd:output.obj
 0001:00051700       ?process@?$output_processor@_WV?$stream_output_adapter@_W@__crt_stdio_output@@V?$positional_parameter_base@_WV?$stream_output_adapter@_W@__crt_stdio_output@@@2@@__crt_stdio_output@@QAEHXZ 10052700 f i libucrtd:output.obj
 0001:000519b0       ?process@?$output_processor@_WV?$stream_output_adapter@_W@__crt_stdio_output@@V?$standard_base@_WV?$stream_output_adapter@_W@__crt_stdio_output@@@2@@__crt_stdio_output@@QAEHXZ 100529b0 f i libucrtd:output.obj
 0001:00051c60       ?process@?$output_processor@_WV?$string_output_adapter@_W@__crt_stdio_output@@V?$format_validation_base@_WV?$string_output_adapter@_W@__crt_stdio_output@@@2@@__crt_stdio_output@@QAEHXZ 10052c60 f i libucrtd:output.obj
 0001:00051f10       ?process@?$output_processor@_WV?$string_output_adapter@_W@__crt_stdio_output@@V?$positional_parameter_base@_WV?$string_output_adapter@_W@__crt_stdio_output@@@2@@__crt_stdio_output@@QAEHXZ 10052f10 f i libucrtd:output.obj
 0001:000521c0       ?process@?$output_processor@_WV?$string_output_adapter@_W@__crt_stdio_output@@V?$standard_base@_WV?$string_output_adapter@_W@__crt_stdio_output@@@2@@__crt_stdio_output@@QAEHXZ 100531c0 f i libucrtd:output.obj
 0001:00052470       ?public_stream@__crt_stdio_stream@@QBEPAU_iobuf@@XZ 10053470 f i libucrtd:output.obj
 0001:00052490       ?set_flag@?$output_processor@DV?$stream_output_adapter@D@__crt_stdio_output@@V?$format_validation_base@DV?$stream_output_adapter@D@__crt_stdio_output@@@2@@__crt_stdio_output@@AAEXI@Z 10053490 f i libucrtd:output.obj
 0001:000524b0       ?set_flag@?$output_processor@DV?$stream_output_adapter@D@__crt_stdio_output@@V?$positional_parameter_base@DV?$stream_output_adapter@D@__crt_stdio_output@@@2@@__crt_stdio_output@@AAEXI@Z 100534b0 f i libucrtd:output.obj
 0001:000524d0       ?set_flag@?$output_processor@DV?$stream_output_adapter@D@__crt_stdio_output@@V?$standard_base@DV?$stream_output_adapter@D@__crt_stdio_output@@@2@@__crt_stdio_output@@AAEXI@Z 100534d0 f i libucrtd:output.obj
 0001:000524f0       ?set_flag@?$output_processor@DV?$string_output_adapter@D@__crt_stdio_output@@V?$format_validation_base@DV?$string_output_adapter@D@__crt_stdio_output@@@2@@__crt_stdio_output@@AAEXI@Z 100534f0 f i libucrtd:output.obj
 0001:00052510       ?set_flag@?$output_processor@DV?$string_output_adapter@D@__crt_stdio_output@@V?$positional_parameter_base@DV?$string_output_adapter@D@__crt_stdio_output@@@2@@__crt_stdio_output@@AAEXI@Z 10053510 f i libucrtd:output.obj
 0001:00052530       ?set_flag@?$output_processor@DV?$string_output_adapter@D@__crt_stdio_output@@V?$standard_base@DV?$string_output_adapter@D@__crt_stdio_output@@@2@@__crt_stdio_output@@AAEXI@Z 10053530 f i libucrtd:output.obj
 0001:00052550       ?set_flag@?$output_processor@_WV?$stream_output_adapter@_W@__crt_stdio_output@@V?$format_validation_base@_WV?$stream_output_adapter@_W@__crt_stdio_output@@@2@@__crt_stdio_output@@AAEXI@Z 10053550 f i libucrtd:output.obj
 0001:00052570       ?set_flag@?$output_processor@_WV?$stream_output_adapter@_W@__crt_stdio_output@@V?$positional_parameter_base@_WV?$stream_output_adapter@_W@__crt_stdio_output@@@2@@__crt_stdio_output@@AAEXI@Z 10053570 f i libucrtd:output.obj
 0001:00052590       ?set_flag@?$output_processor@_WV?$stream_output_adapter@_W@__crt_stdio_output@@V?$standard_base@_WV?$stream_output_adapter@_W@__crt_stdio_output@@@2@@__crt_stdio_output@@AAEXI@Z 10053590 f i libucrtd:output.obj
 0001:000525b0       ?set_flag@?$output_processor@_WV?$string_output_adapter@_W@__crt_stdio_output@@V?$format_validation_base@_WV?$string_output_adapter@_W@__crt_stdio_output@@@2@@__crt_stdio_output@@AAEXI@Z 100535b0 f i libucrtd:output.obj
 0001:000525d0       ?set_flag@?$output_processor@_WV?$string_output_adapter@_W@__crt_stdio_output@@V?$positional_parameter_base@_WV?$string_output_adapter@_W@__crt_stdio_output@@@2@@__crt_stdio_output@@AAEXI@Z 100535d0 f i libucrtd:output.obj
 0001:000525f0       ?set_flag@?$output_processor@_WV?$string_output_adapter@_W@__crt_stdio_output@@V?$standard_base@_WV?$string_output_adapter@_W@__crt_stdio_output@@@2@@__crt_stdio_output@@AAEXI@Z 100535f0 f i libucrtd:output.obj
 0001:00052610       ?should_format@?$positional_parameter_base@DV?$stream_output_adapter@D@__crt_stdio_output@@@__crt_stdio_output@@IAE_NXZ 10053610 f i libucrtd:output.obj
 0001:00052650       ?should_format@?$positional_parameter_base@DV?$string_output_adapter@D@__crt_stdio_output@@@__crt_stdio_output@@IAE_NXZ 10053650 f i libucrtd:output.obj
 0001:00052690       ?should_format@?$positional_parameter_base@_WV?$stream_output_adapter@_W@__crt_stdio_output@@@__crt_stdio_output@@IAE_NXZ 10053690 f i libucrtd:output.obj
 0001:000526d0       ?should_format@?$positional_parameter_base@_WV?$string_output_adapter@_W@__crt_stdio_output@@@__crt_stdio_output@@IAE_NXZ 100536d0 f i libucrtd:output.obj
 0001:00052710       ?should_format@?$standard_base@DV?$stream_output_adapter@D@__crt_stdio_output@@@__crt_stdio_output@@IAE_NXZ 10053710 f i libucrtd:output.obj
 0001:00052720       ?should_format@?$standard_base@DV?$string_output_adapter@D@__crt_stdio_output@@@__crt_stdio_output@@IAE_NXZ 10053720 f i libucrtd:output.obj
 0001:00052730       ?should_format@?$standard_base@_WV?$stream_output_adapter@_W@__crt_stdio_output@@@__crt_stdio_output@@IAE_NXZ 10053730 f i libucrtd:output.obj
 0001:00052740       ?should_format@?$standard_base@_WV?$string_output_adapter@_W@__crt_stdio_output@@@__crt_stdio_output@@IAE_NXZ 10053740 f i libucrtd:output.obj
 0001:00052750       ?should_skip_normal_state_processing@?$positional_parameter_base@DV?$stream_output_adapter@D@__crt_stdio_output@@@__crt_stdio_output@@IAE_NXZ 10053750 f i libucrtd:output.obj
 0001:000527a0       ?should_skip_normal_state_processing@?$positional_parameter_base@DV?$string_output_adapter@D@__crt_stdio_output@@@__crt_stdio_output@@IAE_NXZ 100537a0 f i libucrtd:output.obj
 0001:000527f0       ?should_skip_normal_state_processing@?$positional_parameter_base@_WV?$stream_output_adapter@_W@__crt_stdio_output@@@__crt_stdio_output@@IAE_NXZ 100537f0 f i libucrtd:output.obj
 0001:00052840       ?should_skip_normal_state_processing@?$positional_parameter_base@_WV?$string_output_adapter@_W@__crt_stdio_output@@@__crt_stdio_output@@IAE_NXZ 10053840 f i libucrtd:output.obj
 0001:00052890       ?should_skip_normal_state_processing@?$standard_base@DV?$stream_output_adapter@D@__crt_stdio_output@@@__crt_stdio_output@@IAE_NXZ 10053890 f i libucrtd:output.obj
 0001:000528a0       ?should_skip_normal_state_processing@?$standard_base@DV?$string_output_adapter@D@__crt_stdio_output@@@__crt_stdio_output@@IAE_NXZ 100538a0 f i libucrtd:output.obj
 0001:000528b0       ?should_skip_normal_state_processing@?$standard_base@_WV?$stream_output_adapter@_W@__crt_stdio_output@@@__crt_stdio_output@@IAE_NXZ 100538b0 f i libucrtd:output.obj
 0001:000528c0       ?should_skip_normal_state_processing@?$standard_base@_WV?$string_output_adapter@_W@__crt_stdio_output@@@__crt_stdio_output@@IAE_NXZ 100538c0 f i libucrtd:output.obj
 0001:000528d0       ?should_skip_type_state_output@?$positional_parameter_base@DV?$stream_output_adapter@D@__crt_stdio_output@@@__crt_stdio_output@@IBE_NXZ 100538d0 f i libucrtd:output.obj
 0001:00052910       ?should_skip_type_state_output@?$positional_parameter_base@DV?$string_output_adapter@D@__crt_stdio_output@@@__crt_stdio_output@@IBE_NXZ 10053910 f i libucrtd:output.obj
 0001:00052950       ?should_skip_type_state_output@?$positional_parameter_base@_WV?$stream_output_adapter@_W@__crt_stdio_output@@@__crt_stdio_output@@IBE_NXZ 10053950 f i libucrtd:output.obj
 0001:00052990       ?should_skip_type_state_output@?$positional_parameter_base@_WV?$string_output_adapter@_W@__crt_stdio_output@@@__crt_stdio_output@@IBE_NXZ 10053990 f i libucrtd:output.obj
 0001:000529d0       ?should_skip_type_state_output@?$standard_base@DV?$stream_output_adapter@D@__crt_stdio_output@@@__crt_stdio_output@@IBE_NXZ 100539d0 f i libucrtd:output.obj
 0001:000529e0       ?should_skip_type_state_output@?$standard_base@DV?$string_output_adapter@D@__crt_stdio_output@@@__crt_stdio_output@@IBE_NXZ 100539e0 f i libucrtd:output.obj
 0001:000529f0       ?should_skip_type_state_output@?$standard_base@_WV?$stream_output_adapter@_W@__crt_stdio_output@@@__crt_stdio_output@@IBE_NXZ 100539f0 f i libucrtd:output.obj
 0001:00052a00       ?should_skip_type_state_output@?$standard_base@_WV?$string_output_adapter@_W@__crt_stdio_output@@@__crt_stdio_output@@IBE_NXZ 10053a00 f i libucrtd:output.obj
 0001:00052a10       ?state_case_dot@?$output_processor@DV?$stream_output_adapter@D@__crt_stdio_output@@V?$format_validation_base@DV?$stream_output_adapter@D@__crt_stdio_output@@@2@@__crt_stdio_output@@AAE_NXZ 10053a10 f i libucrtd:output.obj
 0001:00052a30       ?state_case_dot@?$output_processor@DV?$stream_output_adapter@D@__crt_stdio_output@@V?$positional_parameter_base@DV?$stream_output_adapter@D@__crt_stdio_output@@@2@@__crt_stdio_output@@AAE_NXZ 10053a30 f i libucrtd:output.obj
 0001:00052a50       ?state_case_dot@?$output_processor@DV?$stream_output_adapter@D@__crt_stdio_output@@V?$standard_base@DV?$stream_output_adapter@D@__crt_stdio_output@@@2@@__crt_stdio_output@@AAE_NXZ 10053a50 f i libucrtd:output.obj
 0001:00052a70       ?state_case_dot@?$output_processor@DV?$string_output_adapter@D@__crt_stdio_output@@V?$format_validation_base@DV?$string_output_adapter@D@__crt_stdio_output@@@2@@__crt_stdio_output@@AAE_NXZ 10053a70 f i libucrtd:output.obj
 0001:00052a90       ?state_case_dot@?$output_processor@DV?$string_output_adapter@D@__crt_stdio_output@@V?$positional_parameter_base@DV?$string_output_adapter@D@__crt_stdio_output@@@2@@__crt_stdio_output@@AAE_NXZ 10053a90 f i libucrtd:output.obj
 0001:00052ab0       ?state_case_dot@?$output_processor@DV?$string_output_adapter@D@__crt_stdio_output@@V?$standard_base@DV?$string_output_adapter@D@__crt_stdio_output@@@2@@__crt_stdio_output@@AAE_NXZ 10053ab0 f i libucrtd:output.obj
 0001:00052ad0       ?state_case_dot@?$output_processor@_WV?$stream_output_adapter@_W@__crt_stdio_output@@V?$format_validation_base@_WV?$stream_output_adapter@_W@__crt_stdio_output@@@2@@__crt_stdio_output@@AAE_NXZ 10053ad0 f i libucrtd:output.obj
 0001:00052af0       ?state_case_dot@?$output_processor@_WV?$stream_output_adapter@_W@__crt_stdio_output@@V?$positional_parameter_base@_WV?$stream_output_adapter@_W@__crt_stdio_output@@@2@@__crt_stdio_output@@AAE_NXZ 10053af0 f i libucrtd:output.obj
 0001:00052b10       ?state_case_dot@?$output_processor@_WV?$stream_output_adapter@_W@__crt_stdio_output@@V?$standard_base@_WV?$stream_output_adapter@_W@__crt_stdio_output@@@2@@__crt_stdio_output@@AAE_NXZ 10053b10 f i libucrtd:output.obj
 0001:00052b30       ?state_case_dot@?$output_processor@_WV?$string_output_adapter@_W@__crt_stdio_output@@V?$format_validation_base@_WV?$string_output_adapter@_W@__crt_stdio_output@@@2@@__crt_stdio_output@@AAE_NXZ 10053b30 f i libucrtd:output.obj
 0001:00052b50       ?state_case_dot@?$output_processor@_WV?$string_output_adapter@_W@__crt_stdio_output@@V?$positional_parameter_base@_WV?$string_output_adapter@_W@__crt_stdio_output@@@2@@__crt_stdio_output@@AAE_NXZ 10053b50 f i libucrtd:output.obj
 0001:00052b70       ?state_case_dot@?$output_processor@_WV?$string_output_adapter@_W@__crt_stdio_output@@V?$standard_base@_WV?$string_output_adapter@_W@__crt_stdio_output@@@2@@__crt_stdio_output@@AAE_NXZ 10053b70 f i libucrtd:output.obj
 0001:00052b90       ?state_case_flag@?$output_processor@DV?$stream_output_adapter@D@__crt_stdio_output@@V?$format_validation_base@DV?$stream_output_adapter@D@__crt_stdio_output@@@2@@__crt_stdio_output@@AAE_NXZ 10053b90 f i libucrtd:output.obj
 0001:00052c40       ?state_case_flag@?$output_processor@DV?$stream_output_adapter@D@__crt_stdio_output@@V?$positional_parameter_base@DV?$stream_output_adapter@D@__crt_stdio_output@@@2@@__crt_stdio_output@@AAE_NXZ 10053c40 f i libucrtd:output.obj
 0001:00052cf0       ?state_case_flag@?$output_processor@DV?$stream_output_adapter@D@__crt_stdio_output@@V?$standard_base@DV?$stream_output_adapter@D@__crt_stdio_output@@@2@@__crt_stdio_output@@AAE_NXZ 10053cf0 f i libucrtd:output.obj
 0001:00052da0       ?state_case_flag@?$output_processor@DV?$string_output_adapter@D@__crt_stdio_output@@V?$format_validation_base@DV?$string_output_adapter@D@__crt_stdio_output@@@2@@__crt_stdio_output@@AAE_NXZ 10053da0 f i libucrtd:output.obj
 0001:00052e50       ?state_case_flag@?$output_processor@DV?$string_output_adapter@D@__crt_stdio_output@@V?$positional_parameter_base@DV?$string_output_adapter@D@__crt_stdio_output@@@2@@__crt_stdio_output@@AAE_NXZ 10053e50 f i libucrtd:output.obj
 0001:00052f00       ?state_case_flag@?$output_processor@DV?$string_output_adapter@D@__crt_stdio_output@@V?$standard_base@DV?$string_output_adapter@D@__crt_stdio_output@@@2@@__crt_stdio_output@@AAE_NXZ 10053f00 f i libucrtd:output.obj
 0001:00052fb0       ?state_case_flag@?$output_processor@_WV?$stream_output_adapter@_W@__crt_stdio_output@@V?$format_validation_base@_WV?$stream_output_adapter@_W@__crt_stdio_output@@@2@@__crt_stdio_output@@AAE_NXZ 10053fb0 f i libucrtd:output.obj
 0001:00053060       ?state_case_flag@?$output_processor@_WV?$stream_output_adapter@_W@__crt_stdio_output@@V?$positional_parameter_base@_WV?$stream_output_adapter@_W@__crt_stdio_output@@@2@@__crt_stdio_output@@AAE_NXZ 10054060 f i libucrtd:output.obj
 0001:00053110       ?state_case_flag@?$output_processor@_WV?$stream_output_adapter@_W@__crt_stdio_output@@V?$standard_base@_WV?$stream_output_adapter@_W@__crt_stdio_output@@@2@@__crt_stdio_output@@AAE_NXZ 10054110 f i libucrtd:output.obj
 0001:000531c0       ?state_case_flag@?$output_processor@_WV?$string_output_adapter@_W@__crt_stdio_output@@V?$format_validation_base@_WV?$string_output_adapter@_W@__crt_stdio_output@@@2@@__crt_stdio_output@@AAE_NXZ 100541c0 f i libucrtd:output.obj
 0001:00053270       ?state_case_flag@?$output_processor@_WV?$string_output_adapter@_W@__crt_stdio_output@@V?$positional_parameter_base@_WV?$string_output_adapter@_W@__crt_stdio_output@@@2@@__crt_stdio_output@@AAE_NXZ 10054270 f i libucrtd:output.obj
 0001:00053320       ?state_case_flag@?$output_processor@_WV?$string_output_adapter@_W@__crt_stdio_output@@V?$standard_base@_WV?$string_output_adapter@_W@__crt_stdio_output@@@2@@__crt_stdio_output@@AAE_NXZ 10054320 f i libucrtd:output.obj
 0001:000533d0       ?state_case_normal@?$output_processor@DV?$stream_output_adapter@D@__crt_stdio_output@@V?$format_validation_base@DV?$stream_output_adapter@D@__crt_stdio_output@@@2@@__crt_stdio_output@@AAE_NXZ 100543d0 f i libucrtd:output.obj
 0001:00053480       ?state_case_normal@?$output_processor@DV?$stream_output_adapter@D@__crt_stdio_output@@V?$positional_parameter_base@DV?$stream_output_adapter@D@__crt_stdio_output@@@2@@__crt_stdio_output@@AAE_NXZ 10054480 f i libucrtd:output.obj
 0001:00053530       ?state_case_normal@?$output_processor@DV?$stream_output_adapter@D@__crt_stdio_output@@V?$standard_base@DV?$stream_output_adapter@D@__crt_stdio_output@@@2@@__crt_stdio_output@@AAE_NXZ 10054530 f i libucrtd:output.obj
 0001:000535e0       ?state_case_normal@?$output_processor@DV?$string_output_adapter@D@__crt_stdio_output@@V?$format_validation_base@DV?$string_output_adapter@D@__crt_stdio_output@@@2@@__crt_stdio_output@@AAE_NXZ 100545e0 f i libucrtd:output.obj
 0001:00053690       ?state_case_normal@?$output_processor@DV?$string_output_adapter@D@__crt_stdio_output@@V?$positional_parameter_base@DV?$string_output_adapter@D@__crt_stdio_output@@@2@@__crt_stdio_output@@AAE_NXZ 10054690 f i libucrtd:output.obj
 0001:00053740       ?state_case_normal@?$output_processor@DV?$string_output_adapter@D@__crt_stdio_output@@V?$standard_base@DV?$string_output_adapter@D@__crt_stdio_output@@@2@@__crt_stdio_output@@AAE_NXZ 10054740 f i libucrtd:output.obj
 0001:000537f0       ?state_case_normal@?$output_processor@_WV?$stream_output_adapter@_W@__crt_stdio_output@@V?$format_validation_base@_WV?$stream_output_adapter@_W@__crt_stdio_output@@@2@@__crt_stdio_output@@AAE_NXZ 100547f0 f i libucrtd:output.obj
 0001:000538a0       ?state_case_normal@?$output_processor@_WV?$stream_output_adapter@_W@__crt_stdio_output@@V?$positional_parameter_base@_WV?$stream_output_adapter@_W@__crt_stdio_output@@@2@@__crt_stdio_output@@AAE_NXZ 100548a0 f i libucrtd:output.obj
 0001:00053950       ?state_case_normal@?$output_processor@_WV?$stream_output_adapter@_W@__crt_stdio_output@@V?$standard_base@_WV?$stream_output_adapter@_W@__crt_stdio_output@@@2@@__crt_stdio_output@@AAE_NXZ 10054950 f i libucrtd:output.obj
 0001:00053a00       ?state_case_normal@?$output_processor@_WV?$string_output_adapter@_W@__crt_stdio_output@@V?$format_validation_base@_WV?$string_output_adapter@_W@__crt_stdio_output@@@2@@__crt_stdio_output@@AAE_NXZ 10054a00 f i libucrtd:output.obj
 0001:00053ab0       ?state_case_normal@?$output_processor@_WV?$string_output_adapter@_W@__crt_stdio_output@@V?$positional_parameter_base@_WV?$string_output_adapter@_W@__crt_stdio_output@@@2@@__crt_stdio_output@@AAE_NXZ 10054ab0 f i libucrtd:output.obj
 0001:00053b60       ?state_case_normal@?$output_processor@_WV?$string_output_adapter@_W@__crt_stdio_output@@V?$standard_base@_WV?$string_output_adapter@_W@__crt_stdio_output@@@2@@__crt_stdio_output@@AAE_NXZ 10054b60 f i libucrtd:output.obj
 0001:00053c10       ?state_case_normal_common@?$output_processor@DV?$stream_output_adapter@D@__crt_stdio_output@@V?$format_validation_base@DV?$stream_output_adapter@D@__crt_stdio_output@@@2@@__crt_stdio_output@@AAE_NXZ 10054c10 f i libucrtd:output.obj
 0001:00053c60       ?state_case_normal_common@?$output_processor@DV?$stream_output_adapter@D@__crt_stdio_output@@V?$positional_parameter_base@DV?$stream_output_adapter@D@__crt_stdio_output@@@2@@__crt_stdio_output@@AAE_NXZ 10054c60 f i libucrtd:output.obj
 0001:00053cb0       ?state_case_normal_common@?$output_processor@DV?$stream_output_adapter@D@__crt_stdio_output@@V?$standard_base@DV?$stream_output_adapter@D@__crt_stdio_output@@@2@@__crt_stdio_output@@AAE_NXZ 10054cb0 f i libucrtd:output.obj
 0001:00053d00       ?state_case_normal_common@?$output_processor@DV?$string_output_adapter@D@__crt_stdio_output@@V?$format_validation_base@DV?$string_output_adapter@D@__crt_stdio_output@@@2@@__crt_stdio_output@@AAE_NXZ 10054d00 f i libucrtd:output.obj
 0001:00053d50       ?state_case_normal_common@?$output_processor@DV?$string_output_adapter@D@__crt_stdio_output@@V?$positional_parameter_base@DV?$string_output_adapter@D@__crt_stdio_output@@@2@@__crt_stdio_output@@AAE_NXZ 10054d50 f i libucrtd:output.obj
 0001:00053da0       ?state_case_normal_common@?$output_processor@DV?$string_output_adapter@D@__crt_stdio_output@@V?$standard_base@DV?$string_output_adapter@D@__crt_stdio_output@@@2@@__crt_stdio_output@@AAE_NXZ 10054da0 f i libucrtd:output.obj
 0001:00053df0       ?state_case_normal_common@?$output_processor@_WV?$stream_output_adapter@_W@__crt_stdio_output@@V?$format_validation_base@_WV?$stream_output_adapter@_W@__crt_stdio_output@@@2@@__crt_stdio_output@@AAE_NXZ 10054df0 f i libucrtd:output.obj
 0001:00053e40       ?state_case_normal_common@?$output_processor@_WV?$stream_output_adapter@_W@__crt_stdio_output@@V?$positional_parameter_base@_WV?$stream_output_adapter@_W@__crt_stdio_output@@@2@@__crt_stdio_output@@AAE_NXZ 10054e40 f i libucrtd:output.obj
 0001:00053e90       ?state_case_normal_common@?$output_processor@_WV?$stream_output_adapter@_W@__crt_stdio_output@@V?$standard_base@_WV?$stream_output_adapter@_W@__crt_stdio_output@@@2@@__crt_stdio_output@@AAE_NXZ 10054e90 f i libucrtd:output.obj
 0001:00053ee0       ?state_case_normal_common@?$output_processor@_WV?$string_output_adapter@_W@__crt_stdio_output@@V?$format_validation_base@_WV?$string_output_adapter@_W@__crt_stdio_output@@@2@@__crt_stdio_output@@AAE_NXZ 10054ee0 f i libucrtd:output.obj
 0001:00053f30       ?state_case_normal_common@?$output_processor@_WV?$string_output_adapter@_W@__crt_stdio_output@@V?$positional_parameter_base@_WV?$string_output_adapter@_W@__crt_stdio_output@@@2@@__crt_stdio_output@@AAE_NXZ 10054f30 f i libucrtd:output.obj
 0001:00053f80       ?state_case_normal_common@?$output_processor@_WV?$string_output_adapter@_W@__crt_stdio_output@@V?$standard_base@_WV?$string_output_adapter@_W@__crt_stdio_output@@@2@@__crt_stdio_output@@AAE_NXZ 10054f80 f i libucrtd:output.obj
 0001:00053fd0       ?state_case_normal_tchar@?$output_processor@DV?$stream_output_adapter@D@__crt_stdio_output@@V?$format_validation_base@DV?$stream_output_adapter@D@__crt_stdio_output@@@2@@__crt_stdio_output@@AAE_ND@Z 10054fd0 f i libucrtd:output.obj
 0001:000540d0       ?state_case_normal_tchar@?$output_processor@DV?$stream_output_adapter@D@__crt_stdio_output@@V?$positional_parameter_base@DV?$stream_output_adapter@D@__crt_stdio_output@@@2@@__crt_stdio_output@@AAE_ND@Z 100550d0 f i libucrtd:output.obj
 0001:000541d0       ?state_case_normal_tchar@?$output_processor@DV?$stream_output_adapter@D@__crt_stdio_output@@V?$standard_base@DV?$stream_output_adapter@D@__crt_stdio_output@@@2@@__crt_stdio_output@@AAE_ND@Z 100551d0 f i libucrtd:output.obj
 0001:000542d0       ?state_case_normal_tchar@?$output_processor@DV?$string_output_adapter@D@__crt_stdio_output@@V?$format_validation_base@DV?$string_output_adapter@D@__crt_stdio_output@@@2@@__crt_stdio_output@@AAE_ND@Z 100552d0 f i libucrtd:output.obj
 0001:000543d0       ?state_case_normal_tchar@?$output_processor@DV?$string_output_adapter@D@__crt_stdio_output@@V?$positional_parameter_base@DV?$string_output_adapter@D@__crt_stdio_output@@@2@@__crt_stdio_output@@AAE_ND@Z 100553d0 f i libucrtd:output.obj
 0001:000544d0       ?state_case_normal_tchar@?$output_processor@DV?$string_output_adapter@D@__crt_stdio_output@@V?$standard_base@DV?$string_output_adapter@D@__crt_stdio_output@@@2@@__crt_stdio_output@@AAE_ND@Z 100554d0 f i libucrtd:output.obj
 0001:000545d0       ?state_case_normal_tchar@?$output_processor@_WV?$stream_output_adapter@_W@__crt_stdio_output@@V?$format_validation_base@_WV?$stream_output_adapter@_W@__crt_stdio_output@@@2@@__crt_stdio_output@@AAE_N_W@Z 100555d0 f i libucrtd:output.obj
 0001:000545f0       ?state_case_normal_tchar@?$output_processor@_WV?$stream_output_adapter@_W@__crt_stdio_output@@V?$positional_parameter_base@_WV?$stream_output_adapter@_W@__crt_stdio_output@@@2@@__crt_stdio_output@@AAE_N_W@Z 100555f0 f i libucrtd:output.obj
 0001:00054610       ?state_case_normal_tchar@?$output_processor@_WV?$stream_output_adapter@_W@__crt_stdio_output@@V?$standard_base@_WV?$stream_output_adapter@_W@__crt_stdio_output@@@2@@__crt_stdio_output@@AAE_N_W@Z 10055610 f i libucrtd:output.obj
 0001:00054630       ?state_case_normal_tchar@?$output_processor@_WV?$string_output_adapter@_W@__crt_stdio_output@@V?$format_validation_base@_WV?$string_output_adapter@_W@__crt_stdio_output@@@2@@__crt_stdio_output@@AAE_N_W@Z 10055630 f i libucrtd:output.obj
 0001:00054650       ?state_case_normal_tchar@?$output_processor@_WV?$string_output_adapter@_W@__crt_stdio_output@@V?$positional_parameter_base@_WV?$string_output_adapter@_W@__crt_stdio_output@@@2@@__crt_stdio_output@@AAE_N_W@Z 10055650 f i libucrtd:output.obj
 0001:00054670       ?state_case_normal_tchar@?$output_processor@_WV?$string_output_adapter@_W@__crt_stdio_output@@V?$standard_base@_WV?$string_output_adapter@_W@__crt_stdio_output@@@2@@__crt_stdio_output@@AAE_N_W@Z 10055670 f i libucrtd:output.obj
 0001:00054690       ?state_case_percent@?$output_processor@DV?$stream_output_adapter@D@__crt_stdio_output@@V?$format_validation_base@DV?$stream_output_adapter@D@__crt_stdio_output@@@2@@__crt_stdio_output@@AAE_NXZ 10055690 f i libucrtd:output.obj
 0001:000546e0       ?state_case_percent@?$output_processor@DV?$stream_output_adapter@D@__crt_stdio_output@@V?$positional_parameter_base@DV?$stream_output_adapter@D@__crt_stdio_output@@@2@@__crt_stdio_output@@AAE_NXZ 100556e0 f i libucrtd:output.obj
 0001:00054730       ?state_case_percent@?$output_processor@DV?$stream_output_adapter@D@__crt_stdio_output@@V?$standard_base@DV?$stream_output_adapter@D@__crt_stdio_output@@@2@@__crt_stdio_output@@AAE_NXZ 10055730 f i libucrtd:output.obj
 0001:00054780       ?state_case_percent@?$output_processor@DV?$string_output_adapter@D@__crt_stdio_output@@V?$format_validation_base@DV?$string_output_adapter@D@__crt_stdio_output@@@2@@__crt_stdio_output@@AAE_NXZ 10055780 f i libucrtd:output.obj
 0001:000547d0       ?state_case_percent@?$output_processor@DV?$string_output_adapter@D@__crt_stdio_output@@V?$positional_parameter_base@DV?$string_output_adapter@D@__crt_stdio_output@@@2@@__crt_stdio_output@@AAE_NXZ 100557d0 f i libucrtd:output.obj
 0001:00054820       ?state_case_percent@?$output_processor@DV?$string_output_adapter@D@__crt_stdio_output@@V?$standard_base@DV?$string_output_adapter@D@__crt_stdio_output@@@2@@__crt_stdio_output@@AAE_NXZ 10055820 f i libucrtd:output.obj
 0001:00054870       ?state_case_percent@?$output_processor@_WV?$stream_output_adapter@_W@__crt_stdio_output@@V?$format_validation_base@_WV?$stream_output_adapter@_W@__crt_stdio_output@@@2@@__crt_stdio_output@@AAE_NXZ 10055870 f i libucrtd:output.obj
 0001:000548c0       ?state_case_percent@?$output_processor@_WV?$stream_output_adapter@_W@__crt_stdio_output@@V?$positional_parameter_base@_WV?$stream_output_adapter@_W@__crt_stdio_output@@@2@@__crt_stdio_output@@AAE_NXZ 100558c0 f i libucrtd:output.obj
 0001:00054910       ?state_case_percent@?$output_processor@_WV?$stream_output_adapter@_W@__crt_stdio_output@@V?$standard_base@_WV?$stream_output_adapter@_W@__crt_stdio_output@@@2@@__crt_stdio_output@@AAE_NXZ 10055910 f i libucrtd:output.obj
 0001:00054960       ?state_case_percent@?$output_processor@_WV?$string_output_adapter@_W@__crt_stdio_output@@V?$format_validation_base@_WV?$string_output_adapter@_W@__crt_stdio_output@@@2@@__crt_stdio_output@@AAE_NXZ 10055960 f i libucrtd:output.obj
 0001:000549b0       ?state_case_percent@?$output_processor@_WV?$string_output_adapter@_W@__crt_stdio_output@@V?$positional_parameter_base@_WV?$string_output_adapter@_W@__crt_stdio_output@@@2@@__crt_stdio_output@@AAE_NXZ 100559b0 f i libucrtd:output.obj
 0001:00054a00       ?state_case_percent@?$output_processor@_WV?$string_output_adapter@_W@__crt_stdio_output@@V?$standard_base@_WV?$string_output_adapter@_W@__crt_stdio_output@@@2@@__crt_stdio_output@@AAE_NXZ 10055a00 f i libucrtd:output.obj
 0001:00054a50       ?state_case_precision@?$output_processor@DV?$stream_output_adapter@D@__crt_stdio_output@@V?$format_validation_base@DV?$stream_output_adapter@D@__crt_stdio_output@@@2@@__crt_stdio_output@@AAE_NXZ 10055a50 f i libucrtd:output.obj
 0001:00054ac0       ?state_case_precision@?$output_processor@DV?$stream_output_adapter@D@__crt_stdio_output@@V?$positional_parameter_base@DV?$stream_output_adapter@D@__crt_stdio_output@@@2@@__crt_stdio_output@@AAE_NXZ 10055ac0 f i libucrtd:output.obj
 0001:00054b30       ?state_case_precision@?$output_processor@DV?$stream_output_adapter@D@__crt_stdio_output@@V?$standard_base@DV?$stream_output_adapter@D@__crt_stdio_output@@@2@@__crt_stdio_output@@AAE_NXZ 10055b30 f i libucrtd:output.obj
 0001:00054ba0       ?state_case_precision@?$output_processor@DV?$string_output_adapter@D@__crt_stdio_output@@V?$format_validation_base@DV?$string_output_adapter@D@__crt_stdio_output@@@2@@__crt_stdio_output@@AAE_NXZ 10055ba0 f i libucrtd:output.obj
 0001:00054c10       ?state_case_precision@?$output_processor@DV?$string_output_adapter@D@__crt_stdio_output@@V?$positional_parameter_base@DV?$string_output_adapter@D@__crt_stdio_output@@@2@@__crt_stdio_output@@AAE_NXZ 10055c10 f i libucrtd:output.obj
 0001:00054c80       ?state_case_precision@?$output_processor@DV?$string_output_adapter@D@__crt_stdio_output@@V?$standard_base@DV?$string_output_adapter@D@__crt_stdio_output@@@2@@__crt_stdio_output@@AAE_NXZ 10055c80 f i libucrtd:output.obj
 0001:00054cf0       ?state_case_precision@?$output_processor@_WV?$stream_output_adapter@_W@__crt_stdio_output@@V?$format_validation_base@_WV?$stream_output_adapter@_W@__crt_stdio_output@@@2@@__crt_stdio_output@@AAE_NXZ 10055cf0 f i libucrtd:output.obj
 0001:00054d60       ?state_case_precision@?$output_processor@_WV?$stream_output_adapter@_W@__crt_stdio_output@@V?$positional_parameter_base@_WV?$stream_output_adapter@_W@__crt_stdio_output@@@2@@__crt_stdio_output@@AAE_NXZ 10055d60 f i libucrtd:output.obj
 0001:00054dd0       ?state_case_precision@?$output_processor@_WV?$stream_output_adapter@_W@__crt_stdio_output@@V?$standard_base@_WV?$stream_output_adapter@_W@__crt_stdio_output@@@2@@__crt_stdio_output@@AAE_NXZ 10055dd0 f i libucrtd:output.obj
 0001:00054e40       ?state_case_precision@?$output_processor@_WV?$string_output_adapter@_W@__crt_stdio_output@@V?$format_validation_base@_WV?$string_output_adapter@_W@__crt_stdio_output@@@2@@__crt_stdio_output@@AAE_NXZ 10055e40 f i libucrtd:output.obj
 0001:00054eb0       ?state_case_precision@?$output_processor@_WV?$string_output_adapter@_W@__crt_stdio_output@@V?$positional_parameter_base@_WV?$string_output_adapter@_W@__crt_stdio_output@@@2@@__crt_stdio_output@@AAE_NXZ 10055eb0 f i libucrtd:output.obj
 0001:00054f20       ?state_case_precision@?$output_processor@_WV?$string_output_adapter@_W@__crt_stdio_output@@V?$standard_base@_WV?$string_output_adapter@_W@__crt_stdio_output@@@2@@__crt_stdio_output@@AAE_NXZ 10055f20 f i libucrtd:output.obj
 0001:00054f90       ?state_case_size@?$output_processor@DV?$stream_output_adapter@D@__crt_stdio_output@@V?$format_validation_base@DV?$stream_output_adapter@D@__crt_stdio_output@@@2@@__crt_stdio_output@@AAE_NXZ 10055f90 f i libucrtd:output.obj
 0001:00055360       ?state_case_size@?$output_processor@DV?$stream_output_adapter@D@__crt_stdio_output@@V?$positional_parameter_base@DV?$stream_output_adapter@D@__crt_stdio_output@@@2@@__crt_stdio_output@@AAE_NXZ 10056360 f i libucrtd:output.obj
 0001:00055730       ?state_case_size@?$output_processor@DV?$stream_output_adapter@D@__crt_stdio_output@@V?$standard_base@DV?$stream_output_adapter@D@__crt_stdio_output@@@2@@__crt_stdio_output@@AAE_NXZ 10056730 f i libucrtd:output.obj
 0001:00055b00       ?state_case_size@?$output_processor@DV?$string_output_adapter@D@__crt_stdio_output@@V?$format_validation_base@DV?$string_output_adapter@D@__crt_stdio_output@@@2@@__crt_stdio_output@@AAE_NXZ 10056b00 f i libucrtd:output.obj
 0001:00055ed0       ?state_case_size@?$output_processor@DV?$string_output_adapter@D@__crt_stdio_output@@V?$positional_parameter_base@DV?$string_output_adapter@D@__crt_stdio_output@@@2@@__crt_stdio_output@@AAE_NXZ 10056ed0 f i libucrtd:output.obj
 0001:000562a0       ?state_case_size@?$output_processor@DV?$string_output_adapter@D@__crt_stdio_output@@V?$standard_base@DV?$string_output_adapter@D@__crt_stdio_output@@@2@@__crt_stdio_output@@AAE_NXZ 100572a0 f i libucrtd:output.obj
 0001:00056670       ?state_case_size@?$output_processor@_WV?$stream_output_adapter@_W@__crt_stdio_output@@V?$format_validation_base@_WV?$stream_output_adapter@_W@__crt_stdio_output@@@2@@__crt_stdio_output@@AAE_NXZ 10057670 f i libucrtd:output.obj
 0001:00056a40       ?state_case_size@?$output_processor@_WV?$stream_output_adapter@_W@__crt_stdio_output@@V?$positional_parameter_base@_WV?$stream_output_adapter@_W@__crt_stdio_output@@@2@@__crt_stdio_output@@AAE_NXZ 10057a40 f i libucrtd:output.obj
 0001:00056e10       ?state_case_size@?$output_processor@_WV?$stream_output_adapter@_W@__crt_stdio_output@@V?$standard_base@_WV?$stream_output_adapter@_W@__crt_stdio_output@@@2@@__crt_stdio_output@@AAE_NXZ 10057e10 f i libucrtd:output.obj
 0001:000571e0       ?state_case_size@?$output_processor@_WV?$string_output_adapter@_W@__crt_stdio_output@@V?$format_validation_base@_WV?$string_output_adapter@_W@__crt_stdio_output@@@2@@__crt_stdio_output@@AAE_NXZ 100581e0 f i libucrtd:output.obj
 0001:000575b0       ?state_case_size@?$output_processor@_WV?$string_output_adapter@_W@__crt_stdio_output@@V?$positional_parameter_base@_WV?$string_output_adapter@_W@__crt_stdio_output@@@2@@__crt_stdio_output@@AAE_NXZ 100585b0 f i libucrtd:output.obj
 0001:00057980       ?state_case_size@?$output_processor@_WV?$string_output_adapter@_W@__crt_stdio_output@@V?$standard_base@_WV?$string_output_adapter@_W@__crt_stdio_output@@@2@@__crt_stdio_output@@AAE_NXZ 10058980 f i libucrtd:output.obj
 0001:00057d50       ?state_case_type@?$output_processor@DV?$stream_output_adapter@D@__crt_stdio_output@@V?$format_validation_base@DV?$stream_output_adapter@D@__crt_stdio_output@@@2@@__crt_stdio_output@@AAE_NXZ 10058d50 f i libucrtd:output.obj
 0001:00058100       ?state_case_type@?$output_processor@DV?$stream_output_adapter@D@__crt_stdio_output@@V?$positional_parameter_base@DV?$stream_output_adapter@D@__crt_stdio_output@@@2@@__crt_stdio_output@@AAE_NXZ 10059100 f i libucrtd:output.obj
 0001:000584b0       ?state_case_type@?$output_processor@DV?$stream_output_adapter@D@__crt_stdio_output@@V?$standard_base@DV?$stream_output_adapter@D@__crt_stdio_output@@@2@@__crt_stdio_output@@AAE_NXZ 100594b0 f i libucrtd:output.obj
 0001:00058860       ?state_case_type@?$output_processor@DV?$string_output_adapter@D@__crt_stdio_output@@V?$format_validation_base@DV?$string_output_adapter@D@__crt_stdio_output@@@2@@__crt_stdio_output@@AAE_NXZ 10059860 f i libucrtd:output.obj
 0001:00058c10       ?state_case_type@?$output_processor@DV?$string_output_adapter@D@__crt_stdio_output@@V?$positional_parameter_base@DV?$string_output_adapter@D@__crt_stdio_output@@@2@@__crt_stdio_output@@AAE_NXZ 10059c10 f i libucrtd:output.obj
 0001:00058fc0       ?state_case_type@?$output_processor@DV?$string_output_adapter@D@__crt_stdio_output@@V?$standard_base@DV?$string_output_adapter@D@__crt_stdio_output@@@2@@__crt_stdio_output@@AAE_NXZ 10059fc0 f i libucrtd:output.obj
 0001:00059370       ?state_case_type@?$output_processor@_WV?$stream_output_adapter@_W@__crt_stdio_output@@V?$format_validation_base@_WV?$stream_output_adapter@_W@__crt_stdio_output@@@2@@__crt_stdio_output@@AAE_NXZ 1005a370 f i libucrtd:output.obj
 0001:00059750       ?state_case_type@?$output_processor@_WV?$stream_output_adapter@_W@__crt_stdio_output@@V?$positional_parameter_base@_WV?$stream_output_adapter@_W@__crt_stdio_output@@@2@@__crt_stdio_output@@AAE_NXZ 1005a750 f i libucrtd:output.obj
 0001:00059b30       ?state_case_type@?$output_processor@_WV?$stream_output_adapter@_W@__crt_stdio_output@@V?$standard_base@_WV?$stream_output_adapter@_W@__crt_stdio_output@@@2@@__crt_stdio_output@@AAE_NXZ 1005ab30 f i libucrtd:output.obj
 0001:00059f10       ?state_case_type@?$output_processor@_WV?$string_output_adapter@_W@__crt_stdio_output@@V?$format_validation_base@_WV?$string_output_adapter@_W@__crt_stdio_output@@@2@@__crt_stdio_output@@AAE_NXZ 1005af10 f i libucrtd:output.obj
 0001:0005a2f0       ?state_case_type@?$output_processor@_WV?$string_output_adapter@_W@__crt_stdio_output@@V?$positional_parameter_base@_WV?$string_output_adapter@_W@__crt_stdio_output@@@2@@__crt_stdio_output@@AAE_NXZ 1005b2f0 f i libucrtd:output.obj
 0001:0005a6d0       ?state_case_type@?$output_processor@_WV?$string_output_adapter@_W@__crt_stdio_output@@V?$standard_base@_WV?$string_output_adapter@_W@__crt_stdio_output@@@2@@__crt_stdio_output@@AAE_NXZ 1005b6d0 f i libucrtd:output.obj
 0001:0005aab0       ?state_case_width@?$output_processor@DV?$stream_output_adapter@D@__crt_stdio_output@@V?$format_validation_base@DV?$stream_output_adapter@D@__crt_stdio_output@@@2@@__crt_stdio_output@@AAE_NXZ 1005bab0 f i libucrtd:output.obj
 0001:0005ab30       ?state_case_width@?$output_processor@DV?$stream_output_adapter@D@__crt_stdio_output@@V?$positional_parameter_base@DV?$stream_output_adapter@D@__crt_stdio_output@@@2@@__crt_stdio_output@@AAE_NXZ 1005bb30 f i libucrtd:output.obj
 0001:0005abb0       ?state_case_width@?$output_processor@DV?$stream_output_adapter@D@__crt_stdio_output@@V?$standard_base@DV?$stream_output_adapter@D@__crt_stdio_output@@@2@@__crt_stdio_output@@AAE_NXZ 1005bbb0 f i libucrtd:output.obj
 0001:0005ac30       ?state_case_width@?$output_processor@DV?$string_output_adapter@D@__crt_stdio_output@@V?$format_validation_base@DV?$string_output_adapter@D@__crt_stdio_output@@@2@@__crt_stdio_output@@AAE_NXZ 1005bc30 f i libucrtd:output.obj
 0001:0005acb0       ?state_case_width@?$output_processor@DV?$string_output_adapter@D@__crt_stdio_output@@V?$positional_parameter_base@DV?$string_output_adapter@D@__crt_stdio_output@@@2@@__crt_stdio_output@@AAE_NXZ 1005bcb0 f i libucrtd:output.obj
 0001:0005ad30       ?state_case_width@?$output_processor@DV?$string_output_adapter@D@__crt_stdio_output@@V?$standard_base@DV?$string_output_adapter@D@__crt_stdio_output@@@2@@__crt_stdio_output@@AAE_NXZ 1005bd30 f i libucrtd:output.obj
 0001:0005adb0       ?state_case_width@?$output_processor@_WV?$stream_output_adapter@_W@__crt_stdio_output@@V?$format_validation_base@_WV?$stream_output_adapter@_W@__crt_stdio_output@@@2@@__crt_stdio_output@@AAE_NXZ 1005bdb0 f i libucrtd:output.obj
 0001:0005ae30       ?state_case_width@?$output_processor@_WV?$stream_output_adapter@_W@__crt_stdio_output@@V?$positional_parameter_base@_WV?$stream_output_adapter@_W@__crt_stdio_output@@@2@@__crt_stdio_output@@AAE_NXZ 1005be30 f i libucrtd:output.obj
 0001:0005aeb0       ?state_case_width@?$output_processor@_WV?$stream_output_adapter@_W@__crt_stdio_output@@V?$standard_base@_WV?$stream_output_adapter@_W@__crt_stdio_output@@@2@@__crt_stdio_output@@AAE_NXZ 1005beb0 f i libucrtd:output.obj
 0001:0005af30       ?state_case_width@?$output_processor@_WV?$string_output_adapter@_W@__crt_stdio_output@@V?$format_validation_base@_WV?$string_output_adapter@_W@__crt_stdio_output@@@2@@__crt_stdio_output@@AAE_NXZ 1005bf30 f i libucrtd:output.obj
 0001:0005afb0       ?state_case_width@?$output_processor@_WV?$string_output_adapter@_W@__crt_stdio_output@@V?$positional_parameter_base@_WV?$string_output_adapter@_W@__crt_stdio_output@@@2@@__crt_stdio_output@@AAE_NXZ 1005bfb0 f i libucrtd:output.obj
 0001:0005b030       ?state_case_width@?$output_processor@_WV?$string_output_adapter@_W@__crt_stdio_output@@V?$standard_base@_WV?$string_output_adapter@_W@__crt_stdio_output@@@2@@__crt_stdio_output@@AAE_NXZ 1005c030 f i libucrtd:output.obj
 0001:0005b0b0       ?state_count@?$format_validation_base@DV?$stream_output_adapter@D@__crt_stdio_output@@@__crt_stdio_output@@KAIXZ 1005c0b0 f i libucrtd:output.obj
 0001:0005b0c0       ?state_count@?$format_validation_base@DV?$string_output_adapter@D@__crt_stdio_output@@@__crt_stdio_output@@KAIXZ 1005c0c0 f i libucrtd:output.obj
 0001:0005b0d0       ?state_count@?$format_validation_base@_WV?$stream_output_adapter@_W@__crt_stdio_output@@@__crt_stdio_output@@KAIXZ 1005c0d0 f i libucrtd:output.obj
 0001:0005b0e0       ?state_count@?$format_validation_base@_WV?$string_output_adapter@_W@__crt_stdio_output@@@__crt_stdio_output@@KAIXZ 1005c0e0 f i libucrtd:output.obj
 0001:0005b0f0       ?state_count@?$standard_base@DV?$stream_output_adapter@D@__crt_stdio_output@@@__crt_stdio_output@@KAIXZ 1005c0f0 f i libucrtd:output.obj
 0001:0005b100       ?state_count@?$standard_base@DV?$string_output_adapter@D@__crt_stdio_output@@@__crt_stdio_output@@KAIXZ 1005c100 f i libucrtd:output.obj
 0001:0005b110       ?state_count@?$standard_base@_WV?$stream_output_adapter@_W@__crt_stdio_output@@@__crt_stdio_output@@KAIXZ 1005c110 f i libucrtd:output.obj
 0001:0005b120       ?state_count@?$standard_base@_WV?$string_output_adapter@_W@__crt_stdio_output@@@__crt_stdio_output@@KAIXZ 1005c120 f i libucrtd:output.obj
 0001:0005b130       ?state_transition_table@?$format_validation_base@DV?$stream_output_adapter@D@__crt_stdio_output@@@__crt_stdio_output@@KAPBEXZ 1005c130 f i libucrtd:output.obj
 0001:0005b140       ?state_transition_table@?$format_validation_base@DV?$string_output_adapter@D@__crt_stdio_output@@@__crt_stdio_output@@KAPBEXZ 1005c140 f i libucrtd:output.obj
 0001:0005b150       ?state_transition_table@?$format_validation_base@_WV?$stream_output_adapter@_W@__crt_stdio_output@@@__crt_stdio_output@@KAPBEXZ 1005c150 f i libucrtd:output.obj
 0001:0005b160       ?state_transition_table@?$format_validation_base@_WV?$string_output_adapter@_W@__crt_stdio_output@@@__crt_stdio_output@@KAPBEXZ 1005c160 f i libucrtd:output.obj
 0001:0005b170       ?state_transition_table@?$standard_base@DV?$stream_output_adapter@D@__crt_stdio_output@@@__crt_stdio_output@@KAPBEXZ 1005c170 f i libucrtd:output.obj
 0001:0005b180       ?state_transition_table@?$standard_base@DV?$string_output_adapter@D@__crt_stdio_output@@@__crt_stdio_output@@KAPBEXZ 1005c180 f i libucrtd:output.obj
 0001:0005b190       ?state_transition_table@?$standard_base@_WV?$stream_output_adapter@_W@__crt_stdio_output@@@__crt_stdio_output@@KAPBEXZ 1005c190 f i libucrtd:output.obj
 0001:0005b1a0       ?state_transition_table@?$standard_base@_WV?$string_output_adapter@_W@__crt_stdio_output@@@__crt_stdio_output@@KAPBEXZ 1005c1a0 f i libucrtd:output.obj
 0001:0005b1b0       ?tchar_string@?$common_data@D@__crt_stdio_output@@IAEAAPADD@Z 1005c1b0 f i libucrtd:output.obj
 0001:0005b1d0       ?tchar_string@?$common_data@D@__crt_stdio_output@@IAEAAPADXZ 1005c1d0 f i libucrtd:output.obj
 0001:0005b1f0       ?tchar_string@?$common_data@_W@__crt_stdio_output@@IAEAAPA_WXZ 1005c1f0 f i libucrtd:output.obj
 0001:0005b210       ?tchar_string@?$common_data@_W@__crt_stdio_output@@IAEAAPA_W_W@Z 1005c210 f i libucrtd:output.obj
 0001:0005b230       ?to_integer_size@__crt_stdio_output@@YAIW4length_modifier@1@@Z 1005c230 f i libucrtd:output.obj
 0001:0005b2d0       ?type_case_X@?$output_processor@DV?$stream_output_adapter@D@__crt_stdio_output@@V?$format_validation_base@DV?$stream_output_adapter@D@__crt_stdio_output@@@2@@__crt_stdio_output@@AAE_NXZ 1005c2d0 f i libucrtd:output.obj
 0001:0005b2f0       ?type_case_X@?$output_processor@DV?$stream_output_adapter@D@__crt_stdio_output@@V?$positional_parameter_base@DV?$stream_output_adapter@D@__crt_stdio_output@@@2@@__crt_stdio_output@@AAE_NXZ 1005c2f0 f i libucrtd:output.obj
 0001:0005b310       ?type_case_X@?$output_processor@DV?$stream_output_adapter@D@__crt_stdio_output@@V?$standard_base@DV?$stream_output_adapter@D@__crt_stdio_output@@@2@@__crt_stdio_output@@AAE_NXZ 1005c310 f i libucrtd:output.obj
 0001:0005b330       ?type_case_X@?$output_processor@DV?$string_output_adapter@D@__crt_stdio_output@@V?$format_validation_base@DV?$string_output_adapter@D@__crt_stdio_output@@@2@@__crt_stdio_output@@AAE_NXZ 1005c330 f i libucrtd:output.obj
 0001:0005b350       ?type_case_X@?$output_processor@DV?$string_output_adapter@D@__crt_stdio_output@@V?$positional_parameter_base@DV?$string_output_adapter@D@__crt_stdio_output@@@2@@__crt_stdio_output@@AAE_NXZ 1005c350 f i libucrtd:output.obj
 0001:0005b370       ?type_case_X@?$output_processor@DV?$string_output_adapter@D@__crt_stdio_output@@V?$standard_base@DV?$string_output_adapter@D@__crt_stdio_output@@@2@@__crt_stdio_output@@AAE_NXZ 1005c370 f i libucrtd:output.obj
 0001:0005b390       ?type_case_X@?$output_processor@_WV?$stream_output_adapter@_W@__crt_stdio_output@@V?$format_validation_base@_WV?$stream_output_adapter@_W@__crt_stdio_output@@@2@@__crt_stdio_output@@AAE_NXZ 1005c390 f i libucrtd:output.obj
 0001:0005b3b0       ?type_case_X@?$output_processor@_WV?$stream_output_adapter@_W@__crt_stdio_output@@V?$positional_parameter_base@_WV?$stream_output_adapter@_W@__crt_stdio_output@@@2@@__crt_stdio_output@@AAE_NXZ 1005c3b0 f i libucrtd:output.obj
 0001:0005b3d0       ?type_case_X@?$output_processor@_WV?$stream_output_adapter@_W@__crt_stdio_output@@V?$standard_base@_WV?$stream_output_adapter@_W@__crt_stdio_output@@@2@@__crt_stdio_output@@AAE_NXZ 1005c3d0 f i libucrtd:output.obj
 0001:0005b3f0       ?type_case_X@?$output_processor@_WV?$string_output_adapter@_W@__crt_stdio_output@@V?$format_validation_base@_WV?$string_output_adapter@_W@__crt_stdio_output@@@2@@__crt_stdio_output@@AAE_NXZ 1005c3f0 f i libucrtd:output.obj
 0001:0005b410       ?type_case_X@?$output_processor@_WV?$string_output_adapter@_W@__crt_stdio_output@@V?$positional_parameter_base@_WV?$string_output_adapter@_W@__crt_stdio_output@@@2@@__crt_stdio_output@@AAE_NXZ 1005c410 f i libucrtd:output.obj
 0001:0005b430       ?type_case_X@?$output_processor@_WV?$string_output_adapter@_W@__crt_stdio_output@@V?$standard_base@_WV?$string_output_adapter@_W@__crt_stdio_output@@@2@@__crt_stdio_output@@AAE_NXZ 1005c430 f i libucrtd:output.obj
 0001:0005b450       ?type_case_Z@?$output_processor@DV?$stream_output_adapter@D@__crt_stdio_output@@V?$format_validation_base@DV?$stream_output_adapter@D@__crt_stdio_output@@@2@@__crt_stdio_output@@AAE_NXZ 1005c450 f i libucrtd:output.obj
 0001:0005b540       ?type_case_Z@?$output_processor@DV?$stream_output_adapter@D@__crt_stdio_output@@V?$positional_parameter_base@DV?$stream_output_adapter@D@__crt_stdio_output@@@2@@__crt_stdio_output@@AAE_NXZ 1005c540 f i libucrtd:output.obj
 0001:0005b630       ?type_case_Z@?$output_processor@DV?$stream_output_adapter@D@__crt_stdio_output@@V?$standard_base@DV?$stream_output_adapter@D@__crt_stdio_output@@@2@@__crt_stdio_output@@AAE_NXZ 1005c630 f i libucrtd:output.obj
 0001:0005b720       ?type_case_Z@?$output_processor@DV?$string_output_adapter@D@__crt_stdio_output@@V?$format_validation_base@DV?$string_output_adapter@D@__crt_stdio_output@@@2@@__crt_stdio_output@@AAE_NXZ 1005c720 f i libucrtd:output.obj
 0001:0005b810       ?type_case_Z@?$output_processor@DV?$string_output_adapter@D@__crt_stdio_output@@V?$positional_parameter_base@DV?$string_output_adapter@D@__crt_stdio_output@@@2@@__crt_stdio_output@@AAE_NXZ 1005c810 f i libucrtd:output.obj
 0001:0005b900       ?type_case_Z@?$output_processor@DV?$string_output_adapter@D@__crt_stdio_output@@V?$standard_base@DV?$string_output_adapter@D@__crt_stdio_output@@@2@@__crt_stdio_output@@AAE_NXZ 1005c900 f i libucrtd:output.obj
 0001:0005b9f0       ?type_case_Z@?$output_processor@_WV?$stream_output_adapter@_W@__crt_stdio_output@@V?$format_validation_base@_WV?$stream_output_adapter@_W@__crt_stdio_output@@@2@@__crt_stdio_output@@AAE_NXZ 1005c9f0 f i libucrtd:output.obj
 0001:0005bae0       ?type_case_Z@?$output_processor@_WV?$stream_output_adapter@_W@__crt_stdio_output@@V?$positional_parameter_base@_WV?$stream_output_adapter@_W@__crt_stdio_output@@@2@@__crt_stdio_output@@AAE_NXZ 1005cae0 f i libucrtd:output.obj
 0001:0005bbd0       ?type_case_Z@?$output_processor@_WV?$stream_output_adapter@_W@__crt_stdio_output@@V?$standard_base@_WV?$stream_output_adapter@_W@__crt_stdio_output@@@2@@__crt_stdio_output@@AAE_NXZ 1005cbd0 f i libucrtd:output.obj
 0001:0005bcc0       ?type_case_Z@?$output_processor@_WV?$string_output_adapter@_W@__crt_stdio_output@@V?$format_validation_base@_WV?$string_output_adapter@_W@__crt_stdio_output@@@2@@__crt_stdio_output@@AAE_NXZ 1005ccc0 f i libucrtd:output.obj
 0001:0005bdb0       ?type_case_Z@?$output_processor@_WV?$string_output_adapter@_W@__crt_stdio_output@@V?$positional_parameter_base@_WV?$string_output_adapter@_W@__crt_stdio_output@@@2@@__crt_stdio_output@@AAE_NXZ 1005cdb0 f i libucrtd:output.obj
 0001:0005bea0       ?type_case_Z@?$output_processor@_WV?$string_output_adapter@_W@__crt_stdio_output@@V?$standard_base@_WV?$string_output_adapter@_W@__crt_stdio_output@@@2@@__crt_stdio_output@@AAE_NXZ 1005cea0 f i libucrtd:output.obj
 0001:0005bf90       ?type_case_a@?$output_processor@DV?$stream_output_adapter@D@__crt_stdio_output@@V?$format_validation_base@DV?$stream_output_adapter@D@__crt_stdio_output@@@2@@__crt_stdio_output@@AAE_NXZ 1005cf90 f i libucrtd:output.obj
 0001:0005c200       ?type_case_a@?$output_processor@DV?$stream_output_adapter@D@__crt_stdio_output@@V?$positional_parameter_base@DV?$stream_output_adapter@D@__crt_stdio_output@@@2@@__crt_stdio_output@@AAE_NXZ 1005d200 f i libucrtd:output.obj
 0001:0005c470       ?type_case_a@?$output_processor@DV?$stream_output_adapter@D@__crt_stdio_output@@V?$standard_base@DV?$stream_output_adapter@D@__crt_stdio_output@@@2@@__crt_stdio_output@@AAE_NXZ 1005d470 f i libucrtd:output.obj
 0001:0005c6e0       ?type_case_a@?$output_processor@DV?$string_output_adapter@D@__crt_stdio_output@@V?$format_validation_base@DV?$string_output_adapter@D@__crt_stdio_output@@@2@@__crt_stdio_output@@AAE_NXZ 1005d6e0 f i libucrtd:output.obj
 0001:0005c950       ?type_case_a@?$output_processor@DV?$string_output_adapter@D@__crt_stdio_output@@V?$positional_parameter_base@DV?$string_output_adapter@D@__crt_stdio_output@@@2@@__crt_stdio_output@@AAE_NXZ 1005d950 f i libucrtd:output.obj
 0001:0005cbc0       ?type_case_a@?$output_processor@DV?$string_output_adapter@D@__crt_stdio_output@@V?$standard_base@DV?$string_output_adapter@D@__crt_stdio_output@@@2@@__crt_stdio_output@@AAE_NXZ 1005dbc0 f i libucrtd:output.obj
 0001:0005ce30       ?type_case_a@?$output_processor@_WV?$stream_output_adapter@_W@__crt_stdio_output@@V?$format_validation_base@_WV?$stream_output_adapter@_W@__crt_stdio_output@@@2@@__crt_stdio_output@@AAE_NXZ 1005de30 f i libucrtd:output.obj
 0001:0005d0a0       ?type_case_a@?$output_processor@_WV?$stream_output_adapter@_W@__crt_stdio_output@@V?$positional_parameter_base@_WV?$stream_output_adapter@_W@__crt_stdio_output@@@2@@__crt_stdio_output@@AAE_NXZ 1005e0a0 f i libucrtd:output.obj
 0001:0005d310       ?type_case_a@?$output_processor@_WV?$stream_output_adapter@_W@__crt_stdio_output@@V?$standard_base@_WV?$stream_output_adapter@_W@__crt_stdio_output@@@2@@__crt_stdio_output@@AAE_NXZ 1005e310 f i libucrtd:output.obj
 0001:0005d580       ?type_case_a@?$output_processor@_WV?$string_output_adapter@_W@__crt_stdio_output@@V?$format_validation_base@_WV?$string_output_adapter@_W@__crt_stdio_output@@@2@@__crt_stdio_output@@AAE_NXZ 1005e580 f i libucrtd:output.obj
 0001:0005d7f0       ?type_case_a@?$output_processor@_WV?$string_output_adapter@_W@__crt_stdio_output@@V?$positional_parameter_base@_WV?$string_output_adapter@_W@__crt_stdio_output@@@2@@__crt_stdio_output@@AAE_NXZ 1005e7f0 f i libucrtd:output.obj
 0001:0005da60       ?type_case_a@?$output_processor@_WV?$string_output_adapter@_W@__crt_stdio_output@@V?$standard_base@_WV?$string_output_adapter@_W@__crt_stdio_output@@@2@@__crt_stdio_output@@AAE_NXZ 1005ea60 f i libucrtd:output.obj
 0001:0005dcd0       ?type_case_c@?$output_processor@DV?$stream_output_adapter@D@__crt_stdio_output@@V?$format_validation_base@DV?$stream_output_adapter@D@__crt_stdio_output@@@2@@__crt_stdio_output@@AAE_NXZ 1005ecd0 f i libucrtd:output.obj
 0001:0005dcf0       ?type_case_c@?$output_processor@DV?$stream_output_adapter@D@__crt_stdio_output@@V?$positional_parameter_base@DV?$stream_output_adapter@D@__crt_stdio_output@@@2@@__crt_stdio_output@@AAE_NXZ 1005ecf0 f i libucrtd:output.obj
 0001:0005dd10       ?type_case_c@?$output_processor@DV?$stream_output_adapter@D@__crt_stdio_output@@V?$standard_base@DV?$stream_output_adapter@D@__crt_stdio_output@@@2@@__crt_stdio_output@@AAE_NXZ 1005ed10 f i libucrtd:output.obj
 0001:0005dd30       ?type_case_c@?$output_processor@DV?$string_output_adapter@D@__crt_stdio_output@@V?$format_validation_base@DV?$string_output_adapter@D@__crt_stdio_output@@@2@@__crt_stdio_output@@AAE_NXZ 1005ed30 f i libucrtd:output.obj
 0001:0005dd50       ?type_case_c@?$output_processor@DV?$string_output_adapter@D@__crt_stdio_output@@V?$positional_parameter_base@DV?$string_output_adapter@D@__crt_stdio_output@@@2@@__crt_stdio_output@@AAE_NXZ 1005ed50 f i libucrtd:output.obj
 0001:0005dd70       ?type_case_c@?$output_processor@DV?$string_output_adapter@D@__crt_stdio_output@@V?$standard_base@DV?$string_output_adapter@D@__crt_stdio_output@@@2@@__crt_stdio_output@@AAE_NXZ 1005ed70 f i libucrtd:output.obj
 0001:0005dd90       ?type_case_c@?$output_processor@_WV?$stream_output_adapter@_W@__crt_stdio_output@@V?$format_validation_base@_WV?$stream_output_adapter@_W@__crt_stdio_output@@@2@@__crt_stdio_output@@AAE_NXZ 1005ed90 f i libucrtd:output.obj
 0001:0005ddb0       ?type_case_c@?$output_processor@_WV?$stream_output_adapter@_W@__crt_stdio_output@@V?$positional_parameter_base@_WV?$stream_output_adapter@_W@__crt_stdio_output@@@2@@__crt_stdio_output@@AAE_NXZ 1005edb0 f i libucrtd:output.obj
 0001:0005ddd0       ?type_case_c@?$output_processor@_WV?$stream_output_adapter@_W@__crt_stdio_output@@V?$standard_base@_WV?$stream_output_adapter@_W@__crt_stdio_output@@@2@@__crt_stdio_output@@AAE_NXZ 1005edd0 f i libucrtd:output.obj
 0001:0005ddf0       ?type_case_c@?$output_processor@_WV?$string_output_adapter@_W@__crt_stdio_output@@V?$format_validation_base@_WV?$string_output_adapter@_W@__crt_stdio_output@@@2@@__crt_stdio_output@@AAE_NXZ 1005edf0 f i libucrtd:output.obj
 0001:0005de10       ?type_case_c@?$output_processor@_WV?$string_output_adapter@_W@__crt_stdio_output@@V?$positional_parameter_base@_WV?$string_output_adapter@_W@__crt_stdio_output@@@2@@__crt_stdio_output@@AAE_NXZ 1005ee10 f i libucrtd:output.obj
 0001:0005de30       ?type_case_c@?$output_processor@_WV?$string_output_adapter@_W@__crt_stdio_output@@V?$standard_base@_WV?$string_output_adapter@_W@__crt_stdio_output@@@2@@__crt_stdio_output@@AAE_NXZ 1005ee30 f i libucrtd:output.obj
 0001:0005de50       ?type_case_c_tchar@?$output_processor@DV?$stream_output_adapter@D@__crt_stdio_output@@V?$format_validation_base@DV?$stream_output_adapter@D@__crt_stdio_output@@@2@@__crt_stdio_output@@AAE_ND@Z 1005ee50 f i libucrtd:output.obj
 0001:0005df60       ?type_case_c_tchar@?$output_processor@DV?$stream_output_adapter@D@__crt_stdio_output@@V?$positional_parameter_base@DV?$stream_output_adapter@D@__crt_stdio_output@@@2@@__crt_stdio_output@@AAE_ND@Z 1005ef60 f i libucrtd:output.obj
 0001:0005e070       ?type_case_c_tchar@?$output_processor@DV?$stream_output_adapter@D@__crt_stdio_output@@V?$standard_base@DV?$stream_output_adapter@D@__crt_stdio_output@@@2@@__crt_stdio_output@@AAE_ND@Z 1005f070 f i libucrtd:output.obj
 0001:0005e180       ?type_case_c_tchar@?$output_processor@DV?$string_output_adapter@D@__crt_stdio_output@@V?$format_validation_base@DV?$string_output_adapter@D@__crt_stdio_output@@@2@@__crt_stdio_output@@AAE_ND@Z 1005f180 f i libucrtd:output.obj
 0001:0005e290       ?type_case_c_tchar@?$output_processor@DV?$string_output_adapter@D@__crt_stdio_output@@V?$positional_parameter_base@DV?$string_output_adapter@D@__crt_stdio_output@@@2@@__crt_stdio_output@@AAE_ND@Z 1005f290 f i libucrtd:output.obj
 0001:0005e3a0       ?type_case_c_tchar@?$output_processor@DV?$string_output_adapter@D@__crt_stdio_output@@V?$standard_base@DV?$string_output_adapter@D@__crt_stdio_output@@@2@@__crt_stdio_output@@AAE_ND@Z 1005f3a0 f i libucrtd:output.obj
 0001:0005e4b0       ?type_case_c_tchar@?$output_processor@_WV?$stream_output_adapter@_W@__crt_stdio_output@@V?$format_validation_base@_WV?$stream_output_adapter@_W@__crt_stdio_output@@@2@@__crt_stdio_output@@AAE_N_W@Z 1005f4b0 f i libucrtd:output.obj
 0001:0005e5b0       ?type_case_c_tchar@?$output_processor@_WV?$stream_output_adapter@_W@__crt_stdio_output@@V?$positional_parameter_base@_WV?$stream_output_adapter@_W@__crt_stdio_output@@@2@@__crt_stdio_output@@AAE_N_W@Z 1005f5b0 f i libucrtd:output.obj
 0001:0005e6b0       ?type_case_c_tchar@?$output_processor@_WV?$stream_output_adapter@_W@__crt_stdio_output@@V?$standard_base@_WV?$stream_output_adapter@_W@__crt_stdio_output@@@2@@__crt_stdio_output@@AAE_N_W@Z 1005f6b0 f i libucrtd:output.obj
 0001:0005e7b0       ?type_case_c_tchar@?$output_processor@_WV?$string_output_adapter@_W@__crt_stdio_output@@V?$format_validation_base@_WV?$string_output_adapter@_W@__crt_stdio_output@@@2@@__crt_stdio_output@@AAE_N_W@Z 1005f7b0 f i libucrtd:output.obj
 0001:0005e8b0       ?type_case_c_tchar@?$output_processor@_WV?$string_output_adapter@_W@__crt_stdio_output@@V?$positional_parameter_base@_WV?$string_output_adapter@_W@__crt_stdio_output@@@2@@__crt_stdio_output@@AAE_N_W@Z 1005f8b0 f i libucrtd:output.obj
 0001:0005e9b0       ?type_case_c_tchar@?$output_processor@_WV?$string_output_adapter@_W@__crt_stdio_output@@V?$standard_base@_WV?$string_output_adapter@_W@__crt_stdio_output@@@2@@__crt_stdio_output@@AAE_N_W@Z 1005f9b0 f i libucrtd:output.obj
 0001:0005eab0       ?type_case_d@?$output_processor@DV?$stream_output_adapter@D@__crt_stdio_output@@V?$format_validation_base@DV?$stream_output_adapter@D@__crt_stdio_output@@@2@@__crt_stdio_output@@AAE_NXZ 1005fab0 f i libucrtd:output.obj
 0001:0005eae0       ?type_case_d@?$output_processor@DV?$stream_output_adapter@D@__crt_stdio_output@@V?$positional_parameter_base@DV?$stream_output_adapter@D@__crt_stdio_output@@@2@@__crt_stdio_output@@AAE_NXZ 1005fae0 f i libucrtd:output.obj
 0001:0005eb10       ?type_case_d@?$output_processor@DV?$stream_output_adapter@D@__crt_stdio_output@@V?$standard_base@DV?$stream_output_adapter@D@__crt_stdio_output@@@2@@__crt_stdio_output@@AAE_NXZ 1005fb10 f i libucrtd:output.obj
 0001:0005eb40       ?type_case_d@?$output_processor@DV?$string_output_adapter@D@__crt_stdio_output@@V?$format_validation_base@DV?$string_output_adapter@D@__crt_stdio_output@@@2@@__crt_stdio_output@@AAE_NXZ 1005fb40 f i libucrtd:output.obj
 0001:0005eb70       ?type_case_d@?$output_processor@DV?$string_output_adapter@D@__crt_stdio_output@@V?$positional_parameter_base@DV?$string_output_adapter@D@__crt_stdio_output@@@2@@__crt_stdio_output@@AAE_NXZ 1005fb70 f i libucrtd:output.obj
 0001:0005eba0       ?type_case_d@?$output_processor@DV?$string_output_adapter@D@__crt_stdio_output@@V?$standard_base@DV?$string_output_adapter@D@__crt_stdio_output@@@2@@__crt_stdio_output@@AAE_NXZ 1005fba0 f i libucrtd:output.obj
 0001:0005ebd0       ?type_case_d@?$output_processor@_WV?$stream_output_adapter@_W@__crt_stdio_output@@V?$format_validation_base@_WV?$stream_output_adapter@_W@__crt_stdio_output@@@2@@__crt_stdio_output@@AAE_NXZ 1005fbd0 f i libucrtd:output.obj
 0001:0005ec00       ?type_case_d@?$output_processor@_WV?$stream_output_adapter@_W@__crt_stdio_output@@V?$positional_parameter_base@_WV?$stream_output_adapter@_W@__crt_stdio_output@@@2@@__crt_stdio_output@@AAE_NXZ 1005fc00 f i libucrtd:output.obj
 0001:0005ec30       ?type_case_d@?$output_processor@_WV?$stream_output_adapter@_W@__crt_stdio_output@@V?$standard_base@_WV?$stream_output_adapter@_W@__crt_stdio_output@@@2@@__crt_stdio_output@@AAE_NXZ 1005fc30 f i libucrtd:output.obj
 0001:0005ec60       ?type_case_d@?$output_processor@_WV?$string_output_adapter@_W@__crt_stdio_output@@V?$format_validation_base@_WV?$string_output_adapter@_W@__crt_stdio_output@@@2@@__crt_stdio_output@@AAE_NXZ 1005fc60 f i libucrtd:output.obj
 0001:0005ec90       ?type_case_d@?$output_processor@_WV?$string_output_adapter@_W@__crt_stdio_output@@V?$positional_parameter_base@_WV?$string_output_adapter@_W@__crt_stdio_output@@@2@@__crt_stdio_output@@AAE_NXZ 1005fc90 f i libucrtd:output.obj
 0001:0005ecc0       ?type_case_d@?$output_processor@_WV?$string_output_adapter@_W@__crt_stdio_output@@V?$standard_base@_WV?$string_output_adapter@_W@__crt_stdio_output@@@2@@__crt_stdio_output@@AAE_NXZ 1005fcc0 f i libucrtd:output.obj
 0001:0005ecf0       ?type_case_integer@?$output_processor@DV?$stream_output_adapter@D@__crt_stdio_output@@V?$format_validation_base@DV?$stream_output_adapter@D@__crt_stdio_output@@@2@@__crt_stdio_output@@AAE_NI_N@Z 1005fcf0 f i libucrtd:output.obj
 0001:0005f040       ?type_case_integer@?$output_processor@DV?$stream_output_adapter@D@__crt_stdio_output@@V?$positional_parameter_base@DV?$stream_output_adapter@D@__crt_stdio_output@@@2@@__crt_stdio_output@@AAE_NI_N@Z 10060040 f i libucrtd:output.obj
 0001:0005f390       ?type_case_integer@?$output_processor@DV?$stream_output_adapter@D@__crt_stdio_output@@V?$standard_base@DV?$stream_output_adapter@D@__crt_stdio_output@@@2@@__crt_stdio_output@@AAE_NI_N@Z 10060390 f i libucrtd:output.obj
 0001:0005f6e0       ?type_case_integer@?$output_processor@DV?$string_output_adapter@D@__crt_stdio_output@@V?$format_validation_base@DV?$string_output_adapter@D@__crt_stdio_output@@@2@@__crt_stdio_output@@AAE_NI_N@Z 100606e0 f i libucrtd:output.obj
 0001:0005fa30       ?type_case_integer@?$output_processor@DV?$string_output_adapter@D@__crt_stdio_output@@V?$positional_parameter_base@DV?$string_output_adapter@D@__crt_stdio_output@@@2@@__crt_stdio_output@@AAE_NI_N@Z 10060a30 f i libucrtd:output.obj
 0001:0005fd80       ?type_case_integer@?$output_processor@DV?$string_output_adapter@D@__crt_stdio_output@@V?$standard_base@DV?$string_output_adapter@D@__crt_stdio_output@@@2@@__crt_stdio_output@@AAE_NI_N@Z 10060d80 f i libucrtd:output.obj
 0001:000600d0       ?type_case_integer@?$output_processor@_WV?$stream_output_adapter@_W@__crt_stdio_output@@V?$format_validation_base@_WV?$stream_output_adapter@_W@__crt_stdio_output@@@2@@__crt_stdio_output@@AAE_NI_N@Z 100610d0 f i libucrtd:output.obj
 0001:00060420       ?type_case_integer@?$output_processor@_WV?$stream_output_adapter@_W@__crt_stdio_output@@V?$positional_parameter_base@_WV?$stream_output_adapter@_W@__crt_stdio_output@@@2@@__crt_stdio_output@@AAE_NI_N@Z 10061420 f i libucrtd:output.obj
 0001:00060770       ?type_case_integer@?$output_processor@_WV?$stream_output_adapter@_W@__crt_stdio_output@@V?$standard_base@_WV?$stream_output_adapter@_W@__crt_stdio_output@@@2@@__crt_stdio_output@@AAE_NI_N@Z 10061770 f i libucrtd:output.obj
 0001:00060ac0       ?type_case_integer@?$output_processor@_WV?$string_output_adapter@_W@__crt_stdio_output@@V?$format_validation_base@_WV?$string_output_adapter@_W@__crt_stdio_output@@@2@@__crt_stdio_output@@AAE_NI_N@Z 10061ac0 f i libucrtd:output.obj
 0001:00060e10       ?type_case_integer@?$output_processor@_WV?$string_output_adapter@_W@__crt_stdio_output@@V?$positional_parameter_base@_WV?$string_output_adapter@_W@__crt_stdio_output@@@2@@__crt_stdio_output@@AAE_NI_N@Z 10061e10 f i libucrtd:output.obj
 0001:00061160       ?type_case_integer@?$output_processor@_WV?$string_output_adapter@_W@__crt_stdio_output@@V?$standard_base@_WV?$string_output_adapter@_W@__crt_stdio_output@@@2@@__crt_stdio_output@@AAE_NI_N@Z 10062160 f i libucrtd:output.obj
 0001:000614b0       ?type_case_n@?$output_processor@DV?$stream_output_adapter@D@__crt_stdio_output@@V?$format_validation_base@DV?$stream_output_adapter@D@__crt_stdio_output@@@2@@__crt_stdio_output@@AAE_NXZ 100624b0 f i libucrtd:output.obj
 0001:000616a0       ?type_case_n@?$output_processor@DV?$stream_output_adapter@D@__crt_stdio_output@@V?$positional_parameter_base@DV?$stream_output_adapter@D@__crt_stdio_output@@@2@@__crt_stdio_output@@AAE_NXZ 100626a0 f i libucrtd:output.obj
 0001:00061890       ?type_case_n@?$output_processor@DV?$stream_output_adapter@D@__crt_stdio_output@@V?$standard_base@DV?$stream_output_adapter@D@__crt_stdio_output@@@2@@__crt_stdio_output@@AAE_NXZ 10062890 f i libucrtd:output.obj
 0001:00061a80       ?type_case_n@?$output_processor@DV?$string_output_adapter@D@__crt_stdio_output@@V?$format_validation_base@DV?$string_output_adapter@D@__crt_stdio_output@@@2@@__crt_stdio_output@@AAE_NXZ 10062a80 f i libucrtd:output.obj
 0001:00061c70       ?type_case_n@?$output_processor@DV?$string_output_adapter@D@__crt_stdio_output@@V?$positional_parameter_base@DV?$string_output_adapter@D@__crt_stdio_output@@@2@@__crt_stdio_output@@AAE_NXZ 10062c70 f i libucrtd:output.obj
 0001:00061e60       ?type_case_n@?$output_processor@DV?$string_output_adapter@D@__crt_stdio_output@@V?$standard_base@DV?$string_output_adapter@D@__crt_stdio_output@@@2@@__crt_stdio_output@@AAE_NXZ 10062e60 f i libucrtd:output.obj
 0001:00062050       ?type_case_n@?$output_processor@_WV?$stream_output_adapter@_W@__crt_stdio_output@@V?$format_validation_base@_WV?$stream_output_adapter@_W@__crt_stdio_output@@@2@@__crt_stdio_output@@AAE_NXZ 10063050 f i libucrtd:output.obj
 0001:00062240       ?type_case_n@?$output_processor@_WV?$stream_output_adapter@_W@__crt_stdio_output@@V?$positional_parameter_base@_WV?$stream_output_adapter@_W@__crt_stdio_output@@@2@@__crt_stdio_output@@AAE_NXZ 10063240 f i libucrtd:output.obj
 0001:00062430       ?type_case_n@?$output_processor@_WV?$stream_output_adapter@_W@__crt_stdio_output@@V?$standard_base@_WV?$stream_output_adapter@_W@__crt_stdio_output@@@2@@__crt_stdio_output@@AAE_NXZ 10063430 f i libucrtd:output.obj
 0001:00062620       ?type_case_n@?$output_processor@_WV?$string_output_adapter@_W@__crt_stdio_output@@V?$format_validation_base@_WV?$string_output_adapter@_W@__crt_stdio_output@@@2@@__crt_stdio_output@@AAE_NXZ 10063620 f i libucrtd:output.obj
 0001:00062810       ?type_case_n@?$output_processor@_WV?$string_output_adapter@_W@__crt_stdio_output@@V?$positional_parameter_base@_WV?$string_output_adapter@_W@__crt_stdio_output@@@2@@__crt_stdio_output@@AAE_NXZ 10063810 f i libucrtd:output.obj
 0001:00062a00       ?type_case_n@?$output_processor@_WV?$string_output_adapter@_W@__crt_stdio_output@@V?$standard_base@_WV?$string_output_adapter@_W@__crt_stdio_output@@@2@@__crt_stdio_output@@AAE_NXZ 10063a00 f i libucrtd:output.obj
 0001:00062bf0       ?type_case_o@?$output_processor@DV?$stream_output_adapter@D@__crt_stdio_output@@V?$format_validation_base@DV?$stream_output_adapter@D@__crt_stdio_output@@@2@@__crt_stdio_output@@AAE_NXZ 10063bf0 f i libucrtd:output.obj
 0001:00062c30       ?type_case_o@?$output_processor@DV?$stream_output_adapter@D@__crt_stdio_output@@V?$positional_parameter_base@DV?$stream_output_adapter@D@__crt_stdio_output@@@2@@__crt_stdio_output@@AAE_NXZ 10063c30 f i libucrtd:output.obj
 0001:00062c70       ?type_case_o@?$output_processor@DV?$stream_output_adapter@D@__crt_stdio_output@@V?$standard_base@DV?$stream_output_adapter@D@__crt_stdio_output@@@2@@__crt_stdio_output@@AAE_NXZ 10063c70 f i libucrtd:output.obj
 0001:00062cb0       ?type_case_o@?$output_processor@DV?$string_output_adapter@D@__crt_stdio_output@@V?$format_validation_base@DV?$string_output_adapter@D@__crt_stdio_output@@@2@@__crt_stdio_output@@AAE_NXZ 10063cb0 f i libucrtd:output.obj
 0001:00062cf0       ?type_case_o@?$output_processor@DV?$string_output_adapter@D@__crt_stdio_output@@V?$positional_parameter_base@DV?$string_output_adapter@D@__crt_stdio_output@@@2@@__crt_stdio_output@@AAE_NXZ 10063cf0 f i libucrtd:output.obj
 0001:00062d30       ?type_case_o@?$output_processor@DV?$string_output_adapter@D@__crt_stdio_output@@V?$standard_base@DV?$string_output_adapter@D@__crt_stdio_output@@@2@@__crt_stdio_output@@AAE_NXZ 10063d30 f i libucrtd:output.obj
 0001:00062d70       ?type_case_o@?$output_processor@_WV?$stream_output_adapter@_W@__crt_stdio_output@@V?$format_validation_base@_WV?$stream_output_adapter@_W@__crt_stdio_output@@@2@@__crt_stdio_output@@AAE_NXZ 10063d70 f i libucrtd:output.obj
 0001:00062db0       ?type_case_o@?$output_processor@_WV?$stream_output_adapter@_W@__crt_stdio_output@@V?$positional_parameter_base@_WV?$stream_output_adapter@_W@__crt_stdio_output@@@2@@__crt_stdio_output@@AAE_NXZ 10063db0 f i libucrtd:output.obj
 0001:00062df0       ?type_case_o@?$output_processor@_WV?$stream_output_adapter@_W@__crt_stdio_output@@V?$standard_base@_WV?$stream_output_adapter@_W@__crt_stdio_output@@@2@@__crt_stdio_output@@AAE_NXZ 10063df0 f i libucrtd:output.obj
 0001:00062e30       ?type_case_o@?$output_processor@_WV?$string_output_adapter@_W@__crt_stdio_output@@V?$format_validation_base@_WV?$string_output_adapter@_W@__crt_stdio_output@@@2@@__crt_stdio_output@@AAE_NXZ 10063e30 f i libucrtd:output.obj
 0001:00062e70       ?type_case_o@?$output_processor@_WV?$string_output_adapter@_W@__crt_stdio_output@@V?$positional_parameter_base@_WV?$string_output_adapter@_W@__crt_stdio_output@@@2@@__crt_stdio_output@@AAE_NXZ 10063e70 f i libucrtd:output.obj
 0001:00062eb0       ?type_case_o@?$output_processor@_WV?$string_output_adapter@_W@__crt_stdio_output@@V?$standard_base@_WV?$string_output_adapter@_W@__crt_stdio_output@@@2@@__crt_stdio_output@@AAE_NXZ 10063eb0 f i libucrtd:output.obj
 0001:00062ef0       ?type_case_p@?$output_processor@DV?$stream_output_adapter@D@__crt_stdio_output@@V?$format_validation_base@DV?$stream_output_adapter@D@__crt_stdio_output@@@2@@__crt_stdio_output@@AAE_NXZ 10063ef0 f i libucrtd:output.obj
 0001:00062f20       ?type_case_p@?$output_processor@DV?$stream_output_adapter@D@__crt_stdio_output@@V?$positional_parameter_base@DV?$stream_output_adapter@D@__crt_stdio_output@@@2@@__crt_stdio_output@@AAE_NXZ 10063f20 f i libucrtd:output.obj
 0001:00062f50       ?type_case_p@?$output_processor@DV?$stream_output_adapter@D@__crt_stdio_output@@V?$standard_base@DV?$stream_output_adapter@D@__crt_stdio_output@@@2@@__crt_stdio_output@@AAE_NXZ 10063f50 f i libucrtd:output.obj
 0001:00062f80       ?type_case_p@?$output_processor@DV?$string_output_adapter@D@__crt_stdio_output@@V?$format_validation_base@DV?$string_output_adapter@D@__crt_stdio_output@@@2@@__crt_stdio_output@@AAE_NXZ 10063f80 f i libucrtd:output.obj
 0001:00062fb0       ?type_case_p@?$output_processor@DV?$string_output_adapter@D@__crt_stdio_output@@V?$positional_parameter_base@DV?$string_output_adapter@D@__crt_stdio_output@@@2@@__crt_stdio_output@@AAE_NXZ 10063fb0 f i libucrtd:output.obj
 0001:00062fe0       ?type_case_p@?$output_processor@DV?$string_output_adapter@D@__crt_stdio_output@@V?$standard_base@DV?$string_output_adapter@D@__crt_stdio_output@@@2@@__crt_stdio_output@@AAE_NXZ 10063fe0 f i libucrtd:output.obj
 0001:00063010       ?type_case_p@?$output_processor@_WV?$stream_output_adapter@_W@__crt_stdio_output@@V?$format_validation_base@_WV?$stream_output_adapter@_W@__crt_stdio_output@@@2@@__crt_stdio_output@@AAE_NXZ 10064010 f i libucrtd:output.obj
 0001:00063040       ?type_case_p@?$output_processor@_WV?$stream_output_adapter@_W@__crt_stdio_output@@V?$positional_parameter_base@_WV?$stream_output_adapter@_W@__crt_stdio_output@@@2@@__crt_stdio_output@@AAE_NXZ 10064040 f i libucrtd:output.obj
 0001:00063070       ?type_case_p@?$output_processor@_WV?$stream_output_adapter@_W@__crt_stdio_output@@V?$standard_base@_WV?$stream_output_adapter@_W@__crt_stdio_output@@@2@@__crt_stdio_output@@AAE_NXZ 10064070 f i libucrtd:output.obj
 0001:000630a0       ?type_case_p@?$output_processor@_WV?$string_output_adapter@_W@__crt_stdio_output@@V?$format_validation_base@_WV?$string_output_adapter@_W@__crt_stdio_output@@@2@@__crt_stdio_output@@AAE_NXZ 100640a0 f i libucrtd:output.obj
 0001:000630d0       ?type_case_p@?$output_processor@_WV?$string_output_adapter@_W@__crt_stdio_output@@V?$positional_parameter_base@_WV?$string_output_adapter@_W@__crt_stdio_output@@@2@@__crt_stdio_output@@AAE_NXZ 100640d0 f i libucrtd:output.obj
 0001:00063100       ?type_case_p@?$output_processor@_WV?$string_output_adapter@_W@__crt_stdio_output@@V?$standard_base@_WV?$string_output_adapter@_W@__crt_stdio_output@@@2@@__crt_stdio_output@@AAE_NXZ 10064100 f i libucrtd:output.obj
 0001:00063130       ?type_case_s@?$output_processor@DV?$stream_output_adapter@D@__crt_stdio_output@@V?$format_validation_base@DV?$stream_output_adapter@D@__crt_stdio_output@@@2@@__crt_stdio_output@@AAE_NXZ 10064130 f i libucrtd:output.obj
 0001:00063220       ?type_case_s@?$output_processor@DV?$stream_output_adapter@D@__crt_stdio_output@@V?$positional_parameter_base@DV?$stream_output_adapter@D@__crt_stdio_output@@@2@@__crt_stdio_output@@AAE_NXZ 10064220 f i libucrtd:output.obj
 0001:00063310       ?type_case_s@?$output_processor@DV?$stream_output_adapter@D@__crt_stdio_output@@V?$standard_base@DV?$stream_output_adapter@D@__crt_stdio_output@@@2@@__crt_stdio_output@@AAE_NXZ 10064310 f i libucrtd:output.obj
 0001:00063400       ?type_case_s@?$output_processor@DV?$string_output_adapter@D@__crt_stdio_output@@V?$format_validation_base@DV?$string_output_adapter@D@__crt_stdio_output@@@2@@__crt_stdio_output@@AAE_NXZ 10064400 f i libucrtd:output.obj
 0001:000634f0       ?type_case_s@?$output_processor@DV?$string_output_adapter@D@__crt_stdio_output@@V?$positional_parameter_base@DV?$string_output_adapter@D@__crt_stdio_output@@@2@@__crt_stdio_output@@AAE_NXZ 100644f0 f i libucrtd:output.obj
 0001:000635e0       ?type_case_s@?$output_processor@DV?$string_output_adapter@D@__crt_stdio_output@@V?$standard_base@DV?$string_output_adapter@D@__crt_stdio_output@@@2@@__crt_stdio_output@@AAE_NXZ 100645e0 f i libucrtd:output.obj
 0001:000636d0       ?type_case_s@?$output_processor@_WV?$stream_output_adapter@_W@__crt_stdio_output@@V?$format_validation_base@_WV?$stream_output_adapter@_W@__crt_stdio_output@@@2@@__crt_stdio_output@@AAE_NXZ 100646d0 f i libucrtd:output.obj
 0001:000637c0       ?type_case_s@?$output_processor@_WV?$stream_output_adapter@_W@__crt_stdio_output@@V?$positional_parameter_base@_WV?$stream_output_adapter@_W@__crt_stdio_output@@@2@@__crt_stdio_output@@AAE_NXZ 100647c0 f i libucrtd:output.obj
 0001:000638b0       ?type_case_s@?$output_processor@_WV?$stream_output_adapter@_W@__crt_stdio_output@@V?$standard_base@_WV?$stream_output_adapter@_W@__crt_stdio_output@@@2@@__crt_stdio_output@@AAE_NXZ 100648b0 f i libucrtd:output.obj
 0001:000639a0       ?type_case_s@?$output_processor@_WV?$string_output_adapter@_W@__crt_stdio_output@@V?$format_validation_base@_WV?$string_output_adapter@_W@__crt_stdio_output@@@2@@__crt_stdio_output@@AAE_NXZ 100649a0 f i libucrtd:output.obj
 0001:00063a90       ?type_case_s@?$output_processor@_WV?$string_output_adapter@_W@__crt_stdio_output@@V?$positional_parameter_base@_WV?$string_output_adapter@_W@__crt_stdio_output@@@2@@__crt_stdio_output@@AAE_NXZ 10064a90 f i libucrtd:output.obj
 0001:00063b80       ?type_case_s@?$output_processor@_WV?$string_output_adapter@_W@__crt_stdio_output@@V?$standard_base@_WV?$string_output_adapter@_W@__crt_stdio_output@@@2@@__crt_stdio_output@@AAE_NXZ 10064b80 f i libucrtd:output.obj
 0001:00063c70       ?type_case_s_compute_narrow_string_length@?$output_processor@DV?$stream_output_adapter@D@__crt_stdio_output@@V?$format_validation_base@DV?$stream_output_adapter@D@__crt_stdio_output@@@2@@__crt_stdio_output@@ABEHHD@Z 10064c70 f i libucrtd:output.obj
 0001:00063ca0       ?type_case_s_compute_narrow_string_length@?$output_processor@DV?$stream_output_adapter@D@__crt_stdio_output@@V?$positional_parameter_base@DV?$stream_output_adapter@D@__crt_stdio_output@@@2@@__crt_stdio_output@@ABEHHD@Z 10064ca0 f i libucrtd:output.obj
 0001:00063cd0       ?type_case_s_compute_narrow_string_length@?$output_processor@DV?$stream_output_adapter@D@__crt_stdio_output@@V?$standard_base@DV?$stream_output_adapter@D@__crt_stdio_output@@@2@@__crt_stdio_output@@ABEHHD@Z 10064cd0 f i libucrtd:output.obj
 0001:00063d00       ?type_case_s_compute_narrow_string_length@?$output_processor@DV?$string_output_adapter@D@__crt_stdio_output@@V?$format_validation_base@DV?$string_output_adapter@D@__crt_stdio_output@@@2@@__crt_stdio_output@@ABEHHD@Z 10064d00 f i libucrtd:output.obj
 0001:00063d30       ?type_case_s_compute_narrow_string_length@?$output_processor@DV?$string_output_adapter@D@__crt_stdio_output@@V?$positional_parameter_base@DV?$string_output_adapter@D@__crt_stdio_output@@@2@@__crt_stdio_output@@ABEHHD@Z 10064d30 f i libucrtd:output.obj
 0001:00063d60       ?type_case_s_compute_narrow_string_length@?$output_processor@DV?$string_output_adapter@D@__crt_stdio_output@@V?$standard_base@DV?$string_output_adapter@D@__crt_stdio_output@@@2@@__crt_stdio_output@@ABEHHD@Z 10064d60 f i libucrtd:output.obj
 0001:00063d90       ?type_case_s_compute_narrow_string_length@?$output_processor@_WV?$stream_output_adapter@_W@__crt_stdio_output@@V?$format_validation_base@_WV?$stream_output_adapter@_W@__crt_stdio_output@@@2@@__crt_stdio_output@@ABEHH_W@Z 10064d90 f i libucrtd:output.obj
 0001:00063e00       ?type_case_s_compute_narrow_string_length@?$output_processor@_WV?$stream_output_adapter@_W@__crt_stdio_output@@V?$positional_parameter_base@_WV?$stream_output_adapter@_W@__crt_stdio_output@@@2@@__crt_stdio_output@@ABEHH_W@Z 10064e00 f i libucrtd:output.obj
 0001:00063e70       ?type_case_s_compute_narrow_string_length@?$output_processor@_WV?$stream_output_adapter@_W@__crt_stdio_output@@V?$standard_base@_WV?$stream_output_adapter@_W@__crt_stdio_output@@@2@@__crt_stdio_output@@ABEHH_W@Z 10064e70 f i libucrtd:output.obj
 0001:00063ee0       ?type_case_s_compute_narrow_string_length@?$output_processor@_WV?$string_output_adapter@_W@__crt_stdio_output@@V?$format_validation_base@_WV?$string_output_adapter@_W@__crt_stdio_output@@@2@@__crt_stdio_output@@ABEHH_W@Z 10064ee0 f i libucrtd:output.obj
 0001:00063f50       ?type_case_s_compute_narrow_string_length@?$output_processor@_WV?$string_output_adapter@_W@__crt_stdio_output@@V?$positional_parameter_base@_WV?$string_output_adapter@_W@__crt_stdio_output@@@2@@__crt_stdio_output@@ABEHH_W@Z 10064f50 f i libucrtd:output.obj
 0001:00063fc0       ?type_case_s_compute_narrow_string_length@?$output_processor@_WV?$string_output_adapter@_W@__crt_stdio_output@@V?$standard_base@_WV?$string_output_adapter@_W@__crt_stdio_output@@@2@@__crt_stdio_output@@ABEHH_W@Z 10064fc0 f i libucrtd:output.obj
 0001:00064030       ?type_case_u@?$output_processor@DV?$stream_output_adapter@D@__crt_stdio_output@@V?$format_validation_base@DV?$stream_output_adapter@D@__crt_stdio_output@@@2@@__crt_stdio_output@@AAE_NXZ 10065030 f i libucrtd:output.obj
 0001:00064050       ?type_case_u@?$output_processor@DV?$stream_output_adapter@D@__crt_stdio_output@@V?$positional_parameter_base@DV?$stream_output_adapter@D@__crt_stdio_output@@@2@@__crt_stdio_output@@AAE_NXZ 10065050 f i libucrtd:output.obj
 0001:00064070       ?type_case_u@?$output_processor@DV?$stream_output_adapter@D@__crt_stdio_output@@V?$standard_base@DV?$stream_output_adapter@D@__crt_stdio_output@@@2@@__crt_stdio_output@@AAE_NXZ 10065070 f i libucrtd:output.obj
 0001:00064090       ?type_case_u@?$output_processor@DV?$string_output_adapter@D@__crt_stdio_output@@V?$format_validation_base@DV?$string_output_adapter@D@__crt_stdio_output@@@2@@__crt_stdio_output@@AAE_NXZ 10065090 f i libucrtd:output.obj
 0001:000640b0       ?type_case_u@?$output_processor@DV?$string_output_adapter@D@__crt_stdio_output@@V?$positional_parameter_base@DV?$string_output_adapter@D@__crt_stdio_output@@@2@@__crt_stdio_output@@AAE_NXZ 100650b0 f i libucrtd:output.obj
 0001:000640d0       ?type_case_u@?$output_processor@DV?$string_output_adapter@D@__crt_stdio_output@@V?$standard_base@DV?$string_output_adapter@D@__crt_stdio_output@@@2@@__crt_stdio_output@@AAE_NXZ 100650d0 f i libucrtd:output.obj
 0001:000640f0       ?type_case_u@?$output_processor@_WV?$stream_output_adapter@_W@__crt_stdio_output@@V?$format_validation_base@_WV?$stream_output_adapter@_W@__crt_stdio_output@@@2@@__crt_stdio_output@@AAE_NXZ 100650f0 f i libucrtd:output.obj
 0001:00064110       ?type_case_u@?$output_processor@_WV?$stream_output_adapter@_W@__crt_stdio_output@@V?$positional_parameter_base@_WV?$stream_output_adapter@_W@__crt_stdio_output@@@2@@__crt_stdio_output@@AAE_NXZ 10065110 f i libucrtd:output.obj
 0001:00064130       ?type_case_u@?$output_processor@_WV?$stream_output_adapter@_W@__crt_stdio_output@@V?$standard_base@_WV?$stream_output_adapter@_W@__crt_stdio_output@@@2@@__crt_stdio_output@@AAE_NXZ 10065130 f i libucrtd:output.obj
 0001:00064150       ?type_case_u@?$output_processor@_WV?$string_output_adapter@_W@__crt_stdio_output@@V?$format_validation_base@_WV?$string_output_adapter@_W@__crt_stdio_output@@@2@@__crt_stdio_output@@AAE_NXZ 10065150 f i libucrtd:output.obj
 0001:00064170       ?type_case_u@?$output_processor@_WV?$string_output_adapter@_W@__crt_stdio_output@@V?$positional_parameter_base@_WV?$string_output_adapter@_W@__crt_stdio_output@@@2@@__crt_stdio_output@@AAE_NXZ 10065170 f i libucrtd:output.obj
 0001:00064190       ?type_case_u@?$output_processor@_WV?$string_output_adapter@_W@__crt_stdio_output@@V?$standard_base@_WV?$string_output_adapter@_W@__crt_stdio_output@@@2@@__crt_stdio_output@@AAE_NXZ 10065190 f i libucrtd:output.obj
 0001:000641b0       ?type_case_x@?$output_processor@DV?$stream_output_adapter@D@__crt_stdio_output@@V?$format_validation_base@DV?$stream_output_adapter@D@__crt_stdio_output@@@2@@__crt_stdio_output@@AAE_NXZ 100651b0 f i libucrtd:output.obj
 0001:000641d0       ?type_case_x@?$output_processor@DV?$stream_output_adapter@D@__crt_stdio_output@@V?$positional_parameter_base@DV?$stream_output_adapter@D@__crt_stdio_output@@@2@@__crt_stdio_output@@AAE_NXZ 100651d0 f i libucrtd:output.obj
 0001:000641f0       ?type_case_x@?$output_processor@DV?$stream_output_adapter@D@__crt_stdio_output@@V?$standard_base@DV?$stream_output_adapter@D@__crt_stdio_output@@@2@@__crt_stdio_output@@AAE_NXZ 100651f0 f i libucrtd:output.obj
 0001:00064210       ?type_case_x@?$output_processor@DV?$string_output_adapter@D@__crt_stdio_output@@V?$format_validation_base@DV?$string_output_adapter@D@__crt_stdio_output@@@2@@__crt_stdio_output@@AAE_NXZ 10065210 f i libucrtd:output.obj
 0001:00064230       ?type_case_x@?$output_processor@DV?$string_output_adapter@D@__crt_stdio_output@@V?$positional_parameter_base@DV?$string_output_adapter@D@__crt_stdio_output@@@2@@__crt_stdio_output@@AAE_NXZ 10065230 f i libucrtd:output.obj
 0001:00064250       ?type_case_x@?$output_processor@DV?$string_output_adapter@D@__crt_stdio_output@@V?$standard_base@DV?$string_output_adapter@D@__crt_stdio_output@@@2@@__crt_stdio_output@@AAE_NXZ 10065250 f i libucrtd:output.obj
 0001:00064270       ?type_case_x@?$output_processor@_WV?$stream_output_adapter@_W@__crt_stdio_output@@V?$format_validation_base@_WV?$stream_output_adapter@_W@__crt_stdio_output@@@2@@__crt_stdio_output@@AAE_NXZ 10065270 f i libucrtd:output.obj
 0001:00064290       ?type_case_x@?$output_processor@_WV?$stream_output_adapter@_W@__crt_stdio_output@@V?$positional_parameter_base@_WV?$stream_output_adapter@_W@__crt_stdio_output@@@2@@__crt_stdio_output@@AAE_NXZ 10065290 f i libucrtd:output.obj
 0001:000642b0       ?type_case_x@?$output_processor@_WV?$stream_output_adapter@_W@__crt_stdio_output@@V?$standard_base@_WV?$stream_output_adapter@_W@__crt_stdio_output@@@2@@__crt_stdio_output@@AAE_NXZ 100652b0 f i libucrtd:output.obj
 0001:000642d0       ?type_case_x@?$output_processor@_WV?$string_output_adapter@_W@__crt_stdio_output@@V?$format_validation_base@_WV?$string_output_adapter@_W@__crt_stdio_output@@@2@@__crt_stdio_output@@AAE_NXZ 100652d0 f i libucrtd:output.obj
 0001:000642f0       ?type_case_x@?$output_processor@_WV?$string_output_adapter@_W@__crt_stdio_output@@V?$positional_parameter_base@_WV?$string_output_adapter@_W@__crt_stdio_output@@@2@@__crt_stdio_output@@AAE_NXZ 100652f0 f i libucrtd:output.obj
 0001:00064310       ?type_case_x@?$output_processor@_WV?$string_output_adapter@_W@__crt_stdio_output@@V?$standard_base@_WV?$string_output_adapter@_W@__crt_stdio_output@@@2@@__crt_stdio_output@@AAE_NXZ 10065310 f i libucrtd:output.obj
 0001:00064330       ?unset_flag@?$output_processor@DV?$stream_output_adapter@D@__crt_stdio_output@@V?$format_validation_base@DV?$stream_output_adapter@D@__crt_stdio_output@@@2@@__crt_stdio_output@@AAEXI@Z 10065330 f i libucrtd:output.obj
 0001:00064350       ?unset_flag@?$output_processor@DV?$stream_output_adapter@D@__crt_stdio_output@@V?$positional_parameter_base@DV?$stream_output_adapter@D@__crt_stdio_output@@@2@@__crt_stdio_output@@AAEXI@Z 10065350 f i libucrtd:output.obj
 0001:00064370       ?unset_flag@?$output_processor@DV?$stream_output_adapter@D@__crt_stdio_output@@V?$standard_base@DV?$stream_output_adapter@D@__crt_stdio_output@@@2@@__crt_stdio_output@@AAEXI@Z 10065370 f i libucrtd:output.obj
 0001:00064390       ?unset_flag@?$output_processor@DV?$string_output_adapter@D@__crt_stdio_output@@V?$format_validation_base@DV?$string_output_adapter@D@__crt_stdio_output@@@2@@__crt_stdio_output@@AAEXI@Z 10065390 f i libucrtd:output.obj
 0001:000643b0       ?unset_flag@?$output_processor@DV?$string_output_adapter@D@__crt_stdio_output@@V?$positional_parameter_base@DV?$string_output_adapter@D@__crt_stdio_output@@@2@@__crt_stdio_output@@AAEXI@Z 100653b0 f i libucrtd:output.obj
 0001:000643d0       ?unset_flag@?$output_processor@DV?$string_output_adapter@D@__crt_stdio_output@@V?$standard_base@DV?$string_output_adapter@D@__crt_stdio_output@@@2@@__crt_stdio_output@@AAEXI@Z 100653d0 f i libucrtd:output.obj
 0001:000643f0       ?unset_flag@?$output_processor@_WV?$stream_output_adapter@_W@__crt_stdio_output@@V?$format_validation_base@_WV?$stream_output_adapter@_W@__crt_stdio_output@@@2@@__crt_stdio_output@@AAEXI@Z 100653f0 f i libucrtd:output.obj
 0001:00064410       ?unset_flag@?$output_processor@_WV?$stream_output_adapter@_W@__crt_stdio_output@@V?$positional_parameter_base@_WV?$stream_output_adapter@_W@__crt_stdio_output@@@2@@__crt_stdio_output@@AAEXI@Z 10065410 f i libucrtd:output.obj
 0001:00064430       ?unset_flag@?$output_processor@_WV?$stream_output_adapter@_W@__crt_stdio_output@@V?$standard_base@_WV?$stream_output_adapter@_W@__crt_stdio_output@@@2@@__crt_stdio_output@@AAEXI@Z 10065430 f i libucrtd:output.obj
 0001:00064450       ?unset_flag@?$output_processor@_WV?$string_output_adapter@_W@__crt_stdio_output@@V?$format_validation_base@_WV?$string_output_adapter@_W@__crt_stdio_output@@@2@@__crt_stdio_output@@AAEXI@Z 10065450 f i libucrtd:output.obj
 0001:00064470       ?unset_flag@?$output_processor@_WV?$string_output_adapter@_W@__crt_stdio_output@@V?$positional_parameter_base@_WV?$string_output_adapter@_W@__crt_stdio_output@@@2@@__crt_stdio_output@@AAEXI@Z 10065470 f i libucrtd:output.obj
 0001:00064490       ?unset_flag@?$output_processor@_WV?$string_output_adapter@_W@__crt_stdio_output@@V?$standard_base@_WV?$string_output_adapter@_W@__crt_stdio_output@@@2@@__crt_stdio_output@@AAEXI@Z 10065490 f i libucrtd:output.obj
 0001:000644b0       ?update_field_width@?$positional_parameter_base@DV?$stream_output_adapter@D@__crt_stdio_output@@@__crt_stdio_output@@IAE_NXZ 100654b0 f i libucrtd:output.obj
 0001:00064630       ?update_field_width@?$positional_parameter_base@DV?$string_output_adapter@D@__crt_stdio_output@@@__crt_stdio_output@@IAE_NXZ 10065630 f i libucrtd:output.obj
 0001:000647b0       ?update_field_width@?$positional_parameter_base@_WV?$stream_output_adapter@_W@__crt_stdio_output@@@__crt_stdio_output@@IAE_NXZ 100657b0 f i libucrtd:output.obj
 0001:00064930       ?update_field_width@?$positional_parameter_base@_WV?$string_output_adapter@_W@__crt_stdio_output@@@__crt_stdio_output@@IAE_NXZ 10065930 f i libucrtd:output.obj
 0001:00064ab0       ?update_field_width@?$standard_base@DV?$stream_output_adapter@D@__crt_stdio_output@@@__crt_stdio_output@@IAE_NXZ 10065ab0 f i libucrtd:output.obj
 0001:00064ae0       ?update_field_width@?$standard_base@DV?$string_output_adapter@D@__crt_stdio_output@@@__crt_stdio_output@@IAE_NXZ 10065ae0 f i libucrtd:output.obj
 0001:00064b10       ?update_field_width@?$standard_base@_WV?$stream_output_adapter@_W@__crt_stdio_output@@@__crt_stdio_output@@IAE_NXZ 10065b10 f i libucrtd:output.obj
 0001:00064b40       ?update_field_width@?$standard_base@_WV?$string_output_adapter@_W@__crt_stdio_output@@@__crt_stdio_output@@IAE_NXZ 10065b40 f i libucrtd:output.obj
 0001:00064b70       ?update_precision@?$positional_parameter_base@DV?$stream_output_adapter@D@__crt_stdio_output@@@__crt_stdio_output@@IAE_NXZ 10065b70 f i libucrtd:output.obj
 0001:00064cf0       ?update_precision@?$positional_parameter_base@DV?$string_output_adapter@D@__crt_stdio_output@@@__crt_stdio_output@@IAE_NXZ 10065cf0 f i libucrtd:output.obj
 0001:00064e70       ?update_precision@?$positional_parameter_base@_WV?$stream_output_adapter@_W@__crt_stdio_output@@@__crt_stdio_output@@IAE_NXZ 10065e70 f i libucrtd:output.obj
 0001:00064ff0       ?update_precision@?$positional_parameter_base@_WV?$string_output_adapter@_W@__crt_stdio_output@@@__crt_stdio_output@@IAE_NXZ 10065ff0 f i libucrtd:output.obj
 0001:00065170       ?update_precision@?$standard_base@DV?$stream_output_adapter@D@__crt_stdio_output@@@__crt_stdio_output@@IAE_NXZ 10066170 f i libucrtd:output.obj
 0001:000651a0       ?update_precision@?$standard_base@DV?$string_output_adapter@D@__crt_stdio_output@@@__crt_stdio_output@@IAE_NXZ 100661a0 f i libucrtd:output.obj
 0001:000651d0       ?update_precision@?$standard_base@_WV?$stream_output_adapter@_W@__crt_stdio_output@@@__crt_stdio_output@@IAE_NXZ 100661d0 f i libucrtd:output.obj
 0001:00065200       ?update_precision@?$standard_base@_WV?$string_output_adapter@_W@__crt_stdio_output@@@__crt_stdio_output@@IAE_NXZ 10066200 f i libucrtd:output.obj
 0001:00065230       ?valid@__crt_stdio_stream@@QBE_NXZ 10066230 f i libucrtd:output.obj
 0001:00065260       ?validate@?$stream_output_adapter@D@__crt_stdio_output@@QBE_NXZ 10066260 f i libucrtd:output.obj
 0001:00065310       ?validate@?$stream_output_adapter@_W@__crt_stdio_output@@QBE_NXZ 10066310 f i libucrtd:output.obj
 0001:000653c0       ?validate@?$string_output_adapter@D@__crt_stdio_output@@QBE_NXZ 100663c0 f i libucrtd:output.obj
 0001:00065450       ?validate@?$string_output_adapter@_W@__crt_stdio_output@@QBE_NXZ 10066450 f i libucrtd:output.obj
 0001:000654e0       ?validate_and_store_parameter_data@?$positional_parameter_base@DV?$stream_output_adapter@D@__crt_stdio_output@@@__crt_stdio_output@@AAE_NAAUparameter_data@12@W4parameter_type@12@DW4length_modifier@2@@Z 100664e0 f i libucrtd:output.obj
 0001:000655b0       ?validate_and_store_parameter_data@?$positional_parameter_base@DV?$string_output_adapter@D@__crt_stdio_output@@@__crt_stdio_output@@AAE_NAAUparameter_data@12@W4parameter_type@12@DW4length_modifier@2@@Z 100665b0 f i libucrtd:output.obj
 0001:00065680       ?validate_and_store_parameter_data@?$positional_parameter_base@_WV?$stream_output_adapter@_W@__crt_stdio_output@@@__crt_stdio_output@@AAE_NAAUparameter_data@12@W4parameter_type@12@_WW4length_modifier@2@@Z 10066680 f i libucrtd:output.obj
 0001:00065760       ?validate_and_store_parameter_data@?$positional_parameter_base@_WV?$string_output_adapter@_W@__crt_stdio_output@@@__crt_stdio_output@@AAE_NAAUparameter_data@12@W4parameter_type@12@_WW4length_modifier@2@@Z 10066760 f i libucrtd:output.obj
 0001:00065840       ?validate_and_update_state_at_beginning_of_format_character@?$positional_parameter_base@DV?$stream_output_adapter@D@__crt_stdio_output@@@__crt_stdio_output@@IAE_NXZ 10066840 f i libucrtd:output.obj
 0001:00065a60       ?validate_and_update_state_at_beginning_of_format_character@?$positional_parameter_base@DV?$string_output_adapter@D@__crt_stdio_output@@@__crt_stdio_output@@IAE_NXZ 10066a60 f i libucrtd:output.obj
 0001:00065c80       ?validate_and_update_state_at_beginning_of_format_character@?$positional_parameter_base@_WV?$stream_output_adapter@_W@__crt_stdio_output@@@__crt_stdio_output@@IAE_NXZ 10066c80 f i libucrtd:output.obj
 0001:00065ea0       ?validate_and_update_state_at_beginning_of_format_character@?$positional_parameter_base@_WV?$string_output_adapter@_W@__crt_stdio_output@@@__crt_stdio_output@@IAE_NXZ 10066ea0 f i libucrtd:output.obj
 0001:000660c0       ?validate_and_update_state_at_beginning_of_format_character@?$standard_base@DV?$stream_output_adapter@D@__crt_stdio_output@@@__crt_stdio_output@@IAE_NXZ 100670c0 f i libucrtd:output.obj
 0001:000660d0       ?validate_and_update_state_at_beginning_of_format_character@?$standard_base@DV?$string_output_adapter@D@__crt_stdio_output@@@__crt_stdio_output@@IAE_NXZ 100670d0 f i libucrtd:output.obj
 0001:000660e0       ?validate_and_update_state_at_beginning_of_format_character@?$standard_base@_WV?$stream_output_adapter@_W@__crt_stdio_output@@@__crt_stdio_output@@IAE_NXZ 100670e0 f i libucrtd:output.obj
 0001:000660f0       ?validate_and_update_state_at_beginning_of_format_character@?$standard_base@_WV?$string_output_adapter@_W@__crt_stdio_output@@@__crt_stdio_output@@IAE_NXZ 100670f0 f i libucrtd:output.obj
 0001:00066100       ?validate_and_update_state_at_end_of_format_string@?$format_validation_base@DV?$stream_output_adapter@D@__crt_stdio_output@@@__crt_stdio_output@@IBE_NXZ 10067100 f i libucrtd:output.obj
 0001:000661a0       ?validate_and_update_state_at_end_of_format_string@?$format_validation_base@DV?$string_output_adapter@D@__crt_stdio_output@@@__crt_stdio_output@@IBE_NXZ 100671a0 f i libucrtd:output.obj
 0001:00066240       ?validate_and_update_state_at_end_of_format_string@?$format_validation_base@_WV?$stream_output_adapter@_W@__crt_stdio_output@@@__crt_stdio_output@@IBE_NXZ 10067240 f i libucrtd:output.obj
 0001:000662e0       ?validate_and_update_state_at_end_of_format_string@?$format_validation_base@_WV?$string_output_adapter@_W@__crt_stdio_output@@@__crt_stdio_output@@IBE_NXZ 100672e0 f i libucrtd:output.obj
 0001:00066380       ?validate_and_update_state_at_end_of_format_string@?$positional_parameter_base@DV?$stream_output_adapter@D@__crt_stdio_output@@@__crt_stdio_output@@IAE_NXZ 10067380 f i libucrtd:output.obj
 0001:00066520       ?validate_and_update_state_at_end_of_format_string@?$positional_parameter_base@DV?$string_output_adapter@D@__crt_stdio_output@@@__crt_stdio_output@@IAE_NXZ 10067520 f i libucrtd:output.obj
 0001:000666c0       ?validate_and_update_state_at_end_of_format_string@?$positional_parameter_base@_WV?$stream_output_adapter@_W@__crt_stdio_output@@@__crt_stdio_output@@IAE_NXZ 100676c0 f i libucrtd:output.obj
 0001:00066860       ?validate_and_update_state_at_end_of_format_string@?$positional_parameter_base@_WV?$string_output_adapter@_W@__crt_stdio_output@@@__crt_stdio_output@@IAE_NXZ 10067860 f i libucrtd:output.obj
 0001:00066a00       ?validate_and_update_state_at_end_of_format_string@?$standard_base@DV?$stream_output_adapter@D@__crt_stdio_output@@@__crt_stdio_output@@IBE_NXZ 10067a00 f i libucrtd:output.obj
 0001:00066a10       ?validate_and_update_state_at_end_of_format_string@?$standard_base@DV?$string_output_adapter@D@__crt_stdio_output@@@__crt_stdio_output@@IBE_NXZ 10067a10 f i libucrtd:output.obj
 0001:00066a20       ?validate_and_update_state_at_end_of_format_string@?$standard_base@_WV?$stream_output_adapter@_W@__crt_stdio_output@@@__crt_stdio_output@@IBE_NXZ 10067a20 f i libucrtd:output.obj
 0001:00066a30       ?validate_and_update_state_at_end_of_format_string@?$standard_base@_WV?$string_output_adapter@_W@__crt_stdio_output@@@__crt_stdio_output@@IBE_NXZ 10067a30 f i libucrtd:output.obj
 0001:00066a40       ?validate_state_for_type_case_a@?$positional_parameter_base@DV?$stream_output_adapter@D@__crt_stdio_output@@@__crt_stdio_output@@IAE_NXZ 10067a40 f i libucrtd:output.obj
 0001:00066b30       ?validate_state_for_type_case_a@?$positional_parameter_base@DV?$string_output_adapter@D@__crt_stdio_output@@@__crt_stdio_output@@IAE_NXZ 10067b30 f i libucrtd:output.obj
 0001:00066c20       ?validate_state_for_type_case_a@?$positional_parameter_base@_WV?$stream_output_adapter@_W@__crt_stdio_output@@@__crt_stdio_output@@IAE_NXZ 10067c20 f i libucrtd:output.obj
 0001:00066d10       ?validate_state_for_type_case_a@?$positional_parameter_base@_WV?$string_output_adapter@_W@__crt_stdio_output@@@__crt_stdio_output@@IAE_NXZ 10067d10 f i libucrtd:output.obj
 0001:00066e00       ?validate_state_for_type_case_a@?$standard_base@DV?$stream_output_adapter@D@__crt_stdio_output@@@__crt_stdio_output@@IBE_NXZ 10067e00 f i libucrtd:output.obj
 0001:00066e10       ?validate_state_for_type_case_a@?$standard_base@DV?$string_output_adapter@D@__crt_stdio_output@@@__crt_stdio_output@@IBE_NXZ 10067e10 f i libucrtd:output.obj
 0001:00066e20       ?validate_state_for_type_case_a@?$standard_base@_WV?$stream_output_adapter@_W@__crt_stdio_output@@@__crt_stdio_output@@IBE_NXZ 10067e20 f i libucrtd:output.obj
 0001:00066e30       ?validate_state_for_type_case_a@?$standard_base@_WV?$string_output_adapter@_W@__crt_stdio_output@@@__crt_stdio_output@@IBE_NXZ 10067e30 f i libucrtd:output.obj
 0001:00066e40       ?validate_stream_is_ansi_if_required@?$__acrt_stdio_char_traits@D@@SA_NQAU_iobuf@@@Z 10067e40 f i libucrtd:output.obj
 0001:00066f70       ?validate_stream_is_ansi_if_required@?$__acrt_stdio_char_traits@_W@@SA_NQAU_iobuf@@@Z 10067f70 f i libucrtd:output.obj
 0001:00066f80       ?wide_null_string@?$output_processor@DV?$stream_output_adapter@D@__crt_stdio_output@@V?$format_validation_base@DV?$stream_output_adapter@D@__crt_stdio_output@@@2@@__crt_stdio_output@@CAPA_WXZ 10067f80 f i libucrtd:output.obj
 0001:00066f90       ?wide_null_string@?$output_processor@DV?$stream_output_adapter@D@__crt_stdio_output@@V?$positional_parameter_base@DV?$stream_output_adapter@D@__crt_stdio_output@@@2@@__crt_stdio_output@@CAPA_WXZ 10067f90 f i libucrtd:output.obj
 0001:00066fa0       ?wide_null_string@?$output_processor@DV?$stream_output_adapter@D@__crt_stdio_output@@V?$standard_base@DV?$stream_output_adapter@D@__crt_stdio_output@@@2@@__crt_stdio_output@@CAPA_WXZ 10067fa0 f i libucrtd:output.obj
 0001:00066fb0       ?wide_null_string@?$output_processor@DV?$string_output_adapter@D@__crt_stdio_output@@V?$format_validation_base@DV?$string_output_adapter@D@__crt_stdio_output@@@2@@__crt_stdio_output@@CAPA_WXZ 10067fb0 f i libucrtd:output.obj
 0001:00066fc0       ?wide_null_string@?$output_processor@DV?$string_output_adapter@D@__crt_stdio_output@@V?$positional_parameter_base@DV?$string_output_adapter@D@__crt_stdio_output@@@2@@__crt_stdio_output@@CAPA_WXZ 10067fc0 f i libucrtd:output.obj
 0001:00066fd0       ?wide_null_string@?$output_processor@DV?$string_output_adapter@D@__crt_stdio_output@@V?$standard_base@DV?$string_output_adapter@D@__crt_stdio_output@@@2@@__crt_stdio_output@@CAPA_WXZ 10067fd0 f i libucrtd:output.obj
 0001:00066fe0       ?wide_null_string@?$output_processor@_WV?$stream_output_adapter@_W@__crt_stdio_output@@V?$format_validation_base@_WV?$stream_output_adapter@_W@__crt_stdio_output@@@2@@__crt_stdio_output@@CAPA_WXZ 10067fe0 f i libucrtd:output.obj
 0001:00066ff0       ?wide_null_string@?$output_processor@_WV?$stream_output_adapter@_W@__crt_stdio_output@@V?$positional_parameter_base@_WV?$stream_output_adapter@_W@__crt_stdio_output@@@2@@__crt_stdio_output@@CAPA_WXZ 10067ff0 f i libucrtd:output.obj
 0001:00067000       ?wide_null_string@?$output_processor@_WV?$stream_output_adapter@_W@__crt_stdio_output@@V?$standard_base@_WV?$stream_output_adapter@_W@__crt_stdio_output@@@2@@__crt_stdio_output@@CAPA_WXZ 10068000 f i libucrtd:output.obj
 0001:00067010       ?wide_null_string@?$output_processor@_WV?$string_output_adapter@_W@__crt_stdio_output@@V?$format_validation_base@_WV?$string_output_adapter@_W@__crt_stdio_output@@@2@@__crt_stdio_output@@CAPA_WXZ 10068010 f i libucrtd:output.obj
 0001:00067020       ?wide_null_string@?$output_processor@_WV?$string_output_adapter@_W@__crt_stdio_output@@V?$positional_parameter_base@_WV?$string_output_adapter@_W@__crt_stdio_output@@@2@@__crt_stdio_output@@CAPA_WXZ 10068020 f i libucrtd:output.obj
 0001:00067030       ?wide_null_string@?$output_processor@_WV?$string_output_adapter@_W@__crt_stdio_output@@V?$standard_base@_WV?$string_output_adapter@_W@__crt_stdio_output@@@2@@__crt_stdio_output@@CAPA_WXZ 10068030 f i libucrtd:output.obj
 0001:00067040       ?write_character@?$output_adapter_common@DV?$stream_output_adapter@D@__crt_stdio_output@@@__crt_stdio_output@@QBEXDQAH@Z 10068040 f i libucrtd:output.obj
 0001:00067080       ?write_character@?$output_adapter_common@_WV?$stream_output_adapter@_W@__crt_stdio_output@@@__crt_stdio_output@@QBEX_WQAH@Z 10068080 f i libucrtd:output.obj
 0001:000670c0       ?write_character@?$string_output_adapter@D@__crt_stdio_output@@QBE_NDQAH@Z 100680c0 f i libucrtd:output.obj
 0001:00067150       ?write_character@?$string_output_adapter@_W@__crt_stdio_output@@QBE_N_WQAH@Z 10068150 f i libucrtd:output.obj
 0001:000671f0       ?write_character_without_count_update@?$stream_output_adapter@D@__crt_stdio_output@@QBE_ND@Z 100681f0 f i libucrtd:output.obj
 0001:00067260       ?write_character_without_count_update@?$stream_output_adapter@_W@__crt_stdio_output@@QBE_N_W@Z 10068260 f i libucrtd:output.obj
 0001:000672d0       ?write_stored_string_tchar@?$output_processor@DV?$stream_output_adapter@D@__crt_stdio_output@@V?$format_validation_base@DV?$stream_output_adapter@D@__crt_stdio_output@@@2@@__crt_stdio_output@@AAE_ND@Z 100682d0 f i libucrtd:output.obj
 0001:000673e0       ?write_stored_string_tchar@?$output_processor@DV?$stream_output_adapter@D@__crt_stdio_output@@V?$positional_parameter_base@DV?$stream_output_adapter@D@__crt_stdio_output@@@2@@__crt_stdio_output@@AAE_ND@Z 100683e0 f i libucrtd:output.obj
 0001:000674f0       ?write_stored_string_tchar@?$output_processor@DV?$stream_output_adapter@D@__crt_stdio_output@@V?$standard_base@DV?$stream_output_adapter@D@__crt_stdio_output@@@2@@__crt_stdio_output@@AAE_ND@Z 100684f0 f i libucrtd:output.obj
 0001:00067600       ?write_stored_string_tchar@?$output_processor@DV?$string_output_adapter@D@__crt_stdio_output@@V?$format_validation_base@DV?$string_output_adapter@D@__crt_stdio_output@@@2@@__crt_stdio_output@@AAE_ND@Z 10068600 f i libucrtd:output.obj
 0001:00067710       ?write_stored_string_tchar@?$output_processor@DV?$string_output_adapter@D@__crt_stdio_output@@V?$positional_parameter_base@DV?$string_output_adapter@D@__crt_stdio_output@@@2@@__crt_stdio_output@@AAE_ND@Z 10068710 f i libucrtd:output.obj
 0001:00067820       ?write_stored_string_tchar@?$output_processor@DV?$string_output_adapter@D@__crt_stdio_output@@V?$standard_base@DV?$string_output_adapter@D@__crt_stdio_output@@@2@@__crt_stdio_output@@AAE_ND@Z 10068820 f i libucrtd:output.obj
 0001:00067930       ?write_stored_string_tchar@?$output_processor@_WV?$stream_output_adapter@_W@__crt_stdio_output@@V?$format_validation_base@_WV?$stream_output_adapter@_W@__crt_stdio_output@@@2@@__crt_stdio_output@@AAE_N_W@Z 10068930 f i libucrtd:output.obj
 0001:00067a20       ?write_stored_string_tchar@?$output_processor@_WV?$stream_output_adapter@_W@__crt_stdio_output@@V?$positional_parameter_base@_WV?$stream_output_adapter@_W@__crt_stdio_output@@@2@@__crt_stdio_output@@AAE_N_W@Z 10068a20 f i libucrtd:output.obj
 0001:00067b10       ?write_stored_string_tchar@?$output_processor@_WV?$stream_output_adapter@_W@__crt_stdio_output@@V?$standard_base@_WV?$stream_output_adapter@_W@__crt_stdio_output@@@2@@__crt_stdio_output@@AAE_N_W@Z 10068b10 f i libucrtd:output.obj
 0001:00067c00       ?write_stored_string_tchar@?$output_processor@_WV?$string_output_adapter@_W@__crt_stdio_output@@V?$format_validation_base@_WV?$string_output_adapter@_W@__crt_stdio_output@@@2@@__crt_stdio_output@@AAE_N_W@Z 10068c00 f i libucrtd:output.obj
 0001:00067cf0       ?write_stored_string_tchar@?$output_processor@_WV?$string_output_adapter@_W@__crt_stdio_output@@V?$positional_parameter_base@_WV?$string_output_adapter@_W@__crt_stdio_output@@@2@@__crt_stdio_output@@AAE_N_W@Z 10068cf0 f i libucrtd:output.obj
 0001:00067de0       ?write_stored_string_tchar@?$output_processor@_WV?$string_output_adapter@_W@__crt_stdio_output@@V?$standard_base@_WV?$string_output_adapter@_W@__crt_stdio_output@@@2@@__crt_stdio_output@@AAE_N_W@Z 10068de0 f i libucrtd:output.obj
 0001:00067ed0       ?write_string@?$stream_output_adapter@D@__crt_stdio_output@@QBEXQBDHQAHAAV__crt_deferred_errno_cache@@@Z 10068ed0 f i libucrtd:output.obj
 0001:00067f30       ?write_string@?$stream_output_adapter@_W@__crt_stdio_output@@QBEXQB_WHQAHAAV__crt_deferred_errno_cache@@@Z 10068f30 f i libucrtd:output.obj
 0001:00067f90       ?write_string@?$string_output_adapter@D@__crt_stdio_output@@QBEXQBDHQAHAAV__crt_deferred_errno_cache@@@Z 10068f90 f i libucrtd:output.obj
 0001:00068090       ?write_string@?$string_output_adapter@_W@__crt_stdio_output@@QBEXQB_WHQAHAAV__crt_deferred_errno_cache@@@Z 10069090 f i libucrtd:output.obj
 0001:000681a0       ?write_string_impl@?$output_adapter_common@DV?$stream_output_adapter@D@__crt_stdio_output@@@__crt_stdio_output@@IBEXQBDHQAHAAV__crt_deferred_errno_cache@@@Z 100691a0 f i libucrtd:output.obj
 0001:00068240       ?write_string_impl@?$output_adapter_common@_WV?$stream_output_adapter@_W@__crt_stdio_output@@@__crt_stdio_output@@IBEXQB_WHQAHAAV__crt_deferred_errno_cache@@@Z 10069240 f i libucrtd:output.obj
 0001:000682e0       ___acrt_isleadbyte_l_noupdate 100692e0 f i libucrtd:output.obj
 0001:00068300       ___acrt_locale_changed     10069300 f i libucrtd:output.obj
 0001:00068330       ___acrt_locale_get_ctype_array_value 10069330 f i libucrtd:output.obj
 0001:00068360       ___stdio_common_vfprintf   10069360 f   libucrtd:output.obj
 0001:00068390       ___stdio_common_vfprintf_p 10069390 f   libucrtd:output.obj
 0001:000683c0       ___stdio_common_vfprintf_s 100693c0 f   libucrtd:output.obj
 0001:000683f0       ___stdio_common_vfwprintf  100693f0 f   libucrtd:output.obj
 0001:00068420       ___stdio_common_vfwprintf_p 10069420 f   libucrtd:output.obj
 0001:00068450       ___stdio_common_vfwprintf_s 10069450 f   libucrtd:output.obj
 0001:00068480       ___stdio_common_vsnprintf_s 10069480 f   libucrtd:output.obj
 0001:000684b0       ___stdio_common_vsnwprintf_s 100694b0 f   libucrtd:output.obj
 0001:000684e0       ___stdio_common_vsprintf   100694e0 f   libucrtd:output.obj
 0001:00068510       ___stdio_common_vsprintf_p 10069510 f   libucrtd:output.obj
 0001:00068540       ___stdio_common_vsprintf_s 10069540 f   libucrtd:output.obj
 0001:00068570       ___stdio_common_vswprintf  10069570 f   libucrtd:output.obj
 0001:000685a0       ___stdio_common_vswprintf_p 100695a0 f   libucrtd:output.obj
 0001:000685d0       ___stdio_common_vswprintf_s 100695d0 f   libucrtd:output.obj
 0001:00068600       __ctype_fast_check_internal 10069600 f i libucrtd:output.obj
 0001:00068620       __isdigit_fast_internal    10069620 f i libucrtd:output.obj
 0001:00068640       __tolower_fast_internal    10069640 f i libucrtd:output.obj
 0001:00068660       _free                      10069660 f   libucrtd:free.obj
 0001:00068690       _malloc                    10069690 f   libucrtd:malloc.obj
 0001:000686b0       ??$?RU?$__crt_report_hook_node@D@@@__crt_internal_free_policy@@QBEXQBU?$__crt_report_hook_node@D@@@Z 100696b0 f i libucrtd:dbgrpt.obj
 0001:000686d0       ??$?RU?$__crt_report_hook_node@_W@@@__crt_internal_free_policy@@QBEXQBU?$__crt_report_hook_node@_W@@@Z 100696d0 f i libucrtd:dbgrpt.obj
 0001:000694c0       ??$get_module_file_name@AAPAUHINSTANCE__@@AAY0BAF@DK@?$__crt_char_traits@D@@SAKAAPAUHINSTANCE__@@AAY0BAF@D$$QAK@Z 1006a4c0 f i libucrtd:dbgrpt.obj
 0001:000694e0       ??$get_module_file_name@AAPAUHINSTANCE__@@AAY0BAF@_WK@?$__crt_char_traits@_W@@SAKAAPAUHINSTANCE__@@AAY0BAF@_W$$QAK@Z 1006a4e0 f i libucrtd:dbgrpt.obj
 0001:00069500       ??$tcscpy_s@AAY0BAF@DIPBD@?$__crt_char_traits@D@@SAHAAY0BAF@D$$QAI$$QAPBD@Z 1006a500 f i libucrtd:dbgrpt.obj
 0001:00069520       ??$tcscpy_s@AAY0BAF@_WIPB_W@?$__crt_char_traits@_W@@SAHAAY0BAF@_W$$QAI$$QAPB_W@Z 1006a520 f i libucrtd:dbgrpt.obj
 0001:00069540       ??$tcslen@AAY0BAF@D@?$__crt_char_traits@D@@SAIAAY0BAF@D@Z 1006a540 f i libucrtd:dbgrpt.obj
 0001:00069560       ??$tcslen@AAY0BAF@_W@?$__crt_char_traits@_W@@SAIAAY0BAF@_W@Z 1006a560 f i libucrtd:dbgrpt.obj
 0001:00069580       ??$tcslen@ABQBD@?$__crt_char_traits@D@@SAIABQBD@Z 1006a580 f i libucrtd:dbgrpt.obj
 0001:000695a0       ??$tcslen@ABQB_W@?$__crt_char_traits@_W@@SAIABQB_W@Z 1006a5a0 f i libucrtd:dbgrpt.obj
 0001:000696a0       ??0?$__crt_unique_heap_ptr@U?$__crt_report_hook_node@D@@U__crt_internal_free_policy@@@@QAE@QAU?$__crt_report_hook_node@D@@@Z 1006a6a0 f i libucrtd:dbgrpt.obj
 0001:000696c0       ??0?$__crt_unique_heap_ptr@U?$__crt_report_hook_node@_W@@U__crt_internal_free_policy@@@@QAE@QAU?$__crt_report_hook_node@_W@@@Z 1006a6c0 f i libucrtd:dbgrpt.obj
 0001:000696e0       ??1?$__crt_unique_heap_ptr@U?$__crt_report_hook_node@D@@U__crt_internal_free_policy@@@@QAE@XZ 1006a6e0 f i libucrtd:dbgrpt.obj
 0001:00069700       ??1?$__crt_unique_heap_ptr@U?$__crt_report_hook_node@_W@@U__crt_internal_free_policy@@@@QAE@XZ 1006a700 f i libucrtd:dbgrpt.obj
 0001:00069720       ??B?$__crt_unique_heap_ptr@U?$__crt_report_hook_node@D@@U__crt_internal_free_policy@@@@QBE_NXZ 1006a720 f i libucrtd:dbgrpt.obj
 0001:00069740       ??B?$__crt_unique_heap_ptr@U?$__crt_report_hook_node@_W@@U__crt_internal_free_policy@@@@QBE_NXZ 1006a740 f i libucrtd:dbgrpt.obj
 0001:00069c80       ?detach@?$__crt_unique_heap_ptr@U?$__crt_report_hook_node@D@@U__crt_internal_free_policy@@@@QAEPAU?$__crt_report_hook_node@D@@XZ 1006ac80 f i libucrtd:dbgrpt.obj
 0001:00069cb0       ?detach@?$__crt_unique_heap_ptr@U?$__crt_report_hook_node@_W@@U__crt_internal_free_policy@@@@QAEPAU?$__crt_report_hook_node@_W@@XZ 1006acb0 f i libucrtd:dbgrpt.obj
 0001:00069ce0       ?get@?$__crt_unique_heap_ptr@U?$__crt_report_hook_node@D@@U__crt_internal_free_policy@@@@QBEPAU?$__crt_report_hook_node@D@@XZ 1006ace0 f i libucrtd:dbgrpt.obj
 0001:00069d00       ?get@?$__crt_unique_heap_ptr@U?$__crt_report_hook_node@_W@@U__crt_internal_free_policy@@@@QBEPAU?$__crt_report_hook_node@_W@@XZ 1006ad00 f i libucrtd:dbgrpt.obj
 0001:00069d80       ?is_valid@?$__crt_unique_heap_ptr@U?$__crt_report_hook_node@D@@U__crt_internal_free_policy@@@@QBE_NXZ 1006ad80 f i libucrtd:dbgrpt.obj
 0001:00069db0       ?is_valid@?$__crt_unique_heap_ptr@U?$__crt_report_hook_node@_W@@U__crt_internal_free_policy@@@@QBE_NXZ 1006adb0 f i libucrtd:dbgrpt.obj
 0001:00069de0       ?release@?$__crt_unique_heap_ptr@U?$__crt_report_hook_node@D@@U__crt_internal_free_policy@@@@QAEXXZ 1006ade0 f i libucrtd:dbgrpt.obj
 0001:00069e10       ?release@?$__crt_unique_heap_ptr@U?$__crt_report_hook_node@_W@@U__crt_internal_free_policy@@@@QAEXXZ 1006ae10 f i libucrtd:dbgrpt.obj
 0001:00069e40       __CrtDbgReport             1006ae40 f   libucrtd:dbgrpt.obj
 0001:00069e90       __CrtDbgReportW            1006ae90 f   libucrtd:dbgrpt.obj
 0001:00069ee0       __CrtSetReportHook2        1006aee0 f   libucrtd:dbgrpt.obj
 0001:00069f00       __CrtSetReportHookW2       1006af00 f   libucrtd:dbgrpt.obj
 0001:00069f20       ___acrt_MessageWindowA     1006af20 f   libucrtd:dbgrpt.obj
 0001:00069f50       ___acrt_MessageWindowW     1006af50 f   libucrtd:dbgrpt.obj
 0001:00069f80       __invoke_watson_if_error   1006af80 f i libucrtd:dbgrpt.obj
 0001:00069fb0       __invoke_watson_if_oneof   1006afb0 f i libucrtd:dbgrpt.obj
 0001:00069ff0       __snwprintf_s              1006aff0 f i libucrtd:dbgrpt.obj
 0001:0006a030       __vsnwprintf_s_l           1006b030 f i libucrtd:dbgrpt.obj
 0001:0006a3b0       _wcscpy_s                  1006b3b0 f   libucrtd:wcscpy_s.obj
 0001:0006b0d0       ??1?$__crt_simd_cleanup_guard@$00@@QAE@XZ 1006c0d0 f i libucrtd:strnlen.obj
 0001:0006b0e0       ??1?$__crt_simd_cleanup_guard@$0A@@@QAE@XZ 1006c0e0 f i libucrtd:strnlen.obj
 0001:0006b0f0       ?compare_equals@?$__crt_simd_traits@$00E@@SA?AT__m256i@@T2@0@Z 1006c0f0 f i libucrtd:strnlen.obj
 0001:0006b130       ?compare_equals@?$__crt_simd_traits@$00G@@SA?AT__m256i@@T2@0@Z 1006c130 f i libucrtd:strnlen.obj
 0001:0006b170       ?compare_equals@?$__crt_simd_traits@$0A@E@@SA?AT__m128i@@T2@0@Z 1006c170 f i libucrtd:strnlen.obj
 0001:0006b1b0       ?compare_equals@?$__crt_simd_traits@$0A@G@@SA?AT__m128i@@T2@0@Z 1006c1b0 f i libucrtd:strnlen.obj
 0001:0006b1f0       ?compute_byte_mask@?$__crt_simd_pack_traits@$00@@SAHT__m256i@@@Z 1006c1f0 f i libucrtd:strnlen.obj
 0001:0006b220       ?compute_byte_mask@?$__crt_simd_pack_traits@$0A@@@SAHT__m128i@@@Z 1006c220 f i libucrtd:strnlen.obj
 0001:0006b250       ?get_zero_pack@?$__crt_simd_pack_traits@$00@@SA?AT__m256i@@XZ 1006c250 f i libucrtd:strnlen.obj
 0001:0006b280       ?get_zero_pack@?$__crt_simd_pack_traits@$0A@@@SA?AT__m128i@@XZ 1006c280 f i libucrtd:strnlen.obj
 0001:0006b2b0       _strnlen                   1006c2b0 f   libucrtd:strnlen.obj
 0001:0006b2d0       _wcslen                    1006c2d0 f   libucrtd:strnlen.obj
 0001:0006b2f0       _wcsnlen                   1006c2f0 f   libucrtd:strnlen.obj
 0001:0006b310       ??$__crt_fast_decode_pointer@P6AXPB_W00II@Z@@YAP6AXPB_W00II@ZQ6AX000II@Z@Z 1006c310 f i libucrtd:invalid_parameter.obj
 0001:0006b340       ??$__crt_fast_encode_pointer@P6AXPB_W00II@Z@@YAP6AXPB_W00II@ZQ6AX000II@Z@Z 1006c340 f i libucrtd:invalid_parameter.obj
 0001:0006b370       ??$initialize_from_array@$$BY00Q6AXPB_W00II@Z@?$dual_state_global@P6AXPB_W00II@Z@__crt_state_management@@QAAXAAY00Q6AXPB_W00II@Z@Z 1006c370 f i libucrtd:invalid_parameter.obj
 0001:0006b3c0       ?__crt_rotate_pointer_value@@YAIIH@Z 1006c3c0 f i libucrtd:invalid_parameter.obj
 0001:0006b3d0       ?dangerous_get_state_array@?$dual_state_global@P6AXPB_W00II@Z@__crt_state_management@@QAEPAP6AXPB_W00II@ZXZ 1006c3d0 f i libucrtd:invalid_parameter.obj
 0001:0006b3e0       ?get_current_state_index@__crt_state_management@@YAIXZ 1006c3e0 f i libucrtd:invalid_parameter.obj
 0001:0006b3f0       ?value@?$dual_state_global@P6AXPB_W00II@Z@__crt_state_management@@QAEAAP6AXPB_W00II@ZXZ 1006c3f0 f i libucrtd:invalid_parameter.obj
 0001:0006b410       ___acrt_call_reportfault   1006c410 f   libucrtd:invalid_parameter.obj
 0001:0006b570       ___acrt_initialize_invalid_parameter_handler 1006c570 f   libucrtd:invalid_parameter.obj
 0001:0006b5a0       __get_invalid_parameter_handler 1006c5a0 f   libucrtd:invalid_parameter.obj
 0001:0006b5c0       __get_thread_local_invalid_parameter_handler 1006c5c0 f   libucrtd:invalid_parameter.obj
 0001:0006b5f0       __invalid_parameter        1006c5f0 f   libucrtd:invalid_parameter.obj
 0001:0006b6b0       __invalid_parameter_noinfo 1006c6b0 f   libucrtd:invalid_parameter.obj
 0001:0006b6d0       __invalid_parameter_noinfo_noreturn 1006c6d0 f   libucrtd:invalid_parameter.obj
 0001:0006b700       __invoke_watson            1006c700 f   libucrtd:invalid_parameter.obj
 0001:0006b740       __set_invalid_parameter_handler 1006c740 f   libucrtd:invalid_parameter.obj
 0001:0006b790       __set_thread_local_invalid_parameter_handler 1006c790 f   libucrtd:invalid_parameter.obj
 0001:0006b7c0       ___acrt_errno_from_os_error 1006c7c0 f   libucrtd:errno.obj
 0001:0006b840       ___acrt_errno_map_os_error 1006c840 f   libucrtd:errno.obj
 0001:0006b870       ___doserrno                1006c870 f   libucrtd:errno.obj
 0001:0006b8a0       __errno                    1006c8a0 f   libucrtd:errno.obj
 0001:0006b8d0       __get_doserrno             1006c8d0 f   libucrtd:errno.obj
 0001:0006b960       __get_errno                1006c960 f   libucrtd:errno.obj
 0001:0006b9f0       __set_doserrno             1006c9f0 f   libucrtd:errno.obj
 0001:0006ba20       __set_errno                1006ca20 f   libucrtd:errno.obj
 0001:0006ba50       _calloc                    1006ca50 f   libucrtd:calloc.obj
 0001:0006ba70       __recalloc                 1006ca70 f   libucrtd:recalloc.obj
 0001:0006baa0       __recalloc_base            1006caa0 f   libucrtd:recalloc.obj
 0001:0006bb3a       __resetstkoflw             1006cb3a f   libucrtd:resetstk.obj
 0001:0006c020       _wcscat_s                  1006d020 f   libucrtd:wcscat_s.obj
 0001:0006c470       _wcsncpy_s                 1006d470 f   libucrtd:wcsncpy_s.obj
 0001:0006c4b0       ___acrt_get_locale_data_prefix 1006d4b0 f i libucrtd:_ctype.obj
 0001:0006c4d0       ___isascii                 1006d4d0 f i libucrtd:_ctype.obj
 0001:0006c500       ___iscsym                  1006d500 f i libucrtd:_ctype.obj
 0001:0006c540       ___iscsymf                 1006d540 f i libucrtd:_ctype.obj
 0001:0006c580       ___toascii                 1006d580 f i libucrtd:_ctype.obj
 0001:0006c590       __chvalidchk_l             1006d590 f i libucrtd:_ctype.obj
 0001:0006c5b0       __isalnum_l                1006d5b0 f i libucrtd:_ctype.obj
 0001:0006c5f0       __isalpha_l                1006d5f0 f i libucrtd:_ctype.obj
 0001:0006c630       __isblank_l                1006d630 f i libucrtd:_ctype.obj
 0001:0006c690       __ischartype_l             1006d690 f i libucrtd:_ctype.obj
 0001:0006c710       __iscntrl_l                1006d710 f i libucrtd:_ctype.obj
 0001:0006c750       __iscsym_l                 1006d750 f i libucrtd:_ctype.obj
 0001:0006c790       __iscsymf_l                1006d790 f i libucrtd:_ctype.obj
 0001:0006c7d0       __isdigit_l                1006d7d0 f i libucrtd:_ctype.obj
 0001:0006c810       __isgraph_l                1006d810 f i libucrtd:_ctype.obj
 0001:0006c850       __islower_l                1006d850 f i libucrtd:_ctype.obj
 0001:0006c890       __isprint_l                1006d890 f i libucrtd:_ctype.obj
 0001:0006c8d0       __ispunct_l                1006d8d0 f i libucrtd:_ctype.obj
 0001:0006c910       __isspace_l                1006d910 f i libucrtd:_ctype.obj
 0001:0006c950       __isupper_l                1006d950 f i libucrtd:_ctype.obj
 0001:0006c990       __isxdigit_l               1006d990 f i libucrtd:_ctype.obj
 0001:0006c9d0       _isalnum                   1006d9d0 f i libucrtd:_ctype.obj
 0001:0006ca10       _isalpha                   1006da10 f i libucrtd:_ctype.obj
 0001:0006ca50       _isblank                   1006da50 f i libucrtd:_ctype.obj
 0001:0006cab0       _iscntrl                   1006dab0 f i libucrtd:_ctype.obj
 0001:0006caf0       _isdigit                   1006daf0 f i libucrtd:_ctype.obj
 0001:0006cb30       _isgraph                   1006db30 f i libucrtd:_ctype.obj
 0001:0006cb70       _islower                   1006db70 f i libucrtd:_ctype.obj
 0001:0006cbb0       _isprint                   1006dbb0 f i libucrtd:_ctype.obj
 0001:0006cbf0       _ispunct                   1006dbf0 f i libucrtd:_ctype.obj
 0001:0006cc30       _isspace                   1006dc30 f i libucrtd:_ctype.obj
 0001:0006cc70       _isupper                   1006dc70 f i libucrtd:_ctype.obj
 0001:0006ccb0       _isxdigit                  1006dcb0 f i libucrtd:_ctype.obj
 0001:0006ccf0       _wcscat                    1006dcf0 f   libucrtd:wcscat.obj
 0001:0006cd50       _wcscpy                    1006dd50 f   libucrtd:wcscpy.obj
 0001:0006d3e0       ??$open_file@ABQBDABQBDABHPAU_iobuf@@@?$__crt_char_traits@D@@SAPAU_iobuf@@ABQBD0ABH$$QAPAU1@@Z 1006e3e0 f i libucrtd:fopen.obj
 0001:0006d410       ??$open_file@ABQB_WABQB_WABHPAU_iobuf@@@?$__crt_char_traits@_W@@SAPAU_iobuf@@ABQB_W0ABH$$QAPAU1@@Z 1006e410 f i libucrtd:fopen.obj
 0001:0006d440       ?unlock@__crt_stdio_stream@@QBEXXZ 1006e440 f i libucrtd:fopen.obj
 0001:0006d460       __fsopen                   1006e460 f   libucrtd:fopen.obj
 0001:0006d480       __wfopen                   1006e480 f   libucrtd:fopen.obj
 0001:0006d4a0       __wfopen_s                 1006e4a0 f   libucrtd:fopen.obj
 0001:0006d4c0       __wfsopen                  1006e4c0 f   libucrtd:fopen.obj
 0001:0006d4e0       _fopen                     1006e4e0 f   libucrtd:fopen.obj
 0001:0006d500       _fopen_s                   1006e500 f   libucrtd:fopen.obj
 0001:0006d520       ?is_in_use@__crt_stdio_stream@@QBE_NXZ 1006e520 f i libucrtd:fclose.obj
 0001:0006d560       __fclose_nolock            1006e560 f   libucrtd:fclose.obj
 0001:0006d6a0       _fclose                    1006e6a0 f   libucrtd:fclose.obj
 0001:0006d7f0       __fputc_nolock             1006e7f0 f   libucrtd:fputc.obj
 0001:0006d880       __fputchar                 1006e880 f   libucrtd:fputc.obj
 0001:0006d8a0       __putc_nolock              1006e8a0 f   libucrtd:fputc.obj
 0001:0006d8c0       _fputc                     1006e8c0 f   libucrtd:fputc.obj
 0001:0006db00       _putc                      1006eb00 f   libucrtd:fputc.obj
 0001:0006db20       _putchar                   1006eb20 f   libucrtd:fputc.obj
 0001:0006db90       __seh_filter_dll           1006eb90 f   libucrtd:exception_filter.obj
 0001:0006dbc0       __seh_filter_exe           1006ebc0 f   libucrtd:exception_filter.obj
 0001:0006ddd0       ??$?B$$A6GXPAXK0@Z@__crt_fast_encoded_nullptr_t@@QBEP6GXPAXK0@ZXZ 1006edd0 f i libucrtd:exit.obj
 0001:0006deb0       ??$__crt_fast_decode_pointer@P6GXPAXK0@Z@@YAP6GXPAXK0@ZQ6GX0K0@Z@Z 1006eeb0 f i libucrtd:exit.obj
 0001:0006dee0       ??$__crt_fast_encode_pointer@P6GXPAXK0@Z@@YAP6GXPAXK0@ZQ6GX0K0@Z@Z 1006eee0 f i libucrtd:exit.obj
 0001:0006df10       ??$__crt_get_proc_address@P6GXI@Z@@YAP6GXI@ZQAUHINSTANCE__@@QBD@Z 1006ef10 f i libucrtd:exit.obj
 0001:0006dfa0       ??0?$__crt_unique_handle_t@U__crt_hmodule_traits@@@@QAE@QAUHINSTANCE__@@@Z 1006efa0 f i libucrtd:exit.obj
 0001:0006dfc0       ??1?$__crt_unique_handle_t@U__crt_hmodule_traits@@@@QAE@XZ 1006efc0 f i libucrtd:exit.obj
 0001:0006e180       ?__acrt_select_exit_lock@@YA?AW4__acrt_lock_id@@XZ 1006f180 f i libucrtd:exit.obj
 0001:0006e190       ?__crt_fast_encode_pointer@@YA?AU__crt_fast_encoded_nullptr_t@@$$T@Z 1006f190 f i libucrtd:exit.obj
 0001:0006e1c0       ?close@?$__crt_unique_handle_t@U__crt_hmodule_traits@@@@QAEXXZ 1006f1c0 f i libucrtd:exit.obj
 0001:0006e200       ?close@__crt_hmodule_traits@@SA_NPAUHINSTANCE__@@@Z 1006f200 f i libucrtd:exit.obj
 0001:0006e2f0       ?get@?$__crt_unique_handle_t@U__crt_hmodule_traits@@@@QBEPAUHINSTANCE__@@XZ 1006f2f0 f i libucrtd:exit.obj
 0001:0006e310       ?get_address_of@?$__crt_unique_handle_t@U__crt_hmodule_traits@@@@QAEPAPAUHINSTANCE__@@XZ 1006f310 f i libucrtd:exit.obj
 0001:0006e320       ?get_invalid_value@__crt_hmodule_traits@@SAPAUHINSTANCE__@@XZ 1006f320 f i libucrtd:exit.obj
 0001:0006e4a0       __Exit                     1006f4a0 f   libucrtd:exit.obj
 0001:0006e4c0       ___acrt_initialize_thread_local_exit_callback 1006f4c0 f   libucrtd:exit.obj
 0001:0006e4d0       __c_exit                   1006f4d0 f   libucrtd:exit.obj
 0001:0006e4f0       __cexit                    1006f4f0 f   libucrtd:exit.obj
 0001:0006e510       __exit                     1006f510 f   libucrtd:exit.obj
 0001:0006e530       __is_c_termination_complete 1006f530 f   libucrtd:exit.obj
 0001:0006e550       __register_thread_local_exe_atexit_callback 1006f550 f   libucrtd:exit.obj
 0001:0006e590       _exit                      1006f590 f   libucrtd:exit.obj
 0001:0006e5b0       _quick_exit                1006f5b0 f   libucrtd:exit.obj
 0001:0006e5d0       ??$?RE@__crt_internal_free_policy@@QBEXQBE@Z 1006f5d0 f i libucrtd:argv_parsing.obj
 0001:0006e5f0       ??$?RPAD@__crt_internal_free_policy@@QBEXQBQAD@Z 1006f5f0 f i libucrtd:argv_parsing.obj
 0001:0006e610       ??$?RPA_W@__crt_internal_free_policy@@QBEXQBQA_W@Z 1006f610 f i libucrtd:argv_parsing.obj
 0001:0006eb70       ??$get_module_file_name@$$TAAY0BAF@DH@?$__crt_char_traits@D@@SAK$$QA$$TAAY0BAF@D$$QAH@Z 1006fb70 f i libucrtd:argv_parsing.obj
 0001:0006eb90       ??$get_module_file_name@$$TAAY0BAF@_WH@?$__crt_char_traits@_W@@SAK$$QA$$TAAY0BAF@_W$$QAH@Z 1006fb90 f i libucrtd:argv_parsing.obj
 0001:0006f2b0       ??$set_program_name@PAD@?$__crt_char_traits@D@@SAX$$QAPAD@Z 100702b0 f i libucrtd:argv_parsing.obj
 0001:0006f2d0       ??$set_program_name@PA_W@?$__crt_char_traits@_W@@SAX$$QAPA_W@Z 100702d0 f i libucrtd:argv_parsing.obj
 0001:0006f330       ??0?$__crt_unique_heap_ptr@EU__crt_internal_free_policy@@@@QAE@QAE@Z 10070330 f i libucrtd:argv_parsing.obj
 0001:0006f350       ??0?$__crt_unique_heap_ptr@PADU__crt_internal_free_policy@@@@QAE@QAPAD@Z 10070350 f i libucrtd:argv_parsing.obj
 0001:0006f370       ??0?$__crt_unique_heap_ptr@PA_WU__crt_internal_free_policy@@@@QAE@QAPA_W@Z 10070370 f i libucrtd:argv_parsing.obj
 0001:0006f390       ??1?$__crt_unique_heap_ptr@EU__crt_internal_free_policy@@@@QAE@XZ 10070390 f i libucrtd:argv_parsing.obj
 0001:0006f3b0       ??1?$__crt_unique_heap_ptr@PADU__crt_internal_free_policy@@@@QAE@XZ 100703b0 f i libucrtd:argv_parsing.obj
 0001:0006f3d0       ??1?$__crt_unique_heap_ptr@PA_WU__crt_internal_free_policy@@@@QAE@XZ 100703d0 f i libucrtd:argv_parsing.obj
 0001:0006f3f0       ??B?$__crt_unique_heap_ptr@EU__crt_internal_free_policy@@@@QBE_NXZ 100703f0 f i libucrtd:argv_parsing.obj
 0001:0006f4b0       ?detach@?$__crt_unique_heap_ptr@EU__crt_internal_free_policy@@@@QAEPAEXZ 100704b0 f i libucrtd:argv_parsing.obj
 0001:0006f4e0       ?detach@?$__crt_unique_heap_ptr@PADU__crt_internal_free_policy@@@@QAEPAPADXZ 100704e0 f i libucrtd:argv_parsing.obj
 0001:0006f510       ?detach@?$__crt_unique_heap_ptr@PA_WU__crt_internal_free_policy@@@@QAEPAPA_WXZ 10070510 f i libucrtd:argv_parsing.obj
 0001:0006f5a0       ?get@?$__crt_unique_heap_ptr@EU__crt_internal_free_policy@@@@QBEPAEXZ 100705a0 f i libucrtd:argv_parsing.obj
 0001:0006f5c0       ?get@?$__crt_unique_heap_ptr@PADU__crt_internal_free_policy@@@@QBEPAPADXZ 100705c0 f i libucrtd:argv_parsing.obj
 0001:0006f5e0       ?get@?$__crt_unique_heap_ptr@PA_WU__crt_internal_free_policy@@@@QBEPAPA_WXZ 100705e0 f i libucrtd:argv_parsing.obj
 0001:0006f600       ?get_address_of@?$__crt_unique_heap_ptr@PADU__crt_internal_free_policy@@@@QAEPAPAPADXZ 10070600 f i libucrtd:argv_parsing.obj
 0001:0006f610       ?get_address_of@?$__crt_unique_heap_ptr@PA_WU__crt_internal_free_policy@@@@QAEPAPAPA_WXZ 10070610 f i libucrtd:argv_parsing.obj
 0001:0006f660       ?is_valid@?$__crt_unique_heap_ptr@EU__crt_internal_free_policy@@@@QBE_NXZ 10070660 f i libucrtd:argv_parsing.obj
 0001:0006f690       ?release@?$__crt_unique_heap_ptr@EU__crt_internal_free_policy@@@@QAEXXZ 10070690 f i libucrtd:argv_parsing.obj
 0001:0006f6c0       ?release@?$__crt_unique_heap_ptr@PADU__crt_internal_free_policy@@@@QAEXXZ 100706c0 f i libucrtd:argv_parsing.obj
 0001:0006f6f0       ?release@?$__crt_unique_heap_ptr@PA_WU__crt_internal_free_policy@@@@QAEXXZ 100706f0 f i libucrtd:argv_parsing.obj
 0001:0006f760       ___acrt_allocate_buffer_for_argv 10070760 f   libucrtd:argv_parsing.obj
 0001:0006f820       __configure_narrow_argv    10070820 f   libucrtd:argv_parsing.obj
 0001:0006f840       __configure_wide_argv      10070840 f   libucrtd:argv_parsing.obj
 0001:0006f860       __set_pgmptr               10070860 f i libucrtd:argv_parsing.obj
 0001:0006f870       __set_wpgmptr              10070870 f i libucrtd:argv_parsing.obj
 0001:0006f87f       ??$?R_W@__crt_internal_free_policy@@QBEXQB_W@Z 1007087f f i libucrtd:environment_initialization.obj
 0001:0006fce8       ??$get_environment_from_os@$$V@?$__crt_char_traits@D@@SAPADXZ 10070ce8 f i libucrtd:environment_initialization.obj
 0001:0006fced       ??$get_environment_from_os@$$V@?$__crt_char_traits@_W@@SAPA_WXZ 10070ced f i libucrtd:environment_initialization.obj
 0001:0006fe16       ??$set_variable_in_environment_nolock@PADH@?$__crt_char_traits@D@@SAH$$QAPAD$$QAH@Z 10070e16 f i libucrtd:environment_initialization.obj
 0001:0006fe2e       ??$set_variable_in_environment_nolock@PA_WH@?$__crt_char_traits@_W@@SAH$$QAPA_W$$QAH@Z 10070e2e f i libucrtd:environment_initialization.obj
 0001:0006fe46       ??$tcscpy_s@PADABIAAPAD@?$__crt_char_traits@D@@SAH$$QAPADABIAAPAD@Z 10070e46 f i libucrtd:environment_initialization.obj
 0001:0006fe64       ??$tcscpy_s@PA_WABIAAPA_W@?$__crt_char_traits@_W@@SAH$$QAPA_WABIAAPA_W@Z 10070e64 f i libucrtd:environment_initialization.obj
 0001:0006fe82       ??$tcslen@AAPAD@?$__crt_char_traits@D@@SAIAAPAD@Z 10070e82 f i libucrtd:environment_initialization.obj
 0001:0006fe9a       ??$tcslen@AAPA_W@?$__crt_char_traits@_W@@SAIAAPA_W@Z 10070e9a f i libucrtd:environment_initialization.obj
 0001:0006feb8       ??$uninitialize@A6AXAAPAPAD@Z@?$dual_state_global@PAPAD@__crt_state_management@@QAEXA6AXAAPAPAD@Z@Z 10070eb8 f i libucrtd:environment_initialization.obj
 0001:0006fee1       ??$uninitialize@A6AXAAPAPA_W@Z@?$dual_state_global@PAPA_W@__crt_state_management@@QAEXA6AXAAPAPA_W@Z@Z 10070ee1 f i libucrtd:environment_initialization.obj
 0001:0006ff40       ??0?$__crt_unique_heap_ptr@_WU__crt_internal_free_policy@@@@QAE@QA_W@Z 10070f40 f i libucrtd:environment_initialization.obj
 0001:0006ff50       ??1?$__crt_unique_heap_ptr@_WU__crt_internal_free_policy@@@@QAE@XZ 10070f50 f i libucrtd:environment_initialization.obj
 0001:0006ff65       ??B?$__crt_unique_heap_ptr@PADU__crt_internal_free_policy@@@@QBE_NXZ 10070f65 f i libucrtd:environment_initialization.obj
 0001:0006ff6c       ??B?$__crt_unique_heap_ptr@PA_WU__crt_internal_free_policy@@@@QBE_NXZ 10070f6c f i libucrtd:environment_initialization.obj
 0001:0006ff73       ??B?$__crt_unique_heap_ptr@_WU__crt_internal_free_policy@@@@QBE_NXZ 10070f73 f i libucrtd:environment_initialization.obj
 0001:0006ff7a       ?__crt_compute_required_transform_buffer_count@@YAIIQBD@Z 10070f7a f i libucrtd:environment_initialization.obj
 0001:0006ff96       ?__crt_compute_required_transform_buffer_count@@YAIIQB_W@Z 10070f96 f i libucrtd:environment_initialization.obj
 0001:0006ffb4       ?__crt_transform_string@@YAIIQBDQA_WI@Z 10070fb4 f i libucrtd:environment_initialization.obj
 0001:0006ffd3       ?__crt_transform_string@@YAIIQB_WQADI@Z 10070fd3 f i libucrtd:environment_initialization.obj
 0001:0006fff5       ?detach@?$__crt_unique_heap_ptr@DU__crt_internal_free_policy@@@@QAEPADXZ 10070ff5 f i libucrtd:environment_initialization.obj
 0001:0006fffb       ?detach@?$__crt_unique_heap_ptr@_WU__crt_internal_free_policy@@@@QAEPA_WXZ 10070ffb f i libucrtd:environment_initialization.obj
 0001:00070001       ?get@?$__crt_unique_heap_ptr@_WU__crt_internal_free_policy@@@@QBEPA_WXZ 10071001 f i libucrtd:environment_initialization.obj
 0001:00070028       ?initialize@?$dual_state_global@PAPAD@__crt_state_management@@QAEXQAPAD@Z 10071028 f i libucrtd:environment_initialization.obj
 0001:0007004e       ?initialize@?$dual_state_global@PAPA_W@__crt_state_management@@QAEXQAPA_W@Z 1007104e f i libucrtd:environment_initialization.obj
 0001:00070074       ?is_valid@?$__crt_unique_heap_ptr@PADU__crt_internal_free_policy@@@@QBE_NXZ 10071074 f i libucrtd:environment_initialization.obj
 0001:0007007b       ?is_valid@?$__crt_unique_heap_ptr@PA_WU__crt_internal_free_policy@@@@QBE_NXZ 1007107b f i libucrtd:environment_initialization.obj
 0001:00070082       ?is_valid@?$__crt_unique_heap_ptr@_WU__crt_internal_free_policy@@@@QBE_NXZ 10071082 f i libucrtd:environment_initialization.obj
 0001:00070091       ?release@?$__crt_unique_heap_ptr@_WU__crt_internal_free_policy@@@@QAEXXZ 10071091 f i libucrtd:environment_initialization.obj
 0001:000700a6       ?value@?$dual_state_global@PAPAD@__crt_state_management@@QAEAAPAPADXZ 100710a6 f i libucrtd:environment_initialization.obj
 0001:000700a9       ?value@?$dual_state_global@PAPA_W@__crt_state_management@@QAEAAPAPA_WXZ 100710a9 f i libucrtd:environment_initialization.obj
 0001:000700ac       ___dcrt_get_or_create_narrow_environment_nolock 100710ac f   libucrtd:environment_initialization.obj
 0001:000700b1       ___dcrt_get_or_create_wide_environment_nolock 100710b1 f   libucrtd:environment_initialization.obj
 0001:000700b6       ___dcrt_uninitialize_environments_nolock 100710b6 f   libucrtd:environment_initialization.obj
 0001:000700ed       ___p__environ              100710ed f   libucrtd:environment_initialization.obj
 0001:000700f3       ___p__wenviron             100710f3 f   libucrtd:environment_initialization.obj
 0001:000700f9       __get_initial_narrow_environment 100710f9 f   libucrtd:environment_initialization.obj
 0001:0007010d       __get_initial_wide_environment 1007110d f   libucrtd:environment_initialization.obj
 0001:00070121       __initialize_narrow_environment 10071121 f   libucrtd:environment_initialization.obj
 0001:00070126       __initialize_wide_environment 10071126 f   libucrtd:environment_initialization.obj
 0001:00070130       ??$?B$$A6AXXZ@__crt_fast_encoded_nullptr_t@@QBEP6AXXZXZ 10071130 f i libucrtd:onexit.obj
 0001:00070150       ??$?BP6AXXZ@__crt_fast_encoded_nullptr_t@@QBEPAP6AXXZXZ 10071150 f i libucrtd:onexit.obj
 0001:00070170       ??$?RP6AXXZ@__crt_internal_free_policy@@QBEXQBQ6AXXZ@Z 10071170 f i libucrtd:onexit.obj
 0001:00070330       ??$__crt_fast_decode_pointer@P6AXXZ@@YAP6AXXZQ6AXXZ@Z 10071330 f i libucrtd:onexit.obj
 0001:00070360       ??$__crt_fast_decode_pointer@PAP6AXXZ@@YAPAP6AXXZQAP6AXXZ@Z 10071360 f i libucrtd:onexit.obj
 0001:00070390       ??$__crt_fast_encode_pointer@P6AHXZ@@YAP6AHXZQ6AHXZ@Z 10071390 f i libucrtd:onexit.obj
 0001:000703c0       ??$__crt_fast_encode_pointer@P6AXXZ@@YAP6AXXZQ6AXXZ@Z 100713c0 f i libucrtd:onexit.obj
 0001:000703f0       ??$__crt_fast_encode_pointer@PAP6AXXZ@@YAPAP6AXXZQAP6AXXZ@Z 100713f0 f i libucrtd:onexit.obj
 0001:000704f0       ??0?$__crt_unique_heap_ptr@P6AXXZU__crt_internal_free_policy@@@@QAE@QAP6AXXZ@Z 100714f0 f i libucrtd:onexit.obj
 0001:00070510       ??1?$__crt_unique_heap_ptr@P6AXXZU__crt_internal_free_policy@@@@QAE@XZ 10071510 f i libucrtd:onexit.obj
 0001:00070530       ??1scoped_global_state_reset@__crt_state_management@@QAE@XZ 10071530 f i libucrtd:onexit.obj
 0001:000709a0       ?detach@?$__crt_unique_heap_ptr@P6AXXZU__crt_internal_free_policy@@@@QAEPAP6AXXZXZ 100719a0 f i libucrtd:onexit.obj
 0001:000709d0       ?release@?$__crt_unique_heap_ptr@P6AXXZU__crt_internal_free_policy@@@@QAEXXZ 100719d0 f i libucrtd:onexit.obj
 0001:00070a00       __crt_at_quick_exit        10071a00 f   libucrtd:onexit.obj
 0001:00070a20       __crt_atexit               10071a20 f   libucrtd:onexit.obj
 0001:00070a40       __execute_onexit_table     10071a40 f   libucrtd:onexit.obj
 0001:00070a70       __initialize_onexit_table  10071a70 f   libucrtd:onexit.obj
 0001:00070ad0       __register_onexit_function 10071ad0 f   libucrtd:onexit.obj
 0001:00070d10       ??$?BX@__crt_fast_encoded_nullptr_t@@QBEPAXXZ 10071d10 f i libucrtd:initialization.obj
 0001:00070d30       ??$__crt_fast_encode_pointer@PAX@@YAPAXQAX@Z 10071d30 f i libucrtd:initialization.obj
 0001:00070df0       ?initialize@?$dual_state_global@PAU__crt_locale_data@@@__crt_state_management@@QAEXQAU__crt_locale_data@@@Z 10071df0 f i libucrtd:initialization.obj
 0001:00070e30       ___acrt_initialize         10071e30 f   libucrtd:initialization.obj
 0001:00070e50       ___acrt_thread_attach      10071e50 f   libucrtd:initialization.obj
 0001:00070e70       ___acrt_thread_detach      10071e70 f   libucrtd:initialization.obj
 0001:00070e80       ___acrt_uninitialize       10071e80 f   libucrtd:initialization.obj
 0001:00070ea0       ___acrt_uninitialize_critical 10071ea0 f   libucrtd:initialization.obj
 0001:00072710       __CrtCheckMemory           10073710 f   libucrtd:debug_heap.obj
 0001:000728a0       __CrtDoForAllClientObjects 100738a0 f   libucrtd:debug_heap.obj
 0001:000729f0       __CrtDumpMemoryLeaks       100739f0 f   libucrtd:debug_heap.obj
 0001:00072a90       __CrtGetAllocHook          10073a90 f   libucrtd:debug_heap.obj
 0001:00072aa0       __CrtGetDumpClient         10073aa0 f   libucrtd:debug_heap.obj
 0001:00072ab0       __CrtIsMemoryBlock         10073ab0 f   libucrtd:debug_heap.obj
 0001:00072c00       __CrtIsValidHeapPointer    10073c00 f   libucrtd:debug_heap.obj
 0001:00072c30       __CrtIsValidPointer        10073c30 f   libucrtd:debug_heap.obj
 0001:00072c60       __CrtMemCheckpoint         10073c60 f   libucrtd:debug_heap.obj
 0001:00072e90       __CrtMemDifference         10073e90 f   libucrtd:debug_heap.obj
 0001:00073100       __CrtMemDumpAllObjectsSince 10074100 f   libucrtd:debug_heap.obj
 0001:000731a0       __CrtMemDumpStatistics     100741a0 f   libucrtd:debug_heap.obj
 0001:000732d0       __CrtReportBlockType       100742d0 f   libucrtd:debug_heap.obj
 0001:00073300       __CrtSetAllocHook          10074300 f   libucrtd:debug_heap.obj
 0001:00073320       __CrtSetBreakAlloc         10074320 f   libucrtd:debug_heap.obj
 0001:00073340       __CrtSetDbgBlockType       10074340 f   libucrtd:debug_heap.obj
 0001:00073420       __CrtSetDbgFlag            10074420 f   libucrtd:debug_heap.obj
 0001:00073590       __CrtSetDumpClient         10074590 f   libucrtd:debug_heap.obj
 0001:000735b0       ___p__crtBreakAlloc        100745b0 f   libucrtd:debug_heap.obj
 0001:000735c0       ___p__crtDbgFlag           100745c0 f   libucrtd:debug_heap.obj
 0001:000735d0       __aligned_free_dbg         100745d0 f   libucrtd:debug_heap.obj
 0001:00073680       __aligned_malloc_dbg       10074680 f   libucrtd:debug_heap.obj
 0001:000736b0       __aligned_msize_dbg        100746b0 f   libucrtd:debug_heap.obj
 0001:000737e0       __aligned_offset_malloc_dbg 100747e0 f   libucrtd:debug_heap.obj
 0001:000739c0       __aligned_offset_realloc_dbg 100749c0 f   libucrtd:debug_heap.obj
 0001:00073cd0       __aligned_offset_recalloc_dbg 10074cd0 f   libucrtd:debug_heap.obj
 0001:00073d90       __aligned_realloc_dbg      10074d90 f   libucrtd:debug_heap.obj
 0001:00073dc0       __aligned_recalloc_dbg     10074dc0 f   libucrtd:debug_heap.obj
 0001:00073df0       __calloc_dbg               10074df0 f   libucrtd:debug_heap.obj
 0001:00073e60       __expand_dbg               10074e60 f   libucrtd:debug_heap.obj
 0001:00073f90       __free_dbg                 10074f90 f   libucrtd:debug_heap.obj
 0001:00074040       __malloc_dbg               10075040 f   libucrtd:debug_heap.obj
 0001:00074060       __msize_dbg                10075060 f   libucrtd:debug_heap.obj
 0001:000741f0       __realloc_dbg              100751f0 f   libucrtd:debug_heap.obj
 0001:00074290       __recalloc_dbg             10075290 f   libucrtd:debug_heap.obj
 0001:00074340       __initterm                 10075340 f   libucrtd:initterm.obj
 0001:00074390       __initterm_e               10075390 f   libucrtd:initterm.obj
 0001:00074700       _strcpy_s                  10075700 f   libucrtd:strcpy_s.obj
 0001:00074b30       _strcat_s                  10075b30 f   libucrtd:strcat_s.obj
 0001:00074b50       ??$?B$$A6AHI@Z@__crt_fast_encoded_nullptr_t@@QBEP6AHI@ZXZ 10075b50 f i libucrtd:new_handler.obj
 0001:00074b70       ??$__crt_fast_decode_pointer@P6AHI@Z@@YAP6AHI@ZQ6AHI@Z@Z 10075b70 f i libucrtd:new_handler.obj
 0001:00074ba0       ??$__crt_fast_encode_pointer@P6AHI@Z@@YAP6AHI@ZQ6AHI@Z@Z 10075ba0 f i libucrtd:new_handler.obj
 0001:00074bd0       ?_set_new_handler@@YAP6AHI@ZH@Z 10075bd0 f   libucrtd:new_handler.obj
 0001:00074c30       ?initialize@?$dual_state_global@P6AHI@Z@__crt_state_management@@QAEXQ6AHI@Z@Z 10075c30 f i libucrtd:new_handler.obj
 0001:00074c70       ?value@?$dual_state_global@P6AHI@Z@__crt_state_management@@QAEAAP6AHI@ZXZ 10075c70 f i libucrtd:new_handler.obj
 0001:00074c90       ___acrt_initialize_new_handler 10075c90 f   libucrtd:new_handler.obj
 0001:00074cb0       __callnewh                 10075cb0 f   libucrtd:new_handler.obj
 0001:00074cf0       __query_new_handler        10075cf0 f   libucrtd:new_handler.obj
 0001:00074d80       __set_new_handler          10075d80 f   libucrtd:new_handler.obj
 0001:00074e60       __get_terminate            10075e60 f   libucrtd:terminate.obj
 0001:00074e80       _set_terminate             10075e80 f   libucrtd:terminate.obj
 0001:00074eb0       _terminate                 10075eb0 f   libucrtd:terminate.obj
 0001:00075880       __makepath                 10076880 f   libucrtd:makepath.obj
 0001:000758b0       __makepath_s               100768b0 f   libucrtd:makepath.obj
 0001:000758e0       __wmakepath                100768e0 f   libucrtd:makepath.obj
 0001:00075910       __wmakepath_s              10076910 f   libucrtd:makepath.obj
 0001:00077260       ??$tcsncpy_s@AAPADIAAPBDABI@?$__crt_char_traits@D@@SAHAAPAD$$QAIAAPBDABI@Z 10078260 f i libucrtd:splitpath.obj
 0001:00077290       ??$tcsncpy_s@AAPADIAAPBDH@?$__crt_char_traits@D@@SAHAAPAD$$QAIAAPBD$$QAH@Z 10078290 f i libucrtd:splitpath.obj
 0001:000772c0       ??$tcsncpy_s@AAPA_WIAAPB_WABI@?$__crt_char_traits@_W@@SAHAAPA_W$$QAIAAPB_WABI@Z 100782c0 f i libucrtd:splitpath.obj
 0001:000772f0       ??$tcsncpy_s@AAPA_WIAAPB_WH@?$__crt_char_traits@_W@@SAHAAPA_W$$QAIAAPB_W$$QAH@Z 100782f0 f i libucrtd:splitpath.obj
 0001:00077530       __splitpath                10078530 f   libucrtd:splitpath.obj
 0001:00077560       __splitpath_s              10078560 f   libucrtd:splitpath.obj
 0001:000775b0       __wsplitpath               100785b0 f   libucrtd:splitpath.obj
 0001:000775e0       __wsplitpath_s             100785e0 f   libucrtd:splitpath.obj
 0001:00077630       __set_abort_behavior       10078630 f   libucrtd:abort.obj
 0001:00077660       _abort                     10078660 f   libucrtd:abort.obj
 0001:000776d0       _strcmp                    100786d0 f   libucrtd:strcmp.obj
 0001:00077760       _strlen                    10078760 f   libucrtd:strlen.obj
 0001:000777f0       ??$is_overflow_condition@K@__crt_strtox@@YA_NIK@Z 100787f0 f i libucrtd:atox.obj
 0001:00077850       ??$is_overflow_condition@_K@__crt_strtox@@YA_NI_K@Z 10078850 f i libucrtd:atox.obj
 0001:000778e0       ??$make_c_string_character_source@D$$T@__crt_strtox@@YA?AV?$c_string_character_source@D@0@QBD$$T@Z 100788e0 f i libucrtd:atox.obj
 0001:00077900       ??$make_c_string_character_source@_W$$T@__crt_strtox@@YA?AV?$c_string_character_source@_W@0@QB_W$$T@Z 10078900 f i libucrtd:atox.obj
 0001:00077920       ??$parse_integer@KV?$c_string_character_source@D@__crt_strtox@@@__crt_strtox@@YAKQAU__crt_locale_pointers@@V?$c_string_character_source@D@0@H_N@Z 10078920 f i libucrtd:atox.obj
 0001:00077c90       ??$parse_integer@KV?$c_string_character_source@_W@__crt_strtox@@@__crt_strtox@@YAKQAU__crt_locale_pointers@@V?$c_string_character_source@_W@0@H_N@Z 10078c90 f i libucrtd:atox.obj
 0001:00078000       ??$parse_integer@_KV?$c_string_character_source@D@__crt_strtox@@@__crt_strtox@@YA_KQAU__crt_locale_pointers@@V?$c_string_character_source@D@0@H_N@Z 10079000 f i libucrtd:atox.obj
 0001:00078420       ??$parse_integer@_KV?$c_string_character_source@_W@__crt_strtox@@@__crt_strtox@@YA_KQAU__crt_locale_pointers@@V?$c_string_character_source@_W@0@H_N@Z 10079420 f i libucrtd:atox.obj
 0001:00078850       ??$parse_integer_from_string@JD$$T@__crt_strtox@@YAJQBD$$THQAU__crt_locale_pointers@@@Z 10079850 f i libucrtd:atox.obj
 0001:00078890       ??$parse_integer_from_string@J_W$$T@__crt_strtox@@YAJQB_W$$THQAU__crt_locale_pointers@@@Z 10079890 f i libucrtd:atox.obj
 0001:000788d0       ??$parse_integer_from_string@_JD$$T@__crt_strtox@@YA_JQBD$$THQAU__crt_locale_pointers@@@Z 100798d0 f i libucrtd:atox.obj
 0001:00078910       ??$parse_integer_from_string@_J_W$$T@__crt_strtox@@YA_JQB_W$$THQAU__crt_locale_pointers@@@Z 10079910 f i libucrtd:atox.obj
 0001:00078950       ??0?$c_string_character_source@D@__crt_strtox@@QAE@QBDQAPBD@Z 10079950 f i libucrtd:atox.obj
 0001:00078990       ??0?$c_string_character_source@_W@__crt_strtox@@QAE@QB_WQAPB_W@Z 10079990 f i libucrtd:atox.obj
 0001:000789d0       ??1?$c_string_character_source@D@__crt_strtox@@QAE@XZ 100799d0 f i libucrtd:atox.obj
 0001:00078a00       ??1?$c_string_character_source@_W@__crt_strtox@@QAE@XZ 10079a00 f i libucrtd:atox.obj
 0001:00078a30       ?get@?$c_string_character_source@D@__crt_strtox@@QAEDXZ 10079a30 f i libucrtd:atox.obj
 0001:00078a60       ?get@?$c_string_character_source@_W@__crt_strtox@@QAE_WXZ 10079a60 f i libucrtd:atox.obj
 0001:00078a90       ?is_space@__crt_strtox@@YA_NDQAU__crt_locale_pointers@@@Z 10079a90 f i libucrtd:atox.obj
 0001:00078ad0       ?is_space@__crt_strtox@@YA_N_WPAU__crt_locale_pointers@@@Z 10079ad0 f i libucrtd:atox.obj
 0001:00078b00       ?maximum_signed_value@__crt_strtox@@YAJK@Z 10079b00 f i libucrtd:atox.obj
 0001:00078b10       ?maximum_signed_value@__crt_strtox@@YA_J_K@Z 10079b10 f i libucrtd:atox.obj
 0001:00078b20       ?minimum_signed_value@__crt_strtox@@YAJK@Z 10079b20 f i libucrtd:atox.obj
 0001:00078b30       ?minimum_signed_value@__crt_strtox@@YA_J_K@Z 10079b30 f i libucrtd:atox.obj
 0001:00078b40       ?parse_digit@__crt_strtox@@YAID@Z 10079b40 f i libucrtd:atox.obj
 0001:00078ba0       ?parse_digit@__crt_strtox@@YAI_W@Z 10079ba0 f i libucrtd:atox.obj
 0001:00078bf0       ?restore_state@?$c_string_character_source@D@__crt_strtox@@QAE_NQBD@Z 10079bf0 f i libucrtd:atox.obj
 0001:00078c10       ?restore_state@?$c_string_character_source@_W@__crt_strtox@@QAE_NQB_W@Z 10079c10 f i libucrtd:atox.obj
 0001:00078c30       ?save_state@?$c_string_character_source@D@__crt_strtox@@QBEPBDXZ 10079c30 f i libucrtd:atox.obj
 0001:00078c50       ?save_state@?$c_string_character_source@_W@__crt_strtox@@QBEPB_WXZ 10079c50 f i libucrtd:atox.obj
 0001:00078c70       ?unget@?$c_string_character_source@D@__crt_strtox@@QAEXD@Z 10079c70 f i libucrtd:atox.obj
 0001:00078d20       ?unget@?$c_string_character_source@_W@__crt_strtox@@QAEX_W@Z 10079d20 f i libucrtd:atox.obj
 0001:00078dd0       ?validate@?$c_string_character_source@D@__crt_strtox@@QBE_NXZ 10079dd0 f i libucrtd:atox.obj
 0001:00078e60       ?validate@?$c_string_character_source@_W@__crt_strtox@@QBE_NXZ 10079e60 f i libucrtd:atox.obj
 0001:00078ef0       ?wide_character_to_digit@__crt_strtox@@YAH_W@Z 10079ef0 f i libucrtd:atox.obj
 0001:00079220       ___ascii_iswalpha          1007a220 f i libucrtd:atox.obj
 0001:00079260       ___ascii_toupper           1007a260 f i libucrtd:atox.obj
 0001:00079280       ___ascii_towupper          1007a280 f i libucrtd:atox.obj
 0001:000792a0       __atoi64                   1007a2a0 f   libucrtd:atox.obj
 0001:000792c0       __atoi64_l                 1007a2c0 f   libucrtd:atox.obj
 0001:000792e0       __atoi_l                   1007a2e0 f   libucrtd:atox.obj
 0001:00079300       __atol_l                   1007a300 f   libucrtd:atox.obj
 0001:00079320       __atoll_l                  1007a320 f   libucrtd:atox.obj
 0001:00079340       __wtoi                     1007a340 f   libucrtd:atox.obj
 0001:00079360       __wtoi64                   1007a360 f   libucrtd:atox.obj
 0001:00079380       __wtoi64_l                 1007a380 f   libucrtd:atox.obj
 0001:000793a0       __wtoi_l                   1007a3a0 f   libucrtd:atox.obj
 0001:000793c0       __wtol                     1007a3c0 f   libucrtd:atox.obj
 0001:000793e0       __wtol_l                   1007a3e0 f   libucrtd:atox.obj
 0001:00079400       __wtoll                    1007a400 f   libucrtd:atox.obj
 0001:00079420       __wtoll_l                  1007a420 f   libucrtd:atox.obj
 0001:00079440       _atoi                      1007a440 f   libucrtd:atox.obj
 0001:00079460       _atol                      1007a460 f   libucrtd:atox.obj
 0001:00079480       _atoll                     1007a480 f   libucrtd:atox.obj
 0001:000794a0       _strncmp                   1007a4a0 f   libucrtd:strncmp.obj
 0001:00079520       _wcsncmp                   1007a520 f   libucrtd:wcsncmp.obj
 0001:00079580       __CrtGetDebugFillThreshold 1007a580 f   libucrtd:debug_fill_threshold.obj
 0001:00079590       __CrtSetDebugFillThreshold 1007a590 f   libucrtd:debug_fill_threshold.obj
 0001:000795b0       ??$make_c_string_character_source@DPAPAD@__crt_strtox@@YA?AV?$c_string_character_source@D@0@QBDQAPAD@Z 1007a5b0 f i libucrtd:strtox.obj
 0001:000795d0       ??$make_c_string_character_source@_WPAPA_W@__crt_strtox@@YA?AV?$c_string_character_source@_W@0@QB_WQAPA_W@Z 1007a5d0 f i libucrtd:strtox.obj
 0001:000795f0       ??$parse_integer_from_string@JDPAPAD@__crt_strtox@@YAJQBDQAPADHQAU__crt_locale_pointers@@@Z 1007a5f0 f i libucrtd:strtox.obj
 0001:00079630       ??$parse_integer_from_string@J_WPAPA_W@__crt_strtox@@YAJQB_WQAPA_WHQAU__crt_locale_pointers@@@Z 1007a630 f i libucrtd:strtox.obj
 0001:00079670       ??$parse_integer_from_string@KDPAPAD@__crt_strtox@@YAKQBDQAPADHQAU__crt_locale_pointers@@@Z 1007a670 f i libucrtd:strtox.obj
 0001:000796b0       ??$parse_integer_from_string@K_WPAPA_W@__crt_strtox@@YAKQB_WQAPA_WHQAU__crt_locale_pointers@@@Z 1007a6b0 f i libucrtd:strtox.obj
 0001:000796f0       ??$parse_integer_from_string@_JDPAPAD@__crt_strtox@@YA_JQBDQAPADHQAU__crt_locale_pointers@@@Z 1007a6f0 f i libucrtd:strtox.obj
 0001:00079730       ??$parse_integer_from_string@_J_WPAPA_W@__crt_strtox@@YA_JQB_WQAPA_WHQAU__crt_locale_pointers@@@Z 1007a730 f i libucrtd:strtox.obj
 0001:00079770       ??$parse_integer_from_string@_KDPAPAD@__crt_strtox@@YA_KQBDQAPADHQAU__crt_locale_pointers@@@Z 1007a770 f i libucrtd:strtox.obj
 0001:000797b0       ??$parse_integer_from_string@_K_WPAPA_W@__crt_strtox@@YA_KQB_WQAPA_WHQAU__crt_locale_pointers@@@Z 1007a7b0 f i libucrtd:strtox.obj
 0001:000797f0       __strtoi64                 1007a7f0 f   libucrtd:strtox.obj
 0001:00079810       __strtoi64_l               1007a810 f   libucrtd:strtox.obj
 0001:00079830       __strtoimax_l              1007a830 f   libucrtd:strtox.obj
 0001:00079850       __strtol_l                 1007a850 f   libucrtd:strtox.obj
 0001:00079870       __strtoll_l                1007a870 f   libucrtd:strtox.obj
 0001:00079890       __strtoui64                1007a890 f   libucrtd:strtox.obj
 0001:000798b0       __strtoui64_l              1007a8b0 f   libucrtd:strtox.obj
 0001:000798d0       __strtoul_l                1007a8d0 f   libucrtd:strtox.obj
 0001:000798f0       __strtoull_l               1007a8f0 f   libucrtd:strtox.obj
 0001:00079910       __strtoumax_l              1007a910 f   libucrtd:strtox.obj
 0001:00079930       __wcstoi64                 1007a930 f   libucrtd:strtox.obj
 0001:00079950       __wcstoi64_l               1007a950 f   libucrtd:strtox.obj
 0001:00079970       __wcstoimax_l              1007a970 f   libucrtd:strtox.obj
 0001:00079990       __wcstol_l                 1007a990 f   libucrtd:strtox.obj
 0001:000799b0       __wcstoll_l                1007a9b0 f   libucrtd:strtox.obj
 0001:000799d0       __wcstoui64                1007a9d0 f   libucrtd:strtox.obj
 0001:000799f0       __wcstoui64_l              1007a9f0 f   libucrtd:strtox.obj
 0001:00079a10       __wcstoul_l                1007aa10 f   libucrtd:strtox.obj
 0001:00079a30       __wcstoull_l               1007aa30 f   libucrtd:strtox.obj
 0001:00079a50       __wcstoumax_l              1007aa50 f   libucrtd:strtox.obj
 0001:00079a70       _strtoimax                 1007aa70 f   libucrtd:strtox.obj
 0001:00079a90       _strtol                    1007aa90 f   libucrtd:strtox.obj
 0001:00079ab0       _strtoll                   1007aab0 f   libucrtd:strtox.obj
 0001:00079ad0       _strtoul                   1007aad0 f   libucrtd:strtox.obj
 0001:00079af0       _strtoull                  1007aaf0 f   libucrtd:strtox.obj
 0001:00079b10       _strtoumax                 1007ab10 f   libucrtd:strtox.obj
 0001:00079b30       _wcstoimax                 1007ab30 f   libucrtd:strtox.obj
 0001:00079b50       _wcstol                    1007ab50 f   libucrtd:strtox.obj
 0001:00079b70       _wcstoll                   1007ab70 f   libucrtd:strtox.obj
 0001:00079b90       _wcstoul                   1007ab90 f   libucrtd:strtox.obj
 0001:00079bb0       _wcstoull                  1007abb0 f   libucrtd:strtox.obj
 0001:00079bd0       _wcstoumax                 1007abd0 f   libucrtd:strtox.obj
 0001:00079bf0       __mbtowc_l                 1007abf0 f   libucrtd:mbtowc.obj
 0001:00079f10       _mbtowc                    1007af10 f   libucrtd:mbtowc.obj
 0001:00079f30       __wctomb_l                 1007af30 f   libucrtd:wctomb.obj
 0001:00079fb0       __wctomb_s_l               1007afb0 f   libucrtd:wctomb.obj
 0001:0007a370       _wctomb                    1007b370 f   libucrtd:wctomb.obj
 0001:0007a3c0       _wctomb_s                  1007b3c0 f   libucrtd:wctomb.obj
 0001:0007a3f0       ??$?RU__acrt_ptd@@@__crt_internal_free_policy@@QBEXQBU__acrt_ptd@@@Z 1007b3f0 f i libucrtd:per_thread_data.obj
 0001:0007a8a0       ??0?$__crt_unique_heap_ptr@U__acrt_ptd@@U__crt_internal_free_policy@@@@QAE@QAU__acrt_ptd@@@Z 1007b8a0 f i libucrtd:per_thread_data.obj
 0001:0007a8c0       ??0__crt_scoped_get_last_error_reset@@QAE@XZ 1007b8c0 f i libucrtd:per_thread_data.obj
 0001:0007a8e0       ??1?$__crt_unique_heap_ptr@U__acrt_ptd@@U__crt_internal_free_policy@@@@QAE@XZ 1007b8e0 f i libucrtd:per_thread_data.obj
 0001:0007a900       ??1__crt_scoped_get_last_error_reset@@QAE@XZ 1007b900 f i libucrtd:per_thread_data.obj
 0001:0007a920       ??B?$__crt_unique_heap_ptr@U__acrt_ptd@@U__crt_internal_free_policy@@@@QBE_NXZ 1007b920 f i libucrtd:per_thread_data.obj
 0001:0007ac00       ?dangerous_get_state_array@?$dual_state_global@PAU__crt_locale_data@@@__crt_state_management@@QAEPAPAU__crt_locale_data@@XZ 1007bc00 f i libucrtd:per_thread_data.obj
 0001:0007ad80       ?detach@?$__crt_unique_heap_ptr@U__acrt_ptd@@U__crt_internal_free_policy@@@@QAEPAU__acrt_ptd@@XZ 1007bd80 f i libucrtd:per_thread_data.obj
 0001:0007adb0       ?get@?$__crt_unique_heap_ptr@U__acrt_ptd@@U__crt_internal_free_policy@@@@QBEPAU__acrt_ptd@@XZ 1007bdb0 f i libucrtd:per_thread_data.obj
 0001:0007add0       ?get_current_state_index@__crt_state_management@@YAIABV__crt_scoped_get_last_error_reset@@@Z 1007bdd0 f i libucrtd:per_thread_data.obj
 0001:0007af40       ?is_valid@?$__crt_unique_heap_ptr@U__acrt_ptd@@U__crt_internal_free_policy@@@@QBE_NXZ 1007bf40 f i libucrtd:per_thread_data.obj
 0001:0007af70       ?release@?$__crt_unique_heap_ptr@U__acrt_ptd@@U__crt_internal_free_policy@@@@QAEXXZ 1007bf70 f i libucrtd:per_thread_data.obj
 0001:0007b060       ?value@?$dual_state_global@PAU__crt_locale_data@@@__crt_state_management@@QAEAAPAU__crt_locale_data@@XZ 1007c060 f i libucrtd:per_thread_data.obj
 0001:0007b080       ___acrt_freeptd            1007c080 f   libucrtd:per_thread_data.obj
 0001:0007b0b0       ___acrt_getptd             1007c0b0 f   libucrtd:per_thread_data.obj
 0001:0007b0d0       ___acrt_getptd_head        1007c0d0 f   libucrtd:per_thread_data.obj
 0001:0007b0f0       ___acrt_getptd_noexit      1007c0f0 f   libucrtd:per_thread_data.obj
 0001:0007b100       ___acrt_initialize_ptd     1007c100 f   libucrtd:per_thread_data.obj
 0001:0007b140       ___acrt_uninitialize_ptd   1007c140 f   libucrtd:per_thread_data.obj
 0001:0007b170       ___threadhandle            1007c170 f   libucrtd:per_thread_data.obj
 0001:0007b180       ___threadid                1007c180 f   libucrtd:per_thread_data.obj
 0001:0007b190       ?value@?$dual_state_global@PAU__crt_multibyte_data@@@__crt_state_management@@QAEAAPAU__crt_multibyte_data@@XZ 1007c190 f i libucrtd:locale_update.obj
 0001:0007b1b0       ___acrt_update_locale_info 1007c1b0 f   libucrtd:locale_update.obj
 0001:0007b1f0       ___acrt_update_multibyte_info 1007c1f0 f   libucrtd:locale_update.obj
 0001:0007b230       ?__acrt_fp_classify@@YA?AW4__acrt_fp_class@@ABN@Z 1007c230 f i libucrtd:cvt.obj
 0001:0007b350       ?__acrt_fp_is_negative@@YA_NABN@Z 1007c350 f i libucrtd:cvt.obj
 0001:0007c3a0       ?strrchr@@YAPADQADH@Z      1007d3a0 f i libucrtd:cvt.obj
 0001:0007c3c0       ___acrt_fp_format          1007d3c0 f   libucrtd:cvt.obj
 0001:0007c850       __fputwc_nolock            1007d850 f   libucrtd:fputwc.obj
 0001:0007ca40       __fputwchar                1007da40 f   libucrtd:fputwc.obj
 0001:0007ca60       __putwc_nolock             1007da60 f   libucrtd:fputwc.obj
 0001:0007ca80       _fputwc                    1007da80 f   libucrtd:fputwc.obj
 0001:0007cb90       _putwc                     1007db90 f   libucrtd:fputwc.obj
 0001:0007cbb0       _putwchar                  1007dbb0 f   libucrtd:fputwc.obj
 0001:0007cbd0       ?lowio_handle@__crt_stdio_stream@@QBEHXZ 1007dbd0 f i libucrtd:fileno.obj
 0001:0007cbf0       __fileno                   1007dbf0 f   libucrtd:fileno.obj
 0001:0007cc90       ??$?RPAU__crt_stdio_stream_data@@@__crt_internal_free_policy@@QBEXQBQAU__crt_stdio_stream_data@@@Z 1007dc90 f i libucrtd:_file.obj
 0001:0007ccb0       ??0?$__crt_unique_heap_ptr@PAU__crt_stdio_stream_data@@U__crt_internal_free_policy@@@@QAE@QAPAU__crt_stdio_stream_data@@@Z 1007dcb0 f i libucrtd:_file.obj
 0001:0007ccd0       ??1?$__crt_unique_heap_ptr@PAU__crt_stdio_stream_data@@U__crt_internal_free_policy@@@@QAE@XZ 1007dcd0 f i libucrtd:_file.obj
 0001:0007ccf0       ?detach@?$__crt_unique_heap_ptr@PAU__crt_stdio_stream_data@@U__crt_internal_free_policy@@@@QAEPAPAU__crt_stdio_stream_data@@XZ 1007dcf0 f i libucrtd:_file.obj
 0001:0007cd20       ?release@?$__crt_unique_heap_ptr@PAU__crt_stdio_stream_data@@U__crt_internal_free_policy@@@@QAEXXZ 1007dd20 f i libucrtd:_file.obj
 0001:0007cd50       ___acrt_initialize_stdio   1007dd50 f   libucrtd:_file.obj
 0001:0007cec0       ___acrt_iob_func           1007dec0 f   libucrtd:_file.obj
 0001:0007ced0       ___acrt_uninitialize_stdio 1007ded0 f   libucrtd:_file.obj
 0001:0007cf50       __get_stream_buffer_pointers 1007df50 f   libucrtd:_file.obj
 0001:0007d030       __lock_file                1007e030 f   libucrtd:_file.obj
 0001:0007d060       __unlock_file              1007e060 f   libucrtd:_file.obj
 0001:0007d090       __get_printf_count_output  1007e090 f   libucrtd:printf_count_output.obj
 0001:0007d0c0       __set_printf_count_output  1007e0c0 f   libucrtd:printf_count_output.obj
 0001:0007d120       ?has_any_buffer@__crt_stdio_stream@@QBE_NXZ 1007e120 f i libucrtd:_sftbuf.obj
 0001:0007d140       ?has_any_of@__crt_stdio_stream@@QBE_NJ@Z 1007e140 f i libucrtd:_sftbuf.obj
 0001:0007d180       ?has_temporary_buffer@__crt_stdio_stream@@QBE_NXZ 1007e180 f i libucrtd:_sftbuf.obj
 0001:0007d1a0       ?set_flags@__crt_stdio_stream@@QBE_NJ@Z 1007e1a0 f i libucrtd:_sftbuf.obj
 0001:0007d1f0       ?unset_flags@__crt_stdio_stream@@QBE_NJ@Z 1007e1f0 f i libucrtd:_sftbuf.obj
 0001:0007d240       ___acrt_stdio_begin_temporary_buffering_nolock 1007e240 f   libucrtd:_sftbuf.obj
 0001:0007d400       ___acrt_stdio_end_temporary_buffering_nolock 1007e400 f   libucrtd:_sftbuf.obj
 0001:0007d490       ??$?RU__crt_locale_data@@@__crt_internal_free_policy@@QBEXQBU__crt_locale_data@@@Z 1007e490 f i libucrtd:wsetlocale.obj
 0001:0007d4b0       ??$?RU__crt_locale_pointers@@@__crt_internal_free_policy@@QBEXQBU__crt_locale_pointers@@@Z 1007e4b0 f i libucrtd:wsetlocale.obj
 0001:0007d4d0       ??$?RU__crt_multibyte_data@@@__crt_internal_free_policy@@QBEXQBU__crt_multibyte_data@@@Z 1007e4d0 f i libucrtd:wsetlocale.obj
 0001:0007dac0       ??0?$__crt_unique_heap_ptr@U__crt_locale_data@@U__crt_internal_free_policy@@@@QAE@QAU__crt_locale_data@@@Z 1007eac0 f i libucrtd:wsetlocale.obj
 0001:0007dae0       ??0?$__crt_unique_heap_ptr@U__crt_locale_pointers@@U__crt_internal_free_policy@@@@QAE@QAU__crt_locale_pointers@@@Z 1007eae0 f i libucrtd:wsetlocale.obj
 0001:0007db00       ??0?$__crt_unique_heap_ptr@U__crt_multibyte_data@@U__crt_internal_free_policy@@@@QAE@QAU__crt_multibyte_data@@@Z 1007eb00 f i libucrtd:wsetlocale.obj
 0001:0007db20       ??0_expandlocale_locale_name_cache@@QAE@QA_WIQAU__crt_qualified_locale_data@@@Z 1007eb20 f i libucrtd:wsetlocale.obj
 0001:0007db90       ??1?$__crt_unique_heap_ptr@U__crt_locale_data@@U__crt_internal_free_policy@@@@QAE@XZ 1007eb90 f i libucrtd:wsetlocale.obj
 0001:0007dbb0       ??1?$__crt_unique_heap_ptr@U__crt_locale_pointers@@U__crt_internal_free_policy@@@@QAE@XZ 1007ebb0 f i libucrtd:wsetlocale.obj
 0001:0007dbd0       ??1?$__crt_unique_heap_ptr@U__crt_multibyte_data@@U__crt_internal_free_policy@@@@QAE@XZ 1007ebd0 f i libucrtd:wsetlocale.obj
 0001:0007dbf0       ??1_expandlocale_locale_name_cache@@QAE@XZ 1007ebf0 f i libucrtd:wsetlocale.obj
 0001:0007dc50       ??B?$__crt_unique_heap_ptr@U__crt_locale_data@@U__crt_internal_free_policy@@@@QBE_NXZ 1007ec50 f i libucrtd:wsetlocale.obj
 0001:0007dc70       ??B?$__crt_unique_heap_ptr@U__crt_locale_pointers@@U__crt_internal_free_policy@@@@QBE_NXZ 1007ec70 f i libucrtd:wsetlocale.obj
 0001:0007dc90       ??B?$__crt_unique_heap_ptr@U__crt_multibyte_data@@U__crt_internal_free_policy@@@@QBE_NXZ 1007ec90 f i libucrtd:wsetlocale.obj
 0001:0007e080       ?commit_locale_name@_expandlocale_locale_name_cache@@QAEXQB_WI@Z 1007f080 f i libucrtd:wsetlocale.obj
 0001:0007e0e0       ?commit_locale_name_cache_already_updated@_expandlocale_locale_name_cache@@QAEXQB_WI@Z 1007f0e0 f i libucrtd:wsetlocale.obj
 0001:0007e140       ?detach@?$__crt_unique_heap_ptr@U__crt_locale_data@@U__crt_internal_free_policy@@@@QAEPAU__crt_locale_data@@XZ 1007f140 f i libucrtd:wsetlocale.obj
 0001:0007e170       ?detach@?$__crt_unique_heap_ptr@U__crt_locale_pointers@@U__crt_internal_free_policy@@@@QAEPAU__crt_locale_pointers@@XZ 1007f170 f i libucrtd:wsetlocale.obj
 0001:0007e1a0       ?detach@?$__crt_unique_heap_ptr@U__crt_multibyte_data@@U__crt_internal_free_policy@@@@QAEPAU__crt_multibyte_data@@XZ 1007f1a0 f i libucrtd:wsetlocale.obj
 0001:0007e1d0       ?get@?$__crt_unique_heap_ptr@U__crt_locale_data@@U__crt_internal_free_policy@@@@QBEPAU__crt_locale_data@@XZ 1007f1d0 f i libucrtd:wsetlocale.obj
 0001:0007e1f0       ?get@?$__crt_unique_heap_ptr@U__crt_locale_pointers@@U__crt_internal_free_policy@@@@QBEPAU__crt_locale_pointers@@XZ 1007f1f0 f i libucrtd:wsetlocale.obj
 0001:0007e210       ?get@?$__crt_unique_heap_ptr@U__crt_multibyte_data@@U__crt_internal_free_policy@@@@QBEPAU__crt_multibyte_data@@XZ 1007f210 f i libucrtd:wsetlocale.obj
 0001:0007e230       ?is_valid@?$__crt_unique_heap_ptr@U__crt_locale_data@@U__crt_internal_free_policy@@@@QBE_NXZ 1007f230 f i libucrtd:wsetlocale.obj
 0001:0007e260       ?is_valid@?$__crt_unique_heap_ptr@U__crt_locale_pointers@@U__crt_internal_free_policy@@@@QBE_NXZ 1007f260 f i libucrtd:wsetlocale.obj
 0001:0007e290       ?is_valid@?$__crt_unique_heap_ptr@U__crt_multibyte_data@@U__crt_internal_free_policy@@@@QBE_NXZ 1007f290 f i libucrtd:wsetlocale.obj
 0001:0007e2c0       ?release@?$__crt_unique_heap_ptr@U__crt_locale_data@@U__crt_internal_free_policy@@@@QAEXXZ 1007f2c0 f i libucrtd:wsetlocale.obj
 0001:0007e2f0       ?release@?$__crt_unique_heap_ptr@U__crt_locale_pointers@@U__crt_internal_free_policy@@@@QAEXXZ 1007f2f0 f i libucrtd:wsetlocale.obj
 0001:0007e320       ?release@?$__crt_unique_heap_ptr@U__crt_multibyte_data@@U__crt_internal_free_policy@@@@QAEXXZ 1007f320 f i libucrtd:wsetlocale.obj
 0001:0007e350       ___acrt_copy_locale_name   1007f350 f   libucrtd:wsetlocale.obj
 0001:0007e3f0       ___acrt_set_locale_changed 1007f3f0 f   libucrtd:wsetlocale.obj
 0001:0007e410       ___acrt_uninitialize_locale 1007f410 f   libucrtd:wsetlocale.obj
 0001:0007e430       ___ascii_tolower           1007f430 f i libucrtd:wsetlocale.obj
 0001:0007e450       ___ascii_towlower          1007f450 f i libucrtd:wsetlocale.obj
 0001:0007e470       ___lc_lctowcs              1007f470 f   libucrtd:wsetlocale.obj
 0001:0007e520       ___lc_wcstolc              1007f520 f   libucrtd:wsetlocale.obj
 0001:0007e750       __configthreadlocale       1007f750 f   libucrtd:wsetlocale.obj
 0001:0007e8d0       __create_locale            1007f8d0 f   libucrtd:wsetlocale.obj
 0001:0007ef10       __free_locale              1007ff10 f   libucrtd:wsetlocale.obj
 0001:0007f040       __get_current_locale       10080040 f   libucrtd:wsetlocale.obj
 0001:0007f110       __wcreate_locale           10080110 f   libucrtd:wsetlocale.obj
 0001:0007f350       __wcscats                  10080350 f   libucrtd:wsetlocale.obj
 0001:0007f3d0       __wsetlocale               100803d0 f   libucrtd:wsetlocale.obj
 0001:00080ad0       ___p___mb_cur_max          10081ad0 f   libucrtd:nlsdata.obj
 0001:00080dd0       ___acrt_initialize_lowio   10081dd0 f   libucrtd:ioinit.obj
 0001:00080e70       ___acrt_uninitialize_lowio 10081e70 f   libucrtd:ioinit.obj
 0001:00080ed0       __CrtGetReportHook         10081ed0 f   libucrtd:dbgrptt.obj
 0001:00080ee0       __CrtSetReportFile         10081ee0 f   libucrtd:dbgrptt.obj
 0001:00080fe0       __CrtSetReportHook         10081fe0 f   libucrtd:dbgrptt.obj
 0001:00081000       __CrtSetReportMode         10082000 f   libucrtd:dbgrptt.obj
 0001:00081140       __VCrtDbgReportA           10082140 f   libucrtd:dbgrptt.obj
 0001:000819c0       __VCrtDbgReportW           100829c0 f   libucrtd:dbgrptt.obj
 0001:00082370       __snprintf_s               10083370 f i libucrtd:dbgrptt.obj
 0001:000823b0       __vsnprintf_s              100833b0 f i libucrtd:dbgrptt.obj
 0001:000823e0       __vsnprintf_s_l            100833e0 f i libucrtd:dbgrptt.obj
 0001:00082570       ??$__acrt_wcs_to_mbs_cp@U__crt_win32_buffer_no_resizing@@@@YAHQB_WAAV?$__crt_win32_buffer@DU__crt_win32_buffer_no_resizing@@@@I@Z 10083570 f i libucrtd:getmodulefilenamea.obj
 0001:000825a0       ??0?$__crt_win32_buffer@DU__crt_win32_buffer_no_resizing@@@@QAE@QADI@Z 100835a0 f i libucrtd:getmodulefilenamea.obj
 0001:000825f0       ??1?$__crt_win32_buffer@DU__crt_win32_buffer_no_resizing@@@@QAE@XZ 100835f0 f i libucrtd:getmodulefilenamea.obj
 0001:00082660       ?__acrt_get_utf8_acp_compatibility_codepage@@YAIXZ 10083660 f i libucrtd:getmodulefilenamea.obj
 0001:000826f0       ?_deallocate@?$__crt_win32_buffer@DU__crt_win32_buffer_no_resizing@@@@AAEXXZ 100836f0 f i libucrtd:getmodulefilenamea.obj
 0001:00082730       ?allocate@?$__crt_win32_buffer@DU__crt_win32_buffer_no_resizing@@@@QAEHI@Z 10083730 f i libucrtd:getmodulefilenamea.obj
 0001:000827a0       ?allocate@__crt_win32_buffer_no_resizing@@SAHQAPAXIABV__crt_win32_buffer_empty_debug_info@@@Z 100837a0 f i libucrtd:getmodulefilenamea.obj
 0001:000827c0       ?capacity@?$__crt_win32_buffer@DU__crt_win32_buffer_no_resizing@@@@QBEIXZ 100837c0 f i libucrtd:getmodulefilenamea.obj
 0001:000827e0       ?data@?$__crt_win32_buffer@DU__crt_win32_buffer_no_resizing@@@@QAEPADXZ 100837e0 f i libucrtd:getmodulefilenamea.obj
 0001:00082800       ?deallocate@__crt_win32_buffer_no_resizing@@SAXQAXABV__crt_win32_buffer_empty_debug_info@@@Z 10083800 f i libucrtd:getmodulefilenamea.obj
 0001:00082810       ?debug_info@?$__crt_win32_buffer@DU__crt_win32_buffer_no_resizing@@@@QBEABV__crt_win32_buffer_empty_debug_info@@XZ 10083810 f i libucrtd:getmodulefilenamea.obj
 0001:00082820       ?set_to_nullptr@?$__crt_win32_buffer@DU__crt_win32_buffer_no_resizing@@@@QAEXXZ 10083820 f i libucrtd:getmodulefilenamea.obj
 0001:00082860       ?size@?$__crt_win32_buffer@DU__crt_win32_buffer_no_resizing@@@@QAEXI@Z 10083860 f i libucrtd:getmodulefilenamea.obj
 0001:00082880       ?size@?$__crt_win32_buffer@DU__crt_win32_buffer_no_resizing@@@@QBEIXZ 10083880 f i libucrtd:getmodulefilenamea.obj
 0001:000828a0       ___acrt_GetModuleFileNameA 100838a0 f   libucrtd:getmodulefilenamea.obj
 0001:00082b80       ??$message_box@$$TABQBDABQBDK@?$__crt_char_traits@D@@SAH$$QA$$TABQBD1$$QAK@Z 10083b80 f i libucrtd:crtmbox.obj
 0001:00082bb0       ??$message_box@$$TABQB_WABQB_WK@?$__crt_char_traits@_W@@SAH$$QA$$TABQB_W1$$QAK@Z 10083bb0 f i libucrtd:crtmbox.obj
 0001:00082be0       ??$message_box@PAUHWND__@@ABQBDABQBDABI@?$__crt_char_traits@D@@SAH$$QAPAUHWND__@@ABQBD1ABI@Z 10083be0 f i libucrtd:crtmbox.obj
 0001:00082c10       ??$message_box@PAUHWND__@@ABQB_WABQB_WABI@?$__crt_char_traits@_W@@SAH$$QAPAUHWND__@@ABQB_W1ABI@Z 10083c10 f i libucrtd:crtmbox.obj
 0001:00082c40       ??$output_debug_string@ABQBD@?$__crt_char_traits@D@@SAXABQBD@Z 10083c40 f i libucrtd:crtmbox.obj
 0001:00082c60       ??$output_debug_string@ABQB_W@?$__crt_char_traits@_W@@SAXABQB_W@Z 10083c60 f i libucrtd:crtmbox.obj
 0001:00082c80       ___acrt_show_narrow_message_box 10083c80 f   libucrtd:crtmbox.obj
 0001:00082ca0       ___acrt_show_wide_message_box 10083ca0 f   libucrtd:crtmbox.obj
 0001:00082cc0       ___acrt_initialize_locks   10083cc0 f   libucrtd:locks.obj
 0001:00082d20       ___acrt_lock               10083d20 f   libucrtd:locks.obj
 0001:00082d40       ___acrt_uninitialize_locks 10083d40 f   libucrtd:locks.obj
 0001:00082d90       ___acrt_unlock             10083d90 f   libucrtd:locks.obj
 0001:00082db0       __lock_locales             10083db0 f   libucrtd:locks.obj
 0001:00082dd0       __unlock_locales           10083dd0 f   libucrtd:locks.obj
 0001:00082df0       ??$?B$$A6AXH@Z@__crt_fast_encoded_nullptr_t@@QBEP6AXH@ZXZ 10083df0 f i libucrtd:signal.obj
 0001:00082ee0       ??$__crt_fast_decode_pointer@P6AXH@Z@@YAP6AXH@ZQ6AXH@Z@Z 10083ee0 f i libucrtd:signal.obj
 0001:00082f10       ??$__crt_fast_encode_pointer@P6AXH@Z@@YAP6AXH@ZQ6AXH@Z@Z 10083f10 f i libucrtd:signal.obj
 0001:000831c0       ?initialize@?$dual_state_global@P6AXH@Z@__crt_state_management@@QAEXQ6AXH@Z@Z 100841c0 f i libucrtd:signal.obj
 0001:00083300       ?value@?$dual_state_global@P6AXH@Z@__crt_state_management@@QAEAAP6AXH@ZXZ 10084300 f i libucrtd:signal.obj
 0001:00083320       ___acrt_get_sigabrt_handler 10084320 f   libucrtd:signal.obj
 0001:00083340       ___acrt_initialize_signal_handlers 10084340 f   libucrtd:signal.obj
 0001:00083380       ___fpecode                 10084380 f   libucrtd:signal.obj
 0001:00083390       ___pxcptinfoptrs           10084390 f   libucrtd:signal.obj
 0001:000833a0       _raise                     100843a0 f   libucrtd:signal.obj
 0001:00083770       _signal                    10084770 f   libucrtd:signal.obj
 0001:000839f0       __msize                    100849f0 f   libucrtd:msize.obj
 0001:00083a10       __msize_base               10084a10 f   libucrtd:msize.obj
 0001:00083ab0       __realloc_base             10084ab0 f   libucrtd:realloc_base.obj
 0001:00083b70       ??$?B$$A6GHPA_WKJ@Z@__crt_fast_encoded_nullptr_t@@QBEP6GHPA_WKJ@ZXZ 10084b70 f i libucrtd:winapi_thunks.obj
 0001:00083c60       ??$__crt_fast_decode_pointer@P6GHPA_WKJ@Z@@YAP6GHPA_WKJ@ZQ6GH0KJ@Z@Z 10084c60 f i libucrtd:winapi_thunks.obj
 0001:00083c90       ??$__crt_fast_decode_pointer@PAX@@YAPAXQAX@Z 10084c90 f i libucrtd:winapi_thunks.obj
 0001:00083cc0       ??$__crt_fast_encode_pointer@P6GHPA_WKJ@Z@@YAP6GHPA_WKJ@ZQ6GH0KJ@Z@Z 10084cc0 f i libucrtd:winapi_thunks.obj
 0001:00084620       _GetCurrentThreadEffectiveToken 10085620 f i libucrtd:winapi_thunks.obj
 0001:00084630       ___acrt_AppPolicyGetProcessTerminationMethodInternal@4 10085630 f   libucrtd:winapi_thunks.obj
 0001:00084670       ___acrt_AppPolicyGetShowDeveloperDiagnosticInternal@4 10085670 f   libucrtd:winapi_thunks.obj
 0001:000846b0       ___acrt_AppPolicyGetThreadInitializationTypeInternal@4 100856b0 f   libucrtd:winapi_thunks.obj
 0001:000846f0       ___acrt_AppPolicyGetWindowingModelInternal@4 100856f0 f   libucrtd:winapi_thunks.obj
 0001:00084730       ___acrt_AreFileApisANSI@0  10085730 f   libucrtd:winapi_thunks.obj
 0001:00084770       ___acrt_CompareStringEx@36 10085770 f   libucrtd:winapi_thunks.obj
 0001:000847f0       ___acrt_EnumSystemLocalesEx@16 100857f0 f   libucrtd:winapi_thunks.obj
 0001:00084850       ___acrt_FlsAlloc@4         10085850 f   libucrtd:winapi_thunks.obj
 0001:00084890       ___acrt_FlsFree@4          10085890 f   libucrtd:winapi_thunks.obj
 0001:000848d0       ___acrt_FlsGetValue@4      100858d0 f   libucrtd:winapi_thunks.obj
 0001:00084910       ___acrt_FlsSetValue@8      10085910 f   libucrtd:winapi_thunks.obj
 0001:00084960       ___acrt_GetDateFormatEx@28 10085960 f   libucrtd:winapi_thunks.obj
 0001:000849e0       ___acrt_GetEnabledXStateFeatures@0 100859e0 f   libucrtd:winapi_thunks.obj
 0001:00084a20       ___acrt_GetLocaleInfoEx@16 10085a20 f   libucrtd:winapi_thunks.obj
 0001:00084a80       ___acrt_GetSystemTimePreciseAsFileTime@4 10085a80 f   libucrtd:winapi_thunks.obj
 0001:00084ac0       ___acrt_GetTimeFormatEx@24 10085ac0 f   libucrtd:winapi_thunks.obj
 0001:00084b30       ___acrt_GetUserDefaultLocaleName@8 10085b30 f   libucrtd:winapi_thunks.obj
 0001:00084b80       ___acrt_GetXStateFeaturesMask@8 10085b80 f   libucrtd:winapi_thunks.obj
 0001:00084bc0       ___acrt_InitializeCriticalSectionEx@12 10085bc0 f   libucrtd:winapi_thunks.obj
 0001:00084c10       ___acrt_IsValidLocaleName@4 10085c10 f   libucrtd:winapi_thunks.obj
 0001:00084c60       ___acrt_LCIDToLocaleName@16 10085c60 f   libucrtd:winapi_thunks.obj
 0001:00084cc0       ___acrt_LCMapStringEx@36   10085cc0 f   libucrtd:winapi_thunks.obj
 0001:00084d40       ___acrt_LocaleNameToLCID@8 10085d40 f   libucrtd:winapi_thunks.obj
 0001:00084d90       ___acrt_LocateXStateFeature@12 10085d90 f   libucrtd:winapi_thunks.obj
 0001:00084de0       ___acrt_MessageBoxA@16     10085de0 f   libucrtd:winapi_thunks.obj
 0001:00084e30       ___acrt_MessageBoxW@16     10085e30 f   libucrtd:winapi_thunks.obj
 0001:00084e80       ___acrt_RoInitialize@4     10085e80 f   libucrtd:winapi_thunks.obj
 0001:00084ec0       ___acrt_RoUninitialize@0   10085ec0 f   libucrtd:winapi_thunks.obj
 0001:00084ef0       ___acrt_RtlGenRandom@8     10085ef0 f   libucrtd:winapi_thunks.obj
 0001:00084f30       ___acrt_SetThreadStackGuarantee@4 10085f30 f   libucrtd:winapi_thunks.obj
 0001:00084f70       ___acrt_can_show_message_box 10085f70 f   libucrtd:winapi_thunks.obj
 0001:00084fb0       ___acrt_can_use_vista_locale_apis 10085fb0 f   libucrtd:winapi_thunks.obj
 0001:00084fe0       ___acrt_can_use_xstate_apis 10085fe0 f   libucrtd:winapi_thunks.obj
 0001:00085010       ___acrt_eagerly_load_locale_apis 10086010 f   libucrtd:winapi_thunks.obj
 0001:00085050       ___acrt_get_parent_window  10086050 f   libucrtd:winapi_thunks.obj
 0001:000850c0       ___acrt_initialize_winapi_thunks 100860c0 f   libucrtd:winapi_thunks.obj
 0001:00085130       ___acrt_is_interactive     10086130 f   libucrtd:winapi_thunks.obj
 0001:000851e0       ___acrt_uninitialize_winapi_thunks 100861e0 f   libucrtd:winapi_thunks.obj
 0001:00085250       __chvalidator              10086250 f   libucrtd:isctype.obj
 0001:000852a0       __chvalidator_l            100862a0 f   libucrtd:isctype.obj
 0001:00085320       __isctype                  10086320 f   libucrtd:isctype.obj
 0001:00085360       __isctype_l                10086360 f   libucrtd:isctype.obj
 0001:000854e0       __isleadbyte_fast_internal 100864e0 f i libucrtd:isctype.obj
 0001:00085500       ??$?RU__crt_stdio_stream_data@@@__crt_internal_free_policy@@QBEXQBU__crt_stdio_stream_data@@@Z 10086500 f i libucrtd:stream.obj
 0001:00085520       ??0?$__crt_unique_heap_ptr@U__crt_stdio_stream_data@@U__crt_internal_free_policy@@@@QAE@QAU__crt_stdio_stream_data@@@Z 10086520 f i libucrtd:stream.obj
 0001:00085540       ??0__crt_stdio_stream@@QAE@QAU__crt_stdio_stream_data@@@Z 10086540 f i libucrtd:stream.obj
 0001:00085560       ??0__crt_stdio_stream@@QAE@XZ 10086560 f i libucrtd:stream.obj
 0001:00085580       ??1?$__crt_unique_heap_ptr@U__crt_stdio_stream_data@@U__crt_internal_free_policy@@@@QAE@XZ 10086580 f i libucrtd:stream.obj
 0001:000855a0       ?__acrt_stdio_allocate_stream@@YA?AV__crt_stdio_stream@@XZ 100865a0 f   libucrtd:stream.obj
 0001:00085690       ?__acrt_stdio_free_stream@@YAXV__crt_stdio_stream@@@Z 10086690 f   libucrtd:stream.obj
 0001:00085710       ?deallocate@__crt_stdio_stream@@QAEXXZ 10086710 f i libucrtd:stream.obj
 0001:00085730       ?detach@?$__crt_unique_heap_ptr@U__crt_stdio_stream_data@@U__crt_internal_free_policy@@@@QAEPAU__crt_stdio_stream_data@@XZ 10086730 f i libucrtd:stream.obj
 0001:000858a0       ?lock@__crt_stdio_stream@@QBEXXZ 100868a0 f i libucrtd:stream.obj
 0001:000858c0       ?release@?$__crt_unique_heap_ptr@U__crt_stdio_stream_data@@U__crt_internal_free_policy@@@@QAEXXZ 100868c0 f i libucrtd:stream.obj
 0001:000858f0       ?try_allocate@__crt_stdio_stream@@QAE_NXZ 100868f0 f i libucrtd:stream.obj
 0001:00085940       ??$__acrt_stdio_parse_mode@D@@YA?AU__acrt_stdio_stream_mode@@QBD@Z 10086940 f i libucrtd:openfile.obj
 0001:000861b0       ??$__acrt_stdio_parse_mode@_W@@YA?AU__acrt_stdio_stream_mode@@QB_W@Z 100871b0 f i libucrtd:openfile.obj
 0001:00086d40       ??$tcsncmp@AAPBDAAY02$$CBDI@?$__crt_char_traits@D@@SAHAAPBDAAY02$$CBD$$QAI@Z 10087d40 f i libucrtd:openfile.obj
 0001:00086d60       ??$tcsncmp@AAPB_WAAY02$$CB_WI@?$__crt_char_traits@_W@@SAHAAPB_WAAY02$$CB_W$$QAI@Z 10087d60 f i libucrtd:openfile.obj
 0001:00086d80       ??$tcsnicmp@AAPBDAAY04$$CBDI@?$__crt_char_traits@D@@SAHAAPBDAAY04$$CBD$$QAI@Z 10087d80 f i libucrtd:openfile.obj
 0001:00086da0       ??$tcsnicmp@AAPBDAAY06$$CBDI@?$__crt_char_traits@D@@SAHAAPBDAAY06$$CBD$$QAI@Z 10087da0 f i libucrtd:openfile.obj
 0001:00086dc0       ??$tcsnicmp@AAPBDAAY07$$CBDI@?$__crt_char_traits@D@@SAHAAPBDAAY07$$CBD$$QAI@Z 10087dc0 f i libucrtd:openfile.obj
 0001:00086de0       ??$tcsnicmp@AAPB_WAAY04$$CB_WI@?$__crt_char_traits@_W@@SAHAAPB_WAAY04$$CB_W$$QAI@Z 10087de0 f i libucrtd:openfile.obj
 0001:00086e00       ??$tcsnicmp@AAPB_WAAY06$$CB_WI@?$__crt_char_traits@_W@@SAHAAPB_WAAY06$$CB_W$$QAI@Z 10087e00 f i libucrtd:openfile.obj
 0001:00086e20       ??$tcsnicmp@AAPB_WAAY07$$CB_WI@?$__crt_char_traits@_W@@SAHAAPB_WAAY07$$CB_W$$QAI@Z 10087e20 f i libucrtd:openfile.obj
 0001:00086e40       ??$tsopen_s@PAHABQBDABHABHH@?$__crt_char_traits@D@@SAH$$QAPAHABQBDABH2$$QAH@Z 10087e40 f i libucrtd:openfile.obj
 0001:00086e70       ??$tsopen_s@PAHABQB_WABHABHH@?$__crt_char_traits@_W@@SAH$$QAPAHABQB_WABH2$$QAH@Z 10087e70 f i libucrtd:openfile.obj
 0001:00086ea0       ?__acrt_stdio_parse_mode_D@@YA_NAAU__acrt_stdio_stream_mode@@@Z 10087ea0 f i libucrtd:openfile.obj
 0001:00086ed0       ?__acrt_stdio_parse_mode_N@@YA_NAAU__acrt_stdio_stream_mode@@@Z 10087ed0 f i libucrtd:openfile.obj
 0001:00086ef0       ?__acrt_stdio_parse_mode_R@@YA_NAAU__acrt_stdio_stream_mode@@AA_N@Z 10087ef0 f i libucrtd:openfile.obj
 0001:00086f20       ?__acrt_stdio_parse_mode_S@@YA_NAAU__acrt_stdio_stream_mode@@AA_N@Z 10087f20 f i libucrtd:openfile.obj
 0001:00086f50       ?__acrt_stdio_parse_mode_T@@YA_NAAU__acrt_stdio_stream_mode@@@Z 10087f50 f i libucrtd:openfile.obj
 0001:00086f80       ?__acrt_stdio_parse_mode_b@@YA_NAAU__acrt_stdio_stream_mode@@@Z 10087f80 f i libucrtd:openfile.obj
 0001:00086fb0       ?__acrt_stdio_parse_mode_c@@YA_NAAU__acrt_stdio_stream_mode@@AA_N@Z 10087fb0 f i libucrtd:openfile.obj
 0001:00086fe0       ?__acrt_stdio_parse_mode_n@@YA_NAAU__acrt_stdio_stream_mode@@AA_N@Z 10087fe0 f i libucrtd:openfile.obj
 0001:00087010       ?__acrt_stdio_parse_mode_plus@@YA_NAAU__acrt_stdio_stream_mode@@AA_N@Z 10088010 f i libucrtd:openfile.obj
 0001:00087080       ?__acrt_stdio_parse_mode_t@@YA_NAAU__acrt_stdio_stream_mode@@@Z 10088080 f i libucrtd:openfile.obj
 0001:000870b0       ?__acrt_stdio_parse_mode_x@@YA_NAAU__acrt_stdio_stream_mode@@@Z 100880b0 f i libucrtd:openfile.obj
 0001:000870e0       __openfile                 100880e0 f   libucrtd:openfile.obj
 0001:00087110       __wopenfile                10088110 f   libucrtd:openfile.obj
 0001:000873f0       __close                    100883f0 f   libucrtd:close.obj
 0001:00087570       __close_nolock             10088570 f   libucrtd:close.obj
 0001:000875d0       ?has_crt_buffer@__crt_stdio_stream@@QBE_NXZ 100885d0 f i libucrtd:_freebuf.obj
 0001:000875f0       ___acrt_stdio_free_buffer_nolock 100885f0 f   libucrtd:_freebuf.obj
 0001:00087c50       ?__acrt_stdio_reset_buffer@@YAXV__crt_stdio_stream@@@Z 10088c50 f i libucrtd:fflush.obj
 0001:00087d50       ?has_all_of@__crt_stdio_stream@@QBE_NJ@Z 10088d50 f i libucrtd:fflush.obj
 0001:00087e20       ___acrt_stdio_flush_nolock 10088e20 f   libucrtd:fflush.obj
 0001:00087ef0       __fflush_nolock            10088ef0 f   libucrtd:fflush.obj
 0001:00087f70       __flushall                 10088f70 f   libucrtd:fflush.obj
 0001:00087f90       _fflush                    10088f90 f   libucrtd:fflush.obj
 0001:00088740       ?has_big_buffer@__crt_stdio_stream@@QBE_NXZ 10089740 f i libucrtd:_flsbuf.obj
 0001:00088840       ___acrt_stdio_flush_and_write_narrow_nolock 10089840 f   libucrtd:_flsbuf.obj
 0001:00088870       ___acrt_stdio_flush_and_write_wide_nolock 10089870 f   libucrtd:_flsbuf.obj
 0001:00088ba0       ___acrt_get_begin_thread_init_policy 10089ba0 f   libucrtd:win_policies.obj
 0001:00088bc0       ___acrt_get_developer_information_policy 10089bc0 f   libucrtd:win_policies.obj
 0001:00088be0       ___acrt_get_process_end_policy 10089be0 f   libucrtd:win_policies.obj
 0001:00088c00       ___acrt_get_windowing_model_policy 10089c00 f   libucrtd:win_policies.obj
 0001:00088ed0       ??$__acrt_mbs_to_wcs_cp@U__crt_win32_buffer_internal_dynamic_resizing@@@@YAHQBDAAV?$__crt_win32_buffer@_WU__crt_win32_buffer_internal_dynamic_resizing@@@@I@Z 10089ed0 f i libucrtd:argv_wildcards.obj
 0001:00088f00       ??$__acrt_wcs_to_mbs_cp@U__crt_win32_buffer_internal_dynamic_resizing@@@@YAHQB_WAAV?$__crt_win32_buffer@DU__crt_win32_buffer_internal_dynamic_resizing@@@@I@Z 10089f00 f i libucrtd:argv_wildcards.obj
 0001:00089e50       ??$tcsncpy_s@AAPADIAAPADABI@?$__crt_char_traits@D@@SAHAAPAD$$QAI0ABI@Z 1008ae50 f i libucrtd:argv_wildcards.obj
 0001:00089e80       ??$tcsncpy_s@AAPA_WIAAPA_WABI@?$__crt_char_traits@_W@@SAHAAPA_W$$QAI0ABI@Z 1008ae80 f i libucrtd:argv_wildcards.obj
 0001:00089eb0       ??$tcsncpy_s@PADABIABQBDABI@?$__crt_char_traits@D@@SAH$$QAPADABIABQBD1@Z 1008aeb0 f i libucrtd:argv_wildcards.obj
 0001:00089ee0       ??$tcsncpy_s@PADIABQBDABI@?$__crt_char_traits@D@@SAH$$QAPAD$$QAIABQBDABI@Z 1008aee0 f i libucrtd:argv_wildcards.obj
 0001:00089f10       ??$tcsncpy_s@PA_WABIABQB_WABI@?$__crt_char_traits@_W@@SAH$$QAPA_WABIABQB_W1@Z 1008af10 f i libucrtd:argv_wildcards.obj
 0001:00089f40       ??$tcsncpy_s@PA_WIABQB_WABI@?$__crt_char_traits@_W@@SAH$$QAPA_W$$QAIABQB_WABI@Z 1008af40 f i libucrtd:argv_wildcards.obj
 0001:00089f70       ??$tcspbrk@AAPADAAY02$$CBD@?$__crt_char_traits@D@@SAPADAAPADAAY02$$CBD@Z 1008af70 f i libucrtd:argv_wildcards.obj
 0001:00089f90       ??$tcspbrk@AAPA_WAAY02$$CB_W@?$__crt_char_traits@_W@@SAPA_WAAPA_WAAY02$$CB_W@Z 1008af90 f i libucrtd:argv_wildcards.obj
 0001:00089fb0       ??0?$__crt_unique_handle_t@U__crt_findfile_traits@@@@QAE@QAX@Z 1008afb0 f i libucrtd:argv_wildcards.obj
 0001:00089fd0       ??0?$__crt_win32_buffer@DU__crt_win32_buffer_internal_dynamic_resizing@@@@QAE@XZ 1008afd0 f i libucrtd:argv_wildcards.obj
 0001:0008a020       ??0?$__crt_win32_buffer@_WU__crt_win32_buffer_internal_dynamic_resizing@@@@QAE@XZ 1008b020 f i libucrtd:argv_wildcards.obj
 0001:0008a0d0       ??1?$__crt_unique_handle_t@U__crt_findfile_traits@@@@QAE@XZ 1008b0d0 f i libucrtd:argv_wildcards.obj
 0001:0008a0f0       ??1?$__crt_win32_buffer@DU__crt_win32_buffer_internal_dynamic_resizing@@@@QAE@XZ 1008b0f0 f i libucrtd:argv_wildcards.obj
 0001:0008a130       ??1?$__crt_win32_buffer@_WU__crt_win32_buffer_internal_dynamic_resizing@@@@QAE@XZ 1008b130 f i libucrtd:argv_wildcards.obj
 0001:0008a390       ?_deallocate@?$__crt_win32_buffer@DU__crt_win32_buffer_internal_dynamic_resizing@@@@AAEXXZ 1008b390 f i libucrtd:argv_wildcards.obj
 0001:0008a3d0       ?_deallocate@?$__crt_win32_buffer@_WU__crt_win32_buffer_internal_dynamic_resizing@@@@AAEXXZ 1008b3d0 f i libucrtd:argv_wildcards.obj
 0001:0008a410       ?allocate@?$__crt_win32_buffer@DU__crt_win32_buffer_internal_dynamic_resizing@@@@QAEHI@Z 1008b410 f i libucrtd:argv_wildcards.obj
 0001:0008a480       ?allocate@?$__crt_win32_buffer@_WU__crt_win32_buffer_internal_dynamic_resizing@@@@QAEHI@Z 1008b480 f i libucrtd:argv_wildcards.obj
 0001:0008a4f0       ?allocate@__crt_win32_buffer_internal_dynamic_resizing@@SAHQAPAXIABV__crt_win32_buffer_empty_debug_info@@@Z 1008b4f0 f i libucrtd:argv_wildcards.obj
 0001:0008a630       ?capacity@?$__crt_win32_buffer@DU__crt_win32_buffer_internal_dynamic_resizing@@@@QBEIXZ 1008b630 f i libucrtd:argv_wildcards.obj
 0001:0008a650       ?capacity@?$__crt_win32_buffer@_WU__crt_win32_buffer_internal_dynamic_resizing@@@@QBEIXZ 1008b650 f i libucrtd:argv_wildcards.obj
 0001:0008a670       ?close@?$__crt_unique_handle_t@U__crt_findfile_traits@@@@QAEXXZ 1008b670 f i libucrtd:argv_wildcards.obj
 0001:0008a6b0       ?close@__crt_findfile_traits@@SA_NPAX@Z 1008b6b0 f i libucrtd:argv_wildcards.obj
 0001:0008a6e0       ?data@?$__crt_win32_buffer@DU__crt_win32_buffer_internal_dynamic_resizing@@@@QAEPADXZ 1008b6e0 f i libucrtd:argv_wildcards.obj
 0001:0008a700       ?data@?$__crt_win32_buffer@_WU__crt_win32_buffer_internal_dynamic_resizing@@@@QAEPA_WXZ 1008b700 f i libucrtd:argv_wildcards.obj
 0001:0008a720       ?deallocate@__crt_win32_buffer_internal_dynamic_resizing@@SAXQAXABV__crt_win32_buffer_empty_debug_info@@@Z 1008b720 f i libucrtd:argv_wildcards.obj
 0001:0008a740       ?debug_info@?$__crt_win32_buffer@DU__crt_win32_buffer_internal_dynamic_resizing@@@@QBEABV__crt_win32_buffer_empty_debug_info@@XZ 1008b740 f i libucrtd:argv_wildcards.obj
 0001:0008a750       ?debug_info@?$__crt_win32_buffer@_WU__crt_win32_buffer_internal_dynamic_resizing@@@@QBEABV__crt_win32_buffer_empty_debug_info@@XZ 1008b750 f i libucrtd:argv_wildcards.obj
 0001:0008aa60       ?get@?$__crt_unique_handle_t@U__crt_findfile_traits@@@@QBEPAXXZ 1008ba60 f i libucrtd:argv_wildcards.obj
 0001:0008aad0       ?get_invalid_value@__crt_findfile_traits@@SAPAXXZ 1008bad0 f i libucrtd:argv_wildcards.obj
 0001:0008ab60       ?set_to_nullptr@?$__crt_win32_buffer@DU__crt_win32_buffer_internal_dynamic_resizing@@@@QAEXXZ 1008bb60 f i libucrtd:argv_wildcards.obj
 0001:0008aba0       ?set_to_nullptr@?$__crt_win32_buffer@_WU__crt_win32_buffer_internal_dynamic_resizing@@@@QAEXXZ 1008bba0 f i libucrtd:argv_wildcards.obj
 0001:0008abe0       ?size@?$__crt_win32_buffer@DU__crt_win32_buffer_internal_dynamic_resizing@@@@QAEXI@Z 1008bbe0 f i libucrtd:argv_wildcards.obj
 0001:0008ac00       ?size@?$__crt_win32_buffer@_WU__crt_win32_buffer_internal_dynamic_resizing@@@@QAEXI@Z 1008bc00 f i libucrtd:argv_wildcards.obj
 0001:0008ac60       ?strpbrk@@YAPADQADQBD@Z    1008bc60 f i libucrtd:argv_wildcards.obj
 0001:0008ac80       ?wcspbrk@@YAPA_WPA_WPB_W@Z 1008bc80 f i libucrtd:argv_wildcards.obj
 0001:0008aca0       ___acrt_expand_narrow_argv_wildcards 1008bca0 f   libucrtd:argv_wildcards.obj
 0001:0008acc0       ___acrt_expand_wide_argv_wildcards 1008bcc0 f   libucrtd:argv_wildcards.obj
 0001:0008ada0       ??$initialize_from_array@$$BY10BAA@E@?$dual_state_global@PAE@__crt_state_management@@QAAXAAY10BAA@E@Z 1008bda0 f i libucrtd:mbctype.obj
 0001:0008adf0       ??$initialize_from_array@$$BY10BAB@E@?$dual_state_global@PAE@__crt_state_management@@QAAXAAY10BAB@E@Z 1008bdf0 f i libucrtd:mbctype.obj
 0001:0008b060       ?dangerous_get_state_array@?$dual_state_global@PAE@__crt_state_management@@QAEPAPAEXZ 1008c060 f i libucrtd:mbctype.obj
 0001:0008b070       ?dangerous_get_state_array@?$dual_state_global@PAU__crt_multibyte_data@@@__crt_state_management@@QAEPAPAU__crt_multibyte_data@@XZ 1008c070 f i libucrtd:mbctype.obj
 0001:0008b140       ?initialize@?$dual_state_global@PAU__crt_multibyte_data@@@__crt_state_management@@QAEXQAU__crt_multibyte_data@@@Z 1008c140 f i libucrtd:mbctype.obj
 0001:0008b8a0       ?value@?$dual_state_global@PAE@__crt_state_management@@QAEAAPAEXZ 1008c8a0 f i libucrtd:mbctype.obj
 0001:0008b8c0       ___acrt_initialize_multibyte 1008c8c0 f   libucrtd:mbctype.obj
 0001:0008b970       ___acrt_update_thread_multibyte_data 1008c970 f   libucrtd:mbctype.obj
 0001:0008b990       ___p__mbcasemap            1008c990 f   libucrtd:mbctype.obj
 0001:0008b9b0       ___p__mbctype              1008c9b0 f   libucrtd:mbctype.obj
 0001:0008b9d0       __getmbcp                  1008c9d0 f   libucrtd:mbctype.obj
 0001:0008ba40       __setmbcp                  1008ca40 f   libucrtd:mbctype.obj
 0001:0008ba70       __setmbcp_nolock           1008ca70 f   libucrtd:mbctype.obj
 0001:0008bfe1       __ismbbalnum               1008cfe1 f   libucrtd:ismbbyte.obj
 0001:0008bffc       __ismbbalnum_l             1008cffc f   libucrtd:ismbbyte.obj
 0001:0008c018       __ismbbalpha               1008d018 f   libucrtd:ismbbyte.obj
 0001:0008c033       __ismbbalpha_l             1008d033 f   libucrtd:ismbbyte.obj
 0001:0008c04f       __ismbbblank               1008d04f f   libucrtd:ismbbyte.obj
 0001:0008c072       __ismbbblank_l             1008d072 f   libucrtd:ismbbyte.obj
 0001:0008c096       __ismbbgraph               1008d096 f   libucrtd:ismbbyte.obj
 0001:0008c0b1       __ismbbgraph_l             1008d0b1 f   libucrtd:ismbbyte.obj
 0001:0008c0cd       __ismbbkalnum              1008d0cd f   libucrtd:ismbbyte.obj
 0001:0008c0e5       __ismbbkalnum_l            1008d0e5 f   libucrtd:ismbbyte.obj
 0001:0008c0fe       __ismbbkana                1008d0fe f   libucrtd:ismbbyte.obj
 0001:0008c111       __ismbbkana_l              1008d111 f   libucrtd:ismbbyte.obj
 0001:0008c160       __ismbbkprint              1008d160 f   libucrtd:ismbbyte.obj
 0001:0008c178       __ismbbkprint_l            1008d178 f   libucrtd:ismbbyte.obj
 0001:0008c191       __ismbbkpunct              1008d191 f   libucrtd:ismbbyte.obj
 0001:0008c1a9       __ismbbkpunct_l            1008d1a9 f   libucrtd:ismbbyte.obj
 0001:0008c1c2       __ismbblead                1008d1c2 f   libucrtd:ismbbyte.obj
 0001:0008c1da       __ismbblead_l              1008d1da f   libucrtd:ismbbyte.obj
 0001:0008c1f3       __ismbbprint               1008d1f3 f   libucrtd:ismbbyte.obj
 0001:0008c20e       __ismbbprint_l             1008d20e f   libucrtd:ismbbyte.obj
 0001:0008c22a       __ismbbpunct               1008d22a f   libucrtd:ismbbyte.obj
 0001:0008c242       __ismbbpunct_l             1008d242 f   libucrtd:ismbbyte.obj
 0001:0008c25b       __ismbbtrail               1008d25b f   libucrtd:ismbbyte.obj
 0001:0008c273       __ismbbtrail_l             1008d273 f   libucrtd:ismbbyte.obj
 0001:0008c290       ___acrt_initialize_command_line 1008d290 f   libucrtd:argv_data.obj
 0001:0008c2b0       ___acrt_uninitialize_command_line 1008d2b0 f   libucrtd:argv_data.obj
 0001:0008c2c0       ___p___argc                1008d2c0 f   libucrtd:argv_data.obj
 0001:0008c2d0       ___p___argv                1008d2d0 f   libucrtd:argv_data.obj
 0001:0008c2e0       ___p___wargv               1008d2e0 f   libucrtd:argv_data.obj
 0001:0008c2f0       ___p__acmdln               1008d2f0 f   libucrtd:argv_data.obj
 0001:0008c300       ___p__pgmptr               1008d300 f   libucrtd:argv_data.obj
 0001:0008c310       ___p__wcmdln               1008d310 f   libucrtd:argv_data.obj
 0001:0008c320       ___p__wpgmptr              1008d320 f   libucrtd:argv_data.obj
 0001:0008c330       __get_pgmptr               1008d330 f   libucrtd:argv_data.obj
 0001:0008c440       __get_wpgmptr              1008d440 f   libucrtd:argv_data.obj
 0001:0008c600       ___acrt_MultiByteToWideChar 1008d600 f   libucrtd:multibytetowidechar.obj
 0001:0008c700       ___acrt_WideCharToMultiByte 1008d700 f   libucrtd:widechartomultibyte.obj
 0001:0008c842       ___dcrt_get_narrow_environment_from_os 1008d842 f   libucrtd:get_environment_from_os.obj
 0001:0008c8d4       ___dcrt_get_wide_environment_from_os 1008d8d4 f   libucrtd:get_environment_from_os.obj
 0001:0008d269       ??$get_or_create_environment_nolock@$$V@?$__crt_char_traits@D@@SAPAPADXZ 1008e269 f i libucrtd:setenv.obj
 0001:0008d26e       ??$get_or_create_environment_nolock@$$V@?$__crt_char_traits@_W@@SAPAPA_WXZ 1008e26e f i libucrtd:setenv.obj
 0001:0008d273       ??$set_environment_variable@ABQADQAD@?$__crt_char_traits@D@@SAHABQAD$$QBQAD@Z 1008e273 f i libucrtd:setenv.obj
 0001:0008d28b       ??$set_environment_variable@ABQA_WQA_W@?$__crt_char_traits@_W@@SAHABQA_W$$QBQA_W@Z 1008e28b f i libucrtd:setenv.obj
 0001:0008d2a2       ??$tcschr@ABQADD@?$__crt_char_traits@D@@SAPADABQAD$$QAD@Z 1008e2a2 f i libucrtd:setenv.obj
 0001:0008d2bc       ??$tcschr@ABQA_WD@?$__crt_char_traits@_W@@SAPA_WABQA_W$$QAD@Z 1008e2bc f i libucrtd:setenv.obj
 0001:0008d2da       ??$tcscpy_s@AAPADABIAAPAD@?$__crt_char_traits@D@@SAHAAPADABI0@Z 1008e2da f i libucrtd:setenv.obj
 0001:0008d2f8       ??$tcscpy_s@AAPA_WABIAAPA_W@?$__crt_char_traits@_W@@SAHAAPA_WABI0@Z 1008e2f8 f i libucrtd:setenv.obj
 0001:0008d316       ??$tcscpy_s@ABQADABIABQAD@?$__crt_char_traits@D@@SAHABQADABI0@Z 1008e316 f i libucrtd:setenv.obj
 0001:0008d334       ??$tcscpy_s@ABQA_WABIABQA_W@?$__crt_char_traits@_W@@SAHABQA_WABI0@Z 1008e334 f i libucrtd:setenv.obj
 0001:0008d352       ??$tcslen@ABQAD@?$__crt_char_traits@D@@SAIABQAD@Z 1008e352 f i libucrtd:setenv.obj
 0001:0008d36a       ??$tcslen@ABQA_W@?$__crt_char_traits@_W@@SAIABQA_W@Z 1008e36a f i libucrtd:setenv.obj
 0001:0008d388       ??$tcsnicoll@ABQBDAAPADABI@?$__crt_char_traits@D@@SAHABQBDAAPADABI@Z 1008e388 f i libucrtd:setenv.obj
 0001:0008d3a6       ??$tcsnicoll@ABQB_WAAPA_WABI@?$__crt_char_traits@_W@@SAHABQB_WAAPA_WABI@Z 1008e3a6 f i libucrtd:setenv.obj
 0001:0008d3c4       ??$tcsnlen@PADH@?$__crt_char_traits@D@@SAI$$QAPAD$$QAH@Z 1008e3c4 f i libucrtd:setenv.obj
 0001:0008d3dc       ??$tcsnlen@PA_WH@?$__crt_char_traits@_W@@SAI$$QAPA_W$$QAH@Z 1008e3dc f i libucrtd:setenv.obj
 0001:0008d418       ?strchr@@YAPADQADH@Z       1008e418 f i libucrtd:setenv.obj
 0001:0008d423       ?wcschr@@YAPA_WPA_W_W@Z    1008e423 f i libucrtd:setenv.obj
 0001:0008d42e       ___dcrt_set_variable_in_narrow_environment_nolock 1008e42e f   libucrtd:setenv.obj
 0001:0008d439       ___dcrt_set_variable_in_wide_environment_nolock 1008e439 f   libucrtd:setenv.obj
 0001:0008d450       ___acrt_getheap            1008e450 f   libucrtd:heap_handle.obj
 0001:0008d490       ___acrt_initialize_heap    1008e490 f   libucrtd:heap_handle.obj
 0001:0008d4c0       ___acrt_uninitialize_heap  1008e4c0 f   libucrtd:heap_handle.obj
 0001:0008d4e0       __get_heap_handle          1008e4e0 f   libucrtd:heap_handle.obj
 0001:0008d520       ___acrt_execute_initializers 1008e520 f   libucrtd:shared_initialization.obj
 0001:0008d5d0       ___acrt_execute_uninitializers 1008e5d0 f   libucrtd:shared_initialization.obj
 0001:0008d630       ??$__crt_fast_decode_pointer@P6AHPAU_exception@@@Z@@YAP6AHPAU_exception@@@ZQ6AH0@Z@Z 1008e630 f i libucrtd:matherr.obj
 0001:0008d660       ??$__crt_fast_encode_pointer@P6AHPAU_exception@@@Z@@YAP6AHPAU_exception@@@ZQ6AH0@Z@Z 1008e660 f i libucrtd:matherr.obj
 0001:0008d690       ?initialize@?$dual_state_global@P6AHPAU_exception@@@Z@__crt_state_management@@QAEXQ6AHPAU_exception@@@Z@Z 1008e690 f i libucrtd:matherr.obj
 0001:0008d6d0       ?value@?$dual_state_global@P6AHPAU_exception@@@Z@__crt_state_management@@QAEAAP6AHPAU_exception@@@ZXZ 1008e6d0 f i libucrtd:matherr.obj
 0001:0008d6f0       ___acrt_has_user_matherr   1008e6f0 f   libucrtd:matherr.obj
 0001:0008d730       ___acrt_initialize_user_matherr 1008e730 f   libucrtd:matherr.obj
 0001:0008d750       ___acrt_invoke_user_matherr 1008e750 f   libucrtd:matherr.obj
 0001:0008d7a0       ___setusermatherr          1008e7a0 f   libucrtd:matherr.obj
 0001:0008d7e0       __free_base                1008e7e0 f   libucrtd:free_base.obj
 0001:0008d890       __expand                   1008e890 f   libucrtd:expand.obj
 0001:0008d8b0       __expand_base              1008e8b0 f   libucrtd:expand.obj
 0001:0008d9e0       ?value@?$dual_state_global@J@__crt_state_management@@QAEAAJXZ 1008e9e0 f i libucrtd:new_mode.obj
 0001:0008da00       __query_new_mode           1008ea00 f   libucrtd:new_mode.obj
