 OPOSPOSPrinter

 Timestamp is 5defaa98 (Tue Dec 10 23:24:24 2019)

 Preferred load address is 10000000

 Start         Length     Name                   Class
 0001:00000000 00000d90H .text$di                CODE
 0001:00000d90 000ab770H .text$mn                CODE
 0001:000ac500 000001c0H .text$x                 CODE
 0001:000ac6c0 00000120H .text$yd                CODE
 0002:00000000 00000358H .idata$5                DATA
 0002:00000358 00000004H .00cfg                  DATA
 0002:0000035c 00000004H .CRT$XCA                DATA
 0002:00000360 00000004H .CRT$XCL                DATA
 0002:00000364 0000006cH .CRT$XCU                DATA
 0002:000003d0 00000004H .CRT$XCZ                DATA
 0002:000003d4 00000004H .CRT$XIA                DATA
 0002:000003d8 00000010H .CRT$XIC                DATA
 0002:000003e8 00000004H .CRT$XIZ                DATA
 0002:000003ec 00000004H .CRT$XLA                DATA
 0002:000003f0 00000004H .CRT$XLZ                DATA
 0002:000003f4 00000004H .CRT$XPA                DATA
 0002:000003f8 00000008H .CRT$XPX                DATA
 0002:00000400 00000004H .CRT$XPXA               DATA
 0002:00000404 00000004H .CRT$XPZ                DATA
 0002:00000408 00000004H .CRT$XTA                DATA
 0002:0000040c 00000004H .CRT$XTZ                DATA
 0002:00000410 00000000H .gfids$y                DATA
 0002:00000410 0003079cH .rdata                  DATA
 0002:00030bac 00000018H .rdata$T                DATA
 0002:00030bc4 0000033cH .rdata$r                DATA
 0002:00030f00 00000044H .rdata$sxdata           DATA
 0002:00030f44 00000404H .rdata$zzzdbg           DATA
 0002:00031348 00000004H .rtc$IAA                DATA
 0002:0003134c 00000018H .rtc$IMZ                DATA
 0002:00031364 00000004H .rtc$IZZ                DATA
 0002:00031368 00000004H .rtc$TAA                DATA
 0002:0003136c 00000018H .rtc$TMZ                DATA
 0002:00031384 00000004H .rtc$TZZ                DATA
 0002:00031388 00000004H .tls                    DATA
 0002:0003138c 00000004H .tls$                   DATA
 0002:00031390 00000008H .tls$ZZZ                DATA
 0002:00031398 00000e4cH .xdata$x                DATA
 0002:000321e4 00000004H ATL$__a                 DATA
 0002:000321e8 00000008H ATL$__z                 DATA
 0002:000321f0 000000acH .edata                  DATA
 0002:0003229c 00000078H .idata$2                DATA
 0002:00032314 00000014H .idata$3                DATA
 0002:00032328 00000358H .idata$4                DATA
 0002:00032680 00000d50H .idata$6                DATA
 0003:00000000 00000c10H .data                   DATA
 0003:00000c10 00000138H .data$r                 DATA
 0003:00000d48 00003580H .bss                    DATA
 0004:00000000 00000220H .rsrc$01                DATA
 0004:00000220 000091d0H .rsrc$02                DATA

  Address         Publics by Value              Rva+Base       Lib:Object

 0000:00000000       ___guard_longjmp_count     00000000     <absolute>
 0000:00000000       ___guard_fids_table        00000000     <absolute>
 0000:00000000       __except_list              00000000     <absolute>
 0000:00000000       ___AbsoluteZero            00000000     <absolute>
 0000:00000000       ___guard_iat_count         00000000     <absolute>
 0000:00000000       ___guard_longjmp_table     00000000     <absolute>
 0000:00000000       ___hybrid_code_map         00000000     <absolute>
 0000:00000000       ___hybrid_code_map_count   00000000     <absolute>
 0000:00000000       ___guard_fids_count        00000000     <absolute>
 0000:00000000       ___dynamic_value_reloc_table 00000000     <absolute>
 0000:00000000       ___enclave_config          00000000     <absolute>
 0000:00000000       ___hybrid_auxiliary_iat    00000000     <absolute>
 0000:00000000       ___guard_iat_table         00000000     <absolute>
 0000:00000000       ___volatile_metadata       00000000     <absolute>
 0000:00000011       ___safe_se_handler_count   00000011     <absolute>
 0000:0000002c       __tls_array                0000002c     <absolute>
 0000:00000100       ___guard_flags             00000100     <absolute>
 0000:00000000       ___ImageBase               10000000     <linker-defined>
 0001:00000d90       ?_assert@@YAXPB_W0I@Z      10001d90 f   Assert.obj
 0001:00000ec0       ___local_stdio_printf_options 10001ec0 f i Assert.obj
 0001:00000ed0       ___vswprintf_l             10001ed0 f i Assert.obj
 0001:00000f00       __swprintf                 10001f00 f i Assert.obj
 0001:00000f60       __vswprintf_c_l            10001f60 f i Assert.obj
 0001:00000fd0       __vswprintf_l              10001fd0 f i Assert.obj
 0001:00001000       ?cw_memcpy@@YGHPADPB_WH@Z  10002000 f   CWString.obj
 0001:00001060       ?cw_memcpy@@YGHPA_WPBDH@Z  10002060 f   CWString.obj
 0001:000010c0       ?cw_memcpy@@YGHPADPBDH@Z   100020c0 f   CWString.obj
 0001:00001110       ?cw_memcpy@@YGHPA_WPB_WH@Z 10002110 f   CWString.obj
 0001:00001150       ?cw_memset@@YAXPADDH@Z     10002150 f   CWString.obj
 0001:00001170       ?cw_memset@@YAXPA_W_WH@Z   10002170 f   CWString.obj
 0001:00001190       ?cw_strlen@@YAHPBD@Z       10002190 f   CWString.obj
 0001:000011e0       ?cw_strlen@@YAHPB_W@Z      100021e0 f   CWString.obj
 0001:00001230       ?cw_strcpy@@YAHPADPB_W@Z   10002230 f   CWString.obj
 0001:00001250       ?cw_strcpy@@YAHPA_WPBD@Z   10002250 f   CWString.obj
 0001:00001270       ?cw_strcpy@@YAHPADPBD@Z    10002270 f   CWString.obj
 0001:00001290       ?cw_strcpy@@YAHPA_WPB_W@Z  10002290 f   CWString.obj
 0001:000012b0       ?cw_strcat@@YAHPADPB_W@Z   100022b0 f   CWString.obj
 0001:000012e0       ?cw_strcat@@YAHPA_WPBD@Z   100022e0 f   CWString.obj
 0001:00001310       ?cw_strcat@@YAHPADPBD@Z    10002310 f   CWString.obj
 0001:00001340       ?cw_strcat@@YAHPA_WPB_W@Z  10002340 f   CWString.obj
 0001:00001370       ?cw_dup@@YGXPBDAAHAAPA_W1@Z 10002370 f   CWString.obj
 0001:00001430       ?cw_dup@@YGXPB_WAAHAAPAD1@Z 10002430 f   CWString.obj
 0001:000014e0       ?DupChar@_CW@@AAEXXZ       100024e0 f   CWString.obj
 0001:00001530       ?DupWide@_CW@@AAEXXZ       10002530 f   CWString.obj
 0001:00001580       ?GetCharsMbcs@_CW@@QAEHXZ  10002580 f   CWString.obj
 0001:000015e0       ?GetCharsWide@_CW@@QAEHXZ  100025e0 f   CWString.obj
 0001:00001640       ?SetVARIANT_BOOL@OposVariant@@QAEXF@Z 10002640 f   OposVariant.obj
 0001:000016a0       ?SetVARIANT_BOOL_Ptr@OposVariant@@QAEXPAFAAJ@Z 100026a0 f   OposVariant.obj
 0001:000016f0       ?GetLONG@OposVariant@@QAEJXZ 100026f0 f   OposVariant.obj
 0001:00001780       ?ChangeLONG@OposVariant@@QAEXPAJAAJ@Z 10002780 f   OposVariant.obj
 0001:00001840       ?SetLONG@OposVariant@@QAEXJ@Z 10002840 f   OposVariant.obj
 0001:00001880       ?SetLONG_Ptr@OposVariant@@QAEXPAJAAJ@Z 10002880 f   OposVariant.obj
 0001:000018d0       ?ChangeCURRENCY@OposVariant@@QAEXPATtagCY@@AAJ@Z 100028d0 f   OposVariant.obj
 0001:00001990       ?SetCURRENCY@OposVariant@@QAEXTtagCY@@@Z 10002990 f   OposVariant.obj
 0001:000019d0       ?SetCURRENCY_Ptr@OposVariant@@QAEXPATtagCY@@AAJ@Z 100029d0 f   OposVariant.obj
 0001:00001a20       ?ChangeBSTR@OposVariant@@QAEXPAPA_WAAJ@Z 10002a20 f   OposVariant.obj
 0001:00001ae0       ?SetBSTR@OposVariant@@QAEXPA_WAAJ@Z 10002ae0 f   OposVariant.obj
 0001:00001b30       ?SetBSTR_Copy@OposVariant@@QAEXPA_WAAJ@Z 10002b30 f   OposVariant.obj
 0001:00001bd0       ?SetBSTR_OutPtr@OposVariant@@QAE_NPAPA_WAAJ@Z 10002bd0 f   OposVariant.obj
 0001:00001c20       ?SetBSTR_InOutPtr@OposVariant@@QAE_NPAPA_WAAJ@Z 10002c20 f   OposVariant.obj
 0001:00001c70       ?SetVARIANT@OposVariant@@QAEXAAUtagVARIANT@@GAAJ@Z 10002c70 f   OposVariant.obj
 0001:00001cf0       ?SetVARIANT_Ptr@OposVariant@@QAEXAAPAUtagVARIANT@@GAAJ@Z 10002cf0 f   OposVariant.obj
 0001:00001d90       ?SetString@OposVariant@@QAEXPB_WAAJ@Z 10002d90 f   OposVariant.obj
 0001:00001e20       ?SetDispatch_Ptr@OposVariant@@QAEXPAUIDispatch@@AAJ@Z 10002e20 f   OposVariant.obj
 0001:00001e90       ??0OposDispParms@@QAE@PAVOposVariant@@H@Z 10002e90 f   OposVariant.obj
 0001:00001f60       ??1OposDispParms@@QAE@XZ   10002f60 f   OposVariant.obj
 0001:00001fb0       ??$AtlMultiply@I@ATL@@YAJPAIII@Z 10002fb0 f i OposVariant.obj
 0001:00002010       ??0?$CHeapPtr@_WVCCRTAllocator@ATL@@@ATL@@QAE@XZ 10003010 f i OposVariant.obj
 0001:00002040       ??0?$CHeapPtrBase@_WVCCRTAllocator@ATL@@@ATL@@IAE@XZ 10003040 f i OposVariant.obj
 0001:00002060       ??0?$CSimpleArray@GV?$CSimpleArrayEqualHelper@G@ATL@@@ATL@@QAE@XZ 10003060 f i OposVariant.obj
 0001:000020a0       ??0?$CTraceCategoryEx@$00$0A@@ATL@@QAE@PB_W@Z 100030a0 f i OposVariant.obj
 0001:000020d0       ??0?$CTraceCategoryEx@$01$0A@@ATL@@QAE@PB_W@Z 100030d0 f i OposVariant.obj
 0001:00002100       ??0?$CTraceCategoryEx@$03$0A@@ATL@@QAE@PB_W@Z 10003100 f i OposVariant.obj
 0001:00002130       ??0?$CTraceCategoryEx@$07$0A@@ATL@@QAE@PB_W@Z 10003130 f i OposVariant.obj
 0001:00002160       ??0?$CTraceCategoryEx@$0BA@$0A@@ATL@@QAE@PB_W@Z 10003160 f i OposVariant.obj
 0001:00002190       ??0?$CTraceCategoryEx@$0BAA@$0A@@ATL@@QAE@PB_W@Z 10003190 f i OposVariant.obj
 0001:000021d0       ??0?$CTraceCategoryEx@$0BAAA@$0A@@ATL@@QAE@PB_W@Z 100031d0 f i OposVariant.obj
 0001:00002210       ??0?$CTraceCategoryEx@$0BAAAA@$0A@@ATL@@QAE@PB_W@Z 10003210 f i OposVariant.obj
 0001:00002250       ??0?$CTraceCategoryEx@$0BAAAAA@$0A@@ATL@@QAE@PB_W@Z 10003250 f i OposVariant.obj
 0001:00002290       ??0?$CTraceCategoryEx@$0CA@$0A@@ATL@@QAE@PB_W@Z 10003290 f i OposVariant.obj
 0001:000022c0       ??0?$CTraceCategoryEx@$0CAA@$0A@@ATL@@QAE@PB_W@Z 100032c0 f i OposVariant.obj
 0001:00002300       ??0?$CTraceCategoryEx@$0CAAA@$0A@@ATL@@QAE@PB_W@Z 10003300 f i OposVariant.obj
 0001:00002340       ??0?$CTraceCategoryEx@$0CAAAA@$0A@@ATL@@QAE@PB_W@Z 10003340 f i OposVariant.obj
 0001:00002380       ??0?$CTraceCategoryEx@$0CAAAAA@$0A@@ATL@@QAE@PB_W@Z 10003380 f i OposVariant.obj
 0001:000023c0       ??0?$CTraceCategoryEx@$0EA@$0A@@ATL@@QAE@PB_W@Z 100033c0 f i OposVariant.obj
 0001:000023f0       ??0?$CTraceCategoryEx@$0EAA@$0A@@ATL@@QAE@PB_W@Z 100033f0 f i OposVariant.obj
 0001:00002430       ??0?$CTraceCategoryEx@$0EAAA@$0A@@ATL@@QAE@PB_W@Z 10003430 f i OposVariant.obj
 0001:00002470       ??0?$CTraceCategoryEx@$0EAAAA@$0A@@ATL@@QAE@PB_W@Z 10003470 f i OposVariant.obj
 0001:000024b0       ??0?$CTraceCategoryEx@$0EAAAAA@$0A@@ATL@@QAE@PB_W@Z 100034b0 f i OposVariant.obj
 0001:000024f0       ??0?$CTraceCategoryEx@$0IA@$0A@@ATL@@QAE@PB_W@Z 100034f0 f i OposVariant.obj
 0001:00002530       ??0?$CTraceCategoryEx@$0IAA@$0A@@ATL@@QAE@PB_W@Z 10003530 f i OposVariant.obj
 0001:00002570       ??0?$CTraceCategoryEx@$0IAAA@$0A@@ATL@@QAE@PB_W@Z 10003570 f i OposVariant.obj
 0001:000025b0       ??0?$CTraceCategoryEx@$0IAAAA@$0A@@ATL@@QAE@PB_W@Z 100035b0 f i OposVariant.obj
 0001:000025f0       ??0CAtlComModule@ATL@@QAE@XZ 100035f0 f i OposVariant.obj
 0001:000026d0       ??0CAtlWinModule@ATL@@QAE@XZ 100036d0 f i OposVariant.obj
 0001:00002760       ??0CComCriticalSection@ATL@@QAE@XZ 10003760 f i OposVariant.obj
 0001:00002790       ??0CPreserveLastError@ATL@@QAE@XZ 10003790 f i OposVariant.obj
 0001:000027d0       ??0CTraceFileAndLineInfo@ATL@@QAE@PBDH@Z 100037d0 f i OposVariant.obj
 0001:00002800       ??0_ATL_COM_MODULE70@ATL@@QAE@XZ 10003800 f i OposVariant.obj
 0001:00002830       ??0_ATL_WIN_MODULE70@ATL@@QAE@XZ 10003830 f i OposVariant.obj
 0001:00002870       ??1?$CHeapPtr@_WVCCRTAllocator@ATL@@@ATL@@QAE@XZ 10003870 f i OposVariant.obj
 0001:000028a0       ??1?$CHeapPtrBase@_WVCCRTAllocator@ATL@@@ATL@@QAE@XZ 100038a0 f i OposVariant.obj
 0001:000028d0       ??1?$CSimpleArray@GV?$CSimpleArrayEqualHelper@G@ATL@@@ATL@@QAE@XZ 100038d0 f i OposVariant.obj
 0001:00002900       ??1CAtlComModule@ATL@@QAE@XZ 10003900 f i OposVariant.obj
 0001:00002930       ??1CAtlWinModule@ATL@@QAE@XZ 10003930 f i OposVariant.obj
 0001:00002960       ??1CComBSTR@ATL@@QAE@XZ    10003960 f i OposVariant.obj
 0001:000029a0       ??1CComCriticalSection@ATL@@QAE@XZ 100039a0 f i OposVariant.obj
 0001:000029c0       ??1CPreserveLastError@ATL@@QAE@XZ 100039c0 f i OposVariant.obj
 0001:00002a00       ??1_ATL_COM_MODULE70@ATL@@QAE@XZ 10003a00 f i OposVariant.obj
 0001:00002a30       ??1_ATL_WIN_MODULE70@ATL@@QAE@XZ 10003a30 f i OposVariant.obj
 0001:00002a70       ??1stringdispid@CComTypeInfoHolder@ATL@@QAE@XZ 10003a70 f i OposVariant.obj
 0001:00002aa0       ??A?$CSimpleArray@GV?$CSimpleArrayEqualHelper@G@ATL@@@ATL@@QAEAAGH@Z 10003aa0 f i OposVariant.obj
 0001:00002b20       ??B?$CHeapPtrBase@_WVCCRTAllocator@ATL@@@ATL@@QBEPA_WXZ 10003b20 f i OposVariant.obj
 0001:00002b40       ??B?$CTraceCategoryEx@$01$0A@@ATL@@QAEIXZ 10003b40 f i OposVariant.obj
 0001:00002b60       ??B?$CTraceCategoryEx@$0CA@$0A@@ATL@@QAEIXZ 10003b60 f i OposVariant.obj
 0001:00002b80       ??RCTraceFileAndLineInfo@ATL@@QBAXHIPB_WZZ 10003b80 f i OposVariant.obj
 0001:00002c20       ??_Estringdispid@CComTypeInfoHolder@ATL@@QAEPAXI@Z 10003c20 f i OposVariant.obj
 0001:00002cb0       ??_H@YGXPAXIIP6EPAX0@Z@Z   10003cb0 f i OposVariant.obj
 0001:00002d20       ??_I@YGXPAXIIP6EX0@Z@Z     10003d20 f i OposVariant.obj
 0001:00002da0       ?Allocate@?$CHeapPtr@_WVCCRTAllocator@ATL@@@ATL@@QAE_NI@Z 10003da0 f i OposVariant.obj
 0001:00002e30       ?Allocate@CCRTAllocator@ATL@@SAPAXI@Z 10003e30 f i OposVariant.obj
 0001:00002e50       ?AllocateBytes@?$CHeapPtrBase@_WVCCRTAllocator@ATL@@@ATL@@QAE_NI@Z 10003e50 f i OposVariant.obj
 0001:00002ec0       ?AtlWinModuleInit@ATL@@YGJPAU_ATL_WIN_MODULE70@1@@Z 10003ec0 f i OposVariant.obj
 0001:00002f90       ?AtlWinModuleTerm@ATL@@YGJPAU_ATL_WIN_MODULE70@1@PAUHINSTANCE__@@@Z 10003f90 f i OposVariant.obj
 0001:00003050       ?Clear@OposVariant@@QAEJXZ 10004050 f i OposVariant.obj
 0001:00003090       ?Free@?$CHeapPtrBase@_WVCCRTAllocator@ATL@@@ATL@@QAEXXZ 10004090 f i OposVariant.obj
 0001:000030d0       ?Free@CCRTAllocator@ATL@@SAXPAX@Z 100040d0 f i OposVariant.obj
 0001:000030f0       ?GetCategoryName@CTrace@ATL@@CAPA_WI@Z 100040f0 f i OposVariant.obj
 0001:00003140       ?GetModuleInstance@CAtlBaseModule@ATL@@QAEPAUHINSTANCE__@@XZ 10004140 f i OposVariant.obj
 0001:00003160       ?GetSize@?$CSimpleArray@GV?$CSimpleArrayEqualHelper@G@ATL@@@ATL@@QBEHXZ 10004160 f i OposVariant.obj
 0001:00003180       ?Init@CComCriticalSection@ATL@@QAEJXZ 10004180 f i OposVariant.obj
 0001:000031e0       ?RegisterCategory@CTrace@ATL@@SAXPB_WI@Z 100041e0 f i OposVariant.obj
 0001:00003270       ?RemoveAll@?$CSimpleArray@GV?$CSimpleArrayEqualHelper@G@ATL@@@ATL@@QAEXXZ 10004270 f i OposVariant.obj
 0001:000032f0       ?Term@CAtlComModule@ATL@@QAEXXZ 100042f0 f i OposVariant.obj
 0001:000033b0       ?Term@CAtlWinModule@ATL@@QAEXXZ 100043b0 f i OposVariant.obj
 0001:000033e0       ?Term@CComCriticalSection@ATL@@QAEJXZ 100043e0 f i OposVariant.obj
 0001:00003420       ?TraceV@CTrace@ATL@@CAXPBDHIIPB_W@Z 10004420 f i OposVariant.obj
 0001:000036a0       ?TraceV@CTrace@ATL@@SAXPBDHIIPB_WPAD@Z 100046a0 f i OposVariant.obj
 0001:000037e0       ?_AtlInitializeCriticalSectionEx@ATL@@YAHPAU_RTL_CRITICAL_SECTION@@KK@Z 100047e0 f i OposVariant.obj
 0001:00003810       ?_AtlRaiseException@ATL@@YAXKK@Z 10004810 f i OposVariant.obj
 0001:00003840       _HRESULT_FROM_WIN32        10004840 f i OposVariant.obj
 0001:00003880       __vswprintf_s_l            10004880 f i OposVariant.obj
 0001:000038f0       _swprintf_s                100048f0 f i OposVariant.obj
 0001:00003950       ?ObjectMain@CComObjectRootBase@ATL@@SGX_N@Z 10004950 f i POSPrinter.obj
 0001:00003960       ?GetCategoryMap@CComObjectRootBase@ATL@@SAPBU_ATL_CATMAP_ENTRY@2@XZ 10004960 f i POSPrinter.obj
 0001:00003970       ?GetObjectDescription@?$CComCoClass@VCOPOSPOSPrinter@@$1?CLSID_OPOSPOSPrinter@@3U_GUID@@B@ATL@@SGPB_WXZ 10004970 f i POSPrinter.obj
 0001:00003980       ?UpdateRegistry@COPOSPOSPrinter@@SGJH@Z 10004980 f i POSPrinter.obj
 0001:000039a0       ?CreateInstance@?$CComCreator@V?$CComObjectCached@VCComClassFactory@ATL@@@ATL@@@ATL@@SGJPAXABU_GUID@@PAPAX@Z 100049a0 f i POSPrinter.obj
 0001:00003b20       ?CreateInstance@?$CComCreator2@V?$CComCreator@V?$CComObject@VCOPOSPOSPrinter@@@ATL@@@ATL@@V?$CComCreator@V?$CComAggObject@VCOPOSPOSPrinter@@@ATL@@@2@@ATL@@SGJPAXABU_GUID@@PAPAX@Z 10004b20 f i POSPrinter.obj
 0001:00003cd0       _DllGetClassObject@12      10004cd0 f   POSPrinter.obj
 0001:00003d00       _DllCanUnloadNow@0         10004d00 f   POSPrinter.obj
 0001:00003d40       _DllRegisterServer@0       10004d40 f   POSPrinter.obj
 0001:00003d60       _DllUnregisterServer@0     10004d60 f   POSPrinter.obj
 0001:00003ef0       _DllMain@12                10004ef0 f   POSPrinter.obj
 0001:00003f50       ??$?2G@Wrapper@?$CSimpleArray@GV?$CSimpleArrayEqualHelper@G@ATL@@@ATL@@SAPAXIPAG@Z 10004f50 f i POSPrinter.obj
 0001:00003f60       ??$?2PA_W@?$Wrapper@PA_W@?$CSimpleMap@PA_WPA_WVCExpansionVectorEqualHelper@ATL@@@ATL@@SAPAXIPAPA_W@Z 10004f60 f i POSPrinter.obj
 0001:00003f70       ??$?4UITypeInfo2@@@?$CComPtr@UITypeInfo@@@ATL@@QAEPAUITypeInfo@@ABV?$CComPtr@UITypeInfo2@@@1@@Z 10004f70 f i POSPrinter.obj
 0001:00003fd0       ??$AtlAdd@K@ATL@@YAJPAKKK@Z 10004fd0 f i POSPrinter.obj
 0001:00004010       ??$AtlAdd@_K@ATL@@YAJPA_K_K1@Z 10005010 f i POSPrinter.obj
 0001:00004080       ??$AtlAddThrow@K@ATL@@YAKKK@Z 10005080 f i POSPrinter.obj
 0001:00004100       ??$AtlModuleRegisterWndClassInfoT@VAtlModuleRegisterWndClassInfoParamW@ATL@@@ATL@@YAGPAU_ATL_BASE_MODULE70@0@PAU_ATL_WIN_MODULE70@0@PAU_ATL_WNDCLASSINFOW@0@PAP6GJPAUHWND__@@IIJ@ZVAtlModuleRegisterWndClassInfoParamW@0@@Z 10005100 f i POSPrinter.obj
 0001:00004510       ??$AtlMultiply@H@ATL@@YAJPAHHH@Z 10005510 f i POSPrinter.obj
 0001:00004590       ??$AtlMultiply@K@ATL@@YAJPAKKK@Z 10005590 f i POSPrinter.obj
 0001:000045f0       ??$AtlMultiplyThrow@I@ATL@@YAIII@Z 100055f0 f i POSPrinter.obj
 0001:00004670       ??$QueryInterface@UIPersistStream@@@IUnknown@@QAGJPAPAUIPersistStream@@@Z 10005670 f i POSPrinter.obj
 0001:000046a0       ??$QueryInterface@UITypeInfo2@@@IUnknown@@QAGJPAPAUITypeInfo2@@@Z 100056a0 f i POSPrinter.obj
 0001:000046d0       ??0?$CAtlModuleT@VCComModule@ATL@@@ATL@@QAE@XZ 100056d0 f i POSPrinter.obj
 0001:00004700       ??0?$CAtlSafeAllocBufferManager@VCCRTAllocator@ATL@@@_ATL_SAFE_ALLOCA_IMPL@ATL@@QAE@XZ 10005700 f i POSPrinter.obj
 0001:00004720       ??0?$CAutoVectorPtr@_W@ATL@@QAE@XZ 10005720 f i POSPrinter.obj
 0001:00004740       ??0?$CComAggObject@VCOPOSPOSPrinter@@@ATL@@QAE@PAX@Z 10005740 f i POSPrinter.obj
 0001:000047b0       ??0?$CComContainedObject@VCOPOSPOSPrinter@@@ATL@@QAE@PAX@Z 100057b0 f i POSPrinter.obj
 0001:000048c0       ??0?$CComCritSecLock@VCComCriticalSection@ATL@@@ATL@@QAE@AAVCComCriticalSection@1@_N@Z 100058c0 f i POSPrinter.obj
 0001:00004920       ??0?$CComEnum@UIEnumConnectionPoints@@$1?_GUID_b196b285_bab4_101a_b69c_00aa00341d07@@3U__s_GUID@@BPAUIConnectionPoint@@V?$_CopyInterface@UIConnectionPoint@@@ATL@@VCComSingleThreadModel@6@@ATL@@QAE@XZ 10005920 f i POSPrinter.obj
 0001:00004960       ??0?$CComEnum@UIEnumConnections@@$1?_GUID_b196b287_bab4_101a_b69c_00aa00341d07@@3U__s_GUID@@BUtagCONNECTDATA@@V?$_Copy@UtagCONNECTDATA@@@ATL@@VCComSingleThreadModel@6@@ATL@@QAE@XZ 10005960 f i POSPrinter.obj
 0001:000049a0       ??0?$CComEnumImpl@UIEnumConnectionPoints@@$1?_GUID_b196b285_bab4_101a_b69c_00aa00341d07@@3U__s_GUID@@BPAUIConnectionPoint@@V?$_CopyInterface@UIConnectionPoint@@@ATL@@@ATL@@QAE@XZ 100059a0 f i POSPrinter.obj
 0001:00004a00       ??0?$CComEnumImpl@UIEnumConnections@@$1?_GUID_b196b287_bab4_101a_b69c_00aa00341d07@@3U__s_GUID@@BUtagCONNECTDATA@@V?$_Copy@UtagCONNECTDATA@@@ATL@@@ATL@@QAE@XZ 10005a00 f i POSPrinter.obj
 0001:00004a60       ??0?$CComObject@V?$CComEnum@UIEnumConnectionPoints@@$1?_GUID_b196b285_bab4_101a_b69c_00aa00341d07@@3U__s_GUID@@BPAUIConnectionPoint@@V?$_CopyInterface@UIConnectionPoint@@@ATL@@VCComSingleThreadModel@6@@ATL@@@ATL@@QAE@PAX@Z 10005a60 f i POSPrinter.obj
 0001:00004ab0       ??0?$CComObject@V?$CComEnum@UIEnumConnections@@$1?_GUID_b196b287_bab4_101a_b69c_00aa00341d07@@3U__s_GUID@@BUtagCONNECTDATA@@V?$_Copy@UtagCONNECTDATA@@@ATL@@VCComSingleThreadModel@6@@ATL@@@ATL@@QAE@PAX@Z 10005ab0 f i POSPrinter.obj
 0001:00004b00       ??0?$CComObject@VCOPOSPOSPrinter@@@ATL@@QAE@PAX@Z 10005b00 f i POSPrinter.obj
 0001:00004c20       ??0?$CComObjectCached@VCComClassFactory@ATL@@@ATL@@QAE@PAX@Z 10005c20 f i POSPrinter.obj
 0001:00004c60       ??0?$CComObjectRootEx@VCComMultiThreadModel@ATL@@@ATL@@QAE@XZ 10005c60 f i POSPrinter.obj
 0001:00004ca0       ??0?$CComObjectRootEx@VCComSingleThreadModel@ATL@@@ATL@@QAE@XZ 10005ca0 f i POSPrinter.obj
 0001:00004cd0       ??0?$CComPtr@UIAdviseSink@@@ATL@@QAE@PAUIAdviseSink@@@Z 10005cd0 f i POSPrinter.obj
 0001:00004d00       ??0?$CComPtr@UICatRegister@@@ATL@@QAE@XZ 10005d00 f i POSPrinter.obj
 0001:00004d30       ??0?$CComPtr@UIConnectionPoint@@@ATL@@QAE@XZ 10005d30 f i POSPrinter.obj
 0001:00004d60       ??0?$CComPtr@UIConnectionPointContainer@@@ATL@@QAE@XZ 10005d60 f i POSPrinter.obj
 0001:00004d90       ??0?$CComPtr@UIDataObject@@@ATL@@QAE@XZ 10005d90 f i POSPrinter.obj
 0001:00004dc0       ??0?$CComPtr@UIDispatch@@@ATL@@QAE@XZ 10005dc0 f i POSPrinter.obj
 0001:00004df0       ??0?$CComPtr@UIOleClientSite@@@ATL@@QAE@PAUIOleClientSite@@@Z 10005df0 f i POSPrinter.obj
 0001:00004e20       ??0?$CComPtr@UIOleControlSite@@@ATL@@QAE@XZ 10005e20 f i POSPrinter.obj
 0001:00004e50       ??0?$CComPtr@UIOleInPlaceActiveObject@@@ATL@@QAE@XZ 10005e50 f i POSPrinter.obj
 0001:00004e80       ??0?$CComPtr@UIOleInPlaceFrame@@@ATL@@QAE@XZ 10005e80 f i POSPrinter.obj
 0001:00004eb0       ??0?$CComPtr@UIOleInPlaceObject@@@ATL@@QAE@XZ 10005eb0 f i POSPrinter.obj
 0001:00004ee0       ??0?$CComPtr@UIOleInPlaceUIWindow@@@ATL@@QAE@XZ 10005ee0 f i POSPrinter.obj
 0001:00004f10       ??0?$CComPtr@UIOleObject@@@ATL@@QAE@XZ 10005f10 f i POSPrinter.obj
 0001:00004f40       ??0?$CComPtr@UIPersistStream@@@ATL@@QAE@XZ 10005f40 f i POSPrinter.obj
 0001:00004f70       ??0?$CComPtr@UIPersistStreamInit@@@ATL@@QAE@XZ 10005f70 f i POSPrinter.obj
 0001:00004fa0       ??0?$CComPtr@UIPointerInactive@@@ATL@@QAE@XZ 10005fa0 f i POSPrinter.obj
 0001:00004fd0       ??0?$CComPtr@UIProvideClassInfo2@@@ATL@@QAE@XZ 10005fd0 f i POSPrinter.obj
 0001:00005000       ??0?$CComPtr@UISpecifyPropertyPages@@@ATL@@QAE@XZ 10006000 f i POSPrinter.obj
 0001:00005030       ??0?$CComPtr@UIStream@@@ATL@@QAE@XZ 10006030 f i POSPrinter.obj
 0001:00005060       ??0?$CComPtr@UITypeInfo2@@@ATL@@QAE@XZ 10006060 f i POSPrinter.obj
 0001:00005090       ??0?$CComPtr@UITypeInfo@@@ATL@@QAE@ABV01@@Z 10006090 f i POSPrinter.obj
 0001:000050c0       ??0?$CComPtr@UITypeInfo@@@ATL@@QAE@XZ 100060c0 f i POSPrinter.obj
 0001:000050f0       ??0?$CComPtr@UITypeLib@@@ATL@@QAE@XZ 100060f0 f i POSPrinter.obj
 0001:00005120       ??0?$CComPtr@UIUnknown@@@ATL@@QAE@ABV01@@Z 10006120 f i POSPrinter.obj
 0001:00005150       ??0?$CComPtr@UIUnknown@@@ATL@@QAE@PAUIUnknown@@@Z 10006150 f i POSPrinter.obj
 0001:00005180       ??0?$CComPtr@UIUnknown@@@ATL@@QAE@XZ 10006180 f i POSPrinter.obj
 0001:000051b0       ??0?$CComPtr@UIViewObjectEx@@@ATL@@QAE@XZ 100061b0 f i POSPrinter.obj
 0001:000051e0       ??0?$CComPtrBase@UIAdviseSink@@@ATL@@IAE@PAUIAdviseSink@@@Z 100061e0 f i POSPrinter.obj
 0001:00005230       ??0?$CComPtrBase@UICatRegister@@@ATL@@IAE@XZ 10006230 f i POSPrinter.obj
 0001:00005250       ??0?$CComPtrBase@UIConnectionPoint@@@ATL@@IAE@XZ 10006250 f i POSPrinter.obj
 0001:00005270       ??0?$CComPtrBase@UIConnectionPointContainer@@@ATL@@IAE@XZ 10006270 f i POSPrinter.obj
 0001:00005290       ??0?$CComPtrBase@UIDataObject@@@ATL@@IAE@XZ 10006290 f i POSPrinter.obj
 0001:000052b0       ??0?$CComPtrBase@UIDispatch@@@ATL@@IAE@XZ 100062b0 f i POSPrinter.obj
 0001:000052d0       ??0?$CComPtrBase@UIOleClientSite@@@ATL@@IAE@PAUIOleClientSite@@@Z 100062d0 f i POSPrinter.obj
 0001:00005320       ??0?$CComPtrBase@UIOleControlSite@@@ATL@@IAE@XZ 10006320 f i POSPrinter.obj
 0001:00005340       ??0?$CComPtrBase@UIOleInPlaceActiveObject@@@ATL@@IAE@XZ 10006340 f i POSPrinter.obj
 0001:00005360       ??0?$CComPtrBase@UIOleInPlaceFrame@@@ATL@@IAE@XZ 10006360 f i POSPrinter.obj
 0001:00005380       ??0?$CComPtrBase@UIOleInPlaceObject@@@ATL@@IAE@XZ 10006380 f i POSPrinter.obj
 0001:000053a0       ??0?$CComPtrBase@UIOleInPlaceUIWindow@@@ATL@@IAE@XZ 100063a0 f i POSPrinter.obj
 0001:000053c0       ??0?$CComPtrBase@UIOleObject@@@ATL@@IAE@XZ 100063c0 f i POSPrinter.obj
 0001:000053e0       ??0?$CComPtrBase@UIPersistStream@@@ATL@@IAE@XZ 100063e0 f i POSPrinter.obj
 0001:00005400       ??0?$CComPtrBase@UIPersistStreamInit@@@ATL@@IAE@XZ 10006400 f i POSPrinter.obj
 0001:00005420       ??0?$CComPtrBase@UIPointerInactive@@@ATL@@IAE@XZ 10006420 f i POSPrinter.obj
 0001:00005440       ??0?$CComPtrBase@UIProvideClassInfo2@@@ATL@@IAE@XZ 10006440 f i POSPrinter.obj
 0001:00005460       ??0?$CComPtrBase@UISpecifyPropertyPages@@@ATL@@IAE@XZ 10006460 f i POSPrinter.obj
 0001:00005480       ??0?$CComPtrBase@UIStream@@@ATL@@IAE@XZ 10006480 f i POSPrinter.obj
 0001:000054a0       ??0?$CComPtrBase@UITypeInfo2@@@ATL@@IAE@XZ 100064a0 f i POSPrinter.obj
 0001:000054c0       ??0?$CComPtrBase@UITypeInfo@@@ATL@@IAE@PAUITypeInfo@@@Z 100064c0 f i POSPrinter.obj
 0001:00005510       ??0?$CComPtrBase@UITypeInfo@@@ATL@@IAE@XZ 10006510 f i POSPrinter.obj
 0001:00005530       ??0?$CComPtrBase@UITypeLib@@@ATL@@IAE@XZ 10006530 f i POSPrinter.obj
 0001:00005550       ??0?$CComPtrBase@UIUnknown@@@ATL@@IAE@PAUIUnknown@@@Z 10006550 f i POSPrinter.obj
 0001:000055a0       ??0?$CComPtrBase@UIUnknown@@@ATL@@IAE@XZ 100065a0 f i POSPrinter.obj
 0001:000055c0       ??0?$CComPtrBase@UIViewObjectEx@@@ATL@@IAE@XZ 100065c0 f i POSPrinter.obj
 0001:000055e0       ??0?$CComQIPtr@UIOleControlSite@@$1?_GUID_b196b289_bab4_101a_b69c_00aa00341d07@@3U__s_GUID@@B@ATL@@QAE@PAUIUnknown@@@Z 100065e0 f i POSPrinter.obj
 0001:00005640       ??0?$CComQIPtr@UIOleObject@@$1?_GUID_00000112_0000_0000_c000_000000000046@@3U__s_GUID@@B@ATL@@QAE@XZ 10006640 f i POSPrinter.obj
 0001:00005670       ??0?$CComQIPtr@UISpecifyPropertyPages@@$1?_GUID_b196b28b_bab4_101a_b69c_00aa00341d07@@3U__s_GUID@@B@ATL@@QAE@XZ 10006670 f i POSPrinter.obj
 0001:000056a0       ??0?$CSimpleMap@PA_WPA_WVCExpansionVectorEqualHelper@ATL@@@ATL@@QAE@XZ 100066a0 f i POSPrinter.obj
 0001:000056e0       ??0?$CTempBuffer@E$0BAA@VCCRTAllocator@ATL@@@ATL@@QAE@XZ 100066e0 f i POSPrinter.obj
 0001:00005700       ??0?$CTempBuffer@_W$0BAA@VCCRTAllocator@ATL@@@ATL@@QAE@XZ 10006700 f i POSPrinter.obj
 0001:00005720       ??0?$CTempBuffer@_W$0EAA@VCCRTAllocator@ATL@@@ATL@@QAE@XZ 10006720 f i POSPrinter.obj
 0001:00005740       ??0?$Wrapper@PA_W@?$CSimpleMap@PA_WPA_WVCExpansionVectorEqualHelper@ATL@@@ATL@@QAE@ABQA_W@Z 10006740 f i POSPrinter.obj
 0001:00005770       ??0CAtlModule@ATL@@QAE@XZ  10006770 f i POSPrinter.obj
 0001:00005890       ??0CComAutoDeleteCriticalSection@ATL@@QAE@XZ 10006890 f i POSPrinter.obj
 0001:000058c0       ??0CComBSTR@ATL@@QAE@XZ    100068c0 f i POSPrinter.obj
 0001:000058e0       ??0CComClassFactory@ATL@@QAE@XZ 100068e0 f i POSPrinter.obj
 0001:00005920       ??0CComModule@ATL@@QAE@XZ  10006920 f i POSPrinter.obj
 0001:00005990       ??0CComObjectRootBase@ATL@@QAE@XZ 10006990 f i POSPrinter.obj
 0001:000059b0       ??0CComSafeDeleteCriticalSection@ATL@@QAE@XZ 100069b0 f i POSPrinter.obj
 0001:000059e0       ??0CComVariant@ATL@@QAE@XZ 100069e0 f i POSPrinter.obj
 0001:00005a30       ??0CExpansionVector@ATL@@QAE@XZ 10006a30 f i POSPrinter.obj
 0001:00005a60       ??0CParseBuffer@CRegParser@ATL@@QAE@H@Z 10006a60 f i POSPrinter.obj
 0001:00005ad0       ??0CRegKey@ATL@@QAE@PAUHKEY__@@@Z 10006ad0 f i POSPrinter.obj
 0001:00005b10       ??0CRegKey@ATL@@QAE@PAVCAtlTransactionManager@1@@Z 10006b10 f i POSPrinter.obj
 0001:00005b50       ??0CRegObject@ATL@@QAE@XZ  10006b50 f i POSPrinter.obj
 0001:00005b90       ??0CRegParser@ATL@@QAE@PAVCRegObject@1@@Z 10006b90 f i POSPrinter.obj
 0001:00005bc0       ??0IClassFactory@@QAE@XZ   10006bc0 f i POSPrinter.obj
 0001:00005bf0       ??0IEnumConnectionPoints@@QAE@XZ 10006bf0 f i POSPrinter.obj
 0001:00005c20       ??0IEnumConnections@@QAE@XZ 10006c20 f i POSPrinter.obj
 0001:00005c50       ??0IRegistrarBase@@QAE@XZ  10006c50 f i POSPrinter.obj
 0001:00005c80       ??0IUnknown@@QAE@XZ        10006c80 f i POSPrinter.obj
 0001:00005ca0       ??0ModuleLockHelper@ATL@@QAE@XZ 10006ca0 f i POSPrinter.obj
 0001:00005ce0       ??0OposVariant@@QAE@XZ     10006ce0 f i POSPrinter.obj
 0001:00005d10       ??0Wrapper@?$CSimpleArray@GV?$CSimpleArrayEqualHelper@G@ATL@@@ATL@@QAE@ABG@Z 10006d10 f i POSPrinter.obj
 0001:00005d40       ??0_ATL_MODULE70@ATL@@QAE@XZ 10006d40 f i POSPrinter.obj
 0001:00005d70       ??0_ATL_MSG@ATL@@QAE@PAUHWND__@@IIJH@Z 10006d70 f i POSPrinter.obj
 0001:00005de0       ??0_U_MENUorID@ATL@@QAE@I@Z 10006de0 f i POSPrinter.obj
 0001:00005e00       ??0_U_RECT@ATL@@QAE@AAUtagRECT@@@Z 10006e00 f i POSPrinter.obj
 0001:00005e20       ??0stringdispid@CComTypeInfoHolder@ATL@@QAE@XZ 10006e20 f i POSPrinter.obj
 0001:00005e60       ??1?$CAtlModuleT@VCComModule@ATL@@@ATL@@UAE@XZ 10006e60 f i POSPrinter.obj
 0001:00005e90       ??1?$CAtlSafeAllocBufferManager@VCCRTAllocator@ATL@@@_ATL_SAFE_ALLOCA_IMPL@ATL@@QAE@XZ 10006e90 f i POSPrinter.obj
 0001:00005ee0       ??1?$CAutoVectorPtr@_W@ATL@@QAE@XZ 10006ee0 f i POSPrinter.obj
 0001:00005f10       ??1?$CComAggObject@VCOPOSPOSPrinter@@@ATL@@UAE@XZ 10006f10 f i POSPrinter.obj
 0001:00005f80       ??1?$CComContainedObject@VCOPOSPOSPrinter@@@ATL@@UAE@XZ 10006f80 f i POSPrinter.obj
 0001:00005fb0       ??1?$CComCritSecLock@VCComCriticalSection@ATL@@@ATL@@QAE@XZ 10006fb0 f i POSPrinter.obj
 0001:00005fe0       ??1?$CComEnum@UIEnumConnectionPoints@@$1?_GUID_b196b285_bab4_101a_b69c_00aa00341d07@@3U__s_GUID@@BPAUIConnectionPoint@@V?$_CopyInterface@UIConnectionPoint@@@ATL@@VCComSingleThreadModel@6@@ATL@@UAE@XZ 10006fe0 f i POSPrinter.obj
 0001:00006010       ??1?$CComEnum@UIEnumConnections@@$1?_GUID_b196b287_bab4_101a_b69c_00aa00341d07@@3U__s_GUID@@BUtagCONNECTDATA@@V?$_Copy@UtagCONNECTDATA@@@ATL@@VCComSingleThreadModel@6@@ATL@@UAE@XZ 10007010 f i POSPrinter.obj
 0001:00006040       ??1?$CComEnumImpl@UIEnumConnectionPoints@@$1?_GUID_b196b285_bab4_101a_b69c_00aa00341d07@@3U__s_GUID@@BPAUIConnectionPoint@@V?$_CopyInterface@UIConnectionPoint@@@ATL@@@ATL@@UAE@XZ 10007040 f i POSPrinter.obj
 0001:000060d0       ??1?$CComEnumImpl@UIEnumConnections@@$1?_GUID_b196b287_bab4_101a_b69c_00aa00341d07@@3U__s_GUID@@BUtagCONNECTDATA@@V?$_Copy@UtagCONNECTDATA@@@ATL@@@ATL@@UAE@XZ 100070d0 f i POSPrinter.obj
 0001:00006160       ??1?$CComObject@V?$CComEnum@UIEnumConnectionPoints@@$1?_GUID_b196b285_bab4_101a_b69c_00aa00341d07@@3U__s_GUID@@BPAUIConnectionPoint@@V?$_CopyInterface@UIConnectionPoint@@@ATL@@VCComSingleThreadModel@6@@ATL@@@ATL@@UAE@XZ 10007160 f i POSPrinter.obj
 0001:000061c0       ??1?$CComObject@V?$CComEnum@UIEnumConnections@@$1?_GUID_b196b287_bab4_101a_b69c_00aa00341d07@@3U__s_GUID@@BUtagCONNECTDATA@@V?$_Copy@UtagCONNECTDATA@@@ATL@@VCComSingleThreadModel@6@@ATL@@@ATL@@UAE@XZ 100071c0 f i POSPrinter.obj
 0001:00006220       ??1?$CComObject@VCOPOSPOSPrinter@@@ATL@@UAE@XZ 10007220 f i POSPrinter.obj
 0001:00006360       ??1?$CComObjectCached@VCComClassFactory@ATL@@@ATL@@UAE@XZ 10007360 f i POSPrinter.obj
 0001:000063b0       ??1?$CComObjectRootEx@VCComMultiThreadModel@ATL@@@ATL@@QAE@XZ 100073b0 f i POSPrinter.obj
 0001:000063e0       ??1?$CComObjectRootEx@VCComSingleThreadModel@ATL@@@ATL@@QAE@XZ 100073e0 f i POSPrinter.obj
 0001:00006410       ??1?$CComPtr@UIAdviseSink@@@ATL@@QAE@XZ 10007410 f i POSPrinter.obj
 0001:00006440       ??1?$CComPtr@UICatRegister@@@ATL@@QAE@XZ 10007440 f i POSPrinter.obj
 0001:00006470       ??1?$CComPtr@UIConnectionPoint@@@ATL@@QAE@XZ 10007470 f i POSPrinter.obj
 0001:000064a0       ??1?$CComPtr@UIConnectionPointContainer@@@ATL@@QAE@XZ 100074a0 f i POSPrinter.obj
 0001:000064d0       ??1?$CComPtr@UIDataObject@@@ATL@@QAE@XZ 100074d0 f i POSPrinter.obj
 0001:00006500       ??1?$CComPtr@UIDispatch@@@ATL@@QAE@XZ 10007500 f i POSPrinter.obj
 0001:00006530       ??1?$CComPtr@UIOleClientSite@@@ATL@@QAE@XZ 10007530 f i POSPrinter.obj
 0001:00006560       ??1?$CComPtr@UIOleControlSite@@@ATL@@QAE@XZ 10007560 f i POSPrinter.obj
 0001:00006590       ??1?$CComPtr@UIOleInPlaceActiveObject@@@ATL@@QAE@XZ 10007590 f i POSPrinter.obj
 0001:000065c0       ??1?$CComPtr@UIOleInPlaceFrame@@@ATL@@QAE@XZ 100075c0 f i POSPrinter.obj
 0001:000065f0       ??1?$CComPtr@UIOleInPlaceObject@@@ATL@@QAE@XZ 100075f0 f i POSPrinter.obj
 0001:00006620       ??1?$CComPtr@UIOleInPlaceUIWindow@@@ATL@@QAE@XZ 10007620 f i POSPrinter.obj
 0001:00006650       ??1?$CComPtr@UIOleObject@@@ATL@@QAE@XZ 10007650 f i POSPrinter.obj
 0001:00006680       ??1?$CComPtr@UIPersistStream@@@ATL@@QAE@XZ 10007680 f i POSPrinter.obj
 0001:000066b0       ??1?$CComPtr@UIPersistStreamInit@@@ATL@@QAE@XZ 100076b0 f i POSPrinter.obj
 0001:000066e0       ??1?$CComPtr@UIPointerInactive@@@ATL@@QAE@XZ 100076e0 f i POSPrinter.obj
 0001:00006710       ??1?$CComPtr@UIProvideClassInfo2@@@ATL@@QAE@XZ 10007710 f i POSPrinter.obj
 0001:00006740       ??1?$CComPtr@UISpecifyPropertyPages@@@ATL@@QAE@XZ 10007740 f i POSPrinter.obj
 0001:00006770       ??1?$CComPtr@UIStream@@@ATL@@QAE@XZ 10007770 f i POSPrinter.obj
 0001:000067a0       ??1?$CComPtr@UITypeInfo2@@@ATL@@QAE@XZ 100077a0 f i POSPrinter.obj
 0001:000067d0       ??1?$CComPtr@UITypeInfo@@@ATL@@QAE@XZ 100077d0 f i POSPrinter.obj
 0001:00006800       ??1?$CComPtr@UITypeLib@@@ATL@@QAE@XZ 10007800 f i POSPrinter.obj
 0001:00006830       ??1?$CComPtr@UIUnknown@@@ATL@@QAE@XZ 10007830 f i POSPrinter.obj
 0001:00006860       ??1?$CComPtr@UIViewObjectEx@@@ATL@@QAE@XZ 10007860 f i POSPrinter.obj
 0001:00006890       ??1?$CComPtrBase@UIAdviseSink@@@ATL@@QAE@XZ 10007890 f i POSPrinter.obj
 0001:000068e0       ??1?$CComPtrBase@UICatRegister@@@ATL@@QAE@XZ 100078e0 f i POSPrinter.obj
 0001:00006930       ??1?$CComPtrBase@UIConnectionPoint@@@ATL@@QAE@XZ 10007930 f i POSPrinter.obj
 0001:00006980       ??1?$CComPtrBase@UIConnectionPointContainer@@@ATL@@QAE@XZ 10007980 f i POSPrinter.obj
 0001:000069d0       ??1?$CComPtrBase@UIDataObject@@@ATL@@QAE@XZ 100079d0 f i POSPrinter.obj
 0001:00006a20       ??1?$CComPtrBase@UIDispatch@@@ATL@@QAE@XZ 10007a20 f i POSPrinter.obj
 0001:00006a70       ??1?$CComPtrBase@UIOleClientSite@@@ATL@@QAE@XZ 10007a70 f i POSPrinter.obj
 0001:00006ac0       ??1?$CComPtrBase@UIOleControlSite@@@ATL@@QAE@XZ 10007ac0 f i POSPrinter.obj
 0001:00006b10       ??1?$CComPtrBase@UIOleInPlaceActiveObject@@@ATL@@QAE@XZ 10007b10 f i POSPrinter.obj
 0001:00006b60       ??1?$CComPtrBase@UIOleInPlaceFrame@@@ATL@@QAE@XZ 10007b60 f i POSPrinter.obj
 0001:00006bb0       ??1?$CComPtrBase@UIOleInPlaceObject@@@ATL@@QAE@XZ 10007bb0 f i POSPrinter.obj
 0001:00006c00       ??1?$CComPtrBase@UIOleInPlaceUIWindow@@@ATL@@QAE@XZ 10007c00 f i POSPrinter.obj
 0001:00006c50       ??1?$CComPtrBase@UIOleObject@@@ATL@@QAE@XZ 10007c50 f i POSPrinter.obj
 0001:00006ca0       ??1?$CComPtrBase@UIPersistStream@@@ATL@@QAE@XZ 10007ca0 f i POSPrinter.obj
 0001:00006cf0       ??1?$CComPtrBase@UIPersistStreamInit@@@ATL@@QAE@XZ 10007cf0 f i POSPrinter.obj
 0001:00006d40       ??1?$CComPtrBase@UIPointerInactive@@@ATL@@QAE@XZ 10007d40 f i POSPrinter.obj
 0001:00006d90       ??1?$CComPtrBase@UIProvideClassInfo2@@@ATL@@QAE@XZ 10007d90 f i POSPrinter.obj
 0001:00006de0       ??1?$CComPtrBase@UISpecifyPropertyPages@@@ATL@@QAE@XZ 10007de0 f i POSPrinter.obj
 0001:00006e30       ??1?$CComPtrBase@UIStream@@@ATL@@QAE@XZ 10007e30 f i POSPrinter.obj
 0001:00006e80       ??1?$CComPtrBase@UITypeInfo2@@@ATL@@QAE@XZ 10007e80 f i POSPrinter.obj
 0001:00006ed0       ??1?$CComPtrBase@UITypeInfo@@@ATL@@QAE@XZ 10007ed0 f i POSPrinter.obj
 0001:00006f20       ??1?$CComPtrBase@UITypeLib@@@ATL@@QAE@XZ 10007f20 f i POSPrinter.obj
 0001:00006f70       ??1?$CComPtrBase@UIUnknown@@@ATL@@QAE@XZ 10007f70 f i POSPrinter.obj
 0001:00006fc0       ??1?$CComPtrBase@UIViewObjectEx@@@ATL@@QAE@XZ 10007fc0 f i POSPrinter.obj
 0001:00007010       ??1?$CComQIPtr@UIOleControlSite@@$1?_GUID_b196b289_bab4_101a_b69c_00aa00341d07@@3U__s_GUID@@B@ATL@@QAE@XZ 10008010 f i POSPrinter.obj
 0001:00007040       ??1?$CComQIPtr@UIOleObject@@$1?_GUID_00000112_0000_0000_c000_000000000046@@3U__s_GUID@@B@ATL@@QAE@XZ 10008040 f i POSPrinter.obj
 0001:00007070       ??1?$CComQIPtr@UISpecifyPropertyPages@@$1?_GUID_b196b28b_bab4_101a_b69c_00aa00341d07@@3U__s_GUID@@B@ATL@@QAE@XZ 10008070 f i POSPrinter.obj
 0001:000070a0       ??1?$CSimpleMap@PA_WPA_WVCExpansionVectorEqualHelper@ATL@@@ATL@@QAE@XZ 100080a0 f i POSPrinter.obj
 0001:000070d0       ??1?$CTempBuffer@E$0BAA@VCCRTAllocator@ATL@@@ATL@@QAE@XZ 100080d0 f i POSPrinter.obj
 0001:00007110       ??1?$CTempBuffer@_W$0BAA@VCCRTAllocator@ATL@@@ATL@@QAE@XZ 10008110 f i POSPrinter.obj
 0001:00007150       ??1?$CTempBuffer@_W$0EAA@VCCRTAllocator@ATL@@@ATL@@QAE@XZ 10008150 f i POSPrinter.obj
 0001:00007190       ??1CAtlModule@ATL@@UAE@XZ  10008190 f i POSPrinter.obj
 0001:000071c0       ??1CComAutoDeleteCriticalSection@ATL@@QAE@XZ 100081c0 f i POSPrinter.obj
 0001:000071f0       ??1CComClassFactory@ATL@@UAE@XZ 100081f0 f i POSPrinter.obj
 0001:00007220       ??1CComModule@ATL@@UAE@XZ  10008220 f i POSPrinter.obj
 0001:00007250       ??1CComObjectRootBase@ATL@@QAE@XZ 10008250 f i POSPrinter.obj
 0001:00007270       ??1CComSafeDeleteCriticalSection@ATL@@QAE@XZ 10008270 f i POSPrinter.obj
 0001:000072b0       ??1CComVariant@ATL@@QAE@XZ 100082b0 f i POSPrinter.obj
 0001:00007310       ??1CExpansionVector@ATL@@QAE@XZ 10008310 f i POSPrinter.obj
 0001:00007340       ??1CParseBuffer@CRegParser@ATL@@QAE@XZ 10008340 f i POSPrinter.obj
 0001:00007380       ??1CRegKey@ATL@@QAE@XZ     10008380 f i POSPrinter.obj
 0001:000073b0       ??1CRegObject@ATL@@UAE@XZ  100083b0 f i POSPrinter.obj
 0001:000073f0       ??1ModuleLockHelper@ATL@@QAE@XZ 100083f0 f i POSPrinter.obj
 0001:00007430       ??1OposVariant@@QAE@XZ     10008430 f i POSPrinter.obj
 0001:00007460       ??1_ATL_MODULE70@ATL@@QAE@XZ 10008460 f i POSPrinter.obj
 0001:00007490       ??4?$CComPtr@UIAdviseSink@@@ATL@@QAEPAUIAdviseSink@@PAU2@@Z 10008490 f i POSPrinter.obj
 0001:00007500       ??4?$CComPtr@UIOleClientSite@@@ATL@@QAEPAUIOleClientSite@@PAU2@@Z 10008500 f i POSPrinter.obj
 0001:00007570       ??4?$CComPtr@UIUnknown@@@ATL@@QAEPAUIUnknown@@PAU2@@Z 10008570 f i POSPrinter.obj
 0001:000075e0       ??4?$CComQIPtr@UIOleObject@@$1?_GUID_00000112_0000_0000_c000_000000000046@@3U__s_GUID@@B@ATL@@QAEPAUIOleObject@@PAUIUnknown@@@Z 100085e0 f i POSPrinter.obj
 0001:00007630       ??4?$CComQIPtr@UISpecifyPropertyPages@@$1?_GUID_b196b28b_bab4_101a_b69c_00aa00341d07@@3U__s_GUID@@B@ATL@@QAEPAUISpecifyPropertyPages@@PAUIUnknown@@@Z 10008630 f i POSPrinter.obj
 0001:00007680       ??7?$CComPtrBase@UIOleClientSite@@@ATL@@QBE_NXZ 10008680 f i POSPrinter.obj
 0001:000076c0       ??7?$CComPtrBase@UIOleInPlaceSiteWindowless@@@ATL@@QBE_NXZ 100086c0 f i POSPrinter.obj
 0001:00007700       ??7CComBSTR@ATL@@QBE_NXZ   10008700 f i POSPrinter.obj
 0001:00007740       ??8?$CComPtrBase@UIAdviseSink@@@ATL@@QBE_NPAUIAdviseSink@@@Z 10008740 f i POSPrinter.obj
 0001:00007780       ??8?$CComPtrBase@UIConnectionPointContainer@@@ATL@@QBE_NPAUIConnectionPointContainer@@@Z 10008780 f i POSPrinter.obj
 0001:000077c0       ??8?$CComPtrBase@UIDataAdviseHolder@@@ATL@@QBE_NPAUIDataAdviseHolder@@@Z 100087c0 f i POSPrinter.obj
 0001:00007800       ??8?$CComPtrBase@UIOleAdviseHolder@@@ATL@@QBE_NPAUIOleAdviseHolder@@@Z 10008800 f i POSPrinter.obj
 0001:00007840       ??8?$CComPtrBase@UIOleClientSite@@@ATL@@QBE_NPAUIOleClientSite@@@Z 10008840 f i POSPrinter.obj
 0001:00007880       ??8?$CComPtrBase@UIOleControlSite@@@ATL@@QBE_NPAUIOleControlSite@@@Z 10008880 f i POSPrinter.obj
 0001:000078c0       ??8?$CComPtrBase@UIOleInPlaceObject@@@ATL@@QBE_NPAUIOleInPlaceObject@@@Z 100088c0 f i POSPrinter.obj
 0001:00007900       ??8?$CComPtrBase@UIOleInPlaceSiteWindowless@@@ATL@@QBE_NPAUIOleInPlaceSiteWindowless@@@Z 10008900 f i POSPrinter.obj
 0001:00007940       ??8?$CComPtrBase@UIOleObject@@@ATL@@QBE_NPAUIOleObject@@@Z 10008940 f i POSPrinter.obj
 0001:00007980       ??8?$CComPtrBase@UIPersistStream@@@ATL@@QBE_NPAUIPersistStream@@@Z 10008980 f i POSPrinter.obj
 0001:000079c0       ??8?$CComPtrBase@UIPersistStreamInit@@@ATL@@QBE_NPAUIPersistStreamInit@@@Z 100089c0 f i POSPrinter.obj
 0001:00007a00       ??8?$CComPtrBase@UIPointerInactive@@@ATL@@QBE_NPAUIPointerInactive@@@Z 10008a00 f i POSPrinter.obj
 0001:00007a40       ??8?$CComPtrBase@UIUnknown@@@ATL@@QBE_NPAUIUnknown@@@Z 10008a40 f i POSPrinter.obj
 0001:00007a80       ??8?$CComPtrBase@UIViewObjectEx@@@ATL@@QBE_NPAUIViewObjectEx@@@Z 10008a80 f i POSPrinter.obj
 0001:00007ac0       ??8CComBSTR@ATL@@QBE_NH@Z  10008ac0 f i POSPrinter.obj
 0001:00007b20       ??9?$CComPtrBase@UIAdviseSink@@@ATL@@QBE_NPAUIAdviseSink@@@Z 10008b20 f i POSPrinter.obj
 0001:00007b70       ??9?$CComPtrBase@UIConnectionPointContainer@@@ATL@@QBE_NPAUIConnectionPointContainer@@@Z 10008b70 f i POSPrinter.obj
 0001:00007bc0       ??9?$CComPtrBase@UIDataAdviseHolder@@@ATL@@QBE_NPAUIDataAdviseHolder@@@Z 10008bc0 f i POSPrinter.obj
 0001:00007c10       ??9?$CComPtrBase@UIOleAdviseHolder@@@ATL@@QBE_NPAUIOleAdviseHolder@@@Z 10008c10 f i POSPrinter.obj
 0001:00007c60       ??9?$CComPtrBase@UIOleClientSite@@@ATL@@QBE_NPAUIOleClientSite@@@Z 10008c60 f i POSPrinter.obj
 0001:00007cb0       ??9?$CComPtrBase@UIOleControlSite@@@ATL@@QBE_NPAUIOleControlSite@@@Z 10008cb0 f i POSPrinter.obj
 0001:00007d00       ??9?$CComPtrBase@UIOleInPlaceObject@@@ATL@@QBE_NPAUIOleInPlaceObject@@@Z 10008d00 f i POSPrinter.obj
 0001:00007d50       ??9?$CComPtrBase@UIOleInPlaceSiteWindowless@@@ATL@@QBE_NPAUIOleInPlaceSiteWindowless@@@Z 10008d50 f i POSPrinter.obj
 0001:00007da0       ??9?$CComPtrBase@UIOleObject@@@ATL@@QBE_NPAUIOleObject@@@Z 10008da0 f i POSPrinter.obj
 0001:00007df0       ??9?$CComPtrBase@UIPersistStream@@@ATL@@QBE_NPAUIPersistStream@@@Z 10008df0 f i POSPrinter.obj
 0001:00007e40       ??9?$CComPtrBase@UIPersistStreamInit@@@ATL@@QBE_NPAUIPersistStreamInit@@@Z 10008e40 f i POSPrinter.obj
 0001:00007e90       ??9?$CComPtrBase@UIPointerInactive@@@ATL@@QBE_NPAUIPointerInactive@@@Z 10008e90 f i POSPrinter.obj
 0001:00007ee0       ??9?$CComPtrBase@UIUnknown@@@ATL@@QBE_NPAUIUnknown@@@Z 10008ee0 f i POSPrinter.obj
 0001:00007f30       ??9?$CComPtrBase@UIViewObjectEx@@@ATL@@QBE_NPAUIViewObjectEx@@@Z 10008f30 f i POSPrinter.obj
 0001:00007f80       ??9CComBSTR@ATL@@QBE_NH@Z  10008f80 f i POSPrinter.obj
 0001:00007fd0       ??B?$CComPtrBase@UIAdviseSink@@@ATL@@QBEPAUIAdviseSink@@XZ 10008fd0 f i POSPrinter.obj
 0001:00007ff0       ??B?$CComPtrBase@UIDataAdviseHolder@@@ATL@@QBEPAUIDataAdviseHolder@@XZ 10008ff0 f i POSPrinter.obj
 0001:00008010       ??B?$CComPtrBase@UIDataObject@@@ATL@@QBEPAUIDataObject@@XZ 10009010 f i POSPrinter.obj
 0001:00008030       ??B?$CComPtrBase@UIOleAdviseHolder@@@ATL@@QBEPAUIOleAdviseHolder@@XZ 10009030 f i POSPrinter.obj
 0001:00008050       ??B?$CComPtrBase@UIOleClientSite@@@ATL@@QBEPAUIOleClientSite@@XZ 10009050 f i POSPrinter.obj
 0001:00008070       ??B?$CComPtrBase@UIOleControlSite@@@ATL@@QBEPAUIOleControlSite@@XZ 10009070 f i POSPrinter.obj
 0001:00008090       ??B?$CComPtrBase@UIOleInPlaceActiveObject@@@ATL@@QBEPAUIOleInPlaceActiveObject@@XZ 10009090 f i POSPrinter.obj
 0001:000080b0       ??B?$CComPtrBase@UIOleInPlaceFrame@@@ATL@@QBEPAUIOleInPlaceFrame@@XZ 100090b0 f i POSPrinter.obj
 0001:000080d0       ??B?$CComPtrBase@UIOleInPlaceSiteWindowless@@@ATL@@QBEPAUIOleInPlaceSiteWindowless@@XZ 100090d0 f i POSPrinter.obj
 0001:000080f0       ??B?$CComPtrBase@UIOleInPlaceUIWindow@@@ATL@@QBEPAUIOleInPlaceUIWindow@@XZ 100090f0 f i POSPrinter.obj
 0001:00008110       ??B?$CComPtrBase@UIOleObject@@@ATL@@QBEPAUIOleObject@@XZ 10009110 f i POSPrinter.obj
 0001:00008130       ??B?$CComPtrBase@UIPersistStream@@@ATL@@QBEPAUIPersistStream@@XZ 10009130 f i POSPrinter.obj
 0001:00008150       ??B?$CComPtrBase@UIProvideClassInfo2@@@ATL@@QBEPAUIProvideClassInfo2@@XZ 10009150 f i POSPrinter.obj
 0001:00008170       ??B?$CComPtrBase@UISpecifyPropertyPages@@@ATL@@QBEPAUISpecifyPropertyPages@@XZ 10009170 f i POSPrinter.obj
 0001:00008190       ??B?$CComPtrBase@UIStream@@@ATL@@QBEPAUIStream@@XZ 10009190 f i POSPrinter.obj
 0001:000081b0       ??B?$CComPtrBase@UITypeInfo2@@@ATL@@QBEPAUITypeInfo2@@XZ 100091b0 f i POSPrinter.obj
 0001:000081d0       ??B?$CComPtrBase@UITypeInfo@@@ATL@@QBEPAUITypeInfo@@XZ 100091d0 f i POSPrinter.obj
 0001:000081f0       ??B?$CComPtrBase@UITypeLib@@@ATL@@QBEPAUITypeLib@@XZ 100091f0 f i POSPrinter.obj
 0001:00008210       ??B?$CComPtrBase@UIUnknown@@@ATL@@QBEPAUIUnknown@@XZ 10009210 f i POSPrinter.obj
 0001:00008230       ??B?$CTempBuffer@E$0BAA@VCCRTAllocator@ATL@@@ATL@@QBEPAEXZ 10009230 f i POSPrinter.obj
 0001:00008250       ??B?$CTempBuffer@_W$0BAA@VCCRTAllocator@ATL@@@ATL@@QBEPA_WXZ 10009250 f i POSPrinter.obj
 0001:00008270       ??B?$CTempBuffer@_W$0EAA@VCCRTAllocator@ATL@@@ATL@@QBEPA_WXZ 10009270 f i POSPrinter.obj
 0001:00008290       ??B?$CTraceCategoryEx@$00$0A@@ATL@@QAEIXZ 10009290 f i POSPrinter.obj
 0001:000082b0       ??B?$CTraceCategoryEx@$07$0A@@ATL@@QAEIXZ 100092b0 f i POSPrinter.obj
 0001:000082d0       ??B?$CTraceCategoryEx@$0CAAA@$0A@@ATL@@QAEIXZ 100092d0 f i POSPrinter.obj
 0001:000082f0       ??B?$CTraceCategoryEx@$0EA@$0A@@ATL@@QAEIXZ 100092f0 f i POSPrinter.obj
 0001:00008310       ??B?$CTraceCategoryEx@$0IAA@$0A@@ATL@@QAEIXZ 10009310 f i POSPrinter.obj
 0001:00008330       ??BCComBSTR@ATL@@QBEPA_WXZ 10009330 f i POSPrinter.obj
 0001:00008350       ??BCRegKey@ATL@@QBEPAUHKEY__@@XZ 10009350 f i POSPrinter.obj
 0001:00008370       ??C?$CComPtrBase@UIAdviseSink@@@ATL@@QBEPAV?$_NoAddRefReleaseOnCComPtr@UIAdviseSink@@@1@XZ 10009370 f i POSPrinter.obj
 0001:000083c0       ??C?$CComPtrBase@UICatRegister@@@ATL@@QBEPAV?$_NoAddRefReleaseOnCComPtr@UICatRegister@@@1@XZ 100093c0 f i POSPrinter.obj
 0001:00008410       ??C?$CComPtrBase@UIConnectionPoint@@@ATL@@QBEPAV?$_NoAddRefReleaseOnCComPtr@UIConnectionPoint@@@1@XZ 10009410 f i POSPrinter.obj
 0001:00008460       ??C?$CComPtrBase@UIConnectionPointContainer@@@ATL@@QBEPAV?$_NoAddRefReleaseOnCComPtr@UIConnectionPointContainer@@@1@XZ 10009460 f i POSPrinter.obj
 0001:000084b0       ??C?$CComPtrBase@UIDataAdviseHolder@@@ATL@@QBEPAV?$_NoAddRefReleaseOnCComPtr@UIDataAdviseHolder@@@1@XZ 100094b0 f i POSPrinter.obj
 0001:00008500       ??C?$CComPtrBase@UIOleAdviseHolder@@@ATL@@QBEPAV?$_NoAddRefReleaseOnCComPtr@UIOleAdviseHolder@@@1@XZ 10009500 f i POSPrinter.obj
 0001:00008550       ??C?$CComPtrBase@UIOleClientSite@@@ATL@@QBEPAV?$_NoAddRefReleaseOnCComPtr@UIOleClientSite@@@1@XZ 10009550 f i POSPrinter.obj
 0001:000085a0       ??C?$CComPtrBase@UIOleControlSite@@@ATL@@QBEPAV?$_NoAddRefReleaseOnCComPtr@UIOleControlSite@@@1@XZ 100095a0 f i POSPrinter.obj
 0001:000085f0       ??C?$CComPtrBase@UIOleInPlaceFrame@@@ATL@@QBEPAV?$_NoAddRefReleaseOnCComPtr@UIOleInPlaceFrame@@@1@XZ 100095f0 f i POSPrinter.obj
 0001:00008640       ??C?$CComPtrBase@UIOleInPlaceObject@@@ATL@@QBEPAV?$_NoAddRefReleaseOnCComPtr@UIOleInPlaceObject@@@1@XZ 10009640 f i POSPrinter.obj
 0001:00008690       ??C?$CComPtrBase@UIOleInPlaceSiteWindowless@@@ATL@@QBEPAV?$_NoAddRefReleaseOnCComPtr@UIOleInPlaceSiteWindowless@@@1@XZ 10009690 f i POSPrinter.obj
 0001:000086e0       ??C?$CComPtrBase@UIOleInPlaceUIWindow@@@ATL@@QBEPAV?$_NoAddRefReleaseOnCComPtr@UIOleInPlaceUIWindow@@@1@XZ 100096e0 f i POSPrinter.obj
 0001:00008730       ??C?$CComPtrBase@UIOleObject@@@ATL@@QBEPAV?$_NoAddRefReleaseOnCComPtr@UIOleObject@@@1@XZ 10009730 f i POSPrinter.obj
 0001:00008780       ??C?$CComPtrBase@UIPersistStream@@@ATL@@QBEPAV?$_NoAddRefReleaseOnCComPtr@UIPersistStream@@@1@XZ 10009780 f i POSPrinter.obj
 0001:000087d0       ??C?$CComPtrBase@UIPersistStreamInit@@@ATL@@QBEPAV?$_NoAddRefReleaseOnCComPtr@UIPersistStreamInit@@@1@XZ 100097d0 f i POSPrinter.obj
 0001:00008820       ??C?$CComPtrBase@UIPointerInactive@@@ATL@@QBEPAV?$_NoAddRefReleaseOnCComPtr@UIPointerInactive@@@1@XZ 10009820 f i POSPrinter.obj
 0001:00008870       ??C?$CComPtrBase@UIProvideClassInfo2@@@ATL@@QBEPAV?$_NoAddRefReleaseOnCComPtr@UIProvideClassInfo2@@@1@XZ 10009870 f i POSPrinter.obj
 0001:000088c0       ??C?$CComPtrBase@UISpecifyPropertyPages@@@ATL@@QBEPAV?$_NoAddRefReleaseOnCComPtr@UISpecifyPropertyPages@@@1@XZ 100098c0 f i POSPrinter.obj
 0001:00008910       ??C?$CComPtrBase@UITypeInfo@@@ATL@@QBEPAV?$_NoAddRefReleaseOnCComPtr@UITypeInfo@@@1@XZ 10009910 f i POSPrinter.obj
 0001:00008960       ??C?$CComPtrBase@UITypeLib@@@ATL@@QBEPAV?$_NoAddRefReleaseOnCComPtr@UITypeLib@@@1@XZ 10009960 f i POSPrinter.obj
 0001:000089b0       ??C?$CComPtrBase@UIUnknown@@@ATL@@QBEPAV?$_NoAddRefReleaseOnCComPtr@UIUnknown@@@1@XZ 100099b0 f i POSPrinter.obj
 0001:00008a00       ??C?$CComPtrBase@UIViewObjectEx@@@ATL@@QBEPAV?$_NoAddRefReleaseOnCComPtr@UIViewObjectEx@@@1@XZ 10009a00 f i POSPrinter.obj
 0001:00008a50       ??I?$CComPtrBase@UICatRegister@@@ATL@@QAEPAPAUICatRegister@@XZ 10009a50 f i POSPrinter.obj
 0001:00008aa0       ??I?$CComPtrBase@UIConnectionPoint@@@ATL@@QAEPAPAUIConnectionPoint@@XZ 10009aa0 f i POSPrinter.obj
 0001:00008af0       ??I?$CComPtrBase@UIConnectionPointContainer@@@ATL@@QAEPAPAUIConnectionPointContainer@@XZ 10009af0 f i POSPrinter.obj
 0001:00008b40       ??I?$CComPtrBase@UIDataAdviseHolder@@@ATL@@QAEPAPAUIDataAdviseHolder@@XZ 10009b40 f i POSPrinter.obj
 0001:00008b90       ??I?$CComPtrBase@UIDataObject@@@ATL@@QAEPAPAUIDataObject@@XZ 10009b90 f i POSPrinter.obj
 0001:00008be0       ??I?$CComPtrBase@UIDispatch@@@ATL@@QAEPAPAUIDispatch@@XZ 10009be0 f i POSPrinter.obj
 0001:00008c30       ??I?$CComPtrBase@UIOleAdviseHolder@@@ATL@@QAEPAPAUIOleAdviseHolder@@XZ 10009c30 f i POSPrinter.obj
 0001:00008c80       ??I?$CComPtrBase@UIOleControlSite@@@ATL@@QAEPAPAUIOleControlSite@@XZ 10009c80 f i POSPrinter.obj
 0001:00008cd0       ??I?$CComPtrBase@UIOleInPlaceActiveObject@@@ATL@@QAEPAPAUIOleInPlaceActiveObject@@XZ 10009cd0 f i POSPrinter.obj
 0001:00008d20       ??I?$CComPtrBase@UIOleInPlaceFrame@@@ATL@@QAEPAPAUIOleInPlaceFrame@@XZ 10009d20 f i POSPrinter.obj
 0001:00008d70       ??I?$CComPtrBase@UIOleInPlaceObject@@@ATL@@QAEPAPAUIOleInPlaceObject@@XZ 10009d70 f i POSPrinter.obj
 0001:00008dc0       ??I?$CComPtrBase@UIOleInPlaceSiteWindowless@@@ATL@@QAEPAPAUIOleInPlaceSiteWindowless@@XZ 10009dc0 f i POSPrinter.obj
 0001:00008e10       ??I?$CComPtrBase@UIOleInPlaceUIWindow@@@ATL@@QAEPAPAUIOleInPlaceUIWindow@@XZ 10009e10 f i POSPrinter.obj
 0001:00008e60       ??I?$CComPtrBase@UIOleObject@@@ATL@@QAEPAPAUIOleObject@@XZ 10009e60 f i POSPrinter.obj
 0001:00008eb0       ??I?$CComPtrBase@UIPersistStream@@@ATL@@QAEPAPAUIPersistStream@@XZ 10009eb0 f i POSPrinter.obj
 0001:00008f00       ??I?$CComPtrBase@UIPointerInactive@@@ATL@@QAEPAPAUIPointerInactive@@XZ 10009f00 f i POSPrinter.obj
 0001:00008f50       ??I?$CComPtrBase@UIProvideClassInfo2@@@ATL@@QAEPAPAUIProvideClassInfo2@@XZ 10009f50 f i POSPrinter.obj
 0001:00008fa0       ??I?$CComPtrBase@UIStream@@@ATL@@QAEPAPAUIStream@@XZ 10009fa0 f i POSPrinter.obj
 0001:00008ff0       ??I?$CComPtrBase@UITypeInfo2@@@ATL@@QAEPAPAUITypeInfo2@@XZ 10009ff0 f i POSPrinter.obj
 0001:00009040       ??I?$CComPtrBase@UITypeInfo@@@ATL@@QAEPAPAUITypeInfo@@XZ 1000a040 f i POSPrinter.obj
 0001:00009090       ??I?$CComPtrBase@UITypeLib@@@ATL@@QAEPAPAUITypeLib@@XZ 1000a090 f i POSPrinter.obj
 0001:000090e0       ??I?$CComPtrBase@UIUnknown@@@ATL@@QAEPAPAUIUnknown@@XZ 1000a0e0 f i POSPrinter.obj
 0001:00009130       ??I?$CComPtrBase@UIViewObjectEx@@@ATL@@QAEPAPAUIViewObjectEx@@XZ 1000a130 f i POSPrinter.obj
 0001:00009180       ??ICComBSTR@ATL@@QAEPAPA_WXZ 1000a180 f i POSPrinter.obj
 0001:00009195       ??_E?$CComContainedObject@VCOPOSPOSPrinter@@@ATL@@W3AEPAXI@Z 1000a195 f i POSPrinter.obj
 0001:0000919d       ??_E?$CComContainedObject@VCOPOSPOSPrinter@@@ATL@@WEM@AEPAXI@Z 1000a19d f i POSPrinter.obj
 0001:000091a5       ??_E?$CComObject@VCOPOSPOSPrinter@@@ATL@@W3AEPAXI@Z 1000a1a5 f i POSPrinter.obj
 0001:000091ad       ??_E?$CComObject@VCOPOSPOSPrinter@@@ATL@@WEM@AEPAXI@Z 1000a1ad f i POSPrinter.obj
 0001:000091c0       ??_E?$CComAggObject@VCOPOSPOSPrinter@@@ATL@@UAEPAXI@Z 1000a1c0 f i POSPrinter.obj
 0001:000091c0       ??_G?$CComAggObject@VCOPOSPOSPrinter@@@ATL@@UAEPAXI@Z 1000a1c0 f i POSPrinter.obj
 0001:00009210       ??_G?$CComContainedObject@VCOPOSPOSPrinter@@@ATL@@UAEPAXI@Z 1000a210 f i POSPrinter.obj
 0001:00009210       ??_E?$CComContainedObject@VCOPOSPOSPrinter@@@ATL@@UAEPAXI@Z 1000a210 f i POSPrinter.obj
 0001:00009260       ??_G?$CComObject@V?$CComEnum@UIEnumConnectionPoints@@$1?_GUID_b196b285_bab4_101a_b69c_00aa00341d07@@3U__s_GUID@@BPAUIConnectionPoint@@V?$_CopyInterface@UIConnectionPoint@@@ATL@@VCComSingleThreadModel@6@@ATL@@@ATL@@UAEPAXI@Z 1000a260 f i POSPrinter.obj
 0001:00009260       ??_E?$CComObject@V?$CComEnum@UIEnumConnectionPoints@@$1?_GUID_b196b285_bab4_101a_b69c_00aa00341d07@@3U__s_GUID@@BPAUIConnectionPoint@@V?$_CopyInterface@UIConnectionPoint@@@ATL@@VCComSingleThreadModel@6@@ATL@@@ATL@@UAEPAXI@Z 1000a260 f i POSPrinter.obj
 0001:000092a0       ??_G?$CComObject@V?$CComEnum@UIEnumConnections@@$1?_GUID_b196b287_bab4_101a_b69c_00aa00341d07@@3U__s_GUID@@BUtagCONNECTDATA@@V?$_Copy@UtagCONNECTDATA@@@ATL@@VCComSingleThreadModel@6@@ATL@@@ATL@@UAEPAXI@Z 1000a2a0 f i POSPrinter.obj
 0001:000092a0       ??_E?$CComObject@V?$CComEnum@UIEnumConnections@@$1?_GUID_b196b287_bab4_101a_b69c_00aa00341d07@@3U__s_GUID@@BUtagCONNECTDATA@@V?$_Copy@UtagCONNECTDATA@@@ATL@@VCComSingleThreadModel@6@@ATL@@@ATL@@UAEPAXI@Z 1000a2a0 f i POSPrinter.obj
 0001:000092e0       ??_G?$CComObject@VCOPOSPOSPrinter@@@ATL@@UAEPAXI@Z 1000a2e0 f i POSPrinter.obj
 0001:000092e0       ??_E?$CComObject@VCOPOSPOSPrinter@@@ATL@@UAEPAXI@Z 1000a2e0 f i POSPrinter.obj
 0001:00009330       ??_G?$CComObjectCached@VCComClassFactory@ATL@@@ATL@@UAEPAXI@Z 1000a330 f i POSPrinter.obj
 0001:00009330       ??_E?$CComObjectCached@VCComClassFactory@ATL@@@ATL@@UAEPAXI@Z 1000a330 f i POSPrinter.obj
 0001:00009370       ??_ECComClassFactory@ATL@@UAEPAXI@Z 1000a370 f i POSPrinter.obj
 0001:00009370       ??_GCComClassFactory@ATL@@UAEPAXI@Z 1000a370 f i POSPrinter.obj
 0001:000093b0       ??_GCComModule@ATL@@UAEPAXI@Z 1000a3b0 f i POSPrinter.obj
 0001:000093b0       ??_ECComModule@ATL@@UAEPAXI@Z 1000a3b0 f i POSPrinter.obj
 0001:000093f0       ??_GCRegObject@ATL@@UAEPAXI@Z 1000a3f0 f i POSPrinter.obj
 0001:000093f0       ??_ECRegObject@ATL@@UAEPAXI@Z 1000a3f0 f i POSPrinter.obj
 0001:00009430       ?Add@?$CSimpleArray@GV?$CSimpleArrayEqualHelper@G@ATL@@@ATL@@QAEHABG@Z 1000a430 f i POSPrinter.obj
 0001:00009580       ?Add@?$CSimpleMap@PA_WPA_WVCExpansionVectorEqualHelper@ATL@@@ATL@@QAEHABQA_W0@Z 1000a580 f i POSPrinter.obj
 0001:00009640       ?Add@CComDynamicUnkArray@ATL@@QAEKPAUIUnknown@@@Z 1000a640 f i POSPrinter.obj
 0001:000097e0       ?Add@CExpansionVector@ATL@@QAEHPB_W0@Z 1000a7e0 f i POSPrinter.obj
 0001:00009a70       ?AddChar@CParseBuffer@CRegParser@ATL@@QAEHPB_W@Z 1000aa70 f i POSPrinter.obj
 0001:00009ab0       ?AddCommonRGSReplacements@?$CAtlModuleT@VCComModule@ATL@@@ATL@@UAEJPAUIRegistrarBase@@@Z 1000aab0 f i POSPrinter.obj
 0001:00009b00       ?AddCreateWndData@CAtlWinModule@ATL@@QAEXPAU_AtlCreateWndData@2@PAX@Z 1000ab00 f i POSPrinter.obj
 0001:00009b30       ?AddRef@?$CComAggObject@VCOPOSPOSPrinter@@@ATL@@UAGKXZ 1000ab30 f i POSPrinter.obj
 0001:00009b50       ?AddRef@?$CComContainedObject@VCOPOSPOSPrinter@@@ATL@@UAGKXZ 1000ab50 f i POSPrinter.obj
 0001:00009b6c       ?AddRef@?$CComContainedObject@VCOPOSPOSPrinter@@@ATL@@WHA@AGKXZ 1000ab6c f i POSPrinter.obj
 0001:00009b76       ?AddRef@?$CComContainedObject@VCOPOSPOSPrinter@@@ATL@@WHE@AGKXZ 1000ab76 f i POSPrinter.obj
 0001:00009b80       ?AddRef@?$CComContainedObject@VCOPOSPOSPrinter@@@ATL@@WHI@AGKXZ 1000ab80 f i POSPrinter.obj
 0001:00009b8a       ?AddRef@?$CComContainedObject@VCOPOSPOSPrinter@@@ATL@@WHM@AGKXZ 1000ab8a f i POSPrinter.obj
 0001:00009b94       ?AddRef@?$CComContainedObject@VCOPOSPOSPrinter@@@ATL@@WIA@AGKXZ 1000ab94 f i POSPrinter.obj
 0001:00009ba1       ?AddRef@?$CComContainedObject@VCOPOSPOSPrinter@@@ATL@@WIE@AGKXZ 1000aba1 f i POSPrinter.obj
 0001:00009bae       ?AddRef@?$CComContainedObject@VCOPOSPOSPrinter@@@ATL@@WII@AGKXZ 1000abae f i POSPrinter.obj
 0001:00009bbb       ?AddRef@?$CComContainedObject@VCOPOSPOSPrinter@@@ATL@@WIM@AGKXZ 1000abbb f i POSPrinter.obj
 0001:00009bc8       ?AddRef@?$CComContainedObject@VCOPOSPOSPrinter@@@ATL@@WJA@AGKXZ 1000abc8 f i POSPrinter.obj
 0001:00009bd5       ?AddRef@?$CComContainedObject@VCOPOSPOSPrinter@@@ATL@@WJE@AGKXZ 1000abd5 f i POSPrinter.obj
 0001:00009be2       ?AddRef@?$CComContainedObject@VCOPOSPOSPrinter@@@ATL@@WJI@AGKXZ 1000abe2 f i POSPrinter.obj
 0001:00009bef       ?AddRef@?$CComContainedObject@VCOPOSPOSPrinter@@@ATL@@WJM@AGKXZ 1000abef f i POSPrinter.obj
 0001:00009bfc       ?AddRef@?$CComContainedObject@VCOPOSPOSPrinter@@@ATL@@WKA@AGKXZ 1000abfc f i POSPrinter.obj
 0001:00009c09       ?AddRef@?$CComContainedObject@VCOPOSPOSPrinter@@@ATL@@WKI@AGKXZ 1000ac09 f i POSPrinter.obj
 0001:00009c16       ?AddRef@?$CComContainedObject@VCOPOSPOSPrinter@@@ATL@@WLE@AGKXZ 1000ac16 f i POSPrinter.obj
 0001:00009c30       ?AddRef@?$CComObject@V?$CComEnum@UIEnumConnectionPoints@@$1?_GUID_b196b285_bab4_101a_b69c_00aa00341d07@@3U__s_GUID@@BPAUIConnectionPoint@@V?$_CopyInterface@UIConnectionPoint@@@ATL@@VCComSingleThreadModel@6@@ATL@@@ATL@@UAGKXZ 1000ac30 f i POSPrinter.obj
 0001:00009c50       ?AddRef@?$CComObject@V?$CComEnum@UIEnumConnections@@$1?_GUID_b196b287_bab4_101a_b69c_00aa00341d07@@3U__s_GUID@@BUtagCONNECTDATA@@V?$_Copy@UtagCONNECTDATA@@@ATL@@VCComSingleThreadModel@6@@ATL@@@ATL@@UAGKXZ 1000ac50 f i POSPrinter.obj
 0001:00009c70       ?AddRef@?$CComObject@VCOPOSPOSPrinter@@@ATL@@UAGKXZ 1000ac70 f i POSPrinter.obj
 0001:00009c8c       ?AddRef@?$CComObject@VCOPOSPOSPrinter@@@ATL@@WHA@AGKXZ 1000ac8c f i POSPrinter.obj
 0001:00009c96       ?AddRef@?$CComObject@VCOPOSPOSPrinter@@@ATL@@WHE@AGKXZ 1000ac96 f i POSPrinter.obj
 0001:00009ca0       ?AddRef@?$CComObject@VCOPOSPOSPrinter@@@ATL@@WHI@AGKXZ 1000aca0 f i POSPrinter.obj
 0001:00009caa       ?AddRef@?$CComObject@VCOPOSPOSPrinter@@@ATL@@WHM@AGKXZ 1000acaa f i POSPrinter.obj
 0001:00009cb4       ?AddRef@?$CComObject@VCOPOSPOSPrinter@@@ATL@@WIA@AGKXZ 1000acb4 f i POSPrinter.obj
 0001:00009cc1       ?AddRef@?$CComObject@VCOPOSPOSPrinter@@@ATL@@WIE@AGKXZ 1000acc1 f i POSPrinter.obj
 0001:00009cce       ?AddRef@?$CComObject@VCOPOSPOSPrinter@@@ATL@@WII@AGKXZ 1000acce f i POSPrinter.obj
 0001:00009cdb       ?AddRef@?$CComObject@VCOPOSPOSPrinter@@@ATL@@WIM@AGKXZ 1000acdb f i POSPrinter.obj
 0001:00009ce8       ?AddRef@?$CComObject@VCOPOSPOSPrinter@@@ATL@@WJA@AGKXZ 1000ace8 f i POSPrinter.obj
 0001:00009cf5       ?AddRef@?$CComObject@VCOPOSPOSPrinter@@@ATL@@WJE@AGKXZ 1000acf5 f i POSPrinter.obj
 0001:00009d02       ?AddRef@?$CComObject@VCOPOSPOSPrinter@@@ATL@@WJI@AGKXZ 1000ad02 f i POSPrinter.obj
 0001:00009d0f       ?AddRef@?$CComObject@VCOPOSPOSPrinter@@@ATL@@WJM@AGKXZ 1000ad0f f i POSPrinter.obj
 0001:00009d1c       ?AddRef@?$CComObject@VCOPOSPOSPrinter@@@ATL@@WKA@AGKXZ 1000ad1c f i POSPrinter.obj
 0001:00009d29       ?AddRef@?$CComObject@VCOPOSPOSPrinter@@@ATL@@WKI@AGKXZ 1000ad29 f i POSPrinter.obj
 0001:00009d36       ?AddRef@?$CComObject@VCOPOSPOSPrinter@@@ATL@@WLE@AGKXZ 1000ad36 f i POSPrinter.obj
 0001:00009d50       ?AddRef@?$CComObjectCached@VCComClassFactory@ATL@@@ATL@@UAGKXZ 1000ad50 f i POSPrinter.obj
 0001:00009da0       ?AddRef@CRegObject@ATL@@UAGKXZ 1000ada0 f i POSPrinter.obj
 0001:00009df0       ?AddReplacement@CRegObject@ATL@@UAGJPB_W0@Z 1000adf0 f i POSPrinter.obj
 0001:00009f00       ?AddString@CParseBuffer@CRegParser@ATL@@QAEHPB_W@Z 1000af00 f i POSPrinter.obj
 0001:00009ff0       ?AddTermFunc@CAtlModule@ATL@@QAEJP6GXK@ZK@Z 1000aff0 f i POSPrinter.obj
 0001:0000a040       ?AddValue@CRegParser@ATL@@IAEJAAVCRegKey@2@PB_WPA_W@Z 1000b040 f i POSPrinter.obj
 0001:0000a7d0       ?Advise@?$CProxy_IOPOSEvents@VCOPOSPOSPrinter@@@@UAGJPAUIUnknown@@PAK@Z 1000b7d0 f i POSPrinter.obj
 0001:0000a820       ?Advise@?$IConnectionPointImpl@VCOPOSPOSPrinter@@$1?DIID__IOPOSPOSPrinterEvents@@3U_GUID@@BVCComDynamicUnkArray@ATL@@@ATL@@UAGJPAUIUnknown@@PAK@Z 1000b820 f i POSPrinter.obj
 0001:0000a9c0       ?Advise@?$IConnectionPointImpl@VCOPOSPOSPrinter@@$1?IID_IPropertyNotifySink@@3U_GUID@@BVCComDynamicUnkArray@ATL@@@ATL@@UAGJPAUIUnknown@@PAK@Z 1000b9c0 f i POSPrinter.obj
 0001:0000ab60       ?Advise@?$IOleObjectImpl@VCOPOSPOSPrinter@@@ATL@@UAGJPAUIAdviseSink@@PAK@Z 1000bb60 f i POSPrinter.obj
 0001:0000abf0       ?Allocate@?$CAtlSafeAllocBufferManager@VCCRTAllocator@ATL@@@_ATL_SAFE_ALLOCA_IMPL@ATL@@QAEPAXK@Z 1000bbf0 f i POSPrinter.obj
 0001:0000ac60       ?Allocate@?$CTempBuffer@E$0BAA@VCCRTAllocator@ATL@@@ATL@@QAEPAEI@Z 1000bc60 f i POSPrinter.obj
 0001:0000aca0       ?Allocate@?$CTempBuffer@_W$0BAA@VCCRTAllocator@ATL@@@ATL@@QAEPA_WI@Z 1000bca0 f i POSPrinter.obj
 0001:0000ace0       ?Allocate@?$CTempBuffer@_W$0EAA@VCCRTAllocator@ATL@@@ATL@@QAEPA_WI@Z 1000bce0 f i POSPrinter.obj
 0001:0000ad20       ?AllocateBytes@?$CTempBuffer@E$0BAA@VCCRTAllocator@ATL@@@ATL@@QAEPAEI@Z 1000bd20 f i POSPrinter.obj
 0001:0000ada0       ?AllocateBytes@?$CTempBuffer@_W$0BAA@VCCRTAllocator@ATL@@@ATL@@QAEPA_WI@Z 1000bda0 f i POSPrinter.obj
 0001:0000ae20       ?AllocateBytes@?$CTempBuffer@_W$0EAA@VCCRTAllocator@ATL@@@ATL@@QAEPA_WI@Z 1000be20 f i POSPrinter.obj
 0001:0000aea0       ?AllocateHeap@?$CTempBuffer@E$0BAA@VCCRTAllocator@ATL@@@ATL@@AAEXI@Z 1000bea0 f i POSPrinter.obj
 0001:0000aef0       ?AllocateHeap@?$CTempBuffer@_W$0BAA@VCCRTAllocator@ATL@@@ATL@@AAEXI@Z 1000bef0 f i POSPrinter.obj
 0001:0000af40       ?AllocateHeap@?$CTempBuffer@_W$0EAA@VCCRTAllocator@ATL@@@ATL@@AAEXI@Z 1000bf40 f i POSPrinter.obj
 0001:0000af90       ?Append@CParseBuffer@CRegParser@ATL@@QAEHPB_WH@Z 1000bf90 f i POSPrinter.obj
 0001:0000b130       ?AtlCallTermFunc@ATL@@YGXPAU_ATL_MODULE70@1@@Z 1000c130 f i POSPrinter.obj
 0001:0000b1d0       ?AtlCoTaskMemCAlloc@ATL@@YAPAXKK@Z 1000c1d0 f i POSPrinter.obj
 0001:0000b260       ?AtlCoTaskMemRecalloc@ATL@@YAPAXPAXKK@Z 1000c260 f i POSPrinter.obj
 0001:0000b300       ?AtlComModuleGetClassObject@ATL@@YGJPAU_ATL_COM_MODULE70@1@ABU_GUID@@1PAPAX@Z 1000c300 f i POSPrinter.obj
 0001:0000b590       ?AtlComModuleRegisterServer@ATL@@YGJPAU_ATL_COM_MODULE70@1@HPBU_GUID@@@Z 1000c590 f i POSPrinter.obj
 0001:0000b720       ?AtlComModuleUnregisterServer@ATL@@YGJPAU_ATL_COM_MODULE70@1@HPBU_GUID@@@Z 1000c720 f i POSPrinter.obj
 0001:0000b850       ?AtlComQIPtrAssign2@ATL@@YAXPAPAUIUnknown@@PAU2@ABU_GUID@@@Z 1000c850 f i POSPrinter.obj
 0001:0000b8d0       ?AtlCreateTargetDC@ATL@@YGPAUHDC__@@PAU2@PAUtagDVTARGETDEVICE@@@Z 1000c8d0 f i POSPrinter.obj
 0001:0000ba70       ?AtlCrtErrorCheck@ATL@@YAHH@Z 1000ca70 f i POSPrinter.obj
 0001:0000bb40       ?AtlGetPerUserRegistration@ATL@@YGJPA_N@Z 1000cb40 f i POSPrinter.obj
 0001:0000bb70       ?AtlHiMetricToPixel@ATL@@YGXPBUtagSIZE@@PAU2@@Z 1000cb70 f i POSPrinter.obj
 0001:0000bd40       ?AtlHresultFromLastError@ATL@@YAJXZ 1000cd40 f i POSPrinter.obj
 0001:0000bd80       ?AtlHresultFromWin32@ATL@@YAJK@Z 1000cd80 f i POSPrinter.obj
 0001:0000bda0       ?AtlIPersistStreamInit_Load@ATL@@YGJPAUIStream@@PBUATL_PROPMAP_ENTRY@1@PAXPAUIUnknown@@@Z 1000cda0 f i POSPrinter.obj
 0001:0000c200       ?AtlIPersistStreamInit_Save@ATL@@YGJPAUIStream@@HPBUATL_PROPMAP_ENTRY@1@PAXPAUIUnknown@@@Z 1000d200 f i POSPrinter.obj
 0001:0000c5e0       ?AtlInternalOleLoadFromStream@ATL@@YAJPAUIStream@@ABU_GUID@@PAPAXTClassesAllowedInStream@1@K@Z 1000d5e0 f i POSPrinter.obj
 0001:0000c880       ?AtlInternalQueryInterface@ATL@@YGJPAXPBU_ATL_INTMAP_ENTRY@1@ABU_GUID@@PAPAX@Z 1000d880 f i POSPrinter.obj
 0001:0000cab0       ?AtlLoadTypeLib@ATL@@YGJPAUHINSTANCE__@@PB_WPAPA_WPAPAUITypeLib@@@Z 1000dab0 f i POSPrinter.obj
 0001:0000cf10       ?AtlModuleAddTermFunc@ATL@@YGJPAU_ATL_MODULE70@1@P6GXK@ZK@Z 1000df10 f i POSPrinter.obj
 0001:0000d070       ?AtlRegisterClassCategoriesHelper@ATL@@YGJABU_GUID@@PBU_ATL_CATMAP_ENTRY@1@H@Z 1000e070 f i POSPrinter.obj
 0001:0000d750       ?AtlRegisterTypeLib@ATL@@YGJPAUHINSTANCE__@@PB_W@Z 1000e750 f i POSPrinter.obj
 0001:0000da90       ?AtlThrowImpl@ATL@@YGXJ@Z  1000ea90 f i POSPrinter.obj
 0001:0000db40       ?AtlUnRegisterTypeLib@ATL@@YGJPAUHINSTANCE__@@PB_W@Z 1000eb40 f i POSPrinter.obj
 0001:0000dd50       ?AtlWinModuleAddCreateWndData@ATL@@YGXPAU_ATL_WIN_MODULE70@1@PAU_AtlCreateWndData@1@PAX@Z 1000ed50 f i POSPrinter.obj
 0001:0000dec0       ?AtlWinModuleExtractCreateWndData@ATL@@YGPAXPAU_ATL_WIN_MODULE70@1@@Z 1000eec0 f i POSPrinter.obj
 0001:0000e040       ?AtlWinModuleRegisterClassExW@ATL@@YGGPAU_ATL_WIN_MODULE70@1@PBUtagWNDCLASSEXW@@@Z 1000f040 f i POSPrinter.obj
 0001:0000e110       ?AtlWinModuleRegisterWndClassInfoW@ATL@@YGGPAU_ATL_WIN_MODULE70@1@PAU_ATL_BASE_MODULE70@1@PAU_ATL_WNDCLASSINFOW@1@PAP6GJPAUHWND__@@IIJ@Z@Z 1000f110 f i POSPrinter.obj
 0001:0000e1a0       ?Attach@?$CAutoVectorPtr@_W@ATL@@QAEXPA_W@Z 1000f1a0 f i POSPrinter.obj
 0001:0000e200       ?Attach@CComBSTR@ATL@@QAEXPA_W@Z 1000f200 f i POSPrinter.obj
 0001:0000e250       ?Attach@CRegKey@ATL@@QAEXPAUHKEY__@@@Z 1000f250 f i POSPrinter.obj
 0001:0000e2c0       ?CanForceRemoveKey@CRegParser@ATL@@IAEHPB_W@Z 1000f2c0 f i POSPrinter.obj
 0001:0000e330       ?ChToByte@CRegParser@ATL@@KAE_W@Z 1000f330 f i POSPrinter.obj
 0001:0000e450       ?ChangeType@CComVariant@ATL@@QAEJGPBUtagVARIANT@@@Z 1000f450 f i POSPrinter.obj
 0001:0000e4b0       ?Cleanup@CComTypeInfoHolder@ATL@@SGXK@Z 1000f4b0 f i POSPrinter.obj
 0001:0000e580       ?Clear@CComVariant@ATL@@QAEJXZ 1000f580 f i POSPrinter.obj
 0001:0000e5c0       ?ClearReplacements@CExpansionVector@ATL@@QAEJXZ 1000f5c0 f i POSPrinter.obj
 0001:0000e650       ?ClearReplacements@CRegObject@ATL@@UAGJXZ 1000f650 f i POSPrinter.obj
 0001:0000e6a0       ?Clone@?$CComEnumImpl@UIEnumConnectionPoints@@$1?_GUID_b196b285_bab4_101a_b69c_00aa00341d07@@3U__s_GUID@@BPAUIConnectionPoint@@V?$_CopyInterface@UIConnectionPoint@@@ATL@@@ATL@@UAGJPAPAUIEnumConnectionPoints@@@Z 1000f6a0 f i POSPrinter.obj
 0001:0000e810       ?Clone@?$CComEnumImpl@UIEnumConnections@@$1?_GUID_b196b287_bab4_101a_b69c_00aa00341d07@@3U__s_GUID@@BUtagCONNECTDATA@@V?$_Copy@UtagCONNECTDATA@@@ATL@@@ATL@@UAGJPAPAUIEnumConnections@@@Z 1000f810 f i POSPrinter.obj
 0001:0000e980       ?Close@?$IOleObjectImpl@VCOPOSPOSPrinter@@@ATL@@UAGJK@Z 1000f980 f i POSPrinter.obj
 0001:0000ea10       ?Close@CRegKey@ATL@@QAEJXZ 1000fa10 f i POSPrinter.obj
 0001:0000ea80       ?ContextSensitiveHelp@?$IOleInPlaceActiveObjectImpl@VCOPOSPOSPrinter@@@ATL@@UAGJH@Z 1000fa80 f i POSPrinter.obj
 0001:0000eaf0       ?ContextSensitiveHelp@?$IOleInPlaceObjectWindowlessImpl@VCOPOSPOSPrinter@@@ATL@@UAGJH@Z 1000faf0 f i POSPrinter.obj
 0001:0000eb60       ?ControlQueryInterface@?$CComControl@VCOPOSPOSPrinter@@V?$CWindowImpl@VCOPOSPOSPrinter@@VCWindow@ATL@@V?$CWinTraits@$0FGAAAAAA@$0A@@3@@ATL@@@ATL@@UAEJABU_GUID@@PAPAX@Z 1000fb60 f i POSPrinter.obj
 0001:0000ebe0       ?CreateControlWindow@?$CComControl@VCOPOSPOSPrinter@@V?$CWindowImpl@VCOPOSPOSPrinter@@VCWindow@ATL@@V?$CWinTraits@$0FGAAAAAA@$0A@@3@@ATL@@@ATL@@UAEPAUHWND__@@PAU3@AAUtagRECT@@@Z 1000fbe0 f i POSPrinter.obj
 0001:0000ec60       ?CreateInstance@?$CComCreator@V?$CComAggObject@VCOPOSPOSPrinter@@@ATL@@@ATL@@SGJPAXABU_GUID@@PAPAX@Z 1000fc60 f i POSPrinter.obj
 0001:0000ede0       ?CreateInstance@?$CComCreator@V?$CComObject@VCOPOSPOSPrinter@@@ATL@@@ATL@@SGJPAXABU_GUID@@PAPAX@Z 1000fde0 f i POSPrinter.obj
 0001:0000ef70       ?CreateInstance@?$CComObject@V?$CComEnum@UIEnumConnectionPoints@@$1?_GUID_b196b285_bab4_101a_b69c_00aa00341d07@@3U__s_GUID@@BPAUIConnectionPoint@@V?$_CopyInterface@UIConnectionPoint@@@ATL@@VCComSingleThreadModel@6@@ATL@@@ATL@@SGJPAPAV12@@Z 1000ff70 f i POSPrinter.obj
 0001:0000f0e0       ?CreateInstance@?$CComObject@V?$CComEnum@UIEnumConnections@@$1?_GUID_b196b287_bab4_101a_b69c_00aa00341d07@@3U__s_GUID@@BUtagCONNECTDATA@@V?$_Copy@UtagCONNECTDATA@@@ATL@@VCComSingleThreadModel@6@@ATL@@@ATL@@SGJPAPAV12@@Z 100100e0 f i POSPrinter.obj
 0001:0000f250       ?CreateInstance@CComClassFactory@ATL@@UAGJPAUIUnknown@@ABU_GUID@@PAPAX@Z 10010250 f i POSPrinter.obj
 0001:0000f340       ?DAdvise@?$IDataObjectImpl@VCOPOSPOSPrinter@@@ATL@@UAGJPAUtagFORMATETC@@KPAUIAdviseSink@@PAK@Z 10010340 f i POSPrinter.obj
 0001:0000f440       ?DEVMODEOLE2T_EX@@YAPAU_devicemodeW@@PAU1@@Z 10010440 f i POSPrinter.obj
 0001:0000f450       ?DUnadvise@?$IDataObjectImpl@VCOPOSPOSPrinter@@@ATL@@UAGJK@Z 10010450 f i POSPrinter.obj
 0001:0000f520       ?Decrement@CComMultiThreadModel@ATL@@SGKPAJ@Z 10010520 f i POSPrinter.obj
 0001:0000f540       ?Decrement@CComSingleThreadModel@ATL@@SGKPAJ@Z 10010540 f i POSPrinter.obj
 0001:0000f560       ?DefWindowProcW@?$CWindowImplBaseT@VCWindow@ATL@@V?$CWinTraits@$0FGAAAAAA@$0A@@2@@ATL@@QAEJIIJ@Z 10010560 f i POSPrinter.obj
 0001:0000f5b0       ?DefaultReflectionHandler@?$CWindowImplRoot@VCWindow@ATL@@@ATL@@SAHPAUHWND__@@IIJAAJ@Z 100105b0 f i POSPrinter.obj
 0001:0000f7a0       ?DeleteSubKey@CRegKey@ATL@@QAEJPB_W@Z 100107a0 f i POSPrinter.obj
 0001:0000f8b0       ?DeleteValue@CRegKey@ATL@@QAEJPB_W@Z 100108b0 f i POSPrinter.obj
 0001:0000f920       ?Detach@?$CAutoVectorPtr@_W@ATL@@QAEPA_WXZ 10010920 f i POSPrinter.obj
 0001:0000f950       ?Detach@?$CComPtrBase@UIPersistStream@@@ATL@@QAEPAUIPersistStream@@XZ 10010950 f i POSPrinter.obj
 0001:0000f980       ?Detach@?$CComPtrBase@UITypeInfo@@@ATL@@QAEPAUITypeInfo@@XZ 10010980 f i POSPrinter.obj
 0001:0000f9b0       ?Detach@?$CComPtrBase@UIUnknown@@@ATL@@QAEPAUIUnknown@@XZ 100109b0 f i POSPrinter.obj
 0001:0000f9e0       ?Detach@CComBSTR@ATL@@QAEPA_WXZ 100109e0 f i POSPrinter.obj
 0001:0000fa10       ?Detach@CParseBuffer@CRegParser@ATL@@QAEPA_WXZ 10010a10 f i POSPrinter.obj
 0001:0000fa60       ?Detach@CRegKey@ATL@@QAEPAUHKEY__@@XZ 10010a60 f i POSPrinter.obj
 0001:0000fab0       ?DoEvent@COPOSPOSPrinter@@IAEXIIJ@Z 10010ab0 f i POSPrinter.obj
 0001:0000fbf0       ?DoVerb@?$IOleObjectImpl@VCOPOSPOSPrinter@@@ATL@@UAGJJPAUtagMSG@@PAUIOleClientSite@@JPAUHWND__@@PBUtagRECT@@@Z 10010bf0 f i POSPrinter.obj
 0001:0000fe00       ?DoVerbDiscardUndo@?$IOleObjectImpl@VCOPOSPOSPrinter@@@ATL@@QAEJPBUtagRECT@@PAUHWND__@@@Z 10010e00 f i POSPrinter.obj
 0001:0000fe70       ?DoVerbHide@?$IOleObjectImpl@VCOPOSPOSPrinter@@@ATL@@QAEJPBUtagRECT@@PAUHWND__@@@Z 10010e70 f i POSPrinter.obj
 0001:0000ff20       ?DoVerbInPlaceActivate@?$IOleObjectImpl@VCOPOSPOSPrinter@@@ATL@@QAEJPBUtagRECT@@PAUHWND__@@@Z 10010f20 f i POSPrinter.obj
 0001:0000ffc0       ?DoVerbOpen@?$IOleObjectImpl@VCOPOSPOSPrinter@@@ATL@@QAEJPBUtagRECT@@PAUHWND__@@@Z 10010fc0 f i POSPrinter.obj
 0001:00010030       ?DoVerbPrimary@?$IOleObjectImpl@VCOPOSPOSPrinter@@@ATL@@QAEJPBUtagRECT@@PAUHWND__@@@Z 10011030 f i POSPrinter.obj
 0001:00010140       ?DoVerbProperties@CComControlBase@ATL@@QAEJPBUtagRECT@@PAUHWND__@@@Z 10011140 f i POSPrinter.obj
 0001:00010460       ?DoVerbShow@?$IOleObjectImpl@VCOPOSPOSPrinter@@@ATL@@QAEJPBUtagRECT@@PAUHWND__@@@Z 10011460 f i POSPrinter.obj
 0001:000104f0       ?DoVerbUIActivate@?$IOleObjectImpl@VCOPOSPOSPrinter@@@ATL@@QAEJPBUtagRECT@@PAUHWND__@@@Z 100114f0 f i POSPrinter.obj
 0001:00010590       ?DoesVerbActivate@CComControlBase@ATL@@QAEHJ@Z 10011590 f i POSPrinter.obj
 0001:00010600       ?DoesVerbUIActivate@CComControlBase@ATL@@QAEHJ@Z 10011600 f i POSPrinter.obj
 0001:00010680       ?Draw@?$IViewObjectExImpl@VCOPOSPOSPrinter@@@ATL@@UAGJKJPAXPAUtagDVTARGETDEVICE@@PAUHDC__@@2PBU_RECTL@@3P6GHK@ZK@Z 10011680 f i POSPrinter.obj
 0001:00010720       ?Empty@CComBSTR@ATL@@QAEXXZ 10011720 f i POSPrinter.obj
 0001:00010760       ?EnableModeless@?$IOleInPlaceActiveObjectImpl@VCOPOSPOSPrinter@@@ATL@@UAGJH@Z 10011760 f i POSPrinter.obj
 0001:000107c0       ?EndOfVar@CRegParser@ATL@@IAEHXZ 100117c0 f i POSPrinter.obj
 0001:00010830       ?EnsureTI@CComTypeInfoHolder@ATL@@QAEJK@Z 10011830 f i POSPrinter.obj
 0001:00010890       ?EnumAdvise@?$IOleObjectImpl@VCOPOSPOSPrinter@@@ATL@@UAGJPAPAUIEnumSTATDATA@@@Z 10011890 f i POSPrinter.obj
 0001:000109a0       ?EnumConnectionPoints@?$IConnectionPointContainerImpl@VCOPOSPOSPrinter@@@ATL@@UAGJPAPAUIEnumConnectionPoints@@@Z 100119a0 f i POSPrinter.obj
 0001:00010dd0       ?EnumConnections@?$IConnectionPointImpl@VCOPOSPOSPrinter@@$1?DIID__IOPOSPOSPrinterEvents@@3U_GUID@@BVCComDynamicUnkArray@ATL@@@ATL@@UAGJPAPAUIEnumConnections@@@Z 10011dd0 f i POSPrinter.obj
 0001:00011020       ?EnumConnections@?$IConnectionPointImpl@VCOPOSPOSPrinter@@$1?IID_IPropertyNotifySink@@3U_GUID@@BVCComDynamicUnkArray@ATL@@@ATL@@UAGJPAPAUIEnumConnections@@@Z 10012020 f i POSPrinter.obj
 0001:00011270       ?EnumDAdvise@?$IDataObjectImpl@VCOPOSPOSPrinter@@@ATL@@UAGJPAPAUIEnumSTATDATA@@@Z 10012270 f i POSPrinter.obj
 0001:00011370       ?EnumFormatEtc@?$IDataObjectImpl@VCOPOSPOSPrinter@@@ATL@@UAGJKPAPAUIEnumFORMATETC@@@Z 10012370 f i POSPrinter.obj
 0001:000113e0       ?EnumVerbs@?$IOleObjectImpl@VCOPOSPOSPrinter@@@ATL@@UAGJPAPAUIEnumOLEVERB@@@Z 100123e0 f i POSPrinter.obj
 0001:00011490       ?EscapeSingleQuote@CAtlModule@ATL@@SAXPA_WIPB_W@Z 10012490 f i POSPrinter.obj
 0001:00011540       ?ExtractCreateWndData@CAtlWinModule@ATL@@QAEPAXXZ 10012540 f i POSPrinter.obj
 0001:00011570       ?FAccessAllowed@?$IObjectSafetyImpl@VCOPOSPOSPrinter@@$02@ATL@@MAEHXZ 10012570 f i POSPrinter.obj
 0001:00011590       ?FinalConstruct@?$CComAggObject@VCOPOSPOSPrinter@@@ATL@@QAEJXZ 10012590 f i POSPrinter.obj
 0001:000115d0       ?FinalConstruct@CComObjectRootBase@ATL@@QAEJXZ 100125d0 f i POSPrinter.obj
 0001:000115f0       ?FinalConstruct@CRegObject@ATL@@QAEJXZ 100125f0 f i POSPrinter.obj
 0001:00011620       ?FinalRelease@?$CComAggObject@VCOPOSPOSPrinter@@@ATL@@QAEXXZ 10012620 f i POSPrinter.obj
 0001:00011660       ?FinalRelease@CComObjectRootBase@ATL@@QAEXXZ 10012660 f i POSPrinter.obj
 0001:00011680       ?FindConnectionPoint@?$IConnectionPointContainerImpl@VCOPOSPOSPrinter@@@ATL@@UAGJABU_GUID@@PAPAUIConnectionPoint@@@Z 10012680 f i POSPrinter.obj
 0001:000117d0       ?FindKey@?$CSimpleMap@PA_WPA_WVCExpansionVectorEqualHelper@ATL@@@ATL@@QBEHABQA_W@Z 100127d0 f i POSPrinter.obj
 0001:00011840       ?FireTheEvent@?$CProxy_IOPOSEvents@VCOPOSPOSPrinter@@@@IAEXPAUIUnknown@@PAVOposVariant@@IAAJPB_WJ@Z 10012840 f i POSPrinter.obj
 0001:000119b0       ?FireViewChange@CComControlBase@ATL@@QAEJXZ 100129b0 f i POSPrinter.obj
 0001:00011a70       ?Fire_DirectIOEvent@?$CProxy_IOPOSEvents@VCOPOSPOSPrinter@@@@QAEXJPAJPAPA_W@Z 10012a70 f i POSPrinter.obj
 0001:00011c40       ?Fire_ErrorEvent@?$CProxy_IOPOSEvents@VCOPOSPOSPrinter@@@@QAEXJJJPAJ@Z 10012c40 f i POSPrinter.obj
 0001:00011e30       ?Fire_OutputCompleteEvent@?$CProxy_IOPOSEvents@VCOPOSPOSPrinter@@@@QAEXJ@Z 10012e30 f i POSPrinter.obj
 0001:00011f90       ?Fire_StatusUpdateEvent@?$CProxy_IOPOSEvents@VCOPOSPOSPrinter@@@@QAEXJ@Z 10012f90 f i POSPrinter.obj
 0001:000120f0       ?FormatWindowClassName@AtlModuleRegisterWndClassInfoParamW@ATL@@SAXPA_WKPAX@Z 100130f0 f i POSPrinter.obj
 0001:00012120       ?Free@?$CAutoVectorPtr@_W@ATL@@QAEXXZ 10013120 f i POSPrinter.obj
 0001:00012170       ?FreeHeap@?$CTempBuffer@E$0BAA@VCCRTAllocator@ATL@@@ATL@@AAEXXZ 10013170 f i POSPrinter.obj
 0001:000121a0       ?FreeHeap@?$CTempBuffer@_W$0BAA@VCCRTAllocator@ATL@@@ATL@@AAEXXZ 100131a0 f i POSPrinter.obj
 0001:000121d0       ?FreeHeap@?$CTempBuffer@_W$0EAA@VCCRTAllocator@ATL@@@ATL@@AAEXXZ 100131d0 f i POSPrinter.obj
 0001:00012200       ?Freeze@?$IViewObjectExImpl@VCOPOSPOSPrinter@@@ATL@@UAGJKJPAXPAK@Z 10013200 f i POSPrinter.obj
 0001:00012270       ?GenerateError@CRegParser@ATL@@IAEJI@Z 10013270 f i POSPrinter.obj
 0001:00012290       ?GetAdvise@?$IViewObjectExImpl@VCOPOSPOSPrinter@@@ATL@@UAGJPAK0PAPAUIAdviseSink@@@Z 10013290 f i POSPrinter.obj
 0001:00012390       ?GetAmbientLocaleID@CComControlBase@ATL@@QAEJAAK@Z 10013390 f i POSPrinter.obj
 0001:00012470       ?GetAmbientProperty@CComControlBase@ATL@@QAEJJAAUtagVARIANT@@@Z 10013470 f i POSPrinter.obj
 0001:000124c0       ?GetAmbientUserMode@CComControlBase@ATL@@QAEJAAH@Z 100134c0 f i POSPrinter.obj
 0001:000125c0       ?GetAppId@?$CAtlModuleT@VCComModule@ATL@@@ATL@@SAPB_WXZ 100135c0 f i POSPrinter.obj
 0001:000125d0       ?GetAt@CComDynamicUnkArray@ATL@@QAEPAUIUnknown@@H@Z 100135d0 f i POSPrinter.obj
 0001:00012650       ?GetCanonicalFormatEtc@?$IDataObjectImpl@VCOPOSPOSPrinter@@@ATL@@UAGJPAUtagFORMATETC@@0@Z 10013650 f i POSPrinter.obj
 0001:000126c0       ?GetClassID@?$IPersistStorageImpl@VCOPOSPOSPrinter@@@ATL@@UAGJPAU_GUID@@@Z 100136c0 f i POSPrinter.obj
 0001:00012740       ?GetClassID@?$IPersistStreamInitImpl@VCOPOSPOSPrinter@@@ATL@@UAGJPAU_GUID@@@Z 10013740 f i POSPrinter.obj
 0001:000127c0       ?GetClassInfoExW@AtlModuleRegisterWndClassInfoParamW@ATL@@SAHPAUHINSTANCE__@@PB_WPAUtagWNDCLASSEXW@@@Z 100137c0 f i POSPrinter.obj
 0001:000127f0       ?GetClassInfoW@?$IProvideClassInfo2Impl@$1?CLSID_OPOSPOSPrinter@@3U_GUID@@B$1?DIID__IOPOSPOSPrinterEvents@@3U2@B$1?LIBID_OposPOSPrinter_CCO@@3U2@B$00$0A@VCComTypeInfoHolder@ATL@@@ATL@@UAGJPAPAUITypeInfo@@@Z 100137f0 f i POSPrinter.obj
 0001:00012810       ?GetClassObject@CComModule@ATL@@QAEJABU_GUID@@0PAPAX@Z 10013810 f i POSPrinter.obj
 0001:00012a10       ?GetClientSite@?$IOleObjectImpl@VCOPOSPOSPrinter@@@ATL@@UAGJPAPAUIOleClientSite@@@Z 10013a10 f i POSPrinter.obj
 0001:00012aa0       ?GetClipboardData@?$IOleObjectImpl@VCOPOSPOSPrinter@@@ATL@@UAGJKPAPAUIDataObject@@@Z 10013aa0 f i POSPrinter.obj
 0001:00012b10       ?GetCodeAddress@CDynamicStdCallThunk2@ATL@@QAEPAXXZ 10013b10 f i POSPrinter.obj
 0001:00012b40       ?GetColorSet@?$IViewObjectExImpl@VCOPOSPOSPrinter@@@ATL@@UAGJKJPAXPAUtagDVTARGETDEVICE@@PAUHDC__@@PAPAUtagLOGPALETTE@@@Z 10013b40 f i POSPrinter.obj
 0001:00012bb0       ?GetConnMap@COPOSPOSPrinter@@SAPBU_ATL_CONNMAP_ENTRY@ATL@@PAH@Z 10013bb0 f i POSPrinter.obj
 0001:00012cf0       ?GetConnectionInterface@?$IConnectionPointImpl@VCOPOSPOSPrinter@@$1?DIID__IOPOSPOSPrinterEvents@@3U_GUID@@BVCComDynamicUnkArray@ATL@@@ATL@@UAGJPAU_GUID@@@Z 10013cf0 f i POSPrinter.obj
 0001:00012d30       ?GetConnectionInterface@?$IConnectionPointImpl@VCOPOSPOSPrinter@@$1?IID_IPropertyNotifySink@@3U_GUID@@BVCComDynamicUnkArray@ATL@@@ATL@@UAGJPAU_GUID@@@Z 10013d30 f i POSPrinter.obj
 0001:00012d70       ?GetConnectionPointContainer@?$IConnectionPointImpl@VCOPOSPOSPrinter@@$1?DIID__IOPOSPOSPrinterEvents@@3U_GUID@@BVCComDynamicUnkArray@ATL@@@ATL@@UAGJPAPAUIConnectionPointContainer@@@Z 10013d70 f i POSPrinter.obj
 0001:00012de0       ?GetConnectionPointContainer@?$IConnectionPointImpl@VCOPOSPOSPrinter@@$1?IID_IPropertyNotifySink@@3U_GUID@@BVCComDynamicUnkArray@ATL@@@ATL@@UAGJPAPAUIConnectionPointContainer@@@Z 10013de0 f i POSPrinter.obj
 0001:00012e50       ?GetContentExtent@?$IQuickActivateImpl@VCOPOSPOSPrinter@@@ATL@@UAGJPAUtagSIZE@@@Z 10013e50 f i POSPrinter.obj
 0001:00012ee0       ?GetControlInfo@?$IOleControlImpl@VCOPOSPOSPrinter@@@ATL@@UAGJPAUtagCONTROLINFO@@@Z 10013ee0 f i POSPrinter.obj
 0001:00012f50       ?GetCookie@CComDynamicUnkArray@ATL@@QAGKPAPAUIUnknown@@@Z 10013f50 f i POSPrinter.obj
 0001:00013010       ?GetData@?$IDataObjectImpl@VCOPOSPOSPrinter@@@ATL@@UAGJPAUtagFORMATETC@@PAUtagSTGMEDIUM@@@Z 10014010 f i POSPrinter.obj
 0001:000130a0       ?GetData@CAtlSafeAllocBufferNode@?$CAtlSafeAllocBufferManager@VCCRTAllocator@ATL@@@_ATL_SAFE_ALLOCA_IMPL@ATL@@QAEPAXXZ 100140a0 f i POSPrinter.obj
 0001:000130c0       ?GetDataHere@?$IDataObjectImpl@VCOPOSPOSPrinter@@@ATL@@UAGJPAUtagFORMATETC@@PAUtagSTGMEDIUM@@@Z 100140c0 f i POSPrinter.obj
 0001:00013130       ?GetDropTarget@?$IOleInPlaceObjectWindowlessImpl@VCOPOSPOSPrinter@@@ATL@@UAGJPAPAUIDropTarget@@@Z 10014130 f i POSPrinter.obj
 0001:000131a0       ?GetExtent@?$IOleObjectImpl@VCOPOSPOSPrinter@@@ATL@@UAGJKPAUtagSIZE@@@Z 100141a0 f i POSPrinter.obj
 0001:00013240       ?GetExtent@?$IViewObjectExImpl@VCOPOSPOSPrinter@@@ATL@@UAGJKJPAUtagDVTARGETDEVICE@@PAUtagSIZE@@@Z 10014240 f i POSPrinter.obj
 0001:00013310       ?GetGITPtr@CAtlModule@ATL@@UAEJPAPAUIGlobalInterfaceTable@@@Z 10014310 f i POSPrinter.obj
 0001:00013410       ?GetGUID@?$IProvideClassInfo2Impl@$1?CLSID_OPOSPOSPrinter@@3U_GUID@@B$1?DIID__IOPOSPOSPrinterEvents@@3U2@B$1?LIBID_OposPOSPrinter_CCO@@3U2@B$00$0A@VCComTypeInfoHolder@ATL@@@ATL@@UAGJKPAU_GUID@@@Z 10014410 f i POSPrinter.obj
 0001:00013490       ?GetIDsOfNames@?$IDispatchImpl@UIOPOSPOSPrinter@@$1?IID_IOPOSPOSPrinter@@3U_GUID@@B$1?LIBID_OposPOSPrinter_CCO@@3U3@B$00$0A@VCComTypeInfoHolder@ATL@@@ATL@@UAGJABU_GUID@@PAPA_WIKPAJ@Z 10014490 f i POSPrinter.obj
 0001:000134c0       ?GetIDsOfNames@CComTypeInfoHolder@ATL@@QAEJABU_GUID@@PAPA_WIKPAJ@Z 100144c0 f i POSPrinter.obj
 0001:00013670       ?GetInterfaceSafetyOptions@?$IObjectSafetyImpl@VCOPOSPOSPrinter@@$02@ATL@@UAGJABU_GUID@@PAK1@Z 10014670 f i POSPrinter.obj
 0001:000137e0       ?GetKeyAt@?$CSimpleMap@PA_WPA_WVCExpansionVectorEqualHelper@ATL@@@ATL@@QBEAAPA_WH@Z 100147e0 f i POSPrinter.obj
 0001:00013860       ?GetLockCount@CAtlModule@ATL@@UAEJXZ 10014860 f i POSPrinter.obj
 0001:00013880       ?GetMiscStatus@?$IOleObjectImpl@VCOPOSPOSPrinter@@@ATL@@UAGJKPAK@Z 10014880 f i POSPrinter.obj
 0001:000138f0       ?GetMoniker@?$IOleObjectImpl@VCOPOSPOSPrinter@@@ATL@@UAGJKKPAPAUIMoniker@@@Z 100148f0 f i POSPrinter.obj
 0001:00013960       ?GetNaturalExtent@?$IViewObjectExImpl@VCOPOSPOSPrinter@@@ATL@@UAGJKJPAUtagDVTARGETDEVICE@@PAUHDC__@@PAUtagExtentInfo@@PAUtagSIZE@@@Z 10014960 f i POSPrinter.obj
 0001:00013a80       ?GetObjectCLSID@?$CComCoClass@VCOPOSPOSPrinter@@$1?CLSID_OPOSPOSPrinter@@3U_GUID@@B@ATL@@SGABU_GUID@@XZ 10014a80 f i POSPrinter.obj
 0001:00013a90       ?GetPages@?$ISpecifyPropertyPagesImpl@VCOPOSPOSPrinter@@@ATL@@UAGJPAUtagCAUUID@@@Z 10014a90 f i POSPrinter.obj
 0001:00013b00       ?GetPagesHelper@?$ISpecifyPropertyPagesImpl@VCOPOSPOSPrinter@@@ATL@@IAEJPAUtagCAUUID@@PBUATL_PROPMAP_ENTRY@2@@Z 10014b00 f i POSPrinter.obj
 0001:00013d00       ?GetProperty@?$CComPtr@UIDispatch@@@ATL@@QAEJJPAUtagVARIANT@@@Z 10014d00 f i POSPrinter.obj
 0001:00013d40       ?GetProperty@?$CComPtr@UIDispatch@@@ATL@@SAJPAUIDispatch@@JPAUtagVARIANT@@@Z 10014d40 f i POSPrinter.obj
 0001:00013ea0       ?GetPropertyMap@COPOSPOSPrinter@@SAPBUATL_PROPMAP_ENTRY@ATL@@XZ 10014ea0 f i POSPrinter.obj
 0001:00013eb0       ?GetRect@?$IViewObjectExImpl@VCOPOSPOSPrinter@@@ATL@@UAGJKPAU_RECTL@@@Z 10014eb0 f i POSPrinter.obj
 0001:00013f20       ?GetSize@?$CSimpleMap@PA_WPA_WVCExpansionVectorEqualHelper@ATL@@@ATL@@QBEHXZ 10014f20 f i POSPrinter.obj
 0001:00013f40       ?GetSize@CComDynamicUnkArray@ATL@@QBEHXZ 10014f40 f i POSPrinter.obj
 0001:00013f60       ?GetSizeMax@?$IPersistStreamInitImpl@VCOPOSPOSPrinter@@@ATL@@UAGJPAT_ULARGE_INTEGER@@@Z 10014f60 f i POSPrinter.obj
 0001:000144d0       ?GetSizeMax@CComVariant@ATL@@QBEJPAT_ULARGE_INTEGER@@@Z 100154d0 f i POSPrinter.obj
 0001:00014830       ?GetStreamSize@CComBSTR@ATL@@SAKPA_W@Z 10015830 f i POSPrinter.obj
 0001:00014880       ?GetTI@CComTypeInfoHolder@ATL@@QAEJK@Z 10015880 f i POSPrinter.obj
 0001:00015090       ?GetTI@CComTypeInfoHolder@ATL@@QAEJKPAPAUITypeInfo@@@Z 10016090 f i POSPrinter.obj
 0001:00015150       ?GetTypeInfo@?$IDispatchImpl@UIOPOSPOSPrinter@@$1?IID_IOPOSPOSPrinter@@3U_GUID@@B$1?LIBID_OposPOSPrinter_CCO@@3U3@B$00$0A@VCComTypeInfoHolder@ATL@@@ATL@@UAGJIKPAPAUITypeInfo@@@Z 10016150 f i POSPrinter.obj
 0001:00015180       ?GetTypeInfo@CComTypeInfoHolder@ATL@@QAEJIKPAPAUITypeInfo@@@Z 10016180 f i POSPrinter.obj
 0001:000151c0       ?GetTypeInfoCount@?$IDispatchImpl@UIOPOSPOSPrinter@@$1?IID_IOPOSPOSPrinter@@3U_GUID@@B$1?LIBID_OposPOSPrinter_CCO@@3U3@B$00$0A@VCComTypeInfoHolder@ATL@@@ATL@@UAGJPAI@Z 100161c0 f i POSPrinter.obj
 0001:000151e0       ?GetUnknown@CComDynamicUnkArray@ATL@@QAGPAUIUnknown@@K@Z 100161e0 f i POSPrinter.obj
 0001:00015250       ?GetUnknown@COPOSPOSPrinter@@QAEPAUIUnknown@@XZ 10016250 f i POSPrinter.obj
 0001:00015280       ?GetUserClassID@?$IOleObjectImpl@VCOPOSPOSPrinter@@@ATL@@UAGJPAU_GUID@@@Z 10016280 f i POSPrinter.obj
 0001:00015330       ?GetUserType@?$IOleObjectImpl@VCOPOSPOSPrinter@@@ATL@@UAGJKPAPA_W@Z 10016330 f i POSPrinter.obj
 0001:000153a0       ?GetValueAt@?$CSimpleMap@PA_WPA_WVCExpansionVectorEqualHelper@ATL@@@ATL@@QBEAAPA_WH@Z 100163a0 f i POSPrinter.obj
 0001:00015420       ?GetViewStatus@?$IViewObjectExImpl@VCOPOSPOSPrinter@@@ATL@@UAGJPAK@Z 10016420 f i POSPrinter.obj
 0001:000154e0       ?GetWNDPROC@CWndProcThunk@ATL@@QAEP6GJPAUHWND__@@IIJ@ZXZ 100164e0 f i POSPrinter.obj
 0001:00015510       ?GetWindow@?$IOleInPlaceActiveObjectImpl@VCOPOSPOSPrinter@@@ATL@@UAGJPAPAUHWND__@@@Z 10016510 f i POSPrinter.obj
 0001:000155e0       ?GetWindow@?$IOleInPlaceObjectWindowlessImpl@VCOPOSPOSPrinter@@@ATL@@UAGJPAPAUHWND__@@@Z 100165e0 f i POSPrinter.obj
 0001:000156b0       ?GetWindowLongPtrW@@YAJPAUHWND__@@H@Z 100166b0 f i POSPrinter.obj
 0001:000156e0       ?GetWindowProc@?$CWindowImplBaseT@VCWindow@ATL@@V?$CWinTraits@$0FGAAAAAA@$0A@@2@@ATL@@UAEP6GJPAUHWND__@@IIJ@ZXZ 100166e0 f i POSPrinter.obj
 0001:00015700       ?GetWndCaption@?$CWindowImpl@VCOPOSPOSPrinter@@VCWindow@ATL@@V?$CWinTraits@$0FGAAAAAA@$0A@@3@@ATL@@SAPB_WXZ 10016700 f i POSPrinter.obj
 0001:00015710       ?GetWndClassInfo@?$CWindowImpl@VCOPOSPOSPrinter@@VCWindow@ATL@@V?$CWinTraits@$0FGAAAAAA@$0A@@3@@ATL@@SAAAU_ATL_WNDCLASSINFOW@2@XZ 10016710 f i POSPrinter.obj
 0001:00015720       ?GetWndClassName@CWindow@ATL@@SAPB_WXZ 10016720 f i POSPrinter.obj
 0001:00015730       ?GetWndExStyle@?$CWinTraits@$0FGAAAAAA@$0A@@ATL@@SAKK@Z 10016730 f i POSPrinter.obj
 0001:00015760       ?GetWndExStyle@?$CWindowImplBaseT@VCWindow@ATL@@V?$CWinTraits@$0FGAAAAAA@$0A@@2@@ATL@@SAKK@Z 10016760 f i POSPrinter.obj
 0001:00015780       ?GetWndStyle@?$CWinTraits@$0FGAAAAAA@$0A@@ATL@@SAKK@Z 10016780 f i POSPrinter.obj
 0001:000157b0       ?GetWndStyle@?$CWindowImplBaseT@VCWindow@ATL@@V?$CWinTraits@$0FGAAAAAA@$0A@@2@@ATL@@SAKK@Z 100167b0 f i POSPrinter.obj
 0001:000157d0       ?GetZoomInfo@CComControlBase@ATL@@QAEXAAUATL_DRAWINFO@@@Z 100167d0 f i POSPrinter.obj
 0001:00015940       ?HKeyFromString@CRegParser@ATL@@KAPAUHKEY__@@PA_W@Z 10016940 f i POSPrinter.obj
 0001:000159b0       ?HandsOffStorage@?$IPersistStorageImpl@VCOPOSPOSPrinter@@@ATL@@UAGJXZ 100169b0 f i POSPrinter.obj
 0001:00015a10       ?HasSubKeys@CRegParser@ATL@@IAEHPAUHKEY__@@@Z 10016a10 f i POSPrinter.obj
 0001:00015b20       ?IDataObject_GetData@CComControlBase@ATL@@QAEJPAUtagFORMATETC@@PAUtagSTGMEDIUM@@@Z 10016b20 f i POSPrinter.obj
 0001:00015f40       ?IOleInPlaceObject_InPlaceDeactivate@CComControlBase@ATL@@QAEJXZ 10016f40 f i POSPrinter.obj
 0001:00016140       ?IOleInPlaceObject_SetObjectRects@CComControlBase@ATL@@QAEJPBUtagRECT@@0@Z 10017140 f i POSPrinter.obj
 0001:00016300       ?IOleInPlaceObject_UIDeactivate@CComControlBase@ATL@@QAEJXZ 10017300 f i POSPrinter.obj
 0001:00016570       ?IOleObject_Advise@CComControlBase@ATL@@QAEJPAUIAdviseSink@@PAK@Z 10017570 f i POSPrinter.obj
 0001:00016620       ?IOleObject_Close@CComControlBase@ATL@@QAEJK@Z 10017620 f i POSPrinter.obj
 0001:000168d0       ?IOleObject_GetClientSite@CComControlBase@ATL@@QAEJPAPAUIOleClientSite@@@Z 100178d0 f i POSPrinter.obj
 0001:00016970       ?IOleObject_SetClientSite@CComControlBase@ATL@@QAEJPAUIOleClientSite@@@Z 10017970 f i POSPrinter.obj
 0001:00016a40       ?IOleObject_SetExtent@CComControlBase@ATL@@QAEJKPAUtagSIZE@@@Z 10017a40 f i POSPrinter.obj
 0001:00016b80       ?IPSI_GetIPersistStreamInit@?$IPersistStorageImpl@VCOPOSPOSPrinter@@@ATL@@AAEPAUIPersistStreamInit@@XZ 10017b80 f i POSPrinter.obj
 0001:00016c50       ?IPersistStreamInit_Load@?$IPersistStreamInitImpl@VCOPOSPOSPrinter@@@ATL@@QAEJPAUIStream@@PBUATL_PROPMAP_ENTRY@2@@Z 10017c50 f i POSPrinter.obj
 0001:00016cd0       ?IPersistStreamInit_Save@?$IPersistStreamInitImpl@VCOPOSPOSPrinter@@@ATL@@QAEJPAUIStream@@HPBUATL_PROPMAP_ENTRY@2@@Z 10017cd0 f i POSPrinter.obj
 0001:00016d60       ?IQuickActivate_QuickActivate@CComControlBase@ATL@@QAEJPAUtagQACONTAINER@@PAUtagQACONTROL@@@Z 10017d60 f i POSPrinter.obj
 0001:000173b0       ?IViewObject_Draw@CComControlBase@ATL@@QAEJKJPAXPAUtagDVTARGETDEVICE@@PAUHDC__@@2PBU_RECTL@@3@Z 100183b0 f i POSPrinter.obj
 0001:00017650       ?InPlaceActivate@CComControlBase@ATL@@QAEJJPBUtagRECT@@@Z 10018650 f i POSPrinter.obj
 0001:00017fe0       ?InPlaceDeactivate@?$IOleInPlaceObjectWindowlessImpl@VCOPOSPOSPrinter@@@ATL@@UAGJXZ 10018fe0 f i POSPrinter.obj
 0001:00018060       ?Increment@CComMultiThreadModel@ATL@@SGKPAJ@Z 10019060 f i POSPrinter.obj
 0001:00018080       ?Increment@CComSingleThreadModel@ATL@@SGKPAJ@Z 10019080 f i POSPrinter.obj
 0001:000180a0       ?Init@?$CComEnumImpl@UIEnumConnectionPoints@@$1?_GUID_b196b285_bab4_101a_b69c_00aa00341d07@@3U__s_GUID@@BPAUIConnectionPoint@@V?$_CopyInterface@UIConnectionPoint@@@ATL@@@ATL@@QAEJPAPAUIConnectionPoint@@0PAUIUnknown@@W4CComEnumFlags@2@@Z 100190a0 f i POSPrinter.obj
 0001:00018280       ?Init@?$CComEnumImpl@UIEnumConnections@@$1?_GUID_b196b287_bab4_101a_b69c_00aa00341d07@@3U__s_GUID@@BUtagCONNECTDATA@@V?$_Copy@UtagCONNECTDATA@@@ATL@@@ATL@@QAEJPAUtagCONNECTDATA@@0PAUIUnknown@@W4CComEnumFlags@2@@Z 10019280 f i POSPrinter.obj
 0001:00018460       ?Init@CComFakeCriticalSection@ATL@@QAEJXZ 10019460 f i POSPrinter.obj
 0001:00018480       ?Init@CComModule@ATL@@QAEJPAU_ATL_OBJMAP_ENTRY30@2@PAUHINSTANCE__@@PBU_GUID@@@Z 10019480 f i POSPrinter.obj
 0001:00018570       ?Init@CComSafeDeleteCriticalSection@ATL@@QAEJXZ 10019570 f i POSPrinter.obj
 0001:000185f0       ?Init@CDynamicStdCallThunk2@ATL@@QAEHKPAX@Z 100195f0 f i POSPrinter.obj
 0001:00018650       ?Init@CWndProcThunk@ATL@@QAEHP6GJPAUHWND__@@IIJ@ZPAX@Z 10019650 f i POSPrinter.obj
 0001:00018690       ?InitFromData@?$IOleObjectImpl@VCOPOSPOSPrinter@@@ATL@@UAGJPAUIDataObject@@HK@Z 10019690 f i POSPrinter.obj
 0001:00018700       ?InitLibId@?$CAtlModuleT@VCComModule@ATL@@@ATL@@SAXXZ 10019700 f i POSPrinter.obj
 0001:00018710       ?InitNew@?$IPersistStorageImpl@VCOPOSPOSPrinter@@@ATL@@UAGJPAUIStorage@@@Z 10019710 f i POSPrinter.obj
 0001:00018800       ?InitNew@?$IPersistStreamInitImpl@VCOPOSPOSPrinter@@@ATL@@UAGJXZ 10019800 f i POSPrinter.obj
 0001:00018890       ?InlineIsEqualUnknown@ATL@@YGHABU_GUID@@@Z 10019890 f i POSPrinter.obj
 0001:00018900       ?InternalAddRef@?$CComObjectRootEx@VCComMultiThreadModel@ATL@@@ATL@@QAEKXZ 10019900 f i POSPrinter.obj
 0001:00018960       ?InternalAddRef@?$CComObjectRootEx@VCComSingleThreadModel@ATL@@@ATL@@QAEKXZ 10019960 f i POSPrinter.obj
 0001:000189c0       ?InternalFinalConstructAddRef@CComObjectRootBase@ATL@@QAEXXZ 100199c0 f i POSPrinter.obj
 0001:000189e0       ?InternalFinalConstructAddRef@COPOSPOSPrinter@@QAEXXZ 100199e0 f i POSPrinter.obj
 0001:00018a10       ?InternalFinalConstructRelease@CComObjectRootBase@ATL@@QAEXXZ 10019a10 f i POSPrinter.obj
 0001:00018a60       ?InternalFinalConstructRelease@COPOSPOSPrinter@@QAEXXZ 10019a60 f i POSPrinter.obj
 0001:00018a90       ?InternalGetSite@CComControlBase@ATL@@QAEJABU_GUID@@PAPAX@Z 10019a90 f i POSPrinter.obj
 0001:00018b50       ?InternalQueryInterface@CComObjectRootBase@ATL@@SGJPAXPBU_ATL_INTMAP_ENTRY@2@ABU_GUID@@PAPAX@Z 10019b50 f i POSPrinter.obj
 0001:00018c10       ?InternalRelease@?$CComObjectRootEx@VCComMultiThreadModel@ATL@@@ATL@@QAEKXZ 10019c10 f i POSPrinter.obj
 0001:00018c80       ?InternalRelease@?$CComObjectRootEx@VCComSingleThreadModel@ATL@@@ATL@@QAEKXZ 10019c80 f i POSPrinter.obj
 0001:00018cf0       ?InternalSetAtIndex@?$CSimpleArray@GV?$CSimpleArrayEqualHelper@G@ATL@@@ATL@@QAEXHABG@Z 10019cf0 f i POSPrinter.obj
 0001:00018d60       ?InternalSetAtIndex@?$CSimpleMap@PA_WPA_WVCExpansionVectorEqualHelper@ATL@@@ATL@@QAEXHABQA_W0@Z 10019d60 f i POSPrinter.obj
 0001:00018e00       ?Invoke@?$IDispatchImpl@UIOPOSPOSPrinter@@$1?IID_IOPOSPOSPrinter@@3U_GUID@@B$1?LIBID_OposPOSPrinter_CCO@@3U3@B$00$0A@VCComTypeInfoHolder@ATL@@@ATL@@UAGJJABU_GUID@@KGPAUtagDISPPARAMS@@PAUtagVARIANT@@PAUtagEXCEPINFO@@PAI@Z 10019e00 f i POSPrinter.obj
 0001:00018e40       ?Invoke@CComTypeInfoHolder@ATL@@QAEJPAUIDispatch@@JABU_GUID@@KGPAUtagDISPPARAMS@@PAUtagVARIANT@@PAUtagEXCEPINFO@@PAI@Z 10019e40 f i POSPrinter.obj
 0001:00018ed0       ?IsDirty@?$IPersistStorageImpl@VCOPOSPOSPrinter@@@ATL@@UAGJXZ 10019ed0 f i POSPrinter.obj
 0001:00018fc0       ?IsDirty@?$IPersistStreamInitImpl@VCOPOSPOSPrinter@@@ATL@@UAGJXZ 10019fc0 f i POSPrinter.obj
 0001:00019060       ?IsEqualKey@CExpansionVectorEqualHelper@ATL@@SA_NQA_W0@Z 1001a060 f i POSPrinter.obj
 0001:00019090       ?IsEqualObject@?$CComPtrBase@UIOleClientSite@@@ATL@@QAE_NPAUIUnknown@@@Z 1001a090 f i POSPrinter.obj
 0001:000191c0       ?IsEqualObject@?$CComPtrBase@UITypeInfo@@@ATL@@QAE_NPAUIUnknown@@@Z 1001a1c0 f i POSPrinter.obj
 0001:000192f0       ?IsSpace@CRegParser@ATL@@IAEH_W@Z 1001a2f0 f i POSPrinter.obj
 0001:00019360       ?IsUpToDate@?$IOleObjectImpl@VCOPOSPOSPrinter@@@ATL@@UAGJXZ 1001a360 f i POSPrinter.obj
 0001:000193c0       ?Length@CComBSTR@ATL@@QBEIXZ 1001a3c0 f i POSPrinter.obj
 0001:00019400       ?Load@?$IPersistStorageImpl@VCOPOSPOSPrinter@@@ATL@@UAGJPAUIStorage@@@Z 1001a400 f i POSPrinter.obj
 0001:00019560       ?Load@?$IPersistStreamInitImpl@VCOPOSPOSPrinter@@@ATL@@UAGJPAUIStream@@@Z 1001a560 f i POSPrinter.obj
 0001:000195f0       ?LoadCursorW@AtlModuleRegisterWndClassInfoParamW@ATL@@SAPAUHICON__@@PAUHINSTANCE__@@PB_W@Z 1001a5f0 f i POSPrinter.obj
 0001:00019620       ?LoadNameCache@CComTypeInfoHolder@ATL@@QAEJPAUITypeInfo@@@Z 1001a620 f i POSPrinter.obj
 0001:000198b0       ?Lock@?$CComCritSecLock@VCComCriticalSection@ATL@@@ATL@@QAEJXZ 1001a8b0 f i POSPrinter.obj
 0001:00019960       ?Lock@?$CComObjectRootEx@VCComSingleThreadModel@ATL@@@ATL@@QAEXXZ 1001a960 f i POSPrinter.obj
 0001:00019980       ?Lock@CAtlModule@ATL@@UAEJXZ 1001a980 f i POSPrinter.obj
 0001:000199b0       ?Lock@CComCriticalSection@ATL@@QAEJXZ 1001a9b0 f i POSPrinter.obj
 0001:000199f0       ?Lock@CComFakeCriticalSection@ATL@@QAEJXZ 1001a9f0 f i POSPrinter.obj
 0001:00019a10       ?LockServer@CComClassFactory@ATL@@UAGJH@Z 1001aa10 f i POSPrinter.obj
 0001:00019a70       ?Lookup@?$CSimpleMap@PA_WPA_WVCExpansionVectorEqualHelper@ATL@@@ATL@@QBEPA_WABQA_W@Z 1001aa70 f i POSPrinter.obj
 0001:00019ac0       ?Next@?$CComEnumImpl@UIEnumConnectionPoints@@$1?_GUID_b196b285_bab4_101a_b69c_00aa00341d07@@3U__s_GUID@@BPAUIConnectionPoint@@V?$_CopyInterface@UIConnectionPoint@@@ATL@@@ATL@@UAGJKPAPAUIConnectionPoint@@PAK@Z 1001aac0 f i POSPrinter.obj
 0001:00019c30       ?Next@?$CComEnumImpl@UIEnumConnections@@$1?_GUID_b196b287_bab4_101a_b69c_00aa00341d07@@3U__s_GUID@@BUtagCONNECTDATA@@V?$_Copy@UtagCONNECTDATA@@@ATL@@@ATL@@UAGJKPAUtagCONNECTDATA@@PAK@Z 1001ac30 f i POSPrinter.obj
 0001:00019da0       ?NextToken@CRegParser@ATL@@IAEJPA_W@Z 1001ada0 f i POSPrinter.obj
 0001:0001a040       ?OLE2CT_EX@@YAPB_WPB_WI@Z  1001b040 f i POSPrinter.obj
 0001:0001a050       ?OLE2CT_EX_DEF@@YAPB_WPB_W@Z 1001b050 f i POSPrinter.obj
 0001:0001a060       ?OLE2T_EX@@YAPA_WPA_WI@Z   1001b060 f i POSPrinter.obj
 0001:0001a070       ?OnAmbientPropertyChange@?$IOleControlImpl@VCOPOSPOSPrinter@@@ATL@@UAGJJ@Z 1001b070 f i POSPrinter.obj
 0001:0001a100       ?OnDocWindowActivate@?$IOleInPlaceActiveObjectImpl@VCOPOSPOSPrinter@@@ATL@@UAGJH@Z 1001b100 f i POSPrinter.obj
 0001:0001a190       ?OnDrawAdvanced@CComControlBase@ATL@@UAEJAAUATL_DRAWINFO@@@Z 1001b190 f i POSPrinter.obj
 0001:0001a3b0       ?OnFinalMessage@?$CWindowImplBaseT@VCWindow@ATL@@V?$CWinTraits@$0FGAAAAAA@$0A@@2@@ATL@@UAEXPAUHWND__@@@Z 1001b3b0 f i POSPrinter.obj
 0001:0001a3d0       ?OnFrameWindowActivate@?$IOleInPlaceActiveObjectImpl@VCOPOSPOSPrinter@@@ATL@@UAGJH@Z 1001b3d0 f i POSPrinter.obj
 0001:0001a430       ?OnKillFocus@CComControlBase@ATL@@QAEJIIJAAH@Z 1001b430 f i POSPrinter.obj
 0001:0001a530       ?OnMnemonic@?$IOleControlImpl@VCOPOSPOSPrinter@@@ATL@@UAGJPAUtagMSG@@@Z 1001b530 f i POSPrinter.obj
 0001:0001a5a0       ?OnMouseActivate@CComControlBase@ATL@@QAEJIIJAAH@Z 1001b5a0 f i POSPrinter.obj
 0001:0001a6f0       ?OnPaint@CComControlBase@ATL@@QAEJIIJAAH@Z 1001b6f0 f i POSPrinter.obj
 0001:0001a870       ?OnPostVerbDiscardUndo@?$IOleObjectImpl@VCOPOSPOSPrinter@@@ATL@@QAEJXZ 1001b870 f i POSPrinter.obj
 0001:0001a890       ?OnPostVerbHide@?$IOleObjectImpl@VCOPOSPOSPrinter@@@ATL@@QAEJXZ 1001b890 f i POSPrinter.obj
 0001:0001a8b0       ?OnPostVerbInPlaceActivate@?$IOleObjectImpl@VCOPOSPOSPrinter@@@ATL@@QAEJXZ 1001b8b0 f i POSPrinter.obj
 0001:0001a8d0       ?OnPostVerbOpen@?$IOleObjectImpl@VCOPOSPOSPrinter@@@ATL@@QAEJXZ 1001b8d0 f i POSPrinter.obj
 0001:0001a8f0       ?OnPostVerbShow@?$IOleObjectImpl@VCOPOSPOSPrinter@@@ATL@@QAEJXZ 1001b8f0 f i POSPrinter.obj
 0001:0001a910       ?OnPostVerbUIActivate@?$IOleObjectImpl@VCOPOSPOSPrinter@@@ATL@@QAEJXZ 1001b910 f i POSPrinter.obj
 0001:0001a930       ?OnPreVerbDiscardUndo@?$IOleObjectImpl@VCOPOSPOSPrinter@@@ATL@@QAEJXZ 1001b930 f i POSPrinter.obj
 0001:0001a950       ?OnPreVerbHide@?$IOleObjectImpl@VCOPOSPOSPrinter@@@ATL@@QAEJXZ 1001b950 f i POSPrinter.obj
 0001:0001a970       ?OnPreVerbInPlaceActivate@?$IOleObjectImpl@VCOPOSPOSPrinter@@@ATL@@QAEJXZ 1001b970 f i POSPrinter.obj
 0001:0001a990       ?OnPreVerbOpen@?$IOleObjectImpl@VCOPOSPOSPrinter@@@ATL@@QAEJXZ 1001b990 f i POSPrinter.obj
 0001:0001a9b0       ?OnPreVerbShow@?$IOleObjectImpl@VCOPOSPOSPrinter@@@ATL@@QAEJXZ 1001b9b0 f i POSPrinter.obj
 0001:0001a9d0       ?OnPreVerbUIActivate@?$IOleObjectImpl@VCOPOSPOSPrinter@@@ATL@@QAEJXZ 1001b9d0 f i POSPrinter.obj
 0001:0001a9f0       ?OnSetFocus@CComControlBase@ATL@@QAEJIIJAAH@Z 1001b9f0 f i POSPrinter.obj
 0001:0001ab80       ?OnWindowMessage@?$IOleInPlaceObjectWindowlessImpl@VCOPOSPOSPrinter@@@ATL@@UAGJIIJPAJ@Z 1001bb80 f i POSPrinter.obj
 0001:0001ace0       ?Open@CRegKey@ATL@@QAEJPAUHKEY__@@PB_WK@Z 1001bce0 f i POSPrinter.obj
 0001:0001ae30       ?OuterAddRef@CComObjectRootBase@ATL@@QAEKXZ 1001be30 f i POSPrinter.obj
 0001:0001ae70       ?OuterQueryInterface@CComObjectRootBase@ATL@@QAEJABU_GUID@@PAPAX@Z 1001be70 f i POSPrinter.obj
 0001:0001aec0       ?OuterRelease@CComObjectRootBase@ATL@@QAEKXZ 1001bec0 f i POSPrinter.obj
 0001:0001af00       ?PreProcessBuffer@CRegParser@ATL@@QAEJPA_WPAPA_W@Z 1001bf00 f i POSPrinter.obj
 0001:0001b440       ?PreTranslateAccelerator@CComControlBase@ATL@@QAEHPAUtagMSG@@AAJ@Z 1001c440 f i POSPrinter.obj
 0001:0001b460       ?ProcessWindowMessage@?$CComControl@VCOPOSPOSPrinter@@V?$CWindowImpl@VCOPOSPOSPrinter@@VCWindow@ATL@@V?$CWinTraits@$0FGAAAAAA@$0A@@3@@ATL@@@ATL@@UAEHPAUHWND__@@IIJAAJK@Z 1001c460 f i POSPrinter.obj
 0001:0001b630       ?ProcessWindowMessage@COPOSPOSPrinter@@UAEHPAUHWND__@@IIJAAJK@Z 1001c630 f i POSPrinter.obj
 0001:0001b730       ?PutProperty@?$CComPtr@UIDispatch@@@ATL@@QAEJJPAUtagVARIANT@@@Z 1001c730 f i POSPrinter.obj
 0001:0001b770       ?PutProperty@?$CComPtr@UIDispatch@@@ATL@@SAJPAUIDispatch@@JPAUtagVARIANT@@@Z 1001c770 f i POSPrinter.obj
 0001:0001b960       ?QueryGetData@?$IDataObjectImpl@VCOPOSPOSPrinter@@@ATL@@UAGJPAUtagFORMATETC@@@Z 1001c960 f i POSPrinter.obj
 0001:0001b9d0       ?QueryHitPoint@?$IViewObjectExImpl@VCOPOSPOSPrinter@@@ATL@@UAGJKPBUtagRECT@@UtagPOINT@@JPAK@Z 1001c9d0 f i POSPrinter.obj
 0001:0001bae0       ?QueryHitRect@?$IViewObjectExImpl@VCOPOSPOSPrinter@@@ATL@@UAGJKPBUtagRECT@@0JPAK@Z 1001cae0 f i POSPrinter.obj
 0001:0001bc30       ?QueryInterface@?$CComAggObject@VCOPOSPOSPrinter@@@ATL@@UAGJABU_GUID@@PAPAX@Z 1001cc30 f i POSPrinter.obj
 0001:0001bce0       ?QueryInterface@?$CComContainedObject@VCOPOSPOSPrinter@@@ATL@@UAGJABU_GUID@@PAPAX@Z 1001cce0 f i POSPrinter.obj
 0001:0001bd04       ?QueryInterface@?$CComContainedObject@VCOPOSPOSPrinter@@@ATL@@WHA@AGJABU_GUID@@PAPAX@Z 1001cd04 f i POSPrinter.obj
 0001:0001bd0e       ?QueryInterface@?$CComContainedObject@VCOPOSPOSPrinter@@@ATL@@WHE@AGJABU_GUID@@PAPAX@Z 1001cd0e f i POSPrinter.obj
 0001:0001bd18       ?QueryInterface@?$CComContainedObject@VCOPOSPOSPrinter@@@ATL@@WHI@AGJABU_GUID@@PAPAX@Z 1001cd18 f i POSPrinter.obj
 0001:0001bd22       ?QueryInterface@?$CComContainedObject@VCOPOSPOSPrinter@@@ATL@@WHM@AGJABU_GUID@@PAPAX@Z 1001cd22 f i POSPrinter.obj
 0001:0001bd2c       ?QueryInterface@?$CComContainedObject@VCOPOSPOSPrinter@@@ATL@@WIA@AGJABU_GUID@@PAPAX@Z 1001cd2c f i POSPrinter.obj
 0001:0001bd39       ?QueryInterface@?$CComContainedObject@VCOPOSPOSPrinter@@@ATL@@WIE@AGJABU_GUID@@PAPAX@Z 1001cd39 f i POSPrinter.obj
 0001:0001bd46       ?QueryInterface@?$CComContainedObject@VCOPOSPOSPrinter@@@ATL@@WII@AGJABU_GUID@@PAPAX@Z 1001cd46 f i POSPrinter.obj
 0001:0001bd53       ?QueryInterface@?$CComContainedObject@VCOPOSPOSPrinter@@@ATL@@WIM@AGJABU_GUID@@PAPAX@Z 1001cd53 f i POSPrinter.obj
 0001:0001bd60       ?QueryInterface@?$CComContainedObject@VCOPOSPOSPrinter@@@ATL@@WJA@AGJABU_GUID@@PAPAX@Z 1001cd60 f i POSPrinter.obj
 0001:0001bd6d       ?QueryInterface@?$CComContainedObject@VCOPOSPOSPrinter@@@ATL@@WJE@AGJABU_GUID@@PAPAX@Z 1001cd6d f i POSPrinter.obj
 0001:0001bd7a       ?QueryInterface@?$CComContainedObject@VCOPOSPOSPrinter@@@ATL@@WJI@AGJABU_GUID@@PAPAX@Z 1001cd7a f i POSPrinter.obj
 0001:0001bd87       ?QueryInterface@?$CComContainedObject@VCOPOSPOSPrinter@@@ATL@@WJM@AGJABU_GUID@@PAPAX@Z 1001cd87 f i POSPrinter.obj
 0001:0001bd94       ?QueryInterface@?$CComContainedObject@VCOPOSPOSPrinter@@@ATL@@WKA@AGJABU_GUID@@PAPAX@Z 1001cd94 f i POSPrinter.obj
 0001:0001bdb0       ?QueryInterface@?$CComObject@V?$CComEnum@UIEnumConnectionPoints@@$1?_GUID_b196b285_bab4_101a_b69c_00aa00341d07@@3U__s_GUID@@BPAUIConnectionPoint@@V?$_CopyInterface@UIConnectionPoint@@@ATL@@VCComSingleThreadModel@6@@ATL@@@ATL@@UAGJABU_GUID@@PAPAX@Z 1001cdb0 f i POSPrinter.obj
 0001:0001bdd0       ?QueryInterface@?$CComObject@V?$CComEnum@UIEnumConnections@@$1?_GUID_b196b287_bab4_101a_b69c_00aa00341d07@@3U__s_GUID@@BUtagCONNECTDATA@@V?$_Copy@UtagCONNECTDATA@@@ATL@@VCComSingleThreadModel@6@@ATL@@@ATL@@UAGJABU_GUID@@PAPAX@Z 1001cdd0 f i POSPrinter.obj
 0001:0001bdf0       ?QueryInterface@?$CComObject@VCOPOSPOSPrinter@@@ATL@@UAGJABU_GUID@@PAPAX@Z 1001cdf0 f i POSPrinter.obj
 0001:0001be0e       ?QueryInterface@?$CComObject@VCOPOSPOSPrinter@@@ATL@@WHA@AGJABU_GUID@@PAPAX@Z 1001ce0e f i POSPrinter.obj
 0001:0001be18       ?QueryInterface@?$CComObject@VCOPOSPOSPrinter@@@ATL@@WHE@AGJABU_GUID@@PAPAX@Z 1001ce18 f i POSPrinter.obj
 0001:0001be22       ?QueryInterface@?$CComObject@VCOPOSPOSPrinter@@@ATL@@WHI@AGJABU_GUID@@PAPAX@Z 1001ce22 f i POSPrinter.obj
 0001:0001be2c       ?QueryInterface@?$CComObject@VCOPOSPOSPrinter@@@ATL@@WHM@AGJABU_GUID@@PAPAX@Z 1001ce2c f i POSPrinter.obj
 0001:0001be36       ?QueryInterface@?$CComObject@VCOPOSPOSPrinter@@@ATL@@WIA@AGJABU_GUID@@PAPAX@Z 1001ce36 f i POSPrinter.obj
 0001:0001be43       ?QueryInterface@?$CComObject@VCOPOSPOSPrinter@@@ATL@@WIE@AGJABU_GUID@@PAPAX@Z 1001ce43 f i POSPrinter.obj
 0001:0001be50       ?QueryInterface@?$CComObject@VCOPOSPOSPrinter@@@ATL@@WII@AGJABU_GUID@@PAPAX@Z 1001ce50 f i POSPrinter.obj
 0001:0001be5d       ?QueryInterface@?$CComObject@VCOPOSPOSPrinter@@@ATL@@WIM@AGJABU_GUID@@PAPAX@Z 1001ce5d f i POSPrinter.obj
 0001:0001be6a       ?QueryInterface@?$CComObject@VCOPOSPOSPrinter@@@ATL@@WJA@AGJABU_GUID@@PAPAX@Z 1001ce6a f i POSPrinter.obj
 0001:0001be77       ?QueryInterface@?$CComObject@VCOPOSPOSPrinter@@@ATL@@WJE@AGJABU_GUID@@PAPAX@Z 1001ce77 f i POSPrinter.obj
 0001:0001be84       ?QueryInterface@?$CComObject@VCOPOSPOSPrinter@@@ATL@@WJI@AGJABU_GUID@@PAPAX@Z 1001ce84 f i POSPrinter.obj
 0001:0001be91       ?QueryInterface@?$CComObject@VCOPOSPOSPrinter@@@ATL@@WJM@AGJABU_GUID@@PAPAX@Z 1001ce91 f i POSPrinter.obj
 0001:0001be9e       ?QueryInterface@?$CComObject@VCOPOSPOSPrinter@@@ATL@@WKA@AGJABU_GUID@@PAPAX@Z 1001ce9e f i POSPrinter.obj
 0001:0001beb0       ?QueryInterface@?$CComObjectCached@VCComClassFactory@ATL@@@ATL@@UAGJABU_GUID@@PAPAX@Z 1001ceb0 f i POSPrinter.obj
 0001:0001bed0       ?QueryInterface@CRegObject@ATL@@UAGJABU_GUID@@PAPAX@Z 1001ced0 f i POSPrinter.obj
 0001:0001bf20       ?QuickActivate@?$IQuickActivateImpl@VCOPOSPOSPrinter@@@ATL@@UAGJPAUtagQACONTAINER@@PAUtagQACONTROL@@@Z 1001cf20 f i POSPrinter.obj
 0001:0001bfb0       ?ReactivateAndUndo@?$IOleInPlaceObjectWindowlessImpl@VCOPOSPOSPrinter@@@ATL@@UAGJXZ 1001cfb0 f i POSPrinter.obj
 0001:0001c020       ?ReadFromStream@CComBSTR@ATL@@QAEJPAUIStream@@@Z 1001d020 f i POSPrinter.obj
 0001:0001c420       ?ReadFromStream@CComVariant@ATL@@QAEJPAUIStream@@GTClassesAllowedInStream@2@K@Z 1001d420 f i POSPrinter.obj
 0001:0001c780       ?RecurseDeleteKey@CRegKey@ATL@@QAEJPB_W@Z 1001d780 f i POSPrinter.obj
 0001:0001c960       ?RegCreateKeyExW@CAtlTransactionManager@ATL@@QAEJPAUHKEY__@@PB_WKPA_WKKQAU_SECURITY_ATTRIBUTES@@PAPAU3@PAK@Z 1001d960 f i POSPrinter.obj
 0001:0001ca90       ?RegDeleteKeyW@CAtlTransactionManager@ATL@@QAEJPAUHKEY__@@PB_W@Z 1001da90 f i POSPrinter.obj
 0001:0001cb90       ?RegOpenKeyExW@CAtlTransactionManager@ATL@@QAEJPAUHKEY__@@PB_WKKPAPAU3@@Z 1001db90 f i POSPrinter.obj
 0001:0001cca0       ?Register@_ATL_WNDCLASSINFOW@ATL@@QAEGPAP6GJPAUHWND__@@IIJ@Z@Z 1001dca0 f i POSPrinter.obj
 0001:0001cce0       ?RegisterBuffer@CRegParser@ATL@@QAEJPA_WH@Z 1001dce0 f i POSPrinter.obj
 0001:0001d010       ?RegisterClassExW@AtlModuleRegisterWndClassInfoParamW@ATL@@SAGPAU_ATL_WIN_MODULE70@2@PBUtagWNDCLASSEXW@@@Z 1001e010 f i POSPrinter.obj
 0001:0001d030       ?RegisterFromResource@CRegObject@ATL@@IAEJPB_W00H@Z 1001e030 f i POSPrinter.obj
 0001:0001d3c0       ?RegisterServer@?$CAtlModuleT@VCComModule@ATL@@@ATL@@QAEJHPBU_GUID@@@Z 1001e3c0 f i POSPrinter.obj
 0001:0001d440       ?RegisterServer@CAtlComModule@ATL@@QAEJHPBU_GUID@@@Z 1001e440 f i POSPrinter.obj
 0001:0001d470       ?RegisterServer@CComModule@ATL@@QAEJHPBU_GUID@@@Z 1001e470 f i POSPrinter.obj
 0001:0001d550       ?RegisterSubkeys@CRegParser@ATL@@IAEJPA_WPAUHKEY__@@HH@Z 1001e550 f i POSPrinter.obj
 0001:0001e070       ?Release@?$CComAggObject@VCOPOSPOSPrinter@@@ATL@@UAGKXZ 1001f070 f i POSPrinter.obj
 0001:0001e130       ?Release@?$CComContainedObject@VCOPOSPOSPrinter@@@ATL@@UAGKXZ 1001f130 f i POSPrinter.obj
 0001:0001e14c       ?Release@?$CComContainedObject@VCOPOSPOSPrinter@@@ATL@@WHA@AGKXZ 1001f14c f i POSPrinter.obj
 0001:0001e156       ?Release@?$CComContainedObject@VCOPOSPOSPrinter@@@ATL@@WHE@AGKXZ 1001f156 f i POSPrinter.obj
 0001:0001e160       ?Release@?$CComContainedObject@VCOPOSPOSPrinter@@@ATL@@WHI@AGKXZ 1001f160 f i POSPrinter.obj
 0001:0001e16a       ?Release@?$CComContainedObject@VCOPOSPOSPrinter@@@ATL@@WHM@AGKXZ 1001f16a f i POSPrinter.obj
 0001:0001e174       ?Release@?$CComContainedObject@VCOPOSPOSPrinter@@@ATL@@WIA@AGKXZ 1001f174 f i POSPrinter.obj
 0001:0001e181       ?Release@?$CComContainedObject@VCOPOSPOSPrinter@@@ATL@@WIE@AGKXZ 1001f181 f i POSPrinter.obj
 0001:0001e18e       ?Release@?$CComContainedObject@VCOPOSPOSPrinter@@@ATL@@WII@AGKXZ 1001f18e f i POSPrinter.obj
 0001:0001e19b       ?Release@?$CComContainedObject@VCOPOSPOSPrinter@@@ATL@@WIM@AGKXZ 1001f19b f i POSPrinter.obj
 0001:0001e1a8       ?Release@?$CComContainedObject@VCOPOSPOSPrinter@@@ATL@@WJA@AGKXZ 1001f1a8 f i POSPrinter.obj
 0001:0001e1b5       ?Release@?$CComContainedObject@VCOPOSPOSPrinter@@@ATL@@WJE@AGKXZ 1001f1b5 f i POSPrinter.obj
 0001:0001e1c2       ?Release@?$CComContainedObject@VCOPOSPOSPrinter@@@ATL@@WJI@AGKXZ 1001f1c2 f i POSPrinter.obj
 0001:0001e1cf       ?Release@?$CComContainedObject@VCOPOSPOSPrinter@@@ATL@@WJM@AGKXZ 1001f1cf f i POSPrinter.obj
 0001:0001e1dc       ?Release@?$CComContainedObject@VCOPOSPOSPrinter@@@ATL@@WKA@AGKXZ 1001f1dc f i POSPrinter.obj
 0001:0001e1e9       ?Release@?$CComContainedObject@VCOPOSPOSPrinter@@@ATL@@WKI@AGKXZ 1001f1e9 f i POSPrinter.obj
 0001:0001e1f6       ?Release@?$CComContainedObject@VCOPOSPOSPrinter@@@ATL@@WLE@AGKXZ 1001f1f6 f i POSPrinter.obj
 0001:0001e210       ?Release@?$CComObject@V?$CComEnum@UIEnumConnectionPoints@@$1?_GUID_b196b285_bab4_101a_b69c_00aa00341d07@@3U__s_GUID@@BPAUIConnectionPoint@@V?$_CopyInterface@UIConnectionPoint@@@ATL@@VCComSingleThreadModel@6@@ATL@@@ATL@@UAGKXZ 1001f210 f i POSPrinter.obj
 0001:0001e2d0       ?Release@?$CComObject@V?$CComEnum@UIEnumConnections@@$1?_GUID_b196b287_bab4_101a_b69c_00aa00341d07@@3U__s_GUID@@BUtagCONNECTDATA@@V?$_Copy@UtagCONNECTDATA@@@ATL@@VCComSingleThreadModel@6@@ATL@@@ATL@@UAGKXZ 1001f2d0 f i POSPrinter.obj
 0001:0001e390       ?Release@?$CComObject@VCOPOSPOSPrinter@@@ATL@@UAGKXZ 1001f390 f i POSPrinter.obj
 0001:0001e449       ?Release@?$CComObject@VCOPOSPOSPrinter@@@ATL@@WHA@AGKXZ 1001f449 f i POSPrinter.obj
 0001:0001e453       ?Release@?$CComObject@VCOPOSPOSPrinter@@@ATL@@WHE@AGKXZ 1001f453 f i POSPrinter.obj
 0001:0001e45d       ?Release@?$CComObject@VCOPOSPOSPrinter@@@ATL@@WHI@AGKXZ 1001f45d f i POSPrinter.obj
 0001:0001e467       ?Release@?$CComObject@VCOPOSPOSPrinter@@@ATL@@WHM@AGKXZ 1001f467 f i POSPrinter.obj
 0001:0001e471       ?Release@?$CComObject@VCOPOSPOSPrinter@@@ATL@@WIA@AGKXZ 1001f471 f i POSPrinter.obj
 0001:0001e47e       ?Release@?$CComObject@VCOPOSPOSPrinter@@@ATL@@WIE@AGKXZ 1001f47e f i POSPrinter.obj
 0001:0001e48b       ?Release@?$CComObject@VCOPOSPOSPrinter@@@ATL@@WII@AGKXZ 1001f48b f i POSPrinter.obj
 0001:0001e498       ?Release@?$CComObject@VCOPOSPOSPrinter@@@ATL@@WIM@AGKXZ 1001f498 f i POSPrinter.obj
 0001:0001e4a5       ?Release@?$CComObject@VCOPOSPOSPrinter@@@ATL@@WJA@AGKXZ 1001f4a5 f i POSPrinter.obj
 0001:0001e4b2       ?Release@?$CComObject@VCOPOSPOSPrinter@@@ATL@@WJE@AGKXZ 1001f4b2 f i POSPrinter.obj
 0001:0001e4bf       ?Release@?$CComObject@VCOPOSPOSPrinter@@@ATL@@WJI@AGKXZ 1001f4bf f i POSPrinter.obj
 0001:0001e4cc       ?Release@?$CComObject@VCOPOSPOSPrinter@@@ATL@@WJM@AGKXZ 1001f4cc f i POSPrinter.obj
 0001:0001e4d9       ?Release@?$CComObject@VCOPOSPOSPrinter@@@ATL@@WKA@AGKXZ 1001f4d9 f i POSPrinter.obj
 0001:0001e4e6       ?Release@?$CComObject@VCOPOSPOSPrinter@@@ATL@@WKI@AGKXZ 1001f4e6 f i POSPrinter.obj
 0001:0001e4f3       ?Release@?$CComObject@VCOPOSPOSPrinter@@@ATL@@WLE@AGKXZ 1001f4f3 f i POSPrinter.obj
 0001:0001e500       ?Release@?$CComObjectCached@VCComClassFactory@ATL@@@ATL@@UAGKXZ 1001f500 f i POSPrinter.obj
 0001:0001e5a0       ?Release@?$CComPtrBase@UIAdviseSink@@@ATL@@QAEXXZ 1001f5a0 f i POSPrinter.obj
 0001:0001e600       ?Release@?$CComPtrBase@UIDispatch@@@ATL@@QAEXXZ 1001f600 f i POSPrinter.obj
 0001:0001e660       ?Release@?$CComPtrBase@UIOleInPlaceSiteWindowless@@@ATL@@QAEXXZ 1001f660 f i POSPrinter.obj
 0001:0001e6c0       ?Release@CRegObject@ATL@@UAGKXZ 1001f6c0 f i POSPrinter.obj
 0001:0001e700       ?Remove@CComDynamicUnkArray@ATL@@QAEHK@Z 1001f700 f i POSPrinter.obj
 0001:0001e7b0       ?RemoveAll@?$CSimpleMap@PA_WPA_WVCExpansionVectorEqualHelper@ATL@@@ATL@@QAEXXZ 1001f7b0 f i POSPrinter.obj
 0001:0001e840       ?Reset@?$CComEnumImpl@UIEnumConnectionPoints@@$1?_GUID_b196b285_bab4_101a_b69c_00aa00341d07@@3U__s_GUID@@BPAUIConnectionPoint@@V?$_CopyInterface@UIConnectionPoint@@@ATL@@@ATL@@UAGJXZ 1001f840 f i POSPrinter.obj
 0001:0001e860       ?Reset@?$CComEnumImpl@UIEnumConnections@@$1?_GUID_b196b287_bab4_101a_b69c_00aa00341d07@@3U__s_GUID@@BUtagCONNECTDATA@@V?$_Copy@UtagCONNECTDATA@@@ATL@@@ATL@@UAGJXZ 1001f860 f i POSPrinter.obj
 0001:0001e880       ?ResizeBorder@?$IOleInPlaceActiveObjectImpl@VCOPOSPOSPrinter@@@ATL@@UAGJPBUtagRECT@@PAUIOleInPlaceUIWindow@@H@Z 1001f880 f i POSPrinter.obj
 0001:0001e8e0       ?ResourceRegister@CRegObject@ATL@@QAGJPB_WI0@Z 1001f8e0 f i POSPrinter.obj
 0001:0001e9c0       ?ResourceRegisterSz@CRegObject@ATL@@QAGJPB_W00@Z 1001f9c0 f i POSPrinter.obj
 0001:0001eac0       ?ResourceUnregister@CRegObject@ATL@@QAGJPB_WI0@Z 1001fac0 f i POSPrinter.obj
 0001:0001eba0       ?ResourceUnregisterSz@CRegObject@ATL@@QAGJPB_W00@Z 1001fba0 f i POSPrinter.obj
 0001:0001eca0       ?SODataDummy@COPOSPOSPrinter@@MAGJJ@Z 1001fca0 f i POSPrinter.obj
 0001:0001ecb0       ?SODirectIO@COPOSPOSPrinter@@MAGJJPAJPAPA_W@Z 1001fcb0 f i POSPrinter.obj
 0001:0001ee70       ?SOError@COPOSPOSPrinter@@MAGJJJJPAJ@Z 1001fe70 f i POSPrinter.obj
 0001:0001ef30       ?SOOutputComplete@COPOSPOSPrinter@@MAGJJ@Z 1001ff30 f i POSPrinter.obj
 0001:0001efb0       ?SOStatusUpdate@COPOSPOSPrinter@@MAGJJ@Z 1001ffb0 f i POSPrinter.obj
 0001:0001f030       ?Save@?$IPersistStorageImpl@VCOPOSPOSPrinter@@@ATL@@UAGJPAUIStorage@@H@Z 10020030 f i POSPrinter.obj
 0001:0001f190       ?Save@?$IPersistStreamInitImpl@VCOPOSPOSPrinter@@@ATL@@UAGJPAUIStream@@H@Z 10020190 f i POSPrinter.obj
 0001:0001f220       ?SaveCompleted@?$IPersistStorageImpl@VCOPOSPOSPrinter@@@ATL@@UAGJPAUIStorage@@@Z 10020220 f i POSPrinter.obj
 0001:0001f280       ?SendOnDataChange@CComControlBase@ATL@@QAEJK@Z 10020280 f i POSPrinter.obj
 0001:0001f370       ?SendOnSave@CComControlBase@ATL@@QAEJXZ 10020370 f i POSPrinter.obj
 0001:0001f3e0       ?SendOnViewChange@CComControlBase@ATL@@QAEJKJ@Z 100203e0 f i POSPrinter.obj
 0001:0001f450       ?SetAdvise@?$IViewObjectExImpl@VCOPOSPOSPrinter@@@ATL@@UAGJKKPAUIAdviseSink@@@Z 10020450 f i POSPrinter.obj
 0001:0001f4e0       ?SetClientSite@?$IOleObjectImpl@VCOPOSPOSPrinter@@@ATL@@UAGJPAUIOleClientSite@@@Z 100204e0 f i POSPrinter.obj
 0001:0001f570       ?SetColorScheme@?$IOleObjectImpl@VCOPOSPOSPrinter@@@ATL@@UAGJPAUtagLOGPALETTE@@@Z 10020570 f i POSPrinter.obj
 0001:0001f5e0       ?SetContentExtent@?$IQuickActivateImpl@VCOPOSPOSPrinter@@@ATL@@UAGJPAUtagSIZE@@@Z 100205e0 f i POSPrinter.obj
 0001:0001f670       ?SetControlFocus@CComControlBase@ATL@@QAEHH@Z 10020670 f i POSPrinter.obj
 0001:0001f7f0       ?SetDWORDValue@CRegKey@ATL@@QAEJPB_WK@Z 100207f0 f i POSPrinter.obj
 0001:0001f870       ?SetData@?$IDataObjectImpl@VCOPOSPOSPrinter@@@ATL@@UAGJPAUtagFORMATETC@@PAUtagSTGMEDIUM@@H@Z 10020870 f i POSPrinter.obj
 0001:0001f8e0       ?SetExtent@?$IOleObjectImpl@VCOPOSPOSPrinter@@@ATL@@UAGJKPAUtagSIZE@@@Z 100208e0 f i POSPrinter.obj
 0001:0001f970       ?SetHostNames@?$IOleObjectImpl@VCOPOSPOSPrinter@@@ATL@@UAGJPB_W0@Z 10020970 f i POSPrinter.obj
 0001:0001f9d0       ?SetInterfaceSafetyOptions@?$IObjectSafetyImpl@VCOPOSPOSPrinter@@$02@ATL@@UAGJABU_GUID@@KK@Z 100209d0 f i POSPrinter.obj
 0001:0001fb40       ?SetMoniker@?$IOleObjectImpl@VCOPOSPOSPrinter@@@ATL@@UAGJKPAUIMoniker@@@Z 10020b40 f i POSPrinter.obj
 0001:0001fbb0       ?SetMultiStringValue@CRegKey@ATL@@QAEJPB_W0@Z 10020bb0 f i POSPrinter.obj
 0001:0001fcd0       ?SetObjectRects@?$IOleInPlaceObjectWindowlessImpl@VCOPOSPOSPrinter@@@ATL@@UAGJPBUtagRECT@@0@Z 10020cd0 f i POSPrinter.obj
 0001:0001fd60       ?SetStringValue@CRegKey@ATL@@QAEJPB_W0K@Z 10020d60 f i POSPrinter.obj
 0001:0001fe90       ?SetVoid@CComClassFactory@ATL@@QAEXPAX@Z 10020e90 f i POSPrinter.obj
 0001:0001feb0       ?SetVoid@CComObjectRootBase@ATL@@QAEXPAX@Z 10020eb0 f i POSPrinter.obj
 0001:0001fed0       ?SetWindowLongPtrW@@YAJPAUHWND__@@HJ@Z 10020ed0 f i POSPrinter.obj
 0001:0001ff00       ?ShowWindow@CWindow@ATL@@QAEHH@Z 10020f00 f i POSPrinter.obj
 0001:0001ff80       ?Skip@?$CComEnumImpl@UIEnumConnectionPoints@@$1?_GUID_b196b285_bab4_101a_b69c_00aa00341d07@@3U__s_GUID@@BPAUIConnectionPoint@@V?$_CopyInterface@UIConnectionPoint@@@ATL@@@ATL@@UAGJK@Z 10020f80 f i POSPrinter.obj
 0001:00020000       ?Skip@?$CComEnumImpl@UIEnumConnections@@$1?_GUID_b196b287_bab4_101a_b69c_00aa00341d07@@3U__s_GUID@@BUtagCONNECTDATA@@V?$_Copy@UtagCONNECTDATA@@@ATL@@@ATL@@UAGJK@Z 10021000 f i POSPrinter.obj
 0001:00020080       ?SkipAssignment@CRegParser@ATL@@IAEJPA_W@Z 10021080 f i POSPrinter.obj
 0001:00020160       ?SkipWhiteSpace@CRegParser@ATL@@IAEXXZ 10021160 f i POSPrinter.obj
 0001:000201b0       ?StartWindowProc@?$CWindowImplBaseT@VCWindow@ATL@@V?$CWinTraits@$0FGAAAAAA@$0A@@2@@ATL@@SGJPAUHWND__@@IIJ@Z 100211b0 f i POSPrinter.obj
 0001:000202d0       ?StrChrW@CRegParser@ATL@@KAPA_WPA_W_W@Z 100212d0 f i POSPrinter.obj
 0001:00020340       ?StrFromMap@CRegObject@ATL@@QAEPB_WPA_W@Z 10021340 f i POSPrinter.obj
 0001:000203d0       ?Swap@?$CComPtrBase@UIAdviseSink@@@ATL@@IAEXAAV12@@Z 100213d0 f i POSPrinter.obj
 0001:00020410       ?Swap@?$CComPtrBase@UIOleClientSite@@@ATL@@IAEXAAV12@@Z 10021410 f i POSPrinter.obj
 0001:00020450       ?Swap@?$CComPtrBase@UIUnknown@@@ATL@@IAEXAAV12@@Z 10021450 f i POSPrinter.obj
 0001:00020490       ?T2COLE_EX@@YAPB_WPB_WI@Z  10021490 f i POSPrinter.obj
 0001:000204a0       ?T2OLE_EX@@YAPA_WPA_WI@Z   100214a0 f i POSPrinter.obj
 0001:000204b0       ?Term@CAtlModule@ATL@@QAEXXZ 100214b0 f i POSPrinter.obj
 0001:00020560       ?Term@CComModule@ATL@@QAEXXZ 10021560 f i POSPrinter.obj
 0001:00020650       ?TranslateAcceleratorW@?$IOleInPlaceActiveObjectImpl@VCOPOSPOSPrinter@@@ATL@@UAGJPAUtagMSG@@@Z 10021650 f i POSPrinter.obj
 0001:00020850       ?UIDeactivate@?$IOleInPlaceObjectWindowlessImpl@VCOPOSPOSPrinter@@@ATL@@UAGJXZ 10021850 f i POSPrinter.obj
 0001:000208d0       ?Unadvise@?$CProxy_IOPOSEvents@VCOPOSPOSPrinter@@@@UAGJK@Z 100218d0 f i POSPrinter.obj
 0001:00020910       ?Unadvise@?$IConnectionPointImpl@VCOPOSPOSPrinter@@$1?DIID__IOPOSPOSPrinterEvents@@3U_GUID@@BVCComDynamicUnkArray@ATL@@@ATL@@UAGJK@Z 10021910 f i POSPrinter.obj
 0001:000209e0       ?Unadvise@?$IConnectionPointImpl@VCOPOSPOSPrinter@@$1?IID_IPropertyNotifySink@@3U_GUID@@BVCComDynamicUnkArray@ATL@@@ATL@@UAGJK@Z 100219e0 f i POSPrinter.obj
 0001:00020ab0       ?Unadvise@?$IOleObjectImpl@VCOPOSPOSPrinter@@@ATL@@UAGJK@Z 10021ab0 f i POSPrinter.obj
 0001:00020b80       ?Unfreeze@?$IViewObjectExImpl@VCOPOSPOSPrinter@@@ATL@@UAGJK@Z 10021b80 f i POSPrinter.obj
 0001:00020bf0       ?Unlock@?$CComCritSecLock@VCComCriticalSection@ATL@@@ATL@@QAEXXZ 10021bf0 f i POSPrinter.obj
 0001:00020c60       ?Unlock@?$CComObjectRootEx@VCComSingleThreadModel@ATL@@@ATL@@QAEXXZ 10021c60 f i POSPrinter.obj
 0001:00020c80       ?Unlock@CAtlModule@ATL@@UAEJXZ 10021c80 f i POSPrinter.obj
 0001:00020cb0       ?Unlock@CComCriticalSection@ATL@@QAEJXZ 10021cb0 f i POSPrinter.obj
 0001:00020cf0       ?Unlock@CComFakeCriticalSection@ATL@@QAEJXZ 10021cf0 f i POSPrinter.obj
 0001:00020d10       ?UnregisterServer@?$CAtlModuleT@VCComModule@ATL@@@ATL@@QAEJHPBU_GUID@@@Z 10021d10 f i POSPrinter.obj
 0001:00020d80       ?UnregisterServer@CAtlComModule@ATL@@QAEJHPBU_GUID@@@Z 10021d80 f i POSPrinter.obj
 0001:00020db0       ?UnregisterServer@CComModule@ATL@@QAEJHPBU_GUID@@@Z 10021db0 f i POSPrinter.obj
 0001:00020e90       ?Update@?$IOleObjectImpl@VCOPOSPOSPrinter@@@ATL@@UAGJXZ 10021e90 f i POSPrinter.obj
 0001:00020ef0       ?UpdateRegistryFromResource@CAtlModule@ATL@@QAGJIHPAU_ATL_REGMAP_ENTRY@2@@Z 10021ef0 f i POSPrinter.obj
 0001:000213c0       ?UpdateRegistryFromResource@CAtlModule@ATL@@QAGJPB_WHPAU_ATL_REGMAP_ENTRY@2@@Z 100223c0 f i POSPrinter.obj
 0001:000218b0       ?UpdateRegistryFromResource@CComModule@ATL@@UAGJIHPAU_ATL_REGMAP_ENTRY@2@@Z 100228b0 f i POSPrinter.obj
 0001:000218e0       ?UpdateRegistryFromResource@CComModule@ATL@@UAGJPB_WHPAU_ATL_REGMAP_ENTRY@2@@Z 100228e0 f i POSPrinter.obj
 0001:00021910       ?UpdateRegistryFromResourceD@CComModule@ATL@@UAGJIHPAU_ATL_REGMAP_ENTRY@2@@Z 10022910 f i POSPrinter.obj
 0001:00021920       ?UpdateRegistryFromResourceD@CComModule@ATL@@UAGJPB_WHPAU_ATL_REGMAP_ENTRY@2@@Z 10022920 f i POSPrinter.obj
 0001:00021930       ?VTFromRegType@CRegParser@ATL@@KAHPB_WAAG@Z 10022930 f i POSPrinter.obj
 0001:00021a10       ?WindowProc@?$CWindowImplBaseT@VCWindow@ATL@@V?$CWinTraits@$0FGAAAAAA@$0A@@2@@ATL@@SGJPAUHWND__@@IIJ@Z 10022a10 f i POSPrinter.obj
 0001:00021c20       ?WriteToStream@CComBSTR@ATL@@QAEJPAUIStream@@@Z 10022c20 f i POSPrinter.obj
 0001:00021d80       ?WriteToStream@CComVariant@ATL@@QAEJPAUIStream@@@Z 10022d80 f i POSPrinter.obj
 0001:000220c0       ?WriteToStream@CComVariant@ATL@@QAEJPAUIStream@@G@Z 100230c0 f i POSPrinter.obj
 0001:00022190       ?_AtlFinalConstruct@CComObjectRootBase@ATL@@QAEJXZ 10023190 f i POSPrinter.obj
 0001:000221b0       ?_AtlGetConversionACP@ATL@@YGIXZ 100231b0 f i POSPrinter.obj
 0001:000221c0       ?_AtlInitialConstruct@?$CComAggObject@VCOPOSPOSPrinter@@@ATL@@QAEJXZ 100231c0 f i POSPrinter.obj
 0001:00022210       ?_AtlInitialConstruct@?$CComObjectRootEx@VCComMultiThreadModel@ATL@@@ATL@@QAEJXZ 10023210 f i POSPrinter.obj
 0001:00022240       ?_AtlInitialConstruct@?$CComObjectRootEx@VCComSingleThreadModel@ATL@@@ATL@@QAEJXZ 10023240 f i POSPrinter.obj
 0001:00022260       ?_AtlVerifyStackAvailable@_ATL_SAFE_ALLOCA_IMPL@ATL@@YA_NK@Z 10023260 f i POSPrinter.obj
 0001:00022410       ?_GetEntries@?$CComEnum@UIEnumConnectionPoints@@$1?_GUID_b196b285_bab4_101a_b69c_00aa00341d07@@3U__s_GUID@@BPAUIConnectionPoint@@V?$_CopyInterface@UIConnectionPoint@@@ATL@@VCComSingleThreadModel@6@@ATL@@SGPBU_ATL_INTMAP_ENTRY@2@XZ 10023410 f i POSPrinter.obj
 0001:00022430       ?_GetEntries@?$CComEnum@UIEnumConnections@@$1?_GUID_b196b287_bab4_101a_b69c_00aa00341d07@@3U__s_GUID@@BUtagCONNECTDATA@@V?$_Copy@UtagCONNECTDATA@@@ATL@@VCComSingleThreadModel@6@@ATL@@SGPBU_ATL_INTMAP_ENTRY@2@XZ 10023430 f i POSPrinter.obj
 0001:00022450       ?_GetEntries@CComClassFactory@ATL@@SGPBU_ATL_INTMAP_ENTRY@2@XZ 10023450 f i POSPrinter.obj
 0001:00022470       ?_GetEntries@COPOSPOSPrinter@@SGPBU_ATL_INTMAP_ENTRY@ATL@@XZ 10023470 f i POSPrinter.obj
 0001:00022490       ?_GetRawUnknown@COPOSPOSPrinter@@QAEPAUIUnknown@@XZ 10023490 f i POSPrinter.obj
 0001:00022500       ?_GetViewStatus@COPOSPOSPrinter@@QAEKXZ 10023500 f i POSPrinter.obj
 0001:00022520       ?_InternalQueryInterface@?$CComEnum@UIEnumConnectionPoints@@$1?_GUID_b196b285_bab4_101a_b69c_00aa00341d07@@3U__s_GUID@@BPAUIConnectionPoint@@V?$_CopyInterface@UIConnectionPoint@@@ATL@@VCComSingleThreadModel@6@@ATL@@QAEJABU_GUID@@PAPAX@Z 10023520 f i POSPrinter.obj
 0001:00022560       ?_InternalQueryInterface@?$CComEnum@UIEnumConnections@@$1?_GUID_b196b287_bab4_101a_b69c_00aa00341d07@@3U__s_GUID@@BUtagCONNECTDATA@@V?$_Copy@UtagCONNECTDATA@@@ATL@@VCComSingleThreadModel@6@@ATL@@QAEJABU_GUID@@PAPAX@Z 10023560 f i POSPrinter.obj
 0001:000225a0       ?_InternalQueryInterface@CComClassFactory@ATL@@QAEJABU_GUID@@PAPAX@Z 100235a0 f i POSPrinter.obj
 0001:000225e0       ?_InternalQueryInterface@COPOSPOSPrinter@@QAEJABU_GUID@@PAPAX@Z 100235e0 f i POSPrinter.obj
 0001:00022620       ?_LocCPQueryInterface@?$IConnectionPointImpl@VCOPOSPOSPrinter@@$1?DIID__IOPOSPOSPrinterEvents@@3U_GUID@@BVCComDynamicUnkArray@ATL@@@ATL@@UAGJABU_GUID@@PAPAX@Z 10023620 f i POSPrinter.obj
 0001:000226c0       ?_LocCPQueryInterface@?$IConnectionPointImpl@VCOPOSPOSPrinter@@$1?IID_IPropertyNotifySink@@3U_GUID@@BVCComDynamicUnkArray@ATL@@@ATL@@UAGJABU_GUID@@PAPAX@Z 100236c0 f i POSPrinter.obj
 0001:00022760       ?atlCreate@?$CWindowImpl@VCOPOSPOSPrinter@@VCWindow@ATL@@V?$CWinTraits@$0FGAAAAAA@$0A@@3@@ATL@@QAEPAUHWND__@@PAU3@V_U_RECT@2@PB_WKKV_U_MENUorID@2@PAX@Z 10023760 f i POSPrinter.obj
 0001:00022810       ?atlCreate@?$CWindowImplBaseT@VCWindow@ATL@@V?$CWinTraits@$0FGAAAAAA@$0A@@2@@ATL@@QAEPAUHWND__@@PAU3@V_U_RECT@2@PB_WKKV_U_MENUorID@2@GPAX@Z 10023810 f i POSPrinter.obj
 0001:00022990       ?atlCreate@CRegKey@ATL@@QAEJPAUHKEY__@@PB_WPA_WKKPAU_SECURITY_ATTRIBUTES@@PAK@Z 10023990 f i POSPrinter.obj
 0001:00022af0       ?begin@CComDynamicUnkArray@ATL@@QAEPAPAUIUnknown@@XZ 10023af0 f i POSPrinter.obj
 0001:00022b10       ?copy@?$_Copy@UtagCONNECTDATA@@@ATL@@SAJPAUtagCONNECTDATA@@PBU3@@Z 10023b10 f i POSPrinter.obj
 0001:00022bd0       ?copy@?$_CopyInterface@UIConnectionPoint@@@ATL@@SAJPAPAUIConnectionPoint@@PBQAU3@@Z 10023bd0 f i POSPrinter.obj
 0001:00022c90       ?destroy@?$_Copy@UtagCONNECTDATA@@@ATL@@SAXPAUtagCONNECTDATA@@@Z 10023c90 f i POSPrinter.obj
 0001:00022cd0       ?destroy@?$_CopyInterface@UIConnectionPoint@@@ATL@@SAXPAPAUIConnectionPoint@@@Z 10023cd0 f i POSPrinter.obj
 0001:00022d10       ?end@CComDynamicUnkArray@ATL@@QAEPAPAUIUnknown@@XZ 10023d10 f i POSPrinter.obj
 0001:00022d30       ?init@?$_Copy@UtagCONNECTDATA@@@ATL@@SAXPAUtagCONNECTDATA@@@Z 10023d30 f i POSPrinter.obj
 0001:00022d40       ?init@?$_CopyInterface@UIConnectionPoint@@@ATL@@SAXPAPAUIConnectionPoint@@@Z 10023d40 f i POSPrinter.obj
 0001:00022d50       ?memcpy_s@Checked@ATL@@YAXPAXIPBXI@Z 10023d50 f i POSPrinter.obj
 0001:00022d80       ?ocscpy_s@@YA_NPA_WIPB_W@Z 10023d80 f i POSPrinter.obj
 0001:00022de0       ?ocslen@@YAHPB_W@Z         10023de0 f i POSPrinter.obj
 0001:00022e10       ?tcsncpy_s@Checked@ATL@@YAHPA_WIPB_WI@Z 10023e10 f i POSPrinter.obj
 0001:00022e40       ?wcscat_s@Checked@ATL@@YAXPA_WIPB_W@Z 10023e40 f i POSPrinter.obj
 0001:00022e70       ?wcscpy_s@Checked@ATL@@YAXPA_WIPB_W@Z 10023e70 f i POSPrinter.obj
 0001:00022ea0       ?wcsncpy_s@Checked@ATL@@YAHPA_WIPB_WI@Z 10023ea0 f i POSPrinter.obj
 0001:00022ed0       ?wcsstr@@YAPA_WPA_WPB_W@Z  10023ed0 f i POSPrinter.obj
 0001:00022ef0       _InlineIsEqualGUID         10023ef0 f i POSPrinter.obj
 0001:00022f90       _IsEqualGUID               10023f90 f i POSPrinter.obj
 0001:00022fe0       ??0COPOSPOSPrinter@@QAE@XZ 10023fe0 f   POSPrinterImpl.obj
 0001:000230f0       ?FinalConstruct@COPOSPOSPrinter@@QAEJXZ 100240f0 f   POSPrinterImpl.obj
 0001:000231c0       ??1COPOSPOSPrinter@@UAE@XZ 100241c0 f   POSPrinterImpl.obj
 0001:000232a0       ?WriteTrace@COPOSPOSPrinter@@QAAXPB_WZZ 100242a0 f   POSPrinterImpl.obj
 0001:00023350       ?WriteTraceString@COPOSPOSPrinter@@QAEXPB_WPA_W@Z 10024350 f   POSPrinterImpl.obj
 0001:000236c0       ?WriteTraceString@COPOSPOSPrinter@@QAAXPAXHHHPB_WZZ 100246c0 f   POSPrinterImpl.obj
 0001:000238f0       ?WriteTraceError@COPOSPOSPrinter@@QAEXPB_WK@Z 100248f0 f   POSPrinterImpl.obj
 0001:000239e0       ?WriteTraceMethods@COPOSPOSPrinter@@QAEXPAJH@Z 100249e0 f   POSPrinterImpl.obj
 0001:00023a50       ?GetOposProp@COPOSPOSPrinter@@IAEJPBDJPAJJ@Z 10024a50 f   POSPrinterImpl.obj
 0001:00023cc0       ?SetOposProp@COPOSPOSPrinter@@IAEJPBDJJJ@Z 10024cc0 f   POSPrinterImpl.obj
 0001:00023f50       ?GetOposProp@COPOSPOSPrinter@@IAEJPBDJPAFJ@Z 10024f50 f   POSPrinterImpl.obj
 0001:00023ff0       ?SetOposProp@COPOSPOSPrinter@@IAEJPBDJFJ@Z 10024ff0 f   POSPrinterImpl.obj
 0001:00024050       ?GetOposProp@COPOSPOSPrinter@@IAEJPBDJPAPA_WJ@Z 10025050 f   POSPrinterImpl.obj
 0001:000242d0       ?SetOposProp@COPOSPOSPrinter@@IAEJPBDJPA_WJ@Z 100252d0 f   POSPrinterImpl.obj
 0001:00024610       ?DoInvoke@COPOSPOSPrinter@@IAEJPBDJPAVOposVariant@@IHPAJ_N@Z 10025610 f   POSPrinterImpl.obj
 0001:00024f40       ?SetCOFreezeEvents@COPOSPOSPrinter@@IAEXF@Z 10025f40 f   POSPrinterImpl.obj
 0001:00025080       ?FreezeEvents@COPOSPOSPrinter@@MAGJH@Z 10026080 f   POSPrinterImpl.obj
 0001:00025160       ?OnDraw@COPOSPOSPrinter@@MAEJAAUATL_DRAWINFO@@@Z 10026160 f   POSPrinterImpl.obj
 0001:00025300       ?SOProcessID@COPOSPOSPrinter@@UAGJPAJ@Z 10026300 f   POSPrinterImpl.obj
 0001:00025340       ?get_OpenResult@COPOSPOSPrinter@@UAGJPAJ@Z 10026340 f   POSPrinterImpl.obj
 0001:00025380       ?get_CheckHealthText@COPOSPOSPrinter@@UAGJPAPA_W@Z 10026380 f   POSPrinterImpl.obj
 0001:000253b0       ?get_Claimed@COPOSPOSPrinter@@UAGJPAF@Z 100263b0 f   POSPrinterImpl.obj
 0001:000253e0       ?get_DeviceEnabled@COPOSPOSPrinter@@UAGJPAF@Z 100263e0 f   POSPrinterImpl.obj
 0001:00025410       ?put_DeviceEnabled@COPOSPOSPrinter@@UAGJF@Z 10026410 f   POSPrinterImpl.obj
 0001:00025440       ?get_FreezeEvents@COPOSPOSPrinter@@UAGJPAF@Z 10026440 f   POSPrinterImpl.obj
 0001:00025470       ?put_FreezeEvents@COPOSPOSPrinter@@UAGJF@Z 10026470 f   POSPrinterImpl.obj
 0001:00025500       ?get_OutputID@COPOSPOSPrinter@@UAGJPAJ@Z 10026500 f   POSPrinterImpl.obj
 0001:00025530       ?get_ResultCode@COPOSPOSPrinter@@UAGJPAJ@Z 10026530 f   POSPrinterImpl.obj
 0001:000255c0       ?get_ResultCodeExtended@COPOSPOSPrinter@@UAGJPAJ@Z 100265c0 f   POSPrinterImpl.obj
 0001:000255f0       ?get_State@COPOSPOSPrinter@@UAGJPAJ@Z 100265f0 f   POSPrinterImpl.obj
 0001:00025640       ?get_ControlObjectDescription@COPOSPOSPrinter@@UAGJPAPA_W@Z 10026640 f   POSPrinterImpl.obj
 0001:000256c0       ?get_ControlObjectVersion@COPOSPOSPrinter@@UAGJPAJ@Z 100266c0 f   POSPrinterImpl.obj
 0001:00025700       ?get_ServiceObjectDescription@COPOSPOSPrinter@@UAGJPAPA_W@Z 10026700 f   POSPrinterImpl.obj
 0001:00025730       ?get_ServiceObjectVersion@COPOSPOSPrinter@@UAGJPAJ@Z 10026730 f   POSPrinterImpl.obj
 0001:00025760       ?get_DeviceDescription@COPOSPOSPrinter@@UAGJPAPA_W@Z 10026760 f   POSPrinterImpl.obj
 0001:00025790       ?get_DeviceName@COPOSPOSPrinter@@UAGJPAPA_W@Z 10026790 f   POSPrinterImpl.obj
 0001:000257c0       ?CheckHealth@COPOSPOSPrinter@@UAGJJPAJ@Z 100267c0 f   POSPrinterImpl.obj
 0001:00025860       ?ClaimDevice@COPOSPOSPrinter@@UAGJJPAJ@Z 10026860 f   POSPrinterImpl.obj
 0001:00025940       ?ClearOutput@COPOSPOSPrinter@@UAGJPAJ@Z 10026940 f   POSPrinterImpl.obj
 0001:00025970       ?Close@COPOSPOSPrinter@@UAGJPAJ@Z 10026970 f   POSPrinterImpl.obj
 0001:00025a40       ?DirectIO@COPOSPOSPrinter@@UAGJJPAJPAPA_W0@Z 10026a40 f   POSPrinterImpl.obj
 0001:00025b50       ?Open@COPOSPOSPrinter@@UAGJPA_WPAJ@Z 10026b50 f   POSPrinterImpl.obj
 0001:00026d30       ?ReleaseDevice@COPOSPOSPrinter@@UAGJPAJ@Z 10027d30 f   POSPrinterImpl.obj
 0001:00026da0       ?get_AsyncMode@COPOSPOSPrinter@@UAGJPAF@Z 10027da0 f   POSPrinterImpl.obj
 0001:00026dd0       ?put_AsyncMode@COPOSPOSPrinter@@UAGJF@Z 10027dd0 f   POSPrinterImpl.obj
 0001:00026e00       ?get_CapConcurrentJrnRec@COPOSPOSPrinter@@UAGJPAF@Z 10027e00 f   POSPrinterImpl.obj
 0001:00026e30       ?get_CapConcurrentJrnSlp@COPOSPOSPrinter@@UAGJPAF@Z 10027e30 f   POSPrinterImpl.obj
 0001:00026e60       ?get_CapConcurrentRecSlp@COPOSPOSPrinter@@UAGJPAF@Z 10027e60 f   POSPrinterImpl.obj
 0001:00026e90       ?get_CapCoverSensor@COPOSPOSPrinter@@UAGJPAF@Z 10027e90 f   POSPrinterImpl.obj
 0001:00026ec0       ?get_CapJrn2Color@COPOSPOSPrinter@@UAGJPAF@Z 10027ec0 f   POSPrinterImpl.obj
 0001:00026ef0       ?get_CapJrnBold@COPOSPOSPrinter@@UAGJPAF@Z 10027ef0 f   POSPrinterImpl.obj
 0001:00026f20       ?get_CapJrnDhigh@COPOSPOSPrinter@@UAGJPAF@Z 10027f20 f   POSPrinterImpl.obj
 0001:00026f50       ?get_CapJrnDwide@COPOSPOSPrinter@@UAGJPAF@Z 10027f50 f   POSPrinterImpl.obj
 0001:00026f80       ?get_CapJrnDwideDhigh@COPOSPOSPrinter@@UAGJPAF@Z 10027f80 f   POSPrinterImpl.obj
 0001:00026fb0       ?get_CapJrnEmptySensor@COPOSPOSPrinter@@UAGJPAF@Z 10027fb0 f   POSPrinterImpl.obj
 0001:00026fe0       ?get_CapJrnItalic@COPOSPOSPrinter@@UAGJPAF@Z 10027fe0 f   POSPrinterImpl.obj
 0001:00027010       ?get_CapJrnNearEndSensor@COPOSPOSPrinter@@UAGJPAF@Z 10028010 f   POSPrinterImpl.obj
 0001:00027040       ?get_CapJrnPresent@COPOSPOSPrinter@@UAGJPAF@Z 10028040 f   POSPrinterImpl.obj
 0001:00027070       ?get_CapJrnUnderline@COPOSPOSPrinter@@UAGJPAF@Z 10028070 f   POSPrinterImpl.obj
 0001:000270a0       ?get_CapRec2Color@COPOSPOSPrinter@@UAGJPAF@Z 100280a0 f   POSPrinterImpl.obj
 0001:000270d0       ?get_CapRecBarCode@COPOSPOSPrinter@@UAGJPAF@Z 100280d0 f   POSPrinterImpl.obj
 0001:00027100       ?get_CapRecBitmap@COPOSPOSPrinter@@UAGJPAF@Z 10028100 f   POSPrinterImpl.obj
 0001:00027130       ?get_CapRecBold@COPOSPOSPrinter@@UAGJPAF@Z 10028130 f   POSPrinterImpl.obj
 0001:00027160       ?get_CapRecDhigh@COPOSPOSPrinter@@UAGJPAF@Z 10028160 f   POSPrinterImpl.obj
 0001:00027190       ?get_CapRecDwide@COPOSPOSPrinter@@UAGJPAF@Z 10028190 f   POSPrinterImpl.obj
 0001:000271c0       ?get_CapRecDwideDhigh@COPOSPOSPrinter@@UAGJPAF@Z 100281c0 f   POSPrinterImpl.obj
 0001:000271f0       ?get_CapRecEmptySensor@COPOSPOSPrinter@@UAGJPAF@Z 100281f0 f   POSPrinterImpl.obj
 0001:00027220       ?get_CapRecItalic@COPOSPOSPrinter@@UAGJPAF@Z 10028220 f   POSPrinterImpl.obj
 0001:00027250       ?get_CapRecLeft90@COPOSPOSPrinter@@UAGJPAF@Z 10028250 f   POSPrinterImpl.obj
 0001:00027280       ?get_CapRecNearEndSensor@COPOSPOSPrinter@@UAGJPAF@Z 10028280 f   POSPrinterImpl.obj
 0001:000272b0       ?get_CapRecPapercut@COPOSPOSPrinter@@UAGJPAF@Z 100282b0 f   POSPrinterImpl.obj
 0001:000272e0       ?get_CapRecPresent@COPOSPOSPrinter@@UAGJPAF@Z 100282e0 f   POSPrinterImpl.obj
 0001:00027310       ?get_CapRecRight90@COPOSPOSPrinter@@UAGJPAF@Z 10028310 f   POSPrinterImpl.obj
 0001:00027340       ?get_CapRecRotate180@COPOSPOSPrinter@@UAGJPAF@Z 10028340 f   POSPrinterImpl.obj
 0001:00027370       ?get_CapRecStamp@COPOSPOSPrinter@@UAGJPAF@Z 10028370 f   POSPrinterImpl.obj
 0001:000273a0       ?get_CapRecUnderline@COPOSPOSPrinter@@UAGJPAF@Z 100283a0 f   POSPrinterImpl.obj
 0001:000273d0       ?get_CapSlp2Color@COPOSPOSPrinter@@UAGJPAF@Z 100283d0 f   POSPrinterImpl.obj
 0001:00027400       ?get_CapSlpBarCode@COPOSPOSPrinter@@UAGJPAF@Z 10028400 f   POSPrinterImpl.obj
 0001:00027430       ?get_CapSlpBitmap@COPOSPOSPrinter@@UAGJPAF@Z 10028430 f   POSPrinterImpl.obj
 0001:00027460       ?get_CapSlpBold@COPOSPOSPrinter@@UAGJPAF@Z 10028460 f   POSPrinterImpl.obj
 0001:00027490       ?get_CapSlpDhigh@COPOSPOSPrinter@@UAGJPAF@Z 10028490 f   POSPrinterImpl.obj
 0001:000274c0       ?get_CapSlpDwide@COPOSPOSPrinter@@UAGJPAF@Z 100284c0 f   POSPrinterImpl.obj
 0001:000274f0       ?get_CapSlpDwideDhigh@COPOSPOSPrinter@@UAGJPAF@Z 100284f0 f   POSPrinterImpl.obj
 0001:00027520       ?get_CapSlpEmptySensor@COPOSPOSPrinter@@UAGJPAF@Z 10028520 f   POSPrinterImpl.obj
 0001:00027550       ?get_CapSlpFullslip@COPOSPOSPrinter@@UAGJPAF@Z 10028550 f   POSPrinterImpl.obj
 0001:00027580       ?get_CapSlpItalic@COPOSPOSPrinter@@UAGJPAF@Z 10028580 f   POSPrinterImpl.obj
 0001:000275b0       ?get_CapSlpLeft90@COPOSPOSPrinter@@UAGJPAF@Z 100285b0 f   POSPrinterImpl.obj
 0001:000275e0       ?get_CapSlpNearEndSensor@COPOSPOSPrinter@@UAGJPAF@Z 100285e0 f   POSPrinterImpl.obj
 0001:00027610       ?get_CapSlpPresent@COPOSPOSPrinter@@UAGJPAF@Z 10028610 f   POSPrinterImpl.obj
 0001:00027640       ?get_CapSlpRight90@COPOSPOSPrinter@@UAGJPAF@Z 10028640 f   POSPrinterImpl.obj
 0001:00027670       ?get_CapSlpRotate180@COPOSPOSPrinter@@UAGJPAF@Z 10028670 f   POSPrinterImpl.obj
 0001:000276a0       ?get_CapSlpUnderline@COPOSPOSPrinter@@UAGJPAF@Z 100286a0 f   POSPrinterImpl.obj
 0001:000276d0       ?get_CharacterSet@COPOSPOSPrinter@@UAGJPAJ@Z 100286d0 f   POSPrinterImpl.obj
 0001:00027700       ?put_CharacterSet@COPOSPOSPrinter@@UAGJJ@Z 10028700 f   POSPrinterImpl.obj
 0001:00027730       ?get_CharacterSetList@COPOSPOSPrinter@@UAGJPAPA_W@Z 10028730 f   POSPrinterImpl.obj
 0001:00027760       ?get_CoverOpen@COPOSPOSPrinter@@UAGJPAF@Z 10028760 f   POSPrinterImpl.obj
 0001:00027790       ?get_ErrorStation@COPOSPOSPrinter@@UAGJPAJ@Z 10028790 f   POSPrinterImpl.obj
 0001:000277c0       ?get_FlagWhenIdle@COPOSPOSPrinter@@UAGJPAF@Z 100287c0 f   POSPrinterImpl.obj
 0001:000277f0       ?put_FlagWhenIdle@COPOSPOSPrinter@@UAGJF@Z 100287f0 f   POSPrinterImpl.obj
 0001:00027820       ?get_JrnEmpty@COPOSPOSPrinter@@UAGJPAF@Z 10028820 f   POSPrinterImpl.obj
 0001:00027850       ?get_JrnLetterQuality@COPOSPOSPrinter@@UAGJPAF@Z 10028850 f   POSPrinterImpl.obj
 0001:00027880       ?put_JrnLetterQuality@COPOSPOSPrinter@@UAGJF@Z 10028880 f   POSPrinterImpl.obj
 0001:000278b0       ?get_JrnLineChars@COPOSPOSPrinter@@UAGJPAJ@Z 100288b0 f   POSPrinterImpl.obj
 0001:000278e0       ?put_JrnLineChars@COPOSPOSPrinter@@UAGJJ@Z 100288e0 f   POSPrinterImpl.obj
 0001:00027910       ?get_JrnLineCharsList@COPOSPOSPrinter@@UAGJPAPA_W@Z 10028910 f   POSPrinterImpl.obj
 0001:00027940       ?get_JrnLineHeight@COPOSPOSPrinter@@UAGJPAJ@Z 10028940 f   POSPrinterImpl.obj
 0001:00027970       ?put_JrnLineHeight@COPOSPOSPrinter@@UAGJJ@Z 10028970 f   POSPrinterImpl.obj
 0001:000279a0       ?get_JrnLineSpacing@COPOSPOSPrinter@@UAGJPAJ@Z 100289a0 f   POSPrinterImpl.obj
 0001:000279d0       ?put_JrnLineSpacing@COPOSPOSPrinter@@UAGJJ@Z 100289d0 f   POSPrinterImpl.obj
 0001:00027a00       ?get_JrnLineWidth@COPOSPOSPrinter@@UAGJPAJ@Z 10028a00 f   POSPrinterImpl.obj
 0001:00027a30       ?get_JrnNearEnd@COPOSPOSPrinter@@UAGJPAF@Z 10028a30 f   POSPrinterImpl.obj
 0001:00027a60       ?get_MapMode@COPOSPOSPrinter@@UAGJPAJ@Z 10028a60 f   POSPrinterImpl.obj
 0001:00027a90       ?put_MapMode@COPOSPOSPrinter@@UAGJJ@Z 10028a90 f   POSPrinterImpl.obj
 0001:00027ac0       ?get_RecEmpty@COPOSPOSPrinter@@UAGJPAF@Z 10028ac0 f   POSPrinterImpl.obj
 0001:00027af0       ?get_RecLetterQuality@COPOSPOSPrinter@@UAGJPAF@Z 10028af0 f   POSPrinterImpl.obj
 0001:00027b20       ?put_RecLetterQuality@COPOSPOSPrinter@@UAGJF@Z 10028b20 f   POSPrinterImpl.obj
 0001:00027b50       ?get_RecLineChars@COPOSPOSPrinter@@UAGJPAJ@Z 10028b50 f   POSPrinterImpl.obj
 0001:00027b80       ?put_RecLineChars@COPOSPOSPrinter@@UAGJJ@Z 10028b80 f   POSPrinterImpl.obj
 0001:00027bb0       ?get_RecLineCharsList@COPOSPOSPrinter@@UAGJPAPA_W@Z 10028bb0 f   POSPrinterImpl.obj
 0001:00027be0       ?get_RecLineHeight@COPOSPOSPrinter@@UAGJPAJ@Z 10028be0 f   POSPrinterImpl.obj
 0001:00027c10       ?put_RecLineHeight@COPOSPOSPrinter@@UAGJJ@Z 10028c10 f   POSPrinterImpl.obj
 0001:00027c40       ?get_RecLineSpacing@COPOSPOSPrinter@@UAGJPAJ@Z 10028c40 f   POSPrinterImpl.obj
 0001:00027c70       ?put_RecLineSpacing@COPOSPOSPrinter@@UAGJJ@Z 10028c70 f   POSPrinterImpl.obj
 0001:00027ca0       ?get_RecLinesToPaperCut@COPOSPOSPrinter@@UAGJPAJ@Z 10028ca0 f   POSPrinterImpl.obj
 0001:00027cd0       ?get_RecLineWidth@COPOSPOSPrinter@@UAGJPAJ@Z 10028cd0 f   POSPrinterImpl.obj
 0001:00027d00       ?get_RecNearEnd@COPOSPOSPrinter@@UAGJPAF@Z 10028d00 f   POSPrinterImpl.obj
 0001:00027d30       ?get_RecSidewaysMaxChars@COPOSPOSPrinter@@UAGJPAJ@Z 10028d30 f   POSPrinterImpl.obj
 0001:00027d60       ?get_RecSidewaysMaxLines@COPOSPOSPrinter@@UAGJPAJ@Z 10028d60 f   POSPrinterImpl.obj
 0001:00027d90       ?get_SlpEmpty@COPOSPOSPrinter@@UAGJPAF@Z 10028d90 f   POSPrinterImpl.obj
 0001:00027dc0       ?get_SlpLetterQuality@COPOSPOSPrinter@@UAGJPAF@Z 10028dc0 f   POSPrinterImpl.obj
 0001:00027df0       ?put_SlpLetterQuality@COPOSPOSPrinter@@UAGJF@Z 10028df0 f   POSPrinterImpl.obj
 0001:00027e20       ?get_SlpLineChars@COPOSPOSPrinter@@UAGJPAJ@Z 10028e20 f   POSPrinterImpl.obj
 0001:00027e50       ?put_SlpLineChars@COPOSPOSPrinter@@UAGJJ@Z 10028e50 f   POSPrinterImpl.obj
 0001:00027e80       ?get_SlpLineCharsList@COPOSPOSPrinter@@UAGJPAPA_W@Z 10028e80 f   POSPrinterImpl.obj
 0001:00027eb0       ?get_SlpLineHeight@COPOSPOSPrinter@@UAGJPAJ@Z 10028eb0 f   POSPrinterImpl.obj
 0001:00027ee0       ?put_SlpLineHeight@COPOSPOSPrinter@@UAGJJ@Z 10028ee0 f   POSPrinterImpl.obj
 0001:00027f10       ?get_SlpLinesNearEndToEnd@COPOSPOSPrinter@@UAGJPAJ@Z 10028f10 f   POSPrinterImpl.obj
 0001:00027f40       ?get_SlpLineSpacing@COPOSPOSPrinter@@UAGJPAJ@Z 10028f40 f   POSPrinterImpl.obj
 0001:00027f70       ?put_SlpLineSpacing@COPOSPOSPrinter@@UAGJJ@Z 10028f70 f   POSPrinterImpl.obj
 0001:00027fa0       ?get_SlpLineWidth@COPOSPOSPrinter@@UAGJPAJ@Z 10028fa0 f   POSPrinterImpl.obj
 0001:00027fd0       ?get_SlpMaxLines@COPOSPOSPrinter@@UAGJPAJ@Z 10028fd0 f   POSPrinterImpl.obj
 0001:00028000       ?get_SlpNearEnd@COPOSPOSPrinter@@UAGJPAF@Z 10029000 f   POSPrinterImpl.obj
 0001:00028030       ?get_SlpSidewaysMaxChars@COPOSPOSPrinter@@UAGJPAJ@Z 10029030 f   POSPrinterImpl.obj
 0001:00028060       ?get_SlpSidewaysMaxLines@COPOSPOSPrinter@@UAGJPAJ@Z 10029060 f   POSPrinterImpl.obj
 0001:00028090       ?BeginInsertion@COPOSPOSPrinter@@UAGJJPAJ@Z 10029090 f   POSPrinterImpl.obj
 0001:00028130       ?BeginRemoval@COPOSPOSPrinter@@UAGJJPAJ@Z 10029130 f   POSPrinterImpl.obj
 0001:000281d0       ?CutPaper@COPOSPOSPrinter@@UAGJJPAJ@Z 100291d0 f   POSPrinterImpl.obj
 0001:00028270       ?EndInsertion@COPOSPOSPrinter@@UAGJPAJ@Z 10029270 f   POSPrinterImpl.obj
 0001:000282a0       ?EndRemoval@COPOSPOSPrinter@@UAGJPAJ@Z 100292a0 f   POSPrinterImpl.obj
 0001:000282d0       ?PrintBarCode@COPOSPOSPrinter@@UAGJJPA_WJJJJJPAJ@Z 100292d0 f   POSPrinterImpl.obj
 0001:00028470       ?PrintBitmap@COPOSPOSPrinter@@UAGJJPA_WJJPAJ@Z 10029470 f   POSPrinterImpl.obj
 0001:00028590       ?PrintImmediate@COPOSPOSPrinter@@UAGJJPA_WPAJ@Z 10029590 f   POSPrinterImpl.obj
 0001:00028680       ?PrintNormal@COPOSPOSPrinter@@UAGJJPA_WPAJ@Z 10029680 f   POSPrinterImpl.obj
 0001:00028770       ?PrintTwoNormal@COPOSPOSPrinter@@UAGJJPA_W0PAJ@Z 10029770 f   POSPrinterImpl.obj
 0001:00028880       ?RotatePrint@COPOSPOSPrinter@@UAGJJJPAJ@Z 10029880 f   POSPrinterImpl.obj
 0001:00028950       ?SetBitmap@COPOSPOSPrinter@@UAGJJJPA_WJJPAJ@Z 10029950 f   POSPrinterImpl.obj
 0001:00028aa0       ?SetLogo@COPOSPOSPrinter@@UAGJJPA_WPAJ@Z 10029aa0 f   POSPrinterImpl.obj
 0001:00028b90       ?get_CapCharacterSet@COPOSPOSPrinter@@UAGJPAJ@Z 10029b90 f   POSPrinterImpl.obj
 0001:00028bc0       ?get_CapTransaction@COPOSPOSPrinter@@UAGJPAF@Z 10029bc0 f   POSPrinterImpl.obj
 0001:00028bf0       ?get_ErrorLevel@COPOSPOSPrinter@@UAGJPAJ@Z 10029bf0 f   POSPrinterImpl.obj
 0001:00028c20       ?get_ErrorString@COPOSPOSPrinter@@UAGJPAPA_W@Z 10029c20 f   POSPrinterImpl.obj
 0001:00028c50       ?get_FontTypefaceList@COPOSPOSPrinter@@UAGJPAPA_W@Z 10029c50 f   POSPrinterImpl.obj
 0001:00028c80       ?get_RecBarCodeRotationList@COPOSPOSPrinter@@UAGJPAPA_W@Z 10029c80 f   POSPrinterImpl.obj
 0001:00028cb0       ?get_RotateSpecial@COPOSPOSPrinter@@UAGJPAJ@Z 10029cb0 f   POSPrinterImpl.obj
 0001:00028ce0       ?put_RotateSpecial@COPOSPOSPrinter@@UAGJJ@Z 10029ce0 f   POSPrinterImpl.obj
 0001:00028d10       ?get_SlpBarCodeRotationList@COPOSPOSPrinter@@UAGJPAPA_W@Z 10029d10 f   POSPrinterImpl.obj
 0001:00028d40       ?TransactionPrint@COPOSPOSPrinter@@UAGJJJPAJ@Z 10029d40 f   POSPrinterImpl.obj
 0001:00028e10       ?ValidateData@COPOSPOSPrinter@@UAGJJPA_WPAJ@Z 10029e10 f   POSPrinterImpl.obj
 0001:00028f00       ?get_BinaryConversion@COPOSPOSPrinter@@UAGJPAJ@Z 10029f00 f   POSPrinterImpl.obj
 0001:00028f30       ?put_BinaryConversion@COPOSPOSPrinter@@UAGJJ@Z 10029f30 f   POSPrinterImpl.obj
 0001:00028f60       ?get_CapPowerReporting@COPOSPOSPrinter@@UAGJPAJ@Z 10029f60 f   POSPrinterImpl.obj
 0001:00028f90       ?get_PowerNotify@COPOSPOSPrinter@@UAGJPAJ@Z 10029f90 f   POSPrinterImpl.obj
 0001:00028fc0       ?put_PowerNotify@COPOSPOSPrinter@@UAGJJ@Z 10029fc0 f   POSPrinterImpl.obj
 0001:00028ff0       ?get_PowerState@COPOSPOSPrinter@@UAGJPAJ@Z 10029ff0 f   POSPrinterImpl.obj
 0001:00029020       ?get_CapJrnCartridgeSensor@COPOSPOSPrinter@@UAGJPAJ@Z 1002a020 f   POSPrinterImpl.obj
 0001:00029050       ?get_CapJrnColor@COPOSPOSPrinter@@UAGJPAJ@Z 1002a050 f   POSPrinterImpl.obj
 0001:00029080       ?get_CapRecCartridgeSensor@COPOSPOSPrinter@@UAGJPAJ@Z 1002a080 f   POSPrinterImpl.obj
 0001:000290b0       ?get_CapRecColor@COPOSPOSPrinter@@UAGJPAJ@Z 1002a0b0 f   POSPrinterImpl.obj
 0001:000290e0       ?get_CapRecMarkFeed@COPOSPOSPrinter@@UAGJPAJ@Z 1002a0e0 f   POSPrinterImpl.obj
 0001:00029110       ?get_CapSlpBothSidesPrint@COPOSPOSPrinter@@UAGJPAF@Z 1002a110 f   POSPrinterImpl.obj
 0001:00029140       ?get_CapSlpCartridgeSensor@COPOSPOSPrinter@@UAGJPAJ@Z 1002a140 f   POSPrinterImpl.obj
 0001:00029170       ?get_CapSlpColor@COPOSPOSPrinter@@UAGJPAJ@Z 1002a170 f   POSPrinterImpl.obj
 0001:000291a0       ?get_CartridgeNotify@COPOSPOSPrinter@@UAGJPAJ@Z 1002a1a0 f   POSPrinterImpl.obj
 0001:000291d0       ?put_CartridgeNotify@COPOSPOSPrinter@@UAGJJ@Z 1002a1d0 f   POSPrinterImpl.obj
 0001:00029200       ?get_JrnCartridgeState@COPOSPOSPrinter@@UAGJPAJ@Z 1002a200 f   POSPrinterImpl.obj
 0001:00029230       ?get_JrnCurrentCartridge@COPOSPOSPrinter@@UAGJPAJ@Z 1002a230 f   POSPrinterImpl.obj
 0001:00029260       ?put_JrnCurrentCartridge@COPOSPOSPrinter@@UAGJJ@Z 1002a260 f   POSPrinterImpl.obj
 0001:00029290       ?get_RecCartridgeState@COPOSPOSPrinter@@UAGJPAJ@Z 1002a290 f   POSPrinterImpl.obj
 0001:000292c0       ?get_RecCurrentCartridge@COPOSPOSPrinter@@UAGJPAJ@Z 1002a2c0 f   POSPrinterImpl.obj
 0001:000292f0       ?put_RecCurrentCartridge@COPOSPOSPrinter@@UAGJJ@Z 1002a2f0 f   POSPrinterImpl.obj
 0001:00029320       ?get_SlpCartridgeState@COPOSPOSPrinter@@UAGJPAJ@Z 1002a320 f   POSPrinterImpl.obj
 0001:00029350       ?get_SlpCurrentCartridge@COPOSPOSPrinter@@UAGJPAJ@Z 1002a350 f   POSPrinterImpl.obj
 0001:00029380       ?put_SlpCurrentCartridge@COPOSPOSPrinter@@UAGJJ@Z 1002a380 f   POSPrinterImpl.obj
 0001:000293b0       ?get_SlpPrintSide@COPOSPOSPrinter@@UAGJPAJ@Z 1002a3b0 f   POSPrinterImpl.obj
 0001:000293e0       ?ChangePrintSide@COPOSPOSPrinter@@UAGJJPAJ@Z 1002a3e0 f   POSPrinterImpl.obj
 0001:00029480       ?MarkFeed@COPOSPOSPrinter@@UAGJJPAJ@Z 1002a480 f   POSPrinterImpl.obj
 0001:00029520       ?get_CapMapCharacterSet@COPOSPOSPrinter@@UAGJPAF@Z 1002a520 f   POSPrinterImpl.obj
 0001:00029550       ?get_MapCharacterSet@COPOSPOSPrinter@@UAGJPAF@Z 1002a550 f   POSPrinterImpl.obj
 0001:00029580       ?put_MapCharacterSet@COPOSPOSPrinter@@UAGJF@Z 1002a580 f   POSPrinterImpl.obj
 0001:000295b0       ?get_RecBitmapRotationList@COPOSPOSPrinter@@UAGJPAPA_W@Z 1002a5b0 f   POSPrinterImpl.obj
 0001:000295e0       ?get_SlpBitmapRotationList@COPOSPOSPrinter@@UAGJPAPA_W@Z 1002a5e0 f   POSPrinterImpl.obj
 0001:00029610       ?get_CapStatisticsReporting@COPOSPOSPrinter@@UAGJPAF@Z 1002a610 f   POSPrinterImpl.obj
 0001:00029640       ?get_CapUpdateStatistics@COPOSPOSPrinter@@UAGJPAF@Z 1002a640 f   POSPrinterImpl.obj
 0001:00029670       ?ResetStatistics@COPOSPOSPrinter@@UAGJPA_WPAJ@Z 1002a670 f   POSPrinterImpl.obj
 0001:00029720       ?RetrieveStatistics@COPOSPOSPrinter@@UAGJPAPA_WPAJ@Z 1002a720 f   POSPrinterImpl.obj
 0001:000297d0       ?UpdateStatistics@COPOSPOSPrinter@@UAGJPA_WPAJ@Z 1002a7d0 f   POSPrinterImpl.obj
 0001:00029880       ?get_CapCompareFirmwareVersion@COPOSPOSPrinter@@UAGJPAF@Z 1002a880 f   POSPrinterImpl.obj
 0001:000298b0       ?get_CapUpdateFirmware@COPOSPOSPrinter@@UAGJPAF@Z 1002a8b0 f   POSPrinterImpl.obj
 0001:000298e0       ?CompareFirmwareVersion@COPOSPOSPrinter@@UAGJPA_WPAJ1@Z 1002a8e0 f   POSPrinterImpl.obj
 0001:000299d0       ?UpdateFirmware@COPOSPOSPrinter@@UAGJPA_WPAJ@Z 1002a9d0 f   POSPrinterImpl.obj
 0001:00029a80       ?get_CapConcurrentPageMode@COPOSPOSPrinter@@UAGJPAF@Z 1002aa80 f   POSPrinterImpl.obj
 0001:00029ab0       ?get_CapRecPageMode@COPOSPOSPrinter@@UAGJPAF@Z 1002aab0 f   POSPrinterImpl.obj
 0001:00029ae0       ?get_CapSlpPageMode@COPOSPOSPrinter@@UAGJPAF@Z 1002aae0 f   POSPrinterImpl.obj
 0001:00029b10       ?get_PageModeArea@COPOSPOSPrinter@@UAGJPAPA_W@Z 1002ab10 f   POSPrinterImpl.obj
 0001:00029b40       ?get_PageModeDescriptor@COPOSPOSPrinter@@UAGJPAJ@Z 1002ab40 f   POSPrinterImpl.obj
 0001:00029b70       ?get_PageModeHorizontalPosition@COPOSPOSPrinter@@UAGJPAJ@Z 1002ab70 f   POSPrinterImpl.obj
 0001:00029ba0       ?put_PageModeHorizontalPosition@COPOSPOSPrinter@@UAGJJ@Z 1002aba0 f   POSPrinterImpl.obj
 0001:00029bd0       ?get_PageModePrintArea@COPOSPOSPrinter@@UAGJPAPA_W@Z 1002abd0 f   POSPrinterImpl.obj
 0001:00029c00       ?put_PageModePrintArea@COPOSPOSPrinter@@UAGJPA_W@Z 1002ac00 f   POSPrinterImpl.obj
 0001:00029c30       ?get_PageModePrintDirection@COPOSPOSPrinter@@UAGJPAJ@Z 1002ac30 f   POSPrinterImpl.obj
 0001:00029c60       ?put_PageModePrintDirection@COPOSPOSPrinter@@UAGJJ@Z 1002ac60 f   POSPrinterImpl.obj
 0001:00029c90       ?get_PageModeStation@COPOSPOSPrinter@@UAGJPAJ@Z 1002ac90 f   POSPrinterImpl.obj
 0001:00029cc0       ?put_PageModeStation@COPOSPOSPrinter@@UAGJJ@Z 1002acc0 f   POSPrinterImpl.obj
 0001:00029cf0       ?get_PageModeVerticalPosition@COPOSPOSPrinter@@UAGJPAJ@Z 1002acf0 f   POSPrinterImpl.obj
 0001:00029d20       ?put_PageModeVerticalPosition@COPOSPOSPrinter@@UAGJJ@Z 1002ad20 f   POSPrinterImpl.obj
 0001:00029d50       ?ClearPrintArea@COPOSPOSPrinter@@UAGJPAJ@Z 1002ad50 f   POSPrinterImpl.obj
 0001:00029d80       ?PageModePrint@COPOSPOSPrinter@@UAGJJPAJ@Z 1002ad80 f   POSPrinterImpl.obj
 0001:00029e20       ?PrintMemoryBitmap@COPOSPOSPrinter@@UAGJJPA_WJJJPAJ@Z 1002ae20 f   POSPrinterImpl.obj
 0001:00029f70       ?get_CapRecRuledLine@COPOSPOSPrinter@@UAGJPAJ@Z 1002af70 f   POSPrinterImpl.obj
 0001:00029fa0       ?get_CapSlpRuledLine@COPOSPOSPrinter@@UAGJPAJ@Z 1002afa0 f   POSPrinterImpl.obj
 0001:00029fd0       ?DrawRuledLine@COPOSPOSPrinter@@UAGJJPA_WJJJJPAJ@Z 1002afd0 f   POSPrinterImpl.obj
 0001:0002a150       ??0?$CComControl@VCOPOSPOSPrinter@@V?$CWindowImpl@VCOPOSPOSPrinter@@VCWindow@ATL@@V?$CWinTraits@$0FGAAAAAA@$0A@@3@@ATL@@@ATL@@QAE@XZ 1002b150 f i POSPrinterImpl.obj
 0001:0002a190       ??0?$CComPtr@UIAdviseSink@@@ATL@@QAE@XZ 1002b190 f i POSPrinterImpl.obj
 0001:0002a1c0       ??0?$CComPtr@UIDataAdviseHolder@@@ATL@@QAE@XZ 1002b1c0 f i POSPrinterImpl.obj
 0001:0002a1f0       ??0?$CComPtr@UIOleAdviseHolder@@@ATL@@QAE@XZ 1002b1f0 f i POSPrinterImpl.obj
 0001:0002a220       ??0?$CComPtr@UIOleClientSite@@@ATL@@QAE@XZ 1002b220 f i POSPrinterImpl.obj
 0001:0002a250       ??0?$CComPtr@UIOleInPlaceSiteWindowless@@@ATL@@QAE@XZ 1002b250 f i POSPrinterImpl.obj
 0001:0002a280       ??0?$CComPtrBase@UIAdviseSink@@@ATL@@IAE@XZ 1002b280 f i POSPrinterImpl.obj
 0001:0002a2a0       ??0?$CComPtrBase@UIDataAdviseHolder@@@ATL@@IAE@XZ 1002b2a0 f i POSPrinterImpl.obj
 0001:0002a2c0       ??0?$CComPtrBase@UIOleAdviseHolder@@@ATL@@IAE@XZ 1002b2c0 f i POSPrinterImpl.obj
 0001:0002a2e0       ??0?$CComPtrBase@UIOleClientSite@@@ATL@@IAE@XZ 1002b2e0 f i POSPrinterImpl.obj
 0001:0002a300       ??0?$CComPtrBase@UIOleInPlaceSiteWindowless@@@ATL@@IAE@XZ 1002b300 f i POSPrinterImpl.obj
 0001:0002a320       ??0?$CComQIPtr@UIDispatch@@$1?_GUID_00020400_0000_0000_c000_000000000046@@3U__s_GUID@@B@ATL@@QAE@XZ 1002b320 f i POSPrinterImpl.obj
 0001:0002a350       ??0?$CProxy_IOPOSEvents@VCOPOSPOSPrinter@@@@QAE@PAVCOPOSPOSPrinter@@@Z 1002b350 f i POSPrinterImpl.obj
 0001:0002a3c0       ??0?$CWindowImpl@VCOPOSPOSPrinter@@VCWindow@ATL@@V?$CWinTraits@$0FGAAAAAA@$0A@@3@@ATL@@QAE@XZ 1002b3c0 f i POSPrinterImpl.obj
 0001:0002a3f0       ??0?$CWindowImplBaseT@VCWindow@ATL@@V?$CWinTraits@$0FGAAAAAA@$0A@@2@@ATL@@QAE@XZ 1002b3f0 f i POSPrinterImpl.obj
 0001:0002a430       ??0?$CWindowImplRoot@VCWindow@ATL@@@ATL@@QAE@XZ 1002b430 f i POSPrinterImpl.obj
 0001:0002a490       ??0?$IConnectionPointContainerImpl@VCOPOSPOSPrinter@@@ATL@@QAE@XZ 1002b490 f i POSPrinterImpl.obj
 0001:0002a4c0       ??0?$IConnectionPointImpl@VCOPOSPOSPrinter@@$1?DIID__IOPOSPOSPrinterEvents@@3U_GUID@@BVCComDynamicUnkArray@ATL@@@ATL@@QAE@XZ 1002b4c0 f i POSPrinterImpl.obj
 0001:0002a500       ??0?$IConnectionPointImpl@VCOPOSPOSPrinter@@$1?IID_IPropertyNotifySink@@3U_GUID@@BVCComDynamicUnkArray@ATL@@@ATL@@QAE@XZ 1002b500 f i POSPrinterImpl.obj
 0001:0002a540       ??0?$IDataObjectImpl@VCOPOSPOSPrinter@@@ATL@@QAE@XZ 1002b540 f i POSPrinterImpl.obj
 0001:0002a570       ??0?$IDispatchImpl@UIOPOSPOSPrinter@@$1?IID_IOPOSPOSPrinter@@3U_GUID@@B$1?LIBID_OposPOSPrinter_CCO@@3U3@B$00$0A@VCComTypeInfoHolder@ATL@@@ATL@@QAE@XZ 1002b570 f i POSPrinterImpl.obj
 0001:0002a5a0       ??0?$IObjectSafetyImpl@VCOPOSPOSPrinter@@$02@ATL@@QAE@XZ 1002b5a0 f i POSPrinterImpl.obj
 0001:0002a5e0       ??0?$IOleControlImpl@VCOPOSPOSPrinter@@@ATL@@QAE@XZ 1002b5e0 f i POSPrinterImpl.obj
 0001:0002a610       ??0?$IOleInPlaceActiveObjectImpl@VCOPOSPOSPrinter@@@ATL@@QAE@XZ 1002b610 f i POSPrinterImpl.obj
 0001:0002a640       ??0?$IOleInPlaceObjectWindowlessImpl@VCOPOSPOSPrinter@@@ATL@@QAE@XZ 1002b640 f i POSPrinterImpl.obj
 0001:0002a670       ??0?$IOleObjectImpl@VCOPOSPOSPrinter@@@ATL@@QAE@XZ 1002b670 f i POSPrinterImpl.obj
 0001:0002a6a0       ??0?$IPersistStorageImpl@VCOPOSPOSPrinter@@@ATL@@QAE@XZ 1002b6a0 f i POSPrinterImpl.obj
 0001:0002a6d0       ??0?$IPersistStreamInitImpl@VCOPOSPOSPrinter@@@ATL@@QAE@XZ 1002b6d0 f i POSPrinterImpl.obj
 0001:0002a700       ??0?$IPropertyNotifySinkCP@VCOPOSPOSPrinter@@VCComDynamicUnkArray@ATL@@@ATL@@QAE@XZ 1002b700 f i POSPrinterImpl.obj
 0001:0002a730       ??0?$IProvideClassInfo2Impl@$1?CLSID_OPOSPOSPrinter@@3U_GUID@@B$1?DIID__IOPOSPOSPrinterEvents@@3U2@B$1?LIBID_OposPOSPrinter_CCO@@3U2@B$00$0A@VCComTypeInfoHolder@ATL@@@ATL@@QAE@XZ 1002b730 f i POSPrinterImpl.obj
 0001:0002a760       ??0?$IQuickActivateImpl@VCOPOSPOSPrinter@@@ATL@@QAE@XZ 1002b760 f i POSPrinterImpl.obj
 0001:0002a790       ??0?$ISpecifyPropertyPagesImpl@VCOPOSPOSPrinter@@@ATL@@QAE@XZ 1002b790 f i POSPrinterImpl.obj
 0001:0002a7c0       ??0?$IViewObjectExImpl@VCOPOSPOSPrinter@@@ATL@@QAE@XZ 1002b7c0 f i POSPrinterImpl.obj
 0001:0002a7f0       ??0?$_ICPLocator@$1?DIID__IOPOSPOSPrinterEvents@@3U_GUID@@B@ATL@@QAE@XZ 1002b7f0 f i POSPrinterImpl.obj
 0001:0002a810       ??0?$_ICPLocator@$1?IID_IPropertyNotifySink@@3U_GUID@@B@ATL@@QAE@XZ 1002b810 f i POSPrinterImpl.obj
 0001:0002a830       ??0CComControlBase@ATL@@QAE@AAPAUHWND__@@@Z 1002b830 f i POSPrinterImpl.obj
 0001:0002a9e0       ??0CComDynamicUnkArray@ATL@@QAE@XZ 1002b9e0 f i POSPrinterImpl.obj
 0001:0002aa10       ??0CDynamicStdCallThunk2@ATL@@QAE@XZ 1002ba10 f i POSPrinterImpl.obj
 0001:0002aa30       ??0CMessageMap@ATL@@QAE@XZ 1002ba30 f i POSPrinterImpl.obj
 0001:0002aa50       ??0CWindow@ATL@@QAE@PAUHWND__@@@Z 1002ba50 f i POSPrinterImpl.obj
 0001:0002aa70       ??0CWndProcThunk@ATL@@QAE@XZ 1002ba70 f i POSPrinterImpl.obj
 0001:0002aaa0       ??0IConnectionPointContainer@@QAE@XZ 1002baa0 f i POSPrinterImpl.obj
 0001:0002aad0       ??0IDataObject@@QAE@XZ     1002bad0 f i POSPrinterImpl.obj
 0001:0002ab00       ??0IDispatch@@QAE@XZ       1002bb00 f i POSPrinterImpl.obj
 0001:0002ab30       ??0IOPOSPOSPrinter@@QAE@XZ 1002bb30 f i POSPrinterImpl.obj
 0001:0002ab60       ??0IOPOSPOSPrinter_1_10@@QAE@XZ 1002bb60 f i POSPrinterImpl.obj
 0001:0002ab90       ??0IOPOSPOSPrinter_1_13@@QAE@XZ 1002bb90 f i POSPrinterImpl.obj
 0001:0002abc0       ??0IOPOSPOSPrinter_1_5@@QAE@XZ 1002bbc0 f i POSPrinterImpl.obj
 0001:0002abf0       ??0IOPOSPOSPrinter_1_7@@QAE@XZ 1002bbf0 f i POSPrinterImpl.obj
 0001:0002ac20       ??0IOPOSPOSPrinter_1_8@@QAE@XZ 1002bc20 f i POSPrinterImpl.obj
 0001:0002ac50       ??0IOPOSPOSPrinter_1_9@@QAE@XZ 1002bc50 f i POSPrinterImpl.obj
 0001:0002ac80       ??0IObjectSafety@@QAE@XZ   1002bc80 f i POSPrinterImpl.obj
 0001:0002acb0       ??0IOleControl@@QAE@XZ     1002bcb0 f i POSPrinterImpl.obj
 0001:0002ace0       ??0IOleInPlaceActiveObject@@QAE@XZ 1002bce0 f i POSPrinterImpl.obj
 0001:0002ad10       ??0IOleInPlaceObject@@QAE@XZ 1002bd10 f i POSPrinterImpl.obj
 0001:0002ad40       ??0IOleInPlaceObjectWindowless@@QAE@XZ 1002bd40 f i POSPrinterImpl.obj
 0001:0002ad70       ??0IOleObject@@QAE@XZ      1002bd70 f i POSPrinterImpl.obj
 0001:0002ada0       ??0IOleWindow@@QAE@XZ      1002bda0 f i POSPrinterImpl.obj
 0001:0002add0       ??0IPersist@@QAE@XZ        1002bdd0 f i POSPrinterImpl.obj
 0001:0002ae00       ??0IPersistStorage@@QAE@XZ 1002be00 f i POSPrinterImpl.obj
 0001:0002ae30       ??0IPersistStreamInit@@QAE@XZ 1002be30 f i POSPrinterImpl.obj
 0001:0002ae60       ??0IProvideClassInfo2@@QAE@XZ 1002be60 f i POSPrinterImpl.obj
 0001:0002ae90       ??0IProvideClassInfo@@QAE@XZ 1002be90 f i POSPrinterImpl.obj
 0001:0002aec0       ??0IQuickActivate@@QAE@XZ  1002bec0 f i POSPrinterImpl.obj
 0001:0002aef0       ??0ISpecifyPropertyPages@@QAE@XZ 1002bef0 f i POSPrinterImpl.obj
 0001:0002af20       ??0IViewObject2@@QAE@XZ    1002bf20 f i POSPrinterImpl.obj
 0001:0002af50       ??0IViewObject@@QAE@XZ     1002bf50 f i POSPrinterImpl.obj
 0001:0002af80       ??0IViewObjectEx@@QAE@XZ   1002bf80 f i POSPrinterImpl.obj
 0001:0002afb0       ??0OposVariantResult@@QAE@XZ 1002bfb0 f i POSPrinterImpl.obj
 0001:0002afe0       ??0_CW@@QAE@PBD@Z          1002bfe0 f i POSPrinterImpl.obj
 0001:0002b020       ??0_CW@@QAE@PB_W@Z         1002c020 f i POSPrinterImpl.obj
 0001:0002b060       ??0_CWNCC@@QAE@PBD@Z       1002c060 f i POSPrinterImpl.obj
 0001:0002b090       ??1?$CComControl@VCOPOSPOSPrinter@@V?$CWindowImpl@VCOPOSPOSPrinter@@VCWindow@ATL@@V?$CWinTraits@$0FGAAAAAA@$0A@@3@@ATL@@@ATL@@UAE@XZ 1002c090 f i POSPrinterImpl.obj
 0001:0002b0c0       ??1?$CComPtr@UIDataAdviseHolder@@@ATL@@QAE@XZ 1002c0c0 f i POSPrinterImpl.obj
 0001:0002b0f0       ??1?$CComPtr@UIOleAdviseHolder@@@ATL@@QAE@XZ 1002c0f0 f i POSPrinterImpl.obj
 0001:0002b120       ??1?$CComPtr@UIOleInPlaceSiteWindowless@@@ATL@@QAE@XZ 1002c120 f i POSPrinterImpl.obj
 0001:0002b150       ??1?$CComPtrBase@UIDataAdviseHolder@@@ATL@@QAE@XZ 1002c150 f i POSPrinterImpl.obj
 0001:0002b1a0       ??1?$CComPtrBase@UIOleAdviseHolder@@@ATL@@QAE@XZ 1002c1a0 f i POSPrinterImpl.obj
 0001:0002b1f0       ??1?$CComPtrBase@UIOleInPlaceSiteWindowless@@@ATL@@QAE@XZ 1002c1f0 f i POSPrinterImpl.obj
 0001:0002b240       ??1?$CComQIPtr@UIDispatch@@$1?_GUID_00020400_0000_0000_c000_000000000046@@3U__s_GUID@@B@ATL@@QAE@XZ 1002c240 f i POSPrinterImpl.obj
 0001:0002b270       ??1?$CProxy_IOPOSEvents@VCOPOSPOSPrinter@@@@QAE@XZ 1002c270 f i POSPrinterImpl.obj
 0001:0002b2a0       ??1?$CWindowImpl@VCOPOSPOSPrinter@@VCWindow@ATL@@V?$CWinTraits@$0FGAAAAAA@$0A@@3@@ATL@@UAE@XZ 1002c2a0 f i POSPrinterImpl.obj
 0001:0002b2d0       ??1?$CWindowImplBaseT@VCWindow@ATL@@V?$CWinTraits@$0FGAAAAAA@$0A@@2@@ATL@@UAE@XZ 1002c2d0 f i POSPrinterImpl.obj
 0001:0002b300       ??1?$CWindowImplRoot@VCWindow@ATL@@@ATL@@UAE@XZ 1002c300 f i POSPrinterImpl.obj
 0001:0002b3a0       ??1?$IConnectionPointImpl@VCOPOSPOSPrinter@@$1?DIID__IOPOSPOSPrinterEvents@@3U_GUID@@BVCComDynamicUnkArray@ATL@@@ATL@@QAE@XZ 1002c3a0 f i POSPrinterImpl.obj
 0001:0002b420       ??1?$IConnectionPointImpl@VCOPOSPOSPrinter@@$1?IID_IPropertyNotifySink@@3U_GUID@@BVCComDynamicUnkArray@ATL@@@ATL@@QAE@XZ 1002c420 f i POSPrinterImpl.obj
 0001:0002b4a0       ??1?$IPropertyNotifySinkCP@VCOPOSPOSPrinter@@VCComDynamicUnkArray@ATL@@@ATL@@QAE@XZ 1002c4a0 f i POSPrinterImpl.obj
 0001:0002b4d0       ??1CComControlBase@ATL@@UAE@XZ 1002c4d0 f i POSPrinterImpl.obj
 0001:0002b590       ??1CComDynamicUnkArray@ATL@@QAE@XZ 1002c590 f i POSPrinterImpl.obj
 0001:0002b5d0       ??1CDynamicStdCallThunk2@ATL@@QAE@XZ 1002c5d0 f i POSPrinterImpl.obj
 0001:0002b600       ??1CWndProcThunk@ATL@@QAE@XZ 1002c600 f i POSPrinterImpl.obj
 0001:0002b630       ??1OposVariantResult@@QAE@XZ 1002c630 f i POSPrinterImpl.obj
 0001:0002b660       ??1_CW@@QAE@XZ             1002c660 f i POSPrinterImpl.obj
 0001:0002b6d0       ??1_CWNCC@@QAE@XZ          1002c6d0 f i POSPrinterImpl.obj
 0001:0002b700       ??B_CW@@QAEPB_WXZ          1002c700 f i POSPrinterImpl.obj
 0001:0002b740       ??B_CWNCC@@QAEPA_WXZ       1002c740 f i POSPrinterImpl.obj
 0001:0002b770       ??_EOposVariant@@QAEPAXI@Z 1002c770 f i POSPrinterImpl.obj
 0001:0002b800       ?EventClaim@COPOSPOSPrinter@@IAEXXZ 1002c800 f i POSPrinterImpl.obj
 0001:0002b840       ?EventClose@COPOSPOSPrinter@@IAEXXZ 1002c840 f i POSPrinterImpl.obj
 0001:0002b8e0       ?EventInit@COPOSPOSPrinter@@IAEJXZ 1002c8e0 f i POSPrinterImpl.obj
 0001:0002bb10       ?EventOpen@COPOSPOSPrinter@@IAEXXZ 1002cb10 f i POSPrinterImpl.obj
 0001:0002bb50       ?EventPreCloseRelease@COPOSPOSPrinter@@IAEXXZ 1002cb50 f i POSPrinterImpl.obj
 0001:0002bbd0       ?EventUninit@COPOSPOSPrinter@@IAEXXZ 1002cbd0 f i POSPrinterImpl.obj
 0001:0002bd00       ?EventWindowProc@COPOSPOSPrinter@@IAGJIIJ@Z 1002cd00 f i POSPrinterImpl.obj
 0001:0002be80       ?FireEventCleanup@COPOSPOSPrinter@@IAEXXZ 1002ce80 f i POSPrinterImpl.obj
 0001:0002bed0       ?FireEventSetup@COPOSPOSPrinter@@IAE_NXZ 1002ced0 f i POSPrinterImpl.obj
 0001:0002bf40       ?GetModuleInstance@CComModule@ATL@@QAEPAUHINSTANCE__@@XZ 1002cf40 f i POSPrinterImpl.obj
 0001:0002bf60       ?SetRC@COPOSPOSPrinter@@IAEJJ@Z 1002cf60 f i POSPrinterImpl.obj
 0001:0002bf90       ?s_EventWindowProc@COPOSPOSPrinter@@KGJPAUHWND__@@IIJ@Z 1002cf90 f i POSPrinterImpl.obj
 0001:0002c030       __snwprintf                1002d030 f i POSPrinterImpl.obj
 0001:0002c090       __vfwprintf_l              1002d090 f i POSPrinterImpl.obj
 0001:0002c0c0       __vsnwprintf               1002d0c0 f i POSPrinterImpl.obj
 0001:0002c0f0       __vsnwprintf_l             1002d0f0 f i POSPrinterImpl.obj
 0001:0002c160       _vfwprintf                 1002d160 f i POSPrinterImpl.obj
 0001:0002c182       _DebugBreak@0              1002d182 f   kernel32:KERNEL32.dll
 0001:0002c188       _Sleep@4                   1002d188 f   kernel32:KERNEL32.dll
 0001:0002c18e       _GetCurrentProcess@0       1002d18e f   kernel32:KERNEL32.dll
 0001:0002c194       _TerminateProcess@8        1002d194 f   kernel32:KERNEL32.dll
 0001:0002c19a       _MultiByteToWideChar@24    1002d19a f   kernel32:KERNEL32.dll
 0001:0002c1a0       _WideCharToMultiByte@32    1002d1a0 f   kernel32:KERNEL32.dll
 0001:0002c1a6       _DecodePointer@4           1002d1a6 f   kernel32:KERNEL32.dll
 0001:0002c1ac       _RaiseException@16         1002d1ac f   kernel32:KERNEL32.dll
 0001:0002c1b2       _GetLastError@0            1002d1b2 f   kernel32:KERNEL32.dll
 0001:0002c1b8       _SetLastError@4            1002d1b8 f   kernel32:KERNEL32.dll
 0001:0002c1be       _InitializeCriticalSectionEx@12 1002d1be f   kernel32:KERNEL32.dll
 0001:0002c1c4       _DeleteCriticalSection@4   1002d1c4 f   kernel32:KERNEL32.dll
 0001:0002c1ca       _EncodePointer@4           1002d1ca f   kernel32:KERNEL32.dll
 0001:0002c1d0       _EnterCriticalSection@4    1002d1d0 f   kernel32:KERNEL32.dll
 0001:0002c1d6       _LeaveCriticalSection@4    1002d1d6 f   kernel32:KERNEL32.dll
 0001:0002c1dc       _ResetEvent@4              1002d1dc f   kernel32:KERNEL32.dll
 0001:0002c1e2       _ReleaseMutex@4            1002d1e2 f   kernel32:KERNEL32.dll
 0001:0002c1e8       _WaitForSingleObject@8     1002d1e8 f   kernel32:KERNEL32.dll
 0001:0002c1ee       _GetCurrentThreadId@0      1002d1ee f   kernel32:KERNEL32.dll
 0001:0002c1f4       _DisableThreadLibraryCalls@4 1002d1f4 f   kernel32:KERNEL32.dll
 0001:0002c1fa       _FreeLibrary@4             1002d1fa f   kernel32:KERNEL32.dll
 0001:0002c200       _GetModuleFileNameW@12     1002d200 f   kernel32:KERNEL32.dll
 0001:0002c206       _GetModuleHandleW@4        1002d206 f   kernel32:KERNEL32.dll
 0001:0002c20c       _GetProcAddress@8          1002d20c f   kernel32:KERNEL32.dll
 0001:0002c212       _LoadLibraryExW@12         1002d212 f   kernel32:KERNEL32.dll
 0001:0002c218       _LoadResource@8            1002d218 f   kernel32:KERNEL32.dll
 0001:0002c21e       _SizeofResource@8          1002d21e f   kernel32:KERNEL32.dll
 0001:0002c224       _FindResourceW@12          1002d224 f   kernel32:KERNEL32.dll
 0001:0002c22a       _GlobalAlloc@8             1002d22a f   kernel32:KERNEL32.dll
 0001:0002c230       _GlobalUnlock@4            1002d230 f   kernel32:KERNEL32.dll
 0001:0002c236       _GlobalLock@4              1002d236 f   kernel32:KERNEL32.dll
 0001:0002c23c       _MulDiv@12                 1002d23c f   kernel32:KERNEL32.dll
 0001:0002c242       _lstrcmpiW@8               1002d242 f   kernel32:KERNEL32.dll
 0001:0002c248       _DeleteFileW@4             1002d248 f   kernel32:KERNEL32.dll
 0001:0002c24e       _CloseHandle@4             1002d24e f   kernel32:KERNEL32.dll
 0001:0002c254       _SetEvent@4                1002d254 f   kernel32:KERNEL32.dll
 0001:0002c25a       _CreateMutexW@12           1002d25a f   kernel32:KERNEL32.dll
 0001:0002c260       _CreateEventW@16           1002d260 f   kernel32:KERNEL32.dll
 0001:0002c266       _GetCurrentProcessId@0     1002d266 f   kernel32:KERNEL32.dll
 0001:0002c26c       _LocalFree@4               1002d26c f   kernel32:KERNEL32.dll
 0001:0002c272       _FormatMessageW@28         1002d272 f   kernel32:KERNEL32.dll
 0001:0002c278       _GetActiveWindow@0         1002d278 f   user32:USER32.dll
 0001:0002c27e       _MessageBoxW@16            1002d27e f   user32:USER32.dll
 0001:0002c284       _UnregisterClassW@8        1002d284 f   user32:USER32.dll
 0001:0002c28a       _PostMessageW@16           1002d28a f   user32:USER32.dll
 0001:0002c290       _DefWindowProcW@16         1002d290 f   user32:USER32.dll
 0001:0002c296       _CallWindowProcW@20        1002d296 f   user32:USER32.dll
 0001:0002c29c       _RegisterClassExW@4        1002d29c f   user32:USER32.dll
 0001:0002c2a2       _GetClassInfoExW@12        1002d2a2 f   user32:USER32.dll
 0001:0002c2a8       _CreateWindowExW@48        1002d2a8 f   user32:USER32.dll
 0001:0002c2ae       _IsWindow@4                1002d2ae f   user32:USER32.dll
 0001:0002c2b4       _IsChild@8                 1002d2b4 f   user32:USER32.dll
 0001:0002c2ba       _DestroyWindow@4           1002d2ba f   user32:USER32.dll
 0001:0002c2c0       _ShowWindow@8              1002d2c0 f   user32:USER32.dll
 0001:0002c2c6       _SetWindowPos@28           1002d2c6 f   user32:USER32.dll
 0001:0002c2cc       _CharNextW@4               1002d2cc f   user32:USER32.dll
 0001:0002c2d2       _SetFocus@4                1002d2d2 f   user32:USER32.dll
 0001:0002c2d8       _GetFocus@0                1002d2d8 f   user32:USER32.dll
 0001:0002c2de       _GetKeyState@4             1002d2de f   user32:USER32.dll
 0001:0002c2e4       _GetDC@4                   1002d2e4 f   user32:USER32.dll
 0001:0002c2ea       _ReleaseDC@8               1002d2ea f   user32:USER32.dll
 0001:0002c2f0       _BeginPaint@8              1002d2f0 f   user32:USER32.dll
 0001:0002c2f6       _EndPaint@8                1002d2f6 f   user32:USER32.dll
 0001:0002c2fc       _SetWindowRgn@12           1002d2fc f   user32:USER32.dll
 0001:0002c302       _InvalidateRect@12         1002d302 f   user32:USER32.dll
 0001:0002c308       _GetClientRect@8           1002d308 f   user32:USER32.dll
 0001:0002c30e       _IntersectRect@12          1002d30e f   user32:USER32.dll
 0001:0002c314       _UnionRect@12              1002d314 f   user32:USER32.dll
 0001:0002c31a       _OffsetRect@12             1002d31a f   user32:USER32.dll
 0001:0002c320       _EqualRect@8               1002d320 f   user32:USER32.dll
 0001:0002c326       _PtInRect@12               1002d326 f   user32:USER32.dll
 0001:0002c32c       _GetWindowLongW@8          1002d32c f   user32:USER32.dll
 0001:0002c332       _SetWindowLongW@12         1002d332 f   user32:USER32.dll
 0001:0002c338       _GetParent@4               1002d338 f   user32:USER32.dll
 0001:0002c33e       _LoadCursorW@8             1002d33e f   user32:USER32.dll
 0001:0002c344       _PeekMessageW@20           1002d344 f   user32:USER32.dll
 0001:0002c34a       _RegisterClassW@4          1002d34a f   user32:USER32.dll
 0001:0002c350       _LoadBitmapW@8             1002d350 f   user32:USER32.dll
 0001:0002c356       _CloseMetaFile@4           1002d356 f   gdi32:GDI32.dll
 0001:0002c35c       _CreateDCW@16              1002d35c f   gdi32:GDI32.dll
 0001:0002c362       _CreateMetaFileW@4         1002d362 f   gdi32:GDI32.dll
 0001:0002c368       _CreateRectRgnIndirect@4   1002d368 f   gdi32:GDI32.dll
 0001:0002c36e       _DeleteDC@4                1002d36e f   gdi32:GDI32.dll
 0001:0002c374       _DeleteMetaFile@4          1002d374 f   gdi32:GDI32.dll
 0001:0002c37a       _GetDeviceCaps@8           1002d37a f   gdi32:GDI32.dll
 0001:0002c380       _RestoreDC@8               1002d380 f   gdi32:GDI32.dll
 0001:0002c386       _SaveDC@4                  1002d386 f   gdi32:GDI32.dll
 0001:0002c38c       _SetMapMode@8              1002d38c f   gdi32:GDI32.dll
 0001:0002c392       _LPtoDP@12                 1002d392 f   gdi32:GDI32.dll
 0001:0002c398       _SetViewportOrgEx@16       1002d398 f   gdi32:GDI32.dll
 0001:0002c39e       _SetWindowExtEx@16         1002d39e f   gdi32:GDI32.dll
 0001:0002c3a4       _SetWindowOrgEx@16         1002d3a4 f   gdi32:GDI32.dll
 0001:0002c3aa       _BitBlt@36                 1002d3aa f   gdi32:GDI32.dll
 0001:0002c3b0       _CreateCompatibleDC@4      1002d3b0 f   gdi32:GDI32.dll
 0001:0002c3b6       _DeleteObject@4            1002d3b6 f   gdi32:GDI32.dll
 0001:0002c3bc       _SelectObject@8            1002d3bc f   gdi32:GDI32.dll
 0001:0002c3c2       _GetObjectW@12             1002d3c2 f   gdi32:GDI32.dll
 0001:0002c3c8       _RegCloseKey@4             1002d3c8 f   advapi32:ADVAPI32.dll
 0001:0002c3ce       _RegCreateKeyExW@36        1002d3ce f   advapi32:ADVAPI32.dll
 0001:0002c3d4       _RegDeleteKeyW@8           1002d3d4 f   advapi32:ADVAPI32.dll
 0001:0002c3da       _RegDeleteValueW@8         1002d3da f   advapi32:ADVAPI32.dll
 0001:0002c3e0       _RegEnumKeyExW@32          1002d3e0 f   advapi32:ADVAPI32.dll
 0001:0002c3e6       _RegOpenKeyExW@20          1002d3e6 f   advapi32:ADVAPI32.dll
 0001:0002c3ec       _RegQueryInfoKeyW@48       1002d3ec f   advapi32:ADVAPI32.dll
 0001:0002c3f2       _RegSetValueExW@24         1002d3f2 f   advapi32:ADVAPI32.dll
 0001:0002c3f8       _RegQueryValueExW@24       1002d3f8 f   advapi32:ADVAPI32.dll
 0001:0002c3fe       _CoCreateInstance@20       1002d3fe f   ole32:ole32.dll
 0001:0002c404       _StringFromGUID2@12        1002d404 f   ole32:ole32.dll
 0001:0002c40a       _CoTaskMemAlloc@4          1002d40a f   ole32:ole32.dll
 0001:0002c410       _CoTaskMemRealloc@8        1002d410 f   ole32:ole32.dll
 0001:0002c416       _CoTaskMemFree@4           1002d416 f   ole32:ole32.dll
 0001:0002c41c       _ReadClassStm@8            1002d41c f   ole32:ole32.dll
 0001:0002c422       _WriteClassStm@8           1002d422 f   ole32:ole32.dll
 0001:0002c428       _CreateDataAdviseHolder@4  1002d428 f   ole32:ole32.dll
 0001:0002c42e       _OleSaveToStream@8         1002d42e f   ole32:ole32.dll
 0001:0002c434       _CreateOleAdviseHolder@4   1002d434 f   ole32:ole32.dll
 0001:0002c43a       _OleRegGetUserType@12      1002d43a f   ole32:ole32.dll
 0001:0002c440       _OleRegGetMiscStatus@12    1002d440 f   ole32:ole32.dll
 0001:0002c446       _OleRegEnumVerbs@8         1002d446 f   ole32:ole32.dll
 0001:0002c44c       _CLSIDFromProgID@8         1002d44c f   ole32:ole32.dll
 0001:0002c452       _SysAllocString@4          1002d452 f   oleaut32:OLEAUT32.dll
 0001:0002c458       _SysAllocStringLen@8       1002d458 f   oleaut32:OLEAUT32.dll
 0001:0002c45e       _SysFreeString@4           1002d45e f   oleaut32:OLEAUT32.dll
 0001:0002c464       _SysStringLen@4            1002d464 f   oleaut32:OLEAUT32.dll
 0001:0002c46a       _VariantClear@4            1002d46a f   oleaut32:OLEAUT32.dll
 0001:0002c470       _VariantCopyInd@8          1002d470 f   oleaut32:OLEAUT32.dll
 0001:0002c476       _VariantChangeType@16      1002d476 f   oleaut32:OLEAUT32.dll
 0001:0002c47c       _SysStringByteLen@4        1002d47c f   oleaut32:OLEAUT32.dll
 0001:0002c482       _SysAllocStringByteLen@8   1002d482 f   oleaut32:OLEAUT32.dll
 0001:0002c488       _VariantInit@4             1002d488 f   oleaut32:OLEAUT32.dll
 0001:0002c48e       _VarUI4FromStr@16          1002d48e f   oleaut32:OLEAUT32.dll
 0001:0002c494       _LoadTypeLib@8             1002d494 f   oleaut32:OLEAUT32.dll
 0001:0002c49a       _LoadRegTypeLib@20         1002d49a f   oleaut32:OLEAUT32.dll
 0001:0002c4a0       _RegisterTypeLib@12        1002d4a0 f   oleaut32:OLEAUT32.dll
 0001:0002c4a6       _UnRegisterTypeLib@20      1002d4a6 f   oleaut32:OLEAUT32.dll
 0001:0002c4ac       _OleCreatePropertyFrame@44 1002d4ac f   oleaut32:OLEAUT32.dll
 0001:0002c4c0       @_RTC_AllocaHelper@12      1002d4c0 f   LIBCMTD:stack.obj
 0001:0002c500       @_RTC_CheckStackVars2@12   1002d500 f   LIBCMTD:stack.obj
 0001:0002c5e0       @_RTC_CheckStackVars@8     1002d5e0 f   LIBCMTD:stack.obj
 0001:0002c640       __RTC_CheckEsp             1002d640 f   LIBCMTD:stack.obj
 0001:0002c680       @__security_check_cookie@4 1002d680 f   LIBCMTD:secchk.obj
 0001:0002c6a0       __CRT_RTC_INIT             1002d6a0 f   LIBCMTD:init.obj
 0001:0002c6b0       __CRT_RTC_INITW            1002d6b0 f   LIBCMTD:init.obj
 0001:0002c6c0       __RTC_InitBase             1002d6c0 f   LIBCMTD:init.obj
 0001:0002c6f0       __RTC_Shutdown             1002d6f0 f   LIBCMTD:init.obj
 0001:0002c710       ??_U@YAPAXI@Z              1002d710 f   LIBCMTD:new_array.obj
 0001:0002c730       ??3@YAXPAXI@Z              1002d730 f   LIBCMTD:delete_scalar_size.obj
 0001:0002c750       ??_V@YAXPAX@Z              1002d750 f   LIBCMTD:delete_array.obj
 0001:0002c770       ??_V@YAXPAXI@Z             1002d770 f   LIBCMTD:delete_array_size.obj
 0001:0002c790       ?configure_argv@__scrt_narrow_argv_policy@@SAHXZ 1002d790 f i LIBCMTD:utility.obj
 0001:0002c840       ?initialize_environment@__scrt_narrow_environment_policy@@SAHXZ 1002d840 f i LIBCMTD:utility.obj
 0001:0002c8c0       _NtCurrentTeb              1002d8c0 f i LIBCMTD:utility.obj
 0001:0002c8d0       ___scrt_acquire_startup_lock 1002d8d0 f   LIBCMTD:utility.obj
 0001:0002c920       ___scrt_dllmain_after_initialize_c 1002d920 f   LIBCMTD:utility.obj
 0001:0002c950       ___scrt_dllmain_before_initialize_c 1002d950 f   LIBCMTD:utility.obj
 0001:0002c970       ___scrt_dllmain_crt_thread_attach 1002d970 f   LIBCMTD:utility.obj
 0001:0002c9a0       ___scrt_dllmain_crt_thread_detach 1002d9a0 f   LIBCMTD:utility.obj
 0001:0002c9c0       ___scrt_dllmain_exception_filter 1002d9c0 f   LIBCMTD:utility.obj
 0001:0002ca10       ___scrt_dllmain_uninitialize_c 1002da10 f   LIBCMTD:utility.obj
 0001:0002ca40       ___scrt_dllmain_uninitialize_critical 1002da40 f   LIBCMTD:utility.obj
 0001:0002ca60       ___scrt_initialize_crt     1002da60 f   LIBCMTD:utility.obj
 0001:0002cab0       ___scrt_initialize_onexit_tables 1002dab0 f   LIBCMTD:utility.obj
 0001:0002cb90       ___scrt_is_nonwritable_in_current_image 1002db90 f   LIBCMTD:utility.obj
 0001:0002ccc0       ___scrt_release_startup_lock 1002dcc0 f   LIBCMTD:utility.obj
 0001:0002ccf0       ___scrt_uninitialize_crt   1002dcf0 f   LIBCMTD:utility.obj
 0001:0002cd30       __onexit                   1002dd30 f   LIBCMTD:utility.obj
 0001:0002cda0       _at_quick_exit             1002dda0 f   LIBCMTD:utility.obj
 0001:0002cde0       _atexit                    1002dde0 f   LIBCMTD:utility.obj
 0001:0002ce10       ??3@YAXPAX@Z               1002de10 f   LIBCMTD:delete_scalar.obj
 0001:0002ce30       ___raise_securityfailure   1002de30 f   LIBCMTD:gs_report.obj
 0001:0002ce60       ___report_gsfailure        1002de60 f   LIBCMTD:gs_report.obj
 0001:0002cf70       ___report_rangecheckfailure 1002df70 f   LIBCMTD:gs_report.obj
 0001:0002cf80       ___report_securityfailure  1002df80 f   LIBCMTD:gs_report.obj
 0001:0002d060       ___report_securityfailureEx 1002e060 f   LIBCMTD:gs_report.obj
 0001:0002d2b0       __Init_thread_abort        1002e2b0 f   LIBCMTD:thread_safe_statics.obj
 0001:0002d2d0       __Init_thread_footer       1002e2d0 f   LIBCMTD:thread_safe_statics.obj
 0001:0002d320       __Init_thread_header       1002e320 f   LIBCMTD:thread_safe_statics.obj
 0001:0002d390       __Init_thread_lock         1002e390 f   LIBCMTD:thread_safe_statics.obj
 0001:0002d3a0       __Init_thread_notify       1002e3a0 f   LIBCMTD:thread_safe_statics.obj
 0001:0002d3f0       __Init_thread_unlock       1002e3f0 f   LIBCMTD:thread_safe_statics.obj
 0001:0002d400       __Init_thread_wait         1002e400 f   LIBCMTD:thread_safe_statics.obj
 0001:0002d490       ??2@YAPAXIABUnothrow_t@std@@@Z 1002e490 f   LIBCMTD:new_scalar_nothrow.obj
 0001:0002d510       ??_U@YAPAXIABUnothrow_t@std@@@Z 1002e510 f   LIBCMTD:new_array_nothrow.obj
 0001:0002d530       __allmul                   1002e530 f   LIBCMTD:llmul.obj
 0001:0002d570       __alloca_probe_16          1002e570 f   LIBCMTD:alloca16.obj
 0001:0002d586       __alloca_probe_8           1002e586     LIBCMTD:alloca16.obj
 0001:0002d5a0       __chkstk                   1002e5a0 f   LIBCMTD:chkstk.obj
 0001:0002d5a0       __alloca_probe             1002e5a0 f   LIBCMTD:chkstk.obj
 0001:0002daa0       __CRT_INIT@12              1002eaa0 f   LIBCMTD:dll_dllmain.obj
 0001:0002dac0       __DllMainCRTStartup@12     1002eac0 f   LIBCMTD:dll_dllmain.obj
 0001:0002db80       ?_RTC_AllocaFailure@@YAXPAXPAU_RTC_ALLOCA_NODE@@H@Z 1002eb80 f   LIBCMTD:error.obj
 0001:0002dc70       ?_RTC_Failure@@YAXPAXH@Z   1002ec70 f   LIBCMTD:error.obj
 0001:0002dcc0       ?_RTC_StackFailure@@YAXPAXPBD@Z 1002ecc0 f   LIBCMTD:error.obj
 0001:0002e080       __RTC_UninitUse            1002f080 f   LIBCMTD:error.obj
 0001:0002e130       __vsprintf_s_l             1002f130 f i LIBCMTD:error.obj
 0001:0002e160       _sprintf_s                 1002f160 f i LIBCMTD:error.obj
 0001:0002e180       ?_RTC_GetErrorFunc@@YAP6AHHPBDH00ZZPBX@Z 1002f180 f   LIBCMTD:userapi.obj
 0001:0002e190       ?_RTC_GetErrorFuncW@@YAP6AHHPB_WH00ZZPBX@Z 1002f190 f   LIBCMTD:userapi.obj
 0001:0002e1a0       __RTC_GetErrDesc           1002f1a0 f   LIBCMTD:userapi.obj
 0001:0002e1c0       __RTC_NumErrors            1002f1c0 f   LIBCMTD:userapi.obj
 0001:0002e1d0       __RTC_SetErrorFunc         1002f1d0 f   LIBCMTD:userapi.obj
 0001:0002e1f0       __RTC_SetErrorFuncW        1002f1f0 f   LIBCMTD:userapi.obj
 0001:0002e210       __RTC_SetErrorType         1002f210 f   LIBCMTD:userapi.obj
 0001:0002e240       ??2@YAPAXI@Z               1002f240 f   LIBCMTD:new_scalar.obj
 0001:0002e290       ___isa_available_init      1002f290 f   LIBCMTD:cpu_disp.obj
 0001:0002e5d0       __get_startup_argv_mode    1002f5d0 f   LIBCMTD:argv_mode.obj
 0001:0002e5e0       ___scrt_is_ucrt_dll_in_use 1002f5e0 f   LIBCMTD:ucrt_detection.obj
 0001:0002e610       ___scrt_fastfail           1002f610 f   LIBCMTD:utility_desktop.obj
 0001:0002e750       ___scrt_get_show_window_mode 1002f750 f   LIBCMTD:utility_desktop.obj
 0001:0002e790       ___scrt_initialize_mta     1002f790 f   LIBCMTD:utility_desktop.obj
 0001:0002e7a0       ___scrt_initialize_winrt   1002f7a0 f   LIBCMTD:utility_desktop.obj
 0001:0002e7b0       ___scrt_is_managed_app     1002f7b0 f   LIBCMTD:utility_desktop.obj
 0001:0002e840       ___scrt_set_unhandled_exception_filter 1002f840 f   LIBCMTD:utility_desktop.obj
 0001:0002e850       ___scrt_exe_initialize_mta 1002f850 f   LIBCMTD:utility_desktop.obj
 0001:0002e850       ___scrt_stub_for_initialize_mta 1002f850 f   LIBCMTD:utility_desktop.obj
 0001:0002e860       ___scrt_unhandled_exception_filter@4 1002f860 f   LIBCMTD:utility_desktop.obj
 0001:0002e8e0       __crt_debugger_hook        1002f8e0 f   LIBCMTD:utility_desktop.obj
 0001:0002e8f0       @_guard_check_icall_nop@4  1002f8f0 f i LIBCMTD:guard_support.obj
 0001:0002e900       _ReadNoFence               1002f900 f i LIBCMTD:guard_support.obj
 0001:0002e920       _ReadPointerNoFence        1002f920 f i LIBCMTD:guard_support.obj
 0001:0002e940       __guard_icall_checks_enforced 1002f940 f i LIBCMTD:guard_support.obj
 0001:0002e9e0       ___security_init_cookie    1002f9e0 f   LIBCMTD:gs_support.obj
 0001:0002ea60       ?__scrt_initialize_type_info@@YAXXZ 1002fa60 f   LIBCMTD:tncleanup.obj
 0001:0002ea70       ?__scrt_uninitialize_type_info@@YAXXZ 1002fa70 f   LIBCMTD:tncleanup.obj
 0001:0002ea90       ___local_stdio_scanf_options 1002fa90 f i LIBCMTD:default_local_stdio_options.obj
 0001:0002eaa0       ___scrt_initialize_default_local_stdio_options 1002faa0 f   LIBCMTD:default_local_stdio_options.obj
 0001:0002eae0       ___scrt_get_dyn_tls_init_callback 1002fae0 f   LIBCMTD:dyn_tls_init.obj
 0001:0002eaf0       __RTC_Initialize           1002faf0 f   LIBCMTD:initsect.obj
 0001:0002eb20       __RTC_Terminate            1002fb20 f   LIBCMTD:initsect.obj
 0001:0002efd0       ?_RTC_GetSrcLine@@YAHPAEPA_WKPAH1K@Z 1002ffd0 f   LIBCMTD:pdblkup.obj
 0001:0002f350       __except_handler4_noexcept 10030350 f   LIBCMTD:chandler4_noexcept.obj
 0001:0002f3b0       ??0bad_alloc@std@@AAE@QBD@Z 100303b0 f i LIBCMTD:throw_bad_alloc.obj
 0001:0002f3e0       ??0bad_alloc@std@@QAE@ABV01@@Z 100303e0 f i LIBCMTD:throw_bad_alloc.obj
 0001:0002f410       ??0bad_alloc@std@@QAE@XZ   10030410 f i LIBCMTD:throw_bad_alloc.obj
 0001:0002f440       ??0bad_array_new_length@std@@QAE@ABV01@@Z 10030440 f i LIBCMTD:throw_bad_alloc.obj
 0001:0002f470       ??0bad_array_new_length@std@@QAE@XZ 10030470 f i LIBCMTD:throw_bad_alloc.obj
 0001:0002f4a0       ??0exception@std@@QAE@ABV01@@Z 100304a0 f i LIBCMTD:throw_bad_alloc.obj
 0001:0002f4e0       ??0exception@std@@QAE@QBDH@Z 100304e0 f i LIBCMTD:throw_bad_alloc.obj
 0001:0002f510       ??1bad_alloc@std@@UAE@XZ   10030510 f i LIBCMTD:throw_bad_alloc.obj
 0001:0002f530       ??1bad_array_new_length@std@@UAE@XZ 10030530 f i LIBCMTD:throw_bad_alloc.obj
 0001:0002f550       ??1exception@std@@UAE@XZ   10030550 f i LIBCMTD:throw_bad_alloc.obj
 0001:0002f580       ??_Gbad_alloc@std@@UAEPAXI@Z 10030580 f i LIBCMTD:throw_bad_alloc.obj
 0001:0002f580       ??_Ebad_alloc@std@@UAEPAXI@Z 10030580 f i LIBCMTD:throw_bad_alloc.obj
 0001:0002f5b0       ??_Ebad_array_new_length@std@@UAEPAXI@Z 100305b0 f i LIBCMTD:throw_bad_alloc.obj
 0001:0002f5b0       ??_Gbad_array_new_length@std@@UAEPAXI@Z 100305b0 f i LIBCMTD:throw_bad_alloc.obj
 0001:0002f5e0       ??_Eexception@std@@UAEPAXI@Z 100305e0 f i LIBCMTD:throw_bad_alloc.obj
 0001:0002f5e0       ??_Gexception@std@@UAEPAXI@Z 100305e0 f i LIBCMTD:throw_bad_alloc.obj
 0001:0002f610       ?__scrt_throw_std_bad_alloc@@YAXXZ 10030610 f   LIBCMTD:throw_bad_alloc.obj
 0001:0002f630       ?__scrt_throw_std_bad_array_new_length@@YAXXZ 10030630 f   LIBCMTD:throw_bad_alloc.obj
 0001:0002f650       ?what@exception@std@@UBEPBDXZ 10030650 f i LIBCMTD:throw_bad_alloc.obj
 0001:0002f680       ??1type_info@@UAE@XZ       10030680 f   LIBCMTD:std_type_info_static.obj
 0001:0002f6a0       ??_Etype_info@@UAEPAXI@Z   100306a0 f i LIBCMTD:std_type_info_static.obj
 0001:0002f6a0       ??_Gtype_info@@UAEPAXI@Z   100306a0 f i LIBCMTD:std_type_info_static.obj
 0001:0002f6ce       ??$?2PAUHINSTANCE__@@@Wrapper@?$CSimpleArray@PAUHINSTANCE__@@V?$CSimpleArrayEqualHelper@PAUHINSTANCE__@@@ATL@@@ATL@@SAPAXIPAPAUHINSTANCE__@@@Z 100306ce f i atls:atlbase.obj
 0001:0002f6d6       ??0?$CSimpleArray@PAUHINSTANCE__@@V?$CSimpleArrayEqualHelper@PAUHINSTANCE__@@@ATL@@@ATL@@QAE@XZ 100306d6 f i atls:atlbase.obj
 0001:0002f6e3       ??0CAtlBaseModule@ATL@@QAE@XZ 100306e3 f   atls:atlbase.obj
 0001:0002f736       ??0Wrapper@?$CSimpleArray@PAUHINSTANCE__@@V?$CSimpleArrayEqualHelper@PAUHINSTANCE__@@@ATL@@@ATL@@QAE@ABQAUHINSTANCE__@@@Z 10030736 f i atls:atlbase.obj
 0001:0002f746       ??0_ATL_BASE_MODULE70@ATL@@QAE@XZ 10030746 f i atls:atlbase.obj
 0001:0002f769       ??1?$CSimpleArray@PAUHINSTANCE__@@V?$CSimpleArrayEqualHelper@PAUHINSTANCE__@@@ATL@@@ATL@@QAE@XZ 10030769 f i atls:atlbase.obj
 0001:0002f76e       ??1CAtlBaseModule@ATL@@QAE@XZ 1003076e f   atls:atlbase.obj
 0001:0002f784       ??1_ATL_BASE_MODULE70@ATL@@QAE@XZ 10030784 f i atls:atlbase.obj
 0001:0002f78c       ??A?$CSimpleArray@PAUHINSTANCE__@@V?$CSimpleArrayEqualHelper@PAUHINSTANCE__@@@ATL@@@ATL@@QAEAAPAUHINSTANCE__@@H@Z 1003078c f i atls:atlbase.obj
 0001:0002f7b1       ?Add@?$CSimpleArray@PAUHINSTANCE__@@V?$CSimpleArrayEqualHelper@PAUHINSTANCE__@@@ATL@@@ATL@@QAEHABQAUHINSTANCE__@@@Z 100307b1 f i atls:atlbase.obj
 0001:0002f833       ?AddResourceInstance@CAtlBaseModule@ATL@@QAE_NPAUHINSTANCE__@@@Z 10030833 f   atls:atlbase.obj
 0001:0002f866       ?GetHInstanceAt@CAtlBaseModule@ATL@@QAEPAUHINSTANCE__@@H@Z 10030866 f   atls:atlbase.obj
 0001:0002f8ab       ?GetSize@?$CSimpleArray@PAUHINSTANCE__@@V?$CSimpleArrayEqualHelper@PAUHINSTANCE__@@@ATL@@@ATL@@QBEHXZ 100308ab f i atls:atlbase.obj
 0001:0002f8af       ?InternalSetAtIndex@?$CSimpleArray@PAUHINSTANCE__@@V?$CSimpleArrayEqualHelper@PAUHINSTANCE__@@@ATL@@@ATL@@QAEXHABQAUHINSTANCE__@@@Z 100308af f i atls:atlbase.obj
 0001:0002f8c9       ?RemoveAll@?$CSimpleArray@PAUHINSTANCE__@@V?$CSimpleArrayEqualHelper@PAUHINSTANCE__@@@ATL@@@ATL@@QAEXXZ 100308c9 f i atls:atlbase.obj
 0001:0002f8e6       ?RemoveAt@?$CSimpleArray@PAUHINSTANCE__@@V?$CSimpleArrayEqualHelper@PAUHINSTANCE__@@@ATL@@@ATL@@QAEHH@Z 100308e6 f i atls:atlbase.obj
 0001:0002f934       ?RemoveResourceInstance@CAtlBaseModule@ATL@@QAE_NPAUHINSTANCE__@@@Z 10030934 f   atls:atlbase.obj
 0001:0002f991       ?memmove_s@Checked@ATL@@YAXPAXIPBXI@Z 10030991 f i atls:atlbase.obj
 0001:0002fcee       ?GetCodeAddress@_stdcallthunk@ATL@@QAEPAXXZ 10030cee f i atls:atlthunk.obj
 0001:0002fd18       ?Init@_stdcallthunk@ATL@@QAEHKPAX@Z 10030d18 f i atls:atlthunk.obj
 0001:0002fd4d       ?__AllocStdCallThunk@@YGPAXXZ 10030d4d f   atls:atlthunk.obj
 0001:0002fd52       ?__AllocStdCallThunk@ATL@@YGPAXXZ 10030d52 f   atls:atlthunk.obj
 0001:0002fd57       ?__AllocStdCallThunk_cmn@@YAPAXXZ 10030d57 f   atls:atlthunk.obj
 0001:0002fe1d       ?__FreeStdCallThunk@@YGXPAX@Z 10030e1d f   atls:atlthunk.obj
 0001:0002fe2d       ?__FreeStdCallThunk@ATL@@YGXPAX@Z 10030e2d f   atls:atlthunk.obj
 0001:0002fe3d       ?__FreeStdCallThunk_cmn@@YAXPAX@Z 10030e3d f   atls:atlthunk.obj
 0001:0002fed8       _AtlThunk_AllocateData@0   10030ed8 f   atls:atlthunk.obj
 0001:0002ff3d       _AtlThunk_DataToCode@4     10030f3d f   atls:atlthunk.obj
 0001:0002ff84       _AtlThunk_FreeData@4       10030f84 f   atls:atlthunk.obj
 0001:0002ffda       _AtlThunk_InitData@12      10030fda f   atls:atlthunk.obj
 0001:00030029       _MemoryBarrier             10031029 f i atls:atlthunk.obj
 0001:00030037       __InlineInterlockedCompareExchangePointer 10031037 f i atls:atlthunk.obj
 0001:00030050       _memset                    10031050 f   libvcruntimed:memset.obj
 0001:000301b0       ??$__crt_interlocked_exchange_pointer@$$A6AXXZP6AXXZ@@YAP6AXXZPDS6AXXZQ6AXXZ@Z 100311b0 f i libvcruntimed:purevirt.obj
 0001:000301c0       ??$__crt_interlocked_read_pointer@$$A6AXXZ@@YAP6AXXZPDS6AXXZ@Z 100311c0 f i libvcruntimed:purevirt.obj
 0001:000301e0       ?__crt_interlocked_read_32@@YAHPDH@Z 100311e0 f i libvcruntimed:purevirt.obj
 0001:00030200       __get_purecall_handler     10031200 f   libvcruntimed:purevirt.obj
 0001:00030220       __purecall                 10031220 f   libvcruntimed:purevirt.obj
 0001:00030250       __set_purecall_handler     10031250 f   libvcruntimed:purevirt.obj
 0001:00030420       _memcmp                    10031420 f   libvcruntimed:memcmp.obj
 0001:00030cf0       _memcpy                    10031cf0 f   libvcruntimed:memcpy.obj
 0001:00031270       _wcsstr                    10032270 f   libvcruntimed:wcsstr.obj
 0001:000317a0       __except_handler4          100327a0 f   libvcruntimed:chandler4.obj
 0001:00031990       ___vcrt_initialize         10032990 f   libvcruntimed:initialization.obj
 0001:000319d0       ___vcrt_thread_attach      100329d0 f   libvcruntimed:initialization.obj
 0001:000319f0       ___vcrt_thread_detach      100329f0 f   libvcruntimed:initialization.obj
 0001:00031a10       ___vcrt_uninitialize       10032a10 f   libvcruntimed:initialization.obj
 0001:00031a30       ___vcrt_uninitialize_critical 10032a30 f   libvcruntimed:initialization.obj
 0001:00031a50       ??$?0AAViterator@TryBlockMap@__FrameHandler3@@AAV012@$0A@@?$pair@Viterator@TryBlockMap@__FrameHandler3@@V123@@std@@QAE@AAViterator@TryBlockMap@__FrameHandler3@@0@Z 10032a50 f i libvcruntimed:trnsctrl.obj
 0001:00031aa0       ??$forward@AAViterator@TryBlockMap@__FrameHandler3@@@std@@YAAAViterator@TryBlockMap@__FrameHandler3@@AAV123@@Z 10032aa0 f i libvcruntimed:trnsctrl.obj
 0001:00031ab0       ??0iterator@TryBlockMap@__FrameHandler3@@QAE@AAV12@I@Z 10032ab0 f i libvcruntimed:trnsctrl.obj
 0001:00031ae0       ?GetRangeOfTrysToCheck@__FrameHandler3@@SA?AU?$pair@Viterator@TryBlockMap@__FrameHandler3@@V123@@std@@AAVTryBlockMap@1@HPAXPBU_s_FuncInfo@@H@Z 10032ae0 f   libvcruntimed:trnsctrl.obj
 0001:00031bc0       ?_CallCatchBlock2@@YAPAXPAUEHRegistrationNode@@PBU_s_FuncInfo@@PAXHK@Z 10032bc0 f   libvcruntimed:trnsctrl.obj
 0001:00031c30       ?_CallSETranslator@@YAHPAUEHExceptionRecord@@PAUEHRegistrationNode@@PAX2PBU_s_FuncInfo@@H1@Z 10032c30 f   libvcruntimed:trnsctrl.obj
 0001:00031d30       ?_JumpToContinuation@@YGXPAXPAUEHRegistrationNode@@@Z 10032d30 f   libvcruntimed:trnsctrl.obj
 0001:00031d70       ?_UnwindNestedFrames@@YGXPAUEHRegistrationNode@@PAUEHExceptionRecord@@@Z 10032d70 f   libvcruntimed:trnsctrl.obj
 0001:00031dd0       __CatchGuardHandler        10032dd0 f   libvcruntimed:trnsctrl.obj
 0001:00031e20       __CreateFrameInfo          10032e20 f   libvcruntimed:trnsctrl.obj
 0001:00031e50       __FindAndUnlinkFrame       10032e50 f   libvcruntimed:trnsctrl.obj
 0001:00031ec0       __TranslatorGuardHandler   10032ec0 f   libvcruntimed:trnsctrl.obj
 0001:00031f70       ___CxxFrameHandler         10032f70 f   libvcruntimed:trnsctrl.obj
 0001:00031fb0       ___CxxFrameHandler2        10032fb0 f   libvcruntimed:trnsctrl.obj
 0001:00031ff0       ___CxxFrameHandler3        10032ff0 f   libvcruntimed:trnsctrl.obj
 0001:00032030       ___CxxLongjmpUnwind@4      10033030 f   libvcruntimed:trnsctrl.obj
 0001:00032070       ___DestructExceptionObject 10033070 f   libvcruntimed:ehhelpers.obj
 0001:00032190       ?_CallMemberFunction0@@YGXQAX0@Z 10033190 f i libvcruntimed:ehhelpers.obj
 0001:00032230       ?raw_name@type_info@@QBEPBDXZ 10033230 f i libvcruntimed:ehhelpers.obj
 0001:00032250       __IsExceptionObjectToBeDestroyed 10033250 f   libvcruntimed:ehhelpers.obj
 0001:00032290       __SetWinRTOutOfMemoryExceptionCallback 10033290 f   libvcruntimed:ehhelpers.obj
 0001:000322a0       ___AdjustPointer           100332a0 f   libvcruntimed:ehhelpers.obj
 0001:000322f0       ___FrameUnwindFilter       100332f0 f   libvcruntimed:ehhelpers.obj
 0001:00032380       ___GetPlatformExceptionInfo 10033380 f   libvcruntimed:ehhelpers.obj
 0001:00032400       ___current_exception       10033400 f   libvcruntimed:ehhelpers.obj
 0001:00032410       ___current_exception_context 10033410 f   libvcruntimed:ehhelpers.obj
 0001:00032420       ___processing_throw        10033420 f   libvcruntimed:ehhelpers.obj
 0001:00032430       ___std_terminate           10033430 f   libvcruntimed:ehhelpers.obj
 0001:00032440       __is_exception_typeof      10033440 f   libvcruntimed:ehhelpers.obj
 0001:00032540       ??$?RD@__crt_internal_free_policy@@QBEXQBD@Z 10033540 f i libvcruntimed:std_type_info.obj
 0001:00032560       ??$?RX@__crt_internal_free_policy@@QBEXQBX@Z 10033560 f i libvcruntimed:std_type_info.obj
 0001:00032580       ??$__crt_interlocked_compare_exchange_pointer@$$CBDPAD$$T@@YAPBDPDSBDQAD$$T@Z 10033580 f i libvcruntimed:std_type_info.obj
 0001:000325a0       ??$__crt_interlocked_read_pointer@$$CBD@@YAPBDPDSBD@Z 100335a0 f i libvcruntimed:std_type_info.obj
 0001:000325c0       ??0?$__crt_unique_heap_ptr@DU__crt_internal_free_policy@@@@QAE@QAD@Z 100335c0 f i libvcruntimed:std_type_info.obj
 0001:000325e0       ??0?$__crt_unique_heap_ptr@XU__crt_internal_free_policy@@@@QAE@QAX@Z 100335e0 f i libvcruntimed:std_type_info.obj
 0001:00032600       ??1?$__crt_unique_heap_ptr@DU__crt_internal_free_policy@@@@QAE@XZ 10033600 f i libvcruntimed:std_type_info.obj
 0001:00032620       ??1?$__crt_unique_heap_ptr@XU__crt_internal_free_policy@@@@QAE@XZ 10033620 f i libvcruntimed:std_type_info.obj
 0001:00032640       ??B?$__crt_unique_heap_ptr@DU__crt_internal_free_policy@@@@QBE_NXZ 10033640 f i libvcruntimed:std_type_info.obj
 0001:00032660       ??B?$__crt_unique_heap_ptr@XU__crt_internal_free_policy@@@@QBE_NXZ 10033660 f i libvcruntimed:std_type_info.obj
 0001:000326f0       ?detach@?$__crt_unique_heap_ptr@XU__crt_internal_free_policy@@@@QAEPAXXZ 100336f0 f i libvcruntimed:std_type_info.obj
 0001:00032720       ?get@?$__crt_unique_heap_ptr@DU__crt_internal_free_policy@@@@QBEPADXZ 10033720 f i libvcruntimed:std_type_info.obj
 0001:00032730       ?get@?$__crt_unique_heap_ptr@XU__crt_internal_free_policy@@@@QBEPAXXZ 10033730 f i libvcruntimed:std_type_info.obj
 0001:00032740       ?is_valid@?$__crt_unique_heap_ptr@DU__crt_internal_free_policy@@@@QBE_NXZ 10033740 f i libvcruntimed:std_type_info.obj
 0001:00032770       ?is_valid@?$__crt_unique_heap_ptr@XU__crt_internal_free_policy@@@@QBE_NXZ 10033770 f i libvcruntimed:std_type_info.obj
 0001:000327a0       ?release@?$__crt_unique_heap_ptr@DU__crt_internal_free_policy@@@@QAEXXZ 100337a0 f i libvcruntimed:std_type_info.obj
 0001:000327d0       ?release@?$__crt_unique_heap_ptr@XU__crt_internal_free_policy@@@@QAEXXZ 100337d0 f i libvcruntimed:std_type_info.obj
 0001:00032800       ___std_type_info_compare   10033800 f   libvcruntimed:std_type_info.obj
 0001:00032830       ___std_type_info_destroy_list 10033830 f   libvcruntimed:std_type_info.obj
 0001:00032870       ___std_type_info_hash      10033870 f   libvcruntimed:std_type_info.obj
 0001:000328d0       ___std_type_info_name      100338d0 f   libvcruntimed:std_type_info.obj
 0001:00032ab0       ___vcrt_GetModuleFileNameW 10033ab0 f   libvcruntimed:winapi_thunks.obj
 0001:00032ad0       ___vcrt_GetModuleHandleW   10033ad0 f   libvcruntimed:winapi_thunks.obj
 0001:00032ae0       ___vcrt_LoadLibraryExW     10033ae0 f   libvcruntimed:winapi_thunks.obj
 0001:00032b00       ??$?RD@__crt_public_free_policy@@QBEXQBD@Z 10033b00 f i libvcruntimed:std_exception.obj
 0001:00032b20       ??0?$__crt_unique_heap_ptr@DU__crt_public_free_policy@@@@QAE@QAD@Z 10033b20 f i libvcruntimed:std_exception.obj
 0001:00032b40       ??1?$__crt_unique_heap_ptr@DU__crt_public_free_policy@@@@QAE@XZ 10033b40 f i libvcruntimed:std_exception.obj
 0001:00032b60       ??B?$__crt_unique_heap_ptr@DU__crt_public_free_policy@@@@QBE_NXZ 10033b60 f i libvcruntimed:std_exception.obj
 0001:00032b80       ?detach@?$__crt_unique_heap_ptr@DU__crt_public_free_policy@@@@QAEPADXZ 10033b80 f i libvcruntimed:std_exception.obj
 0001:00032bb0       ?get@?$__crt_unique_heap_ptr@DU__crt_public_free_policy@@@@QBEPADXZ 10033bb0 f i libvcruntimed:std_exception.obj
 0001:00032bc0       ?is_valid@?$__crt_unique_heap_ptr@DU__crt_public_free_policy@@@@QBE_NXZ 10033bc0 f i libvcruntimed:std_exception.obj
 0001:00032bf0       ?release@?$__crt_unique_heap_ptr@DU__crt_public_free_policy@@@@QAEXXZ 10033bf0 f i libvcruntimed:std_exception.obj
 0001:00032c20       ___std_exception_copy      10033c20 f   libvcruntimed:std_exception.obj
 0001:00032d10       ___std_exception_destroy   10033d10 f   libvcruntimed:std_exception.obj
 0001:00032d40       __CxxThrowException@8      10033d40 f   libvcruntimed:throw.obj
 0001:00032df0       _memmove                   10033df0 f   libvcruntimed:memmove.obj
 0001:00033370       __local_unwind4            10034370 f   libvcruntimed:exsup4.obj
 0001:00033448       __seh_longjmp_unwind4@4    10034448 f   libvcruntimed:exsup4.obj
 0001:00033470       @_EH4_CallFilterFunc@8     10034470 f   libvcruntimed:exsup4.obj
 0001:00033488       @_EH4_TransferToHandler@8  10034488 f   libvcruntimed:exsup4.obj
 0001:000334a4       @_EH4_GlobalUnwind2@8      100344a4 f   libvcruntimed:exsup4.obj
 0001:000334c0       @_EH4_LocalUnwind@16       100344c0 f   libvcruntimed:exsup4.obj
 0001:000334f0       ___except_validate_context_record 100344f0 f   libvcruntimed:jbcxrval.obj
 0001:00033540       ___except_validate_jump_buffer 10034540 f   libvcruntimed:jbcxrval.obj
 0001:00033560       ___except_validate_jump_buffer_common 10034560 f i libvcruntimed:jbcxrval.obj
 0001:000335c0       ??$?RU__vcrt_ptd@@@__crt_internal_free_policy@@QBEXQBU__vcrt_ptd@@@Z 100345c0 f i libvcruntimed:per_thread_data.obj
 0001:000335e0       ??0?$__crt_unique_heap_ptr@U__vcrt_ptd@@U__crt_internal_free_policy@@@@QAE@QAU__vcrt_ptd@@@Z 100345e0 f i libvcruntimed:per_thread_data.obj
 0001:00033620       ??1?$__crt_unique_heap_ptr@U__vcrt_ptd@@U__crt_internal_free_policy@@@@QAE@XZ 10034620 f i libvcruntimed:per_thread_data.obj
 0001:00033660       ??B?$__crt_unique_heap_ptr@U__vcrt_ptd@@U__crt_internal_free_policy@@@@QBE_NXZ 10034660 f i libvcruntimed:per_thread_data.obj
 0001:00033680       ?detach@?$__crt_unique_heap_ptr@U__vcrt_ptd@@U__crt_internal_free_policy@@@@QAEPAU__vcrt_ptd@@XZ 10034680 f i libvcruntimed:per_thread_data.obj
 0001:000336b0       ?get@?$__crt_unique_heap_ptr@U__vcrt_ptd@@U__crt_internal_free_policy@@@@QBEPAU__vcrt_ptd@@XZ 100346b0 f i libvcruntimed:per_thread_data.obj
 0001:000336c0       ?is_valid@?$__crt_unique_heap_ptr@U__vcrt_ptd@@U__crt_internal_free_policy@@@@QBE_NXZ 100346c0 f i libvcruntimed:per_thread_data.obj
 0001:000336f0       ?release@?$__crt_unique_heap_ptr@U__vcrt_ptd@@U__crt_internal_free_policy@@@@QAEXXZ 100346f0 f i libvcruntimed:per_thread_data.obj
 0001:00033750       ___vcrt_freefls@4          10034750 f   libvcruntimed:per_thread_data.obj
 0001:00033780       ___vcrt_freeptd            10034780 f   libvcruntimed:per_thread_data.obj
 0001:000337e0       ___vcrt_getptd             100347e0 f   libvcruntimed:per_thread_data.obj
 0001:00033800       ___vcrt_getptd_noexit      10034800 f   libvcruntimed:per_thread_data.obj
 0001:00033960       ___vcrt_getptd_noinit      10034960 f   libvcruntimed:per_thread_data.obj
 0001:000339c0       ___vcrt_initialize_ptd     100349c0 f   libvcruntimed:per_thread_data.obj
 0001:00033a10       ___vcrt_uninitialize_ptd   10034a10 f   libvcruntimed:per_thread_data.obj
 0001:00033a40       ___vcrt_initialize_locks   10034a40 f   libvcruntimed:locks.obj
 0001:00033aa0       ___vcrt_lock               10034aa0 f   libvcruntimed:locks.obj
 0001:00033ac0       ___vcrt_uninitialize_locks 10034ac0 f   libvcruntimed:locks.obj
 0001:00033b10       ___vcrt_unlock             10034b10 f   libvcruntimed:locks.obj
 0001:000346a0       ??$TypeMatchHelper@V__FrameHandler3@@@@YAHPBU_s_HandlerType@@PBU_s_CatchableType@@PBU_s_ThrowInfo@@@Z 100356a0 f i libvcruntimed:frame.obj
 0001:00034780       ??$__InternalCxxFrameHandler@V__FrameHandler3@@@@YA?AW4_EXCEPTION_DISPOSITION@@PAUEHExceptionRecord@@PAUEHRegistrationNode@@PAU_CONTEXT@@PAXPBU_s_FuncInfo@@H1E@Z 10035780 f i libvcruntimed:frame.obj
 0001:00034940       ??0HandlerMap@__FrameHandler3@@QAE@PBU_s_TryBlockMapEntry@@II@Z 10035940 f i libvcruntimed:frame.obj
 0001:00034970       ??0TryBlockMap@__FrameHandler3@@QAE@PBU_s_FuncInfo@@I@Z 10035970 f i libvcruntimed:frame.obj
 0001:000349a0       ??0bad_exception@std@@QAE@ABV01@@Z 100359a0 f i libvcruntimed:frame.obj
 0001:000349d0       ??0bad_exception@std@@QAE@XZ 100359d0 f i libvcruntimed:frame.obj
 0001:00034a00       ??0iterator@HandlerMap@__FrameHandler3@@QAE@AAV12@I@Z 10035a00 f i libvcruntimed:frame.obj
 0001:00034a30       ??1bad_exception@std@@UAE@XZ 10035a30 f i libvcruntimed:frame.obj
 0001:00034a50       ??8iterator@HandlerMap@__FrameHandler3@@QBE_NABV012@@Z 10035a50 f i libvcruntimed:frame.obj
 0001:00034a80       ??8type_info@@QBE_NABV0@@Z 10035a80 f i libvcruntimed:frame.obj
 0001:00034ac0       ??9iterator@HandlerMap@__FrameHandler3@@QBE_NABV012@@Z 10035ac0 f i libvcruntimed:frame.obj
 0001:00034b00       ??Diterator@HandlerMap@__FrameHandler3@@QAE?BU_s_HandlerType@@XZ 10035b00 f i libvcruntimed:frame.obj
 0001:00034b40       ??Diterator@TryBlockMap@__FrameHandler3@@QAE?BU_s_TryBlockMapEntry@@XZ 10035b40 f i libvcruntimed:frame.obj
 0001:00034b90       ??Eiterator@HandlerMap@__FrameHandler3@@QAEAAV012@XZ 10035b90 f i libvcruntimed:frame.obj
 0001:00034bb0       ??Eiterator@TryBlockMap@__FrameHandler3@@QAEAAV012@XZ 10035bb0 f i libvcruntimed:frame.obj
 0001:00034bd0       ??Miterator@TryBlockMap@__FrameHandler3@@QBE_NABV012@@Z 10035bd0 f i libvcruntimed:frame.obj
 0001:00034c00       ??_Gbad_exception@std@@UAEPAXI@Z 10035c00 f i libvcruntimed:frame.obj
 0001:00034c00       ??_Ebad_exception@std@@UAEPAXI@Z 10035c00 f i libvcruntimed:frame.obj
 0001:00034c30       ?BuildCatchObject@__FrameHandler3@@SAXPAUEHExceptionRecord@@PAXPBU_s_HandlerType@@PBU_s_CatchableType@@@Z 10035c30 f   libvcruntimed:frame.obj
 0001:00034c50       ?BuildCatchObjectHelper@__FrameHandler3@@SAHPAUEHExceptionRecord@@PAXPBU_s_HandlerType@@PBU_s_CatchableType@@@Z 10035c50 f   libvcruntimed:frame.obj
 0001:00034ff0       ?FrameUnwindToEmptyState@__FrameHandler3@@SAXPAUEHRegistrationNode@@PAXPBU_s_FuncInfo@@@Z 10035ff0 f   libvcruntimed:frame.obj
 0001:00035010       ?FrameUnwindToState@__FrameHandler3@@SAXPAUEHRegistrationNode@@PAXPBU_s_FuncInfo@@H@Z 10036010 f   libvcruntimed:frame.obj
 0001:00035190       ?GetMaxState@__FrameHandler3@@SAHPAXPBU_s_FuncInfo@@@Z 10036190 f i libvcruntimed:frame.obj
 0001:000352b0       ?TypeMatch@__FrameHandler3@@SAHPBU_s_HandlerType@@PBU_s_CatchableType@@PBU_s_ThrowInfo@@@Z 100362b0 f   libvcruntimed:frame.obj
 0001:000352d0       ?_CallMemberFunction1@@YGXQAX00@Z 100362d0 f i libvcruntimed:frame.obj
 0001:00035300       ?_CallMemberFunction2@@YGXQAX00H@Z 10036300 f i libvcruntimed:frame.obj
 0001:00035330       ?begin@HandlerMap@__FrameHandler3@@QAE?AViterator@12@XZ 10036330 f i libvcruntimed:frame.obj
 0001:00035350       ?end@HandlerMap@__FrameHandler3@@QAE?AViterator@12@XZ 10036350 f i libvcruntimed:frame.obj
 0001:00035380       ?getESTypes@__FrameHandler3@@SAPBU_s_ESTypeList@@PBU_s_FuncInfo@@@Z 10036380 f i libvcruntimed:frame.obj
 0001:00035390       ?getLastEntry@HandlerMap@__FrameHandler3@@QAEPBU_s_HandlerType@@XZ 10036390 f i libvcruntimed:frame.obj
 0001:000353b0       ?getMagicNum@__FrameHandler3@@SAIPBU_s_FuncInfo@@@Z 100363b0 f i libvcruntimed:frame.obj
 0001:000353c0       ?getNumTryBlocks@TryBlockMap@__FrameHandler3@@QAEIXZ 100363c0 f i libvcruntimed:frame.obj
 0001:000353e0       ?isEHs@__FrameHandler3@@SA_NPBU_s_FuncInfo@@@Z 100363e0 f i libvcruntimed:frame.obj
 0001:00035410       ?isNoExcept@__FrameHandler3@@SA_NPBU_s_FuncInfo@@@Z 10036410 f i libvcruntimed:frame.obj
 0001:00035440       ___BuildCatchObject        10036440 f   libvcruntimed:frame.obj
 0001:00035460       ___BuildCatchObjectHelper  10036460 f   libvcruntimed:frame.obj
 0001:00035480       ___TypeMatch               10036480 f   libvcruntimed:frame.obj
 0001:000354a0       ___vcrt_EncodePointer      100364a0 f i libvcruntimed:frame.obj
 0001:000354b0       __CallSettingFrame@12      100364b0 f   libvcruntimed:lowhelpr.obj
 0001:000354d7       __NLG_Return               100364d7     libvcruntimed:lowhelpr.obj
 0001:00035500       ??$?0$00@DName@@QAE@PBDU?$StringLifeSelector@$00@@@Z 10036500 f i libvcruntimed:undname.obj
 0001:00035550       ??$?0$00@pcharNode@@QAE@PBDHU?$StringLifeSelector@$00@@@Z 10036550 f i libvcruntimed:undname.obj
 0001:00035590       ??$?0$01@DName@@QAE@PBDU?$StringLifeSelector@$01@@@Z 10036590 f i libvcruntimed:undname.obj
 0001:000355e0       ??$?0$01@pcharNode@@QAE@PBDHU?$StringLifeSelector@$01@@@Z 100365e0 f i libvcruntimed:undname.obj
 0001:00035660       ??$?0$0A@@DName@@QAE@PBDU?$StringLifeSelector@$0A@@@@Z 10036660 f i libvcruntimed:undname.obj
 0001:000356b0       ??$?0$0A@@pcharNode@@QAE@PBDHU?$StringLifeSelector@$0A@@@@Z 100366b0 f i libvcruntimed:undname.obj
 0001:00035730       ??$append@VDNameNode@@@DName@@AAEXPBVDNameNode@@@Z 10036730 f i libvcruntimed:undname.obj
 0001:000357c0       ??$append@VDNameStatusNode@@@DName@@AAEXPBVDNameStatusNode@@@Z 100367c0 f i libvcruntimed:undname.obj
 0001:00035850       ??$append@VcharNode@@@DName@@AAEXPBVcharNode@@@Z 10036850 f i libvcruntimed:undname.obj
 0001:000358e0       ??$append@VpDNameNode@@@DName@@AAEXPBVpDNameNode@@@Z 100368e0 f i libvcruntimed:undname.obj
 0001:00035970       ??$append@VpcharNode@@@DName@@AAEXPBVpcharNode@@@Z 10036970 f i libvcruntimed:undname.obj
 0001:00035a00       ??$doPchar@$00@DName@@AAEXPBDH@Z 10036a00 f i libvcruntimed:undname.obj
 0001:00035b10       ??$doPchar@$01@DName@@AAEXPBDH@Z 10036b10 f i libvcruntimed:undname.obj
 0001:00035c20       ??$doPchar@$0A@@DName@@AAEXPBDH@Z 10036c20 f i libvcruntimed:undname.obj
 0001:00035d30       ??0Block@_HeapManager@@QAE@XZ 10036d30 f i libvcruntimed:undname.obj
 0001:00035d50       ??0DName@@QAE@AAPBDD@Z     10036d50 f   libvcruntimed:undname.obj
 0001:00035ec0       ??0DName@@QAE@ABUStringLiteral@@@Z 10036ec0 f   libvcruntimed:undname.obj
 0001:00035f10       ??0DName@@QAE@ABV0@@Z      10036f10 f i libvcruntimed:undname.obj
 0001:00035f40       ??0DName@@QAE@D@Z          10036f40 f   libvcruntimed:undname.obj
 0001:00035f70       ??0DName@@QAE@PAV0@@Z      10036f70 f   libvcruntimed:undname.obj
 0001:00036020       ??0DName@@QAE@W4DNameStatus@@@Z 10037020 f   libvcruntimed:undname.obj
 0001:000360c0       ??0DName@@QAE@XZ           100370c0 f i libvcruntimed:undname.obj
 0001:000360f0       ??0DName@@QAE@_J@Z         100370f0 f   libvcruntimed:undname.obj
 0001:000361e0       ??0DName@@QAE@_K@Z         100371e0 f   libvcruntimed:undname.obj
 0001:00036290       ??0DNameNode@@IAE@XZ       10037290 f i libvcruntimed:undname.obj
 0001:000362b0       ??0Replicator@@QAE@XZ      100372b0 f i libvcruntimed:undname.obj
 0001:000362f0       ??0UnDecorator@@QAE@PBDP6APADJ@ZK@Z 100372f0 f i libvcruntimed:undname.obj
 0001:00036370       ??0charNode@@QAE@D@Z       10037370 f i libvcruntimed:undname.obj
 0001:000363a0       ??0pDNameNode@@QAE@PAVDName@@@Z 100373a0 f   libvcruntimed:undname.obj
 0001:00036400       ??0pairNode@@QAE@PBVDNameNode@@0@Z 10037400 f i libvcruntimed:undname.obj
 0001:00036460       ??2@YAPAXIAAV_HeapManager@@H@Z 10037460 f   libvcruntimed:undname.obj
 0001:000364a0       ??4DName@@QAEAAV0@ABUStringLiteral@@@Z 100374a0 f   libvcruntimed:undname.obj
 0001:000364e0       ??4DName@@QAEAAV0@ABV0@@Z  100374e0 f   libvcruntimed:undname.obj
 0001:00036510       ??4DName@@QAEAAV0@D@Z      10037510 f i libvcruntimed:undname.obj
 0001:00036540       ??4DName@@QAEAAV0@PAV0@@Z  10037540 f   libvcruntimed:undname.obj
 0001:000365e0       ??4DName@@QAEAAV0@W4DNameStatus@@@Z 100375e0 f   libvcruntimed:undname.obj
 0001:00036660       ??AReplicator@@QBE?AVDName@@H@Z 10037660 f   libvcruntimed:undname.obj
 0001:000366d0       ??H@YA?AVDName@@ABUStringLiteral@@ABV0@@Z 100376d0 f i libvcruntimed:undname.obj
 0001:00036700       ??H@YA?AVDName@@DABV0@@Z   10037700 f i libvcruntimed:undname.obj
 0001:00036730       ??H@YA?AVDName@@W4DNameStatus@@ABV0@@Z 10037730 f i libvcruntimed:undname.obj
 0001:00036760       ??HDName@@QBE?AV0@ABUStringLiteral@@@Z 10037760 f   libvcruntimed:undname.obj
 0001:000367a0       ??HDName@@QBE?AV0@ABV0@@Z  100377a0 f   libvcruntimed:undname.obj
 0001:000367e0       ??HDName@@QBE?AV0@D@Z      100377e0 f   libvcruntimed:undname.obj
 0001:00036820       ??HDName@@QBE?AV0@PAV0@@Z  10037820 f   libvcruntimed:undname.obj
 0001:00036860       ??HDName@@QBE?AV0@W4DNameStatus@@@Z 10037860 f   libvcruntimed:undname.obj
 0001:000368a0       ??HStringLiteral@@QBE?AU0@H@Z 100378a0 f i libvcruntimed:undname.obj
 0001:000368d0       ??YDName@@QAEAAV0@ABUStringLiteral@@@Z 100378d0 f   libvcruntimed:undname.obj
 0001:00036970       ??YDName@@QAEAAV0@ABV0@@Z  10037970 f   libvcruntimed:undname.obj
 0001:00036a10       ??YDName@@QAEAAV0@D@Z      10037a10 f   libvcruntimed:undname.obj
 0001:00036a90       ??YDName@@QAEAAV0@PAV0@@Z  10037a90 f   libvcruntimed:undname.obj
 0001:00036b40       ??YDName@@QAEAAV0@W4DNameStatus@@@Z 10037b40 f   libvcruntimed:undname.obj
 0001:00036ba0       ??YReplicator@@QAEAAV0@ABVDName@@@Z 10037ba0 f   libvcruntimed:undname.obj
 0001:00036c30       ??_5DName@@QAEAAV0@ABV0@@Z 10037c30 f   libvcruntimed:undname.obj
 0001:00036c90       ??__K_l@@YA?AUStringLiteral@@PBDI@Z 10037c90 f i libvcruntimed:undname.obj
 0001:00036cb0       ?Constructor@_HeapManager@@QAEXP6APAXI@ZP6AXPAX@Z@Z 10037cb0 f i libvcruntimed:undname.obj
 0001:00036cf0       ?Destructor@_HeapManager@@QAEXXZ 10037cf0 f i libvcruntimed:undname.obj
 0001:00036d60       ?UScore@UnDecorator@@SA?AUStringLiteral@@W4Tokens@@@Z 10037d60 f   libvcruntimed:undname.obj
 0001:00036db0       ?composeDeclaration@UnDecorator@@CA?AVDName@@ABV2@@Z 10037db0 f i libvcruntimed:undname.obj
 0001:00038d20       ?dbGetString@DName@@QBEPADXZ 10039d20 f   libvcruntimed:undname.obj
 0001:00038d40       ?doAccessSpecifiers@UnDecorator@@SAHXZ 10039d40 f i libvcruntimed:undname.obj
 0001:00038d70       ?doAllocationLanguage@UnDecorator@@SAHXZ 10039d70 f i libvcruntimed:undname.obj
 0001:00038da0       ?doAllocationModel@UnDecorator@@SAHXZ 10039da0 f i libvcruntimed:undname.obj
 0001:00038dd0       ?doEcsu@UnDecorator@@SAHXZ 10039dd0 f i libvcruntimed:undname.obj
 0001:00038e00       ?doEllipsis@UnDecorator@@SAHXZ 10039e00 f i libvcruntimed:undname.obj
 0001:00038e30       ?doFunctionReturns@UnDecorator@@SAHXZ 10039e30 f i libvcruntimed:undname.obj
 0001:00038e60       ?doMSKeywords@UnDecorator@@SAHXZ 10039e60 f i libvcruntimed:undname.obj
 0001:00038e90       ?doMemberTypes@UnDecorator@@SAHXZ 10039e90 f i libvcruntimed:undname.obj
 0001:00038ec0       ?doNameOnly@UnDecorator@@SAHXZ 10039ec0 f i libvcruntimed:undname.obj
 0001:00038ed0       ?doNoIdentCharCheck@UnDecorator@@SAHXZ 10039ed0 f i libvcruntimed:undname.obj
 0001:00038ee0       ?doPchar@DName@@AAEXD@Z    10039ee0 f   libvcruntimed:undname.obj
 0001:00038f50       ?doPtr64@UnDecorator@@SAHXZ 10039f50 f i libvcruntimed:undname.obj
 0001:00038f80       ?doRestrictionSpec@UnDecorator@@SAHXZ 10039f80 f i libvcruntimed:undname.obj
 0001:00038fb0       ?doThisTypes@UnDecorator@@SAHXZ 10039fb0 f i libvcruntimed:undname.obj
 0001:00038fe0       ?doThrowTypes@UnDecorator@@SAHXZ 10039fe0 f i libvcruntimed:undname.obj
 0001:00039010       ?doTypeOnly@UnDecorator@@SAHXZ 1003a010 f i libvcruntimed:undname.obj
 0001:00039020       ?doUnderScore@UnDecorator@@SAHXZ 1003a020 f i libvcruntimed:undname.obj
 0001:00039050       ?getArgumentList@UnDecorator@@CA?AVDName@@XZ 1003a050 f   libvcruntimed:undname.obj
 0001:000391a0       ?getArgumentTypes@UnDecorator@@CA?AVDName@@XZ 1003a1a0 f   libvcruntimed:undname.obj
 0001:000393b0       ?getArrayType@UnDecorator@@CA?AVDName@@ABV2@@Z 1003a3b0 f i libvcruntimed:undname.obj
 0001:00039650       ?getBasedType@UnDecorator@@CA?AVDName@@XZ 1003a650 f   libvcruntimed:undname.obj
 0001:00039740       ?getBasicDataType@UnDecorator@@CA?AVDName@@ABV2@@Z 1003a740 f   libvcruntimed:undname.obj
 0001:0003a050       ?getCHPEName@UnDecorator@@QAEPADPADH@Z 1003b050 f i libvcruntimed:undname.obj
 0001:0003a1b0       ?getCallIndex@UnDecorator@@CA?AVDName@@XZ 1003b1b0 f i libvcruntimed:undname.obj
 0001:0003a1d0       ?getCallingConvention@UnDecorator@@CA?AVDName@@XZ 1003b1d0 f   libvcruntimed:undname.obj
 0001:0003a410       ?getDataIndirectType@UnDecorator@@CA?AVDName@@ABV2@W4IndirectionKind@@0H@Z 1003b410 f   libvcruntimed:undname.obj
 0001:0003ad30       ?getDataIndirectType@UnDecorator@@CA?AVDName@@XZ 1003bd30 f i libvcruntimed:undname.obj
 0001:0003ad70       ?getDataType@UnDecorator@@CA?AVDName@@PAV2@@Z 1003bd70 f   libvcruntimed:undname.obj
 0001:0003aeb0       ?getDecoratedName@UnDecorator@@CA?AVDName@@XZ 1003beb0 f   libvcruntimed:undname.obj
 0001:0003b2f0       ?getDimension@UnDecorator@@CA?AVDName@@_N@Z 1003c2f0 f   libvcruntimed:undname.obj
 0001:0003b5d0       ?getDispatchTarget@UnDecorator@@CA?AVDName@@XZ 1003c5d0 f   libvcruntimed:undname.obj
 0001:0003b670       ?getDisplacement@UnDecorator@@CA?AVDName@@XZ 1003c670 f i libvcruntimed:undname.obj
 0001:0003b690       ?getECSUDataType@UnDecorator@@CA?AVDName@@XZ 1003c690 f   libvcruntimed:undname.obj
 0001:0003b8d0       ?getECSUName@UnDecorator@@CA?AVDName@@XZ 1003c8d0 f i libvcruntimed:undname.obj
 0001:0003b8f0       ?getEnumType@UnDecorator@@CA?AVDName@@XZ 1003c8f0 f i libvcruntimed:undname.obj
 0001:0003baa0       ?getExtendedDataIndirectType@UnDecorator@@CA?AVDName@@AAW4IndirectionKind@@AA_NH@Z 1003caa0 f   libvcruntimed:undname.obj
 0001:0003bcf0       ?getExternalDataType@UnDecorator@@CA?AVDName@@ABV2@@Z 1003ccf0 f i libvcruntimed:undname.obj
 0001:0003bd90       ?getFunctionIndirectType@UnDecorator@@CA?AVDName@@ABV2@@Z 1003cd90 f   libvcruntimed:undname.obj
 0001:0003c270       ?getGuardNumber@UnDecorator@@CA?AVDName@@XZ 1003d270 f i libvcruntimed:undname.obj
 0001:0003c290       ?getLastChar@DName@@QBEDXZ 1003d290 f i libvcruntimed:undname.obj
 0001:0003c2d0       ?getLastChar@DNameStatusNode@@UBEDXZ 1003d2d0 f i libvcruntimed:undname.obj
 0001:0003c300       ?getLastChar@charNode@@UBEDXZ 1003d300 f i libvcruntimed:undname.obj
 0001:0003c320       ?getLastChar@pDNameNode@@UBEDXZ 1003d320 f i libvcruntimed:undname.obj
 0001:0003c350       ?getLastChar@pairNode@@UBEDXZ 1003d350 f i libvcruntimed:undname.obj
 0001:0003c3c0       ?getLastChar@pcharNode@@UBEDXZ 1003d3c0 f i libvcruntimed:undname.obj
 0001:0003c400       ?getLexicalFrame@UnDecorator@@CA?AVDName@@XZ 1003d400 f i libvcruntimed:undname.obj
 0001:0003c440       ?getMemoryWithBuffer@_HeapManager@@QAEPAXI@Z 1003d440 f   libvcruntimed:undname.obj
 0001:0003c530       ?getMemoryWithoutBuffer@_HeapManager@@QAEPAXI@Z 1003d530 f   libvcruntimed:undname.obj
 0001:0003c570       ?getNoexcept@UnDecorator@@CA?AVDName@@XZ 1003d570 f   libvcruntimed:undname.obj
 0001:0003c5f0       ?getNumberOfDimensions@UnDecorator@@CAHXZ 1003d5f0 f   libvcruntimed:undname.obj
 0001:0003c6f0       ?getOperatorName@UnDecorator@@CA?AVDName@@_NPA_N@Z 1003d6f0 f i libvcruntimed:undname.obj
 0001:0003d190       ?getPointerType@UnDecorator@@CA?AVDName@@ABV2@0@Z 1003e190 f i libvcruntimed:undname.obj
 0001:0003d1b0       ?getPointerTypeArray@UnDecorator@@CA?AVDName@@ABV2@0@Z 1003e1b0 f i libvcruntimed:undname.obj
 0001:0003d1d0       ?getPrimaryDataType@UnDecorator@@CA?AVDName@@ABV2@@Z 1003e1d0 f   libvcruntimed:undname.obj
 0001:0003d640       ?getPtrRefDataType@UnDecorator@@CA?AVDName@@ABV2@H@Z 1003e640 f   libvcruntimed:undname.obj
 0001:0003d8f0       ?getPtrRefType@UnDecorator@@CA?AVDName@@ABV2@0W4IndirectionKind@@@Z 1003e8f0 f   libvcruntimed:undname.obj
 0001:0003da70       ?getReferenceType@UnDecorator@@CA?AVDName@@ABV2@0W4IndirectionKind@@@Z 1003ea70 f i libvcruntimed:undname.obj
 0001:0003da90       ?getRestrictionSpec@UnDecorator@@CA?AVDName@@XZ 1003ea90 f   libvcruntimed:undname.obj
 0001:0003dc50       ?getReturnType@UnDecorator@@CA?AVDName@@PAV2@@Z 1003ec50 f   libvcruntimed:undname.obj
 0001:0003dca0       ?getScope@UnDecorator@@CA?AVDName@@XZ 1003eca0 f   libvcruntimed:undname.obj
 0001:0003e230       ?getScopedName@UnDecorator@@CA?AVDName@@XZ 1003f230 f   libvcruntimed:undname.obj
 0001:0003e380       ?getSignedDimension@UnDecorator@@CA?AVDName@@XZ 1003f380 f   libvcruntimed:undname.obj
 0001:0003e400       ?getStorageConvention@UnDecorator@@CA?AVDName@@XZ 1003f400 f i libvcruntimed:undname.obj
 0001:0003e420       ?getString@DName@@QBEPADPAD0@Z 1003f420 f i libvcruntimed:undname.obj
 0001:0003e480       ?getString@DName@@QBEPADPADH@Z 1003f480 f i libvcruntimed:undname.obj
 0001:0003e510       ?getString@DNameStatusNode@@UBEPADPAD0@Z 1003f510 f i libvcruntimed:undname.obj
 0001:0003e550       ?getString@charNode@@UBEPADPAD0@Z 1003f550 f i libvcruntimed:undname.obj
 0001:0003e580       ?getString@pDNameNode@@UBEPADPAD0@Z 1003f580 f i libvcruntimed:undname.obj
 0001:0003e5c0       ?getString@pairNode@@UBEPADPAD0@Z 1003f5c0 f i libvcruntimed:undname.obj
 0001:0003e650       ?getString@pcharNode@@UBEPADPAD0@Z 1003f650 f i libvcruntimed:undname.obj
 0001:0003e680       ?getStringEncoding@UnDecorator@@CA?AVDName@@W4PrefixKind@@H@Z 1003f680 f   libvcruntimed:undname.obj
 0001:0003e790       ?getStringHelper@@YAPADPADPBD1H@Z 1003f790 f i libvcruntimed:undname.obj
 0001:0003e7d0       ?getSymbolName@UnDecorator@@CA?AVDName@@XZ 1003f7d0 f i libvcruntimed:undname.obj
 0001:0003e860       ?getTemplateArgumentList@UnDecorator@@CA?AVDName@@XZ 1003f860 f   libvcruntimed:undname.obj
 0001:0003eb30       ?getTemplateName@UnDecorator@@CA?AVDName@@_N@Z 1003fb30 f   libvcruntimed:undname.obj
 0001:0003ecf0       ?getTemplateNonTypeArgument@UnDecorator@@CA?AVDName@@XZ 1003fcf0 f   libvcruntimed:undname.obj
 0001:0003f3b0       ?getTemplateTypeArgument@UnDecorator@@CA?AVDName@@XZ 100403b0 f   libvcruntimed:undname.obj
 0001:0003f550       ?getThisType@UnDecorator@@CA?AVDName@@XZ 10040550 f i libvcruntimed:undname.obj
 0001:0003f590       ?getThrowTypes@UnDecorator@@CA?AVDName@@XZ 10040590 f   libvcruntimed:undname.obj
 0001:0003f5d0       ?getTypeEncoding@UnDecorator@@CAHXZ 100405d0 f i libvcruntimed:undname.obj
 0001:00040090       ?getUndecoratedName@UnDecorator@@QAEPADPADH@Z 10041090 f i libvcruntimed:undname.obj
 0001:000401f0       ?getVCallThunkType@UnDecorator@@CA?AVDName@@XZ 100411f0 f i libvcruntimed:undname.obj
 0001:00040270       ?getVbTableType@UnDecorator@@CA?AVDName@@ABV2@@Z 10041270 f i libvcruntimed:undname.obj
 0001:00040290       ?getVdispMapType@UnDecorator@@CA?AVDName@@ABV2@@Z 10041290 f i libvcruntimed:undname.obj
 0001:00040320       ?getVfTableType@UnDecorator@@CA?AVDName@@ABV2@@Z 10041320 f i libvcruntimed:undname.obj
 0001:00040520       ?getZName@UnDecorator@@CA?AVDName@@_N0@Z 10041520 f   libvcruntimed:undname.obj
 0001:00040860       ?haveTemplateParameters@UnDecorator@@SAHXZ 10041860 f i libvcruntimed:undname.obj
 0001:00040870       ?isArray@DName@@QBEHXZ     10041870 f i libvcruntimed:undname.obj
 0001:00040890       ?isComArray@DName@@QBEHXZ  10041890 f i libvcruntimed:undname.obj
 0001:000408b0       ?isEmpty@DName@@QBEHXZ     100418b0 f i libvcruntimed:undname.obj
 0001:000408e0       ?isFull@Replicator@@QBEHXZ 100418e0 f i libvcruntimed:undname.obj
 0001:00040910       ?isNoTE@DName@@QBEHXZ      10041910 f i libvcruntimed:undname.obj
 0001:00040930       ?isPinPtr@DName@@QBEHXZ    10041930 f i libvcruntimed:undname.obj
 0001:00040950       ?isPtrRef@DName@@QBEHXZ    10041950 f i libvcruntimed:undname.obj
 0001:00040970       ?isUDC@DName@@QBEHXZ       10041970 f i libvcruntimed:undname.obj
 0001:000409b0       ?isUDTThunk@DName@@QBEHXZ  100419b0 f i libvcruntimed:undname.obj
 0001:000409f0       ?isVCallThunk@DName@@QBEHXZ 100419f0 f i libvcruntimed:undname.obj
 0001:00040a10       ?isValid@DName@@QBEHXZ     10041a10 f i libvcruntimed:undname.obj
 0001:00040a50       ?length@DName@@QBEHXZ      10041a50 f i libvcruntimed:undname.obj
 0001:00040a90       ?length@DNameStatusNode@@UBEHXZ 10041a90 f i libvcruntimed:undname.obj
 0001:00040ab0       ?length@charNode@@UBEHXZ   10041ab0 f i libvcruntimed:undname.obj
 0001:00040ac0       ?length@pDNameNode@@UBEHXZ 10041ac0 f i libvcruntimed:undname.obj
 0001:00040af0       ?length@pairNode@@UBEHXZ   10041af0 f i libvcruntimed:undname.obj
 0001:00040b60       ?length@pcharNode@@UBEHXZ  10041b60 f i libvcruntimed:undname.obj
 0001:00040b80       ?make@DNameStatusNode@@SAPBV1@W4DNameStatus@@@Z 10041b80 f i libvcruntimed:undname.obj
 0001:00040bb0       ?parseDecoratedName@UnDecorator@@CA?AVDName@@XZ 10041bb0 f   libvcruntimed:undname.obj
 0001:00040d40       ?raw_length@DNameStatusNode@@UBEHXZ 10041d40 f i libvcruntimed:undname.obj
 0001:00040d60       ?raw_length@charNode@@UBEHXZ 10041d60 f i libvcruntimed:undname.obj
 0001:00040d80       ?raw_length@pDNameNode@@UBEHXZ 10041d80 f i libvcruntimed:undname.obj
 0001:00040d90       ?raw_length@pairNode@@UBEHXZ 10041d90 f i libvcruntimed:undname.obj
 0001:00040db0       ?raw_length@pcharNode@@UBEHXZ 10041db0 f i libvcruntimed:undname.obj
 0001:00040dd0       ?setIsArray@DName@@QAEXXZ  10041dd0 f i libvcruntimed:undname.obj
 0001:00040df0       ?setIsComArray@DName@@QAEXXZ 10041df0 f i libvcruntimed:undname.obj
 0001:00040e10       ?setIsNoTE@DName@@QAEXXZ   10041e10 f i libvcruntimed:undname.obj
 0001:00040e30       ?setIsPinPtr@DName@@QAEXXZ 10041e30 f i libvcruntimed:undname.obj
 0001:00040e50       ?setIsUDC@DName@@QAEXXZ    10041e50 f i libvcruntimed:undname.obj
 0001:00040e80       ?setIsVCallThunk@DName@@QAEXXZ 10041e80 f i libvcruntimed:undname.obj
 0001:00040ea0       ?setPtrRef@DName@@QAEAAV1@XZ 10041ea0 f i libvcruntimed:undname.obj
 0001:00040ec0       ?status@DName@@QBE?AW4DNameStatus@@XZ 10041ec0 f i libvcruntimed:undname.obj
 0001:00040fc0       ___unDName                 10041fc0 f   libvcruntimed:undname.obj
 0001:00040ff0       ___unDNameEx               10041ff0 f   libvcruntimed:undname.obj
 0001:000410c0       _unDNameGenerateCHPE       100420c0 f   libvcruntimed:undname.obj
 0001:00041120       __global_unwind2           10042120 f   libvcruntimed:exsup.obj
 0001:00041186       __local_unwind2            10042186 f   libvcruntimed:exsup.obj
 0001:0004120a       __abnormal_termination     1004220a f   libvcruntimed:exsup.obj
 0001:00041230       __NLG_Notify1              10042230 f   libvcruntimed:exsup.obj
 0001:0004123c       __NLG_Notify               1004223c f   libvcruntimed:exsup.obj
 0001:00041253       __NLG_Dispatch2            10042253     libvcruntimed:exsup.obj
 0001:00041253       __NLG_Dispatch             10042253     libvcruntimed:exsup.obj
 0001:0004125b       __NLG_Call                 1004225b f   libvcruntimed:exsup.obj
 0001:0004125d       __NLG_Return2              1004225d     libvcruntimed:exsup.obj
 0001:00041260       ??$__crt_interlocked_exchange_pointer@UHINSTANCE__@@PAU1@@@YAPAUHINSTANCE__@@PDSAU0@QAU0@@Z 10042260 f i libvcruntimed:winapi_downlevel.obj
 0001:00041270       ??$__crt_interlocked_exchange_pointer@UHINSTANCE__@@PAX@@YAPAUHINSTANCE__@@PDSAU0@QAX@Z 10042270 f i libvcruntimed:winapi_downlevel.obj
 0001:00041280       ??$__crt_interlocked_exchange_pointer@XPAX@@YAPAXPDSAXQAX@Z 10042280 f i libvcruntimed:winapi_downlevel.obj
 0001:00041290       ??$__crt_interlocked_read_pointer@UHINSTANCE__@@@@YAPAUHINSTANCE__@@PDSAU0@@Z 10042290 f i libvcruntimed:winapi_downlevel.obj
 0001:000412b0       ??$__crt_interlocked_read_pointer@X@@YAPAXPDSAX@Z 100422b0 f i libvcruntimed:winapi_downlevel.obj
 0001:00041680       ___vcrt_FlsAlloc           10042680 f   libvcruntimed:winapi_downlevel.obj
 0001:000416c0       ___vcrt_FlsFree            100426c0 f   libvcruntimed:winapi_downlevel.obj
 0001:00041700       ___vcrt_FlsGetValue        10042700 f   libvcruntimed:winapi_downlevel.obj
 0001:00041740       ___vcrt_FlsSetValue        10042740 f   libvcruntimed:winapi_downlevel.obj
 0001:00041790       ___vcrt_InitializeCriticalSectionEx 10042790 f   libvcruntimed:winapi_downlevel.obj
 0001:00041810       __get_unexpected           10042810 f   libvcruntimed:unexpected.obj
 0001:00041830       _set_unexpected            10042830 f   libvcruntimed:unexpected.obj
 0001:00041860       _unexpected                10042860 f   libvcruntimed:unexpected.obj
 0001:000418a0       ?GetCurrentState@__FrameHandler3@@SAHPAUEHRegistrationNode@@PAXPBU_s_FuncInfo@@@Z 100428a0 f   libvcruntimed:ehstate.obj
 0001:000418d0       ?SetState@__FrameHandler3@@SAXPAUEHRegistrationNode@@PBU_s_FuncInfo@@H@Z 100428d0 f   libvcruntimed:ehstate.obj
 0001:000418e0       ??$?0ABV?$stream_output_adapter@D@__crt_stdio_output@@AB_KABQBDABQAU__crt_locale_pointers@@ABQAD@?$format_validation_base@DV?$stream_output_adapter@D@__crt_stdio_output@@@__crt_stdio_output@@IAE@ABV?$stream_output_adapter@D@1@AB_KABQBDABQAU__crt_locale_pointers@@ABQAD@Z 100428e0 f i libucrtd:output.obj
 0001:00041910       ??$?0ABV?$stream_output_adapter@D@__crt_stdio_output@@AB_KABQBDABQAU__crt_locale_pointers@@ABQAD@?$positional_parameter_base@DV?$stream_output_adapter@D@__crt_stdio_output@@@__crt_stdio_output@@IAE@ABV?$stream_output_adapter@D@1@AB_KABQBDABQAU__crt_locale_pointers@@ABQAD@Z 10042910 f i libucrtd:output.obj
 0001:00041990       ??$?0ABV?$stream_output_adapter@D@__crt_stdio_output@@AB_KABQBDABQAU__crt_locale_pointers@@ABQAD@?$standard_base@DV?$stream_output_adapter@D@__crt_stdio_output@@@__crt_stdio_output@@IAE@ABV?$stream_output_adapter@D@1@AB_KABQBDABQAU__crt_locale_pointers@@ABQAD@Z 10042990 f i libucrtd:output.obj
 0001:000419e0       ??$?0ABV?$stream_output_adapter@_W@__crt_stdio_output@@AB_KABQB_WABQAU__crt_locale_pointers@@ABQAD@?$format_validation_base@_WV?$stream_output_adapter@_W@__crt_stdio_output@@@__crt_stdio_output@@IAE@ABV?$stream_output_adapter@_W@1@AB_KABQB_WABQAU__crt_locale_pointers@@ABQAD@Z 100429e0 f i libucrtd:output.obj
 0001:00041a10       ??$?0ABV?$stream_output_adapter@_W@__crt_stdio_output@@AB_KABQB_WABQAU__crt_locale_pointers@@ABQAD@?$positional_parameter_base@_WV?$stream_output_adapter@_W@__crt_stdio_output@@@__crt_stdio_output@@IAE@ABV?$stream_output_adapter@_W@1@AB_KABQB_WABQAU__crt_locale_pointers@@ABQAD@Z 10042a10 f i libucrtd:output.obj
 0001:00041a90       ??$?0ABV?$stream_output_adapter@_W@__crt_stdio_output@@AB_KABQB_WABQAU__crt_locale_pointers@@ABQAD@?$standard_base@_WV?$stream_output_adapter@_W@__crt_stdio_output@@@__crt_stdio_output@@IAE@ABV?$stream_output_adapter@_W@1@AB_KABQB_WABQAU__crt_locale_pointers@@ABQAD@Z 10042a90 f i libucrtd:output.obj
 0001:00041ae0       ??$?0ABV?$string_output_adapter@D@__crt_stdio_output@@AB_KABQBDABQAU__crt_locale_pointers@@ABQAD@?$format_validation_base@DV?$string_output_adapter@D@__crt_stdio_output@@@__crt_stdio_output@@IAE@ABV?$string_output_adapter@D@1@AB_KABQBDABQAU__crt_locale_pointers@@ABQAD@Z 10042ae0 f i libucrtd:output.obj
 0001:00041b10       ??$?0ABV?$string_output_adapter@D@__crt_stdio_output@@AB_KABQBDABQAU__crt_locale_pointers@@ABQAD@?$positional_parameter_base@DV?$string_output_adapter@D@__crt_stdio_output@@@__crt_stdio_output@@IAE@ABV?$string_output_adapter@D@1@AB_KABQBDABQAU__crt_locale_pointers@@ABQAD@Z 10042b10 f i libucrtd:output.obj
 0001:00041b90       ??$?0ABV?$string_output_adapter@D@__crt_stdio_output@@AB_KABQBDABQAU__crt_locale_pointers@@ABQAD@?$standard_base@DV?$string_output_adapter@D@__crt_stdio_output@@@__crt_stdio_output@@IAE@ABV?$string_output_adapter@D@1@AB_KABQBDABQAU__crt_locale_pointers@@ABQAD@Z 10042b90 f i libucrtd:output.obj
 0001:00041be0       ??$?0ABV?$string_output_adapter@_W@__crt_stdio_output@@AB_KABQB_WABQAU__crt_locale_pointers@@ABQAD@?$format_validation_base@_WV?$string_output_adapter@_W@__crt_stdio_output@@@__crt_stdio_output@@IAE@ABV?$string_output_adapter@_W@1@AB_KABQB_WABQAU__crt_locale_pointers@@ABQAD@Z 10042be0 f i libucrtd:output.obj
 0001:00041c10       ??$?0ABV?$string_output_adapter@_W@__crt_stdio_output@@AB_KABQB_WABQAU__crt_locale_pointers@@ABQAD@?$positional_parameter_base@_WV?$string_output_adapter@_W@__crt_stdio_output@@@__crt_stdio_output@@IAE@ABV?$string_output_adapter@_W@1@AB_KABQB_WABQAU__crt_locale_pointers@@ABQAD@Z 10042c10 f i libucrtd:output.obj
 0001:00041c90       ??$?0ABV?$string_output_adapter@_W@__crt_stdio_output@@AB_KABQB_WABQAU__crt_locale_pointers@@ABQAD@?$standard_base@_WV?$string_output_adapter@_W@__crt_stdio_output@@@__crt_stdio_output@@IAE@ABV?$string_output_adapter@_W@1@AB_KABQB_WABQAU__crt_locale_pointers@@ABQAD@Z 10042c90 f i libucrtd:output.obj
 0001:000421c0       ??$__crt_interlocked_read@J@@YAJPDJ@Z 100431c0 f i libucrtd:output.obj
 0001:00044f60       ??$count@D@formatting_buffer@__crt_stdio_output@@QBEIXZ 10045f60 f i libucrtd:output.obj
 0001:00044fa0       ??$count@_W@formatting_buffer@__crt_stdio_output@@QBEIXZ 10045fa0 f i libucrtd:output.obj
 0001:00044fe0       ??$data@D@formatting_buffer@__crt_stdio_output@@QAEPADXZ 10045fe0 f i libucrtd:output.obj
 0001:00045020       ??$data@_W@formatting_buffer@__crt_stdio_output@@QAEPA_WXZ 10046020 f i libucrtd:output.obj
 0001:00045060       ??$ensure_buffer_is_big_enough@D@formatting_buffer@__crt_stdio_output@@QAE_NI@Z 10046060 f i libucrtd:output.obj
 0001:00045140       ??$ensure_buffer_is_big_enough@_W@formatting_buffer@__crt_stdio_output@@QAE_NI@Z 10046140 f i libucrtd:output.obj
 0001:00045230       ??$extract_argument_from_va_list@C_J@?$positional_parameter_base@DV?$stream_output_adapter@D@__crt_stdio_output@@@__crt_stdio_output@@IAE_NAA_J@Z 10046230 f i libucrtd:output.obj
 0001:00045370       ??$extract_argument_from_va_list@C_J@?$positional_parameter_base@DV?$string_output_adapter@D@__crt_stdio_output@@@__crt_stdio_output@@IAE_NAA_J@Z 10046370 f i libucrtd:output.obj
 0001:000454b0       ??$extract_argument_from_va_list@C_J@?$positional_parameter_base@_WV?$stream_output_adapter@_W@__crt_stdio_output@@@__crt_stdio_output@@IAE_NAA_J@Z 100464b0 f i libucrtd:output.obj
 0001:000455f0       ??$extract_argument_from_va_list@C_J@?$positional_parameter_base@_WV?$string_output_adapter@_W@__crt_stdio_output@@@__crt_stdio_output@@IAE_NAA_J@Z 100465f0 f i libucrtd:output.obj
 0001:00045730       ??$extract_argument_from_va_list@C_J@?$standard_base@DV?$stream_output_adapter@D@__crt_stdio_output@@@__crt_stdio_output@@IAE_NAA_J@Z 10046730 f i libucrtd:output.obj
 0001:00045760       ??$extract_argument_from_va_list@C_J@?$standard_base@DV?$string_output_adapter@D@__crt_stdio_output@@@__crt_stdio_output@@IAE_NAA_J@Z 10046760 f i libucrtd:output.obj
 0001:00045790       ??$extract_argument_from_va_list@C_J@?$standard_base@_WV?$stream_output_adapter@_W@__crt_stdio_output@@@__crt_stdio_output@@IAE_NAA_J@Z 10046790 f i libucrtd:output.obj
 0001:000457c0       ??$extract_argument_from_va_list@C_J@?$standard_base@_WV?$string_output_adapter@_W@__crt_stdio_output@@@__crt_stdio_output@@IAE_NAA_J@Z 100467c0 f i libucrtd:output.obj
 0001:000457f0       ??$extract_argument_from_va_list@E_J@?$positional_parameter_base@DV?$stream_output_adapter@D@__crt_stdio_output@@@__crt_stdio_output@@IAE_NAA_J@Z 100467f0 f i libucrtd:output.obj
 0001:00045930       ??$extract_argument_from_va_list@E_J@?$positional_parameter_base@DV?$string_output_adapter@D@__crt_stdio_output@@@__crt_stdio_output@@IAE_NAA_J@Z 10046930 f i libucrtd:output.obj
 0001:00045a70       ??$extract_argument_from_va_list@E_J@?$positional_parameter_base@_WV?$stream_output_adapter@_W@__crt_stdio_output@@@__crt_stdio_output@@IAE_NAA_J@Z 10046a70 f i libucrtd:output.obj
 0001:00045bb0       ??$extract_argument_from_va_list@E_J@?$positional_parameter_base@_WV?$string_output_adapter@_W@__crt_stdio_output@@@__crt_stdio_output@@IAE_NAA_J@Z 10046bb0 f i libucrtd:output.obj
 0001:00045cf0       ??$extract_argument_from_va_list@E_J@?$standard_base@DV?$stream_output_adapter@D@__crt_stdio_output@@@__crt_stdio_output@@IAE_NAA_J@Z 10046cf0 f i libucrtd:output.obj
 0001:00045d20       ??$extract_argument_from_va_list@E_J@?$standard_base@DV?$string_output_adapter@D@__crt_stdio_output@@@__crt_stdio_output@@IAE_NAA_J@Z 10046d20 f i libucrtd:output.obj
 0001:00045d50       ??$extract_argument_from_va_list@E_J@?$standard_base@_WV?$stream_output_adapter@_W@__crt_stdio_output@@@__crt_stdio_output@@IAE_NAA_J@Z 10046d50 f i libucrtd:output.obj
 0001:00045d80       ??$extract_argument_from_va_list@E_J@?$standard_base@_WV?$string_output_adapter@_W@__crt_stdio_output@@@__crt_stdio_output@@IAE_NAA_J@Z 10046d80 f i libucrtd:output.obj
 0001:00045db0       ??$extract_argument_from_va_list@F_J@?$positional_parameter_base@DV?$stream_output_adapter@D@__crt_stdio_output@@@__crt_stdio_output@@IAE_NAA_J@Z 10046db0 f i libucrtd:output.obj
 0001:00045ee0       ??$extract_argument_from_va_list@F_J@?$positional_parameter_base@DV?$string_output_adapter@D@__crt_stdio_output@@@__crt_stdio_output@@IAE_NAA_J@Z 10046ee0 f i libucrtd:output.obj
 0001:00046010       ??$extract_argument_from_va_list@F_J@?$positional_parameter_base@_WV?$stream_output_adapter@_W@__crt_stdio_output@@@__crt_stdio_output@@IAE_NAA_J@Z 10047010 f i libucrtd:output.obj
 0001:00046140       ??$extract_argument_from_va_list@F_J@?$positional_parameter_base@_WV?$string_output_adapter@_W@__crt_stdio_output@@@__crt_stdio_output@@IAE_NAA_J@Z 10047140 f i libucrtd:output.obj
 0001:00046270       ??$extract_argument_from_va_list@F_J@?$standard_base@DV?$stream_output_adapter@D@__crt_stdio_output@@@__crt_stdio_output@@IAE_NAA_J@Z 10047270 f i libucrtd:output.obj
 0001:000462a0       ??$extract_argument_from_va_list@F_J@?$standard_base@DV?$string_output_adapter@D@__crt_stdio_output@@@__crt_stdio_output@@IAE_NAA_J@Z 100472a0 f i libucrtd:output.obj
 0001:000462d0       ??$extract_argument_from_va_list@F_J@?$standard_base@_WV?$stream_output_adapter@_W@__crt_stdio_output@@@__crt_stdio_output@@IAE_NAA_J@Z 100472d0 f i libucrtd:output.obj
 0001:00046300       ??$extract_argument_from_va_list@F_J@?$standard_base@_WV?$string_output_adapter@_W@__crt_stdio_output@@@__crt_stdio_output@@IAE_NAA_J@Z 10047300 f i libucrtd:output.obj
 0001:00046330       ??$extract_argument_from_va_list@GD@?$positional_parameter_base@DV?$stream_output_adapter@D@__crt_stdio_output@@@__crt_stdio_output@@IAE_NAAD@Z 10047330 f i libucrtd:output.obj
 0001:00046460       ??$extract_argument_from_va_list@GD@?$positional_parameter_base@DV?$string_output_adapter@D@__crt_stdio_output@@@__crt_stdio_output@@IAE_NAAD@Z 10047460 f i libucrtd:output.obj
 0001:00046590       ??$extract_argument_from_va_list@GD@?$standard_base@DV?$stream_output_adapter@D@__crt_stdio_output@@@__crt_stdio_output@@IAE_NAAD@Z 10047590 f i libucrtd:output.obj
 0001:000465c0       ??$extract_argument_from_va_list@GD@?$standard_base@DV?$string_output_adapter@D@__crt_stdio_output@@@__crt_stdio_output@@IAE_NAAD@Z 100475c0 f i libucrtd:output.obj
 0001:000465f0       ??$extract_argument_from_va_list@G_J@?$positional_parameter_base@DV?$stream_output_adapter@D@__crt_stdio_output@@@__crt_stdio_output@@IAE_NAA_J@Z 100475f0 f i libucrtd:output.obj
 0001:00046730       ??$extract_argument_from_va_list@G_J@?$positional_parameter_base@DV?$string_output_adapter@D@__crt_stdio_output@@@__crt_stdio_output@@IAE_NAA_J@Z 10047730 f i libucrtd:output.obj
 0001:00046870       ??$extract_argument_from_va_list@G_J@?$positional_parameter_base@_WV?$stream_output_adapter@_W@__crt_stdio_output@@@__crt_stdio_output@@IAE_NAA_J@Z 10047870 f i libucrtd:output.obj
 0001:000469b0       ??$extract_argument_from_va_list@G_J@?$positional_parameter_base@_WV?$string_output_adapter@_W@__crt_stdio_output@@@__crt_stdio_output@@IAE_NAA_J@Z 100479b0 f i libucrtd:output.obj
 0001:00046af0       ??$extract_argument_from_va_list@G_J@?$standard_base@DV?$stream_output_adapter@D@__crt_stdio_output@@@__crt_stdio_output@@IAE_NAA_J@Z 10047af0 f i libucrtd:output.obj
 0001:00046b20       ??$extract_argument_from_va_list@G_J@?$standard_base@DV?$string_output_adapter@D@__crt_stdio_output@@@__crt_stdio_output@@IAE_NAA_J@Z 10047b20 f i libucrtd:output.obj
 0001:00046b50       ??$extract_argument_from_va_list@G_J@?$standard_base@_WV?$stream_output_adapter@_W@__crt_stdio_output@@@__crt_stdio_output@@IAE_NAA_J@Z 10047b50 f i libucrtd:output.obj
 0001:00046b80       ??$extract_argument_from_va_list@G_J@?$standard_base@_WV?$string_output_adapter@_W@__crt_stdio_output@@@__crt_stdio_output@@IAE_NAA_J@Z 10047b80 f i libucrtd:output.obj
 0001:00046bb0       ??$extract_argument_from_va_list@H_J@?$positional_parameter_base@DV?$stream_output_adapter@D@__crt_stdio_output@@@__crt_stdio_output@@IAE_NAA_J@Z 10047bb0 f i libucrtd:output.obj
 0001:00046ce0       ??$extract_argument_from_va_list@H_J@?$positional_parameter_base@DV?$string_output_adapter@D@__crt_stdio_output@@@__crt_stdio_output@@IAE_NAA_J@Z 10047ce0 f i libucrtd:output.obj
 0001:00046e10       ??$extract_argument_from_va_list@H_J@?$positional_parameter_base@_WV?$stream_output_adapter@_W@__crt_stdio_output@@@__crt_stdio_output@@IAE_NAA_J@Z 10047e10 f i libucrtd:output.obj
 0001:00046f40       ??$extract_argument_from_va_list@H_J@?$positional_parameter_base@_WV?$string_output_adapter@_W@__crt_stdio_output@@@__crt_stdio_output@@IAE_NAA_J@Z 10047f40 f i libucrtd:output.obj
 0001:00047070       ??$extract_argument_from_va_list@H_J@?$standard_base@DV?$stream_output_adapter@D@__crt_stdio_output@@@__crt_stdio_output@@IAE_NAA_J@Z 10048070 f i libucrtd:output.obj
 0001:000470a0       ??$extract_argument_from_va_list@H_J@?$standard_base@DV?$string_output_adapter@D@__crt_stdio_output@@@__crt_stdio_output@@IAE_NAA_J@Z 100480a0 f i libucrtd:output.obj
 0001:000470d0       ??$extract_argument_from_va_list@H_J@?$standard_base@_WV?$stream_output_adapter@_W@__crt_stdio_output@@@__crt_stdio_output@@IAE_NAA_J@Z 100480d0 f i libucrtd:output.obj
 0001:00047100       ??$extract_argument_from_va_list@H_J@?$standard_base@_WV?$string_output_adapter@_W@__crt_stdio_output@@@__crt_stdio_output@@IAE_NAA_J@Z 10048100 f i libucrtd:output.obj
 0001:00047130       ??$extract_argument_from_va_list@I_J@?$positional_parameter_base@DV?$stream_output_adapter@D@__crt_stdio_output@@@__crt_stdio_output@@IAE_NAA_J@Z 10048130 f i libucrtd:output.obj
 0001:00047260       ??$extract_argument_from_va_list@I_J@?$positional_parameter_base@DV?$string_output_adapter@D@__crt_stdio_output@@@__crt_stdio_output@@IAE_NAA_J@Z 10048260 f i libucrtd:output.obj
 0001:00047390       ??$extract_argument_from_va_list@I_J@?$positional_parameter_base@_WV?$stream_output_adapter@_W@__crt_stdio_output@@@__crt_stdio_output@@IAE_NAA_J@Z 10048390 f i libucrtd:output.obj
 0001:000474c0       ??$extract_argument_from_va_list@I_J@?$positional_parameter_base@_WV?$string_output_adapter@_W@__crt_stdio_output@@@__crt_stdio_output@@IAE_NAA_J@Z 100484c0 f i libucrtd:output.obj
 0001:000475f0       ??$extract_argument_from_va_list@I_J@?$standard_base@DV?$stream_output_adapter@D@__crt_stdio_output@@@__crt_stdio_output@@IAE_NAA_J@Z 100485f0 f i libucrtd:output.obj
 0001:00047620       ??$extract_argument_from_va_list@I_J@?$standard_base@DV?$string_output_adapter@D@__crt_stdio_output@@@__crt_stdio_output@@IAE_NAA_J@Z 10048620 f i libucrtd:output.obj
 0001:00047650       ??$extract_argument_from_va_list@I_J@?$standard_base@_WV?$stream_output_adapter@_W@__crt_stdio_output@@@__crt_stdio_output@@IAE_NAA_J@Z 10048650 f i libucrtd:output.obj
 0001:00047680       ??$extract_argument_from_va_list@I_J@?$standard_base@_WV?$string_output_adapter@_W@__crt_stdio_output@@@__crt_stdio_output@@IAE_NAA_J@Z 10048680 f i libucrtd:output.obj
 0001:000476b0       ??$extract_argument_from_va_list@PADPAD@?$positional_parameter_base@DV?$stream_output_adapter@D@__crt_stdio_output@@@__crt_stdio_output@@IAE_NAAPAD@Z 100486b0 f i libucrtd:output.obj
 0001:000477e0       ??$extract_argument_from_va_list@PADPAD@?$positional_parameter_base@DV?$string_output_adapter@D@__crt_stdio_output@@@__crt_stdio_output@@IAE_NAAPAD@Z 100487e0 f i libucrtd:output.obj
 0001:00047910       ??$extract_argument_from_va_list@PADPAD@?$positional_parameter_base@_WV?$stream_output_adapter@_W@__crt_stdio_output@@@__crt_stdio_output@@IAE_NAAPAD@Z 10048910 f i libucrtd:output.obj
 0001:00047a40       ??$extract_argument_from_va_list@PADPAD@?$positional_parameter_base@_WV?$string_output_adapter@_W@__crt_stdio_output@@@__crt_stdio_output@@IAE_NAAPAD@Z 10048a40 f i libucrtd:output.obj
 0001:00047b70       ??$extract_argument_from_va_list@PADPAD@?$standard_base@DV?$stream_output_adapter@D@__crt_stdio_output@@@__crt_stdio_output@@IAE_NAAPAD@Z 10048b70 f i libucrtd:output.obj
 0001:00047ba0       ??$extract_argument_from_va_list@PADPAD@?$standard_base@DV?$string_output_adapter@D@__crt_stdio_output@@@__crt_stdio_output@@IAE_NAAPAD@Z 10048ba0 f i libucrtd:output.obj
 0001:00047bd0       ??$extract_argument_from_va_list@PADPAD@?$standard_base@_WV?$stream_output_adapter@_W@__crt_stdio_output@@@__crt_stdio_output@@IAE_NAAPAD@Z 10048bd0 f i libucrtd:output.obj
 0001:00047c00       ??$extract_argument_from_va_list@PADPAD@?$standard_base@_WV?$string_output_adapter@_W@__crt_stdio_output@@@__crt_stdio_output@@IAE_NAAPAD@Z 10048c00 f i libucrtd:output.obj
 0001:00048330       ??$extract_argument_from_va_list@PAXPAX@?$positional_parameter_base@DV?$stream_output_adapter@D@__crt_stdio_output@@@__crt_stdio_output@@IAE_NAAPAX@Z 10049330 f i libucrtd:output.obj
 0001:00048460       ??$extract_argument_from_va_list@PAXPAX@?$positional_parameter_base@DV?$string_output_adapter@D@__crt_stdio_output@@@__crt_stdio_output@@IAE_NAAPAX@Z 10049460 f i libucrtd:output.obj
 0001:00048590       ??$extract_argument_from_va_list@PAXPAX@?$positional_parameter_base@_WV?$stream_output_adapter@_W@__crt_stdio_output@@@__crt_stdio_output@@IAE_NAAPAX@Z 10049590 f i libucrtd:output.obj
 0001:000486c0       ??$extract_argument_from_va_list@PAXPAX@?$positional_parameter_base@_WV?$string_output_adapter@_W@__crt_stdio_output@@@__crt_stdio_output@@IAE_NAAPAX@Z 100496c0 f i libucrtd:output.obj
 0001:000487f0       ??$extract_argument_from_va_list@PAXPAX@?$standard_base@DV?$stream_output_adapter@D@__crt_stdio_output@@@__crt_stdio_output@@IAE_NAAPAX@Z 100497f0 f i libucrtd:output.obj
 0001:00048820       ??$extract_argument_from_va_list@PAXPAX@?$standard_base@DV?$string_output_adapter@D@__crt_stdio_output@@@__crt_stdio_output@@IAE_NAAPAX@Z 10049820 f i libucrtd:output.obj
 0001:00048850       ??$extract_argument_from_va_list@PAXPAX@?$standard_base@_WV?$stream_output_adapter@_W@__crt_stdio_output@@@__crt_stdio_output@@IAE_NAAPAX@Z 10049850 f i libucrtd:output.obj
 0001:00048880       ??$extract_argument_from_va_list@PAXPAX@?$standard_base@_WV?$string_output_adapter@_W@__crt_stdio_output@@@__crt_stdio_output@@IAE_NAAPAX@Z 10049880 f i libucrtd:output.obj
 0001:000488b0       ??$extract_argument_from_va_list@U_CRT_DOUBLE@@U1@@?$positional_parameter_base@DV?$stream_output_adapter@D@__crt_stdio_output@@@__crt_stdio_output@@IAE_NAAU_CRT_DOUBLE@@@Z 100498b0 f i libucrtd:output.obj
 0001:00048a10       ??$extract_argument_from_va_list@U_CRT_DOUBLE@@U1@@?$positional_parameter_base@DV?$string_output_adapter@D@__crt_stdio_output@@@__crt_stdio_output@@IAE_NAAU_CRT_DOUBLE@@@Z 10049a10 f i libucrtd:output.obj
 0001:00048b70       ??$extract_argument_from_va_list@U_CRT_DOUBLE@@U1@@?$positional_parameter_base@_WV?$stream_output_adapter@_W@__crt_stdio_output@@@__crt_stdio_output@@IAE_NAAU_CRT_DOUBLE@@@Z 10049b70 f i libucrtd:output.obj
 0001:00048cd0       ??$extract_argument_from_va_list@U_CRT_DOUBLE@@U1@@?$positional_parameter_base@_WV?$string_output_adapter@_W@__crt_stdio_output@@@__crt_stdio_output@@IAE_NAAU_CRT_DOUBLE@@@Z 10049cd0 f i libucrtd:output.obj
 0001:00048e30       ??$extract_argument_from_va_list@U_CRT_DOUBLE@@U1@@?$standard_base@DV?$stream_output_adapter@D@__crt_stdio_output@@@__crt_stdio_output@@IAE_NAAU_CRT_DOUBLE@@@Z 10049e30 f i libucrtd:output.obj
 0001:00048e80       ??$extract_argument_from_va_list@U_CRT_DOUBLE@@U1@@?$standard_base@DV?$string_output_adapter@D@__crt_stdio_output@@@__crt_stdio_output@@IAE_NAAU_CRT_DOUBLE@@@Z 10049e80 f i libucrtd:output.obj
 0001:00048ed0       ??$extract_argument_from_va_list@U_CRT_DOUBLE@@U1@@?$standard_base@_WV?$stream_output_adapter@_W@__crt_stdio_output@@@__crt_stdio_output@@IAE_NAAU_CRT_DOUBLE@@@Z 10049ed0 f i libucrtd:output.obj
 0001:00048f20       ??$extract_argument_from_va_list@U_CRT_DOUBLE@@U1@@?$standard_base@_WV?$string_output_adapter@_W@__crt_stdio_output@@@__crt_stdio_output@@IAE_NAAU_CRT_DOUBLE@@@Z 10049f20 f i libucrtd:output.obj
 0001:00048f70       ??$extract_argument_from_va_list@_J_J@?$positional_parameter_base@DV?$stream_output_adapter@D@__crt_stdio_output@@@__crt_stdio_output@@IAE_NAA_J@Z 10049f70 f i libucrtd:output.obj
 0001:000490a0       ??$extract_argument_from_va_list@_J_J@?$positional_parameter_base@DV?$string_output_adapter@D@__crt_stdio_output@@@__crt_stdio_output@@IAE_NAA_J@Z 1004a0a0 f i libucrtd:output.obj
 0001:000491d0       ??$extract_argument_from_va_list@_J_J@?$positional_parameter_base@_WV?$stream_output_adapter@_W@__crt_stdio_output@@@__crt_stdio_output@@IAE_NAA_J@Z 1004a1d0 f i libucrtd:output.obj
 0001:00049300       ??$extract_argument_from_va_list@_J_J@?$positional_parameter_base@_WV?$string_output_adapter@_W@__crt_stdio_output@@@__crt_stdio_output@@IAE_NAA_J@Z 1004a300 f i libucrtd:output.obj
 0001:00049430       ??$extract_argument_from_va_list@_J_J@?$standard_base@DV?$stream_output_adapter@D@__crt_stdio_output@@@__crt_stdio_output@@IAE_NAA_J@Z 1004a430 f i libucrtd:output.obj
 0001:00049460       ??$extract_argument_from_va_list@_J_J@?$standard_base@DV?$string_output_adapter@D@__crt_stdio_output@@@__crt_stdio_output@@IAE_NAA_J@Z 1004a460 f i libucrtd:output.obj
 0001:00049490       ??$extract_argument_from_va_list@_J_J@?$standard_base@_WV?$stream_output_adapter@_W@__crt_stdio_output@@@__crt_stdio_output@@IAE_NAA_J@Z 1004a490 f i libucrtd:output.obj
 0001:000494c0       ??$extract_argument_from_va_list@_J_J@?$standard_base@_WV?$string_output_adapter@_W@__crt_stdio_output@@@__crt_stdio_output@@IAE_NAA_J@Z 1004a4c0 f i libucrtd:output.obj
 0001:000494f0       ??$extract_argument_from_va_list@_K_J@?$positional_parameter_base@DV?$stream_output_adapter@D@__crt_stdio_output@@@__crt_stdio_output@@IAE_NAA_J@Z 1004a4f0 f i libucrtd:output.obj
 0001:00049620       ??$extract_argument_from_va_list@_K_J@?$positional_parameter_base@DV?$string_output_adapter@D@__crt_stdio_output@@@__crt_stdio_output@@IAE_NAA_J@Z 1004a620 f i libucrtd:output.obj
 0001:00049750       ??$extract_argument_from_va_list@_K_J@?$positional_parameter_base@_WV?$stream_output_adapter@_W@__crt_stdio_output@@@__crt_stdio_output@@IAE_NAA_J@Z 1004a750 f i libucrtd:output.obj
 0001:00049880       ??$extract_argument_from_va_list@_K_J@?$positional_parameter_base@_WV?$string_output_adapter@_W@__crt_stdio_output@@@__crt_stdio_output@@IAE_NAA_J@Z 1004a880 f i libucrtd:output.obj
 0001:000499b0       ??$extract_argument_from_va_list@_K_J@?$standard_base@DV?$stream_output_adapter@D@__crt_stdio_output@@@__crt_stdio_output@@IAE_NAA_J@Z 1004a9b0 f i libucrtd:output.obj
 0001:000499e0       ??$extract_argument_from_va_list@_K_J@?$standard_base@DV?$string_output_adapter@D@__crt_stdio_output@@@__crt_stdio_output@@IAE_NAA_J@Z 1004a9e0 f i libucrtd:output.obj
 0001:00049a10       ??$extract_argument_from_va_list@_K_J@?$standard_base@_WV?$stream_output_adapter@_W@__crt_stdio_output@@@__crt_stdio_output@@IAE_NAA_J@Z 1004aa10 f i libucrtd:output.obj
 0001:00049a40       ??$extract_argument_from_va_list@_K_J@?$standard_base@_WV?$string_output_adapter@_W@__crt_stdio_output@@@__crt_stdio_output@@IAE_NAA_J@Z 1004aa40 f i libucrtd:output.obj
 0001:00049a70       ??$extract_argument_from_va_list@_W_W@?$positional_parameter_base@DV?$stream_output_adapter@D@__crt_stdio_output@@@__crt_stdio_output@@IAE_NAA_W@Z 1004aa70 f i libucrtd:output.obj
 0001:00049ba0       ??$extract_argument_from_va_list@_W_W@?$positional_parameter_base@DV?$string_output_adapter@D@__crt_stdio_output@@@__crt_stdio_output@@IAE_NAA_W@Z 1004aba0 f i libucrtd:output.obj
 0001:00049cd0       ??$extract_argument_from_va_list@_W_W@?$positional_parameter_base@_WV?$stream_output_adapter@_W@__crt_stdio_output@@@__crt_stdio_output@@IAE_NAA_W@Z 1004acd0 f i libucrtd:output.obj
 0001:00049e00       ??$extract_argument_from_va_list@_W_W@?$positional_parameter_base@_WV?$string_output_adapter@_W@__crt_stdio_output@@@__crt_stdio_output@@IAE_NAA_W@Z 1004ae00 f i libucrtd:output.obj
 0001:00049f30       ??$extract_argument_from_va_list@_W_W@?$standard_base@DV?$stream_output_adapter@D@__crt_stdio_output@@@__crt_stdio_output@@IAE_NAA_W@Z 1004af30 f i libucrtd:output.obj
 0001:00049f60       ??$extract_argument_from_va_list@_W_W@?$standard_base@DV?$string_output_adapter@D@__crt_stdio_output@@@__crt_stdio_output@@IAE_NAA_W@Z 1004af60 f i libucrtd:output.obj
 0001:00049f90       ??$extract_argument_from_va_list@_W_W@?$standard_base@_WV?$stream_output_adapter@_W@__crt_stdio_output@@@__crt_stdio_output@@IAE_NAA_W@Z 1004af90 f i libucrtd:output.obj
 0001:00049fc0       ??$extract_argument_from_va_list@_W_W@?$standard_base@_WV?$string_output_adapter@_W@__crt_stdio_output@@@__crt_stdio_output@@IAE_NAA_W@Z 1004afc0 f i libucrtd:output.obj
 0001:00049ff0       ??$get_parameter_type@D@?$positional_parameter_base@DV?$stream_output_adapter@D@__crt_stdio_output@@@__crt_stdio_output@@CA?AW4parameter_type@01@PAD@Z 1004aff0 f i libucrtd:output.obj
 0001:0004a000       ??$get_parameter_type@D@?$positional_parameter_base@DV?$string_output_adapter@D@__crt_stdio_output@@@__crt_stdio_output@@CA?AW4parameter_type@01@PAD@Z 1004b000 f i libucrtd:output.obj
 0001:0004a010       ??$get_parameter_type@D@?$positional_parameter_base@_WV?$stream_output_adapter@_W@__crt_stdio_output@@@__crt_stdio_output@@CA?AW4parameter_type@01@PAD@Z 1004b010 f i libucrtd:output.obj
 0001:0004a020       ??$get_parameter_type@D@?$positional_parameter_base@_WV?$string_output_adapter@_W@__crt_stdio_output@@@__crt_stdio_output@@CA?AW4parameter_type@01@PAD@Z 1004b020 f i libucrtd:output.obj
 0001:0004a070       ??$get_parameter_type@X@?$positional_parameter_base@DV?$stream_output_adapter@D@__crt_stdio_output@@@__crt_stdio_output@@CA?AW4parameter_type@01@PAX@Z 1004b070 f i libucrtd:output.obj
 0001:0004a080       ??$get_parameter_type@X@?$positional_parameter_base@DV?$string_output_adapter@D@__crt_stdio_output@@@__crt_stdio_output@@CA?AW4parameter_type@01@PAX@Z 1004b080 f i libucrtd:output.obj
 0001:0004a090       ??$get_parameter_type@X@?$positional_parameter_base@_WV?$stream_output_adapter@_W@__crt_stdio_output@@@__crt_stdio_output@@CA?AW4parameter_type@01@PAX@Z 1004b090 f i libucrtd:output.obj
 0001:0004a0a0       ??$get_parameter_type@X@?$positional_parameter_base@_WV?$string_output_adapter@_W@__crt_stdio_output@@@__crt_stdio_output@@CA?AW4parameter_type@01@PAX@Z 1004b0a0 f i libucrtd:output.obj
 0001:0004a0b0       ??$is_character_specifier@D@?$positional_parameter_base@DV?$stream_output_adapter@D@__crt_stdio_output@@@__crt_stdio_output@@CA_ND@Z 1004b0b0 f i libucrtd:output.obj
 0001:0004a0e0       ??$is_character_specifier@D@?$positional_parameter_base@DV?$string_output_adapter@D@__crt_stdio_output@@@__crt_stdio_output@@CA_ND@Z 1004b0e0 f i libucrtd:output.obj
 0001:0004a110       ??$is_character_specifier@_W@?$positional_parameter_base@_WV?$stream_output_adapter@_W@__crt_stdio_output@@@__crt_stdio_output@@CA_N_W@Z 1004b110 f i libucrtd:output.obj
 0001:0004a140       ??$is_character_specifier@_W@?$positional_parameter_base@_WV?$string_output_adapter@_W@__crt_stdio_output@@@__crt_stdio_output@@CA_N_W@Z 1004b140 f i libucrtd:output.obj
 0001:0004a170       ??$is_integral_specifier@D@?$positional_parameter_base@DV?$stream_output_adapter@D@__crt_stdio_output@@@__crt_stdio_output@@CA_ND@Z 1004b170 f i libucrtd:output.obj
 0001:0004a1d0       ??$is_integral_specifier@D@?$positional_parameter_base@DV?$string_output_adapter@D@__crt_stdio_output@@@__crt_stdio_output@@CA_ND@Z 1004b1d0 f i libucrtd:output.obj
 0001:0004a230       ??$is_integral_specifier@_W@?$positional_parameter_base@_WV?$stream_output_adapter@_W@__crt_stdio_output@@@__crt_stdio_output@@CA_N_W@Z 1004b230 f i libucrtd:output.obj
 0001:0004a290       ??$is_integral_specifier@_W@?$positional_parameter_base@_WV?$string_output_adapter@_W@__crt_stdio_output@@@__crt_stdio_output@@CA_N_W@Z 1004b290 f i libucrtd:output.obj
 0001:0004a2f0       ??$is_pointer_specifier@D@?$positional_parameter_base@DV?$stream_output_adapter@D@__crt_stdio_output@@@__crt_stdio_output@@CA_ND@Z 1004b2f0 f i libucrtd:output.obj
 0001:0004a320       ??$is_pointer_specifier@D@?$positional_parameter_base@DV?$string_output_adapter@D@__crt_stdio_output@@@__crt_stdio_output@@CA_ND@Z 1004b320 f i libucrtd:output.obj
 0001:0004a350       ??$is_pointer_specifier@_W@?$positional_parameter_base@_WV?$stream_output_adapter@_W@__crt_stdio_output@@@__crt_stdio_output@@CA_N_W@Z 1004b350 f i libucrtd:output.obj
 0001:0004a380       ??$is_pointer_specifier@_W@?$positional_parameter_base@_WV?$string_output_adapter@_W@__crt_stdio_output@@@__crt_stdio_output@@CA_N_W@Z 1004b380 f i libucrtd:output.obj
 0001:0004a3b0       ??$is_string_specifier@D@?$positional_parameter_base@DV?$stream_output_adapter@D@__crt_stdio_output@@@__crt_stdio_output@@CA_ND@Z 1004b3b0 f i libucrtd:output.obj
 0001:0004a3e0       ??$is_string_specifier@D@?$positional_parameter_base@DV?$string_output_adapter@D@__crt_stdio_output@@@__crt_stdio_output@@CA_ND@Z 1004b3e0 f i libucrtd:output.obj
 0001:0004a410       ??$is_string_specifier@_W@?$positional_parameter_base@_WV?$stream_output_adapter@_W@__crt_stdio_output@@@__crt_stdio_output@@CA_N_W@Z 1004b410 f i libucrtd:output.obj
 0001:0004a440       ??$is_string_specifier@_W@?$positional_parameter_base@_WV?$string_output_adapter@_W@__crt_stdio_output@@@__crt_stdio_output@@CA_N_W@Z 1004b440 f i libucrtd:output.obj
 0001:0004a470       ??$is_wide_character_specifier@D@__crt_stdio_output@@YA_N_KDW4length_modifier@0@@Z 1004b470 f i libucrtd:output.obj
 0001:0004a4f0       ??$is_wide_character_specifier@_W@__crt_stdio_output@@YA_N_K_WW4length_modifier@0@@Z 1004b4f0 f i libucrtd:output.obj
 0001:0004a5b0       ??$peek_va_arg@C@__crt_stdio_output@@YACPAD@Z 1004b5b0 f i libucrtd:output.obj
 0001:0004a5d0       ??$peek_va_arg@E@__crt_stdio_output@@YAEPAD@Z 1004b5d0 f i libucrtd:output.obj
 0001:0004a5f0       ??$peek_va_arg@F@__crt_stdio_output@@YAFPAD@Z 1004b5f0 f i libucrtd:output.obj
 0001:0004a610       ??$peek_va_arg@G@__crt_stdio_output@@YAGPAD@Z 1004b610 f i libucrtd:output.obj
 0001:0004a630       ??$peek_va_arg@H@__crt_stdio_output@@YAHPAD@Z 1004b630 f i libucrtd:output.obj
 0001:0004a650       ??$peek_va_arg@I@__crt_stdio_output@@YAIPAD@Z 1004b650 f i libucrtd:output.obj
 0001:0004a670       ??$peek_va_arg@PAD@__crt_stdio_output@@YAPADPAD@Z 1004b670 f i libucrtd:output.obj
 0001:0004a710       ??$peek_va_arg@PAX@__crt_stdio_output@@YAPAXPAD@Z 1004b710 f i libucrtd:output.obj
 0001:0004a730       ??$peek_va_arg@U_CRT_DOUBLE@@@__crt_stdio_output@@YA?AU_CRT_DOUBLE@@PAD@Z 1004b730 f i libucrtd:output.obj
 0001:0004a750       ??$peek_va_arg@_J@__crt_stdio_output@@YA_JPAD@Z 1004b750 f i libucrtd:output.obj
 0001:0004a770       ??$peek_va_arg@_K@__crt_stdio_output@@YA_KPAD@Z 1004b770 f i libucrtd:output.obj
 0001:0004a790       ??$peek_va_arg@_W@__crt_stdio_output@@YA_WPAD@Z 1004b790 f i libucrtd:output.obj
 0001:0004a7b0       ??$puttc_nolock@ABDPAU_iobuf@@@?$__crt_char_traits@D@@SAHABD$$QAPAU_iobuf@@@Z 1004b7b0 f i libucrtd:output.obj
 0001:0004a7d0       ??$puttc_nolock@AB_WPAU_iobuf@@@?$__crt_char_traits@_W@@SAGAB_W$$QAPAU_iobuf@@@Z 1004b7d0 f i libucrtd:output.obj
 0001:0004a7f0       ??$read_va_arg@C@__crt_stdio_output@@YACAAPAD@Z 1004b7f0 f i libucrtd:output.obj
 0001:0004a810       ??$read_va_arg@E@__crt_stdio_output@@YAEAAPAD@Z 1004b810 f i libucrtd:output.obj
 0001:0004a830       ??$read_va_arg@F@__crt_stdio_output@@YAFAAPAD@Z 1004b830 f i libucrtd:output.obj
 0001:0004a850       ??$read_va_arg@G@__crt_stdio_output@@YAGAAPAD@Z 1004b850 f i libucrtd:output.obj
 0001:0004a870       ??$read_va_arg@H@__crt_stdio_output@@YAHAAPAD@Z 1004b870 f i libucrtd:output.obj
 0001:0004a890       ??$read_va_arg@I@__crt_stdio_output@@YAIAAPAD@Z 1004b890 f i libucrtd:output.obj
 0001:0004a8b0       ??$read_va_arg@PAD@__crt_stdio_output@@YAPADAAPAD@Z 1004b8b0 f i libucrtd:output.obj
 0001:0004aa50       ??$read_va_arg@PAX@__crt_stdio_output@@YAPAXAAPAD@Z 1004ba50 f i libucrtd:output.obj
 0001:0004aa70       ??$read_va_arg@U_CRT_DOUBLE@@@__crt_stdio_output@@YA?AU_CRT_DOUBLE@@AAPAD@Z 1004ba70 f i libucrtd:output.obj
 0001:0004aa90       ??$read_va_arg@_J@__crt_stdio_output@@YA_JAAPAD@Z 1004ba90 f i libucrtd:output.obj
 0001:0004aab0       ??$read_va_arg@_K@__crt_stdio_output@@YA_KAAPAD@Z 1004bab0 f i libucrtd:output.obj
 0001:0004aad0       ??$read_va_arg@_W@__crt_stdio_output@@YA_WAAPAD@Z 1004bad0 f i libucrtd:output.obj
 0001:0004aaf0       ??$scratch_count@D@formatting_buffer@__crt_stdio_output@@QBEIXZ 1004baf0 f i libucrtd:output.obj
 0001:0004ab10       ??$scratch_data@D@formatting_buffer@__crt_stdio_output@@QAEPADXZ 1004bb10 f i libucrtd:output.obj
 0001:0004ab60       ??$tcstol@AAPBDPAPADH@?$__crt_char_traits@D@@SAJAAPBD$$QAPAPAD$$QAH@Z 1004bb60 f i libucrtd:output.obj
 0001:0004ab90       ??$tcstol@AAPB_WPAPA_WH@?$__crt_char_traits@_W@@SAJAAPB_W$$QAPAPA_W$$QAH@Z 1004bb90 f i libucrtd:output.obj
 0001:0004abc0       ??$tcstol@PBDPAPADH@?$__crt_char_traits@D@@SAJ$$QAPBD$$QAPAPAD$$QAH@Z 1004bbc0 f i libucrtd:output.obj
 0001:0004abf0       ??$tcstol@PB_WPAPA_WH@?$__crt_char_traits@_W@@SAJ$$QAPB_W$$QAPAPA_W$$QAH@Z 1004bbf0 f i libucrtd:output.obj
 0001:0004ac20       ??$type_case_integer_parse_into_buffer@I@?$output_processor@DV?$stream_output_adapter@D@__crt_stdio_output@@V?$format_validation_base@DV?$stream_output_adapter@D@__crt_stdio_output@@@2@@__crt_stdio_output@@AAEXII_N@Z 1004bc20 f i libucrtd:output.obj
 0001:0004acf0       ??$type_case_integer_parse_into_buffer@I@?$output_processor@DV?$stream_output_adapter@D@__crt_stdio_output@@V?$positional_parameter_base@DV?$stream_output_adapter@D@__crt_stdio_output@@@2@@__crt_stdio_output@@AAEXII_N@Z 1004bcf0 f i libucrtd:output.obj
 0001:0004adc0       ??$type_case_integer_parse_into_buffer@I@?$output_processor@DV?$stream_output_adapter@D@__crt_stdio_output@@V?$standard_base@DV?$stream_output_adapter@D@__crt_stdio_output@@@2@@__crt_stdio_output@@AAEXII_N@Z 1004bdc0 f i libucrtd:output.obj
 0001:0004ae90       ??$type_case_integer_parse_into_buffer@I@?$output_processor@DV?$string_output_adapter@D@__crt_stdio_output@@V?$format_validation_base@DV?$string_output_adapter@D@__crt_stdio_output@@@2@@__crt_stdio_output@@AAEXII_N@Z 1004be90 f i libucrtd:output.obj
 0001:0004af60       ??$type_case_integer_parse_into_buffer@I@?$output_processor@DV?$string_output_adapter@D@__crt_stdio_output@@V?$positional_parameter_base@DV?$string_output_adapter@D@__crt_stdio_output@@@2@@__crt_stdio_output@@AAEXII_N@Z 1004bf60 f i libucrtd:output.obj
 0001:0004b030       ??$type_case_integer_parse_into_buffer@I@?$output_processor@DV?$string_output_adapter@D@__crt_stdio_output@@V?$standard_base@DV?$string_output_adapter@D@__crt_stdio_output@@@2@@__crt_stdio_output@@AAEXII_N@Z 1004c030 f i libucrtd:output.obj
 0001:0004b100       ??$type_case_integer_parse_into_buffer@I@?$output_processor@_WV?$stream_output_adapter@_W@__crt_stdio_output@@V?$format_validation_base@_WV?$stream_output_adapter@_W@__crt_stdio_output@@@2@@__crt_stdio_output@@AAEXII_N@Z 1004c100 f i libucrtd:output.obj
 0001:0004b1e0       ??$type_case_integer_parse_into_buffer@I@?$output_processor@_WV?$stream_output_adapter@_W@__crt_stdio_output@@V?$positional_parameter_base@_WV?$stream_output_adapter@_W@__crt_stdio_output@@@2@@__crt_stdio_output@@AAEXII_N@Z 1004c1e0 f i libucrtd:output.obj
 0001:0004b2c0       ??$type_case_integer_parse_into_buffer@I@?$output_processor@_WV?$stream_output_adapter@_W@__crt_stdio_output@@V?$standard_base@_WV?$stream_output_adapter@_W@__crt_stdio_output@@@2@@__crt_stdio_output@@AAEXII_N@Z 1004c2c0 f i libucrtd:output.obj
 0001:0004b3a0       ??$type_case_integer_parse_into_buffer@I@?$output_processor@_WV?$string_output_adapter@_W@__crt_stdio_output@@V?$format_validation_base@_WV?$string_output_adapter@_W@__crt_stdio_output@@@2@@__crt_stdio_output@@AAEXII_N@Z 1004c3a0 f i libucrtd:output.obj
 0001:0004b480       ??$type_case_integer_parse_into_buffer@I@?$output_processor@_WV?$string_output_adapter@_W@__crt_stdio_output@@V?$positional_parameter_base@_WV?$string_output_adapter@_W@__crt_stdio_output@@@2@@__crt_stdio_output@@AAEXII_N@Z 1004c480 f i libucrtd:output.obj
 0001:0004b560       ??$type_case_integer_parse_into_buffer@I@?$output_processor@_WV?$string_output_adapter@_W@__crt_stdio_output@@V?$standard_base@_WV?$string_output_adapter@_W@__crt_stdio_output@@@2@@__crt_stdio_output@@AAEXII_N@Z 1004c560 f i libucrtd:output.obj
 0001:0004b640       ??$type_case_integer_parse_into_buffer@_K@?$output_processor@DV?$stream_output_adapter@D@__crt_stdio_output@@V?$format_validation_base@DV?$stream_output_adapter@D@__crt_stdio_output@@@2@@__crt_stdio_output@@AAEX_KI_N@Z 1004c640 f i libucrtd:output.obj
 0001:0004b730       ??$type_case_integer_parse_into_buffer@_K@?$output_processor@DV?$stream_output_adapter@D@__crt_stdio_output@@V?$positional_parameter_base@DV?$stream_output_adapter@D@__crt_stdio_output@@@2@@__crt_stdio_output@@AAEX_KI_N@Z 1004c730 f i libucrtd:output.obj
 0001:0004b820       ??$type_case_integer_parse_into_buffer@_K@?$output_processor@DV?$stream_output_adapter@D@__crt_stdio_output@@V?$standard_base@DV?$stream_output_adapter@D@__crt_stdio_output@@@2@@__crt_stdio_output@@AAEX_KI_N@Z 1004c820 f i libucrtd:output.obj
 0001:0004b910       ??$type_case_integer_parse_into_buffer@_K@?$output_processor@DV?$string_output_adapter@D@__crt_stdio_output@@V?$format_validation_base@DV?$string_output_adapter@D@__crt_stdio_output@@@2@@__crt_stdio_output@@AAEX_KI_N@Z 1004c910 f i libucrtd:output.obj
 0001:0004ba00       ??$type_case_integer_parse_into_buffer@_K@?$output_processor@DV?$string_output_adapter@D@__crt_stdio_output@@V?$positional_parameter_base@DV?$string_output_adapter@D@__crt_stdio_output@@@2@@__crt_stdio_output@@AAEX_KI_N@Z 1004ca00 f i libucrtd:output.obj
 0001:0004baf0       ??$type_case_integer_parse_into_buffer@_K@?$output_processor@DV?$string_output_adapter@D@__crt_stdio_output@@V?$standard_base@DV?$string_output_adapter@D@__crt_stdio_output@@@2@@__crt_stdio_output@@AAEX_KI_N@Z 1004caf0 f i libucrtd:output.obj
 0001:0004bbe0       ??$type_case_integer_parse_into_buffer@_K@?$output_processor@_WV?$stream_output_adapter@_W@__crt_stdio_output@@V?$format_validation_base@_WV?$stream_output_adapter@_W@__crt_stdio_output@@@2@@__crt_stdio_output@@AAEX_KI_N@Z 1004cbe0 f i libucrtd:output.obj
 0001:0004bce0       ??$type_case_integer_parse_into_buffer@_K@?$output_processor@_WV?$stream_output_adapter@_W@__crt_stdio_output@@V?$positional_parameter_base@_WV?$stream_output_adapter@_W@__crt_stdio_output@@@2@@__crt_stdio_output@@AAEX_KI_N@Z 1004cce0 f i libucrtd:output.obj
 0001:0004bde0       ??$type_case_integer_parse_into_buffer@_K@?$output_processor@_WV?$stream_output_adapter@_W@__crt_stdio_output@@V?$standard_base@_WV?$stream_output_adapter@_W@__crt_stdio_output@@@2@@__crt_stdio_output@@AAEX_KI_N@Z 1004cde0 f i libucrtd:output.obj
 0001:0004bee0       ??$type_case_integer_parse_into_buffer@_K@?$output_processor@_WV?$string_output_adapter@_W@__crt_stdio_output@@V?$format_validation_base@_WV?$string_output_adapter@_W@__crt_stdio_output@@@2@@__crt_stdio_output@@AAEX_KI_N@Z 1004cee0 f i libucrtd:output.obj
 0001:0004bfe0       ??$type_case_integer_parse_into_buffer@_K@?$output_processor@_WV?$string_output_adapter@_W@__crt_stdio_output@@V?$positional_parameter_base@_WV?$string_output_adapter@_W@__crt_stdio_output@@@2@@__crt_stdio_output@@AAEX_KI_N@Z 1004cfe0 f i libucrtd:output.obj
 0001:0004c0e0       ??$type_case_integer_parse_into_buffer@_K@?$output_processor@_WV?$string_output_adapter@_W@__crt_stdio_output@@V?$standard_base@_WV?$string_output_adapter@_W@__crt_stdio_output@@@2@@__crt_stdio_output@@AAEX_KI_N@Z 1004d0e0 f i libucrtd:output.obj
 0001:0004c1e0       ??$write_multiple_characters@V?$stream_output_adapter@D@__crt_stdio_output@@D@__crt_stdio_output@@YAXABV?$stream_output_adapter@D@0@DHQAH@Z 1004d1e0 f i libucrtd:output.obj
 0001:0004c230       ??$write_multiple_characters@V?$stream_output_adapter@_W@__crt_stdio_output@@D@__crt_stdio_output@@YAXABV?$stream_output_adapter@_W@0@DHQAH@Z 1004d230 f i libucrtd:output.obj
 0001:0004c280       ??$write_multiple_characters@V?$string_output_adapter@D@__crt_stdio_output@@D@__crt_stdio_output@@YAXABV?$string_output_adapter@D@0@DHQAH@Z 1004d280 f i libucrtd:output.obj
 0001:0004c2d0       ??$write_multiple_characters@V?$string_output_adapter@_W@__crt_stdio_output@@D@__crt_stdio_output@@YAXABV?$string_output_adapter@_W@0@DHQAH@Z 1004d2d0 f i libucrtd:output.obj
 0001:0004c620       ??0?$common_data@D@__crt_stdio_output@@IAE@XZ 1004d620 f i libucrtd:output.obj
 0001:0004c6d0       ??0?$common_data@_W@__crt_stdio_output@@IAE@XZ 1004d6d0 f i libucrtd:output.obj
 0001:0004c780       ??0?$output_adapter_data@DV?$stream_output_adapter@D@__crt_stdio_output@@@__crt_stdio_output@@IAE@ABV?$stream_output_adapter@D@1@_KQBDQAU__crt_locale_pointers@@QAD@Z 1004d780 f i libucrtd:output.obj
 0001:0004c7e0       ??0?$output_adapter_data@DV?$string_output_adapter@D@__crt_stdio_output@@@__crt_stdio_output@@IAE@ABV?$string_output_adapter@D@1@_KQBDQAU__crt_locale_pointers@@QAD@Z 1004d7e0 f i libucrtd:output.obj
 0001:0004c840       ??0?$output_adapter_data@_WV?$stream_output_adapter@_W@__crt_stdio_output@@@__crt_stdio_output@@IAE@ABV?$stream_output_adapter@_W@1@_KQB_WQAU__crt_locale_pointers@@QAD@Z 1004d840 f i libucrtd:output.obj
 0001:0004c8a0       ??0?$output_adapter_data@_WV?$string_output_adapter@_W@__crt_stdio_output@@@__crt_stdio_output@@IAE@ABV?$string_output_adapter@_W@1@_KQB_WQAU__crt_locale_pointers@@QAD@Z 1004d8a0 f i libucrtd:output.obj
 0001:0004c900       ??0?$output_processor@DV?$stream_output_adapter@D@__crt_stdio_output@@V?$format_validation_base@DV?$stream_output_adapter@D@__crt_stdio_output@@@2@@__crt_stdio_output@@QAE@ABV?$stream_output_adapter@D@1@_KQBDQAU__crt_locale_pointers@@QAD@Z 1004d900 f i libucrtd:output.obj
 0001:0004c930       ??0?$output_processor@DV?$stream_output_adapter@D@__crt_stdio_output@@V?$positional_parameter_base@DV?$stream_output_adapter@D@__crt_stdio_output@@@2@@__crt_stdio_output@@QAE@ABV?$stream_output_adapter@D@1@_KQBDQAU__crt_locale_pointers@@QAD@Z 1004d930 f i libucrtd:output.obj
 0001:0004c960       ??0?$output_processor@DV?$stream_output_adapter@D@__crt_stdio_output@@V?$standard_base@DV?$stream_output_adapter@D@__crt_stdio_output@@@2@@__crt_stdio_output@@QAE@ABV?$stream_output_adapter@D@1@_KQBDQAU__crt_locale_pointers@@QAD@Z 1004d960 f i libucrtd:output.obj
 0001:0004c990       ??0?$output_processor@DV?$string_output_adapter@D@__crt_stdio_output@@V?$format_validation_base@DV?$string_output_adapter@D@__crt_stdio_output@@@2@@__crt_stdio_output@@QAE@ABV?$string_output_adapter@D@1@_KQBDQAU__crt_locale_pointers@@QAD@Z 1004d990 f i libucrtd:output.obj
 0001:0004c9c0       ??0?$output_processor@DV?$string_output_adapter@D@__crt_stdio_output@@V?$positional_parameter_base@DV?$string_output_adapter@D@__crt_stdio_output@@@2@@__crt_stdio_output@@QAE@ABV?$string_output_adapter@D@1@_KQBDQAU__crt_locale_pointers@@QAD@Z 1004d9c0 f i libucrtd:output.obj
 0001:0004c9f0       ??0?$output_processor@DV?$string_output_adapter@D@__crt_stdio_output@@V?$standard_base@DV?$string_output_adapter@D@__crt_stdio_output@@@2@@__crt_stdio_output@@QAE@ABV?$string_output_adapter@D@1@_KQBDQAU__crt_locale_pointers@@QAD@Z 1004d9f0 f i libucrtd:output.obj
 0001:0004ca20       ??0?$output_processor@_WV?$stream_output_adapter@_W@__crt_stdio_output@@V?$format_validation_base@_WV?$stream_output_adapter@_W@__crt_stdio_output@@@2@@__crt_stdio_output@@QAE@ABV?$stream_output_adapter@_W@1@_KQB_WQAU__crt_locale_pointers@@QAD@Z 1004da20 f i libucrtd:output.obj
 0001:0004ca50       ??0?$output_processor@_WV?$stream_output_adapter@_W@__crt_stdio_output@@V?$positional_parameter_base@_WV?$stream_output_adapter@_W@__crt_stdio_output@@@2@@__crt_stdio_output@@QAE@ABV?$stream_output_adapter@_W@1@_KQB_WQAU__crt_locale_pointers@@QAD@Z 1004da50 f i libucrtd:output.obj
 0001:0004ca80       ??0?$output_processor@_WV?$stream_output_adapter@_W@__crt_stdio_output@@V?$standard_base@_WV?$stream_output_adapter@_W@__crt_stdio_output@@@2@@__crt_stdio_output@@QAE@ABV?$stream_output_adapter@_W@1@_KQB_WQAU__crt_locale_pointers@@QAD@Z 1004da80 f i libucrtd:output.obj
 0001:0004cab0       ??0?$output_processor@_WV?$string_output_adapter@_W@__crt_stdio_output@@V?$format_validation_base@_WV?$string_output_adapter@_W@__crt_stdio_output@@@2@@__crt_stdio_output@@QAE@ABV?$string_output_adapter@_W@1@_KQB_WQAU__crt_locale_pointers@@QAD@Z 1004dab0 f i libucrtd:output.obj
 0001:0004cae0       ??0?$output_processor@_WV?$string_output_adapter@_W@__crt_stdio_output@@V?$positional_parameter_base@_WV?$string_output_adapter@_W@__crt_stdio_output@@@2@@__crt_stdio_output@@QAE@ABV?$string_output_adapter@_W@1@_KQB_WQAU__crt_locale_pointers@@QAD@Z 1004dae0 f i libucrtd:output.obj
 0001:0004cb10       ??0?$output_processor@_WV?$string_output_adapter@_W@__crt_stdio_output@@V?$standard_base@_WV?$string_output_adapter@_W@__crt_stdio_output@@@2@@__crt_stdio_output@@QAE@ABV?$string_output_adapter@_W@1@_KQB_WQAU__crt_locale_pointers@@QAD@Z 1004db10 f i libucrtd:output.obj
 0001:0004cb40       ??0?$stream_output_adapter@D@__crt_stdio_output@@QAE@QAU_iobuf@@@Z 1004db40 f i libucrtd:output.obj
 0001:0004cb60       ??0?$stream_output_adapter@_W@__crt_stdio_output@@QAE@QAU_iobuf@@@Z 1004db60 f i libucrtd:output.obj
 0001:0004cb80       ??0?$string_output_adapter@D@__crt_stdio_output@@QAE@QAU?$string_output_adapter_context@D@1@@Z 1004db80 f i libucrtd:output.obj
 0001:0004cba0       ??0?$string_output_adapter@_W@__crt_stdio_output@@QAE@QAU?$string_output_adapter_context@_W@1@@Z 1004dba0 f i libucrtd:output.obj
 0001:0004cbc0       ??0_LocaleUpdate@@QAE@QAU__crt_locale_pointers@@@Z 1004dbc0 f i libucrtd:output.obj
 0001:0004cca0       ??0__acrt_stdio_temporary_buffering_guard@@QAE@QAU_iobuf@@@Z 1004dca0 f i libucrtd:output.obj
 0001:0004ccd0       ??0__crt_deferred_errno_cache@@QAE@XZ 1004dcd0 f i libucrtd:output.obj
 0001:0004ccf0       ??0__crt_errno_guard@@QAE@QAH@Z 1004dcf0 f i libucrtd:output.obj
 0001:0004cd20       ??0__crt_stdio_stream@@QAE@QAU_iobuf@@@Z 1004dd20 f i libucrtd:output.obj
 0001:0004cd40       ??0formatting_buffer@__crt_stdio_output@@QAE@XZ 1004dd40 f i libucrtd:output.obj
 0001:0004cd70       ??1?$common_data@D@__crt_stdio_output@@QAE@XZ 1004dd70 f i libucrtd:output.obj
 0001:0004cd90       ??1?$common_data@_W@__crt_stdio_output@@QAE@XZ 1004dd90 f i libucrtd:output.obj
 0001:0004cdb0       ??1?$format_validation_base@DV?$stream_output_adapter@D@__crt_stdio_output@@@__crt_stdio_output@@QAE@XZ 1004ddb0 f i libucrtd:output.obj
 0001:0004cdd0       ??1?$format_validation_base@DV?$string_output_adapter@D@__crt_stdio_output@@@__crt_stdio_output@@QAE@XZ 1004ddd0 f i libucrtd:output.obj
 0001:0004cdf0       ??1?$format_validation_base@_WV?$stream_output_adapter@_W@__crt_stdio_output@@@__crt_stdio_output@@QAE@XZ 1004ddf0 f i libucrtd:output.obj
 0001:0004ce10       ??1?$format_validation_base@_WV?$string_output_adapter@_W@__crt_stdio_output@@@__crt_stdio_output@@QAE@XZ 1004de10 f i libucrtd:output.obj
 0001:0004ce30       ??1?$output_adapter_data@DV?$stream_output_adapter@D@__crt_stdio_output@@@__crt_stdio_output@@QAE@XZ 1004de30 f i libucrtd:output.obj
 0001:0004ce50       ??1?$output_adapter_data@DV?$string_output_adapter@D@__crt_stdio_output@@@__crt_stdio_output@@QAE@XZ 1004de50 f i libucrtd:output.obj
 0001:0004ce70       ??1?$output_adapter_data@_WV?$stream_output_adapter@_W@__crt_stdio_output@@@__crt_stdio_output@@QAE@XZ 1004de70 f i libucrtd:output.obj
 0001:0004ce90       ??1?$output_adapter_data@_WV?$string_output_adapter@_W@__crt_stdio_output@@@__crt_stdio_output@@QAE@XZ 1004de90 f i libucrtd:output.obj
 0001:0004ceb0       ??1?$output_processor@DV?$stream_output_adapter@D@__crt_stdio_output@@V?$format_validation_base@DV?$stream_output_adapter@D@__crt_stdio_output@@@2@@__crt_stdio_output@@QAE@XZ 1004deb0 f i libucrtd:output.obj
 0001:0004ced0       ??1?$output_processor@DV?$stream_output_adapter@D@__crt_stdio_output@@V?$positional_parameter_base@DV?$stream_output_adapter@D@__crt_stdio_output@@@2@@__crt_stdio_output@@QAE@XZ 1004ded0 f i libucrtd:output.obj
 0001:0004cef0       ??1?$output_processor@DV?$stream_output_adapter@D@__crt_stdio_output@@V?$standard_base@DV?$stream_output_adapter@D@__crt_stdio_output@@@2@@__crt_stdio_output@@QAE@XZ 1004def0 f i libucrtd:output.obj
 0001:0004cf10       ??1?$output_processor@DV?$string_output_adapter@D@__crt_stdio_output@@V?$format_validation_base@DV?$string_output_adapter@D@__crt_stdio_output@@@2@@__crt_stdio_output@@QAE@XZ 1004df10 f i libucrtd:output.obj
 0001:0004cf30       ??1?$output_processor@DV?$string_output_adapter@D@__crt_stdio_output@@V?$positional_parameter_base@DV?$string_output_adapter@D@__crt_stdio_output@@@2@@__crt_stdio_output@@QAE@XZ 1004df30 f i libucrtd:output.obj
 0001:0004cf50       ??1?$output_processor@DV?$string_output_adapter@D@__crt_stdio_output@@V?$standard_base@DV?$string_output_adapter@D@__crt_stdio_output@@@2@@__crt_stdio_output@@QAE@XZ 1004df50 f i libucrtd:output.obj
 0001:0004cf70       ??1?$output_processor@_WV?$stream_output_adapter@_W@__crt_stdio_output@@V?$format_validation_base@_WV?$stream_output_adapter@_W@__crt_stdio_output@@@2@@__crt_stdio_output@@QAE@XZ 1004df70 f i libucrtd:output.obj
 0001:0004cf90       ??1?$output_processor@_WV?$stream_output_adapter@_W@__crt_stdio_output@@V?$positional_parameter_base@_WV?$stream_output_adapter@_W@__crt_stdio_output@@@2@@__crt_stdio_output@@QAE@XZ 1004df90 f i libucrtd:output.obj
 0001:0004cfb0       ??1?$output_processor@_WV?$stream_output_adapter@_W@__crt_stdio_output@@V?$standard_base@_WV?$stream_output_adapter@_W@__crt_stdio_output@@@2@@__crt_stdio_output@@QAE@XZ 1004dfb0 f i libucrtd:output.obj
 0001:0004cfd0       ??1?$output_processor@_WV?$string_output_adapter@_W@__crt_stdio_output@@V?$format_validation_base@_WV?$string_output_adapter@_W@__crt_stdio_output@@@2@@__crt_stdio_output@@QAE@XZ 1004dfd0 f i libucrtd:output.obj
 0001:0004cff0       ??1?$output_processor@_WV?$string_output_adapter@_W@__crt_stdio_output@@V?$positional_parameter_base@_WV?$string_output_adapter@_W@__crt_stdio_output@@@2@@__crt_stdio_output@@QAE@XZ 1004dff0 f i libucrtd:output.obj
 0001:0004d010       ??1?$output_processor@_WV?$string_output_adapter@_W@__crt_stdio_output@@V?$standard_base@_WV?$string_output_adapter@_W@__crt_stdio_output@@@2@@__crt_stdio_output@@QAE@XZ 1004e010 f i libucrtd:output.obj
 0001:0004d030       ??1?$positional_parameter_base@DV?$stream_output_adapter@D@__crt_stdio_output@@@__crt_stdio_output@@QAE@XZ 1004e030 f i libucrtd:output.obj
 0001:0004d050       ??1?$positional_parameter_base@DV?$string_output_adapter@D@__crt_stdio_output@@@__crt_stdio_output@@QAE@XZ 1004e050 f i libucrtd:output.obj
 0001:0004d070       ??1?$positional_parameter_base@_WV?$stream_output_adapter@_W@__crt_stdio_output@@@__crt_stdio_output@@QAE@XZ 1004e070 f i libucrtd:output.obj
 0001:0004d090       ??1?$positional_parameter_base@_WV?$string_output_adapter@_W@__crt_stdio_output@@@__crt_stdio_output@@QAE@XZ 1004e090 f i libucrtd:output.obj
 0001:0004d0b0       ??1?$standard_base@DV?$stream_output_adapter@D@__crt_stdio_output@@@__crt_stdio_output@@QAE@XZ 1004e0b0 f i libucrtd:output.obj
 0001:0004d0d0       ??1?$standard_base@DV?$string_output_adapter@D@__crt_stdio_output@@@__crt_stdio_output@@QAE@XZ 1004e0d0 f i libucrtd:output.obj
 0001:0004d0f0       ??1?$standard_base@_WV?$stream_output_adapter@_W@__crt_stdio_output@@@__crt_stdio_output@@QAE@XZ 1004e0f0 f i libucrtd:output.obj
 0001:0004d110       ??1?$standard_base@_WV?$string_output_adapter@_W@__crt_stdio_output@@@__crt_stdio_output@@QAE@XZ 1004e110 f i libucrtd:output.obj
 0001:0004d130       ??1_LocaleUpdate@@QAE@XZ   1004e130 f i libucrtd:output.obj
 0001:0004d170       ??1__acrt_stdio_temporary_buffering_guard@@QAE@XZ 1004e170 f i libucrtd:output.obj
 0001:0004d1a0       ??1__crt_errno_guard@@QAE@XZ 1004e1a0 f i libucrtd:output.obj
 0001:0004d1d0       ??1formatting_buffer@__crt_stdio_output@@QAE@XZ 1004e1d0 f i libucrtd:output.obj
 0001:0004d1f0       ??4?$__crt_unique_heap_ptr@DU__crt_internal_free_policy@@@@QAEAAV0@$$QAV0@@Z 1004e1f0 f i libucrtd:output.obj
 0001:0004d220       ??C__crt_stdio_stream@@QBEPAU__crt_stdio_stream_data@@XZ 1004e220 f i libucrtd:output.obj
 0001:0004d960       ?GetLocaleT@_LocaleUpdate@@QAEPAU__crt_locale_pointers@@XZ 1004e960 f i libucrtd:output.obj
 0001:0004d980       ?adjust_hexit@?$output_processor@DV?$stream_output_adapter@D@__crt_stdio_output@@V?$format_validation_base@DV?$stream_output_adapter@D@__crt_stdio_output@@@2@@__crt_stdio_output@@CADH_N@Z 1004e980 f i libucrtd:output.obj
 0001:0004d9c0       ?adjust_hexit@?$output_processor@DV?$stream_output_adapter@D@__crt_stdio_output@@V?$positional_parameter_base@DV?$stream_output_adapter@D@__crt_stdio_output@@@2@@__crt_stdio_output@@CADH_N@Z 1004e9c0 f i libucrtd:output.obj
 0001:0004da00       ?adjust_hexit@?$output_processor@DV?$stream_output_adapter@D@__crt_stdio_output@@V?$standard_base@DV?$stream_output_adapter@D@__crt_stdio_output@@@2@@__crt_stdio_output@@CADH_N@Z 1004ea00 f i libucrtd:output.obj
 0001:0004da40       ?adjust_hexit@?$output_processor@DV?$string_output_adapter@D@__crt_stdio_output@@V?$format_validation_base@DV?$string_output_adapter@D@__crt_stdio_output@@@2@@__crt_stdio_output@@CADH_N@Z 1004ea40 f i libucrtd:output.obj
 0001:0004da80       ?adjust_hexit@?$output_processor@DV?$string_output_adapter@D@__crt_stdio_output@@V?$positional_parameter_base@DV?$string_output_adapter@D@__crt_stdio_output@@@2@@__crt_stdio_output@@CADH_N@Z 1004ea80 f i libucrtd:output.obj
 0001:0004dac0       ?adjust_hexit@?$output_processor@DV?$string_output_adapter@D@__crt_stdio_output@@V?$standard_base@DV?$string_output_adapter@D@__crt_stdio_output@@@2@@__crt_stdio_output@@CADH_N@Z 1004eac0 f i libucrtd:output.obj
 0001:0004db00       ?adjust_hexit@?$output_processor@_WV?$stream_output_adapter@_W@__crt_stdio_output@@V?$format_validation_base@_WV?$stream_output_adapter@_W@__crt_stdio_output@@@2@@__crt_stdio_output@@CADH_N@Z 1004eb00 f i libucrtd:output.obj
 0001:0004db40       ?adjust_hexit@?$output_processor@_WV?$stream_output_adapter@_W@__crt_stdio_output@@V?$positional_parameter_base@_WV?$stream_output_adapter@_W@__crt_stdio_output@@@2@@__crt_stdio_output@@CADH_N@Z 1004eb40 f i libucrtd:output.obj
 0001:0004db80       ?adjust_hexit@?$output_processor@_WV?$stream_output_adapter@_W@__crt_stdio_output@@V?$standard_base@_WV?$stream_output_adapter@_W@__crt_stdio_output@@@2@@__crt_stdio_output@@CADH_N@Z 1004eb80 f i libucrtd:output.obj
 0001:0004dbc0       ?adjust_hexit@?$output_processor@_WV?$string_output_adapter@_W@__crt_stdio_output@@V?$format_validation_base@_WV?$string_output_adapter@_W@__crt_stdio_output@@@2@@__crt_stdio_output@@CADH_N@Z 1004ebc0 f i libucrtd:output.obj
 0001:0004dc00       ?adjust_hexit@?$output_processor@_WV?$string_output_adapter@_W@__crt_stdio_output@@V?$positional_parameter_base@_WV?$string_output_adapter@_W@__crt_stdio_output@@@2@@__crt_stdio_output@@CADH_N@Z 1004ec00 f i libucrtd:output.obj
 0001:0004dc40       ?adjust_hexit@?$output_processor@_WV?$string_output_adapter@_W@__crt_stdio_output@@V?$standard_base@_WV?$string_output_adapter@_W@__crt_stdio_output@@@2@@__crt_stdio_output@@CADH_N@Z 1004ec40 f i libucrtd:output.obj
 0001:0004dc80       ?advance_to_next_pass@?$positional_parameter_base@DV?$stream_output_adapter@D@__crt_stdio_output@@@__crt_stdio_output@@IAE_NXZ 1004ec80 f i libucrtd:output.obj
 0001:0004dd20       ?advance_to_next_pass@?$positional_parameter_base@DV?$string_output_adapter@D@__crt_stdio_output@@@__crt_stdio_output@@IAE_NXZ 1004ed20 f i libucrtd:output.obj
 0001:0004ddc0       ?advance_to_next_pass@?$positional_parameter_base@_WV?$stream_output_adapter@_W@__crt_stdio_output@@@__crt_stdio_output@@IAE_NXZ 1004edc0 f i libucrtd:output.obj
 0001:0004de60       ?advance_to_next_pass@?$positional_parameter_base@_WV?$string_output_adapter@_W@__crt_stdio_output@@@__crt_stdio_output@@IAE_NXZ 1004ee60 f i libucrtd:output.obj
 0001:0004df00       ?advance_to_next_pass@?$standard_base@DV?$stream_output_adapter@D@__crt_stdio_output@@@__crt_stdio_output@@IAE_NXZ 1004ef00 f i libucrtd:output.obj
 0001:0004df50       ?advance_to_next_pass@?$standard_base@DV?$string_output_adapter@D@__crt_stdio_output@@@__crt_stdio_output@@IAE_NXZ 1004ef50 f i libucrtd:output.obj
 0001:0004dfa0       ?advance_to_next_pass@?$standard_base@_WV?$stream_output_adapter@_W@__crt_stdio_output@@@__crt_stdio_output@@IAE_NXZ 1004efa0 f i libucrtd:output.obj
 0001:0004dff0       ?advance_to_next_pass@?$standard_base@_WV?$string_output_adapter@_W@__crt_stdio_output@@@__crt_stdio_output@@IAE_NXZ 1004eff0 f i libucrtd:output.obj
 0001:0004e040       ?crop_zeroes@__crt_stdio_output@@YAXPADQAU__crt_locale_pointers@@@Z 1004f040 f i libucrtd:output.obj
 0001:0004e140       ?find_next_state@?$output_processor@DV?$stream_output_adapter@D@__crt_stdio_output@@V?$format_validation_base@DV?$stream_output_adapter@D@__crt_stdio_output@@@2@@__crt_stdio_output@@ABE?AW4state@2@DW432@@Z 1004f140 f i libucrtd:output.obj
 0001:0004e1c0       ?find_next_state@?$output_processor@DV?$stream_output_adapter@D@__crt_stdio_output@@V?$positional_parameter_base@DV?$stream_output_adapter@D@__crt_stdio_output@@@2@@__crt_stdio_output@@ABE?AW4state@2@DW432@@Z 1004f1c0 f i libucrtd:output.obj
 0001:0004e240       ?find_next_state@?$output_processor@DV?$stream_output_adapter@D@__crt_stdio_output@@V?$standard_base@DV?$stream_output_adapter@D@__crt_stdio_output@@@2@@__crt_stdio_output@@ABE?AW4state@2@DW432@@Z 1004f240 f i libucrtd:output.obj
 0001:0004e2c0       ?find_next_state@?$output_processor@DV?$string_output_adapter@D@__crt_stdio_output@@V?$format_validation_base@DV?$string_output_adapter@D@__crt_stdio_output@@@2@@__crt_stdio_output@@ABE?AW4state@2@DW432@@Z 1004f2c0 f i libucrtd:output.obj
 0001:0004e340       ?find_next_state@?$output_processor@DV?$string_output_adapter@D@__crt_stdio_output@@V?$positional_parameter_base@DV?$string_output_adapter@D@__crt_stdio_output@@@2@@__crt_stdio_output@@ABE?AW4state@2@DW432@@Z 1004f340 f i libucrtd:output.obj
 0001:0004e3c0       ?find_next_state@?$output_processor@DV?$string_output_adapter@D@__crt_stdio_output@@V?$standard_base@DV?$string_output_adapter@D@__crt_stdio_output@@@2@@__crt_stdio_output@@ABE?AW4state@2@DW432@@Z 1004f3c0 f i libucrtd:output.obj
 0001:0004e440       ?find_next_state@?$output_processor@_WV?$stream_output_adapter@_W@__crt_stdio_output@@V?$format_validation_base@_WV?$stream_output_adapter@_W@__crt_stdio_output@@@2@@__crt_stdio_output@@ABE?AW4state@2@_WW432@@Z 1004f440 f i libucrtd:output.obj
 0001:0004e4c0       ?find_next_state@?$output_processor@_WV?$stream_output_adapter@_W@__crt_stdio_output@@V?$positional_parameter_base@_WV?$stream_output_adapter@_W@__crt_stdio_output@@@2@@__crt_stdio_output@@ABE?AW4state@2@_WW432@@Z 1004f4c0 f i libucrtd:output.obj
 0001:0004e540       ?find_next_state@?$output_processor@_WV?$stream_output_adapter@_W@__crt_stdio_output@@V?$standard_base@_WV?$stream_output_adapter@_W@__crt_stdio_output@@@2@@__crt_stdio_output@@ABE?AW4state@2@_WW432@@Z 1004f540 f i libucrtd:output.obj
 0001:0004e5c0       ?find_next_state@?$output_processor@_WV?$string_output_adapter@_W@__crt_stdio_output@@V?$format_validation_base@_WV?$string_output_adapter@_W@__crt_stdio_output@@@2@@__crt_stdio_output@@ABE?AW4state@2@_WW432@@Z 1004f5c0 f i libucrtd:output.obj
 0001:0004e640       ?find_next_state@?$output_processor@_WV?$string_output_adapter@_W@__crt_stdio_output@@V?$positional_parameter_base@_WV?$string_output_adapter@_W@__crt_stdio_output@@@2@@__crt_stdio_output@@ABE?AW4state@2@_WW432@@Z 1004f640 f i libucrtd:output.obj
 0001:0004e6c0       ?find_next_state@?$output_processor@_WV?$string_output_adapter@_W@__crt_stdio_output@@V?$standard_base@_WV?$string_output_adapter@_W@__crt_stdio_output@@@2@@__crt_stdio_output@@ABE?AW4state@2@_WW432@@Z 1004f6c0 f i libucrtd:output.obj
 0001:0004e740       ?force_decimal_point@__crt_stdio_output@@YAXPADQAU__crt_locale_pointers@@@Z 1004f740 f i libucrtd:output.obj
 0001:0004e810       ?get@__crt_deferred_errno_cache@@QAEAAHXZ 1004f810 f i libucrtd:output.obj
 0001:0004e840       ?get_flags@__crt_stdio_stream@@QBEJXZ 1004f840 f i libucrtd:output.obj
 0001:0004e860       ?get_parameter_type@?$positional_parameter_base@DV?$stream_output_adapter@D@__crt_stdio_output@@@__crt_stdio_output@@CA?AW4parameter_type@12@F@Z 1004f860 f i libucrtd:output.obj
 0001:0004e870       ?get_parameter_type@?$positional_parameter_base@DV?$stream_output_adapter@D@__crt_stdio_output@@@__crt_stdio_output@@CA?AW4parameter_type@12@G@Z 1004f870 f i libucrtd:output.obj
 0001:0004e880       ?get_parameter_type@?$positional_parameter_base@DV?$stream_output_adapter@D@__crt_stdio_output@@@__crt_stdio_output@@CA?AW4parameter_type@12@H@Z 1004f880 f i libucrtd:output.obj
 0001:0004e890       ?get_parameter_type@?$positional_parameter_base@DV?$stream_output_adapter@D@__crt_stdio_output@@@__crt_stdio_output@@CA?AW4parameter_type@12@I@Z 1004f890 f i libucrtd:output.obj
 0001:0004e8a0       ?get_parameter_type@?$positional_parameter_base@DV?$stream_output_adapter@D@__crt_stdio_output@@@__crt_stdio_output@@CA?AW4parameter_type@12@U_CRT_DOUBLE@@@Z 1004f8a0 f i libucrtd:output.obj
 0001:0004e8b0       ?get_parameter_type@?$positional_parameter_base@DV?$stream_output_adapter@D@__crt_stdio_output@@@__crt_stdio_output@@CA?AW4parameter_type@12@_J@Z 1004f8b0 f i libucrtd:output.obj
 0001:0004e8c0       ?get_parameter_type@?$positional_parameter_base@DV?$stream_output_adapter@D@__crt_stdio_output@@@__crt_stdio_output@@CA?AW4parameter_type@12@_K@Z 1004f8c0 f i libucrtd:output.obj
 0001:0004e8d0       ?get_parameter_type@?$positional_parameter_base@DV?$stream_output_adapter@D@__crt_stdio_output@@@__crt_stdio_output@@CA?AW4parameter_type@12@_W@Z 1004f8d0 f i libucrtd:output.obj
 0001:0004e8e0       ?get_parameter_type@?$positional_parameter_base@DV?$string_output_adapter@D@__crt_stdio_output@@@__crt_stdio_output@@CA?AW4parameter_type@12@F@Z 1004f8e0 f i libucrtd:output.obj
 0001:0004e8f0       ?get_parameter_type@?$positional_parameter_base@DV?$string_output_adapter@D@__crt_stdio_output@@@__crt_stdio_output@@CA?AW4parameter_type@12@G@Z 1004f8f0 f i libucrtd:output.obj
 0001:0004e900       ?get_parameter_type@?$positional_parameter_base@DV?$string_output_adapter@D@__crt_stdio_output@@@__crt_stdio_output@@CA?AW4parameter_type@12@H@Z 1004f900 f i libucrtd:output.obj
 0001:0004e910       ?get_parameter_type@?$positional_parameter_base@DV?$string_output_adapter@D@__crt_stdio_output@@@__crt_stdio_output@@CA?AW4parameter_type@12@I@Z 1004f910 f i libucrtd:output.obj
 0001:0004e920       ?get_parameter_type@?$positional_parameter_base@DV?$string_output_adapter@D@__crt_stdio_output@@@__crt_stdio_output@@CA?AW4parameter_type@12@U_CRT_DOUBLE@@@Z 1004f920 f i libucrtd:output.obj
 0001:0004e930       ?get_parameter_type@?$positional_parameter_base@DV?$string_output_adapter@D@__crt_stdio_output@@@__crt_stdio_output@@CA?AW4parameter_type@12@_J@Z 1004f930 f i libucrtd:output.obj
 0001:0004e940       ?get_parameter_type@?$positional_parameter_base@DV?$string_output_adapter@D@__crt_stdio_output@@@__crt_stdio_output@@CA?AW4parameter_type@12@_K@Z 1004f940 f i libucrtd:output.obj
 0001:0004e950       ?get_parameter_type@?$positional_parameter_base@DV?$string_output_adapter@D@__crt_stdio_output@@@__crt_stdio_output@@CA?AW4parameter_type@12@_W@Z 1004f950 f i libucrtd:output.obj
 0001:0004e960       ?get_parameter_type@?$positional_parameter_base@_WV?$stream_output_adapter@_W@__crt_stdio_output@@@__crt_stdio_output@@CA?AW4parameter_type@12@F@Z 1004f960 f i libucrtd:output.obj
 0001:0004e970       ?get_parameter_type@?$positional_parameter_base@_WV?$stream_output_adapter@_W@__crt_stdio_output@@@__crt_stdio_output@@CA?AW4parameter_type@12@G@Z 1004f970 f i libucrtd:output.obj
 0001:0004e980       ?get_parameter_type@?$positional_parameter_base@_WV?$stream_output_adapter@_W@__crt_stdio_output@@@__crt_stdio_output@@CA?AW4parameter_type@12@H@Z 1004f980 f i libucrtd:output.obj
 0001:0004e990       ?get_parameter_type@?$positional_parameter_base@_WV?$stream_output_adapter@_W@__crt_stdio_output@@@__crt_stdio_output@@CA?AW4parameter_type@12@I@Z 1004f990 f i libucrtd:output.obj
 0001:0004e9a0       ?get_parameter_type@?$positional_parameter_base@_WV?$stream_output_adapter@_W@__crt_stdio_output@@@__crt_stdio_output@@CA?AW4parameter_type@12@U_CRT_DOUBLE@@@Z 1004f9a0 f i libucrtd:output.obj
 0001:0004e9b0       ?get_parameter_type@?$positional_parameter_base@_WV?$stream_output_adapter@_W@__crt_stdio_output@@@__crt_stdio_output@@CA?AW4parameter_type@12@_J@Z 1004f9b0 f i libucrtd:output.obj
 0001:0004e9c0       ?get_parameter_type@?$positional_parameter_base@_WV?$stream_output_adapter@_W@__crt_stdio_output@@@__crt_stdio_output@@CA?AW4parameter_type@12@_K@Z 1004f9c0 f i libucrtd:output.obj
 0001:0004e9d0       ?get_parameter_type@?$positional_parameter_base@_WV?$stream_output_adapter@_W@__crt_stdio_output@@@__crt_stdio_output@@CA?AW4parameter_type@12@_W@Z 1004f9d0 f i libucrtd:output.obj
 0001:0004e9e0       ?get_parameter_type@?$positional_parameter_base@_WV?$string_output_adapter@_W@__crt_stdio_output@@@__crt_stdio_output@@CA?AW4parameter_type@12@F@Z 1004f9e0 f i libucrtd:output.obj
 0001:0004e9f0       ?get_parameter_type@?$positional_parameter_base@_WV?$string_output_adapter@_W@__crt_stdio_output@@@__crt_stdio_output@@CA?AW4parameter_type@12@G@Z 1004f9f0 f i libucrtd:output.obj
 0001:0004ea00       ?get_parameter_type@?$positional_parameter_base@_WV?$string_output_adapter@_W@__crt_stdio_output@@@__crt_stdio_output@@CA?AW4parameter_type@12@H@Z 1004fa00 f i libucrtd:output.obj
 0001:0004ea10       ?get_parameter_type@?$positional_parameter_base@_WV?$string_output_adapter@_W@__crt_stdio_output@@@__crt_stdio_output@@CA?AW4parameter_type@12@I@Z 1004fa10 f i libucrtd:output.obj
 0001:0004ea20       ?get_parameter_type@?$positional_parameter_base@_WV?$string_output_adapter@_W@__crt_stdio_output@@@__crt_stdio_output@@CA?AW4parameter_type@12@U_CRT_DOUBLE@@@Z 1004fa20 f i libucrtd:output.obj
 0001:0004ea30       ?get_parameter_type@?$positional_parameter_base@_WV?$string_output_adapter@_W@__crt_stdio_output@@@__crt_stdio_output@@CA?AW4parameter_type@12@_J@Z 1004fa30 f i libucrtd:output.obj
 0001:0004ea40       ?get_parameter_type@?$positional_parameter_base@_WV?$string_output_adapter@_W@__crt_stdio_output@@@__crt_stdio_output@@CA?AW4parameter_type@12@_K@Z 1004fa40 f i libucrtd:output.obj
 0001:0004ea50       ?get_parameter_type@?$positional_parameter_base@_WV?$string_output_adapter@_W@__crt_stdio_output@@@__crt_stdio_output@@CA?AW4parameter_type@12@_W@Z 1004fa50 f i libucrtd:output.obj
 0001:0004ea60       ?has_flag@?$output_processor@DV?$stream_output_adapter@D@__crt_stdio_output@@V?$format_validation_base@DV?$stream_output_adapter@D@__crt_stdio_output@@@2@@__crt_stdio_output@@ABE_NI@Z 1004fa60 f i libucrtd:output.obj
 0001:0004ea90       ?has_flag@?$output_processor@DV?$stream_output_adapter@D@__crt_stdio_output@@V?$positional_parameter_base@DV?$stream_output_adapter@D@__crt_stdio_output@@@2@@__crt_stdio_output@@ABE_NI@Z 1004fa90 f i libucrtd:output.obj
 0001:0004eac0       ?has_flag@?$output_processor@DV?$stream_output_adapter@D@__crt_stdio_output@@V?$standard_base@DV?$stream_output_adapter@D@__crt_stdio_output@@@2@@__crt_stdio_output@@ABE_NI@Z 1004fac0 f i libucrtd:output.obj
 0001:0004eaf0       ?has_flag@?$output_processor@DV?$string_output_adapter@D@__crt_stdio_output@@V?$format_validation_base@DV?$string_output_adapter@D@__crt_stdio_output@@@2@@__crt_stdio_output@@ABE_NI@Z 1004faf0 f i libucrtd:output.obj
 0001:0004eb20       ?has_flag@?$output_processor@DV?$string_output_adapter@D@__crt_stdio_output@@V?$positional_parameter_base@DV?$string_output_adapter@D@__crt_stdio_output@@@2@@__crt_stdio_output@@ABE_NI@Z 1004fb20 f i libucrtd:output.obj
 0001:0004eb50       ?has_flag@?$output_processor@DV?$string_output_adapter@D@__crt_stdio_output@@V?$standard_base@DV?$string_output_adapter@D@__crt_stdio_output@@@2@@__crt_stdio_output@@ABE_NI@Z 1004fb50 f i libucrtd:output.obj
 0001:0004eb80       ?has_flag@?$output_processor@_WV?$stream_output_adapter@_W@__crt_stdio_output@@V?$format_validation_base@_WV?$stream_output_adapter@_W@__crt_stdio_output@@@2@@__crt_stdio_output@@ABE_NI@Z 1004fb80 f i libucrtd:output.obj
 0001:0004ebb0       ?has_flag@?$output_processor@_WV?$stream_output_adapter@_W@__crt_stdio_output@@V?$positional_parameter_base@_WV?$stream_output_adapter@_W@__crt_stdio_output@@@2@@__crt_stdio_output@@ABE_NI@Z 1004fbb0 f i libucrtd:output.obj
 0001:0004ebe0       ?has_flag@?$output_processor@_WV?$stream_output_adapter@_W@__crt_stdio_output@@V?$standard_base@_WV?$stream_output_adapter@_W@__crt_stdio_output@@@2@@__crt_stdio_output@@ABE_NI@Z 1004fbe0 f i libucrtd:output.obj
 0001:0004ec10       ?has_flag@?$output_processor@_WV?$string_output_adapter@_W@__crt_stdio_output@@V?$format_validation_base@_WV?$string_output_adapter@_W@__crt_stdio_output@@@2@@__crt_stdio_output@@ABE_NI@Z 1004fc10 f i libucrtd:output.obj
 0001:0004ec40       ?has_flag@?$output_processor@_WV?$string_output_adapter@_W@__crt_stdio_output@@V?$positional_parameter_base@_WV?$string_output_adapter@_W@__crt_stdio_output@@@2@@__crt_stdio_output@@ABE_NI@Z 1004fc40 f i libucrtd:output.obj
 0001:0004ec70       ?has_flag@?$output_processor@_WV?$string_output_adapter@_W@__crt_stdio_output@@V?$standard_base@_WV?$string_output_adapter@_W@__crt_stdio_output@@@2@@__crt_stdio_output@@ABE_NI@Z 1004fc70 f i libucrtd:output.obj
 0001:0004eca0       ?is_positional_parameter_reappearance_consistent@?$positional_parameter_base@DV?$stream_output_adapter@D@__crt_stdio_output@@@__crt_stdio_output@@AAE_NABUparameter_data@12@W4parameter_type@12@DW4length_modifier@2@@Z 1004fca0 f i libucrtd:output.obj
 0001:0004eed0       ?is_positional_parameter_reappearance_consistent@?$positional_parameter_base@DV?$string_output_adapter@D@__crt_stdio_output@@@__crt_stdio_output@@AAE_NABUparameter_data@12@W4parameter_type@12@DW4length_modifier@2@@Z 1004fed0 f i libucrtd:output.obj
 0001:0004f100       ?is_positional_parameter_reappearance_consistent@?$positional_parameter_base@_WV?$stream_output_adapter@_W@__crt_stdio_output@@@__crt_stdio_output@@AAE_NABUparameter_data@12@W4parameter_type@12@_WW4length_modifier@2@@Z 10050100 f i libucrtd:output.obj
 0001:0004f330       ?is_positional_parameter_reappearance_consistent@?$positional_parameter_base@_WV?$string_output_adapter@_W@__crt_stdio_output@@@__crt_stdio_output@@AAE_NABUparameter_data@12@W4parameter_type@12@_WW4length_modifier@2@@Z 10050330 f i libucrtd:output.obj
 0001:0004f560       ?is_string_backed@__crt_stdio_stream@@QBE_NXZ 10050560 f i libucrtd:output.obj
 0001:0004f5a0       ?narrow_null_string@?$output_processor@DV?$stream_output_adapter@D@__crt_stdio_output@@V?$format_validation_base@DV?$stream_output_adapter@D@__crt_stdio_output@@@2@@__crt_stdio_output@@CAPADXZ 100505a0 f i libucrtd:output.obj
 0001:0004f5b0       ?narrow_null_string@?$output_processor@DV?$stream_output_adapter@D@__crt_stdio_output@@V?$positional_parameter_base@DV?$stream_output_adapter@D@__crt_stdio_output@@@2@@__crt_stdio_output@@CAPADXZ 100505b0 f i libucrtd:output.obj
 0001:0004f5c0       ?narrow_null_string@?$output_processor@DV?$stream_output_adapter@D@__crt_stdio_output@@V?$standard_base@DV?$stream_output_adapter@D@__crt_stdio_output@@@2@@__crt_stdio_output@@CAPADXZ 100505c0 f i libucrtd:output.obj
 0001:0004f5d0       ?narrow_null_string@?$output_processor@DV?$string_output_adapter@D@__crt_stdio_output@@V?$format_validation_base@DV?$string_output_adapter@D@__crt_stdio_output@@@2@@__crt_stdio_output@@CAPADXZ 100505d0 f i libucrtd:output.obj
 0001:0004f5e0       ?narrow_null_string@?$output_processor@DV?$string_output_adapter@D@__crt_stdio_output@@V?$positional_parameter_base@DV?$string_output_adapter@D@__crt_stdio_output@@@2@@__crt_stdio_output@@CAPADXZ 100505e0 f i libucrtd:output.obj
 0001:0004f5f0       ?narrow_null_string@?$output_processor@DV?$string_output_adapter@D@__crt_stdio_output@@V?$standard_base@DV?$string_output_adapter@D@__crt_stdio_output@@@2@@__crt_stdio_output@@CAPADXZ 100505f0 f i libucrtd:output.obj
 0001:0004f600       ?narrow_null_string@?$output_processor@_WV?$stream_output_adapter@_W@__crt_stdio_output@@V?$format_validation_base@_WV?$stream_output_adapter@_W@__crt_stdio_output@@@2@@__crt_stdio_output@@CAPADXZ 10050600 f i libucrtd:output.obj
 0001:0004f610       ?narrow_null_string@?$output_processor@_WV?$stream_output_adapter@_W@__crt_stdio_output@@V?$positional_parameter_base@_WV?$stream_output_adapter@_W@__crt_stdio_output@@@2@@__crt_stdio_output@@CAPADXZ 10050610 f i libucrtd:output.obj
 0001:0004f620       ?narrow_null_string@?$output_processor@_WV?$stream_output_adapter@_W@__crt_stdio_output@@V?$standard_base@_WV?$stream_output_adapter@_W@__crt_stdio_output@@@2@@__crt_stdio_output@@CAPADXZ 10050620 f i libucrtd:output.obj
 0001:0004f630       ?narrow_null_string@?$output_processor@_WV?$string_output_adapter@_W@__crt_stdio_output@@V?$format_validation_base@_WV?$string_output_adapter@_W@__crt_stdio_output@@@2@@__crt_stdio_output@@CAPADXZ 10050630 f i libucrtd:output.obj
 0001:0004f640       ?narrow_null_string@?$output_processor@_WV?$string_output_adapter@_W@__crt_stdio_output@@V?$positional_parameter_base@_WV?$string_output_adapter@_W@__crt_stdio_output@@@2@@__crt_stdio_output@@CAPADXZ 10050640 f i libucrtd:output.obj
 0001:0004f650       ?narrow_null_string@?$output_processor@_WV?$string_output_adapter@_W@__crt_stdio_output@@V?$standard_base@_WV?$string_output_adapter@_W@__crt_stdio_output@@@2@@__crt_stdio_output@@CAPADXZ 10050650 f i libucrtd:output.obj
 0001:0004f660       ?parse_int_from_format_string@?$output_processor@DV?$stream_output_adapter@D@__crt_stdio_output@@V?$format_validation_base@DV?$stream_output_adapter@D@__crt_stdio_output@@@2@@__crt_stdio_output@@AAE_NQAH@Z 10050660 f i libucrtd:output.obj
 0001:0004f720       ?parse_int_from_format_string@?$output_processor@DV?$stream_output_adapter@D@__crt_stdio_output@@V?$positional_parameter_base@DV?$stream_output_adapter@D@__crt_stdio_output@@@2@@__crt_stdio_output@@AAE_NQAH@Z 10050720 f i libucrtd:output.obj
 0001:0004f7e0       ?parse_int_from_format_string@?$output_processor@DV?$stream_output_adapter@D@__crt_stdio_output@@V?$standard_base@DV?$stream_output_adapter@D@__crt_stdio_output@@@2@@__crt_stdio_output@@AAE_NQAH@Z 100507e0 f i libucrtd:output.obj
 0001:0004f8a0       ?parse_int_from_format_string@?$output_processor@DV?$string_output_adapter@D@__crt_stdio_output@@V?$format_validation_base@DV?$string_output_adapter@D@__crt_stdio_output@@@2@@__crt_stdio_output@@AAE_NQAH@Z 100508a0 f i libucrtd:output.obj
 0001:0004f960       ?parse_int_from_format_string@?$output_processor@DV?$string_output_adapter@D@__crt_stdio_output@@V?$positional_parameter_base@DV?$string_output_adapter@D@__crt_stdio_output@@@2@@__crt_stdio_output@@AAE_NQAH@Z 10050960 f i libucrtd:output.obj
 0001:0004fa20       ?parse_int_from_format_string@?$output_processor@DV?$string_output_adapter@D@__crt_stdio_output@@V?$standard_base@DV?$string_output_adapter@D@__crt_stdio_output@@@2@@__crt_stdio_output@@AAE_NQAH@Z 10050a20 f i libucrtd:output.obj
 0001:0004fae0       ?parse_int_from_format_string@?$output_processor@_WV?$stream_output_adapter@_W@__crt_stdio_output@@V?$format_validation_base@_WV?$stream_output_adapter@_W@__crt_stdio_output@@@2@@__crt_stdio_output@@AAE_NQAH@Z 10050ae0 f i libucrtd:output.obj
 0001:0004fba0       ?parse_int_from_format_string@?$output_processor@_WV?$stream_output_adapter@_W@__crt_stdio_output@@V?$positional_parameter_base@_WV?$stream_output_adapter@_W@__crt_stdio_output@@@2@@__crt_stdio_output@@AAE_NQAH@Z 10050ba0 f i libucrtd:output.obj
 0001:0004fc60       ?parse_int_from_format_string@?$output_processor@_WV?$stream_output_adapter@_W@__crt_stdio_output@@V?$standard_base@_WV?$stream_output_adapter@_W@__crt_stdio_output@@@2@@__crt_stdio_output@@AAE_NQAH@Z 10050c60 f i libucrtd:output.obj
 0001:0004fd20       ?parse_int_from_format_string@?$output_processor@_WV?$string_output_adapter@_W@__crt_stdio_output@@V?$format_validation_base@_WV?$string_output_adapter@_W@__crt_stdio_output@@@2@@__crt_stdio_output@@AAE_NQAH@Z 10050d20 f i libucrtd:output.obj
 0001:0004fde0       ?parse_int_from_format_string@?$output_processor@_WV?$string_output_adapter@_W@__crt_stdio_output@@V?$positional_parameter_base@_WV?$string_output_adapter@_W@__crt_stdio_output@@@2@@__crt_stdio_output@@AAE_NQAH@Z 10050de0 f i libucrtd:output.obj
 0001:0004fea0       ?parse_int_from_format_string@?$output_processor@_WV?$string_output_adapter@_W@__crt_stdio_output@@V?$standard_base@_WV?$string_output_adapter@_W@__crt_stdio_output@@@2@@__crt_stdio_output@@AAE_NQAH@Z 10050ea0 f i libucrtd:output.obj
 0001:0004ff60       ?process@?$output_processor@DV?$stream_output_adapter@D@__crt_stdio_output@@V?$format_validation_base@DV?$stream_output_adapter@D@__crt_stdio_output@@@2@@__crt_stdio_output@@QAEHXZ 10050f60 f i libucrtd:output.obj
 0001:00050210       ?process@?$output_processor@DV?$stream_output_adapter@D@__crt_stdio_output@@V?$positional_parameter_base@DV?$stream_output_adapter@D@__crt_stdio_output@@@2@@__crt_stdio_output@@QAEHXZ 10051210 f i libucrtd:output.obj
 0001:000504c0       ?process@?$output_processor@DV?$stream_output_adapter@D@__crt_stdio_output@@V?$standard_base@DV?$stream_output_adapter@D@__crt_stdio_output@@@2@@__crt_stdio_output@@QAEHXZ 100514c0 f i libucrtd:output.obj
 0001:00050770       ?process@?$output_processor@DV?$string_output_adapter@D@__crt_stdio_output@@V?$format_validation_base@DV?$string_output_adapter@D@__crt_stdio_output@@@2@@__crt_stdio_output@@QAEHXZ 10051770 f i libucrtd:output.obj
 0001:00050a20       ?process@?$output_processor@DV?$string_output_adapter@D@__crt_stdio_output@@V?$positional_parameter_base@DV?$string_output_adapter@D@__crt_stdio_output@@@2@@__crt_stdio_output@@QAEHXZ 10051a20 f i libucrtd:output.obj
 0001:00050cd0       ?process@?$output_processor@DV?$string_output_adapter@D@__crt_stdio_output@@V?$standard_base@DV?$string_output_adapter@D@__crt_stdio_output@@@2@@__crt_stdio_output@@QAEHXZ 10051cd0 f i libucrtd:output.obj
 0001:00050f80       ?process@?$output_processor@_WV?$stream_output_adapter@_W@__crt_stdio_output@@V?$format_validation_base@_WV?$stream_output_adapter@_W@__crt_stdio_output@@@2@@__crt_stdio_output@@QAEHXZ 10051f80 f i libucrtd:output.obj
 0001:00051230       ?process@?$output_processor@_WV?$stream_output_adapter@_W@__crt_stdio_output@@V?$positional_parameter_base@_WV?$stream_output_adapter@_W@__crt_stdio_output@@@2@@__crt_stdio_output@@QAEHXZ 10052230 f i libucrtd:output.obj
 0001:000514e0       ?process@?$output_processor@_WV?$stream_output_adapter@_W@__crt_stdio_output@@V?$standard_base@_WV?$stream_output_adapter@_W@__crt_stdio_output@@@2@@__crt_stdio_output@@QAEHXZ 100524e0 f i libucrtd:output.obj
 0001:00051790       ?process@?$output_processor@_WV?$string_output_adapter@_W@__crt_stdio_output@@V?$format_validation_base@_WV?$string_output_adapter@_W@__crt_stdio_output@@@2@@__crt_stdio_output@@QAEHXZ 10052790 f i libucrtd:output.obj
 0001:00051a40       ?process@?$output_processor@_WV?$string_output_adapter@_W@__crt_stdio_output@@V?$positional_parameter_base@_WV?$string_output_adapter@_W@__crt_stdio_output@@@2@@__crt_stdio_output@@QAEHXZ 10052a40 f i libucrtd:output.obj
 0001:00051cf0       ?process@?$output_processor@_WV?$string_output_adapter@_W@__crt_stdio_output@@V?$standard_base@_WV?$string_output_adapter@_W@__crt_stdio_output@@@2@@__crt_stdio_output@@QAEHXZ 10052cf0 f i libucrtd:output.obj
 0001:00051fa0       ?public_stream@__crt_stdio_stream@@QBEPAU_iobuf@@XZ 10052fa0 f i libucrtd:output.obj
 0001:00051fc0       ?set_flag@?$output_processor@DV?$stream_output_adapter@D@__crt_stdio_output@@V?$format_validation_base@DV?$stream_output_adapter@D@__crt_stdio_output@@@2@@__crt_stdio_output@@AAEXI@Z 10052fc0 f i libucrtd:output.obj
 0001:00051fe0       ?set_flag@?$output_processor@DV?$stream_output_adapter@D@__crt_stdio_output@@V?$positional_parameter_base@DV?$stream_output_adapter@D@__crt_stdio_output@@@2@@__crt_stdio_output@@AAEXI@Z 10052fe0 f i libucrtd:output.obj
 0001:00052000       ?set_flag@?$output_processor@DV?$stream_output_adapter@D@__crt_stdio_output@@V?$standard_base@DV?$stream_output_adapter@D@__crt_stdio_output@@@2@@__crt_stdio_output@@AAEXI@Z 10053000 f i libucrtd:output.obj
 0001:00052020       ?set_flag@?$output_processor@DV?$string_output_adapter@D@__crt_stdio_output@@V?$format_validation_base@DV?$string_output_adapter@D@__crt_stdio_output@@@2@@__crt_stdio_output@@AAEXI@Z 10053020 f i libucrtd:output.obj
 0001:00052040       ?set_flag@?$output_processor@DV?$string_output_adapter@D@__crt_stdio_output@@V?$positional_parameter_base@DV?$string_output_adapter@D@__crt_stdio_output@@@2@@__crt_stdio_output@@AAEXI@Z 10053040 f i libucrtd:output.obj
 0001:00052060       ?set_flag@?$output_processor@DV?$string_output_adapter@D@__crt_stdio_output@@V?$standard_base@DV?$string_output_adapter@D@__crt_stdio_output@@@2@@__crt_stdio_output@@AAEXI@Z 10053060 f i libucrtd:output.obj
 0001:00052080       ?set_flag@?$output_processor@_WV?$stream_output_adapter@_W@__crt_stdio_output@@V?$format_validation_base@_WV?$stream_output_adapter@_W@__crt_stdio_output@@@2@@__crt_stdio_output@@AAEXI@Z 10053080 f i libucrtd:output.obj
 0001:000520a0       ?set_flag@?$output_processor@_WV?$stream_output_adapter@_W@__crt_stdio_output@@V?$positional_parameter_base@_WV?$stream_output_adapter@_W@__crt_stdio_output@@@2@@__crt_stdio_output@@AAEXI@Z 100530a0 f i libucrtd:output.obj
 0001:000520c0       ?set_flag@?$output_processor@_WV?$stream_output_adapter@_W@__crt_stdio_output@@V?$standard_base@_WV?$stream_output_adapter@_W@__crt_stdio_output@@@2@@__crt_stdio_output@@AAEXI@Z 100530c0 f i libucrtd:output.obj
 0001:000520e0       ?set_flag@?$output_processor@_WV?$string_output_adapter@_W@__crt_stdio_output@@V?$format_validation_base@_WV?$string_output_adapter@_W@__crt_stdio_output@@@2@@__crt_stdio_output@@AAEXI@Z 100530e0 f i libucrtd:output.obj
 0001:00052100       ?set_flag@?$output_processor@_WV?$string_output_adapter@_W@__crt_stdio_output@@V?$positional_parameter_base@_WV?$string_output_adapter@_W@__crt_stdio_output@@@2@@__crt_stdio_output@@AAEXI@Z 10053100 f i libucrtd:output.obj
 0001:00052120       ?set_flag@?$output_processor@_WV?$string_output_adapter@_W@__crt_stdio_output@@V?$standard_base@_WV?$string_output_adapter@_W@__crt_stdio_output@@@2@@__crt_stdio_output@@AAEXI@Z 10053120 f i libucrtd:output.obj
 0001:00052140       ?should_format@?$positional_parameter_base@DV?$stream_output_adapter@D@__crt_stdio_output@@@__crt_stdio_output@@IAE_NXZ 10053140 f i libucrtd:output.obj
 0001:00052180       ?should_format@?$positional_parameter_base@DV?$string_output_adapter@D@__crt_stdio_output@@@__crt_stdio_output@@IAE_NXZ 10053180 f i libucrtd:output.obj
 0001:000521c0       ?should_format@?$positional_parameter_base@_WV?$stream_output_adapter@_W@__crt_stdio_output@@@__crt_stdio_output@@IAE_NXZ 100531c0 f i libucrtd:output.obj
 0001:00052200       ?should_format@?$positional_parameter_base@_WV?$string_output_adapter@_W@__crt_stdio_output@@@__crt_stdio_output@@IAE_NXZ 10053200 f i libucrtd:output.obj
 0001:00052240       ?should_format@?$standard_base@DV?$stream_output_adapter@D@__crt_stdio_output@@@__crt_stdio_output@@IAE_NXZ 10053240 f i libucrtd:output.obj
 0001:00052250       ?should_format@?$standard_base@DV?$string_output_adapter@D@__crt_stdio_output@@@__crt_stdio_output@@IAE_NXZ 10053250 f i libucrtd:output.obj
 0001:00052260       ?should_format@?$standard_base@_WV?$stream_output_adapter@_W@__crt_stdio_output@@@__crt_stdio_output@@IAE_NXZ 10053260 f i libucrtd:output.obj
 0001:00052270       ?should_format@?$standard_base@_WV?$string_output_adapter@_W@__crt_stdio_output@@@__crt_stdio_output@@IAE_NXZ 10053270 f i libucrtd:output.obj
 0001:00052280       ?should_skip_normal_state_processing@?$positional_parameter_base@DV?$stream_output_adapter@D@__crt_stdio_output@@@__crt_stdio_output@@IAE_NXZ 10053280 f i libucrtd:output.obj
 0001:000522d0       ?should_skip_normal_state_processing@?$positional_parameter_base@DV?$string_output_adapter@D@__crt_stdio_output@@@__crt_stdio_output@@IAE_NXZ 100532d0 f i libucrtd:output.obj
 0001:00052320       ?should_skip_normal_state_processing@?$positional_parameter_base@_WV?$stream_output_adapter@_W@__crt_stdio_output@@@__crt_stdio_output@@IAE_NXZ 10053320 f i libucrtd:output.obj
 0001:00052370       ?should_skip_normal_state_processing@?$positional_parameter_base@_WV?$string_output_adapter@_W@__crt_stdio_output@@@__crt_stdio_output@@IAE_NXZ 10053370 f i libucrtd:output.obj
 0001:000523c0       ?should_skip_normal_state_processing@?$standard_base@DV?$stream_output_adapter@D@__crt_stdio_output@@@__crt_stdio_output@@IAE_NXZ 100533c0 f i libucrtd:output.obj
 0001:000523d0       ?should_skip_normal_state_processing@?$standard_base@DV?$string_output_adapter@D@__crt_stdio_output@@@__crt_stdio_output@@IAE_NXZ 100533d0 f i libucrtd:output.obj
 0001:000523e0       ?should_skip_normal_state_processing@?$standard_base@_WV?$stream_output_adapter@_W@__crt_stdio_output@@@__crt_stdio_output@@IAE_NXZ 100533e0 f i libucrtd:output.obj
 0001:000523f0       ?should_skip_normal_state_processing@?$standard_base@_WV?$string_output_adapter@_W@__crt_stdio_output@@@__crt_stdio_output@@IAE_NXZ 100533f0 f i libucrtd:output.obj
 0001:00052400       ?should_skip_type_state_output@?$positional_parameter_base@DV?$stream_output_adapter@D@__crt_stdio_output@@@__crt_stdio_output@@IBE_NXZ 10053400 f i libucrtd:output.obj
 0001:00052440       ?should_skip_type_state_output@?$positional_parameter_base@DV?$string_output_adapter@D@__crt_stdio_output@@@__crt_stdio_output@@IBE_NXZ 10053440 f i libucrtd:output.obj
 0001:00052480       ?should_skip_type_state_output@?$positional_parameter_base@_WV?$stream_output_adapter@_W@__crt_stdio_output@@@__crt_stdio_output@@IBE_NXZ 10053480 f i libucrtd:output.obj
 0001:000524c0       ?should_skip_type_state_output@?$positional_parameter_base@_WV?$string_output_adapter@_W@__crt_stdio_output@@@__crt_stdio_output@@IBE_NXZ 100534c0 f i libucrtd:output.obj
 0001:00052500       ?should_skip_type_state_output@?$standard_base@DV?$stream_output_adapter@D@__crt_stdio_output@@@__crt_stdio_output@@IBE_NXZ 10053500 f i libucrtd:output.obj
 0001:00052510       ?should_skip_type_state_output@?$standard_base@DV?$string_output_adapter@D@__crt_stdio_output@@@__crt_stdio_output@@IBE_NXZ 10053510 f i libucrtd:output.obj
 0001:00052520       ?should_skip_type_state_output@?$standard_base@_WV?$stream_output_adapter@_W@__crt_stdio_output@@@__crt_stdio_output@@IBE_NXZ 10053520 f i libucrtd:output.obj
 0001:00052530       ?should_skip_type_state_output@?$standard_base@_WV?$string_output_adapter@_W@__crt_stdio_output@@@__crt_stdio_output@@IBE_NXZ 10053530 f i libucrtd:output.obj
 0001:00052540       ?state_case_dot@?$output_processor@DV?$stream_output_adapter@D@__crt_stdio_output@@V?$format_validation_base@DV?$stream_output_adapter@D@__crt_stdio_output@@@2@@__crt_stdio_output@@AAE_NXZ 10053540 f i libucrtd:output.obj
 0001:00052560       ?state_case_dot@?$output_processor@DV?$stream_output_adapter@D@__crt_stdio_output@@V?$positional_parameter_base@DV?$stream_output_adapter@D@__crt_stdio_output@@@2@@__crt_stdio_output@@AAE_NXZ 10053560 f i libucrtd:output.obj
 0001:00052580       ?state_case_dot@?$output_processor@DV?$stream_output_adapter@D@__crt_stdio_output@@V?$standard_base@DV?$stream_output_adapter@D@__crt_stdio_output@@@2@@__crt_stdio_output@@AAE_NXZ 10053580 f i libucrtd:output.obj
 0001:000525a0       ?state_case_dot@?$output_processor@DV?$string_output_adapter@D@__crt_stdio_output@@V?$format_validation_base@DV?$string_output_adapter@D@__crt_stdio_output@@@2@@__crt_stdio_output@@AAE_NXZ 100535a0 f i libucrtd:output.obj
 0001:000525c0       ?state_case_dot@?$output_processor@DV?$string_output_adapter@D@__crt_stdio_output@@V?$positional_parameter_base@DV?$string_output_adapter@D@__crt_stdio_output@@@2@@__crt_stdio_output@@AAE_NXZ 100535c0 f i libucrtd:output.obj
 0001:000525e0       ?state_case_dot@?$output_processor@DV?$string_output_adapter@D@__crt_stdio_output@@V?$standard_base@DV?$string_output_adapter@D@__crt_stdio_output@@@2@@__crt_stdio_output@@AAE_NXZ 100535e0 f i libucrtd:output.obj
 0001:00052600       ?state_case_dot@?$output_processor@_WV?$stream_output_adapter@_W@__crt_stdio_output@@V?$format_validation_base@_WV?$stream_output_adapter@_W@__crt_stdio_output@@@2@@__crt_stdio_output@@AAE_NXZ 10053600 f i libucrtd:output.obj
 0001:00052620       ?state_case_dot@?$output_processor@_WV?$stream_output_adapter@_W@__crt_stdio_output@@V?$positional_parameter_base@_WV?$stream_output_adapter@_W@__crt_stdio_output@@@2@@__crt_stdio_output@@AAE_NXZ 10053620 f i libucrtd:output.obj
 0001:00052640       ?state_case_dot@?$output_processor@_WV?$stream_output_adapter@_W@__crt_stdio_output@@V?$standard_base@_WV?$stream_output_adapter@_W@__crt_stdio_output@@@2@@__crt_stdio_output@@AAE_NXZ 10053640 f i libucrtd:output.obj
 0001:00052660       ?state_case_dot@?$output_processor@_WV?$string_output_adapter@_W@__crt_stdio_output@@V?$format_validation_base@_WV?$string_output_adapter@_W@__crt_stdio_output@@@2@@__crt_stdio_output@@AAE_NXZ 10053660 f i libucrtd:output.obj
 0001:00052680       ?state_case_dot@?$output_processor@_WV?$string_output_adapter@_W@__crt_stdio_output@@V?$positional_parameter_base@_WV?$string_output_adapter@_W@__crt_stdio_output@@@2@@__crt_stdio_output@@AAE_NXZ 10053680 f i libucrtd:output.obj
 0001:000526a0       ?state_case_dot@?$output_processor@_WV?$string_output_adapter@_W@__crt_stdio_output@@V?$standard_base@_WV?$string_output_adapter@_W@__crt_stdio_output@@@2@@__crt_stdio_output@@AAE_NXZ 100536a0 f i libucrtd:output.obj
 0001:000526c0       ?state_case_flag@?$output_processor@DV?$stream_output_adapter@D@__crt_stdio_output@@V?$format_validation_base@DV?$stream_output_adapter@D@__crt_stdio_output@@@2@@__crt_stdio_output@@AAE_NXZ 100536c0 f i libucrtd:output.obj
 0001:00052770       ?state_case_flag@?$output_processor@DV?$stream_output_adapter@D@__crt_stdio_output@@V?$positional_parameter_base@DV?$stream_output_adapter@D@__crt_stdio_output@@@2@@__crt_stdio_output@@AAE_NXZ 10053770 f i libucrtd:output.obj
 0001:00052820       ?state_case_flag@?$output_processor@DV?$stream_output_adapter@D@__crt_stdio_output@@V?$standard_base@DV?$stream_output_adapter@D@__crt_stdio_output@@@2@@__crt_stdio_output@@AAE_NXZ 10053820 f i libucrtd:output.obj
 0001:000528d0       ?state_case_flag@?$output_processor@DV?$string_output_adapter@D@__crt_stdio_output@@V?$format_validation_base@DV?$string_output_adapter@D@__crt_stdio_output@@@2@@__crt_stdio_output@@AAE_NXZ 100538d0 f i libucrtd:output.obj
 0001:00052980       ?state_case_flag@?$output_processor@DV?$string_output_adapter@D@__crt_stdio_output@@V?$positional_parameter_base@DV?$string_output_adapter@D@__crt_stdio_output@@@2@@__crt_stdio_output@@AAE_NXZ 10053980 f i libucrtd:output.obj
 0001:00052a30       ?state_case_flag@?$output_processor@DV?$string_output_adapter@D@__crt_stdio_output@@V?$standard_base@DV?$string_output_adapter@D@__crt_stdio_output@@@2@@__crt_stdio_output@@AAE_NXZ 10053a30 f i libucrtd:output.obj
 0001:00052ae0       ?state_case_flag@?$output_processor@_WV?$stream_output_adapter@_W@__crt_stdio_output@@V?$format_validation_base@_WV?$stream_output_adapter@_W@__crt_stdio_output@@@2@@__crt_stdio_output@@AAE_NXZ 10053ae0 f i libucrtd:output.obj
 0001:00052b90       ?state_case_flag@?$output_processor@_WV?$stream_output_adapter@_W@__crt_stdio_output@@V?$positional_parameter_base@_WV?$stream_output_adapter@_W@__crt_stdio_output@@@2@@__crt_stdio_output@@AAE_NXZ 10053b90 f i libucrtd:output.obj
 0001:00052c40       ?state_case_flag@?$output_processor@_WV?$stream_output_adapter@_W@__crt_stdio_output@@V?$standard_base@_WV?$stream_output_adapter@_W@__crt_stdio_output@@@2@@__crt_stdio_output@@AAE_NXZ 10053c40 f i libucrtd:output.obj
 0001:00052cf0       ?state_case_flag@?$output_processor@_WV?$string_output_adapter@_W@__crt_stdio_output@@V?$format_validation_base@_WV?$string_output_adapter@_W@__crt_stdio_output@@@2@@__crt_stdio_output@@AAE_NXZ 10053cf0 f i libucrtd:output.obj
 0001:00052da0       ?state_case_flag@?$output_processor@_WV?$string_output_adapter@_W@__crt_stdio_output@@V?$positional_parameter_base@_WV?$string_output_adapter@_W@__crt_stdio_output@@@2@@__crt_stdio_output@@AAE_NXZ 10053da0 f i libucrtd:output.obj
 0001:00052e50       ?state_case_flag@?$output_processor@_WV?$string_output_adapter@_W@__crt_stdio_output@@V?$standard_base@_WV?$string_output_adapter@_W@__crt_stdio_output@@@2@@__crt_stdio_output@@AAE_NXZ 10053e50 f i libucrtd:output.obj
 0001:00052f00       ?state_case_normal@?$output_processor@DV?$stream_output_adapter@D@__crt_stdio_output@@V?$format_validation_base@DV?$stream_output_adapter@D@__crt_stdio_output@@@2@@__crt_stdio_output@@AAE_NXZ 10053f00 f i libucrtd:output.obj
 0001:00052fb0       ?state_case_normal@?$output_processor@DV?$stream_output_adapter@D@__crt_stdio_output@@V?$positional_parameter_base@DV?$stream_output_adapter@D@__crt_stdio_output@@@2@@__crt_stdio_output@@AAE_NXZ 10053fb0 f i libucrtd:output.obj
 0001:00053060       ?state_case_normal@?$output_processor@DV?$stream_output_adapter@D@__crt_stdio_output@@V?$standard_base@DV?$stream_output_adapter@D@__crt_stdio_output@@@2@@__crt_stdio_output@@AAE_NXZ 10054060 f i libucrtd:output.obj
 0001:00053110       ?state_case_normal@?$output_processor@DV?$string_output_adapter@D@__crt_stdio_output@@V?$format_validation_base@DV?$string_output_adapter@D@__crt_stdio_output@@@2@@__crt_stdio_output@@AAE_NXZ 10054110 f i libucrtd:output.obj
 0001:000531c0       ?state_case_normal@?$output_processor@DV?$string_output_adapter@D@__crt_stdio_output@@V?$positional_parameter_base@DV?$string_output_adapter@D@__crt_stdio_output@@@2@@__crt_stdio_output@@AAE_NXZ 100541c0 f i libucrtd:output.obj
 0001:00053270       ?state_case_normal@?$output_processor@DV?$string_output_adapter@D@__crt_stdio_output@@V?$standard_base@DV?$string_output_adapter@D@__crt_stdio_output@@@2@@__crt_stdio_output@@AAE_NXZ 10054270 f i libucrtd:output.obj
 0001:00053320       ?state_case_normal@?$output_processor@_WV?$stream_output_adapter@_W@__crt_stdio_output@@V?$format_validation_base@_WV?$stream_output_adapter@_W@__crt_stdio_output@@@2@@__crt_stdio_output@@AAE_NXZ 10054320 f i libucrtd:output.obj
 0001:000533d0       ?state_case_normal@?$output_processor@_WV?$stream_output_adapter@_W@__crt_stdio_output@@V?$positional_parameter_base@_WV?$stream_output_adapter@_W@__crt_stdio_output@@@2@@__crt_stdio_output@@AAE_NXZ 100543d0 f i libucrtd:output.obj
 0001:00053480       ?state_case_normal@?$output_processor@_WV?$stream_output_adapter@_W@__crt_stdio_output@@V?$standard_base@_WV?$stream_output_adapter@_W@__crt_stdio_output@@@2@@__crt_stdio_output@@AAE_NXZ 10054480 f i libucrtd:output.obj
 0001:00053530       ?state_case_normal@?$output_processor@_WV?$string_output_adapter@_W@__crt_stdio_output@@V?$format_validation_base@_WV?$string_output_adapter@_W@__crt_stdio_output@@@2@@__crt_stdio_output@@AAE_NXZ 10054530 f i libucrtd:output.obj
 0001:000535e0       ?state_case_normal@?$output_processor@_WV?$string_output_adapter@_W@__crt_stdio_output@@V?$positional_parameter_base@_WV?$string_output_adapter@_W@__crt_stdio_output@@@2@@__crt_stdio_output@@AAE_NXZ 100545e0 f i libucrtd:output.obj
 0001:00053690       ?state_case_normal@?$output_processor@_WV?$string_output_adapter@_W@__crt_stdio_output@@V?$standard_base@_WV?$string_output_adapter@_W@__crt_stdio_output@@@2@@__crt_stdio_output@@AAE_NXZ 10054690 f i libucrtd:output.obj
 0001:00053740       ?state_case_normal_common@?$output_processor@DV?$stream_output_adapter@D@__crt_stdio_output@@V?$format_validation_base@DV?$stream_output_adapter@D@__crt_stdio_output@@@2@@__crt_stdio_output@@AAE_NXZ 10054740 f i libucrtd:output.obj
 0001:00053790       ?state_case_normal_common@?$output_processor@DV?$stream_output_adapter@D@__crt_stdio_output@@V?$positional_parameter_base@DV?$stream_output_adapter@D@__crt_stdio_output@@@2@@__crt_stdio_output@@AAE_NXZ 10054790 f i libucrtd:output.obj
 0001:000537e0       ?state_case_normal_common@?$output_processor@DV?$stream_output_adapter@D@__crt_stdio_output@@V?$standard_base@DV?$stream_output_adapter@D@__crt_stdio_output@@@2@@__crt_stdio_output@@AAE_NXZ 100547e0 f i libucrtd:output.obj
 0001:00053830       ?state_case_normal_common@?$output_processor@DV?$string_output_adapter@D@__crt_stdio_output@@V?$format_validation_base@DV?$string_output_adapter@D@__crt_stdio_output@@@2@@__crt_stdio_output@@AAE_NXZ 10054830 f i libucrtd:output.obj
 0001:00053880       ?state_case_normal_common@?$output_processor@DV?$string_output_adapter@D@__crt_stdio_output@@V?$positional_parameter_base@DV?$string_output_adapter@D@__crt_stdio_output@@@2@@__crt_stdio_output@@AAE_NXZ 10054880 f i libucrtd:output.obj
 0001:000538d0       ?state_case_normal_common@?$output_processor@DV?$string_output_adapter@D@__crt_stdio_output@@V?$standard_base@DV?$string_output_adapter@D@__crt_stdio_output@@@2@@__crt_stdio_output@@AAE_NXZ 100548d0 f i libucrtd:output.obj
 0001:00053920       ?state_case_normal_common@?$output_processor@_WV?$stream_output_adapter@_W@__crt_stdio_output@@V?$format_validation_base@_WV?$stream_output_adapter@_W@__crt_stdio_output@@@2@@__crt_stdio_output@@AAE_NXZ 10054920 f i libucrtd:output.obj
 0001:00053970       ?state_case_normal_common@?$output_processor@_WV?$stream_output_adapter@_W@__crt_stdio_output@@V?$positional_parameter_base@_WV?$stream_output_adapter@_W@__crt_stdio_output@@@2@@__crt_stdio_output@@AAE_NXZ 10054970 f i libucrtd:output.obj
 0001:000539c0       ?state_case_normal_common@?$output_processor@_WV?$stream_output_adapter@_W@__crt_stdio_output@@V?$standard_base@_WV?$stream_output_adapter@_W@__crt_stdio_output@@@2@@__crt_stdio_output@@AAE_NXZ 100549c0 f i libucrtd:output.obj
 0001:00053a10       ?state_case_normal_common@?$output_processor@_WV?$string_output_adapter@_W@__crt_stdio_output@@V?$format_validation_base@_WV?$string_output_adapter@_W@__crt_stdio_output@@@2@@__crt_stdio_output@@AAE_NXZ 10054a10 f i libucrtd:output.obj
 0001:00053a60       ?state_case_normal_common@?$output_processor@_WV?$string_output_adapter@_W@__crt_stdio_output@@V?$positional_parameter_base@_WV?$string_output_adapter@_W@__crt_stdio_output@@@2@@__crt_stdio_output@@AAE_NXZ 10054a60 f i libucrtd:output.obj
 0001:00053ab0       ?state_case_normal_common@?$output_processor@_WV?$string_output_adapter@_W@__crt_stdio_output@@V?$standard_base@_WV?$string_output_adapter@_W@__crt_stdio_output@@@2@@__crt_stdio_output@@AAE_NXZ 10054ab0 f i libucrtd:output.obj
 0001:00053b00       ?state_case_normal_tchar@?$output_processor@DV?$stream_output_adapter@D@__crt_stdio_output@@V?$format_validation_base@DV?$stream_output_adapter@D@__crt_stdio_output@@@2@@__crt_stdio_output@@AAE_ND@Z 10054b00 f i libucrtd:output.obj
 0001:00053c00       ?state_case_normal_tchar@?$output_processor@DV?$stream_output_adapter@D@__crt_stdio_output@@V?$positional_parameter_base@DV?$stream_output_adapter@D@__crt_stdio_output@@@2@@__crt_stdio_output@@AAE_ND@Z 10054c00 f i libucrtd:output.obj
 0001:00053d00       ?state_case_normal_tchar@?$output_processor@DV?$stream_output_adapter@D@__crt_stdio_output@@V?$standard_base@DV?$stream_output_adapter@D@__crt_stdio_output@@@2@@__crt_stdio_output@@AAE_ND@Z 10054d00 f i libucrtd:output.obj
 0001:00053e00       ?state_case_normal_tchar@?$output_processor@DV?$string_output_adapter@D@__crt_stdio_output@@V?$format_validation_base@DV?$string_output_adapter@D@__crt_stdio_output@@@2@@__crt_stdio_output@@AAE_ND@Z 10054e00 f i libucrtd:output.obj
 0001:00053f00       ?state_case_normal_tchar@?$output_processor@DV?$string_output_adapter@D@__crt_stdio_output@@V?$positional_parameter_base@DV?$string_output_adapter@D@__crt_stdio_output@@@2@@__crt_stdio_output@@AAE_ND@Z 10054f00 f i libucrtd:output.obj
 0001:00054000       ?state_case_normal_tchar@?$output_processor@DV?$string_output_adapter@D@__crt_stdio_output@@V?$standard_base@DV?$string_output_adapter@D@__crt_stdio_output@@@2@@__crt_stdio_output@@AAE_ND@Z 10055000 f i libucrtd:output.obj
 0001:00054100       ?state_case_normal_tchar@?$output_processor@_WV?$stream_output_adapter@_W@__crt_stdio_output@@V?$format_validation_base@_WV?$stream_output_adapter@_W@__crt_stdio_output@@@2@@__crt_stdio_output@@AAE_N_W@Z 10055100 f i libucrtd:output.obj
 0001:00054120       ?state_case_normal_tchar@?$output_processor@_WV?$stream_output_adapter@_W@__crt_stdio_output@@V?$positional_parameter_base@_WV?$stream_output_adapter@_W@__crt_stdio_output@@@2@@__crt_stdio_output@@AAE_N_W@Z 10055120 f i libucrtd:output.obj
 0001:00054140       ?state_case_normal_tchar@?$output_processor@_WV?$stream_output_adapter@_W@__crt_stdio_output@@V?$standard_base@_WV?$stream_output_adapter@_W@__crt_stdio_output@@@2@@__crt_stdio_output@@AAE_N_W@Z 10055140 f i libucrtd:output.obj
 0001:00054160       ?state_case_normal_tchar@?$output_processor@_WV?$string_output_adapter@_W@__crt_stdio_output@@V?$format_validation_base@_WV?$string_output_adapter@_W@__crt_stdio_output@@@2@@__crt_stdio_output@@AAE_N_W@Z 10055160 f i libucrtd:output.obj
 0001:00054180       ?state_case_normal_tchar@?$output_processor@_WV?$string_output_adapter@_W@__crt_stdio_output@@V?$positional_parameter_base@_WV?$string_output_adapter@_W@__crt_stdio_output@@@2@@__crt_stdio_output@@AAE_N_W@Z 10055180 f i libucrtd:output.obj
 0001:000541a0       ?state_case_normal_tchar@?$output_processor@_WV?$string_output_adapter@_W@__crt_stdio_output@@V?$standard_base@_WV?$string_output_adapter@_W@__crt_stdio_output@@@2@@__crt_stdio_output@@AAE_N_W@Z 100551a0 f i libucrtd:output.obj
 0001:000541c0       ?state_case_percent@?$output_processor@DV?$stream_output_adapter@D@__crt_stdio_output@@V?$format_validation_base@DV?$stream_output_adapter@D@__crt_stdio_output@@@2@@__crt_stdio_output@@AAE_NXZ 100551c0 f i libucrtd:output.obj
 0001:00054210       ?state_case_percent@?$output_processor@DV?$stream_output_adapter@D@__crt_stdio_output@@V?$positional_parameter_base@DV?$stream_output_adapter@D@__crt_stdio_output@@@2@@__crt_stdio_output@@AAE_NXZ 10055210 f i libucrtd:output.obj
 0001:00054260       ?state_case_percent@?$output_processor@DV?$stream_output_adapter@D@__crt_stdio_output@@V?$standard_base@DV?$stream_output_adapter@D@__crt_stdio_output@@@2@@__crt_stdio_output@@AAE_NXZ 10055260 f i libucrtd:output.obj
 0001:000542b0       ?state_case_percent@?$output_processor@DV?$string_output_adapter@D@__crt_stdio_output@@V?$format_validation_base@DV?$string_output_adapter@D@__crt_stdio_output@@@2@@__crt_stdio_output@@AAE_NXZ 100552b0 f i libucrtd:output.obj
 0001:00054300       ?state_case_percent@?$output_processor@DV?$string_output_adapter@D@__crt_stdio_output@@V?$positional_parameter_base@DV?$string_output_adapter@D@__crt_stdio_output@@@2@@__crt_stdio_output@@AAE_NXZ 10055300 f i libucrtd:output.obj
 0001:00054350       ?state_case_percent@?$output_processor@DV?$string_output_adapter@D@__crt_stdio_output@@V?$standard_base@DV?$string_output_adapter@D@__crt_stdio_output@@@2@@__crt_stdio_output@@AAE_NXZ 10055350 f i libucrtd:output.obj
 0001:000543a0       ?state_case_percent@?$output_processor@_WV?$stream_output_adapter@_W@__crt_stdio_output@@V?$format_validation_base@_WV?$stream_output_adapter@_W@__crt_stdio_output@@@2@@__crt_stdio_output@@AAE_NXZ 100553a0 f i libucrtd:output.obj
 0001:000543f0       ?state_case_percent@?$output_processor@_WV?$stream_output_adapter@_W@__crt_stdio_output@@V?$positional_parameter_base@_WV?$stream_output_adapter@_W@__crt_stdio_output@@@2@@__crt_stdio_output@@AAE_NXZ 100553f0 f i libucrtd:output.obj
 0001:00054440       ?state_case_percent@?$output_processor@_WV?$stream_output_adapter@_W@__crt_stdio_output@@V?$standard_base@_WV?$stream_output_adapter@_W@__crt_stdio_output@@@2@@__crt_stdio_output@@AAE_NXZ 10055440 f i libucrtd:output.obj
 0001:00054490       ?state_case_percent@?$output_processor@_WV?$string_output_adapter@_W@__crt_stdio_output@@V?$format_validation_base@_WV?$string_output_adapter@_W@__crt_stdio_output@@@2@@__crt_stdio_output@@AAE_NXZ 10055490 f i libucrtd:output.obj
 0001:000544e0       ?state_case_percent@?$output_processor@_WV?$string_output_adapter@_W@__crt_stdio_output@@V?$positional_parameter_base@_WV?$string_output_adapter@_W@__crt_stdio_output@@@2@@__crt_stdio_output@@AAE_NXZ 100554e0 f i libucrtd:output.obj
 0001:00054530       ?state_case_percent@?$output_processor@_WV?$string_output_adapter@_W@__crt_stdio_output@@V?$standard_base@_WV?$string_output_adapter@_W@__crt_stdio_output@@@2@@__crt_stdio_output@@AAE_NXZ 10055530 f i libucrtd:output.obj
 0001:00054580       ?state_case_precision@?$output_processor@DV?$stream_output_adapter@D@__crt_stdio_output@@V?$format_validation_base@DV?$stream_output_adapter@D@__crt_stdio_output@@@2@@__crt_stdio_output@@AAE_NXZ 10055580 f i libucrtd:output.obj
 0001:000545f0       ?state_case_precision@?$output_processor@DV?$stream_output_adapter@D@__crt_stdio_output@@V?$positional_parameter_base@DV?$stream_output_adapter@D@__crt_stdio_output@@@2@@__crt_stdio_output@@AAE_NXZ 100555f0 f i libucrtd:output.obj
 0001:00054660       ?state_case_precision@?$output_processor@DV?$stream_output_adapter@D@__crt_stdio_output@@V?$standard_base@DV?$stream_output_adapter@D@__crt_stdio_output@@@2@@__crt_stdio_output@@AAE_NXZ 10055660 f i libucrtd:output.obj
 0001:000546d0       ?state_case_precision@?$output_processor@DV?$string_output_adapter@D@__crt_stdio_output@@V?$format_validation_base@DV?$string_output_adapter@D@__crt_stdio_output@@@2@@__crt_stdio_output@@AAE_NXZ 100556d0 f i libucrtd:output.obj
 0001:00054740       ?state_case_precision@?$output_processor@DV?$string_output_adapter@D@__crt_stdio_output@@V?$positional_parameter_base@DV?$string_output_adapter@D@__crt_stdio_output@@@2@@__crt_stdio_output@@AAE_NXZ 10055740 f i libucrtd:output.obj
 0001:000547b0       ?state_case_precision@?$output_processor@DV?$string_output_adapter@D@__crt_stdio_output@@V?$standard_base@DV?$string_output_adapter@D@__crt_stdio_output@@@2@@__crt_stdio_output@@AAE_NXZ 100557b0 f i libucrtd:output.obj
 0001:00054820       ?state_case_precision@?$output_processor@_WV?$stream_output_adapter@_W@__crt_stdio_output@@V?$format_validation_base@_WV?$stream_output_adapter@_W@__crt_stdio_output@@@2@@__crt_stdio_output@@AAE_NXZ 10055820 f i libucrtd:output.obj
 0001:00054890       ?state_case_precision@?$output_processor@_WV?$stream_output_adapter@_W@__crt_stdio_output@@V?$positional_parameter_base@_WV?$stream_output_adapter@_W@__crt_stdio_output@@@2@@__crt_stdio_output@@AAE_NXZ 10055890 f i libucrtd:output.obj
 0001:00054900       ?state_case_precision@?$output_processor@_WV?$stream_output_adapter@_W@__crt_stdio_output@@V?$standard_base@_WV?$stream_output_adapter@_W@__crt_stdio_output@@@2@@__crt_stdio_output@@AAE_NXZ 10055900 f i libucrtd:output.obj
 0001:00054970       ?state_case_precision@?$output_processor@_WV?$string_output_adapter@_W@__crt_stdio_output@@V?$format_validation_base@_WV?$string_output_adapter@_W@__crt_stdio_output@@@2@@__crt_stdio_output@@AAE_NXZ 10055970 f i libucrtd:output.obj
 0001:000549e0       ?state_case_precision@?$output_processor@_WV?$string_output_adapter@_W@__crt_stdio_output@@V?$positional_parameter_base@_WV?$string_output_adapter@_W@__crt_stdio_output@@@2@@__crt_stdio_output@@AAE_NXZ 100559e0 f i libucrtd:output.obj
 0001:00054a50       ?state_case_precision@?$output_processor@_WV?$string_output_adapter@_W@__crt_stdio_output@@V?$standard_base@_WV?$string_output_adapter@_W@__crt_stdio_output@@@2@@__crt_stdio_output@@AAE_NXZ 10055a50 f i libucrtd:output.obj
 0001:00054ac0       ?state_case_size@?$output_processor@DV?$stream_output_adapter@D@__crt_stdio_output@@V?$format_validation_base@DV?$stream_output_adapter@D@__crt_stdio_output@@@2@@__crt_stdio_output@@AAE_NXZ 10055ac0 f i libucrtd:output.obj
 0001:00054e90       ?state_case_size@?$output_processor@DV?$stream_output_adapter@D@__crt_stdio_output@@V?$positional_parameter_base@DV?$stream_output_adapter@D@__crt_stdio_output@@@2@@__crt_stdio_output@@AAE_NXZ 10055e90 f i libucrtd:output.obj
 0001:00055260       ?state_case_size@?$output_processor@DV?$stream_output_adapter@D@__crt_stdio_output@@V?$standard_base@DV?$stream_output_adapter@D@__crt_stdio_output@@@2@@__crt_stdio_output@@AAE_NXZ 10056260 f i libucrtd:output.obj
 0001:00055630       ?state_case_size@?$output_processor@DV?$string_output_adapter@D@__crt_stdio_output@@V?$format_validation_base@DV?$string_output_adapter@D@__crt_stdio_output@@@2@@__crt_stdio_output@@AAE_NXZ 10056630 f i libucrtd:output.obj
 0001:00055a00       ?state_case_size@?$output_processor@DV?$string_output_adapter@D@__crt_stdio_output@@V?$positional_parameter_base@DV?$string_output_adapter@D@__crt_stdio_output@@@2@@__crt_stdio_output@@AAE_NXZ 10056a00 f i libucrtd:output.obj
 0001:00055dd0       ?state_case_size@?$output_processor@DV?$string_output_adapter@D@__crt_stdio_output@@V?$standard_base@DV?$string_output_adapter@D@__crt_stdio_output@@@2@@__crt_stdio_output@@AAE_NXZ 10056dd0 f i libucrtd:output.obj
 0001:000561a0       ?state_case_size@?$output_processor@_WV?$stream_output_adapter@_W@__crt_stdio_output@@V?$format_validation_base@_WV?$stream_output_adapter@_W@__crt_stdio_output@@@2@@__crt_stdio_output@@AAE_NXZ 100571a0 f i libucrtd:output.obj
 0001:00056570       ?state_case_size@?$output_processor@_WV?$stream_output_adapter@_W@__crt_stdio_output@@V?$positional_parameter_base@_WV?$stream_output_adapter@_W@__crt_stdio_output@@@2@@__crt_stdio_output@@AAE_NXZ 10057570 f i libucrtd:output.obj
 0001:00056940       ?state_case_size@?$output_processor@_WV?$stream_output_adapter@_W@__crt_stdio_output@@V?$standard_base@_WV?$stream_output_adapter@_W@__crt_stdio_output@@@2@@__crt_stdio_output@@AAE_NXZ 10057940 f i libucrtd:output.obj
 0001:00056d10       ?state_case_size@?$output_processor@_WV?$string_output_adapter@_W@__crt_stdio_output@@V?$format_validation_base@_WV?$string_output_adapter@_W@__crt_stdio_output@@@2@@__crt_stdio_output@@AAE_NXZ 10057d10 f i libucrtd:output.obj
 0001:000570e0       ?state_case_size@?$output_processor@_WV?$string_output_adapter@_W@__crt_stdio_output@@V?$positional_parameter_base@_WV?$string_output_adapter@_W@__crt_stdio_output@@@2@@__crt_stdio_output@@AAE_NXZ 100580e0 f i libucrtd:output.obj
 0001:000574b0       ?state_case_size@?$output_processor@_WV?$string_output_adapter@_W@__crt_stdio_output@@V?$standard_base@_WV?$string_output_adapter@_W@__crt_stdio_output@@@2@@__crt_stdio_output@@AAE_NXZ 100584b0 f i libucrtd:output.obj
 0001:00057880       ?state_case_type@?$output_processor@DV?$stream_output_adapter@D@__crt_stdio_output@@V?$format_validation_base@DV?$stream_output_adapter@D@__crt_stdio_output@@@2@@__crt_stdio_output@@AAE_NXZ 10058880 f i libucrtd:output.obj
 0001:00057c30       ?state_case_type@?$output_processor@DV?$stream_output_adapter@D@__crt_stdio_output@@V?$positional_parameter_base@DV?$stream_output_adapter@D@__crt_stdio_output@@@2@@__crt_stdio_output@@AAE_NXZ 10058c30 f i libucrtd:output.obj
 0001:00057fe0       ?state_case_type@?$output_processor@DV?$stream_output_adapter@D@__crt_stdio_output@@V?$standard_base@DV?$stream_output_adapter@D@__crt_stdio_output@@@2@@__crt_stdio_output@@AAE_NXZ 10058fe0 f i libucrtd:output.obj
 0001:00058390       ?state_case_type@?$output_processor@DV?$string_output_adapter@D@__crt_stdio_output@@V?$format_validation_base@DV?$string_output_adapter@D@__crt_stdio_output@@@2@@__crt_stdio_output@@AAE_NXZ 10059390 f i libucrtd:output.obj
 0001:00058740       ?state_case_type@?$output_processor@DV?$string_output_adapter@D@__crt_stdio_output@@V?$positional_parameter_base@DV?$string_output_adapter@D@__crt_stdio_output@@@2@@__crt_stdio_output@@AAE_NXZ 10059740 f i libucrtd:output.obj
 0001:00058af0       ?state_case_type@?$output_processor@DV?$string_output_adapter@D@__crt_stdio_output@@V?$standard_base@DV?$string_output_adapter@D@__crt_stdio_output@@@2@@__crt_stdio_output@@AAE_NXZ 10059af0 f i libucrtd:output.obj
 0001:00058ea0       ?state_case_type@?$output_processor@_WV?$stream_output_adapter@_W@__crt_stdio_output@@V?$format_validation_base@_WV?$stream_output_adapter@_W@__crt_stdio_output@@@2@@__crt_stdio_output@@AAE_NXZ 10059ea0 f i libucrtd:output.obj
 0001:00059280       ?state_case_type@?$output_processor@_WV?$stream_output_adapter@_W@__crt_stdio_output@@V?$positional_parameter_base@_WV?$stream_output_adapter@_W@__crt_stdio_output@@@2@@__crt_stdio_output@@AAE_NXZ 1005a280 f i libucrtd:output.obj
 0001:00059660       ?state_case_type@?$output_processor@_WV?$stream_output_adapter@_W@__crt_stdio_output@@V?$standard_base@_WV?$stream_output_adapter@_W@__crt_stdio_output@@@2@@__crt_stdio_output@@AAE_NXZ 1005a660 f i libucrtd:output.obj
 0001:00059a40       ?state_case_type@?$output_processor@_WV?$string_output_adapter@_W@__crt_stdio_output@@V?$format_validation_base@_WV?$string_output_adapter@_W@__crt_stdio_output@@@2@@__crt_stdio_output@@AAE_NXZ 1005aa40 f i libucrtd:output.obj
 0001:00059e20       ?state_case_type@?$output_processor@_WV?$string_output_adapter@_W@__crt_stdio_output@@V?$positional_parameter_base@_WV?$string_output_adapter@_W@__crt_stdio_output@@@2@@__crt_stdio_output@@AAE_NXZ 1005ae20 f i libucrtd:output.obj
 0001:0005a200       ?state_case_type@?$output_processor@_WV?$string_output_adapter@_W@__crt_stdio_output@@V?$standard_base@_WV?$string_output_adapter@_W@__crt_stdio_output@@@2@@__crt_stdio_output@@AAE_NXZ 1005b200 f i libucrtd:output.obj
 0001:0005a5e0       ?state_case_width@?$output_processor@DV?$stream_output_adapter@D@__crt_stdio_output@@V?$format_validation_base@DV?$stream_output_adapter@D@__crt_stdio_output@@@2@@__crt_stdio_output@@AAE_NXZ 1005b5e0 f i libucrtd:output.obj
 0001:0005a660       ?state_case_width@?$output_processor@DV?$stream_output_adapter@D@__crt_stdio_output@@V?$positional_parameter_base@DV?$stream_output_adapter@D@__crt_stdio_output@@@2@@__crt_stdio_output@@AAE_NXZ 1005b660 f i libucrtd:output.obj
 0001:0005a6e0       ?state_case_width@?$output_processor@DV?$stream_output_adapter@D@__crt_stdio_output@@V?$standard_base@DV?$stream_output_adapter@D@__crt_stdio_output@@@2@@__crt_stdio_output@@AAE_NXZ 1005b6e0 f i libucrtd:output.obj
 0001:0005a760       ?state_case_width@?$output_processor@DV?$string_output_adapter@D@__crt_stdio_output@@V?$format_validation_base@DV?$string_output_adapter@D@__crt_stdio_output@@@2@@__crt_stdio_output@@AAE_NXZ 1005b760 f i libucrtd:output.obj
 0001:0005a7e0       ?state_case_width@?$output_processor@DV?$string_output_adapter@D@__crt_stdio_output@@V?$positional_parameter_base@DV?$string_output_adapter@D@__crt_stdio_output@@@2@@__crt_stdio_output@@AAE_NXZ 1005b7e0 f i libucrtd:output.obj
 0001:0005a860       ?state_case_width@?$output_processor@DV?$string_output_adapter@D@__crt_stdio_output@@V?$standard_base@DV?$string_output_adapter@D@__crt_stdio_output@@@2@@__crt_stdio_output@@AAE_NXZ 1005b860 f i libucrtd:output.obj
 0001:0005a8e0       ?state_case_width@?$output_processor@_WV?$stream_output_adapter@_W@__crt_stdio_output@@V?$format_validation_base@_WV?$stream_output_adapter@_W@__crt_stdio_output@@@2@@__crt_stdio_output@@AAE_NXZ 1005b8e0 f i libucrtd:output.obj
 0001:0005a960       ?state_case_width@?$output_processor@_WV?$stream_output_adapter@_W@__crt_stdio_output@@V?$positional_parameter_base@_WV?$stream_output_adapter@_W@__crt_stdio_output@@@2@@__crt_stdio_output@@AAE_NXZ 1005b960 f i libucrtd:output.obj
 0001:0005a9e0       ?state_case_width@?$output_processor@_WV?$stream_output_adapter@_W@__crt_stdio_output@@V?$standard_base@_WV?$stream_output_adapter@_W@__crt_stdio_output@@@2@@__crt_stdio_output@@AAE_NXZ 1005b9e0 f i libucrtd:output.obj
 0001:0005aa60       ?state_case_width@?$output_processor@_WV?$string_output_adapter@_W@__crt_stdio_output@@V?$format_validation_base@_WV?$string_output_adapter@_W@__crt_stdio_output@@@2@@__crt_stdio_output@@AAE_NXZ 1005ba60 f i libucrtd:output.obj
 0001:0005aae0       ?state_case_width@?$output_processor@_WV?$string_output_adapter@_W@__crt_stdio_output@@V?$positional_parameter_base@_WV?$string_output_adapter@_W@__crt_stdio_output@@@2@@__crt_stdio_output@@AAE_NXZ 1005bae0 f i libucrtd:output.obj
 0001:0005ab60       ?state_case_width@?$output_processor@_WV?$string_output_adapter@_W@__crt_stdio_output@@V?$standard_base@_WV?$string_output_adapter@_W@__crt_stdio_output@@@2@@__crt_stdio_output@@AAE_NXZ 1005bb60 f i libucrtd:output.obj
 0001:0005abe0       ?state_count@?$format_validation_base@DV?$stream_output_adapter@D@__crt_stdio_output@@@__crt_stdio_output@@KAIXZ 1005bbe0 f i libucrtd:output.obj
 0001:0005abf0       ?state_count@?$format_validation_base@DV?$string_output_adapter@D@__crt_stdio_output@@@__crt_stdio_output@@KAIXZ 1005bbf0 f i libucrtd:output.obj
 0001:0005ac00       ?state_count@?$format_validation_base@_WV?$stream_output_adapter@_W@__crt_stdio_output@@@__crt_stdio_output@@KAIXZ 1005bc00 f i libucrtd:output.obj
 0001:0005ac10       ?state_count@?$format_validation_base@_WV?$string_output_adapter@_W@__crt_stdio_output@@@__crt_stdio_output@@KAIXZ 1005bc10 f i libucrtd:output.obj
 0001:0005ac20       ?state_count@?$standard_base@DV?$stream_output_adapter@D@__crt_stdio_output@@@__crt_stdio_output@@KAIXZ 1005bc20 f i libucrtd:output.obj
 0001:0005ac30       ?state_count@?$standard_base@DV?$string_output_adapter@D@__crt_stdio_output@@@__crt_stdio_output@@KAIXZ 1005bc30 f i libucrtd:output.obj
 0001:0005ac40       ?state_count@?$standard_base@_WV?$stream_output_adapter@_W@__crt_stdio_output@@@__crt_stdio_output@@KAIXZ 1005bc40 f i libucrtd:output.obj
 0001:0005ac50       ?state_count@?$standard_base@_WV?$string_output_adapter@_W@__crt_stdio_output@@@__crt_stdio_output@@KAIXZ 1005bc50 f i libucrtd:output.obj
 0001:0005ac60       ?state_transition_table@?$format_validation_base@DV?$stream_output_adapter@D@__crt_stdio_output@@@__crt_stdio_output@@KAPBEXZ 1005bc60 f i libucrtd:output.obj
 0001:0005ac70       ?state_transition_table@?$format_validation_base@DV?$string_output_adapter@D@__crt_stdio_output@@@__crt_stdio_output@@KAPBEXZ 1005bc70 f i libucrtd:output.obj
 0001:0005ac80       ?state_transition_table@?$format_validation_base@_WV?$stream_output_adapter@_W@__crt_stdio_output@@@__crt_stdio_output@@KAPBEXZ 1005bc80 f i libucrtd:output.obj
 0001:0005ac90       ?state_transition_table@?$format_validation_base@_WV?$string_output_adapter@_W@__crt_stdio_output@@@__crt_stdio_output@@KAPBEXZ 1005bc90 f i libucrtd:output.obj
 0001:0005aca0       ?state_transition_table@?$standard_base@DV?$stream_output_adapter@D@__crt_stdio_output@@@__crt_stdio_output@@KAPBEXZ 1005bca0 f i libucrtd:output.obj
 0001:0005acb0       ?state_transition_table@?$standard_base@DV?$string_output_adapter@D@__crt_stdio_output@@@__crt_stdio_output@@KAPBEXZ 1005bcb0 f i libucrtd:output.obj
 0001:0005acc0       ?state_transition_table@?$standard_base@_WV?$stream_output_adapter@_W@__crt_stdio_output@@@__crt_stdio_output@@KAPBEXZ 1005bcc0 f i libucrtd:output.obj
 0001:0005acd0       ?state_transition_table@?$standard_base@_WV?$string_output_adapter@_W@__crt_stdio_output@@@__crt_stdio_output@@KAPBEXZ 1005bcd0 f i libucrtd:output.obj
 0001:0005ace0       ?tchar_string@?$common_data@D@__crt_stdio_output@@IAEAAPADD@Z 1005bce0 f i libucrtd:output.obj
 0001:0005ad00       ?tchar_string@?$common_data@D@__crt_stdio_output@@IAEAAPADXZ 1005bd00 f i libucrtd:output.obj
 0001:0005ad20       ?tchar_string@?$common_data@_W@__crt_stdio_output@@IAEAAPA_WXZ 1005bd20 f i libucrtd:output.obj
 0001:0005ad40       ?tchar_string@?$common_data@_W@__crt_stdio_output@@IAEAAPA_W_W@Z 1005bd40 f i libucrtd:output.obj
 0001:0005ad60       ?to_integer_size@__crt_stdio_output@@YAIW4length_modifier@1@@Z 1005bd60 f i libucrtd:output.obj
 0001:0005ae00       ?type_case_X@?$output_processor@DV?$stream_output_adapter@D@__crt_stdio_output@@V?$format_validation_base@DV?$stream_output_adapter@D@__crt_stdio_output@@@2@@__crt_stdio_output@@AAE_NXZ 1005be00 f i libucrtd:output.obj
 0001:0005ae20       ?type_case_X@?$output_processor@DV?$stream_output_adapter@D@__crt_stdio_output@@V?$positional_parameter_base@DV?$stream_output_adapter@D@__crt_stdio_output@@@2@@__crt_stdio_output@@AAE_NXZ 1005be20 f i libucrtd:output.obj
 0001:0005ae40       ?type_case_X@?$output_processor@DV?$stream_output_adapter@D@__crt_stdio_output@@V?$standard_base@DV?$stream_output_adapter@D@__crt_stdio_output@@@2@@__crt_stdio_output@@AAE_NXZ 1005be40 f i libucrtd:output.obj
 0001:0005ae60       ?type_case_X@?$output_processor@DV?$string_output_adapter@D@__crt_stdio_output@@V?$format_validation_base@DV?$string_output_adapter@D@__crt_stdio_output@@@2@@__crt_stdio_output@@AAE_NXZ 1005be60 f i libucrtd:output.obj
 0001:0005ae80       ?type_case_X@?$output_processor@DV?$string_output_adapter@D@__crt_stdio_output@@V?$positional_parameter_base@DV?$string_output_adapter@D@__crt_stdio_output@@@2@@__crt_stdio_output@@AAE_NXZ 1005be80 f i libucrtd:output.obj
 0001:0005aea0       ?type_case_X@?$output_processor@DV?$string_output_adapter@D@__crt_stdio_output@@V?$standard_base@DV?$string_output_adapter@D@__crt_stdio_output@@@2@@__crt_stdio_output@@AAE_NXZ 1005bea0 f i libucrtd:output.obj
 0001:0005aec0       ?type_case_X@?$output_processor@_WV?$stream_output_adapter@_W@__crt_stdio_output@@V?$format_validation_base@_WV?$stream_output_adapter@_W@__crt_stdio_output@@@2@@__crt_stdio_output@@AAE_NXZ 1005bec0 f i libucrtd:output.obj
 0001:0005aee0       ?type_case_X@?$output_processor@_WV?$stream_output_adapter@_W@__crt_stdio_output@@V?$positional_parameter_base@_WV?$stream_output_adapter@_W@__crt_stdio_output@@@2@@__crt_stdio_output@@AAE_NXZ 1005bee0 f i libucrtd:output.obj
 0001:0005af00       ?type_case_X@?$output_processor@_WV?$stream_output_adapter@_W@__crt_stdio_output@@V?$standard_base@_WV?$stream_output_adapter@_W@__crt_stdio_output@@@2@@__crt_stdio_output@@AAE_NXZ 1005bf00 f i libucrtd:output.obj
 0001:0005af20       ?type_case_X@?$output_processor@_WV?$string_output_adapter@_W@__crt_stdio_output@@V?$format_validation_base@_WV?$string_output_adapter@_W@__crt_stdio_output@@@2@@__crt_stdio_output@@AAE_NXZ 1005bf20 f i libucrtd:output.obj
 0001:0005af40       ?type_case_X@?$output_processor@_WV?$string_output_adapter@_W@__crt_stdio_output@@V?$positional_parameter_base@_WV?$string_output_adapter@_W@__crt_stdio_output@@@2@@__crt_stdio_output@@AAE_NXZ 1005bf40 f i libucrtd:output.obj
 0001:0005af60       ?type_case_X@?$output_processor@_WV?$string_output_adapter@_W@__crt_stdio_output@@V?$standard_base@_WV?$string_output_adapter@_W@__crt_stdio_output@@@2@@__crt_stdio_output@@AAE_NXZ 1005bf60 f i libucrtd:output.obj
 0001:0005af80       ?type_case_Z@?$output_processor@DV?$stream_output_adapter@D@__crt_stdio_output@@V?$format_validation_base@DV?$stream_output_adapter@D@__crt_stdio_output@@@2@@__crt_stdio_output@@AAE_NXZ 1005bf80 f i libucrtd:output.obj
 0001:0005b070       ?type_case_Z@?$output_processor@DV?$stream_output_adapter@D@__crt_stdio_output@@V?$positional_parameter_base@DV?$stream_output_adapter@D@__crt_stdio_output@@@2@@__crt_stdio_output@@AAE_NXZ 1005c070 f i libucrtd:output.obj
 0001:0005b160       ?type_case_Z@?$output_processor@DV?$stream_output_adapter@D@__crt_stdio_output@@V?$standard_base@DV?$stream_output_adapter@D@__crt_stdio_output@@@2@@__crt_stdio_output@@AAE_NXZ 1005c160 f i libucrtd:output.obj
 0001:0005b250       ?type_case_Z@?$output_processor@DV?$string_output_adapter@D@__crt_stdio_output@@V?$format_validation_base@DV?$string_output_adapter@D@__crt_stdio_output@@@2@@__crt_stdio_output@@AAE_NXZ 1005c250 f i libucrtd:output.obj
 0001:0005b340       ?type_case_Z@?$output_processor@DV?$string_output_adapter@D@__crt_stdio_output@@V?$positional_parameter_base@DV?$string_output_adapter@D@__crt_stdio_output@@@2@@__crt_stdio_output@@AAE_NXZ 1005c340 f i libucrtd:output.obj
 0001:0005b430       ?type_case_Z@?$output_processor@DV?$string_output_adapter@D@__crt_stdio_output@@V?$standard_base@DV?$string_output_adapter@D@__crt_stdio_output@@@2@@__crt_stdio_output@@AAE_NXZ 1005c430 f i libucrtd:output.obj
 0001:0005b520       ?type_case_Z@?$output_processor@_WV?$stream_output_adapter@_W@__crt_stdio_output@@V?$format_validation_base@_WV?$stream_output_adapter@_W@__crt_stdio_output@@@2@@__crt_stdio_output@@AAE_NXZ 1005c520 f i libucrtd:output.obj
 0001:0005b610       ?type_case_Z@?$output_processor@_WV?$stream_output_adapter@_W@__crt_stdio_output@@V?$positional_parameter_base@_WV?$stream_output_adapter@_W@__crt_stdio_output@@@2@@__crt_stdio_output@@AAE_NXZ 1005c610 f i libucrtd:output.obj
 0001:0005b700       ?type_case_Z@?$output_processor@_WV?$stream_output_adapter@_W@__crt_stdio_output@@V?$standard_base@_WV?$stream_output_adapter@_W@__crt_stdio_output@@@2@@__crt_stdio_output@@AAE_NXZ 1005c700 f i libucrtd:output.obj
 0001:0005b7f0       ?type_case_Z@?$output_processor@_WV?$string_output_adapter@_W@__crt_stdio_output@@V?$format_validation_base@_WV?$string_output_adapter@_W@__crt_stdio_output@@@2@@__crt_stdio_output@@AAE_NXZ 1005c7f0 f i libucrtd:output.obj
 0001:0005b8e0       ?type_case_Z@?$output_processor@_WV?$string_output_adapter@_W@__crt_stdio_output@@V?$positional_parameter_base@_WV?$string_output_adapter@_W@__crt_stdio_output@@@2@@__crt_stdio_output@@AAE_NXZ 1005c8e0 f i libucrtd:output.obj
 0001:0005b9d0       ?type_case_Z@?$output_processor@_WV?$string_output_adapter@_W@__crt_stdio_output@@V?$standard_base@_WV?$string_output_adapter@_W@__crt_stdio_output@@@2@@__crt_stdio_output@@AAE_NXZ 1005c9d0 f i libucrtd:output.obj
 0001:0005bac0       ?type_case_a@?$output_processor@DV?$stream_output_adapter@D@__crt_stdio_output@@V?$format_validation_base@DV?$stream_output_adapter@D@__crt_stdio_output@@@2@@__crt_stdio_output@@AAE_NXZ 1005cac0 f i libucrtd:output.obj
 0001:0005bd30       ?type_case_a@?$output_processor@DV?$stream_output_adapter@D@__crt_stdio_output@@V?$positional_parameter_base@DV?$stream_output_adapter@D@__crt_stdio_output@@@2@@__crt_stdio_output@@AAE_NXZ 1005cd30 f i libucrtd:output.obj
 0001:0005bfa0       ?type_case_a@?$output_processor@DV?$stream_output_adapter@D@__crt_stdio_output@@V?$standard_base@DV?$stream_output_adapter@D@__crt_stdio_output@@@2@@__crt_stdio_output@@AAE_NXZ 1005cfa0 f i libucrtd:output.obj
 0001:0005c210       ?type_case_a@?$output_processor@DV?$string_output_adapter@D@__crt_stdio_output@@V?$format_validation_base@DV?$string_output_adapter@D@__crt_stdio_output@@@2@@__crt_stdio_output@@AAE_NXZ 1005d210 f i libucrtd:output.obj
 0001:0005c480       ?type_case_a@?$output_processor@DV?$string_output_adapter@D@__crt_stdio_output@@V?$positional_parameter_base@DV?$string_output_adapter@D@__crt_stdio_output@@@2@@__crt_stdio_output@@AAE_NXZ 1005d480 f i libucrtd:output.obj
 0001:0005c6f0       ?type_case_a@?$output_processor@DV?$string_output_adapter@D@__crt_stdio_output@@V?$standard_base@DV?$string_output_adapter@D@__crt_stdio_output@@@2@@__crt_stdio_output@@AAE_NXZ 1005d6f0 f i libucrtd:output.obj
 0001:0005c960       ?type_case_a@?$output_processor@_WV?$stream_output_adapter@_W@__crt_stdio_output@@V?$format_validation_base@_WV?$stream_output_adapter@_W@__crt_stdio_output@@@2@@__crt_stdio_output@@AAE_NXZ 1005d960 f i libucrtd:output.obj
 0001:0005cbd0       ?type_case_a@?$output_processor@_WV?$stream_output_adapter@_W@__crt_stdio_output@@V?$positional_parameter_base@_WV?$stream_output_adapter@_W@__crt_stdio_output@@@2@@__crt_stdio_output@@AAE_NXZ 1005dbd0 f i libucrtd:output.obj
 0001:0005ce40       ?type_case_a@?$output_processor@_WV?$stream_output_adapter@_W@__crt_stdio_output@@V?$standard_base@_WV?$stream_output_adapter@_W@__crt_stdio_output@@@2@@__crt_stdio_output@@AAE_NXZ 1005de40 f i libucrtd:output.obj
 0001:0005d0b0       ?type_case_a@?$output_processor@_WV?$string_output_adapter@_W@__crt_stdio_output@@V?$format_validation_base@_WV?$string_output_adapter@_W@__crt_stdio_output@@@2@@__crt_stdio_output@@AAE_NXZ 1005e0b0 f i libucrtd:output.obj
 0001:0005d320       ?type_case_a@?$output_processor@_WV?$string_output_adapter@_W@__crt_stdio_output@@V?$positional_parameter_base@_WV?$string_output_adapter@_W@__crt_stdio_output@@@2@@__crt_stdio_output@@AAE_NXZ 1005e320 f i libucrtd:output.obj
 0001:0005d590       ?type_case_a@?$output_processor@_WV?$string_output_adapter@_W@__crt_stdio_output@@V?$standard_base@_WV?$string_output_adapter@_W@__crt_stdio_output@@@2@@__crt_stdio_output@@AAE_NXZ 1005e590 f i libucrtd:output.obj
 0001:0005d800       ?type_case_c@?$output_processor@DV?$stream_output_adapter@D@__crt_stdio_output@@V?$format_validation_base@DV?$stream_output_adapter@D@__crt_stdio_output@@@2@@__crt_stdio_output@@AAE_NXZ 1005e800 f i libucrtd:output.obj
 0001:0005d820       ?type_case_c@?$output_processor@DV?$stream_output_adapter@D@__crt_stdio_output@@V?$positional_parameter_base@DV?$stream_output_adapter@D@__crt_stdio_output@@@2@@__crt_stdio_output@@AAE_NXZ 1005e820 f i libucrtd:output.obj
 0001:0005d840       ?type_case_c@?$output_processor@DV?$stream_output_adapter@D@__crt_stdio_output@@V?$standard_base@DV?$stream_output_adapter@D@__crt_stdio_output@@@2@@__crt_stdio_output@@AAE_NXZ 1005e840 f i libucrtd:output.obj
 0001:0005d860       ?type_case_c@?$output_processor@DV?$string_output_adapter@D@__crt_stdio_output@@V?$format_validation_base@DV?$string_output_adapter@D@__crt_stdio_output@@@2@@__crt_stdio_output@@AAE_NXZ 1005e860 f i libucrtd:output.obj
 0001:0005d880       ?type_case_c@?$output_processor@DV?$string_output_adapter@D@__crt_stdio_output@@V?$positional_parameter_base@DV?$string_output_adapter@D@__crt_stdio_output@@@2@@__crt_stdio_output@@AAE_NXZ 1005e880 f i libucrtd:output.obj
 0001:0005d8a0       ?type_case_c@?$output_processor@DV?$string_output_adapter@D@__crt_stdio_output@@V?$standard_base@DV?$string_output_adapter@D@__crt_stdio_output@@@2@@__crt_stdio_output@@AAE_NXZ 1005e8a0 f i libucrtd:output.obj
 0001:0005d8c0       ?type_case_c@?$output_processor@_WV?$stream_output_adapter@_W@__crt_stdio_output@@V?$format_validation_base@_WV?$stream_output_adapter@_W@__crt_stdio_output@@@2@@__crt_stdio_output@@AAE_NXZ 1005e8c0 f i libucrtd:output.obj
 0001:0005d8e0       ?type_case_c@?$output_processor@_WV?$stream_output_adapter@_W@__crt_stdio_output@@V?$positional_parameter_base@_WV?$stream_output_adapter@_W@__crt_stdio_output@@@2@@__crt_stdio_output@@AAE_NXZ 1005e8e0 f i libucrtd:output.obj
 0001:0005d900       ?type_case_c@?$output_processor@_WV?$stream_output_adapter@_W@__crt_stdio_output@@V?$standard_base@_WV?$stream_output_adapter@_W@__crt_stdio_output@@@2@@__crt_stdio_output@@AAE_NXZ 1005e900 f i libucrtd:output.obj
 0001:0005d920       ?type_case_c@?$output_processor@_WV?$string_output_adapter@_W@__crt_stdio_output@@V?$format_validation_base@_WV?$string_output_adapter@_W@__crt_stdio_output@@@2@@__crt_stdio_output@@AAE_NXZ 1005e920 f i libucrtd:output.obj
 0001:0005d940       ?type_case_c@?$output_processor@_WV?$string_output_adapter@_W@__crt_stdio_output@@V?$positional_parameter_base@_WV?$string_output_adapter@_W@__crt_stdio_output@@@2@@__crt_stdio_output@@AAE_NXZ 1005e940 f i libucrtd:output.obj
 0001:0005d960       ?type_case_c@?$output_processor@_WV?$string_output_adapter@_W@__crt_stdio_output@@V?$standard_base@_WV?$string_output_adapter@_W@__crt_stdio_output@@@2@@__crt_stdio_output@@AAE_NXZ 1005e960 f i libucrtd:output.obj
 0001:0005d980       ?type_case_c_tchar@?$output_processor@DV?$stream_output_adapter@D@__crt_stdio_output@@V?$format_validation_base@DV?$stream_output_adapter@D@__crt_stdio_output@@@2@@__crt_stdio_output@@AAE_ND@Z 1005e980 f i libucrtd:output.obj
 0001:0005da90       ?type_case_c_tchar@?$output_processor@DV?$stream_output_adapter@D@__crt_stdio_output@@V?$positional_parameter_base@DV?$stream_output_adapter@D@__crt_stdio_output@@@2@@__crt_stdio_output@@AAE_ND@Z 1005ea90 f i libucrtd:output.obj
 0001:0005dba0       ?type_case_c_tchar@?$output_processor@DV?$stream_output_adapter@D@__crt_stdio_output@@V?$standard_base@DV?$stream_output_adapter@D@__crt_stdio_output@@@2@@__crt_stdio_output@@AAE_ND@Z 1005eba0 f i libucrtd:output.obj
 0001:0005dcb0       ?type_case_c_tchar@?$output_processor@DV?$string_output_adapter@D@__crt_stdio_output@@V?$format_validation_base@DV?$string_output_adapter@D@__crt_stdio_output@@@2@@__crt_stdio_output@@AAE_ND@Z 1005ecb0 f i libucrtd:output.obj
 0001:0005ddc0       ?type_case_c_tchar@?$output_processor@DV?$string_output_adapter@D@__crt_stdio_output@@V?$positional_parameter_base@DV?$string_output_adapter@D@__crt_stdio_output@@@2@@__crt_stdio_output@@AAE_ND@Z 1005edc0 f i libucrtd:output.obj
 0001:0005ded0       ?type_case_c_tchar@?$output_processor@DV?$string_output_adapter@D@__crt_stdio_output@@V?$standard_base@DV?$string_output_adapter@D@__crt_stdio_output@@@2@@__crt_stdio_output@@AAE_ND@Z 1005eed0 f i libucrtd:output.obj
 0001:0005dfe0       ?type_case_c_tchar@?$output_processor@_WV?$stream_output_adapter@_W@__crt_stdio_output@@V?$format_validation_base@_WV?$stream_output_adapter@_W@__crt_stdio_output@@@2@@__crt_stdio_output@@AAE_N_W@Z 1005efe0 f i libucrtd:output.obj
 0001:0005e0e0       ?type_case_c_tchar@?$output_processor@_WV?$stream_output_adapter@_W@__crt_stdio_output@@V?$positional_parameter_base@_WV?$stream_output_adapter@_W@__crt_stdio_output@@@2@@__crt_stdio_output@@AAE_N_W@Z 1005f0e0 f i libucrtd:output.obj
 0001:0005e1e0       ?type_case_c_tchar@?$output_processor@_WV?$stream_output_adapter@_W@__crt_stdio_output@@V?$standard_base@_WV?$stream_output_adapter@_W@__crt_stdio_output@@@2@@__crt_stdio_output@@AAE_N_W@Z 1005f1e0 f i libucrtd:output.obj
 0001:0005e2e0       ?type_case_c_tchar@?$output_processor@_WV?$string_output_adapter@_W@__crt_stdio_output@@V?$format_validation_base@_WV?$string_output_adapter@_W@__crt_stdio_output@@@2@@__crt_stdio_output@@AAE_N_W@Z 1005f2e0 f i libucrtd:output.obj
 0001:0005e3e0       ?type_case_c_tchar@?$output_processor@_WV?$string_output_adapter@_W@__crt_stdio_output@@V?$positional_parameter_base@_WV?$string_output_adapter@_W@__crt_stdio_output@@@2@@__crt_stdio_output@@AAE_N_W@Z 1005f3e0 f i libucrtd:output.obj
 0001:0005e4e0       ?type_case_c_tchar@?$output_processor@_WV?$string_output_adapter@_W@__crt_stdio_output@@V?$standard_base@_WV?$string_output_adapter@_W@__crt_stdio_output@@@2@@__crt_stdio_output@@AAE_N_W@Z 1005f4e0 f i libucrtd:output.obj
 0001:0005e5e0       ?type_case_d@?$output_processor@DV?$stream_output_adapter@D@__crt_stdio_output@@V?$format_validation_base@DV?$stream_output_adapter@D@__crt_stdio_output@@@2@@__crt_stdio_output@@AAE_NXZ 1005f5e0 f i libucrtd:output.obj
 0001:0005e610       ?type_case_d@?$output_processor@DV?$stream_output_adapter@D@__crt_stdio_output@@V?$positional_parameter_base@DV?$stream_output_adapter@D@__crt_stdio_output@@@2@@__crt_stdio_output@@AAE_NXZ 1005f610 f i libucrtd:output.obj
 0001:0005e640       ?type_case_d@?$output_processor@DV?$stream_output_adapter@D@__crt_stdio_output@@V?$standard_base@DV?$stream_output_adapter@D@__crt_stdio_output@@@2@@__crt_stdio_output@@AAE_NXZ 1005f640 f i libucrtd:output.obj
 0001:0005e670       ?type_case_d@?$output_processor@DV?$string_output_adapter@D@__crt_stdio_output@@V?$format_validation_base@DV?$string_output_adapter@D@__crt_stdio_output@@@2@@__crt_stdio_output@@AAE_NXZ 1005f670 f i libucrtd:output.obj
 0001:0005e6a0       ?type_case_d@?$output_processor@DV?$string_output_adapter@D@__crt_stdio_output@@V?$positional_parameter_base@DV?$string_output_adapter@D@__crt_stdio_output@@@2@@__crt_stdio_output@@AAE_NXZ 1005f6a0 f i libucrtd:output.obj
 0001:0005e6d0       ?type_case_d@?$output_processor@DV?$string_output_adapter@D@__crt_stdio_output@@V?$standard_base@DV?$string_output_adapter@D@__crt_stdio_output@@@2@@__crt_stdio_output@@AAE_NXZ 1005f6d0 f i libucrtd:output.obj
 0001:0005e700       ?type_case_d@?$output_processor@_WV?$stream_output_adapter@_W@__crt_stdio_output@@V?$format_validation_base@_WV?$stream_output_adapter@_W@__crt_stdio_output@@@2@@__crt_stdio_output@@AAE_NXZ 1005f700 f i libucrtd:output.obj
 0001:0005e730       ?type_case_d@?$output_processor@_WV?$stream_output_adapter@_W@__crt_stdio_output@@V?$positional_parameter_base@_WV?$stream_output_adapter@_W@__crt_stdio_output@@@2@@__crt_stdio_output@@AAE_NXZ 1005f730 f i libucrtd:output.obj
 0001:0005e760       ?type_case_d@?$output_processor@_WV?$stream_output_adapter@_W@__crt_stdio_output@@V?$standard_base@_WV?$stream_output_adapter@_W@__crt_stdio_output@@@2@@__crt_stdio_output@@AAE_NXZ 1005f760 f i libucrtd:output.obj
 0001:0005e790       ?type_case_d@?$output_processor@_WV?$string_output_adapter@_W@__crt_stdio_output@@V?$format_validation_base@_WV?$string_output_adapter@_W@__crt_stdio_output@@@2@@__crt_stdio_output@@AAE_NXZ 1005f790 f i libucrtd:output.obj
 0001:0005e7c0       ?type_case_d@?$output_processor@_WV?$string_output_adapter@_W@__crt_stdio_output@@V?$positional_parameter_base@_WV?$string_output_adapter@_W@__crt_stdio_output@@@2@@__crt_stdio_output@@AAE_NXZ 1005f7c0 f i libucrtd:output.obj
 0001:0005e7f0       ?type_case_d@?$output_processor@_WV?$string_output_adapter@_W@__crt_stdio_output@@V?$standard_base@_WV?$string_output_adapter@_W@__crt_stdio_output@@@2@@__crt_stdio_output@@AAE_NXZ 1005f7f0 f i libucrtd:output.obj
 0001:0005e820       ?type_case_integer@?$output_processor@DV?$stream_output_adapter@D@__crt_stdio_output@@V?$format_validation_base@DV?$stream_output_adapter@D@__crt_stdio_output@@@2@@__crt_stdio_output@@AAE_NI_N@Z 1005f820 f i libucrtd:output.obj
 0001:0005eb70       ?type_case_integer@?$output_processor@DV?$stream_output_adapter@D@__crt_stdio_output@@V?$positional_parameter_base@DV?$stream_output_adapter@D@__crt_stdio_output@@@2@@__crt_stdio_output@@AAE_NI_N@Z 1005fb70 f i libucrtd:output.obj
 0001:0005eec0       ?type_case_integer@?$output_processor@DV?$stream_output_adapter@D@__crt_stdio_output@@V?$standard_base@DV?$stream_output_adapter@D@__crt_stdio_output@@@2@@__crt_stdio_output@@AAE_NI_N@Z 1005fec0 f i libucrtd:output.obj
 0001:0005f210       ?type_case_integer@?$output_processor@DV?$string_output_adapter@D@__crt_stdio_output@@V?$format_validation_base@DV?$string_output_adapter@D@__crt_stdio_output@@@2@@__crt_stdio_output@@AAE_NI_N@Z 10060210 f i libucrtd:output.obj
 0001:0005f560       ?type_case_integer@?$output_processor@DV?$string_output_adapter@D@__crt_stdio_output@@V?$positional_parameter_base@DV?$string_output_adapter@D@__crt_stdio_output@@@2@@__crt_stdio_output@@AAE_NI_N@Z 10060560 f i libucrtd:output.obj
 0001:0005f8b0       ?type_case_integer@?$output_processor@DV?$string_output_adapter@D@__crt_stdio_output@@V?$standard_base@DV?$string_output_adapter@D@__crt_stdio_output@@@2@@__crt_stdio_output@@AAE_NI_N@Z 100608b0 f i libucrtd:output.obj
 0001:0005fc00       ?type_case_integer@?$output_processor@_WV?$stream_output_adapter@_W@__crt_stdio_output@@V?$format_validation_base@_WV?$stream_output_adapter@_W@__crt_stdio_output@@@2@@__crt_stdio_output@@AAE_NI_N@Z 10060c00 f i libucrtd:output.obj
 0001:0005ff50       ?type_case_integer@?$output_processor@_WV?$stream_output_adapter@_W@__crt_stdio_output@@V?$positional_parameter_base@_WV?$stream_output_adapter@_W@__crt_stdio_output@@@2@@__crt_stdio_output@@AAE_NI_N@Z 10060f50 f i libucrtd:output.obj
 0001:000602a0       ?type_case_integer@?$output_processor@_WV?$stream_output_adapter@_W@__crt_stdio_output@@V?$standard_base@_WV?$stream_output_adapter@_W@__crt_stdio_output@@@2@@__crt_stdio_output@@AAE_NI_N@Z 100612a0 f i libucrtd:output.obj
 0001:000605f0       ?type_case_integer@?$output_processor@_WV?$string_output_adapter@_W@__crt_stdio_output@@V?$format_validation_base@_WV?$string_output_adapter@_W@__crt_stdio_output@@@2@@__crt_stdio_output@@AAE_NI_N@Z 100615f0 f i libucrtd:output.obj
 0001:00060940       ?type_case_integer@?$output_processor@_WV?$string_output_adapter@_W@__crt_stdio_output@@V?$positional_parameter_base@_WV?$string_output_adapter@_W@__crt_stdio_output@@@2@@__crt_stdio_output@@AAE_NI_N@Z 10061940 f i libucrtd:output.obj
 0001:00060c90       ?type_case_integer@?$output_processor@_WV?$string_output_adapter@_W@__crt_stdio_output@@V?$standard_base@_WV?$string_output_adapter@_W@__crt_stdio_output@@@2@@__crt_stdio_output@@AAE_NI_N@Z 10061c90 f i libucrtd:output.obj
 0001:00060fe0       ?type_case_n@?$output_processor@DV?$stream_output_adapter@D@__crt_stdio_output@@V?$format_validation_base@DV?$stream_output_adapter@D@__crt_stdio_output@@@2@@__crt_stdio_output@@AAE_NXZ 10061fe0 f i libucrtd:output.obj
 0001:000611d0       ?type_case_n@?$output_processor@DV?$stream_output_adapter@D@__crt_stdio_output@@V?$positional_parameter_base@DV?$stream_output_adapter@D@__crt_stdio_output@@@2@@__crt_stdio_output@@AAE_NXZ 100621d0 f i libucrtd:output.obj
 0001:000613c0       ?type_case_n@?$output_processor@DV?$stream_output_adapter@D@__crt_stdio_output@@V?$standard_base@DV?$stream_output_adapter@D@__crt_stdio_output@@@2@@__crt_stdio_output@@AAE_NXZ 100623c0 f i libucrtd:output.obj
 0001:000615b0       ?type_case_n@?$output_processor@DV?$string_output_adapter@D@__crt_stdio_output@@V?$format_validation_base@DV?$string_output_adapter@D@__crt_stdio_output@@@2@@__crt_stdio_output@@AAE_NXZ 100625b0 f i libucrtd:output.obj
 0001:000617a0       ?type_case_n@?$output_processor@DV?$string_output_adapter@D@__crt_stdio_output@@V?$positional_parameter_base@DV?$string_output_adapter@D@__crt_stdio_output@@@2@@__crt_stdio_output@@AAE_NXZ 100627a0 f i libucrtd:output.obj
 0001:00061990       ?type_case_n@?$output_processor@DV?$string_output_adapter@D@__crt_stdio_output@@V?$standard_base@DV?$string_output_adapter@D@__crt_stdio_output@@@2@@__crt_stdio_output@@AAE_NXZ 10062990 f i libucrtd:output.obj
 0001:00061b80       ?type_case_n@?$output_processor@_WV?$stream_output_adapter@_W@__crt_stdio_output@@V?$format_validation_base@_WV?$stream_output_adapter@_W@__crt_stdio_output@@@2@@__crt_stdio_output@@AAE_NXZ 10062b80 f i libucrtd:output.obj
 0001:00061d70       ?type_case_n@?$output_processor@_WV?$stream_output_adapter@_W@__crt_stdio_output@@V?$positional_parameter_base@_WV?$stream_output_adapter@_W@__crt_stdio_output@@@2@@__crt_stdio_output@@AAE_NXZ 10062d70 f i libucrtd:output.obj
 0001:00061f60       ?type_case_n@?$output_processor@_WV?$stream_output_adapter@_W@__crt_stdio_output@@V?$standard_base@_WV?$stream_output_adapter@_W@__crt_stdio_output@@@2@@__crt_stdio_output@@AAE_NXZ 10062f60 f i libucrtd:output.obj
 0001:00062150       ?type_case_n@?$output_processor@_WV?$string_output_adapter@_W@__crt_stdio_output@@V?$format_validation_base@_WV?$string_output_adapter@_W@__crt_stdio_output@@@2@@__crt_stdio_output@@AAE_NXZ 10063150 f i libucrtd:output.obj
 0001:00062340       ?type_case_n@?$output_processor@_WV?$string_output_adapter@_W@__crt_stdio_output@@V?$positional_parameter_base@_WV?$string_output_adapter@_W@__crt_stdio_output@@@2@@__crt_stdio_output@@AAE_NXZ 10063340 f i libucrtd:output.obj
 0001:00062530       ?type_case_n@?$output_processor@_WV?$string_output_adapter@_W@__crt_stdio_output@@V?$standard_base@_WV?$string_output_adapter@_W@__crt_stdio_output@@@2@@__crt_stdio_output@@AAE_NXZ 10063530 f i libucrtd:output.obj
 0001:00062720       ?type_case_o@?$output_processor@DV?$stream_output_adapter@D@__crt_stdio_output@@V?$format_validation_base@DV?$stream_output_adapter@D@__crt_stdio_output@@@2@@__crt_stdio_output@@AAE_NXZ 10063720 f i libucrtd:output.obj
 0001:00062760       ?type_case_o@?$output_processor@DV?$stream_output_adapter@D@__crt_stdio_output@@V?$positional_parameter_base@DV?$stream_output_adapter@D@__crt_stdio_output@@@2@@__crt_stdio_output@@AAE_NXZ 10063760 f i libucrtd:output.obj
 0001:000627a0       ?type_case_o@?$output_processor@DV?$stream_output_adapter@D@__crt_stdio_output@@V?$standard_base@DV?$stream_output_adapter@D@__crt_stdio_output@@@2@@__crt_stdio_output@@AAE_NXZ 100637a0 f i libucrtd:output.obj
 0001:000627e0       ?type_case_o@?$output_processor@DV?$string_output_adapter@D@__crt_stdio_output@@V?$format_validation_base@DV?$string_output_adapter@D@__crt_stdio_output@@@2@@__crt_stdio_output@@AAE_NXZ 100637e0 f i libucrtd:output.obj
 0001:00062820       ?type_case_o@?$output_processor@DV?$string_output_adapter@D@__crt_stdio_output@@V?$positional_parameter_base@DV?$string_output_adapter@D@__crt_stdio_output@@@2@@__crt_stdio_output@@AAE_NXZ 10063820 f i libucrtd:output.obj
 0001:00062860       ?type_case_o@?$output_processor@DV?$string_output_adapter@D@__crt_stdio_output@@V?$standard_base@DV?$string_output_adapter@D@__crt_stdio_output@@@2@@__crt_stdio_output@@AAE_NXZ 10063860 f i libucrtd:output.obj
 0001:000628a0       ?type_case_o@?$output_processor@_WV?$stream_output_adapter@_W@__crt_stdio_output@@V?$format_validation_base@_WV?$stream_output_adapter@_W@__crt_stdio_output@@@2@@__crt_stdio_output@@AAE_NXZ 100638a0 f i libucrtd:output.obj
 0001:000628e0       ?type_case_o@?$output_processor@_WV?$stream_output_adapter@_W@__crt_stdio_output@@V?$positional_parameter_base@_WV?$stream_output_adapter@_W@__crt_stdio_output@@@2@@__crt_stdio_output@@AAE_NXZ 100638e0 f i libucrtd:output.obj
 0001:00062920       ?type_case_o@?$output_processor@_WV?$stream_output_adapter@_W@__crt_stdio_output@@V?$standard_base@_WV?$stream_output_adapter@_W@__crt_stdio_output@@@2@@__crt_stdio_output@@AAE_NXZ 10063920 f i libucrtd:output.obj
 0001:00062960       ?type_case_o@?$output_processor@_WV?$string_output_adapter@_W@__crt_stdio_output@@V?$format_validation_base@_WV?$string_output_adapter@_W@__crt_stdio_output@@@2@@__crt_stdio_output@@AAE_NXZ 10063960 f i libucrtd:output.obj
 0001:000629a0       ?type_case_o@?$output_processor@_WV?$string_output_adapter@_W@__crt_stdio_output@@V?$positional_parameter_base@_WV?$string_output_adapter@_W@__crt_stdio_output@@@2@@__crt_stdio_output@@AAE_NXZ 100639a0 f i libucrtd:output.obj
 0001:000629e0       ?type_case_o@?$output_processor@_WV?$string_output_adapter@_W@__crt_stdio_output@@V?$standard_base@_WV?$string_output_adapter@_W@__crt_stdio_output@@@2@@__crt_stdio_output@@AAE_NXZ 100639e0 f i libucrtd:output.obj
 0001:00062a20       ?type_case_p@?$output_processor@DV?$stream_output_adapter@D@__crt_stdio_output@@V?$format_validation_base@DV?$stream_output_adapter@D@__crt_stdio_output@@@2@@__crt_stdio_output@@AAE_NXZ 10063a20 f i libucrtd:output.obj
 0001:00062a50       ?type_case_p@?$output_processor@DV?$stream_output_adapter@D@__crt_stdio_output@@V?$positional_parameter_base@DV?$stream_output_adapter@D@__crt_stdio_output@@@2@@__crt_stdio_output@@AAE_NXZ 10063a50 f i libucrtd:output.obj
 0001:00062a80       ?type_case_p@?$output_processor@DV?$stream_output_adapter@D@__crt_stdio_output@@V?$standard_base@DV?$stream_output_adapter@D@__crt_stdio_output@@@2@@__crt_stdio_output@@AAE_NXZ 10063a80 f i libucrtd:output.obj
 0001:00062ab0       ?type_case_p@?$output_processor@DV?$string_output_adapter@D@__crt_stdio_output@@V?$format_validation_base@DV?$string_output_adapter@D@__crt_stdio_output@@@2@@__crt_stdio_output@@AAE_NXZ 10063ab0 f i libucrtd:output.obj
 0001:00062ae0       ?type_case_p@?$output_processor@DV?$string_output_adapter@D@__crt_stdio_output@@V?$positional_parameter_base@DV?$string_output_adapter@D@__crt_stdio_output@@@2@@__crt_stdio_output@@AAE_NXZ 10063ae0 f i libucrtd:output.obj
 0001:00062b10       ?type_case_p@?$output_processor@DV?$string_output_adapter@D@__crt_stdio_output@@V?$standard_base@DV?$string_output_adapter@D@__crt_stdio_output@@@2@@__crt_stdio_output@@AAE_NXZ 10063b10 f i libucrtd:output.obj
 0001:00062b40       ?type_case_p@?$output_processor@_WV?$stream_output_adapter@_W@__crt_stdio_output@@V?$format_validation_base@_WV?$stream_output_adapter@_W@__crt_stdio_output@@@2@@__crt_stdio_output@@AAE_NXZ 10063b40 f i libucrtd:output.obj
 0001:00062b70       ?type_case_p@?$output_processor@_WV?$stream_output_adapter@_W@__crt_stdio_output@@V?$positional_parameter_base@_WV?$stream_output_adapter@_W@__crt_stdio_output@@@2@@__crt_stdio_output@@AAE_NXZ 10063b70 f i libucrtd:output.obj
 0001:00062ba0       ?type_case_p@?$output_processor@_WV?$stream_output_adapter@_W@__crt_stdio_output@@V?$standard_base@_WV?$stream_output_adapter@_W@__crt_stdio_output@@@2@@__crt_stdio_output@@AAE_NXZ 10063ba0 f i libucrtd:output.obj
 0001:00062bd0       ?type_case_p@?$output_processor@_WV?$string_output_adapter@_W@__crt_stdio_output@@V?$format_validation_base@_WV?$string_output_adapter@_W@__crt_stdio_output@@@2@@__crt_stdio_output@@AAE_NXZ 10063bd0 f i libucrtd:output.obj
 0001:00062c00       ?type_case_p@?$output_processor@_WV?$string_output_adapter@_W@__crt_stdio_output@@V?$positional_parameter_base@_WV?$string_output_adapter@_W@__crt_stdio_output@@@2@@__crt_stdio_output@@AAE_NXZ 10063c00 f i libucrtd:output.obj
 0001:00062c30       ?type_case_p@?$output_processor@_WV?$string_output_adapter@_W@__crt_stdio_output@@V?$standard_base@_WV?$string_output_adapter@_W@__crt_stdio_output@@@2@@__crt_stdio_output@@AAE_NXZ 10063c30 f i libucrtd:output.obj
 0001:00062c60       ?type_case_s@?$output_processor@DV?$stream_output_adapter@D@__crt_stdio_output@@V?$format_validation_base@DV?$stream_output_adapter@D@__crt_stdio_output@@@2@@__crt_stdio_output@@AAE_NXZ 10063c60 f i libucrtd:output.obj
 0001:00062d50       ?type_case_s@?$output_processor@DV?$stream_output_adapter@D@__crt_stdio_output@@V?$positional_parameter_base@DV?$stream_output_adapter@D@__crt_stdio_output@@@2@@__crt_stdio_output@@AAE_NXZ 10063d50 f i libucrtd:output.obj
 0001:00062e40       ?type_case_s@?$output_processor@DV?$stream_output_adapter@D@__crt_stdio_output@@V?$standard_base@DV?$stream_output_adapter@D@__crt_stdio_output@@@2@@__crt_stdio_output@@AAE_NXZ 10063e40 f i libucrtd:output.obj
 0001:00062f30       ?type_case_s@?$output_processor@DV?$string_output_adapter@D@__crt_stdio_output@@V?$format_validation_base@DV?$string_output_adapter@D@__crt_stdio_output@@@2@@__crt_stdio_output@@AAE_NXZ 10063f30 f i libucrtd:output.obj
 0001:00063020       ?type_case_s@?$output_processor@DV?$string_output_adapter@D@__crt_stdio_output@@V?$positional_parameter_base@DV?$string_output_adapter@D@__crt_stdio_output@@@2@@__crt_stdio_output@@AAE_NXZ 10064020 f i libucrtd:output.obj
 0001:00063110       ?type_case_s@?$output_processor@DV?$string_output_adapter@D@__crt_stdio_output@@V?$standard_base@DV?$string_output_adapter@D@__crt_stdio_output@@@2@@__crt_stdio_output@@AAE_NXZ 10064110 f i libucrtd:output.obj
 0001:00063200       ?type_case_s@?$output_processor@_WV?$stream_output_adapter@_W@__crt_stdio_output@@V?$format_validation_base@_WV?$stream_output_adapter@_W@__crt_stdio_output@@@2@@__crt_stdio_output@@AAE_NXZ 10064200 f i libucrtd:output.obj
 0001:000632f0       ?type_case_s@?$output_processor@_WV?$stream_output_adapter@_W@__crt_stdio_output@@V?$positional_parameter_base@_WV?$stream_output_adapter@_W@__crt_stdio_output@@@2@@__crt_stdio_output@@AAE_NXZ 100642f0 f i libucrtd:output.obj
 0001:000633e0       ?type_case_s@?$output_processor@_WV?$stream_output_adapter@_W@__crt_stdio_output@@V?$standard_base@_WV?$stream_output_adapter@_W@__crt_stdio_output@@@2@@__crt_stdio_output@@AAE_NXZ 100643e0 f i libucrtd:output.obj
 0001:000634d0       ?type_case_s@?$output_processor@_WV?$string_output_adapter@_W@__crt_stdio_output@@V?$format_validation_base@_WV?$string_output_adapter@_W@__crt_stdio_output@@@2@@__crt_stdio_output@@AAE_NXZ 100644d0 f i libucrtd:output.obj
 0001:000635c0       ?type_case_s@?$output_processor@_WV?$string_output_adapter@_W@__crt_stdio_output@@V?$positional_parameter_base@_WV?$string_output_adapter@_W@__crt_stdio_output@@@2@@__crt_stdio_output@@AAE_NXZ 100645c0 f i libucrtd:output.obj
 0001:000636b0       ?type_case_s@?$output_processor@_WV?$string_output_adapter@_W@__crt_stdio_output@@V?$standard_base@_WV?$string_output_adapter@_W@__crt_stdio_output@@@2@@__crt_stdio_output@@AAE_NXZ 100646b0 f i libucrtd:output.obj
 0001:000637a0       ?type_case_s_compute_narrow_string_length@?$output_processor@DV?$stream_output_adapter@D@__crt_stdio_output@@V?$format_validation_base@DV?$stream_output_adapter@D@__crt_stdio_output@@@2@@__crt_stdio_output@@ABEHHD@Z 100647a0 f i libucrtd:output.obj
 0001:000637d0       ?type_case_s_compute_narrow_string_length@?$output_processor@DV?$stream_output_adapter@D@__crt_stdio_output@@V?$positional_parameter_base@DV?$stream_output_adapter@D@__crt_stdio_output@@@2@@__crt_stdio_output@@ABEHHD@Z 100647d0 f i libucrtd:output.obj
 0001:00063800       ?type_case_s_compute_narrow_string_length@?$output_processor@DV?$stream_output_adapter@D@__crt_stdio_output@@V?$standard_base@DV?$stream_output_adapter@D@__crt_stdio_output@@@2@@__crt_stdio_output@@ABEHHD@Z 10064800 f i libucrtd:output.obj
 0001:00063830       ?type_case_s_compute_narrow_string_length@?$output_processor@DV?$string_output_adapter@D@__crt_stdio_output@@V?$format_validation_base@DV?$string_output_adapter@D@__crt_stdio_output@@@2@@__crt_stdio_output@@ABEHHD@Z 10064830 f i libucrtd:output.obj
 0001:00063860       ?type_case_s_compute_narrow_string_length@?$output_processor@DV?$string_output_adapter@D@__crt_stdio_output@@V?$positional_parameter_base@DV?$string_output_adapter@D@__crt_stdio_output@@@2@@__crt_stdio_output@@ABEHHD@Z 10064860 f i libucrtd:output.obj
 0001:00063890       ?type_case_s_compute_narrow_string_length@?$output_processor@DV?$string_output_adapter@D@__crt_stdio_output@@V?$standard_base@DV?$string_output_adapter@D@__crt_stdio_output@@@2@@__crt_stdio_output@@ABEHHD@Z 10064890 f i libucrtd:output.obj
 0001:000638c0       ?type_case_s_compute_narrow_string_length@?$output_processor@_WV?$stream_output_adapter@_W@__crt_stdio_output@@V?$format_validation_base@_WV?$stream_output_adapter@_W@__crt_stdio_output@@@2@@__crt_stdio_output@@ABEHH_W@Z 100648c0 f i libucrtd:output.obj
 0001:00063930       ?type_case_s_compute_narrow_string_length@?$output_processor@_WV?$stream_output_adapter@_W@__crt_stdio_output@@V?$positional_parameter_base@_WV?$stream_output_adapter@_W@__crt_stdio_output@@@2@@__crt_stdio_output@@ABEHH_W@Z 10064930 f i libucrtd:output.obj
 0001:000639a0       ?type_case_s_compute_narrow_string_length@?$output_processor@_WV?$stream_output_adapter@_W@__crt_stdio_output@@V?$standard_base@_WV?$stream_output_adapter@_W@__crt_stdio_output@@@2@@__crt_stdio_output@@ABEHH_W@Z 100649a0 f i libucrtd:output.obj
 0001:00063a10       ?type_case_s_compute_narrow_string_length@?$output_processor@_WV?$string_output_adapter@_W@__crt_stdio_output@@V?$format_validation_base@_WV?$string_output_adapter@_W@__crt_stdio_output@@@2@@__crt_stdio_output@@ABEHH_W@Z 10064a10 f i libucrtd:output.obj
 0001:00063a80       ?type_case_s_compute_narrow_string_length@?$output_processor@_WV?$string_output_adapter@_W@__crt_stdio_output@@V?$positional_parameter_base@_WV?$string_output_adapter@_W@__crt_stdio_output@@@2@@__crt_stdio_output@@ABEHH_W@Z 10064a80 f i libucrtd:output.obj
 0001:00063af0       ?type_case_s_compute_narrow_string_length@?$output_processor@_WV?$string_output_adapter@_W@__crt_stdio_output@@V?$standard_base@_WV?$string_output_adapter@_W@__crt_stdio_output@@@2@@__crt_stdio_output@@ABEHH_W@Z 10064af0 f i libucrtd:output.obj
 0001:00063b60       ?type_case_u@?$output_processor@DV?$stream_output_adapter@D@__crt_stdio_output@@V?$format_validation_base@DV?$stream_output_adapter@D@__crt_stdio_output@@@2@@__crt_stdio_output@@AAE_NXZ 10064b60 f i libucrtd:output.obj
 0001:00063b80       ?type_case_u@?$output_processor@DV?$stream_output_adapter@D@__crt_stdio_output@@V?$positional_parameter_base@DV?$stream_output_adapter@D@__crt_stdio_output@@@2@@__crt_stdio_output@@AAE_NXZ 10064b80 f i libucrtd:output.obj
 0001:00063ba0       ?type_case_u@?$output_processor@DV?$stream_output_adapter@D@__crt_stdio_output@@V?$standard_base@DV?$stream_output_adapter@D@__crt_stdio_output@@@2@@__crt_stdio_output@@AAE_NXZ 10064ba0 f i libucrtd:output.obj
 0001:00063bc0       ?type_case_u@?$output_processor@DV?$string_output_adapter@D@__crt_stdio_output@@V?$format_validation_base@DV?$string_output_adapter@D@__crt_stdio_output@@@2@@__crt_stdio_output@@AAE_NXZ 10064bc0 f i libucrtd:output.obj
 0001:00063be0       ?type_case_u@?$output_processor@DV?$string_output_adapter@D@__crt_stdio_output@@V?$positional_parameter_base@DV?$string_output_adapter@D@__crt_stdio_output@@@2@@__crt_stdio_output@@AAE_NXZ 10064be0 f i libucrtd:output.obj
 0001:00063c00       ?type_case_u@?$output_processor@DV?$string_output_adapter@D@__crt_stdio_output@@V?$standard_base@DV?$string_output_adapter@D@__crt_stdio_output@@@2@@__crt_stdio_output@@AAE_NXZ 10064c00 f i libucrtd:output.obj
 0001:00063c20       ?type_case_u@?$output_processor@_WV?$stream_output_adapter@_W@__crt_stdio_output@@V?$format_validation_base@_WV?$stream_output_adapter@_W@__crt_stdio_output@@@2@@__crt_stdio_output@@AAE_NXZ 10064c20 f i libucrtd:output.obj
 0001:00063c40       ?type_case_u@?$output_processor@_WV?$stream_output_adapter@_W@__crt_stdio_output@@V?$positional_parameter_base@_WV?$stream_output_adapter@_W@__crt_stdio_output@@@2@@__crt_stdio_output@@AAE_NXZ 10064c40 f i libucrtd:output.obj
 0001:00063c60       ?type_case_u@?$output_processor@_WV?$stream_output_adapter@_W@__crt_stdio_output@@V?$standard_base@_WV?$stream_output_adapter@_W@__crt_stdio_output@@@2@@__crt_stdio_output@@AAE_NXZ 10064c60 f i libucrtd:output.obj
 0001:00063c80       ?type_case_u@?$output_processor@_WV?$string_output_adapter@_W@__crt_stdio_output@@V?$format_validation_base@_WV?$string_output_adapter@_W@__crt_stdio_output@@@2@@__crt_stdio_output@@AAE_NXZ 10064c80 f i libucrtd:output.obj
 0001:00063ca0       ?type_case_u@?$output_processor@_WV?$string_output_adapter@_W@__crt_stdio_output@@V?$positional_parameter_base@_WV?$string_output_adapter@_W@__crt_stdio_output@@@2@@__crt_stdio_output@@AAE_NXZ 10064ca0 f i libucrtd:output.obj
 0001:00063cc0       ?type_case_u@?$output_processor@_WV?$string_output_adapter@_W@__crt_stdio_output@@V?$standard_base@_WV?$string_output_adapter@_W@__crt_stdio_output@@@2@@__crt_stdio_output@@AAE_NXZ 10064cc0 f i libucrtd:output.obj
 0001:00063ce0       ?type_case_x@?$output_processor@DV?$stream_output_adapter@D@__crt_stdio_output@@V?$format_validation_base@DV?$stream_output_adapter@D@__crt_stdio_output@@@2@@__crt_stdio_output@@AAE_NXZ 10064ce0 f i libucrtd:output.obj
 0001:00063d00       ?type_case_x@?$output_processor@DV?$stream_output_adapter@D@__crt_stdio_output@@V?$positional_parameter_base@DV?$stream_output_adapter@D@__crt_stdio_output@@@2@@__crt_stdio_output@@AAE_NXZ 10064d00 f i libucrtd:output.obj
 0001:00063d20       ?type_case_x@?$output_processor@DV?$stream_output_adapter@D@__crt_stdio_output@@V?$standard_base@DV?$stream_output_adapter@D@__crt_stdio_output@@@2@@__crt_stdio_output@@AAE_NXZ 10064d20 f i libucrtd:output.obj
 0001:00063d40       ?type_case_x@?$output_processor@DV?$string_output_adapter@D@__crt_stdio_output@@V?$format_validation_base@DV?$string_output_adapter@D@__crt_stdio_output@@@2@@__crt_stdio_output@@AAE_NXZ 10064d40 f i libucrtd:output.obj
 0001:00063d60       ?type_case_x@?$output_processor@DV?$string_output_adapter@D@__crt_stdio_output@@V?$positional_parameter_base@DV?$string_output_adapter@D@__crt_stdio_output@@@2@@__crt_stdio_output@@AAE_NXZ 10064d60 f i libucrtd:output.obj
 0001:00063d80       ?type_case_x@?$output_processor@DV?$string_output_adapter@D@__crt_stdio_output@@V?$standard_base@DV?$string_output_adapter@D@__crt_stdio_output@@@2@@__crt_stdio_output@@AAE_NXZ 10064d80 f i libucrtd:output.obj
 0001:00063da0       ?type_case_x@?$output_processor@_WV?$stream_output_adapter@_W@__crt_stdio_output@@V?$format_validation_base@_WV?$stream_output_adapter@_W@__crt_stdio_output@@@2@@__crt_stdio_output@@AAE_NXZ 10064da0 f i libucrtd:output.obj
 0001:00063dc0       ?type_case_x@?$output_processor@_WV?$stream_output_adapter@_W@__crt_stdio_output@@V?$positional_parameter_base@_WV?$stream_output_adapter@_W@__crt_stdio_output@@@2@@__crt_stdio_output@@AAE_NXZ 10064dc0 f i libucrtd:output.obj
 0001:00063de0       ?type_case_x@?$output_processor@_WV?$stream_output_adapter@_W@__crt_stdio_output@@V?$standard_base@_WV?$stream_output_adapter@_W@__crt_stdio_output@@@2@@__crt_stdio_output@@AAE_NXZ 10064de0 f i libucrtd:output.obj
 0001:00063e00       ?type_case_x@?$output_processor@_WV?$string_output_adapter@_W@__crt_stdio_output@@V?$format_validation_base@_WV?$string_output_adapter@_W@__crt_stdio_output@@@2@@__crt_stdio_output@@AAE_NXZ 10064e00 f i libucrtd:output.obj
 0001:00063e20       ?type_case_x@?$output_processor@_WV?$string_output_adapter@_W@__crt_stdio_output@@V?$positional_parameter_base@_WV?$string_output_adapter@_W@__crt_stdio_output@@@2@@__crt_stdio_output@@AAE_NXZ 10064e20 f i libucrtd:output.obj
 0001:00063e40       ?type_case_x@?$output_processor@_WV?$string_output_adapter@_W@__crt_stdio_output@@V?$standard_base@_WV?$string_output_adapter@_W@__crt_stdio_output@@@2@@__crt_stdio_output@@AAE_NXZ 10064e40 f i libucrtd:output.obj
 0001:00063e60       ?unset_flag@?$output_processor@DV?$stream_output_adapter@D@__crt_stdio_output@@V?$format_validation_base@DV?$stream_output_adapter@D@__crt_stdio_output@@@2@@__crt_stdio_output@@AAEXI@Z 10064e60 f i libucrtd:output.obj
 0001:00063e80       ?unset_flag@?$output_processor@DV?$stream_output_adapter@D@__crt_stdio_output@@V?$positional_parameter_base@DV?$stream_output_adapter@D@__crt_stdio_output@@@2@@__crt_stdio_output@@AAEXI@Z 10064e80 f i libucrtd:output.obj
 0001:00063ea0       ?unset_flag@?$output_processor@DV?$stream_output_adapter@D@__crt_stdio_output@@V?$standard_base@DV?$stream_output_adapter@D@__crt_stdio_output@@@2@@__crt_stdio_output@@AAEXI@Z 10064ea0 f i libucrtd:output.obj
 0001:00063ec0       ?unset_flag@?$output_processor@DV?$string_output_adapter@D@__crt_stdio_output@@V?$format_validation_base@DV?$string_output_adapter@D@__crt_stdio_output@@@2@@__crt_stdio_output@@AAEXI@Z 10064ec0 f i libucrtd:output.obj
 0001:00063ee0       ?unset_flag@?$output_processor@DV?$string_output_adapter@D@__crt_stdio_output@@V?$positional_parameter_base@DV?$string_output_adapter@D@__crt_stdio_output@@@2@@__crt_stdio_output@@AAEXI@Z 10064ee0 f i libucrtd:output.obj
 0001:00063f00       ?unset_flag@?$output_processor@DV?$string_output_adapter@D@__crt_stdio_output@@V?$standard_base@DV?$string_output_adapter@D@__crt_stdio_output@@@2@@__crt_stdio_output@@AAEXI@Z 10064f00 f i libucrtd:output.obj
 0001:00063f20       ?unset_flag@?$output_processor@_WV?$stream_output_adapter@_W@__crt_stdio_output@@V?$format_validation_base@_WV?$stream_output_adapter@_W@__crt_stdio_output@@@2@@__crt_stdio_output@@AAEXI@Z 10064f20 f i libucrtd:output.obj
 0001:00063f40       ?unset_flag@?$output_processor@_WV?$stream_output_adapter@_W@__crt_stdio_output@@V?$positional_parameter_base@_WV?$stream_output_adapter@_W@__crt_stdio_output@@@2@@__crt_stdio_output@@AAEXI@Z 10064f40 f i libucrtd:output.obj
 0001:00063f60       ?unset_flag@?$output_processor@_WV?$stream_output_adapter@_W@__crt_stdio_output@@V?$standard_base@_WV?$stream_output_adapter@_W@__crt_stdio_output@@@2@@__crt_stdio_output@@AAEXI@Z 10064f60 f i libucrtd:output.obj
 0001:00063f80       ?unset_flag@?$output_processor@_WV?$string_output_adapter@_W@__crt_stdio_output@@V?$format_validation_base@_WV?$string_output_adapter@_W@__crt_stdio_output@@@2@@__crt_stdio_output@@AAEXI@Z 10064f80 f i libucrtd:output.obj
 0001:00063fa0       ?unset_flag@?$output_processor@_WV?$string_output_adapter@_W@__crt_stdio_output@@V?$positional_parameter_base@_WV?$string_output_adapter@_W@__crt_stdio_output@@@2@@__crt_stdio_output@@AAEXI@Z 10064fa0 f i libucrtd:output.obj
 0001:00063fc0       ?unset_flag@?$output_processor@_WV?$string_output_adapter@_W@__crt_stdio_output@@V?$standard_base@_WV?$string_output_adapter@_W@__crt_stdio_output@@@2@@__crt_stdio_output@@AAEXI@Z 10064fc0 f i libucrtd:output.obj
 0001:00063fe0       ?update_field_width@?$positional_parameter_base@DV?$stream_output_adapter@D@__crt_stdio_output@@@__crt_stdio_output@@IAE_NXZ 10064fe0 f i libucrtd:output.obj
 0001:00064160       ?update_field_width@?$positional_parameter_base@DV?$string_output_adapter@D@__crt_stdio_output@@@__crt_stdio_output@@IAE_NXZ 10065160 f i libucrtd:output.obj
 0001:000642e0       ?update_field_width@?$positional_parameter_base@_WV?$stream_output_adapter@_W@__crt_stdio_output@@@__crt_stdio_output@@IAE_NXZ 100652e0 f i libucrtd:output.obj
 0001:00064460       ?update_field_width@?$positional_parameter_base@_WV?$string_output_adapter@_W@__crt_stdio_output@@@__crt_stdio_output@@IAE_NXZ 10065460 f i libucrtd:output.obj
 0001:000645e0       ?update_field_width@?$standard_base@DV?$stream_output_adapter@D@__crt_stdio_output@@@__crt_stdio_output@@IAE_NXZ 100655e0 f i libucrtd:output.obj
 0001:00064610       ?update_field_width@?$standard_base@DV?$string_output_adapter@D@__crt_stdio_output@@@__crt_stdio_output@@IAE_NXZ 10065610 f i libucrtd:output.obj
 0001:00064640       ?update_field_width@?$standard_base@_WV?$stream_output_adapter@_W@__crt_stdio_output@@@__crt_stdio_output@@IAE_NXZ 10065640 f i libucrtd:output.obj
 0001:00064670       ?update_field_width@?$standard_base@_WV?$string_output_adapter@_W@__crt_stdio_output@@@__crt_stdio_output@@IAE_NXZ 10065670 f i libucrtd:output.obj
 0001:000646a0       ?update_precision@?$positional_parameter_base@DV?$stream_output_adapter@D@__crt_stdio_output@@@__crt_stdio_output@@IAE_NXZ 100656a0 f i libucrtd:output.obj
 0001:00064820       ?update_precision@?$positional_parameter_base@DV?$string_output_adapter@D@__crt_stdio_output@@@__crt_stdio_output@@IAE_NXZ 10065820 f i libucrtd:output.obj
 0001:000649a0       ?update_precision@?$positional_parameter_base@_WV?$stream_output_adapter@_W@__crt_stdio_output@@@__crt_stdio_output@@IAE_NXZ 100659a0 f i libucrtd:output.obj
 0001:00064b20       ?update_precision@?$positional_parameter_base@_WV?$string_output_adapter@_W@__crt_stdio_output@@@__crt_stdio_output@@IAE_NXZ 10065b20 f i libucrtd:output.obj
 0001:00064ca0       ?update_precision@?$standard_base@DV?$stream_output_adapter@D@__crt_stdio_output@@@__crt_stdio_output@@IAE_NXZ 10065ca0 f i libucrtd:output.obj
 0001:00064cd0       ?update_precision@?$standard_base@DV?$string_output_adapter@D@__crt_stdio_output@@@__crt_stdio_output@@IAE_NXZ 10065cd0 f i libucrtd:output.obj
 0001:00064d00       ?update_precision@?$standard_base@_WV?$stream_output_adapter@_W@__crt_stdio_output@@@__crt_stdio_output@@IAE_NXZ 10065d00 f i libucrtd:output.obj
 0001:00064d30       ?update_precision@?$standard_base@_WV?$string_output_adapter@_W@__crt_stdio_output@@@__crt_stdio_output@@IAE_NXZ 10065d30 f i libucrtd:output.obj
 0001:00064d60       ?valid@__crt_stdio_stream@@QBE_NXZ 10065d60 f i libucrtd:output.obj
 0001:00064d90       ?validate@?$stream_output_adapter@D@__crt_stdio_output@@QBE_NXZ 10065d90 f i libucrtd:output.obj
 0001:00064e40       ?validate@?$stream_output_adapter@_W@__crt_stdio_output@@QBE_NXZ 10065e40 f i libucrtd:output.obj
 0001:00064ef0       ?validate@?$string_output_adapter@D@__crt_stdio_output@@QBE_NXZ 10065ef0 f i libucrtd:output.obj
 0001:00064f80       ?validate@?$string_output_adapter@_W@__crt_stdio_output@@QBE_NXZ 10065f80 f i libucrtd:output.obj
 0001:00065010       ?validate_and_store_parameter_data@?$positional_parameter_base@DV?$stream_output_adapter@D@__crt_stdio_output@@@__crt_stdio_output@@AAE_NAAUparameter_data@12@W4parameter_type@12@DW4length_modifier@2@@Z 10066010 f i libucrtd:output.obj
 0001:000650e0       ?validate_and_store_parameter_data@?$positional_parameter_base@DV?$string_output_adapter@D@__crt_stdio_output@@@__crt_stdio_output@@AAE_NAAUparameter_data@12@W4parameter_type@12@DW4length_modifier@2@@Z 100660e0 f i libucrtd:output.obj
 0001:000651b0       ?validate_and_store_parameter_data@?$positional_parameter_base@_WV?$stream_output_adapter@_W@__crt_stdio_output@@@__crt_stdio_output@@AAE_NAAUparameter_data@12@W4parameter_type@12@_WW4length_modifier@2@@Z 100661b0 f i libucrtd:output.obj
 0001:00065290       ?validate_and_store_parameter_data@?$positional_parameter_base@_WV?$string_output_adapter@_W@__crt_stdio_output@@@__crt_stdio_output@@AAE_NAAUparameter_data@12@W4parameter_type@12@_WW4length_modifier@2@@Z 10066290 f i libucrtd:output.obj
 0001:00065370       ?validate_and_update_state_at_beginning_of_format_character@?$positional_parameter_base@DV?$stream_output_adapter@D@__crt_stdio_output@@@__crt_stdio_output@@IAE_NXZ 10066370 f i libucrtd:output.obj
 0001:00065590       ?validate_and_update_state_at_beginning_of_format_character@?$positional_parameter_base@DV?$string_output_adapter@D@__crt_stdio_output@@@__crt_stdio_output@@IAE_NXZ 10066590 f i libucrtd:output.obj
 0001:000657b0       ?validate_and_update_state_at_beginning_of_format_character@?$positional_parameter_base@_WV?$stream_output_adapter@_W@__crt_stdio_output@@@__crt_stdio_output@@IAE_NXZ 100667b0 f i libucrtd:output.obj
 0001:000659d0       ?validate_and_update_state_at_beginning_of_format_character@?$positional_parameter_base@_WV?$string_output_adapter@_W@__crt_stdio_output@@@__crt_stdio_output@@IAE_NXZ 100669d0 f i libucrtd:output.obj
 0001:00065bf0       ?validate_and_update_state_at_beginning_of_format_character@?$standard_base@DV?$stream_output_adapter@D@__crt_stdio_output@@@__crt_stdio_output@@IAE_NXZ 10066bf0 f i libucrtd:output.obj
 0001:00065c00       ?validate_and_update_state_at_beginning_of_format_character@?$standard_base@DV?$string_output_adapter@D@__crt_stdio_output@@@__crt_stdio_output@@IAE_NXZ 10066c00 f i libucrtd:output.obj
 0001:00065c10       ?validate_and_update_state_at_beginning_of_format_character@?$standard_base@_WV?$stream_output_adapter@_W@__crt_stdio_output@@@__crt_stdio_output@@IAE_NXZ 10066c10 f i libucrtd:output.obj
 0001:00065c20       ?validate_and_update_state_at_beginning_of_format_character@?$standard_base@_WV?$string_output_adapter@_W@__crt_stdio_output@@@__crt_stdio_output@@IAE_NXZ 10066c20 f i libucrtd:output.obj
 0001:00065c30       ?validate_and_update_state_at_end_of_format_string@?$format_validation_base@DV?$stream_output_adapter@D@__crt_stdio_output@@@__crt_stdio_output@@IBE_NXZ 10066c30 f i libucrtd:output.obj
 0001:00065cd0       ?validate_and_update_state_at_end_of_format_string@?$format_validation_base@DV?$string_output_adapter@D@__crt_stdio_output@@@__crt_stdio_output@@IBE_NXZ 10066cd0 f i libucrtd:output.obj
 0001:00065d70       ?validate_and_update_state_at_end_of_format_string@?$format_validation_base@_WV?$stream_output_adapter@_W@__crt_stdio_output@@@__crt_stdio_output@@IBE_NXZ 10066d70 f i libucrtd:output.obj
 0001:00065e10       ?validate_and_update_state_at_end_of_format_string@?$format_validation_base@_WV?$string_output_adapter@_W@__crt_stdio_output@@@__crt_stdio_output@@IBE_NXZ 10066e10 f i libucrtd:output.obj
 0001:00065eb0       ?validate_and_update_state_at_end_of_format_string@?$positional_parameter_base@DV?$stream_output_adapter@D@__crt_stdio_output@@@__crt_stdio_output@@IAE_NXZ 10066eb0 f i libucrtd:output.obj
 0001:00066050       ?validate_and_update_state_at_end_of_format_string@?$positional_parameter_base@DV?$string_output_adapter@D@__crt_stdio_output@@@__crt_stdio_output@@IAE_NXZ 10067050 f i libucrtd:output.obj
 0001:000661f0       ?validate_and_update_state_at_end_of_format_string@?$positional_parameter_base@_WV?$stream_output_adapter@_W@__crt_stdio_output@@@__crt_stdio_output@@IAE_NXZ 100671f0 f i libucrtd:output.obj
 0001:00066390       ?validate_and_update_state_at_end_of_format_string@?$positional_parameter_base@_WV?$string_output_adapter@_W@__crt_stdio_output@@@__crt_stdio_output@@IAE_NXZ 10067390 f i libucrtd:output.obj
 0001:00066530       ?validate_and_update_state_at_end_of_format_string@?$standard_base@DV?$stream_output_adapter@D@__crt_stdio_output@@@__crt_stdio_output@@IBE_NXZ 10067530 f i libucrtd:output.obj
 0001:00066540       ?validate_and_update_state_at_end_of_format_string@?$standard_base@DV?$string_output_adapter@D@__crt_stdio_output@@@__crt_stdio_output@@IBE_NXZ 10067540 f i libucrtd:output.obj
 0001:00066550       ?validate_and_update_state_at_end_of_format_string@?$standard_base@_WV?$stream_output_adapter@_W@__crt_stdio_output@@@__crt_stdio_output@@IBE_NXZ 10067550 f i libucrtd:output.obj
 0001:00066560       ?validate_and_update_state_at_end_of_format_string@?$standard_base@_WV?$string_output_adapter@_W@__crt_stdio_output@@@__crt_stdio_output@@IBE_NXZ 10067560 f i libucrtd:output.obj
 0001:00066570       ?validate_state_for_type_case_a@?$positional_parameter_base@DV?$stream_output_adapter@D@__crt_stdio_output@@@__crt_stdio_output@@IAE_NXZ 10067570 f i libucrtd:output.obj
 0001:00066660       ?validate_state_for_type_case_a@?$positional_parameter_base@DV?$string_output_adapter@D@__crt_stdio_output@@@__crt_stdio_output@@IAE_NXZ 10067660 f i libucrtd:output.obj
 0001:00066750       ?validate_state_for_type_case_a@?$positional_parameter_base@_WV?$stream_output_adapter@_W@__crt_stdio_output@@@__crt_stdio_output@@IAE_NXZ 10067750 f i libucrtd:output.obj
 0001:00066840       ?validate_state_for_type_case_a@?$positional_parameter_base@_WV?$string_output_adapter@_W@__crt_stdio_output@@@__crt_stdio_output@@IAE_NXZ 10067840 f i libucrtd:output.obj
 0001:00066930       ?validate_state_for_type_case_a@?$standard_base@DV?$stream_output_adapter@D@__crt_stdio_output@@@__crt_stdio_output@@IBE_NXZ 10067930 f i libucrtd:output.obj
 0001:00066940       ?validate_state_for_type_case_a@?$standard_base@DV?$string_output_adapter@D@__crt_stdio_output@@@__crt_stdio_output@@IBE_NXZ 10067940 f i libucrtd:output.obj
 0001:00066950       ?validate_state_for_type_case_a@?$standard_base@_WV?$stream_output_adapter@_W@__crt_stdio_output@@@__crt_stdio_output@@IBE_NXZ 10067950 f i libucrtd:output.obj
 0001:00066960       ?validate_state_for_type_case_a@?$standard_base@_WV?$string_output_adapter@_W@__crt_stdio_output@@@__crt_stdio_output@@IBE_NXZ 10067960 f i libucrtd:output.obj
 0001:00066970       ?validate_stream_is_ansi_if_required@?$__acrt_stdio_char_traits@D@@SA_NQAU_iobuf@@@Z 10067970 f i libucrtd:output.obj
 0001:00066aa0       ?validate_stream_is_ansi_if_required@?$__acrt_stdio_char_traits@_W@@SA_NQAU_iobuf@@@Z 10067aa0 f i libucrtd:output.obj
 0001:00066ab0       ?wide_null_string@?$output_processor@DV?$stream_output_adapter@D@__crt_stdio_output@@V?$format_validation_base@DV?$stream_output_adapter@D@__crt_stdio_output@@@2@@__crt_stdio_output@@CAPA_WXZ 10067ab0 f i libucrtd:output.obj
 0001:00066ac0       ?wide_null_string@?$output_processor@DV?$stream_output_adapter@D@__crt_stdio_output@@V?$positional_parameter_base@DV?$stream_output_adapter@D@__crt_stdio_output@@@2@@__crt_stdio_output@@CAPA_WXZ 10067ac0 f i libucrtd:output.obj
 0001:00066ad0       ?wide_null_string@?$output_processor@DV?$stream_output_adapter@D@__crt_stdio_output@@V?$standard_base@DV?$stream_output_adapter@D@__crt_stdio_output@@@2@@__crt_stdio_output@@CAPA_WXZ 10067ad0 f i libucrtd:output.obj
 0001:00066ae0       ?wide_null_string@?$output_processor@DV?$string_output_adapter@D@__crt_stdio_output@@V?$format_validation_base@DV?$string_output_adapter@D@__crt_stdio_output@@@2@@__crt_stdio_output@@CAPA_WXZ 10067ae0 f i libucrtd:output.obj
 0001:00066af0       ?wide_null_string@?$output_processor@DV?$string_output_adapter@D@__crt_stdio_output@@V?$positional_parameter_base@DV?$string_output_adapter@D@__crt_stdio_output@@@2@@__crt_stdio_output@@CAPA_WXZ 10067af0 f i libucrtd:output.obj
 0001:00066b00       ?wide_null_string@?$output_processor@DV?$string_output_adapter@D@__crt_stdio_output@@V?$standard_base@DV?$string_output_adapter@D@__crt_stdio_output@@@2@@__crt_stdio_output@@CAPA_WXZ 10067b00 f i libucrtd:output.obj
 0001:00066b10       ?wide_null_string@?$output_processor@_WV?$stream_output_adapter@_W@__crt_stdio_output@@V?$format_validation_base@_WV?$stream_output_adapter@_W@__crt_stdio_output@@@2@@__crt_stdio_output@@CAPA_WXZ 10067b10 f i libucrtd:output.obj
 0001:00066b20       ?wide_null_string@?$output_processor@_WV?$stream_output_adapter@_W@__crt_stdio_output@@V?$positional_parameter_base@_WV?$stream_output_adapter@_W@__crt_stdio_output@@@2@@__crt_stdio_output@@CAPA_WXZ 10067b20 f i libucrtd:output.obj
 0001:00066b30       ?wide_null_string@?$output_processor@_WV?$stream_output_adapter@_W@__crt_stdio_output@@V?$standard_base@_WV?$stream_output_adapter@_W@__crt_stdio_output@@@2@@__crt_stdio_output@@CAPA_WXZ 10067b30 f i libucrtd:output.obj
 0001:00066b40       ?wide_null_string@?$output_processor@_WV?$string_output_adapter@_W@__crt_stdio_output@@V?$format_validation_base@_WV?$string_output_adapter@_W@__crt_stdio_output@@@2@@__crt_stdio_output@@CAPA_WXZ 10067b40 f i libucrtd:output.obj
 0001:00066b50       ?wide_null_string@?$output_processor@_WV?$string_output_adapter@_W@__crt_stdio_output@@V?$positional_parameter_base@_WV?$string_output_adapter@_W@__crt_stdio_output@@@2@@__crt_stdio_output@@CAPA_WXZ 10067b50 f i libucrtd:output.obj
 0001:00066b60       ?wide_null_string@?$output_processor@_WV?$string_output_adapter@_W@__crt_stdio_output@@V?$standard_base@_WV?$string_output_adapter@_W@__crt_stdio_output@@@2@@__crt_stdio_output@@CAPA_WXZ 10067b60 f i libucrtd:output.obj
 0001:00066b70       ?write_character@?$output_adapter_common@DV?$stream_output_adapter@D@__crt_stdio_output@@@__crt_stdio_output@@QBEXDQAH@Z 10067b70 f i libucrtd:output.obj
 0001:00066bb0       ?write_character@?$output_adapter_common@_WV?$stream_output_adapter@_W@__crt_stdio_output@@@__crt_stdio_output@@QBEX_WQAH@Z 10067bb0 f i libucrtd:output.obj
 0001:00066bf0       ?write_character@?$string_output_adapter@D@__crt_stdio_output@@QBE_NDQAH@Z 10067bf0 f i libucrtd:output.obj
 0001:00066c80       ?write_character@?$string_output_adapter@_W@__crt_stdio_output@@QBE_N_WQAH@Z 10067c80 f i libucrtd:output.obj
 0001:00066d20       ?write_character_without_count_update@?$stream_output_adapter@D@__crt_stdio_output@@QBE_ND@Z 10067d20 f i libucrtd:output.obj
 0001:00066d90       ?write_character_without_count_update@?$stream_output_adapter@_W@__crt_stdio_output@@QBE_N_W@Z 10067d90 f i libucrtd:output.obj
 0001:00066e00       ?write_stored_string_tchar@?$output_processor@DV?$stream_output_adapter@D@__crt_stdio_output@@V?$format_validation_base@DV?$stream_output_adapter@D@__crt_stdio_output@@@2@@__crt_stdio_output@@AAE_ND@Z 10067e00 f i libucrtd:output.obj
 0001:00066f10       ?write_stored_string_tchar@?$output_processor@DV?$stream_output_adapter@D@__crt_stdio_output@@V?$positional_parameter_base@DV?$stream_output_adapter@D@__crt_stdio_output@@@2@@__crt_stdio_output@@AAE_ND@Z 10067f10 f i libucrtd:output.obj
 0001:00067020       ?write_stored_string_tchar@?$output_processor@DV?$stream_output_adapter@D@__crt_stdio_output@@V?$standard_base@DV?$stream_output_adapter@D@__crt_stdio_output@@@2@@__crt_stdio_output@@AAE_ND@Z 10068020 f i libucrtd:output.obj
 0001:00067130       ?write_stored_string_tchar@?$output_processor@DV?$string_output_adapter@D@__crt_stdio_output@@V?$format_validation_base@DV?$string_output_adapter@D@__crt_stdio_output@@@2@@__crt_stdio_output@@AAE_ND@Z 10068130 f i libucrtd:output.obj
 0001:00067240       ?write_stored_string_tchar@?$output_processor@DV?$string_output_adapter@D@__crt_stdio_output@@V?$positional_parameter_base@DV?$string_output_adapter@D@__crt_stdio_output@@@2@@__crt_stdio_output@@AAE_ND@Z 10068240 f i libucrtd:output.obj
 0001:00067350       ?write_stored_string_tchar@?$output_processor@DV?$string_output_adapter@D@__crt_stdio_output@@V?$standard_base@DV?$string_output_adapter@D@__crt_stdio_output@@@2@@__crt_stdio_output@@AAE_ND@Z 10068350 f i libucrtd:output.obj
 0001:00067460       ?write_stored_string_tchar@?$output_processor@_WV?$stream_output_adapter@_W@__crt_stdio_output@@V?$format_validation_base@_WV?$stream_output_adapter@_W@__crt_stdio_output@@@2@@__crt_stdio_output@@AAE_N_W@Z 10068460 f i libucrtd:output.obj
 0001:00067550       ?write_stored_string_tchar@?$output_processor@_WV?$stream_output_adapter@_W@__crt_stdio_output@@V?$positional_parameter_base@_WV?$stream_output_adapter@_W@__crt_stdio_output@@@2@@__crt_stdio_output@@AAE_N_W@Z 10068550 f i libucrtd:output.obj
 0001:00067640       ?write_stored_string_tchar@?$output_processor@_WV?$stream_output_adapter@_W@__crt_stdio_output@@V?$standard_base@_WV?$stream_output_adapter@_W@__crt_stdio_output@@@2@@__crt_stdio_output@@AAE_N_W@Z 10068640 f i libucrtd:output.obj
 0001:00067730       ?write_stored_string_tchar@?$output_processor@_WV?$string_output_adapter@_W@__crt_stdio_output@@V?$format_validation_base@_WV?$string_output_adapter@_W@__crt_stdio_output@@@2@@__crt_stdio_output@@AAE_N_W@Z 10068730 f i libucrtd:output.obj
 0001:00067820       ?write_stored_string_tchar@?$output_processor@_WV?$string_output_adapter@_W@__crt_stdio_output@@V?$positional_parameter_base@_WV?$string_output_adapter@_W@__crt_stdio_output@@@2@@__crt_stdio_output@@AAE_N_W@Z 10068820 f i libucrtd:output.obj
 0001:00067910       ?write_stored_string_tchar@?$output_processor@_WV?$string_output_adapter@_W@__crt_stdio_output@@V?$standard_base@_WV?$string_output_adapter@_W@__crt_stdio_output@@@2@@__crt_stdio_output@@AAE_N_W@Z 10068910 f i libucrtd:output.obj
 0001:00067a00       ?write_string@?$stream_output_adapter@D@__crt_stdio_output@@QBEXQBDHQAHAAV__crt_deferred_errno_cache@@@Z 10068a00 f i libucrtd:output.obj
 0001:00067a60       ?write_string@?$stream_output_adapter@_W@__crt_stdio_output@@QBEXQB_WHQAHAAV__crt_deferred_errno_cache@@@Z 10068a60 f i libucrtd:output.obj
 0001:00067ac0       ?write_string@?$string_output_adapter@D@__crt_stdio_output@@QBEXQBDHQAHAAV__crt_deferred_errno_cache@@@Z 10068ac0 f i libucrtd:output.obj
 0001:00067bc0       ?write_string@?$string_output_adapter@_W@__crt_stdio_output@@QBEXQB_WHQAHAAV__crt_deferred_errno_cache@@@Z 10068bc0 f i libucrtd:output.obj
 0001:00067cd0       ?write_string_impl@?$output_adapter_common@DV?$stream_output_adapter@D@__crt_stdio_output@@@__crt_stdio_output@@IBEXQBDHQAHAAV__crt_deferred_errno_cache@@@Z 10068cd0 f i libucrtd:output.obj
 0001:00067d70       ?write_string_impl@?$output_adapter_common@_WV?$stream_output_adapter@_W@__crt_stdio_output@@@__crt_stdio_output@@IBEXQB_WHQAHAAV__crt_deferred_errno_cache@@@Z 10068d70 f i libucrtd:output.obj
 0001:00067e10       ___acrt_isleadbyte_l_noupdate 10068e10 f i libucrtd:output.obj
 0001:00067e30       ___acrt_locale_changed     10068e30 f i libucrtd:output.obj
 0001:00067e60       ___acrt_locale_get_ctype_array_value 10068e60 f i libucrtd:output.obj
 0001:00067e90       ___stdio_common_vfprintf   10068e90 f   libucrtd:output.obj
 0001:00067ec0       ___stdio_common_vfprintf_p 10068ec0 f   libucrtd:output.obj
 0001:00067ef0       ___stdio_common_vfprintf_s 10068ef0 f   libucrtd:output.obj
 0001:00067f20       ___stdio_common_vfwprintf  10068f20 f   libucrtd:output.obj
 0001:00067f50       ___stdio_common_vfwprintf_p 10068f50 f   libucrtd:output.obj
 0001:00067f80       ___stdio_common_vfwprintf_s 10068f80 f   libucrtd:output.obj
 0001:00067fb0       ___stdio_common_vsnprintf_s 10068fb0 f   libucrtd:output.obj
 0001:00067fe0       ___stdio_common_vsnwprintf_s 10068fe0 f   libucrtd:output.obj
 0001:00068010       ___stdio_common_vsprintf   10069010 f   libucrtd:output.obj
 0001:00068040       ___stdio_common_vsprintf_p 10069040 f   libucrtd:output.obj
 0001:00068070       ___stdio_common_vsprintf_s 10069070 f   libucrtd:output.obj
 0001:000680a0       ___stdio_common_vswprintf  100690a0 f   libucrtd:output.obj
 0001:000680d0       ___stdio_common_vswprintf_p 100690d0 f   libucrtd:output.obj
 0001:00068100       ___stdio_common_vswprintf_s 10069100 f   libucrtd:output.obj
 0001:00068130       __ctype_fast_check_internal 10069130 f i libucrtd:output.obj
 0001:00068150       __isdigit_fast_internal    10069150 f i libucrtd:output.obj
 0001:00068170       __tolower_fast_internal    10069170 f i libucrtd:output.obj
 0001:00068190       _free                      10069190 f   libucrtd:free.obj
 0001:000681c0       _malloc                    100691c0 f   libucrtd:malloc.obj
 0001:000681e0       ??$?RU?$__crt_report_hook_node@D@@@__crt_internal_free_policy@@QBEXQBU?$__crt_report_hook_node@D@@@Z 100691e0 f i libucrtd:dbgrpt.obj
 0001:00068200       ??$?RU?$__crt_report_hook_node@_W@@@__crt_internal_free_policy@@QBEXQBU?$__crt_report_hook_node@_W@@@Z 10069200 f i libucrtd:dbgrpt.obj
 0001:00068ff0       ??$get_module_file_name@AAPAUHINSTANCE__@@AAY0BAF@DK@?$__crt_char_traits@D@@SAKAAPAUHINSTANCE__@@AAY0BAF@D$$QAK@Z 10069ff0 f i libucrtd:dbgrpt.obj
 0001:00069010       ??$get_module_file_name@AAPAUHINSTANCE__@@AAY0BAF@_WK@?$__crt_char_traits@_W@@SAKAAPAUHINSTANCE__@@AAY0BAF@_W$$QAK@Z 1006a010 f i libucrtd:dbgrpt.obj
 0001:00069030       ??$tcscpy_s@AAY0BAF@DIPBD@?$__crt_char_traits@D@@SAHAAY0BAF@D$$QAI$$QAPBD@Z 1006a030 f i libucrtd:dbgrpt.obj
 0001:00069050       ??$tcscpy_s@AAY0BAF@_WIPB_W@?$__crt_char_traits@_W@@SAHAAY0BAF@_W$$QAI$$QAPB_W@Z 1006a050 f i libucrtd:dbgrpt.obj
 0001:00069070       ??$tcslen@AAY0BAF@D@?$__crt_char_traits@D@@SAIAAY0BAF@D@Z 1006a070 f i libucrtd:dbgrpt.obj
 0001:00069090       ??$tcslen@AAY0BAF@_W@?$__crt_char_traits@_W@@SAIAAY0BAF@_W@Z 1006a090 f i libucrtd:dbgrpt.obj
 0001:000690b0       ??$tcslen@ABQBD@?$__crt_char_traits@D@@SAIABQBD@Z 1006a0b0 f i libucrtd:dbgrpt.obj
 0001:000690d0       ??$tcslen@ABQB_W@?$__crt_char_traits@_W@@SAIABQB_W@Z 1006a0d0 f i libucrtd:dbgrpt.obj
 0001:000691d0       ??0?$__crt_unique_heap_ptr@U?$__crt_report_hook_node@D@@U__crt_internal_free_policy@@@@QAE@QAU?$__crt_report_hook_node@D@@@Z 1006a1d0 f i libucrtd:dbgrpt.obj
 0001:000691f0       ??0?$__crt_unique_heap_ptr@U?$__crt_report_hook_node@_W@@U__crt_internal_free_policy@@@@QAE@QAU?$__crt_report_hook_node@_W@@@Z 1006a1f0 f i libucrtd:dbgrpt.obj
 0001:00069210       ??1?$__crt_unique_heap_ptr@U?$__crt_report_hook_node@D@@U__crt_internal_free_policy@@@@QAE@XZ 1006a210 f i libucrtd:dbgrpt.obj
 0001:00069230       ??1?$__crt_unique_heap_ptr@U?$__crt_report_hook_node@_W@@U__crt_internal_free_policy@@@@QAE@XZ 1006a230 f i libucrtd:dbgrpt.obj
 0001:00069250       ??B?$__crt_unique_heap_ptr@U?$__crt_report_hook_node@D@@U__crt_internal_free_policy@@@@QBE_NXZ 1006a250 f i libucrtd:dbgrpt.obj
 0001:00069270       ??B?$__crt_unique_heap_ptr@U?$__crt_report_hook_node@_W@@U__crt_internal_free_policy@@@@QBE_NXZ 1006a270 f i libucrtd:dbgrpt.obj
 0001:000697b0       ?detach@?$__crt_unique_heap_ptr@U?$__crt_report_hook_node@D@@U__crt_internal_free_policy@@@@QAEPAU?$__crt_report_hook_node@D@@XZ 1006a7b0 f i libucrtd:dbgrpt.obj
 0001:000697e0       ?detach@?$__crt_unique_heap_ptr@U?$__crt_report_hook_node@_W@@U__crt_internal_free_policy@@@@QAEPAU?$__crt_report_hook_node@_W@@XZ 1006a7e0 f i libucrtd:dbgrpt.obj
 0001:00069810       ?get@?$__crt_unique_heap_ptr@U?$__crt_report_hook_node@D@@U__crt_internal_free_policy@@@@QBEPAU?$__crt_report_hook_node@D@@XZ 1006a810 f i libucrtd:dbgrpt.obj
 0001:00069830       ?get@?$__crt_unique_heap_ptr@U?$__crt_report_hook_node@_W@@U__crt_internal_free_policy@@@@QBEPAU?$__crt_report_hook_node@_W@@XZ 1006a830 f i libucrtd:dbgrpt.obj
 0001:000698b0       ?is_valid@?$__crt_unique_heap_ptr@U?$__crt_report_hook_node@D@@U__crt_internal_free_policy@@@@QBE_NXZ 1006a8b0 f i libucrtd:dbgrpt.obj
 0001:000698e0       ?is_valid@?$__crt_unique_heap_ptr@U?$__crt_report_hook_node@_W@@U__crt_internal_free_policy@@@@QBE_NXZ 1006a8e0 f i libucrtd:dbgrpt.obj
 0001:00069910       ?release@?$__crt_unique_heap_ptr@U?$__crt_report_hook_node@D@@U__crt_internal_free_policy@@@@QAEXXZ 1006a910 f i libucrtd:dbgrpt.obj
 0001:00069940       ?release@?$__crt_unique_heap_ptr@U?$__crt_report_hook_node@_W@@U__crt_internal_free_policy@@@@QAEXXZ 1006a940 f i libucrtd:dbgrpt.obj
 0001:00069970       __CrtDbgReport             1006a970 f   libucrtd:dbgrpt.obj
 0001:000699c0       __CrtDbgReportW            1006a9c0 f   libucrtd:dbgrpt.obj
 0001:00069a10       __CrtSetReportHook2        1006aa10 f   libucrtd:dbgrpt.obj
 0001:00069a30       __CrtSetReportHookW2       1006aa30 f   libucrtd:dbgrpt.obj
 0001:00069a50       ___acrt_MessageWindowA     1006aa50 f   libucrtd:dbgrpt.obj
 0001:00069a80       ___acrt_MessageWindowW     1006aa80 f   libucrtd:dbgrpt.obj
 0001:00069ab0       __invoke_watson_if_error   1006aab0 f i libucrtd:dbgrpt.obj
 0001:00069ae0       __invoke_watson_if_oneof   1006aae0 f i libucrtd:dbgrpt.obj
 0001:00069b20       __snwprintf_s              1006ab20 f i libucrtd:dbgrpt.obj
 0001:00069b60       __vsnwprintf_s_l           1006ab60 f i libucrtd:dbgrpt.obj
 0001:00069ee0       _wcscpy_s                  1006aee0 f   libucrtd:wcscpy_s.obj
 0001:0006ac00       ??1?$__crt_simd_cleanup_guard@$00@@QAE@XZ 1006bc00 f i libucrtd:strnlen.obj
 0001:0006ac10       ??1?$__crt_simd_cleanup_guard@$0A@@@QAE@XZ 1006bc10 f i libucrtd:strnlen.obj
 0001:0006ac20       ?compare_equals@?$__crt_simd_traits@$00E@@SA?AT__m256i@@T2@0@Z 1006bc20 f i libucrtd:strnlen.obj
 0001:0006ac60       ?compare_equals@?$__crt_simd_traits@$00G@@SA?AT__m256i@@T2@0@Z 1006bc60 f i libucrtd:strnlen.obj
 0001:0006aca0       ?compare_equals@?$__crt_simd_traits@$0A@E@@SA?AT__m128i@@T2@0@Z 1006bca0 f i libucrtd:strnlen.obj
 0001:0006ace0       ?compare_equals@?$__crt_simd_traits@$0A@G@@SA?AT__m128i@@T2@0@Z 1006bce0 f i libucrtd:strnlen.obj
 0001:0006ad20       ?compute_byte_mask@?$__crt_simd_pack_traits@$00@@SAHT__m256i@@@Z 1006bd20 f i libucrtd:strnlen.obj
 0001:0006ad50       ?compute_byte_mask@?$__crt_simd_pack_traits@$0A@@@SAHT__m128i@@@Z 1006bd50 f i libucrtd:strnlen.obj
 0001:0006ad80       ?get_zero_pack@?$__crt_simd_pack_traits@$00@@SA?AT__m256i@@XZ 1006bd80 f i libucrtd:strnlen.obj
 0001:0006adb0       ?get_zero_pack@?$__crt_simd_pack_traits@$0A@@@SA?AT__m128i@@XZ 1006bdb0 f i libucrtd:strnlen.obj
 0001:0006ade0       _strnlen                   1006bde0 f   libucrtd:strnlen.obj
 0001:0006ae00       _wcslen                    1006be00 f   libucrtd:strnlen.obj
 0001:0006ae20       _wcsnlen                   1006be20 f   libucrtd:strnlen.obj
 0001:0006ae40       ??$__crt_fast_decode_pointer@P6AXPB_W00II@Z@@YAP6AXPB_W00II@ZQ6AX000II@Z@Z 1006be40 f i libucrtd:invalid_parameter.obj
 0001:0006ae70       ??$__crt_fast_encode_pointer@P6AXPB_W00II@Z@@YAP6AXPB_W00II@ZQ6AX000II@Z@Z 1006be70 f i libucrtd:invalid_parameter.obj
 0001:0006aea0       ??$initialize_from_array@$$BY00Q6AXPB_W00II@Z@?$dual_state_global@P6AXPB_W00II@Z@__crt_state_management@@QAAXAAY00Q6AXPB_W00II@Z@Z 1006bea0 f i libucrtd:invalid_parameter.obj
 0001:0006aef0       ?__crt_rotate_pointer_value@@YAIIH@Z 1006bef0 f i libucrtd:invalid_parameter.obj
 0001:0006af00       ?dangerous_get_state_array@?$dual_state_global@P6AXPB_W00II@Z@__crt_state_management@@QAEPAP6AXPB_W00II@ZXZ 1006bf00 f i libucrtd:invalid_parameter.obj
 0001:0006af10       ?get_current_state_index@__crt_state_management@@YAIXZ 1006bf10 f i libucrtd:invalid_parameter.obj
 0001:0006af20       ?value@?$dual_state_global@P6AXPB_W00II@Z@__crt_state_management@@QAEAAP6AXPB_W00II@ZXZ 1006bf20 f i libucrtd:invalid_parameter.obj
 0001:0006af40       ___acrt_call_reportfault   1006bf40 f   libucrtd:invalid_parameter.obj
 0001:0006b0a0       ___acrt_initialize_invalid_parameter_handler 1006c0a0 f   libucrtd:invalid_parameter.obj
 0001:0006b0d0       __get_invalid_parameter_handler 1006c0d0 f   libucrtd:invalid_parameter.obj
 0001:0006b0f0       __get_thread_local_invalid_parameter_handler 1006c0f0 f   libucrtd:invalid_parameter.obj
 0001:0006b120       __invalid_parameter        1006c120 f   libucrtd:invalid_parameter.obj
 0001:0006b1e0       __invalid_parameter_noinfo 1006c1e0 f   libucrtd:invalid_parameter.obj
 0001:0006b200       __invalid_parameter_noinfo_noreturn 1006c200 f   libucrtd:invalid_parameter.obj
 0001:0006b230       __invoke_watson            1006c230 f   libucrtd:invalid_parameter.obj
 0001:0006b270       __set_invalid_parameter_handler 1006c270 f   libucrtd:invalid_parameter.obj
 0001:0006b2c0       __set_thread_local_invalid_parameter_handler 1006c2c0 f   libucrtd:invalid_parameter.obj
 0001:0006b2f0       ___acrt_errno_from_os_error 1006c2f0 f   libucrtd:errno.obj
 0001:0006b370       ___acrt_errno_map_os_error 1006c370 f   libucrtd:errno.obj
 0001:0006b3a0       ___doserrno                1006c3a0 f   libucrtd:errno.obj
 0001:0006b3d0       __errno                    1006c3d0 f   libucrtd:errno.obj
 0001:0006b400       __get_doserrno             1006c400 f   libucrtd:errno.obj
 0001:0006b490       __get_errno                1006c490 f   libucrtd:errno.obj
 0001:0006b520       __set_doserrno             1006c520 f   libucrtd:errno.obj
 0001:0006b550       __set_errno                1006c550 f   libucrtd:errno.obj
 0001:0006b580       _calloc                    1006c580 f   libucrtd:calloc.obj
 0001:0006b5a0       __recalloc                 1006c5a0 f   libucrtd:recalloc.obj
 0001:0006b5d0       __recalloc_base            1006c5d0 f   libucrtd:recalloc.obj
 0001:0006b66a       __resetstkoflw             1006c66a f   libucrtd:resetstk.obj
 0001:0006bb50       _wcscat_s                  1006cb50 f   libucrtd:wcscat_s.obj
 0001:0006bfa0       _wcsncpy_s                 1006cfa0 f   libucrtd:wcsncpy_s.obj
 0001:0006bfe0       ___acrt_get_locale_data_prefix 1006cfe0 f i libucrtd:_ctype.obj
 0001:0006c000       ___isascii                 1006d000 f i libucrtd:_ctype.obj
 0001:0006c030       ___iscsym                  1006d030 f i libucrtd:_ctype.obj
 0001:0006c070       ___iscsymf                 1006d070 f i libucrtd:_ctype.obj
 0001:0006c0b0       ___toascii                 1006d0b0 f i libucrtd:_ctype.obj
 0001:0006c0c0       __chvalidchk_l             1006d0c0 f i libucrtd:_ctype.obj
 0001:0006c0e0       __isalnum_l                1006d0e0 f i libucrtd:_ctype.obj
 0001:0006c120       __isalpha_l                1006d120 f i libucrtd:_ctype.obj
 0001:0006c160       __isblank_l                1006d160 f i libucrtd:_ctype.obj
 0001:0006c1c0       __ischartype_l             1006d1c0 f i libucrtd:_ctype.obj
 0001:0006c240       __iscntrl_l                1006d240 f i libucrtd:_ctype.obj
 0001:0006c280       __iscsym_l                 1006d280 f i libucrtd:_ctype.obj
 0001:0006c2c0       __iscsymf_l                1006d2c0 f i libucrtd:_ctype.obj
 0001:0006c300       __isdigit_l                1006d300 f i libucrtd:_ctype.obj
 0001:0006c340       __isgraph_l                1006d340 f i libucrtd:_ctype.obj
 0001:0006c380       __islower_l                1006d380 f i libucrtd:_ctype.obj
 0001:0006c3c0       __isprint_l                1006d3c0 f i libucrtd:_ctype.obj
 0001:0006c400       __ispunct_l                1006d400 f i libucrtd:_ctype.obj
 0001:0006c440       __isspace_l                1006d440 f i libucrtd:_ctype.obj
 0001:0006c480       __isupper_l                1006d480 f i libucrtd:_ctype.obj
 0001:0006c4c0       __isxdigit_l               1006d4c0 f i libucrtd:_ctype.obj
 0001:0006c500       _isalnum                   1006d500 f i libucrtd:_ctype.obj
 0001:0006c540       _isalpha                   1006d540 f i libucrtd:_ctype.obj
 0001:0006c580       _isblank                   1006d580 f i libucrtd:_ctype.obj
 0001:0006c5e0       _iscntrl                   1006d5e0 f i libucrtd:_ctype.obj
 0001:0006c620       _isdigit                   1006d620 f i libucrtd:_ctype.obj
 0001:0006c660       _isgraph                   1006d660 f i libucrtd:_ctype.obj
 0001:0006c6a0       _islower                   1006d6a0 f i libucrtd:_ctype.obj
 0001:0006c6e0       _isprint                   1006d6e0 f i libucrtd:_ctype.obj
 0001:0006c720       _ispunct                   1006d720 f i libucrtd:_ctype.obj
 0001:0006c760       _isspace                   1006d760 f i libucrtd:_ctype.obj
 0001:0006c7a0       _isupper                   1006d7a0 f i libucrtd:_ctype.obj
 0001:0006c7e0       _isxdigit                  1006d7e0 f i libucrtd:_ctype.obj
 0001:0006c820       _wcscat                    1006d820 f   libucrtd:wcscat.obj
 0001:0006c880       _wcscpy                    1006d880 f   libucrtd:wcscpy.obj
 0001:0006cf10       ??$open_file@ABQBDABQBDABHPAU_iobuf@@@?$__crt_char_traits@D@@SAPAU_iobuf@@ABQBD0ABH$$QAPAU1@@Z 1006df10 f i libucrtd:fopen.obj
 0001:0006cf40       ??$open_file@ABQB_WABQB_WABHPAU_iobuf@@@?$__crt_char_traits@_W@@SAPAU_iobuf@@ABQB_W0ABH$$QAPAU1@@Z 1006df40 f i libucrtd:fopen.obj
 0001:0006cf70       ?unlock@__crt_stdio_stream@@QBEXXZ 1006df70 f i libucrtd:fopen.obj
 0001:0006cf90       __fsopen                   1006df90 f   libucrtd:fopen.obj
 0001:0006cfb0       __wfopen                   1006dfb0 f   libucrtd:fopen.obj
 0001:0006cfd0       __wfopen_s                 1006dfd0 f   libucrtd:fopen.obj
 0001:0006cff0       __wfsopen                  1006dff0 f   libucrtd:fopen.obj
 0001:0006d010       _fopen                     1006e010 f   libucrtd:fopen.obj
 0001:0006d030       _fopen_s                   1006e030 f   libucrtd:fopen.obj
 0001:0006d050       ?is_in_use@__crt_stdio_stream@@QBE_NXZ 1006e050 f i libucrtd:fclose.obj
 0001:0006d090       __fclose_nolock            1006e090 f   libucrtd:fclose.obj
 0001:0006d1d0       _fclose                    1006e1d0 f   libucrtd:fclose.obj
 0001:0006d320       __fputc_nolock             1006e320 f   libucrtd:fputc.obj
 0001:0006d3b0       __fputchar                 1006e3b0 f   libucrtd:fputc.obj
 0001:0006d3d0       __putc_nolock              1006e3d0 f   libucrtd:fputc.obj
 0001:0006d3f0       _fputc                     1006e3f0 f   libucrtd:fputc.obj
 0001:0006d630       _putc                      1006e630 f   libucrtd:fputc.obj
 0001:0006d650       _putchar                   1006e650 f   libucrtd:fputc.obj
 0001:0006d6c0       __seh_filter_dll           1006e6c0 f   libucrtd:exception_filter.obj
 0001:0006d6f0       __seh_filter_exe           1006e6f0 f   libucrtd:exception_filter.obj
 0001:0006d900       ??$?B$$A6GXPAXK0@Z@__crt_fast_encoded_nullptr_t@@QBEP6GXPAXK0@ZXZ 1006e900 f i libucrtd:exit.obj
 0001:0006d9e0       ??$__crt_fast_decode_pointer@P6GXPAXK0@Z@@YAP6GXPAXK0@ZQ6GX0K0@Z@Z 1006e9e0 f i libucrtd:exit.obj
 0001:0006da10       ??$__crt_fast_encode_pointer@P6GXPAXK0@Z@@YAP6GXPAXK0@ZQ6GX0K0@Z@Z 1006ea10 f i libucrtd:exit.obj
 0001:0006da40       ??$__crt_get_proc_address@P6GXI@Z@@YAP6GXI@ZQAUHINSTANCE__@@QBD@Z 1006ea40 f i libucrtd:exit.obj
 0001:0006dad0       ??0?$__crt_unique_handle_t@U__crt_hmodule_traits@@@@QAE@QAUHINSTANCE__@@@Z 1006ead0 f i libucrtd:exit.obj
 0001:0006daf0       ??1?$__crt_unique_handle_t@U__crt_hmodule_traits@@@@QAE@XZ 1006eaf0 f i libucrtd:exit.obj
 0001:0006dcb0       ?__acrt_select_exit_lock@@YA?AW4__acrt_lock_id@@XZ 1006ecb0 f i libucrtd:exit.obj
 0001:0006dcc0       ?__crt_fast_encode_pointer@@YA?AU__crt_fast_encoded_nullptr_t@@$$T@Z 1006ecc0 f i libucrtd:exit.obj
 0001:0006dcf0       ?close@?$__crt_unique_handle_t@U__crt_hmodule_traits@@@@QAEXXZ 1006ecf0 f i libucrtd:exit.obj
 0001:0006dd30       ?close@__crt_hmodule_traits@@SA_NPAUHINSTANCE__@@@Z 1006ed30 f i libucrtd:exit.obj
 0001:0006de20       ?get@?$__crt_unique_handle_t@U__crt_hmodule_traits@@@@QBEPAUHINSTANCE__@@XZ 1006ee20 f i libucrtd:exit.obj
 0001:0006de40       ?get_address_of@?$__crt_unique_handle_t@U__crt_hmodule_traits@@@@QAEPAPAUHINSTANCE__@@XZ 1006ee40 f i libucrtd:exit.obj
 0001:0006de50       ?get_invalid_value@__crt_hmodule_traits@@SAPAUHINSTANCE__@@XZ 1006ee50 f i libucrtd:exit.obj
 0001:0006dfd0       __Exit                     1006efd0 f   libucrtd:exit.obj
 0001:0006dff0       ___acrt_initialize_thread_local_exit_callback 1006eff0 f   libucrtd:exit.obj
 0001:0006e000       __c_exit                   1006f000 f   libucrtd:exit.obj
 0001:0006e020       __cexit                    1006f020 f   libucrtd:exit.obj
 0001:0006e040       __exit                     1006f040 f   libucrtd:exit.obj
 0001:0006e060       __is_c_termination_complete 1006f060 f   libucrtd:exit.obj
 0001:0006e080       __register_thread_local_exe_atexit_callback 1006f080 f   libucrtd:exit.obj
 0001:0006e0c0       _exit                      1006f0c0 f   libucrtd:exit.obj
 0001:0006e0e0       _quick_exit                1006f0e0 f   libucrtd:exit.obj
 0001:0006e100       ??$?RE@__crt_internal_free_policy@@QBEXQBE@Z 1006f100 f i libucrtd:argv_parsing.obj
 0001:0006e120       ??$?RPAD@__crt_internal_free_policy@@QBEXQBQAD@Z 1006f120 f i libucrtd:argv_parsing.obj
 0001:0006e140       ??$?RPA_W@__crt_internal_free_policy@@QBEXQBQA_W@Z 1006f140 f i libucrtd:argv_parsing.obj
 0001:0006e6a0       ??$get_module_file_name@$$TAAY0BAF@DH@?$__crt_char_traits@D@@SAK$$QA$$TAAY0BAF@D$$QAH@Z 1006f6a0 f i libucrtd:argv_parsing.obj
 0001:0006e6c0       ??$get_module_file_name@$$TAAY0BAF@_WH@?$__crt_char_traits@_W@@SAK$$QA$$TAAY0BAF@_W$$QAH@Z 1006f6c0 f i libucrtd:argv_parsing.obj
 0001:0006ede0       ??$set_program_name@PAD@?$__crt_char_traits@D@@SAX$$QAPAD@Z 1006fde0 f i libucrtd:argv_parsing.obj
 0001:0006ee00       ??$set_program_name@PA_W@?$__crt_char_traits@_W@@SAX$$QAPA_W@Z 1006fe00 f i libucrtd:argv_parsing.obj
 0001:0006ee60       ??0?$__crt_unique_heap_ptr@EU__crt_internal_free_policy@@@@QAE@QAE@Z 1006fe60 f i libucrtd:argv_parsing.obj
 0001:0006ee80       ??0?$__crt_unique_heap_ptr@PADU__crt_internal_free_policy@@@@QAE@QAPAD@Z 1006fe80 f i libucrtd:argv_parsing.obj
 0001:0006eea0       ??0?$__crt_unique_heap_ptr@PA_WU__crt_internal_free_policy@@@@QAE@QAPA_W@Z 1006fea0 f i libucrtd:argv_parsing.obj
 0001:0006eec0       ??1?$__crt_unique_heap_ptr@EU__crt_internal_free_policy@@@@QAE@XZ 1006fec0 f i libucrtd:argv_parsing.obj
 0001:0006eee0       ??1?$__crt_unique_heap_ptr@PADU__crt_internal_free_policy@@@@QAE@XZ 1006fee0 f i libucrtd:argv_parsing.obj
 0001:0006ef00       ??1?$__crt_unique_heap_ptr@PA_WU__crt_internal_free_policy@@@@QAE@XZ 1006ff00 f i libucrtd:argv_parsing.obj
 0001:0006ef20       ??B?$__crt_unique_heap_ptr@EU__crt_internal_free_policy@@@@QBE_NXZ 1006ff20 f i libucrtd:argv_parsing.obj
 0001:0006efe0       ?detach@?$__crt_unique_heap_ptr@EU__crt_internal_free_policy@@@@QAEPAEXZ 1006ffe0 f i libucrtd:argv_parsing.obj
 0001:0006f010       ?detach@?$__crt_unique_heap_ptr@PADU__crt_internal_free_policy@@@@QAEPAPADXZ 10070010 f i libucrtd:argv_parsing.obj
 0001:0006f040       ?detach@?$__crt_unique_heap_ptr@PA_WU__crt_internal_free_policy@@@@QAEPAPA_WXZ 10070040 f i libucrtd:argv_parsing.obj
 0001:0006f0d0       ?get@?$__crt_unique_heap_ptr@EU__crt_internal_free_policy@@@@QBEPAEXZ 100700d0 f i libucrtd:argv_parsing.obj
 0001:0006f0f0       ?get@?$__crt_unique_heap_ptr@PADU__crt_internal_free_policy@@@@QBEPAPADXZ 100700f0 f i libucrtd:argv_parsing.obj
 0001:0006f110       ?get@?$__crt_unique_heap_ptr@PA_WU__crt_internal_free_policy@@@@QBEPAPA_WXZ 10070110 f i libucrtd:argv_parsing.obj
 0001:0006f130       ?get_address_of@?$__crt_unique_heap_ptr@PADU__crt_internal_free_policy@@@@QAEPAPAPADXZ 10070130 f i libucrtd:argv_parsing.obj
 0001:0006f140       ?get_address_of@?$__crt_unique_heap_ptr@PA_WU__crt_internal_free_policy@@@@QAEPAPAPA_WXZ 10070140 f i libucrtd:argv_parsing.obj
 0001:0006f190       ?is_valid@?$__crt_unique_heap_ptr@EU__crt_internal_free_policy@@@@QBE_NXZ 10070190 f i libucrtd:argv_parsing.obj
 0001:0006f1c0       ?release@?$__crt_unique_heap_ptr@EU__crt_internal_free_policy@@@@QAEXXZ 100701c0 f i libucrtd:argv_parsing.obj
 0001:0006f1f0       ?release@?$__crt_unique_heap_ptr@PADU__crt_internal_free_policy@@@@QAEXXZ 100701f0 f i libucrtd:argv_parsing.obj
 0001:0006f220       ?release@?$__crt_unique_heap_ptr@PA_WU__crt_internal_free_policy@@@@QAEXXZ 10070220 f i libucrtd:argv_parsing.obj
 0001:0006f290       ___acrt_allocate_buffer_for_argv 10070290 f   libucrtd:argv_parsing.obj
 0001:0006f350       __configure_narrow_argv    10070350 f   libucrtd:argv_parsing.obj
 0001:0006f370       __configure_wide_argv      10070370 f   libucrtd:argv_parsing.obj
 0001:0006f390       __set_pgmptr               10070390 f i libucrtd:argv_parsing.obj
 0001:0006f3a0       __set_wpgmptr              100703a0 f i libucrtd:argv_parsing.obj
 0001:0006f3af       ??$?R_W@__crt_internal_free_policy@@QBEXQB_W@Z 100703af f i libucrtd:environment_initialization.obj
 0001:0006f818       ??$get_environment_from_os@$$V@?$__crt_char_traits@D@@SAPADXZ 10070818 f i libucrtd:environment_initialization.obj
 0001:0006f81d       ??$get_environment_from_os@$$V@?$__crt_char_traits@_W@@SAPA_WXZ 1007081d f i libucrtd:environment_initialization.obj
 0001:0006f946       ??$set_variable_in_environment_nolock@PADH@?$__crt_char_traits@D@@SAH$$QAPAD$$QAH@Z 10070946 f i libucrtd:environment_initialization.obj
 0001:0006f95e       ??$set_variable_in_environment_nolock@PA_WH@?$__crt_char_traits@_W@@SAH$$QAPA_W$$QAH@Z 1007095e f i libucrtd:environment_initialization.obj
 0001:0006f976       ??$tcscpy_s@PADABIAAPAD@?$__crt_char_traits@D@@SAH$$QAPADABIAAPAD@Z 10070976 f i libucrtd:environment_initialization.obj
 0001:0006f994       ??$tcscpy_s@PA_WABIAAPA_W@?$__crt_char_traits@_W@@SAH$$QAPA_WABIAAPA_W@Z 10070994 f i libucrtd:environment_initialization.obj
 0001:0006f9b2       ??$tcslen@AAPAD@?$__crt_char_traits@D@@SAIAAPAD@Z 100709b2 f i libucrtd:environment_initialization.obj
 0001:0006f9ca       ??$tcslen@AAPA_W@?$__crt_char_traits@_W@@SAIAAPA_W@Z 100709ca f i libucrtd:environment_initialization.obj
 0001:0006f9e8       ??$uninitialize@A6AXAAPAPAD@Z@?$dual_state_global@PAPAD@__crt_state_management@@QAEXA6AXAAPAPAD@Z@Z 100709e8 f i libucrtd:environment_initialization.obj
 0001:0006fa11       ??$uninitialize@A6AXAAPAPA_W@Z@?$dual_state_global@PAPA_W@__crt_state_management@@QAEXA6AXAAPAPA_W@Z@Z 10070a11 f i libucrtd:environment_initialization.obj
 0001:0006fa70       ??0?$__crt_unique_heap_ptr@_WU__crt_internal_free_policy@@@@QAE@QA_W@Z 10070a70 f i libucrtd:environment_initialization.obj
 0001:0006fa80       ??1?$__crt_unique_heap_ptr@_WU__crt_internal_free_policy@@@@QAE@XZ 10070a80 f i libucrtd:environment_initialization.obj
 0001:0006fa95       ??B?$__crt_unique_heap_ptr@PADU__crt_internal_free_policy@@@@QBE_NXZ 10070a95 f i libucrtd:environment_initialization.obj
 0001:0006fa9c       ??B?$__crt_unique_heap_ptr@PA_WU__crt_internal_free_policy@@@@QBE_NXZ 10070a9c f i libucrtd:environment_initialization.obj
 0001:0006faa3       ??B?$__crt_unique_heap_ptr@_WU__crt_internal_free_policy@@@@QBE_NXZ 10070aa3 f i libucrtd:environment_initialization.obj
 0001:0006faaa       ?__crt_compute_required_transform_buffer_count@@YAIIQBD@Z 10070aaa f i libucrtd:environment_initialization.obj
 0001:0006fac6       ?__crt_compute_required_transform_buffer_count@@YAIIQB_W@Z 10070ac6 f i libucrtd:environment_initialization.obj
 0001:0006fae4       ?__crt_transform_string@@YAIIQBDQA_WI@Z 10070ae4 f i libucrtd:environment_initialization.obj
 0001:0006fb03       ?__crt_transform_string@@YAIIQB_WQADI@Z 10070b03 f i libucrtd:environment_initialization.obj
 0001:0006fb25       ?detach@?$__crt_unique_heap_ptr@DU__crt_internal_free_policy@@@@QAEPADXZ 10070b25 f i libucrtd:environment_initialization.obj
 0001:0006fb2b       ?detach@?$__crt_unique_heap_ptr@_WU__crt_internal_free_policy@@@@QAEPA_WXZ 10070b2b f i libucrtd:environment_initialization.obj
 0001:0006fb31       ?get@?$__crt_unique_heap_ptr@_WU__crt_internal_free_policy@@@@QBEPA_WXZ 10070b31 f i libucrtd:environment_initialization.obj
 0001:0006fb58       ?initialize@?$dual_state_global@PAPAD@__crt_state_management@@QAEXQAPAD@Z 10070b58 f i libucrtd:environment_initialization.obj
 0001:0006fb7e       ?initialize@?$dual_state_global@PAPA_W@__crt_state_management@@QAEXQAPA_W@Z 10070b7e f i libucrtd:environment_initialization.obj
 0001:0006fba4       ?is_valid@?$__crt_unique_heap_ptr@PADU__crt_internal_free_policy@@@@QBE_NXZ 10070ba4 f i libucrtd:environment_initialization.obj
 0001:0006fbab       ?is_valid@?$__crt_unique_heap_ptr@PA_WU__crt_internal_free_policy@@@@QBE_NXZ 10070bab f i libucrtd:environment_initialization.obj
 0001:0006fbb2       ?is_valid@?$__crt_unique_heap_ptr@_WU__crt_internal_free_policy@@@@QBE_NXZ 10070bb2 f i libucrtd:environment_initialization.obj
 0001:0006fbc1       ?release@?$__crt_unique_heap_ptr@_WU__crt_internal_free_policy@@@@QAEXXZ 10070bc1 f i libucrtd:environment_initialization.obj
 0001:0006fbd6       ?value@?$dual_state_global@PAPAD@__crt_state_management@@QAEAAPAPADXZ 10070bd6 f i libucrtd:environment_initialization.obj
 0001:0006fbd9       ?value@?$dual_state_global@PAPA_W@__crt_state_management@@QAEAAPAPA_WXZ 10070bd9 f i libucrtd:environment_initialization.obj
 0001:0006fbdc       ___dcrt_get_or_create_narrow_environment_nolock 10070bdc f   libucrtd:environment_initialization.obj
 0001:0006fbe1       ___dcrt_get_or_create_wide_environment_nolock 10070be1 f   libucrtd:environment_initialization.obj
 0001:0006fbe6       ___dcrt_uninitialize_environments_nolock 10070be6 f   libucrtd:environment_initialization.obj
 0001:0006fc1d       ___p__environ              10070c1d f   libucrtd:environment_initialization.obj
 0001:0006fc23       ___p__wenviron             10070c23 f   libucrtd:environment_initialization.obj
 0001:0006fc29       __get_initial_narrow_environment 10070c29 f   libucrtd:environment_initialization.obj
 0001:0006fc3d       __get_initial_wide_environment 10070c3d f   libucrtd:environment_initialization.obj
 0001:0006fc51       __initialize_narrow_environment 10070c51 f   libucrtd:environment_initialization.obj
 0001:0006fc56       __initialize_wide_environment 10070c56 f   libucrtd:environment_initialization.obj
 0001:0006fc60       ??$?B$$A6AXXZ@__crt_fast_encoded_nullptr_t@@QBEP6AXXZXZ 10070c60 f i libucrtd:onexit.obj
 0001:0006fc80       ??$?BP6AXXZ@__crt_fast_encoded_nullptr_t@@QBEPAP6AXXZXZ 10070c80 f i libucrtd:onexit.obj
 0001:0006fca0       ??$?RP6AXXZ@__crt_internal_free_policy@@QBEXQBQ6AXXZ@Z 10070ca0 f i libucrtd:onexit.obj
 0001:0006fe60       ??$__crt_fast_decode_pointer@P6AXXZ@@YAP6AXXZQ6AXXZ@Z 10070e60 f i libucrtd:onexit.obj
 0001:0006fe90       ??$__crt_fast_decode_pointer@PAP6AXXZ@@YAPAP6AXXZQAP6AXXZ@Z 10070e90 f i libucrtd:onexit.obj
 0001:0006fec0       ??$__crt_fast_encode_pointer@P6AHXZ@@YAP6AHXZQ6AHXZ@Z 10070ec0 f i libucrtd:onexit.obj
 0001:0006fef0       ??$__crt_fast_encode_pointer@P6AXXZ@@YAP6AXXZQ6AXXZ@Z 10070ef0 f i libucrtd:onexit.obj
 0001:0006ff20       ??$__crt_fast_encode_pointer@PAP6AXXZ@@YAPAP6AXXZQAP6AXXZ@Z 10070f20 f i libucrtd:onexit.obj
 0001:00070020       ??0?$__crt_unique_heap_ptr@P6AXXZU__crt_internal_free_policy@@@@QAE@QAP6AXXZ@Z 10071020 f i libucrtd:onexit.obj
 0001:00070040       ??1?$__crt_unique_heap_ptr@P6AXXZU__crt_internal_free_policy@@@@QAE@XZ 10071040 f i libucrtd:onexit.obj
 0001:00070060       ??1scoped_global_state_reset@__crt_state_management@@QAE@XZ 10071060 f i libucrtd:onexit.obj
 0001:000704d0       ?detach@?$__crt_unique_heap_ptr@P6AXXZU__crt_internal_free_policy@@@@QAEPAP6AXXZXZ 100714d0 f i libucrtd:onexit.obj
 0001:00070500       ?release@?$__crt_unique_heap_ptr@P6AXXZU__crt_internal_free_policy@@@@QAEXXZ 10071500 f i libucrtd:onexit.obj
 0001:00070530       __crt_at_quick_exit        10071530 f   libucrtd:onexit.obj
 0001:00070550       __crt_atexit               10071550 f   libucrtd:onexit.obj
 0001:00070570       __execute_onexit_table     10071570 f   libucrtd:onexit.obj
 0001:000705a0       __initialize_onexit_table  100715a0 f   libucrtd:onexit.obj
 0001:00070600       __register_onexit_function 10071600 f   libucrtd:onexit.obj
 0001:00070840       ??$?BX@__crt_fast_encoded_nullptr_t@@QBEPAXXZ 10071840 f i libucrtd:initialization.obj
 0001:00070860       ??$__crt_fast_encode_pointer@PAX@@YAPAXQAX@Z 10071860 f i libucrtd:initialization.obj
 0001:00070920       ?initialize@?$dual_state_global@PAU__crt_locale_data@@@__crt_state_management@@QAEXQAU__crt_locale_data@@@Z 10071920 f i libucrtd:initialization.obj
 0001:00070960       ___acrt_initialize         10071960 f   libucrtd:initialization.obj
 0001:00070980       ___acrt_thread_attach      10071980 f   libucrtd:initialization.obj
 0001:000709a0       ___acrt_thread_detach      100719a0 f   libucrtd:initialization.obj
 0001:000709b0       ___acrt_uninitialize       100719b0 f   libucrtd:initialization.obj
 0001:000709d0       ___acrt_uninitialize_critical 100719d0 f   libucrtd:initialization.obj
 0001:00072240       __CrtCheckMemory           10073240 f   libucrtd:debug_heap.obj
 0001:000723d0       __CrtDoForAllClientObjects 100733d0 f   libucrtd:debug_heap.obj
 0001:00072520       __CrtDumpMemoryLeaks       10073520 f   libucrtd:debug_heap.obj
 0001:000725c0       __CrtGetAllocHook          100735c0 f   libucrtd:debug_heap.obj
 0001:000725d0       __CrtGetDumpClient         100735d0 f   libucrtd:debug_heap.obj
 0001:000725e0       __CrtIsMemoryBlock         100735e0 f   libucrtd:debug_heap.obj
 0001:00072730       __CrtIsValidHeapPointer    10073730 f   libucrtd:debug_heap.obj
 0001:00072760       __CrtIsValidPointer        10073760 f   libucrtd:debug_heap.obj
 0001:00072790       __CrtMemCheckpoint         10073790 f   libucrtd:debug_heap.obj
 0001:000729c0       __CrtMemDifference         100739c0 f   libucrtd:debug_heap.obj
 0001:00072c30       __CrtMemDumpAllObjectsSince 10073c30 f   libucrtd:debug_heap.obj
 0001:00072cd0       __CrtMemDumpStatistics     10073cd0 f   libucrtd:debug_heap.obj
 0001:00072e00       __CrtReportBlockType       10073e00 f   libucrtd:debug_heap.obj
 0001:00072e30       __CrtSetAllocHook          10073e30 f   libucrtd:debug_heap.obj
 0001:00072e50       __CrtSetBreakAlloc         10073e50 f   libucrtd:debug_heap.obj
 0001:00072e70       __CrtSetDbgBlockType       10073e70 f   libucrtd:debug_heap.obj
 0001:00072f50       __CrtSetDbgFlag            10073f50 f   libucrtd:debug_heap.obj
 0001:000730c0       __CrtSetDumpClient         100740c0 f   libucrtd:debug_heap.obj
 0001:000730e0       ___p__crtBreakAlloc        100740e0 f   libucrtd:debug_heap.obj
 0001:000730f0       ___p__crtDbgFlag           100740f0 f   libucrtd:debug_heap.obj
 0001:00073100       __aligned_free_dbg         10074100 f   libucrtd:debug_heap.obj
 0001:000731b0       __aligned_malloc_dbg       100741b0 f   libucrtd:debug_heap.obj
 0001:000731e0       __aligned_msize_dbg        100741e0 f   libucrtd:debug_heap.obj
 0001:00073310       __aligned_offset_malloc_dbg 10074310 f   libucrtd:debug_heap.obj
 0001:000734f0       __aligned_offset_realloc_dbg 100744f0 f   libucrtd:debug_heap.obj
 0001:00073800       __aligned_offset_recalloc_dbg 10074800 f   libucrtd:debug_heap.obj
 0001:000738c0       __aligned_realloc_dbg      100748c0 f   libucrtd:debug_heap.obj
 0001:000738f0       __aligned_recalloc_dbg     100748f0 f   libucrtd:debug_heap.obj
 0001:00073920       __calloc_dbg               10074920 f   libucrtd:debug_heap.obj
 0001:00073990       __expand_dbg               10074990 f   libucrtd:debug_heap.obj
 0001:00073ac0       __free_dbg                 10074ac0 f   libucrtd:debug_heap.obj
 0001:00073b70       __malloc_dbg               10074b70 f   libucrtd:debug_heap.obj
 0001:00073b90       __msize_dbg                10074b90 f   libucrtd:debug_heap.obj
 0001:00073d20       __realloc_dbg              10074d20 f   libucrtd:debug_heap.obj
 0001:00073dc0       __recalloc_dbg             10074dc0 f   libucrtd:debug_heap.obj
 0001:00073e70       __initterm                 10074e70 f   libucrtd:initterm.obj
 0001:00073ec0       __initterm_e               10074ec0 f   libucrtd:initterm.obj
 0001:00074230       _strcpy_s                  10075230 f   libucrtd:strcpy_s.obj
 0001:00074660       _strcat_s                  10075660 f   libucrtd:strcat_s.obj
 0001:00074680       ??$?B$$A6AHI@Z@__crt_fast_encoded_nullptr_t@@QBEP6AHI@ZXZ 10075680 f i libucrtd:new_handler.obj
 0001:000746a0       ??$__crt_fast_decode_pointer@P6AHI@Z@@YAP6AHI@ZQ6AHI@Z@Z 100756a0 f i libucrtd:new_handler.obj
 0001:000746d0       ??$__crt_fast_encode_pointer@P6AHI@Z@@YAP6AHI@ZQ6AHI@Z@Z 100756d0 f i libucrtd:new_handler.obj
 0001:00074700       ?_set_new_handler@@YAP6AHI@ZH@Z 10075700 f   libucrtd:new_handler.obj
 0001:00074760       ?initialize@?$dual_state_global@P6AHI@Z@__crt_state_management@@QAEXQ6AHI@Z@Z 10075760 f i libucrtd:new_handler.obj
 0001:000747a0       ?value@?$dual_state_global@P6AHI@Z@__crt_state_management@@QAEAAP6AHI@ZXZ 100757a0 f i libucrtd:new_handler.obj
 0001:000747c0       ___acrt_initialize_new_handler 100757c0 f   libucrtd:new_handler.obj
 0001:000747e0       __callnewh                 100757e0 f   libucrtd:new_handler.obj
 0001:00074820       __query_new_handler        10075820 f   libucrtd:new_handler.obj
 0001:000748b0       __set_new_handler          100758b0 f   libucrtd:new_handler.obj
 0001:00074990       __get_terminate            10075990 f   libucrtd:terminate.obj
 0001:000749b0       _set_terminate             100759b0 f   libucrtd:terminate.obj
 0001:000749e0       _terminate                 100759e0 f   libucrtd:terminate.obj
 0001:000753b0       __makepath                 100763b0 f   libucrtd:makepath.obj
 0001:000753e0       __makepath_s               100763e0 f   libucrtd:makepath.obj
 0001:00075410       __wmakepath                10076410 f   libucrtd:makepath.obj
 0001:00075440       __wmakepath_s              10076440 f   libucrtd:makepath.obj
 0001:00076d90       ??$tcsncpy_s@AAPADIAAPBDABI@?$__crt_char_traits@D@@SAHAAPAD$$QAIAAPBDABI@Z 10077d90 f i libucrtd:splitpath.obj
 0001:00076dc0       ??$tcsncpy_s@AAPADIAAPBDH@?$__crt_char_traits@D@@SAHAAPAD$$QAIAAPBD$$QAH@Z 10077dc0 f i libucrtd:splitpath.obj
 0001:00076df0       ??$tcsncpy_s@AAPA_WIAAPB_WABI@?$__crt_char_traits@_W@@SAHAAPA_W$$QAIAAPB_WABI@Z 10077df0 f i libucrtd:splitpath.obj
 0001:00076e20       ??$tcsncpy_s@AAPA_WIAAPB_WH@?$__crt_char_traits@_W@@SAHAAPA_W$$QAIAAPB_W$$QAH@Z 10077e20 f i libucrtd:splitpath.obj
 0001:00077060       __splitpath                10078060 f   libucrtd:splitpath.obj
 0001:00077090       __splitpath_s              10078090 f   libucrtd:splitpath.obj
 0001:000770e0       __wsplitpath               100780e0 f   libucrtd:splitpath.obj
 0001:00077110       __wsplitpath_s             10078110 f   libucrtd:splitpath.obj
 0001:00077160       __set_abort_behavior       10078160 f   libucrtd:abort.obj
 0001:00077190       _abort                     10078190 f   libucrtd:abort.obj
 0001:00077200       _strcmp                    10078200 f   libucrtd:strcmp.obj
 0001:00077290       _strlen                    10078290 f   libucrtd:strlen.obj
 0001:00077320       ??$is_overflow_condition@K@__crt_strtox@@YA_NIK@Z 10078320 f i libucrtd:atox.obj
 0001:00077380       ??$is_overflow_condition@_K@__crt_strtox@@YA_NI_K@Z 10078380 f i libucrtd:atox.obj
 0001:00077410       ??$make_c_string_character_source@D$$T@__crt_strtox@@YA?AV?$c_string_character_source@D@0@QBD$$T@Z 10078410 f i libucrtd:atox.obj
 0001:00077430       ??$make_c_string_character_source@_W$$T@__crt_strtox@@YA?AV?$c_string_character_source@_W@0@QB_W$$T@Z 10078430 f i libucrtd:atox.obj
 0001:00077450       ??$parse_integer@KV?$c_string_character_source@D@__crt_strtox@@@__crt_strtox@@YAKQAU__crt_locale_pointers@@V?$c_string_character_source@D@0@H_N@Z 10078450 f i libucrtd:atox.obj
 0001:000777c0       ??$parse_integer@KV?$c_string_character_source@_W@__crt_strtox@@@__crt_strtox@@YAKQAU__crt_locale_pointers@@V?$c_string_character_source@_W@0@H_N@Z 100787c0 f i libucrtd:atox.obj
 0001:00077b30       ??$parse_integer@_KV?$c_string_character_source@D@__crt_strtox@@@__crt_strtox@@YA_KQAU__crt_locale_pointers@@V?$c_string_character_source@D@0@H_N@Z 10078b30 f i libucrtd:atox.obj
 0001:00077f50       ??$parse_integer@_KV?$c_string_character_source@_W@__crt_strtox@@@__crt_strtox@@YA_KQAU__crt_locale_pointers@@V?$c_string_character_source@_W@0@H_N@Z 10078f50 f i libucrtd:atox.obj
 0001:00078380       ??$parse_integer_from_string@JD$$T@__crt_strtox@@YAJQBD$$THQAU__crt_locale_pointers@@@Z 10079380 f i libucrtd:atox.obj
 0001:000783c0       ??$parse_integer_from_string@J_W$$T@__crt_strtox@@YAJQB_W$$THQAU__crt_locale_pointers@@@Z 100793c0 f i libucrtd:atox.obj
 0001:00078400       ??$parse_integer_from_string@_JD$$T@__crt_strtox@@YA_JQBD$$THQAU__crt_locale_pointers@@@Z 10079400 f i libucrtd:atox.obj
 0001:00078440       ??$parse_integer_from_string@_J_W$$T@__crt_strtox@@YA_JQB_W$$THQAU__crt_locale_pointers@@@Z 10079440 f i libucrtd:atox.obj
 0001:00078480       ??0?$c_string_character_source@D@__crt_strtox@@QAE@QBDQAPBD@Z 10079480 f i libucrtd:atox.obj
 0001:000784c0       ??0?$c_string_character_source@_W@__crt_strtox@@QAE@QB_WQAPB_W@Z 100794c0 f i libucrtd:atox.obj
 0001:00078500       ??1?$c_string_character_source@D@__crt_strtox@@QAE@XZ 10079500 f i libucrtd:atox.obj
 0001:00078530       ??1?$c_string_character_source@_W@__crt_strtox@@QAE@XZ 10079530 f i libucrtd:atox.obj
 0001:00078560       ?get@?$c_string_character_source@D@__crt_strtox@@QAEDXZ 10079560 f i libucrtd:atox.obj
 0001:00078590       ?get@?$c_string_character_source@_W@__crt_strtox@@QAE_WXZ 10079590 f i libucrtd:atox.obj
 0001:000785c0       ?is_space@__crt_strtox@@YA_NDQAU__crt_locale_pointers@@@Z 100795c0 f i libucrtd:atox.obj
 0001:00078600       ?is_space@__crt_strtox@@YA_N_WPAU__crt_locale_pointers@@@Z 10079600 f i libucrtd:atox.obj
 0001:00078630       ?maximum_signed_value@__crt_strtox@@YAJK@Z 10079630 f i libucrtd:atox.obj
 0001:00078640       ?maximum_signed_value@__crt_strtox@@YA_J_K@Z 10079640 f i libucrtd:atox.obj
 0001:00078650       ?minimum_signed_value@__crt_strtox@@YAJK@Z 10079650 f i libucrtd:atox.obj
 0001:00078660       ?minimum_signed_value@__crt_strtox@@YA_J_K@Z 10079660 f i libucrtd:atox.obj
 0001:00078670       ?parse_digit@__crt_strtox@@YAID@Z 10079670 f i libucrtd:atox.obj
 0001:000786d0       ?parse_digit@__crt_strtox@@YAI_W@Z 100796d0 f i libucrtd:atox.obj
 0001:00078720       ?restore_state@?$c_string_character_source@D@__crt_strtox@@QAE_NQBD@Z 10079720 f i libucrtd:atox.obj
 0001:00078740       ?restore_state@?$c_string_character_source@_W@__crt_strtox@@QAE_NQB_W@Z 10079740 f i libucrtd:atox.obj
 0001:00078760       ?save_state@?$c_string_character_source@D@__crt_strtox@@QBEPBDXZ 10079760 f i libucrtd:atox.obj
 0001:00078780       ?save_state@?$c_string_character_source@_W@__crt_strtox@@QBEPB_WXZ 10079780 f i libucrtd:atox.obj
 0001:000787a0       ?unget@?$c_string_character_source@D@__crt_strtox@@QAEXD@Z 100797a0 f i libucrtd:atox.obj
 0001:00078850       ?unget@?$c_string_character_source@_W@__crt_strtox@@QAEX_W@Z 10079850 f i libucrtd:atox.obj
 0001:00078900       ?validate@?$c_string_character_source@D@__crt_strtox@@QBE_NXZ 10079900 f i libucrtd:atox.obj
 0001:00078990       ?validate@?$c_string_character_source@_W@__crt_strtox@@QBE_NXZ 10079990 f i libucrtd:atox.obj
 0001:00078a20       ?wide_character_to_digit@__crt_strtox@@YAH_W@Z 10079a20 f i libucrtd:atox.obj
 0001:00078d50       ___ascii_iswalpha          10079d50 f i libucrtd:atox.obj
 0001:00078d90       ___ascii_toupper           10079d90 f i libucrtd:atox.obj
 0001:00078db0       ___ascii_towupper          10079db0 f i libucrtd:atox.obj
 0001:00078dd0       __atoi64                   10079dd0 f   libucrtd:atox.obj
 0001:00078df0       __atoi64_l                 10079df0 f   libucrtd:atox.obj
 0001:00078e10       __atoi_l                   10079e10 f   libucrtd:atox.obj
 0001:00078e30       __atol_l                   10079e30 f   libucrtd:atox.obj
 0001:00078e50       __atoll_l                  10079e50 f   libucrtd:atox.obj
 0001:00078e70       __wtoi                     10079e70 f   libucrtd:atox.obj
 0001:00078e90       __wtoi64                   10079e90 f   libucrtd:atox.obj
 0001:00078eb0       __wtoi64_l                 10079eb0 f   libucrtd:atox.obj
 0001:00078ed0       __wtoi_l                   10079ed0 f   libucrtd:atox.obj
 0001:00078ef0       __wtol                     10079ef0 f   libucrtd:atox.obj
 0001:00078f10       __wtol_l                   10079f10 f   libucrtd:atox.obj
 0001:00078f30       __wtoll                    10079f30 f   libucrtd:atox.obj
 0001:00078f50       __wtoll_l                  10079f50 f   libucrtd:atox.obj
 0001:00078f70       _atoi                      10079f70 f   libucrtd:atox.obj
 0001:00078f90       _atol                      10079f90 f   libucrtd:atox.obj
 0001:00078fb0       _atoll                     10079fb0 f   libucrtd:atox.obj
 0001:00078fd0       _strncmp                   10079fd0 f   libucrtd:strncmp.obj
 0001:00079050       _wcsncmp                   1007a050 f   libucrtd:wcsncmp.obj
 0001:000790b0       __CrtGetDebugFillThreshold 1007a0b0 f   libucrtd:debug_fill_threshold.obj
 0001:000790c0       __CrtSetDebugFillThreshold 1007a0c0 f   libucrtd:debug_fill_threshold.obj
 0001:000790e0       ??$make_c_string_character_source@DPAPAD@__crt_strtox@@YA?AV?$c_string_character_source@D@0@QBDQAPAD@Z 1007a0e0 f i libucrtd:strtox.obj
 0001:00079100       ??$make_c_string_character_source@_WPAPA_W@__crt_strtox@@YA?AV?$c_string_character_source@_W@0@QB_WQAPA_W@Z 1007a100 f i libucrtd:strtox.obj
 0001:00079120       ??$parse_integer_from_string@JDPAPAD@__crt_strtox@@YAJQBDQAPADHQAU__crt_locale_pointers@@@Z 1007a120 f i libucrtd:strtox.obj
 0001:00079160       ??$parse_integer_from_string@J_WPAPA_W@__crt_strtox@@YAJQB_WQAPA_WHQAU__crt_locale_pointers@@@Z 1007a160 f i libucrtd:strtox.obj
 0001:000791a0       ??$parse_integer_from_string@KDPAPAD@__crt_strtox@@YAKQBDQAPADHQAU__crt_locale_pointers@@@Z 1007a1a0 f i libucrtd:strtox.obj
 0001:000791e0       ??$parse_integer_from_string@K_WPAPA_W@__crt_strtox@@YAKQB_WQAPA_WHQAU__crt_locale_pointers@@@Z 1007a1e0 f i libucrtd:strtox.obj
 0001:00079220       ??$parse_integer_from_string@_JDPAPAD@__crt_strtox@@YA_JQBDQAPADHQAU__crt_locale_pointers@@@Z 1007a220 f i libucrtd:strtox.obj
 0001:00079260       ??$parse_integer_from_string@_J_WPAPA_W@__crt_strtox@@YA_JQB_WQAPA_WHQAU__crt_locale_pointers@@@Z 1007a260 f i libucrtd:strtox.obj
 0001:000792a0       ??$parse_integer_from_string@_KDPAPAD@__crt_strtox@@YA_KQBDQAPADHQAU__crt_locale_pointers@@@Z 1007a2a0 f i libucrtd:strtox.obj
 0001:000792e0       ??$parse_integer_from_string@_K_WPAPA_W@__crt_strtox@@YA_KQB_WQAPA_WHQAU__crt_locale_pointers@@@Z 1007a2e0 f i libucrtd:strtox.obj
 0001:00079320       __strtoi64                 1007a320 f   libucrtd:strtox.obj
 0001:00079340       __strtoi64_l               1007a340 f   libucrtd:strtox.obj
 0001:00079360       __strtoimax_l              1007a360 f   libucrtd:strtox.obj
 0001:00079380       __strtol_l                 1007a380 f   libucrtd:strtox.obj
 0001:000793a0       __strtoll_l                1007a3a0 f   libucrtd:strtox.obj
 0001:000793c0       __strtoui64                1007a3c0 f   libucrtd:strtox.obj
 0001:000793e0       __strtoui64_l              1007a3e0 f   libucrtd:strtox.obj
 0001:00079400       __strtoul_l                1007a400 f   libucrtd:strtox.obj
 0001:00079420       __strtoull_l               1007a420 f   libucrtd:strtox.obj
 0001:00079440       __strtoumax_l              1007a440 f   libucrtd:strtox.obj
 0001:00079460       __wcstoi64                 1007a460 f   libucrtd:strtox.obj
 0001:00079480       __wcstoi64_l               1007a480 f   libucrtd:strtox.obj
 0001:000794a0       __wcstoimax_l              1007a4a0 f   libucrtd:strtox.obj
 0001:000794c0       __wcstol_l                 1007a4c0 f   libucrtd:strtox.obj
 0001:000794e0       __wcstoll_l                1007a4e0 f   libucrtd:strtox.obj
 0001:00079500       __wcstoui64                1007a500 f   libucrtd:strtox.obj
 0001:00079520       __wcstoui64_l              1007a520 f   libucrtd:strtox.obj
 0001:00079540       __wcstoul_l                1007a540 f   libucrtd:strtox.obj
 0001:00079560       __wcstoull_l               1007a560 f   libucrtd:strtox.obj
 0001:00079580       __wcstoumax_l              1007a580 f   libucrtd:strtox.obj
 0001:000795a0       _strtoimax                 1007a5a0 f   libucrtd:strtox.obj
 0001:000795c0       _strtol                    1007a5c0 f   libucrtd:strtox.obj
 0001:000795e0       _strtoll                   1007a5e0 f   libucrtd:strtox.obj
 0001:00079600       _strtoul                   1007a600 f   libucrtd:strtox.obj
 0001:00079620       _strtoull                  1007a620 f   libucrtd:strtox.obj
 0001:00079640       _strtoumax                 1007a640 f   libucrtd:strtox.obj
 0001:00079660       _wcstoimax                 1007a660 f   libucrtd:strtox.obj
 0001:00079680       _wcstol                    1007a680 f   libucrtd:strtox.obj
 0001:000796a0       _wcstoll                   1007a6a0 f   libucrtd:strtox.obj
 0001:000796c0       _wcstoul                   1007a6c0 f   libucrtd:strtox.obj
 0001:000796e0       _wcstoull                  1007a6e0 f   libucrtd:strtox.obj
 0001:00079700       _wcstoumax                 1007a700 f   libucrtd:strtox.obj
 0001:00079720       __mbtowc_l                 1007a720 f   libucrtd:mbtowc.obj
 0001:00079a40       _mbtowc                    1007aa40 f   libucrtd:mbtowc.obj
 0001:00079a60       __wctomb_l                 1007aa60 f   libucrtd:wctomb.obj
 0001:00079ae0       __wctomb_s_l               1007aae0 f   libucrtd:wctomb.obj
 0001:00079ea0       _wctomb                    1007aea0 f   libucrtd:wctomb.obj
 0001:00079ef0       _wctomb_s                  1007aef0 f   libucrtd:wctomb.obj
 0001:00079f20       ??$?RU__acrt_ptd@@@__crt_internal_free_policy@@QBEXQBU__acrt_ptd@@@Z 1007af20 f i libucrtd:per_thread_data.obj
 0001:0007a3d0       ??0?$__crt_unique_heap_ptr@U__acrt_ptd@@U__crt_internal_free_policy@@@@QAE@QAU__acrt_ptd@@@Z 1007b3d0 f i libucrtd:per_thread_data.obj
 0001:0007a3f0       ??0__crt_scoped_get_last_error_reset@@QAE@XZ 1007b3f0 f i libucrtd:per_thread_data.obj
 0001:0007a410       ??1?$__crt_unique_heap_ptr@U__acrt_ptd@@U__crt_internal_free_policy@@@@QAE@XZ 1007b410 f i libucrtd:per_thread_data.obj
 0001:0007a430       ??1__crt_scoped_get_last_error_reset@@QAE@XZ 1007b430 f i libucrtd:per_thread_data.obj
 0001:0007a450       ??B?$__crt_unique_heap_ptr@U__acrt_ptd@@U__crt_internal_free_policy@@@@QBE_NXZ 1007b450 f i libucrtd:per_thread_data.obj
 0001:0007a730       ?dangerous_get_state_array@?$dual_state_global@PAU__crt_locale_data@@@__crt_state_management@@QAEPAPAU__crt_locale_data@@XZ 1007b730 f i libucrtd:per_thread_data.obj
 0001:0007a8b0       ?detach@?$__crt_unique_heap_ptr@U__acrt_ptd@@U__crt_internal_free_policy@@@@QAEPAU__acrt_ptd@@XZ 1007b8b0 f i libucrtd:per_thread_data.obj
 0001:0007a8e0       ?get@?$__crt_unique_heap_ptr@U__acrt_ptd@@U__crt_internal_free_policy@@@@QBEPAU__acrt_ptd@@XZ 1007b8e0 f i libucrtd:per_thread_data.obj
 0001:0007a900       ?get_current_state_index@__crt_state_management@@YAIABV__crt_scoped_get_last_error_reset@@@Z 1007b900 f i libucrtd:per_thread_data.obj
 0001:0007aa70       ?is_valid@?$__crt_unique_heap_ptr@U__acrt_ptd@@U__crt_internal_free_policy@@@@QBE_NXZ 1007ba70 f i libucrtd:per_thread_data.obj
 0001:0007aaa0       ?release@?$__crt_unique_heap_ptr@U__acrt_ptd@@U__crt_internal_free_policy@@@@QAEXXZ 1007baa0 f i libucrtd:per_thread_data.obj
 0001:0007ab90       ?value@?$dual_state_global@PAU__crt_locale_data@@@__crt_state_management@@QAEAAPAU__crt_locale_data@@XZ 1007bb90 f i libucrtd:per_thread_data.obj
 0001:0007abb0       ___acrt_freeptd            1007bbb0 f   libucrtd:per_thread_data.obj
 0001:0007abe0       ___acrt_getptd             1007bbe0 f   libucrtd:per_thread_data.obj
 0001:0007ac00       ___acrt_getptd_head        1007bc00 f   libucrtd:per_thread_data.obj
 0001:0007ac20       ___acrt_getptd_noexit      1007bc20 f   libucrtd:per_thread_data.obj
 0001:0007ac30       ___acrt_initialize_ptd     1007bc30 f   libucrtd:per_thread_data.obj
 0001:0007ac70       ___acrt_uninitialize_ptd   1007bc70 f   libucrtd:per_thread_data.obj
 0001:0007aca0       ___threadhandle            1007bca0 f   libucrtd:per_thread_data.obj
 0001:0007acb0       ___threadid                1007bcb0 f   libucrtd:per_thread_data.obj
 0001:0007acc0       ?value@?$dual_state_global@PAU__crt_multibyte_data@@@__crt_state_management@@QAEAAPAU__crt_multibyte_data@@XZ 1007bcc0 f i libucrtd:locale_update.obj
 0001:0007ace0       ___acrt_update_locale_info 1007bce0 f   libucrtd:locale_update.obj
 0001:0007ad20       ___acrt_update_multibyte_info 1007bd20 f   libucrtd:locale_update.obj
 0001:0007ad60       ?__acrt_fp_classify@@YA?AW4__acrt_fp_class@@ABN@Z 1007bd60 f i libucrtd:cvt.obj
 0001:0007ae80       ?__acrt_fp_is_negative@@YA_NABN@Z 1007be80 f i libucrtd:cvt.obj
 0001:0007bed0       ?strrchr@@YAPADQADH@Z      1007ced0 f i libucrtd:cvt.obj
 0001:0007bef0       ___acrt_fp_format          1007cef0 f   libucrtd:cvt.obj
 0001:0007c380       __fputwc_nolock            1007d380 f   libucrtd:fputwc.obj
 0001:0007c570       __fputwchar                1007d570 f   libucrtd:fputwc.obj
 0001:0007c590       __putwc_nolock             1007d590 f   libucrtd:fputwc.obj
 0001:0007c5b0       _fputwc                    1007d5b0 f   libucrtd:fputwc.obj
 0001:0007c6c0       _putwc                     1007d6c0 f   libucrtd:fputwc.obj
 0001:0007c6e0       _putwchar                  1007d6e0 f   libucrtd:fputwc.obj
 0001:0007c700       ?lowio_handle@__crt_stdio_stream@@QBEHXZ 1007d700 f i libucrtd:fileno.obj
 0001:0007c720       __fileno                   1007d720 f   libucrtd:fileno.obj
 0001:0007c7c0       ??$?RPAU__crt_stdio_stream_data@@@__crt_internal_free_policy@@QBEXQBQAU__crt_stdio_stream_data@@@Z 1007d7c0 f i libucrtd:_file.obj
 0001:0007c7e0       ??0?$__crt_unique_heap_ptr@PAU__crt_stdio_stream_data@@U__crt_internal_free_policy@@@@QAE@QAPAU__crt_stdio_stream_data@@@Z 1007d7e0 f i libucrtd:_file.obj
 0001:0007c800       ??1?$__crt_unique_heap_ptr@PAU__crt_stdio_stream_data@@U__crt_internal_free_policy@@@@QAE@XZ 1007d800 f i libucrtd:_file.obj
 0001:0007c820       ?detach@?$__crt_unique_heap_ptr@PAU__crt_stdio_stream_data@@U__crt_internal_free_policy@@@@QAEPAPAU__crt_stdio_stream_data@@XZ 1007d820 f i libucrtd:_file.obj
 0001:0007c850       ?release@?$__crt_unique_heap_ptr@PAU__crt_stdio_stream_data@@U__crt_internal_free_policy@@@@QAEXXZ 1007d850 f i libucrtd:_file.obj
 0001:0007c880       ___acrt_initialize_stdio   1007d880 f   libucrtd:_file.obj
 0001:0007c9f0       ___acrt_iob_func           1007d9f0 f   libucrtd:_file.obj
 0001:0007ca00       ___acrt_uninitialize_stdio 1007da00 f   libucrtd:_file.obj
 0001:0007ca80       __get_stream_buffer_pointers 1007da80 f   libucrtd:_file.obj
 0001:0007cb60       __lock_file                1007db60 f   libucrtd:_file.obj
 0001:0007cb90       __unlock_file              1007db90 f   libucrtd:_file.obj
 0001:0007cbc0       __get_printf_count_output  1007dbc0 f   libucrtd:printf_count_output.obj
 0001:0007cbf0       __set_printf_count_output  1007dbf0 f   libucrtd:printf_count_output.obj
 0001:0007cc50       ?has_any_buffer@__crt_stdio_stream@@QBE_NXZ 1007dc50 f i libucrtd:_sftbuf.obj
 0001:0007cc70       ?has_any_of@__crt_stdio_stream@@QBE_NJ@Z 1007dc70 f i libucrtd:_sftbuf.obj
 0001:0007ccb0       ?has_temporary_buffer@__crt_stdio_stream@@QBE_NXZ 1007dcb0 f i libucrtd:_sftbuf.obj
 0001:0007ccd0       ?set_flags@__crt_stdio_stream@@QBE_NJ@Z 1007dcd0 f i libucrtd:_sftbuf.obj
 0001:0007cd20       ?unset_flags@__crt_stdio_stream@@QBE_NJ@Z 1007dd20 f i libucrtd:_sftbuf.obj
 0001:0007cd70       ___acrt_stdio_begin_temporary_buffering_nolock 1007dd70 f   libucrtd:_sftbuf.obj
 0001:0007cf30       ___acrt_stdio_end_temporary_buffering_nolock 1007df30 f   libucrtd:_sftbuf.obj
 0001:0007cfc0       ??$?RU__crt_locale_data@@@__crt_internal_free_policy@@QBEXQBU__crt_locale_data@@@Z 1007dfc0 f i libucrtd:wsetlocale.obj
 0001:0007cfe0       ??$?RU__crt_locale_pointers@@@__crt_internal_free_policy@@QBEXQBU__crt_locale_pointers@@@Z 1007dfe0 f i libucrtd:wsetlocale.obj
 0001:0007d000       ??$?RU__crt_multibyte_data@@@__crt_internal_free_policy@@QBEXQBU__crt_multibyte_data@@@Z 1007e000 f i libucrtd:wsetlocale.obj
 0001:0007d5f0       ??0?$__crt_unique_heap_ptr@U__crt_locale_data@@U__crt_internal_free_policy@@@@QAE@QAU__crt_locale_data@@@Z 1007e5f0 f i libucrtd:wsetlocale.obj
 0001:0007d610       ??0?$__crt_unique_heap_ptr@U__crt_locale_pointers@@U__crt_internal_free_policy@@@@QAE@QAU__crt_locale_pointers@@@Z 1007e610 f i libucrtd:wsetlocale.obj
 0001:0007d630       ??0?$__crt_unique_heap_ptr@U__crt_multibyte_data@@U__crt_internal_free_policy@@@@QAE@QAU__crt_multibyte_data@@@Z 1007e630 f i libucrtd:wsetlocale.obj
 0001:0007d650       ??0_expandlocale_locale_name_cache@@QAE@QA_WIQAU__crt_qualified_locale_data@@@Z 1007e650 f i libucrtd:wsetlocale.obj
 0001:0007d6c0       ??1?$__crt_unique_heap_ptr@U__crt_locale_data@@U__crt_internal_free_policy@@@@QAE@XZ 1007e6c0 f i libucrtd:wsetlocale.obj
 0001:0007d6e0       ??1?$__crt_unique_heap_ptr@U__crt_locale_pointers@@U__crt_internal_free_policy@@@@QAE@XZ 1007e6e0 f i libucrtd:wsetlocale.obj
 0001:0007d700       ??1?$__crt_unique_heap_ptr@U__crt_multibyte_data@@U__crt_internal_free_policy@@@@QAE@XZ 1007e700 f i libucrtd:wsetlocale.obj
 0001:0007d720       ??1_expandlocale_locale_name_cache@@QAE@XZ 1007e720 f i libucrtd:wsetlocale.obj
 0001:0007d780       ??B?$__crt_unique_heap_ptr@U__crt_locale_data@@U__crt_internal_free_policy@@@@QBE_NXZ 1007e780 f i libucrtd:wsetlocale.obj
 0001:0007d7a0       ??B?$__crt_unique_heap_ptr@U__crt_locale_pointers@@U__crt_internal_free_policy@@@@QBE_NXZ 1007e7a0 f i libucrtd:wsetlocale.obj
 0001:0007d7c0       ??B?$__crt_unique_heap_ptr@U__crt_multibyte_data@@U__crt_internal_free_policy@@@@QBE_NXZ 1007e7c0 f i libucrtd:wsetlocale.obj
 0001:0007dbb0       ?commit_locale_name@_expandlocale_locale_name_cache@@QAEXQB_WI@Z 1007ebb0 f i libucrtd:wsetlocale.obj
 0001:0007dc10       ?commit_locale_name_cache_already_updated@_expandlocale_locale_name_cache@@QAEXQB_WI@Z 1007ec10 f i libucrtd:wsetlocale.obj
 0001:0007dc70       ?detach@?$__crt_unique_heap_ptr@U__crt_locale_data@@U__crt_internal_free_policy@@@@QAEPAU__crt_locale_data@@XZ 1007ec70 f i libucrtd:wsetlocale.obj
 0001:0007dca0       ?detach@?$__crt_unique_heap_ptr@U__crt_locale_pointers@@U__crt_internal_free_policy@@@@QAEPAU__crt_locale_pointers@@XZ 1007eca0 f i libucrtd:wsetlocale.obj
 0001:0007dcd0       ?detach@?$__crt_unique_heap_ptr@U__crt_multibyte_data@@U__crt_internal_free_policy@@@@QAEPAU__crt_multibyte_data@@XZ 1007ecd0 f i libucrtd:wsetlocale.obj
 0001:0007dd00       ?get@?$__crt_unique_heap_ptr@U__crt_locale_data@@U__crt_internal_free_policy@@@@QBEPAU__crt_locale_data@@XZ 1007ed00 f i libucrtd:wsetlocale.obj
 0001:0007dd20       ?get@?$__crt_unique_heap_ptr@U__crt_locale_pointers@@U__crt_internal_free_policy@@@@QBEPAU__crt_locale_pointers@@XZ 1007ed20 f i libucrtd:wsetlocale.obj
 0001:0007dd40       ?get@?$__crt_unique_heap_ptr@U__crt_multibyte_data@@U__crt_internal_free_policy@@@@QBEPAU__crt_multibyte_data@@XZ 1007ed40 f i libucrtd:wsetlocale.obj
 0001:0007dd60       ?is_valid@?$__crt_unique_heap_ptr@U__crt_locale_data@@U__crt_internal_free_policy@@@@QBE_NXZ 1007ed60 f i libucrtd:wsetlocale.obj
 0001:0007dd90       ?is_valid@?$__crt_unique_heap_ptr@U__crt_locale_pointers@@U__crt_internal_free_policy@@@@QBE_NXZ 1007ed90 f i libucrtd:wsetlocale.obj
 0001:0007ddc0       ?is_valid@?$__crt_unique_heap_ptr@U__crt_multibyte_data@@U__crt_internal_free_policy@@@@QBE_NXZ 1007edc0 f i libucrtd:wsetlocale.obj
 0001:0007ddf0       ?release@?$__crt_unique_heap_ptr@U__crt_locale_data@@U__crt_internal_free_policy@@@@QAEXXZ 1007edf0 f i libucrtd:wsetlocale.obj
 0001:0007de20       ?release@?$__crt_unique_heap_ptr@U__crt_locale_pointers@@U__crt_internal_free_policy@@@@QAEXXZ 1007ee20 f i libucrtd:wsetlocale.obj
 0001:0007de50       ?release@?$__crt_unique_heap_ptr@U__crt_multibyte_data@@U__crt_internal_free_policy@@@@QAEXXZ 1007ee50 f i libucrtd:wsetlocale.obj
 0001:0007de80       ___acrt_copy_locale_name   1007ee80 f   libucrtd:wsetlocale.obj
 0001:0007df20       ___acrt_set_locale_changed 1007ef20 f   libucrtd:wsetlocale.obj
 0001:0007df40       ___acrt_uninitialize_locale 1007ef40 f   libucrtd:wsetlocale.obj
 0001:0007df60       ___ascii_tolower           1007ef60 f i libucrtd:wsetlocale.obj
 0001:0007df80       ___ascii_towlower          1007ef80 f i libucrtd:wsetlocale.obj
 0001:0007dfa0       ___lc_lctowcs              1007efa0 f   libucrtd:wsetlocale.obj
 0001:0007e050       ___lc_wcstolc              1007f050 f   libucrtd:wsetlocale.obj
 0001:0007e280       __configthreadlocale       1007f280 f   libucrtd:wsetlocale.obj
 0001:0007e400       __create_locale            1007f400 f   libucrtd:wsetlocale.obj
 0001:0007ea40       __free_locale              1007fa40 f   libucrtd:wsetlocale.obj
 0001:0007eb70       __get_current_locale       1007fb70 f   libucrtd:wsetlocale.obj
 0001:0007ec40       __wcreate_locale           1007fc40 f   libucrtd:wsetlocale.obj
 0001:0007ee80       __wcscats                  1007fe80 f   libucrtd:wsetlocale.obj
 0001:0007ef00       __wsetlocale               1007ff00 f   libucrtd:wsetlocale.obj
 0001:00080600       ___p___mb_cur_max          10081600 f   libucrtd:nlsdata.obj
 0001:00080900       ___acrt_initialize_lowio   10081900 f   libucrtd:ioinit.obj
 0001:000809a0       ___acrt_uninitialize_lowio 100819a0 f   libucrtd:ioinit.obj
 0001:00080a00       __CrtGetReportHook         10081a00 f   libucrtd:dbgrptt.obj
 0001:00080a10       __CrtSetReportFile         10081a10 f   libucrtd:dbgrptt.obj
 0001:00080b10       __CrtSetReportHook         10081b10 f   libucrtd:dbgrptt.obj
 0001:00080b30       __CrtSetReportMode         10081b30 f   libucrtd:dbgrptt.obj
 0001:00080c70       __VCrtDbgReportA           10081c70 f   libucrtd:dbgrptt.obj
 0001:000814f0       __VCrtDbgReportW           100824f0 f   libucrtd:dbgrptt.obj
 0001:00081ea0       __snprintf_s               10082ea0 f i libucrtd:dbgrptt.obj
 0001:00081ee0       __vsnprintf_s              10082ee0 f i libucrtd:dbgrptt.obj
 0001:00081f10       __vsnprintf_s_l            10082f10 f i libucrtd:dbgrptt.obj
 0001:000820a0       ??$__acrt_wcs_to_mbs_cp@U__crt_win32_buffer_no_resizing@@@@YAHQB_WAAV?$__crt_win32_buffer@DU__crt_win32_buffer_no_resizing@@@@I@Z 100830a0 f i libucrtd:getmodulefilenamea.obj
 0001:000820d0       ??0?$__crt_win32_buffer@DU__crt_win32_buffer_no_resizing@@@@QAE@QADI@Z 100830d0 f i libucrtd:getmodulefilenamea.obj
 0001:00082120       ??1?$__crt_win32_buffer@DU__crt_win32_buffer_no_resizing@@@@QAE@XZ 10083120 f i libucrtd:getmodulefilenamea.obj
 0001:00082190       ?__acrt_get_utf8_acp_compatibility_codepage@@YAIXZ 10083190 f i libucrtd:getmodulefilenamea.obj
 0001:00082220       ?_deallocate@?$__crt_win32_buffer@DU__crt_win32_buffer_no_resizing@@@@AAEXXZ 10083220 f i libucrtd:getmodulefilenamea.obj
 0001:00082260       ?allocate@?$__crt_win32_buffer@DU__crt_win32_buffer_no_resizing@@@@QAEHI@Z 10083260 f i libucrtd:getmodulefilenamea.obj
 0001:000822d0       ?allocate@__crt_win32_buffer_no_resizing@@SAHQAPAXIABV__crt_win32_buffer_empty_debug_info@@@Z 100832d0 f i libucrtd:getmodulefilenamea.obj
 0001:000822f0       ?capacity@?$__crt_win32_buffer@DU__crt_win32_buffer_no_resizing@@@@QBEIXZ 100832f0 f i libucrtd:getmodulefilenamea.obj
 0001:00082310       ?data@?$__crt_win32_buffer@DU__crt_win32_buffer_no_resizing@@@@QAEPADXZ 10083310 f i libucrtd:getmodulefilenamea.obj
 0001:00082330       ?deallocate@__crt_win32_buffer_no_resizing@@SAXQAXABV__crt_win32_buffer_empty_debug_info@@@Z 10083330 f i libucrtd:getmodulefilenamea.obj
 0001:00082340       ?debug_info@?$__crt_win32_buffer@DU__crt_win32_buffer_no_resizing@@@@QBEABV__crt_win32_buffer_empty_debug_info@@XZ 10083340 f i libucrtd:getmodulefilenamea.obj
 0001:00082350       ?set_to_nullptr@?$__crt_win32_buffer@DU__crt_win32_buffer_no_resizing@@@@QAEXXZ 10083350 f i libucrtd:getmodulefilenamea.obj
 0001:00082390       ?size@?$__crt_win32_buffer@DU__crt_win32_buffer_no_resizing@@@@QAEXI@Z 10083390 f i libucrtd:getmodulefilenamea.obj
 0001:000823b0       ?size@?$__crt_win32_buffer@DU__crt_win32_buffer_no_resizing@@@@QBEIXZ 100833b0 f i libucrtd:getmodulefilenamea.obj
 0001:000823d0       ___acrt_GetModuleFileNameA 100833d0 f   libucrtd:getmodulefilenamea.obj
 0001:000826b0       ??$message_box@$$TABQBDABQBDK@?$__crt_char_traits@D@@SAH$$QA$$TABQBD1$$QAK@Z 100836b0 f i libucrtd:crtmbox.obj
 0001:000826e0       ??$message_box@$$TABQB_WABQB_WK@?$__crt_char_traits@_W@@SAH$$QA$$TABQB_W1$$QAK@Z 100836e0 f i libucrtd:crtmbox.obj
 0001:00082710       ??$message_box@PAUHWND__@@ABQBDABQBDABI@?$__crt_char_traits@D@@SAH$$QAPAUHWND__@@ABQBD1ABI@Z 10083710 f i libucrtd:crtmbox.obj
 0001:00082740       ??$message_box@PAUHWND__@@ABQB_WABQB_WABI@?$__crt_char_traits@_W@@SAH$$QAPAUHWND__@@ABQB_W1ABI@Z 10083740 f i libucrtd:crtmbox.obj
 0001:00082770       ??$output_debug_string@ABQBD@?$__crt_char_traits@D@@SAXABQBD@Z 10083770 f i libucrtd:crtmbox.obj
 0001:00082790       ??$output_debug_string@ABQB_W@?$__crt_char_traits@_W@@SAXABQB_W@Z 10083790 f i libucrtd:crtmbox.obj
 0001:000827b0       ___acrt_show_narrow_message_box 100837b0 f   libucrtd:crtmbox.obj
 0001:000827d0       ___acrt_show_wide_message_box 100837d0 f   libucrtd:crtmbox.obj
 0001:000827f0       ___acrt_initialize_locks   100837f0 f   libucrtd:locks.obj
 0001:00082850       ___acrt_lock               10083850 f   libucrtd:locks.obj
 0001:00082870       ___acrt_uninitialize_locks 10083870 f   libucrtd:locks.obj
 0001:000828c0       ___acrt_unlock             100838c0 f   libucrtd:locks.obj
 0001:000828e0       __lock_locales             100838e0 f   libucrtd:locks.obj
 0001:00082900       __unlock_locales           10083900 f   libucrtd:locks.obj
 0001:00082920       ??$?B$$A6AXH@Z@__crt_fast_encoded_nullptr_t@@QBEP6AXH@ZXZ 10083920 f i libucrtd:signal.obj
 0001:00082a10       ??$__crt_fast_decode_pointer@P6AXH@Z@@YAP6AXH@ZQ6AXH@Z@Z 10083a10 f i libucrtd:signal.obj
 0001:00082a40       ??$__crt_fast_encode_pointer@P6AXH@Z@@YAP6AXH@ZQ6AXH@Z@Z 10083a40 f i libucrtd:signal.obj
 0001:00082cf0       ?initialize@?$dual_state_global@P6AXH@Z@__crt_state_management@@QAEXQ6AXH@Z@Z 10083cf0 f i libucrtd:signal.obj
 0001:00082e30       ?value@?$dual_state_global@P6AXH@Z@__crt_state_management@@QAEAAP6AXH@ZXZ 10083e30 f i libucrtd:signal.obj
 0001:00082e50       ___acrt_get_sigabrt_handler 10083e50 f   libucrtd:signal.obj
 0001:00082e70       ___acrt_initialize_signal_handlers 10083e70 f   libucrtd:signal.obj
 0001:00082eb0       ___fpecode                 10083eb0 f   libucrtd:signal.obj
 0001:00082ec0       ___pxcptinfoptrs           10083ec0 f   libucrtd:signal.obj
 0001:00082ed0       _raise                     10083ed0 f   libucrtd:signal.obj
 0001:000832a0       _signal                    100842a0 f   libucrtd:signal.obj
 0001:00083520       __msize                    10084520 f   libucrtd:msize.obj
 0001:00083540       __msize_base               10084540 f   libucrtd:msize.obj
 0001:000835e0       __realloc_base             100845e0 f   libucrtd:realloc_base.obj
 0001:000836a0       ??$?B$$A6GHPA_WKJ@Z@__crt_fast_encoded_nullptr_t@@QBEP6GHPA_WKJ@ZXZ 100846a0 f i libucrtd:winapi_thunks.obj
 0001:00083790       ??$__crt_fast_decode_pointer@P6GHPA_WKJ@Z@@YAP6GHPA_WKJ@ZQ6GH0KJ@Z@Z 10084790 f i libucrtd:winapi_thunks.obj
 0001:000837c0       ??$__crt_fast_decode_pointer@PAX@@YAPAXQAX@Z 100847c0 f i libucrtd:winapi_thunks.obj
 0001:000837f0       ??$__crt_fast_encode_pointer@P6GHPA_WKJ@Z@@YAP6GHPA_WKJ@ZQ6GH0KJ@Z@Z 100847f0 f i libucrtd:winapi_thunks.obj
 0001:00084150       _GetCurrentThreadEffectiveToken 10085150 f i libucrtd:winapi_thunks.obj
 0001:00084160       ___acrt_AppPolicyGetProcessTerminationMethodInternal@4 10085160 f   libucrtd:winapi_thunks.obj
 0001:000841a0       ___acrt_AppPolicyGetShowDeveloperDiagnosticInternal@4 100851a0 f   libucrtd:winapi_thunks.obj
 0001:000841e0       ___acrt_AppPolicyGetThreadInitializationTypeInternal@4 100851e0 f   libucrtd:winapi_thunks.obj
 0001:00084220       ___acrt_AppPolicyGetWindowingModelInternal@4 10085220 f   libucrtd:winapi_thunks.obj
 0001:00084260       ___acrt_AreFileApisANSI@0  10085260 f   libucrtd:winapi_thunks.obj
 0001:000842a0       ___acrt_CompareStringEx@36 100852a0 f   libucrtd:winapi_thunks.obj
 0001:00084320       ___acrt_EnumSystemLocalesEx@16 10085320 f   libucrtd:winapi_thunks.obj
 0001:00084380       ___acrt_FlsAlloc@4         10085380 f   libucrtd:winapi_thunks.obj
 0001:000843c0       ___acrt_FlsFree@4          100853c0 f   libucrtd:winapi_thunks.obj
 0001:00084400       ___acrt_FlsGetValue@4      10085400 f   libucrtd:winapi_thunks.obj
 0001:00084440       ___acrt_FlsSetValue@8      10085440 f   libucrtd:winapi_thunks.obj
 0001:00084490       ___acrt_GetDateFormatEx@28 10085490 f   libucrtd:winapi_thunks.obj
 0001:00084510       ___acrt_GetEnabledXStateFeatures@0 10085510 f   libucrtd:winapi_thunks.obj
 0001:00084550       ___acrt_GetLocaleInfoEx@16 10085550 f   libucrtd:winapi_thunks.obj
 0001:000845b0       ___acrt_GetSystemTimePreciseAsFileTime@4 100855b0 f   libucrtd:winapi_thunks.obj
 0001:000845f0       ___acrt_GetTimeFormatEx@24 100855f0 f   libucrtd:winapi_thunks.obj
 0001:00084660       ___acrt_GetUserDefaultLocaleName@8 10085660 f   libucrtd:winapi_thunks.obj
 0001:000846b0       ___acrt_GetXStateFeaturesMask@8 100856b0 f   libucrtd:winapi_thunks.obj
 0001:000846f0       ___acrt_InitializeCriticalSectionEx@12 100856f0 f   libucrtd:winapi_thunks.obj
 0001:00084740       ___acrt_IsValidLocaleName@4 10085740 f   libucrtd:winapi_thunks.obj
 0001:00084790       ___acrt_LCIDToLocaleName@16 10085790 f   libucrtd:winapi_thunks.obj
 0001:000847f0       ___acrt_LCMapStringEx@36   100857f0 f   libucrtd:winapi_thunks.obj
 0001:00084870       ___acrt_LocaleNameToLCID@8 10085870 f   libucrtd:winapi_thunks.obj
 0001:000848c0       ___acrt_LocateXStateFeature@12 100858c0 f   libucrtd:winapi_thunks.obj
 0001:00084910       ___acrt_MessageBoxA@16     10085910 f   libucrtd:winapi_thunks.obj
 0001:00084960       ___acrt_MessageBoxW@16     10085960 f   libucrtd:winapi_thunks.obj
 0001:000849b0       ___acrt_RoInitialize@4     100859b0 f   libucrtd:winapi_thunks.obj
 0001:000849f0       ___acrt_RoUninitialize@0   100859f0 f   libucrtd:winapi_thunks.obj
 0001:00084a20       ___acrt_RtlGenRandom@8     10085a20 f   libucrtd:winapi_thunks.obj
 0001:00084a60       ___acrt_SetThreadStackGuarantee@4 10085a60 f   libucrtd:winapi_thunks.obj
 0001:00084aa0       ___acrt_can_show_message_box 10085aa0 f   libucrtd:winapi_thunks.obj
 0001:00084ae0       ___acrt_can_use_vista_locale_apis 10085ae0 f   libucrtd:winapi_thunks.obj
 0001:00084b10       ___acrt_can_use_xstate_apis 10085b10 f   libucrtd:winapi_thunks.obj
 0001:00084b40       ___acrt_eagerly_load_locale_apis 10085b40 f   libucrtd:winapi_thunks.obj
 0001:00084b80       ___acrt_get_parent_window  10085b80 f   libucrtd:winapi_thunks.obj
 0001:00084bf0       ___acrt_initialize_winapi_thunks 10085bf0 f   libucrtd:winapi_thunks.obj
 0001:00084c60       ___acrt_is_interactive     10085c60 f   libucrtd:winapi_thunks.obj
 0001:00084d10       ___acrt_uninitialize_winapi_thunks 10085d10 f   libucrtd:winapi_thunks.obj
 0001:00084d80       __chvalidator              10085d80 f   libucrtd:isctype.obj
 0001:00084dd0       __chvalidator_l            10085dd0 f   libucrtd:isctype.obj
 0001:00084e50       __isctype                  10085e50 f   libucrtd:isctype.obj
 0001:00084e90       __isctype_l                10085e90 f   libucrtd:isctype.obj
 0001:00085010       __isleadbyte_fast_internal 10086010 f i libucrtd:isctype.obj
 0001:00085030       ??$?RU__crt_stdio_stream_data@@@__crt_internal_free_policy@@QBEXQBU__crt_stdio_stream_data@@@Z 10086030 f i libucrtd:stream.obj
 0001:00085050       ??0?$__crt_unique_heap_ptr@U__crt_stdio_stream_data@@U__crt_internal_free_policy@@@@QAE@QAU__crt_stdio_stream_data@@@Z 10086050 f i libucrtd:stream.obj
 0001:00085070       ??0__crt_stdio_stream@@QAE@QAU__crt_stdio_stream_data@@@Z 10086070 f i libucrtd:stream.obj
 0001:00085090       ??0__crt_stdio_stream@@QAE@XZ 10086090 f i libucrtd:stream.obj
 0001:000850b0       ??1?$__crt_unique_heap_ptr@U__crt_stdio_stream_data@@U__crt_internal_free_policy@@@@QAE@XZ 100860b0 f i libucrtd:stream.obj
 0001:000850d0       ?__acrt_stdio_allocate_stream@@YA?AV__crt_stdio_stream@@XZ 100860d0 f   libucrtd:stream.obj
 0001:000851c0       ?__acrt_stdio_free_stream@@YAXV__crt_stdio_stream@@@Z 100861c0 f   libucrtd:stream.obj
 0001:00085240       ?deallocate@__crt_stdio_stream@@QAEXXZ 10086240 f i libucrtd:stream.obj
 0001:00085260       ?detach@?$__crt_unique_heap_ptr@U__crt_stdio_stream_data@@U__crt_internal_free_policy@@@@QAEPAU__crt_stdio_stream_data@@XZ 10086260 f i libucrtd:stream.obj
 0001:000853d0       ?lock@__crt_stdio_stream@@QBEXXZ 100863d0 f i libucrtd:stream.obj
 0001:000853f0       ?release@?$__crt_unique_heap_ptr@U__crt_stdio_stream_data@@U__crt_internal_free_policy@@@@QAEXXZ 100863f0 f i libucrtd:stream.obj
 0001:00085420       ?try_allocate@__crt_stdio_stream@@QAE_NXZ 10086420 f i libucrtd:stream.obj
 0001:00085470       ??$__acrt_stdio_parse_mode@D@@YA?AU__acrt_stdio_stream_mode@@QBD@Z 10086470 f i libucrtd:openfile.obj
 0001:00085ce0       ??$__acrt_stdio_parse_mode@_W@@YA?AU__acrt_stdio_stream_mode@@QB_W@Z 10086ce0 f i libucrtd:openfile.obj
 0001:00086870       ??$tcsncmp@AAPBDAAY02$$CBDI@?$__crt_char_traits@D@@SAHAAPBDAAY02$$CBD$$QAI@Z 10087870 f i libucrtd:openfile.obj
 0001:00086890       ??$tcsncmp@AAPB_WAAY02$$CB_WI@?$__crt_char_traits@_W@@SAHAAPB_WAAY02$$CB_W$$QAI@Z 10087890 f i libucrtd:openfile.obj
 0001:000868b0       ??$tcsnicmp@AAPBDAAY04$$CBDI@?$__crt_char_traits@D@@SAHAAPBDAAY04$$CBD$$QAI@Z 100878b0 f i libucrtd:openfile.obj
 0001:000868d0       ??$tcsnicmp@AAPBDAAY06$$CBDI@?$__crt_char_traits@D@@SAHAAPBDAAY06$$CBD$$QAI@Z 100878d0 f i libucrtd:openfile.obj
 0001:000868f0       ??$tcsnicmp@AAPBDAAY07$$CBDI@?$__crt_char_traits@D@@SAHAAPBDAAY07$$CBD$$QAI@Z 100878f0 f i libucrtd:openfile.obj
 0001:00086910       ??$tcsnicmp@AAPB_WAAY04$$CB_WI@?$__crt_char_traits@_W@@SAHAAPB_WAAY04$$CB_W$$QAI@Z 10087910 f i libucrtd:openfile.obj
 0001:00086930       ??$tcsnicmp@AAPB_WAAY06$$CB_WI@?$__crt_char_traits@_W@@SAHAAPB_WAAY06$$CB_W$$QAI@Z 10087930 f i libucrtd:openfile.obj
 0001:00086950       ??$tcsnicmp@AAPB_WAAY07$$CB_WI@?$__crt_char_traits@_W@@SAHAAPB_WAAY07$$CB_W$$QAI@Z 10087950 f i libucrtd:openfile.obj
 0001:00086970       ??$tsopen_s@PAHABQBDABHABHH@?$__crt_char_traits@D@@SAH$$QAPAHABQBDABH2$$QAH@Z 10087970 f i libucrtd:openfile.obj
 0001:000869a0       ??$tsopen_s@PAHABQB_WABHABHH@?$__crt_char_traits@_W@@SAH$$QAPAHABQB_WABH2$$QAH@Z 100879a0 f i libucrtd:openfile.obj
 0001:000869d0       ?__acrt_stdio_parse_mode_D@@YA_NAAU__acrt_stdio_stream_mode@@@Z 100879d0 f i libucrtd:openfile.obj
 0001:00086a00       ?__acrt_stdio_parse_mode_N@@YA_NAAU__acrt_stdio_stream_mode@@@Z 10087a00 f i libucrtd:openfile.obj
 0001:00086a20       ?__acrt_stdio_parse_mode_R@@YA_NAAU__acrt_stdio_stream_mode@@AA_N@Z 10087a20 f i libucrtd:openfile.obj
 0001:00086a50       ?__acrt_stdio_parse_mode_S@@YA_NAAU__acrt_stdio_stream_mode@@AA_N@Z 10087a50 f i libucrtd:openfile.obj
 0001:00086a80       ?__acrt_stdio_parse_mode_T@@YA_NAAU__acrt_stdio_stream_mode@@@Z 10087a80 f i libucrtd:openfile.obj
 0001:00086ab0       ?__acrt_stdio_parse_mode_b@@YA_NAAU__acrt_stdio_stream_mode@@@Z 10087ab0 f i libucrtd:openfile.obj
 0001:00086ae0       ?__acrt_stdio_parse_mode_c@@YA_NAAU__acrt_stdio_stream_mode@@AA_N@Z 10087ae0 f i libucrtd:openfile.obj
 0001:00086b10       ?__acrt_stdio_parse_mode_n@@YA_NAAU__acrt_stdio_stream_mode@@AA_N@Z 10087b10 f i libucrtd:openfile.obj
 0001:00086b40       ?__acrt_stdio_parse_mode_plus@@YA_NAAU__acrt_stdio_stream_mode@@AA_N@Z 10087b40 f i libucrtd:openfile.obj
 0001:00086bb0       ?__acrt_stdio_parse_mode_t@@YA_NAAU__acrt_stdio_stream_mode@@@Z 10087bb0 f i libucrtd:openfile.obj
 0001:00086be0       ?__acrt_stdio_parse_mode_x@@YA_NAAU__acrt_stdio_stream_mode@@@Z 10087be0 f i libucrtd:openfile.obj
 0001:00086c10       __openfile                 10087c10 f   libucrtd:openfile.obj
 0001:00086c40       __wopenfile                10087c40 f   libucrtd:openfile.obj
 0001:00086f20       __close                    10087f20 f   libucrtd:close.obj
 0001:000870a0       __close_nolock             100880a0 f   libucrtd:close.obj
 0001:00087100       ?has_crt_buffer@__crt_stdio_stream@@QBE_NXZ 10088100 f i libucrtd:_freebuf.obj
 0001:00087120       ___acrt_stdio_free_buffer_nolock 10088120 f   libucrtd:_freebuf.obj
 0001:00087780       ?__acrt_stdio_reset_buffer@@YAXV__crt_stdio_stream@@@Z 10088780 f i libucrtd:fflush.obj
 0001:00087880       ?has_all_of@__crt_stdio_stream@@QBE_NJ@Z 10088880 f i libucrtd:fflush.obj
 0001:00087950       ___acrt_stdio_flush_nolock 10088950 f   libucrtd:fflush.obj
 0001:00087a20       __fflush_nolock            10088a20 f   libucrtd:fflush.obj
 0001:00087aa0       __flushall                 10088aa0 f   libucrtd:fflush.obj
 0001:00087ac0       _fflush                    10088ac0 f   libucrtd:fflush.obj
 0001:00088270       ?has_big_buffer@__crt_stdio_stream@@QBE_NXZ 10089270 f i libucrtd:_flsbuf.obj
 0001:00088370       ___acrt_stdio_flush_and_write_narrow_nolock 10089370 f   libucrtd:_flsbuf.obj
 0001:000883a0       ___acrt_stdio_flush_and_write_wide_nolock 100893a0 f   libucrtd:_flsbuf.obj
 0001:000886d0       ___acrt_get_begin_thread_init_policy 100896d0 f   libucrtd:win_policies.obj
 0001:000886f0       ___acrt_get_developer_information_policy 100896f0 f   libucrtd:win_policies.obj
 0001:00088710       ___acrt_get_process_end_policy 10089710 f   libucrtd:win_policies.obj
 0001:00088730       ___acrt_get_windowing_model_policy 10089730 f   libucrtd:win_policies.obj
 0001:00088a00       ??$__acrt_mbs_to_wcs_cp@U__crt_win32_buffer_internal_dynamic_resizing@@@@YAHQBDAAV?$__crt_win32_buffer@_WU__crt_win32_buffer_internal_dynamic_resizing@@@@I@Z 10089a00 f i libucrtd:argv_wildcards.obj
 0001:00088a30       ??$__acrt_wcs_to_mbs_cp@U__crt_win32_buffer_internal_dynamic_resizing@@@@YAHQB_WAAV?$__crt_win32_buffer@DU__crt_win32_buffer_internal_dynamic_resizing@@@@I@Z 10089a30 f i libucrtd:argv_wildcards.obj
 0001:00089980       ??$tcsncpy_s@AAPADIAAPADABI@?$__crt_char_traits@D@@SAHAAPAD$$QAI0ABI@Z 1008a980 f i libucrtd:argv_wildcards.obj
 0001:000899b0       ??$tcsncpy_s@AAPA_WIAAPA_WABI@?$__crt_char_traits@_W@@SAHAAPA_W$$QAI0ABI@Z 1008a9b0 f i libucrtd:argv_wildcards.obj
 0001:000899e0       ??$tcsncpy_s@PADABIABQBDABI@?$__crt_char_traits@D@@SAH$$QAPADABIABQBD1@Z 1008a9e0 f i libucrtd:argv_wildcards.obj
 0001:00089a10       ??$tcsncpy_s@PADIABQBDABI@?$__crt_char_traits@D@@SAH$$QAPAD$$QAIABQBDABI@Z 1008aa10 f i libucrtd:argv_wildcards.obj
 0001:00089a40       ??$tcsncpy_s@PA_WABIABQB_WABI@?$__crt_char_traits@_W@@SAH$$QAPA_WABIABQB_W1@Z 1008aa40 f i libucrtd:argv_wildcards.obj
 0001:00089a70       ??$tcsncpy_s@PA_WIABQB_WABI@?$__crt_char_traits@_W@@SAH$$QAPA_W$$QAIABQB_WABI@Z 1008aa70 f i libucrtd:argv_wildcards.obj
 0001:00089aa0       ??$tcspbrk@AAPADAAY02$$CBD@?$__crt_char_traits@D@@SAPADAAPADAAY02$$CBD@Z 1008aaa0 f i libucrtd:argv_wildcards.obj
 0001:00089ac0       ??$tcspbrk@AAPA_WAAY02$$CB_W@?$__crt_char_traits@_W@@SAPA_WAAPA_WAAY02$$CB_W@Z 1008aac0 f i libucrtd:argv_wildcards.obj
 0001:00089ae0       ??0?$__crt_unique_handle_t@U__crt_findfile_traits@@@@QAE@QAX@Z 1008aae0 f i libucrtd:argv_wildcards.obj
 0001:00089b00       ??0?$__crt_win32_buffer@DU__crt_win32_buffer_internal_dynamic_resizing@@@@QAE@XZ 1008ab00 f i libucrtd:argv_wildcards.obj
 0001:00089b50       ??0?$__crt_win32_buffer@_WU__crt_win32_buffer_internal_dynamic_resizing@@@@QAE@XZ 1008ab50 f i libucrtd:argv_wildcards.obj
 0001:00089c00       ??1?$__crt_unique_handle_t@U__crt_findfile_traits@@@@QAE@XZ 1008ac00 f i libucrtd:argv_wildcards.obj
 0001:00089c20       ??1?$__crt_win32_buffer@DU__crt_win32_buffer_internal_dynamic_resizing@@@@QAE@XZ 1008ac20 f i libucrtd:argv_wildcards.obj
 0001:00089c60       ??1?$__crt_win32_buffer@_WU__crt_win32_buffer_internal_dynamic_resizing@@@@QAE@XZ 1008ac60 f i libucrtd:argv_wildcards.obj
 0001:00089ec0       ?_deallocate@?$__crt_win32_buffer@DU__crt_win32_buffer_internal_dynamic_resizing@@@@AAEXXZ 1008aec0 f i libucrtd:argv_wildcards.obj
 0001:00089f00       ?_deallocate@?$__crt_win32_buffer@_WU__crt_win32_buffer_internal_dynamic_resizing@@@@AAEXXZ 1008af00 f i libucrtd:argv_wildcards.obj
 0001:00089f40       ?allocate@?$__crt_win32_buffer@DU__crt_win32_buffer_internal_dynamic_resizing@@@@QAEHI@Z 1008af40 f i libucrtd:argv_wildcards.obj
 0001:00089fb0       ?allocate@?$__crt_win32_buffer@_WU__crt_win32_buffer_internal_dynamic_resizing@@@@QAEHI@Z 1008afb0 f i libucrtd:argv_wildcards.obj
 0001:0008a020       ?allocate@__crt_win32_buffer_internal_dynamic_resizing@@SAHQAPAXIABV__crt_win32_buffer_empty_debug_info@@@Z 1008b020 f i libucrtd:argv_wildcards.obj
 0001:0008a160       ?capacity@?$__crt_win32_buffer@DU__crt_win32_buffer_internal_dynamic_resizing@@@@QBEIXZ 1008b160 f i libucrtd:argv_wildcards.obj
 0001:0008a180       ?capacity@?$__crt_win32_buffer@_WU__crt_win32_buffer_internal_dynamic_resizing@@@@QBEIXZ 1008b180 f i libucrtd:argv_wildcards.obj
 0001:0008a1a0       ?close@?$__crt_unique_handle_t@U__crt_findfile_traits@@@@QAEXXZ 1008b1a0 f i libucrtd:argv_wildcards.obj
 0001:0008a1e0       ?close@__crt_findfile_traits@@SA_NPAX@Z 1008b1e0 f i libucrtd:argv_wildcards.obj
 0001:0008a210       ?data@?$__crt_win32_buffer@DU__crt_win32_buffer_internal_dynamic_resizing@@@@QAEPADXZ 1008b210 f i libucrtd:argv_wildcards.obj
 0001:0008a230       ?data@?$__crt_win32_buffer@_WU__crt_win32_buffer_internal_dynamic_resizing@@@@QAEPA_WXZ 1008b230 f i libucrtd:argv_wildcards.obj
 0001:0008a250       ?deallocate@__crt_win32_buffer_internal_dynamic_resizing@@SAXQAXABV__crt_win32_buffer_empty_debug_info@@@Z 1008b250 f i libucrtd:argv_wildcards.obj
 0001:0008a270       ?debug_info@?$__crt_win32_buffer@DU__crt_win32_buffer_internal_dynamic_resizing@@@@QBEABV__crt_win32_buffer_empty_debug_info@@XZ 1008b270 f i libucrtd:argv_wildcards.obj
 0001:0008a280       ?debug_info@?$__crt_win32_buffer@_WU__crt_win32_buffer_internal_dynamic_resizing@@@@QBEABV__crt_win32_buffer_empty_debug_info@@XZ 1008b280 f i libucrtd:argv_wildcards.obj
 0001:0008a590       ?get@?$__crt_unique_handle_t@U__crt_findfile_traits@@@@QBEPAXXZ 1008b590 f i libucrtd:argv_wildcards.obj
 0001:0008a600       ?get_invalid_value@__crt_findfile_traits@@SAPAXXZ 1008b600 f i libucrtd:argv_wildcards.obj
 0001:0008a690       ?set_to_nullptr@?$__crt_win32_buffer@DU__crt_win32_buffer_internal_dynamic_resizing@@@@QAEXXZ 1008b690 f i libucrtd:argv_wildcards.obj
 0001:0008a6d0       ?set_to_nullptr@?$__crt_win32_buffer@_WU__crt_win32_buffer_internal_dynamic_resizing@@@@QAEXXZ 1008b6d0 f i libucrtd:argv_wildcards.obj
 0001:0008a710       ?size@?$__crt_win32_buffer@DU__crt_win32_buffer_internal_dynamic_resizing@@@@QAEXI@Z 1008b710 f i libucrtd:argv_wildcards.obj
 0001:0008a730       ?size@?$__crt_win32_buffer@_WU__crt_win32_buffer_internal_dynamic_resizing@@@@QAEXI@Z 1008b730 f i libucrtd:argv_wildcards.obj
 0001:0008a790       ?strpbrk@@YAPADQADQBD@Z    1008b790 f i libucrtd:argv_wildcards.obj
 0001:0008a7b0       ?wcspbrk@@YAPA_WPA_WPB_W@Z 1008b7b0 f i libucrtd:argv_wildcards.obj
 0001:0008a7d0       ___acrt_expand_narrow_argv_wildcards 1008b7d0 f   libucrtd:argv_wildcards.obj
 0001:0008a7f0       ___acrt_expand_wide_argv_wildcards 1008b7f0 f   libucrtd:argv_wildcards.obj
 0001:0008a8d0       ??$initialize_from_array@$$BY10BAA@E@?$dual_state_global@PAE@__crt_state_management@@QAAXAAY10BAA@E@Z 1008b8d0 f i libucrtd:mbctype.obj
 0001:0008a920       ??$initialize_from_array@$$BY10BAB@E@?$dual_state_global@PAE@__crt_state_management@@QAAXAAY10BAB@E@Z 1008b920 f i libucrtd:mbctype.obj
 0001:0008ab90       ?dangerous_get_state_array@?$dual_state_global@PAE@__crt_state_management@@QAEPAPAEXZ 1008bb90 f i libucrtd:mbctype.obj
 0001:0008aba0       ?dangerous_get_state_array@?$dual_state_global@PAU__crt_multibyte_data@@@__crt_state_management@@QAEPAPAU__crt_multibyte_data@@XZ 1008bba0 f i libucrtd:mbctype.obj
 0001:0008ac70       ?initialize@?$dual_state_global@PAU__crt_multibyte_data@@@__crt_state_management@@QAEXQAU__crt_multibyte_data@@@Z 1008bc70 f i libucrtd:mbctype.obj
 0001:0008b3d0       ?value@?$dual_state_global@PAE@__crt_state_management@@QAEAAPAEXZ 1008c3d0 f i libucrtd:mbctype.obj
 0001:0008b3f0       ___acrt_initialize_multibyte 1008c3f0 f   libucrtd:mbctype.obj
 0001:0008b4a0       ___acrt_update_thread_multibyte_data 1008c4a0 f   libucrtd:mbctype.obj
 0001:0008b4c0       ___p__mbcasemap            1008c4c0 f   libucrtd:mbctype.obj
 0001:0008b4e0       ___p__mbctype              1008c4e0 f   libucrtd:mbctype.obj
 0001:0008b500       __getmbcp                  1008c500 f   libucrtd:mbctype.obj
 0001:0008b570       __setmbcp                  1008c570 f   libucrtd:mbctype.obj
 0001:0008b5a0       __setmbcp_nolock           1008c5a0 f   libucrtd:mbctype.obj
 0001:0008bb11       __ismbbalnum               1008cb11 f   libucrtd:ismbbyte.obj
 0001:0008bb2c       __ismbbalnum_l             1008cb2c f   libucrtd:ismbbyte.obj
 0001:0008bb48       __ismbbalpha               1008cb48 f   libucrtd:ismbbyte.obj
 0001:0008bb63       __ismbbalpha_l             1008cb63 f   libucrtd:ismbbyte.obj
 0001:0008bb7f       __ismbbblank               1008cb7f f   libucrtd:ismbbyte.obj
 0001:0008bba2       __ismbbblank_l             1008cba2 f   libucrtd:ismbbyte.obj
 0001:0008bbc6       __ismbbgraph               1008cbc6 f   libucrtd:ismbbyte.obj
 0001:0008bbe1       __ismbbgraph_l             1008cbe1 f   libucrtd:ismbbyte.obj
 0001:0008bbfd       __ismbbkalnum              1008cbfd f   libucrtd:ismbbyte.obj
 0001:0008bc15       __ismbbkalnum_l            1008cc15 f   libucrtd:ismbbyte.obj
 0001:0008bc2e       __ismbbkana                1008cc2e f   libucrtd:ismbbyte.obj
 0001:0008bc41       __ismbbkana_l              1008cc41 f   libucrtd:ismbbyte.obj
 0001:0008bc90       __ismbbkprint              1008cc90 f   libucrtd:ismbbyte.obj
 0001:0008bca8       __ismbbkprint_l            1008cca8 f   libucrtd:ismbbyte.obj
 0001:0008bcc1       __ismbbkpunct              1008ccc1 f   libucrtd:ismbbyte.obj
 0001:0008bcd9       __ismbbkpunct_l            1008ccd9 f   libucrtd:ismbbyte.obj
 0001:0008bcf2       __ismbblead                1008ccf2 f   libucrtd:ismbbyte.obj
 0001:0008bd0a       __ismbblead_l              1008cd0a f   libucrtd:ismbbyte.obj
 0001:0008bd23       __ismbbprint               1008cd23 f   libucrtd:ismbbyte.obj
 0001:0008bd3e       __ismbbprint_l             1008cd3e f   libucrtd:ismbbyte.obj
 0001:0008bd5a       __ismbbpunct               1008cd5a f   libucrtd:ismbbyte.obj
 0001:0008bd72       __ismbbpunct_l             1008cd72 f   libucrtd:ismbbyte.obj
 0001:0008bd8b       __ismbbtrail               1008cd8b f   libucrtd:ismbbyte.obj
 0001:0008bda3       __ismbbtrail_l             1008cda3 f   libucrtd:ismbbyte.obj
 0001:0008bdc0       ___acrt_initialize_command_line 1008cdc0 f   libucrtd:argv_data.obj
 0001:0008bde0       ___acrt_uninitialize_command_line 1008cde0 f   libucrtd:argv_data.obj
 0001:0008bdf0       ___p___argc                1008cdf0 f   libucrtd:argv_data.obj
 0001:0008be00       ___p___argv                1008ce00 f   libucrtd:argv_data.obj
 0001:0008be10       ___p___wargv               1008ce10 f   libucrtd:argv_data.obj
 0001:0008be20       ___p__acmdln               1008ce20 f   libucrtd:argv_data.obj
 0001:0008be30       ___p__pgmptr               1008ce30 f   libucrtd:argv_data.obj
 0001:0008be40       ___p__wcmdln               1008ce40 f   libucrtd:argv_data.obj
 0001:0008be50       ___p__wpgmptr              1008ce50 f   libucrtd:argv_data.obj
 0001:0008be60       __get_pgmptr               1008ce60 f   libucrtd:argv_data.obj
 0001:0008bf70       __get_wpgmptr              1008cf70 f   libucrtd:argv_data.obj
 0001:0008c130       ___acrt_MultiByteToWideChar 1008d130 f   libucrtd:multibytetowidechar.obj
 0001:0008c230       ___acrt_WideCharToMultiByte 1008d230 f   libucrtd:widechartomultibyte.obj
 0001:0008c372       ___dcrt_get_narrow_environment_from_os 1008d372 f   libucrtd:get_environment_from_os.obj
 0001:0008c404       ___dcrt_get_wide_environment_from_os 1008d404 f   libucrtd:get_environment_from_os.obj
 0001:0008cd99       ??$get_or_create_environment_nolock@$$V@?$__crt_char_traits@D@@SAPAPADXZ 1008dd99 f i libucrtd:setenv.obj
 0001:0008cd9e       ??$get_or_create_environment_nolock@$$V@?$__crt_char_traits@_W@@SAPAPA_WXZ 1008dd9e f i libucrtd:setenv.obj
 0001:0008cda3       ??$set_environment_variable@ABQADQAD@?$__crt_char_traits@D@@SAHABQAD$$QBQAD@Z 1008dda3 f i libucrtd:setenv.obj
 0001:0008cdbb       ??$set_environment_variable@ABQA_WQA_W@?$__crt_char_traits@_W@@SAHABQA_W$$QBQA_W@Z 1008ddbb f i libucrtd:setenv.obj
 0001:0008cdd2       ??$tcschr@ABQADD@?$__crt_char_traits@D@@SAPADABQAD$$QAD@Z 1008ddd2 f i libucrtd:setenv.obj
 0001:0008cdec       ??$tcschr@ABQA_WD@?$__crt_char_traits@_W@@SAPA_WABQA_W$$QAD@Z 1008ddec f i libucrtd:setenv.obj
 0001:0008ce0a       ??$tcscpy_s@AAPADABIAAPAD@?$__crt_char_traits@D@@SAHAAPADABI0@Z 1008de0a f i libucrtd:setenv.obj
 0001:0008ce28       ??$tcscpy_s@AAPA_WABIAAPA_W@?$__crt_char_traits@_W@@SAHAAPA_WABI0@Z 1008de28 f i libucrtd:setenv.obj
 0001:0008ce46       ??$tcscpy_s@ABQADABIABQAD@?$__crt_char_traits@D@@SAHABQADABI0@Z 1008de46 f i libucrtd:setenv.obj
 0001:0008ce64       ??$tcscpy_s@ABQA_WABIABQA_W@?$__crt_char_traits@_W@@SAHABQA_WABI0@Z 1008de64 f i libucrtd:setenv.obj
 0001:0008ce82       ??$tcslen@ABQAD@?$__crt_char_traits@D@@SAIABQAD@Z 1008de82 f i libucrtd:setenv.obj
 0001:0008ce9a       ??$tcslen@ABQA_W@?$__crt_char_traits@_W@@SAIABQA_W@Z 1008de9a f i libucrtd:setenv.obj
 0001:0008ceb8       ??$tcsnicoll@ABQBDAAPADABI@?$__crt_char_traits@D@@SAHABQBDAAPADABI@Z 1008deb8 f i libucrtd:setenv.obj
 0001:0008ced6       ??$tcsnicoll@ABQB_WAAPA_WABI@?$__crt_char_traits@_W@@SAHABQB_WAAPA_WABI@Z 1008ded6 f i libucrtd:setenv.obj
 0001:0008cef4       ??$tcsnlen@PADH@?$__crt_char_traits@D@@SAI$$QAPAD$$QAH@Z 1008def4 f i libucrtd:setenv.obj
 0001:0008cf0c       ??$tcsnlen@PA_WH@?$__crt_char_traits@_W@@SAI$$QAPA_W$$QAH@Z 1008df0c f i libucrtd:setenv.obj
 0001:0008cf48       ?strchr@@YAPADQADH@Z       1008df48 f i libucrtd:setenv.obj
 0001:0008cf53       ?wcschr@@YAPA_WPA_W_W@Z    1008df53 f i libucrtd:setenv.obj
 0001:0008cf5e       ___dcrt_set_variable_in_narrow_environment_nolock 1008df5e f   libucrtd:setenv.obj
 0001:0008cf69       ___dcrt_set_variable_in_wide_environment_nolock 1008df69 f   libucrtd:setenv.obj
 0001:0008cf80       ___acrt_getheap            1008df80 f   libucrtd:heap_handle.obj
 0001:0008cfc0       ___acrt_initialize_heap    1008dfc0 f   libucrtd:heap_handle.obj
 0001:0008cff0       ___acrt_uninitialize_heap  1008dff0 f   libucrtd:heap_handle.obj
 0001:0008d010       __get_heap_handle          1008e010 f   libucrtd:heap_handle.obj
 0001:0008d050       ___acrt_execute_initializers 1008e050 f   libucrtd:shared_initialization.obj
 0001:0008d100       ___acrt_execute_uninitializers 1008e100 f   libucrtd:shared_initialization.obj
 0001:0008d160       ??$__crt_fast_decode_pointer@P6AHPAU_exception@@@Z@@YAP6AHPAU_exception@@@ZQ6AH0@Z@Z 1008e160 f i libucrtd:matherr.obj
 0001:0008d190       ??$__crt_fast_encode_pointer@P6AHPAU_exception@@@Z@@YAP6AHPAU_exception@@@ZQ6AH0@Z@Z 1008e190 f i libucrtd:matherr.obj
 0001:0008d1c0       ?initialize@?$dual_state_global@P6AHPAU_exception@@@Z@__crt_state_management@@QAEXQ6AHPAU_exception@@@Z@Z 1008e1c0 f i libucrtd:matherr.obj
 0001:0008d200       ?value@?$dual_state_global@P6AHPAU_exception@@@Z@__crt_state_management@@QAEAAP6AHPAU_exception@@@ZXZ 1008e200 f i libucrtd:matherr.obj
 0001:0008d220       ___acrt_has_user_matherr   1008e220 f   libucrtd:matherr.obj
 0001:0008d260       ___acrt_initialize_user_matherr 1008e260 f   libucrtd:matherr.obj
 0001:0008d280       ___acrt_invoke_user_matherr 1008e280 f   libucrtd:matherr.obj
 0001:0008d2d0       ___setusermatherr          1008e2d0 f   libucrtd:matherr.obj
 0001:0008d310       __free_base                1008e310 f   libucrtd:free_base.obj
 0001:0008d3c0       __expand                   1008e3c0 f   libucrtd:expand.obj
 0001:0008d3e0       __expand_base              1008e3e0 f   libucrtd:expand.obj
 0001:0008d510       ?value@?$dual_state_global@J@__crt_state_management@@QAEAAJXZ 1008e510 f i libucrtd:new_mode.obj
 0001:0008d530       __query_new_mode           1008e530 f   libucrtd:new_mode.obj
 0001:0008d550       __set_new_mode             1008e550 f   libucrtd:new_mode.obj
 0001:0008d5f0       __CrtDefaultAllocHook      1008e5f0 f   libucrtd:debug_heap_hook.obj
 0001:0008d5fc       __mbsdec                   1008e5fc f   libucrtd:mbsdec.obj
 0001:0008d613       __mbsdec_l                 1008e613 f   libucrtd:mbsdec.obj
 0001:0008db00       _strncpy_s                 1008eb00 f   libucrtd:strncpy_s.obj
 0001:0008dcd0       ___acrt_report_runtime_error 1008ecd0 f   libucrtd:report_runtime_error.obj
 0001:0008dec0       __query_app_type           1008eec0 f   libucrtd:report_runtime_error.obj
 0001:0008ded0       __set_app_type             1008eed0 f   libucrtd:report_runtime_error.obj
 0001:0008dee0       __iswctype_l               1008eee0 f   libucrtd:iswctype.obj
 0001:0008df00       _iswctype                  1008ef00 f   libucrtd:iswctype.obj
 0001:0008df70       ___iswcsym                 1008ef70 f i libucrtd:_wctype.obj
 0001:0008dfb0       ___iswcsymf                1008efb0 f i libucrtd:_wctype.obj
 0001:0008dff0       __isleadbyte_l             1008eff0 f i libucrtd:_wctype.obj
 0001:0008e040       __iswalnum_l               1008f040 f i libucrtd:_wctype.obj
 0001:0008e060       __iswalpha_l               1008f060 f i libucrtd:_wctype.obj
 0001:0008e080       __iswblank_l               1008f080 f i libucrtd:_wctype.obj
 0001:0008e0c0       __iswcntrl_l               1008f0c0 f i libucrtd:_wctype.obj
 0001:0008e0e0       __iswcsym_l                1008f0e0 f i libucrtd:_wctype.obj
 0001:0008e120       __iswcsymf_l               1008f120 f i libucrtd:_wctype.obj
 0001:0008e160       __iswdigit_l               1008f160 f i libucrtd:_wctype.obj
 0001:0008e180       __iswgraph_l               1008f180 f i libucrtd:_wctype.obj
 0001:0008e1a0       __iswlower_l               1008f1a0 f i libucrtd:_wctype.obj
 0001:0008e1c0       __iswprint_l               1008f1c0 f i libucrtd:_wctype.obj
 0001:0008e1e0       __iswpunct_l               1008f1e0 f i libucrtd:_wctype.obj
 0001:0008e200       __iswspace_l               1008f200 f i libucrtd:_wctype.obj
 0001:0008e220       __iswupper_l               1008f220 f i libucrtd:_wctype.obj
 0001:0008e240       __iswxdigit_l              1008f240 f i libucrtd:_wctype.obj
 0001:0008e260       _isleadbyte                1008f260 f i libucrtd:_wctype.obj
 0001:0008e280       _iswalnum                  1008f280 f i libucrtd:_wctype.obj
 0001:0008e2a0       _iswalpha                  1008f2a0 f i libucrtd:_wctype.obj
 0001:0008e2c0       _iswascii                  1008f2c0 f i libucrtd:_wctype.obj
 0001:0008e2f0       _iswblank                  1008f2f0 f i libucrtd:_wctype.obj
 0001:0008e330       _iswcntrl                  1008f330 f i libucrtd:_wctype.obj
 0001:0008e350       _iswdigit                  1008f350 f i libucrtd:_wctype.obj
 0001:0008e370       _iswgraph                  1008f370 f i libucrtd:_wctype.obj
 0001:0008e390       _iswlower                  1008f390 f i libucrtd:_wctype.obj
 0001:0008e3b0       _iswprint                  1008f3b0 f i libucrtd:_wctype.obj
 0001:0008e3d0       _iswpunct                  1008f3d0 f i libucrtd:_wctype.obj
 0001:0008e3f0       _iswspace                  1008f3f0 f i libucrtd:_wctype.obj
 0001:0008e410       _iswupper                  1008f410 f i libucrtd:_wctype.obj
 0001:0008e430       _iswxdigit                 1008f430 f i libucrtd:_wctype.obj
 0001:0008e4c0       ?__mbrtowc_utf8@__crt_mbstring@@YAIPA_WPBDIPAU_Mbstatet@@@Z 1008f4c0 f   libucrtd:mbrtowc.obj
 0001:0008e510       ?__mbsrtowcs_utf8@__crt_mbstring@@YAIPA_WPAPBDIPAU_Mbstatet@@@Z 1008f510 f   libucrtd:mbrtowc.obj
 0001:0008ed80       _btowc                     1008fd80 f   libucrtd:mbrtowc.obj
 0001:0008edf0       _mbrlen                    1008fdf0 f   libucrtd:mbrtowc.obj
 0001:0008ee40       _mbrtowc                   1008fe40 f   libucrtd:mbrtowc.obj
 0001:0008eed0       _mbsrtowcs                 1008fed0 f   libucrtd:mbrtowc.obj
 0001:0008eef0       _mbsrtowcs_s               1008fef0 f   libucrtd:mbrtowc.obj
 0001:0008f240       ??$?RG@__crt_internal_free_policy@@QBEXQBG@Z 10090240 f i libucrtd:initctype.obj
 0001:0008f260       ??$?RJ@__crt_internal_free_policy@@QBEXQBJ@Z 10090260 f i libucrtd:initctype.obj
 0001:0008f280       ??0?$__crt_unique_heap_ptr@GU__crt_internal_free_policy@@@@QAE@QAG@Z 10090280 f i libucrtd:initctype.obj
 0001:0008f2a0       ??0?$__crt_unique_heap_ptr@JU__crt_internal_free_policy@@@@QAE@QAJ@Z 100902a0 f i libucrtd:initctype.obj
 0001:0008f2c0       ??1?$__crt_unique_heap_ptr@GU__crt_internal_free_policy@@@@QAE@XZ 100902c0 f i libucrtd:initctype.obj
 0001:0008f2e0       ??1?$__crt_unique_heap_ptr@JU__crt_internal_free_policy@@@@QAE@XZ 100902e0 f i libucrtd:initctype.obj
 0001:0008f300       ?detach@?$__crt_unique_heap_ptr@GU__crt_internal_free_policy@@@@QAEPAGXZ 10090300 f i libucrtd:initctype.obj
 0001:0008f330       ?detach@?$__crt_unique_heap_ptr@JU__crt_internal_free_policy@@@@QAEPAJXZ 10090330 f i libucrtd:initctype.obj
 0001:0008f360       ?release@?$__crt_unique_heap_ptr@GU__crt_internal_free_policy@@@@QAEXXZ 10090360 f i libucrtd:initctype.obj
 0001:0008f390       ?release@?$__crt_unique_heap_ptr@JU__crt_internal_free_policy@@@@QAEXXZ 10090390 f i libucrtd:initctype.obj
 0001:0008f3c0       ____lc_codepage_func       100903c0 f   libucrtd:initctype.obj
 0001:0008f400       ____lc_collate_cp_func     10090400 f   libucrtd:initctype.obj
 0001:0008f440       ____lc_locale_name_func    10090440 f   libucrtd:initctype.obj
 0001:0008f480       ____mb_cur_max_func        10090480 f   libucrtd:initctype.obj
 0001:0008f4c0       ____mb_cur_max_l_func      100904c0 f   libucrtd:initctype.obj
 0001:0008f4f0       ___acrt_locale_initialize_ctype 100904f0 f   libucrtd:initctype.obj
 0001:0008fc70       ?__c32rtomb_utf8@__crt_mbstring@@YAIPAD_UPAU_Mbstatet@@@Z 10090c70 f   libucrtd:c32rtomb.obj
 0001:0008fe50       ?reset_and_return@__crt_mbstring@@YAIIPAU_Mbstatet@@@Z 10090e50 f i libucrtd:c32rtomb.obj
 0001:0008fe80       ?return_illegal_sequence@__crt_mbstring@@YAIPAU_Mbstatet@@@Z 10090e80 f i libucrtd:c32rtomb.obj
 0001:0008feb0       _c32rtomb                  10090eb0 f   libucrtd:c32rtomb.obj
 0001:0008fed0       ___acrt_add_locale_ref     10090ed0 f   libucrtd:locale_refcounting.obj
 0001:0008ffe0       ___acrt_free_locale        10090fe0 f   libucrtd:locale_refcounting.obj
 0001:000902b0       ___acrt_locale_add_lc_time_reference 100912b0 f   libucrtd:locale_refcounting.obj
 0001:000902f0       ___acrt_locale_free_lc_time_if_unreferenced 100912f0 f   libucrtd:locale_refcounting.obj
 0001:00090340       ___acrt_locale_release_lc_time_reference 10091340 f   libucrtd:locale_refcounting.obj
 0001:00090370       ___acrt_release_locale_ref 10091370 f   libucrtd:locale_refcounting.obj
 0001:00090480       ___acrt_update_thread_locale_data 10091480 f   libucrtd:locale_refcounting.obj
 0001:00090550       __updatetlocinfoEx_nolock  10091550 f   libucrtd:locale_refcounting.obj
 0001:000905d0       ___acrt_fp_strflt_to_string 100915d0 f   libucrtd:_fptostr.obj
