 OPOSMotionSensor

 Timestamp is 600f7972 (Tue Jan 26 11:07:46 2021)

 Preferred load address is 10000000

 Start         Length     Name                   Class
 0001:00000000 00000d90H .text$di                CODE
 0001:00000d90 000a8e10H .text$mn                CODE
 0001:000a9ba0 000001c0H .text$x                 CODE
 0001:000a9d60 00000120H .text$yd                CODE
 0002:00000000 00000358H .idata$5                DATA
 0002:00000358 00000008H .00cfg                  DATA
 0002:00000360 00000004H .CRT$XCA                DATA
 0002:00000364 00000004H .CRT$XCL                DATA
 0002:00000368 0000006cH .CRT$XCU                DATA
 0002:000003d4 00000004H .CRT$XCZ                DATA
 0002:000003d8 00000004H .CRT$XIA                DATA
 0002:000003dc 00000014H .CRT$XIC                DATA
 0002:000003f0 00000004H .CRT$XIZ                DATA
 0002:000003f4 00000004H .CRT$XLA                DATA
 0002:000003f8 00000004H .CRT$XLZ                DATA
 0002:000003fc 00000004H .CRT$XPA                DATA
 0002:00000400 00000008H .CRT$XPX                DATA
 0002:00000408 00000004H .CRT$XPXA               DATA
 0002:0000040c 00000004H .CRT$XPZ                DATA
 0002:00000410 00000004H .CRT$XTA                DATA
 0002:00000414 0000000cH .CRT$XTZ                DATA
 0002:00000418 00000000H .gfids$y                DATA
 0002:00000420 0002fae0H .rdata                  DATA
 0002:0002ff00 00000004H .rdata$CastGuardVftablesA DATA
 0002:0002ff04 00000004H .rdata$CastGuardVftablesC DATA
 0002:0002ff08 00000018H .rdata$T                DATA
 0002:0002ff20 0000033cH .rdata$r                DATA
 0002:0003025c 00000044H .rdata$sxdata           DATA
 0002:000302a0 00000450H .rdata$zzzdbg           DATA
 0002:000306f0 00000004H .rtc$IAA                DATA
 0002:000306f4 00000018H .rtc$IMZ                DATA
 0002:0003070c 00000004H .rtc$IZZ                DATA
 0002:00030710 00000004H .rtc$TAA                DATA
 0002:00030714 00000018H .rtc$TMZ                DATA
 0002:0003072c 00000004H .rtc$TZZ                DATA
 0002:00030730 00000004H .tls                    DATA
 0002:00030734 00000004H .tls$                   DATA
 0002:00030738 00000008H .tls$ZZZ                DATA
 0002:00030740 00000e4cH .xdata$x                DATA
 0002:0003158c 00000004H ATL$__a                 DATA
 0002:00031590 00000010H ATL$__z                 DATA
 0002:000315a0 000000b0H .edata                  DATA
 0002:00031650 00000078H .idata$2                DATA
 0002:000316c8 00000014H .idata$3                DATA
 0002:000316dc 00000358H .idata$4                DATA
 0002:00031a34 00000d56H .idata$6                DATA
 0003:00000000 00000ba0H .data                   DATA
 0003:00000ba0 00000138H .data$r                 DATA
 0003:00000cd8 00003588H .bss                    DATA
 0004:00000000 00000220H .rsrc$01                DATA
 0004:00000220 00003728H .rsrc$02                DATA

  Address         Publics by Value              Rva+Base       Lib:Object

 0000:00000000       ___guard_longjmp_table     00000000     <absolute>
 0000:00000000       ___arm64x_extra_rfe_table_size 00000000     <absolute>
 0000:00000000       ___arm64x_native_entrypoint 00000000     <absolute>
 0000:00000000       ___guard_eh_cont_count     00000000     <absolute>
 0000:00000000       ___hybrid_code_map         00000000     <absolute>
 0000:00000000       ___x64_code_ranges_to_entry_points_count 00000000     <absolute>
 0000:00000000       ___volatile_metadata       00000000     <absolute>
 0000:00000000       ___hybrid_code_map_count   00000000     <absolute>
 0000:00000000       ___x64_code_ranges_to_entry_points 00000000     <absolute>
 0000:00000000       ___guard_fids_count        00000000     <absolute>
 0000:00000000       ___guard_fids_table        00000000     <absolute>
 0000:00000000       ___hybrid_auxiliary_iat    00000000     <absolute>
 0000:00000000       ___dynamic_value_reloc_table 00000000     <absolute>
 0000:00000000       ___arm64x_extra_rfe_table  00000000     <absolute>
 0000:00000000       ___guard_eh_cont_table     00000000     <absolute>
 0000:00000000       __except_list              00000000     <absolute>
 0000:00000000       ___arm64x_redirection_metadata 00000000     <absolute>
 0000:00000000       ___enclave_config          00000000     <absolute>
 0000:00000000       ___arm64x_redirection_metadata_count 00000000     <absolute>
 0000:00000000       ___guard_longjmp_count     00000000     <absolute>
 0000:00000000       ___AbsoluteZero            00000000     <absolute>
 0000:00000000       ___guard_iat_count         00000000     <absolute>
 0000:00000000       ___guard_iat_table         00000000     <absolute>
 0000:00000011       ___safe_se_handler_count   00000011     <absolute>
 0000:0000002c       __tls_array                0000002c     <absolute>
 0000:00000100       ___guard_flags             00000100     <absolute>
 0000:00000000       ___ImageBase               10000000     <linker-defined>
 0001:00000d90       ?_assert@@YAXPB_W0I@Z      10001d90 f   Assert.obj
 0001:00000ec0       ___local_stdio_printf_options 10001ec0 f i Assert.obj
 0001:00000ed0       ___vswprintf_l             10001ed0 f i Assert.obj
 0001:00000f00       __swprintf                 10001f00 f i Assert.obj
 0001:00000f60       __vswprintf_c_l            10001f60 f i Assert.obj
 0001:00000fd0       __vswprintf_l              10001fd0 f i Assert.obj
 0001:00001000       ?cw_memcpy@@YGHPADPB_WH@Z  10002000 f   CWString.obj
 0001:00001060       ?cw_memcpy@@YGHPA_WPBDH@Z  10002060 f   CWString.obj
 0001:000010c0       ?cw_memcpy@@YGHPADPBDH@Z   100020c0 f   CWString.obj
 0001:00001110       ?cw_memcpy@@YGHPA_WPB_WH@Z 10002110 f   CWString.obj
 0001:00001150       ?cw_memset@@YAXPADDH@Z     10002150 f   CWString.obj
 0001:00001170       ?cw_memset@@YAXPA_W_WH@Z   10002170 f   CWString.obj
 0001:00001190       ?cw_strlen@@YAHPBD@Z       10002190 f   CWString.obj
 0001:000011e0       ?cw_strlen@@YAHPB_W@Z      100021e0 f   CWString.obj
 0001:00001230       ?cw_strcpy@@YAHPADPB_W@Z   10002230 f   CWString.obj
 0001:00001250       ?cw_strcpy@@YAHPA_WPBD@Z   10002250 f   CWString.obj
 0001:00001270       ?cw_strcpy@@YAHPADPBD@Z    10002270 f   CWString.obj
 0001:00001290       ?cw_strcpy@@YAHPA_WPB_W@Z  10002290 f   CWString.obj
 0001:000012b0       ?cw_strcat@@YAHPADPB_W@Z   100022b0 f   CWString.obj
 0001:000012e0       ?cw_strcat@@YAHPA_WPBD@Z   100022e0 f   CWString.obj
 0001:00001310       ?cw_strcat@@YAHPADPBD@Z    10002310 f   CWString.obj
 0001:00001340       ?cw_strcat@@YAHPA_WPB_W@Z  10002340 f   CWString.obj
 0001:00001370       ?cw_dup@@YGXPBDAAHAAPA_W1@Z 10002370 f   CWString.obj
 0001:00001430       ?cw_dup@@YGXPB_WAAHAAPAD1@Z 10002430 f   CWString.obj
 0001:000014e0       ?DupChar@_CW@@AAEXXZ       100024e0 f   CWString.obj
 0001:00001530       ?DupWide@_CW@@AAEXXZ       10002530 f   CWString.obj
 0001:00001580       ?GetCharsMbcs@_CW@@QAEHXZ  10002580 f   CWString.obj
 0001:000015e0       ?GetCharsWide@_CW@@QAEHXZ  100025e0 f   CWString.obj
 0001:00001640       ?SetVARIANT_BOOL@OposVariant@@QAEXF@Z 10002640 f   OposVariant.obj
 0001:000016a0       ?SetVARIANT_BOOL_Ptr@OposVariant@@QAEXPAFAAJ@Z 100026a0 f   OposVariant.obj
 0001:000016f0       ?GetLONG@OposVariant@@QAEJXZ 100026f0 f   OposVariant.obj
 0001:00001780       ?ChangeLONG@OposVariant@@QAEXPAJAAJ@Z 10002780 f   OposVariant.obj
 0001:00001840       ?SetLONG@OposVariant@@QAEXJ@Z 10002840 f   OposVariant.obj
 0001:00001880       ?SetLONG_Ptr@OposVariant@@QAEXPAJAAJ@Z 10002880 f   OposVariant.obj
 0001:000018d0       ?ChangeCURRENCY@OposVariant@@QAEXPATtagCY@@AAJ@Z 100028d0 f   OposVariant.obj
 0001:00001990       ?SetCURRENCY@OposVariant@@QAEXTtagCY@@@Z 10002990 f   OposVariant.obj
 0001:000019d0       ?SetCURRENCY_Ptr@OposVariant@@QAEXPATtagCY@@AAJ@Z 100029d0 f   OposVariant.obj
 0001:00001a20       ?ChangeBSTR@OposVariant@@QAEXPAPA_WAAJ@Z 10002a20 f   OposVariant.obj
 0001:00001ae0       ?SetBSTR@OposVariant@@QAEXPA_WAAJ@Z 10002ae0 f   OposVariant.obj
 0001:00001b30       ?SetBSTR_Copy@OposVariant@@QAEXPA_WAAJ@Z 10002b30 f   OposVariant.obj
 0001:00001bd0       ?SetBSTR_OutPtr@OposVariant@@QAE_NPAPA_WAAJ@Z 10002bd0 f   OposVariant.obj
 0001:00001c20       ?SetBSTR_InOutPtr@OposVariant@@QAE_NPAPA_WAAJ@Z 10002c20 f   OposVariant.obj
 0001:00001c70       ?SetVARIANT@OposVariant@@QAEXAAUtagVARIANT@@GAAJ@Z 10002c70 f   OposVariant.obj
 0001:00001cf0       ?SetVARIANT_Ptr@OposVariant@@QAEXAAPAUtagVARIANT@@GAAJ@Z 10002cf0 f   OposVariant.obj
 0001:00001d90       ?SetString@OposVariant@@QAEXPB_WAAJ@Z 10002d90 f   OposVariant.obj
 0001:00001e20       ?SetDispatch_Ptr@OposVariant@@QAEXPAUIDispatch@@AAJ@Z 10002e20 f   OposVariant.obj
 0001:00001e90       ??0OposDispParms@@QAE@PAVOposVariant@@H@Z 10002e90 f   OposVariant.obj
 0001:00001f60       ??1OposDispParms@@QAE@XZ   10002f60 f   OposVariant.obj
 0001:00001fb0       ??$AtlMultiply@I@ATL@@YAJPAIII@Z 10002fb0 f i OposVariant.obj
 0001:00002010       ??0?$CHeapPtr@_WVCCRTAllocator@ATL@@@ATL@@QAE@XZ 10003010 f i OposVariant.obj
 0001:00002040       ??0?$CHeapPtrBase@_WVCCRTAllocator@ATL@@@ATL@@IAE@XZ 10003040 f i OposVariant.obj
 0001:00002060       ??0?$CSimpleArray@GV?$CSimpleArrayEqualHelper@G@ATL@@@ATL@@QAE@XZ 10003060 f i OposVariant.obj
 0001:000020a0       ??0?$CTraceCategoryEx@$00$0A@@ATL@@QAE@PB_W@Z 100030a0 f i OposVariant.obj
 0001:000020d0       ??0?$CTraceCategoryEx@$01$0A@@ATL@@QAE@PB_W@Z 100030d0 f i OposVariant.obj
 0001:00002100       ??0?$CTraceCategoryEx@$03$0A@@ATL@@QAE@PB_W@Z 10003100 f i OposVariant.obj
 0001:00002130       ??0?$CTraceCategoryEx@$07$0A@@ATL@@QAE@PB_W@Z 10003130 f i OposVariant.obj
 0001:00002160       ??0?$CTraceCategoryEx@$0BA@$0A@@ATL@@QAE@PB_W@Z 10003160 f i OposVariant.obj
 0001:00002190       ??0?$CTraceCategoryEx@$0BAA@$0A@@ATL@@QAE@PB_W@Z 10003190 f i OposVariant.obj
 0001:000021d0       ??0?$CTraceCategoryEx@$0BAAA@$0A@@ATL@@QAE@PB_W@Z 100031d0 f i OposVariant.obj
 0001:00002210       ??0?$CTraceCategoryEx@$0BAAAA@$0A@@ATL@@QAE@PB_W@Z 10003210 f i OposVariant.obj
 0001:00002250       ??0?$CTraceCategoryEx@$0BAAAAA@$0A@@ATL@@QAE@PB_W@Z 10003250 f i OposVariant.obj
 0001:00002290       ??0?$CTraceCategoryEx@$0CA@$0A@@ATL@@QAE@PB_W@Z 10003290 f i OposVariant.obj
 0001:000022c0       ??0?$CTraceCategoryEx@$0CAA@$0A@@ATL@@QAE@PB_W@Z 100032c0 f i OposVariant.obj
 0001:00002300       ??0?$CTraceCategoryEx@$0CAAA@$0A@@ATL@@QAE@PB_W@Z 10003300 f i OposVariant.obj
 0001:00002340       ??0?$CTraceCategoryEx@$0CAAAA@$0A@@ATL@@QAE@PB_W@Z 10003340 f i OposVariant.obj
 0001:00002380       ??0?$CTraceCategoryEx@$0CAAAAA@$0A@@ATL@@QAE@PB_W@Z 10003380 f i OposVariant.obj
 0001:000023c0       ??0?$CTraceCategoryEx@$0EA@$0A@@ATL@@QAE@PB_W@Z 100033c0 f i OposVariant.obj
 0001:000023f0       ??0?$CTraceCategoryEx@$0EAA@$0A@@ATL@@QAE@PB_W@Z 100033f0 f i OposVariant.obj
 0001:00002430       ??0?$CTraceCategoryEx@$0EAAA@$0A@@ATL@@QAE@PB_W@Z 10003430 f i OposVariant.obj
 0001:00002470       ??0?$CTraceCategoryEx@$0EAAAA@$0A@@ATL@@QAE@PB_W@Z 10003470 f i OposVariant.obj
 0001:000024b0       ??0?$CTraceCategoryEx@$0EAAAAA@$0A@@ATL@@QAE@PB_W@Z 100034b0 f i OposVariant.obj
 0001:000024f0       ??0?$CTraceCategoryEx@$0IA@$0A@@ATL@@QAE@PB_W@Z 100034f0 f i OposVariant.obj
 0001:00002530       ??0?$CTraceCategoryEx@$0IAA@$0A@@ATL@@QAE@PB_W@Z 10003530 f i OposVariant.obj
 0001:00002570       ??0?$CTraceCategoryEx@$0IAAA@$0A@@ATL@@QAE@PB_W@Z 10003570 f i OposVariant.obj
 0001:000025b0       ??0?$CTraceCategoryEx@$0IAAAA@$0A@@ATL@@QAE@PB_W@Z 100035b0 f i OposVariant.obj
 0001:000025f0       ??0CAtlComModule@ATL@@QAE@XZ 100035f0 f i OposVariant.obj
 0001:000026d0       ??0CAtlWinModule@ATL@@QAE@XZ 100036d0 f i OposVariant.obj
 0001:00002760       ??0CComCriticalSection@ATL@@QAE@XZ 10003760 f i OposVariant.obj
 0001:00002790       ??0CPreserveLastError@ATL@@QAE@XZ 10003790 f i OposVariant.obj
 0001:000027d0       ??0CTraceFileAndLineInfo@ATL@@QAE@PBDH@Z 100037d0 f i OposVariant.obj
 0001:00002800       ??0_ATL_COM_MODULE70@ATL@@QAE@XZ 10003800 f i OposVariant.obj
 0001:00002830       ??0_ATL_WIN_MODULE70@ATL@@QAE@XZ 10003830 f i OposVariant.obj
 0001:00002870       ??1?$CHeapPtr@_WVCCRTAllocator@ATL@@@ATL@@QAE@XZ 10003870 f i OposVariant.obj
 0001:000028a0       ??1?$CHeapPtrBase@_WVCCRTAllocator@ATL@@@ATL@@QAE@XZ 100038a0 f i OposVariant.obj
 0001:000028d0       ??1?$CSimpleArray@GV?$CSimpleArrayEqualHelper@G@ATL@@@ATL@@QAE@XZ 100038d0 f i OposVariant.obj
 0001:00002900       ??1CAtlComModule@ATL@@QAE@XZ 10003900 f i OposVariant.obj
 0001:00002930       ??1CAtlWinModule@ATL@@QAE@XZ 10003930 f i OposVariant.obj
 0001:00002960       ??1CComBSTR@ATL@@QAE@XZ    10003960 f i OposVariant.obj
 0001:000029a0       ??1CComCriticalSection@ATL@@QAE@XZ 100039a0 f i OposVariant.obj
 0001:000029c0       ??1CPreserveLastError@ATL@@QAE@XZ 100039c0 f i OposVariant.obj
 0001:00002a00       ??1_ATL_COM_MODULE70@ATL@@QAE@XZ 10003a00 f i OposVariant.obj
 0001:00002a30       ??1_ATL_WIN_MODULE70@ATL@@QAE@XZ 10003a30 f i OposVariant.obj
 0001:00002a70       ??1stringdispid@CComTypeInfoHolder@ATL@@QAE@XZ 10003a70 f i OposVariant.obj
 0001:00002aa0       ??A?$CSimpleArray@GV?$CSimpleArrayEqualHelper@G@ATL@@@ATL@@QAEAAGH@Z 10003aa0 f i OposVariant.obj
 0001:00002b20       ??B?$CHeapPtrBase@_WVCCRTAllocator@ATL@@@ATL@@QBEPA_WXZ 10003b20 f i OposVariant.obj
 0001:00002b40       ??B?$CTraceCategoryEx@$01$0A@@ATL@@QAEIXZ 10003b40 f i OposVariant.obj
 0001:00002b60       ??B?$CTraceCategoryEx@$0CA@$0A@@ATL@@QAEIXZ 10003b60 f i OposVariant.obj
 0001:00002b80       ??RCTraceFileAndLineInfo@ATL@@QBAXHIPB_WZZ 10003b80 f i OposVariant.obj
 0001:00002c20       ??_Estringdispid@CComTypeInfoHolder@ATL@@QAEPAXI@Z 10003c20 f i OposVariant.obj
 0001:00002cb0       ??_H@YGXPAXIIP6EPAX0@Z@Z   10003cb0 f i OposVariant.obj
 0001:00002d20       ??_I@YGXPAXIIP6EX0@Z@Z     10003d20 f i OposVariant.obj
 0001:00002da0       ?Allocate@?$CHeapPtr@_WVCCRTAllocator@ATL@@@ATL@@QAE_NI@Z 10003da0 f i OposVariant.obj
 0001:00002e30       ?Allocate@CCRTAllocator@ATL@@SAPAXI@Z 10003e30 f i OposVariant.obj
 0001:00002e50       ?AllocateBytes@?$CHeapPtrBase@_WVCCRTAllocator@ATL@@@ATL@@QAE_NI@Z 10003e50 f i OposVariant.obj
 0001:00002ec0       ?AtlWinModuleInit@ATL@@YGJPAU_ATL_WIN_MODULE70@1@@Z 10003ec0 f i OposVariant.obj
 0001:00002f90       ?AtlWinModuleTerm@ATL@@YGJPAU_ATL_WIN_MODULE70@1@PAUHINSTANCE__@@@Z 10003f90 f i OposVariant.obj
 0001:00003050       ?Clear@OposVariant@@QAEJXZ 10004050 f i OposVariant.obj
 0001:00003090       ?Free@?$CHeapPtrBase@_WVCCRTAllocator@ATL@@@ATL@@QAEXXZ 10004090 f i OposVariant.obj
 0001:000030d0       ?Free@CCRTAllocator@ATL@@SAXPAX@Z 100040d0 f i OposVariant.obj
 0001:000030f0       ?GetCategoryName@CTrace@ATL@@CAPA_WI@Z 100040f0 f i OposVariant.obj
 0001:00003140       ?GetModuleInstance@CAtlBaseModule@ATL@@QAEPAUHINSTANCE__@@XZ 10004140 f i OposVariant.obj
 0001:00003160       ?GetSize@?$CSimpleArray@GV?$CSimpleArrayEqualHelper@G@ATL@@@ATL@@QBEHXZ 10004160 f i OposVariant.obj
 0001:00003180       ?Init@CComCriticalSection@ATL@@QAEJXZ 10004180 f i OposVariant.obj
 0001:000031e0       ?RegisterCategory@CTrace@ATL@@SAXPB_WI@Z 100041e0 f i OposVariant.obj
 0001:00003270       ?RemoveAll@?$CSimpleArray@GV?$CSimpleArrayEqualHelper@G@ATL@@@ATL@@QAEXXZ 10004270 f i OposVariant.obj
 0001:000032f0       ?Term@CAtlComModule@ATL@@QAEXXZ 100042f0 f i OposVariant.obj
 0001:000033b0       ?Term@CAtlWinModule@ATL@@QAEXXZ 100043b0 f i OposVariant.obj
 0001:000033e0       ?Term@CComCriticalSection@ATL@@QAEJXZ 100043e0 f i OposVariant.obj
 0001:00003420       ?TraceV@CTrace@ATL@@CAXPBDHIIPB_W@Z 10004420 f i OposVariant.obj
 0001:000036a0       ?TraceV@CTrace@ATL@@SAXPBDHIIPB_WPAD@Z 100046a0 f i OposVariant.obj
 0001:000037e0       ?_AtlInitializeCriticalSectionEx@ATL@@YAHPAU_RTL_CRITICAL_SECTION@@KK@Z 100047e0 f i OposVariant.obj
 0001:00003810       ?_AtlRaiseException@ATL@@YAXKK@Z 10004810 f i OposVariant.obj
 0001:00003840       _HRESULT_FROM_WIN32        10004840 f i OposVariant.obj
 0001:00003880       __vswprintf_s_l            10004880 f i OposVariant.obj
 0001:000038f0       _swprintf_s                100048f0 f i OposVariant.obj
 0001:00003950       ?ObjectMain@CComObjectRootBase@ATL@@SGX_N@Z 10004950 f i MotionSensor.obj
 0001:00003960       ?GetCategoryMap@CComObjectRootBase@ATL@@SAPBU_ATL_CATMAP_ENTRY@2@XZ 10004960 f i MotionSensor.obj
 0001:00003970       ?GetObjectDescription@?$CComCoClass@VCOPOSMotionSensor@@$1?CLSID_OPOSMotionSensor@@3U_GUID@@B@ATL@@SGPB_WXZ 10004970 f i MotionSensor.obj
 0001:00003980       ?UpdateRegistry@COPOSMotionSensor@@SGJH@Z 10004980 f i MotionSensor.obj
 0001:000039a0       ?CreateInstance@?$CComCreator@V?$CComObjectCached@VCComClassFactory@ATL@@@ATL@@@ATL@@SGJPAXABU_GUID@@PAPAX@Z 100049a0 f i MotionSensor.obj
 0001:00003b20       ?CreateInstance@?$CComCreator2@V?$CComCreator@V?$CComObject@VCOPOSMotionSensor@@@ATL@@@ATL@@V?$CComCreator@V?$CComAggObject@VCOPOSMotionSensor@@@ATL@@@2@@ATL@@SGJPAXABU_GUID@@PAPAX@Z 10004b20 f i MotionSensor.obj
 0001:00003cd0       _DllGetClassObject@12      10004cd0 f   MotionSensor.obj
 0001:00003d00       _DllCanUnloadNow@0         10004d00 f   MotionSensor.obj
 0001:00003d40       _DllRegisterServer@0       10004d40 f   MotionSensor.obj
 0001:00003d60       _DllUnregisterServer@0     10004d60 f   MotionSensor.obj
 0001:00003ef0       _DllMain@12                10004ef0 f   MotionSensor.obj
 0001:00003f50       ??$?2G@Wrapper@?$CSimpleArray@GV?$CSimpleArrayEqualHelper@G@ATL@@@ATL@@SAPAXIPAG@Z 10004f50 f i MotionSensor.obj
 0001:00003f60       ??$?2PA_W@?$Wrapper@PA_W@?$CSimpleMap@PA_WPA_WVCExpansionVectorEqualHelper@ATL@@@ATL@@SAPAXIPAPA_W@Z 10004f60 f i MotionSensor.obj
 0001:00003f70       ??$?4UITypeInfo2@@@?$CComPtr@UITypeInfo@@@ATL@@QAEPAUITypeInfo@@ABV?$CComPtr@UITypeInfo2@@@1@@Z 10004f70 f i MotionSensor.obj
 0001:00003fd0       ??$AtlAdd@K@ATL@@YAJPAKKK@Z 10004fd0 f i MotionSensor.obj
 0001:00004010       ??$AtlAdd@_K@ATL@@YAJPA_K_K1@Z 10005010 f i MotionSensor.obj
 0001:00004080       ??$AtlAddThrow@K@ATL@@YAKKK@Z 10005080 f i MotionSensor.obj
 0001:00004100       ??$AtlModuleRegisterWndClassInfoT@VAtlModuleRegisterWndClassInfoParamW@ATL@@@ATL@@YAGPAU_ATL_BASE_MODULE70@0@PAU_ATL_WIN_MODULE70@0@PAU_ATL_WNDCLASSINFOW@0@PAP6GJPAUHWND__@@IIJ@ZVAtlModuleRegisterWndClassInfoParamW@0@@Z 10005100 f i MotionSensor.obj
 0001:00004510       ??$AtlMultiply@H@ATL@@YAJPAHHH@Z 10005510 f i MotionSensor.obj
 0001:00004590       ??$AtlMultiply@K@ATL@@YAJPAKKK@Z 10005590 f i MotionSensor.obj
 0001:000045f0       ??$AtlMultiplyThrow@I@ATL@@YAIII@Z 100055f0 f i MotionSensor.obj
 0001:00004670       ??$QueryInterface@UIPersistStream@@@IUnknown@@QAGJPAPAUIPersistStream@@@Z 10005670 f i MotionSensor.obj
 0001:000046a0       ??$QueryInterface@UITypeInfo2@@@IUnknown@@QAGJPAPAUITypeInfo2@@@Z 100056a0 f i MotionSensor.obj
 0001:000046d0       ??0?$CAtlModuleT@VCComModule@ATL@@@ATL@@QAE@XZ 100056d0 f i MotionSensor.obj
 0001:00004700       ??0?$CAtlSafeAllocBufferManager@VCCRTAllocator@ATL@@@_ATL_SAFE_ALLOCA_IMPL@ATL@@QAE@XZ 10005700 f i MotionSensor.obj
 0001:00004720       ??0?$CAutoVectorPtr@_W@ATL@@QAE@XZ 10005720 f i MotionSensor.obj
 0001:00004740       ??0?$CComAggObject@VCOPOSMotionSensor@@@ATL@@QAE@PAX@Z 10005740 f i MotionSensor.obj
 0001:000047b0       ??0?$CComContainedObject@VCOPOSMotionSensor@@@ATL@@QAE@PAX@Z 100057b0 f i MotionSensor.obj
 0001:000048c0       ??0?$CComCritSecLock@VCComCriticalSection@ATL@@@ATL@@QAE@AAVCComCriticalSection@1@_N@Z 100058c0 f i MotionSensor.obj
 0001:00004920       ??0?$CComEnum@UIEnumConnectionPoints@@$1?_GUID_b196b285_bab4_101a_b69c_00aa00341d07@@3U__s_GUID@@BPAUIConnectionPoint@@V?$_CopyInterface@UIConnectionPoint@@@ATL@@VCComSingleThreadModel@6@@ATL@@QAE@XZ 10005920 f i MotionSensor.obj
 0001:00004960       ??0?$CComEnum@UIEnumConnections@@$1?_GUID_b196b287_bab4_101a_b69c_00aa00341d07@@3U__s_GUID@@BUtagCONNECTDATA@@V?$_Copy@UtagCONNECTDATA@@@ATL@@VCComSingleThreadModel@6@@ATL@@QAE@XZ 10005960 f i MotionSensor.obj
 0001:000049a0       ??0?$CComEnumImpl@UIEnumConnectionPoints@@$1?_GUID_b196b285_bab4_101a_b69c_00aa00341d07@@3U__s_GUID@@BPAUIConnectionPoint@@V?$_CopyInterface@UIConnectionPoint@@@ATL@@@ATL@@QAE@XZ 100059a0 f i MotionSensor.obj
 0001:00004a00       ??0?$CComEnumImpl@UIEnumConnections@@$1?_GUID_b196b287_bab4_101a_b69c_00aa00341d07@@3U__s_GUID@@BUtagCONNECTDATA@@V?$_Copy@UtagCONNECTDATA@@@ATL@@@ATL@@QAE@XZ 10005a00 f i MotionSensor.obj
 0001:00004a60       ??0?$CComObject@V?$CComEnum@UIEnumConnectionPoints@@$1?_GUID_b196b285_bab4_101a_b69c_00aa00341d07@@3U__s_GUID@@BPAUIConnectionPoint@@V?$_CopyInterface@UIConnectionPoint@@@ATL@@VCComSingleThreadModel@6@@ATL@@@ATL@@QAE@PAX@Z 10005a60 f i MotionSensor.obj
 0001:00004ab0       ??0?$CComObject@V?$CComEnum@UIEnumConnections@@$1?_GUID_b196b287_bab4_101a_b69c_00aa00341d07@@3U__s_GUID@@BUtagCONNECTDATA@@V?$_Copy@UtagCONNECTDATA@@@ATL@@VCComSingleThreadModel@6@@ATL@@@ATL@@QAE@PAX@Z 10005ab0 f i MotionSensor.obj
 0001:00004b00       ??0?$CComObject@VCOPOSMotionSensor@@@ATL@@QAE@PAX@Z 10005b00 f i MotionSensor.obj
 0001:00004c20       ??0?$CComObjectCached@VCComClassFactory@ATL@@@ATL@@QAE@PAX@Z 10005c20 f i MotionSensor.obj
 0001:00004c60       ??0?$CComObjectRootEx@VCComMultiThreadModel@ATL@@@ATL@@QAE@XZ 10005c60 f i MotionSensor.obj
 0001:00004ca0       ??0?$CComObjectRootEx@VCComSingleThreadModel@ATL@@@ATL@@QAE@XZ 10005ca0 f i MotionSensor.obj
 0001:00004cd0       ??0?$CComPtr@UIAdviseSink@@@ATL@@QAE@PAUIAdviseSink@@@Z 10005cd0 f i MotionSensor.obj
 0001:00004d00       ??0?$CComPtr@UICatRegister@@@ATL@@QAE@XZ 10005d00 f i MotionSensor.obj
 0001:00004d30       ??0?$CComPtr@UIConnectionPoint@@@ATL@@QAE@XZ 10005d30 f i MotionSensor.obj
 0001:00004d60       ??0?$CComPtr@UIConnectionPointContainer@@@ATL@@QAE@XZ 10005d60 f i MotionSensor.obj
 0001:00004d90       ??0?$CComPtr@UIDataObject@@@ATL@@QAE@XZ 10005d90 f i MotionSensor.obj
 0001:00004dc0       ??0?$CComPtr@UIDispatch@@@ATL@@QAE@XZ 10005dc0 f i MotionSensor.obj
 0001:00004df0       ??0?$CComPtr@UIOleClientSite@@@ATL@@QAE@PAUIOleClientSite@@@Z 10005df0 f i MotionSensor.obj
 0001:00004e20       ??0?$CComPtr@UIOleControlSite@@@ATL@@QAE@XZ 10005e20 f i MotionSensor.obj
 0001:00004e50       ??0?$CComPtr@UIOleInPlaceActiveObject@@@ATL@@QAE@XZ 10005e50 f i MotionSensor.obj
 0001:00004e80       ??0?$CComPtr@UIOleInPlaceFrame@@@ATL@@QAE@XZ 10005e80 f i MotionSensor.obj
 0001:00004eb0       ??0?$CComPtr@UIOleInPlaceObject@@@ATL@@QAE@XZ 10005eb0 f i MotionSensor.obj
 0001:00004ee0       ??0?$CComPtr@UIOleInPlaceUIWindow@@@ATL@@QAE@XZ 10005ee0 f i MotionSensor.obj
 0001:00004f10       ??0?$CComPtr@UIOleObject@@@ATL@@QAE@XZ 10005f10 f i MotionSensor.obj
 0001:00004f40       ??0?$CComPtr@UIPersistStream@@@ATL@@QAE@XZ 10005f40 f i MotionSensor.obj
 0001:00004f70       ??0?$CComPtr@UIPersistStreamInit@@@ATL@@QAE@XZ 10005f70 f i MotionSensor.obj
 0001:00004fa0       ??0?$CComPtr@UIPointerInactive@@@ATL@@QAE@XZ 10005fa0 f i MotionSensor.obj
 0001:00004fd0       ??0?$CComPtr@UIProvideClassInfo2@@@ATL@@QAE@XZ 10005fd0 f i MotionSensor.obj
 0001:00005000       ??0?$CComPtr@UISpecifyPropertyPages@@@ATL@@QAE@XZ 10006000 f i MotionSensor.obj
 0001:00005030       ??0?$CComPtr@UIStream@@@ATL@@QAE@XZ 10006030 f i MotionSensor.obj
 0001:00005060       ??0?$CComPtr@UITypeInfo2@@@ATL@@QAE@XZ 10006060 f i MotionSensor.obj
 0001:00005090       ??0?$CComPtr@UITypeInfo@@@ATL@@QAE@ABV01@@Z 10006090 f i MotionSensor.obj
 0001:000050c0       ??0?$CComPtr@UITypeInfo@@@ATL@@QAE@XZ 100060c0 f i MotionSensor.obj
 0001:000050f0       ??0?$CComPtr@UITypeLib@@@ATL@@QAE@XZ 100060f0 f i MotionSensor.obj
 0001:00005120       ??0?$CComPtr@UIUnknown@@@ATL@@QAE@ABV01@@Z 10006120 f i MotionSensor.obj
 0001:00005150       ??0?$CComPtr@UIUnknown@@@ATL@@QAE@PAUIUnknown@@@Z 10006150 f i MotionSensor.obj
 0001:00005180       ??0?$CComPtr@UIUnknown@@@ATL@@QAE@XZ 10006180 f i MotionSensor.obj
 0001:000051b0       ??0?$CComPtr@UIViewObjectEx@@@ATL@@QAE@XZ 100061b0 f i MotionSensor.obj
 0001:000051e0       ??0?$CComPtrBase@UIAdviseSink@@@ATL@@IAE@PAUIAdviseSink@@@Z 100061e0 f i MotionSensor.obj
 0001:00005230       ??0?$CComPtrBase@UICatRegister@@@ATL@@IAE@XZ 10006230 f i MotionSensor.obj
 0001:00005250       ??0?$CComPtrBase@UIConnectionPoint@@@ATL@@IAE@XZ 10006250 f i MotionSensor.obj
 0001:00005270       ??0?$CComPtrBase@UIConnectionPointContainer@@@ATL@@IAE@XZ 10006270 f i MotionSensor.obj
 0001:00005290       ??0?$CComPtrBase@UIDataObject@@@ATL@@IAE@XZ 10006290 f i MotionSensor.obj
 0001:000052b0       ??0?$CComPtrBase@UIDispatch@@@ATL@@IAE@XZ 100062b0 f i MotionSensor.obj
 0001:000052d0       ??0?$CComPtrBase@UIOleClientSite@@@ATL@@IAE@PAUIOleClientSite@@@Z 100062d0 f i MotionSensor.obj
 0001:00005320       ??0?$CComPtrBase@UIOleControlSite@@@ATL@@IAE@XZ 10006320 f i MotionSensor.obj
 0001:00005340       ??0?$CComPtrBase@UIOleInPlaceActiveObject@@@ATL@@IAE@XZ 10006340 f i MotionSensor.obj
 0001:00005360       ??0?$CComPtrBase@UIOleInPlaceFrame@@@ATL@@IAE@XZ 10006360 f i MotionSensor.obj
 0001:00005380       ??0?$CComPtrBase@UIOleInPlaceObject@@@ATL@@IAE@XZ 10006380 f i MotionSensor.obj
 0001:000053a0       ??0?$CComPtrBase@UIOleInPlaceUIWindow@@@ATL@@IAE@XZ 100063a0 f i MotionSensor.obj
 0001:000053c0       ??0?$CComPtrBase@UIOleObject@@@ATL@@IAE@XZ 100063c0 f i MotionSensor.obj
 0001:000053e0       ??0?$CComPtrBase@UIPersistStream@@@ATL@@IAE@XZ 100063e0 f i MotionSensor.obj
 0001:00005400       ??0?$CComPtrBase@UIPersistStreamInit@@@ATL@@IAE@XZ 10006400 f i MotionSensor.obj
 0001:00005420       ??0?$CComPtrBase@UIPointerInactive@@@ATL@@IAE@XZ 10006420 f i MotionSensor.obj
 0001:00005440       ??0?$CComPtrBase@UIProvideClassInfo2@@@ATL@@IAE@XZ 10006440 f i MotionSensor.obj
 0001:00005460       ??0?$CComPtrBase@UISpecifyPropertyPages@@@ATL@@IAE@XZ 10006460 f i MotionSensor.obj
 0001:00005480       ??0?$CComPtrBase@UIStream@@@ATL@@IAE@XZ 10006480 f i MotionSensor.obj
 0001:000054a0       ??0?$CComPtrBase@UITypeInfo2@@@ATL@@IAE@XZ 100064a0 f i MotionSensor.obj
 0001:000054c0       ??0?$CComPtrBase@UITypeInfo@@@ATL@@IAE@PAUITypeInfo@@@Z 100064c0 f i MotionSensor.obj
 0001:00005510       ??0?$CComPtrBase@UITypeInfo@@@ATL@@IAE@XZ 10006510 f i MotionSensor.obj
 0001:00005530       ??0?$CComPtrBase@UITypeLib@@@ATL@@IAE@XZ 10006530 f i MotionSensor.obj
 0001:00005550       ??0?$CComPtrBase@UIUnknown@@@ATL@@IAE@PAUIUnknown@@@Z 10006550 f i MotionSensor.obj
 0001:000055a0       ??0?$CComPtrBase@UIUnknown@@@ATL@@IAE@XZ 100065a0 f i MotionSensor.obj
 0001:000055c0       ??0?$CComPtrBase@UIViewObjectEx@@@ATL@@IAE@XZ 100065c0 f i MotionSensor.obj
 0001:000055e0       ??0?$CComQIPtr@UIOleControlSite@@$1?_GUID_b196b289_bab4_101a_b69c_00aa00341d07@@3U__s_GUID@@B@ATL@@QAE@PAUIUnknown@@@Z 100065e0 f i MotionSensor.obj
 0001:00005640       ??0?$CComQIPtr@UIOleObject@@$1?_GUID_00000112_0000_0000_c000_000000000046@@3U__s_GUID@@B@ATL@@QAE@XZ 10006640 f i MotionSensor.obj
 0001:00005670       ??0?$CComQIPtr@UISpecifyPropertyPages@@$1?_GUID_b196b28b_bab4_101a_b69c_00aa00341d07@@3U__s_GUID@@B@ATL@@QAE@XZ 10006670 f i MotionSensor.obj
 0001:000056a0       ??0?$CSimpleMap@PA_WPA_WVCExpansionVectorEqualHelper@ATL@@@ATL@@QAE@XZ 100066a0 f i MotionSensor.obj
 0001:000056e0       ??0?$CTempBuffer@E$0BAA@VCCRTAllocator@ATL@@@ATL@@QAE@XZ 100066e0 f i MotionSensor.obj
 0001:00005700       ??0?$CTempBuffer@_W$0BAA@VCCRTAllocator@ATL@@@ATL@@QAE@XZ 10006700 f i MotionSensor.obj
 0001:00005720       ??0?$CTempBuffer@_W$0EAA@VCCRTAllocator@ATL@@@ATL@@QAE@XZ 10006720 f i MotionSensor.obj
 0001:00005740       ??0?$Wrapper@PA_W@?$CSimpleMap@PA_WPA_WVCExpansionVectorEqualHelper@ATL@@@ATL@@QAE@ABQA_W@Z 10006740 f i MotionSensor.obj
 0001:00005770       ??0CAtlModule@ATL@@QAE@XZ  10006770 f i MotionSensor.obj
 0001:00005890       ??0CComAutoDeleteCriticalSection@ATL@@QAE@XZ 10006890 f i MotionSensor.obj
 0001:000058c0       ??0CComBSTR@ATL@@QAE@XZ    100068c0 f i MotionSensor.obj
 0001:000058e0       ??0CComClassFactory@ATL@@QAE@XZ 100068e0 f i MotionSensor.obj
 0001:00005920       ??0CComModule@ATL@@QAE@XZ  10006920 f i MotionSensor.obj
 0001:00005990       ??0CComObjectRootBase@ATL@@QAE@XZ 10006990 f i MotionSensor.obj
 0001:000059b0       ??0CComSafeDeleteCriticalSection@ATL@@QAE@XZ 100069b0 f i MotionSensor.obj
 0001:000059e0       ??0CComVariant@ATL@@QAE@XZ 100069e0 f i MotionSensor.obj
 0001:00005a30       ??0CExpansionVector@ATL@@QAE@XZ 10006a30 f i MotionSensor.obj
 0001:00005a60       ??0CParseBuffer@CRegParser@ATL@@QAE@H@Z 10006a60 f i MotionSensor.obj
 0001:00005ad0       ??0CRegKey@ATL@@QAE@PAUHKEY__@@@Z 10006ad0 f i MotionSensor.obj
 0001:00005b10       ??0CRegKey@ATL@@QAE@PAVCAtlTransactionManager@1@@Z 10006b10 f i MotionSensor.obj
 0001:00005b50       ??0CRegObject@ATL@@QAE@XZ  10006b50 f i MotionSensor.obj
 0001:00005b90       ??0CRegParser@ATL@@QAE@PAVCRegObject@1@@Z 10006b90 f i MotionSensor.obj
 0001:00005bc0       ??0IClassFactory@@QAE@XZ   10006bc0 f i MotionSensor.obj
 0001:00005bf0       ??0IEnumConnectionPoints@@QAE@XZ 10006bf0 f i MotionSensor.obj
 0001:00005c20       ??0IEnumConnections@@QAE@XZ 10006c20 f i MotionSensor.obj
 0001:00005c50       ??0IRegistrarBase@@QAE@XZ  10006c50 f i MotionSensor.obj
 0001:00005c80       ??0IUnknown@@QAE@XZ        10006c80 f i MotionSensor.obj
 0001:00005ca0       ??0ModuleLockHelper@ATL@@QAE@XZ 10006ca0 f i MotionSensor.obj
 0001:00005ce0       ??0OposVariant@@QAE@XZ     10006ce0 f i MotionSensor.obj
 0001:00005d10       ??0Wrapper@?$CSimpleArray@GV?$CSimpleArrayEqualHelper@G@ATL@@@ATL@@QAE@ABG@Z 10006d10 f i MotionSensor.obj
 0001:00005d40       ??0_ATL_MODULE70@ATL@@QAE@XZ 10006d40 f i MotionSensor.obj
 0001:00005d70       ??0_ATL_MSG@ATL@@QAE@PAUHWND__@@IIJH@Z 10006d70 f i MotionSensor.obj
 0001:00005de0       ??0_U_MENUorID@ATL@@QAE@I@Z 10006de0 f i MotionSensor.obj
 0001:00005e00       ??0_U_RECT@ATL@@QAE@AAUtagRECT@@@Z 10006e00 f i MotionSensor.obj
 0001:00005e20       ??0stringdispid@CComTypeInfoHolder@ATL@@QAE@XZ 10006e20 f i MotionSensor.obj
 0001:00005e60       ??1?$CAtlModuleT@VCComModule@ATL@@@ATL@@UAE@XZ 10006e60 f i MotionSensor.obj
 0001:00005e90       ??1?$CAtlSafeAllocBufferManager@VCCRTAllocator@ATL@@@_ATL_SAFE_ALLOCA_IMPL@ATL@@QAE@XZ 10006e90 f i MotionSensor.obj
 0001:00005ee0       ??1?$CAutoVectorPtr@_W@ATL@@QAE@XZ 10006ee0 f i MotionSensor.obj
 0001:00005f10       ??1?$CComAggObject@VCOPOSMotionSensor@@@ATL@@UAE@XZ 10006f10 f i MotionSensor.obj
 0001:00005f80       ??1?$CComContainedObject@VCOPOSMotionSensor@@@ATL@@UAE@XZ 10006f80 f i MotionSensor.obj
 0001:00005fb0       ??1?$CComCritSecLock@VCComCriticalSection@ATL@@@ATL@@QAE@XZ 10006fb0 f i MotionSensor.obj
 0001:00005fe0       ??1?$CComEnum@UIEnumConnectionPoints@@$1?_GUID_b196b285_bab4_101a_b69c_00aa00341d07@@3U__s_GUID@@BPAUIConnectionPoint@@V?$_CopyInterface@UIConnectionPoint@@@ATL@@VCComSingleThreadModel@6@@ATL@@UAE@XZ 10006fe0 f i MotionSensor.obj
 0001:00006010       ??1?$CComEnum@UIEnumConnections@@$1?_GUID_b196b287_bab4_101a_b69c_00aa00341d07@@3U__s_GUID@@BUtagCONNECTDATA@@V?$_Copy@UtagCONNECTDATA@@@ATL@@VCComSingleThreadModel@6@@ATL@@UAE@XZ 10007010 f i MotionSensor.obj
 0001:00006040       ??1?$CComEnumImpl@UIEnumConnectionPoints@@$1?_GUID_b196b285_bab4_101a_b69c_00aa00341d07@@3U__s_GUID@@BPAUIConnectionPoint@@V?$_CopyInterface@UIConnectionPoint@@@ATL@@@ATL@@UAE@XZ 10007040 f i MotionSensor.obj
 0001:000060d0       ??1?$CComEnumImpl@UIEnumConnections@@$1?_GUID_b196b287_bab4_101a_b69c_00aa00341d07@@3U__s_GUID@@BUtagCONNECTDATA@@V?$_Copy@UtagCONNECTDATA@@@ATL@@@ATL@@UAE@XZ 100070d0 f i MotionSensor.obj
 0001:00006160       ??1?$CComObject@V?$CComEnum@UIEnumConnectionPoints@@$1?_GUID_b196b285_bab4_101a_b69c_00aa00341d07@@3U__s_GUID@@BPAUIConnectionPoint@@V?$_CopyInterface@UIConnectionPoint@@@ATL@@VCComSingleThreadModel@6@@ATL@@@ATL@@UAE@XZ 10007160 f i MotionSensor.obj
 0001:000061c0       ??1?$CComObject@V?$CComEnum@UIEnumConnections@@$1?_GUID_b196b287_bab4_101a_b69c_00aa00341d07@@3U__s_GUID@@BUtagCONNECTDATA@@V?$_Copy@UtagCONNECTDATA@@@ATL@@VCComSingleThreadModel@6@@ATL@@@ATL@@UAE@XZ 100071c0 f i MotionSensor.obj
 0001:00006220       ??1?$CComObject@VCOPOSMotionSensor@@@ATL@@UAE@XZ 10007220 f i MotionSensor.obj
 0001:00006360       ??1?$CComObjectCached@VCComClassFactory@ATL@@@ATL@@UAE@XZ 10007360 f i MotionSensor.obj
 0001:000063b0       ??1?$CComObjectRootEx@VCComMultiThreadModel@ATL@@@ATL@@QAE@XZ 100073b0 f i MotionSensor.obj
 0001:000063e0       ??1?$CComObjectRootEx@VCComSingleThreadModel@ATL@@@ATL@@QAE@XZ 100073e0 f i MotionSensor.obj
 0001:00006410       ??1?$CComPtr@UIAdviseSink@@@ATL@@QAE@XZ 10007410 f i MotionSensor.obj
 0001:00006440       ??1?$CComPtr@UICatRegister@@@ATL@@QAE@XZ 10007440 f i MotionSensor.obj
 0001:00006470       ??1?$CComPtr@UIConnectionPoint@@@ATL@@QAE@XZ 10007470 f i MotionSensor.obj
 0001:000064a0       ??1?$CComPtr@UIConnectionPointContainer@@@ATL@@QAE@XZ 100074a0 f i MotionSensor.obj
 0001:000064d0       ??1?$CComPtr@UIDataObject@@@ATL@@QAE@XZ 100074d0 f i MotionSensor.obj
 0001:00006500       ??1?$CComPtr@UIDispatch@@@ATL@@QAE@XZ 10007500 f i MotionSensor.obj
 0001:00006530       ??1?$CComPtr@UIOleClientSite@@@ATL@@QAE@XZ 10007530 f i MotionSensor.obj
 0001:00006560       ??1?$CComPtr@UIOleControlSite@@@ATL@@QAE@XZ 10007560 f i MotionSensor.obj
 0001:00006590       ??1?$CComPtr@UIOleInPlaceActiveObject@@@ATL@@QAE@XZ 10007590 f i MotionSensor.obj
 0001:000065c0       ??1?$CComPtr@UIOleInPlaceFrame@@@ATL@@QAE@XZ 100075c0 f i MotionSensor.obj
 0001:000065f0       ??1?$CComPtr@UIOleInPlaceObject@@@ATL@@QAE@XZ 100075f0 f i MotionSensor.obj
 0001:00006620       ??1?$CComPtr@UIOleInPlaceUIWindow@@@ATL@@QAE@XZ 10007620 f i MotionSensor.obj
 0001:00006650       ??1?$CComPtr@UIOleObject@@@ATL@@QAE@XZ 10007650 f i MotionSensor.obj
 0001:00006680       ??1?$CComPtr@UIPersistStream@@@ATL@@QAE@XZ 10007680 f i MotionSensor.obj
 0001:000066b0       ??1?$CComPtr@UIPersistStreamInit@@@ATL@@QAE@XZ 100076b0 f i MotionSensor.obj
 0001:000066e0       ??1?$CComPtr@UIPointerInactive@@@ATL@@QAE@XZ 100076e0 f i MotionSensor.obj
 0001:00006710       ??1?$CComPtr@UIProvideClassInfo2@@@ATL@@QAE@XZ 10007710 f i MotionSensor.obj
 0001:00006740       ??1?$CComPtr@UISpecifyPropertyPages@@@ATL@@QAE@XZ 10007740 f i MotionSensor.obj
 0001:00006770       ??1?$CComPtr@UIStream@@@ATL@@QAE@XZ 10007770 f i MotionSensor.obj
 0001:000067a0       ??1?$CComPtr@UITypeInfo2@@@ATL@@QAE@XZ 100077a0 f i MotionSensor.obj
 0001:000067d0       ??1?$CComPtr@UITypeInfo@@@ATL@@QAE@XZ 100077d0 f i MotionSensor.obj
 0001:00006800       ??1?$CComPtr@UITypeLib@@@ATL@@QAE@XZ 10007800 f i MotionSensor.obj
 0001:00006830       ??1?$CComPtr@UIUnknown@@@ATL@@QAE@XZ 10007830 f i MotionSensor.obj
 0001:00006860       ??1?$CComPtr@UIViewObjectEx@@@ATL@@QAE@XZ 10007860 f i MotionSensor.obj
 0001:00006890       ??1?$CComPtrBase@UIAdviseSink@@@ATL@@QAE@XZ 10007890 f i MotionSensor.obj
 0001:000068e0       ??1?$CComPtrBase@UICatRegister@@@ATL@@QAE@XZ 100078e0 f i MotionSensor.obj
 0001:00006930       ??1?$CComPtrBase@UIConnectionPoint@@@ATL@@QAE@XZ 10007930 f i MotionSensor.obj
 0001:00006980       ??1?$CComPtrBase@UIConnectionPointContainer@@@ATL@@QAE@XZ 10007980 f i MotionSensor.obj
 0001:000069d0       ??1?$CComPtrBase@UIDataObject@@@ATL@@QAE@XZ 100079d0 f i MotionSensor.obj
 0001:00006a20       ??1?$CComPtrBase@UIDispatch@@@ATL@@QAE@XZ 10007a20 f i MotionSensor.obj
 0001:00006a70       ??1?$CComPtrBase@UIOleClientSite@@@ATL@@QAE@XZ 10007a70 f i MotionSensor.obj
 0001:00006ac0       ??1?$CComPtrBase@UIOleControlSite@@@ATL@@QAE@XZ 10007ac0 f i MotionSensor.obj
 0001:00006b10       ??1?$CComPtrBase@UIOleInPlaceActiveObject@@@ATL@@QAE@XZ 10007b10 f i MotionSensor.obj
 0001:00006b60       ??1?$CComPtrBase@UIOleInPlaceFrame@@@ATL@@QAE@XZ 10007b60 f i MotionSensor.obj
 0001:00006bb0       ??1?$CComPtrBase@UIOleInPlaceObject@@@ATL@@QAE@XZ 10007bb0 f i MotionSensor.obj
 0001:00006c00       ??1?$CComPtrBase@UIOleInPlaceUIWindow@@@ATL@@QAE@XZ 10007c00 f i MotionSensor.obj
 0001:00006c50       ??1?$CComPtrBase@UIOleObject@@@ATL@@QAE@XZ 10007c50 f i MotionSensor.obj
 0001:00006ca0       ??1?$CComPtrBase@UIPersistStream@@@ATL@@QAE@XZ 10007ca0 f i MotionSensor.obj
 0001:00006cf0       ??1?$CComPtrBase@UIPersistStreamInit@@@ATL@@QAE@XZ 10007cf0 f i MotionSensor.obj
 0001:00006d40       ??1?$CComPtrBase@UIPointerInactive@@@ATL@@QAE@XZ 10007d40 f i MotionSensor.obj
 0001:00006d90       ??1?$CComPtrBase@UIProvideClassInfo2@@@ATL@@QAE@XZ 10007d90 f i MotionSensor.obj
 0001:00006de0       ??1?$CComPtrBase@UISpecifyPropertyPages@@@ATL@@QAE@XZ 10007de0 f i MotionSensor.obj
 0001:00006e30       ??1?$CComPtrBase@UIStream@@@ATL@@QAE@XZ 10007e30 f i MotionSensor.obj
 0001:00006e80       ??1?$CComPtrBase@UITypeInfo2@@@ATL@@QAE@XZ 10007e80 f i MotionSensor.obj
 0001:00006ed0       ??1?$CComPtrBase@UITypeInfo@@@ATL@@QAE@XZ 10007ed0 f i MotionSensor.obj
 0001:00006f20       ??1?$CComPtrBase@UITypeLib@@@ATL@@QAE@XZ 10007f20 f i MotionSensor.obj
 0001:00006f70       ??1?$CComPtrBase@UIUnknown@@@ATL@@QAE@XZ 10007f70 f i MotionSensor.obj
 0001:00006fc0       ??1?$CComPtrBase@UIViewObjectEx@@@ATL@@QAE@XZ 10007fc0 f i MotionSensor.obj
 0001:00007010       ??1?$CComQIPtr@UIOleControlSite@@$1?_GUID_b196b289_bab4_101a_b69c_00aa00341d07@@3U__s_GUID@@B@ATL@@QAE@XZ 10008010 f i MotionSensor.obj
 0001:00007040       ??1?$CComQIPtr@UIOleObject@@$1?_GUID_00000112_0000_0000_c000_000000000046@@3U__s_GUID@@B@ATL@@QAE@XZ 10008040 f i MotionSensor.obj
 0001:00007070       ??1?$CComQIPtr@UISpecifyPropertyPages@@$1?_GUID_b196b28b_bab4_101a_b69c_00aa00341d07@@3U__s_GUID@@B@ATL@@QAE@XZ 10008070 f i MotionSensor.obj
 0001:000070a0       ??1?$CSimpleMap@PA_WPA_WVCExpansionVectorEqualHelper@ATL@@@ATL@@QAE@XZ 100080a0 f i MotionSensor.obj
 0001:000070d0       ??1?$CTempBuffer@E$0BAA@VCCRTAllocator@ATL@@@ATL@@QAE@XZ 100080d0 f i MotionSensor.obj
 0001:00007110       ??1?$CTempBuffer@_W$0BAA@VCCRTAllocator@ATL@@@ATL@@QAE@XZ 10008110 f i MotionSensor.obj
 0001:00007150       ??1?$CTempBuffer@_W$0EAA@VCCRTAllocator@ATL@@@ATL@@QAE@XZ 10008150 f i MotionSensor.obj
 0001:00007190       ??1CAtlModule@ATL@@UAE@XZ  10008190 f i MotionSensor.obj
 0001:000071c0       ??1CComAutoDeleteCriticalSection@ATL@@QAE@XZ 100081c0 f i MotionSensor.obj
 0001:000071f0       ??1CComClassFactory@ATL@@UAE@XZ 100081f0 f i MotionSensor.obj
 0001:00007220       ??1CComModule@ATL@@UAE@XZ  10008220 f i MotionSensor.obj
 0001:00007250       ??1CComObjectRootBase@ATL@@QAE@XZ 10008250 f i MotionSensor.obj
 0001:00007270       ??1CComSafeDeleteCriticalSection@ATL@@QAE@XZ 10008270 f i MotionSensor.obj
 0001:000072b0       ??1CComVariant@ATL@@QAE@XZ 100082b0 f i MotionSensor.obj
 0001:00007310       ??1CExpansionVector@ATL@@QAE@XZ 10008310 f i MotionSensor.obj
 0001:00007340       ??1CParseBuffer@CRegParser@ATL@@QAE@XZ 10008340 f i MotionSensor.obj
 0001:00007380       ??1CRegKey@ATL@@QAE@XZ     10008380 f i MotionSensor.obj
 0001:000073b0       ??1CRegObject@ATL@@UAE@XZ  100083b0 f i MotionSensor.obj
 0001:000073f0       ??1ModuleLockHelper@ATL@@QAE@XZ 100083f0 f i MotionSensor.obj
 0001:00007430       ??1OposVariant@@QAE@XZ     10008430 f i MotionSensor.obj
 0001:00007460       ??1_ATL_MODULE70@ATL@@QAE@XZ 10008460 f i MotionSensor.obj
 0001:00007490       ??4?$CComPtr@UIAdviseSink@@@ATL@@QAEPAUIAdviseSink@@PAU2@@Z 10008490 f i MotionSensor.obj
 0001:000074f0       ??4?$CComPtr@UIOleClientSite@@@ATL@@QAEPAUIOleClientSite@@PAU2@@Z 100084f0 f i MotionSensor.obj
 0001:00007550       ??4?$CComPtr@UIUnknown@@@ATL@@QAEPAUIUnknown@@PAU2@@Z 10008550 f i MotionSensor.obj
 0001:000075b0       ??4?$CComQIPtr@UIOleObject@@$1?_GUID_00000112_0000_0000_c000_000000000046@@3U__s_GUID@@B@ATL@@QAEPAUIOleObject@@PAUIUnknown@@@Z 100085b0 f i MotionSensor.obj
 0001:00007600       ??4?$CComQIPtr@UISpecifyPropertyPages@@$1?_GUID_b196b28b_bab4_101a_b69c_00aa00341d07@@3U__s_GUID@@B@ATL@@QAEPAUISpecifyPropertyPages@@PAUIUnknown@@@Z 10008600 f i MotionSensor.obj
 0001:00007650       ??7?$CComPtrBase@UIOleClientSite@@@ATL@@QBE_NXZ 10008650 f i MotionSensor.obj
 0001:00007690       ??7?$CComPtrBase@UIOleInPlaceSiteWindowless@@@ATL@@QBE_NXZ 10008690 f i MotionSensor.obj
 0001:000076d0       ??7CComBSTR@ATL@@QBE_NXZ   100086d0 f i MotionSensor.obj
 0001:00007710       ??8?$CComPtrBase@UIConnectionPointContainer@@@ATL@@QBE_NPAUIConnectionPointContainer@@@Z 10008710 f i MotionSensor.obj
 0001:00007750       ??8?$CComPtrBase@UIDataAdviseHolder@@@ATL@@QBE_NPAUIDataAdviseHolder@@@Z 10008750 f i MotionSensor.obj
 0001:00007790       ??8?$CComPtrBase@UIOleAdviseHolder@@@ATL@@QBE_NPAUIOleAdviseHolder@@@Z 10008790 f i MotionSensor.obj
 0001:000077d0       ??8?$CComPtrBase@UIOleClientSite@@@ATL@@QBE_NPAUIOleClientSite@@@Z 100087d0 f i MotionSensor.obj
 0001:00007810       ??8?$CComPtrBase@UIOleControlSite@@@ATL@@QBE_NPAUIOleControlSite@@@Z 10008810 f i MotionSensor.obj
 0001:00007850       ??8?$CComPtrBase@UIOleInPlaceObject@@@ATL@@QBE_NPAUIOleInPlaceObject@@@Z 10008850 f i MotionSensor.obj
 0001:00007890       ??8?$CComPtrBase@UIOleInPlaceSiteWindowless@@@ATL@@QBE_NPAUIOleInPlaceSiteWindowless@@@Z 10008890 f i MotionSensor.obj
 0001:000078d0       ??8?$CComPtrBase@UIOleObject@@@ATL@@QBE_NPAUIOleObject@@@Z 100088d0 f i MotionSensor.obj
 0001:00007910       ??8?$CComPtrBase@UIPersistStream@@@ATL@@QBE_NPAUIPersistStream@@@Z 10008910 f i MotionSensor.obj
 0001:00007950       ??8?$CComPtrBase@UIPersistStreamInit@@@ATL@@QBE_NPAUIPersistStreamInit@@@Z 10008950 f i MotionSensor.obj
 0001:00007990       ??8?$CComPtrBase@UIPointerInactive@@@ATL@@QBE_NPAUIPointerInactive@@@Z 10008990 f i MotionSensor.obj
 0001:000079d0       ??8?$CComPtrBase@UIUnknown@@@ATL@@QBE_NPAUIUnknown@@@Z 100089d0 f i MotionSensor.obj
 0001:00007a10       ??8?$CComPtrBase@UIViewObjectEx@@@ATL@@QBE_NPAUIViewObjectEx@@@Z 10008a10 f i MotionSensor.obj
 0001:00007a50       ??8CComBSTR@ATL@@QBE_NH@Z  10008a50 f i MotionSensor.obj
 0001:00007ab0       ??9?$CComPtrBase@UIConnectionPointContainer@@@ATL@@QBE_NPAUIConnectionPointContainer@@@Z 10008ab0 f i MotionSensor.obj
 0001:00007b00       ??9?$CComPtrBase@UIDataAdviseHolder@@@ATL@@QBE_NPAUIDataAdviseHolder@@@Z 10008b00 f i MotionSensor.obj
 0001:00007b50       ??9?$CComPtrBase@UIOleAdviseHolder@@@ATL@@QBE_NPAUIOleAdviseHolder@@@Z 10008b50 f i MotionSensor.obj
 0001:00007ba0       ??9?$CComPtrBase@UIOleClientSite@@@ATL@@QBE_NPAUIOleClientSite@@@Z 10008ba0 f i MotionSensor.obj
 0001:00007bf0       ??9?$CComPtrBase@UIOleControlSite@@@ATL@@QBE_NPAUIOleControlSite@@@Z 10008bf0 f i MotionSensor.obj
 0001:00007c40       ??9?$CComPtrBase@UIOleInPlaceObject@@@ATL@@QBE_NPAUIOleInPlaceObject@@@Z 10008c40 f i MotionSensor.obj
 0001:00007c90       ??9?$CComPtrBase@UIOleInPlaceSiteWindowless@@@ATL@@QBE_NPAUIOleInPlaceSiteWindowless@@@Z 10008c90 f i MotionSensor.obj
 0001:00007ce0       ??9?$CComPtrBase@UIOleObject@@@ATL@@QBE_NPAUIOleObject@@@Z 10008ce0 f i MotionSensor.obj
 0001:00007d30       ??9?$CComPtrBase@UIPersistStream@@@ATL@@QBE_NPAUIPersistStream@@@Z 10008d30 f i MotionSensor.obj
 0001:00007d80       ??9?$CComPtrBase@UIPersistStreamInit@@@ATL@@QBE_NPAUIPersistStreamInit@@@Z 10008d80 f i MotionSensor.obj
 0001:00007dd0       ??9?$CComPtrBase@UIPointerInactive@@@ATL@@QBE_NPAUIPointerInactive@@@Z 10008dd0 f i MotionSensor.obj
 0001:00007e20       ??9?$CComPtrBase@UIUnknown@@@ATL@@QBE_NPAUIUnknown@@@Z 10008e20 f i MotionSensor.obj
 0001:00007e70       ??9?$CComPtrBase@UIViewObjectEx@@@ATL@@QBE_NPAUIViewObjectEx@@@Z 10008e70 f i MotionSensor.obj
 0001:00007ec0       ??9CComBSTR@ATL@@QBE_NH@Z  10008ec0 f i MotionSensor.obj
 0001:00007f10       ??B?$CComPtrBase@UIAdviseSink@@@ATL@@QBEPAUIAdviseSink@@XZ 10008f10 f i MotionSensor.obj
 0001:00007f30       ??B?$CComPtrBase@UIDataAdviseHolder@@@ATL@@QBEPAUIDataAdviseHolder@@XZ 10008f30 f i MotionSensor.obj
 0001:00007f50       ??B?$CComPtrBase@UIDataObject@@@ATL@@QBEPAUIDataObject@@XZ 10008f50 f i MotionSensor.obj
 0001:00007f70       ??B?$CComPtrBase@UIOleAdviseHolder@@@ATL@@QBEPAUIOleAdviseHolder@@XZ 10008f70 f i MotionSensor.obj
 0001:00007f90       ??B?$CComPtrBase@UIOleClientSite@@@ATL@@QBEPAUIOleClientSite@@XZ 10008f90 f i MotionSensor.obj
 0001:00007fb0       ??B?$CComPtrBase@UIOleControlSite@@@ATL@@QBEPAUIOleControlSite@@XZ 10008fb0 f i MotionSensor.obj
 0001:00007fd0       ??B?$CComPtrBase@UIOleInPlaceActiveObject@@@ATL@@QBEPAUIOleInPlaceActiveObject@@XZ 10008fd0 f i MotionSensor.obj
 0001:00007ff0       ??B?$CComPtrBase@UIOleInPlaceFrame@@@ATL@@QBEPAUIOleInPlaceFrame@@XZ 10008ff0 f i MotionSensor.obj
 0001:00008010       ??B?$CComPtrBase@UIOleInPlaceSiteWindowless@@@ATL@@QBEPAUIOleInPlaceSiteWindowless@@XZ 10009010 f i MotionSensor.obj
 0001:00008030       ??B?$CComPtrBase@UIOleInPlaceUIWindow@@@ATL@@QBEPAUIOleInPlaceUIWindow@@XZ 10009030 f i MotionSensor.obj
 0001:00008050       ??B?$CComPtrBase@UIOleObject@@@ATL@@QBEPAUIOleObject@@XZ 10009050 f i MotionSensor.obj
 0001:00008070       ??B?$CComPtrBase@UIPersistStream@@@ATL@@QBEPAUIPersistStream@@XZ 10009070 f i MotionSensor.obj
 0001:00008090       ??B?$CComPtrBase@UIProvideClassInfo2@@@ATL@@QBEPAUIProvideClassInfo2@@XZ 10009090 f i MotionSensor.obj
 0001:000080b0       ??B?$CComPtrBase@UISpecifyPropertyPages@@@ATL@@QBEPAUISpecifyPropertyPages@@XZ 100090b0 f i MotionSensor.obj
 0001:000080d0       ??B?$CComPtrBase@UIStream@@@ATL@@QBEPAUIStream@@XZ 100090d0 f i MotionSensor.obj
 0001:000080f0       ??B?$CComPtrBase@UITypeInfo2@@@ATL@@QBEPAUITypeInfo2@@XZ 100090f0 f i MotionSensor.obj
 0001:00008110       ??B?$CComPtrBase@UITypeInfo@@@ATL@@QBEPAUITypeInfo@@XZ 10009110 f i MotionSensor.obj
 0001:00008130       ??B?$CComPtrBase@UITypeLib@@@ATL@@QBEPAUITypeLib@@XZ 10009130 f i MotionSensor.obj
 0001:00008150       ??B?$CComPtrBase@UIUnknown@@@ATL@@QBEPAUIUnknown@@XZ 10009150 f i MotionSensor.obj
 0001:00008170       ??B?$CTempBuffer@E$0BAA@VCCRTAllocator@ATL@@@ATL@@QBEPAEXZ 10009170 f i MotionSensor.obj
 0001:00008190       ??B?$CTempBuffer@_W$0BAA@VCCRTAllocator@ATL@@@ATL@@QBEPA_WXZ 10009190 f i MotionSensor.obj
 0001:000081b0       ??B?$CTempBuffer@_W$0EAA@VCCRTAllocator@ATL@@@ATL@@QBEPA_WXZ 100091b0 f i MotionSensor.obj
 0001:000081d0       ??B?$CTraceCategoryEx@$00$0A@@ATL@@QAEIXZ 100091d0 f i MotionSensor.obj
 0001:000081f0       ??B?$CTraceCategoryEx@$07$0A@@ATL@@QAEIXZ 100091f0 f i MotionSensor.obj
 0001:00008210       ??B?$CTraceCategoryEx@$0CAAA@$0A@@ATL@@QAEIXZ 10009210 f i MotionSensor.obj
 0001:00008230       ??B?$CTraceCategoryEx@$0EA@$0A@@ATL@@QAEIXZ 10009230 f i MotionSensor.obj
 0001:00008250       ??B?$CTraceCategoryEx@$0IAA@$0A@@ATL@@QAEIXZ 10009250 f i MotionSensor.obj
 0001:00008270       ??BCComBSTR@ATL@@QBEPA_WXZ 10009270 f i MotionSensor.obj
 0001:00008290       ??BCRegKey@ATL@@QBEPAUHKEY__@@XZ 10009290 f i MotionSensor.obj
 0001:000082b0       ??C?$CComPtrBase@UIAdviseSink@@@ATL@@QBEPAV?$_NoAddRefReleaseOnCComPtr@UIAdviseSink@@@1@XZ 100092b0 f i MotionSensor.obj
 0001:00008300       ??C?$CComPtrBase@UICatRegister@@@ATL@@QBEPAV?$_NoAddRefReleaseOnCComPtr@UICatRegister@@@1@XZ 10009300 f i MotionSensor.obj
 0001:00008350       ??C?$CComPtrBase@UIConnectionPoint@@@ATL@@QBEPAV?$_NoAddRefReleaseOnCComPtr@UIConnectionPoint@@@1@XZ 10009350 f i MotionSensor.obj
 0001:000083a0       ??C?$CComPtrBase@UIConnectionPointContainer@@@ATL@@QBEPAV?$_NoAddRefReleaseOnCComPtr@UIConnectionPointContainer@@@1@XZ 100093a0 f i MotionSensor.obj
 0001:000083f0       ??C?$CComPtrBase@UIDataAdviseHolder@@@ATL@@QBEPAV?$_NoAddRefReleaseOnCComPtr@UIDataAdviseHolder@@@1@XZ 100093f0 f i MotionSensor.obj
 0001:00008440       ??C?$CComPtrBase@UIOleAdviseHolder@@@ATL@@QBEPAV?$_NoAddRefReleaseOnCComPtr@UIOleAdviseHolder@@@1@XZ 10009440 f i MotionSensor.obj
 0001:00008490       ??C?$CComPtrBase@UIOleClientSite@@@ATL@@QBEPAV?$_NoAddRefReleaseOnCComPtr@UIOleClientSite@@@1@XZ 10009490 f i MotionSensor.obj
 0001:000084e0       ??C?$CComPtrBase@UIOleControlSite@@@ATL@@QBEPAV?$_NoAddRefReleaseOnCComPtr@UIOleControlSite@@@1@XZ 100094e0 f i MotionSensor.obj
 0001:00008530       ??C?$CComPtrBase@UIOleInPlaceFrame@@@ATL@@QBEPAV?$_NoAddRefReleaseOnCComPtr@UIOleInPlaceFrame@@@1@XZ 10009530 f i MotionSensor.obj
 0001:00008580       ??C?$CComPtrBase@UIOleInPlaceObject@@@ATL@@QBEPAV?$_NoAddRefReleaseOnCComPtr@UIOleInPlaceObject@@@1@XZ 10009580 f i MotionSensor.obj
 0001:000085d0       ??C?$CComPtrBase@UIOleInPlaceSiteWindowless@@@ATL@@QBEPAV?$_NoAddRefReleaseOnCComPtr@UIOleInPlaceSiteWindowless@@@1@XZ 100095d0 f i MotionSensor.obj
 0001:00008620       ??C?$CComPtrBase@UIOleInPlaceUIWindow@@@ATL@@QBEPAV?$_NoAddRefReleaseOnCComPtr@UIOleInPlaceUIWindow@@@1@XZ 10009620 f i MotionSensor.obj
 0001:00008670       ??C?$CComPtrBase@UIOleObject@@@ATL@@QBEPAV?$_NoAddRefReleaseOnCComPtr@UIOleObject@@@1@XZ 10009670 f i MotionSensor.obj
 0001:000086c0       ??C?$CComPtrBase@UIPersistStream@@@ATL@@QBEPAV?$_NoAddRefReleaseOnCComPtr@UIPersistStream@@@1@XZ 100096c0 f i MotionSensor.obj
 0001:00008710       ??C?$CComPtrBase@UIPersistStreamInit@@@ATL@@QBEPAV?$_NoAddRefReleaseOnCComPtr@UIPersistStreamInit@@@1@XZ 10009710 f i MotionSensor.obj
 0001:00008760       ??C?$CComPtrBase@UIPointerInactive@@@ATL@@QBEPAV?$_NoAddRefReleaseOnCComPtr@UIPointerInactive@@@1@XZ 10009760 f i MotionSensor.obj
 0001:000087b0       ??C?$CComPtrBase@UIProvideClassInfo2@@@ATL@@QBEPAV?$_NoAddRefReleaseOnCComPtr@UIProvideClassInfo2@@@1@XZ 100097b0 f i MotionSensor.obj
 0001:00008800       ??C?$CComPtrBase@UISpecifyPropertyPages@@@ATL@@QBEPAV?$_NoAddRefReleaseOnCComPtr@UISpecifyPropertyPages@@@1@XZ 10009800 f i MotionSensor.obj
 0001:00008850       ??C?$CComPtrBase@UITypeInfo@@@ATL@@QBEPAV?$_NoAddRefReleaseOnCComPtr@UITypeInfo@@@1@XZ 10009850 f i MotionSensor.obj
 0001:000088a0       ??C?$CComPtrBase@UITypeLib@@@ATL@@QBEPAV?$_NoAddRefReleaseOnCComPtr@UITypeLib@@@1@XZ 100098a0 f i MotionSensor.obj
 0001:000088f0       ??C?$CComPtrBase@UIUnknown@@@ATL@@QBEPAV?$_NoAddRefReleaseOnCComPtr@UIUnknown@@@1@XZ 100098f0 f i MotionSensor.obj
 0001:00008940       ??C?$CComPtrBase@UIViewObjectEx@@@ATL@@QBEPAV?$_NoAddRefReleaseOnCComPtr@UIViewObjectEx@@@1@XZ 10009940 f i MotionSensor.obj
 0001:00008990       ??I?$CComPtrBase@UICatRegister@@@ATL@@QAEPAPAUICatRegister@@XZ 10009990 f i MotionSensor.obj
 0001:000089e0       ??I?$CComPtrBase@UIConnectionPoint@@@ATL@@QAEPAPAUIConnectionPoint@@XZ 100099e0 f i MotionSensor.obj
 0001:00008a30       ??I?$CComPtrBase@UIConnectionPointContainer@@@ATL@@QAEPAPAUIConnectionPointContainer@@XZ 10009a30 f i MotionSensor.obj
 0001:00008a80       ??I?$CComPtrBase@UIDataAdviseHolder@@@ATL@@QAEPAPAUIDataAdviseHolder@@XZ 10009a80 f i MotionSensor.obj
 0001:00008ad0       ??I?$CComPtrBase@UIDataObject@@@ATL@@QAEPAPAUIDataObject@@XZ 10009ad0 f i MotionSensor.obj
 0001:00008b20       ??I?$CComPtrBase@UIDispatch@@@ATL@@QAEPAPAUIDispatch@@XZ 10009b20 f i MotionSensor.obj
 0001:00008b70       ??I?$CComPtrBase@UIOleAdviseHolder@@@ATL@@QAEPAPAUIOleAdviseHolder@@XZ 10009b70 f i MotionSensor.obj
 0001:00008bc0       ??I?$CComPtrBase@UIOleControlSite@@@ATL@@QAEPAPAUIOleControlSite@@XZ 10009bc0 f i MotionSensor.obj
 0001:00008c10       ??I?$CComPtrBase@UIOleInPlaceActiveObject@@@ATL@@QAEPAPAUIOleInPlaceActiveObject@@XZ 10009c10 f i MotionSensor.obj
 0001:00008c60       ??I?$CComPtrBase@UIOleInPlaceFrame@@@ATL@@QAEPAPAUIOleInPlaceFrame@@XZ 10009c60 f i MotionSensor.obj
 0001:00008cb0       ??I?$CComPtrBase@UIOleInPlaceObject@@@ATL@@QAEPAPAUIOleInPlaceObject@@XZ 10009cb0 f i MotionSensor.obj
 0001:00008d00       ??I?$CComPtrBase@UIOleInPlaceSiteWindowless@@@ATL@@QAEPAPAUIOleInPlaceSiteWindowless@@XZ 10009d00 f i MotionSensor.obj
 0001:00008d50       ??I?$CComPtrBase@UIOleInPlaceUIWindow@@@ATL@@QAEPAPAUIOleInPlaceUIWindow@@XZ 10009d50 f i MotionSensor.obj
 0001:00008da0       ??I?$CComPtrBase@UIOleObject@@@ATL@@QAEPAPAUIOleObject@@XZ 10009da0 f i MotionSensor.obj
 0001:00008df0       ??I?$CComPtrBase@UIPersistStream@@@ATL@@QAEPAPAUIPersistStream@@XZ 10009df0 f i MotionSensor.obj
 0001:00008e40       ??I?$CComPtrBase@UIPointerInactive@@@ATL@@QAEPAPAUIPointerInactive@@XZ 10009e40 f i MotionSensor.obj
 0001:00008e90       ??I?$CComPtrBase@UIProvideClassInfo2@@@ATL@@QAEPAPAUIProvideClassInfo2@@XZ 10009e90 f i MotionSensor.obj
 0001:00008ee0       ??I?$CComPtrBase@UIStream@@@ATL@@QAEPAPAUIStream@@XZ 10009ee0 f i MotionSensor.obj
 0001:00008f30       ??I?$CComPtrBase@UITypeInfo2@@@ATL@@QAEPAPAUITypeInfo2@@XZ 10009f30 f i MotionSensor.obj
 0001:00008f80       ??I?$CComPtrBase@UITypeInfo@@@ATL@@QAEPAPAUITypeInfo@@XZ 10009f80 f i MotionSensor.obj
 0001:00008fd0       ??I?$CComPtrBase@UITypeLib@@@ATL@@QAEPAPAUITypeLib@@XZ 10009fd0 f i MotionSensor.obj
 0001:00009020       ??I?$CComPtrBase@UIUnknown@@@ATL@@QAEPAPAUIUnknown@@XZ 1000a020 f i MotionSensor.obj
 0001:00009070       ??I?$CComPtrBase@UIViewObjectEx@@@ATL@@QAEPAPAUIViewObjectEx@@XZ 1000a070 f i MotionSensor.obj
 0001:000090c0       ??ICComBSTR@ATL@@QAEPAPA_WXZ 1000a0c0 f i MotionSensor.obj
 0001:000090d5       ??_E?$CComContainedObject@VCOPOSMotionSensor@@@ATL@@W3AEPAXI@Z 1000a0d5 f i MotionSensor.obj
 0001:000090dd       ??_E?$CComContainedObject@VCOPOSMotionSensor@@@ATL@@WEM@AEPAXI@Z 1000a0dd f i MotionSensor.obj
 0001:000090e5       ??_E?$CComObject@VCOPOSMotionSensor@@@ATL@@W3AEPAXI@Z 1000a0e5 f i MotionSensor.obj
 0001:000090ed       ??_E?$CComObject@VCOPOSMotionSensor@@@ATL@@WEM@AEPAXI@Z 1000a0ed f i MotionSensor.obj
 0001:00009100       ??_E?$CComAggObject@VCOPOSMotionSensor@@@ATL@@UAEPAXI@Z 1000a100 f i MotionSensor.obj
 0001:00009100       ??_G?$CComAggObject@VCOPOSMotionSensor@@@ATL@@UAEPAXI@Z 1000a100 f i MotionSensor.obj
 0001:00009150       ??_G?$CComContainedObject@VCOPOSMotionSensor@@@ATL@@UAEPAXI@Z 1000a150 f i MotionSensor.obj
 0001:00009150       ??_E?$CComContainedObject@VCOPOSMotionSensor@@@ATL@@UAEPAXI@Z 1000a150 f i MotionSensor.obj
 0001:000091a0       ??_G?$CComObject@V?$CComEnum@UIEnumConnectionPoints@@$1?_GUID_b196b285_bab4_101a_b69c_00aa00341d07@@3U__s_GUID@@BPAUIConnectionPoint@@V?$_CopyInterface@UIConnectionPoint@@@ATL@@VCComSingleThreadModel@6@@ATL@@@ATL@@UAEPAXI@Z 1000a1a0 f i MotionSensor.obj
 0001:000091a0       ??_E?$CComObject@V?$CComEnum@UIEnumConnectionPoints@@$1?_GUID_b196b285_bab4_101a_b69c_00aa00341d07@@3U__s_GUID@@BPAUIConnectionPoint@@V?$_CopyInterface@UIConnectionPoint@@@ATL@@VCComSingleThreadModel@6@@ATL@@@ATL@@UAEPAXI@Z 1000a1a0 f i MotionSensor.obj
 0001:000091e0       ??_E?$CComObject@V?$CComEnum@UIEnumConnections@@$1?_GUID_b196b287_bab4_101a_b69c_00aa00341d07@@3U__s_GUID@@BUtagCONNECTDATA@@V?$_Copy@UtagCONNECTDATA@@@ATL@@VCComSingleThreadModel@6@@ATL@@@ATL@@UAEPAXI@Z 1000a1e0 f i MotionSensor.obj
 0001:000091e0       ??_G?$CComObject@V?$CComEnum@UIEnumConnections@@$1?_GUID_b196b287_bab4_101a_b69c_00aa00341d07@@3U__s_GUID@@BUtagCONNECTDATA@@V?$_Copy@UtagCONNECTDATA@@@ATL@@VCComSingleThreadModel@6@@ATL@@@ATL@@UAEPAXI@Z 1000a1e0 f i MotionSensor.obj
 0001:00009220       ??_G?$CComObject@VCOPOSMotionSensor@@@ATL@@UAEPAXI@Z 1000a220 f i MotionSensor.obj
 0001:00009220       ??_E?$CComObject@VCOPOSMotionSensor@@@ATL@@UAEPAXI@Z 1000a220 f i MotionSensor.obj
 0001:00009270       ??_E?$CComObjectCached@VCComClassFactory@ATL@@@ATL@@UAEPAXI@Z 1000a270 f i MotionSensor.obj
 0001:00009270       ??_G?$CComObjectCached@VCComClassFactory@ATL@@@ATL@@UAEPAXI@Z 1000a270 f i MotionSensor.obj
 0001:000092b0       ??_GCComClassFactory@ATL@@UAEPAXI@Z 1000a2b0 f i MotionSensor.obj
 0001:000092b0       ??_ECComClassFactory@ATL@@UAEPAXI@Z 1000a2b0 f i MotionSensor.obj
 0001:000092f0       ??_GCComModule@ATL@@UAEPAXI@Z 1000a2f0 f i MotionSensor.obj
 0001:000092f0       ??_ECComModule@ATL@@UAEPAXI@Z 1000a2f0 f i MotionSensor.obj
 0001:00009330       ??_ECRegObject@ATL@@UAEPAXI@Z 1000a330 f i MotionSensor.obj
 0001:00009330       ??_GCRegObject@ATL@@UAEPAXI@Z 1000a330 f i MotionSensor.obj
 0001:00009370       ?Add@?$CSimpleArray@GV?$CSimpleArrayEqualHelper@G@ATL@@@ATL@@QAEHABG@Z 1000a370 f i MotionSensor.obj
 0001:000094c0       ?Add@?$CSimpleMap@PA_WPA_WVCExpansionVectorEqualHelper@ATL@@@ATL@@QAEHABQA_W0@Z 1000a4c0 f i MotionSensor.obj
 0001:00009580       ?Add@CComDynamicUnkArray@ATL@@QAEKPAUIUnknown@@@Z 1000a580 f i MotionSensor.obj
 0001:00009720       ?Add@CExpansionVector@ATL@@QAEHPB_W0@Z 1000a720 f i MotionSensor.obj
 0001:000099b0       ?AddChar@CParseBuffer@CRegParser@ATL@@QAEHPB_W@Z 1000a9b0 f i MotionSensor.obj
 0001:000099f0       ?AddCommonRGSReplacements@?$CAtlModuleT@VCComModule@ATL@@@ATL@@UAEJPAUIRegistrarBase@@@Z 1000a9f0 f i MotionSensor.obj
 0001:00009a40       ?AddCreateWndData@CAtlWinModule@ATL@@QAEXPAU_AtlCreateWndData@2@PAX@Z 1000aa40 f i MotionSensor.obj
 0001:00009a70       ?AddRef@?$CComAggObject@VCOPOSMotionSensor@@@ATL@@UAGKXZ 1000aa70 f i MotionSensor.obj
 0001:00009a90       ?AddRef@?$CComContainedObject@VCOPOSMotionSensor@@@ATL@@UAGKXZ 1000aa90 f i MotionSensor.obj
 0001:00009aac       ?AddRef@?$CComContainedObject@VCOPOSMotionSensor@@@ATL@@WHA@AGKXZ 1000aaac f i MotionSensor.obj
 0001:00009ab6       ?AddRef@?$CComContainedObject@VCOPOSMotionSensor@@@ATL@@WHE@AGKXZ 1000aab6 f i MotionSensor.obj
 0001:00009ac0       ?AddRef@?$CComContainedObject@VCOPOSMotionSensor@@@ATL@@WHI@AGKXZ 1000aac0 f i MotionSensor.obj
 0001:00009aca       ?AddRef@?$CComContainedObject@VCOPOSMotionSensor@@@ATL@@WHM@AGKXZ 1000aaca f i MotionSensor.obj
 0001:00009ad4       ?AddRef@?$CComContainedObject@VCOPOSMotionSensor@@@ATL@@WIA@AGKXZ 1000aad4 f i MotionSensor.obj
 0001:00009ae1       ?AddRef@?$CComContainedObject@VCOPOSMotionSensor@@@ATL@@WIE@AGKXZ 1000aae1 f i MotionSensor.obj
 0001:00009aee       ?AddRef@?$CComContainedObject@VCOPOSMotionSensor@@@ATL@@WII@AGKXZ 1000aaee f i MotionSensor.obj
 0001:00009afb       ?AddRef@?$CComContainedObject@VCOPOSMotionSensor@@@ATL@@WIM@AGKXZ 1000aafb f i MotionSensor.obj
 0001:00009b08       ?AddRef@?$CComContainedObject@VCOPOSMotionSensor@@@ATL@@WJA@AGKXZ 1000ab08 f i MotionSensor.obj
 0001:00009b15       ?AddRef@?$CComContainedObject@VCOPOSMotionSensor@@@ATL@@WJE@AGKXZ 1000ab15 f i MotionSensor.obj
 0001:00009b22       ?AddRef@?$CComContainedObject@VCOPOSMotionSensor@@@ATL@@WJI@AGKXZ 1000ab22 f i MotionSensor.obj
 0001:00009b2f       ?AddRef@?$CComContainedObject@VCOPOSMotionSensor@@@ATL@@WJM@AGKXZ 1000ab2f f i MotionSensor.obj
 0001:00009b3c       ?AddRef@?$CComContainedObject@VCOPOSMotionSensor@@@ATL@@WKA@AGKXZ 1000ab3c f i MotionSensor.obj
 0001:00009b49       ?AddRef@?$CComContainedObject@VCOPOSMotionSensor@@@ATL@@WKI@AGKXZ 1000ab49 f i MotionSensor.obj
 0001:00009b56       ?AddRef@?$CComContainedObject@VCOPOSMotionSensor@@@ATL@@WLE@AGKXZ 1000ab56 f i MotionSensor.obj
 0001:00009b70       ?AddRef@?$CComObject@V?$CComEnum@UIEnumConnectionPoints@@$1?_GUID_b196b285_bab4_101a_b69c_00aa00341d07@@3U__s_GUID@@BPAUIConnectionPoint@@V?$_CopyInterface@UIConnectionPoint@@@ATL@@VCComSingleThreadModel@6@@ATL@@@ATL@@UAGKXZ 1000ab70 f i MotionSensor.obj
 0001:00009b90       ?AddRef@?$CComObject@V?$CComEnum@UIEnumConnections@@$1?_GUID_b196b287_bab4_101a_b69c_00aa00341d07@@3U__s_GUID@@BUtagCONNECTDATA@@V?$_Copy@UtagCONNECTDATA@@@ATL@@VCComSingleThreadModel@6@@ATL@@@ATL@@UAGKXZ 1000ab90 f i MotionSensor.obj
 0001:00009bb0       ?AddRef@?$CComObject@VCOPOSMotionSensor@@@ATL@@UAGKXZ 1000abb0 f i MotionSensor.obj
 0001:00009bcc       ?AddRef@?$CComObject@VCOPOSMotionSensor@@@ATL@@WHA@AGKXZ 1000abcc f i MotionSensor.obj
 0001:00009bd6       ?AddRef@?$CComObject@VCOPOSMotionSensor@@@ATL@@WHE@AGKXZ 1000abd6 f i MotionSensor.obj
 0001:00009be0       ?AddRef@?$CComObject@VCOPOSMotionSensor@@@ATL@@WHI@AGKXZ 1000abe0 f i MotionSensor.obj
 0001:00009bea       ?AddRef@?$CComObject@VCOPOSMotionSensor@@@ATL@@WHM@AGKXZ 1000abea f i MotionSensor.obj
 0001:00009bf4       ?AddRef@?$CComObject@VCOPOSMotionSensor@@@ATL@@WIA@AGKXZ 1000abf4 f i MotionSensor.obj
 0001:00009c01       ?AddRef@?$CComObject@VCOPOSMotionSensor@@@ATL@@WIE@AGKXZ 1000ac01 f i MotionSensor.obj
 0001:00009c0e       ?AddRef@?$CComObject@VCOPOSMotionSensor@@@ATL@@WII@AGKXZ 1000ac0e f i MotionSensor.obj
 0001:00009c1b       ?AddRef@?$CComObject@VCOPOSMotionSensor@@@ATL@@WIM@AGKXZ 1000ac1b f i MotionSensor.obj
 0001:00009c28       ?AddRef@?$CComObject@VCOPOSMotionSensor@@@ATL@@WJA@AGKXZ 1000ac28 f i MotionSensor.obj
 0001:00009c35       ?AddRef@?$CComObject@VCOPOSMotionSensor@@@ATL@@WJE@AGKXZ 1000ac35 f i MotionSensor.obj
 0001:00009c42       ?AddRef@?$CComObject@VCOPOSMotionSensor@@@ATL@@WJI@AGKXZ 1000ac42 f i MotionSensor.obj
 0001:00009c4f       ?AddRef@?$CComObject@VCOPOSMotionSensor@@@ATL@@WJM@AGKXZ 1000ac4f f i MotionSensor.obj
 0001:00009c5c       ?AddRef@?$CComObject@VCOPOSMotionSensor@@@ATL@@WKA@AGKXZ 1000ac5c f i MotionSensor.obj
 0001:00009c69       ?AddRef@?$CComObject@VCOPOSMotionSensor@@@ATL@@WKI@AGKXZ 1000ac69 f i MotionSensor.obj
 0001:00009c76       ?AddRef@?$CComObject@VCOPOSMotionSensor@@@ATL@@WLE@AGKXZ 1000ac76 f i MotionSensor.obj
 0001:00009c90       ?AddRef@?$CComObjectCached@VCComClassFactory@ATL@@@ATL@@UAGKXZ 1000ac90 f i MotionSensor.obj
 0001:00009ce0       ?AddRef@CRegObject@ATL@@UAGKXZ 1000ace0 f i MotionSensor.obj
 0001:00009d30       ?AddReplacement@CRegObject@ATL@@UAGJPB_W0@Z 1000ad30 f i MotionSensor.obj
 0001:00009e40       ?AddString@CParseBuffer@CRegParser@ATL@@QAEHPB_W@Z 1000ae40 f i MotionSensor.obj
 0001:00009f30       ?AddTermFunc@CAtlModule@ATL@@QAEJP6GXK@ZK@Z 1000af30 f i MotionSensor.obj
 0001:00009f80       ?AddValue@CRegParser@ATL@@IAEJAAVCRegKey@2@PB_WPA_W@Z 1000af80 f i MotionSensor.obj
 0001:0000a710       ?Advise@?$CProxy_IOPOSEvents@VCOPOSMotionSensor@@@@UAGJPAUIUnknown@@PAK@Z 1000b710 f i MotionSensor.obj
 0001:0000a760       ?Advise@?$IConnectionPointImpl@VCOPOSMotionSensor@@$1?DIID__IOPOSMotionSensorEvents@@3U_GUID@@BVCComDynamicUnkArray@ATL@@@ATL@@UAGJPAUIUnknown@@PAK@Z 1000b760 f i MotionSensor.obj
 0001:0000a900       ?Advise@?$IConnectionPointImpl@VCOPOSMotionSensor@@$1?IID_IPropertyNotifySink@@3U_GUID@@BVCComDynamicUnkArray@ATL@@@ATL@@UAGJPAUIUnknown@@PAK@Z 1000b900 f i MotionSensor.obj
 0001:0000aaa0       ?Advise@?$IOleObjectImpl@VCOPOSMotionSensor@@@ATL@@UAGJPAUIAdviseSink@@PAK@Z 1000baa0 f i MotionSensor.obj
 0001:0000ab30       ?Allocate@?$CAtlSafeAllocBufferManager@VCCRTAllocator@ATL@@@_ATL_SAFE_ALLOCA_IMPL@ATL@@QAEPAXK@Z 1000bb30 f i MotionSensor.obj
 0001:0000aba0       ?Allocate@?$CTempBuffer@E$0BAA@VCCRTAllocator@ATL@@@ATL@@QAEPAEI@Z 1000bba0 f i MotionSensor.obj
 0001:0000abe0       ?Allocate@?$CTempBuffer@_W$0BAA@VCCRTAllocator@ATL@@@ATL@@QAEPA_WI@Z 1000bbe0 f i MotionSensor.obj
 0001:0000ac20       ?Allocate@?$CTempBuffer@_W$0EAA@VCCRTAllocator@ATL@@@ATL@@QAEPA_WI@Z 1000bc20 f i MotionSensor.obj
 0001:0000ac60       ?AllocateBytes@?$CTempBuffer@E$0BAA@VCCRTAllocator@ATL@@@ATL@@QAEPAEI@Z 1000bc60 f i MotionSensor.obj
 0001:0000ace0       ?AllocateBytes@?$CTempBuffer@_W$0BAA@VCCRTAllocator@ATL@@@ATL@@QAEPA_WI@Z 1000bce0 f i MotionSensor.obj
 0001:0000ad60       ?AllocateBytes@?$CTempBuffer@_W$0EAA@VCCRTAllocator@ATL@@@ATL@@QAEPA_WI@Z 1000bd60 f i MotionSensor.obj
 0001:0000ade0       ?AllocateHeap@?$CTempBuffer@E$0BAA@VCCRTAllocator@ATL@@@ATL@@AAEXI@Z 1000bde0 f i MotionSensor.obj
 0001:0000ae30       ?AllocateHeap@?$CTempBuffer@_W$0BAA@VCCRTAllocator@ATL@@@ATL@@AAEXI@Z 1000be30 f i MotionSensor.obj
 0001:0000ae80       ?AllocateHeap@?$CTempBuffer@_W$0EAA@VCCRTAllocator@ATL@@@ATL@@AAEXI@Z 1000be80 f i MotionSensor.obj
 0001:0000aed0       ?Append@CParseBuffer@CRegParser@ATL@@QAEHPB_WH@Z 1000bed0 f i MotionSensor.obj
 0001:0000b070       ?AtlCallTermFunc@ATL@@YGXPAU_ATL_MODULE70@1@@Z 1000c070 f i MotionSensor.obj
 0001:0000b110       ?AtlCoTaskMemCAlloc@ATL@@YAPAXKK@Z 1000c110 f i MotionSensor.obj
 0001:0000b1a0       ?AtlCoTaskMemRecalloc@ATL@@YAPAXPAXKK@Z 1000c1a0 f i MotionSensor.obj
 0001:0000b240       ?AtlComModuleGetClassObject@ATL@@YGJPAU_ATL_COM_MODULE70@1@ABU_GUID@@1PAPAX@Z 1000c240 f i MotionSensor.obj
 0001:0000b4d0       ?AtlComModuleRegisterServer@ATL@@YGJPAU_ATL_COM_MODULE70@1@HPBU_GUID@@@Z 1000c4d0 f i MotionSensor.obj
 0001:0000b660       ?AtlComModuleUnregisterServer@ATL@@YGJPAU_ATL_COM_MODULE70@1@HPBU_GUID@@@Z 1000c660 f i MotionSensor.obj
 0001:0000b790       ?AtlComQIPtrAssign2@ATL@@YAXPAPAUIUnknown@@PAU2@ABU_GUID@@@Z 1000c790 f i MotionSensor.obj
 0001:0000b810       ?AtlCreateTargetDC@ATL@@YGPAUHDC__@@PAU2@PAUtagDVTARGETDEVICE@@@Z 1000c810 f i MotionSensor.obj
 0001:0000b9b0       ?AtlCrtErrorCheck@ATL@@YAHH@Z 1000c9b0 f i MotionSensor.obj
 0001:0000ba80       ?AtlGetPerUserRegistration@ATL@@YGJPA_N@Z 1000ca80 f i MotionSensor.obj
 0001:0000bab0       ?AtlHiMetricToPixel@ATL@@YGXPBUtagSIZE@@PAU2@@Z 1000cab0 f i MotionSensor.obj
 0001:0000bc80       ?AtlHresultFromLastError@ATL@@YAJXZ 1000cc80 f i MotionSensor.obj
 0001:0000bcc0       ?AtlHresultFromWin32@ATL@@YAJK@Z 1000ccc0 f i MotionSensor.obj
 0001:0000bce0       ?AtlIPersistStreamInit_Load@ATL@@YGJPAUIStream@@PBUATL_PROPMAP_ENTRY@1@PAXPAUIUnknown@@@Z 1000cce0 f i MotionSensor.obj
 0001:0000c140       ?AtlIPersistStreamInit_Save@ATL@@YGJPAUIStream@@HPBUATL_PROPMAP_ENTRY@1@PAXPAUIUnknown@@@Z 1000d140 f i MotionSensor.obj
 0001:0000c520       ?AtlInternalOleLoadFromStream@ATL@@YAJPAUIStream@@ABU_GUID@@PAPAXTClassesAllowedInStream@1@K@Z 1000d520 f i MotionSensor.obj
 0001:0000c7c0       ?AtlInternalQueryInterface@ATL@@YGJPAXPBU_ATL_INTMAP_ENTRY@1@ABU_GUID@@PAPAX@Z 1000d7c0 f i MotionSensor.obj
 0001:0000c9f0       ?AtlLoadTypeLib@ATL@@YGJPAUHINSTANCE__@@PB_WPAPA_WPAPAUITypeLib@@@Z 1000d9f0 f i MotionSensor.obj
 0001:0000ce50       ?AtlModuleAddTermFunc@ATL@@YGJPAU_ATL_MODULE70@1@P6GXK@ZK@Z 1000de50 f i MotionSensor.obj
 0001:0000cfb0       ?AtlRegisterClassCategoriesHelper@ATL@@YGJABU_GUID@@PBU_ATL_CATMAP_ENTRY@1@H@Z 1000dfb0 f i MotionSensor.obj
 0001:0000d690       ?AtlRegisterTypeLib@ATL@@YGJPAUHINSTANCE__@@PB_W@Z 1000e690 f i MotionSensor.obj
 0001:0000d9d0       ?AtlThrowImpl@ATL@@YGXJ@Z  1000e9d0 f i MotionSensor.obj
 0001:0000da80       ?AtlUnRegisterTypeLib@ATL@@YGJPAUHINSTANCE__@@PB_W@Z 1000ea80 f i MotionSensor.obj
 0001:0000dc90       ?AtlWinModuleAddCreateWndData@ATL@@YGXPAU_ATL_WIN_MODULE70@1@PAU_AtlCreateWndData@1@PAX@Z 1000ec90 f i MotionSensor.obj
 0001:0000de00       ?AtlWinModuleExtractCreateWndData@ATL@@YGPAXPAU_ATL_WIN_MODULE70@1@@Z 1000ee00 f i MotionSensor.obj
 0001:0000df80       ?AtlWinModuleRegisterClassExW@ATL@@YGGPAU_ATL_WIN_MODULE70@1@PBUtagWNDCLASSEXW@@@Z 1000ef80 f i MotionSensor.obj
 0001:0000e050       ?AtlWinModuleRegisterWndClassInfoW@ATL@@YGGPAU_ATL_WIN_MODULE70@1@PAU_ATL_BASE_MODULE70@1@PAU_ATL_WNDCLASSINFOW@1@PAP6GJPAUHWND__@@IIJ@Z@Z 1000f050 f i MotionSensor.obj
 0001:0000e0e0       ?Attach@?$CAutoVectorPtr@_W@ATL@@QAEXPA_W@Z 1000f0e0 f i MotionSensor.obj
 0001:0000e140       ?Attach@CComBSTR@ATL@@QAEXPA_W@Z 1000f140 f i MotionSensor.obj
 0001:0000e190       ?Attach@CRegKey@ATL@@QAEXPAUHKEY__@@@Z 1000f190 f i MotionSensor.obj
 0001:0000e200       ?CanForceRemoveKey@CRegParser@ATL@@IAEHPB_W@Z 1000f200 f i MotionSensor.obj
 0001:0000e270       ?ChToByte@CRegParser@ATL@@KAE_W@Z 1000f270 f i MotionSensor.obj
 0001:0000e390       ?ChangeType@CComVariant@ATL@@QAEJGPBUtagVARIANT@@@Z 1000f390 f i MotionSensor.obj
 0001:0000e3f0       ?Cleanup@CComTypeInfoHolder@ATL@@SGXK@Z 1000f3f0 f i MotionSensor.obj
 0001:0000e4c0       ?Clear@CComVariant@ATL@@QAEJXZ 1000f4c0 f i MotionSensor.obj
 0001:0000e500       ?ClearReplacements@CExpansionVector@ATL@@QAEJXZ 1000f500 f i MotionSensor.obj
 0001:0000e590       ?ClearReplacements@CRegObject@ATL@@UAGJXZ 1000f590 f i MotionSensor.obj
 0001:0000e5e0       ?Clone@?$CComEnumImpl@UIEnumConnectionPoints@@$1?_GUID_b196b285_bab4_101a_b69c_00aa00341d07@@3U__s_GUID@@BPAUIConnectionPoint@@V?$_CopyInterface@UIConnectionPoint@@@ATL@@@ATL@@UAGJPAPAUIEnumConnectionPoints@@@Z 1000f5e0 f i MotionSensor.obj
 0001:0000e750       ?Clone@?$CComEnumImpl@UIEnumConnections@@$1?_GUID_b196b287_bab4_101a_b69c_00aa00341d07@@3U__s_GUID@@BUtagCONNECTDATA@@V?$_Copy@UtagCONNECTDATA@@@ATL@@@ATL@@UAGJPAPAUIEnumConnections@@@Z 1000f750 f i MotionSensor.obj
 0001:0000e8c0       ?Close@?$IOleObjectImpl@VCOPOSMotionSensor@@@ATL@@UAGJK@Z 1000f8c0 f i MotionSensor.obj
 0001:0000e950       ?Close@CRegKey@ATL@@QAEJXZ 1000f950 f i MotionSensor.obj
 0001:0000e9c0       ?ContextSensitiveHelp@?$IOleInPlaceActiveObjectImpl@VCOPOSMotionSensor@@@ATL@@UAGJH@Z 1000f9c0 f i MotionSensor.obj
 0001:0000ea30       ?ContextSensitiveHelp@?$IOleInPlaceObjectWindowlessImpl@VCOPOSMotionSensor@@@ATL@@UAGJH@Z 1000fa30 f i MotionSensor.obj
 0001:0000eaa0       ?ControlQueryInterface@?$CComControl@VCOPOSMotionSensor@@V?$CWindowImpl@VCOPOSMotionSensor@@VCWindow@ATL@@V?$CWinTraits@$0FGAAAAAA@$0A@@3@@ATL@@@ATL@@UAEJABU_GUID@@PAPAX@Z 1000faa0 f i MotionSensor.obj
 0001:0000eb20       ?CreateControlWindow@?$CComControl@VCOPOSMotionSensor@@V?$CWindowImpl@VCOPOSMotionSensor@@VCWindow@ATL@@V?$CWinTraits@$0FGAAAAAA@$0A@@3@@ATL@@@ATL@@UAEPAUHWND__@@PAU3@AAUtagRECT@@@Z 1000fb20 f i MotionSensor.obj
 0001:0000eba0       ?CreateInstance@?$CComCreator@V?$CComAggObject@VCOPOSMotionSensor@@@ATL@@@ATL@@SGJPAXABU_GUID@@PAPAX@Z 1000fba0 f i MotionSensor.obj
 0001:0000ed20       ?CreateInstance@?$CComCreator@V?$CComObject@VCOPOSMotionSensor@@@ATL@@@ATL@@SGJPAXABU_GUID@@PAPAX@Z 1000fd20 f i MotionSensor.obj
 0001:0000eeb0       ?CreateInstance@?$CComObject@V?$CComEnum@UIEnumConnectionPoints@@$1?_GUID_b196b285_bab4_101a_b69c_00aa00341d07@@3U__s_GUID@@BPAUIConnectionPoint@@V?$_CopyInterface@UIConnectionPoint@@@ATL@@VCComSingleThreadModel@6@@ATL@@@ATL@@SGJPAPAV12@@Z 1000feb0 f i MotionSensor.obj
 0001:0000f020       ?CreateInstance@?$CComObject@V?$CComEnum@UIEnumConnections@@$1?_GUID_b196b287_bab4_101a_b69c_00aa00341d07@@3U__s_GUID@@BUtagCONNECTDATA@@V?$_Copy@UtagCONNECTDATA@@@ATL@@VCComSingleThreadModel@6@@ATL@@@ATL@@SGJPAPAV12@@Z 10010020 f i MotionSensor.obj
 0001:0000f190       ?CreateInstance@CComClassFactory@ATL@@UAGJPAUIUnknown@@ABU_GUID@@PAPAX@Z 10010190 f i MotionSensor.obj
 0001:0000f280       ?DAdvise@?$IDataObjectImpl@VCOPOSMotionSensor@@@ATL@@UAGJPAUtagFORMATETC@@KPAUIAdviseSink@@PAK@Z 10010280 f i MotionSensor.obj
 0001:0000f380       ?DEVMODEOLE2T_EX@@YAPAU_devicemodeW@@PAU1@@Z 10010380 f i MotionSensor.obj
 0001:0000f390       ?DUnadvise@?$IDataObjectImpl@VCOPOSMotionSensor@@@ATL@@UAGJK@Z 10010390 f i MotionSensor.obj
 0001:0000f460       ?Decrement@CComMultiThreadModel@ATL@@SGKPAJ@Z 10010460 f i MotionSensor.obj
 0001:0000f480       ?Decrement@CComSingleThreadModel@ATL@@SGKPAJ@Z 10010480 f i MotionSensor.obj
 0001:0000f4a0       ?DefWindowProcW@?$CWindowImplBaseT@VCWindow@ATL@@V?$CWinTraits@$0FGAAAAAA@$0A@@2@@ATL@@QAEJIIJ@Z 100104a0 f i MotionSensor.obj
 0001:0000f4f0       ?DefaultReflectionHandler@?$CWindowImplRoot@VCWindow@ATL@@@ATL@@SAHPAUHWND__@@IIJAAJ@Z 100104f0 f i MotionSensor.obj
 0001:0000f6e0       ?DeleteSubKey@CRegKey@ATL@@QAEJPB_W@Z 100106e0 f i MotionSensor.obj
 0001:0000f7f0       ?DeleteValue@CRegKey@ATL@@QAEJPB_W@Z 100107f0 f i MotionSensor.obj
 0001:0000f860       ?Detach@?$CAutoVectorPtr@_W@ATL@@QAEPA_WXZ 10010860 f i MotionSensor.obj
 0001:0000f890       ?Detach@?$CComPtrBase@UIPersistStream@@@ATL@@QAEPAUIPersistStream@@XZ 10010890 f i MotionSensor.obj
 0001:0000f8c0       ?Detach@?$CComPtrBase@UITypeInfo@@@ATL@@QAEPAUITypeInfo@@XZ 100108c0 f i MotionSensor.obj
 0001:0000f8f0       ?Detach@?$CComPtrBase@UIUnknown@@@ATL@@QAEPAUIUnknown@@XZ 100108f0 f i MotionSensor.obj
 0001:0000f920       ?Detach@CComBSTR@ATL@@QAEPA_WXZ 10010920 f i MotionSensor.obj
 0001:0000f950       ?Detach@CParseBuffer@CRegParser@ATL@@QAEPA_WXZ 10010950 f i MotionSensor.obj
 0001:0000f9a0       ?Detach@CRegKey@ATL@@QAEPAUHKEY__@@XZ 100109a0 f i MotionSensor.obj
 0001:0000f9f0       ?DoEvent@COPOSMotionSensor@@IAEXIIJ@Z 100109f0 f i MotionSensor.obj
 0001:0000fb30       ?DoVerb@?$IOleObjectImpl@VCOPOSMotionSensor@@@ATL@@UAGJJPAUtagMSG@@PAUIOleClientSite@@JPAUHWND__@@PBUtagRECT@@@Z 10010b30 f i MotionSensor.obj
 0001:0000fd40       ?DoVerbDiscardUndo@?$IOleObjectImpl@VCOPOSMotionSensor@@@ATL@@QAEJPBUtagRECT@@PAUHWND__@@@Z 10010d40 f i MotionSensor.obj
 0001:0000fdb0       ?DoVerbHide@?$IOleObjectImpl@VCOPOSMotionSensor@@@ATL@@QAEJPBUtagRECT@@PAUHWND__@@@Z 10010db0 f i MotionSensor.obj
 0001:0000fe60       ?DoVerbInPlaceActivate@?$IOleObjectImpl@VCOPOSMotionSensor@@@ATL@@QAEJPBUtagRECT@@PAUHWND__@@@Z 10010e60 f i MotionSensor.obj
 0001:0000ff00       ?DoVerbOpen@?$IOleObjectImpl@VCOPOSMotionSensor@@@ATL@@QAEJPBUtagRECT@@PAUHWND__@@@Z 10010f00 f i MotionSensor.obj
 0001:0000ff70       ?DoVerbPrimary@?$IOleObjectImpl@VCOPOSMotionSensor@@@ATL@@QAEJPBUtagRECT@@PAUHWND__@@@Z 10010f70 f i MotionSensor.obj
 0001:00010080       ?DoVerbProperties@CComControlBase@ATL@@QAEJPBUtagRECT@@PAUHWND__@@@Z 10011080 f i MotionSensor.obj
 0001:000103a0       ?DoVerbShow@?$IOleObjectImpl@VCOPOSMotionSensor@@@ATL@@QAEJPBUtagRECT@@PAUHWND__@@@Z 100113a0 f i MotionSensor.obj
 0001:00010430       ?DoVerbUIActivate@?$IOleObjectImpl@VCOPOSMotionSensor@@@ATL@@QAEJPBUtagRECT@@PAUHWND__@@@Z 10011430 f i MotionSensor.obj
 0001:000104d0       ?DoesVerbActivate@CComControlBase@ATL@@QAEHJ@Z 100114d0 f i MotionSensor.obj
 0001:00010540       ?DoesVerbUIActivate@CComControlBase@ATL@@QAEHJ@Z 10011540 f i MotionSensor.obj
 0001:000105c0       ?Draw@?$IViewObjectExImpl@VCOPOSMotionSensor@@@ATL@@UAGJKJPAXPAUtagDVTARGETDEVICE@@PAUHDC__@@2PBU_RECTL@@3P6GHK@ZK@Z 100115c0 f i MotionSensor.obj
 0001:00010660       ?Empty@CComBSTR@ATL@@QAEXXZ 10011660 f i MotionSensor.obj
 0001:000106a0       ?EnableModeless@?$IOleInPlaceActiveObjectImpl@VCOPOSMotionSensor@@@ATL@@UAGJH@Z 100116a0 f i MotionSensor.obj
 0001:00010700       ?EndOfVar@CRegParser@ATL@@IAEHXZ 10011700 f i MotionSensor.obj
 0001:00010770       ?EnsureTI@CComTypeInfoHolder@ATL@@QAEJK@Z 10011770 f i MotionSensor.obj
 0001:000107d0       ?EnumAdvise@?$IOleObjectImpl@VCOPOSMotionSensor@@@ATL@@UAGJPAPAUIEnumSTATDATA@@@Z 100117d0 f i MotionSensor.obj
 0001:000108e0       ?EnumConnectionPoints@?$IConnectionPointContainerImpl@VCOPOSMotionSensor@@@ATL@@UAGJPAPAUIEnumConnectionPoints@@@Z 100118e0 f i MotionSensor.obj
 0001:00010d10       ?EnumConnections@?$IConnectionPointImpl@VCOPOSMotionSensor@@$1?DIID__IOPOSMotionSensorEvents@@3U_GUID@@BVCComDynamicUnkArray@ATL@@@ATL@@UAGJPAPAUIEnumConnections@@@Z 10011d10 f i MotionSensor.obj
 0001:00010f60       ?EnumConnections@?$IConnectionPointImpl@VCOPOSMotionSensor@@$1?IID_IPropertyNotifySink@@3U_GUID@@BVCComDynamicUnkArray@ATL@@@ATL@@UAGJPAPAUIEnumConnections@@@Z 10011f60 f i MotionSensor.obj
 0001:000111b0       ?EnumDAdvise@?$IDataObjectImpl@VCOPOSMotionSensor@@@ATL@@UAGJPAPAUIEnumSTATDATA@@@Z 100121b0 f i MotionSensor.obj
 0001:000112b0       ?EnumFormatEtc@?$IDataObjectImpl@VCOPOSMotionSensor@@@ATL@@UAGJKPAPAUIEnumFORMATETC@@@Z 100122b0 f i MotionSensor.obj
 0001:00011320       ?EnumVerbs@?$IOleObjectImpl@VCOPOSMotionSensor@@@ATL@@UAGJPAPAUIEnumOLEVERB@@@Z 10012320 f i MotionSensor.obj
 0001:000113d0       ?EscapeSingleQuote@CAtlModule@ATL@@SAXPA_WIPB_W@Z 100123d0 f i MotionSensor.obj
 0001:00011480       ?ExtractCreateWndData@CAtlWinModule@ATL@@QAEPAXXZ 10012480 f i MotionSensor.obj
 0001:000114b0       ?FAccessAllowed@?$IObjectSafetyImpl@VCOPOSMotionSensor@@$02@ATL@@MAEHXZ 100124b0 f i MotionSensor.obj
 0001:000114d0       ?FinalConstruct@?$CComAggObject@VCOPOSMotionSensor@@@ATL@@QAEJXZ 100124d0 f i MotionSensor.obj
 0001:00011510       ?FinalConstruct@CComObjectRootBase@ATL@@QAEJXZ 10012510 f i MotionSensor.obj
 0001:00011530       ?FinalConstruct@CRegObject@ATL@@QAEJXZ 10012530 f i MotionSensor.obj
 0001:00011560       ?FinalRelease@?$CComAggObject@VCOPOSMotionSensor@@@ATL@@QAEXXZ 10012560 f i MotionSensor.obj
 0001:000115a0       ?FinalRelease@CComObjectRootBase@ATL@@QAEXXZ 100125a0 f i MotionSensor.obj
 0001:000115c0       ?FindConnectionPoint@?$IConnectionPointContainerImpl@VCOPOSMotionSensor@@@ATL@@UAGJABU_GUID@@PAPAUIConnectionPoint@@@Z 100125c0 f i MotionSensor.obj
 0001:00011710       ?FindKey@?$CSimpleMap@PA_WPA_WVCExpansionVectorEqualHelper@ATL@@@ATL@@QBEHABQA_W@Z 10012710 f i MotionSensor.obj
 0001:00011780       ?FireTheEvent@?$CProxy_IOPOSEvents@VCOPOSMotionSensor@@@@IAEXPAUIUnknown@@PAVOposVariant@@IAAJPB_WJ@Z 10012780 f i MotionSensor.obj
 0001:000118f0       ?FireViewChange@CComControlBase@ATL@@QAEJXZ 100128f0 f i MotionSensor.obj
 0001:000119b0       ?Fire_DirectIOEvent@?$CProxy_IOPOSEvents@VCOPOSMotionSensor@@@@QAEXJPAJPAPA_W@Z 100129b0 f i MotionSensor.obj
 0001:00011b80       ?Fire_StatusUpdateEvent@?$CProxy_IOPOSEvents@VCOPOSMotionSensor@@@@QAEXJ@Z 10012b80 f i MotionSensor.obj
 0001:00011ce0       ?FormatWindowClassName@AtlModuleRegisterWndClassInfoParamW@ATL@@SAXPA_WKPAX@Z 10012ce0 f i MotionSensor.obj
 0001:00011d10       ?Free@?$CAutoVectorPtr@_W@ATL@@QAEXXZ 10012d10 f i MotionSensor.obj
 0001:00011d60       ?FreeHeap@?$CTempBuffer@E$0BAA@VCCRTAllocator@ATL@@@ATL@@AAEXXZ 10012d60 f i MotionSensor.obj
 0001:00011d90       ?FreeHeap@?$CTempBuffer@_W$0BAA@VCCRTAllocator@ATL@@@ATL@@AAEXXZ 10012d90 f i MotionSensor.obj
 0001:00011dc0       ?FreeHeap@?$CTempBuffer@_W$0EAA@VCCRTAllocator@ATL@@@ATL@@AAEXXZ 10012dc0 f i MotionSensor.obj
 0001:00011df0       ?Freeze@?$IViewObjectExImpl@VCOPOSMotionSensor@@@ATL@@UAGJKJPAXPAK@Z 10012df0 f i MotionSensor.obj
 0001:00011e60       ?GenerateError@CRegParser@ATL@@IAEJI@Z 10012e60 f i MotionSensor.obj
 0001:00011e80       ?GetAdvise@?$IViewObjectExImpl@VCOPOSMotionSensor@@@ATL@@UAGJPAK0PAPAUIAdviseSink@@@Z 10012e80 f i MotionSensor.obj
 0001:00011f80       ?GetAmbientLocaleID@CComControlBase@ATL@@QAEJAAK@Z 10012f80 f i MotionSensor.obj
 0001:00012060       ?GetAmbientProperty@CComControlBase@ATL@@QAEJJAAUtagVARIANT@@@Z 10013060 f i MotionSensor.obj
 0001:000120b0       ?GetAmbientUserMode@CComControlBase@ATL@@QAEJAAH@Z 100130b0 f i MotionSensor.obj
 0001:000121b0       ?GetAppId@?$CAtlModuleT@VCComModule@ATL@@@ATL@@SAPB_WXZ 100131b0 f i MotionSensor.obj
 0001:000121c0       ?GetAt@CComDynamicUnkArray@ATL@@QAEPAUIUnknown@@H@Z 100131c0 f i MotionSensor.obj
 0001:00012240       ?GetCanonicalFormatEtc@?$IDataObjectImpl@VCOPOSMotionSensor@@@ATL@@UAGJPAUtagFORMATETC@@0@Z 10013240 f i MotionSensor.obj
 0001:000122b0       ?GetClassID@?$IPersistStorageImpl@VCOPOSMotionSensor@@@ATL@@UAGJPAU_GUID@@@Z 100132b0 f i MotionSensor.obj
 0001:00012330       ?GetClassID@?$IPersistStreamInitImpl@VCOPOSMotionSensor@@@ATL@@UAGJPAU_GUID@@@Z 10013330 f i MotionSensor.obj
 0001:000123b0       ?GetClassInfoExW@AtlModuleRegisterWndClassInfoParamW@ATL@@SAHPAUHINSTANCE__@@PB_WPAUtagWNDCLASSEXW@@@Z 100133b0 f i MotionSensor.obj
 0001:000123e0       ?GetClassInfoW@?$IProvideClassInfo2Impl@$1?CLSID_OPOSMotionSensor@@3U_GUID@@B$1?DIID__IOPOSMotionSensorEvents@@3U2@B$1?LIBID_OposMotionSensor_CCO@@3U2@B$00$0A@VCComTypeInfoHolder@ATL@@@ATL@@UAGJPAPAUITypeInfo@@@Z 100133e0 f i MotionSensor.obj
 0001:00012400       ?GetClassObject@CComModule@ATL@@QAEJABU_GUID@@0PAPAX@Z 10013400 f i MotionSensor.obj
 0001:00012600       ?GetClientSite@?$IOleObjectImpl@VCOPOSMotionSensor@@@ATL@@UAGJPAPAUIOleClientSite@@@Z 10013600 f i MotionSensor.obj
 0001:00012690       ?GetClipboardData@?$IOleObjectImpl@VCOPOSMotionSensor@@@ATL@@UAGJKPAPAUIDataObject@@@Z 10013690 f i MotionSensor.obj
 0001:00012700       ?GetCodeAddress@CDynamicStdCallThunk2@ATL@@QAEPAXXZ 10013700 f i MotionSensor.obj
 0001:00012730       ?GetColorSet@?$IViewObjectExImpl@VCOPOSMotionSensor@@@ATL@@UAGJKJPAXPAUtagDVTARGETDEVICE@@PAUHDC__@@PAPAUtagLOGPALETTE@@@Z 10013730 f i MotionSensor.obj
 0001:000127a0       ?GetConnMap@COPOSMotionSensor@@SAPBU_ATL_CONNMAP_ENTRY@ATL@@PAH@Z 100137a0 f i MotionSensor.obj
 0001:000128e0       ?GetConnectionInterface@?$IConnectionPointImpl@VCOPOSMotionSensor@@$1?DIID__IOPOSMotionSensorEvents@@3U_GUID@@BVCComDynamicUnkArray@ATL@@@ATL@@UAGJPAU_GUID@@@Z 100138e0 f i MotionSensor.obj
 0001:00012920       ?GetConnectionInterface@?$IConnectionPointImpl@VCOPOSMotionSensor@@$1?IID_IPropertyNotifySink@@3U_GUID@@BVCComDynamicUnkArray@ATL@@@ATL@@UAGJPAU_GUID@@@Z 10013920 f i MotionSensor.obj
 0001:00012960       ?GetConnectionPointContainer@?$IConnectionPointImpl@VCOPOSMotionSensor@@$1?DIID__IOPOSMotionSensorEvents@@3U_GUID@@BVCComDynamicUnkArray@ATL@@@ATL@@UAGJPAPAUIConnectionPointContainer@@@Z 10013960 f i MotionSensor.obj
 0001:000129d0       ?GetConnectionPointContainer@?$IConnectionPointImpl@VCOPOSMotionSensor@@$1?IID_IPropertyNotifySink@@3U_GUID@@BVCComDynamicUnkArray@ATL@@@ATL@@UAGJPAPAUIConnectionPointContainer@@@Z 100139d0 f i MotionSensor.obj
 0001:00012a40       ?GetContentExtent@?$IQuickActivateImpl@VCOPOSMotionSensor@@@ATL@@UAGJPAUtagSIZE@@@Z 10013a40 f i MotionSensor.obj
 0001:00012ad0       ?GetControlInfo@?$IOleControlImpl@VCOPOSMotionSensor@@@ATL@@UAGJPAUtagCONTROLINFO@@@Z 10013ad0 f i MotionSensor.obj
 0001:00012b40       ?GetCookie@CComDynamicUnkArray@ATL@@QAGKPAPAUIUnknown@@@Z 10013b40 f i MotionSensor.obj
 0001:00012c00       ?GetData@?$IDataObjectImpl@VCOPOSMotionSensor@@@ATL@@UAGJPAUtagFORMATETC@@PAUtagSTGMEDIUM@@@Z 10013c00 f i MotionSensor.obj
 0001:00012c90       ?GetData@CAtlSafeAllocBufferNode@?$CAtlSafeAllocBufferManager@VCCRTAllocator@ATL@@@_ATL_SAFE_ALLOCA_IMPL@ATL@@QAEPAXXZ 10013c90 f i MotionSensor.obj
 0001:00012cb0       ?GetDataHere@?$IDataObjectImpl@VCOPOSMotionSensor@@@ATL@@UAGJPAUtagFORMATETC@@PAUtagSTGMEDIUM@@@Z 10013cb0 f i MotionSensor.obj
 0001:00012d20       ?GetDropTarget@?$IOleInPlaceObjectWindowlessImpl@VCOPOSMotionSensor@@@ATL@@UAGJPAPAUIDropTarget@@@Z 10013d20 f i MotionSensor.obj
 0001:00012d90       ?GetExtent@?$IOleObjectImpl@VCOPOSMotionSensor@@@ATL@@UAGJKPAUtagSIZE@@@Z 10013d90 f i MotionSensor.obj
 0001:00012e30       ?GetExtent@?$IViewObjectExImpl@VCOPOSMotionSensor@@@ATL@@UAGJKJPAUtagDVTARGETDEVICE@@PAUtagSIZE@@@Z 10013e30 f i MotionSensor.obj
 0001:00012f00       ?GetGITPtr@CAtlModule@ATL@@UAEJPAPAUIGlobalInterfaceTable@@@Z 10013f00 f i MotionSensor.obj
 0001:00013000       ?GetGUID@?$IProvideClassInfo2Impl@$1?CLSID_OPOSMotionSensor@@3U_GUID@@B$1?DIID__IOPOSMotionSensorEvents@@3U2@B$1?LIBID_OposMotionSensor_CCO@@3U2@B$00$0A@VCComTypeInfoHolder@ATL@@@ATL@@UAGJKPAU_GUID@@@Z 10014000 f i MotionSensor.obj
 0001:00013080       ?GetIDsOfNames@?$IDispatchImpl@UIOPOSMotionSensor@@$1?IID_IOPOSMotionSensor@@3U_GUID@@B$1?LIBID_OposMotionSensor_CCO@@3U3@B$00$0A@VCComTypeInfoHolder@ATL@@@ATL@@UAGJABU_GUID@@PAPA_WIKPAJ@Z 10014080 f i MotionSensor.obj
 0001:000130b0       ?GetIDsOfNames@CComTypeInfoHolder@ATL@@QAEJABU_GUID@@PAPA_WIKPAJ@Z 100140b0 f i MotionSensor.obj
 0001:00013260       ?GetInterfaceSafetyOptions@?$IObjectSafetyImpl@VCOPOSMotionSensor@@$02@ATL@@UAGJABU_GUID@@PAK1@Z 10014260 f i MotionSensor.obj
 0001:000133d0       ?GetKeyAt@?$CSimpleMap@PA_WPA_WVCExpansionVectorEqualHelper@ATL@@@ATL@@QBEAAPA_WH@Z 100143d0 f i MotionSensor.obj
 0001:00013450       ?GetLockCount@CAtlModule@ATL@@UAEJXZ 10014450 f i MotionSensor.obj
 0001:00013470       ?GetMiscStatus@?$IOleObjectImpl@VCOPOSMotionSensor@@@ATL@@UAGJKPAK@Z 10014470 f i MotionSensor.obj
 0001:000134e0       ?GetMoniker@?$IOleObjectImpl@VCOPOSMotionSensor@@@ATL@@UAGJKKPAPAUIMoniker@@@Z 100144e0 f i MotionSensor.obj
 0001:00013550       ?GetNaturalExtent@?$IViewObjectExImpl@VCOPOSMotionSensor@@@ATL@@UAGJKJPAUtagDVTARGETDEVICE@@PAUHDC__@@PAUtagExtentInfo@@PAUtagSIZE@@@Z 10014550 f i MotionSensor.obj
 0001:00013670       ?GetObjectCLSID@?$CComCoClass@VCOPOSMotionSensor@@$1?CLSID_OPOSMotionSensor@@3U_GUID@@B@ATL@@SGABU_GUID@@XZ 10014670 f i MotionSensor.obj
 0001:00013680       ?GetPages@?$ISpecifyPropertyPagesImpl@VCOPOSMotionSensor@@@ATL@@UAGJPAUtagCAUUID@@@Z 10014680 f i MotionSensor.obj
 0001:000136f0       ?GetPagesHelper@?$ISpecifyPropertyPagesImpl@VCOPOSMotionSensor@@@ATL@@IAEJPAUtagCAUUID@@PBUATL_PROPMAP_ENTRY@2@@Z 100146f0 f i MotionSensor.obj
 0001:000138f0       ?GetProperty@?$CComPtr@UIDispatch@@@ATL@@QAEJJPAUtagVARIANT@@@Z 100148f0 f i MotionSensor.obj
 0001:00013930       ?GetProperty@?$CComPtr@UIDispatch@@@ATL@@SAJPAUIDispatch@@JPAUtagVARIANT@@@Z 10014930 f i MotionSensor.obj
 0001:00013a90       ?GetPropertyMap@COPOSMotionSensor@@SAPBUATL_PROPMAP_ENTRY@ATL@@XZ 10014a90 f i MotionSensor.obj
 0001:00013aa0       ?GetRect@?$IViewObjectExImpl@VCOPOSMotionSensor@@@ATL@@UAGJKPAU_RECTL@@@Z 10014aa0 f i MotionSensor.obj
 0001:00013b10       ?GetSize@?$CSimpleMap@PA_WPA_WVCExpansionVectorEqualHelper@ATL@@@ATL@@QBEHXZ 10014b10 f i MotionSensor.obj
 0001:00013b30       ?GetSize@CComDynamicUnkArray@ATL@@QBEHXZ 10014b30 f i MotionSensor.obj
 0001:00013b50       ?GetSizeMax@?$IPersistStreamInitImpl@VCOPOSMotionSensor@@@ATL@@UAGJPAT_ULARGE_INTEGER@@@Z 10014b50 f i MotionSensor.obj
 0001:000140c0       ?GetSizeMax@CComVariant@ATL@@QBEJPAT_ULARGE_INTEGER@@@Z 100150c0 f i MotionSensor.obj
 0001:00014420       ?GetStreamSize@CComBSTR@ATL@@SAKPA_W@Z 10015420 f i MotionSensor.obj
 0001:00014470       ?GetTI@CComTypeInfoHolder@ATL@@QAEJK@Z 10015470 f i MotionSensor.obj
 0001:00014c80       ?GetTI@CComTypeInfoHolder@ATL@@QAEJKPAPAUITypeInfo@@@Z 10015c80 f i MotionSensor.obj
 0001:00014d40       ?GetTypeInfo@?$IDispatchImpl@UIOPOSMotionSensor@@$1?IID_IOPOSMotionSensor@@3U_GUID@@B$1?LIBID_OposMotionSensor_CCO@@3U3@B$00$0A@VCComTypeInfoHolder@ATL@@@ATL@@UAGJIKPAPAUITypeInfo@@@Z 10015d40 f i MotionSensor.obj
 0001:00014d70       ?GetTypeInfo@CComTypeInfoHolder@ATL@@QAEJIKPAPAUITypeInfo@@@Z 10015d70 f i MotionSensor.obj
 0001:00014db0       ?GetTypeInfoCount@?$IDispatchImpl@UIOPOSMotionSensor@@$1?IID_IOPOSMotionSensor@@3U_GUID@@B$1?LIBID_OposMotionSensor_CCO@@3U3@B$00$0A@VCComTypeInfoHolder@ATL@@@ATL@@UAGJPAI@Z 10015db0 f i MotionSensor.obj
 0001:00014dd0       ?GetUnknown@CComDynamicUnkArray@ATL@@QAGPAUIUnknown@@K@Z 10015dd0 f i MotionSensor.obj
 0001:00014e40       ?GetUnknown@COPOSMotionSensor@@QAEPAUIUnknown@@XZ 10015e40 f i MotionSensor.obj
 0001:00014e70       ?GetUserClassID@?$IOleObjectImpl@VCOPOSMotionSensor@@@ATL@@UAGJPAU_GUID@@@Z 10015e70 f i MotionSensor.obj
 0001:00014f20       ?GetUserType@?$IOleObjectImpl@VCOPOSMotionSensor@@@ATL@@UAGJKPAPA_W@Z 10015f20 f i MotionSensor.obj
 0001:00014f90       ?GetValueAt@?$CSimpleMap@PA_WPA_WVCExpansionVectorEqualHelper@ATL@@@ATL@@QBEAAPA_WH@Z 10015f90 f i MotionSensor.obj
 0001:00015010       ?GetViewStatus@?$IViewObjectExImpl@VCOPOSMotionSensor@@@ATL@@UAGJPAK@Z 10016010 f i MotionSensor.obj
 0001:000150d0       ?GetWNDPROC@CWndProcThunk@ATL@@QAEP6GJPAUHWND__@@IIJ@ZXZ 100160d0 f i MotionSensor.obj
 0001:00015100       ?GetWindow@?$IOleInPlaceActiveObjectImpl@VCOPOSMotionSensor@@@ATL@@UAGJPAPAUHWND__@@@Z 10016100 f i MotionSensor.obj
 0001:000151d0       ?GetWindow@?$IOleInPlaceObjectWindowlessImpl@VCOPOSMotionSensor@@@ATL@@UAGJPAPAUHWND__@@@Z 100161d0 f i MotionSensor.obj
 0001:000152a0       ?GetWindowLongPtrW@@YAJPAUHWND__@@H@Z 100162a0 f i MotionSensor.obj
 0001:000152d0       ?GetWindowProc@?$CWindowImplBaseT@VCWindow@ATL@@V?$CWinTraits@$0FGAAAAAA@$0A@@2@@ATL@@UAEP6GJPAUHWND__@@IIJ@ZXZ 100162d0 f i MotionSensor.obj
 0001:000152f0       ?GetWndCaption@?$CWindowImpl@VCOPOSMotionSensor@@VCWindow@ATL@@V?$CWinTraits@$0FGAAAAAA@$0A@@3@@ATL@@SAPB_WXZ 100162f0 f i MotionSensor.obj
 0001:00015300       ?GetWndClassInfo@?$CWindowImpl@VCOPOSMotionSensor@@VCWindow@ATL@@V?$CWinTraits@$0FGAAAAAA@$0A@@3@@ATL@@SAAAU_ATL_WNDCLASSINFOW@2@XZ 10016300 f i MotionSensor.obj
 0001:00015310       ?GetWndClassName@CWindow@ATL@@SAPB_WXZ 10016310 f i MotionSensor.obj
 0001:00015320       ?GetWndExStyle@?$CWinTraits@$0FGAAAAAA@$0A@@ATL@@SAKK@Z 10016320 f i MotionSensor.obj
 0001:00015350       ?GetWndExStyle@?$CWindowImplBaseT@VCWindow@ATL@@V?$CWinTraits@$0FGAAAAAA@$0A@@2@@ATL@@SAKK@Z 10016350 f i MotionSensor.obj
 0001:00015370       ?GetWndStyle@?$CWinTraits@$0FGAAAAAA@$0A@@ATL@@SAKK@Z 10016370 f i MotionSensor.obj
 0001:000153a0       ?GetWndStyle@?$CWindowImplBaseT@VCWindow@ATL@@V?$CWinTraits@$0FGAAAAAA@$0A@@2@@ATL@@SAKK@Z 100163a0 f i MotionSensor.obj
 0001:000153c0       ?GetZoomInfo@CComControlBase@ATL@@QAEXAAUATL_DRAWINFO@@@Z 100163c0 f i MotionSensor.obj
 0001:00015530       ?HKeyFromString@CRegParser@ATL@@KAPAUHKEY__@@PA_W@Z 10016530 f i MotionSensor.obj
 0001:000155a0       ?HandsOffStorage@?$IPersistStorageImpl@VCOPOSMotionSensor@@@ATL@@UAGJXZ 100165a0 f i MotionSensor.obj
 0001:00015600       ?HasSubKeys@CRegParser@ATL@@IAEHPAUHKEY__@@@Z 10016600 f i MotionSensor.obj
 0001:00015710       ?IDataObject_GetData@CComControlBase@ATL@@QAEJPAUtagFORMATETC@@PAUtagSTGMEDIUM@@@Z 10016710 f i MotionSensor.obj
 0001:00015b30       ?IOleInPlaceObject_InPlaceDeactivate@CComControlBase@ATL@@QAEJXZ 10016b30 f i MotionSensor.obj
 0001:00015d30       ?IOleInPlaceObject_SetObjectRects@CComControlBase@ATL@@QAEJPBUtagRECT@@0@Z 10016d30 f i MotionSensor.obj
 0001:00015ef0       ?IOleInPlaceObject_UIDeactivate@CComControlBase@ATL@@QAEJXZ 10016ef0 f i MotionSensor.obj
 0001:00016160       ?IOleObject_Advise@CComControlBase@ATL@@QAEJPAUIAdviseSink@@PAK@Z 10017160 f i MotionSensor.obj
 0001:00016210       ?IOleObject_Close@CComControlBase@ATL@@QAEJK@Z 10017210 f i MotionSensor.obj
 0001:000164c0       ?IOleObject_GetClientSite@CComControlBase@ATL@@QAEJPAPAUIOleClientSite@@@Z 100174c0 f i MotionSensor.obj
 0001:00016560       ?IOleObject_SetClientSite@CComControlBase@ATL@@QAEJPAUIOleClientSite@@@Z 10017560 f i MotionSensor.obj
 0001:00016630       ?IOleObject_SetExtent@CComControlBase@ATL@@QAEJKPAUtagSIZE@@@Z 10017630 f i MotionSensor.obj
 0001:00016770       ?IPSI_GetIPersistStreamInit@?$IPersistStorageImpl@VCOPOSMotionSensor@@@ATL@@AAEPAUIPersistStreamInit@@XZ 10017770 f i MotionSensor.obj
 0001:00016840       ?IPersistStreamInit_Load@?$IPersistStreamInitImpl@VCOPOSMotionSensor@@@ATL@@QAEJPAUIStream@@PBUATL_PROPMAP_ENTRY@2@@Z 10017840 f i MotionSensor.obj
 0001:000168c0       ?IPersistStreamInit_Save@?$IPersistStreamInitImpl@VCOPOSMotionSensor@@@ATL@@QAEJPAUIStream@@HPBUATL_PROPMAP_ENTRY@2@@Z 100178c0 f i MotionSensor.obj
 0001:00016950       ?IQuickActivate_QuickActivate@CComControlBase@ATL@@QAEJPAUtagQACONTAINER@@PAUtagQACONTROL@@@Z 10017950 f i MotionSensor.obj
 0001:00016fa0       ?IViewObject_Draw@CComControlBase@ATL@@QAEJKJPAXPAUtagDVTARGETDEVICE@@PAUHDC__@@2PBU_RECTL@@3@Z 10017fa0 f i MotionSensor.obj
 0001:00017240       ?InPlaceActivate@CComControlBase@ATL@@QAEJJPBUtagRECT@@@Z 10018240 f i MotionSensor.obj
 0001:00017bd0       ?InPlaceDeactivate@?$IOleInPlaceObjectWindowlessImpl@VCOPOSMotionSensor@@@ATL@@UAGJXZ 10018bd0 f i MotionSensor.obj
 0001:00017c50       ?Increment@CComMultiThreadModel@ATL@@SGKPAJ@Z 10018c50 f i MotionSensor.obj
 0001:00017c70       ?Increment@CComSingleThreadModel@ATL@@SGKPAJ@Z 10018c70 f i MotionSensor.obj
 0001:00017c90       ?Init@?$CComEnumImpl@UIEnumConnectionPoints@@$1?_GUID_b196b285_bab4_101a_b69c_00aa00341d07@@3U__s_GUID@@BPAUIConnectionPoint@@V?$_CopyInterface@UIConnectionPoint@@@ATL@@@ATL@@QAEJPAPAUIConnectionPoint@@0PAUIUnknown@@W4CComEnumFlags@2@@Z 10018c90 f i MotionSensor.obj
 0001:00017e70       ?Init@?$CComEnumImpl@UIEnumConnections@@$1?_GUID_b196b287_bab4_101a_b69c_00aa00341d07@@3U__s_GUID@@BUtagCONNECTDATA@@V?$_Copy@UtagCONNECTDATA@@@ATL@@@ATL@@QAEJPAUtagCONNECTDATA@@0PAUIUnknown@@W4CComEnumFlags@2@@Z 10018e70 f i MotionSensor.obj
 0001:00018050       ?Init@CComFakeCriticalSection@ATL@@QAEJXZ 10019050 f i MotionSensor.obj
 0001:00018070       ?Init@CComModule@ATL@@QAEJPAU_ATL_OBJMAP_ENTRY30@2@PAUHINSTANCE__@@PBU_GUID@@@Z 10019070 f i MotionSensor.obj
 0001:00018160       ?Init@CComSafeDeleteCriticalSection@ATL@@QAEJXZ 10019160 f i MotionSensor.obj
 0001:000181e0       ?Init@CDynamicStdCallThunk2@ATL@@QAEHKPAX@Z 100191e0 f i MotionSensor.obj
 0001:00018240       ?Init@CWndProcThunk@ATL@@QAEHP6GJPAUHWND__@@IIJ@ZPAX@Z 10019240 f i MotionSensor.obj
 0001:00018280       ?InitFromData@?$IOleObjectImpl@VCOPOSMotionSensor@@@ATL@@UAGJPAUIDataObject@@HK@Z 10019280 f i MotionSensor.obj
 0001:000182f0       ?InitLibId@?$CAtlModuleT@VCComModule@ATL@@@ATL@@SAXXZ 100192f0 f i MotionSensor.obj
 0001:00018300       ?InitNew@?$IPersistStorageImpl@VCOPOSMotionSensor@@@ATL@@UAGJPAUIStorage@@@Z 10019300 f i MotionSensor.obj
 0001:000183f0       ?InitNew@?$IPersistStreamInitImpl@VCOPOSMotionSensor@@@ATL@@UAGJXZ 100193f0 f i MotionSensor.obj
 0001:00018480       ?InlineIsEqualUnknown@ATL@@YGHABU_GUID@@@Z 10019480 f i MotionSensor.obj
 0001:000184f0       ?InternalAddRef@?$CComObjectRootEx@VCComMultiThreadModel@ATL@@@ATL@@QAEKXZ 100194f0 f i MotionSensor.obj
 0001:00018550       ?InternalAddRef@?$CComObjectRootEx@VCComSingleThreadModel@ATL@@@ATL@@QAEKXZ 10019550 f i MotionSensor.obj
 0001:000185b0       ?InternalFinalConstructAddRef@CComObjectRootBase@ATL@@QAEXXZ 100195b0 f i MotionSensor.obj
 0001:000185d0       ?InternalFinalConstructAddRef@COPOSMotionSensor@@QAEXXZ 100195d0 f i MotionSensor.obj
 0001:00018600       ?InternalFinalConstructRelease@CComObjectRootBase@ATL@@QAEXXZ 10019600 f i MotionSensor.obj
 0001:00018650       ?InternalFinalConstructRelease@COPOSMotionSensor@@QAEXXZ 10019650 f i MotionSensor.obj
 0001:00018680       ?InternalGetSite@CComControlBase@ATL@@QAEJABU_GUID@@PAPAX@Z 10019680 f i MotionSensor.obj
 0001:00018740       ?InternalQueryInterface@CComObjectRootBase@ATL@@SGJPAXPBU_ATL_INTMAP_ENTRY@2@ABU_GUID@@PAPAX@Z 10019740 f i MotionSensor.obj
 0001:00018800       ?InternalRelease@?$CComObjectRootEx@VCComMultiThreadModel@ATL@@@ATL@@QAEKXZ 10019800 f i MotionSensor.obj
 0001:00018870       ?InternalRelease@?$CComObjectRootEx@VCComSingleThreadModel@ATL@@@ATL@@QAEKXZ 10019870 f i MotionSensor.obj
 0001:000188e0       ?InternalSetAtIndex@?$CSimpleArray@GV?$CSimpleArrayEqualHelper@G@ATL@@@ATL@@QAEXHABG@Z 100198e0 f i MotionSensor.obj
 0001:00018950       ?InternalSetAtIndex@?$CSimpleMap@PA_WPA_WVCExpansionVectorEqualHelper@ATL@@@ATL@@QAEXHABQA_W0@Z 10019950 f i MotionSensor.obj
 0001:000189f0       ?Invoke@?$IDispatchImpl@UIOPOSMotionSensor@@$1?IID_IOPOSMotionSensor@@3U_GUID@@B$1?LIBID_OposMotionSensor_CCO@@3U3@B$00$0A@VCComTypeInfoHolder@ATL@@@ATL@@UAGJJABU_GUID@@KGPAUtagDISPPARAMS@@PAUtagVARIANT@@PAUtagEXCEPINFO@@PAI@Z 100199f0 f i MotionSensor.obj
 0001:00018a30       ?Invoke@CComTypeInfoHolder@ATL@@QAEJPAUIDispatch@@JABU_GUID@@KGPAUtagDISPPARAMS@@PAUtagVARIANT@@PAUtagEXCEPINFO@@PAI@Z 10019a30 f i MotionSensor.obj
 0001:00018ac0       ?IsDirty@?$IPersistStorageImpl@VCOPOSMotionSensor@@@ATL@@UAGJXZ 10019ac0 f i MotionSensor.obj
 0001:00018bb0       ?IsDirty@?$IPersistStreamInitImpl@VCOPOSMotionSensor@@@ATL@@UAGJXZ 10019bb0 f i MotionSensor.obj
 0001:00018c50       ?IsEqualKey@CExpansionVectorEqualHelper@ATL@@SA_NQA_W0@Z 10019c50 f i MotionSensor.obj
 0001:00018c80       ?IsEqualObject@?$CComPtrBase@UIOleClientSite@@@ATL@@QAE_NPAUIUnknown@@@Z 10019c80 f i MotionSensor.obj
 0001:00018db0       ?IsEqualObject@?$CComPtrBase@UITypeInfo@@@ATL@@QAE_NPAUIUnknown@@@Z 10019db0 f i MotionSensor.obj
 0001:00018ee0       ?IsSpace@CRegParser@ATL@@IAEH_W@Z 10019ee0 f i MotionSensor.obj
 0001:00018f50       ?IsUpToDate@?$IOleObjectImpl@VCOPOSMotionSensor@@@ATL@@UAGJXZ 10019f50 f i MotionSensor.obj
 0001:00018fb0       ?Length@CComBSTR@ATL@@QBEIXZ 10019fb0 f i MotionSensor.obj
 0001:00018ff0       ?Load@?$IPersistStorageImpl@VCOPOSMotionSensor@@@ATL@@UAGJPAUIStorage@@@Z 10019ff0 f i MotionSensor.obj
 0001:00019150       ?Load@?$IPersistStreamInitImpl@VCOPOSMotionSensor@@@ATL@@UAGJPAUIStream@@@Z 1001a150 f i MotionSensor.obj
 0001:000191e0       ?LoadCursorW@AtlModuleRegisterWndClassInfoParamW@ATL@@SAPAUHICON__@@PAUHINSTANCE__@@PB_W@Z 1001a1e0 f i MotionSensor.obj
 0001:00019210       ?LoadNameCache@CComTypeInfoHolder@ATL@@QAEJPAUITypeInfo@@@Z 1001a210 f i MotionSensor.obj
 0001:000194a0       ?Lock@?$CComCritSecLock@VCComCriticalSection@ATL@@@ATL@@QAEJXZ 1001a4a0 f i MotionSensor.obj
 0001:00019550       ?Lock@?$CComObjectRootEx@VCComSingleThreadModel@ATL@@@ATL@@QAEXXZ 1001a550 f i MotionSensor.obj
 0001:00019570       ?Lock@CAtlModule@ATL@@UAEJXZ 1001a570 f i MotionSensor.obj
 0001:000195a0       ?Lock@CComCriticalSection@ATL@@QAEJXZ 1001a5a0 f i MotionSensor.obj
 0001:000195e0       ?Lock@CComFakeCriticalSection@ATL@@QAEJXZ 1001a5e0 f i MotionSensor.obj
 0001:00019600       ?LockServer@CComClassFactory@ATL@@UAGJH@Z 1001a600 f i MotionSensor.obj
 0001:00019660       ?Lookup@?$CSimpleMap@PA_WPA_WVCExpansionVectorEqualHelper@ATL@@@ATL@@QBEPA_WABQA_W@Z 1001a660 f i MotionSensor.obj
 0001:000196b0       ?Next@?$CComEnumImpl@UIEnumConnectionPoints@@$1?_GUID_b196b285_bab4_101a_b69c_00aa00341d07@@3U__s_GUID@@BPAUIConnectionPoint@@V?$_CopyInterface@UIConnectionPoint@@@ATL@@@ATL@@UAGJKPAPAUIConnectionPoint@@PAK@Z 1001a6b0 f i MotionSensor.obj
 0001:00019820       ?Next@?$CComEnumImpl@UIEnumConnections@@$1?_GUID_b196b287_bab4_101a_b69c_00aa00341d07@@3U__s_GUID@@BUtagCONNECTDATA@@V?$_Copy@UtagCONNECTDATA@@@ATL@@@ATL@@UAGJKPAUtagCONNECTDATA@@PAK@Z 1001a820 f i MotionSensor.obj
 0001:00019990       ?NextToken@CRegParser@ATL@@IAEJPA_W@Z 1001a990 f i MotionSensor.obj
 0001:00019c30       ?OLE2CT_EX@@YAPB_WPB_WI@Z  1001ac30 f i MotionSensor.obj
 0001:00019c40       ?OLE2CT_EX_DEF@@YAPB_WPB_W@Z 1001ac40 f i MotionSensor.obj
 0001:00019c50       ?OLE2T_EX@@YAPA_WPA_WI@Z   1001ac50 f i MotionSensor.obj
 0001:00019c60       ?OnAmbientPropertyChange@?$IOleControlImpl@VCOPOSMotionSensor@@@ATL@@UAGJJ@Z 1001ac60 f i MotionSensor.obj
 0001:00019cf0       ?OnDocWindowActivate@?$IOleInPlaceActiveObjectImpl@VCOPOSMotionSensor@@@ATL@@UAGJH@Z 1001acf0 f i MotionSensor.obj
 0001:00019d80       ?OnDrawAdvanced@CComControlBase@ATL@@UAEJAAUATL_DRAWINFO@@@Z 1001ad80 f i MotionSensor.obj
 0001:00019fa0       ?OnFinalMessage@?$CWindowImplBaseT@VCWindow@ATL@@V?$CWinTraits@$0FGAAAAAA@$0A@@2@@ATL@@UAEXPAUHWND__@@@Z 1001afa0 f i MotionSensor.obj
 0001:00019fc0       ?OnFrameWindowActivate@?$IOleInPlaceActiveObjectImpl@VCOPOSMotionSensor@@@ATL@@UAGJH@Z 1001afc0 f i MotionSensor.obj
 0001:0001a020       ?OnKillFocus@CComControlBase@ATL@@QAEJIIJAAH@Z 1001b020 f i MotionSensor.obj
 0001:0001a120       ?OnMnemonic@?$IOleControlImpl@VCOPOSMotionSensor@@@ATL@@UAGJPAUtagMSG@@@Z 1001b120 f i MotionSensor.obj
 0001:0001a190       ?OnMouseActivate@CComControlBase@ATL@@QAEJIIJAAH@Z 1001b190 f i MotionSensor.obj
 0001:0001a2e0       ?OnPaint@CComControlBase@ATL@@QAEJIIJAAH@Z 1001b2e0 f i MotionSensor.obj
 0001:0001a460       ?OnPostVerbDiscardUndo@?$IOleObjectImpl@VCOPOSMotionSensor@@@ATL@@QAEJXZ 1001b460 f i MotionSensor.obj
 0001:0001a480       ?OnPostVerbHide@?$IOleObjectImpl@VCOPOSMotionSensor@@@ATL@@QAEJXZ 1001b480 f i MotionSensor.obj
 0001:0001a4a0       ?OnPostVerbInPlaceActivate@?$IOleObjectImpl@VCOPOSMotionSensor@@@ATL@@QAEJXZ 1001b4a0 f i MotionSensor.obj
 0001:0001a4c0       ?OnPostVerbOpen@?$IOleObjectImpl@VCOPOSMotionSensor@@@ATL@@QAEJXZ 1001b4c0 f i MotionSensor.obj
 0001:0001a4e0       ?OnPostVerbShow@?$IOleObjectImpl@VCOPOSMotionSensor@@@ATL@@QAEJXZ 1001b4e0 f i MotionSensor.obj
 0001:0001a500       ?OnPostVerbUIActivate@?$IOleObjectImpl@VCOPOSMotionSensor@@@ATL@@QAEJXZ 1001b500 f i MotionSensor.obj
 0001:0001a520       ?OnPreVerbDiscardUndo@?$IOleObjectImpl@VCOPOSMotionSensor@@@ATL@@QAEJXZ 1001b520 f i MotionSensor.obj
 0001:0001a540       ?OnPreVerbHide@?$IOleObjectImpl@VCOPOSMotionSensor@@@ATL@@QAEJXZ 1001b540 f i MotionSensor.obj
 0001:0001a560       ?OnPreVerbInPlaceActivate@?$IOleObjectImpl@VCOPOSMotionSensor@@@ATL@@QAEJXZ 1001b560 f i MotionSensor.obj
 0001:0001a580       ?OnPreVerbOpen@?$IOleObjectImpl@VCOPOSMotionSensor@@@ATL@@QAEJXZ 1001b580 f i MotionSensor.obj
 0001:0001a5a0       ?OnPreVerbShow@?$IOleObjectImpl@VCOPOSMotionSensor@@@ATL@@QAEJXZ 1001b5a0 f i MotionSensor.obj
 0001:0001a5c0       ?OnPreVerbUIActivate@?$IOleObjectImpl@VCOPOSMotionSensor@@@ATL@@QAEJXZ 1001b5c0 f i MotionSensor.obj
 0001:0001a5e0       ?OnSetFocus@CComControlBase@ATL@@QAEJIIJAAH@Z 1001b5e0 f i MotionSensor.obj
 0001:0001a770       ?OnWindowMessage@?$IOleInPlaceObjectWindowlessImpl@VCOPOSMotionSensor@@@ATL@@UAGJIIJPAJ@Z 1001b770 f i MotionSensor.obj
 0001:0001a8d0       ?Open@CRegKey@ATL@@QAEJPAUHKEY__@@PB_WK@Z 1001b8d0 f i MotionSensor.obj
 0001:0001aa20       ?OuterAddRef@CComObjectRootBase@ATL@@QAEKXZ 1001ba20 f i MotionSensor.obj
 0001:0001aa60       ?OuterQueryInterface@CComObjectRootBase@ATL@@QAEJABU_GUID@@PAPAX@Z 1001ba60 f i MotionSensor.obj
 0001:0001aab0       ?OuterRelease@CComObjectRootBase@ATL@@QAEKXZ 1001bab0 f i MotionSensor.obj
 0001:0001aaf0       ?PreProcessBuffer@CRegParser@ATL@@QAEJPA_WPAPA_W@Z 1001baf0 f i MotionSensor.obj
 0001:0001b030       ?PreTranslateAccelerator@CComControlBase@ATL@@QAEHPAUtagMSG@@AAJ@Z 1001c030 f i MotionSensor.obj
 0001:0001b050       ?ProcessWindowMessage@?$CComControl@VCOPOSMotionSensor@@V?$CWindowImpl@VCOPOSMotionSensor@@VCWindow@ATL@@V?$CWinTraits@$0FGAAAAAA@$0A@@3@@ATL@@@ATL@@UAEHPAUHWND__@@IIJAAJK@Z 1001c050 f i MotionSensor.obj
 0001:0001b220       ?ProcessWindowMessage@COPOSMotionSensor@@UAEHPAUHWND__@@IIJAAJK@Z 1001c220 f i MotionSensor.obj
 0001:0001b320       ?PutProperty@?$CComPtr@UIDispatch@@@ATL@@QAEJJPAUtagVARIANT@@@Z 1001c320 f i MotionSensor.obj
 0001:0001b360       ?PutProperty@?$CComPtr@UIDispatch@@@ATL@@SAJPAUIDispatch@@JPAUtagVARIANT@@@Z 1001c360 f i MotionSensor.obj
 0001:0001b550       ?QueryGetData@?$IDataObjectImpl@VCOPOSMotionSensor@@@ATL@@UAGJPAUtagFORMATETC@@@Z 1001c550 f i MotionSensor.obj
 0001:0001b5c0       ?QueryHitPoint@?$IViewObjectExImpl@VCOPOSMotionSensor@@@ATL@@UAGJKPBUtagRECT@@UtagPOINT@@JPAK@Z 1001c5c0 f i MotionSensor.obj
 0001:0001b6d0       ?QueryHitRect@?$IViewObjectExImpl@VCOPOSMotionSensor@@@ATL@@UAGJKPBUtagRECT@@0JPAK@Z 1001c6d0 f i MotionSensor.obj
 0001:0001b820       ?QueryInterface@?$CComAggObject@VCOPOSMotionSensor@@@ATL@@UAGJABU_GUID@@PAPAX@Z 1001c820 f i MotionSensor.obj
 0001:0001b8d0       ?QueryInterface@?$CComContainedObject@VCOPOSMotionSensor@@@ATL@@UAGJABU_GUID@@PAPAX@Z 1001c8d0 f i MotionSensor.obj
 0001:0001b8f4       ?QueryInterface@?$CComContainedObject@VCOPOSMotionSensor@@@ATL@@WHA@AGJABU_GUID@@PAPAX@Z 1001c8f4 f i MotionSensor.obj
 0001:0001b8fe       ?QueryInterface@?$CComContainedObject@VCOPOSMotionSensor@@@ATL@@WHE@AGJABU_GUID@@PAPAX@Z 1001c8fe f i MotionSensor.obj
 0001:0001b908       ?QueryInterface@?$CComContainedObject@VCOPOSMotionSensor@@@ATL@@WHI@AGJABU_GUID@@PAPAX@Z 1001c908 f i MotionSensor.obj
 0001:0001b912       ?QueryInterface@?$CComContainedObject@VCOPOSMotionSensor@@@ATL@@WHM@AGJABU_GUID@@PAPAX@Z 1001c912 f i MotionSensor.obj
 0001:0001b91c       ?QueryInterface@?$CComContainedObject@VCOPOSMotionSensor@@@ATL@@WIA@AGJABU_GUID@@PAPAX@Z 1001c91c f i MotionSensor.obj
 0001:0001b929       ?QueryInterface@?$CComContainedObject@VCOPOSMotionSensor@@@ATL@@WIE@AGJABU_GUID@@PAPAX@Z 1001c929 f i MotionSensor.obj
 0001:0001b936       ?QueryInterface@?$CComContainedObject@VCOPOSMotionSensor@@@ATL@@WII@AGJABU_GUID@@PAPAX@Z 1001c936 f i MotionSensor.obj
 0001:0001b943       ?QueryInterface@?$CComContainedObject@VCOPOSMotionSensor@@@ATL@@WIM@AGJABU_GUID@@PAPAX@Z 1001c943 f i MotionSensor.obj
 0001:0001b950       ?QueryInterface@?$CComContainedObject@VCOPOSMotionSensor@@@ATL@@WJA@AGJABU_GUID@@PAPAX@Z 1001c950 f i MotionSensor.obj
 0001:0001b95d       ?QueryInterface@?$CComContainedObject@VCOPOSMotionSensor@@@ATL@@WJE@AGJABU_GUID@@PAPAX@Z 1001c95d f i MotionSensor.obj
 0001:0001b96a       ?QueryInterface@?$CComContainedObject@VCOPOSMotionSensor@@@ATL@@WJI@AGJABU_GUID@@PAPAX@Z 1001c96a f i MotionSensor.obj
 0001:0001b977       ?QueryInterface@?$CComContainedObject@VCOPOSMotionSensor@@@ATL@@WJM@AGJABU_GUID@@PAPAX@Z 1001c977 f i MotionSensor.obj
 0001:0001b984       ?QueryInterface@?$CComContainedObject@VCOPOSMotionSensor@@@ATL@@WKA@AGJABU_GUID@@PAPAX@Z 1001c984 f i MotionSensor.obj
 0001:0001b9a0       ?QueryInterface@?$CComObject@V?$CComEnum@UIEnumConnectionPoints@@$1?_GUID_b196b285_bab4_101a_b69c_00aa00341d07@@3U__s_GUID@@BPAUIConnectionPoint@@V?$_CopyInterface@UIConnectionPoint@@@ATL@@VCComSingleThreadModel@6@@ATL@@@ATL@@UAGJABU_GUID@@PAPAX@Z 1001c9a0 f i MotionSensor.obj
 0001:0001b9c0       ?QueryInterface@?$CComObject@V?$CComEnum@UIEnumConnections@@$1?_GUID_b196b287_bab4_101a_b69c_00aa00341d07@@3U__s_GUID@@BUtagCONNECTDATA@@V?$_Copy@UtagCONNECTDATA@@@ATL@@VCComSingleThreadModel@6@@ATL@@@ATL@@UAGJABU_GUID@@PAPAX@Z 1001c9c0 f i MotionSensor.obj
 0001:0001b9e0       ?QueryInterface@?$CComObject@VCOPOSMotionSensor@@@ATL@@UAGJABU_GUID@@PAPAX@Z 1001c9e0 f i MotionSensor.obj
 0001:0001b9fe       ?QueryInterface@?$CComObject@VCOPOSMotionSensor@@@ATL@@WHA@AGJABU_GUID@@PAPAX@Z 1001c9fe f i MotionSensor.obj
 0001:0001ba08       ?QueryInterface@?$CComObject@VCOPOSMotionSensor@@@ATL@@WHE@AGJABU_GUID@@PAPAX@Z 1001ca08 f i MotionSensor.obj
 0001:0001ba12       ?QueryInterface@?$CComObject@VCOPOSMotionSensor@@@ATL@@WHI@AGJABU_GUID@@PAPAX@Z 1001ca12 f i MotionSensor.obj
 0001:0001ba1c       ?QueryInterface@?$CComObject@VCOPOSMotionSensor@@@ATL@@WHM@AGJABU_GUID@@PAPAX@Z 1001ca1c f i MotionSensor.obj
 0001:0001ba26       ?QueryInterface@?$CComObject@VCOPOSMotionSensor@@@ATL@@WIA@AGJABU_GUID@@PAPAX@Z 1001ca26 f i MotionSensor.obj
 0001:0001ba33       ?QueryInterface@?$CComObject@VCOPOSMotionSensor@@@ATL@@WIE@AGJABU_GUID@@PAPAX@Z 1001ca33 f i MotionSensor.obj
 0001:0001ba40       ?QueryInterface@?$CComObject@VCOPOSMotionSensor@@@ATL@@WII@AGJABU_GUID@@PAPAX@Z 1001ca40 f i MotionSensor.obj
 0001:0001ba4d       ?QueryInterface@?$CComObject@VCOPOSMotionSensor@@@ATL@@WIM@AGJABU_GUID@@PAPAX@Z 1001ca4d f i MotionSensor.obj
 0001:0001ba5a       ?QueryInterface@?$CComObject@VCOPOSMotionSensor@@@ATL@@WJA@AGJABU_GUID@@PAPAX@Z 1001ca5a f i MotionSensor.obj
 0001:0001ba67       ?QueryInterface@?$CComObject@VCOPOSMotionSensor@@@ATL@@WJE@AGJABU_GUID@@PAPAX@Z 1001ca67 f i MotionSensor.obj
 0001:0001ba74       ?QueryInterface@?$CComObject@VCOPOSMotionSensor@@@ATL@@WJI@AGJABU_GUID@@PAPAX@Z 1001ca74 f i MotionSensor.obj
 0001:0001ba81       ?QueryInterface@?$CComObject@VCOPOSMotionSensor@@@ATL@@WJM@AGJABU_GUID@@PAPAX@Z 1001ca81 f i MotionSensor.obj
 0001:0001ba8e       ?QueryInterface@?$CComObject@VCOPOSMotionSensor@@@ATL@@WKA@AGJABU_GUID@@PAPAX@Z 1001ca8e f i MotionSensor.obj
 0001:0001baa0       ?QueryInterface@?$CComObjectCached@VCComClassFactory@ATL@@@ATL@@UAGJABU_GUID@@PAPAX@Z 1001caa0 f i MotionSensor.obj
 0001:0001bac0       ?QueryInterface@CRegObject@ATL@@UAGJABU_GUID@@PAPAX@Z 1001cac0 f i MotionSensor.obj
 0001:0001bb10       ?QuickActivate@?$IQuickActivateImpl@VCOPOSMotionSensor@@@ATL@@UAGJPAUtagQACONTAINER@@PAUtagQACONTROL@@@Z 1001cb10 f i MotionSensor.obj
 0001:0001bba0       ?ReactivateAndUndo@?$IOleInPlaceObjectWindowlessImpl@VCOPOSMotionSensor@@@ATL@@UAGJXZ 1001cba0 f i MotionSensor.obj
 0001:0001bc10       ?ReadFromStream@CComBSTR@ATL@@QAEJPAUIStream@@@Z 1001cc10 f i MotionSensor.obj
 0001:0001c010       ?ReadFromStream@CComVariant@ATL@@QAEJPAUIStream@@GTClassesAllowedInStream@2@K@Z 1001d010 f i MotionSensor.obj
 0001:0001c370       ?RecurseDeleteKey@CRegKey@ATL@@QAEJPB_W@Z 1001d370 f i MotionSensor.obj
 0001:0001c550       ?RegCreateKeyExW@CAtlTransactionManager@ATL@@QAEJPAUHKEY__@@PB_WKPA_WKKQAU_SECURITY_ATTRIBUTES@@PAPAU3@PAK@Z 1001d550 f i MotionSensor.obj
 0001:0001c680       ?RegDeleteKeyW@CAtlTransactionManager@ATL@@QAEJPAUHKEY__@@PB_W@Z 1001d680 f i MotionSensor.obj
 0001:0001c780       ?RegOpenKeyExW@CAtlTransactionManager@ATL@@QAEJPAUHKEY__@@PB_WKKPAPAU3@@Z 1001d780 f i MotionSensor.obj
 0001:0001c890       ?Register@_ATL_WNDCLASSINFOW@ATL@@QAEGPAP6GJPAUHWND__@@IIJ@Z@Z 1001d890 f i MotionSensor.obj
 0001:0001c8d0       ?RegisterBuffer@CRegParser@ATL@@QAEJPA_WH@Z 1001d8d0 f i MotionSensor.obj
 0001:0001cc00       ?RegisterClassExW@AtlModuleRegisterWndClassInfoParamW@ATL@@SAGPAU_ATL_WIN_MODULE70@2@PBUtagWNDCLASSEXW@@@Z 1001dc00 f i MotionSensor.obj
 0001:0001cc20       ?RegisterFromResource@CRegObject@ATL@@IAEJPB_W00H@Z 1001dc20 f i MotionSensor.obj
 0001:0001cfb0       ?RegisterServer@?$CAtlModuleT@VCComModule@ATL@@@ATL@@QAEJHPBU_GUID@@@Z 1001dfb0 f i MotionSensor.obj
 0001:0001d030       ?RegisterServer@CAtlComModule@ATL@@QAEJHPBU_GUID@@@Z 1001e030 f i MotionSensor.obj
 0001:0001d060       ?RegisterServer@CComModule@ATL@@QAEJHPBU_GUID@@@Z 1001e060 f i MotionSensor.obj
 0001:0001d140       ?RegisterSubkeys@CRegParser@ATL@@IAEJPA_WPAUHKEY__@@HH@Z 1001e140 f i MotionSensor.obj
 0001:0001dc60       ?Release@?$CComAggObject@VCOPOSMotionSensor@@@ATL@@UAGKXZ 1001ec60 f i MotionSensor.obj
 0001:0001dd20       ?Release@?$CComContainedObject@VCOPOSMotionSensor@@@ATL@@UAGKXZ 1001ed20 f i MotionSensor.obj
 0001:0001dd3c       ?Release@?$CComContainedObject@VCOPOSMotionSensor@@@ATL@@WHA@AGKXZ 1001ed3c f i MotionSensor.obj
 0001:0001dd46       ?Release@?$CComContainedObject@VCOPOSMotionSensor@@@ATL@@WHE@AGKXZ 1001ed46 f i MotionSensor.obj
 0001:0001dd50       ?Release@?$CComContainedObject@VCOPOSMotionSensor@@@ATL@@WHI@AGKXZ 1001ed50 f i MotionSensor.obj
 0001:0001dd5a       ?Release@?$CComContainedObject@VCOPOSMotionSensor@@@ATL@@WHM@AGKXZ 1001ed5a f i MotionSensor.obj
 0001:0001dd64       ?Release@?$CComContainedObject@VCOPOSMotionSensor@@@ATL@@WIA@AGKXZ 1001ed64 f i MotionSensor.obj
 0001:0001dd71       ?Release@?$CComContainedObject@VCOPOSMotionSensor@@@ATL@@WIE@AGKXZ 1001ed71 f i MotionSensor.obj
 0001:0001dd7e       ?Release@?$CComContainedObject@VCOPOSMotionSensor@@@ATL@@WII@AGKXZ 1001ed7e f i MotionSensor.obj
 0001:0001dd8b       ?Release@?$CComContainedObject@VCOPOSMotionSensor@@@ATL@@WIM@AGKXZ 1001ed8b f i MotionSensor.obj
 0001:0001dd98       ?Release@?$CComContainedObject@VCOPOSMotionSensor@@@ATL@@WJA@AGKXZ 1001ed98 f i MotionSensor.obj
 0001:0001dda5       ?Release@?$CComContainedObject@VCOPOSMotionSensor@@@ATL@@WJE@AGKXZ 1001eda5 f i MotionSensor.obj
 0001:0001ddb2       ?Release@?$CComContainedObject@VCOPOSMotionSensor@@@ATL@@WJI@AGKXZ 1001edb2 f i MotionSensor.obj
 0001:0001ddbf       ?Release@?$CComContainedObject@VCOPOSMotionSensor@@@ATL@@WJM@AGKXZ 1001edbf f i MotionSensor.obj
 0001:0001ddcc       ?Release@?$CComContainedObject@VCOPOSMotionSensor@@@ATL@@WKA@AGKXZ 1001edcc f i MotionSensor.obj
 0001:0001ddd9       ?Release@?$CComContainedObject@VCOPOSMotionSensor@@@ATL@@WKI@AGKXZ 1001edd9 f i MotionSensor.obj
 0001:0001dde6       ?Release@?$CComContainedObject@VCOPOSMotionSensor@@@ATL@@WLE@AGKXZ 1001ede6 f i MotionSensor.obj
 0001:0001de00       ?Release@?$CComObject@V?$CComEnum@UIEnumConnectionPoints@@$1?_GUID_b196b285_bab4_101a_b69c_00aa00341d07@@3U__s_GUID@@BPAUIConnectionPoint@@V?$_CopyInterface@UIConnectionPoint@@@ATL@@VCComSingleThreadModel@6@@ATL@@@ATL@@UAGKXZ 1001ee00 f i MotionSensor.obj
 0001:0001dec0       ?Release@?$CComObject@V?$CComEnum@UIEnumConnections@@$1?_GUID_b196b287_bab4_101a_b69c_00aa00341d07@@3U__s_GUID@@BUtagCONNECTDATA@@V?$_Copy@UtagCONNECTDATA@@@ATL@@VCComSingleThreadModel@6@@ATL@@@ATL@@UAGKXZ 1001eec0 f i MotionSensor.obj
 0001:0001df80       ?Release@?$CComObject@VCOPOSMotionSensor@@@ATL@@UAGKXZ 1001ef80 f i MotionSensor.obj
 0001:0001e039       ?Release@?$CComObject@VCOPOSMotionSensor@@@ATL@@WHA@AGKXZ 1001f039 f i MotionSensor.obj
 0001:0001e043       ?Release@?$CComObject@VCOPOSMotionSensor@@@ATL@@WHE@AGKXZ 1001f043 f i MotionSensor.obj
 0001:0001e04d       ?Release@?$CComObject@VCOPOSMotionSensor@@@ATL@@WHI@AGKXZ 1001f04d f i MotionSensor.obj
 0001:0001e057       ?Release@?$CComObject@VCOPOSMotionSensor@@@ATL@@WHM@AGKXZ 1001f057 f i MotionSensor.obj
 0001:0001e061       ?Release@?$CComObject@VCOPOSMotionSensor@@@ATL@@WIA@AGKXZ 1001f061 f i MotionSensor.obj
 0001:0001e06e       ?Release@?$CComObject@VCOPOSMotionSensor@@@ATL@@WIE@AGKXZ 1001f06e f i MotionSensor.obj
 0001:0001e07b       ?Release@?$CComObject@VCOPOSMotionSensor@@@ATL@@WII@AGKXZ 1001f07b f i MotionSensor.obj
 0001:0001e088       ?Release@?$CComObject@VCOPOSMotionSensor@@@ATL@@WIM@AGKXZ 1001f088 f i MotionSensor.obj
 0001:0001e095       ?Release@?$CComObject@VCOPOSMotionSensor@@@ATL@@WJA@AGKXZ 1001f095 f i MotionSensor.obj
 0001:0001e0a2       ?Release@?$CComObject@VCOPOSMotionSensor@@@ATL@@WJE@AGKXZ 1001f0a2 f i MotionSensor.obj
 0001:0001e0af       ?Release@?$CComObject@VCOPOSMotionSensor@@@ATL@@WJI@AGKXZ 1001f0af f i MotionSensor.obj
 0001:0001e0bc       ?Release@?$CComObject@VCOPOSMotionSensor@@@ATL@@WJM@AGKXZ 1001f0bc f i MotionSensor.obj
 0001:0001e0c9       ?Release@?$CComObject@VCOPOSMotionSensor@@@ATL@@WKA@AGKXZ 1001f0c9 f i MotionSensor.obj
 0001:0001e0d6       ?Release@?$CComObject@VCOPOSMotionSensor@@@ATL@@WKI@AGKXZ 1001f0d6 f i MotionSensor.obj
 0001:0001e0e3       ?Release@?$CComObject@VCOPOSMotionSensor@@@ATL@@WLE@AGKXZ 1001f0e3 f i MotionSensor.obj
 0001:0001e0f0       ?Release@?$CComObjectCached@VCComClassFactory@ATL@@@ATL@@UAGKXZ 1001f0f0 f i MotionSensor.obj
 0001:0001e190       ?Release@?$CComPtrBase@UIAdviseSink@@@ATL@@QAEXXZ 1001f190 f i MotionSensor.obj
 0001:0001e1f0       ?Release@?$CComPtrBase@UIDispatch@@@ATL@@QAEXXZ 1001f1f0 f i MotionSensor.obj
 0001:0001e250       ?Release@?$CComPtrBase@UIOleInPlaceSiteWindowless@@@ATL@@QAEXXZ 1001f250 f i MotionSensor.obj
 0001:0001e2b0       ?Release@CRegObject@ATL@@UAGKXZ 1001f2b0 f i MotionSensor.obj
 0001:0001e2f0       ?Remove@CComDynamicUnkArray@ATL@@QAEHK@Z 1001f2f0 f i MotionSensor.obj
 0001:0001e3a0       ?RemoveAll@?$CSimpleMap@PA_WPA_WVCExpansionVectorEqualHelper@ATL@@@ATL@@QAEXXZ 1001f3a0 f i MotionSensor.obj
 0001:0001e430       ?Reset@?$CComEnumImpl@UIEnumConnectionPoints@@$1?_GUID_b196b285_bab4_101a_b69c_00aa00341d07@@3U__s_GUID@@BPAUIConnectionPoint@@V?$_CopyInterface@UIConnectionPoint@@@ATL@@@ATL@@UAGJXZ 1001f430 f i MotionSensor.obj
 0001:0001e450       ?Reset@?$CComEnumImpl@UIEnumConnections@@$1?_GUID_b196b287_bab4_101a_b69c_00aa00341d07@@3U__s_GUID@@BUtagCONNECTDATA@@V?$_Copy@UtagCONNECTDATA@@@ATL@@@ATL@@UAGJXZ 1001f450 f i MotionSensor.obj
 0001:0001e470       ?ResizeBorder@?$IOleInPlaceActiveObjectImpl@VCOPOSMotionSensor@@@ATL@@UAGJPBUtagRECT@@PAUIOleInPlaceUIWindow@@H@Z 1001f470 f i MotionSensor.obj
 0001:0001e4d0       ?ResourceRegister@CRegObject@ATL@@QAGJPB_WI0@Z 1001f4d0 f i MotionSensor.obj
 0001:0001e5b0       ?ResourceRegisterSz@CRegObject@ATL@@QAGJPB_W00@Z 1001f5b0 f i MotionSensor.obj
 0001:0001e6b0       ?ResourceUnregister@CRegObject@ATL@@QAGJPB_WI0@Z 1001f6b0 f i MotionSensor.obj
 0001:0001e790       ?ResourceUnregisterSz@CRegObject@ATL@@QAGJPB_W00@Z 1001f790 f i MotionSensor.obj
 0001:0001e890       ?SODataDummy@COPOSMotionSensor@@MAGJJ@Z 1001f890 f i MotionSensor.obj
 0001:0001e8a0       ?SODirectIO@COPOSMotionSensor@@MAGJJPAJPAPA_W@Z 1001f8a0 f i MotionSensor.obj
 0001:0001ea60       ?SOErrorDummy@COPOSMotionSensor@@MAGJJJJPAJ@Z 1001fa60 f i MotionSensor.obj
 0001:0001ea70       ?SOOutputCompleteDummy@COPOSMotionSensor@@MAGJJ@Z 1001fa70 f i MotionSensor.obj
 0001:0001ea80       ?SOStatusUpdate@COPOSMotionSensor@@MAGJJ@Z 1001fa80 f i MotionSensor.obj
 0001:0001eb00       ?Save@?$IPersistStorageImpl@VCOPOSMotionSensor@@@ATL@@UAGJPAUIStorage@@H@Z 1001fb00 f i MotionSensor.obj
 0001:0001ec60       ?Save@?$IPersistStreamInitImpl@VCOPOSMotionSensor@@@ATL@@UAGJPAUIStream@@H@Z 1001fc60 f i MotionSensor.obj
 0001:0001ecf0       ?SaveCompleted@?$IPersistStorageImpl@VCOPOSMotionSensor@@@ATL@@UAGJPAUIStorage@@@Z 1001fcf0 f i MotionSensor.obj
 0001:0001ed50       ?SendOnDataChange@CComControlBase@ATL@@QAEJK@Z 1001fd50 f i MotionSensor.obj
 0001:0001ee40       ?SendOnSave@CComControlBase@ATL@@QAEJXZ 1001fe40 f i MotionSensor.obj
 0001:0001eeb0       ?SendOnViewChange@CComControlBase@ATL@@QAEJKJ@Z 1001feb0 f i MotionSensor.obj
 0001:0001ef20       ?SetAdvise@?$IViewObjectExImpl@VCOPOSMotionSensor@@@ATL@@UAGJKKPAUIAdviseSink@@@Z 1001ff20 f i MotionSensor.obj
 0001:0001efb0       ?SetClientSite@?$IOleObjectImpl@VCOPOSMotionSensor@@@ATL@@UAGJPAUIOleClientSite@@@Z 1001ffb0 f i MotionSensor.obj
 0001:0001f040       ?SetColorScheme@?$IOleObjectImpl@VCOPOSMotionSensor@@@ATL@@UAGJPAUtagLOGPALETTE@@@Z 10020040 f i MotionSensor.obj
 0001:0001f0b0       ?SetContentExtent@?$IQuickActivateImpl@VCOPOSMotionSensor@@@ATL@@UAGJPAUtagSIZE@@@Z 100200b0 f i MotionSensor.obj
 0001:0001f140       ?SetControlFocus@CComControlBase@ATL@@QAEHH@Z 10020140 f i MotionSensor.obj
 0001:0001f2c0       ?SetDWORDValue@CRegKey@ATL@@QAEJPB_WK@Z 100202c0 f i MotionSensor.obj
 0001:0001f340       ?SetData@?$IDataObjectImpl@VCOPOSMotionSensor@@@ATL@@UAGJPAUtagFORMATETC@@PAUtagSTGMEDIUM@@H@Z 10020340 f i MotionSensor.obj
 0001:0001f3b0       ?SetExtent@?$IOleObjectImpl@VCOPOSMotionSensor@@@ATL@@UAGJKPAUtagSIZE@@@Z 100203b0 f i MotionSensor.obj
 0001:0001f440       ?SetHostNames@?$IOleObjectImpl@VCOPOSMotionSensor@@@ATL@@UAGJPB_W0@Z 10020440 f i MotionSensor.obj
 0001:0001f4a0       ?SetInterfaceSafetyOptions@?$IObjectSafetyImpl@VCOPOSMotionSensor@@$02@ATL@@UAGJABU_GUID@@KK@Z 100204a0 f i MotionSensor.obj
 0001:0001f610       ?SetMoniker@?$IOleObjectImpl@VCOPOSMotionSensor@@@ATL@@UAGJKPAUIMoniker@@@Z 10020610 f i MotionSensor.obj
 0001:0001f680       ?SetMultiStringValue@CRegKey@ATL@@QAEJPB_W0@Z 10020680 f i MotionSensor.obj
 0001:0001f7a0       ?SetObjectRects@?$IOleInPlaceObjectWindowlessImpl@VCOPOSMotionSensor@@@ATL@@UAGJPBUtagRECT@@0@Z 100207a0 f i MotionSensor.obj
 0001:0001f830       ?SetStringValue@CRegKey@ATL@@QAEJPB_W0K@Z 10020830 f i MotionSensor.obj
 0001:0001f960       ?SetVoid@CComClassFactory@ATL@@QAEXPAX@Z 10020960 f i MotionSensor.obj
 0001:0001f980       ?SetVoid@CComObjectRootBase@ATL@@QAEXPAX@Z 10020980 f i MotionSensor.obj
 0001:0001f9a0       ?SetWindowLongPtrW@@YAJPAUHWND__@@HJ@Z 100209a0 f i MotionSensor.obj
 0001:0001f9d0       ?ShowWindow@CWindow@ATL@@QAEHH@Z 100209d0 f i MotionSensor.obj
 0001:0001fa50       ?Skip@?$CComEnumImpl@UIEnumConnectionPoints@@$1?_GUID_b196b285_bab4_101a_b69c_00aa00341d07@@3U__s_GUID@@BPAUIConnectionPoint@@V?$_CopyInterface@UIConnectionPoint@@@ATL@@@ATL@@UAGJK@Z 10020a50 f i MotionSensor.obj
 0001:0001fad0       ?Skip@?$CComEnumImpl@UIEnumConnections@@$1?_GUID_b196b287_bab4_101a_b69c_00aa00341d07@@3U__s_GUID@@BUtagCONNECTDATA@@V?$_Copy@UtagCONNECTDATA@@@ATL@@@ATL@@UAGJK@Z 10020ad0 f i MotionSensor.obj
 0001:0001fb50       ?SkipAssignment@CRegParser@ATL@@IAEJPA_W@Z 10020b50 f i MotionSensor.obj
 0001:0001fc30       ?SkipWhiteSpace@CRegParser@ATL@@IAEXXZ 10020c30 f i MotionSensor.obj
 0001:0001fc80       ?StartWindowProc@?$CWindowImplBaseT@VCWindow@ATL@@V?$CWinTraits@$0FGAAAAAA@$0A@@2@@ATL@@SGJPAUHWND__@@IIJ@Z 10020c80 f i MotionSensor.obj
 0001:0001fda0       ?StrChrW@CRegParser@ATL@@KAPA_WPA_W_W@Z 10020da0 f i MotionSensor.obj
 0001:0001fe10       ?StrFromMap@CRegObject@ATL@@QAEPB_WPA_W@Z 10020e10 f i MotionSensor.obj
 0001:0001fea0       ?Swap@?$CComPtrBase@UIAdviseSink@@@ATL@@IAEXAAV12@@Z 10020ea0 f i MotionSensor.obj
 0001:0001fee0       ?Swap@?$CComPtrBase@UIOleClientSite@@@ATL@@IAEXAAV12@@Z 10020ee0 f i MotionSensor.obj
 0001:0001ff20       ?Swap@?$CComPtrBase@UIUnknown@@@ATL@@IAEXAAV12@@Z 10020f20 f i MotionSensor.obj
 0001:0001ff60       ?T2COLE_EX@@YAPB_WPB_WI@Z  10020f60 f i MotionSensor.obj
 0001:0001ff70       ?T2OLE_EX@@YAPA_WPA_WI@Z   10020f70 f i MotionSensor.obj
 0001:0001ff80       ?Term@CAtlModule@ATL@@QAEXXZ 10020f80 f i MotionSensor.obj
 0001:00020030       ?Term@CComModule@ATL@@QAEXXZ 10021030 f i MotionSensor.obj
 0001:00020120       ?TranslateAcceleratorW@?$IOleInPlaceActiveObjectImpl@VCOPOSMotionSensor@@@ATL@@UAGJPAUtagMSG@@@Z 10021120 f i MotionSensor.obj
 0001:00020320       ?UIDeactivate@?$IOleInPlaceObjectWindowlessImpl@VCOPOSMotionSensor@@@ATL@@UAGJXZ 10021320 f i MotionSensor.obj
 0001:000203a0       ?Unadvise@?$CProxy_IOPOSEvents@VCOPOSMotionSensor@@@@UAGJK@Z 100213a0 f i MotionSensor.obj
 0001:000203e0       ?Unadvise@?$IConnectionPointImpl@VCOPOSMotionSensor@@$1?DIID__IOPOSMotionSensorEvents@@3U_GUID@@BVCComDynamicUnkArray@ATL@@@ATL@@UAGJK@Z 100213e0 f i MotionSensor.obj
 0001:000204b0       ?Unadvise@?$IConnectionPointImpl@VCOPOSMotionSensor@@$1?IID_IPropertyNotifySink@@3U_GUID@@BVCComDynamicUnkArray@ATL@@@ATL@@UAGJK@Z 100214b0 f i MotionSensor.obj
 0001:00020580       ?Unadvise@?$IOleObjectImpl@VCOPOSMotionSensor@@@ATL@@UAGJK@Z 10021580 f i MotionSensor.obj
 0001:00020650       ?Unfreeze@?$IViewObjectExImpl@VCOPOSMotionSensor@@@ATL@@UAGJK@Z 10021650 f i MotionSensor.obj
 0001:000206c0       ?Unlock@?$CComCritSecLock@VCComCriticalSection@ATL@@@ATL@@QAEXXZ 100216c0 f i MotionSensor.obj
 0001:00020730       ?Unlock@?$CComObjectRootEx@VCComSingleThreadModel@ATL@@@ATL@@QAEXXZ 10021730 f i MotionSensor.obj
 0001:00020750       ?Unlock@CAtlModule@ATL@@UAEJXZ 10021750 f i MotionSensor.obj
 0001:00020780       ?Unlock@CComCriticalSection@ATL@@QAEJXZ 10021780 f i MotionSensor.obj
 0001:000207c0       ?Unlock@CComFakeCriticalSection@ATL@@QAEJXZ 100217c0 f i MotionSensor.obj
 0001:000207e0       ?UnregisterServer@?$CAtlModuleT@VCComModule@ATL@@@ATL@@QAEJHPBU_GUID@@@Z 100217e0 f i MotionSensor.obj
 0001:00020850       ?UnregisterServer@CAtlComModule@ATL@@QAEJHPBU_GUID@@@Z 10021850 f i MotionSensor.obj
 0001:00020880       ?UnregisterServer@CComModule@ATL@@QAEJHPBU_GUID@@@Z 10021880 f i MotionSensor.obj
 0001:00020960       ?Update@?$IOleObjectImpl@VCOPOSMotionSensor@@@ATL@@UAGJXZ 10021960 f i MotionSensor.obj
 0001:000209c0       ?UpdateRegistryFromResource@CAtlModule@ATL@@QAGJIHPAU_ATL_REGMAP_ENTRY@2@@Z 100219c0 f i MotionSensor.obj
 0001:00020e90       ?UpdateRegistryFromResource@CAtlModule@ATL@@QAGJPB_WHPAU_ATL_REGMAP_ENTRY@2@@Z 10021e90 f i MotionSensor.obj
 0001:00021380       ?UpdateRegistryFromResource@CComModule@ATL@@UAGJIHPAU_ATL_REGMAP_ENTRY@2@@Z 10022380 f i MotionSensor.obj
 0001:000213b0       ?UpdateRegistryFromResource@CComModule@ATL@@UAGJPB_WHPAU_ATL_REGMAP_ENTRY@2@@Z 100223b0 f i MotionSensor.obj
 0001:000213e0       ?UpdateRegistryFromResourceD@CComModule@ATL@@UAGJIHPAU_ATL_REGMAP_ENTRY@2@@Z 100223e0 f i MotionSensor.obj
 0001:000213f0       ?UpdateRegistryFromResourceD@CComModule@ATL@@UAGJPB_WHPAU_ATL_REGMAP_ENTRY@2@@Z 100223f0 f i MotionSensor.obj
 0001:00021400       ?VTFromRegType@CRegParser@ATL@@KAHPB_WAAG@Z 10022400 f i MotionSensor.obj
 0001:000214e0       ?WindowProc@?$CWindowImplBaseT@VCWindow@ATL@@V?$CWinTraits@$0FGAAAAAA@$0A@@2@@ATL@@SGJPAUHWND__@@IIJ@Z 100224e0 f i MotionSensor.obj
 0001:000216f0       ?WriteToStream@CComBSTR@ATL@@QAEJPAUIStream@@@Z 100226f0 f i MotionSensor.obj
 0001:00021850       ?WriteToStream@CComVariant@ATL@@QAEJPAUIStream@@@Z 10022850 f i MotionSensor.obj
 0001:00021b90       ?WriteToStream@CComVariant@ATL@@QAEJPAUIStream@@G@Z 10022b90 f i MotionSensor.obj
 0001:00021c60       ?_AtlFinalConstruct@CComObjectRootBase@ATL@@QAEJXZ 10022c60 f i MotionSensor.obj
 0001:00021c80       ?_AtlGetConversionACP@ATL@@YGIXZ 10022c80 f i MotionSensor.obj
 0001:00021c90       ?_AtlInitialConstruct@?$CComAggObject@VCOPOSMotionSensor@@@ATL@@QAEJXZ 10022c90 f i MotionSensor.obj
 0001:00021ce0       ?_AtlInitialConstruct@?$CComObjectRootEx@VCComMultiThreadModel@ATL@@@ATL@@QAEJXZ 10022ce0 f i MotionSensor.obj
 0001:00021d10       ?_AtlInitialConstruct@?$CComObjectRootEx@VCComSingleThreadModel@ATL@@@ATL@@QAEJXZ 10022d10 f i MotionSensor.obj
 0001:00021d30       ?_AtlVerifyStackAvailable@_ATL_SAFE_ALLOCA_IMPL@ATL@@YA_NK@Z 10022d30 f i MotionSensor.obj
 0001:00021ee0       ?_GetEntries@?$CComEnum@UIEnumConnectionPoints@@$1?_GUID_b196b285_bab4_101a_b69c_00aa00341d07@@3U__s_GUID@@BPAUIConnectionPoint@@V?$_CopyInterface@UIConnectionPoint@@@ATL@@VCComSingleThreadModel@6@@ATL@@SGPBU_ATL_INTMAP_ENTRY@2@XZ 10022ee0 f i MotionSensor.obj
 0001:00021f00       ?_GetEntries@?$CComEnum@UIEnumConnections@@$1?_GUID_b196b287_bab4_101a_b69c_00aa00341d07@@3U__s_GUID@@BUtagCONNECTDATA@@V?$_Copy@UtagCONNECTDATA@@@ATL@@VCComSingleThreadModel@6@@ATL@@SGPBU_ATL_INTMAP_ENTRY@2@XZ 10022f00 f i MotionSensor.obj
 0001:00021f20       ?_GetEntries@CComClassFactory@ATL@@SGPBU_ATL_INTMAP_ENTRY@2@XZ 10022f20 f i MotionSensor.obj
 0001:00021f40       ?_GetEntries@COPOSMotionSensor@@SGPBU_ATL_INTMAP_ENTRY@ATL@@XZ 10022f40 f i MotionSensor.obj
 0001:00021f60       ?_GetRawUnknown@COPOSMotionSensor@@QAEPAUIUnknown@@XZ 10022f60 f i MotionSensor.obj
 0001:00021fd0       ?_GetViewStatus@COPOSMotionSensor@@QAEKXZ 10022fd0 f i MotionSensor.obj
 0001:00021ff0       ?_InternalQueryInterface@?$CComEnum@UIEnumConnectionPoints@@$1?_GUID_b196b285_bab4_101a_b69c_00aa00341d07@@3U__s_GUID@@BPAUIConnectionPoint@@V?$_CopyInterface@UIConnectionPoint@@@ATL@@VCComSingleThreadModel@6@@ATL@@QAEJABU_GUID@@PAPAX@Z 10022ff0 f i MotionSensor.obj
 0001:00022030       ?_InternalQueryInterface@?$CComEnum@UIEnumConnections@@$1?_GUID_b196b287_bab4_101a_b69c_00aa00341d07@@3U__s_GUID@@BUtagCONNECTDATA@@V?$_Copy@UtagCONNECTDATA@@@ATL@@VCComSingleThreadModel@6@@ATL@@QAEJABU_GUID@@PAPAX@Z 10023030 f i MotionSensor.obj
 0001:00022070       ?_InternalQueryInterface@CComClassFactory@ATL@@QAEJABU_GUID@@PAPAX@Z 10023070 f i MotionSensor.obj
 0001:000220b0       ?_InternalQueryInterface@COPOSMotionSensor@@QAEJABU_GUID@@PAPAX@Z 100230b0 f i MotionSensor.obj
 0001:000220f0       ?_LocCPQueryInterface@?$IConnectionPointImpl@VCOPOSMotionSensor@@$1?DIID__IOPOSMotionSensorEvents@@3U_GUID@@BVCComDynamicUnkArray@ATL@@@ATL@@UAGJABU_GUID@@PAPAX@Z 100230f0 f i MotionSensor.obj
 0001:00022190       ?_LocCPQueryInterface@?$IConnectionPointImpl@VCOPOSMotionSensor@@$1?IID_IPropertyNotifySink@@3U_GUID@@BVCComDynamicUnkArray@ATL@@@ATL@@UAGJABU_GUID@@PAPAX@Z 10023190 f i MotionSensor.obj
 0001:00022230       ?atlCreate@?$CWindowImpl@VCOPOSMotionSensor@@VCWindow@ATL@@V?$CWinTraits@$0FGAAAAAA@$0A@@3@@ATL@@QAEPAUHWND__@@PAU3@V_U_RECT@2@PB_WKKV_U_MENUorID@2@PAX@Z 10023230 f i MotionSensor.obj
 0001:000222e0       ?atlCreate@?$CWindowImplBaseT@VCWindow@ATL@@V?$CWinTraits@$0FGAAAAAA@$0A@@2@@ATL@@QAEPAUHWND__@@PAU3@V_U_RECT@2@PB_WKKV_U_MENUorID@2@GPAX@Z 100232e0 f i MotionSensor.obj
 0001:00022460       ?atlCreate@CRegKey@ATL@@QAEJPAUHKEY__@@PB_WPA_WKKPAU_SECURITY_ATTRIBUTES@@PAK@Z 10023460 f i MotionSensor.obj
 0001:000225c0       ?begin@CComDynamicUnkArray@ATL@@QAEPAPAUIUnknown@@XZ 100235c0 f i MotionSensor.obj
 0001:000225e0       ?copy@?$_Copy@UtagCONNECTDATA@@@ATL@@SAJPAUtagCONNECTDATA@@PBU3@@Z 100235e0 f i MotionSensor.obj
 0001:000226a0       ?copy@?$_CopyInterface@UIConnectionPoint@@@ATL@@SAJPAPAUIConnectionPoint@@PBQAU3@@Z 100236a0 f i MotionSensor.obj
 0001:00022760       ?destroy@?$_Copy@UtagCONNECTDATA@@@ATL@@SAXPAUtagCONNECTDATA@@@Z 10023760 f i MotionSensor.obj
 0001:000227a0       ?destroy@?$_CopyInterface@UIConnectionPoint@@@ATL@@SAXPAPAUIConnectionPoint@@@Z 100237a0 f i MotionSensor.obj
 0001:000227e0       ?end@CComDynamicUnkArray@ATL@@QAEPAPAUIUnknown@@XZ 100237e0 f i MotionSensor.obj
 0001:00022800       ?init@?$_Copy@UtagCONNECTDATA@@@ATL@@SAXPAUtagCONNECTDATA@@@Z 10023800 f i MotionSensor.obj
 0001:00022810       ?init@?$_CopyInterface@UIConnectionPoint@@@ATL@@SAXPAPAUIConnectionPoint@@@Z 10023810 f i MotionSensor.obj
 0001:00022820       ?memcpy_s@Checked@ATL@@YAXPAXIPBXI@Z 10023820 f i MotionSensor.obj
 0001:00022850       ?ocscpy_s@@YA_NPA_WIPB_W@Z 10023850 f i MotionSensor.obj
 0001:000228b0       ?ocslen@@YAHPB_W@Z         100238b0 f i MotionSensor.obj
 0001:000228e0       ?tcsncpy_s@Checked@ATL@@YAHPA_WIPB_WI@Z 100238e0 f i MotionSensor.obj
 0001:00022910       ?wcscat_s@Checked@ATL@@YAXPA_WIPB_W@Z 10023910 f i MotionSensor.obj
 0001:00022940       ?wcscpy_s@Checked@ATL@@YAXPA_WIPB_W@Z 10023940 f i MotionSensor.obj
 0001:00022970       ?wcsncpy_s@Checked@ATL@@YAHPA_WIPB_WI@Z 10023970 f i MotionSensor.obj
 0001:000229a0       ?wcsstr@@YAPA_WPA_WPB_W@Z  100239a0 f i MotionSensor.obj
 0001:000229c0       _InlineIsEqualGUID         100239c0 f i MotionSensor.obj
 0001:00022a60       _IsEqualGUID               10023a60 f i MotionSensor.obj
 0001:00022ab0       ??0COPOSMotionSensor@@QAE@XZ 10023ab0 f   MotionSensorImpl.obj
 0001:00022bc0       ?FinalConstruct@COPOSMotionSensor@@QAEJXZ 10023bc0 f   MotionSensorImpl.obj
 0001:00022c90       ??1COPOSMotionSensor@@UAE@XZ 10023c90 f   MotionSensorImpl.obj
 0001:00022d70       ?WriteTrace@COPOSMotionSensor@@QAAXPB_WZZ 10023d70 f   MotionSensorImpl.obj
 0001:00022e20       ?WriteTraceString@COPOSMotionSensor@@QAEXPB_WPA_W@Z 10023e20 f   MotionSensorImpl.obj
 0001:00023190       ?WriteTraceString@COPOSMotionSensor@@QAAXPAXHHHPB_WZZ 10024190 f   MotionSensorImpl.obj
 0001:000233c0       ?WriteTraceError@COPOSMotionSensor@@QAEXPB_WK@Z 100243c0 f   MotionSensorImpl.obj
 0001:000234b0       ?WriteTraceMethods@COPOSMotionSensor@@QAEXPAJH@Z 100244b0 f   MotionSensorImpl.obj
 0001:00023520       ?GetOposProp@COPOSMotionSensor@@IAEJPBDJPAJJ@Z 10024520 f   MotionSensorImpl.obj
 0001:00023790       ?SetOposProp@COPOSMotionSensor@@IAEJPBDJJJ@Z 10024790 f   MotionSensorImpl.obj
 0001:00023a20       ?GetOposProp@COPOSMotionSensor@@IAEJPBDJPAFJ@Z 10024a20 f   MotionSensorImpl.obj
 0001:00023ac0       ?SetOposProp@COPOSMotionSensor@@IAEJPBDJFJ@Z 10024ac0 f   MotionSensorImpl.obj
 0001:00023b20       ?GetOposProp@COPOSMotionSensor@@IAEJPBDJPAPA_WJ@Z 10024b20 f   MotionSensorImpl.obj
 0001:00023da0       ?SetOposProp@COPOSMotionSensor@@IAEJPBDJPA_WJ@Z 10024da0 f   MotionSensorImpl.obj
 0001:000240e0       ?DoInvoke@COPOSMotionSensor@@IAEJPBDJPAVOposVariant@@IHPAJ_N@Z 100250e0 f   MotionSensorImpl.obj
 0001:00024a10       ?SetCOFreezeEvents@COPOSMotionSensor@@IAEXF@Z 10025a10 f   MotionSensorImpl.obj
 0001:00024b50       ?FreezeEvents@COPOSMotionSensor@@MAGJH@Z 10025b50 f   MotionSensorImpl.obj
 0001:00024c10       ?OnDraw@COPOSMotionSensor@@MAEJAAUATL_DRAWINFO@@@Z 10025c10 f   MotionSensorImpl.obj
 0001:00024db0       ?SOProcessID@COPOSMotionSensor@@UAGJPAJ@Z 10025db0 f   MotionSensorImpl.obj
 0001:00024df0       ?get_OpenResult@COPOSMotionSensor@@UAGJPAJ@Z 10025df0 f   MotionSensorImpl.obj
 0001:00024e30       ?get_BinaryConversion@COPOSMotionSensor@@UAGJPAJ@Z 10025e30 f   MotionSensorImpl.obj
 0001:00024e60       ?put_BinaryConversion@COPOSMotionSensor@@UAGJJ@Z 10025e60 f   MotionSensorImpl.obj
 0001:00024e90       ?get_CapPowerReporting@COPOSMotionSensor@@UAGJPAJ@Z 10025e90 f   MotionSensorImpl.obj
 0001:00024ec0       ?get_CheckHealthText@COPOSMotionSensor@@UAGJPAPA_W@Z 10025ec0 f   MotionSensorImpl.obj
 0001:00024ef0       ?get_Claimed@COPOSMotionSensor@@UAGJPAF@Z 10025ef0 f   MotionSensorImpl.obj
 0001:00024f20       ?get_DeviceEnabled@COPOSMotionSensor@@UAGJPAF@Z 10025f20 f   MotionSensorImpl.obj
 0001:00024f50       ?put_DeviceEnabled@COPOSMotionSensor@@UAGJF@Z 10025f50 f   MotionSensorImpl.obj
 0001:00024f80       ?get_FreezeEvents@COPOSMotionSensor@@UAGJPAF@Z 10025f80 f   MotionSensorImpl.obj
 0001:00024fb0       ?put_FreezeEvents@COPOSMotionSensor@@UAGJF@Z 10025fb0 f   MotionSensorImpl.obj
 0001:00025040       ?get_PowerNotify@COPOSMotionSensor@@UAGJPAJ@Z 10026040 f   MotionSensorImpl.obj
 0001:00025070       ?put_PowerNotify@COPOSMotionSensor@@UAGJJ@Z 10026070 f   MotionSensorImpl.obj
 0001:000250a0       ?get_PowerState@COPOSMotionSensor@@UAGJPAJ@Z 100260a0 f   MotionSensorImpl.obj
 0001:000250d0       ?get_ResultCode@COPOSMotionSensor@@UAGJPAJ@Z 100260d0 f   MotionSensorImpl.obj
 0001:00025160       ?get_ResultCodeExtended@COPOSMotionSensor@@UAGJPAJ@Z 10026160 f   MotionSensorImpl.obj
 0001:00025190       ?get_State@COPOSMotionSensor@@UAGJPAJ@Z 10026190 f   MotionSensorImpl.obj
 0001:000251e0       ?get_ControlObjectDescription@COPOSMotionSensor@@UAGJPAPA_W@Z 100261e0 f   MotionSensorImpl.obj
 0001:00025260       ?get_ControlObjectVersion@COPOSMotionSensor@@UAGJPAJ@Z 10026260 f   MotionSensorImpl.obj
 0001:000252a0       ?get_ServiceObjectDescription@COPOSMotionSensor@@UAGJPAPA_W@Z 100262a0 f   MotionSensorImpl.obj
 0001:000252d0       ?get_ServiceObjectVersion@COPOSMotionSensor@@UAGJPAJ@Z 100262d0 f   MotionSensorImpl.obj
 0001:00025300       ?get_DeviceDescription@COPOSMotionSensor@@UAGJPAPA_W@Z 10026300 f   MotionSensorImpl.obj
 0001:00025330       ?get_DeviceName@COPOSMotionSensor@@UAGJPAPA_W@Z 10026330 f   MotionSensorImpl.obj
 0001:00025360       ?CheckHealth@COPOSMotionSensor@@UAGJJPAJ@Z 10026360 f   MotionSensorImpl.obj
 0001:00025400       ?ClaimDevice@COPOSMotionSensor@@UAGJJPAJ@Z 10026400 f   MotionSensorImpl.obj
 0001:000254e0       ?Close@COPOSMotionSensor@@UAGJPAJ@Z 100264e0 f   MotionSensorImpl.obj
 0001:000255b0       ?DirectIO@COPOSMotionSensor@@UAGJJPAJPAPA_W0@Z 100265b0 f   MotionSensorImpl.obj
 0001:000256c0       ?Open@COPOSMotionSensor@@UAGJPA_WPAJ@Z 100266c0 f   MotionSensorImpl.obj
 0001:000268b0       ?ReleaseDevice@COPOSMotionSensor@@UAGJPAJ@Z 100278b0 f   MotionSensorImpl.obj
 0001:00026910       ?get_Timeout@COPOSMotionSensor@@UAGJPAJ@Z 10027910 f   MotionSensorImpl.obj
 0001:00026940       ?put_Timeout@COPOSMotionSensor@@UAGJJ@Z 10027940 f   MotionSensorImpl.obj
 0001:00026970       ?get_Motion@COPOSMotionSensor@@UAGJPAF@Z 10027970 f   MotionSensorImpl.obj
 0001:000269a0       ?WaitForMotion@COPOSMotionSensor@@UAGJJPAJ@Z 100279a0 f   MotionSensorImpl.obj
 0001:00026a40       ?get_CapStatisticsReporting@COPOSMotionSensor@@UAGJPAF@Z 10027a40 f   MotionSensorImpl.obj
 0001:00026a70       ?get_CapUpdateStatistics@COPOSMotionSensor@@UAGJPAF@Z 10027a70 f   MotionSensorImpl.obj
 0001:00026aa0       ?ResetStatistics@COPOSMotionSensor@@UAGJPA_WPAJ@Z 10027aa0 f   MotionSensorImpl.obj
 0001:00026b50       ?RetrieveStatistics@COPOSMotionSensor@@UAGJPAPA_WPAJ@Z 10027b50 f   MotionSensorImpl.obj
 0001:00026c00       ?UpdateStatistics@COPOSMotionSensor@@UAGJPA_WPAJ@Z 10027c00 f   MotionSensorImpl.obj
 0001:00026cb0       ?get_CapCompareFirmwareVersion@COPOSMotionSensor@@UAGJPAF@Z 10027cb0 f   MotionSensorImpl.obj
 0001:00026ce0       ?get_CapUpdateFirmware@COPOSMotionSensor@@UAGJPAF@Z 10027ce0 f   MotionSensorImpl.obj
 0001:00026d10       ?CompareFirmwareVersion@COPOSMotionSensor@@UAGJPA_WPAJ1@Z 10027d10 f   MotionSensorImpl.obj
 0001:00026e00       ?UpdateFirmware@COPOSMotionSensor@@UAGJPA_WPAJ@Z 10027e00 f   MotionSensorImpl.obj
 0001:00026eb0       ??0?$CComControl@VCOPOSMotionSensor@@V?$CWindowImpl@VCOPOSMotionSensor@@VCWindow@ATL@@V?$CWinTraits@$0FGAAAAAA@$0A@@3@@ATL@@@ATL@@QAE@XZ 10027eb0 f i MotionSensorImpl.obj
 0001:00026ef0       ??0?$CComPtr@UIAdviseSink@@@ATL@@QAE@XZ 10027ef0 f i MotionSensorImpl.obj
 0001:00026f20       ??0?$CComPtr@UIDataAdviseHolder@@@ATL@@QAE@XZ 10027f20 f i MotionSensorImpl.obj
 0001:00026f50       ??0?$CComPtr@UIOleAdviseHolder@@@ATL@@QAE@XZ 10027f50 f i MotionSensorImpl.obj
 0001:00026f80       ??0?$CComPtr@UIOleClientSite@@@ATL@@QAE@XZ 10027f80 f i MotionSensorImpl.obj
 0001:00026fb0       ??0?$CComPtr@UIOleInPlaceSiteWindowless@@@ATL@@QAE@XZ 10027fb0 f i MotionSensorImpl.obj
 0001:00026fe0       ??0?$CComPtrBase@UIAdviseSink@@@ATL@@IAE@XZ 10027fe0 f i MotionSensorImpl.obj
 0001:00027000       ??0?$CComPtrBase@UIDataAdviseHolder@@@ATL@@IAE@XZ 10028000 f i MotionSensorImpl.obj
 0001:00027020       ??0?$CComPtrBase@UIOleAdviseHolder@@@ATL@@IAE@XZ 10028020 f i MotionSensorImpl.obj
 0001:00027040       ??0?$CComPtrBase@UIOleClientSite@@@ATL@@IAE@XZ 10028040 f i MotionSensorImpl.obj
 0001:00027060       ??0?$CComPtrBase@UIOleInPlaceSiteWindowless@@@ATL@@IAE@XZ 10028060 f i MotionSensorImpl.obj
 0001:00027080       ??0?$CComQIPtr@UIDispatch@@$1?_GUID_00020400_0000_0000_c000_000000000046@@3U__s_GUID@@B@ATL@@QAE@XZ 10028080 f i MotionSensorImpl.obj
 0001:000270b0       ??0?$CProxy_IOPOSEvents@VCOPOSMotionSensor@@@@QAE@PAVCOPOSMotionSensor@@@Z 100280b0 f i MotionSensorImpl.obj
 0001:00027100       ??0?$CWindowImpl@VCOPOSMotionSensor@@VCWindow@ATL@@V?$CWinTraits@$0FGAAAAAA@$0A@@3@@ATL@@QAE@XZ 10028100 f i MotionSensorImpl.obj
 0001:00027130       ??0?$CWindowImplBaseT@VCWindow@ATL@@V?$CWinTraits@$0FGAAAAAA@$0A@@2@@ATL@@QAE@XZ 10028130 f i MotionSensorImpl.obj
 0001:00027170       ??0?$CWindowImplRoot@VCWindow@ATL@@@ATL@@QAE@XZ 10028170 f i MotionSensorImpl.obj
 0001:000271d0       ??0?$IConnectionPointContainerImpl@VCOPOSMotionSensor@@@ATL@@QAE@XZ 100281d0 f i MotionSensorImpl.obj
 0001:00027200       ??0?$IConnectionPointImpl@VCOPOSMotionSensor@@$1?DIID__IOPOSMotionSensorEvents@@3U_GUID@@BVCComDynamicUnkArray@ATL@@@ATL@@QAE@XZ 10028200 f i MotionSensorImpl.obj
 0001:00027240       ??0?$IConnectionPointImpl@VCOPOSMotionSensor@@$1?IID_IPropertyNotifySink@@3U_GUID@@BVCComDynamicUnkArray@ATL@@@ATL@@QAE@XZ 10028240 f i MotionSensorImpl.obj
 0001:00027280       ??0?$IDataObjectImpl@VCOPOSMotionSensor@@@ATL@@QAE@XZ 10028280 f i MotionSensorImpl.obj
 0001:000272b0       ??0?$IDispatchImpl@UIOPOSMotionSensor@@$1?IID_IOPOSMotionSensor@@3U_GUID@@B$1?LIBID_OposMotionSensor_CCO@@3U3@B$00$0A@VCComTypeInfoHolder@ATL@@@ATL@@QAE@XZ 100282b0 f i MotionSensorImpl.obj
 0001:000272e0       ??0?$IObjectSafetyImpl@VCOPOSMotionSensor@@$02@ATL@@QAE@XZ 100282e0 f i MotionSensorImpl.obj
 0001:00027320       ??0?$IOleControlImpl@VCOPOSMotionSensor@@@ATL@@QAE@XZ 10028320 f i MotionSensorImpl.obj
 0001:00027350       ??0?$IOleInPlaceActiveObjectImpl@VCOPOSMotionSensor@@@ATL@@QAE@XZ 10028350 f i MotionSensorImpl.obj
 0001:00027380       ??0?$IOleInPlaceObjectWindowlessImpl@VCOPOSMotionSensor@@@ATL@@QAE@XZ 10028380 f i MotionSensorImpl.obj
 0001:000273b0       ??0?$IOleObjectImpl@VCOPOSMotionSensor@@@ATL@@QAE@XZ 100283b0 f i MotionSensorImpl.obj
 0001:000273e0       ??0?$IPersistStorageImpl@VCOPOSMotionSensor@@@ATL@@QAE@XZ 100283e0 f i MotionSensorImpl.obj
 0001:00027410       ??0?$IPersistStreamInitImpl@VCOPOSMotionSensor@@@ATL@@QAE@XZ 10028410 f i MotionSensorImpl.obj
 0001:00027440       ??0?$IPropertyNotifySinkCP@VCOPOSMotionSensor@@VCComDynamicUnkArray@ATL@@@ATL@@QAE@XZ 10028440 f i MotionSensorImpl.obj
 0001:00027470       ??0?$IProvideClassInfo2Impl@$1?CLSID_OPOSMotionSensor@@3U_GUID@@B$1?DIID__IOPOSMotionSensorEvents@@3U2@B$1?LIBID_OposMotionSensor_CCO@@3U2@B$00$0A@VCComTypeInfoHolder@ATL@@@ATL@@QAE@XZ 10028470 f i MotionSensorImpl.obj
 0001:000274a0       ??0?$IQuickActivateImpl@VCOPOSMotionSensor@@@ATL@@QAE@XZ 100284a0 f i MotionSensorImpl.obj
 0001:000274d0       ??0?$ISpecifyPropertyPagesImpl@VCOPOSMotionSensor@@@ATL@@QAE@XZ 100284d0 f i MotionSensorImpl.obj
 0001:00027500       ??0?$IViewObjectExImpl@VCOPOSMotionSensor@@@ATL@@QAE@XZ 10028500 f i MotionSensorImpl.obj
 0001:00027530       ??0?$_ICPLocator@$1?DIID__IOPOSMotionSensorEvents@@3U_GUID@@B@ATL@@QAE@XZ 10028530 f i MotionSensorImpl.obj
 0001:00027550       ??0?$_ICPLocator@$1?IID_IPropertyNotifySink@@3U_GUID@@B@ATL@@QAE@XZ 10028550 f i MotionSensorImpl.obj
 0001:00027570       ??0CComControlBase@ATL@@QAE@AAPAUHWND__@@@Z 10028570 f i MotionSensorImpl.obj
 0001:00027720       ??0CComDynamicUnkArray@ATL@@QAE@XZ 10028720 f i MotionSensorImpl.obj
 0001:00027750       ??0CDynamicStdCallThunk2@ATL@@QAE@XZ 10028750 f i MotionSensorImpl.obj
 0001:00027770       ??0CMessageMap@ATL@@QAE@XZ 10028770 f i MotionSensorImpl.obj
 0001:00027790       ??0CWindow@ATL@@QAE@PAUHWND__@@@Z 10028790 f i MotionSensorImpl.obj
 0001:000277b0       ??0CWndProcThunk@ATL@@QAE@XZ 100287b0 f i MotionSensorImpl.obj
 0001:000277e0       ??0IConnectionPointContainer@@QAE@XZ 100287e0 f i MotionSensorImpl.obj
 0001:00027810       ??0IDataObject@@QAE@XZ     10028810 f i MotionSensorImpl.obj
 0001:00027840       ??0IDispatch@@QAE@XZ       10028840 f i MotionSensorImpl.obj
 0001:00027870       ??0IOPOSMotionSensor@@QAE@XZ 10028870 f i MotionSensorImpl.obj
 0001:000278a0       ??0IOPOSMotionSensor_1_7@@QAE@XZ 100288a0 f i MotionSensorImpl.obj
 0001:000278d0       ??0IOPOSMotionSensor_1_8@@QAE@XZ 100288d0 f i MotionSensorImpl.obj
 0001:00027900       ??0IOPOSMotionSensor_1_9@@QAE@XZ 10028900 f i MotionSensorImpl.obj
 0001:00027930       ??0IObjectSafety@@QAE@XZ   10028930 f i MotionSensorImpl.obj
 0001:00027960       ??0IOleControl@@QAE@XZ     10028960 f i MotionSensorImpl.obj
 0001:00027990       ??0IOleInPlaceActiveObject@@QAE@XZ 10028990 f i MotionSensorImpl.obj
 0001:000279c0       ??0IOleInPlaceObject@@QAE@XZ 100289c0 f i MotionSensorImpl.obj
 0001:000279f0       ??0IOleInPlaceObjectWindowless@@QAE@XZ 100289f0 f i MotionSensorImpl.obj
 0001:00027a20       ??0IOleObject@@QAE@XZ      10028a20 f i MotionSensorImpl.obj
 0001:00027a50       ??0IOleWindow@@QAE@XZ      10028a50 f i MotionSensorImpl.obj
 0001:00027a80       ??0IPersist@@QAE@XZ        10028a80 f i MotionSensorImpl.obj
 0001:00027ab0       ??0IPersistStorage@@QAE@XZ 10028ab0 f i MotionSensorImpl.obj
 0001:00027ae0       ??0IPersistStreamInit@@QAE@XZ 10028ae0 f i MotionSensorImpl.obj
 0001:00027b10       ??0IProvideClassInfo2@@QAE@XZ 10028b10 f i MotionSensorImpl.obj
 0001:00027b40       ??0IProvideClassInfo@@QAE@XZ 10028b40 f i MotionSensorImpl.obj
 0001:00027b70       ??0IQuickActivate@@QAE@XZ  10028b70 f i MotionSensorImpl.obj
 0001:00027ba0       ??0ISpecifyPropertyPages@@QAE@XZ 10028ba0 f i MotionSensorImpl.obj
 0001:00027bd0       ??0IViewObject2@@QAE@XZ    10028bd0 f i MotionSensorImpl.obj
 0001:00027c00       ??0IViewObject@@QAE@XZ     10028c00 f i MotionSensorImpl.obj
 0001:00027c30       ??0IViewObjectEx@@QAE@XZ   10028c30 f i MotionSensorImpl.obj
 0001:00027c60       ??0OposVariantResult@@QAE@XZ 10028c60 f i MotionSensorImpl.obj
 0001:00027c90       ??0_CW@@QAE@PBD@Z          10028c90 f i MotionSensorImpl.obj
 0001:00027cd0       ??0_CW@@QAE@PB_W@Z         10028cd0 f i MotionSensorImpl.obj
 0001:00027d10       ??0_CWNCC@@QAE@PBD@Z       10028d10 f i MotionSensorImpl.obj
 0001:00027d40       ??1?$CComControl@VCOPOSMotionSensor@@V?$CWindowImpl@VCOPOSMotionSensor@@VCWindow@ATL@@V?$CWinTraits@$0FGAAAAAA@$0A@@3@@ATL@@@ATL@@UAE@XZ 10028d40 f i MotionSensorImpl.obj
 0001:00027d70       ??1?$CComPtr@UIDataAdviseHolder@@@ATL@@QAE@XZ 10028d70 f i MotionSensorImpl.obj
 0001:00027da0       ??1?$CComPtr@UIOleAdviseHolder@@@ATL@@QAE@XZ 10028da0 f i MotionSensorImpl.obj
 0001:00027dd0       ??1?$CComPtr@UIOleInPlaceSiteWindowless@@@ATL@@QAE@XZ 10028dd0 f i MotionSensorImpl.obj
 0001:00027e00       ??1?$CComPtrBase@UIDataAdviseHolder@@@ATL@@QAE@XZ 10028e00 f i MotionSensorImpl.obj
 0001:00027e50       ??1?$CComPtrBase@UIOleAdviseHolder@@@ATL@@QAE@XZ 10028e50 f i MotionSensorImpl.obj
 0001:00027ea0       ??1?$CComPtrBase@UIOleInPlaceSiteWindowless@@@ATL@@QAE@XZ 10028ea0 f i MotionSensorImpl.obj
 0001:00027ef0       ??1?$CComQIPtr@UIDispatch@@$1?_GUID_00020400_0000_0000_c000_000000000046@@3U__s_GUID@@B@ATL@@QAE@XZ 10028ef0 f i MotionSensorImpl.obj
 0001:00027f20       ??1?$CProxy_IOPOSEvents@VCOPOSMotionSensor@@@@QAE@XZ 10028f20 f i MotionSensorImpl.obj
 0001:00027f50       ??1?$CWindowImpl@VCOPOSMotionSensor@@VCWindow@ATL@@V?$CWinTraits@$0FGAAAAAA@$0A@@3@@ATL@@UAE@XZ 10028f50 f i MotionSensorImpl.obj
 0001:00027f80       ??1?$CWindowImplBaseT@VCWindow@ATL@@V?$CWinTraits@$0FGAAAAAA@$0A@@2@@ATL@@UAE@XZ 10028f80 f i MotionSensorImpl.obj
 0001:00027fb0       ??1?$CWindowImplRoot@VCWindow@ATL@@@ATL@@UAE@XZ 10028fb0 f i MotionSensorImpl.obj
 0001:00028050       ??1?$IConnectionPointImpl@VCOPOSMotionSensor@@$1?DIID__IOPOSMotionSensorEvents@@3U_GUID@@BVCComDynamicUnkArray@ATL@@@ATL@@QAE@XZ 10029050 f i MotionSensorImpl.obj
 0001:000280d0       ??1?$IConnectionPointImpl@VCOPOSMotionSensor@@$1?IID_IPropertyNotifySink@@3U_GUID@@BVCComDynamicUnkArray@ATL@@@ATL@@QAE@XZ 100290d0 f i MotionSensorImpl.obj
 0001:00028150       ??1?$IPropertyNotifySinkCP@VCOPOSMotionSensor@@VCComDynamicUnkArray@ATL@@@ATL@@QAE@XZ 10029150 f i MotionSensorImpl.obj
 0001:00028180       ??1CComControlBase@ATL@@UAE@XZ 10029180 f i MotionSensorImpl.obj
 0001:00028240       ??1CComDynamicUnkArray@ATL@@QAE@XZ 10029240 f i MotionSensorImpl.obj
 0001:00028280       ??1CDynamicStdCallThunk2@ATL@@QAE@XZ 10029280 f i MotionSensorImpl.obj
 0001:000282b0       ??1CWndProcThunk@ATL@@QAE@XZ 100292b0 f i MotionSensorImpl.obj
 0001:000282e0       ??1OposVariantResult@@QAE@XZ 100292e0 f i MotionSensorImpl.obj
 0001:00028310       ??1_CW@@QAE@XZ             10029310 f i MotionSensorImpl.obj
 0001:00028380       ??1_CWNCC@@QAE@XZ          10029380 f i MotionSensorImpl.obj
 0001:000283b0       ??B_CW@@QAEPB_WXZ          100293b0 f i MotionSensorImpl.obj
 0001:000283f0       ??B_CWNCC@@QAEPA_WXZ       100293f0 f i MotionSensorImpl.obj
 0001:00028420       ??_EOposVariant@@QAEPAXI@Z 10029420 f i MotionSensorImpl.obj
 0001:000284b0       ?EventClose@COPOSMotionSensor@@IAEXXZ 100294b0 f i MotionSensorImpl.obj
 0001:00028550       ?EventInit@COPOSMotionSensor@@IAEJXZ 10029550 f i MotionSensorImpl.obj
 0001:00028780       ?EventOpen@COPOSMotionSensor@@IAEXXZ 10029780 f i MotionSensorImpl.obj
 0001:000287c0       ?EventPreClose@COPOSMotionSensor@@IAEXXZ 100297c0 f i MotionSensorImpl.obj
 0001:00028840       ?EventUninit@COPOSMotionSensor@@IAEXXZ 10029840 f i MotionSensorImpl.obj
 0001:00028970       ?EventWindowProc@COPOSMotionSensor@@IAGJIIJ@Z 10029970 f i MotionSensorImpl.obj
 0001:00028a50       ?FireEventCleanup@COPOSMotionSensor@@IAEXXZ 10029a50 f i MotionSensorImpl.obj
 0001:00028aa0       ?FireEventSetup@COPOSMotionSensor@@IAE_NXZ 10029aa0 f i MotionSensorImpl.obj
 0001:00028b10       ?GetModuleInstance@CComModule@ATL@@QAEPAUHINSTANCE__@@XZ 10029b10 f i MotionSensorImpl.obj
 0001:00028b30       ?SetRC@COPOSMotionSensor@@IAEJJ@Z 10029b30 f i MotionSensorImpl.obj
 0001:00028b60       ?s_EventWindowProc@COPOSMotionSensor@@KGJPAUHWND__@@IIJ@Z 10029b60 f i MotionSensorImpl.obj
 0001:00028c00       __snwprintf                10029c00 f i MotionSensorImpl.obj
 0001:00028c60       __vfwprintf_l              10029c60 f i MotionSensorImpl.obj
 0001:00028c90       __vsnwprintf               10029c90 f i MotionSensorImpl.obj
 0001:00028cc0       __vsnwprintf_l             10029cc0 f i MotionSensorImpl.obj
 0001:00028d30       _vfwprintf                 10029d30 f i MotionSensorImpl.obj
 0001:00028d52       _DebugBreak@0              10029d52 f   kernel32:KERNEL32.dll
 0001:00028d58       _Sleep@4                   10029d58 f   kernel32:KERNEL32.dll
 0001:00028d5e       _GetCurrentProcess@0       10029d5e f   kernel32:KERNEL32.dll
 0001:00028d64       _TerminateProcess@8        10029d64 f   kernel32:KERNEL32.dll
 0001:00028d6a       _MultiByteToWideChar@24    10029d6a f   kernel32:KERNEL32.dll
 0001:00028d70       _WideCharToMultiByte@32    10029d70 f   kernel32:KERNEL32.dll
 0001:00028d76       _DecodePointer@4           10029d76 f   kernel32:KERNEL32.dll
 0001:00028d7c       _RaiseException@16         10029d7c f   kernel32:KERNEL32.dll
 0001:00028d82       _GetLastError@0            10029d82 f   kernel32:KERNEL32.dll
 0001:00028d88       _SetLastError@4            10029d88 f   kernel32:KERNEL32.dll
 0001:00028d8e       _InitializeCriticalSectionEx@12 10029d8e f   kernel32:KERNEL32.dll
 0001:00028d94       _DeleteCriticalSection@4   10029d94 f   kernel32:KERNEL32.dll
 0001:00028d9a       _EncodePointer@4           10029d9a f   kernel32:KERNEL32.dll
 0001:00028da0       _EnterCriticalSection@4    10029da0 f   kernel32:KERNEL32.dll
 0001:00028da6       _LeaveCriticalSection@4    10029da6 f   kernel32:KERNEL32.dll
 0001:00028dac       _ResetEvent@4              10029dac f   kernel32:KERNEL32.dll
 0001:00028db2       _ReleaseMutex@4            10029db2 f   kernel32:KERNEL32.dll
 0001:00028db8       _WaitForSingleObject@8     10029db8 f   kernel32:KERNEL32.dll
 0001:00028dbe       _GetCurrentThreadId@0      10029dbe f   kernel32:KERNEL32.dll
 0001:00028dc4       _DisableThreadLibraryCalls@4 10029dc4 f   kernel32:KERNEL32.dll
 0001:00028dca       _FreeLibrary@4             10029dca f   kernel32:KERNEL32.dll
 0001:00028dd0       _GetModuleFileNameW@12     10029dd0 f   kernel32:KERNEL32.dll
 0001:00028dd6       _GetModuleHandleW@4        10029dd6 f   kernel32:KERNEL32.dll
 0001:00028ddc       _GetProcAddress@8          10029ddc f   kernel32:KERNEL32.dll
 0001:00028de2       _LoadLibraryExW@12         10029de2 f   kernel32:KERNEL32.dll
 0001:00028de8       _LoadResource@8            10029de8 f   kernel32:KERNEL32.dll
 0001:00028dee       _SizeofResource@8          10029dee f   kernel32:KERNEL32.dll
 0001:00028df4       _FindResourceW@12          10029df4 f   kernel32:KERNEL32.dll
 0001:00028dfa       _GlobalAlloc@8             10029dfa f   kernel32:KERNEL32.dll
 0001:00028e00       _GlobalUnlock@4            10029e00 f   kernel32:KERNEL32.dll
 0001:00028e06       _GlobalLock@4              10029e06 f   kernel32:KERNEL32.dll
 0001:00028e0c       _MulDiv@12                 10029e0c f   kernel32:KERNEL32.dll
 0001:00028e12       _lstrcmpiW@8               10029e12 f   kernel32:KERNEL32.dll
 0001:00028e18       _DeleteFileW@4             10029e18 f   kernel32:KERNEL32.dll
 0001:00028e1e       _CloseHandle@4             10029e1e f   kernel32:KERNEL32.dll
 0001:00028e24       _SetEvent@4                10029e24 f   kernel32:KERNEL32.dll
 0001:00028e2a       _CreateMutexW@12           10029e2a f   kernel32:KERNEL32.dll
 0001:00028e30       _CreateEventW@16           10029e30 f   kernel32:KERNEL32.dll
 0001:00028e36       _GetCurrentProcessId@0     10029e36 f   kernel32:KERNEL32.dll
 0001:00028e3c       _LocalFree@4               10029e3c f   kernel32:KERNEL32.dll
 0001:00028e42       _FormatMessageW@28         10029e42 f   kernel32:KERNEL32.dll
 0001:00028e48       _GetActiveWindow@0         10029e48 f   user32:USER32.dll
 0001:00028e4e       _MessageBoxW@16            10029e4e f   user32:USER32.dll
 0001:00028e54       _UnregisterClassW@8        10029e54 f   user32:USER32.dll
 0001:00028e5a       _PostMessageW@16           10029e5a f   user32:USER32.dll
 0001:00028e60       _DefWindowProcW@16         10029e60 f   user32:USER32.dll
 0001:00028e66       _CallWindowProcW@20        10029e66 f   user32:USER32.dll
 0001:00028e6c       _RegisterClassExW@4        10029e6c f   user32:USER32.dll
 0001:00028e72       _GetClassInfoExW@12        10029e72 f   user32:USER32.dll
 0001:00028e78       _CreateWindowExW@48        10029e78 f   user32:USER32.dll
 0001:00028e7e       _IsWindow@4                10029e7e f   user32:USER32.dll
 0001:00028e84       _IsChild@8                 10029e84 f   user32:USER32.dll
 0001:00028e8a       _DestroyWindow@4           10029e8a f   user32:USER32.dll
 0001:00028e90       _ShowWindow@8              10029e90 f   user32:USER32.dll
 0001:00028e96       _SetWindowPos@28           10029e96 f   user32:USER32.dll
 0001:00028e9c       _CharNextW@4               10029e9c f   user32:USER32.dll
 0001:00028ea2       _SetFocus@4                10029ea2 f   user32:USER32.dll
 0001:00028ea8       _GetFocus@0                10029ea8 f   user32:USER32.dll
 0001:00028eae       _GetKeyState@4             10029eae f   user32:USER32.dll
 0001:00028eb4       _GetDC@4                   10029eb4 f   user32:USER32.dll
 0001:00028eba       _ReleaseDC@8               10029eba f   user32:USER32.dll
 0001:00028ec0       _BeginPaint@8              10029ec0 f   user32:USER32.dll
 0001:00028ec6       _EndPaint@8                10029ec6 f   user32:USER32.dll
 0001:00028ecc       _SetWindowRgn@12           10029ecc f   user32:USER32.dll
 0001:00028ed2       _InvalidateRect@12         10029ed2 f   user32:USER32.dll
 0001:00028ed8       _GetClientRect@8           10029ed8 f   user32:USER32.dll
 0001:00028ede       _IntersectRect@12          10029ede f   user32:USER32.dll
 0001:00028ee4       _UnionRect@12              10029ee4 f   user32:USER32.dll
 0001:00028eea       _OffsetRect@12             10029eea f   user32:USER32.dll
 0001:00028ef0       _EqualRect@8               10029ef0 f   user32:USER32.dll
 0001:00028ef6       _PtInRect@12               10029ef6 f   user32:USER32.dll
 0001:00028efc       _GetWindowLongW@8          10029efc f   user32:USER32.dll
 0001:00028f02       _SetWindowLongW@12         10029f02 f   user32:USER32.dll
 0001:00028f08       _GetParent@4               10029f08 f   user32:USER32.dll
 0001:00028f0e       _LoadCursorW@8             10029f0e f   user32:USER32.dll
 0001:00028f14       _PeekMessageW@20           10029f14 f   user32:USER32.dll
 0001:00028f1a       _RegisterClassW@4          10029f1a f   user32:USER32.dll
 0001:00028f20       _LoadBitmapW@8             10029f20 f   user32:USER32.dll
 0001:00028f26       _CloseMetaFile@4           10029f26 f   gdi32:GDI32.dll
 0001:00028f2c       _CreateDCW@16              10029f2c f   gdi32:GDI32.dll
 0001:00028f32       _CreateMetaFileW@4         10029f32 f   gdi32:GDI32.dll
 0001:00028f38       _CreateRectRgnIndirect@4   10029f38 f   gdi32:GDI32.dll
 0001:00028f3e       _DeleteDC@4                10029f3e f   gdi32:GDI32.dll
 0001:00028f44       _DeleteMetaFile@4          10029f44 f   gdi32:GDI32.dll
 0001:00028f4a       _GetDeviceCaps@8           10029f4a f   gdi32:GDI32.dll
 0001:00028f50       _RestoreDC@8               10029f50 f   gdi32:GDI32.dll
 0001:00028f56       _SaveDC@4                  10029f56 f   gdi32:GDI32.dll
 0001:00028f5c       _SetMapMode@8              10029f5c f   gdi32:GDI32.dll
 0001:00028f62       _LPtoDP@12                 10029f62 f   gdi32:GDI32.dll
 0001:00028f68       _SetViewportOrgEx@16       10029f68 f   gdi32:GDI32.dll
 0001:00028f6e       _SetWindowExtEx@16         10029f6e f   gdi32:GDI32.dll
 0001:00028f74       _SetWindowOrgEx@16         10029f74 f   gdi32:GDI32.dll
 0001:00028f7a       _BitBlt@36                 10029f7a f   gdi32:GDI32.dll
 0001:00028f80       _CreateCompatibleDC@4      10029f80 f   gdi32:GDI32.dll
 0001:00028f86       _DeleteObject@4            10029f86 f   gdi32:GDI32.dll
 0001:00028f8c       _SelectObject@8            10029f8c f   gdi32:GDI32.dll
 0001:00028f92       _GetObjectW@12             10029f92 f   gdi32:GDI32.dll
 0001:00028f98       _RegCloseKey@4             10029f98 f   advapi32:ADVAPI32.dll
 0001:00028f9e       _RegCreateKeyExW@36        10029f9e f   advapi32:ADVAPI32.dll
 0001:00028fa4       _RegDeleteKeyW@8           10029fa4 f   advapi32:ADVAPI32.dll
 0001:00028faa       _RegDeleteValueW@8         10029faa f   advapi32:ADVAPI32.dll
 0001:00028fb0       _RegEnumKeyExW@32          10029fb0 f   advapi32:ADVAPI32.dll
 0001:00028fb6       _RegOpenKeyExW@20          10029fb6 f   advapi32:ADVAPI32.dll
 0001:00028fbc       _RegQueryInfoKeyW@48       10029fbc f   advapi32:ADVAPI32.dll
 0001:00028fc2       _RegSetValueExW@24         10029fc2 f   advapi32:ADVAPI32.dll
 0001:00028fc8       _RegQueryValueExW@24       10029fc8 f   advapi32:ADVAPI32.dll
 0001:00028fce       _CoCreateInstance@20       10029fce f   ole32:ole32.dll
 0001:00028fd4       _StringFromGUID2@12        10029fd4 f   ole32:ole32.dll
 0001:00028fda       _CoTaskMemAlloc@4          10029fda f   ole32:ole32.dll
 0001:00028fe0       _CoTaskMemRealloc@8        10029fe0 f   ole32:ole32.dll
 0001:00028fe6       _CoTaskMemFree@4           10029fe6 f   ole32:ole32.dll
 0001:00028fec       _ReadClassStm@8            10029fec f   ole32:ole32.dll
 0001:00028ff2       _WriteClassStm@8           10029ff2 f   ole32:ole32.dll
 0001:00028ff8       _CreateDataAdviseHolder@4  10029ff8 f   ole32:ole32.dll
 0001:00028ffe       _OleSaveToStream@8         10029ffe f   ole32:ole32.dll
 0001:00029004       _CreateOleAdviseHolder@4   1002a004 f   ole32:ole32.dll
 0001:0002900a       _OleRegGetUserType@12      1002a00a f   ole32:ole32.dll
 0001:00029010       _OleRegGetMiscStatus@12    1002a010 f   ole32:ole32.dll
 0001:00029016       _OleRegEnumVerbs@8         1002a016 f   ole32:ole32.dll
 0001:0002901c       _CLSIDFromProgID@8         1002a01c f   ole32:ole32.dll
 0001:00029022       _SysAllocString@4          1002a022 f   oleaut32:OLEAUT32.dll
 0001:00029028       _SysAllocStringLen@8       1002a028 f   oleaut32:OLEAUT32.dll
 0001:0002902e       _SysFreeString@4           1002a02e f   oleaut32:OLEAUT32.dll
 0001:00029034       _SysStringLen@4            1002a034 f   oleaut32:OLEAUT32.dll
 0001:0002903a       _VariantClear@4            1002a03a f   oleaut32:OLEAUT32.dll
 0001:00029040       _VariantCopyInd@8          1002a040 f   oleaut32:OLEAUT32.dll
 0001:00029046       _VariantChangeType@16      1002a046 f   oleaut32:OLEAUT32.dll
 0001:0002904c       _SysStringByteLen@4        1002a04c f   oleaut32:OLEAUT32.dll
 0001:00029052       _SysAllocStringByteLen@8   1002a052 f   oleaut32:OLEAUT32.dll
 0001:00029058       _VariantInit@4             1002a058 f   oleaut32:OLEAUT32.dll
 0001:0002905e       _VarUI4FromStr@16          1002a05e f   oleaut32:OLEAUT32.dll
 0001:00029064       _LoadTypeLib@8             1002a064 f   oleaut32:OLEAUT32.dll
 0001:0002906a       _LoadRegTypeLib@20         1002a06a f   oleaut32:OLEAUT32.dll
 0001:00029070       _RegisterTypeLib@12        1002a070 f   oleaut32:OLEAUT32.dll
 0001:00029076       _UnRegisterTypeLib@20      1002a076 f   oleaut32:OLEAUT32.dll
 0001:0002907c       _OleCreatePropertyFrame@44 1002a07c f   oleaut32:OLEAUT32.dll
 0001:00029090       @_RTC_AllocaHelper@12      1002a090 f   LIBCMTD:stack.obj
 0001:000290d0       @_RTC_CheckStackVars2@12   1002a0d0 f   LIBCMTD:stack.obj
 0001:000291b0       @_RTC_CheckStackVars@8     1002a1b0 f   LIBCMTD:stack.obj
 0001:00029210       __RTC_CheckEsp             1002a210 f   LIBCMTD:stack.obj
 0001:00029250       @__security_check_cookie@4 1002a250 f   LIBCMTD:secchk.obj
 0001:00029270       __CRT_RTC_INIT             1002a270 f   LIBCMTD:init.obj
 0001:00029280       __CRT_RTC_INITW            1002a280 f   LIBCMTD:init.obj
 0001:00029290       __RTC_InitBase             1002a290 f   LIBCMTD:init.obj
 0001:000292c0       __RTC_Shutdown             1002a2c0 f   LIBCMTD:init.obj
 0001:000292e0       ??_U@YAPAXI@Z              1002a2e0 f   LIBCMTD:new_array.obj
 0001:00029300       ??3@YAXPAXI@Z              1002a300 f   LIBCMTD:delete_scalar_size.obj
 0001:00029320       ??_V@YAXPAX@Z              1002a320 f   LIBCMTD:delete_array.obj
 0001:00029340       ??_V@YAXPAXI@Z             1002a340 f   LIBCMTD:delete_array_size.obj
 0001:00029360       ?configure_argv@__scrt_narrow_argv_policy@@SAHXZ 1002a360 f i LIBCMTD:utility.obj
 0001:00029410       ?initialize_environment@__scrt_narrow_environment_policy@@SAHXZ 1002a410 f i LIBCMTD:utility.obj
 0001:00029490       _NtCurrentTeb              1002a490 f i LIBCMTD:utility.obj
 0001:000294a0       ___scrt_acquire_startup_lock 1002a4a0 f   LIBCMTD:utility.obj
 0001:000294f0       ___scrt_dllmain_after_initialize_c 1002a4f0 f   LIBCMTD:utility.obj
 0001:00029520       ___scrt_dllmain_before_initialize_c 1002a520 f   LIBCMTD:utility.obj
 0001:00029540       ___scrt_dllmain_crt_thread_attach 1002a540 f   LIBCMTD:utility.obj
 0001:00029570       ___scrt_dllmain_crt_thread_detach 1002a570 f   LIBCMTD:utility.obj
 0001:00029590       ___scrt_dllmain_exception_filter 1002a590 f   LIBCMTD:utility.obj
 0001:000295e0       ___scrt_dllmain_uninitialize_c 1002a5e0 f   LIBCMTD:utility.obj
 0001:00029610       ___scrt_dllmain_uninitialize_critical 1002a610 f   LIBCMTD:utility.obj
 0001:00029630       ___scrt_initialize_crt     1002a630 f   LIBCMTD:utility.obj
 0001:00029680       ___scrt_initialize_onexit_tables 1002a680 f   LIBCMTD:utility.obj
 0001:00029760       ___scrt_is_nonwritable_in_current_image 1002a760 f   LIBCMTD:utility.obj
 0001:00029890       ___scrt_release_startup_lock 1002a890 f   LIBCMTD:utility.obj
 0001:000298c0       ___scrt_uninitialize_crt   1002a8c0 f   LIBCMTD:utility.obj
 0001:00029900       __onexit                   1002a900 f   LIBCMTD:utility.obj
 0001:00029970       _at_quick_exit             1002a970 f   LIBCMTD:utility.obj
 0001:000299b0       _atexit                    1002a9b0 f   LIBCMTD:utility.obj
 0001:000299e0       ??3@YAXPAX@Z               1002a9e0 f   LIBCMTD:delete_scalar.obj
 0001:00029a00       ___raise_securityfailure   1002aa00 f   LIBCMTD:gs_report.obj
 0001:00029a30       ___report_gsfailure        1002aa30 f   LIBCMTD:gs_report.obj
 0001:00029b40       ___report_rangecheckfailure 1002ab40 f   LIBCMTD:gs_report.obj
 0001:00029b50       ___report_securityfailure  1002ab50 f   LIBCMTD:gs_report.obj
 0001:00029c30       ___report_securityfailureEx 1002ac30 f   LIBCMTD:gs_report.obj
 0001:00029e80       __Init_thread_abort        1002ae80 f   LIBCMTD:thread_safe_statics.obj
 0001:00029ea0       __Init_thread_footer       1002aea0 f   LIBCMTD:thread_safe_statics.obj
 0001:00029ef0       __Init_thread_header       1002aef0 f   LIBCMTD:thread_safe_statics.obj
 0001:00029f60       __Init_thread_lock         1002af60 f   LIBCMTD:thread_safe_statics.obj
 0001:00029f70       __Init_thread_notify       1002af70 f   LIBCMTD:thread_safe_statics.obj
 0001:00029fc0       __Init_thread_unlock       1002afc0 f   LIBCMTD:thread_safe_statics.obj
 0001:00029fd0       __Init_thread_wait         1002afd0 f   LIBCMTD:thread_safe_statics.obj
 0001:0002a060       ??2@YAPAXIABUnothrow_t@std@@@Z 1002b060 f   LIBCMTD:new_scalar_nothrow.obj
 0001:0002a0f0       ??_U@YAPAXIABUnothrow_t@std@@@Z 1002b0f0 f   LIBCMTD:new_array_nothrow.obj
 0001:0002a110       __allmul                   1002b110 f   LIBCMTD:llmul.obj
 0001:0002a150       __alloca_probe_16          1002b150 f   LIBCMTD:alloca16.obj
 0001:0002a166       __alloca_probe_8           1002b166     LIBCMTD:alloca16.obj
 0001:0002a180       __chkstk                   1002b180 f   LIBCMTD:chkstk.obj
 0001:0002a180       __alloca_probe             1002b180 f   LIBCMTD:chkstk.obj
 0001:0002a680       __CRT_INIT@12              1002b680 f   LIBCMTD:dll_dllmain.obj
 0001:0002a6a0       __DllMainCRTStartup@12     1002b6a0 f   LIBCMTD:dll_dllmain.obj
 0001:0002a760       ?_RTC_AllocaFailure@@YAXPAXPAU_RTC_ALLOCA_NODE@@H@Z 1002b760 f   LIBCMTD:error.obj
 0001:0002a850       ?_RTC_Failure@@YAXPAXH@Z   1002b850 f   LIBCMTD:error.obj
 0001:0002a8a0       ?_RTC_StackFailure@@YAXPAXPBD@Z 1002b8a0 f   LIBCMTD:error.obj
 0001:0002ac60       __RTC_UninitUse            1002bc60 f   LIBCMTD:error.obj
 0001:0002ad10       __vsprintf_s_l             1002bd10 f i LIBCMTD:error.obj
 0001:0002ad40       _sprintf_s                 1002bd40 f i LIBCMTD:error.obj
 0001:0002ad60       ?_RTC_GetErrorFunc@@YAP6AHHPBDH00ZZPBX@Z 1002bd60 f   LIBCMTD:userapi.obj
 0001:0002ad70       ?_RTC_GetErrorFuncW@@YAP6AHHPB_WH00ZZPBX@Z 1002bd70 f   LIBCMTD:userapi.obj
 0001:0002ad80       __RTC_GetErrDesc           1002bd80 f   LIBCMTD:userapi.obj
 0001:0002ada0       __RTC_NumErrors            1002bda0 f   LIBCMTD:userapi.obj
 0001:0002adb0       __RTC_SetErrorFunc         1002bdb0 f   LIBCMTD:userapi.obj
 0001:0002add0       __RTC_SetErrorFuncW        1002bdd0 f   LIBCMTD:userapi.obj
 0001:0002adf0       __RTC_SetErrorType         1002bdf0 f   LIBCMTD:userapi.obj
 0001:0002ae20       ??2@YAPAXI@Z               1002be20 f   LIBCMTD:new_scalar.obj
 0001:0002ae70       ___isa_available_init      1002be70 f   LIBCMTD:cpu_disp.obj
 0001:0002b1b0       __get_startup_argv_mode    1002c1b0 f   LIBCMTD:argv_mode.obj
 0001:0002b1c0       ___scrt_is_ucrt_dll_in_use 1002c1c0 f   LIBCMTD:ucrt_detection.obj
 0001:0002b1f0       ___scrt_fastfail           1002c1f0 f   LIBCMTD:utility_desktop.obj
 0001:0002b330       ___scrt_get_show_window_mode 1002c330 f   LIBCMTD:utility_desktop.obj
 0001:0002b370       ___scrt_initialize_mta     1002c370 f   LIBCMTD:utility_desktop.obj
 0001:0002b380       ___scrt_initialize_winrt   1002c380 f   LIBCMTD:utility_desktop.obj
 0001:0002b390       ___scrt_is_managed_app     1002c390 f   LIBCMTD:utility_desktop.obj
 0001:0002b420       ___scrt_set_unhandled_exception_filter 1002c420 f   LIBCMTD:utility_desktop.obj
 0001:0002b430       ___scrt_exe_initialize_mta 1002c430 f   LIBCMTD:utility_desktop.obj
 0001:0002b430       ___scrt_stub_for_initialize_mta 1002c430 f   LIBCMTD:utility_desktop.obj
 0001:0002b440       ___scrt_unhandled_exception_filter@4 1002c440 f   LIBCMTD:utility_desktop.obj
 0001:0002b4c0       __crt_debugger_hook        1002c4c0 f   LIBCMTD:utility_desktop.obj
 0001:0002b4d0       @_guard_check_icall_nop@4  1002c4d0 f i LIBCMTD:guard_support.obj
 0001:0002b4e0       _ReadNoFence               1002c4e0 f i LIBCMTD:guard_support.obj
 0001:0002b500       _ReadPointerNoFence        1002c500 f i LIBCMTD:guard_support.obj
 0001:0002b520       ___castguard_check_failure_debugbreak 1002c520 f i LIBCMTD:guard_support.obj
 0001:0002b540       ___castguard_check_failure_fastfail 1002c540 f i LIBCMTD:guard_support.obj
 0001:0002b560       ___castguard_check_failure_nop 1002c560 f i LIBCMTD:guard_support.obj
 0001:0002b570       ___castguard_check_failure_os_handled 1002c570 f i LIBCMTD:guard_support.obj
 0001:0002b5f0       ___castguard_slow_path_check_debugbreak 1002c5f0 f i LIBCMTD:guard_support.obj
 0001:0002b620       ___castguard_slow_path_check_fastfail 1002c620 f i LIBCMTD:guard_support.obj
 0001:0002b660       ___castguard_slow_path_check_nop 1002c660 f i LIBCMTD:guard_support.obj
 0001:0002b670       ___castguard_slow_path_check_os_handled 1002c670 f i LIBCMTD:guard_support.obj
 0001:0002b710       __guard_icall_checks_enforced 1002c710 f i LIBCMTD:guard_support.obj
 0001:0002b7b0       ___security_init_cookie    1002c7b0 f   LIBCMTD:gs_support.obj
 0001:0002b830       ?__scrt_initialize_type_info@@YAXXZ 1002c830 f   LIBCMTD:tncleanup.obj
 0001:0002b840       ?__scrt_uninitialize_type_info@@YAXXZ 1002c840 f   LIBCMTD:tncleanup.obj
 0001:0002b860       ___local_stdio_scanf_options 1002c860 f i LIBCMTD:default_local_stdio_options.obj
 0001:0002b870       ___scrt_initialize_default_local_stdio_options 1002c870 f   LIBCMTD:default_local_stdio_options.obj
 0001:0002b8b0       ___scrt_get_dyn_tls_init_callback 1002c8b0 f   LIBCMTD:dyn_tls_init.obj
 0001:0002b8c0       __RTC_Initialize           1002c8c0 f   LIBCMTD:initsect.obj
 0001:0002b8f0       __RTC_Terminate            1002c8f0 f   LIBCMTD:initsect.obj
 0001:0002bda0       ?_RTC_GetSrcLine@@YAHPAEPA_WKPAH1K@Z 1002cda0 f   LIBCMTD:pdblkup.obj
 0001:0002c120       __except_handler4_noexcept 1002d120 f   LIBCMTD:chandler4_noexcept.obj
 0001:0002c180       ??0bad_alloc@std@@AAE@QBD@Z 1002d180 f i LIBCMTD:throw_bad_alloc.obj
 0001:0002c1b0       ??0bad_alloc@std@@QAE@ABV01@@Z 1002d1b0 f i LIBCMTD:throw_bad_alloc.obj
 0001:0002c1e0       ??0bad_alloc@std@@QAE@XZ   1002d1e0 f i LIBCMTD:throw_bad_alloc.obj
 0001:0002c210       ??0bad_array_new_length@std@@QAE@ABV01@@Z 1002d210 f i LIBCMTD:throw_bad_alloc.obj
 0001:0002c240       ??0bad_array_new_length@std@@QAE@XZ 1002d240 f i LIBCMTD:throw_bad_alloc.obj
 0001:0002c270       ??0exception@std@@QAE@ABV01@@Z 1002d270 f i LIBCMTD:throw_bad_alloc.obj
 0001:0002c2b0       ??0exception@std@@QAE@QBDH@Z 1002d2b0 f i LIBCMTD:throw_bad_alloc.obj
 0001:0002c2e0       ??1bad_alloc@std@@UAE@XZ   1002d2e0 f i LIBCMTD:throw_bad_alloc.obj
 0001:0002c300       ??1bad_array_new_length@std@@UAE@XZ 1002d300 f i LIBCMTD:throw_bad_alloc.obj
 0001:0002c320       ??1exception@std@@UAE@XZ   1002d320 f i LIBCMTD:throw_bad_alloc.obj
 0001:0002c350       ??_Ebad_alloc@std@@UAEPAXI@Z 1002d350 f i LIBCMTD:throw_bad_alloc.obj
 0001:0002c350       ??_Gbad_alloc@std@@UAEPAXI@Z 1002d350 f i LIBCMTD:throw_bad_alloc.obj
 0001:0002c380       ??_Gbad_array_new_length@std@@UAEPAXI@Z 1002d380 f i LIBCMTD:throw_bad_alloc.obj
 0001:0002c380       ??_Ebad_array_new_length@std@@UAEPAXI@Z 1002d380 f i LIBCMTD:throw_bad_alloc.obj
 0001:0002c3b0       ??_Eexception@std@@UAEPAXI@Z 1002d3b0 f i LIBCMTD:throw_bad_alloc.obj
 0001:0002c3b0       ??_Gexception@std@@UAEPAXI@Z 1002d3b0 f i LIBCMTD:throw_bad_alloc.obj
 0001:0002c3e0       ?__scrt_throw_std_bad_alloc@@YAXXZ 1002d3e0 f   LIBCMTD:throw_bad_alloc.obj
 0001:0002c400       ?__scrt_throw_std_bad_array_new_length@@YAXXZ 1002d400 f   LIBCMTD:throw_bad_alloc.obj
 0001:0002c420       ?what@exception@std@@UBEPBDXZ 1002d420 f i LIBCMTD:throw_bad_alloc.obj
 0001:0002c450       ??1type_info@@UAE@XZ       1002d450 f   LIBCMTD:std_type_info_static.obj
 0001:0002c470       ??_Etype_info@@UAEPAXI@Z   1002d470 f i LIBCMTD:std_type_info_static.obj
 0001:0002c470       ??_Gtype_info@@UAEPAXI@Z   1002d470 f i LIBCMTD:std_type_info_static.obj
 0001:0002c49e       ??$?2PAUHINSTANCE__@@@Wrapper@?$CSimpleArray@PAUHINSTANCE__@@V?$CSimpleArrayEqualHelper@PAUHINSTANCE__@@@ATL@@@ATL@@SAPAXIPAPAUHINSTANCE__@@@Z 1002d49e f i atls:atlbase.obj
 0001:0002c4a6       ??0?$CSimpleArray@PAUHINSTANCE__@@V?$CSimpleArrayEqualHelper@PAUHINSTANCE__@@@ATL@@@ATL@@QAE@XZ 1002d4a6 f i atls:atlbase.obj
 0001:0002c4b3       ??0CAtlBaseModule@ATL@@QAE@XZ 1002d4b3 f   atls:atlbase.obj
 0001:0002c506       ??0Wrapper@?$CSimpleArray@PAUHINSTANCE__@@V?$CSimpleArrayEqualHelper@PAUHINSTANCE__@@@ATL@@@ATL@@QAE@ABQAUHINSTANCE__@@@Z 1002d506 f i atls:atlbase.obj
 0001:0002c516       ??0_ATL_BASE_MODULE70@ATL@@QAE@XZ 1002d516 f i atls:atlbase.obj
 0001:0002c539       ??1?$CSimpleArray@PAUHINSTANCE__@@V?$CSimpleArrayEqualHelper@PAUHINSTANCE__@@@ATL@@@ATL@@QAE@XZ 1002d539 f i atls:atlbase.obj
 0001:0002c53e       ??1CAtlBaseModule@ATL@@QAE@XZ 1002d53e f   atls:atlbase.obj
 0001:0002c554       ??1_ATL_BASE_MODULE70@ATL@@QAE@XZ 1002d554 f i atls:atlbase.obj
 0001:0002c55c       ??A?$CSimpleArray@PAUHINSTANCE__@@V?$CSimpleArrayEqualHelper@PAUHINSTANCE__@@@ATL@@@ATL@@QAEAAPAUHINSTANCE__@@H@Z 1002d55c f i atls:atlbase.obj
 0001:0002c581       ?Add@?$CSimpleArray@PAUHINSTANCE__@@V?$CSimpleArrayEqualHelper@PAUHINSTANCE__@@@ATL@@@ATL@@QAEHABQAUHINSTANCE__@@@Z 1002d581 f i atls:atlbase.obj
 0001:0002c603       ?AddResourceInstance@CAtlBaseModule@ATL@@QAE_NPAUHINSTANCE__@@@Z 1002d603 f   atls:atlbase.obj
 0001:0002c636       ?GetHInstanceAt@CAtlBaseModule@ATL@@QAEPAUHINSTANCE__@@H@Z 1002d636 f   atls:atlbase.obj
 0001:0002c67b       ?GetSize@?$CSimpleArray@PAUHINSTANCE__@@V?$CSimpleArrayEqualHelper@PAUHINSTANCE__@@@ATL@@@ATL@@QBEHXZ 1002d67b f i atls:atlbase.obj
 0001:0002c67f       ?InternalSetAtIndex@?$CSimpleArray@PAUHINSTANCE__@@V?$CSimpleArrayEqualHelper@PAUHINSTANCE__@@@ATL@@@ATL@@QAEXHABQAUHINSTANCE__@@@Z 1002d67f f i atls:atlbase.obj
 0001:0002c699       ?RemoveAll@?$CSimpleArray@PAUHINSTANCE__@@V?$CSimpleArrayEqualHelper@PAUHINSTANCE__@@@ATL@@@ATL@@QAEXXZ 1002d699 f i atls:atlbase.obj
 0001:0002c6b6       ?RemoveAt@?$CSimpleArray@PAUHINSTANCE__@@V?$CSimpleArrayEqualHelper@PAUHINSTANCE__@@@ATL@@@ATL@@QAEHH@Z 1002d6b6 f i atls:atlbase.obj
 0001:0002c704       ?RemoveResourceInstance@CAtlBaseModule@ATL@@QAE_NPAUHINSTANCE__@@@Z 1002d704 f   atls:atlbase.obj
 0001:0002c761       ?memmove_s@Checked@ATL@@YAXPAXIPBXI@Z 1002d761 f i atls:atlbase.obj
 0001:0002cabe       ?GetCodeAddress@_stdcallthunk@ATL@@QAEPAXXZ 1002dabe f i atls:atlthunk.obj
 0001:0002cae8       ?Init@_stdcallthunk@ATL@@QAEHKPAX@Z 1002dae8 f i atls:atlthunk.obj
 0001:0002cb1d       ?__AllocStdCallThunk@@YGPAXXZ 1002db1d f   atls:atlthunk.obj
 0001:0002cb22       ?__AllocStdCallThunk@ATL@@YGPAXXZ 1002db22 f   atls:atlthunk.obj
 0001:0002cb27       ?__AllocStdCallThunk_cmn@@YAPAXXZ 1002db27 f   atls:atlthunk.obj
 0001:0002cbed       ?__FreeStdCallThunk@@YGXPAX@Z 1002dbed f   atls:atlthunk.obj
 0001:0002cbfd       ?__FreeStdCallThunk@ATL@@YGXPAX@Z 1002dbfd f   atls:atlthunk.obj
 0001:0002cc0d       ?__FreeStdCallThunk_cmn@@YAXPAX@Z 1002dc0d f   atls:atlthunk.obj
 0001:0002cca8       _AtlThunk_AllocateData@0   1002dca8 f   atls:atlthunk.obj
 0001:0002cd0d       _AtlThunk_DataToCode@4     1002dd0d f   atls:atlthunk.obj
 0001:0002cd54       _AtlThunk_FreeData@4       1002dd54 f   atls:atlthunk.obj
 0001:0002cdaa       _AtlThunk_InitData@12      1002ddaa f   atls:atlthunk.obj
 0001:0002cdf9       _MemoryBarrier             1002ddf9 f i atls:atlthunk.obj
 0001:0002ce07       __InlineInterlockedCompareExchangePointer 1002de07 f i atls:atlthunk.obj
 0001:0002ce20       _memset                    1002de20 f   libvcruntimed:memset.obj
 0001:0002cf80       ??$__crt_interlocked_exchange_pointer@$$A6AXXZP6AXXZ@@YAP6AXXZPDS6AXXZQ6AXXZ@Z 1002df80 f i libvcruntimed:purevirt.obj
 0001:0002cf90       ??$__crt_interlocked_read_pointer@$$A6AXXZ@@YAP6AXXZPDS6AXXZ@Z 1002df90 f i libvcruntimed:purevirt.obj
 0001:0002cfb0       ?__crt_interlocked_read_32@@YAHPDH@Z 1002dfb0 f i libvcruntimed:purevirt.obj
 0001:0002cfd0       __get_purecall_handler     1002dfd0 f   libvcruntimed:purevirt.obj
 0001:0002cff0       __purecall                 1002dff0 f   libvcruntimed:purevirt.obj
 0001:0002d020       __set_purecall_handler     1002e020 f   libvcruntimed:purevirt.obj
 0001:0002d1f0       _memcmp                    1002e1f0 f   libvcruntimed:memcmp.obj
 0001:0002dac0       _memcpy                    1002eac0 f   libvcruntimed:memcpy.obj
 0001:0002e040       _wcsstr                    1002f040 f   libvcruntimed:wcsstr.obj
 0001:0002e570       __except_handler4          1002f570 f   libvcruntimed:chandler4.obj
 0001:0002e760       ___vcrt_initialize         1002f760 f   libvcruntimed:initialization.obj
 0001:0002e7a0       ___vcrt_thread_attach      1002f7a0 f   libvcruntimed:initialization.obj
 0001:0002e7c0       ___vcrt_thread_detach      1002f7c0 f   libvcruntimed:initialization.obj
 0001:0002e7e0       ___vcrt_uninitialize       1002f7e0 f   libvcruntimed:initialization.obj
 0001:0002e800       ___vcrt_uninitialize_critical 1002f800 f   libvcruntimed:initialization.obj
 0001:0002e820       ??$?0AAViterator@TryBlockMap@__FrameHandler3@@AAV012@$0A@@?$pair@Viterator@TryBlockMap@__FrameHandler3@@V123@@std@@QAE@AAViterator@TryBlockMap@__FrameHandler3@@0@Z 1002f820 f i libvcruntimed:trnsctrl.obj
 0001:0002e870       ??$forward@AAViterator@TryBlockMap@__FrameHandler3@@@std@@YAAAViterator@TryBlockMap@__FrameHandler3@@AAV123@@Z 1002f870 f i libvcruntimed:trnsctrl.obj
 0001:0002e880       ??0iterator@TryBlockMap@__FrameHandler3@@QAE@AAV12@I@Z 1002f880 f i libvcruntimed:trnsctrl.obj
 0001:0002e8b0       ?GetRangeOfTrysToCheck@__FrameHandler3@@SA?AU?$pair@Viterator@TryBlockMap@__FrameHandler3@@V123@@std@@AAVTryBlockMap@1@HPAXPBU_s_FuncInfo@@H@Z 1002f8b0 f   libvcruntimed:trnsctrl.obj
 0001:0002e990       ?_CallCatchBlock2@@YAPAXPAUEHRegistrationNode@@PBU_s_FuncInfo@@PAXHK@Z 1002f990 f   libvcruntimed:trnsctrl.obj
 0001:0002ea00       ?_CallSETranslator@@YAHPAUEHExceptionRecord@@PAUEHRegistrationNode@@PAX2PBU_s_FuncInfo@@H1@Z 1002fa00 f   libvcruntimed:trnsctrl.obj
 0001:0002eb00       ?_JumpToContinuation@@YGXPAXPAUEHRegistrationNode@@@Z 1002fb00 f   libvcruntimed:trnsctrl.obj
 0001:0002eb40       ?_UnwindNestedFrames@@YGXPAUEHRegistrationNode@@PAUEHExceptionRecord@@@Z 1002fb40 f   libvcruntimed:trnsctrl.obj
 0001:0002eba0       __CatchGuardHandler        1002fba0 f   libvcruntimed:trnsctrl.obj
 0001:0002ebf0       __CreateFrameInfo          1002fbf0 f   libvcruntimed:trnsctrl.obj
 0001:0002ec20       __FindAndUnlinkFrame       1002fc20 f   libvcruntimed:trnsctrl.obj
 0001:0002ec90       __TranslatorGuardHandler   1002fc90 f   libvcruntimed:trnsctrl.obj
 0001:0002ed40       ___CxxFrameHandler         1002fd40 f   libvcruntimed:trnsctrl.obj
 0001:0002ed80       ___CxxFrameHandler2        1002fd80 f   libvcruntimed:trnsctrl.obj
 0001:0002edc0       ___CxxFrameHandler3        1002fdc0 f   libvcruntimed:trnsctrl.obj
 0001:0002ee00       ___CxxLongjmpUnwind@4      1002fe00 f   libvcruntimed:trnsctrl.obj
 0001:0002ee40       ___DestructExceptionObject 1002fe40 f   libvcruntimed:ehhelpers.obj
 0001:0002ef60       ?_CallMemberFunction0@@YGXQAX0@Z 1002ff60 f i libvcruntimed:ehhelpers.obj
 0001:0002f000       ?raw_name@type_info@@QBEPBDXZ 10030000 f i libvcruntimed:ehhelpers.obj
 0001:0002f020       __IsExceptionObjectToBeDestroyed 10030020 f   libvcruntimed:ehhelpers.obj
 0001:0002f060       __SetWinRTOutOfMemoryExceptionCallback 10030060 f   libvcruntimed:ehhelpers.obj
 0001:0002f070       ___AdjustPointer           10030070 f   libvcruntimed:ehhelpers.obj
 0001:0002f0c0       ___FrameUnwindFilter       100300c0 f   libvcruntimed:ehhelpers.obj
 0001:0002f150       ___GetPlatformExceptionInfo 10030150 f   libvcruntimed:ehhelpers.obj
 0001:0002f1d0       ___current_exception       100301d0 f   libvcruntimed:ehhelpers.obj
 0001:0002f1e0       ___current_exception_context 100301e0 f   libvcruntimed:ehhelpers.obj
 0001:0002f1f0       ___processing_throw        100301f0 f   libvcruntimed:ehhelpers.obj
 0001:0002f200       ___std_terminate           10030200 f   libvcruntimed:ehhelpers.obj
 0001:0002f210       __is_exception_typeof      10030210 f   libvcruntimed:ehhelpers.obj
 0001:0002f310       ??$?RD@__crt_internal_free_policy@@QBEXQBD@Z 10030310 f i libvcruntimed:std_type_info.obj
 0001:0002f330       ??$?RX@__crt_internal_free_policy@@QBEXQBX@Z 10030330 f i libvcruntimed:std_type_info.obj
 0001:0002f350       ??$__crt_interlocked_compare_exchange_pointer@$$CBDPAD$$T@@YAPBDPDSBDQAD$$T@Z 10030350 f i libvcruntimed:std_type_info.obj
 0001:0002f370       ??$__crt_interlocked_read_pointer@$$CBD@@YAPBDPDSBD@Z 10030370 f i libvcruntimed:std_type_info.obj
 0001:0002f390       ??0?$__crt_unique_heap_ptr@DU__crt_internal_free_policy@@@@QAE@QAD@Z 10030390 f i libvcruntimed:std_type_info.obj
 0001:0002f3b0       ??0?$__crt_unique_heap_ptr@XU__crt_internal_free_policy@@@@QAE@QAX@Z 100303b0 f i libvcruntimed:std_type_info.obj
 0001:0002f3d0       ??1?$__crt_unique_heap_ptr@DU__crt_internal_free_policy@@@@QAE@XZ 100303d0 f i libvcruntimed:std_type_info.obj
 0001:0002f3f0       ??1?$__crt_unique_heap_ptr@XU__crt_internal_free_policy@@@@QAE@XZ 100303f0 f i libvcruntimed:std_type_info.obj
 0001:0002f410       ??B?$__crt_unique_heap_ptr@DU__crt_internal_free_policy@@@@QBE_NXZ 10030410 f i libvcruntimed:std_type_info.obj
 0001:0002f430       ??B?$__crt_unique_heap_ptr@XU__crt_internal_free_policy@@@@QBE_NXZ 10030430 f i libvcruntimed:std_type_info.obj
 0001:0002f4c0       ?detach@?$__crt_unique_heap_ptr@XU__crt_internal_free_policy@@@@QAEPAXXZ 100304c0 f i libvcruntimed:std_type_info.obj
 0001:0002f4f0       ?get@?$__crt_unique_heap_ptr@DU__crt_internal_free_policy@@@@QBEPADXZ 100304f0 f i libvcruntimed:std_type_info.obj
 0001:0002f500       ?get@?$__crt_unique_heap_ptr@XU__crt_internal_free_policy@@@@QBEPAXXZ 10030500 f i libvcruntimed:std_type_info.obj
 0001:0002f510       ?is_valid@?$__crt_unique_heap_ptr@DU__crt_internal_free_policy@@@@QBE_NXZ 10030510 f i libvcruntimed:std_type_info.obj
 0001:0002f540       ?is_valid@?$__crt_unique_heap_ptr@XU__crt_internal_free_policy@@@@QBE_NXZ 10030540 f i libvcruntimed:std_type_info.obj
 0001:0002f570       ?release@?$__crt_unique_heap_ptr@DU__crt_internal_free_policy@@@@QAEXXZ 10030570 f i libvcruntimed:std_type_info.obj
 0001:0002f5a0       ?release@?$__crt_unique_heap_ptr@XU__crt_internal_free_policy@@@@QAEXXZ 100305a0 f i libvcruntimed:std_type_info.obj
 0001:0002f5d0       ___std_type_info_compare   100305d0 f   libvcruntimed:std_type_info.obj
 0001:0002f600       ___std_type_info_destroy_list 10030600 f   libvcruntimed:std_type_info.obj
 0001:0002f640       ___std_type_info_hash      10030640 f   libvcruntimed:std_type_info.obj
 0001:0002f6a0       ___std_type_info_name      100306a0 f   libvcruntimed:std_type_info.obj
 0001:0002f880       ___vcrt_GetModuleFileNameW 10030880 f   libvcruntimed:winapi_thunks.obj
 0001:0002f8a0       ___vcrt_GetModuleHandleW   100308a0 f   libvcruntimed:winapi_thunks.obj
 0001:0002f8b0       ___vcrt_LoadLibraryExW     100308b0 f   libvcruntimed:winapi_thunks.obj
 0001:0002f8d0       ??$?RD@__crt_public_free_policy@@QBEXQBD@Z 100308d0 f i libvcruntimed:std_exception.obj
 0001:0002f8f0       ??0?$__crt_unique_heap_ptr@DU__crt_public_free_policy@@@@QAE@QAD@Z 100308f0 f i libvcruntimed:std_exception.obj
 0001:0002f910       ??1?$__crt_unique_heap_ptr@DU__crt_public_free_policy@@@@QAE@XZ 10030910 f i libvcruntimed:std_exception.obj
 0001:0002f930       ??B?$__crt_unique_heap_ptr@DU__crt_public_free_policy@@@@QBE_NXZ 10030930 f i libvcruntimed:std_exception.obj
 0001:0002f950       ?detach@?$__crt_unique_heap_ptr@DU__crt_public_free_policy@@@@QAEPADXZ 10030950 f i libvcruntimed:std_exception.obj
 0001:0002f980       ?get@?$__crt_unique_heap_ptr@DU__crt_public_free_policy@@@@QBEPADXZ 10030980 f i libvcruntimed:std_exception.obj
 0001:0002f990       ?is_valid@?$__crt_unique_heap_ptr@DU__crt_public_free_policy@@@@QBE_NXZ 10030990 f i libvcruntimed:std_exception.obj
 0001:0002f9c0       ?release@?$__crt_unique_heap_ptr@DU__crt_public_free_policy@@@@QAEXXZ 100309c0 f i libvcruntimed:std_exception.obj
 0001:0002f9f0       ___std_exception_copy      100309f0 f   libvcruntimed:std_exception.obj
 0001:0002fae0       ___std_exception_destroy   10030ae0 f   libvcruntimed:std_exception.obj
 0001:0002fb10       __CxxThrowException@8      10030b10 f   libvcruntimed:throw.obj
 0001:0002fbc0       _memmove                   10030bc0 f   libvcruntimed:memmove.obj
 0001:00030140       __local_unwind4            10031140 f   libvcruntimed:exsup4.obj
 0001:00030214       __seh_longjmp_unwind4@4    10031214 f   libvcruntimed:exsup4.obj
 0001:0003023c       @_EH4_CallFilterFunc@8     1003123c f   libvcruntimed:exsup4.obj
 0001:00030254       @_EH4_TransferToHandler@8  10031254 f   libvcruntimed:exsup4.obj
 0001:00030270       @_EH4_GlobalUnwind2@8      10031270 f   libvcruntimed:exsup4.obj
 0001:0003028c       @_EH4_LocalUnwind@16       1003128c f   libvcruntimed:exsup4.obj
 0001:000302c0       ___except_validate_context_record 100312c0 f   libvcruntimed:jbcxrval.obj
 0001:00030310       ___except_validate_jump_buffer 10031310 f   libvcruntimed:jbcxrval.obj
 0001:00030330       ___except_validate_jump_buffer_common 10031330 f i libvcruntimed:jbcxrval.obj
 0001:00030390       ??$?RU__vcrt_ptd@@@__crt_internal_free_policy@@QBEXQBU__vcrt_ptd@@@Z 10031390 f i libvcruntimed:per_thread_data.obj
 0001:000303b0       ??0?$__crt_unique_heap_ptr@U__vcrt_ptd@@U__crt_internal_free_policy@@@@QAE@QAU__vcrt_ptd@@@Z 100313b0 f i libvcruntimed:per_thread_data.obj
 0001:000303f0       ??1?$__crt_unique_heap_ptr@U__vcrt_ptd@@U__crt_internal_free_policy@@@@QAE@XZ 100313f0 f i libvcruntimed:per_thread_data.obj
 0001:00030430       ??B?$__crt_unique_heap_ptr@U__vcrt_ptd@@U__crt_internal_free_policy@@@@QBE_NXZ 10031430 f i libvcruntimed:per_thread_data.obj
 0001:00030450       ?detach@?$__crt_unique_heap_ptr@U__vcrt_ptd@@U__crt_internal_free_policy@@@@QAEPAU__vcrt_ptd@@XZ 10031450 f i libvcruntimed:per_thread_data.obj
 0001:00030480       ?get@?$__crt_unique_heap_ptr@U__vcrt_ptd@@U__crt_internal_free_policy@@@@QBEPAU__vcrt_ptd@@XZ 10031480 f i libvcruntimed:per_thread_data.obj
 0001:00030490       ?is_valid@?$__crt_unique_heap_ptr@U__vcrt_ptd@@U__crt_internal_free_policy@@@@QBE_NXZ 10031490 f i libvcruntimed:per_thread_data.obj
 0001:000304c0       ?release@?$__crt_unique_heap_ptr@U__vcrt_ptd@@U__crt_internal_free_policy@@@@QAEXXZ 100314c0 f i libvcruntimed:per_thread_data.obj
 0001:00030520       ___vcrt_freefls@4          10031520 f   libvcruntimed:per_thread_data.obj
 0001:00030550       ___vcrt_freeptd            10031550 f   libvcruntimed:per_thread_data.obj
 0001:000305b0       ___vcrt_getptd             100315b0 f   libvcruntimed:per_thread_data.obj
 0001:000305d0       ___vcrt_getptd_noexit      100315d0 f   libvcruntimed:per_thread_data.obj
 0001:00030730       ___vcrt_getptd_noinit      10031730 f   libvcruntimed:per_thread_data.obj
 0001:00030790       ___vcrt_initialize_ptd     10031790 f   libvcruntimed:per_thread_data.obj
 0001:000307e0       ___vcrt_uninitialize_ptd   100317e0 f   libvcruntimed:per_thread_data.obj
 0001:00030810       ___vcrt_initialize_locks   10031810 f   libvcruntimed:locks.obj
 0001:00030870       ___vcrt_lock               10031870 f   libvcruntimed:locks.obj
 0001:00030890       ___vcrt_uninitialize_locks 10031890 f   libvcruntimed:locks.obj
 0001:000308e0       ___vcrt_unlock             100318e0 f   libvcruntimed:locks.obj
 0001:00031470       ??$TypeMatchHelper@V__FrameHandler3@@@@YAHPBU_s_HandlerType@@PBU_s_CatchableType@@PBU_s_ThrowInfo@@@Z 10032470 f i libvcruntimed:frame.obj
 0001:00031550       ??$__InternalCxxFrameHandler@V__FrameHandler3@@@@YA?AW4_EXCEPTION_DISPOSITION@@PAUEHExceptionRecord@@PAUEHRegistrationNode@@PAU_CONTEXT@@PAXPBU_s_FuncInfo@@H1E@Z 10032550 f i libvcruntimed:frame.obj
 0001:00031710       ??0HandlerMap@__FrameHandler3@@QAE@PBU_s_TryBlockMapEntry@@II@Z 10032710 f i libvcruntimed:frame.obj
 0001:00031740       ??0TryBlockMap@__FrameHandler3@@QAE@PBU_s_FuncInfo@@I@Z 10032740 f i libvcruntimed:frame.obj
 0001:00031770       ??0bad_exception@std@@QAE@ABV01@@Z 10032770 f i libvcruntimed:frame.obj
 0001:000317a0       ??0bad_exception@std@@QAE@XZ 100327a0 f i libvcruntimed:frame.obj
 0001:000317d0       ??0iterator@HandlerMap@__FrameHandler3@@QAE@AAV12@I@Z 100327d0 f i libvcruntimed:frame.obj
 0001:00031800       ??1bad_exception@std@@UAE@XZ 10032800 f i libvcruntimed:frame.obj
 0001:00031820       ??8iterator@HandlerMap@__FrameHandler3@@QBE_NABV012@@Z 10032820 f i libvcruntimed:frame.obj
 0001:00031850       ??8type_info@@QBE_NABV0@@Z 10032850 f i libvcruntimed:frame.obj
 0001:00031890       ??9iterator@HandlerMap@__FrameHandler3@@QBE_NABV012@@Z 10032890 f i libvcruntimed:frame.obj
 0001:000318d0       ??Diterator@HandlerMap@__FrameHandler3@@QAE?BU_s_HandlerType@@XZ 100328d0 f i libvcruntimed:frame.obj
 0001:00031910       ??Diterator@TryBlockMap@__FrameHandler3@@QAE?BU_s_TryBlockMapEntry@@XZ 10032910 f i libvcruntimed:frame.obj
 0001:00031960       ??Eiterator@HandlerMap@__FrameHandler3@@QAEAAV012@XZ 10032960 f i libvcruntimed:frame.obj
 0001:00031980       ??Eiterator@TryBlockMap@__FrameHandler3@@QAEAAV012@XZ 10032980 f i libvcruntimed:frame.obj
 0001:000319a0       ??Miterator@TryBlockMap@__FrameHandler3@@QBE_NABV012@@Z 100329a0 f i libvcruntimed:frame.obj
 0001:000319d0       ??_Gbad_exception@std@@UAEPAXI@Z 100329d0 f i libvcruntimed:frame.obj
 0001:000319d0       ??_Ebad_exception@std@@UAEPAXI@Z 100329d0 f i libvcruntimed:frame.obj
 0001:00031a00       ?BuildCatchObject@__FrameHandler3@@SAXPAUEHExceptionRecord@@PAXPBU_s_HandlerType@@PBU_s_CatchableType@@@Z 10032a00 f   libvcruntimed:frame.obj
 0001:00031a20       ?BuildCatchObjectHelper@__FrameHandler3@@SAHPAUEHExceptionRecord@@PAXPBU_s_HandlerType@@PBU_s_CatchableType@@@Z 10032a20 f   libvcruntimed:frame.obj
 0001:00031dc0       ?FrameUnwindToEmptyState@__FrameHandler3@@SAXPAUEHRegistrationNode@@PAXPBU_s_FuncInfo@@@Z 10032dc0 f   libvcruntimed:frame.obj
 0001:00031de0       ?FrameUnwindToState@__FrameHandler3@@SAXPAUEHRegistrationNode@@PAXPBU_s_FuncInfo@@H@Z 10032de0 f   libvcruntimed:frame.obj
 0001:00031f60       ?GetMaxState@__FrameHandler3@@SAHPAXPBU_s_FuncInfo@@@Z 10032f60 f i libvcruntimed:frame.obj
 0001:00032080       ?TypeMatch@__FrameHandler3@@SAHPBU_s_HandlerType@@PBU_s_CatchableType@@PBU_s_ThrowInfo@@@Z 10033080 f   libvcruntimed:frame.obj
 0001:000320a0       ?_CallMemberFunction1@@YGXQAX00@Z 100330a0 f i libvcruntimed:frame.obj
 0001:000320d0       ?_CallMemberFunction2@@YGXQAX00H@Z 100330d0 f i libvcruntimed:frame.obj
 0001:00032100       ?begin@HandlerMap@__FrameHandler3@@QAE?AViterator@12@XZ 10033100 f i libvcruntimed:frame.obj
 0001:00032120       ?end@HandlerMap@__FrameHandler3@@QAE?AViterator@12@XZ 10033120 f i libvcruntimed:frame.obj
 0001:00032150       ?getESTypes@__FrameHandler3@@SAPBU_s_ESTypeList@@PBU_s_FuncInfo@@@Z 10033150 f i libvcruntimed:frame.obj
 0001:00032160       ?getLastEntry@HandlerMap@__FrameHandler3@@QAEPBU_s_HandlerType@@XZ 10033160 f i libvcruntimed:frame.obj
 0001:00032180       ?getMagicNum@__FrameHandler3@@SAIPBU_s_FuncInfo@@@Z 10033180 f i libvcruntimed:frame.obj
 0001:00032190       ?getNumTryBlocks@TryBlockMap@__FrameHandler3@@QAEIXZ 10033190 f i libvcruntimed:frame.obj
 0001:000321b0       ?isEHs@__FrameHandler3@@SA_NPBU_s_FuncInfo@@@Z 100331b0 f i libvcruntimed:frame.obj
 0001:000321e0       ?isNoExcept@__FrameHandler3@@SA_NPBU_s_FuncInfo@@@Z 100331e0 f i libvcruntimed:frame.obj
 0001:00032210       ___BuildCatchObject        10033210 f   libvcruntimed:frame.obj
 0001:00032230       ___BuildCatchObjectHelper  10033230 f   libvcruntimed:frame.obj
 0001:00032250       ___TypeMatch               10033250 f   libvcruntimed:frame.obj
 0001:00032270       ___vcrt_EncodePointer      10033270 f i libvcruntimed:frame.obj
 0001:00032280       __CallSettingFrame@12      10033280 f   libvcruntimed:lowhelpr.obj
 0001:000322a7       __NLG_Return               100332a7     libvcruntimed:lowhelpr.obj
 0001:000322d0       ??$?0$00@DName@@QAE@PBDU?$StringLifeSelector@$00@@@Z 100332d0 f i libvcruntimed:undname.obj
 0001:00032320       ??$?0$00@pcharNode@@QAE@PBDHU?$StringLifeSelector@$00@@@Z 10033320 f i libvcruntimed:undname.obj
 0001:00032360       ??$?0$01@DName@@QAE@PBDU?$StringLifeSelector@$01@@@Z 10033360 f i libvcruntimed:undname.obj
 0001:000323b0       ??$?0$01@pcharNode@@QAE@PBDHU?$StringLifeSelector@$01@@@Z 100333b0 f i libvcruntimed:undname.obj
 0001:00032430       ??$?0$0A@@DName@@QAE@PBDU?$StringLifeSelector@$0A@@@@Z 10033430 f i libvcruntimed:undname.obj
 0001:00032480       ??$?0$0A@@pcharNode@@QAE@PBDHU?$StringLifeSelector@$0A@@@@Z 10033480 f i libvcruntimed:undname.obj
 0001:00032500       ??$?0_K$0A@@?$optional@_K@std@@QAE@$$QA_K@Z 10033500 f i libvcruntimed:undname.obj
 0001:00032540       ??$?0_K@?$_Optional_construct_base@_K@std@@QAE@Uin_place_t@1@$$QA_K@Z 10033540 f i libvcruntimed:undname.obj
 0001:00032570       ??$?0_K@?$_Optional_destruct_base@_K$00@std@@QAE@Uin_place_t@1@$$QA_K@Z 10033570 f i libvcruntimed:undname.obj
 0001:000325a0       ??$append@VDNameNode@@@DName@@AAEXPBVDNameNode@@@Z 100335a0 f i libvcruntimed:undname.obj
 0001:00032630       ??$append@VDNameStatusNode@@@DName@@AAEXPBVDNameStatusNode@@@Z 10033630 f i libvcruntimed:undname.obj
 0001:000326c0       ??$append@VcharNode@@@DName@@AAEXPBVcharNode@@@Z 100336c0 f i libvcruntimed:undname.obj
 0001:00032750       ??$append@VpDNameNode@@@DName@@AAEXPBVpDNameNode@@@Z 10033750 f i libvcruntimed:undname.obj
 0001:000327e0       ??$append@VpcharNode@@@DName@@AAEXPBVpcharNode@@@Z 100337e0 f i libvcruntimed:undname.obj
 0001:00032870       ??$doPchar@$00@DName@@AAEXPBDH@Z 10033870 f i libvcruntimed:undname.obj
 0001:00032980       ??$doPchar@$01@DName@@AAEXPBDH@Z 10033980 f i libvcruntimed:undname.obj
 0001:00032a90       ??$doPchar@$0A@@DName@@AAEXPBDH@Z 10033a90 f i libvcruntimed:undname.obj
 0001:00032ba0       ??$forward@_K@std@@YA$$QA_KAA_K@Z 10033ba0 f i libvcruntimed:undname.obj
 0001:00032bb0       ??$size@D$04@std@@YAIAAY04$$CBD@Z 10033bb0 f i libvcruntimed:undname.obj
 0001:00032bc0       ??$size@D$0EB@@std@@YAIAAY0EB@$$CBD@Z 10033bc0 f i libvcruntimed:undname.obj
 0001:00032bd0       ??0?$_Optional_construct_base@_K@std@@QAE@XZ 10033bd0 f i libvcruntimed:undname.obj
 0001:00032bf0       ??0?$_Optional_destruct_base@_K$00@std@@QAE@XZ 10033bf0 f i libvcruntimed:undname.obj
 0001:00032c10       ??0?$optional@_K@std@@QAE@XZ 10033c10 f i libvcruntimed:undname.obj
 0001:00032c30       ??0Block@_HeapManager@@QAE@XZ 10033c30 f i libvcruntimed:undname.obj
 0001:00032c50       ??0DName@@QAE@AAPBDD@Z     10033c50 f   libvcruntimed:undname.obj
 0001:00032dc0       ??0DName@@QAE@ABUStringLiteral@@@Z 10033dc0 f   libvcruntimed:undname.obj
 0001:00032e10       ??0DName@@QAE@ABV0@@Z      10033e10 f i libvcruntimed:undname.obj
 0001:00032e40       ??0DName@@QAE@D@Z          10033e40 f   libvcruntimed:undname.obj
 0001:00032e70       ??0DName@@QAE@PAV0@@Z      10033e70 f   libvcruntimed:undname.obj
 0001:00032f20       ??0DName@@QAE@W4DNameStatus@@@Z 10033f20 f   libvcruntimed:undname.obj
 0001:00032fc0       ??0DName@@QAE@XZ           10033fc0 f i libvcruntimed:undname.obj
 0001:00032ff0       ??0DName@@QAE@_J@Z         10033ff0 f   libvcruntimed:undname.obj
 0001:000330e0       ??0DName@@QAE@_K@Z         100340e0 f   libvcruntimed:undname.obj
 0001:00033190       ??0DNameNode@@IAE@XZ       10034190 f i libvcruntimed:undname.obj
 0001:000331b0       ??0Replicator@@QAE@XZ      100341b0 f i libvcruntimed:undname.obj
 0001:000331f0       ??0UnDecorator@@QAE@PBDP6APADJ@ZK@Z 100341f0 f i libvcruntimed:undname.obj
 0001:00033270       ??0_Nontrivial_dummy_type@std@@QAE@XZ 10034270 f i libvcruntimed:undname.obj
 0001:00033280       ??0charNode@@QAE@D@Z       10034280 f i libvcruntimed:undname.obj
 0001:000332b0       ??0pDNameNode@@QAE@PAVDName@@@Z 100342b0 f   libvcruntimed:undname.obj
 0001:00033310       ??0pairNode@@QAE@PBVDNameNode@@0@Z 10034310 f i libvcruntimed:undname.obj
 0001:00033370       ??2@YAPAXIAAV_HeapManager@@H@Z 10034370 f   libvcruntimed:undname.obj
 0001:000333b0       ??4DName@@QAEAAV0@ABUStringLiteral@@@Z 100343b0 f   libvcruntimed:undname.obj
 0001:000333f0       ??4DName@@QAEAAV0@ABV0@@Z  100343f0 f   libvcruntimed:undname.obj
 0001:00033420       ??4DName@@QAEAAV0@D@Z      10034420 f i libvcruntimed:undname.obj
 0001:00033450       ??4DName@@QAEAAV0@PAV0@@Z  10034450 f   libvcruntimed:undname.obj
 0001:000334f0       ??4DName@@QAEAAV0@W4DNameStatus@@@Z 100344f0 f   libvcruntimed:undname.obj
 0001:00033570       ??AReplicator@@QBE?AVDName@@H@Z 10034570 f   libvcruntimed:undname.obj
 0001:000335e0       ??B?$optional@_K@std@@QBE_NXZ 100345e0 f i libvcruntimed:undname.obj
 0001:00033600       ??D?$optional@_K@std@@QGAEAA_KXZ 10034600 f i libvcruntimed:undname.obj
 0001:00033610       ??H@YA?AVDName@@ABUStringLiteral@@ABV0@@Z 10034610 f i libvcruntimed:undname.obj
 0001:00033640       ??H@YA?AVDName@@DABV0@@Z   10034640 f i libvcruntimed:undname.obj
 0001:00033670       ??H@YA?AVDName@@W4DNameStatus@@ABV0@@Z 10034670 f i libvcruntimed:undname.obj
 0001:000336a0       ??HDName@@QBE?AV0@ABUStringLiteral@@@Z 100346a0 f   libvcruntimed:undname.obj
 0001:000336e0       ??HDName@@QBE?AV0@ABV0@@Z  100346e0 f   libvcruntimed:undname.obj
 0001:00033720       ??HDName@@QBE?AV0@D@Z      10034720 f   libvcruntimed:undname.obj
 0001:00033760       ??HDName@@QBE?AV0@PAV0@@Z  10034760 f   libvcruntimed:undname.obj
 0001:000337a0       ??HDName@@QBE?AV0@W4DNameStatus@@@Z 100347a0 f   libvcruntimed:undname.obj
 0001:000337e0       ??HStringLiteral@@QBE?AU0@H@Z 100347e0 f i libvcruntimed:undname.obj
 0001:00033810       ??YDName@@QAEAAV0@ABUStringLiteral@@@Z 10034810 f   libvcruntimed:undname.obj
 0001:000338b0       ??YDName@@QAEAAV0@ABV0@@Z  100348b0 f   libvcruntimed:undname.obj
 0001:00033950       ??YDName@@QAEAAV0@D@Z      10034950 f   libvcruntimed:undname.obj
 0001:000339d0       ??YDName@@QAEAAV0@PAV0@@Z  100349d0 f   libvcruntimed:undname.obj
 0001:00033a80       ??YDName@@QAEAAV0@W4DNameStatus@@@Z 10034a80 f   libvcruntimed:undname.obj
 0001:00033ae0       ??YReplicator@@QAEAAV0@ABVDName@@@Z 10034ae0 f   libvcruntimed:undname.obj
 0001:00033b70       ??_5DName@@QAEAAV0@ABV0@@Z 10034b70 f   libvcruntimed:undname.obj
 0001:00033bd0       ??__K_l@@YA?AUStringLiteral@@PBDI@Z 10034bd0 f i libvcruntimed:undname.obj
 0001:00033bf0       ?Constructor@_HeapManager@@QAEXP6APAXI@ZP6AXPAX@Z@Z 10034bf0 f i libvcruntimed:undname.obj
 0001:00033c30       ?Destructor@_HeapManager@@QAEXXZ 10034c30 f i libvcruntimed:undname.obj
 0001:00033ca0       ?UScore@UnDecorator@@SA?AUStringLiteral@@W4Tokens@@@Z 10034ca0 f   libvcruntimed:undname.obj
 0001:00033cf0       ?composeDeclaration@UnDecorator@@CA?AVDName@@ABV2@@Z 10034cf0 f i libvcruntimed:undname.obj
 0001:00035c60       ?dbGetString@DName@@QBEPADXZ 10036c60 f   libvcruntimed:undname.obj
 0001:00035c80       ?doAccessSpecifiers@UnDecorator@@SAHXZ 10036c80 f i libvcruntimed:undname.obj
 0001:00035cb0       ?doAllocationLanguage@UnDecorator@@SAHXZ 10036cb0 f i libvcruntimed:undname.obj
 0001:00035ce0       ?doAllocationModel@UnDecorator@@SAHXZ 10036ce0 f i libvcruntimed:undname.obj
 0001:00035d10       ?doEcsu@UnDecorator@@SAHXZ 10036d10 f i libvcruntimed:undname.obj
 0001:00035d40       ?doEllipsis@UnDecorator@@SAHXZ 10036d40 f i libvcruntimed:undname.obj
 0001:00035d70       ?doFunctionReturns@UnDecorator@@SAHXZ 10036d70 f i libvcruntimed:undname.obj
 0001:00035da0       ?doMSKeywords@UnDecorator@@SAHXZ 10036da0 f i libvcruntimed:undname.obj
 0001:00035dd0       ?doMemberTypes@UnDecorator@@SAHXZ 10036dd0 f i libvcruntimed:undname.obj
 0001:00035e00       ?doNameOnly@UnDecorator@@SAHXZ 10036e00 f i libvcruntimed:undname.obj
 0001:00035e10       ?doNoIdentCharCheck@UnDecorator@@SAHXZ 10036e10 f i libvcruntimed:undname.obj
 0001:00035e20       ?doPchar@DName@@AAEXD@Z    10036e20 f   libvcruntimed:undname.obj
 0001:00035e90       ?doPtr64@UnDecorator@@SAHXZ 10036e90 f i libvcruntimed:undname.obj
 0001:00035ec0       ?doRestrictionSpec@UnDecorator@@SAHXZ 10036ec0 f i libvcruntimed:undname.obj
 0001:00035ef0       ?doThisTypes@UnDecorator@@SAHXZ 10036ef0 f i libvcruntimed:undname.obj
 0001:00035f20       ?doThrowTypes@UnDecorator@@SAHXZ 10036f20 f i libvcruntimed:undname.obj
 0001:00035f50       ?doTypeOnly@UnDecorator@@SAHXZ 10036f50 f i libvcruntimed:undname.obj
 0001:00035f60       ?doUnderScore@UnDecorator@@SAHXZ 10036f60 f i libvcruntimed:undname.obj
 0001:00035f90       ?getArgumentList@UnDecorator@@CA?AVDName@@XZ 10036f90 f   libvcruntimed:undname.obj
 0001:000360e0       ?getArgumentTypes@UnDecorator@@CA?AVDName@@XZ 100370e0 f   libvcruntimed:undname.obj
 0001:000362f0       ?getArrayObject@UnDecorator@@CA?AVDName@@XZ 100372f0 f   libvcruntimed:undname.obj
 0001:000363d0       ?getArrayType@UnDecorator@@CA?AVDName@@ABV2@@Z 100373d0 f i libvcruntimed:undname.obj
 0001:00036670       ?getBasedType@UnDecorator@@CA?AVDName@@XZ 10037670 f   libvcruntimed:undname.obj
 0001:00036760       ?getBasicDataType@UnDecorator@@CA?AVDName@@ABV2@@Z 10037760 f   libvcruntimed:undname.obj
 0001:00037070       ?getCHPEName@UnDecorator@@QAEPADPADH@Z 10038070 f i libvcruntimed:undname.obj
 0001:000371d0       ?getCallIndex@UnDecorator@@CA?AVDName@@XZ 100381d0 f i libvcruntimed:undname.obj
 0001:000371f0       ?getCallingConvention@UnDecorator@@CA?AVDName@@XZ 100381f0 f   libvcruntimed:undname.obj
 0001:00037430       ?getDataIndirectType@UnDecorator@@CA?AVDName@@ABV2@W4IndirectionKind@@0H@Z 10038430 f   libvcruntimed:undname.obj
 0001:00037d50       ?getDataIndirectType@UnDecorator@@CA?AVDName@@XZ 10038d50 f i libvcruntimed:undname.obj
 0001:00037d90       ?getDataType@UnDecorator@@CA?AVDName@@PAV2@@Z 10038d90 f   libvcruntimed:undname.obj
 0001:00037ed0       ?getDecoratedName@UnDecorator@@CA?AVDName@@XZ 10038ed0 f   libvcruntimed:undname.obj
 0001:00038310       ?getDimension@UnDecorator@@CA?AVDName@@_N@Z 10039310 f   libvcruntimed:undname.obj
 0001:00038570       ?getDispatchTarget@UnDecorator@@CA?AVDName@@XZ 10039570 f   libvcruntimed:undname.obj
 0001:00038610       ?getDisplacement@UnDecorator@@CA?AVDName@@XZ 10039610 f i libvcruntimed:undname.obj
 0001:00038630       ?getECSUDataType@UnDecorator@@CA?AVDName@@XZ 10039630 f   libvcruntimed:undname.obj
 0001:00038890       ?getECSUName@UnDecorator@@CA?AVDName@@XZ 10039890 f i libvcruntimed:undname.obj
 0001:000388b0       ?getEnumType@UnDecorator@@CA?AVDName@@XZ 100398b0 f i libvcruntimed:undname.obj
 0001:00038a60       ?getExtendedDataIndirectType@UnDecorator@@CA?AVDName@@AAW4IndirectionKind@@AA_NH@Z 10039a60 f   libvcruntimed:undname.obj
 0001:00038cb0       ?getExternalDataType@UnDecorator@@CA?AVDName@@ABV2@@Z 10039cb0 f i libvcruntimed:undname.obj
 0001:00038d50       ?getFloatingPoint@UnDecorator@@CA?AVDName@@H@Z 10039d50 f   libvcruntimed:undname.obj
 0001:00038f00       ?getFunctionIndirectType@UnDecorator@@CA?AVDName@@ABV2@@Z 10039f00 f   libvcruntimed:undname.obj
 0001:000393e0       ?getGuardNumber@UnDecorator@@CA?AVDName@@XZ 1003a3e0 f i libvcruntimed:undname.obj
 0001:00039400       ?getLastChar@DName@@QBEDXZ 1003a400 f i libvcruntimed:undname.obj
 0001:00039440       ?getLastChar@DNameStatusNode@@UBEDXZ 1003a440 f i libvcruntimed:undname.obj
 0001:00039470       ?getLastChar@charNode@@UBEDXZ 1003a470 f i libvcruntimed:undname.obj
 0001:00039490       ?getLastChar@pDNameNode@@UBEDXZ 1003a490 f i libvcruntimed:undname.obj
 0001:000394c0       ?getLastChar@pairNode@@UBEDXZ 1003a4c0 f i libvcruntimed:undname.obj
 0001:00039530       ?getLastChar@pcharNode@@UBEDXZ 1003a530 f i libvcruntimed:undname.obj
 0001:00039570       ?getLexicalFrame@UnDecorator@@CA?AVDName@@XZ 1003a570 f i libvcruntimed:undname.obj
 0001:000395b0       ?getMemoryWithBuffer@_HeapManager@@QAEPAXI@Z 1003a5b0 f   libvcruntimed:undname.obj
 0001:000396a0       ?getMemoryWithoutBuffer@_HeapManager@@QAEPAXI@Z 1003a6a0 f   libvcruntimed:undname.obj
 0001:000396e0       ?getNoexcept@UnDecorator@@CA?AVDName@@XZ 1003a6e0 f   libvcruntimed:undname.obj
 0001:00039760       ?getNumberOfDimensions@UnDecorator@@CAHXZ 1003a760 f   libvcruntimed:undname.obj
 0001:00039860       ?getOperatorName@UnDecorator@@CA?AVDName@@_NPA_N@Z 1003a860 f i libvcruntimed:undname.obj
 0001:0003a350       ?getPointerType@UnDecorator@@CA?AVDName@@ABV2@0@Z 1003b350 f i libvcruntimed:undname.obj
 0001:0003a370       ?getPointerTypeArray@UnDecorator@@CA?AVDName@@ABV2@0@Z 1003b370 f i libvcruntimed:undname.obj
 0001:0003a390       ?getPrimaryDataType@UnDecorator@@CA?AVDName@@ABV2@@Z 1003b390 f   libvcruntimed:undname.obj
 0001:0003a820       ?getPtrRefDataType@UnDecorator@@CA?AVDName@@ABV2@H@Z 1003b820 f   libvcruntimed:undname.obj
 0001:0003aad0       ?getPtrRefType@UnDecorator@@CA?AVDName@@ABV2@0W4IndirectionKind@@@Z 1003bad0 f   libvcruntimed:undname.obj
 0001:0003ac50       ?getReferenceType@UnDecorator@@CA?AVDName@@ABV2@0W4IndirectionKind@@@Z 1003bc50 f i libvcruntimed:undname.obj
 0001:0003ac70       ?getRestrictionSpec@UnDecorator@@CA?AVDName@@XZ 1003bc70 f   libvcruntimed:undname.obj
 0001:0003ae30       ?getReturnType@UnDecorator@@CA?AVDName@@PAV2@@Z 1003be30 f   libvcruntimed:undname.obj
 0001:0003ae80       ?getScope@UnDecorator@@CA?AVDName@@XZ 1003be80 f   libvcruntimed:undname.obj
 0001:0003b410       ?getScopedName@UnDecorator@@CA?AVDName@@XZ 1003c410 f   libvcruntimed:undname.obj
 0001:0003b560       ?getSignedDimension@UnDecorator@@CA?AVDName@@XZ 1003c560 f   libvcruntimed:undname.obj
 0001:0003b5e0       ?getStorageConvention@UnDecorator@@CA?AVDName@@XZ 1003c5e0 f i libvcruntimed:undname.obj
 0001:0003b600       ?getString@DName@@QBEPADPAD0@Z 1003c600 f i libvcruntimed:undname.obj
 0001:0003b660       ?getString@DName@@QBEPADPADH@Z 1003c660 f i libvcruntimed:undname.obj
 0001:0003b6f0       ?getString@DNameStatusNode@@UBEPADPAD0@Z 1003c6f0 f i libvcruntimed:undname.obj
 0001:0003b730       ?getString@charNode@@UBEPADPAD0@Z 1003c730 f i libvcruntimed:undname.obj
 0001:0003b760       ?getString@pDNameNode@@UBEPADPAD0@Z 1003c760 f i libvcruntimed:undname.obj
 0001:0003b7a0       ?getString@pairNode@@UBEPADPAD0@Z 1003c7a0 f i libvcruntimed:undname.obj
 0001:0003b830       ?getString@pcharNode@@UBEPADPAD0@Z 1003c830 f i libvcruntimed:undname.obj
 0001:0003b860       ?getStringEncoding@UnDecorator@@CA?AVDName@@W4PrefixKind@@H@Z 1003c860 f   libvcruntimed:undname.obj
 0001:0003b970       ?getStringHelper@@YAPADPADPBD1H@Z 1003c970 f i libvcruntimed:undname.obj
 0001:0003b9b0       ?getStringObject@UnDecorator@@CA?AVDName@@XZ 1003c9b0 f   libvcruntimed:undname.obj
 0001:0003ba60       ?getSymbolName@UnDecorator@@CA?AVDName@@XZ 1003ca60 f i libvcruntimed:undname.obj
 0001:0003baf0       ?getTemplateArgumentList@UnDecorator@@CA?AVDName@@XZ 1003caf0 f   libvcruntimed:undname.obj
 0001:0003bde0       ?getTemplateName@UnDecorator@@CA?AVDName@@_N@Z 1003cde0 f   libvcruntimed:undname.obj
 0001:0003bfa0       ?getTemplateNonTypeArgument@UnDecorator@@CA?AVDName@@XZ 1003cfa0 f   libvcruntimed:undname.obj
 0001:0003c4e0       ?getTemplateTypeArgument@UnDecorator@@CA?AVDName@@XZ 1003d4e0 f   libvcruntimed:undname.obj
 0001:0003c680       ?getThisType@UnDecorator@@CA?AVDName@@XZ 1003d680 f i libvcruntimed:undname.obj
 0001:0003c6c0       ?getThrowTypes@UnDecorator@@CA?AVDName@@XZ 1003d6c0 f   libvcruntimed:undname.obj
 0001:0003c700       ?getTypeEncoding@UnDecorator@@CAHXZ 1003d700 f i libvcruntimed:undname.obj
 0001:0003d1c0       ?getUndecoratedName@UnDecorator@@QAEPADPADH@Z 1003e1c0 f i libvcruntimed:undname.obj
 0001:0003d320       ?getVCallThunkType@UnDecorator@@CA?AVDName@@XZ 1003e320 f i libvcruntimed:undname.obj
 0001:0003d3a0       ?getValue@UnDecorator@@CA?AV?$optional@_K@std@@XZ 1003e3a0 f   libvcruntimed:undname.obj
 0001:0003d460       ?getValueObject@UnDecorator@@CA?AVDName@@XZ 1003e460 f   libvcruntimed:undname.obj
 0001:0003d620       ?getVbTableType@UnDecorator@@CA?AVDName@@ABV2@@Z 1003e620 f i libvcruntimed:undname.obj
 0001:0003d640       ?getVdispMapType@UnDecorator@@CA?AVDName@@ABV2@@Z 1003e640 f i libvcruntimed:undname.obj
 0001:0003d6d0       ?getVfTableType@UnDecorator@@CA?AVDName@@ABV2@@Z 1003e6d0 f i libvcruntimed:undname.obj
 0001:0003d8d0       ?getZName@UnDecorator@@CA?AVDName@@_N0@Z 1003e8d0 f   libvcruntimed:undname.obj
 0001:0003dc10       ?haveTemplateParameters@UnDecorator@@SAHXZ 1003ec10 f i libvcruntimed:undname.obj
 0001:0003dc20       ?isArray@DName@@QBEHXZ     1003ec20 f i libvcruntimed:undname.obj
 0001:0003dc40       ?isComArray@DName@@QBEHXZ  1003ec40 f i libvcruntimed:undname.obj
 0001:0003dc60       ?isEmpty@DName@@QBEHXZ     1003ec60 f i libvcruntimed:undname.obj
 0001:0003dc90       ?isFull@Replicator@@QBEHXZ 1003ec90 f i libvcruntimed:undname.obj
 0001:0003dcc0       ?isNoTE@DName@@QBEHXZ      1003ecc0 f i libvcruntimed:undname.obj
 0001:0003dce0       ?isPinPtr@DName@@QBEHXZ    1003ece0 f i libvcruntimed:undname.obj
 0001:0003dd00       ?isPtrRef@DName@@QBEHXZ    1003ed00 f i libvcruntimed:undname.obj
 0001:0003dd20       ?isUDC@DName@@QBEHXZ       1003ed20 f i libvcruntimed:undname.obj
 0001:0003dd60       ?isUDTThunk@DName@@QBEHXZ  1003ed60 f i libvcruntimed:undname.obj
 0001:0003dda0       ?isVCallThunk@DName@@QBEHXZ 1003eda0 f i libvcruntimed:undname.obj
 0001:0003ddc0       ?isValid@DName@@QBEHXZ     1003edc0 f i libvcruntimed:undname.obj
 0001:0003de00       ?length@DName@@QBEHXZ      1003ee00 f i libvcruntimed:undname.obj
 0001:0003de40       ?length@DNameStatusNode@@UBEHXZ 1003ee40 f i libvcruntimed:undname.obj
 0001:0003de60       ?length@charNode@@UBEHXZ   1003ee60 f i libvcruntimed:undname.obj
 0001:0003de70       ?length@pDNameNode@@UBEHXZ 1003ee70 f i libvcruntimed:undname.obj
 0001:0003dea0       ?length@pairNode@@UBEHXZ   1003eea0 f i libvcruntimed:undname.obj
 0001:0003df10       ?length@pcharNode@@UBEHXZ  1003ef10 f i libvcruntimed:undname.obj
 0001:0003df30       ?make@DNameStatusNode@@SAPBV1@W4DNameStatus@@@Z 1003ef30 f i libvcruntimed:undname.obj
 0001:0003df60       ?parseDecoratedName@UnDecorator@@CA?AVDName@@XZ 1003ef60 f   libvcruntimed:undname.obj
 0001:0003e0f0       ?raw_length@DNameStatusNode@@UBEHXZ 1003f0f0 f i libvcruntimed:undname.obj
 0001:0003e110       ?raw_length@charNode@@UBEHXZ 1003f110 f i libvcruntimed:undname.obj
 0001:0003e130       ?raw_length@pDNameNode@@UBEHXZ 1003f130 f i libvcruntimed:undname.obj
 0001:0003e140       ?raw_length@pairNode@@UBEHXZ 1003f140 f i libvcruntimed:undname.obj
 0001:0003e160       ?raw_length@pcharNode@@UBEHXZ 1003f160 f i libvcruntimed:undname.obj
 0001:0003e180       ?setIsArray@DName@@QAEXXZ  1003f180 f i libvcruntimed:undname.obj
 0001:0003e1a0       ?setIsComArray@DName@@QAEXXZ 1003f1a0 f i libvcruntimed:undname.obj
 0001:0003e1c0       ?setIsNoTE@DName@@QAEXXZ   1003f1c0 f i libvcruntimed:undname.obj
 0001:0003e1e0       ?setIsPinPtr@DName@@QAEXXZ 1003f1e0 f i libvcruntimed:undname.obj
 0001:0003e200       ?setIsUDC@DName@@QAEXXZ    1003f200 f i libvcruntimed:undname.obj
 0001:0003e230       ?setIsVCallThunk@DName@@QAEXXZ 1003f230 f i libvcruntimed:undname.obj
 0001:0003e250       ?setPtrRef@DName@@QAEAAV1@XZ 1003f250 f i libvcruntimed:undname.obj
 0001:0003e270       ?status@DName@@QBE?AW4DNameStatus@@XZ 1003f270 f i libvcruntimed:undname.obj
 0001:0003e370       ___unDName                 1003f370 f   libvcruntimed:undname.obj
 0001:0003e3a0       ___unDNameEx               1003f3a0 f   libvcruntimed:undname.obj
 0001:0003e470       _unDNameGenerateCHPE       1003f470 f   libvcruntimed:undname.obj
 0001:0003e4d0       __global_unwind2           1003f4d0 f   libvcruntimed:exsup.obj
 0001:0003e536       __local_unwind2            1003f536 f   libvcruntimed:exsup.obj
 0001:0003e5ba       __abnormal_termination     1003f5ba f   libvcruntimed:exsup.obj
 0001:0003e5e0       __NLG_Notify1              1003f5e0 f   libvcruntimed:exsup.obj
 0001:0003e5ec       __NLG_Notify               1003f5ec f   libvcruntimed:exsup.obj
 0001:0003e603       __NLG_Dispatch2            1003f603     libvcruntimed:exsup.obj
 0001:0003e603       __NLG_Dispatch             1003f603     libvcruntimed:exsup.obj
 0001:0003e60b       __NLG_Call                 1003f60b f   libvcruntimed:exsup.obj
 0001:0003e60d       __NLG_Return2              1003f60d     libvcruntimed:exsup.obj
 0001:0003e610       ??$__crt_interlocked_exchange_pointer@UHINSTANCE__@@PAU1@@@YAPAUHINSTANCE__@@PDSAU0@QAU0@@Z 1003f610 f i libvcruntimed:winapi_downlevel.obj
 0001:0003e620       ??$__crt_interlocked_exchange_pointer@UHINSTANCE__@@PAX@@YAPAUHINSTANCE__@@PDSAU0@QAX@Z 1003f620 f i libvcruntimed:winapi_downlevel.obj
 0001:0003e630       ??$__crt_interlocked_exchange_pointer@XPAX@@YAPAXPDSAXQAX@Z 1003f630 f i libvcruntimed:winapi_downlevel.obj
 0001:0003e640       ??$__crt_interlocked_read_pointer@UHINSTANCE__@@@@YAPAUHINSTANCE__@@PDSAU0@@Z 1003f640 f i libvcruntimed:winapi_downlevel.obj
 0001:0003e660       ??$__crt_interlocked_read_pointer@X@@YAPAXPDSAX@Z 1003f660 f i libvcruntimed:winapi_downlevel.obj
 0001:0003ea30       ___vcrt_FlsAlloc           1003fa30 f   libvcruntimed:winapi_downlevel.obj
 0001:0003ea70       ___vcrt_FlsFree            1003fa70 f   libvcruntimed:winapi_downlevel.obj
 0001:0003eab0       ___vcrt_FlsGetValue        1003fab0 f   libvcruntimed:winapi_downlevel.obj
 0001:0003eaf0       ___vcrt_FlsSetValue        1003faf0 f   libvcruntimed:winapi_downlevel.obj
 0001:0003eb40       ___vcrt_InitializeCriticalSectionEx 1003fb40 f   libvcruntimed:winapi_downlevel.obj
 0001:0003ebc0       __get_unexpected           1003fbc0 f   libvcruntimed:unexpected.obj
 0001:0003ebe0       _set_unexpected            1003fbe0 f   libvcruntimed:unexpected.obj
 0001:0003ec10       _unexpected                1003fc10 f   libvcruntimed:unexpected.obj
 0001:0003ec50       ?GetCurrentState@__FrameHandler3@@SAHPAUEHRegistrationNode@@PAXPBU_s_FuncInfo@@@Z 1003fc50 f   libvcruntimed:ehstate.obj
 0001:0003ec80       ?SetState@__FrameHandler3@@SAXPAUEHRegistrationNode@@PBU_s_FuncInfo@@H@Z 1003fc80 f   libvcruntimed:ehstate.obj
 0001:0003ec90       ??$?0ABV?$stream_output_adapter@D@__crt_stdio_output@@AB_KABQBDABQAU__crt_locale_pointers@@ABQAD@?$format_validation_base@DV?$stream_output_adapter@D@__crt_stdio_output@@@__crt_stdio_output@@IAE@ABV?$stream_output_adapter@D@1@AB_KABQBDABQAU__crt_locale_pointers@@ABQAD@Z 1003fc90 f i libucrtd:output.obj
 0001:0003ecc0       ??$?0ABV?$stream_output_adapter@D@__crt_stdio_output@@AB_KABQBDABQAU__crt_locale_pointers@@ABQAD@?$positional_parameter_base@DV?$stream_output_adapter@D@__crt_stdio_output@@@__crt_stdio_output@@IAE@ABV?$stream_output_adapter@D@1@AB_KABQBDABQAU__crt_locale_pointers@@ABQAD@Z 1003fcc0 f i libucrtd:output.obj
 0001:0003ed40       ??$?0ABV?$stream_output_adapter@D@__crt_stdio_output@@AB_KABQBDABQAU__crt_locale_pointers@@ABQAD@?$standard_base@DV?$stream_output_adapter@D@__crt_stdio_output@@@__crt_stdio_output@@IAE@ABV?$stream_output_adapter@D@1@AB_KABQBDABQAU__crt_locale_pointers@@ABQAD@Z 1003fd40 f i libucrtd:output.obj
 0001:0003ed90       ??$?0ABV?$stream_output_adapter@_W@__crt_stdio_output@@AB_KABQB_WABQAU__crt_locale_pointers@@ABQAD@?$format_validation_base@_WV?$stream_output_adapter@_W@__crt_stdio_output@@@__crt_stdio_output@@IAE@ABV?$stream_output_adapter@_W@1@AB_KABQB_WABQAU__crt_locale_pointers@@ABQAD@Z 1003fd90 f i libucrtd:output.obj
 0001:0003edc0       ??$?0ABV?$stream_output_adapter@_W@__crt_stdio_output@@AB_KABQB_WABQAU__crt_locale_pointers@@ABQAD@?$positional_parameter_base@_WV?$stream_output_adapter@_W@__crt_stdio_output@@@__crt_stdio_output@@IAE@ABV?$stream_output_adapter@_W@1@AB_KABQB_WABQAU__crt_locale_pointers@@ABQAD@Z 1003fdc0 f i libucrtd:output.obj
 0001:0003ee40       ??$?0ABV?$stream_output_adapter@_W@__crt_stdio_output@@AB_KABQB_WABQAU__crt_locale_pointers@@ABQAD@?$standard_base@_WV?$stream_output_adapter@_W@__crt_stdio_output@@@__crt_stdio_output@@IAE@ABV?$stream_output_adapter@_W@1@AB_KABQB_WABQAU__crt_locale_pointers@@ABQAD@Z 1003fe40 f i libucrtd:output.obj
 0001:0003ee90       ??$?0ABV?$string_output_adapter@D@__crt_stdio_output@@AB_KABQBDABQAU__crt_locale_pointers@@ABQAD@?$format_validation_base@DV?$string_output_adapter@D@__crt_stdio_output@@@__crt_stdio_output@@IAE@ABV?$string_output_adapter@D@1@AB_KABQBDABQAU__crt_locale_pointers@@ABQAD@Z 1003fe90 f i libucrtd:output.obj
 0001:0003eec0       ??$?0ABV?$string_output_adapter@D@__crt_stdio_output@@AB_KABQBDABQAU__crt_locale_pointers@@ABQAD@?$positional_parameter_base@DV?$string_output_adapter@D@__crt_stdio_output@@@__crt_stdio_output@@IAE@ABV?$string_output_adapter@D@1@AB_KABQBDABQAU__crt_locale_pointers@@ABQAD@Z 1003fec0 f i libucrtd:output.obj
 0001:0003ef40       ??$?0ABV?$string_output_adapter@D@__crt_stdio_output@@AB_KABQBDABQAU__crt_locale_pointers@@ABQAD@?$standard_base@DV?$string_output_adapter@D@__crt_stdio_output@@@__crt_stdio_output@@IAE@ABV?$string_output_adapter@D@1@AB_KABQBDABQAU__crt_locale_pointers@@ABQAD@Z 1003ff40 f i libucrtd:output.obj
 0001:0003ef90       ??$?0ABV?$string_output_adapter@_W@__crt_stdio_output@@AB_KABQB_WABQAU__crt_locale_pointers@@ABQAD@?$format_validation_base@_WV?$string_output_adapter@_W@__crt_stdio_output@@@__crt_stdio_output@@IAE@ABV?$string_output_adapter@_W@1@AB_KABQB_WABQAU__crt_locale_pointers@@ABQAD@Z 1003ff90 f i libucrtd:output.obj
 0001:0003efc0       ??$?0ABV?$string_output_adapter@_W@__crt_stdio_output@@AB_KABQB_WABQAU__crt_locale_pointers@@ABQAD@?$positional_parameter_base@_WV?$string_output_adapter@_W@__crt_stdio_output@@@__crt_stdio_output@@IAE@ABV?$string_output_adapter@_W@1@AB_KABQB_WABQAU__crt_locale_pointers@@ABQAD@Z 1003ffc0 f i libucrtd:output.obj
 0001:0003f040       ??$?0ABV?$string_output_adapter@_W@__crt_stdio_output@@AB_KABQB_WABQAU__crt_locale_pointers@@ABQAD@?$standard_base@_WV?$string_output_adapter@_W@__crt_stdio_output@@@__crt_stdio_output@@IAE@ABV?$string_output_adapter@_W@1@AB_KABQB_WABQAU__crt_locale_pointers@@ABQAD@Z 10040040 f i libucrtd:output.obj
 0001:0003f570       ??$__crt_interlocked_read@J@@YAJPDJ@Z 10040570 f i libucrtd:output.obj
 0001:00042310       ??$count@D@formatting_buffer@__crt_stdio_output@@QBEIXZ 10043310 f i libucrtd:output.obj
 0001:00042350       ??$count@_W@formatting_buffer@__crt_stdio_output@@QBEIXZ 10043350 f i libucrtd:output.obj
 0001:00042390       ??$data@D@formatting_buffer@__crt_stdio_output@@QAEPADXZ 10043390 f i libucrtd:output.obj
 0001:000423d0       ??$data@_W@formatting_buffer@__crt_stdio_output@@QAEPA_WXZ 100433d0 f i libucrtd:output.obj
 0001:00042410       ??$ensure_buffer_is_big_enough@D@formatting_buffer@__crt_stdio_output@@QAE_NI@Z 10043410 f i libucrtd:output.obj
 0001:000424f0       ??$ensure_buffer_is_big_enough@_W@formatting_buffer@__crt_stdio_output@@QAE_NI@Z 100434f0 f i libucrtd:output.obj
 0001:000425e0       ??$extract_argument_from_va_list@C_J@?$positional_parameter_base@DV?$stream_output_adapter@D@__crt_stdio_output@@@__crt_stdio_output@@IAE_NAA_J@Z 100435e0 f i libucrtd:output.obj
 0001:00042720       ??$extract_argument_from_va_list@C_J@?$positional_parameter_base@DV?$string_output_adapter@D@__crt_stdio_output@@@__crt_stdio_output@@IAE_NAA_J@Z 10043720 f i libucrtd:output.obj
 0001:00042860       ??$extract_argument_from_va_list@C_J@?$positional_parameter_base@_WV?$stream_output_adapter@_W@__crt_stdio_output@@@__crt_stdio_output@@IAE_NAA_J@Z 10043860 f i libucrtd:output.obj
 0001:000429a0       ??$extract_argument_from_va_list@C_J@?$positional_parameter_base@_WV?$string_output_adapter@_W@__crt_stdio_output@@@__crt_stdio_output@@IAE_NAA_J@Z 100439a0 f i libucrtd:output.obj
 0001:00042ae0       ??$extract_argument_from_va_list@C_J@?$standard_base@DV?$stream_output_adapter@D@__crt_stdio_output@@@__crt_stdio_output@@IAE_NAA_J@Z 10043ae0 f i libucrtd:output.obj
 0001:00042b10       ??$extract_argument_from_va_list@C_J@?$standard_base@DV?$string_output_adapter@D@__crt_stdio_output@@@__crt_stdio_output@@IAE_NAA_J@Z 10043b10 f i libucrtd:output.obj
 0001:00042b40       ??$extract_argument_from_va_list@C_J@?$standard_base@_WV?$stream_output_adapter@_W@__crt_stdio_output@@@__crt_stdio_output@@IAE_NAA_J@Z 10043b40 f i libucrtd:output.obj
 0001:00042b70       ??$extract_argument_from_va_list@C_J@?$standard_base@_WV?$string_output_adapter@_W@__crt_stdio_output@@@__crt_stdio_output@@IAE_NAA_J@Z 10043b70 f i libucrtd:output.obj
 0001:00042ba0       ??$extract_argument_from_va_list@E_J@?$positional_parameter_base@DV?$stream_output_adapter@D@__crt_stdio_output@@@__crt_stdio_output@@IAE_NAA_J@Z 10043ba0 f i libucrtd:output.obj
 0001:00042ce0       ??$extract_argument_from_va_list@E_J@?$positional_parameter_base@DV?$string_output_adapter@D@__crt_stdio_output@@@__crt_stdio_output@@IAE_NAA_J@Z 10043ce0 f i libucrtd:output.obj
 0001:00042e20       ??$extract_argument_from_va_list@E_J@?$positional_parameter_base@_WV?$stream_output_adapter@_W@__crt_stdio_output@@@__crt_stdio_output@@IAE_NAA_J@Z 10043e20 f i libucrtd:output.obj
 0001:00042f60       ??$extract_argument_from_va_list@E_J@?$positional_parameter_base@_WV?$string_output_adapter@_W@__crt_stdio_output@@@__crt_stdio_output@@IAE_NAA_J@Z 10043f60 f i libucrtd:output.obj
 0001:000430a0       ??$extract_argument_from_va_list@E_J@?$standard_base@DV?$stream_output_adapter@D@__crt_stdio_output@@@__crt_stdio_output@@IAE_NAA_J@Z 100440a0 f i libucrtd:output.obj
 0001:000430d0       ??$extract_argument_from_va_list@E_J@?$standard_base@DV?$string_output_adapter@D@__crt_stdio_output@@@__crt_stdio_output@@IAE_NAA_J@Z 100440d0 f i libucrtd:output.obj
 0001:00043100       ??$extract_argument_from_va_list@E_J@?$standard_base@_WV?$stream_output_adapter@_W@__crt_stdio_output@@@__crt_stdio_output@@IAE_NAA_J@Z 10044100 f i libucrtd:output.obj
 0001:00043130       ??$extract_argument_from_va_list@E_J@?$standard_base@_WV?$string_output_adapter@_W@__crt_stdio_output@@@__crt_stdio_output@@IAE_NAA_J@Z 10044130 f i libucrtd:output.obj
 0001:00043160       ??$extract_argument_from_va_list@F_J@?$positional_parameter_base@DV?$stream_output_adapter@D@__crt_stdio_output@@@__crt_stdio_output@@IAE_NAA_J@Z 10044160 f i libucrtd:output.obj
 0001:00043290       ??$extract_argument_from_va_list@F_J@?$positional_parameter_base@DV?$string_output_adapter@D@__crt_stdio_output@@@__crt_stdio_output@@IAE_NAA_J@Z 10044290 f i libucrtd:output.obj
 0001:000433c0       ??$extract_argument_from_va_list@F_J@?$positional_parameter_base@_WV?$stream_output_adapter@_W@__crt_stdio_output@@@__crt_stdio_output@@IAE_NAA_J@Z 100443c0 f i libucrtd:output.obj
 0001:000434f0       ??$extract_argument_from_va_list@F_J@?$positional_parameter_base@_WV?$string_output_adapter@_W@__crt_stdio_output@@@__crt_stdio_output@@IAE_NAA_J@Z 100444f0 f i libucrtd:output.obj
 0001:00043620       ??$extract_argument_from_va_list@F_J@?$standard_base@DV?$stream_output_adapter@D@__crt_stdio_output@@@__crt_stdio_output@@IAE_NAA_J@Z 10044620 f i libucrtd:output.obj
 0001:00043650       ??$extract_argument_from_va_list@F_J@?$standard_base@DV?$string_output_adapter@D@__crt_stdio_output@@@__crt_stdio_output@@IAE_NAA_J@Z 10044650 f i libucrtd:output.obj
 0001:00043680       ??$extract_argument_from_va_list@F_J@?$standard_base@_WV?$stream_output_adapter@_W@__crt_stdio_output@@@__crt_stdio_output@@IAE_NAA_J@Z 10044680 f i libucrtd:output.obj
 0001:000436b0       ??$extract_argument_from_va_list@F_J@?$standard_base@_WV?$string_output_adapter@_W@__crt_stdio_output@@@__crt_stdio_output@@IAE_NAA_J@Z 100446b0 f i libucrtd:output.obj
 0001:000436e0       ??$extract_argument_from_va_list@GD@?$positional_parameter_base@DV?$stream_output_adapter@D@__crt_stdio_output@@@__crt_stdio_output@@IAE_NAAD@Z 100446e0 f i libucrtd:output.obj
 0001:00043810       ??$extract_argument_from_va_list@GD@?$positional_parameter_base@DV?$string_output_adapter@D@__crt_stdio_output@@@__crt_stdio_output@@IAE_NAAD@Z 10044810 f i libucrtd:output.obj
 0001:00043940       ??$extract_argument_from_va_list@GD@?$standard_base@DV?$stream_output_adapter@D@__crt_stdio_output@@@__crt_stdio_output@@IAE_NAAD@Z 10044940 f i libucrtd:output.obj
 0001:00043970       ??$extract_argument_from_va_list@GD@?$standard_base@DV?$string_output_adapter@D@__crt_stdio_output@@@__crt_stdio_output@@IAE_NAAD@Z 10044970 f i libucrtd:output.obj
 0001:000439a0       ??$extract_argument_from_va_list@G_J@?$positional_parameter_base@DV?$stream_output_adapter@D@__crt_stdio_output@@@__crt_stdio_output@@IAE_NAA_J@Z 100449a0 f i libucrtd:output.obj
 0001:00043ae0       ??$extract_argument_from_va_list@G_J@?$positional_parameter_base@DV?$string_output_adapter@D@__crt_stdio_output@@@__crt_stdio_output@@IAE_NAA_J@Z 10044ae0 f i libucrtd:output.obj
 0001:00043c20       ??$extract_argument_from_va_list@G_J@?$positional_parameter_base@_WV?$stream_output_adapter@_W@__crt_stdio_output@@@__crt_stdio_output@@IAE_NAA_J@Z 10044c20 f i libucrtd:output.obj
 0001:00043d60       ??$extract_argument_from_va_list@G_J@?$positional_parameter_base@_WV?$string_output_adapter@_W@__crt_stdio_output@@@__crt_stdio_output@@IAE_NAA_J@Z 10044d60 f i libucrtd:output.obj
 0001:00043ea0       ??$extract_argument_from_va_list@G_J@?$standard_base@DV?$stream_output_adapter@D@__crt_stdio_output@@@__crt_stdio_output@@IAE_NAA_J@Z 10044ea0 f i libucrtd:output.obj
 0001:00043ed0       ??$extract_argument_from_va_list@G_J@?$standard_base@DV?$string_output_adapter@D@__crt_stdio_output@@@__crt_stdio_output@@IAE_NAA_J@Z 10044ed0 f i libucrtd:output.obj
 0001:00043f00       ??$extract_argument_from_va_list@G_J@?$standard_base@_WV?$stream_output_adapter@_W@__crt_stdio_output@@@__crt_stdio_output@@IAE_NAA_J@Z 10044f00 f i libucrtd:output.obj
 0001:00043f30       ??$extract_argument_from_va_list@G_J@?$standard_base@_WV?$string_output_adapter@_W@__crt_stdio_output@@@__crt_stdio_output@@IAE_NAA_J@Z 10044f30 f i libucrtd:output.obj
 0001:00043f60       ??$extract_argument_from_va_list@H_J@?$positional_parameter_base@DV?$stream_output_adapter@D@__crt_stdio_output@@@__crt_stdio_output@@IAE_NAA_J@Z 10044f60 f i libucrtd:output.obj
 0001:00044090       ??$extract_argument_from_va_list@H_J@?$positional_parameter_base@DV?$string_output_adapter@D@__crt_stdio_output@@@__crt_stdio_output@@IAE_NAA_J@Z 10045090 f i libucrtd:output.obj
 0001:000441c0       ??$extract_argument_from_va_list@H_J@?$positional_parameter_base@_WV?$stream_output_adapter@_W@__crt_stdio_output@@@__crt_stdio_output@@IAE_NAA_J@Z 100451c0 f i libucrtd:output.obj
 0001:000442f0       ??$extract_argument_from_va_list@H_J@?$positional_parameter_base@_WV?$string_output_adapter@_W@__crt_stdio_output@@@__crt_stdio_output@@IAE_NAA_J@Z 100452f0 f i libucrtd:output.obj
 0001:00044420       ??$extract_argument_from_va_list@H_J@?$standard_base@DV?$stream_output_adapter@D@__crt_stdio_output@@@__crt_stdio_output@@IAE_NAA_J@Z 10045420 f i libucrtd:output.obj
 0001:00044450       ??$extract_argument_from_va_list@H_J@?$standard_base@DV?$string_output_adapter@D@__crt_stdio_output@@@__crt_stdio_output@@IAE_NAA_J@Z 10045450 f i libucrtd:output.obj
 0001:00044480       ??$extract_argument_from_va_list@H_J@?$standard_base@_WV?$stream_output_adapter@_W@__crt_stdio_output@@@__crt_stdio_output@@IAE_NAA_J@Z 10045480 f i libucrtd:output.obj
 0001:000444b0       ??$extract_argument_from_va_list@H_J@?$standard_base@_WV?$string_output_adapter@_W@__crt_stdio_output@@@__crt_stdio_output@@IAE_NAA_J@Z 100454b0 f i libucrtd:output.obj
 0001:000444e0       ??$extract_argument_from_va_list@I_J@?$positional_parameter_base@DV?$stream_output_adapter@D@__crt_stdio_output@@@__crt_stdio_output@@IAE_NAA_J@Z 100454e0 f i libucrtd:output.obj
 0001:00044610       ??$extract_argument_from_va_list@I_J@?$positional_parameter_base@DV?$string_output_adapter@D@__crt_stdio_output@@@__crt_stdio_output@@IAE_NAA_J@Z 10045610 f i libucrtd:output.obj
 0001:00044740       ??$extract_argument_from_va_list@I_J@?$positional_parameter_base@_WV?$stream_output_adapter@_W@__crt_stdio_output@@@__crt_stdio_output@@IAE_NAA_J@Z 10045740 f i libucrtd:output.obj
 0001:00044870       ??$extract_argument_from_va_list@I_J@?$positional_parameter_base@_WV?$string_output_adapter@_W@__crt_stdio_output@@@__crt_stdio_output@@IAE_NAA_J@Z 10045870 f i libucrtd:output.obj
 0001:000449a0       ??$extract_argument_from_va_list@I_J@?$standard_base@DV?$stream_output_adapter@D@__crt_stdio_output@@@__crt_stdio_output@@IAE_NAA_J@Z 100459a0 f i libucrtd:output.obj
 0001:000449d0       ??$extract_argument_from_va_list@I_J@?$standard_base@DV?$string_output_adapter@D@__crt_stdio_output@@@__crt_stdio_output@@IAE_NAA_J@Z 100459d0 f i libucrtd:output.obj
 0001:00044a00       ??$extract_argument_from_va_list@I_J@?$standard_base@_WV?$stream_output_adapter@_W@__crt_stdio_output@@@__crt_stdio_output@@IAE_NAA_J@Z 10045a00 f i libucrtd:output.obj
 0001:00044a30       ??$extract_argument_from_va_list@I_J@?$standard_base@_WV?$string_output_adapter@_W@__crt_stdio_output@@@__crt_stdio_output@@IAE_NAA_J@Z 10045a30 f i libucrtd:output.obj
 0001:00044a60       ??$extract_argument_from_va_list@PADPAD@?$positional_parameter_base@DV?$stream_output_adapter@D@__crt_stdio_output@@@__crt_stdio_output@@IAE_NAAPAD@Z 10045a60 f i libucrtd:output.obj
 0001:00044b90       ??$extract_argument_from_va_list@PADPAD@?$positional_parameter_base@DV?$string_output_adapter@D@__crt_stdio_output@@@__crt_stdio_output@@IAE_NAAPAD@Z 10045b90 f i libucrtd:output.obj
 0001:00044cc0       ??$extract_argument_from_va_list@PADPAD@?$positional_parameter_base@_WV?$stream_output_adapter@_W@__crt_stdio_output@@@__crt_stdio_output@@IAE_NAAPAD@Z 10045cc0 f i libucrtd:output.obj
 0001:00044df0       ??$extract_argument_from_va_list@PADPAD@?$positional_parameter_base@_WV?$string_output_adapter@_W@__crt_stdio_output@@@__crt_stdio_output@@IAE_NAAPAD@Z 10045df0 f i libucrtd:output.obj
 0001:00044f20       ??$extract_argument_from_va_list@PADPAD@?$standard_base@DV?$stream_output_adapter@D@__crt_stdio_output@@@__crt_stdio_output@@IAE_NAAPAD@Z 10045f20 f i libucrtd:output.obj
 0001:00044f50       ??$extract_argument_from_va_list@PADPAD@?$standard_base@DV?$string_output_adapter@D@__crt_stdio_output@@@__crt_stdio_output@@IAE_NAAPAD@Z 10045f50 f i libucrtd:output.obj
 0001:00044f80       ??$extract_argument_from_va_list@PADPAD@?$standard_base@_WV?$stream_output_adapter@_W@__crt_stdio_output@@@__crt_stdio_output@@IAE_NAAPAD@Z 10045f80 f i libucrtd:output.obj
 0001:00044fb0       ??$extract_argument_from_va_list@PADPAD@?$standard_base@_WV?$string_output_adapter@_W@__crt_stdio_output@@@__crt_stdio_output@@IAE_NAAPAD@Z 10045fb0 f i libucrtd:output.obj
 0001:00044fe0       ??$extract_argument_from_va_list@PAUansi_string@?1??type_case_Z@?$output_processor@DV?$stream_output_adapter@D@__crt_stdio_output@@V?$format_validation_base@DV?$stream_output_adapter@D@__crt_stdio_output@@@2@@__crt_stdio_output@@AAE_NXZ@PAU1?1??234@AAE_NXZ@@?$standard_base@DV?$stream_output_adapter@D@__crt_stdio_output@@@__crt_stdio_output@@IAE_NAAPAUansi_string@?1??type_case_Z@?$output_processor@DV?$stream_output_adapter@D@__crt_stdio_output@@V?$format_validation_base@DV?$stream_output_adapter@D@__crt_stdio_output@@@2@@1@AAE_NXZ@@Z 10045fe0 f i libucrtd:output.obj
 0001:00045010       ??$extract_argument_from_va_list@PAUansi_string@?1??type_case_Z@?$output_processor@DV?$stream_output_adapter@D@__crt_stdio_output@@V?$positional_parameter_base@DV?$stream_output_adapter@D@__crt_stdio_output@@@2@@__crt_stdio_output@@AAE_NXZ@PAU1?1??234@AAE_NXZ@@?$positional_parameter_base@DV?$stream_output_adapter@D@__crt_stdio_output@@@__crt_stdio_output@@IAE_NAAPAUansi_string@?1??type_case_Z@?$output_processor@DV?$stream_output_adapter@D@__crt_stdio_output@@V?$positional_parameter_base@DV?$stream_output_adapter@D@__crt_stdio_output@@@2@@1@AAE_NXZ@@Z 10046010 f i libucrtd:output.obj
 0001:00045140       ??$extract_argument_from_va_list@PAUansi_string@?1??type_case_Z@?$output_processor@DV?$stream_output_adapter@D@__crt_stdio_output@@V?$positional_parameter_base@DV?$stream_output_adapter@D@__crt_stdio_output@@@2@@__crt_stdio_output@@AAE_NXZ@PAU1?1??234@AAE_NXZ@@?$standard_base@DV?$stream_output_adapter@D@__crt_stdio_output@@@__crt_stdio_output@@IAE_NAAPAUansi_string@?1??type_case_Z@?$output_processor@DV?$stream_output_adapter@D@__crt_stdio_output@@V?$positional_parameter_base@DV?$stream_output_adapter@D@__crt_stdio_output@@@2@@1@AAE_NXZ@@Z 10046140 f i libucrtd:output.obj
 0001:00045170       ??$extract_argument_from_va_list@PAUansi_string@?1??type_case_Z@?$output_processor@DV?$stream_output_adapter@D@__crt_stdio_output@@V?$standard_base@DV?$stream_output_adapter@D@__crt_stdio_output@@@2@@__crt_stdio_output@@AAE_NXZ@PAU1?1??234@AAE_NXZ@@?$standard_base@DV?$stream_output_adapter@D@__crt_stdio_output@@@__crt_stdio_output@@IAE_NAAPAUansi_string@?1??type_case_Z@?$output_processor@DV?$stream_output_adapter@D@__crt_stdio_output@@V?$standard_base@DV?$stream_output_adapter@D@__crt_stdio_output@@@2@@1@AAE_NXZ@@Z 10046170 f i libucrtd:output.obj
 0001:000451a0       ??$extract_argument_from_va_list@PAUansi_string@?1??type_case_Z@?$output_processor@DV?$string_output_adapter@D@__crt_stdio_output@@V?$format_validation_base@DV?$string_output_adapter@D@__crt_stdio_output@@@2@@__crt_stdio_output@@AAE_NXZ@PAU1?1??234@AAE_NXZ@@?$standard_base@DV?$string_output_adapter@D@__crt_stdio_output@@@__crt_stdio_output@@IAE_NAAPAUansi_string@?1??type_case_Z@?$output_processor@DV?$string_output_adapter@D@__crt_stdio_output@@V?$format_validation_base@DV?$string_output_adapter@D@__crt_stdio_output@@@2@@1@AAE_NXZ@@Z 100461a0 f i libucrtd:output.obj
 0001:000451d0       ??$extract_argument_from_va_list@PAUansi_string@?1??type_case_Z@?$output_processor@DV?$string_output_adapter@D@__crt_stdio_output@@V?$positional_parameter_base@DV?$string_output_adapter@D@__crt_stdio_output@@@2@@__crt_stdio_output@@AAE_NXZ@PAU1?1??234@AAE_NXZ@@?$positional_parameter_base@DV?$string_output_adapter@D@__crt_stdio_output@@@__crt_stdio_output@@IAE_NAAPAUansi_string@?1??type_case_Z@?$output_processor@DV?$string_output_adapter@D@__crt_stdio_output@@V?$positional_parameter_base@DV?$string_output_adapter@D@__crt_stdio_output@@@2@@1@AAE_NXZ@@Z 100461d0 f i libucrtd:output.obj
 0001:00045300       ??$extract_argument_from_va_list@PAUansi_string@?1??type_case_Z@?$output_processor@DV?$string_output_adapter@D@__crt_stdio_output@@V?$positional_parameter_base@DV?$string_output_adapter@D@__crt_stdio_output@@@2@@__crt_stdio_output@@AAE_NXZ@PAU1?1??234@AAE_NXZ@@?$standard_base@DV?$string_output_adapter@D@__crt_stdio_output@@@__crt_stdio_output@@IAE_NAAPAUansi_string@?1??type_case_Z@?$output_processor@DV?$string_output_adapter@D@__crt_stdio_output@@V?$positional_parameter_base@DV?$string_output_adapter@D@__crt_stdio_output@@@2@@1@AAE_NXZ@@Z 10046300 f i libucrtd:output.obj
 0001:00045330       ??$extract_argument_from_va_list@PAUansi_string@?1??type_case_Z@?$output_processor@DV?$string_output_adapter@D@__crt_stdio_output@@V?$standard_base@DV?$string_output_adapter@D@__crt_stdio_output@@@2@@__crt_stdio_output@@AAE_NXZ@PAU1?1??234@AAE_NXZ@@?$standard_base@DV?$string_output_adapter@D@__crt_stdio_output@@@__crt_stdio_output@@IAE_NAAPAUansi_string@?1??type_case_Z@?$output_processor@DV?$string_output_adapter@D@__crt_stdio_output@@V?$standard_base@DV?$string_output_adapter@D@__crt_stdio_output@@@2@@1@AAE_NXZ@@Z 10046330 f i libucrtd:output.obj
 0001:00045360       ??$extract_argument_from_va_list@PAUansi_string@?1??type_case_Z@?$output_processor@_WV?$stream_output_adapter@_W@__crt_stdio_output@@V?$format_validation_base@_WV?$stream_output_adapter@_W@__crt_stdio_output@@@2@@__crt_stdio_output@@AAE_NXZ@PAU1?1??234@AAE_NXZ@@?$standard_base@_WV?$stream_output_adapter@_W@__crt_stdio_output@@@__crt_stdio_output@@IAE_NAAPAUansi_string@?1??type_case_Z@?$output_processor@_WV?$stream_output_adapter@_W@__crt_stdio_output@@V?$format_validation_base@_WV?$stream_output_adapter@_W@__crt_stdio_output@@@2@@1@AAE_NXZ@@Z 10046360 f i libucrtd:output.obj
 0001:00045390       ??$extract_argument_from_va_list@PAUansi_string@?1??type_case_Z@?$output_processor@_WV?$stream_output_adapter@_W@__crt_stdio_output@@V?$positional_parameter_base@_WV?$stream_output_adapter@_W@__crt_stdio_output@@@2@@__crt_stdio_output@@AAE_NXZ@PAU1?1??234@AAE_NXZ@@?$positional_parameter_base@_WV?$stream_output_adapter@_W@__crt_stdio_output@@@__crt_stdio_output@@IAE_NAAPAUansi_string@?1??type_case_Z@?$output_processor@_WV?$stream_output_adapter@_W@__crt_stdio_output@@V?$positional_parameter_base@_WV?$stream_output_adapter@_W@__crt_stdio_output@@@2@@1@AAE_NXZ@@Z 10046390 f i libucrtd:output.obj
 0001:000454c0       ??$extract_argument_from_va_list@PAUansi_string@?1??type_case_Z@?$output_processor@_WV?$stream_output_adapter@_W@__crt_stdio_output@@V?$positional_parameter_base@_WV?$stream_output_adapter@_W@__crt_stdio_output@@@2@@__crt_stdio_output@@AAE_NXZ@PAU1?1??234@AAE_NXZ@@?$standard_base@_WV?$stream_output_adapter@_W@__crt_stdio_output@@@__crt_stdio_output@@IAE_NAAPAUansi_string@?1??type_case_Z@?$output_processor@_WV?$stream_output_adapter@_W@__crt_stdio_output@@V?$positional_parameter_base@_WV?$stream_output_adapter@_W@__crt_stdio_output@@@2@@1@AAE_NXZ@@Z 100464c0 f i libucrtd:output.obj
 0001:000454f0       ??$extract_argument_from_va_list@PAUansi_string@?1??type_case_Z@?$output_processor@_WV?$stream_output_adapter@_W@__crt_stdio_output@@V?$standard_base@_WV?$stream_output_adapter@_W@__crt_stdio_output@@@2@@__crt_stdio_output@@AAE_NXZ@PAU1?1??234@AAE_NXZ@@?$standard_base@_WV?$stream_output_adapter@_W@__crt_stdio_output@@@__crt_stdio_output@@IAE_NAAPAUansi_string@?1??type_case_Z@?$output_processor@_WV?$stream_output_adapter@_W@__crt_stdio_output@@V?$standard_base@_WV?$stream_output_adapter@_W@__crt_stdio_output@@@2@@1@AAE_NXZ@@Z 100464f0 f i libucrtd:output.obj
 0001:00045520       ??$extract_argument_from_va_list@PAUansi_string@?1??type_case_Z@?$output_processor@_WV?$string_output_adapter@_W@__crt_stdio_output@@V?$format_validation_base@_WV?$string_output_adapter@_W@__crt_stdio_output@@@2@@__crt_stdio_output@@AAE_NXZ@PAU1?1??234@AAE_NXZ@@?$standard_base@_WV?$string_output_adapter@_W@__crt_stdio_output@@@__crt_stdio_output@@IAE_NAAPAUansi_string@?1??type_case_Z@?$output_processor@_WV?$string_output_adapter@_W@__crt_stdio_output@@V?$format_validation_base@_WV?$string_output_adapter@_W@__crt_stdio_output@@@2@@1@AAE_NXZ@@Z 10046520 f i libucrtd:output.obj
 0001:00045550       ??$extract_argument_from_va_list@PAUansi_string@?1??type_case_Z@?$output_processor@_WV?$string_output_adapter@_W@__crt_stdio_output@@V?$positional_parameter_base@_WV?$string_output_adapter@_W@__crt_stdio_output@@@2@@__crt_stdio_output@@AAE_NXZ@PAU1?1??234@AAE_NXZ@@?$positional_parameter_base@_WV?$string_output_adapter@_W@__crt_stdio_output@@@__crt_stdio_output@@IAE_NAAPAUansi_string@?1??type_case_Z@?$output_processor@_WV?$string_output_adapter@_W@__crt_stdio_output@@V?$positional_parameter_base@_WV?$string_output_adapter@_W@__crt_stdio_output@@@2@@1@AAE_NXZ@@Z 10046550 f i libucrtd:output.obj
 0001:00045680       ??$extract_argument_from_va_list@PAUansi_string@?1??type_case_Z@?$output_processor@_WV?$string_output_adapter@_W@__crt_stdio_output@@V?$positional_parameter_base@_WV?$string_output_adapter@_W@__crt_stdio_output@@@2@@__crt_stdio_output@@AAE_NXZ@PAU1?1??234@AAE_NXZ@@?$standard_base@_WV?$string_output_adapter@_W@__crt_stdio_output@@@__crt_stdio_output@@IAE_NAAPAUansi_string@?1??type_case_Z@?$output_processor@_WV?$string_output_adapter@_W@__crt_stdio_output@@V?$positional_parameter_base@_WV?$string_output_adapter@_W@__crt_stdio_output@@@2@@1@AAE_NXZ@@Z 10046680 f i libucrtd:output.obj
 0001:000456b0       ??$extract_argument_from_va_list@PAUansi_string@?1??type_case_Z@?$output_processor@_WV?$string_output_adapter@_W@__crt_stdio_output@@V?$standard_base@_WV?$string_output_adapter@_W@__crt_stdio_output@@@2@@__crt_stdio_output@@AAE_NXZ@PAU1?1??234@AAE_NXZ@@?$standard_base@_WV?$string_output_adapter@_W@__crt_stdio_output@@@__crt_stdio_output@@IAE_NAAPAUansi_string@?1??type_case_Z@?$output_processor@_WV?$string_output_adapter@_W@__crt_stdio_output@@V?$standard_base@_WV?$string_output_adapter@_W@__crt_stdio_output@@@2@@1@AAE_NXZ@@Z 100466b0 f i libucrtd:output.obj
 0001:000456e0       ??$extract_argument_from_va_list@PAXPAX@?$positional_parameter_base@DV?$stream_output_adapter@D@__crt_stdio_output@@@__crt_stdio_output@@IAE_NAAPAX@Z 100466e0 f i libucrtd:output.obj
 0001:00045810       ??$extract_argument_from_va_list@PAXPAX@?$positional_parameter_base@DV?$string_output_adapter@D@__crt_stdio_output@@@__crt_stdio_output@@IAE_NAAPAX@Z 10046810 f i libucrtd:output.obj
 0001:00045940       ??$extract_argument_from_va_list@PAXPAX@?$positional_parameter_base@_WV?$stream_output_adapter@_W@__crt_stdio_output@@@__crt_stdio_output@@IAE_NAAPAX@Z 10046940 f i libucrtd:output.obj
 0001:00045a70       ??$extract_argument_from_va_list@PAXPAX@?$positional_parameter_base@_WV?$string_output_adapter@_W@__crt_stdio_output@@@__crt_stdio_output@@IAE_NAAPAX@Z 10046a70 f i libucrtd:output.obj
 0001:00045ba0       ??$extract_argument_from_va_list@PAXPAX@?$standard_base@DV?$stream_output_adapter@D@__crt_stdio_output@@@__crt_stdio_output@@IAE_NAAPAX@Z 10046ba0 f i libucrtd:output.obj
 0001:00045bd0       ??$extract_argument_from_va_list@PAXPAX@?$standard_base@DV?$string_output_adapter@D@__crt_stdio_output@@@__crt_stdio_output@@IAE_NAAPAX@Z 10046bd0 f i libucrtd:output.obj
 0001:00045c00       ??$extract_argument_from_va_list@PAXPAX@?$standard_base@_WV?$stream_output_adapter@_W@__crt_stdio_output@@@__crt_stdio_output@@IAE_NAAPAX@Z 10046c00 f i libucrtd:output.obj
 0001:00045c30       ??$extract_argument_from_va_list@PAXPAX@?$standard_base@_WV?$string_output_adapter@_W@__crt_stdio_output@@@__crt_stdio_output@@IAE_NAAPAX@Z 10046c30 f i libucrtd:output.obj
 0001:00045c60       ??$extract_argument_from_va_list@U_CRT_DOUBLE@@U1@@?$positional_parameter_base@DV?$stream_output_adapter@D@__crt_stdio_output@@@__crt_stdio_output@@IAE_NAAU_CRT_DOUBLE@@@Z 10046c60 f i libucrtd:output.obj
 0001:00045dc0       ??$extract_argument_from_va_list@U_CRT_DOUBLE@@U1@@?$positional_parameter_base@DV?$string_output_adapter@D@__crt_stdio_output@@@__crt_stdio_output@@IAE_NAAU_CRT_DOUBLE@@@Z 10046dc0 f i libucrtd:output.obj
 0001:00045f20       ??$extract_argument_from_va_list@U_CRT_DOUBLE@@U1@@?$positional_parameter_base@_WV?$stream_output_adapter@_W@__crt_stdio_output@@@__crt_stdio_output@@IAE_NAAU_CRT_DOUBLE@@@Z 10046f20 f i libucrtd:output.obj
 0001:00046080       ??$extract_argument_from_va_list@U_CRT_DOUBLE@@U1@@?$positional_parameter_base@_WV?$string_output_adapter@_W@__crt_stdio_output@@@__crt_stdio_output@@IAE_NAAU_CRT_DOUBLE@@@Z 10047080 f i libucrtd:output.obj
 0001:000461e0       ??$extract_argument_from_va_list@U_CRT_DOUBLE@@U1@@?$standard_base@DV?$stream_output_adapter@D@__crt_stdio_output@@@__crt_stdio_output@@IAE_NAAU_CRT_DOUBLE@@@Z 100471e0 f i libucrtd:output.obj
 0001:00046230       ??$extract_argument_from_va_list@U_CRT_DOUBLE@@U1@@?$standard_base@DV?$string_output_adapter@D@__crt_stdio_output@@@__crt_stdio_output@@IAE_NAAU_CRT_DOUBLE@@@Z 10047230 f i libucrtd:output.obj
 0001:00046280       ??$extract_argument_from_va_list@U_CRT_DOUBLE@@U1@@?$standard_base@_WV?$stream_output_adapter@_W@__crt_stdio_output@@@__crt_stdio_output@@IAE_NAAU_CRT_DOUBLE@@@Z 10047280 f i libucrtd:output.obj
 0001:000462d0       ??$extract_argument_from_va_list@U_CRT_DOUBLE@@U1@@?$standard_base@_WV?$string_output_adapter@_W@__crt_stdio_output@@@__crt_stdio_output@@IAE_NAAU_CRT_DOUBLE@@@Z 100472d0 f i libucrtd:output.obj
 0001:00046320       ??$extract_argument_from_va_list@_J_J@?$positional_parameter_base@DV?$stream_output_adapter@D@__crt_stdio_output@@@__crt_stdio_output@@IAE_NAA_J@Z 10047320 f i libucrtd:output.obj
 0001:00046450       ??$extract_argument_from_va_list@_J_J@?$positional_parameter_base@DV?$string_output_adapter@D@__crt_stdio_output@@@__crt_stdio_output@@IAE_NAA_J@Z 10047450 f i libucrtd:output.obj
 0001:00046580       ??$extract_argument_from_va_list@_J_J@?$positional_parameter_base@_WV?$stream_output_adapter@_W@__crt_stdio_output@@@__crt_stdio_output@@IAE_NAA_J@Z 10047580 f i libucrtd:output.obj
 0001:000466b0       ??$extract_argument_from_va_list@_J_J@?$positional_parameter_base@_WV?$string_output_adapter@_W@__crt_stdio_output@@@__crt_stdio_output@@IAE_NAA_J@Z 100476b0 f i libucrtd:output.obj
 0001:000467e0       ??$extract_argument_from_va_list@_J_J@?$standard_base@DV?$stream_output_adapter@D@__crt_stdio_output@@@__crt_stdio_output@@IAE_NAA_J@Z 100477e0 f i libucrtd:output.obj
 0001:00046810       ??$extract_argument_from_va_list@_J_J@?$standard_base@DV?$string_output_adapter@D@__crt_stdio_output@@@__crt_stdio_output@@IAE_NAA_J@Z 10047810 f i libucrtd:output.obj
 0001:00046840       ??$extract_argument_from_va_list@_J_J@?$standard_base@_WV?$stream_output_adapter@_W@__crt_stdio_output@@@__crt_stdio_output@@IAE_NAA_J@Z 10047840 f i libucrtd:output.obj
 0001:00046870       ??$extract_argument_from_va_list@_J_J@?$standard_base@_WV?$string_output_adapter@_W@__crt_stdio_output@@@__crt_stdio_output@@IAE_NAA_J@Z 10047870 f i libucrtd:output.obj
 0001:000468a0       ??$extract_argument_from_va_list@_K_J@?$positional_parameter_base@DV?$stream_output_adapter@D@__crt_stdio_output@@@__crt_stdio_output@@IAE_NAA_J@Z 100478a0 f i libucrtd:output.obj
 0001:000469d0       ??$extract_argument_from_va_list@_K_J@?$positional_parameter_base@DV?$string_output_adapter@D@__crt_stdio_output@@@__crt_stdio_output@@IAE_NAA_J@Z 100479d0 f i libucrtd:output.obj
 0001:00046b00       ??$extract_argument_from_va_list@_K_J@?$positional_parameter_base@_WV?$stream_output_adapter@_W@__crt_stdio_output@@@__crt_stdio_output@@IAE_NAA_J@Z 10047b00 f i libucrtd:output.obj
 0001:00046c30       ??$extract_argument_from_va_list@_K_J@?$positional_parameter_base@_WV?$string_output_adapter@_W@__crt_stdio_output@@@__crt_stdio_output@@IAE_NAA_J@Z 10047c30 f i libucrtd:output.obj
 0001:00046d60       ??$extract_argument_from_va_list@_K_J@?$standard_base@DV?$stream_output_adapter@D@__crt_stdio_output@@@__crt_stdio_output@@IAE_NAA_J@Z 10047d60 f i libucrtd:output.obj
 0001:00046d90       ??$extract_argument_from_va_list@_K_J@?$standard_base@DV?$string_output_adapter@D@__crt_stdio_output@@@__crt_stdio_output@@IAE_NAA_J@Z 10047d90 f i libucrtd:output.obj
 0001:00046dc0       ??$extract_argument_from_va_list@_K_J@?$standard_base@_WV?$stream_output_adapter@_W@__crt_stdio_output@@@__crt_stdio_output@@IAE_NAA_J@Z 10047dc0 f i libucrtd:output.obj
 0001:00046df0       ??$extract_argument_from_va_list@_K_J@?$standard_base@_WV?$string_output_adapter@_W@__crt_stdio_output@@@__crt_stdio_output@@IAE_NAA_J@Z 10047df0 f i libucrtd:output.obj
 0001:00046e20       ??$extract_argument_from_va_list@_W_W@?$positional_parameter_base@DV?$stream_output_adapter@D@__crt_stdio_output@@@__crt_stdio_output@@IAE_NAA_W@Z 10047e20 f i libucrtd:output.obj
 0001:00046f50       ??$extract_argument_from_va_list@_W_W@?$positional_parameter_base@DV?$string_output_adapter@D@__crt_stdio_output@@@__crt_stdio_output@@IAE_NAA_W@Z 10047f50 f i libucrtd:output.obj
 0001:00047080       ??$extract_argument_from_va_list@_W_W@?$positional_parameter_base@_WV?$stream_output_adapter@_W@__crt_stdio_output@@@__crt_stdio_output@@IAE_NAA_W@Z 10048080 f i libucrtd:output.obj
 0001:000471b0       ??$extract_argument_from_va_list@_W_W@?$positional_parameter_base@_WV?$string_output_adapter@_W@__crt_stdio_output@@@__crt_stdio_output@@IAE_NAA_W@Z 100481b0 f i libucrtd:output.obj
 0001:000472e0       ??$extract_argument_from_va_list@_W_W@?$standard_base@DV?$stream_output_adapter@D@__crt_stdio_output@@@__crt_stdio_output@@IAE_NAA_W@Z 100482e0 f i libucrtd:output.obj
 0001:00047310       ??$extract_argument_from_va_list@_W_W@?$standard_base@DV?$string_output_adapter@D@__crt_stdio_output@@@__crt_stdio_output@@IAE_NAA_W@Z 10048310 f i libucrtd:output.obj
 0001:00047340       ??$extract_argument_from_va_list@_W_W@?$standard_base@_WV?$stream_output_adapter@_W@__crt_stdio_output@@@__crt_stdio_output@@IAE_NAA_W@Z 10048340 f i libucrtd:output.obj
 0001:00047370       ??$extract_argument_from_va_list@_W_W@?$standard_base@_WV?$string_output_adapter@_W@__crt_stdio_output@@@__crt_stdio_output@@IAE_NAA_W@Z 10048370 f i libucrtd:output.obj
 0001:000473a0       ??$get_parameter_type@D@?$positional_parameter_base@DV?$stream_output_adapter@D@__crt_stdio_output@@@__crt_stdio_output@@CA?AW4parameter_type@01@PAD@Z 100483a0 f i libucrtd:output.obj
 0001:000473b0       ??$get_parameter_type@D@?$positional_parameter_base@DV?$string_output_adapter@D@__crt_stdio_output@@@__crt_stdio_output@@CA?AW4parameter_type@01@PAD@Z 100483b0 f i libucrtd:output.obj
 0001:000473c0       ??$get_parameter_type@D@?$positional_parameter_base@_WV?$stream_output_adapter@_W@__crt_stdio_output@@@__crt_stdio_output@@CA?AW4parameter_type@01@PAD@Z 100483c0 f i libucrtd:output.obj
 0001:000473d0       ??$get_parameter_type@D@?$positional_parameter_base@_WV?$string_output_adapter@_W@__crt_stdio_output@@@__crt_stdio_output@@CA?AW4parameter_type@01@PAD@Z 100483d0 f i libucrtd:output.obj
 0001:000473e0       ??$get_parameter_type@Uansi_string@?1??type_case_Z@?$output_processor@DV?$stream_output_adapter@D@__crt_stdio_output@@V?$positional_parameter_base@DV?$stream_output_adapter@D@__crt_stdio_output@@@2@@__crt_stdio_output@@AAE_NXZ@@?$positional_parameter_base@DV?$stream_output_adapter@D@__crt_stdio_output@@@__crt_stdio_output@@CA?AW4parameter_type@01@PAUansi_string@?1??type_case_Z@?$output_processor@DV?$stream_output_adapter@D@__crt_stdio_output@@V?$positional_parameter_base@DV?$stream_output_adapter@D@__crt_stdio_output@@@2@@1@AAE_NXZ@@Z 100483e0 f i libucrtd:output.obj
 0001:000473f0       ??$get_parameter_type@Uansi_string@?1??type_case_Z@?$output_processor@DV?$string_output_adapter@D@__crt_stdio_output@@V?$positional_parameter_base@DV?$string_output_adapter@D@__crt_stdio_output@@@2@@__crt_stdio_output@@AAE_NXZ@@?$positional_parameter_base@DV?$string_output_adapter@D@__crt_stdio_output@@@__crt_stdio_output@@CA?AW4parameter_type@01@PAUansi_string@?1??type_case_Z@?$output_processor@DV?$string_output_adapter@D@__crt_stdio_output@@V?$positional_parameter_base@DV?$string_output_adapter@D@__crt_stdio_output@@@2@@1@AAE_NXZ@@Z 100483f0 f i libucrtd:output.obj
 0001:00047400       ??$get_parameter_type@Uansi_string@?1??type_case_Z@?$output_processor@_WV?$stream_output_adapter@_W@__crt_stdio_output@@V?$positional_parameter_base@_WV?$stream_output_adapter@_W@__crt_stdio_output@@@2@@__crt_stdio_output@@AAE_NXZ@@?$positional_parameter_base@_WV?$stream_output_adapter@_W@__crt_stdio_output@@@__crt_stdio_output@@CA?AW4parameter_type@01@PAUansi_string@?1??type_case_Z@?$output_processor@_WV?$stream_output_adapter@_W@__crt_stdio_output@@V?$positional_parameter_base@_WV?$stream_output_adapter@_W@__crt_stdio_output@@@2@@1@AAE_NXZ@@Z 10048400 f i libucrtd:output.obj
 0001:00047410       ??$get_parameter_type@Uansi_string@?1??type_case_Z@?$output_processor@_WV?$string_output_adapter@_W@__crt_stdio_output@@V?$positional_parameter_base@_WV?$string_output_adapter@_W@__crt_stdio_output@@@2@@__crt_stdio_output@@AAE_NXZ@@?$positional_parameter_base@_WV?$string_output_adapter@_W@__crt_stdio_output@@@__crt_stdio_output@@CA?AW4parameter_type@01@PAUansi_string@?1??type_case_Z@?$output_processor@_WV?$string_output_adapter@_W@__crt_stdio_output@@V?$positional_parameter_base@_WV?$string_output_adapter@_W@__crt_stdio_output@@@2@@1@AAE_NXZ@@Z 10048410 f i libucrtd:output.obj
 0001:00047420       ??$get_parameter_type@X@?$positional_parameter_base@DV?$stream_output_adapter@D@__crt_stdio_output@@@__crt_stdio_output@@CA?AW4parameter_type@01@PAX@Z 10048420 f i libucrtd:output.obj
 0001:00047430       ??$get_parameter_type@X@?$positional_parameter_base@DV?$string_output_adapter@D@__crt_stdio_output@@@__crt_stdio_output@@CA?AW4parameter_type@01@PAX@Z 10048430 f i libucrtd:output.obj
 0001:00047440       ??$get_parameter_type@X@?$positional_parameter_base@_WV?$stream_output_adapter@_W@__crt_stdio_output@@@__crt_stdio_output@@CA?AW4parameter_type@01@PAX@Z 10048440 f i libucrtd:output.obj
 0001:00047450       ??$get_parameter_type@X@?$positional_parameter_base@_WV?$string_output_adapter@_W@__crt_stdio_output@@@__crt_stdio_output@@CA?AW4parameter_type@01@PAX@Z 10048450 f i libucrtd:output.obj
 0001:00047460       ??$is_character_specifier@D@?$positional_parameter_base@DV?$stream_output_adapter@D@__crt_stdio_output@@@__crt_stdio_output@@CA_ND@Z 10048460 f i libucrtd:output.obj
 0001:00047490       ??$is_character_specifier@D@?$positional_parameter_base@DV?$string_output_adapter@D@__crt_stdio_output@@@__crt_stdio_output@@CA_ND@Z 10048490 f i libucrtd:output.obj
 0001:000474c0       ??$is_character_specifier@_W@?$positional_parameter_base@_WV?$stream_output_adapter@_W@__crt_stdio_output@@@__crt_stdio_output@@CA_N_W@Z 100484c0 f i libucrtd:output.obj
 0001:000474f0       ??$is_character_specifier@_W@?$positional_parameter_base@_WV?$string_output_adapter@_W@__crt_stdio_output@@@__crt_stdio_output@@CA_N_W@Z 100484f0 f i libucrtd:output.obj
 0001:00047520       ??$is_integral_specifier@D@?$positional_parameter_base@DV?$stream_output_adapter@D@__crt_stdio_output@@@__crt_stdio_output@@CA_ND@Z 10048520 f i libucrtd:output.obj
 0001:00047580       ??$is_integral_specifier@D@?$positional_parameter_base@DV?$string_output_adapter@D@__crt_stdio_output@@@__crt_stdio_output@@CA_ND@Z 10048580 f i libucrtd:output.obj
 0001:000475e0       ??$is_integral_specifier@_W@?$positional_parameter_base@_WV?$stream_output_adapter@_W@__crt_stdio_output@@@__crt_stdio_output@@CA_N_W@Z 100485e0 f i libucrtd:output.obj
 0001:00047640       ??$is_integral_specifier@_W@?$positional_parameter_base@_WV?$string_output_adapter@_W@__crt_stdio_output@@@__crt_stdio_output@@CA_N_W@Z 10048640 f i libucrtd:output.obj
 0001:000476a0       ??$is_pointer_specifier@D@?$positional_parameter_base@DV?$stream_output_adapter@D@__crt_stdio_output@@@__crt_stdio_output@@CA_ND@Z 100486a0 f i libucrtd:output.obj
 0001:000476d0       ??$is_pointer_specifier@D@?$positional_parameter_base@DV?$string_output_adapter@D@__crt_stdio_output@@@__crt_stdio_output@@CA_ND@Z 100486d0 f i libucrtd:output.obj
 0001:00047700       ??$is_pointer_specifier@_W@?$positional_parameter_base@_WV?$stream_output_adapter@_W@__crt_stdio_output@@@__crt_stdio_output@@CA_N_W@Z 10048700 f i libucrtd:output.obj
 0001:00047730       ??$is_pointer_specifier@_W@?$positional_parameter_base@_WV?$string_output_adapter@_W@__crt_stdio_output@@@__crt_stdio_output@@CA_N_W@Z 10048730 f i libucrtd:output.obj
 0001:00047760       ??$is_string_specifier@D@?$positional_parameter_base@DV?$stream_output_adapter@D@__crt_stdio_output@@@__crt_stdio_output@@CA_ND@Z 10048760 f i libucrtd:output.obj
 0001:00047790       ??$is_string_specifier@D@?$positional_parameter_base@DV?$string_output_adapter@D@__crt_stdio_output@@@__crt_stdio_output@@CA_ND@Z 10048790 f i libucrtd:output.obj
 0001:000477c0       ??$is_string_specifier@_W@?$positional_parameter_base@_WV?$stream_output_adapter@_W@__crt_stdio_output@@@__crt_stdio_output@@CA_N_W@Z 100487c0 f i libucrtd:output.obj
 0001:000477f0       ??$is_string_specifier@_W@?$positional_parameter_base@_WV?$string_output_adapter@_W@__crt_stdio_output@@@__crt_stdio_output@@CA_N_W@Z 100487f0 f i libucrtd:output.obj
 0001:00047820       ??$is_wide_character_specifier@D@__crt_stdio_output@@YA_N_KDW4length_modifier@0@@Z 10048820 f i libucrtd:output.obj
 0001:000478a0       ??$is_wide_character_specifier@_W@__crt_stdio_output@@YA_N_K_WW4length_modifier@0@@Z 100488a0 f i libucrtd:output.obj
 0001:00047960       ??$peek_va_arg@C@__crt_stdio_output@@YACPAD@Z 10048960 f i libucrtd:output.obj
 0001:00047980       ??$peek_va_arg@E@__crt_stdio_output@@YAEPAD@Z 10048980 f i libucrtd:output.obj
 0001:000479a0       ??$peek_va_arg@F@__crt_stdio_output@@YAFPAD@Z 100489a0 f i libucrtd:output.obj
 0001:000479c0       ??$peek_va_arg@G@__crt_stdio_output@@YAGPAD@Z 100489c0 f i libucrtd:output.obj
 0001:000479e0       ??$peek_va_arg@H@__crt_stdio_output@@YAHPAD@Z 100489e0 f i libucrtd:output.obj
 0001:00047a00       ??$peek_va_arg@I@__crt_stdio_output@@YAIPAD@Z 10048a00 f i libucrtd:output.obj
 0001:00047a20       ??$peek_va_arg@PAD@__crt_stdio_output@@YAPADPAD@Z 10048a20 f i libucrtd:output.obj
 0001:00047a40       ??$peek_va_arg@PAUansi_string@?1??type_case_Z@?$output_processor@DV?$stream_output_adapter@D@__crt_stdio_output@@V?$positional_parameter_base@DV?$stream_output_adapter@D@__crt_stdio_output@@@2@@__crt_stdio_output@@AAE_NXZ@@__crt_stdio_output@@YAPAUansi_string@?1??type_case_Z@?$output_processor@DV?$stream_output_adapter@D@__crt_stdio_output@@V?$positional_parameter_base@DV?$stream_output_adapter@D@__crt_stdio_output@@@2@@0@AAE_NXZ@PAD@Z 10048a40 f i libucrtd:output.obj
 0001:00047a60       ??$peek_va_arg@PAUansi_string@?1??type_case_Z@?$output_processor@DV?$string_output_adapter@D@__crt_stdio_output@@V?$positional_parameter_base@DV?$string_output_adapter@D@__crt_stdio_output@@@2@@__crt_stdio_output@@AAE_NXZ@@__crt_stdio_output@@YAPAUansi_string@?1??type_case_Z@?$output_processor@DV?$string_output_adapter@D@__crt_stdio_output@@V?$positional_parameter_base@DV?$string_output_adapter@D@__crt_stdio_output@@@2@@0@AAE_NXZ@PAD@Z 10048a60 f i libucrtd:output.obj
 0001:00047a80       ??$peek_va_arg@PAUansi_string@?1??type_case_Z@?$output_processor@_WV?$stream_output_adapter@_W@__crt_stdio_output@@V?$positional_parameter_base@_WV?$stream_output_adapter@_W@__crt_stdio_output@@@2@@__crt_stdio_output@@AAE_NXZ@@__crt_stdio_output@@YAPAUansi_string@?1??type_case_Z@?$output_processor@_WV?$stream_output_adapter@_W@__crt_stdio_output@@V?$positional_parameter_base@_WV?$stream_output_adapter@_W@__crt_stdio_output@@@2@@0@AAE_NXZ@PAD@Z 10048a80 f i libucrtd:output.obj
 0001:00047aa0       ??$peek_va_arg@PAUansi_string@?1??type_case_Z@?$output_processor@_WV?$string_output_adapter@_W@__crt_stdio_output@@V?$positional_parameter_base@_WV?$string_output_adapter@_W@__crt_stdio_output@@@2@@__crt_stdio_output@@AAE_NXZ@@__crt_stdio_output@@YAPAUansi_string@?1??type_case_Z@?$output_processor@_WV?$string_output_adapter@_W@__crt_stdio_output@@V?$positional_parameter_base@_WV?$string_output_adapter@_W@__crt_stdio_output@@@2@@0@AAE_NXZ@PAD@Z 10048aa0 f i libucrtd:output.obj
 0001:00047ac0       ??$peek_va_arg@PAX@__crt_stdio_output@@YAPAXPAD@Z 10048ac0 f i libucrtd:output.obj
 0001:00047ae0       ??$peek_va_arg@U_CRT_DOUBLE@@@__crt_stdio_output@@YA?AU_CRT_DOUBLE@@PAD@Z 10048ae0 f i libucrtd:output.obj
 0001:00047b00       ??$peek_va_arg@_J@__crt_stdio_output@@YA_JPAD@Z 10048b00 f i libucrtd:output.obj
 0001:00047b20       ??$peek_va_arg@_K@__crt_stdio_output@@YA_KPAD@Z 10048b20 f i libucrtd:output.obj
 0001:00047b40       ??$peek_va_arg@_W@__crt_stdio_output@@YA_WPAD@Z 10048b40 f i libucrtd:output.obj
 0001:00047b60       ??$puttc_nolock@ABDPAU_iobuf@@@?$__crt_char_traits@D@@SAHABD$$QAPAU_iobuf@@@Z 10048b60 f i libucrtd:output.obj
 0001:00047b80       ??$puttc_nolock@AB_WPAU_iobuf@@@?$__crt_char_traits@_W@@SAGAB_W$$QAPAU_iobuf@@@Z 10048b80 f i libucrtd:output.obj
 0001:00047ba0       ??$read_va_arg@C@__crt_stdio_output@@YACAAPAD@Z 10048ba0 f i libucrtd:output.obj
 0001:00047bc0       ??$read_va_arg@E@__crt_stdio_output@@YAEAAPAD@Z 10048bc0 f i libucrtd:output.obj
 0001:00047be0       ??$read_va_arg@F@__crt_stdio_output@@YAFAAPAD@Z 10048be0 f i libucrtd:output.obj
 0001:00047c00       ??$read_va_arg@G@__crt_stdio_output@@YAGAAPAD@Z 10048c00 f i libucrtd:output.obj
 0001:00047c20       ??$read_va_arg@H@__crt_stdio_output@@YAHAAPAD@Z 10048c20 f i libucrtd:output.obj
 0001:00047c40       ??$read_va_arg@I@__crt_stdio_output@@YAIAAPAD@Z 10048c40 f i libucrtd:output.obj
 0001:00047c60       ??$read_va_arg@PAD@__crt_stdio_output@@YAPADAAPAD@Z 10048c60 f i libucrtd:output.obj
 0001:00047c80       ??$read_va_arg@PAUansi_string@?1??type_case_Z@?$output_processor@DV?$stream_output_adapter@D@__crt_stdio_output@@V?$format_validation_base@DV?$stream_output_adapter@D@__crt_stdio_output@@@2@@__crt_stdio_output@@AAE_NXZ@@__crt_stdio_output@@YAPAUansi_string@?1??type_case_Z@?$output_processor@DV?$stream_output_adapter@D@__crt_stdio_output@@V?$format_validation_base@DV?$stream_output_adapter@D@__crt_stdio_output@@@2@@0@AAE_NXZ@AAPAD@Z 10048c80 f i libucrtd:output.obj
 0001:00047ca0       ??$read_va_arg@PAUansi_string@?1??type_case_Z@?$output_processor@DV?$stream_output_adapter@D@__crt_stdio_output@@V?$positional_parameter_base@DV?$stream_output_adapter@D@__crt_stdio_output@@@2@@__crt_stdio_output@@AAE_NXZ@@__crt_stdio_output@@YAPAUansi_string@?1??type_case_Z@?$output_processor@DV?$stream_output_adapter@D@__crt_stdio_output@@V?$positional_parameter_base@DV?$stream_output_adapter@D@__crt_stdio_output@@@2@@0@AAE_NXZ@AAPAD@Z 10048ca0 f i libucrtd:output.obj
 0001:00047cc0       ??$read_va_arg@PAUansi_string@?1??type_case_Z@?$output_processor@DV?$stream_output_adapter@D@__crt_stdio_output@@V?$standard_base@DV?$stream_output_adapter@D@__crt_stdio_output@@@2@@__crt_stdio_output@@AAE_NXZ@@__crt_stdio_output@@YAPAUansi_string@?1??type_case_Z@?$output_processor@DV?$stream_output_adapter@D@__crt_stdio_output@@V?$standard_base@DV?$stream_output_adapter@D@__crt_stdio_output@@@2@@0@AAE_NXZ@AAPAD@Z 10048cc0 f i libucrtd:output.obj
 0001:00047ce0       ??$read_va_arg@PAUansi_string@?1??type_case_Z@?$output_processor@DV?$string_output_adapter@D@__crt_stdio_output@@V?$format_validation_base@DV?$string_output_adapter@D@__crt_stdio_output@@@2@@__crt_stdio_output@@AAE_NXZ@@__crt_stdio_output@@YAPAUansi_string@?1??type_case_Z@?$output_processor@DV?$string_output_adapter@D@__crt_stdio_output@@V?$format_validation_base@DV?$string_output_adapter@D@__crt_stdio_output@@@2@@0@AAE_NXZ@AAPAD@Z 10048ce0 f i libucrtd:output.obj
 0001:00047d00       ??$read_va_arg@PAUansi_string@?1??type_case_Z@?$output_processor@DV?$string_output_adapter@D@__crt_stdio_output@@V?$positional_parameter_base@DV?$string_output_adapter@D@__crt_stdio_output@@@2@@__crt_stdio_output@@AAE_NXZ@@__crt_stdio_output@@YAPAUansi_string@?1??type_case_Z@?$output_processor@DV?$string_output_adapter@D@__crt_stdio_output@@V?$positional_parameter_base@DV?$string_output_adapter@D@__crt_stdio_output@@@2@@0@AAE_NXZ@AAPAD@Z 10048d00 f i libucrtd:output.obj
 0001:00047d20       ??$read_va_arg@PAUansi_string@?1??type_case_Z@?$output_processor@DV?$string_output_adapter@D@__crt_stdio_output@@V?$standard_base@DV?$string_output_adapter@D@__crt_stdio_output@@@2@@__crt_stdio_output@@AAE_NXZ@@__crt_stdio_output@@YAPAUansi_string@?1??type_case_Z@?$output_processor@DV?$string_output_adapter@D@__crt_stdio_output@@V?$standard_base@DV?$string_output_adapter@D@__crt_stdio_output@@@2@@0@AAE_NXZ@AAPAD@Z 10048d20 f i libucrtd:output.obj
 0001:00047d40       ??$read_va_arg@PAUansi_string@?1??type_case_Z@?$output_processor@_WV?$stream_output_adapter@_W@__crt_stdio_output@@V?$format_validation_base@_WV?$stream_output_adapter@_W@__crt_stdio_output@@@2@@__crt_stdio_output@@AAE_NXZ@@__crt_stdio_output@@YAPAUansi_string@?1??type_case_Z@?$output_processor@_WV?$stream_output_adapter@_W@__crt_stdio_output@@V?$format_validation_base@_WV?$stream_output_adapter@_W@__crt_stdio_output@@@2@@0@AAE_NXZ@AAPAD@Z 10048d40 f i libucrtd:output.obj
 0001:00047d60       ??$read_va_arg@PAUansi_string@?1??type_case_Z@?$output_processor@_WV?$stream_output_adapter@_W@__crt_stdio_output@@V?$positional_parameter_base@_WV?$stream_output_adapter@_W@__crt_stdio_output@@@2@@__crt_stdio_output@@AAE_NXZ@@__crt_stdio_output@@YAPAUansi_string@?1??type_case_Z@?$output_processor@_WV?$stream_output_adapter@_W@__crt_stdio_output@@V?$positional_parameter_base@_WV?$stream_output_adapter@_W@__crt_stdio_output@@@2@@0@AAE_NXZ@AAPAD@Z 10048d60 f i libucrtd:output.obj
 0001:00047d80       ??$read_va_arg@PAUansi_string@?1??type_case_Z@?$output_processor@_WV?$stream_output_adapter@_W@__crt_stdio_output@@V?$standard_base@_WV?$stream_output_adapter@_W@__crt_stdio_output@@@2@@__crt_stdio_output@@AAE_NXZ@@__crt_stdio_output@@YAPAUansi_string@?1??type_case_Z@?$output_processor@_WV?$stream_output_adapter@_W@__crt_stdio_output@@V?$standard_base@_WV?$stream_output_adapter@_W@__crt_stdio_output@@@2@@0@AAE_NXZ@AAPAD@Z 10048d80 f i libucrtd:output.obj
 0001:00047da0       ??$read_va_arg@PAUansi_string@?1??type_case_Z@?$output_processor@_WV?$string_output_adapter@_W@__crt_stdio_output@@V?$format_validation_base@_WV?$string_output_adapter@_W@__crt_stdio_output@@@2@@__crt_stdio_output@@AAE_NXZ@@__crt_stdio_output@@YAPAUansi_string@?1??type_case_Z@?$output_processor@_WV?$string_output_adapter@_W@__crt_stdio_output@@V?$format_validation_base@_WV?$string_output_adapter@_W@__crt_stdio_output@@@2@@0@AAE_NXZ@AAPAD@Z 10048da0 f i libucrtd:output.obj
 0001:00047dc0       ??$read_va_arg@PAUansi_string@?1??type_case_Z@?$output_processor@_WV?$string_output_adapter@_W@__crt_stdio_output@@V?$positional_parameter_base@_WV?$string_output_adapter@_W@__crt_stdio_output@@@2@@__crt_stdio_output@@AAE_NXZ@@__crt_stdio_output@@YAPAUansi_string@?1??type_case_Z@?$output_processor@_WV?$string_output_adapter@_W@__crt_stdio_output@@V?$positional_parameter_base@_WV?$string_output_adapter@_W@__crt_stdio_output@@@2@@0@AAE_NXZ@AAPAD@Z 10048dc0 f i libucrtd:output.obj
 0001:00047de0       ??$read_va_arg@PAUansi_string@?1??type_case_Z@?$output_processor@_WV?$string_output_adapter@_W@__crt_stdio_output@@V?$standard_base@_WV?$string_output_adapter@_W@__crt_stdio_output@@@2@@__crt_stdio_output@@AAE_NXZ@@__crt_stdio_output@@YAPAUansi_string@?1??type_case_Z@?$output_processor@_WV?$string_output_adapter@_W@__crt_stdio_output@@V?$standard_base@_WV?$string_output_adapter@_W@__crt_stdio_output@@@2@@0@AAE_NXZ@AAPAD@Z 10048de0 f i libucrtd:output.obj
 0001:00047e00       ??$read_va_arg@PAX@__crt_stdio_output@@YAPAXAAPAD@Z 10048e00 f i libucrtd:output.obj
 0001:00047e20       ??$read_va_arg@U_CRT_DOUBLE@@@__crt_stdio_output@@YA?AU_CRT_DOUBLE@@AAPAD@Z 10048e20 f i libucrtd:output.obj
 0001:00047e40       ??$read_va_arg@_J@__crt_stdio_output@@YA_JAAPAD@Z 10048e40 f i libucrtd:output.obj
 0001:00047e60       ??$read_va_arg@_K@__crt_stdio_output@@YA_KAAPAD@Z 10048e60 f i libucrtd:output.obj
 0001:00047e80       ??$read_va_arg@_W@__crt_stdio_output@@YA_WAAPAD@Z 10048e80 f i libucrtd:output.obj
 0001:00047ea0       ??$scratch_count@D@formatting_buffer@__crt_stdio_output@@QBEIXZ 10048ea0 f i libucrtd:output.obj
 0001:00047ec0       ??$scratch_data@D@formatting_buffer@__crt_stdio_output@@QAEPADXZ 10048ec0 f i libucrtd:output.obj
 0001:00047f10       ??$tcstol@AAPBDPAPADH@?$__crt_char_traits@D@@SAJAAPBD$$QAPAPAD$$QAH@Z 10048f10 f i libucrtd:output.obj
 0001:00047f40       ??$tcstol@AAPB_WPAPA_WH@?$__crt_char_traits@_W@@SAJAAPB_W$$QAPAPA_W$$QAH@Z 10048f40 f i libucrtd:output.obj
 0001:00047f70       ??$tcstol@PBDPAPADH@?$__crt_char_traits@D@@SAJ$$QAPBD$$QAPAPAD$$QAH@Z 10048f70 f i libucrtd:output.obj
 0001:00047fa0       ??$tcstol@PB_WPAPA_WH@?$__crt_char_traits@_W@@SAJ$$QAPB_W$$QAPAPA_W$$QAH@Z 10048fa0 f i libucrtd:output.obj
 0001:00047fd0       ??$type_case_integer_parse_into_buffer@I@?$output_processor@DV?$stream_output_adapter@D@__crt_stdio_output@@V?$format_validation_base@DV?$stream_output_adapter@D@__crt_stdio_output@@@2@@__crt_stdio_output@@AAEXII_N@Z 10048fd0 f i libucrtd:output.obj
 0001:000480a0       ??$type_case_integer_parse_into_buffer@I@?$output_processor@DV?$stream_output_adapter@D@__crt_stdio_output@@V?$positional_parameter_base@DV?$stream_output_adapter@D@__crt_stdio_output@@@2@@__crt_stdio_output@@AAEXII_N@Z 100490a0 f i libucrtd:output.obj
 0001:00048170       ??$type_case_integer_parse_into_buffer@I@?$output_processor@DV?$stream_output_adapter@D@__crt_stdio_output@@V?$standard_base@DV?$stream_output_adapter@D@__crt_stdio_output@@@2@@__crt_stdio_output@@AAEXII_N@Z 10049170 f i libucrtd:output.obj
 0001:00048240       ??$type_case_integer_parse_into_buffer@I@?$output_processor@DV?$string_output_adapter@D@__crt_stdio_output@@V?$format_validation_base@DV?$string_output_adapter@D@__crt_stdio_output@@@2@@__crt_stdio_output@@AAEXII_N@Z 10049240 f i libucrtd:output.obj
 0001:00048310       ??$type_case_integer_parse_into_buffer@I@?$output_processor@DV?$string_output_adapter@D@__crt_stdio_output@@V?$positional_parameter_base@DV?$string_output_adapter@D@__crt_stdio_output@@@2@@__crt_stdio_output@@AAEXII_N@Z 10049310 f i libucrtd:output.obj
 0001:000483e0       ??$type_case_integer_parse_into_buffer@I@?$output_processor@DV?$string_output_adapter@D@__crt_stdio_output@@V?$standard_base@DV?$string_output_adapter@D@__crt_stdio_output@@@2@@__crt_stdio_output@@AAEXII_N@Z 100493e0 f i libucrtd:output.obj
 0001:000484b0       ??$type_case_integer_parse_into_buffer@I@?$output_processor@_WV?$stream_output_adapter@_W@__crt_stdio_output@@V?$format_validation_base@_WV?$stream_output_adapter@_W@__crt_stdio_output@@@2@@__crt_stdio_output@@AAEXII_N@Z 100494b0 f i libucrtd:output.obj
 0001:00048590       ??$type_case_integer_parse_into_buffer@I@?$output_processor@_WV?$stream_output_adapter@_W@__crt_stdio_output@@V?$positional_parameter_base@_WV?$stream_output_adapter@_W@__crt_stdio_output@@@2@@__crt_stdio_output@@AAEXII_N@Z 10049590 f i libucrtd:output.obj
 0001:00048670       ??$type_case_integer_parse_into_buffer@I@?$output_processor@_WV?$stream_output_adapter@_W@__crt_stdio_output@@V?$standard_base@_WV?$stream_output_adapter@_W@__crt_stdio_output@@@2@@__crt_stdio_output@@AAEXII_N@Z 10049670 f i libucrtd:output.obj
 0001:00048750       ??$type_case_integer_parse_into_buffer@I@?$output_processor@_WV?$string_output_adapter@_W@__crt_stdio_output@@V?$format_validation_base@_WV?$string_output_adapter@_W@__crt_stdio_output@@@2@@__crt_stdio_output@@AAEXII_N@Z 10049750 f i libucrtd:output.obj
 0001:00048830       ??$type_case_integer_parse_into_buffer@I@?$output_processor@_WV?$string_output_adapter@_W@__crt_stdio_output@@V?$positional_parameter_base@_WV?$string_output_adapter@_W@__crt_stdio_output@@@2@@__crt_stdio_output@@AAEXII_N@Z 10049830 f i libucrtd:output.obj
 0001:00048910       ??$type_case_integer_parse_into_buffer@I@?$output_processor@_WV?$string_output_adapter@_W@__crt_stdio_output@@V?$standard_base@_WV?$string_output_adapter@_W@__crt_stdio_output@@@2@@__crt_stdio_output@@AAEXII_N@Z 10049910 f i libucrtd:output.obj
 0001:000489f0       ??$type_case_integer_parse_into_buffer@_K@?$output_processor@DV?$stream_output_adapter@D@__crt_stdio_output@@V?$format_validation_base@DV?$stream_output_adapter@D@__crt_stdio_output@@@2@@__crt_stdio_output@@AAEX_KI_N@Z 100499f0 f i libucrtd:output.obj
 0001:00048ae0       ??$type_case_integer_parse_into_buffer@_K@?$output_processor@DV?$stream_output_adapter@D@__crt_stdio_output@@V?$positional_parameter_base@DV?$stream_output_adapter@D@__crt_stdio_output@@@2@@__crt_stdio_output@@AAEX_KI_N@Z 10049ae0 f i libucrtd:output.obj
 0001:00048bd0       ??$type_case_integer_parse_into_buffer@_K@?$output_processor@DV?$stream_output_adapter@D@__crt_stdio_output@@V?$standard_base@DV?$stream_output_adapter@D@__crt_stdio_output@@@2@@__crt_stdio_output@@AAEX_KI_N@Z 10049bd0 f i libucrtd:output.obj
 0001:00048cc0       ??$type_case_integer_parse_into_buffer@_K@?$output_processor@DV?$string_output_adapter@D@__crt_stdio_output@@V?$format_validation_base@DV?$string_output_adapter@D@__crt_stdio_output@@@2@@__crt_stdio_output@@AAEX_KI_N@Z 10049cc0 f i libucrtd:output.obj
 0001:00048db0       ??$type_case_integer_parse_into_buffer@_K@?$output_processor@DV?$string_output_adapter@D@__crt_stdio_output@@V?$positional_parameter_base@DV?$string_output_adapter@D@__crt_stdio_output@@@2@@__crt_stdio_output@@AAEX_KI_N@Z 10049db0 f i libucrtd:output.obj
 0001:00048ea0       ??$type_case_integer_parse_into_buffer@_K@?$output_processor@DV?$string_output_adapter@D@__crt_stdio_output@@V?$standard_base@DV?$string_output_adapter@D@__crt_stdio_output@@@2@@__crt_stdio_output@@AAEX_KI_N@Z 10049ea0 f i libucrtd:output.obj
 0001:00048f90       ??$type_case_integer_parse_into_buffer@_K@?$output_processor@_WV?$stream_output_adapter@_W@__crt_stdio_output@@V?$format_validation_base@_WV?$stream_output_adapter@_W@__crt_stdio_output@@@2@@__crt_stdio_output@@AAEX_KI_N@Z 10049f90 f i libucrtd:output.obj
 0001:00049090       ??$type_case_integer_parse_into_buffer@_K@?$output_processor@_WV?$stream_output_adapter@_W@__crt_stdio_output@@V?$positional_parameter_base@_WV?$stream_output_adapter@_W@__crt_stdio_output@@@2@@__crt_stdio_output@@AAEX_KI_N@Z 1004a090 f i libucrtd:output.obj
 0001:00049190       ??$type_case_integer_parse_into_buffer@_K@?$output_processor@_WV?$stream_output_adapter@_W@__crt_stdio_output@@V?$standard_base@_WV?$stream_output_adapter@_W@__crt_stdio_output@@@2@@__crt_stdio_output@@AAEX_KI_N@Z 1004a190 f i libucrtd:output.obj
 0001:00049290       ??$type_case_integer_parse_into_buffer@_K@?$output_processor@_WV?$string_output_adapter@_W@__crt_stdio_output@@V?$format_validation_base@_WV?$string_output_adapter@_W@__crt_stdio_output@@@2@@__crt_stdio_output@@AAEX_KI_N@Z 1004a290 f i libucrtd:output.obj
 0001:00049390       ??$type_case_integer_parse_into_buffer@_K@?$output_processor@_WV?$string_output_adapter@_W@__crt_stdio_output@@V?$positional_parameter_base@_WV?$string_output_adapter@_W@__crt_stdio_output@@@2@@__crt_stdio_output@@AAEX_KI_N@Z 1004a390 f i libucrtd:output.obj
 0001:00049490       ??$type_case_integer_parse_into_buffer@_K@?$output_processor@_WV?$string_output_adapter@_W@__crt_stdio_output@@V?$standard_base@_WV?$string_output_adapter@_W@__crt_stdio_output@@@2@@__crt_stdio_output@@AAEX_KI_N@Z 1004a490 f i libucrtd:output.obj
 0001:00049590       ??$write_multiple_characters@V?$stream_output_adapter@D@__crt_stdio_output@@D@__crt_stdio_output@@YAXABV?$stream_output_adapter@D@0@DHQAH@Z 1004a590 f i libucrtd:output.obj
 0001:000495e0       ??$write_multiple_characters@V?$stream_output_adapter@_W@__crt_stdio_output@@D@__crt_stdio_output@@YAXABV?$stream_output_adapter@_W@0@DHQAH@Z 1004a5e0 f i libucrtd:output.obj
 0001:00049630       ??$write_multiple_characters@V?$string_output_adapter@D@__crt_stdio_output@@D@__crt_stdio_output@@YAXABV?$string_output_adapter@D@0@DHQAH@Z 1004a630 f i libucrtd:output.obj
 0001:00049680       ??$write_multiple_characters@V?$string_output_adapter@_W@__crt_stdio_output@@D@__crt_stdio_output@@YAXABV?$string_output_adapter@_W@0@DHQAH@Z 1004a680 f i libucrtd:output.obj
 0001:000499d0       ??0?$common_data@D@__crt_stdio_output@@IAE@XZ 1004a9d0 f i libucrtd:output.obj
 0001:00049a80       ??0?$common_data@_W@__crt_stdio_output@@IAE@XZ 1004aa80 f i libucrtd:output.obj
 0001:00049b30       ??0?$output_adapter_data@DV?$stream_output_adapter@D@__crt_stdio_output@@@__crt_stdio_output@@IAE@ABV?$stream_output_adapter@D@1@_KQBDQAU__crt_locale_pointers@@QAD@Z 1004ab30 f i libucrtd:output.obj
 0001:00049b90       ??0?$output_adapter_data@DV?$string_output_adapter@D@__crt_stdio_output@@@__crt_stdio_output@@IAE@ABV?$string_output_adapter@D@1@_KQBDQAU__crt_locale_pointers@@QAD@Z 1004ab90 f i libucrtd:output.obj
 0001:00049bf0       ??0?$output_adapter_data@_WV?$stream_output_adapter@_W@__crt_stdio_output@@@__crt_stdio_output@@IAE@ABV?$stream_output_adapter@_W@1@_KQB_WQAU__crt_locale_pointers@@QAD@Z 1004abf0 f i libucrtd:output.obj
 0001:00049c50       ??0?$output_adapter_data@_WV?$string_output_adapter@_W@__crt_stdio_output@@@__crt_stdio_output@@IAE@ABV?$string_output_adapter@_W@1@_KQB_WQAU__crt_locale_pointers@@QAD@Z 1004ac50 f i libucrtd:output.obj
 0001:00049cb0       ??0?$output_processor@DV?$stream_output_adapter@D@__crt_stdio_output@@V?$format_validation_base@DV?$stream_output_adapter@D@__crt_stdio_output@@@2@@__crt_stdio_output@@QAE@ABV?$stream_output_adapter@D@1@_KQBDQAU__crt_locale_pointers@@QAD@Z 1004acb0 f i libucrtd:output.obj
 0001:00049ce0       ??0?$output_processor@DV?$stream_output_adapter@D@__crt_stdio_output@@V?$positional_parameter_base@DV?$stream_output_adapter@D@__crt_stdio_output@@@2@@__crt_stdio_output@@QAE@ABV?$stream_output_adapter@D@1@_KQBDQAU__crt_locale_pointers@@QAD@Z 1004ace0 f i libucrtd:output.obj
 0001:00049d10       ??0?$output_processor@DV?$stream_output_adapter@D@__crt_stdio_output@@V?$standard_base@DV?$stream_output_adapter@D@__crt_stdio_output@@@2@@__crt_stdio_output@@QAE@ABV?$stream_output_adapter@D@1@_KQBDQAU__crt_locale_pointers@@QAD@Z 1004ad10 f i libucrtd:output.obj
 0001:00049d40       ??0?$output_processor@DV?$string_output_adapter@D@__crt_stdio_output@@V?$format_validation_base@DV?$string_output_adapter@D@__crt_stdio_output@@@2@@__crt_stdio_output@@QAE@ABV?$string_output_adapter@D@1@_KQBDQAU__crt_locale_pointers@@QAD@Z 1004ad40 f i libucrtd:output.obj
 0001:00049d70       ??0?$output_processor@DV?$string_output_adapter@D@__crt_stdio_output@@V?$positional_parameter_base@DV?$string_output_adapter@D@__crt_stdio_output@@@2@@__crt_stdio_output@@QAE@ABV?$string_output_adapter@D@1@_KQBDQAU__crt_locale_pointers@@QAD@Z 1004ad70 f i libucrtd:output.obj
 0001:00049da0       ??0?$output_processor@DV?$string_output_adapter@D@__crt_stdio_output@@V?$standard_base@DV?$string_output_adapter@D@__crt_stdio_output@@@2@@__crt_stdio_output@@QAE@ABV?$string_output_adapter@D@1@_KQBDQAU__crt_locale_pointers@@QAD@Z 1004ada0 f i libucrtd:output.obj
 0001:00049dd0       ??0?$output_processor@_WV?$stream_output_adapter@_W@__crt_stdio_output@@V?$format_validation_base@_WV?$stream_output_adapter@_W@__crt_stdio_output@@@2@@__crt_stdio_output@@QAE@ABV?$stream_output_adapter@_W@1@_KQB_WQAU__crt_locale_pointers@@QAD@Z 1004add0 f i libucrtd:output.obj
 0001:00049e00       ??0?$output_processor@_WV?$stream_output_adapter@_W@__crt_stdio_output@@V?$positional_parameter_base@_WV?$stream_output_adapter@_W@__crt_stdio_output@@@2@@__crt_stdio_output@@QAE@ABV?$stream_output_adapter@_W@1@_KQB_WQAU__crt_locale_pointers@@QAD@Z 1004ae00 f i libucrtd:output.obj
 0001:00049e30       ??0?$output_processor@_WV?$stream_output_adapter@_W@__crt_stdio_output@@V?$standard_base@_WV?$stream_output_adapter@_W@__crt_stdio_output@@@2@@__crt_stdio_output@@QAE@ABV?$stream_output_adapter@_W@1@_KQB_WQAU__crt_locale_pointers@@QAD@Z 1004ae30 f i libucrtd:output.obj
 0001:00049e60       ??0?$output_processor@_WV?$string_output_adapter@_W@__crt_stdio_output@@V?$format_validation_base@_WV?$string_output_adapter@_W@__crt_stdio_output@@@2@@__crt_stdio_output@@QAE@ABV?$string_output_adapter@_W@1@_KQB_WQAU__crt_locale_pointers@@QAD@Z 1004ae60 f i libucrtd:output.obj
 0001:00049e90       ??0?$output_processor@_WV?$string_output_adapter@_W@__crt_stdio_output@@V?$positional_parameter_base@_WV?$string_output_adapter@_W@__crt_stdio_output@@@2@@__crt_stdio_output@@QAE@ABV?$string_output_adapter@_W@1@_KQB_WQAU__crt_locale_pointers@@QAD@Z 1004ae90 f i libucrtd:output.obj
 0001:00049ec0       ??0?$output_processor@_WV?$string_output_adapter@_W@__crt_stdio_output@@V?$standard_base@_WV?$string_output_adapter@_W@__crt_stdio_output@@@2@@__crt_stdio_output@@QAE@ABV?$string_output_adapter@_W@1@_KQB_WQAU__crt_locale_pointers@@QAD@Z 1004aec0 f i libucrtd:output.obj
 0001:00049ef0       ??0?$stream_output_adapter@D@__crt_stdio_output@@QAE@QAU_iobuf@@@Z 1004aef0 f i libucrtd:output.obj
 0001:00049f10       ??0?$stream_output_adapter@_W@__crt_stdio_output@@QAE@QAU_iobuf@@@Z 1004af10 f i libucrtd:output.obj
 0001:00049f30       ??0?$string_output_adapter@D@__crt_stdio_output@@QAE@QAU?$string_output_adapter_context@D@1@@Z 1004af30 f i libucrtd:output.obj
 0001:00049f50       ??0?$string_output_adapter@_W@__crt_stdio_output@@QAE@QAU?$string_output_adapter_context@_W@1@@Z 1004af50 f i libucrtd:output.obj
 0001:00049f70       ??0_LocaleUpdate@@QAE@QAU__crt_locale_pointers@@@Z 1004af70 f i libucrtd:output.obj
 0001:0004a040       ??0__acrt_stdio_temporary_buffering_guard@@QAE@QAU_iobuf@@@Z 1004b040 f i libucrtd:output.obj
 0001:0004a070       ??0__crt_deferred_errno_cache@@QAE@XZ 1004b070 f i libucrtd:output.obj
 0001:0004a090       ??0__crt_errno_guard@@QAE@QAH@Z 1004b090 f i libucrtd:output.obj
 0001:0004a0c0       ??0__crt_stdio_stream@@QAE@QAU_iobuf@@@Z 1004b0c0 f i libucrtd:output.obj
 0001:0004a0e0       ??0formatting_buffer@__crt_stdio_output@@QAE@XZ 1004b0e0 f i libucrtd:output.obj
 0001:0004a110       ??1?$common_data@D@__crt_stdio_output@@QAE@XZ 1004b110 f i libucrtd:output.obj
 0001:0004a130       ??1?$common_data@_W@__crt_stdio_output@@QAE@XZ 1004b130 f i libucrtd:output.obj
 0001:0004a150       ??1?$format_validation_base@DV?$stream_output_adapter@D@__crt_stdio_output@@@__crt_stdio_output@@QAE@XZ 1004b150 f i libucrtd:output.obj
 0001:0004a170       ??1?$format_validation_base@DV?$string_output_adapter@D@__crt_stdio_output@@@__crt_stdio_output@@QAE@XZ 1004b170 f i libucrtd:output.obj
 0001:0004a190       ??1?$format_validation_base@_WV?$stream_output_adapter@_W@__crt_stdio_output@@@__crt_stdio_output@@QAE@XZ 1004b190 f i libucrtd:output.obj
 0001:0004a1b0       ??1?$format_validation_base@_WV?$string_output_adapter@_W@__crt_stdio_output@@@__crt_stdio_output@@QAE@XZ 1004b1b0 f i libucrtd:output.obj
 0001:0004a1d0       ??1?$output_adapter_data@DV?$stream_output_adapter@D@__crt_stdio_output@@@__crt_stdio_output@@QAE@XZ 1004b1d0 f i libucrtd:output.obj
 0001:0004a1f0       ??1?$output_adapter_data@DV?$string_output_adapter@D@__crt_stdio_output@@@__crt_stdio_output@@QAE@XZ 1004b1f0 f i libucrtd:output.obj
 0001:0004a210       ??1?$output_adapter_data@_WV?$stream_output_adapter@_W@__crt_stdio_output@@@__crt_stdio_output@@QAE@XZ 1004b210 f i libucrtd:output.obj
 0001:0004a230       ??1?$output_adapter_data@_WV?$string_output_adapter@_W@__crt_stdio_output@@@__crt_stdio_output@@QAE@XZ 1004b230 f i libucrtd:output.obj
 0001:0004a250       ??1?$output_processor@DV?$stream_output_adapter@D@__crt_stdio_output@@V?$format_validation_base@DV?$stream_output_adapter@D@__crt_stdio_output@@@2@@__crt_stdio_output@@QAE@XZ 1004b250 f i libucrtd:output.obj
 0001:0004a270       ??1?$output_processor@DV?$stream_output_adapter@D@__crt_stdio_output@@V?$positional_parameter_base@DV?$stream_output_adapter@D@__crt_stdio_output@@@2@@__crt_stdio_output@@QAE@XZ 1004b270 f i libucrtd:output.obj
 0001:0004a290       ??1?$output_processor@DV?$stream_output_adapter@D@__crt_stdio_output@@V?$standard_base@DV?$stream_output_adapter@D@__crt_stdio_output@@@2@@__crt_stdio_output@@QAE@XZ 1004b290 f i libucrtd:output.obj
 0001:0004a2b0       ??1?$output_processor@DV?$string_output_adapter@D@__crt_stdio_output@@V?$format_validation_base@DV?$string_output_adapter@D@__crt_stdio_output@@@2@@__crt_stdio_output@@QAE@XZ 1004b2b0 f i libucrtd:output.obj
 0001:0004a2d0       ??1?$output_processor@DV?$string_output_adapter@D@__crt_stdio_output@@V?$positional_parameter_base@DV?$string_output_adapter@D@__crt_stdio_output@@@2@@__crt_stdio_output@@QAE@XZ 1004b2d0 f i libucrtd:output.obj
 0001:0004a2f0       ??1?$output_processor@DV?$string_output_adapter@D@__crt_stdio_output@@V?$standard_base@DV?$string_output_adapter@D@__crt_stdio_output@@@2@@__crt_stdio_output@@QAE@XZ 1004b2f0 f i libucrtd:output.obj
 0001:0004a310       ??1?$output_processor@_WV?$stream_output_adapter@_W@__crt_stdio_output@@V?$format_validation_base@_WV?$stream_output_adapter@_W@__crt_stdio_output@@@2@@__crt_stdio_output@@QAE@XZ 1004b310 f i libucrtd:output.obj
 0001:0004a330       ??1?$output_processor@_WV?$stream_output_adapter@_W@__crt_stdio_output@@V?$positional_parameter_base@_WV?$stream_output_adapter@_W@__crt_stdio_output@@@2@@__crt_stdio_output@@QAE@XZ 1004b330 f i libucrtd:output.obj
 0001:0004a350       ??1?$output_processor@_WV?$stream_output_adapter@_W@__crt_stdio_output@@V?$standard_base@_WV?$stream_output_adapter@_W@__crt_stdio_output@@@2@@__crt_stdio_output@@QAE@XZ 1004b350 f i libucrtd:output.obj
 0001:0004a370       ??1?$output_processor@_WV?$string_output_adapter@_W@__crt_stdio_output@@V?$format_validation_base@_WV?$string_output_adapter@_W@__crt_stdio_output@@@2@@__crt_stdio_output@@QAE@XZ 1004b370 f i libucrtd:output.obj
 0001:0004a390       ??1?$output_processor@_WV?$string_output_adapter@_W@__crt_stdio_output@@V?$positional_parameter_base@_WV?$string_output_adapter@_W@__crt_stdio_output@@@2@@__crt_stdio_output@@QAE@XZ 1004b390 f i libucrtd:output.obj
 0001:0004a3b0       ??1?$output_processor@_WV?$string_output_adapter@_W@__crt_stdio_output@@V?$standard_base@_WV?$string_output_adapter@_W@__crt_stdio_output@@@2@@__crt_stdio_output@@QAE@XZ 1004b3b0 f i libucrtd:output.obj
 0001:0004a3d0       ??1?$positional_parameter_base@DV?$stream_output_adapter@D@__crt_stdio_output@@@__crt_stdio_output@@QAE@XZ 1004b3d0 f i libucrtd:output.obj
 0001:0004a3f0       ??1?$positional_parameter_base@DV?$string_output_adapter@D@__crt_stdio_output@@@__crt_stdio_output@@QAE@XZ 1004b3f0 f i libucrtd:output.obj
 0001:0004a410       ??1?$positional_parameter_base@_WV?$stream_output_adapter@_W@__crt_stdio_output@@@__crt_stdio_output@@QAE@XZ 1004b410 f i libucrtd:output.obj
 0001:0004a430       ??1?$positional_parameter_base@_WV?$string_output_adapter@_W@__crt_stdio_output@@@__crt_stdio_output@@QAE@XZ 1004b430 f i libucrtd:output.obj
 0001:0004a450       ??1?$standard_base@DV?$stream_output_adapter@D@__crt_stdio_output@@@__crt_stdio_output@@QAE@XZ 1004b450 f i libucrtd:output.obj
 0001:0004a470       ??1?$standard_base@DV?$string_output_adapter@D@__crt_stdio_output@@@__crt_stdio_output@@QAE@XZ 1004b470 f i libucrtd:output.obj
 0001:0004a490       ??1?$standard_base@_WV?$stream_output_adapter@_W@__crt_stdio_output@@@__crt_stdio_output@@QAE@XZ 1004b490 f i libucrtd:output.obj
 0001:0004a4b0       ??1?$standard_base@_WV?$string_output_adapter@_W@__crt_stdio_output@@@__crt_stdio_output@@QAE@XZ 1004b4b0 f i libucrtd:output.obj
 0001:0004a4d0       ??1_LocaleUpdate@@QAE@XZ   1004b4d0 f i libucrtd:output.obj
 0001:0004a500       ??1__acrt_stdio_temporary_buffering_guard@@QAE@XZ 1004b500 f i libucrtd:output.obj
 0001:0004a530       ??1__crt_errno_guard@@QAE@XZ 1004b530 f i libucrtd:output.obj
 0001:0004a560       ??1formatting_buffer@__crt_stdio_output@@QAE@XZ 1004b560 f i libucrtd:output.obj
 0001:0004a580       ??4?$__crt_unique_heap_ptr@DU__crt_internal_free_policy@@@@QAEAAV0@$$QAV0@@Z 1004b580 f i libucrtd:output.obj
 0001:0004a5b0       ??A?$spectre_mitigated_lookup_table@Ustate_transition_pair@__crt_stdio_output@@$0IA@@__crt_stdio_output@@QBEABUstate_transition_pair@1@I@Z 1004b5b0 f i libucrtd:output.obj
 0001:0004a5d0       ??C__crt_stdio_stream@@QBEPAU__crt_stdio_stream_data@@XZ 1004b5d0 f i libucrtd:output.obj
 0001:0004ad10       ?GetLocaleT@_LocaleUpdate@@QAEPAU__crt_locale_pointers@@XZ 1004bd10 f i libucrtd:output.obj
 0001:0004ad30       ?adjust_hexit@?$output_processor@DV?$stream_output_adapter@D@__crt_stdio_output@@V?$format_validation_base@DV?$stream_output_adapter@D@__crt_stdio_output@@@2@@__crt_stdio_output@@CADH_N@Z 1004bd30 f i libucrtd:output.obj
 0001:0004ad70       ?adjust_hexit@?$output_processor@DV?$stream_output_adapter@D@__crt_stdio_output@@V?$positional_parameter_base@DV?$stream_output_adapter@D@__crt_stdio_output@@@2@@__crt_stdio_output@@CADH_N@Z 1004bd70 f i libucrtd:output.obj
 0001:0004adb0       ?adjust_hexit@?$output_processor@DV?$stream_output_adapter@D@__crt_stdio_output@@V?$standard_base@DV?$stream_output_adapter@D@__crt_stdio_output@@@2@@__crt_stdio_output@@CADH_N@Z 1004bdb0 f i libucrtd:output.obj
 0001:0004adf0       ?adjust_hexit@?$output_processor@DV?$string_output_adapter@D@__crt_stdio_output@@V?$format_validation_base@DV?$string_output_adapter@D@__crt_stdio_output@@@2@@__crt_stdio_output@@CADH_N@Z 1004bdf0 f i libucrtd:output.obj
 0001:0004ae30       ?adjust_hexit@?$output_processor@DV?$string_output_adapter@D@__crt_stdio_output@@V?$positional_parameter_base@DV?$string_output_adapter@D@__crt_stdio_output@@@2@@__crt_stdio_output@@CADH_N@Z 1004be30 f i libucrtd:output.obj
 0001:0004ae70       ?adjust_hexit@?$output_processor@DV?$string_output_adapter@D@__crt_stdio_output@@V?$standard_base@DV?$string_output_adapter@D@__crt_stdio_output@@@2@@__crt_stdio_output@@CADH_N@Z 1004be70 f i libucrtd:output.obj
 0001:0004aeb0       ?adjust_hexit@?$output_processor@_WV?$stream_output_adapter@_W@__crt_stdio_output@@V?$format_validation_base@_WV?$stream_output_adapter@_W@__crt_stdio_output@@@2@@__crt_stdio_output@@CADH_N@Z 1004beb0 f i libucrtd:output.obj
 0001:0004aef0       ?adjust_hexit@?$output_processor@_WV?$stream_output_adapter@_W@__crt_stdio_output@@V?$positional_parameter_base@_WV?$stream_output_adapter@_W@__crt_stdio_output@@@2@@__crt_stdio_output@@CADH_N@Z 1004bef0 f i libucrtd:output.obj
 0001:0004af30       ?adjust_hexit@?$output_processor@_WV?$stream_output_adapter@_W@__crt_stdio_output@@V?$standard_base@_WV?$stream_output_adapter@_W@__crt_stdio_output@@@2@@__crt_stdio_output@@CADH_N@Z 1004bf30 f i libucrtd:output.obj
 0001:0004af70       ?adjust_hexit@?$output_processor@_WV?$string_output_adapter@_W@__crt_stdio_output@@V?$format_validation_base@_WV?$string_output_adapter@_W@__crt_stdio_output@@@2@@__crt_stdio_output@@CADH_N@Z 1004bf70 f i libucrtd:output.obj
 0001:0004afb0       ?adjust_hexit@?$output_processor@_WV?$string_output_adapter@_W@__crt_stdio_output@@V?$positional_parameter_base@_WV?$string_output_adapter@_W@__crt_stdio_output@@@2@@__crt_stdio_output@@CADH_N@Z 1004bfb0 f i libucrtd:output.obj
 0001:0004aff0       ?adjust_hexit@?$output_processor@_WV?$string_output_adapter@_W@__crt_stdio_output@@V?$standard_base@_WV?$string_output_adapter@_W@__crt_stdio_output@@@2@@__crt_stdio_output@@CADH_N@Z 1004bff0 f i libucrtd:output.obj
 0001:0004b030       ?advance_to_next_pass@?$positional_parameter_base@DV?$stream_output_adapter@D@__crt_stdio_output@@@__crt_stdio_output@@IAE_NXZ 1004c030 f i libucrtd:output.obj
 0001:0004b0d0       ?advance_to_next_pass@?$positional_parameter_base@DV?$string_output_adapter@D@__crt_stdio_output@@@__crt_stdio_output@@IAE_NXZ 1004c0d0 f i libucrtd:output.obj
 0001:0004b170       ?advance_to_next_pass@?$positional_parameter_base@_WV?$stream_output_adapter@_W@__crt_stdio_output@@@__crt_stdio_output@@IAE_NXZ 1004c170 f i libucrtd:output.obj
 0001:0004b210       ?advance_to_next_pass@?$positional_parameter_base@_WV?$string_output_adapter@_W@__crt_stdio_output@@@__crt_stdio_output@@IAE_NXZ 1004c210 f i libucrtd:output.obj
 0001:0004b2b0       ?advance_to_next_pass@?$standard_base@DV?$stream_output_adapter@D@__crt_stdio_output@@@__crt_stdio_output@@IAE_NXZ 1004c2b0 f i libucrtd:output.obj
 0001:0004b300       ?advance_to_next_pass@?$standard_base@DV?$string_output_adapter@D@__crt_stdio_output@@@__crt_stdio_output@@IAE_NXZ 1004c300 f i libucrtd:output.obj
 0001:0004b350       ?advance_to_next_pass@?$standard_base@_WV?$stream_output_adapter@_W@__crt_stdio_output@@@__crt_stdio_output@@IAE_NXZ 1004c350 f i libucrtd:output.obj
 0001:0004b3a0       ?advance_to_next_pass@?$standard_base@_WV?$string_output_adapter@_W@__crt_stdio_output@@@__crt_stdio_output@@IAE_NXZ 1004c3a0 f i libucrtd:output.obj
 0001:0004b3f0       ?crop_zeroes@__crt_stdio_output@@YAXPADQAU__crt_locale_pointers@@@Z 1004c3f0 f i libucrtd:output.obj
 0001:0004b4f0       ?find_next_state@?$output_processor@DV?$stream_output_adapter@D@__crt_stdio_output@@V?$format_validation_base@DV?$stream_output_adapter@D@__crt_stdio_output@@@2@@__crt_stdio_output@@ABE?AW4state@2@DW432@@Z 1004c4f0 f i libucrtd:output.obj
 0001:0004b560       ?find_next_state@?$output_processor@DV?$stream_output_adapter@D@__crt_stdio_output@@V?$positional_parameter_base@DV?$stream_output_adapter@D@__crt_stdio_output@@@2@@__crt_stdio_output@@ABE?AW4state@2@DW432@@Z 1004c560 f i libucrtd:output.obj
 0001:0004b5d0       ?find_next_state@?$output_processor@DV?$stream_output_adapter@D@__crt_stdio_output@@V?$standard_base@DV?$stream_output_adapter@D@__crt_stdio_output@@@2@@__crt_stdio_output@@ABE?AW4state@2@DW432@@Z 1004c5d0 f i libucrtd:output.obj
 0001:0004b640       ?find_next_state@?$output_processor@DV?$string_output_adapter@D@__crt_stdio_output@@V?$format_validation_base@DV?$string_output_adapter@D@__crt_stdio_output@@@2@@__crt_stdio_output@@ABE?AW4state@2@DW432@@Z 1004c640 f i libucrtd:output.obj
 0001:0004b6b0       ?find_next_state@?$output_processor@DV?$string_output_adapter@D@__crt_stdio_output@@V?$positional_parameter_base@DV?$string_output_adapter@D@__crt_stdio_output@@@2@@__crt_stdio_output@@ABE?AW4state@2@DW432@@Z 1004c6b0 f i libucrtd:output.obj
 0001:0004b720       ?find_next_state@?$output_processor@DV?$string_output_adapter@D@__crt_stdio_output@@V?$standard_base@DV?$string_output_adapter@D@__crt_stdio_output@@@2@@__crt_stdio_output@@ABE?AW4state@2@DW432@@Z 1004c720 f i libucrtd:output.obj
 0001:0004b790       ?find_next_state@?$output_processor@_WV?$stream_output_adapter@_W@__crt_stdio_output@@V?$format_validation_base@_WV?$stream_output_adapter@_W@__crt_stdio_output@@@2@@__crt_stdio_output@@ABE?AW4state@2@_WW432@@Z 1004c790 f i libucrtd:output.obj
 0001:0004b800       ?find_next_state@?$output_processor@_WV?$stream_output_adapter@_W@__crt_stdio_output@@V?$positional_parameter_base@_WV?$stream_output_adapter@_W@__crt_stdio_output@@@2@@__crt_stdio_output@@ABE?AW4state@2@_WW432@@Z 1004c800 f i libucrtd:output.obj
 0001:0004b870       ?find_next_state@?$output_processor@_WV?$stream_output_adapter@_W@__crt_stdio_output@@V?$standard_base@_WV?$stream_output_adapter@_W@__crt_stdio_output@@@2@@__crt_stdio_output@@ABE?AW4state@2@_WW432@@Z 1004c870 f i libucrtd:output.obj
 0001:0004b8e0       ?find_next_state@?$output_processor@_WV?$string_output_adapter@_W@__crt_stdio_output@@V?$format_validation_base@_WV?$string_output_adapter@_W@__crt_stdio_output@@@2@@__crt_stdio_output@@ABE?AW4state@2@_WW432@@Z 1004c8e0 f i libucrtd:output.obj
 0001:0004b950       ?find_next_state@?$output_processor@_WV?$string_output_adapter@_W@__crt_stdio_output@@V?$positional_parameter_base@_WV?$string_output_adapter@_W@__crt_stdio_output@@@2@@__crt_stdio_output@@ABE?AW4state@2@_WW432@@Z 1004c950 f i libucrtd:output.obj
 0001:0004b9c0       ?find_next_state@?$output_processor@_WV?$string_output_adapter@_W@__crt_stdio_output@@V?$standard_base@_WV?$string_output_adapter@_W@__crt_stdio_output@@@2@@__crt_stdio_output@@ABE?AW4state@2@_WW432@@Z 1004c9c0 f i libucrtd:output.obj
 0001:0004ba30       ?force_decimal_point@__crt_stdio_output@@YAXPADQAU__crt_locale_pointers@@@Z 1004ca30 f i libucrtd:output.obj
 0001:0004bb00       ?get@__crt_deferred_errno_cache@@QAEAAHXZ 1004cb00 f i libucrtd:output.obj
 0001:0004bb30       ?get_flags@__crt_stdio_stream@@QBEJXZ 1004cb30 f i libucrtd:output.obj
 0001:0004bb50       ?get_parameter_type@?$positional_parameter_base@DV?$stream_output_adapter@D@__crt_stdio_output@@@__crt_stdio_output@@CA?AW4parameter_type@12@F@Z 1004cb50 f i libucrtd:output.obj
 0001:0004bb60       ?get_parameter_type@?$positional_parameter_base@DV?$stream_output_adapter@D@__crt_stdio_output@@@__crt_stdio_output@@CA?AW4parameter_type@12@G@Z 1004cb60 f i libucrtd:output.obj
 0001:0004bb70       ?get_parameter_type@?$positional_parameter_base@DV?$stream_output_adapter@D@__crt_stdio_output@@@__crt_stdio_output@@CA?AW4parameter_type@12@H@Z 1004cb70 f i libucrtd:output.obj
 0001:0004bb80       ?get_parameter_type@?$positional_parameter_base@DV?$stream_output_adapter@D@__crt_stdio_output@@@__crt_stdio_output@@CA?AW4parameter_type@12@I@Z 1004cb80 f i libucrtd:output.obj
 0001:0004bb90       ?get_parameter_type@?$positional_parameter_base@DV?$stream_output_adapter@D@__crt_stdio_output@@@__crt_stdio_output@@CA?AW4parameter_type@12@U_CRT_DOUBLE@@@Z 1004cb90 f i libucrtd:output.obj
 0001:0004bba0       ?get_parameter_type@?$positional_parameter_base@DV?$stream_output_adapter@D@__crt_stdio_output@@@__crt_stdio_output@@CA?AW4parameter_type@12@_J@Z 1004cba0 f i libucrtd:output.obj
 0001:0004bbb0       ?get_parameter_type@?$positional_parameter_base@DV?$stream_output_adapter@D@__crt_stdio_output@@@__crt_stdio_output@@CA?AW4parameter_type@12@_K@Z 1004cbb0 f i libucrtd:output.obj
 0001:0004bbc0       ?get_parameter_type@?$positional_parameter_base@DV?$stream_output_adapter@D@__crt_stdio_output@@@__crt_stdio_output@@CA?AW4parameter_type@12@_W@Z 1004cbc0 f i libucrtd:output.obj
 0001:0004bbd0       ?get_parameter_type@?$positional_parameter_base@DV?$string_output_adapter@D@__crt_stdio_output@@@__crt_stdio_output@@CA?AW4parameter_type@12@F@Z 1004cbd0 f i libucrtd:output.obj
 0001:0004bbe0       ?get_parameter_type@?$positional_parameter_base@DV?$string_output_adapter@D@__crt_stdio_output@@@__crt_stdio_output@@CA?AW4parameter_type@12@G@Z 1004cbe0 f i libucrtd:output.obj
 0001:0004bbf0       ?get_parameter_type@?$positional_parameter_base@DV?$string_output_adapter@D@__crt_stdio_output@@@__crt_stdio_output@@CA?AW4parameter_type@12@H@Z 1004cbf0 f i libucrtd:output.obj
 0001:0004bc00       ?get_parameter_type@?$positional_parameter_base@DV?$string_output_adapter@D@__crt_stdio_output@@@__crt_stdio_output@@CA?AW4parameter_type@12@I@Z 1004cc00 f i libucrtd:output.obj
 0001:0004bc10       ?get_parameter_type@?$positional_parameter_base@DV?$string_output_adapter@D@__crt_stdio_output@@@__crt_stdio_output@@CA?AW4parameter_type@12@U_CRT_DOUBLE@@@Z 1004cc10 f i libucrtd:output.obj
 0001:0004bc20       ?get_parameter_type@?$positional_parameter_base@DV?$string_output_adapter@D@__crt_stdio_output@@@__crt_stdio_output@@CA?AW4parameter_type@12@_J@Z 1004cc20 f i libucrtd:output.obj
 0001:0004bc30       ?get_parameter_type@?$positional_parameter_base@DV?$string_output_adapter@D@__crt_stdio_output@@@__crt_stdio_output@@CA?AW4parameter_type@12@_K@Z 1004cc30 f i libucrtd:output.obj
 0001:0004bc40       ?get_parameter_type@?$positional_parameter_base@DV?$string_output_adapter@D@__crt_stdio_output@@@__crt_stdio_output@@CA?AW4parameter_type@12@_W@Z 1004cc40 f i libucrtd:output.obj
 0001:0004bc50       ?get_parameter_type@?$positional_parameter_base@_WV?$stream_output_adapter@_W@__crt_stdio_output@@@__crt_stdio_output@@CA?AW4parameter_type@12@F@Z 1004cc50 f i libucrtd:output.obj
 0001:0004bc60       ?get_parameter_type@?$positional_parameter_base@_WV?$stream_output_adapter@_W@__crt_stdio_output@@@__crt_stdio_output@@CA?AW4parameter_type@12@G@Z 1004cc60 f i libucrtd:output.obj
 0001:0004bc70       ?get_parameter_type@?$positional_parameter_base@_WV?$stream_output_adapter@_W@__crt_stdio_output@@@__crt_stdio_output@@CA?AW4parameter_type@12@H@Z 1004cc70 f i libucrtd:output.obj
 0001:0004bc80       ?get_parameter_type@?$positional_parameter_base@_WV?$stream_output_adapter@_W@__crt_stdio_output@@@__crt_stdio_output@@CA?AW4parameter_type@12@I@Z 1004cc80 f i libucrtd:output.obj
 0001:0004bc90       ?get_parameter_type@?$positional_parameter_base@_WV?$stream_output_adapter@_W@__crt_stdio_output@@@__crt_stdio_output@@CA?AW4parameter_type@12@U_CRT_DOUBLE@@@Z 1004cc90 f i libucrtd:output.obj
 0001:0004bca0       ?get_parameter_type@?$positional_parameter_base@_WV?$stream_output_adapter@_W@__crt_stdio_output@@@__crt_stdio_output@@CA?AW4parameter_type@12@_J@Z 1004cca0 f i libucrtd:output.obj
 0001:0004bcb0       ?get_parameter_type@?$positional_parameter_base@_WV?$stream_output_adapter@_W@__crt_stdio_output@@@__crt_stdio_output@@CA?AW4parameter_type@12@_K@Z 1004ccb0 f i libucrtd:output.obj
 0001:0004bcc0       ?get_parameter_type@?$positional_parameter_base@_WV?$stream_output_adapter@_W@__crt_stdio_output@@@__crt_stdio_output@@CA?AW4parameter_type@12@_W@Z 1004ccc0 f i libucrtd:output.obj
 0001:0004bcd0       ?get_parameter_type@?$positional_parameter_base@_WV?$string_output_adapter@_W@__crt_stdio_output@@@__crt_stdio_output@@CA?AW4parameter_type@12@F@Z 1004ccd0 f i libucrtd:output.obj
 0001:0004bce0       ?get_parameter_type@?$positional_parameter_base@_WV?$string_output_adapter@_W@__crt_stdio_output@@@__crt_stdio_output@@CA?AW4parameter_type@12@G@Z 1004cce0 f i libucrtd:output.obj
 0001:0004bcf0       ?get_parameter_type@?$positional_parameter_base@_WV?$string_output_adapter@_W@__crt_stdio_output@@@__crt_stdio_output@@CA?AW4parameter_type@12@H@Z 1004ccf0 f i libucrtd:output.obj
 0001:0004bd00       ?get_parameter_type@?$positional_parameter_base@_WV?$string_output_adapter@_W@__crt_stdio_output@@@__crt_stdio_output@@CA?AW4parameter_type@12@I@Z 1004cd00 f i libucrtd:output.obj
 0001:0004bd10       ?get_parameter_type@?$positional_parameter_base@_WV?$string_output_adapter@_W@__crt_stdio_output@@@__crt_stdio_output@@CA?AW4parameter_type@12@U_CRT_DOUBLE@@@Z 1004cd10 f i libucrtd:output.obj
 0001:0004bd20       ?get_parameter_type@?$positional_parameter_base@_WV?$string_output_adapter@_W@__crt_stdio_output@@@__crt_stdio_output@@CA?AW4parameter_type@12@_J@Z 1004cd20 f i libucrtd:output.obj
 0001:0004bd30       ?get_parameter_type@?$positional_parameter_base@_WV?$string_output_adapter@_W@__crt_stdio_output@@@__crt_stdio_output@@CA?AW4parameter_type@12@_K@Z 1004cd30 f i libucrtd:output.obj
 0001:0004bd40       ?get_parameter_type@?$positional_parameter_base@_WV?$string_output_adapter@_W@__crt_stdio_output@@@__crt_stdio_output@@CA?AW4parameter_type@12@_W@Z 1004cd40 f i libucrtd:output.obj
 0001:0004bd50       ?has_flag@?$output_processor@DV?$stream_output_adapter@D@__crt_stdio_output@@V?$format_validation_base@DV?$stream_output_adapter@D@__crt_stdio_output@@@2@@__crt_stdio_output@@ABE_NI@Z 1004cd50 f i libucrtd:output.obj
 0001:0004bd80       ?has_flag@?$output_processor@DV?$stream_output_adapter@D@__crt_stdio_output@@V?$positional_parameter_base@DV?$stream_output_adapter@D@__crt_stdio_output@@@2@@__crt_stdio_output@@ABE_NI@Z 1004cd80 f i libucrtd:output.obj
 0001:0004bdb0       ?has_flag@?$output_processor@DV?$stream_output_adapter@D@__crt_stdio_output@@V?$standard_base@DV?$stream_output_adapter@D@__crt_stdio_output@@@2@@__crt_stdio_output@@ABE_NI@Z 1004cdb0 f i libucrtd:output.obj
 0001:0004bde0       ?has_flag@?$output_processor@DV?$string_output_adapter@D@__crt_stdio_output@@V?$format_validation_base@DV?$string_output_adapter@D@__crt_stdio_output@@@2@@__crt_stdio_output@@ABE_NI@Z 1004cde0 f i libucrtd:output.obj
 0001:0004be10       ?has_flag@?$output_processor@DV?$string_output_adapter@D@__crt_stdio_output@@V?$positional_parameter_base@DV?$string_output_adapter@D@__crt_stdio_output@@@2@@__crt_stdio_output@@ABE_NI@Z 1004ce10 f i libucrtd:output.obj
 0001:0004be40       ?has_flag@?$output_processor@DV?$string_output_adapter@D@__crt_stdio_output@@V?$standard_base@DV?$string_output_adapter@D@__crt_stdio_output@@@2@@__crt_stdio_output@@ABE_NI@Z 1004ce40 f i libucrtd:output.obj
 0001:0004be70       ?has_flag@?$output_processor@_WV?$stream_output_adapter@_W@__crt_stdio_output@@V?$format_validation_base@_WV?$stream_output_adapter@_W@__crt_stdio_output@@@2@@__crt_stdio_output@@ABE_NI@Z 1004ce70 f i libucrtd:output.obj
 0001:0004bea0       ?has_flag@?$output_processor@_WV?$stream_output_adapter@_W@__crt_stdio_output@@V?$positional_parameter_base@_WV?$stream_output_adapter@_W@__crt_stdio_output@@@2@@__crt_stdio_output@@ABE_NI@Z 1004cea0 f i libucrtd:output.obj
 0001:0004bed0       ?has_flag@?$output_processor@_WV?$stream_output_adapter@_W@__crt_stdio_output@@V?$standard_base@_WV?$stream_output_adapter@_W@__crt_stdio_output@@@2@@__crt_stdio_output@@ABE_NI@Z 1004ced0 f i libucrtd:output.obj
 0001:0004bf00       ?has_flag@?$output_processor@_WV?$string_output_adapter@_W@__crt_stdio_output@@V?$format_validation_base@_WV?$string_output_adapter@_W@__crt_stdio_output@@@2@@__crt_stdio_output@@ABE_NI@Z 1004cf00 f i libucrtd:output.obj
 0001:0004bf30       ?has_flag@?$output_processor@_WV?$string_output_adapter@_W@__crt_stdio_output@@V?$positional_parameter_base@_WV?$string_output_adapter@_W@__crt_stdio_output@@@2@@__crt_stdio_output@@ABE_NI@Z 1004cf30 f i libucrtd:output.obj
 0001:0004bf60       ?has_flag@?$output_processor@_WV?$string_output_adapter@_W@__crt_stdio_output@@V?$standard_base@_WV?$string_output_adapter@_W@__crt_stdio_output@@@2@@__crt_stdio_output@@ABE_NI@Z 1004cf60 f i libucrtd:output.obj
 0001:0004bf90       ?is_positional_parameter_reappearance_consistent@?$positional_parameter_base@DV?$stream_output_adapter@D@__crt_stdio_output@@@__crt_stdio_output@@AAE_NABUparameter_data@12@W4parameter_type@12@DW4length_modifier@2@@Z 1004cf90 f i libucrtd:output.obj
 0001:0004c1c0       ?is_positional_parameter_reappearance_consistent@?$positional_parameter_base@DV?$string_output_adapter@D@__crt_stdio_output@@@__crt_stdio_output@@AAE_NABUparameter_data@12@W4parameter_type@12@DW4length_modifier@2@@Z 1004d1c0 f i libucrtd:output.obj
 0001:0004c3f0       ?is_positional_parameter_reappearance_consistent@?$positional_parameter_base@_WV?$stream_output_adapter@_W@__crt_stdio_output@@@__crt_stdio_output@@AAE_NABUparameter_data@12@W4parameter_type@12@_WW4length_modifier@2@@Z 1004d3f0 f i libucrtd:output.obj
 0001:0004c620       ?is_positional_parameter_reappearance_consistent@?$positional_parameter_base@_WV?$string_output_adapter@_W@__crt_stdio_output@@@__crt_stdio_output@@AAE_NABUparameter_data@12@W4parameter_type@12@_WW4length_modifier@2@@Z 1004d620 f i libucrtd:output.obj
 0001:0004c850       ?is_string_backed@__crt_stdio_stream@@QBE_NXZ 1004d850 f i libucrtd:output.obj
 0001:0004c890       ?narrow_null_string@?$output_processor@DV?$stream_output_adapter@D@__crt_stdio_output@@V?$format_validation_base@DV?$stream_output_adapter@D@__crt_stdio_output@@@2@@__crt_stdio_output@@CAPADXZ 1004d890 f i libucrtd:output.obj
 0001:0004c8a0       ?narrow_null_string@?$output_processor@DV?$stream_output_adapter@D@__crt_stdio_output@@V?$positional_parameter_base@DV?$stream_output_adapter@D@__crt_stdio_output@@@2@@__crt_stdio_output@@CAPADXZ 1004d8a0 f i libucrtd:output.obj
 0001:0004c8b0       ?narrow_null_string@?$output_processor@DV?$stream_output_adapter@D@__crt_stdio_output@@V?$standard_base@DV?$stream_output_adapter@D@__crt_stdio_output@@@2@@__crt_stdio_output@@CAPADXZ 1004d8b0 f i libucrtd:output.obj
 0001:0004c8c0       ?narrow_null_string@?$output_processor@DV?$string_output_adapter@D@__crt_stdio_output@@V?$format_validation_base@DV?$string_output_adapter@D@__crt_stdio_output@@@2@@__crt_stdio_output@@CAPADXZ 1004d8c0 f i libucrtd:output.obj
 0001:0004c8d0       ?narrow_null_string@?$output_processor@DV?$string_output_adapter@D@__crt_stdio_output@@V?$positional_parameter_base@DV?$string_output_adapter@D@__crt_stdio_output@@@2@@__crt_stdio_output@@CAPADXZ 1004d8d0 f i libucrtd:output.obj
 0001:0004c8e0       ?narrow_null_string@?$output_processor@DV?$string_output_adapter@D@__crt_stdio_output@@V?$standard_base@DV?$string_output_adapter@D@__crt_stdio_output@@@2@@__crt_stdio_output@@CAPADXZ 1004d8e0 f i libucrtd:output.obj
 0001:0004c8f0       ?narrow_null_string@?$output_processor@_WV?$stream_output_adapter@_W@__crt_stdio_output@@V?$format_validation_base@_WV?$stream_output_adapter@_W@__crt_stdio_output@@@2@@__crt_stdio_output@@CAPADXZ 1004d8f0 f i libucrtd:output.obj
 0001:0004c900       ?narrow_null_string@?$output_processor@_WV?$stream_output_adapter@_W@__crt_stdio_output@@V?$positional_parameter_base@_WV?$stream_output_adapter@_W@__crt_stdio_output@@@2@@__crt_stdio_output@@CAPADXZ 1004d900 f i libucrtd:output.obj
 0001:0004c910       ?narrow_null_string@?$output_processor@_WV?$stream_output_adapter@_W@__crt_stdio_output@@V?$standard_base@_WV?$stream_output_adapter@_W@__crt_stdio_output@@@2@@__crt_stdio_output@@CAPADXZ 1004d910 f i libucrtd:output.obj
 0001:0004c920       ?narrow_null_string@?$output_processor@_WV?$string_output_adapter@_W@__crt_stdio_output@@V?$format_validation_base@_WV?$string_output_adapter@_W@__crt_stdio_output@@@2@@__crt_stdio_output@@CAPADXZ 1004d920 f i libucrtd:output.obj
 0001:0004c930       ?narrow_null_string@?$output_processor@_WV?$string_output_adapter@_W@__crt_stdio_output@@V?$positional_parameter_base@_WV?$string_output_adapter@_W@__crt_stdio_output@@@2@@__crt_stdio_output@@CAPADXZ 1004d930 f i libucrtd:output.obj
 0001:0004c940       ?narrow_null_string@?$output_processor@_WV?$string_output_adapter@_W@__crt_stdio_output@@V?$standard_base@_WV?$string_output_adapter@_W@__crt_stdio_output@@@2@@__crt_stdio_output@@CAPADXZ 1004d940 f i libucrtd:output.obj
 0001:0004c950       ?parse_int_from_format_string@?$output_processor@DV?$stream_output_adapter@D@__crt_stdio_output@@V?$format_validation_base@DV?$stream_output_adapter@D@__crt_stdio_output@@@2@@__crt_stdio_output@@AAE_NQAH@Z 1004d950 f i libucrtd:output.obj
 0001:0004ca10       ?parse_int_from_format_string@?$output_processor@DV?$stream_output_adapter@D@__crt_stdio_output@@V?$positional_parameter_base@DV?$stream_output_adapter@D@__crt_stdio_output@@@2@@__crt_stdio_output@@AAE_NQAH@Z 1004da10 f i libucrtd:output.obj
 0001:0004cad0       ?parse_int_from_format_string@?$output_processor@DV?$stream_output_adapter@D@__crt_stdio_output@@V?$standard_base@DV?$stream_output_adapter@D@__crt_stdio_output@@@2@@__crt_stdio_output@@AAE_NQAH@Z 1004dad0 f i libucrtd:output.obj
 0001:0004cb90       ?parse_int_from_format_string@?$output_processor@DV?$string_output_adapter@D@__crt_stdio_output@@V?$format_validation_base@DV?$string_output_adapter@D@__crt_stdio_output@@@2@@__crt_stdio_output@@AAE_NQAH@Z 1004db90 f i libucrtd:output.obj
 0001:0004cc50       ?parse_int_from_format_string@?$output_processor@DV?$string_output_adapter@D@__crt_stdio_output@@V?$positional_parameter_base@DV?$string_output_adapter@D@__crt_stdio_output@@@2@@__crt_stdio_output@@AAE_NQAH@Z 1004dc50 f i libucrtd:output.obj
 0001:0004cd10       ?parse_int_from_format_string@?$output_processor@DV?$string_output_adapter@D@__crt_stdio_output@@V?$standard_base@DV?$string_output_adapter@D@__crt_stdio_output@@@2@@__crt_stdio_output@@AAE_NQAH@Z 1004dd10 f i libucrtd:output.obj
 0001:0004cdd0       ?parse_int_from_format_string@?$output_processor@_WV?$stream_output_adapter@_W@__crt_stdio_output@@V?$format_validation_base@_WV?$stream_output_adapter@_W@__crt_stdio_output@@@2@@__crt_stdio_output@@AAE_NQAH@Z 1004ddd0 f i libucrtd:output.obj
 0001:0004ce90       ?parse_int_from_format_string@?$output_processor@_WV?$stream_output_adapter@_W@__crt_stdio_output@@V?$positional_parameter_base@_WV?$stream_output_adapter@_W@__crt_stdio_output@@@2@@__crt_stdio_output@@AAE_NQAH@Z 1004de90 f i libucrtd:output.obj
 0001:0004cf50       ?parse_int_from_format_string@?$output_processor@_WV?$stream_output_adapter@_W@__crt_stdio_output@@V?$standard_base@_WV?$stream_output_adapter@_W@__crt_stdio_output@@@2@@__crt_stdio_output@@AAE_NQAH@Z 1004df50 f i libucrtd:output.obj
 0001:0004d010       ?parse_int_from_format_string@?$output_processor@_WV?$string_output_adapter@_W@__crt_stdio_output@@V?$format_validation_base@_WV?$string_output_adapter@_W@__crt_stdio_output@@@2@@__crt_stdio_output@@AAE_NQAH@Z 1004e010 f i libucrtd:output.obj
 0001:0004d0d0       ?parse_int_from_format_string@?$output_processor@_WV?$string_output_adapter@_W@__crt_stdio_output@@V?$positional_parameter_base@_WV?$string_output_adapter@_W@__crt_stdio_output@@@2@@__crt_stdio_output@@AAE_NQAH@Z 1004e0d0 f i libucrtd:output.obj
 0001:0004d190       ?parse_int_from_format_string@?$output_processor@_WV?$string_output_adapter@_W@__crt_stdio_output@@V?$standard_base@_WV?$string_output_adapter@_W@__crt_stdio_output@@@2@@__crt_stdio_output@@AAE_NQAH@Z 1004e190 f i libucrtd:output.obj
 0001:0004d250       ?process@?$output_processor@DV?$stream_output_adapter@D@__crt_stdio_output@@V?$format_validation_base@DV?$stream_output_adapter@D@__crt_stdio_output@@@2@@__crt_stdio_output@@QAEHXZ 1004e250 f i libucrtd:output.obj
 0001:0004d500       ?process@?$output_processor@DV?$stream_output_adapter@D@__crt_stdio_output@@V?$positional_parameter_base@DV?$stream_output_adapter@D@__crt_stdio_output@@@2@@__crt_stdio_output@@QAEHXZ 1004e500 f i libucrtd:output.obj
 0001:0004d7b0       ?process@?$output_processor@DV?$stream_output_adapter@D@__crt_stdio_output@@V?$standard_base@DV?$stream_output_adapter@D@__crt_stdio_output@@@2@@__crt_stdio_output@@QAEHXZ 1004e7b0 f i libucrtd:output.obj
 0001:0004da60       ?process@?$output_processor@DV?$string_output_adapter@D@__crt_stdio_output@@V?$format_validation_base@DV?$string_output_adapter@D@__crt_stdio_output@@@2@@__crt_stdio_output@@QAEHXZ 1004ea60 f i libucrtd:output.obj
 0001:0004dd10       ?process@?$output_processor@DV?$string_output_adapter@D@__crt_stdio_output@@V?$positional_parameter_base@DV?$string_output_adapter@D@__crt_stdio_output@@@2@@__crt_stdio_output@@QAEHXZ 1004ed10 f i libucrtd:output.obj
 0001:0004dfc0       ?process@?$output_processor@DV?$string_output_adapter@D@__crt_stdio_output@@V?$standard_base@DV?$string_output_adapter@D@__crt_stdio_output@@@2@@__crt_stdio_output@@QAEHXZ 1004efc0 f i libucrtd:output.obj
 0001:0004e270       ?process@?$output_processor@_WV?$stream_output_adapter@_W@__crt_stdio_output@@V?$format_validation_base@_WV?$stream_output_adapter@_W@__crt_stdio_output@@@2@@__crt_stdio_output@@QAEHXZ 1004f270 f i libucrtd:output.obj
 0001:0004e520       ?process@?$output_processor@_WV?$stream_output_adapter@_W@__crt_stdio_output@@V?$positional_parameter_base@_WV?$stream_output_adapter@_W@__crt_stdio_output@@@2@@__crt_stdio_output@@QAEHXZ 1004f520 f i libucrtd:output.obj
 0001:0004e7d0       ?process@?$output_processor@_WV?$stream_output_adapter@_W@__crt_stdio_output@@V?$standard_base@_WV?$stream_output_adapter@_W@__crt_stdio_output@@@2@@__crt_stdio_output@@QAEHXZ 1004f7d0 f i libucrtd:output.obj
 0001:0004ea80       ?process@?$output_processor@_WV?$string_output_adapter@_W@__crt_stdio_output@@V?$format_validation_base@_WV?$string_output_adapter@_W@__crt_stdio_output@@@2@@__crt_stdio_output@@QAEHXZ 1004fa80 f i libucrtd:output.obj
 0001:0004ed30       ?process@?$output_processor@_WV?$string_output_adapter@_W@__crt_stdio_output@@V?$positional_parameter_base@_WV?$string_output_adapter@_W@__crt_stdio_output@@@2@@__crt_stdio_output@@QAEHXZ 1004fd30 f i libucrtd:output.obj
 0001:0004efe0       ?process@?$output_processor@_WV?$string_output_adapter@_W@__crt_stdio_output@@V?$standard_base@_WV?$string_output_adapter@_W@__crt_stdio_output@@@2@@__crt_stdio_output@@QAEHXZ 1004ffe0 f i libucrtd:output.obj
 0001:0004f290       ?public_stream@__crt_stdio_stream@@QBEPAU_iobuf@@XZ 10050290 f i libucrtd:output.obj
 0001:0004f2b0       ?set_flag@?$output_processor@DV?$stream_output_adapter@D@__crt_stdio_output@@V?$format_validation_base@DV?$stream_output_adapter@D@__crt_stdio_output@@@2@@__crt_stdio_output@@AAEXI@Z 100502b0 f i libucrtd:output.obj
 0001:0004f2d0       ?set_flag@?$output_processor@DV?$stream_output_adapter@D@__crt_stdio_output@@V?$positional_parameter_base@DV?$stream_output_adapter@D@__crt_stdio_output@@@2@@__crt_stdio_output@@AAEXI@Z 100502d0 f i libucrtd:output.obj
 0001:0004f2f0       ?set_flag@?$output_processor@DV?$stream_output_adapter@D@__crt_stdio_output@@V?$standard_base@DV?$stream_output_adapter@D@__crt_stdio_output@@@2@@__crt_stdio_output@@AAEXI@Z 100502f0 f i libucrtd:output.obj
 0001:0004f310       ?set_flag@?$output_processor@DV?$string_output_adapter@D@__crt_stdio_output@@V?$format_validation_base@DV?$string_output_adapter@D@__crt_stdio_output@@@2@@__crt_stdio_output@@AAEXI@Z 10050310 f i libucrtd:output.obj
 0001:0004f330       ?set_flag@?$output_processor@DV?$string_output_adapter@D@__crt_stdio_output@@V?$positional_parameter_base@DV?$string_output_adapter@D@__crt_stdio_output@@@2@@__crt_stdio_output@@AAEXI@Z 10050330 f i libucrtd:output.obj
 0001:0004f350       ?set_flag@?$output_processor@DV?$string_output_adapter@D@__crt_stdio_output@@V?$standard_base@DV?$string_output_adapter@D@__crt_stdio_output@@@2@@__crt_stdio_output@@AAEXI@Z 10050350 f i libucrtd:output.obj
 0001:0004f370       ?set_flag@?$output_processor@_WV?$stream_output_adapter@_W@__crt_stdio_output@@V?$format_validation_base@_WV?$stream_output_adapter@_W@__crt_stdio_output@@@2@@__crt_stdio_output@@AAEXI@Z 10050370 f i libucrtd:output.obj
 0001:0004f390       ?set_flag@?$output_processor@_WV?$stream_output_adapter@_W@__crt_stdio_output@@V?$positional_parameter_base@_WV?$stream_output_adapter@_W@__crt_stdio_output@@@2@@__crt_stdio_output@@AAEXI@Z 10050390 f i libucrtd:output.obj
 0001:0004f3b0       ?set_flag@?$output_processor@_WV?$stream_output_adapter@_W@__crt_stdio_output@@V?$standard_base@_WV?$stream_output_adapter@_W@__crt_stdio_output@@@2@@__crt_stdio_output@@AAEXI@Z 100503b0 f i libucrtd:output.obj
 0001:0004f3d0       ?set_flag@?$output_processor@_WV?$string_output_adapter@_W@__crt_stdio_output@@V?$format_validation_base@_WV?$string_output_adapter@_W@__crt_stdio_output@@@2@@__crt_stdio_output@@AAEXI@Z 100503d0 f i libucrtd:output.obj
 0001:0004f3f0       ?set_flag@?$output_processor@_WV?$string_output_adapter@_W@__crt_stdio_output@@V?$positional_parameter_base@_WV?$string_output_adapter@_W@__crt_stdio_output@@@2@@__crt_stdio_output@@AAEXI@Z 100503f0 f i libucrtd:output.obj
 0001:0004f410       ?set_flag@?$output_processor@_WV?$string_output_adapter@_W@__crt_stdio_output@@V?$standard_base@_WV?$string_output_adapter@_W@__crt_stdio_output@@@2@@__crt_stdio_output@@AAEXI@Z 10050410 f i libucrtd:output.obj
 0001:0004f430       ?should_format@?$positional_parameter_base@DV?$stream_output_adapter@D@__crt_stdio_output@@@__crt_stdio_output@@IAE_NXZ 10050430 f i libucrtd:output.obj
 0001:0004f470       ?should_format@?$positional_parameter_base@DV?$string_output_adapter@D@__crt_stdio_output@@@__crt_stdio_output@@IAE_NXZ 10050470 f i libucrtd:output.obj
 0001:0004f4b0       ?should_format@?$positional_parameter_base@_WV?$stream_output_adapter@_W@__crt_stdio_output@@@__crt_stdio_output@@IAE_NXZ 100504b0 f i libucrtd:output.obj
 0001:0004f4f0       ?should_format@?$positional_parameter_base@_WV?$string_output_adapter@_W@__crt_stdio_output@@@__crt_stdio_output@@IAE_NXZ 100504f0 f i libucrtd:output.obj
 0001:0004f530       ?should_format@?$standard_base@DV?$stream_output_adapter@D@__crt_stdio_output@@@__crt_stdio_output@@IAE_NXZ 10050530 f i libucrtd:output.obj
 0001:0004f540       ?should_format@?$standard_base@DV?$string_output_adapter@D@__crt_stdio_output@@@__crt_stdio_output@@IAE_NXZ 10050540 f i libucrtd:output.obj
 0001:0004f550       ?should_format@?$standard_base@_WV?$stream_output_adapter@_W@__crt_stdio_output@@@__crt_stdio_output@@IAE_NXZ 10050550 f i libucrtd:output.obj
 0001:0004f560       ?should_format@?$standard_base@_WV?$string_output_adapter@_W@__crt_stdio_output@@@__crt_stdio_output@@IAE_NXZ 10050560 f i libucrtd:output.obj
 0001:0004f570       ?should_skip_normal_state_processing@?$positional_parameter_base@DV?$stream_output_adapter@D@__crt_stdio_output@@@__crt_stdio_output@@IAE_NXZ 10050570 f i libucrtd:output.obj
 0001:0004f5c0       ?should_skip_normal_state_processing@?$positional_parameter_base@DV?$string_output_adapter@D@__crt_stdio_output@@@__crt_stdio_output@@IAE_NXZ 100505c0 f i libucrtd:output.obj
 0001:0004f610       ?should_skip_normal_state_processing@?$positional_parameter_base@_WV?$stream_output_adapter@_W@__crt_stdio_output@@@__crt_stdio_output@@IAE_NXZ 10050610 f i libucrtd:output.obj
 0001:0004f660       ?should_skip_normal_state_processing@?$positional_parameter_base@_WV?$string_output_adapter@_W@__crt_stdio_output@@@__crt_stdio_output@@IAE_NXZ 10050660 f i libucrtd:output.obj
 0001:0004f6b0       ?should_skip_normal_state_processing@?$standard_base@DV?$stream_output_adapter@D@__crt_stdio_output@@@__crt_stdio_output@@IAE_NXZ 100506b0 f i libucrtd:output.obj
 0001:0004f6c0       ?should_skip_normal_state_processing@?$standard_base@DV?$string_output_adapter@D@__crt_stdio_output@@@__crt_stdio_output@@IAE_NXZ 100506c0 f i libucrtd:output.obj
 0001:0004f6d0       ?should_skip_normal_state_processing@?$standard_base@_WV?$stream_output_adapter@_W@__crt_stdio_output@@@__crt_stdio_output@@IAE_NXZ 100506d0 f i libucrtd:output.obj
 0001:0004f6e0       ?should_skip_normal_state_processing@?$standard_base@_WV?$string_output_adapter@_W@__crt_stdio_output@@@__crt_stdio_output@@IAE_NXZ 100506e0 f i libucrtd:output.obj
 0001:0004f6f0       ?should_skip_type_state_output@?$positional_parameter_base@DV?$stream_output_adapter@D@__crt_stdio_output@@@__crt_stdio_output@@IBE_NXZ 100506f0 f i libucrtd:output.obj
 0001:0004f730       ?should_skip_type_state_output@?$positional_parameter_base@DV?$string_output_adapter@D@__crt_stdio_output@@@__crt_stdio_output@@IBE_NXZ 10050730 f i libucrtd:output.obj
 0001:0004f770       ?should_skip_type_state_output@?$positional_parameter_base@_WV?$stream_output_adapter@_W@__crt_stdio_output@@@__crt_stdio_output@@IBE_NXZ 10050770 f i libucrtd:output.obj
 0001:0004f7b0       ?should_skip_type_state_output@?$positional_parameter_base@_WV?$string_output_adapter@_W@__crt_stdio_output@@@__crt_stdio_output@@IBE_NXZ 100507b0 f i libucrtd:output.obj
 0001:0004f7f0       ?should_skip_type_state_output@?$standard_base@DV?$stream_output_adapter@D@__crt_stdio_output@@@__crt_stdio_output@@IBE_NXZ 100507f0 f i libucrtd:output.obj
 0001:0004f800       ?should_skip_type_state_output@?$standard_base@DV?$string_output_adapter@D@__crt_stdio_output@@@__crt_stdio_output@@IBE_NXZ 10050800 f i libucrtd:output.obj
 0001:0004f810       ?should_skip_type_state_output@?$standard_base@_WV?$stream_output_adapter@_W@__crt_stdio_output@@@__crt_stdio_output@@IBE_NXZ 10050810 f i libucrtd:output.obj
 0001:0004f820       ?should_skip_type_state_output@?$standard_base@_WV?$string_output_adapter@_W@__crt_stdio_output@@@__crt_stdio_output@@IBE_NXZ 10050820 f i libucrtd:output.obj
 0001:0004f830       ?state_case_dot@?$output_processor@DV?$stream_output_adapter@D@__crt_stdio_output@@V?$format_validation_base@DV?$stream_output_adapter@D@__crt_stdio_output@@@2@@__crt_stdio_output@@AAE_NXZ 10050830 f i libucrtd:output.obj
 0001:0004f850       ?state_case_dot@?$output_processor@DV?$stream_output_adapter@D@__crt_stdio_output@@V?$positional_parameter_base@DV?$stream_output_adapter@D@__crt_stdio_output@@@2@@__crt_stdio_output@@AAE_NXZ 10050850 f i libucrtd:output.obj
 0001:0004f870       ?state_case_dot@?$output_processor@DV?$stream_output_adapter@D@__crt_stdio_output@@V?$standard_base@DV?$stream_output_adapter@D@__crt_stdio_output@@@2@@__crt_stdio_output@@AAE_NXZ 10050870 f i libucrtd:output.obj
 0001:0004f890       ?state_case_dot@?$output_processor@DV?$string_output_adapter@D@__crt_stdio_output@@V?$format_validation_base@DV?$string_output_adapter@D@__crt_stdio_output@@@2@@__crt_stdio_output@@AAE_NXZ 10050890 f i libucrtd:output.obj
 0001:0004f8b0       ?state_case_dot@?$output_processor@DV?$string_output_adapter@D@__crt_stdio_output@@V?$positional_parameter_base@DV?$string_output_adapter@D@__crt_stdio_output@@@2@@__crt_stdio_output@@AAE_NXZ 100508b0 f i libucrtd:output.obj
 0001:0004f8d0       ?state_case_dot@?$output_processor@DV?$string_output_adapter@D@__crt_stdio_output@@V?$standard_base@DV?$string_output_adapter@D@__crt_stdio_output@@@2@@__crt_stdio_output@@AAE_NXZ 100508d0 f i libucrtd:output.obj
 0001:0004f8f0       ?state_case_dot@?$output_processor@_WV?$stream_output_adapter@_W@__crt_stdio_output@@V?$format_validation_base@_WV?$stream_output_adapter@_W@__crt_stdio_output@@@2@@__crt_stdio_output@@AAE_NXZ 100508f0 f i libucrtd:output.obj
 0001:0004f910       ?state_case_dot@?$output_processor@_WV?$stream_output_adapter@_W@__crt_stdio_output@@V?$positional_parameter_base@_WV?$stream_output_adapter@_W@__crt_stdio_output@@@2@@__crt_stdio_output@@AAE_NXZ 10050910 f i libucrtd:output.obj
 0001:0004f930       ?state_case_dot@?$output_processor@_WV?$stream_output_adapter@_W@__crt_stdio_output@@V?$standard_base@_WV?$stream_output_adapter@_W@__crt_stdio_output@@@2@@__crt_stdio_output@@AAE_NXZ 10050930 f i libucrtd:output.obj
 0001:0004f950       ?state_case_dot@?$output_processor@_WV?$string_output_adapter@_W@__crt_stdio_output@@V?$format_validation_base@_WV?$string_output_adapter@_W@__crt_stdio_output@@@2@@__crt_stdio_output@@AAE_NXZ 10050950 f i libucrtd:output.obj
 0001:0004f970       ?state_case_dot@?$output_processor@_WV?$string_output_adapter@_W@__crt_stdio_output@@V?$positional_parameter_base@_WV?$string_output_adapter@_W@__crt_stdio_output@@@2@@__crt_stdio_output@@AAE_NXZ 10050970 f i libucrtd:output.obj
 0001:0004f990       ?state_case_dot@?$output_processor@_WV?$string_output_adapter@_W@__crt_stdio_output@@V?$standard_base@_WV?$string_output_adapter@_W@__crt_stdio_output@@@2@@__crt_stdio_output@@AAE_NXZ 10050990 f i libucrtd:output.obj
 0001:0004f9b0       ?state_case_flag@?$output_processor@DV?$stream_output_adapter@D@__crt_stdio_output@@V?$format_validation_base@DV?$stream_output_adapter@D@__crt_stdio_output@@@2@@__crt_stdio_output@@AAE_NXZ 100509b0 f i libucrtd:output.obj
 0001:0004fa60       ?state_case_flag@?$output_processor@DV?$stream_output_adapter@D@__crt_stdio_output@@V?$positional_parameter_base@DV?$stream_output_adapter@D@__crt_stdio_output@@@2@@__crt_stdio_output@@AAE_NXZ 10050a60 f i libucrtd:output.obj
 0001:0004fb10       ?state_case_flag@?$output_processor@DV?$stream_output_adapter@D@__crt_stdio_output@@V?$standard_base@DV?$stream_output_adapter@D@__crt_stdio_output@@@2@@__crt_stdio_output@@AAE_NXZ 10050b10 f i libucrtd:output.obj
 0001:0004fbc0       ?state_case_flag@?$output_processor@DV?$string_output_adapter@D@__crt_stdio_output@@V?$format_validation_base@DV?$string_output_adapter@D@__crt_stdio_output@@@2@@__crt_stdio_output@@AAE_NXZ 10050bc0 f i libucrtd:output.obj
 0001:0004fc70       ?state_case_flag@?$output_processor@DV?$string_output_adapter@D@__crt_stdio_output@@V?$positional_parameter_base@DV?$string_output_adapter@D@__crt_stdio_output@@@2@@__crt_stdio_output@@AAE_NXZ 10050c70 f i libucrtd:output.obj
 0001:0004fd20       ?state_case_flag@?$output_processor@DV?$string_output_adapter@D@__crt_stdio_output@@V?$standard_base@DV?$string_output_adapter@D@__crt_stdio_output@@@2@@__crt_stdio_output@@AAE_NXZ 10050d20 f i libucrtd:output.obj
 0001:0004fdd0       ?state_case_flag@?$output_processor@_WV?$stream_output_adapter@_W@__crt_stdio_output@@V?$format_validation_base@_WV?$stream_output_adapter@_W@__crt_stdio_output@@@2@@__crt_stdio_output@@AAE_NXZ 10050dd0 f i libucrtd:output.obj
 0001:0004fe80       ?state_case_flag@?$output_processor@_WV?$stream_output_adapter@_W@__crt_stdio_output@@V?$positional_parameter_base@_WV?$stream_output_adapter@_W@__crt_stdio_output@@@2@@__crt_stdio_output@@AAE_NXZ 10050e80 f i libucrtd:output.obj
 0001:0004ff30       ?state_case_flag@?$output_processor@_WV?$stream_output_adapter@_W@__crt_stdio_output@@V?$standard_base@_WV?$stream_output_adapter@_W@__crt_stdio_output@@@2@@__crt_stdio_output@@AAE_NXZ 10050f30 f i libucrtd:output.obj
 0001:0004ffe0       ?state_case_flag@?$output_processor@_WV?$string_output_adapter@_W@__crt_stdio_output@@V?$format_validation_base@_WV?$string_output_adapter@_W@__crt_stdio_output@@@2@@__crt_stdio_output@@AAE_NXZ 10050fe0 f i libucrtd:output.obj
 0001:00050090       ?state_case_flag@?$output_processor@_WV?$string_output_adapter@_W@__crt_stdio_output@@V?$positional_parameter_base@_WV?$string_output_adapter@_W@__crt_stdio_output@@@2@@__crt_stdio_output@@AAE_NXZ 10051090 f i libucrtd:output.obj
 0001:00050140       ?state_case_flag@?$output_processor@_WV?$string_output_adapter@_W@__crt_stdio_output@@V?$standard_base@_WV?$string_output_adapter@_W@__crt_stdio_output@@@2@@__crt_stdio_output@@AAE_NXZ 10051140 f i libucrtd:output.obj
 0001:000501f0       ?state_case_normal@?$output_processor@DV?$stream_output_adapter@D@__crt_stdio_output@@V?$format_validation_base@DV?$stream_output_adapter@D@__crt_stdio_output@@@2@@__crt_stdio_output@@AAE_NXZ 100511f0 f i libucrtd:output.obj
 0001:000502a0       ?state_case_normal@?$output_processor@DV?$stream_output_adapter@D@__crt_stdio_output@@V?$positional_parameter_base@DV?$stream_output_adapter@D@__crt_stdio_output@@@2@@__crt_stdio_output@@AAE_NXZ 100512a0 f i libucrtd:output.obj
 0001:00050350       ?state_case_normal@?$output_processor@DV?$stream_output_adapter@D@__crt_stdio_output@@V?$standard_base@DV?$stream_output_adapter@D@__crt_stdio_output@@@2@@__crt_stdio_output@@AAE_NXZ 10051350 f i libucrtd:output.obj
 0001:00050400       ?state_case_normal@?$output_processor@DV?$string_output_adapter@D@__crt_stdio_output@@V?$format_validation_base@DV?$string_output_adapter@D@__crt_stdio_output@@@2@@__crt_stdio_output@@AAE_NXZ 10051400 f i libucrtd:output.obj
 0001:000504b0       ?state_case_normal@?$output_processor@DV?$string_output_adapter@D@__crt_stdio_output@@V?$positional_parameter_base@DV?$string_output_adapter@D@__crt_stdio_output@@@2@@__crt_stdio_output@@AAE_NXZ 100514b0 f i libucrtd:output.obj
 0001:00050560       ?state_case_normal@?$output_processor@DV?$string_output_adapter@D@__crt_stdio_output@@V?$standard_base@DV?$string_output_adapter@D@__crt_stdio_output@@@2@@__crt_stdio_output@@AAE_NXZ 10051560 f i libucrtd:output.obj
 0001:00050610       ?state_case_normal@?$output_processor@_WV?$stream_output_adapter@_W@__crt_stdio_output@@V?$format_validation_base@_WV?$stream_output_adapter@_W@__crt_stdio_output@@@2@@__crt_stdio_output@@AAE_NXZ 10051610 f i libucrtd:output.obj
 0001:000506c0       ?state_case_normal@?$output_processor@_WV?$stream_output_adapter@_W@__crt_stdio_output@@V?$positional_parameter_base@_WV?$stream_output_adapter@_W@__crt_stdio_output@@@2@@__crt_stdio_output@@AAE_NXZ 100516c0 f i libucrtd:output.obj
 0001:00050770       ?state_case_normal@?$output_processor@_WV?$stream_output_adapter@_W@__crt_stdio_output@@V?$standard_base@_WV?$stream_output_adapter@_W@__crt_stdio_output@@@2@@__crt_stdio_output@@AAE_NXZ 10051770 f i libucrtd:output.obj
 0001:00050820       ?state_case_normal@?$output_processor@_WV?$string_output_adapter@_W@__crt_stdio_output@@V?$format_validation_base@_WV?$string_output_adapter@_W@__crt_stdio_output@@@2@@__crt_stdio_output@@AAE_NXZ 10051820 f i libucrtd:output.obj
 0001:000508d0       ?state_case_normal@?$output_processor@_WV?$string_output_adapter@_W@__crt_stdio_output@@V?$positional_parameter_base@_WV?$string_output_adapter@_W@__crt_stdio_output@@@2@@__crt_stdio_output@@AAE_NXZ 100518d0 f i libucrtd:output.obj
 0001:00050980       ?state_case_normal@?$output_processor@_WV?$string_output_adapter@_W@__crt_stdio_output@@V?$standard_base@_WV?$string_output_adapter@_W@__crt_stdio_output@@@2@@__crt_stdio_output@@AAE_NXZ 10051980 f i libucrtd:output.obj
 0001:00050a30       ?state_case_normal_common@?$output_processor@DV?$stream_output_adapter@D@__crt_stdio_output@@V?$format_validation_base@DV?$stream_output_adapter@D@__crt_stdio_output@@@2@@__crt_stdio_output@@AAE_NXZ 10051a30 f i libucrtd:output.obj
 0001:00050a80       ?state_case_normal_common@?$output_processor@DV?$stream_output_adapter@D@__crt_stdio_output@@V?$positional_parameter_base@DV?$stream_output_adapter@D@__crt_stdio_output@@@2@@__crt_stdio_output@@AAE_NXZ 10051a80 f i libucrtd:output.obj
 0001:00050ad0       ?state_case_normal_common@?$output_processor@DV?$stream_output_adapter@D@__crt_stdio_output@@V?$standard_base@DV?$stream_output_adapter@D@__crt_stdio_output@@@2@@__crt_stdio_output@@AAE_NXZ 10051ad0 f i libucrtd:output.obj
 0001:00050b20       ?state_case_normal_common@?$output_processor@DV?$string_output_adapter@D@__crt_stdio_output@@V?$format_validation_base@DV?$string_output_adapter@D@__crt_stdio_output@@@2@@__crt_stdio_output@@AAE_NXZ 10051b20 f i libucrtd:output.obj
 0001:00050b70       ?state_case_normal_common@?$output_processor@DV?$string_output_adapter@D@__crt_stdio_output@@V?$positional_parameter_base@DV?$string_output_adapter@D@__crt_stdio_output@@@2@@__crt_stdio_output@@AAE_NXZ 10051b70 f i libucrtd:output.obj
 0001:00050bc0       ?state_case_normal_common@?$output_processor@DV?$string_output_adapter@D@__crt_stdio_output@@V?$standard_base@DV?$string_output_adapter@D@__crt_stdio_output@@@2@@__crt_stdio_output@@AAE_NXZ 10051bc0 f i libucrtd:output.obj
 0001:00050c10       ?state_case_normal_common@?$output_processor@_WV?$stream_output_adapter@_W@__crt_stdio_output@@V?$format_validation_base@_WV?$stream_output_adapter@_W@__crt_stdio_output@@@2@@__crt_stdio_output@@AAE_NXZ 10051c10 f i libucrtd:output.obj
 0001:00050c60       ?state_case_normal_common@?$output_processor@_WV?$stream_output_adapter@_W@__crt_stdio_output@@V?$positional_parameter_base@_WV?$stream_output_adapter@_W@__crt_stdio_output@@@2@@__crt_stdio_output@@AAE_NXZ 10051c60 f i libucrtd:output.obj
 0001:00050cb0       ?state_case_normal_common@?$output_processor@_WV?$stream_output_adapter@_W@__crt_stdio_output@@V?$standard_base@_WV?$stream_output_adapter@_W@__crt_stdio_output@@@2@@__crt_stdio_output@@AAE_NXZ 10051cb0 f i libucrtd:output.obj
 0001:00050d00       ?state_case_normal_common@?$output_processor@_WV?$string_output_adapter@_W@__crt_stdio_output@@V?$format_validation_base@_WV?$string_output_adapter@_W@__crt_stdio_output@@@2@@__crt_stdio_output@@AAE_NXZ 10051d00 f i libucrtd:output.obj
 0001:00050d50       ?state_case_normal_common@?$output_processor@_WV?$string_output_adapter@_W@__crt_stdio_output@@V?$positional_parameter_base@_WV?$string_output_adapter@_W@__crt_stdio_output@@@2@@__crt_stdio_output@@AAE_NXZ 10051d50 f i libucrtd:output.obj
 0001:00050da0       ?state_case_normal_common@?$output_processor@_WV?$string_output_adapter@_W@__crt_stdio_output@@V?$standard_base@_WV?$string_output_adapter@_W@__crt_stdio_output@@@2@@__crt_stdio_output@@AAE_NXZ 10051da0 f i libucrtd:output.obj
 0001:00050df0       ?state_case_normal_tchar@?$output_processor@DV?$stream_output_adapter@D@__crt_stdio_output@@V?$format_validation_base@DV?$stream_output_adapter@D@__crt_stdio_output@@@2@@__crt_stdio_output@@AAE_ND@Z 10051df0 f i libucrtd:output.obj
 0001:00050ef0       ?state_case_normal_tchar@?$output_processor@DV?$stream_output_adapter@D@__crt_stdio_output@@V?$positional_parameter_base@DV?$stream_output_adapter@D@__crt_stdio_output@@@2@@__crt_stdio_output@@AAE_ND@Z 10051ef0 f i libucrtd:output.obj
 0001:00050ff0       ?state_case_normal_tchar@?$output_processor@DV?$stream_output_adapter@D@__crt_stdio_output@@V?$standard_base@DV?$stream_output_adapter@D@__crt_stdio_output@@@2@@__crt_stdio_output@@AAE_ND@Z 10051ff0 f i libucrtd:output.obj
 0001:000510f0       ?state_case_normal_tchar@?$output_processor@DV?$string_output_adapter@D@__crt_stdio_output@@V?$format_validation_base@DV?$string_output_adapter@D@__crt_stdio_output@@@2@@__crt_stdio_output@@AAE_ND@Z 100520f0 f i libucrtd:output.obj
 0001:000511f0       ?state_case_normal_tchar@?$output_processor@DV?$string_output_adapter@D@__crt_stdio_output@@V?$positional_parameter_base@DV?$string_output_adapter@D@__crt_stdio_output@@@2@@__crt_stdio_output@@AAE_ND@Z 100521f0 f i libucrtd:output.obj
 0001:000512f0       ?state_case_normal_tchar@?$output_processor@DV?$string_output_adapter@D@__crt_stdio_output@@V?$standard_base@DV?$string_output_adapter@D@__crt_stdio_output@@@2@@__crt_stdio_output@@AAE_ND@Z 100522f0 f i libucrtd:output.obj
 0001:000513f0       ?state_case_normal_tchar@?$output_processor@_WV?$stream_output_adapter@_W@__crt_stdio_output@@V?$format_validation_base@_WV?$stream_output_adapter@_W@__crt_stdio_output@@@2@@__crt_stdio_output@@AAE_N_W@Z 100523f0 f i libucrtd:output.obj
 0001:00051410       ?state_case_normal_tchar@?$output_processor@_WV?$stream_output_adapter@_W@__crt_stdio_output@@V?$positional_parameter_base@_WV?$stream_output_adapter@_W@__crt_stdio_output@@@2@@__crt_stdio_output@@AAE_N_W@Z 10052410 f i libucrtd:output.obj
 0001:00051430       ?state_case_normal_tchar@?$output_processor@_WV?$stream_output_adapter@_W@__crt_stdio_output@@V?$standard_base@_WV?$stream_output_adapter@_W@__crt_stdio_output@@@2@@__crt_stdio_output@@AAE_N_W@Z 10052430 f i libucrtd:output.obj
 0001:00051450       ?state_case_normal_tchar@?$output_processor@_WV?$string_output_adapter@_W@__crt_stdio_output@@V?$format_validation_base@_WV?$string_output_adapter@_W@__crt_stdio_output@@@2@@__crt_stdio_output@@AAE_N_W@Z 10052450 f i libucrtd:output.obj
 0001:00051470       ?state_case_normal_tchar@?$output_processor@_WV?$string_output_adapter@_W@__crt_stdio_output@@V?$positional_parameter_base@_WV?$string_output_adapter@_W@__crt_stdio_output@@@2@@__crt_stdio_output@@AAE_N_W@Z 10052470 f i libucrtd:output.obj
 0001:00051490       ?state_case_normal_tchar@?$output_processor@_WV?$string_output_adapter@_W@__crt_stdio_output@@V?$standard_base@_WV?$string_output_adapter@_W@__crt_stdio_output@@@2@@__crt_stdio_output@@AAE_N_W@Z 10052490 f i libucrtd:output.obj
 0001:000514b0       ?state_case_percent@?$output_processor@DV?$stream_output_adapter@D@__crt_stdio_output@@V?$format_validation_base@DV?$stream_output_adapter@D@__crt_stdio_output@@@2@@__crt_stdio_output@@AAE_NXZ 100524b0 f i libucrtd:output.obj
 0001:00051500       ?state_case_percent@?$output_processor@DV?$stream_output_adapter@D@__crt_stdio_output@@V?$positional_parameter_base@DV?$stream_output_adapter@D@__crt_stdio_output@@@2@@__crt_stdio_output@@AAE_NXZ 10052500 f i libucrtd:output.obj
 0001:00051550       ?state_case_percent@?$output_processor@DV?$stream_output_adapter@D@__crt_stdio_output@@V?$standard_base@DV?$stream_output_adapter@D@__crt_stdio_output@@@2@@__crt_stdio_output@@AAE_NXZ 10052550 f i libucrtd:output.obj
 0001:000515a0       ?state_case_percent@?$output_processor@DV?$string_output_adapter@D@__crt_stdio_output@@V?$format_validation_base@DV?$string_output_adapter@D@__crt_stdio_output@@@2@@__crt_stdio_output@@AAE_NXZ 100525a0 f i libucrtd:output.obj
 0001:000515f0       ?state_case_percent@?$output_processor@DV?$string_output_adapter@D@__crt_stdio_output@@V?$positional_parameter_base@DV?$string_output_adapter@D@__crt_stdio_output@@@2@@__crt_stdio_output@@AAE_NXZ 100525f0 f i libucrtd:output.obj
 0001:00051640       ?state_case_percent@?$output_processor@DV?$string_output_adapter@D@__crt_stdio_output@@V?$standard_base@DV?$string_output_adapter@D@__crt_stdio_output@@@2@@__crt_stdio_output@@AAE_NXZ 10052640 f i libucrtd:output.obj
 0001:00051690       ?state_case_percent@?$output_processor@_WV?$stream_output_adapter@_W@__crt_stdio_output@@V?$format_validation_base@_WV?$stream_output_adapter@_W@__crt_stdio_output@@@2@@__crt_stdio_output@@AAE_NXZ 10052690 f i libucrtd:output.obj
 0001:000516e0       ?state_case_percent@?$output_processor@_WV?$stream_output_adapter@_W@__crt_stdio_output@@V?$positional_parameter_base@_WV?$stream_output_adapter@_W@__crt_stdio_output@@@2@@__crt_stdio_output@@AAE_NXZ 100526e0 f i libucrtd:output.obj
 0001:00051730       ?state_case_percent@?$output_processor@_WV?$stream_output_adapter@_W@__crt_stdio_output@@V?$standard_base@_WV?$stream_output_adapter@_W@__crt_stdio_output@@@2@@__crt_stdio_output@@AAE_NXZ 10052730 f i libucrtd:output.obj
 0001:00051780       ?state_case_percent@?$output_processor@_WV?$string_output_adapter@_W@__crt_stdio_output@@V?$format_validation_base@_WV?$string_output_adapter@_W@__crt_stdio_output@@@2@@__crt_stdio_output@@AAE_NXZ 10052780 f i libucrtd:output.obj
 0001:000517d0       ?state_case_percent@?$output_processor@_WV?$string_output_adapter@_W@__crt_stdio_output@@V?$positional_parameter_base@_WV?$string_output_adapter@_W@__crt_stdio_output@@@2@@__crt_stdio_output@@AAE_NXZ 100527d0 f i libucrtd:output.obj
 0001:00051820       ?state_case_percent@?$output_processor@_WV?$string_output_adapter@_W@__crt_stdio_output@@V?$standard_base@_WV?$string_output_adapter@_W@__crt_stdio_output@@@2@@__crt_stdio_output@@AAE_NXZ 10052820 f i libucrtd:output.obj
 0001:00051870       ?state_case_precision@?$output_processor@DV?$stream_output_adapter@D@__crt_stdio_output@@V?$format_validation_base@DV?$stream_output_adapter@D@__crt_stdio_output@@@2@@__crt_stdio_output@@AAE_NXZ 10052870 f i libucrtd:output.obj
 0001:000518e0       ?state_case_precision@?$output_processor@DV?$stream_output_adapter@D@__crt_stdio_output@@V?$positional_parameter_base@DV?$stream_output_adapter@D@__crt_stdio_output@@@2@@__crt_stdio_output@@AAE_NXZ 100528e0 f i libucrtd:output.obj
 0001:00051950       ?state_case_precision@?$output_processor@DV?$stream_output_adapter@D@__crt_stdio_output@@V?$standard_base@DV?$stream_output_adapter@D@__crt_stdio_output@@@2@@__crt_stdio_output@@AAE_NXZ 10052950 f i libucrtd:output.obj
 0001:000519c0       ?state_case_precision@?$output_processor@DV?$string_output_adapter@D@__crt_stdio_output@@V?$format_validation_base@DV?$string_output_adapter@D@__crt_stdio_output@@@2@@__crt_stdio_output@@AAE_NXZ 100529c0 f i libucrtd:output.obj
 0001:00051a30       ?state_case_precision@?$output_processor@DV?$string_output_adapter@D@__crt_stdio_output@@V?$positional_parameter_base@DV?$string_output_adapter@D@__crt_stdio_output@@@2@@__crt_stdio_output@@AAE_NXZ 10052a30 f i libucrtd:output.obj
 0001:00051aa0       ?state_case_precision@?$output_processor@DV?$string_output_adapter@D@__crt_stdio_output@@V?$standard_base@DV?$string_output_adapter@D@__crt_stdio_output@@@2@@__crt_stdio_output@@AAE_NXZ 10052aa0 f i libucrtd:output.obj
 0001:00051b10       ?state_case_precision@?$output_processor@_WV?$stream_output_adapter@_W@__crt_stdio_output@@V?$format_validation_base@_WV?$stream_output_adapter@_W@__crt_stdio_output@@@2@@__crt_stdio_output@@AAE_NXZ 10052b10 f i libucrtd:output.obj
 0001:00051b80       ?state_case_precision@?$output_processor@_WV?$stream_output_adapter@_W@__crt_stdio_output@@V?$positional_parameter_base@_WV?$stream_output_adapter@_W@__crt_stdio_output@@@2@@__crt_stdio_output@@AAE_NXZ 10052b80 f i libucrtd:output.obj
 0001:00051bf0       ?state_case_precision@?$output_processor@_WV?$stream_output_adapter@_W@__crt_stdio_output@@V?$standard_base@_WV?$stream_output_adapter@_W@__crt_stdio_output@@@2@@__crt_stdio_output@@AAE_NXZ 10052bf0 f i libucrtd:output.obj
 0001:00051c60       ?state_case_precision@?$output_processor@_WV?$string_output_adapter@_W@__crt_stdio_output@@V?$format_validation_base@_WV?$string_output_adapter@_W@__crt_stdio_output@@@2@@__crt_stdio_output@@AAE_NXZ 10052c60 f i libucrtd:output.obj
 0001:00051cd0       ?state_case_precision@?$output_processor@_WV?$string_output_adapter@_W@__crt_stdio_output@@V?$positional_parameter_base@_WV?$string_output_adapter@_W@__crt_stdio_output@@@2@@__crt_stdio_output@@AAE_NXZ 10052cd0 f i libucrtd:output.obj
 0001:00051d40       ?state_case_precision@?$output_processor@_WV?$string_output_adapter@_W@__crt_stdio_output@@V?$standard_base@_WV?$string_output_adapter@_W@__crt_stdio_output@@@2@@__crt_stdio_output@@AAE_NXZ 10052d40 f i libucrtd:output.obj
 0001:00051db0       ?state_case_size@?$output_processor@DV?$stream_output_adapter@D@__crt_stdio_output@@V?$format_validation_base@DV?$stream_output_adapter@D@__crt_stdio_output@@@2@@__crt_stdio_output@@AAE_NXZ 10052db0 f i libucrtd:output.obj
 0001:00052180       ?state_case_size@?$output_processor@DV?$stream_output_adapter@D@__crt_stdio_output@@V?$positional_parameter_base@DV?$stream_output_adapter@D@__crt_stdio_output@@@2@@__crt_stdio_output@@AAE_NXZ 10053180 f i libucrtd:output.obj
 0001:00052550       ?state_case_size@?$output_processor@DV?$stream_output_adapter@D@__crt_stdio_output@@V?$standard_base@DV?$stream_output_adapter@D@__crt_stdio_output@@@2@@__crt_stdio_output@@AAE_NXZ 10053550 f i libucrtd:output.obj
 0001:00052920       ?state_case_size@?$output_processor@DV?$string_output_adapter@D@__crt_stdio_output@@V?$format_validation_base@DV?$string_output_adapter@D@__crt_stdio_output@@@2@@__crt_stdio_output@@AAE_NXZ 10053920 f i libucrtd:output.obj
 0001:00052cf0       ?state_case_size@?$output_processor@DV?$string_output_adapter@D@__crt_stdio_output@@V?$positional_parameter_base@DV?$string_output_adapter@D@__crt_stdio_output@@@2@@__crt_stdio_output@@AAE_NXZ 10053cf0 f i libucrtd:output.obj
 0001:000530c0       ?state_case_size@?$output_processor@DV?$string_output_adapter@D@__crt_stdio_output@@V?$standard_base@DV?$string_output_adapter@D@__crt_stdio_output@@@2@@__crt_stdio_output@@AAE_NXZ 100540c0 f i libucrtd:output.obj
 0001:00053490       ?state_case_size@?$output_processor@_WV?$stream_output_adapter@_W@__crt_stdio_output@@V?$format_validation_base@_WV?$stream_output_adapter@_W@__crt_stdio_output@@@2@@__crt_stdio_output@@AAE_NXZ 10054490 f i libucrtd:output.obj
 0001:00053860       ?state_case_size@?$output_processor@_WV?$stream_output_adapter@_W@__crt_stdio_output@@V?$positional_parameter_base@_WV?$stream_output_adapter@_W@__crt_stdio_output@@@2@@__crt_stdio_output@@AAE_NXZ 10054860 f i libucrtd:output.obj
 0001:00053c30       ?state_case_size@?$output_processor@_WV?$stream_output_adapter@_W@__crt_stdio_output@@V?$standard_base@_WV?$stream_output_adapter@_W@__crt_stdio_output@@@2@@__crt_stdio_output@@AAE_NXZ 10054c30 f i libucrtd:output.obj
 0001:00054000       ?state_case_size@?$output_processor@_WV?$string_output_adapter@_W@__crt_stdio_output@@V?$format_validation_base@_WV?$string_output_adapter@_W@__crt_stdio_output@@@2@@__crt_stdio_output@@AAE_NXZ 10055000 f i libucrtd:output.obj
 0001:000543d0       ?state_case_size@?$output_processor@_WV?$string_output_adapter@_W@__crt_stdio_output@@V?$positional_parameter_base@_WV?$string_output_adapter@_W@__crt_stdio_output@@@2@@__crt_stdio_output@@AAE_NXZ 100553d0 f i libucrtd:output.obj
 0001:000547a0       ?state_case_size@?$output_processor@_WV?$string_output_adapter@_W@__crt_stdio_output@@V?$standard_base@_WV?$string_output_adapter@_W@__crt_stdio_output@@@2@@__crt_stdio_output@@AAE_NXZ 100557a0 f i libucrtd:output.obj
 0001:00054b70       ?state_case_type@?$output_processor@DV?$stream_output_adapter@D@__crt_stdio_output@@V?$format_validation_base@DV?$stream_output_adapter@D@__crt_stdio_output@@@2@@__crt_stdio_output@@AAE_NXZ 10055b70 f i libucrtd:output.obj
 0001:00054f20       ?state_case_type@?$output_processor@DV?$stream_output_adapter@D@__crt_stdio_output@@V?$positional_parameter_base@DV?$stream_output_adapter@D@__crt_stdio_output@@@2@@__crt_stdio_output@@AAE_NXZ 10055f20 f i libucrtd:output.obj
 0001:000552d0       ?state_case_type@?$output_processor@DV?$stream_output_adapter@D@__crt_stdio_output@@V?$standard_base@DV?$stream_output_adapter@D@__crt_stdio_output@@@2@@__crt_stdio_output@@AAE_NXZ 100562d0 f i libucrtd:output.obj
 0001:00055680       ?state_case_type@?$output_processor@DV?$string_output_adapter@D@__crt_stdio_output@@V?$format_validation_base@DV?$string_output_adapter@D@__crt_stdio_output@@@2@@__crt_stdio_output@@AAE_NXZ 10056680 f i libucrtd:output.obj
 0001:00055a30       ?state_case_type@?$output_processor@DV?$string_output_adapter@D@__crt_stdio_output@@V?$positional_parameter_base@DV?$string_output_adapter@D@__crt_stdio_output@@@2@@__crt_stdio_output@@AAE_NXZ 10056a30 f i libucrtd:output.obj
 0001:00055de0       ?state_case_type@?$output_processor@DV?$string_output_adapter@D@__crt_stdio_output@@V?$standard_base@DV?$string_output_adapter@D@__crt_stdio_output@@@2@@__crt_stdio_output@@AAE_NXZ 10056de0 f i libucrtd:output.obj
 0001:00056190       ?state_case_type@?$output_processor@_WV?$stream_output_adapter@_W@__crt_stdio_output@@V?$format_validation_base@_WV?$stream_output_adapter@_W@__crt_stdio_output@@@2@@__crt_stdio_output@@AAE_NXZ 10057190 f i libucrtd:output.obj
 0001:00056570       ?state_case_type@?$output_processor@_WV?$stream_output_adapter@_W@__crt_stdio_output@@V?$positional_parameter_base@_WV?$stream_output_adapter@_W@__crt_stdio_output@@@2@@__crt_stdio_output@@AAE_NXZ 10057570 f i libucrtd:output.obj
 0001:00056950       ?state_case_type@?$output_processor@_WV?$stream_output_adapter@_W@__crt_stdio_output@@V?$standard_base@_WV?$stream_output_adapter@_W@__crt_stdio_output@@@2@@__crt_stdio_output@@AAE_NXZ 10057950 f i libucrtd:output.obj
 0001:00056d30       ?state_case_type@?$output_processor@_WV?$string_output_adapter@_W@__crt_stdio_output@@V?$format_validation_base@_WV?$string_output_adapter@_W@__crt_stdio_output@@@2@@__crt_stdio_output@@AAE_NXZ 10057d30 f i libucrtd:output.obj
 0001:00057110       ?state_case_type@?$output_processor@_WV?$string_output_adapter@_W@__crt_stdio_output@@V?$positional_parameter_base@_WV?$string_output_adapter@_W@__crt_stdio_output@@@2@@__crt_stdio_output@@AAE_NXZ 10058110 f i libucrtd:output.obj
 0001:000574f0       ?state_case_type@?$output_processor@_WV?$string_output_adapter@_W@__crt_stdio_output@@V?$standard_base@_WV?$string_output_adapter@_W@__crt_stdio_output@@@2@@__crt_stdio_output@@AAE_NXZ 100584f0 f i libucrtd:output.obj
 0001:000578d0       ?state_case_width@?$output_processor@DV?$stream_output_adapter@D@__crt_stdio_output@@V?$format_validation_base@DV?$stream_output_adapter@D@__crt_stdio_output@@@2@@__crt_stdio_output@@AAE_NXZ 100588d0 f i libucrtd:output.obj
 0001:00057950       ?state_case_width@?$output_processor@DV?$stream_output_adapter@D@__crt_stdio_output@@V?$positional_parameter_base@DV?$stream_output_adapter@D@__crt_stdio_output@@@2@@__crt_stdio_output@@AAE_NXZ 10058950 f i libucrtd:output.obj
 0001:000579d0       ?state_case_width@?$output_processor@DV?$stream_output_adapter@D@__crt_stdio_output@@V?$standard_base@DV?$stream_output_adapter@D@__crt_stdio_output@@@2@@__crt_stdio_output@@AAE_NXZ 100589d0 f i libucrtd:output.obj
 0001:00057a50       ?state_case_width@?$output_processor@DV?$string_output_adapter@D@__crt_stdio_output@@V?$format_validation_base@DV?$string_output_adapter@D@__crt_stdio_output@@@2@@__crt_stdio_output@@AAE_NXZ 10058a50 f i libucrtd:output.obj
 0001:00057ad0       ?state_case_width@?$output_processor@DV?$string_output_adapter@D@__crt_stdio_output@@V?$positional_parameter_base@DV?$string_output_adapter@D@__crt_stdio_output@@@2@@__crt_stdio_output@@AAE_NXZ 10058ad0 f i libucrtd:output.obj
 0001:00057b50       ?state_case_width@?$output_processor@DV?$string_output_adapter@D@__crt_stdio_output@@V?$standard_base@DV?$string_output_adapter@D@__crt_stdio_output@@@2@@__crt_stdio_output@@AAE_NXZ 10058b50 f i libucrtd:output.obj
 0001:00057bd0       ?state_case_width@?$output_processor@_WV?$stream_output_adapter@_W@__crt_stdio_output@@V?$format_validation_base@_WV?$stream_output_adapter@_W@__crt_stdio_output@@@2@@__crt_stdio_output@@AAE_NXZ 10058bd0 f i libucrtd:output.obj
 0001:00057c50       ?state_case_width@?$output_processor@_WV?$stream_output_adapter@_W@__crt_stdio_output@@V?$positional_parameter_base@_WV?$stream_output_adapter@_W@__crt_stdio_output@@@2@@__crt_stdio_output@@AAE_NXZ 10058c50 f i libucrtd:output.obj
 0001:00057cd0       ?state_case_width@?$output_processor@_WV?$stream_output_adapter@_W@__crt_stdio_output@@V?$standard_base@_WV?$stream_output_adapter@_W@__crt_stdio_output@@@2@@__crt_stdio_output@@AAE_NXZ 10058cd0 f i libucrtd:output.obj
 0001:00057d50       ?state_case_width@?$output_processor@_WV?$string_output_adapter@_W@__crt_stdio_output@@V?$format_validation_base@_WV?$string_output_adapter@_W@__crt_stdio_output@@@2@@__crt_stdio_output@@AAE_NXZ 10058d50 f i libucrtd:output.obj
 0001:00057dd0       ?state_case_width@?$output_processor@_WV?$string_output_adapter@_W@__crt_stdio_output@@V?$positional_parameter_base@_WV?$string_output_adapter@_W@__crt_stdio_output@@@2@@__crt_stdio_output@@AAE_NXZ 10058dd0 f i libucrtd:output.obj
 0001:00057e50       ?state_case_width@?$output_processor@_WV?$string_output_adapter@_W@__crt_stdio_output@@V?$standard_base@_WV?$string_output_adapter@_W@__crt_stdio_output@@@2@@__crt_stdio_output@@AAE_NXZ 10058e50 f i libucrtd:output.obj
 0001:00057ed0       ?state_count@?$format_validation_base@DV?$stream_output_adapter@D@__crt_stdio_output@@@__crt_stdio_output@@KAIXZ 10058ed0 f i libucrtd:output.obj
 0001:00057ee0       ?state_count@?$format_validation_base@DV?$string_output_adapter@D@__crt_stdio_output@@@__crt_stdio_output@@KAIXZ 10058ee0 f i libucrtd:output.obj
 0001:00057ef0       ?state_count@?$format_validation_base@_WV?$stream_output_adapter@_W@__crt_stdio_output@@@__crt_stdio_output@@KAIXZ 10058ef0 f i libucrtd:output.obj
 0001:00057f00       ?state_count@?$format_validation_base@_WV?$string_output_adapter@_W@__crt_stdio_output@@@__crt_stdio_output@@KAIXZ 10058f00 f i libucrtd:output.obj
 0001:00057f10       ?state_count@?$standard_base@DV?$stream_output_adapter@D@__crt_stdio_output@@@__crt_stdio_output@@KAIXZ 10058f10 f i libucrtd:output.obj
 0001:00057f20       ?state_count@?$standard_base@DV?$string_output_adapter@D@__crt_stdio_output@@@__crt_stdio_output@@KAIXZ 10058f20 f i libucrtd:output.obj
 0001:00057f30       ?state_count@?$standard_base@_WV?$stream_output_adapter@_W@__crt_stdio_output@@@__crt_stdio_output@@KAIXZ 10058f30 f i libucrtd:output.obj
 0001:00057f40       ?state_count@?$standard_base@_WV?$string_output_adapter@_W@__crt_stdio_output@@@__crt_stdio_output@@KAIXZ 10058f40 f i libucrtd:output.obj
 0001:00057f50       ?state_transition_table@?$format_validation_base@DV?$stream_output_adapter@D@__crt_stdio_output@@@__crt_stdio_output@@KAABV?$spectre_mitigated_lookup_table@Ustate_transition_pair@__crt_stdio_output@@$0IA@@2@XZ 10058f50 f i libucrtd:output.obj
 0001:00057f60       ?state_transition_table@?$format_validation_base@DV?$string_output_adapter@D@__crt_stdio_output@@@__crt_stdio_output@@KAABV?$spectre_mitigated_lookup_table@Ustate_transition_pair@__crt_stdio_output@@$0IA@@2@XZ 10058f60 f i libucrtd:output.obj
 0001:00057f70       ?state_transition_table@?$format_validation_base@_WV?$stream_output_adapter@_W@__crt_stdio_output@@@__crt_stdio_output@@KAABV?$spectre_mitigated_lookup_table@Ustate_transition_pair@__crt_stdio_output@@$0IA@@2@XZ 10058f70 f i libucrtd:output.obj
 0001:00057f80       ?state_transition_table@?$format_validation_base@_WV?$string_output_adapter@_W@__crt_stdio_output@@@__crt_stdio_output@@KAABV?$spectre_mitigated_lookup_table@Ustate_transition_pair@__crt_stdio_output@@$0IA@@2@XZ 10058f80 f i libucrtd:output.obj
 0001:00057f90       ?state_transition_table@?$standard_base@DV?$stream_output_adapter@D@__crt_stdio_output@@@__crt_stdio_output@@KAABV?$spectre_mitigated_lookup_table@Ustate_transition_pair@__crt_stdio_output@@$0IA@@2@XZ 10058f90 f i libucrtd:output.obj
 0001:00057fa0       ?state_transition_table@?$standard_base@DV?$string_output_adapter@D@__crt_stdio_output@@@__crt_stdio_output@@KAABV?$spectre_mitigated_lookup_table@Ustate_transition_pair@__crt_stdio_output@@$0IA@@2@XZ 10058fa0 f i libucrtd:output.obj
 0001:00057fb0       ?state_transition_table@?$standard_base@_WV?$stream_output_adapter@_W@__crt_stdio_output@@@__crt_stdio_output@@KAABV?$spectre_mitigated_lookup_table@Ustate_transition_pair@__crt_stdio_output@@$0IA@@2@XZ 10058fb0 f i libucrtd:output.obj
 0001:00057fc0       ?state_transition_table@?$standard_base@_WV?$string_output_adapter@_W@__crt_stdio_output@@@__crt_stdio_output@@KAABV?$spectre_mitigated_lookup_table@Ustate_transition_pair@__crt_stdio_output@@$0IA@@2@XZ 10058fc0 f i libucrtd:output.obj
 0001:00057fd0       ?tchar_string@?$common_data@D@__crt_stdio_output@@IAEAAPADD@Z 10058fd0 f i libucrtd:output.obj
 0001:00057ff0       ?tchar_string@?$common_data@D@__crt_stdio_output@@IAEAAPADXZ 10058ff0 f i libucrtd:output.obj
 0001:00058010       ?tchar_string@?$common_data@_W@__crt_stdio_output@@IAEAAPA_WXZ 10059010 f i libucrtd:output.obj
 0001:00058030       ?tchar_string@?$common_data@_W@__crt_stdio_output@@IAEAAPA_W_W@Z 10059030 f i libucrtd:output.obj
 0001:00058050       ?to_integer_size@__crt_stdio_output@@YAIW4length_modifier@1@@Z 10059050 f i libucrtd:output.obj
 0001:000580f0       ?type_case_X@?$output_processor@DV?$stream_output_adapter@D@__crt_stdio_output@@V?$format_validation_base@DV?$stream_output_adapter@D@__crt_stdio_output@@@2@@__crt_stdio_output@@AAE_NXZ 100590f0 f i libucrtd:output.obj
 0001:00058110       ?type_case_X@?$output_processor@DV?$stream_output_adapter@D@__crt_stdio_output@@V?$positional_parameter_base@DV?$stream_output_adapter@D@__crt_stdio_output@@@2@@__crt_stdio_output@@AAE_NXZ 10059110 f i libucrtd:output.obj
 0001:00058130       ?type_case_X@?$output_processor@DV?$stream_output_adapter@D@__crt_stdio_output@@V?$standard_base@DV?$stream_output_adapter@D@__crt_stdio_output@@@2@@__crt_stdio_output@@AAE_NXZ 10059130 f i libucrtd:output.obj
 0001:00058150       ?type_case_X@?$output_processor@DV?$string_output_adapter@D@__crt_stdio_output@@V?$format_validation_base@DV?$string_output_adapter@D@__crt_stdio_output@@@2@@__crt_stdio_output@@AAE_NXZ 10059150 f i libucrtd:output.obj
 0001:00058170       ?type_case_X@?$output_processor@DV?$string_output_adapter@D@__crt_stdio_output@@V?$positional_parameter_base@DV?$string_output_adapter@D@__crt_stdio_output@@@2@@__crt_stdio_output@@AAE_NXZ 10059170 f i libucrtd:output.obj
 0001:00058190       ?type_case_X@?$output_processor@DV?$string_output_adapter@D@__crt_stdio_output@@V?$standard_base@DV?$string_output_adapter@D@__crt_stdio_output@@@2@@__crt_stdio_output@@AAE_NXZ 10059190 f i libucrtd:output.obj
 0001:000581b0       ?type_case_X@?$output_processor@_WV?$stream_output_adapter@_W@__crt_stdio_output@@V?$format_validation_base@_WV?$stream_output_adapter@_W@__crt_stdio_output@@@2@@__crt_stdio_output@@AAE_NXZ 100591b0 f i libucrtd:output.obj
 0001:000581d0       ?type_case_X@?$output_processor@_WV?$stream_output_adapter@_W@__crt_stdio_output@@V?$positional_parameter_base@_WV?$stream_output_adapter@_W@__crt_stdio_output@@@2@@__crt_stdio_output@@AAE_NXZ 100591d0 f i libucrtd:output.obj
 0001:000581f0       ?type_case_X@?$output_processor@_WV?$stream_output_adapter@_W@__crt_stdio_output@@V?$standard_base@_WV?$stream_output_adapter@_W@__crt_stdio_output@@@2@@__crt_stdio_output@@AAE_NXZ 100591f0 f i libucrtd:output.obj
 0001:00058210       ?type_case_X@?$output_processor@_WV?$string_output_adapter@_W@__crt_stdio_output@@V?$format_validation_base@_WV?$string_output_adapter@_W@__crt_stdio_output@@@2@@__crt_stdio_output@@AAE_NXZ 10059210 f i libucrtd:output.obj
 0001:00058230       ?type_case_X@?$output_processor@_WV?$string_output_adapter@_W@__crt_stdio_output@@V?$positional_parameter_base@_WV?$string_output_adapter@_W@__crt_stdio_output@@@2@@__crt_stdio_output@@AAE_NXZ 10059230 f i libucrtd:output.obj
 0001:00058250       ?type_case_X@?$output_processor@_WV?$string_output_adapter@_W@__crt_stdio_output@@V?$standard_base@_WV?$string_output_adapter@_W@__crt_stdio_output@@@2@@__crt_stdio_output@@AAE_NXZ 10059250 f i libucrtd:output.obj
 0001:00058270       ?type_case_Z@?$output_processor@DV?$stream_output_adapter@D@__crt_stdio_output@@V?$format_validation_base@DV?$stream_output_adapter@D@__crt_stdio_output@@@2@@__crt_stdio_output@@AAE_NXZ 10059270 f i libucrtd:output.obj
 0001:00058360       ?type_case_Z@?$output_processor@DV?$stream_output_adapter@D@__crt_stdio_output@@V?$positional_parameter_base@DV?$stream_output_adapter@D@__crt_stdio_output@@@2@@__crt_stdio_output@@AAE_NXZ 10059360 f i libucrtd:output.obj
 0001:00058450       ?type_case_Z@?$output_processor@DV?$stream_output_adapter@D@__crt_stdio_output@@V?$standard_base@DV?$stream_output_adapter@D@__crt_stdio_output@@@2@@__crt_stdio_output@@AAE_NXZ 10059450 f i libucrtd:output.obj
 0001:00058540       ?type_case_Z@?$output_processor@DV?$string_output_adapter@D@__crt_stdio_output@@V?$format_validation_base@DV?$string_output_adapter@D@__crt_stdio_output@@@2@@__crt_stdio_output@@AAE_NXZ 10059540 f i libucrtd:output.obj
 0001:00058630       ?type_case_Z@?$output_processor@DV?$string_output_adapter@D@__crt_stdio_output@@V?$positional_parameter_base@DV?$string_output_adapter@D@__crt_stdio_output@@@2@@__crt_stdio_output@@AAE_NXZ 10059630 f i libucrtd:output.obj
 0001:00058720       ?type_case_Z@?$output_processor@DV?$string_output_adapter@D@__crt_stdio_output@@V?$standard_base@DV?$string_output_adapter@D@__crt_stdio_output@@@2@@__crt_stdio_output@@AAE_NXZ 10059720 f i libucrtd:output.obj
 0001:00058810       ?type_case_Z@?$output_processor@_WV?$stream_output_adapter@_W@__crt_stdio_output@@V?$format_validation_base@_WV?$stream_output_adapter@_W@__crt_stdio_output@@@2@@__crt_stdio_output@@AAE_NXZ 10059810 f i libucrtd:output.obj
 0001:00058900       ?type_case_Z@?$output_processor@_WV?$stream_output_adapter@_W@__crt_stdio_output@@V?$positional_parameter_base@_WV?$stream_output_adapter@_W@__crt_stdio_output@@@2@@__crt_stdio_output@@AAE_NXZ 10059900 f i libucrtd:output.obj
 0001:000589f0       ?type_case_Z@?$output_processor@_WV?$stream_output_adapter@_W@__crt_stdio_output@@V?$standard_base@_WV?$stream_output_adapter@_W@__crt_stdio_output@@@2@@__crt_stdio_output@@AAE_NXZ 100599f0 f i libucrtd:output.obj
 0001:00058ae0       ?type_case_Z@?$output_processor@_WV?$string_output_adapter@_W@__crt_stdio_output@@V?$format_validation_base@_WV?$string_output_adapter@_W@__crt_stdio_output@@@2@@__crt_stdio_output@@AAE_NXZ 10059ae0 f i libucrtd:output.obj
 0001:00058bd0       ?type_case_Z@?$output_processor@_WV?$string_output_adapter@_W@__crt_stdio_output@@V?$positional_parameter_base@_WV?$string_output_adapter@_W@__crt_stdio_output@@@2@@__crt_stdio_output@@AAE_NXZ 10059bd0 f i libucrtd:output.obj
 0001:00058cc0       ?type_case_Z@?$output_processor@_WV?$string_output_adapter@_W@__crt_stdio_output@@V?$standard_base@_WV?$string_output_adapter@_W@__crt_stdio_output@@@2@@__crt_stdio_output@@AAE_NXZ 10059cc0 f i libucrtd:output.obj
 0001:00058db0       ?type_case_a@?$output_processor@DV?$stream_output_adapter@D@__crt_stdio_output@@V?$format_validation_base@DV?$stream_output_adapter@D@__crt_stdio_output@@@2@@__crt_stdio_output@@AAE_NXZ 10059db0 f i libucrtd:output.obj
 0001:00059020       ?type_case_a@?$output_processor@DV?$stream_output_adapter@D@__crt_stdio_output@@V?$positional_parameter_base@DV?$stream_output_adapter@D@__crt_stdio_output@@@2@@__crt_stdio_output@@AAE_NXZ 1005a020 f i libucrtd:output.obj
 0001:00059290       ?type_case_a@?$output_processor@DV?$stream_output_adapter@D@__crt_stdio_output@@V?$standard_base@DV?$stream_output_adapter@D@__crt_stdio_output@@@2@@__crt_stdio_output@@AAE_NXZ 1005a290 f i libucrtd:output.obj
 0001:00059500       ?type_case_a@?$output_processor@DV?$string_output_adapter@D@__crt_stdio_output@@V?$format_validation_base@DV?$string_output_adapter@D@__crt_stdio_output@@@2@@__crt_stdio_output@@AAE_NXZ 1005a500 f i libucrtd:output.obj
 0001:00059770       ?type_case_a@?$output_processor@DV?$string_output_adapter@D@__crt_stdio_output@@V?$positional_parameter_base@DV?$string_output_adapter@D@__crt_stdio_output@@@2@@__crt_stdio_output@@AAE_NXZ 1005a770 f i libucrtd:output.obj
 0001:000599e0       ?type_case_a@?$output_processor@DV?$string_output_adapter@D@__crt_stdio_output@@V?$standard_base@DV?$string_output_adapter@D@__crt_stdio_output@@@2@@__crt_stdio_output@@AAE_NXZ 1005a9e0 f i libucrtd:output.obj
 0001:00059c50       ?type_case_a@?$output_processor@_WV?$stream_output_adapter@_W@__crt_stdio_output@@V?$format_validation_base@_WV?$stream_output_adapter@_W@__crt_stdio_output@@@2@@__crt_stdio_output@@AAE_NXZ 1005ac50 f i libucrtd:output.obj
 0001:00059ec0       ?type_case_a@?$output_processor@_WV?$stream_output_adapter@_W@__crt_stdio_output@@V?$positional_parameter_base@_WV?$stream_output_adapter@_W@__crt_stdio_output@@@2@@__crt_stdio_output@@AAE_NXZ 1005aec0 f i libucrtd:output.obj
 0001:0005a130       ?type_case_a@?$output_processor@_WV?$stream_output_adapter@_W@__crt_stdio_output@@V?$standard_base@_WV?$stream_output_adapter@_W@__crt_stdio_output@@@2@@__crt_stdio_output@@AAE_NXZ 1005b130 f i libucrtd:output.obj
 0001:0005a3a0       ?type_case_a@?$output_processor@_WV?$string_output_adapter@_W@__crt_stdio_output@@V?$format_validation_base@_WV?$string_output_adapter@_W@__crt_stdio_output@@@2@@__crt_stdio_output@@AAE_NXZ 1005b3a0 f i libucrtd:output.obj
 0001:0005a610       ?type_case_a@?$output_processor@_WV?$string_output_adapter@_W@__crt_stdio_output@@V?$positional_parameter_base@_WV?$string_output_adapter@_W@__crt_stdio_output@@@2@@__crt_stdio_output@@AAE_NXZ 1005b610 f i libucrtd:output.obj
 0001:0005a880       ?type_case_a@?$output_processor@_WV?$string_output_adapter@_W@__crt_stdio_output@@V?$standard_base@_WV?$string_output_adapter@_W@__crt_stdio_output@@@2@@__crt_stdio_output@@AAE_NXZ 1005b880 f i libucrtd:output.obj
 0001:0005aaf0       ?type_case_c@?$output_processor@DV?$stream_output_adapter@D@__crt_stdio_output@@V?$format_validation_base@DV?$stream_output_adapter@D@__crt_stdio_output@@@2@@__crt_stdio_output@@AAE_NXZ 1005baf0 f i libucrtd:output.obj
 0001:0005ab10       ?type_case_c@?$output_processor@DV?$stream_output_adapter@D@__crt_stdio_output@@V?$positional_parameter_base@DV?$stream_output_adapter@D@__crt_stdio_output@@@2@@__crt_stdio_output@@AAE_NXZ 1005bb10 f i libucrtd:output.obj
 0001:0005ab30       ?type_case_c@?$output_processor@DV?$stream_output_adapter@D@__crt_stdio_output@@V?$standard_base@DV?$stream_output_adapter@D@__crt_stdio_output@@@2@@__crt_stdio_output@@AAE_NXZ 1005bb30 f i libucrtd:output.obj
 0001:0005ab50       ?type_case_c@?$output_processor@DV?$string_output_adapter@D@__crt_stdio_output@@V?$format_validation_base@DV?$string_output_adapter@D@__crt_stdio_output@@@2@@__crt_stdio_output@@AAE_NXZ 1005bb50 f i libucrtd:output.obj
 0001:0005ab70       ?type_case_c@?$output_processor@DV?$string_output_adapter@D@__crt_stdio_output@@V?$positional_parameter_base@DV?$string_output_adapter@D@__crt_stdio_output@@@2@@__crt_stdio_output@@AAE_NXZ 1005bb70 f i libucrtd:output.obj
 0001:0005ab90       ?type_case_c@?$output_processor@DV?$string_output_adapter@D@__crt_stdio_output@@V?$standard_base@DV?$string_output_adapter@D@__crt_stdio_output@@@2@@__crt_stdio_output@@AAE_NXZ 1005bb90 f i libucrtd:output.obj
 0001:0005abb0       ?type_case_c@?$output_processor@_WV?$stream_output_adapter@_W@__crt_stdio_output@@V?$format_validation_base@_WV?$stream_output_adapter@_W@__crt_stdio_output@@@2@@__crt_stdio_output@@AAE_NXZ 1005bbb0 f i libucrtd:output.obj
 0001:0005abd0       ?type_case_c@?$output_processor@_WV?$stream_output_adapter@_W@__crt_stdio_output@@V?$positional_parameter_base@_WV?$stream_output_adapter@_W@__crt_stdio_output@@@2@@__crt_stdio_output@@AAE_NXZ 1005bbd0 f i libucrtd:output.obj
 0001:0005abf0       ?type_case_c@?$output_processor@_WV?$stream_output_adapter@_W@__crt_stdio_output@@V?$standard_base@_WV?$stream_output_adapter@_W@__crt_stdio_output@@@2@@__crt_stdio_output@@AAE_NXZ 1005bbf0 f i libucrtd:output.obj
 0001:0005ac10       ?type_case_c@?$output_processor@_WV?$string_output_adapter@_W@__crt_stdio_output@@V?$format_validation_base@_WV?$string_output_adapter@_W@__crt_stdio_output@@@2@@__crt_stdio_output@@AAE_NXZ 1005bc10 f i libucrtd:output.obj
 0001:0005ac30       ?type_case_c@?$output_processor@_WV?$string_output_adapter@_W@__crt_stdio_output@@V?$positional_parameter_base@_WV?$string_output_adapter@_W@__crt_stdio_output@@@2@@__crt_stdio_output@@AAE_NXZ 1005bc30 f i libucrtd:output.obj
 0001:0005ac50       ?type_case_c@?$output_processor@_WV?$string_output_adapter@_W@__crt_stdio_output@@V?$standard_base@_WV?$string_output_adapter@_W@__crt_stdio_output@@@2@@__crt_stdio_output@@AAE_NXZ 1005bc50 f i libucrtd:output.obj
 0001:0005ac70       ?type_case_c_tchar@?$output_processor@DV?$stream_output_adapter@D@__crt_stdio_output@@V?$format_validation_base@DV?$stream_output_adapter@D@__crt_stdio_output@@@2@@__crt_stdio_output@@AAE_ND@Z 1005bc70 f i libucrtd:output.obj
 0001:0005ad80       ?type_case_c_tchar@?$output_processor@DV?$stream_output_adapter@D@__crt_stdio_output@@V?$positional_parameter_base@DV?$stream_output_adapter@D@__crt_stdio_output@@@2@@__crt_stdio_output@@AAE_ND@Z 1005bd80 f i libucrtd:output.obj
 0001:0005ae90       ?type_case_c_tchar@?$output_processor@DV?$stream_output_adapter@D@__crt_stdio_output@@V?$standard_base@DV?$stream_output_adapter@D@__crt_stdio_output@@@2@@__crt_stdio_output@@AAE_ND@Z 1005be90 f i libucrtd:output.obj
 0001:0005afa0       ?type_case_c_tchar@?$output_processor@DV?$string_output_adapter@D@__crt_stdio_output@@V?$format_validation_base@DV?$string_output_adapter@D@__crt_stdio_output@@@2@@__crt_stdio_output@@AAE_ND@Z 1005bfa0 f i libucrtd:output.obj
 0001:0005b0b0       ?type_case_c_tchar@?$output_processor@DV?$string_output_adapter@D@__crt_stdio_output@@V?$positional_parameter_base@DV?$string_output_adapter@D@__crt_stdio_output@@@2@@__crt_stdio_output@@AAE_ND@Z 1005c0b0 f i libucrtd:output.obj
 0001:0005b1c0       ?type_case_c_tchar@?$output_processor@DV?$string_output_adapter@D@__crt_stdio_output@@V?$standard_base@DV?$string_output_adapter@D@__crt_stdio_output@@@2@@__crt_stdio_output@@AAE_ND@Z 1005c1c0 f i libucrtd:output.obj
 0001:0005b2d0       ?type_case_c_tchar@?$output_processor@_WV?$stream_output_adapter@_W@__crt_stdio_output@@V?$format_validation_base@_WV?$stream_output_adapter@_W@__crt_stdio_output@@@2@@__crt_stdio_output@@AAE_N_W@Z 1005c2d0 f i libucrtd:output.obj
 0001:0005b3d0       ?type_case_c_tchar@?$output_processor@_WV?$stream_output_adapter@_W@__crt_stdio_output@@V?$positional_parameter_base@_WV?$stream_output_adapter@_W@__crt_stdio_output@@@2@@__crt_stdio_output@@AAE_N_W@Z 1005c3d0 f i libucrtd:output.obj
 0001:0005b4d0       ?type_case_c_tchar@?$output_processor@_WV?$stream_output_adapter@_W@__crt_stdio_output@@V?$standard_base@_WV?$stream_output_adapter@_W@__crt_stdio_output@@@2@@__crt_stdio_output@@AAE_N_W@Z 1005c4d0 f i libucrtd:output.obj
 0001:0005b5d0       ?type_case_c_tchar@?$output_processor@_WV?$string_output_adapter@_W@__crt_stdio_output@@V?$format_validation_base@_WV?$string_output_adapter@_W@__crt_stdio_output@@@2@@__crt_stdio_output@@AAE_N_W@Z 1005c5d0 f i libucrtd:output.obj
 0001:0005b6d0       ?type_case_c_tchar@?$output_processor@_WV?$string_output_adapter@_W@__crt_stdio_output@@V?$positional_parameter_base@_WV?$string_output_adapter@_W@__crt_stdio_output@@@2@@__crt_stdio_output@@AAE_N_W@Z 1005c6d0 f i libucrtd:output.obj
 0001:0005b7d0       ?type_case_c_tchar@?$output_processor@_WV?$string_output_adapter@_W@__crt_stdio_output@@V?$standard_base@_WV?$string_output_adapter@_W@__crt_stdio_output@@@2@@__crt_stdio_output@@AAE_N_W@Z 1005c7d0 f i libucrtd:output.obj
 0001:0005b8d0       ?type_case_d@?$output_processor@DV?$stream_output_adapter@D@__crt_stdio_output@@V?$format_validation_base@DV?$stream_output_adapter@D@__crt_stdio_output@@@2@@__crt_stdio_output@@AAE_NXZ 1005c8d0 f i libucrtd:output.obj
 0001:0005b900       ?type_case_d@?$output_processor@DV?$stream_output_adapter@D@__crt_stdio_output@@V?$positional_parameter_base@DV?$stream_output_adapter@D@__crt_stdio_output@@@2@@__crt_stdio_output@@AAE_NXZ 1005c900 f i libucrtd:output.obj
 0001:0005b930       ?type_case_d@?$output_processor@DV?$stream_output_adapter@D@__crt_stdio_output@@V?$standard_base@DV?$stream_output_adapter@D@__crt_stdio_output@@@2@@__crt_stdio_output@@AAE_NXZ 1005c930 f i libucrtd:output.obj
 0001:0005b960       ?type_case_d@?$output_processor@DV?$string_output_adapter@D@__crt_stdio_output@@V?$format_validation_base@DV?$string_output_adapter@D@__crt_stdio_output@@@2@@__crt_stdio_output@@AAE_NXZ 1005c960 f i libucrtd:output.obj
 0001:0005b990       ?type_case_d@?$output_processor@DV?$string_output_adapter@D@__crt_stdio_output@@V?$positional_parameter_base@DV?$string_output_adapter@D@__crt_stdio_output@@@2@@__crt_stdio_output@@AAE_NXZ 1005c990 f i libucrtd:output.obj
 0001:0005b9c0       ?type_case_d@?$output_processor@DV?$string_output_adapter@D@__crt_stdio_output@@V?$standard_base@DV?$string_output_adapter@D@__crt_stdio_output@@@2@@__crt_stdio_output@@AAE_NXZ 1005c9c0 f i libucrtd:output.obj
 0001:0005b9f0       ?type_case_d@?$output_processor@_WV?$stream_output_adapter@_W@__crt_stdio_output@@V?$format_validation_base@_WV?$stream_output_adapter@_W@__crt_stdio_output@@@2@@__crt_stdio_output@@AAE_NXZ 1005c9f0 f i libucrtd:output.obj
 0001:0005ba20       ?type_case_d@?$output_processor@_WV?$stream_output_adapter@_W@__crt_stdio_output@@V?$positional_parameter_base@_WV?$stream_output_adapter@_W@__crt_stdio_output@@@2@@__crt_stdio_output@@AAE_NXZ 1005ca20 f i libucrtd:output.obj
 0001:0005ba50       ?type_case_d@?$output_processor@_WV?$stream_output_adapter@_W@__crt_stdio_output@@V?$standard_base@_WV?$stream_output_adapter@_W@__crt_stdio_output@@@2@@__crt_stdio_output@@AAE_NXZ 1005ca50 f i libucrtd:output.obj
 0001:0005ba80       ?type_case_d@?$output_processor@_WV?$string_output_adapter@_W@__crt_stdio_output@@V?$format_validation_base@_WV?$string_output_adapter@_W@__crt_stdio_output@@@2@@__crt_stdio_output@@AAE_NXZ 1005ca80 f i libucrtd:output.obj
 0001:0005bab0       ?type_case_d@?$output_processor@_WV?$string_output_adapter@_W@__crt_stdio_output@@V?$positional_parameter_base@_WV?$string_output_adapter@_W@__crt_stdio_output@@@2@@__crt_stdio_output@@AAE_NXZ 1005cab0 f i libucrtd:output.obj
 0001:0005bae0       ?type_case_d@?$output_processor@_WV?$string_output_adapter@_W@__crt_stdio_output@@V?$standard_base@_WV?$string_output_adapter@_W@__crt_stdio_output@@@2@@__crt_stdio_output@@AAE_NXZ 1005cae0 f i libucrtd:output.obj
 0001:0005bb10       ?type_case_integer@?$output_processor@DV?$stream_output_adapter@D@__crt_stdio_output@@V?$format_validation_base@DV?$stream_output_adapter@D@__crt_stdio_output@@@2@@__crt_stdio_output@@AAE_NI_N@Z 1005cb10 f i libucrtd:output.obj
 0001:0005be60       ?type_case_integer@?$output_processor@DV?$stream_output_adapter@D@__crt_stdio_output@@V?$positional_parameter_base@DV?$stream_output_adapter@D@__crt_stdio_output@@@2@@__crt_stdio_output@@AAE_NI_N@Z 1005ce60 f i libucrtd:output.obj
 0001:0005c1b0       ?type_case_integer@?$output_processor@DV?$stream_output_adapter@D@__crt_stdio_output@@V?$standard_base@DV?$stream_output_adapter@D@__crt_stdio_output@@@2@@__crt_stdio_output@@AAE_NI_N@Z 1005d1b0 f i libucrtd:output.obj
 0001:0005c500       ?type_case_integer@?$output_processor@DV?$string_output_adapter@D@__crt_stdio_output@@V?$format_validation_base@DV?$string_output_adapter@D@__crt_stdio_output@@@2@@__crt_stdio_output@@AAE_NI_N@Z 1005d500 f i libucrtd:output.obj
 0001:0005c850       ?type_case_integer@?$output_processor@DV?$string_output_adapter@D@__crt_stdio_output@@V?$positional_parameter_base@DV?$string_output_adapter@D@__crt_stdio_output@@@2@@__crt_stdio_output@@AAE_NI_N@Z 1005d850 f i libucrtd:output.obj
 0001:0005cba0       ?type_case_integer@?$output_processor@DV?$string_output_adapter@D@__crt_stdio_output@@V?$standard_base@DV?$string_output_adapter@D@__crt_stdio_output@@@2@@__crt_stdio_output@@AAE_NI_N@Z 1005dba0 f i libucrtd:output.obj
 0001:0005cef0       ?type_case_integer@?$output_processor@_WV?$stream_output_adapter@_W@__crt_stdio_output@@V?$format_validation_base@_WV?$stream_output_adapter@_W@__crt_stdio_output@@@2@@__crt_stdio_output@@AAE_NI_N@Z 1005def0 f i libucrtd:output.obj
 0001:0005d240       ?type_case_integer@?$output_processor@_WV?$stream_output_adapter@_W@__crt_stdio_output@@V?$positional_parameter_base@_WV?$stream_output_adapter@_W@__crt_stdio_output@@@2@@__crt_stdio_output@@AAE_NI_N@Z 1005e240 f i libucrtd:output.obj
 0001:0005d590       ?type_case_integer@?$output_processor@_WV?$stream_output_adapter@_W@__crt_stdio_output@@V?$standard_base@_WV?$stream_output_adapter@_W@__crt_stdio_output@@@2@@__crt_stdio_output@@AAE_NI_N@Z 1005e590 f i libucrtd:output.obj
 0001:0005d8e0       ?type_case_integer@?$output_processor@_WV?$string_output_adapter@_W@__crt_stdio_output@@V?$format_validation_base@_WV?$string_output_adapter@_W@__crt_stdio_output@@@2@@__crt_stdio_output@@AAE_NI_N@Z 1005e8e0 f i libucrtd:output.obj
 0001:0005dc30       ?type_case_integer@?$output_processor@_WV?$string_output_adapter@_W@__crt_stdio_output@@V?$positional_parameter_base@_WV?$string_output_adapter@_W@__crt_stdio_output@@@2@@__crt_stdio_output@@AAE_NI_N@Z 1005ec30 f i libucrtd:output.obj
 0001:0005df80       ?type_case_integer@?$output_processor@_WV?$string_output_adapter@_W@__crt_stdio_output@@V?$standard_base@_WV?$string_output_adapter@_W@__crt_stdio_output@@@2@@__crt_stdio_output@@AAE_NI_N@Z 1005ef80 f i libucrtd:output.obj
 0001:0005e2d0       ?type_case_n@?$output_processor@DV?$stream_output_adapter@D@__crt_stdio_output@@V?$format_validation_base@DV?$stream_output_adapter@D@__crt_stdio_output@@@2@@__crt_stdio_output@@AAE_NXZ 1005f2d0 f i libucrtd:output.obj
 0001:0005e4c0       ?type_case_n@?$output_processor@DV?$stream_output_adapter@D@__crt_stdio_output@@V?$positional_parameter_base@DV?$stream_output_adapter@D@__crt_stdio_output@@@2@@__crt_stdio_output@@AAE_NXZ 1005f4c0 f i libucrtd:output.obj
 0001:0005e6b0       ?type_case_n@?$output_processor@DV?$stream_output_adapter@D@__crt_stdio_output@@V?$standard_base@DV?$stream_output_adapter@D@__crt_stdio_output@@@2@@__crt_stdio_output@@AAE_NXZ 1005f6b0 f i libucrtd:output.obj
 0001:0005e8a0       ?type_case_n@?$output_processor@DV?$string_output_adapter@D@__crt_stdio_output@@V?$format_validation_base@DV?$string_output_adapter@D@__crt_stdio_output@@@2@@__crt_stdio_output@@AAE_NXZ 1005f8a0 f i libucrtd:output.obj
 0001:0005ea90       ?type_case_n@?$output_processor@DV?$string_output_adapter@D@__crt_stdio_output@@V?$positional_parameter_base@DV?$string_output_adapter@D@__crt_stdio_output@@@2@@__crt_stdio_output@@AAE_NXZ 1005fa90 f i libucrtd:output.obj
 0001:0005ec80       ?type_case_n@?$output_processor@DV?$string_output_adapter@D@__crt_stdio_output@@V?$standard_base@DV?$string_output_adapter@D@__crt_stdio_output@@@2@@__crt_stdio_output@@AAE_NXZ 1005fc80 f i libucrtd:output.obj
 0001:0005ee70       ?type_case_n@?$output_processor@_WV?$stream_output_adapter@_W@__crt_stdio_output@@V?$format_validation_base@_WV?$stream_output_adapter@_W@__crt_stdio_output@@@2@@__crt_stdio_output@@AAE_NXZ 1005fe70 f i libucrtd:output.obj
 0001:0005f060       ?type_case_n@?$output_processor@_WV?$stream_output_adapter@_W@__crt_stdio_output@@V?$positional_parameter_base@_WV?$stream_output_adapter@_W@__crt_stdio_output@@@2@@__crt_stdio_output@@AAE_NXZ 10060060 f i libucrtd:output.obj
 0001:0005f250       ?type_case_n@?$output_processor@_WV?$stream_output_adapter@_W@__crt_stdio_output@@V?$standard_base@_WV?$stream_output_adapter@_W@__crt_stdio_output@@@2@@__crt_stdio_output@@AAE_NXZ 10060250 f i libucrtd:output.obj
 0001:0005f440       ?type_case_n@?$output_processor@_WV?$string_output_adapter@_W@__crt_stdio_output@@V?$format_validation_base@_WV?$string_output_adapter@_W@__crt_stdio_output@@@2@@__crt_stdio_output@@AAE_NXZ 10060440 f i libucrtd:output.obj
 0001:0005f630       ?type_case_n@?$output_processor@_WV?$string_output_adapter@_W@__crt_stdio_output@@V?$positional_parameter_base@_WV?$string_output_adapter@_W@__crt_stdio_output@@@2@@__crt_stdio_output@@AAE_NXZ 10060630 f i libucrtd:output.obj
 0001:0005f820       ?type_case_n@?$output_processor@_WV?$string_output_adapter@_W@__crt_stdio_output@@V?$standard_base@_WV?$string_output_adapter@_W@__crt_stdio_output@@@2@@__crt_stdio_output@@AAE_NXZ 10060820 f i libucrtd:output.obj
 0001:0005fa10       ?type_case_o@?$output_processor@DV?$stream_output_adapter@D@__crt_stdio_output@@V?$format_validation_base@DV?$stream_output_adapter@D@__crt_stdio_output@@@2@@__crt_stdio_output@@AAE_NXZ 10060a10 f i libucrtd:output.obj
 0001:0005fa50       ?type_case_o@?$output_processor@DV?$stream_output_adapter@D@__crt_stdio_output@@V?$positional_parameter_base@DV?$stream_output_adapter@D@__crt_stdio_output@@@2@@__crt_stdio_output@@AAE_NXZ 10060a50 f i libucrtd:output.obj
 0001:0005fa90       ?type_case_o@?$output_processor@DV?$stream_output_adapter@D@__crt_stdio_output@@V?$standard_base@DV?$stream_output_adapter@D@__crt_stdio_output@@@2@@__crt_stdio_output@@AAE_NXZ 10060a90 f i libucrtd:output.obj
 0001:0005fad0       ?type_case_o@?$output_processor@DV?$string_output_adapter@D@__crt_stdio_output@@V?$format_validation_base@DV?$string_output_adapter@D@__crt_stdio_output@@@2@@__crt_stdio_output@@AAE_NXZ 10060ad0 f i libucrtd:output.obj
 0001:0005fb10       ?type_case_o@?$output_processor@DV?$string_output_adapter@D@__crt_stdio_output@@V?$positional_parameter_base@DV?$string_output_adapter@D@__crt_stdio_output@@@2@@__crt_stdio_output@@AAE_NXZ 10060b10 f i libucrtd:output.obj
 0001:0005fb50       ?type_case_o@?$output_processor@DV?$string_output_adapter@D@__crt_stdio_output@@V?$standard_base@DV?$string_output_adapter@D@__crt_stdio_output@@@2@@__crt_stdio_output@@AAE_NXZ 10060b50 f i libucrtd:output.obj
 0001:0005fb90       ?type_case_o@?$output_processor@_WV?$stream_output_adapter@_W@__crt_stdio_output@@V?$format_validation_base@_WV?$stream_output_adapter@_W@__crt_stdio_output@@@2@@__crt_stdio_output@@AAE_NXZ 10060b90 f i libucrtd:output.obj
 0001:0005fbd0       ?type_case_o@?$output_processor@_WV?$stream_output_adapter@_W@__crt_stdio_output@@V?$positional_parameter_base@_WV?$stream_output_adapter@_W@__crt_stdio_output@@@2@@__crt_stdio_output@@AAE_NXZ 10060bd0 f i libucrtd:output.obj
 0001:0005fc10       ?type_case_o@?$output_processor@_WV?$stream_output_adapter@_W@__crt_stdio_output@@V?$standard_base@_WV?$stream_output_adapter@_W@__crt_stdio_output@@@2@@__crt_stdio_output@@AAE_NXZ 10060c10 f i libucrtd:output.obj
 0001:0005fc50       ?type_case_o@?$output_processor@_WV?$string_output_adapter@_W@__crt_stdio_output@@V?$format_validation_base@_WV?$string_output_adapter@_W@__crt_stdio_output@@@2@@__crt_stdio_output@@AAE_NXZ 10060c50 f i libucrtd:output.obj
 0001:0005fc90       ?type_case_o@?$output_processor@_WV?$string_output_adapter@_W@__crt_stdio_output@@V?$positional_parameter_base@_WV?$string_output_adapter@_W@__crt_stdio_output@@@2@@__crt_stdio_output@@AAE_NXZ 10060c90 f i libucrtd:output.obj
 0001:0005fcd0       ?type_case_o@?$output_processor@_WV?$string_output_adapter@_W@__crt_stdio_output@@V?$standard_base@_WV?$string_output_adapter@_W@__crt_stdio_output@@@2@@__crt_stdio_output@@AAE_NXZ 10060cd0 f i libucrtd:output.obj
 0001:0005fd10       ?type_case_p@?$output_processor@DV?$stream_output_adapter@D@__crt_stdio_output@@V?$format_validation_base@DV?$stream_output_adapter@D@__crt_stdio_output@@@2@@__crt_stdio_output@@AAE_NXZ 10060d10 f i libucrtd:output.obj
 0001:0005fd40       ?type_case_p@?$output_processor@DV?$stream_output_adapter@D@__crt_stdio_output@@V?$positional_parameter_base@DV?$stream_output_adapter@D@__crt_stdio_output@@@2@@__crt_stdio_output@@AAE_NXZ 10060d40 f i libucrtd:output.obj
 0001:0005fd70       ?type_case_p@?$output_processor@DV?$stream_output_adapter@D@__crt_stdio_output@@V?$standard_base@DV?$stream_output_adapter@D@__crt_stdio_output@@@2@@__crt_stdio_output@@AAE_NXZ 10060d70 f i libucrtd:output.obj
 0001:0005fda0       ?type_case_p@?$output_processor@DV?$string_output_adapter@D@__crt_stdio_output@@V?$format_validation_base@DV?$string_output_adapter@D@__crt_stdio_output@@@2@@__crt_stdio_output@@AAE_NXZ 10060da0 f i libucrtd:output.obj
 0001:0005fdd0       ?type_case_p@?$output_processor@DV?$string_output_adapter@D@__crt_stdio_output@@V?$positional_parameter_base@DV?$string_output_adapter@D@__crt_stdio_output@@@2@@__crt_stdio_output@@AAE_NXZ 10060dd0 f i libucrtd:output.obj
 0001:0005fe00       ?type_case_p@?$output_processor@DV?$string_output_adapter@D@__crt_stdio_output@@V?$standard_base@DV?$string_output_adapter@D@__crt_stdio_output@@@2@@__crt_stdio_output@@AAE_NXZ 10060e00 f i libucrtd:output.obj
 0001:0005fe30       ?type_case_p@?$output_processor@_WV?$stream_output_adapter@_W@__crt_stdio_output@@V?$format_validation_base@_WV?$stream_output_adapter@_W@__crt_stdio_output@@@2@@__crt_stdio_output@@AAE_NXZ 10060e30 f i libucrtd:output.obj
 0001:0005fe60       ?type_case_p@?$output_processor@_WV?$stream_output_adapter@_W@__crt_stdio_output@@V?$positional_parameter_base@_WV?$stream_output_adapter@_W@__crt_stdio_output@@@2@@__crt_stdio_output@@AAE_NXZ 10060e60 f i libucrtd:output.obj
 0001:0005fe90       ?type_case_p@?$output_processor@_WV?$stream_output_adapter@_W@__crt_stdio_output@@V?$standard_base@_WV?$stream_output_adapter@_W@__crt_stdio_output@@@2@@__crt_stdio_output@@AAE_NXZ 10060e90 f i libucrtd:output.obj
 0001:0005fec0       ?type_case_p@?$output_processor@_WV?$string_output_adapter@_W@__crt_stdio_output@@V?$format_validation_base@_WV?$string_output_adapter@_W@__crt_stdio_output@@@2@@__crt_stdio_output@@AAE_NXZ 10060ec0 f i libucrtd:output.obj
 0001:0005fef0       ?type_case_p@?$output_processor@_WV?$string_output_adapter@_W@__crt_stdio_output@@V?$positional_parameter_base@_WV?$string_output_adapter@_W@__crt_stdio_output@@@2@@__crt_stdio_output@@AAE_NXZ 10060ef0 f i libucrtd:output.obj
 0001:0005ff20       ?type_case_p@?$output_processor@_WV?$string_output_adapter@_W@__crt_stdio_output@@V?$standard_base@_WV?$string_output_adapter@_W@__crt_stdio_output@@@2@@__crt_stdio_output@@AAE_NXZ 10060f20 f i libucrtd:output.obj
 0001:0005ff50       ?type_case_s@?$output_processor@DV?$stream_output_adapter@D@__crt_stdio_output@@V?$format_validation_base@DV?$stream_output_adapter@D@__crt_stdio_output@@@2@@__crt_stdio_output@@AAE_NXZ 10060f50 f i libucrtd:output.obj
 0001:00060040       ?type_case_s@?$output_processor@DV?$stream_output_adapter@D@__crt_stdio_output@@V?$positional_parameter_base@DV?$stream_output_adapter@D@__crt_stdio_output@@@2@@__crt_stdio_output@@AAE_NXZ 10061040 f i libucrtd:output.obj
 0001:00060130       ?type_case_s@?$output_processor@DV?$stream_output_adapter@D@__crt_stdio_output@@V?$standard_base@DV?$stream_output_adapter@D@__crt_stdio_output@@@2@@__crt_stdio_output@@AAE_NXZ 10061130 f i libucrtd:output.obj
 0001:00060220       ?type_case_s@?$output_processor@DV?$string_output_adapter@D@__crt_stdio_output@@V?$format_validation_base@DV?$string_output_adapter@D@__crt_stdio_output@@@2@@__crt_stdio_output@@AAE_NXZ 10061220 f i libucrtd:output.obj
 0001:00060310       ?type_case_s@?$output_processor@DV?$string_output_adapter@D@__crt_stdio_output@@V?$positional_parameter_base@DV?$string_output_adapter@D@__crt_stdio_output@@@2@@__crt_stdio_output@@AAE_NXZ 10061310 f i libucrtd:output.obj
 0001:00060400       ?type_case_s@?$output_processor@DV?$string_output_adapter@D@__crt_stdio_output@@V?$standard_base@DV?$string_output_adapter@D@__crt_stdio_output@@@2@@__crt_stdio_output@@AAE_NXZ 10061400 f i libucrtd:output.obj
 0001:000604f0       ?type_case_s@?$output_processor@_WV?$stream_output_adapter@_W@__crt_stdio_output@@V?$format_validation_base@_WV?$stream_output_adapter@_W@__crt_stdio_output@@@2@@__crt_stdio_output@@AAE_NXZ 100614f0 f i libucrtd:output.obj
 0001:000605e0       ?type_case_s@?$output_processor@_WV?$stream_output_adapter@_W@__crt_stdio_output@@V?$positional_parameter_base@_WV?$stream_output_adapter@_W@__crt_stdio_output@@@2@@__crt_stdio_output@@AAE_NXZ 100615e0 f i libucrtd:output.obj
 0001:000606d0       ?type_case_s@?$output_processor@_WV?$stream_output_adapter@_W@__crt_stdio_output@@V?$standard_base@_WV?$stream_output_adapter@_W@__crt_stdio_output@@@2@@__crt_stdio_output@@AAE_NXZ 100616d0 f i libucrtd:output.obj
 0001:000607c0       ?type_case_s@?$output_processor@_WV?$string_output_adapter@_W@__crt_stdio_output@@V?$format_validation_base@_WV?$string_output_adapter@_W@__crt_stdio_output@@@2@@__crt_stdio_output@@AAE_NXZ 100617c0 f i libucrtd:output.obj
 0001:000608b0       ?type_case_s@?$output_processor@_WV?$string_output_adapter@_W@__crt_stdio_output@@V?$positional_parameter_base@_WV?$string_output_adapter@_W@__crt_stdio_output@@@2@@__crt_stdio_output@@AAE_NXZ 100618b0 f i libucrtd:output.obj
 0001:000609a0       ?type_case_s@?$output_processor@_WV?$string_output_adapter@_W@__crt_stdio_output@@V?$standard_base@_WV?$string_output_adapter@_W@__crt_stdio_output@@@2@@__crt_stdio_output@@AAE_NXZ 100619a0 f i libucrtd:output.obj
 0001:00060a90       ?type_case_s_compute_narrow_string_length@?$output_processor@DV?$stream_output_adapter@D@__crt_stdio_output@@V?$format_validation_base@DV?$stream_output_adapter@D@__crt_stdio_output@@@2@@__crt_stdio_output@@ABEHHD@Z 10061a90 f i libucrtd:output.obj
 0001:00060ac0       ?type_case_s_compute_narrow_string_length@?$output_processor@DV?$stream_output_adapter@D@__crt_stdio_output@@V?$positional_parameter_base@DV?$stream_output_adapter@D@__crt_stdio_output@@@2@@__crt_stdio_output@@ABEHHD@Z 10061ac0 f i libucrtd:output.obj
 0001:00060af0       ?type_case_s_compute_narrow_string_length@?$output_processor@DV?$stream_output_adapter@D@__crt_stdio_output@@V?$standard_base@DV?$stream_output_adapter@D@__crt_stdio_output@@@2@@__crt_stdio_output@@ABEHHD@Z 10061af0 f i libucrtd:output.obj
 0001:00060b20       ?type_case_s_compute_narrow_string_length@?$output_processor@DV?$string_output_adapter@D@__crt_stdio_output@@V?$format_validation_base@DV?$string_output_adapter@D@__crt_stdio_output@@@2@@__crt_stdio_output@@ABEHHD@Z 10061b20 f i libucrtd:output.obj
 0001:00060b50       ?type_case_s_compute_narrow_string_length@?$output_processor@DV?$string_output_adapter@D@__crt_stdio_output@@V?$positional_parameter_base@DV?$string_output_adapter@D@__crt_stdio_output@@@2@@__crt_stdio_output@@ABEHHD@Z 10061b50 f i libucrtd:output.obj
 0001:00060b80       ?type_case_s_compute_narrow_string_length@?$output_processor@DV?$string_output_adapter@D@__crt_stdio_output@@V?$standard_base@DV?$string_output_adapter@D@__crt_stdio_output@@@2@@__crt_stdio_output@@ABEHHD@Z 10061b80 f i libucrtd:output.obj
 0001:00060bb0       ?type_case_s_compute_narrow_string_length@?$output_processor@_WV?$stream_output_adapter@_W@__crt_stdio_output@@V?$format_validation_base@_WV?$stream_output_adapter@_W@__crt_stdio_output@@@2@@__crt_stdio_output@@ABEHH_W@Z 10061bb0 f i libucrtd:output.obj
 0001:00060c20       ?type_case_s_compute_narrow_string_length@?$output_processor@_WV?$stream_output_adapter@_W@__crt_stdio_output@@V?$positional_parameter_base@_WV?$stream_output_adapter@_W@__crt_stdio_output@@@2@@__crt_stdio_output@@ABEHH_W@Z 10061c20 f i libucrtd:output.obj
 0001:00060c90       ?type_case_s_compute_narrow_string_length@?$output_processor@_WV?$stream_output_adapter@_W@__crt_stdio_output@@V?$standard_base@_WV?$stream_output_adapter@_W@__crt_stdio_output@@@2@@__crt_stdio_output@@ABEHH_W@Z 10061c90 f i libucrtd:output.obj
 0001:00060d00       ?type_case_s_compute_narrow_string_length@?$output_processor@_WV?$string_output_adapter@_W@__crt_stdio_output@@V?$format_validation_base@_WV?$string_output_adapter@_W@__crt_stdio_output@@@2@@__crt_stdio_output@@ABEHH_W@Z 10061d00 f i libucrtd:output.obj
 0001:00060d70       ?type_case_s_compute_narrow_string_length@?$output_processor@_WV?$string_output_adapter@_W@__crt_stdio_output@@V?$positional_parameter_base@_WV?$string_output_adapter@_W@__crt_stdio_output@@@2@@__crt_stdio_output@@ABEHH_W@Z 10061d70 f i libucrtd:output.obj
 0001:00060de0       ?type_case_s_compute_narrow_string_length@?$output_processor@_WV?$string_output_adapter@_W@__crt_stdio_output@@V?$standard_base@_WV?$string_output_adapter@_W@__crt_stdio_output@@@2@@__crt_stdio_output@@ABEHH_W@Z 10061de0 f i libucrtd:output.obj
 0001:00060e50       ?type_case_u@?$output_processor@DV?$stream_output_adapter@D@__crt_stdio_output@@V?$format_validation_base@DV?$stream_output_adapter@D@__crt_stdio_output@@@2@@__crt_stdio_output@@AAE_NXZ 10061e50 f i libucrtd:output.obj
 0001:00060e70       ?type_case_u@?$output_processor@DV?$stream_output_adapter@D@__crt_stdio_output@@V?$positional_parameter_base@DV?$stream_output_adapter@D@__crt_stdio_output@@@2@@__crt_stdio_output@@AAE_NXZ 10061e70 f i libucrtd:output.obj
 0001:00060e90       ?type_case_u@?$output_processor@DV?$stream_output_adapter@D@__crt_stdio_output@@V?$standard_base@DV?$stream_output_adapter@D@__crt_stdio_output@@@2@@__crt_stdio_output@@AAE_NXZ 10061e90 f i libucrtd:output.obj
 0001:00060eb0       ?type_case_u@?$output_processor@DV?$string_output_adapter@D@__crt_stdio_output@@V?$format_validation_base@DV?$string_output_adapter@D@__crt_stdio_output@@@2@@__crt_stdio_output@@AAE_NXZ 10061eb0 f i libucrtd:output.obj
 0001:00060ed0       ?type_case_u@?$output_processor@DV?$string_output_adapter@D@__crt_stdio_output@@V?$positional_parameter_base@DV?$string_output_adapter@D@__crt_stdio_output@@@2@@__crt_stdio_output@@AAE_NXZ 10061ed0 f i libucrtd:output.obj
 0001:00060ef0       ?type_case_u@?$output_processor@DV?$string_output_adapter@D@__crt_stdio_output@@V?$standard_base@DV?$string_output_adapter@D@__crt_stdio_output@@@2@@__crt_stdio_output@@AAE_NXZ 10061ef0 f i libucrtd:output.obj
 0001:00060f10       ?type_case_u@?$output_processor@_WV?$stream_output_adapter@_W@__crt_stdio_output@@V?$format_validation_base@_WV?$stream_output_adapter@_W@__crt_stdio_output@@@2@@__crt_stdio_output@@AAE_NXZ 10061f10 f i libucrtd:output.obj
 0001:00060f30       ?type_case_u@?$output_processor@_WV?$stream_output_adapter@_W@__crt_stdio_output@@V?$positional_parameter_base@_WV?$stream_output_adapter@_W@__crt_stdio_output@@@2@@__crt_stdio_output@@AAE_NXZ 10061f30 f i libucrtd:output.obj
 0001:00060f50       ?type_case_u@?$output_processor@_WV?$stream_output_adapter@_W@__crt_stdio_output@@V?$standard_base@_WV?$stream_output_adapter@_W@__crt_stdio_output@@@2@@__crt_stdio_output@@AAE_NXZ 10061f50 f i libucrtd:output.obj
 0001:00060f70       ?type_case_u@?$output_processor@_WV?$string_output_adapter@_W@__crt_stdio_output@@V?$format_validation_base@_WV?$string_output_adapter@_W@__crt_stdio_output@@@2@@__crt_stdio_output@@AAE_NXZ 10061f70 f i libucrtd:output.obj
 0001:00060f90       ?type_case_u@?$output_processor@_WV?$string_output_adapter@_W@__crt_stdio_output@@V?$positional_parameter_base@_WV?$string_output_adapter@_W@__crt_stdio_output@@@2@@__crt_stdio_output@@AAE_NXZ 10061f90 f i libucrtd:output.obj
 0001:00060fb0       ?type_case_u@?$output_processor@_WV?$string_output_adapter@_W@__crt_stdio_output@@V?$standard_base@_WV?$string_output_adapter@_W@__crt_stdio_output@@@2@@__crt_stdio_output@@AAE_NXZ 10061fb0 f i libucrtd:output.obj
 0001:00060fd0       ?type_case_x@?$output_processor@DV?$stream_output_adapter@D@__crt_stdio_output@@V?$format_validation_base@DV?$stream_output_adapter@D@__crt_stdio_output@@@2@@__crt_stdio_output@@AAE_NXZ 10061fd0 f i libucrtd:output.obj
 0001:00060ff0       ?type_case_x@?$output_processor@DV?$stream_output_adapter@D@__crt_stdio_output@@V?$positional_parameter_base@DV?$stream_output_adapter@D@__crt_stdio_output@@@2@@__crt_stdio_output@@AAE_NXZ 10061ff0 f i libucrtd:output.obj
 0001:00061010       ?type_case_x@?$output_processor@DV?$stream_output_adapter@D@__crt_stdio_output@@V?$standard_base@DV?$stream_output_adapter@D@__crt_stdio_output@@@2@@__crt_stdio_output@@AAE_NXZ 10062010 f i libucrtd:output.obj
 0001:00061030       ?type_case_x@?$output_processor@DV?$string_output_adapter@D@__crt_stdio_output@@V?$format_validation_base@DV?$string_output_adapter@D@__crt_stdio_output@@@2@@__crt_stdio_output@@AAE_NXZ 10062030 f i libucrtd:output.obj
 0001:00061050       ?type_case_x@?$output_processor@DV?$string_output_adapter@D@__crt_stdio_output@@V?$positional_parameter_base@DV?$string_output_adapter@D@__crt_stdio_output@@@2@@__crt_stdio_output@@AAE_NXZ 10062050 f i libucrtd:output.obj
 0001:00061070       ?type_case_x@?$output_processor@DV?$string_output_adapter@D@__crt_stdio_output@@V?$standard_base@DV?$string_output_adapter@D@__crt_stdio_output@@@2@@__crt_stdio_output@@AAE_NXZ 10062070 f i libucrtd:output.obj
 0001:00061090       ?type_case_x@?$output_processor@_WV?$stream_output_adapter@_W@__crt_stdio_output@@V?$format_validation_base@_WV?$stream_output_adapter@_W@__crt_stdio_output@@@2@@__crt_stdio_output@@AAE_NXZ 10062090 f i libucrtd:output.obj
 0001:000610b0       ?type_case_x@?$output_processor@_WV?$stream_output_adapter@_W@__crt_stdio_output@@V?$positional_parameter_base@_WV?$stream_output_adapter@_W@__crt_stdio_output@@@2@@__crt_stdio_output@@AAE_NXZ 100620b0 f i libucrtd:output.obj
 0001:000610d0       ?type_case_x@?$output_processor@_WV?$stream_output_adapter@_W@__crt_stdio_output@@V?$standard_base@_WV?$stream_output_adapter@_W@__crt_stdio_output@@@2@@__crt_stdio_output@@AAE_NXZ 100620d0 f i libucrtd:output.obj
 0001:000610f0       ?type_case_x@?$output_processor@_WV?$string_output_adapter@_W@__crt_stdio_output@@V?$format_validation_base@_WV?$string_output_adapter@_W@__crt_stdio_output@@@2@@__crt_stdio_output@@AAE_NXZ 100620f0 f i libucrtd:output.obj
 0001:00061110       ?type_case_x@?$output_processor@_WV?$string_output_adapter@_W@__crt_stdio_output@@V?$positional_parameter_base@_WV?$string_output_adapter@_W@__crt_stdio_output@@@2@@__crt_stdio_output@@AAE_NXZ 10062110 f i libucrtd:output.obj
 0001:00061130       ?type_case_x@?$output_processor@_WV?$string_output_adapter@_W@__crt_stdio_output@@V?$standard_base@_WV?$string_output_adapter@_W@__crt_stdio_output@@@2@@__crt_stdio_output@@AAE_NXZ 10062130 f i libucrtd:output.obj
 0001:00061150       ?unset_flag@?$output_processor@DV?$stream_output_adapter@D@__crt_stdio_output@@V?$format_validation_base@DV?$stream_output_adapter@D@__crt_stdio_output@@@2@@__crt_stdio_output@@AAEXI@Z 10062150 f i libucrtd:output.obj
 0001:00061170       ?unset_flag@?$output_processor@DV?$stream_output_adapter@D@__crt_stdio_output@@V?$positional_parameter_base@DV?$stream_output_adapter@D@__crt_stdio_output@@@2@@__crt_stdio_output@@AAEXI@Z 10062170 f i libucrtd:output.obj
 0001:00061190       ?unset_flag@?$output_processor@DV?$stream_output_adapter@D@__crt_stdio_output@@V?$standard_base@DV?$stream_output_adapter@D@__crt_stdio_output@@@2@@__crt_stdio_output@@AAEXI@Z 10062190 f i libucrtd:output.obj
 0001:000611b0       ?unset_flag@?$output_processor@DV?$string_output_adapter@D@__crt_stdio_output@@V?$format_validation_base@DV?$string_output_adapter@D@__crt_stdio_output@@@2@@__crt_stdio_output@@AAEXI@Z 100621b0 f i libucrtd:output.obj
 0001:000611d0       ?unset_flag@?$output_processor@DV?$string_output_adapter@D@__crt_stdio_output@@V?$positional_parameter_base@DV?$string_output_adapter@D@__crt_stdio_output@@@2@@__crt_stdio_output@@AAEXI@Z 100621d0 f i libucrtd:output.obj
 0001:000611f0       ?unset_flag@?$output_processor@DV?$string_output_adapter@D@__crt_stdio_output@@V?$standard_base@DV?$string_output_adapter@D@__crt_stdio_output@@@2@@__crt_stdio_output@@AAEXI@Z 100621f0 f i libucrtd:output.obj
 0001:00061210       ?unset_flag@?$output_processor@_WV?$stream_output_adapter@_W@__crt_stdio_output@@V?$format_validation_base@_WV?$stream_output_adapter@_W@__crt_stdio_output@@@2@@__crt_stdio_output@@AAEXI@Z 10062210 f i libucrtd:output.obj
 0001:00061230       ?unset_flag@?$output_processor@_WV?$stream_output_adapter@_W@__crt_stdio_output@@V?$positional_parameter_base@_WV?$stream_output_adapter@_W@__crt_stdio_output@@@2@@__crt_stdio_output@@AAEXI@Z 10062230 f i libucrtd:output.obj
 0001:00061250       ?unset_flag@?$output_processor@_WV?$stream_output_adapter@_W@__crt_stdio_output@@V?$standard_base@_WV?$stream_output_adapter@_W@__crt_stdio_output@@@2@@__crt_stdio_output@@AAEXI@Z 10062250 f i libucrtd:output.obj
 0001:00061270       ?unset_flag@?$output_processor@_WV?$string_output_adapter@_W@__crt_stdio_output@@V?$format_validation_base@_WV?$string_output_adapter@_W@__crt_stdio_output@@@2@@__crt_stdio_output@@AAEXI@Z 10062270 f i libucrtd:output.obj
 0001:00061290       ?unset_flag@?$output_processor@_WV?$string_output_adapter@_W@__crt_stdio_output@@V?$positional_parameter_base@_WV?$string_output_adapter@_W@__crt_stdio_output@@@2@@__crt_stdio_output@@AAEXI@Z 10062290 f i libucrtd:output.obj
 0001:000612b0       ?unset_flag@?$output_processor@_WV?$string_output_adapter@_W@__crt_stdio_output@@V?$standard_base@_WV?$string_output_adapter@_W@__crt_stdio_output@@@2@@__crt_stdio_output@@AAEXI@Z 100622b0 f i libucrtd:output.obj
 0001:000612d0       ?update_field_width@?$positional_parameter_base@DV?$stream_output_adapter@D@__crt_stdio_output@@@__crt_stdio_output@@IAE_NXZ 100622d0 f i libucrtd:output.obj
 0001:00061450       ?update_field_width@?$positional_parameter_base@DV?$string_output_adapter@D@__crt_stdio_output@@@__crt_stdio_output@@IAE_NXZ 10062450 f i libucrtd:output.obj
 0001:000615d0       ?update_field_width@?$positional_parameter_base@_WV?$stream_output_adapter@_W@__crt_stdio_output@@@__crt_stdio_output@@IAE_NXZ 100625d0 f i libucrtd:output.obj
 0001:00061750       ?update_field_width@?$positional_parameter_base@_WV?$string_output_adapter@_W@__crt_stdio_output@@@__crt_stdio_output@@IAE_NXZ 10062750 f i libucrtd:output.obj
 0001:000618d0       ?update_field_width@?$standard_base@DV?$stream_output_adapter@D@__crt_stdio_output@@@__crt_stdio_output@@IAE_NXZ 100628d0 f i libucrtd:output.obj
 0001:00061900       ?update_field_width@?$standard_base@DV?$string_output_adapter@D@__crt_stdio_output@@@__crt_stdio_output@@IAE_NXZ 10062900 f i libucrtd:output.obj
 0001:00061930       ?update_field_width@?$standard_base@_WV?$stream_output_adapter@_W@__crt_stdio_output@@@__crt_stdio_output@@IAE_NXZ 10062930 f i libucrtd:output.obj
 0001:00061960       ?update_field_width@?$standard_base@_WV?$string_output_adapter@_W@__crt_stdio_output@@@__crt_stdio_output@@IAE_NXZ 10062960 f i libucrtd:output.obj
 0001:00061990       ?update_precision@?$positional_parameter_base@DV?$stream_output_adapter@D@__crt_stdio_output@@@__crt_stdio_output@@IAE_NXZ 10062990 f i libucrtd:output.obj
 0001:00061b10       ?update_precision@?$positional_parameter_base@DV?$string_output_adapter@D@__crt_stdio_output@@@__crt_stdio_output@@IAE_NXZ 10062b10 f i libucrtd:output.obj
 0001:00061c90       ?update_precision@?$positional_parameter_base@_WV?$stream_output_adapter@_W@__crt_stdio_output@@@__crt_stdio_output@@IAE_NXZ 10062c90 f i libucrtd:output.obj
 0001:00061e10       ?update_precision@?$positional_parameter_base@_WV?$string_output_adapter@_W@__crt_stdio_output@@@__crt_stdio_output@@IAE_NXZ 10062e10 f i libucrtd:output.obj
 0001:00061f90       ?update_precision@?$standard_base@DV?$stream_output_adapter@D@__crt_stdio_output@@@__crt_stdio_output@@IAE_NXZ 10062f90 f i libucrtd:output.obj
 0001:00061fc0       ?update_precision@?$standard_base@DV?$string_output_adapter@D@__crt_stdio_output@@@__crt_stdio_output@@IAE_NXZ 10062fc0 f i libucrtd:output.obj
 0001:00061ff0       ?update_precision@?$standard_base@_WV?$stream_output_adapter@_W@__crt_stdio_output@@@__crt_stdio_output@@IAE_NXZ 10062ff0 f i libucrtd:output.obj
 0001:00062020       ?update_precision@?$standard_base@_WV?$string_output_adapter@_W@__crt_stdio_output@@@__crt_stdio_output@@IAE_NXZ 10063020 f i libucrtd:output.obj
 0001:00062050       ?valid@__crt_stdio_stream@@QBE_NXZ 10063050 f i libucrtd:output.obj
 0001:00062080       ?validate@?$stream_output_adapter@D@__crt_stdio_output@@QBE_NXZ 10063080 f i libucrtd:output.obj
 0001:00062130       ?validate@?$stream_output_adapter@_W@__crt_stdio_output@@QBE_NXZ 10063130 f i libucrtd:output.obj
 0001:000621e0       ?validate@?$string_output_adapter@D@__crt_stdio_output@@QBE_NXZ 100631e0 f i libucrtd:output.obj
 0001:00062270       ?validate@?$string_output_adapter@_W@__crt_stdio_output@@QBE_NXZ 10063270 f i libucrtd:output.obj
 0001:00062300       ?validate_and_store_parameter_data@?$positional_parameter_base@DV?$stream_output_adapter@D@__crt_stdio_output@@@__crt_stdio_output@@AAE_NAAUparameter_data@12@W4parameter_type@12@DW4length_modifier@2@@Z 10063300 f i libucrtd:output.obj
 0001:000623d0       ?validate_and_store_parameter_data@?$positional_parameter_base@DV?$string_output_adapter@D@__crt_stdio_output@@@__crt_stdio_output@@AAE_NAAUparameter_data@12@W4parameter_type@12@DW4length_modifier@2@@Z 100633d0 f i libucrtd:output.obj
 0001:000624a0       ?validate_and_store_parameter_data@?$positional_parameter_base@_WV?$stream_output_adapter@_W@__crt_stdio_output@@@__crt_stdio_output@@AAE_NAAUparameter_data@12@W4parameter_type@12@_WW4length_modifier@2@@Z 100634a0 f i libucrtd:output.obj
 0001:00062580       ?validate_and_store_parameter_data@?$positional_parameter_base@_WV?$string_output_adapter@_W@__crt_stdio_output@@@__crt_stdio_output@@AAE_NAAUparameter_data@12@W4parameter_type@12@_WW4length_modifier@2@@Z 10063580 f i libucrtd:output.obj
 0001:00062660       ?validate_and_update_state_at_beginning_of_format_character@?$positional_parameter_base@DV?$stream_output_adapter@D@__crt_stdio_output@@@__crt_stdio_output@@IAE_NXZ 10063660 f i libucrtd:output.obj
 0001:00062880       ?validate_and_update_state_at_beginning_of_format_character@?$positional_parameter_base@DV?$string_output_adapter@D@__crt_stdio_output@@@__crt_stdio_output@@IAE_NXZ 10063880 f i libucrtd:output.obj
 0001:00062aa0       ?validate_and_update_state_at_beginning_of_format_character@?$positional_parameter_base@_WV?$stream_output_adapter@_W@__crt_stdio_output@@@__crt_stdio_output@@IAE_NXZ 10063aa0 f i libucrtd:output.obj
 0001:00062cc0       ?validate_and_update_state_at_beginning_of_format_character@?$positional_parameter_base@_WV?$string_output_adapter@_W@__crt_stdio_output@@@__crt_stdio_output@@IAE_NXZ 10063cc0 f i libucrtd:output.obj
 0001:00062ee0       ?validate_and_update_state_at_beginning_of_format_character@?$standard_base@DV?$stream_output_adapter@D@__crt_stdio_output@@@__crt_stdio_output@@IAE_NXZ 10063ee0 f i libucrtd:output.obj
 0001:00062ef0       ?validate_and_update_state_at_beginning_of_format_character@?$standard_base@DV?$string_output_adapter@D@__crt_stdio_output@@@__crt_stdio_output@@IAE_NXZ 10063ef0 f i libucrtd:output.obj
 0001:00062f00       ?validate_and_update_state_at_beginning_of_format_character@?$standard_base@_WV?$stream_output_adapter@_W@__crt_stdio_output@@@__crt_stdio_output@@IAE_NXZ 10063f00 f i libucrtd:output.obj
 0001:00062f10       ?validate_and_update_state_at_beginning_of_format_character@?$standard_base@_WV?$string_output_adapter@_W@__crt_stdio_output@@@__crt_stdio_output@@IAE_NXZ 10063f10 f i libucrtd:output.obj
 0001:00062f20       ?validate_and_update_state_at_end_of_format_string@?$format_validation_base@DV?$stream_output_adapter@D@__crt_stdio_output@@@__crt_stdio_output@@IBE_NXZ 10063f20 f i libucrtd:output.obj
 0001:00062fc0       ?validate_and_update_state_at_end_of_format_string@?$format_validation_base@DV?$string_output_adapter@D@__crt_stdio_output@@@__crt_stdio_output@@IBE_NXZ 10063fc0 f i libucrtd:output.obj
 0001:00063060       ?validate_and_update_state_at_end_of_format_string@?$format_validation_base@_WV?$stream_output_adapter@_W@__crt_stdio_output@@@__crt_stdio_output@@IBE_NXZ 10064060 f i libucrtd:output.obj
 0001:00063100       ?validate_and_update_state_at_end_of_format_string@?$format_validation_base@_WV?$string_output_adapter@_W@__crt_stdio_output@@@__crt_stdio_output@@IBE_NXZ 10064100 f i libucrtd:output.obj
 0001:000631a0       ?validate_and_update_state_at_end_of_format_string@?$positional_parameter_base@DV?$stream_output_adapter@D@__crt_stdio_output@@@__crt_stdio_output@@IAE_NXZ 100641a0 f i libucrtd:output.obj
 0001:00063340       ?validate_and_update_state_at_end_of_format_string@?$positional_parameter_base@DV?$string_output_adapter@D@__crt_stdio_output@@@__crt_stdio_output@@IAE_NXZ 10064340 f i libucrtd:output.obj
 0001:000634e0       ?validate_and_update_state_at_end_of_format_string@?$positional_parameter_base@_WV?$stream_output_adapter@_W@__crt_stdio_output@@@__crt_stdio_output@@IAE_NXZ 100644e0 f i libucrtd:output.obj
 0001:00063680       ?validate_and_update_state_at_end_of_format_string@?$positional_parameter_base@_WV?$string_output_adapter@_W@__crt_stdio_output@@@__crt_stdio_output@@IAE_NXZ 10064680 f i libucrtd:output.obj
 0001:00063820       ?validate_and_update_state_at_end_of_format_string@?$standard_base@DV?$stream_output_adapter@D@__crt_stdio_output@@@__crt_stdio_output@@IBE_NXZ 10064820 f i libucrtd:output.obj
 0001:00063830       ?validate_and_update_state_at_end_of_format_string@?$standard_base@DV?$string_output_adapter@D@__crt_stdio_output@@@__crt_stdio_output@@IBE_NXZ 10064830 f i libucrtd:output.obj
 0001:00063840       ?validate_and_update_state_at_end_of_format_string@?$standard_base@_WV?$stream_output_adapter@_W@__crt_stdio_output@@@__crt_stdio_output@@IBE_NXZ 10064840 f i libucrtd:output.obj
 0001:00063850       ?validate_and_update_state_at_end_of_format_string@?$standard_base@_WV?$string_output_adapter@_W@__crt_stdio_output@@@__crt_stdio_output@@IBE_NXZ 10064850 f i libucrtd:output.obj
 0001:00063860       ?validate_state_for_type_case_a@?$positional_parameter_base@DV?$stream_output_adapter@D@__crt_stdio_output@@@__crt_stdio_output@@IAE_NXZ 10064860 f i libucrtd:output.obj
 0001:00063950       ?validate_state_for_type_case_a@?$positional_parameter_base@DV?$string_output_adapter@D@__crt_stdio_output@@@__crt_stdio_output@@IAE_NXZ 10064950 f i libucrtd:output.obj
 0001:00063a40       ?validate_state_for_type_case_a@?$positional_parameter_base@_WV?$stream_output_adapter@_W@__crt_stdio_output@@@__crt_stdio_output@@IAE_NXZ 10064a40 f i libucrtd:output.obj
 0001:00063b30       ?validate_state_for_type_case_a@?$positional_parameter_base@_WV?$string_output_adapter@_W@__crt_stdio_output@@@__crt_stdio_output@@IAE_NXZ 10064b30 f i libucrtd:output.obj
 0001:00063c20       ?validate_state_for_type_case_a@?$standard_base@DV?$stream_output_adapter@D@__crt_stdio_output@@@__crt_stdio_output@@IBE_NXZ 10064c20 f i libucrtd:output.obj
 0001:00063c30       ?validate_state_for_type_case_a@?$standard_base@DV?$string_output_adapter@D@__crt_stdio_output@@@__crt_stdio_output@@IBE_NXZ 10064c30 f i libucrtd:output.obj
 0001:00063c40       ?validate_state_for_type_case_a@?$standard_base@_WV?$stream_output_adapter@_W@__crt_stdio_output@@@__crt_stdio_output@@IBE_NXZ 10064c40 f i libucrtd:output.obj
 0001:00063c50       ?validate_state_for_type_case_a@?$standard_base@_WV?$string_output_adapter@_W@__crt_stdio_output@@@__crt_stdio_output@@IBE_NXZ 10064c50 f i libucrtd:output.obj
 0001:00063c60       ?validate_stream_is_ansi_if_required@?$__acrt_stdio_char_traits@D@@SA_NQAU_iobuf@@@Z 10064c60 f i libucrtd:output.obj
 0001:00063d90       ?validate_stream_is_ansi_if_required@?$__acrt_stdio_char_traits@_W@@SA_NQAU_iobuf@@@Z 10064d90 f i libucrtd:output.obj
 0001:00063da0       ?wide_null_string@?$output_processor@DV?$stream_output_adapter@D@__crt_stdio_output@@V?$format_validation_base@DV?$stream_output_adapter@D@__crt_stdio_output@@@2@@__crt_stdio_output@@CAPA_WXZ 10064da0 f i libucrtd:output.obj
 0001:00063db0       ?wide_null_string@?$output_processor@DV?$stream_output_adapter@D@__crt_stdio_output@@V?$positional_parameter_base@DV?$stream_output_adapter@D@__crt_stdio_output@@@2@@__crt_stdio_output@@CAPA_WXZ 10064db0 f i libucrtd:output.obj
 0001:00063dc0       ?wide_null_string@?$output_processor@DV?$stream_output_adapter@D@__crt_stdio_output@@V?$standard_base@DV?$stream_output_adapter@D@__crt_stdio_output@@@2@@__crt_stdio_output@@CAPA_WXZ 10064dc0 f i libucrtd:output.obj
 0001:00063dd0       ?wide_null_string@?$output_processor@DV?$string_output_adapter@D@__crt_stdio_output@@V?$format_validation_base@DV?$string_output_adapter@D@__crt_stdio_output@@@2@@__crt_stdio_output@@CAPA_WXZ 10064dd0 f i libucrtd:output.obj
 0001:00063de0       ?wide_null_string@?$output_processor@DV?$string_output_adapter@D@__crt_stdio_output@@V?$positional_parameter_base@DV?$string_output_adapter@D@__crt_stdio_output@@@2@@__crt_stdio_output@@CAPA_WXZ 10064de0 f i libucrtd:output.obj
 0001:00063df0       ?wide_null_string@?$output_processor@DV?$string_output_adapter@D@__crt_stdio_output@@V?$standard_base@DV?$string_output_adapter@D@__crt_stdio_output@@@2@@__crt_stdio_output@@CAPA_WXZ 10064df0 f i libucrtd:output.obj
 0001:00063e00       ?wide_null_string@?$output_processor@_WV?$stream_output_adapter@_W@__crt_stdio_output@@V?$format_validation_base@_WV?$stream_output_adapter@_W@__crt_stdio_output@@@2@@__crt_stdio_output@@CAPA_WXZ 10064e00 f i libucrtd:output.obj
 0001:00063e10       ?wide_null_string@?$output_processor@_WV?$stream_output_adapter@_W@__crt_stdio_output@@V?$positional_parameter_base@_WV?$stream_output_adapter@_W@__crt_stdio_output@@@2@@__crt_stdio_output@@CAPA_WXZ 10064e10 f i libucrtd:output.obj
 0001:00063e20       ?wide_null_string@?$output_processor@_WV?$stream_output_adapter@_W@__crt_stdio_output@@V?$standard_base@_WV?$stream_output_adapter@_W@__crt_stdio_output@@@2@@__crt_stdio_output@@CAPA_WXZ 10064e20 f i libucrtd:output.obj
 0001:00063e30       ?wide_null_string@?$output_processor@_WV?$string_output_adapter@_W@__crt_stdio_output@@V?$format_validation_base@_WV?$string_output_adapter@_W@__crt_stdio_output@@@2@@__crt_stdio_output@@CAPA_WXZ 10064e30 f i libucrtd:output.obj
 0001:00063e40       ?wide_null_string@?$output_processor@_WV?$string_output_adapter@_W@__crt_stdio_output@@V?$positional_parameter_base@_WV?$string_output_adapter@_W@__crt_stdio_output@@@2@@__crt_stdio_output@@CAPA_WXZ 10064e40 f i libucrtd:output.obj
 0001:00063e50       ?wide_null_string@?$output_processor@_WV?$string_output_adapter@_W@__crt_stdio_output@@V?$standard_base@_WV?$string_output_adapter@_W@__crt_stdio_output@@@2@@__crt_stdio_output@@CAPA_WXZ 10064e50 f i libucrtd:output.obj
 0001:00063e60       ?write_character@?$output_adapter_common@DV?$stream_output_adapter@D@__crt_stdio_output@@@__crt_stdio_output@@QBEXDQAH@Z 10064e60 f i libucrtd:output.obj
 0001:00063ea0       ?write_character@?$output_adapter_common@_WV?$stream_output_adapter@_W@__crt_stdio_output@@@__crt_stdio_output@@QBEX_WQAH@Z 10064ea0 f i libucrtd:output.obj
 0001:00063ee0       ?write_character@?$string_output_adapter@D@__crt_stdio_output@@QBE_NDQAH@Z 10064ee0 f i libucrtd:output.obj
 0001:00063f70       ?write_character@?$string_output_adapter@_W@__crt_stdio_output@@QBE_N_WQAH@Z 10064f70 f i libucrtd:output.obj
 0001:00064010       ?write_character_without_count_update@?$stream_output_adapter@D@__crt_stdio_output@@QBE_ND@Z 10065010 f i libucrtd:output.obj
 0001:00064080       ?write_character_without_count_update@?$stream_output_adapter@_W@__crt_stdio_output@@QBE_N_W@Z 10065080 f i libucrtd:output.obj
 0001:000640f0       ?write_stored_string_tchar@?$output_processor@DV?$stream_output_adapter@D@__crt_stdio_output@@V?$format_validation_base@DV?$stream_output_adapter@D@__crt_stdio_output@@@2@@__crt_stdio_output@@AAE_ND@Z 100650f0 f i libucrtd:output.obj
 0001:00064210       ?write_stored_string_tchar@?$output_processor@DV?$stream_output_adapter@D@__crt_stdio_output@@V?$positional_parameter_base@DV?$stream_output_adapter@D@__crt_stdio_output@@@2@@__crt_stdio_output@@AAE_ND@Z 10065210 f i libucrtd:output.obj
 0001:00064330       ?write_stored_string_tchar@?$output_processor@DV?$stream_output_adapter@D@__crt_stdio_output@@V?$standard_base@DV?$stream_output_adapter@D@__crt_stdio_output@@@2@@__crt_stdio_output@@AAE_ND@Z 10065330 f i libucrtd:output.obj
 0001:00064450       ?write_stored_string_tchar@?$output_processor@DV?$string_output_adapter@D@__crt_stdio_output@@V?$format_validation_base@DV?$string_output_adapter@D@__crt_stdio_output@@@2@@__crt_stdio_output@@AAE_ND@Z 10065450 f i libucrtd:output.obj
 0001:00064570       ?write_stored_string_tchar@?$output_processor@DV?$string_output_adapter@D@__crt_stdio_output@@V?$positional_parameter_base@DV?$string_output_adapter@D@__crt_stdio_output@@@2@@__crt_stdio_output@@AAE_ND@Z 10065570 f i libucrtd:output.obj
 0001:00064690       ?write_stored_string_tchar@?$output_processor@DV?$string_output_adapter@D@__crt_stdio_output@@V?$standard_base@DV?$string_output_adapter@D@__crt_stdio_output@@@2@@__crt_stdio_output@@AAE_ND@Z 10065690 f i libucrtd:output.obj
 0001:000647b0       ?write_stored_string_tchar@?$output_processor@_WV?$stream_output_adapter@_W@__crt_stdio_output@@V?$format_validation_base@_WV?$stream_output_adapter@_W@__crt_stdio_output@@@2@@__crt_stdio_output@@AAE_N_W@Z 100657b0 f i libucrtd:output.obj
 0001:000648a0       ?write_stored_string_tchar@?$output_processor@_WV?$stream_output_adapter@_W@__crt_stdio_output@@V?$positional_parameter_base@_WV?$stream_output_adapter@_W@__crt_stdio_output@@@2@@__crt_stdio_output@@AAE_N_W@Z 100658a0 f i libucrtd:output.obj
 0001:00064990       ?write_stored_string_tchar@?$output_processor@_WV?$stream_output_adapter@_W@__crt_stdio_output@@V?$standard_base@_WV?$stream_output_adapter@_W@__crt_stdio_output@@@2@@__crt_stdio_output@@AAE_N_W@Z 10065990 f i libucrtd:output.obj
 0001:00064a80       ?write_stored_string_tchar@?$output_processor@_WV?$string_output_adapter@_W@__crt_stdio_output@@V?$format_validation_base@_WV?$string_output_adapter@_W@__crt_stdio_output@@@2@@__crt_stdio_output@@AAE_N_W@Z 10065a80 f i libucrtd:output.obj
 0001:00064b70       ?write_stored_string_tchar@?$output_processor@_WV?$string_output_adapter@_W@__crt_stdio_output@@V?$positional_parameter_base@_WV?$string_output_adapter@_W@__crt_stdio_output@@@2@@__crt_stdio_output@@AAE_N_W@Z 10065b70 f i libucrtd:output.obj
 0001:00064c60       ?write_stored_string_tchar@?$output_processor@_WV?$string_output_adapter@_W@__crt_stdio_output@@V?$standard_base@_WV?$string_output_adapter@_W@__crt_stdio_output@@@2@@__crt_stdio_output@@AAE_N_W@Z 10065c60 f i libucrtd:output.obj
 0001:00064d50       ?write_string@?$stream_output_adapter@D@__crt_stdio_output@@QBEXQBDHQAHAAV__crt_deferred_errno_cache@@@Z 10065d50 f i libucrtd:output.obj
 0001:00064db0       ?write_string@?$stream_output_adapter@_W@__crt_stdio_output@@QBEXQB_WHQAHAAV__crt_deferred_errno_cache@@@Z 10065db0 f i libucrtd:output.obj
 0001:00064e10       ?write_string@?$string_output_adapter@D@__crt_stdio_output@@QBEXQBDHQAHAAV__crt_deferred_errno_cache@@@Z 10065e10 f i libucrtd:output.obj
 0001:00064f10       ?write_string@?$string_output_adapter@_W@__crt_stdio_output@@QBEXQB_WHQAHAAV__crt_deferred_errno_cache@@@Z 10065f10 f i libucrtd:output.obj
 0001:00065020       ?write_string_impl@?$output_adapter_common@DV?$stream_output_adapter@D@__crt_stdio_output@@@__crt_stdio_output@@IBEXQBDHQAHAAV__crt_deferred_errno_cache@@@Z 10066020 f i libucrtd:output.obj
 0001:000650c0       ?write_string_impl@?$output_adapter_common@_WV?$stream_output_adapter@_W@__crt_stdio_output@@@__crt_stdio_output@@IBEXQB_WHQAHAAV__crt_deferred_errno_cache@@@Z 100660c0 f i libucrtd:output.obj
 0001:00065160       ___acrt_disable_global_locale_sync 10066160 f i libucrtd:output.obj
 0001:00065180       ___acrt_enable_global_locale_sync 10066180 f i libucrtd:output.obj
 0001:000651a0       ___acrt_isleadbyte_l_noupdate 100661a0 f i libucrtd:output.obj
 0001:000651c0       ___acrt_locale_changed     100661c0 f i libucrtd:output.obj
 0001:000651f0       ___acrt_locale_get_ctype_array_value 100661f0 f i libucrtd:output.obj
 0001:00065220       ___stdio_common_vfprintf   10066220 f   libucrtd:output.obj
 0001:00065250       ___stdio_common_vfprintf_p 10066250 f   libucrtd:output.obj
 0001:00065280       ___stdio_common_vfprintf_s 10066280 f   libucrtd:output.obj
 0001:000652b0       ___stdio_common_vfwprintf  100662b0 f   libucrtd:output.obj
 0001:000652e0       ___stdio_common_vfwprintf_p 100662e0 f   libucrtd:output.obj
 0001:00065310       ___stdio_common_vfwprintf_s 10066310 f   libucrtd:output.obj
 0001:00065340       ___stdio_common_vsnprintf_s 10066340 f   libucrtd:output.obj
 0001:00065370       ___stdio_common_vsnwprintf_s 10066370 f   libucrtd:output.obj
 0001:000653a0       ___stdio_common_vsprintf   100663a0 f   libucrtd:output.obj
 0001:000653d0       ___stdio_common_vsprintf_p 100663d0 f   libucrtd:output.obj
 0001:00065400       ___stdio_common_vsprintf_s 10066400 f   libucrtd:output.obj
 0001:00065430       ___stdio_common_vswprintf  10066430 f   libucrtd:output.obj
 0001:00065460       ___stdio_common_vswprintf_p 10066460 f   libucrtd:output.obj
 0001:00065490       ___stdio_common_vswprintf_s 10066490 f   libucrtd:output.obj
 0001:000654c0       __ctype_fast_check_internal 100664c0 f i libucrtd:output.obj
 0001:000654e0       __isdigit_fast_internal    100664e0 f i libucrtd:output.obj
 0001:00065500       __tolower_fast_internal    10066500 f i libucrtd:output.obj
 0001:00065520       _free                      10066520 f   libucrtd:free.obj
 0001:00065550       _malloc                    10066550 f   libucrtd:malloc.obj
 0001:00065570       ??$?RU?$__crt_report_hook_node@D@@@__crt_internal_free_policy@@QBEXQBU?$__crt_report_hook_node@D@@@Z 10066570 f i libucrtd:dbgrpt.obj
 0001:00065590       ??$?RU?$__crt_report_hook_node@_W@@@__crt_internal_free_policy@@QBEXQBU?$__crt_report_hook_node@_W@@@Z 10066590 f i libucrtd:dbgrpt.obj
 0001:00066380       ??$get_module_file_name@AAPAUHINSTANCE__@@AAY0BAF@DK@?$__crt_char_traits@D@@SAKAAPAUHINSTANCE__@@AAY0BAF@D$$QAK@Z 10067380 f i libucrtd:dbgrpt.obj
 0001:000663a0       ??$get_module_file_name@AAPAUHINSTANCE__@@AAY0BAF@_WK@?$__crt_char_traits@_W@@SAKAAPAUHINSTANCE__@@AAY0BAF@_W$$QAK@Z 100673a0 f i libucrtd:dbgrpt.obj
 0001:000663c0       ??$tcscpy_s@AAY0BAF@DIPBD@?$__crt_char_traits@D@@SAHAAY0BAF@D$$QAI$$QAPBD@Z 100673c0 f i libucrtd:dbgrpt.obj
 0001:000663e0       ??$tcscpy_s@AAY0BAF@_WIPB_W@?$__crt_char_traits@_W@@SAHAAY0BAF@_W$$QAI$$QAPB_W@Z 100673e0 f i libucrtd:dbgrpt.obj
 0001:00066400       ??$tcslen@AAY0BAF@D@?$__crt_char_traits@D@@SAIAAY0BAF@D@Z 10067400 f i libucrtd:dbgrpt.obj
 0001:00066420       ??$tcslen@AAY0BAF@_W@?$__crt_char_traits@_W@@SAIAAY0BAF@_W@Z 10067420 f i libucrtd:dbgrpt.obj
 0001:00066440       ??$tcslen@ABQBD@?$__crt_char_traits@D@@SAIABQBD@Z 10067440 f i libucrtd:dbgrpt.obj
 0001:00066460       ??$tcslen@ABQB_W@?$__crt_char_traits@_W@@SAIABQB_W@Z 10067460 f i libucrtd:dbgrpt.obj
 0001:00066560       ??0?$__crt_unique_heap_ptr@U?$__crt_report_hook_node@D@@U__crt_internal_free_policy@@@@QAE@QAU?$__crt_report_hook_node@D@@@Z 10067560 f i libucrtd:dbgrpt.obj
 0001:00066580       ??0?$__crt_unique_heap_ptr@U?$__crt_report_hook_node@_W@@U__crt_internal_free_policy@@@@QAE@QAU?$__crt_report_hook_node@_W@@@Z 10067580 f i libucrtd:dbgrpt.obj
 0001:000665a0       ??1?$__crt_unique_heap_ptr@U?$__crt_report_hook_node@D@@U__crt_internal_free_policy@@@@QAE@XZ 100675a0 f i libucrtd:dbgrpt.obj
 0001:000665c0       ??1?$__crt_unique_heap_ptr@U?$__crt_report_hook_node@_W@@U__crt_internal_free_policy@@@@QAE@XZ 100675c0 f i libucrtd:dbgrpt.obj
 0001:000665e0       ??B?$__crt_unique_heap_ptr@U?$__crt_report_hook_node@D@@U__crt_internal_free_policy@@@@QBE_NXZ 100675e0 f i libucrtd:dbgrpt.obj
 0001:00066600       ??B?$__crt_unique_heap_ptr@U?$__crt_report_hook_node@_W@@U__crt_internal_free_policy@@@@QBE_NXZ 10067600 f i libucrtd:dbgrpt.obj
 0001:00066b40       ?detach@?$__crt_unique_heap_ptr@U?$__crt_report_hook_node@D@@U__crt_internal_free_policy@@@@QAEPAU?$__crt_report_hook_node@D@@XZ 10067b40 f i libucrtd:dbgrpt.obj
 0001:00066b70       ?detach@?$__crt_unique_heap_ptr@U?$__crt_report_hook_node@_W@@U__crt_internal_free_policy@@@@QAEPAU?$__crt_report_hook_node@_W@@XZ 10067b70 f i libucrtd:dbgrpt.obj
 0001:00066ba0       ?get@?$__crt_unique_heap_ptr@U?$__crt_report_hook_node@D@@U__crt_internal_free_policy@@@@QBEPAU?$__crt_report_hook_node@D@@XZ 10067ba0 f i libucrtd:dbgrpt.obj
 0001:00066bc0       ?get@?$__crt_unique_heap_ptr@U?$__crt_report_hook_node@_W@@U__crt_internal_free_policy@@@@QBEPAU?$__crt_report_hook_node@_W@@XZ 10067bc0 f i libucrtd:dbgrpt.obj
 0001:00066c40       ?is_valid@?$__crt_unique_heap_ptr@U?$__crt_report_hook_node@D@@U__crt_internal_free_policy@@@@QBE_NXZ 10067c40 f i libucrtd:dbgrpt.obj
 0001:00066c70       ?is_valid@?$__crt_unique_heap_ptr@U?$__crt_report_hook_node@_W@@U__crt_internal_free_policy@@@@QBE_NXZ 10067c70 f i libucrtd:dbgrpt.obj
 0001:00066ca0       ?release@?$__crt_unique_heap_ptr@U?$__crt_report_hook_node@D@@U__crt_internal_free_policy@@@@QAEXXZ 10067ca0 f i libucrtd:dbgrpt.obj
 0001:00066cd0       ?release@?$__crt_unique_heap_ptr@U?$__crt_report_hook_node@_W@@U__crt_internal_free_policy@@@@QAEXXZ 10067cd0 f i libucrtd:dbgrpt.obj
 0001:00066d00       __CrtDbgReport             10067d00 f   libucrtd:dbgrpt.obj
 0001:00066d50       __CrtDbgReportW            10067d50 f   libucrtd:dbgrpt.obj
 0001:00066da0       __CrtSetReportHook2        10067da0 f   libucrtd:dbgrpt.obj
 0001:00066dc0       __CrtSetReportHookW2       10067dc0 f   libucrtd:dbgrpt.obj
 0001:00066de0       ___acrt_MessageWindowA     10067de0 f   libucrtd:dbgrpt.obj
 0001:00066e10       ___acrt_MessageWindowW     10067e10 f   libucrtd:dbgrpt.obj
 0001:00066e40       __invoke_watson_if_error   10067e40 f i libucrtd:dbgrpt.obj
 0001:00066e70       __invoke_watson_if_oneof   10067e70 f i libucrtd:dbgrpt.obj
 0001:00066eb0       __snwprintf_s              10067eb0 f i libucrtd:dbgrpt.obj
 0001:00066ef0       __vsnwprintf_s_l           10067ef0 f i libucrtd:dbgrpt.obj
 0001:00067270       _wcscpy_s                  10068270 f   libucrtd:wcscpy_s.obj
 0001:00067f90       ??1?$__crt_simd_cleanup_guard@$00@@QAE@XZ 10068f90 f i libucrtd:strnlen.obj
 0001:00067fa0       ??1?$__crt_simd_cleanup_guard@$0A@@@QAE@XZ 10068fa0 f i libucrtd:strnlen.obj
 0001:00067fb0       ?compare_equals@?$__crt_simd_traits@$00E@@SA?AT__m256i@@T2@0@Z 10068fb0 f i libucrtd:strnlen.obj
 0001:00067ff0       ?compare_equals@?$__crt_simd_traits@$00G@@SA?AT__m256i@@T2@0@Z 10068ff0 f i libucrtd:strnlen.obj
 0001:00068030       ?compare_equals@?$__crt_simd_traits@$0A@E@@SA?AT__m128i@@T2@0@Z 10069030 f i libucrtd:strnlen.obj
 0001:00068070       ?compare_equals@?$__crt_simd_traits@$0A@G@@SA?AT__m128i@@T2@0@Z 10069070 f i libucrtd:strnlen.obj
 0001:000680b0       ?compute_byte_mask@?$__crt_simd_pack_traits@$00@@SAHT__m256i@@@Z 100690b0 f i libucrtd:strnlen.obj
 0001:000680e0       ?compute_byte_mask@?$__crt_simd_pack_traits@$0A@@@SAHT__m128i@@@Z 100690e0 f i libucrtd:strnlen.obj
 0001:00068110       ?get_zero_pack@?$__crt_simd_pack_traits@$00@@SA?AT__m256i@@XZ 10069110 f i libucrtd:strnlen.obj
 0001:00068140       ?get_zero_pack@?$__crt_simd_pack_traits@$0A@@@SA?AT__m128i@@XZ 10069140 f i libucrtd:strnlen.obj
 0001:00068170       _strnlen                   10069170 f   libucrtd:strnlen.obj
 0001:00068190       _wcslen                    10069190 f   libucrtd:strnlen.obj
 0001:000681b0       _wcsnlen                   100691b0 f   libucrtd:strnlen.obj
 0001:000681d0       ??$__crt_fast_decode_pointer@P6AXPB_W00II@Z@@YAP6AXPB_W00II@ZQ6AX000II@Z@Z 100691d0 f i libucrtd:invalid_parameter.obj
 0001:00068200       ??$__crt_fast_encode_pointer@P6AXPB_W00II@Z@@YAP6AXPB_W00II@ZQ6AX000II@Z@Z 10069200 f i libucrtd:invalid_parameter.obj
 0001:00068230       ??$initialize_from_array@$$BY00Q6AXPB_W00II@Z@?$dual_state_global@P6AXPB_W00II@Z@__crt_state_management@@QAAXAAY00Q6AXPB_W00II@Z@Z 10069230 f i libucrtd:invalid_parameter.obj
 0001:00068280       ?__crt_rotate_pointer_value@@YAIIH@Z 10069280 f i libucrtd:invalid_parameter.obj
 0001:00068290       ?dangerous_get_state_array@?$dual_state_global@P6AXPB_W00II@Z@__crt_state_management@@QAEPAP6AXPB_W00II@ZXZ 10069290 f i libucrtd:invalid_parameter.obj
 0001:000682a0       ?get_current_state_index@__crt_state_management@@YAIXZ 100692a0 f i libucrtd:invalid_parameter.obj
 0001:000682b0       ?value@?$dual_state_global@P6AXPB_W00II@Z@__crt_state_management@@QAEAAP6AXPB_W00II@ZXZ 100692b0 f i libucrtd:invalid_parameter.obj
 0001:000682d0       ___acrt_call_reportfault   100692d0 f   libucrtd:invalid_parameter.obj
 0001:00068430       ___acrt_initialize_invalid_parameter_handler 10069430 f   libucrtd:invalid_parameter.obj
 0001:00068460       __get_invalid_parameter_handler 10069460 f   libucrtd:invalid_parameter.obj
 0001:00068480       __get_thread_local_invalid_parameter_handler 10069480 f   libucrtd:invalid_parameter.obj
 0001:000684b0       __invalid_parameter        100694b0 f   libucrtd:invalid_parameter.obj
 0001:00068570       __invalid_parameter_noinfo 10069570 f   libucrtd:invalid_parameter.obj
 0001:00068590       __invalid_parameter_noinfo_noreturn 10069590 f   libucrtd:invalid_parameter.obj
 0001:000685c0       __invoke_watson            100695c0 f   libucrtd:invalid_parameter.obj
 0001:00068600       __set_invalid_parameter_handler 10069600 f   libucrtd:invalid_parameter.obj
 0001:00068650       __set_thread_local_invalid_parameter_handler 10069650 f   libucrtd:invalid_parameter.obj
 0001:00068680       ___acrt_errno_from_os_error 10069680 f   libucrtd:errno.obj
 0001:00068700       ___acrt_errno_map_os_error 10069700 f   libucrtd:errno.obj
 0001:00068730       ___doserrno                10069730 f   libucrtd:errno.obj
 0001:00068760       __errno                    10069760 f   libucrtd:errno.obj
 0001:00068790       __get_doserrno             10069790 f   libucrtd:errno.obj
 0001:00068820       __get_errno                10069820 f   libucrtd:errno.obj
 0001:000688b0       __set_doserrno             100698b0 f   libucrtd:errno.obj
 0001:000688e0       __set_errno                100698e0 f   libucrtd:errno.obj
 0001:00068910       _calloc                    10069910 f   libucrtd:calloc.obj
 0001:00068930       __recalloc                 10069930 f   libucrtd:recalloc.obj
 0001:00068960       __recalloc_base            10069960 f   libucrtd:recalloc.obj
 0001:000689fa       __resetstkoflw             100699fa f   libucrtd:resetstk.obj
 0001:00068ee0       _wcscat_s                  10069ee0 f   libucrtd:wcscat_s.obj
 0001:00069330       _wcsncpy_s                 1006a330 f   libucrtd:wcsncpy_s.obj
 0001:00069470       ___isascii                 1006a470 f   libucrtd:_ctype.obj
 0001:000694a0       ___iscsym                  1006a4a0 f   libucrtd:_ctype.obj
 0001:000694e0       ___iscsymf                 1006a4e0 f   libucrtd:_ctype.obj
 0001:00069520       ___toascii                 1006a520 f   libucrtd:_ctype.obj
 0001:00069530       __isalnum_l                1006a530 f   libucrtd:_ctype.obj
 0001:00069550       __isalpha_l                1006a550 f   libucrtd:_ctype.obj
 0001:00069570       __isblank_l                1006a570 f   libucrtd:_ctype.obj
 0001:00069590       __iscntrl_l                1006a590 f   libucrtd:_ctype.obj
 0001:000695b0       __iscsym_l                 1006a5b0 f   libucrtd:_ctype.obj
 0001:000695f0       __iscsymf_l                1006a5f0 f   libucrtd:_ctype.obj
 0001:00069630       __isdigit_l                1006a630 f   libucrtd:_ctype.obj
 0001:00069650       __isgraph_l                1006a650 f   libucrtd:_ctype.obj
 0001:00069670       __islower_l                1006a670 f   libucrtd:_ctype.obj
 0001:00069690       __isprint_l                1006a690 f   libucrtd:_ctype.obj
 0001:000696b0       __ispunct_l                1006a6b0 f   libucrtd:_ctype.obj
 0001:000696d0       __isspace_l                1006a6d0 f   libucrtd:_ctype.obj
 0001:000696f0       __isupper_l                1006a6f0 f   libucrtd:_ctype.obj
 0001:00069710       __isxdigit_l               1006a710 f   libucrtd:_ctype.obj
 0001:00069730       _isalnum                   1006a730 f   libucrtd:_ctype.obj
 0001:00069750       _isalpha                   1006a750 f   libucrtd:_ctype.obj
 0001:00069770       _isblank                   1006a770 f   libucrtd:_ctype.obj
 0001:000697a0       _iscntrl                   1006a7a0 f   libucrtd:_ctype.obj
 0001:000697c0       _isdigit                   1006a7c0 f   libucrtd:_ctype.obj
 0001:000697e0       _isgraph                   1006a7e0 f   libucrtd:_ctype.obj
 0001:00069800       _islower                   1006a800 f   libucrtd:_ctype.obj
 0001:00069820       _isprint                   1006a820 f   libucrtd:_ctype.obj
 0001:00069840       _ispunct                   1006a840 f   libucrtd:_ctype.obj
 0001:00069860       _isspace                   1006a860 f   libucrtd:_ctype.obj
 0001:00069880       _isupper                   1006a880 f   libucrtd:_ctype.obj
 0001:000698a0       _isxdigit                  1006a8a0 f   libucrtd:_ctype.obj
 0001:000698c0       _wcscat                    1006a8c0 f   libucrtd:wcscat.obj
 0001:00069920       _wcscpy                    1006a920 f   libucrtd:wcscpy.obj
 0001:00069fb0       ??$open_file@ABQBDABQBDABHPAU_iobuf@@@?$__crt_char_traits@D@@SAPAU_iobuf@@ABQBD0ABH$$QAPAU1@@Z 1006afb0 f i libucrtd:fopen.obj
 0001:00069fe0       ??$open_file@ABQB_WABQB_WABHPAU_iobuf@@@?$__crt_char_traits@_W@@SAPAU_iobuf@@ABQB_W0ABH$$QAPAU1@@Z 1006afe0 f i libucrtd:fopen.obj
 0001:0006a010       ?unlock@__crt_stdio_stream@@QBEXXZ 1006b010 f i libucrtd:fopen.obj
 0001:0006a030       __fsopen                   1006b030 f   libucrtd:fopen.obj
 0001:0006a050       __wfopen                   1006b050 f   libucrtd:fopen.obj
 0001:0006a070       __wfopen_s                 1006b070 f   libucrtd:fopen.obj
 0001:0006a090       __wfsopen                  1006b090 f   libucrtd:fopen.obj
 0001:0006a0b0       _fopen                     1006b0b0 f   libucrtd:fopen.obj
 0001:0006a0d0       _fopen_s                   1006b0d0 f   libucrtd:fopen.obj
 0001:0006a0f0       ?is_in_use@__crt_stdio_stream@@QBE_NXZ 1006b0f0 f i libucrtd:fclose.obj
 0001:0006a130       __fclose_nolock            1006b130 f   libucrtd:fclose.obj
 0001:0006a270       _fclose                    1006b270 f   libucrtd:fclose.obj
 0001:0006a3c0       __fputc_nolock             1006b3c0 f   libucrtd:fputc.obj
 0001:0006a450       __fputchar                 1006b450 f   libucrtd:fputc.obj
 0001:0006a470       __putc_nolock              1006b470 f   libucrtd:fputc.obj
 0001:0006a490       _fputc                     1006b490 f   libucrtd:fputc.obj
 0001:0006a6d0       _putc                      1006b6d0 f   libucrtd:fputc.obj
 0001:0006a6f0       _putchar                   1006b6f0 f   libucrtd:fputc.obj
 0001:0006a760       __seh_filter_dll           1006b760 f   libucrtd:exception_filter.obj
 0001:0006a790       __seh_filter_exe           1006b790 f   libucrtd:exception_filter.obj
 0001:0006a9a0       ??$?B$$A6GXPAXK0@Z@__crt_fast_encoded_nullptr_t@@QBEP6GXPAXK0@ZXZ 1006b9a0 f i libucrtd:exit.obj
 0001:0006aa80       ??$__crt_fast_decode_pointer@P6GXPAXK0@Z@@YAP6GXPAXK0@ZQ6GX0K0@Z@Z 1006ba80 f i libucrtd:exit.obj
 0001:0006aab0       ??$__crt_fast_encode_pointer@P6GXPAXK0@Z@@YAP6GXPAXK0@ZQ6GX0K0@Z@Z 1006bab0 f i libucrtd:exit.obj
 0001:0006aae0       ??$__crt_get_proc_address@P6GXI@Z@@YAP6GXI@ZQAUHINSTANCE__@@QBD@Z 1006bae0 f i libucrtd:exit.obj
 0001:0006ab70       ??0?$__crt_unique_handle_t@U__crt_hmodule_traits@@@@QAE@QAUHINSTANCE__@@@Z 1006bb70 f i libucrtd:exit.obj
 0001:0006ab90       ??1?$__crt_unique_handle_t@U__crt_hmodule_traits@@@@QAE@XZ 1006bb90 f i libucrtd:exit.obj
 0001:0006ad50       ?__acrt_select_exit_lock@@YA?AW4__acrt_lock_id@@XZ 1006bd50 f i libucrtd:exit.obj
 0001:0006ad60       ?__crt_fast_encode_pointer@@YA?AU__crt_fast_encoded_nullptr_t@@$$T@Z 1006bd60 f i libucrtd:exit.obj
 0001:0006ad90       ?close@?$__crt_unique_handle_t@U__crt_hmodule_traits@@@@QAEXXZ 1006bd90 f i libucrtd:exit.obj
 0001:0006add0       ?close@__crt_hmodule_traits@@SA_NPAUHINSTANCE__@@@Z 1006bdd0 f i libucrtd:exit.obj
 0001:0006aec0       ?get@?$__crt_unique_handle_t@U__crt_hmodule_traits@@@@QBEPAUHINSTANCE__@@XZ 1006bec0 f i libucrtd:exit.obj
 0001:0006aee0       ?get_address_of@?$__crt_unique_handle_t@U__crt_hmodule_traits@@@@QAEPAPAUHINSTANCE__@@XZ 1006bee0 f i libucrtd:exit.obj
 0001:0006aef0       ?get_invalid_value@__crt_hmodule_traits@@SAPAUHINSTANCE__@@XZ 1006bef0 f i libucrtd:exit.obj
 0001:0006b070       __Exit                     1006c070 f   libucrtd:exit.obj
 0001:0006b090       ___acrt_initialize_thread_local_exit_callback 1006c090 f   libucrtd:exit.obj
 0001:0006b0a0       __c_exit                   1006c0a0 f   libucrtd:exit.obj
 0001:0006b0c0       __cexit                    1006c0c0 f   libucrtd:exit.obj
 0001:0006b0e0       __exit                     1006c0e0 f   libucrtd:exit.obj
 0001:0006b100       __is_c_termination_complete 1006c100 f   libucrtd:exit.obj
 0001:0006b120       __register_thread_local_exe_atexit_callback 1006c120 f   libucrtd:exit.obj
 0001:0006b160       _exit                      1006c160 f   libucrtd:exit.obj
 0001:0006b180       _quick_exit                1006c180 f   libucrtd:exit.obj
 0001:0006b1a0       ??$?RE@__crt_internal_free_policy@@QBEXQBE@Z 1006c1a0 f i libucrtd:argv_parsing.obj
 0001:0006b1c0       ??$?RPAD@__crt_internal_free_policy@@QBEXQBQAD@Z 1006c1c0 f i libucrtd:argv_parsing.obj
 0001:0006b1e0       ??$?RPA_W@__crt_internal_free_policy@@QBEXQBQA_W@Z 1006c1e0 f i libucrtd:argv_parsing.obj
 0001:0006b740       ??$get_module_file_name@$$TAAY0BAF@DH@?$__crt_char_traits@D@@SAK$$QA$$TAAY0BAF@D$$QAH@Z 1006c740 f i libucrtd:argv_parsing.obj
 0001:0006b760       ??$get_module_file_name@$$TAAY0BAF@_WH@?$__crt_char_traits@_W@@SAK$$QA$$TAAY0BAF@_W$$QAH@Z 1006c760 f i libucrtd:argv_parsing.obj
 0001:0006be80       ??$set_program_name@PAD@?$__crt_char_traits@D@@SAX$$QAPAD@Z 1006ce80 f i libucrtd:argv_parsing.obj
 0001:0006bea0       ??$set_program_name@PA_W@?$__crt_char_traits@_W@@SAX$$QAPA_W@Z 1006cea0 f i libucrtd:argv_parsing.obj
 0001:0006bf00       ??0?$__crt_unique_heap_ptr@EU__crt_internal_free_policy@@@@QAE@QAE@Z 1006cf00 f i libucrtd:argv_parsing.obj
 0001:0006bf20       ??0?$__crt_unique_heap_ptr@PADU__crt_internal_free_policy@@@@QAE@QAPAD@Z 1006cf20 f i libucrtd:argv_parsing.obj
 0001:0006bf40       ??0?$__crt_unique_heap_ptr@PA_WU__crt_internal_free_policy@@@@QAE@QAPA_W@Z 1006cf40 f i libucrtd:argv_parsing.obj
 0001:0006bf60       ??1?$__crt_unique_heap_ptr@EU__crt_internal_free_policy@@@@QAE@XZ 1006cf60 f i libucrtd:argv_parsing.obj
 0001:0006bf80       ??1?$__crt_unique_heap_ptr@PADU__crt_internal_free_policy@@@@QAE@XZ 1006cf80 f i libucrtd:argv_parsing.obj
 0001:0006bfa0       ??1?$__crt_unique_heap_ptr@PA_WU__crt_internal_free_policy@@@@QAE@XZ 1006cfa0 f i libucrtd:argv_parsing.obj
 0001:0006bfc0       ??B?$__crt_unique_heap_ptr@EU__crt_internal_free_policy@@@@QBE_NXZ 1006cfc0 f i libucrtd:argv_parsing.obj
 0001:0006c080       ?detach@?$__crt_unique_heap_ptr@EU__crt_internal_free_policy@@@@QAEPAEXZ 1006d080 f i libucrtd:argv_parsing.obj
 0001:0006c0b0       ?detach@?$__crt_unique_heap_ptr@PADU__crt_internal_free_policy@@@@QAEPAPADXZ 1006d0b0 f i libucrtd:argv_parsing.obj
 0001:0006c0e0       ?detach@?$__crt_unique_heap_ptr@PA_WU__crt_internal_free_policy@@@@QAEPAPA_WXZ 1006d0e0 f i libucrtd:argv_parsing.obj
 0001:0006c170       ?get@?$__crt_unique_heap_ptr@EU__crt_internal_free_policy@@@@QBEPAEXZ 1006d170 f i libucrtd:argv_parsing.obj
 0001:0006c190       ?get@?$__crt_unique_heap_ptr@PADU__crt_internal_free_policy@@@@QBEPAPADXZ 1006d190 f i libucrtd:argv_parsing.obj
 0001:0006c1b0       ?get@?$__crt_unique_heap_ptr@PA_WU__crt_internal_free_policy@@@@QBEPAPA_WXZ 1006d1b0 f i libucrtd:argv_parsing.obj
 0001:0006c1d0       ?get_address_of@?$__crt_unique_heap_ptr@PADU__crt_internal_free_policy@@@@QAEPAPAPADXZ 1006d1d0 f i libucrtd:argv_parsing.obj
 0001:0006c1e0       ?get_address_of@?$__crt_unique_heap_ptr@PA_WU__crt_internal_free_policy@@@@QAEPAPAPA_WXZ 1006d1e0 f i libucrtd:argv_parsing.obj
 0001:0006c230       ?is_valid@?$__crt_unique_heap_ptr@EU__crt_internal_free_policy@@@@QBE_NXZ 1006d230 f i libucrtd:argv_parsing.obj
 0001:0006c260       ?release@?$__crt_unique_heap_ptr@EU__crt_internal_free_policy@@@@QAEXXZ 1006d260 f i libucrtd:argv_parsing.obj
 0001:0006c290       ?release@?$__crt_unique_heap_ptr@PADU__crt_internal_free_policy@@@@QAEXXZ 1006d290 f i libucrtd:argv_parsing.obj
 0001:0006c2c0       ?release@?$__crt_unique_heap_ptr@PA_WU__crt_internal_free_policy@@@@QAEXXZ 1006d2c0 f i libucrtd:argv_parsing.obj
 0001:0006c330       ___acrt_allocate_buffer_for_argv 1006d330 f   libucrtd:argv_parsing.obj
 0001:0006c3f0       __configure_narrow_argv    1006d3f0 f   libucrtd:argv_parsing.obj
 0001:0006c410       __configure_wide_argv      1006d410 f   libucrtd:argv_parsing.obj
 0001:0006c430       __set_pgmptr               1006d430 f i libucrtd:argv_parsing.obj
 0001:0006c440       __set_wpgmptr              1006d440 f i libucrtd:argv_parsing.obj
 0001:0006c44f       ??$?R_W@__crt_internal_free_policy@@QBEXQB_W@Z 1006d44f f i libucrtd:environment_initialization.obj
 0001:0006c8b8       ??$get_environment_from_os@$$V@?$__crt_char_traits@D@@SAPADXZ 1006d8b8 f i libucrtd:environment_initialization.obj
 0001:0006c8bd       ??$get_environment_from_os@$$V@?$__crt_char_traits@_W@@SAPA_WXZ 1006d8bd f i libucrtd:environment_initialization.obj
 0001:0006c9e6       ??$set_variable_in_environment_nolock@PADH@?$__crt_char_traits@D@@SAH$$QAPAD$$QAH@Z 1006d9e6 f i libucrtd:environment_initialization.obj
 0001:0006c9fe       ??$set_variable_in_environment_nolock@PA_WH@?$__crt_char_traits@_W@@SAH$$QAPA_W$$QAH@Z 1006d9fe f i libucrtd:environment_initialization.obj
 0001:0006ca16       ??$tcscpy_s@PADABIAAPAD@?$__crt_char_traits@D@@SAH$$QAPADABIAAPAD@Z 1006da16 f i libucrtd:environment_initialization.obj
 0001:0006ca34       ??$tcscpy_s@PA_WABIAAPA_W@?$__crt_char_traits@_W@@SAH$$QAPA_WABIAAPA_W@Z 1006da34 f i libucrtd:environment_initialization.obj
 0001:0006ca52       ??$tcslen@AAPAD@?$__crt_char_traits@D@@SAIAAPAD@Z 1006da52 f i libucrtd:environment_initialization.obj
 0001:0006ca6a       ??$tcslen@AAPA_W@?$__crt_char_traits@_W@@SAIAAPA_W@Z 1006da6a f i libucrtd:environment_initialization.obj
 0001:0006ca88       ??$uninitialize@A6AXAAPAPAD@Z@?$dual_state_global@PAPAD@__crt_state_management@@QAEXA6AXAAPAPAD@Z@Z 1006da88 f i libucrtd:environment_initialization.obj
 0001:0006cab1       ??$uninitialize@A6AXAAPAPA_W@Z@?$dual_state_global@PAPA_W@__crt_state_management@@QAEXA6AXAAPAPA_W@Z@Z 1006dab1 f i libucrtd:environment_initialization.obj
 0001:0006cb10       ??0?$__crt_unique_heap_ptr@_WU__crt_internal_free_policy@@@@QAE@QA_W@Z 1006db10 f i libucrtd:environment_initialization.obj
 0001:0006cb20       ??1?$__crt_unique_heap_ptr@_WU__crt_internal_free_policy@@@@QAE@XZ 1006db20 f i libucrtd:environment_initialization.obj
 0001:0006cb35       ??B?$__crt_unique_heap_ptr@PADU__crt_internal_free_policy@@@@QBE_NXZ 1006db35 f i libucrtd:environment_initialization.obj
 0001:0006cb3c       ??B?$__crt_unique_heap_ptr@PA_WU__crt_internal_free_policy@@@@QBE_NXZ 1006db3c f i libucrtd:environment_initialization.obj
 0001:0006cb43       ??B?$__crt_unique_heap_ptr@_WU__crt_internal_free_policy@@@@QBE_NXZ 1006db43 f i libucrtd:environment_initialization.obj
 0001:0006cb4a       ?__crt_compute_required_transform_buffer_count@@YAIIQBD@Z 1006db4a f i libucrtd:environment_initialization.obj
 0001:0006cb66       ?__crt_compute_required_transform_buffer_count@@YAIIQB_W@Z 1006db66 f i libucrtd:environment_initialization.obj
 0001:0006cb84       ?__crt_transform_string@@YAIIQBDQA_WI@Z 1006db84 f i libucrtd:environment_initialization.obj
 0001:0006cba3       ?__crt_transform_string@@YAIIQB_WQADI@Z 1006dba3 f i libucrtd:environment_initialization.obj
 0001:0006cbc5       ?detach@?$__crt_unique_heap_ptr@DU__crt_internal_free_policy@@@@QAEPADXZ 1006dbc5 f i libucrtd:environment_initialization.obj
 0001:0006cbcb       ?detach@?$__crt_unique_heap_ptr@_WU__crt_internal_free_policy@@@@QAEPA_WXZ 1006dbcb f i libucrtd:environment_initialization.obj
 0001:0006cbd1       ?get@?$__crt_unique_heap_ptr@_WU__crt_internal_free_policy@@@@QBEPA_WXZ 1006dbd1 f i libucrtd:environment_initialization.obj
 0001:0006cbf8       ?initialize@?$dual_state_global@PAPAD@__crt_state_management@@QAEXQAPAD@Z 1006dbf8 f i libucrtd:environment_initialization.obj
 0001:0006cc1e       ?initialize@?$dual_state_global@PAPA_W@__crt_state_management@@QAEXQAPA_W@Z 1006dc1e f i libucrtd:environment_initialization.obj
 0001:0006cc44       ?is_valid@?$__crt_unique_heap_ptr@PADU__crt_internal_free_policy@@@@QBE_NXZ 1006dc44 f i libucrtd:environment_initialization.obj
 0001:0006cc4b       ?is_valid@?$__crt_unique_heap_ptr@PA_WU__crt_internal_free_policy@@@@QBE_NXZ 1006dc4b f i libucrtd:environment_initialization.obj
 0001:0006cc52       ?is_valid@?$__crt_unique_heap_ptr@_WU__crt_internal_free_policy@@@@QBE_NXZ 1006dc52 f i libucrtd:environment_initialization.obj
 0001:0006cc61       ?release@?$__crt_unique_heap_ptr@_WU__crt_internal_free_policy@@@@QAEXXZ 1006dc61 f i libucrtd:environment_initialization.obj
 0001:0006cc76       ?value@?$dual_state_global@PAPAD@__crt_state_management@@QAEAAPAPADXZ 1006dc76 f i libucrtd:environment_initialization.obj
 0001:0006cc79       ?value@?$dual_state_global@PAPA_W@__crt_state_management@@QAEAAPAPA_WXZ 1006dc79 f i libucrtd:environment_initialization.obj
 0001:0006cc7c       ___dcrt_get_or_create_narrow_environment_nolock 1006dc7c f   libucrtd:environment_initialization.obj
 0001:0006cc81       ___dcrt_get_or_create_wide_environment_nolock 1006dc81 f   libucrtd:environment_initialization.obj
 0001:0006cc86       ___dcrt_uninitialize_environments_nolock 1006dc86 f   libucrtd:environment_initialization.obj
 0001:0006ccbd       ___p__environ              1006dcbd f   libucrtd:environment_initialization.obj
 0001:0006ccc3       ___p__wenviron             1006dcc3 f   libucrtd:environment_initialization.obj
 0001:0006ccc9       __get_initial_narrow_environment 1006dcc9 f   libucrtd:environment_initialization.obj
 0001:0006ccdd       __get_initial_wide_environment 1006dcdd f   libucrtd:environment_initialization.obj
 0001:0006ccf1       __initialize_narrow_environment 1006dcf1 f   libucrtd:environment_initialization.obj
 0001:0006ccf6       __initialize_wide_environment 1006dcf6 f   libucrtd:environment_initialization.obj
 0001:0006cd00       ??$?B$$A6AXXZ@__crt_fast_encoded_nullptr_t@@QBEP6AXXZXZ 1006dd00 f i libucrtd:onexit.obj
 0001:0006cd20       ??$?BP6AXXZ@__crt_fast_encoded_nullptr_t@@QBEPAP6AXXZXZ 1006dd20 f i libucrtd:onexit.obj
 0001:0006cd40       ??$?RP6AXXZ@__crt_internal_free_policy@@QBEXQBQ6AXXZ@Z 1006dd40 f i libucrtd:onexit.obj
 0001:0006cf00       ??$__crt_fast_decode_pointer@P6AXXZ@@YAP6AXXZQ6AXXZ@Z 1006df00 f i libucrtd:onexit.obj
 0001:0006cf30       ??$__crt_fast_decode_pointer@PAP6AXXZ@@YAPAP6AXXZQAP6AXXZ@Z 1006df30 f i libucrtd:onexit.obj
 0001:0006cf60       ??$__crt_fast_encode_pointer@P6AHXZ@@YAP6AHXZQ6AHXZ@Z 1006df60 f i libucrtd:onexit.obj
 0001:0006cf90       ??$__crt_fast_encode_pointer@P6AXXZ@@YAP6AXXZQ6AXXZ@Z 1006df90 f i libucrtd:onexit.obj
 0001:0006cfc0       ??$__crt_fast_encode_pointer@PAP6AXXZ@@YAPAP6AXXZQAP6AXXZ@Z 1006dfc0 f i libucrtd:onexit.obj
 0001:0006d0c0       ??0?$__crt_unique_heap_ptr@P6AXXZU__crt_internal_free_policy@@@@QAE@QAP6AXXZ@Z 1006e0c0 f i libucrtd:onexit.obj
 0001:0006d0e0       ??1?$__crt_unique_heap_ptr@P6AXXZU__crt_internal_free_policy@@@@QAE@XZ 1006e0e0 f i libucrtd:onexit.obj
 0001:0006d100       ??1scoped_global_state_reset@__crt_state_management@@QAE@XZ 1006e100 f i libucrtd:onexit.obj
 0001:0006d570       ?detach@?$__crt_unique_heap_ptr@P6AXXZU__crt_internal_free_policy@@@@QAEPAP6AXXZXZ 1006e570 f i libucrtd:onexit.obj
 0001:0006d5a0       ?release@?$__crt_unique_heap_ptr@P6AXXZU__crt_internal_free_policy@@@@QAEXXZ 1006e5a0 f i libucrtd:onexit.obj
 0001:0006d5d0       __crt_at_quick_exit        1006e5d0 f   libucrtd:onexit.obj
 0001:0006d5f0       __crt_atexit               1006e5f0 f   libucrtd:onexit.obj
 0001:0006d610       __execute_onexit_table     1006e610 f   libucrtd:onexit.obj
 0001:0006d640       __initialize_onexit_table  1006e640 f   libucrtd:onexit.obj
 0001:0006d6a0       __register_onexit_function 1006e6a0 f   libucrtd:onexit.obj
 0001:0006d8e0       ??$?BX@__crt_fast_encoded_nullptr_t@@QBEPAXXZ 1006e8e0 f i libucrtd:initialization.obj
 0001:0006d900       ??$__crt_fast_encode_pointer@PAX@@YAPAXQAX@Z 1006e900 f i libucrtd:initialization.obj
 0001:0006d9c0       ?initialize@?$dual_state_global@PAU__crt_locale_data@@@__crt_state_management@@QAEXQAU__crt_locale_data@@@Z 1006e9c0 f i libucrtd:initialization.obj
 0001:0006da00       ___acrt_initialize         1006ea00 f   libucrtd:initialization.obj
 0001:0006da20       ___acrt_thread_attach      1006ea20 f   libucrtd:initialization.obj
 0001:0006da40       ___acrt_thread_detach      1006ea40 f   libucrtd:initialization.obj
 0001:0006da50       ___acrt_uninitialize       1006ea50 f   libucrtd:initialization.obj
 0001:0006da70       ___acrt_uninitialize_critical 1006ea70 f   libucrtd:initialization.obj
 0001:0006f2e0       __CrtCheckMemory           100702e0 f   libucrtd:debug_heap.obj
 0001:0006f470       __CrtDoForAllClientObjects 10070470 f   libucrtd:debug_heap.obj
 0001:0006f5c0       __CrtDumpMemoryLeaks       100705c0 f   libucrtd:debug_heap.obj
 0001:0006f660       __CrtGetAllocHook          10070660 f   libucrtd:debug_heap.obj
 0001:0006f670       __CrtGetDumpClient         10070670 f   libucrtd:debug_heap.obj
 0001:0006f680       __CrtIsMemoryBlock         10070680 f   libucrtd:debug_heap.obj
 0001:0006f7d0       __CrtIsValidHeapPointer    100707d0 f   libucrtd:debug_heap.obj
 0001:0006f800       __CrtIsValidPointer        10070800 f   libucrtd:debug_heap.obj
 0001:0006f830       __CrtMemCheckpoint         10070830 f   libucrtd:debug_heap.obj
 0001:0006fa60       __CrtMemDifference         10070a60 f   libucrtd:debug_heap.obj
 0001:0006fcd0       __CrtMemDumpAllObjectsSince 10070cd0 f   libucrtd:debug_heap.obj
 0001:0006fd70       __CrtMemDumpStatistics     10070d70 f   libucrtd:debug_heap.obj
 0001:0006fea0       __CrtReportBlockType       10070ea0 f   libucrtd:debug_heap.obj
 0001:0006fed0       __CrtSetAllocHook          10070ed0 f   libucrtd:debug_heap.obj
 0001:0006fef0       __CrtSetBreakAlloc         10070ef0 f   libucrtd:debug_heap.obj
 0001:0006ff10       __CrtSetDbgBlockType       10070f10 f   libucrtd:debug_heap.obj
 0001:0006fff0       __CrtSetDbgFlag            10070ff0 f   libucrtd:debug_heap.obj
 0001:00070160       __CrtSetDumpClient         10071160 f   libucrtd:debug_heap.obj
 0001:00070180       ___acrt_get_locale_data_prefix 10071180 f i libucrtd:debug_heap.obj
 0001:000701a0       ___p__crtBreakAlloc        100711a0 f   libucrtd:debug_heap.obj
 0001:000701b0       ___p__crtDbgFlag           100711b0 f   libucrtd:debug_heap.obj
 0001:000701c0       __aligned_free_dbg         100711c0 f   libucrtd:debug_heap.obj
 0001:00070270       __aligned_malloc_dbg       10071270 f   libucrtd:debug_heap.obj
 0001:000702a0       __aligned_msize_dbg        100712a0 f   libucrtd:debug_heap.obj
 0001:000703d0       __aligned_offset_malloc_dbg 100713d0 f   libucrtd:debug_heap.obj
 0001:000705b0       __aligned_offset_realloc_dbg 100715b0 f   libucrtd:debug_heap.obj
 0001:000708c0       __aligned_offset_recalloc_dbg 100718c0 f   libucrtd:debug_heap.obj
 0001:00070980       __aligned_realloc_dbg      10071980 f   libucrtd:debug_heap.obj
 0001:000709b0       __aligned_recalloc_dbg     100719b0 f   libucrtd:debug_heap.obj
 0001:000709e0       __calloc_dbg               100719e0 f   libucrtd:debug_heap.obj
 0001:00070a50       __chvalidchk_l             10071a50 f i libucrtd:debug_heap.obj
 0001:00070a70       __expand_dbg               10071a70 f   libucrtd:debug_heap.obj
 0001:00070ba0       __free_dbg                 10071ba0 f   libucrtd:debug_heap.obj
 0001:00070c50       __ischartype_l             10071c50 f i libucrtd:debug_heap.obj
 0001:00070cd0       __malloc_dbg               10071cd0 f   libucrtd:debug_heap.obj
 0001:00070cf0       __msize_dbg                10071cf0 f   libucrtd:debug_heap.obj
 0001:00070e80       __realloc_dbg              10071e80 f   libucrtd:debug_heap.obj
 0001:00070f20       __recalloc_dbg             10071f20 f   libucrtd:debug_heap.obj
 0001:00070fd0       __initterm                 10071fd0 f   libucrtd:initterm.obj
 0001:00071020       __initterm_e               10072020 f   libucrtd:initterm.obj
 0001:00071390       _strcpy_s                  10072390 f   libucrtd:strcpy_s.obj
 0001:000717c0       _strcat_s                  100727c0 f   libucrtd:strcat_s.obj
 0001:000717e0       ??$?B$$A6AHI@Z@__crt_fast_encoded_nullptr_t@@QBEP6AHI@ZXZ 100727e0 f i libucrtd:new_handler.obj
 0001:00071800       ??$__crt_fast_decode_pointer@P6AHI@Z@@YAP6AHI@ZQ6AHI@Z@Z 10072800 f i libucrtd:new_handler.obj
 0001:00071830       ??$__crt_fast_encode_pointer@P6AHI@Z@@YAP6AHI@ZQ6AHI@Z@Z 10072830 f i libucrtd:new_handler.obj
 0001:00071860       ?_set_new_handler@@YAP6AHI@ZH@Z 10072860 f   libucrtd:new_handler.obj
 0001:000718c0       ?initialize@?$dual_state_global@P6AHI@Z@__crt_state_management@@QAEXQ6AHI@Z@Z 100728c0 f i libucrtd:new_handler.obj
 0001:00071900       ?value@?$dual_state_global@P6AHI@Z@__crt_state_management@@QAEAAP6AHI@ZXZ 10072900 f i libucrtd:new_handler.obj
 0001:00071920       ___acrt_initialize_new_handler 10072920 f   libucrtd:new_handler.obj
 0001:00071940       __callnewh                 10072940 f   libucrtd:new_handler.obj
 0001:00071980       __query_new_handler        10072980 f   libucrtd:new_handler.obj
 0001:00071a10       __set_new_handler          10072a10 f   libucrtd:new_handler.obj
 0001:00071af0       __get_terminate            10072af0 f   libucrtd:terminate.obj
 0001:00071b10       _set_terminate             10072b10 f   libucrtd:terminate.obj
 0001:00071b40       _terminate                 10072b40 f   libucrtd:terminate.obj
 0001:00072510       __makepath                 10073510 f   libucrtd:makepath.obj
 0001:00072540       __makepath_s               10073540 f   libucrtd:makepath.obj
 0001:00072570       __wmakepath                10073570 f   libucrtd:makepath.obj
 0001:000725a0       __wmakepath_s              100735a0 f   libucrtd:makepath.obj
 0001:00073ef0       ??$tcsncpy_s@AAPADIAAPBDABI@?$__crt_char_traits@D@@SAHAAPAD$$QAIAAPBDABI@Z 10074ef0 f i libucrtd:splitpath.obj
 0001:00073f20       ??$tcsncpy_s@AAPADIAAPBDH@?$__crt_char_traits@D@@SAHAAPAD$$QAIAAPBD$$QAH@Z 10074f20 f i libucrtd:splitpath.obj
 0001:00073f50       ??$tcsncpy_s@AAPA_WIAAPB_WABI@?$__crt_char_traits@_W@@SAHAAPA_W$$QAIAAPB_WABI@Z 10074f50 f i libucrtd:splitpath.obj
 0001:00073f80       ??$tcsncpy_s@AAPA_WIAAPB_WH@?$__crt_char_traits@_W@@SAHAAPA_W$$QAIAAPB_W$$QAH@Z 10074f80 f i libucrtd:splitpath.obj
 0001:000741c0       __splitpath                100751c0 f   libucrtd:splitpath.obj
 0001:000741f0       __splitpath_s              100751f0 f   libucrtd:splitpath.obj
 0001:00074240       __wsplitpath               10075240 f   libucrtd:splitpath.obj
 0001:00074270       __wsplitpath_s             10075270 f   libucrtd:splitpath.obj
 0001:000742c0       __set_abort_behavior       100752c0 f   libucrtd:abort.obj
 0001:000742f0       _abort                     100752f0 f   libucrtd:abort.obj
 0001:00074360       _strcmp                    10075360 f   libucrtd:strcmp.obj
 0001:000743f0       _strlen                    100753f0 f   libucrtd:strlen.obj
 0001:00074480       ??$is_overflow_condition@K@__crt_strtox@@YA_NIK@Z 10075480 f i libucrtd:atox.obj
 0001:000744e0       ??$is_overflow_condition@_K@__crt_strtox@@YA_NI_K@Z 100754e0 f i libucrtd:atox.obj
 0001:00074570       ??$make_c_string_character_source@D$$T@__crt_strtox@@YA?AV?$c_string_character_source@D@0@QBD$$T@Z 10075570 f i libucrtd:atox.obj
 0001:00074590       ??$make_c_string_character_source@_W$$T@__crt_strtox@@YA?AV?$c_string_character_source@_W@0@QB_W$$T@Z 10075590 f i libucrtd:atox.obj
 0001:000745b0       ??$parse_integer@KV?$c_string_character_source@D@__crt_strtox@@@__crt_strtox@@YAKQAU__crt_locale_pointers@@V?$c_string_character_source@D@0@H_N@Z 100755b0 f i libucrtd:atox.obj
 0001:00074920       ??$parse_integer@KV?$c_string_character_source@_W@__crt_strtox@@@__crt_strtox@@YAKQAU__crt_locale_pointers@@V?$c_string_character_source@_W@0@H_N@Z 10075920 f i libucrtd:atox.obj
 0001:00074c90       ??$parse_integer@_KV?$c_string_character_source@D@__crt_strtox@@@__crt_strtox@@YA_KQAU__crt_locale_pointers@@V?$c_string_character_source@D@0@H_N@Z 10075c90 f i libucrtd:atox.obj
 0001:000750b0       ??$parse_integer@_KV?$c_string_character_source@_W@__crt_strtox@@@__crt_strtox@@YA_KQAU__crt_locale_pointers@@V?$c_string_character_source@_W@0@H_N@Z 100760b0 f i libucrtd:atox.obj
 0001:000754e0       ??$parse_integer_from_string@JD$$T@__crt_strtox@@YAJQBD$$THQAU__crt_locale_pointers@@@Z 100764e0 f i libucrtd:atox.obj
 0001:00075520       ??$parse_integer_from_string@J_W$$T@__crt_strtox@@YAJQB_W$$THQAU__crt_locale_pointers@@@Z 10076520 f i libucrtd:atox.obj
 0001:00075560       ??$parse_integer_from_string@_JD$$T@__crt_strtox@@YA_JQBD$$THQAU__crt_locale_pointers@@@Z 10076560 f i libucrtd:atox.obj
 0001:000755a0       ??$parse_integer_from_string@_J_W$$T@__crt_strtox@@YA_JQB_W$$THQAU__crt_locale_pointers@@@Z 100765a0 f i libucrtd:atox.obj
 0001:000755e0       ??0?$c_string_character_source@D@__crt_strtox@@QAE@QBDQAPBD@Z 100765e0 f i libucrtd:atox.obj
 0001:00075620       ??0?$c_string_character_source@_W@__crt_strtox@@QAE@QB_WQAPB_W@Z 10076620 f i libucrtd:atox.obj
 0001:00075660       ??1?$c_string_character_source@D@__crt_strtox@@QAE@XZ 10076660 f i libucrtd:atox.obj
 0001:00075690       ??1?$c_string_character_source@_W@__crt_strtox@@QAE@XZ 10076690 f i libucrtd:atox.obj
 0001:000756c0       ?get@?$c_string_character_source@D@__crt_strtox@@QAEDXZ 100766c0 f i libucrtd:atox.obj
 0001:000756f0       ?get@?$c_string_character_source@_W@__crt_strtox@@QAE_WXZ 100766f0 f i libucrtd:atox.obj
 0001:00075720       ?is_space@__crt_strtox@@YA_NDQAU__crt_locale_pointers@@@Z 10076720 f i libucrtd:atox.obj
 0001:00075760       ?is_space@__crt_strtox@@YA_N_WPAU__crt_locale_pointers@@@Z 10076760 f i libucrtd:atox.obj
 0001:00075790       ?maximum_signed_value@__crt_strtox@@YAJK@Z 10076790 f i libucrtd:atox.obj
 0001:000757a0       ?maximum_signed_value@__crt_strtox@@YA_J_K@Z 100767a0 f i libucrtd:atox.obj
 0001:000757b0       ?minimum_signed_value@__crt_strtox@@YAJK@Z 100767b0 f i libucrtd:atox.obj
 0001:000757c0       ?minimum_signed_value@__crt_strtox@@YA_J_K@Z 100767c0 f i libucrtd:atox.obj
 0001:000757d0       ?parse_digit@__crt_strtox@@YAID@Z 100767d0 f i libucrtd:atox.obj
 0001:00075830       ?parse_digit@__crt_strtox@@YAI_W@Z 10076830 f i libucrtd:atox.obj
 0001:00075880       ?restore_state@?$c_string_character_source@D@__crt_strtox@@QAE_NQBD@Z 10076880 f i libucrtd:atox.obj
 0001:000758a0       ?restore_state@?$c_string_character_source@_W@__crt_strtox@@QAE_NQB_W@Z 100768a0 f i libucrtd:atox.obj
 0001:000758c0       ?save_state@?$c_string_character_source@D@__crt_strtox@@QBEPBDXZ 100768c0 f i libucrtd:atox.obj
 0001:000758e0       ?save_state@?$c_string_character_source@_W@__crt_strtox@@QBEPB_WXZ 100768e0 f i libucrtd:atox.obj
 0001:00075900       ?unget@?$c_string_character_source@D@__crt_strtox@@QAEXD@Z 10076900 f i libucrtd:atox.obj
 0001:000759b0       ?unget@?$c_string_character_source@_W@__crt_strtox@@QAEX_W@Z 100769b0 f i libucrtd:atox.obj
 0001:00075a60       ?validate@?$c_string_character_source@D@__crt_strtox@@QBE_NXZ 10076a60 f i libucrtd:atox.obj
 0001:00075af0       ?validate@?$c_string_character_source@_W@__crt_strtox@@QBE_NXZ 10076af0 f i libucrtd:atox.obj
 0001:00075b80       ?wide_character_to_digit@__crt_strtox@@YAH_W@Z 10076b80 f i libucrtd:atox.obj
 0001:00075eb0       ___ascii_iswalpha          10076eb0 f i libucrtd:atox.obj
 0001:00075ef0       ___ascii_toupper           10076ef0 f i libucrtd:atox.obj
 0001:00075f10       ___ascii_towupper          10076f10 f i libucrtd:atox.obj
 0001:00075f30       __atoi64                   10076f30 f   libucrtd:atox.obj
 0001:00075f50       __atoi64_l                 10076f50 f   libucrtd:atox.obj
 0001:00075f70       __atoi_l                   10076f70 f   libucrtd:atox.obj
 0001:00075f90       __atol_l                   10076f90 f   libucrtd:atox.obj
 0001:00075fb0       __atoll_l                  10076fb0 f   libucrtd:atox.obj
 0001:00075fd0       __wtoi                     10076fd0 f   libucrtd:atox.obj
 0001:00075ff0       __wtoi64                   10076ff0 f   libucrtd:atox.obj
 0001:00076010       __wtoi64_l                 10077010 f   libucrtd:atox.obj
 0001:00076030       __wtoi_l                   10077030 f   libucrtd:atox.obj
 0001:00076050       __wtol                     10077050 f   libucrtd:atox.obj
 0001:00076070       __wtol_l                   10077070 f   libucrtd:atox.obj
 0001:00076090       __wtoll                    10077090 f   libucrtd:atox.obj
 0001:000760b0       __wtoll_l                  100770b0 f   libucrtd:atox.obj
 0001:000760d0       _atoi                      100770d0 f   libucrtd:atox.obj
 0001:000760f0       _atol                      100770f0 f   libucrtd:atox.obj
 0001:00076110       _atoll                     10077110 f   libucrtd:atox.obj
 0001:00076130       _strncmp                   10077130 f   libucrtd:strncmp.obj
 0001:000761b0       _wcsncmp                   100771b0 f   libucrtd:wcsncmp.obj
 0001:00076210       __CrtGetDebugFillThreshold 10077210 f   libucrtd:debug_fill_threshold.obj
 0001:00076220       __CrtSetDebugFillThreshold 10077220 f   libucrtd:debug_fill_threshold.obj
 0001:00076240       ??$make_c_string_character_source@DPAPAD@__crt_strtox@@YA?AV?$c_string_character_source@D@0@QBDQAPAD@Z 10077240 f i libucrtd:strtox.obj
 0001:00076260       ??$make_c_string_character_source@_WPAPA_W@__crt_strtox@@YA?AV?$c_string_character_source@_W@0@QB_WQAPA_W@Z 10077260 f i libucrtd:strtox.obj
 0001:00076280       ??$parse_integer_from_string@JDPAPAD@__crt_strtox@@YAJQBDQAPADHQAU__crt_locale_pointers@@@Z 10077280 f i libucrtd:strtox.obj
 0001:000762c0       ??$parse_integer_from_string@J_WPAPA_W@__crt_strtox@@YAJQB_WQAPA_WHQAU__crt_locale_pointers@@@Z 100772c0 f i libucrtd:strtox.obj
 0001:00076300       ??$parse_integer_from_string@KDPAPAD@__crt_strtox@@YAKQBDQAPADHQAU__crt_locale_pointers@@@Z 10077300 f i libucrtd:strtox.obj
 0001:00076340       ??$parse_integer_from_string@K_WPAPA_W@__crt_strtox@@YAKQB_WQAPA_WHQAU__crt_locale_pointers@@@Z 10077340 f i libucrtd:strtox.obj
 0001:00076380       ??$parse_integer_from_string@_JDPAPAD@__crt_strtox@@YA_JQBDQAPADHQAU__crt_locale_pointers@@@Z 10077380 f i libucrtd:strtox.obj
 0001:000763c0       ??$parse_integer_from_string@_J_WPAPA_W@__crt_strtox@@YA_JQB_WQAPA_WHQAU__crt_locale_pointers@@@Z 100773c0 f i libucrtd:strtox.obj
 0001:00076400       ??$parse_integer_from_string@_KDPAPAD@__crt_strtox@@YA_KQBDQAPADHQAU__crt_locale_pointers@@@Z 10077400 f i libucrtd:strtox.obj
 0001:00076440       ??$parse_integer_from_string@_K_WPAPA_W@__crt_strtox@@YA_KQB_WQAPA_WHQAU__crt_locale_pointers@@@Z 10077440 f i libucrtd:strtox.obj
 0001:00076480       __strtoi64                 10077480 f   libucrtd:strtox.obj
 0001:000764a0       __strtoi64_l               100774a0 f   libucrtd:strtox.obj
 0001:000764c0       __strtoimax_l              100774c0 f   libucrtd:strtox.obj
 0001:000764e0       __strtol_l                 100774e0 f   libucrtd:strtox.obj
 0001:00076500       __strtoll_l                10077500 f   libucrtd:strtox.obj
 0001:00076520       __strtoui64                10077520 f   libucrtd:strtox.obj
 0001:00076540       __strtoui64_l              10077540 f   libucrtd:strtox.obj
 0001:00076560       __strtoul_l                10077560 f   libucrtd:strtox.obj
 0001:00076580       __strtoull_l               10077580 f   libucrtd:strtox.obj
 0001:000765a0       __strtoumax_l              100775a0 f   libucrtd:strtox.obj
 0001:000765c0       __wcstoi64                 100775c0 f   libucrtd:strtox.obj
 0001:000765e0       __wcstoi64_l               100775e0 f   libucrtd:strtox.obj
 0001:00076600       __wcstoimax_l              10077600 f   libucrtd:strtox.obj
 0001:00076620       __wcstol_l                 10077620 f   libucrtd:strtox.obj
 0001:00076640       __wcstoll_l                10077640 f   libucrtd:strtox.obj
 0001:00076660       __wcstoui64                10077660 f   libucrtd:strtox.obj
 0001:00076680       __wcstoui64_l              10077680 f   libucrtd:strtox.obj
 0001:000766a0       __wcstoul_l                100776a0 f   libucrtd:strtox.obj
 0001:000766c0       __wcstoull_l               100776c0 f   libucrtd:strtox.obj
 0001:000766e0       __wcstoumax_l              100776e0 f   libucrtd:strtox.obj
 0001:00076700       _strtoimax                 10077700 f   libucrtd:strtox.obj
 0001:00076720       _strtol                    10077720 f   libucrtd:strtox.obj
 0001:00076740       _strtoll                   10077740 f   libucrtd:strtox.obj
 0001:00076760       _strtoul                   10077760 f   libucrtd:strtox.obj
 0001:00076780       _strtoull                  10077780 f   libucrtd:strtox.obj
 0001:000767a0       _strtoumax                 100777a0 f   libucrtd:strtox.obj
 0001:000767c0       _wcstoimax                 100777c0 f   libucrtd:strtox.obj
 0001:000767e0       _wcstol                    100777e0 f   libucrtd:strtox.obj
 0001:00076800       _wcstoll                   10077800 f   libucrtd:strtox.obj
 0001:00076820       _wcstoul                   10077820 f   libucrtd:strtox.obj
 0001:00076840       _wcstoull                  10077840 f   libucrtd:strtox.obj
 0001:00076860       _wcstoumax                 10077860 f   libucrtd:strtox.obj
 0001:00076880       __mbtowc_l                 10077880 f   libucrtd:mbtowc.obj
 0001:00076ba0       _mbtowc                    10077ba0 f   libucrtd:mbtowc.obj
 0001:00076bc0       __wctomb_l                 10077bc0 f   libucrtd:wctomb.obj
 0001:00076c40       __wctomb_s_l               10077c40 f   libucrtd:wctomb.obj
 0001:00077000       _wctomb                    10078000 f   libucrtd:wctomb.obj
 0001:00077050       _wctomb_s                  10078050 f   libucrtd:wctomb.obj
 0001:00077080       ??$?RU__acrt_ptd@@@__crt_internal_free_policy@@QBEXQBU__acrt_ptd@@@Z 10078080 f i libucrtd:per_thread_data.obj
 0001:00077530       ??0?$__crt_unique_heap_ptr@U__acrt_ptd@@U__crt_internal_free_policy@@@@QAE@QAU__acrt_ptd@@@Z 10078530 f i libucrtd:per_thread_data.obj
 0001:00077550       ??0__crt_scoped_get_last_error_reset@@QAE@XZ 10078550 f i libucrtd:per_thread_data.obj
 0001:00077570       ??1?$__crt_unique_heap_ptr@U__acrt_ptd@@U__crt_internal_free_policy@@@@QAE@XZ 10078570 f i libucrtd:per_thread_data.obj
 0001:00077590       ??1__crt_scoped_get_last_error_reset@@QAE@XZ 10078590 f i libucrtd:per_thread_data.obj
 0001:000775b0       ??B?$__crt_unique_heap_ptr@U__acrt_ptd@@U__crt_internal_free_policy@@@@QBE_NXZ 100785b0 f i libucrtd:per_thread_data.obj
 0001:00077890       ?dangerous_get_state_array@?$dual_state_global@PAU__crt_locale_data@@@__crt_state_management@@QAEPAPAU__crt_locale_data@@XZ 10078890 f i libucrtd:per_thread_data.obj
 0001:00077a10       ?detach@?$__crt_unique_heap_ptr@U__acrt_ptd@@U__crt_internal_free_policy@@@@QAEPAU__acrt_ptd@@XZ 10078a10 f i libucrtd:per_thread_data.obj
 0001:00077a40       ?get@?$__crt_unique_heap_ptr@U__acrt_ptd@@U__crt_internal_free_policy@@@@QBEPAU__acrt_ptd@@XZ 10078a40 f i libucrtd:per_thread_data.obj
 0001:00077a60       ?get_current_state_index@__crt_state_management@@YAIABV__crt_scoped_get_last_error_reset@@@Z 10078a60 f i libucrtd:per_thread_data.obj
 0001:00077bd0       ?is_valid@?$__crt_unique_heap_ptr@U__acrt_ptd@@U__crt_internal_free_policy@@@@QBE_NXZ 10078bd0 f i libucrtd:per_thread_data.obj
 0001:00077c00       ?release@?$__crt_unique_heap_ptr@U__acrt_ptd@@U__crt_internal_free_policy@@@@QAEXXZ 10078c00 f i libucrtd:per_thread_data.obj
 0001:00077cf0       ?value@?$dual_state_global@PAU__crt_locale_data@@@__crt_state_management@@QAEAAPAU__crt_locale_data@@XZ 10078cf0 f i libucrtd:per_thread_data.obj
 0001:00077d10       ___acrt_freeptd            10078d10 f   libucrtd:per_thread_data.obj
 0001:00077d40       ___acrt_getptd             10078d40 f   libucrtd:per_thread_data.obj
 0001:00077d60       ___acrt_getptd_head        10078d60 f   libucrtd:per_thread_data.obj
 0001:00077d80       ___acrt_getptd_noexit      10078d80 f   libucrtd:per_thread_data.obj
 0001:00077d90       ___acrt_initialize_ptd     10078d90 f   libucrtd:per_thread_data.obj
 0001:00077dd0       ___acrt_uninitialize_ptd   10078dd0 f   libucrtd:per_thread_data.obj
 0001:00077e00       ___threadhandle            10078e00 f   libucrtd:per_thread_data.obj
 0001:00077e10       ___threadid                10078e10 f   libucrtd:per_thread_data.obj
 0001:00077e20       ?value@?$dual_state_global@PAU__crt_multibyte_data@@@__crt_state_management@@QAEAAPAU__crt_multibyte_data@@XZ 10078e20 f i libucrtd:locale_update.obj
 0001:00077e40       ___acrt_should_sync_with_global_locale 10078e40 f i libucrtd:locale_update.obj
 0001:00077e70       ___acrt_update_locale_info 10078e70 f   libucrtd:locale_update.obj
 0001:00077eb0       ___acrt_update_multibyte_info 10078eb0 f   libucrtd:locale_update.obj
 0001:00077ef0       ?__acrt_fp_classify@@YA?AW4__acrt_fp_class@@ABN@Z 10078ef0 f i libucrtd:cvt.obj
 0001:00078010       ?__acrt_fp_is_negative@@YA_NABN@Z 10079010 f i libucrtd:cvt.obj
 0001:00079300       ?strrchr@@YAPADQADH@Z      1007a300 f i libucrtd:cvt.obj
 0001:00079320       ___acrt_fp_format          1007a320 f   libucrtd:cvt.obj
 0001:000797e0       __fputwc_nolock            1007a7e0 f   libucrtd:fputwc.obj
 0001:000799d0       __fputwchar                1007a9d0 f   libucrtd:fputwc.obj
 0001:000799f0       __putwc_nolock             1007a9f0 f   libucrtd:fputwc.obj
 0001:00079a10       _fputwc                    1007aa10 f   libucrtd:fputwc.obj
 0001:00079b20       _putwc                     1007ab20 f   libucrtd:fputwc.obj
 0001:00079b40       _putwchar                  1007ab40 f   libucrtd:fputwc.obj
 0001:00079b60       ?lowio_handle@__crt_stdio_stream@@QBEHXZ 1007ab60 f i libucrtd:fileno.obj
 0001:00079b80       __fileno                   1007ab80 f   libucrtd:fileno.obj
 0001:00079c20       ??$?RPAU__crt_stdio_stream_data@@@__crt_internal_free_policy@@QBEXQBQAU__crt_stdio_stream_data@@@Z 1007ac20 f i libucrtd:_file.obj
 0001:00079c40       ??0?$__crt_unique_heap_ptr@PAU__crt_stdio_stream_data@@U__crt_internal_free_policy@@@@QAE@QAPAU__crt_stdio_stream_data@@@Z 1007ac40 f i libucrtd:_file.obj
 0001:00079c60       ??1?$__crt_unique_heap_ptr@PAU__crt_stdio_stream_data@@U__crt_internal_free_policy@@@@QAE@XZ 1007ac60 f i libucrtd:_file.obj
 0001:00079c80       ?detach@?$__crt_unique_heap_ptr@PAU__crt_stdio_stream_data@@U__crt_internal_free_policy@@@@QAEPAPAU__crt_stdio_stream_data@@XZ 1007ac80 f i libucrtd:_file.obj
 0001:00079cb0       ?release@?$__crt_unique_heap_ptr@PAU__crt_stdio_stream_data@@U__crt_internal_free_policy@@@@QAEXXZ 1007acb0 f i libucrtd:_file.obj
 0001:00079ce0       ___acrt_initialize_stdio   1007ace0 f   libucrtd:_file.obj
 0001:00079e50       ___acrt_iob_func           1007ae50 f   libucrtd:_file.obj
 0001:00079e60       ___acrt_uninitialize_stdio 1007ae60 f   libucrtd:_file.obj
 0001:00079ee0       __get_stream_buffer_pointers 1007aee0 f   libucrtd:_file.obj
 0001:00079fc0       __lock_file                1007afc0 f   libucrtd:_file.obj
 0001:00079ff0       __unlock_file              1007aff0 f   libucrtd:_file.obj
 0001:0007a020       __get_printf_count_output  1007b020 f   libucrtd:printf_count_output.obj
 0001:0007a050       __set_printf_count_output  1007b050 f   libucrtd:printf_count_output.obj
 0001:0007a0b0       ?has_any_buffer@__crt_stdio_stream@@QBE_NXZ 1007b0b0 f i libucrtd:_sftbuf.obj
 0001:0007a0d0       ?has_any_of@__crt_stdio_stream@@QBE_NJ@Z 1007b0d0 f i libucrtd:_sftbuf.obj
 0001:0007a110       ?has_temporary_buffer@__crt_stdio_stream@@QBE_NXZ 1007b110 f i libucrtd:_sftbuf.obj
 0001:0007a130       ?set_flags@__crt_stdio_stream@@QBE_NJ@Z 1007b130 f i libucrtd:_sftbuf.obj
 0001:0007a180       ?unset_flags@__crt_stdio_stream@@QBE_NJ@Z 1007b180 f i libucrtd:_sftbuf.obj
 0001:0007a1d0       ___acrt_should_use_temporary_buffer 1007b1d0 f   libucrtd:_sftbuf.obj
 0001:0007a220       ___acrt_stdio_begin_temporary_buffering_nolock 1007b220 f   libucrtd:_sftbuf.obj
 0001:0007a3d0       ___acrt_stdio_end_temporary_buffering_nolock 1007b3d0 f   libucrtd:_sftbuf.obj
 0001:0007a460       ??$?RU__crt_locale_data@@@__crt_internal_free_policy@@QBEXQBU__crt_locale_data@@@Z 1007b460 f i libucrtd:wsetlocale.obj
 0001:0007a480       ??$?RU__crt_locale_pointers@@@__crt_internal_free_policy@@QBEXQBU__crt_locale_pointers@@@Z 1007b480 f i libucrtd:wsetlocale.obj
 0001:0007a4a0       ??$?RU__crt_multibyte_data@@@__crt_internal_free_policy@@QBEXQBU__crt_multibyte_data@@@Z 1007b4a0 f i libucrtd:wsetlocale.obj
 0001:0007aa90       ??0?$__crt_unique_heap_ptr@U__crt_locale_data@@U__crt_internal_free_policy@@@@QAE@QAU__crt_locale_data@@@Z 1007ba90 f i libucrtd:wsetlocale.obj
 0001:0007aab0       ??0?$__crt_unique_heap_ptr@U__crt_locale_pointers@@U__crt_internal_free_policy@@@@QAE@QAU__crt_locale_pointers@@@Z 1007bab0 f i libucrtd:wsetlocale.obj
 0001:0007aad0       ??0?$__crt_unique_heap_ptr@U__crt_multibyte_data@@U__crt_internal_free_policy@@@@QAE@QAU__crt_multibyte_data@@@Z 1007bad0 f i libucrtd:wsetlocale.obj
 0001:0007aaf0       ??0_expandlocale_locale_name_cache@@QAE@QA_WIQAU__crt_qualified_locale_data@@@Z 1007baf0 f i libucrtd:wsetlocale.obj
 0001:0007ab60       ??1?$__crt_unique_heap_ptr@U__crt_locale_data@@U__crt_internal_free_policy@@@@QAE@XZ 1007bb60 f i libucrtd:wsetlocale.obj
 0001:0007ab80       ??1?$__crt_unique_heap_ptr@U__crt_locale_pointers@@U__crt_internal_free_policy@@@@QAE@XZ 1007bb80 f i libucrtd:wsetlocale.obj
 0001:0007aba0       ??1?$__crt_unique_heap_ptr@U__crt_multibyte_data@@U__crt_internal_free_policy@@@@QAE@XZ 1007bba0 f i libucrtd:wsetlocale.obj
 0001:0007abc0       ??1_expandlocale_locale_name_cache@@QAE@XZ 1007bbc0 f i libucrtd:wsetlocale.obj
 0001:0007ac20       ??B?$__crt_unique_heap_ptr@U__crt_locale_data@@U__crt_internal_free_policy@@@@QBE_NXZ 1007bc20 f i libucrtd:wsetlocale.obj
 0001:0007ac40       ??B?$__crt_unique_heap_ptr@U__crt_locale_pointers@@U__crt_internal_free_policy@@@@QBE_NXZ 1007bc40 f i libucrtd:wsetlocale.obj
 0001:0007ac60       ??B?$__crt_unique_heap_ptr@U__crt_multibyte_data@@U__crt_internal_free_policy@@@@QBE_NXZ 1007bc60 f i libucrtd:wsetlocale.obj
 0001:0007b040       ?commit_locale_name@_expandlocale_locale_name_cache@@QAEXQB_WI@Z 1007c040 f i libucrtd:wsetlocale.obj
 0001:0007b0a0       ?commit_locale_name_cache_already_updated@_expandlocale_locale_name_cache@@QAEXQB_WI@Z 1007c0a0 f i libucrtd:wsetlocale.obj
 0001:0007b100       ?detach@?$__crt_unique_heap_ptr@U__crt_locale_data@@U__crt_internal_free_policy@@@@QAEPAU__crt_locale_data@@XZ 1007c100 f i libucrtd:wsetlocale.obj
 0001:0007b130       ?detach@?$__crt_unique_heap_ptr@U__crt_locale_pointers@@U__crt_internal_free_policy@@@@QAEPAU__crt_locale_pointers@@XZ 1007c130 f i libucrtd:wsetlocale.obj
 0001:0007b160       ?detach@?$__crt_unique_heap_ptr@U__crt_multibyte_data@@U__crt_internal_free_policy@@@@QAEPAU__crt_multibyte_data@@XZ 1007c160 f i libucrtd:wsetlocale.obj
 0001:0007b190       ?get@?$__crt_unique_heap_ptr@U__crt_locale_data@@U__crt_internal_free_policy@@@@QBEPAU__crt_locale_data@@XZ 1007c190 f i libucrtd:wsetlocale.obj
 0001:0007b1b0       ?get@?$__crt_unique_heap_ptr@U__crt_locale_pointers@@U__crt_internal_free_policy@@@@QBEPAU__crt_locale_pointers@@XZ 1007c1b0 f i libucrtd:wsetlocale.obj
 0001:0007b1d0       ?get@?$__crt_unique_heap_ptr@U__crt_multibyte_data@@U__crt_internal_free_policy@@@@QBEPAU__crt_multibyte_data@@XZ 1007c1d0 f i libucrtd:wsetlocale.obj
 0001:0007b1f0       ?is_valid@?$__crt_unique_heap_ptr@U__crt_locale_data@@U__crt_internal_free_policy@@@@QBE_NXZ 1007c1f0 f i libucrtd:wsetlocale.obj
 0001:0007b220       ?is_valid@?$__crt_unique_heap_ptr@U__crt_locale_pointers@@U__crt_internal_free_policy@@@@QBE_NXZ 1007c220 f i libucrtd:wsetlocale.obj
 0001:0007b250       ?is_valid@?$__crt_unique_heap_ptr@U__crt_multibyte_data@@U__crt_internal_free_policy@@@@QBE_NXZ 1007c250 f i libucrtd:wsetlocale.obj
 0001:0007b280       ?release@?$__crt_unique_heap_ptr@U__crt_locale_data@@U__crt_internal_free_policy@@@@QAEXXZ 1007c280 f i libucrtd:wsetlocale.obj
 0001:0007b2b0       ?release@?$__crt_unique_heap_ptr@U__crt_locale_pointers@@U__crt_internal_free_policy@@@@QAEXXZ 1007c2b0 f i libucrtd:wsetlocale.obj
 0001:0007b2e0       ?release@?$__crt_unique_heap_ptr@U__crt_multibyte_data@@U__crt_internal_free_policy@@@@QAEXXZ 1007c2e0 f i libucrtd:wsetlocale.obj
 0001:0007b310       ___acrt_copy_locale_name   1007c310 f   libucrtd:wsetlocale.obj
 0001:0007b3b0       ___acrt_set_locale_changed 1007c3b0 f   libucrtd:wsetlocale.obj
 0001:0007b3d0       ___acrt_uninitialize_locale 1007c3d0 f   libucrtd:wsetlocale.obj
 0001:0007b3f0       ___ascii_tolower           1007c3f0 f i libucrtd:wsetlocale.obj
 0001:0007b410       ___ascii_towlower          1007c410 f i libucrtd:wsetlocale.obj
 0001:0007b430       ___lc_lctowcs              1007c430 f   libucrtd:wsetlocale.obj
 0001:0007b4e0       ___lc_wcstolc              1007c4e0 f   libucrtd:wsetlocale.obj
 0001:0007b710       __configthreadlocale       1007c710 f   libucrtd:wsetlocale.obj
 0001:0007b890       __create_locale            1007c890 f   libucrtd:wsetlocale.obj
 0001:0007bed0       __free_locale              1007ced0 f   libucrtd:wsetlocale.obj
 0001:0007c000       __get_current_locale       1007d000 f   libucrtd:wsetlocale.obj
 0001:0007c0d0       __wcreate_locale           1007d0d0 f   libucrtd:wsetlocale.obj
 0001:0007c310       __wcscats                  1007d310 f   libucrtd:wsetlocale.obj
 0001:0007c390       __wsetlocale               1007d390 f   libucrtd:wsetlocale.obj
 0001:0007da80       ___p___mb_cur_max          1007ea80 f   libucrtd:nlsdata.obj
 0001:0007dd80       ___acrt_initialize_lowio   1007ed80 f   libucrtd:ioinit.obj
 0001:0007de20       ___acrt_uninitialize_lowio 1007ee20 f   libucrtd:ioinit.obj
 0001:0007de80       __CrtGetReportHook         1007ee80 f   libucrtd:dbgrptt.obj
 0001:0007de90       __CrtSetReportFile         1007ee90 f   libucrtd:dbgrptt.obj
 0001:0007df90       __CrtSetReportHook         1007ef90 f   libucrtd:dbgrptt.obj
 0001:0007dfb0       __CrtSetReportMode         1007efb0 f   libucrtd:dbgrptt.obj
 0001:0007e0f0       __VCrtDbgReportA           1007f0f0 f   libucrtd:dbgrptt.obj
 0001:0007e970       __VCrtDbgReportW           1007f970 f   libucrtd:dbgrptt.obj
 0001:0007f320       __snprintf_s               10080320 f i libucrtd:dbgrptt.obj
 0001:0007f360       __vsnprintf_s              10080360 f i libucrtd:dbgrptt.obj
 0001:0007f390       __vsnprintf_s_l            10080390 f i libucrtd:dbgrptt.obj
 0001:0007f520       ??$__acrt_wcs_to_mbs_cp@U__crt_win32_buffer_no_resizing@@@@YAHQB_WAAV?$__crt_win32_buffer@DU__crt_win32_buffer_no_resizing@@@@I@Z 10080520 f i libucrtd:getmodulefilenamea.obj
 0001:0007f550       ??0?$__crt_win32_buffer@DU__crt_win32_buffer_no_resizing@@@@QAE@QADI@Z 10080550 f i libucrtd:getmodulefilenamea.obj
 0001:0007f5a0       ??1?$__crt_win32_buffer@DU__crt_win32_buffer_no_resizing@@@@QAE@XZ 100805a0 f i libucrtd:getmodulefilenamea.obj
 0001:0007f610       ?__acrt_get_utf8_acp_compatibility_codepage@@YAIXZ 10080610 f i libucrtd:getmodulefilenamea.obj
 0001:0007f6a0       ?_deallocate@?$__crt_win32_buffer@DU__crt_win32_buffer_no_resizing@@@@AAEXXZ 100806a0 f i libucrtd:getmodulefilenamea.obj
 0001:0007f6e0       ?allocate@?$__crt_win32_buffer@DU__crt_win32_buffer_no_resizing@@@@QAEHI@Z 100806e0 f i libucrtd:getmodulefilenamea.obj
 0001:0007f750       ?allocate@__crt_win32_buffer_no_resizing@@SAHQAPAXIABV__crt_win32_buffer_empty_debug_info@@@Z 10080750 f i libucrtd:getmodulefilenamea.obj
 0001:0007f770       ?capacity@?$__crt_win32_buffer@DU__crt_win32_buffer_no_resizing@@@@QBEIXZ 10080770 f i libucrtd:getmodulefilenamea.obj
 0001:0007f790       ?data@?$__crt_win32_buffer@DU__crt_win32_buffer_no_resizing@@@@QAEPADXZ 10080790 f i libucrtd:getmodulefilenamea.obj
 0001:0007f7b0       ?deallocate@__crt_win32_buffer_no_resizing@@SAXQAXABV__crt_win32_buffer_empty_debug_info@@@Z 100807b0 f i libucrtd:getmodulefilenamea.obj
 0001:0007f7c0       ?debug_info@?$__crt_win32_buffer@DU__crt_win32_buffer_no_resizing@@@@QBEABV__crt_win32_buffer_empty_debug_info@@XZ 100807c0 f i libucrtd:getmodulefilenamea.obj
 0001:0007f7d0       ?set_to_nullptr@?$__crt_win32_buffer@DU__crt_win32_buffer_no_resizing@@@@QAEXXZ 100807d0 f i libucrtd:getmodulefilenamea.obj
 0001:0007f810       ?size@?$__crt_win32_buffer@DU__crt_win32_buffer_no_resizing@@@@QAEXI@Z 10080810 f i libucrtd:getmodulefilenamea.obj
 0001:0007f830       ?size@?$__crt_win32_buffer@DU__crt_win32_buffer_no_resizing@@@@QBEIXZ 10080830 f i libucrtd:getmodulefilenamea.obj
 0001:0007f850       ___acrt_GetModuleFileNameA 10080850 f   libucrtd:getmodulefilenamea.obj
 0001:0007fb30       ??$message_box@$$TABQBDABQBDK@?$__crt_char_traits@D@@SAH$$QA$$TABQBD1$$QAK@Z 10080b30 f i libucrtd:crtmbox.obj
 0001:0007fb60       ??$message_box@$$TABQB_WABQB_WK@?$__crt_char_traits@_W@@SAH$$QA$$TABQB_W1$$QAK@Z 10080b60 f i libucrtd:crtmbox.obj
 0001:0007fb90       ??$message_box@PAUHWND__@@ABQBDABQBDABI@?$__crt_char_traits@D@@SAH$$QAPAUHWND__@@ABQBD1ABI@Z 10080b90 f i libucrtd:crtmbox.obj
 0001:0007fbc0       ??$message_box@PAUHWND__@@ABQB_WABQB_WABI@?$__crt_char_traits@_W@@SAH$$QAPAUHWND__@@ABQB_W1ABI@Z 10080bc0 f i libucrtd:crtmbox.obj
 0001:0007fbf0       ??$output_debug_string@ABQBD@?$__crt_char_traits@D@@SAXABQBD@Z 10080bf0 f i libucrtd:crtmbox.obj
 0001:0007fc10       ??$output_debug_string@ABQB_W@?$__crt_char_traits@_W@@SAXABQB_W@Z 10080c10 f i libucrtd:crtmbox.obj
 0001:0007fc30       ___acrt_show_narrow_message_box 10080c30 f   libucrtd:crtmbox.obj
 0001:0007fc50       ___acrt_show_wide_message_box 10080c50 f   libucrtd:crtmbox.obj
 0001:0007fc70       ___acrt_initialize_locks   10080c70 f   libucrtd:locks.obj
 0001:0007fcd0       ___acrt_lock               10080cd0 f   libucrtd:locks.obj
 0001:0007fcf0       ___acrt_uninitialize_locks 10080cf0 f   libucrtd:locks.obj
 0001:0007fd40       ___acrt_unlock             10080d40 f   libucrtd:locks.obj
 0001:0007fd60       __lock_locales             10080d60 f   libucrtd:locks.obj
 0001:0007fd80       __unlock_locales           10080d80 f   libucrtd:locks.obj
 0001:0007fda0       ??$?B$$A6AXH@Z@__crt_fast_encoded_nullptr_t@@QBEP6AXH@ZXZ 10080da0 f i libucrtd:signal.obj
 0001:0007fe90       ??$__crt_fast_decode_pointer@P6AXH@Z@@YAP6AXH@ZQ6AXH@Z@Z 10080e90 f i libucrtd:signal.obj
 0001:0007fec0       ??$__crt_fast_encode_pointer@P6AXH@Z@@YAP6AXH@ZQ6AXH@Z@Z 10080ec0 f i libucrtd:signal.obj
 0001:00080170       ?initialize@?$dual_state_global@P6AXH@Z@__crt_state_management@@QAEXQ6AXH@Z@Z 10081170 f i libucrtd:signal.obj
 0001:000802b0       ?value@?$dual_state_global@P6AXH@Z@__crt_state_management@@QAEAAP6AXH@ZXZ 100812b0 f i libucrtd:signal.obj
 0001:000802d0       ___acrt_get_sigabrt_handler 100812d0 f   libucrtd:signal.obj
 0001:000802f0       ___acrt_initialize_signal_handlers 100812f0 f   libucrtd:signal.obj
 0001:00080330       ___fpecode                 10081330 f   libucrtd:signal.obj
 0001:00080340       ___pxcptinfoptrs           10081340 f   libucrtd:signal.obj
 0001:00080350       _raise                     10081350 f   libucrtd:signal.obj
 0001:00080720       _signal                    10081720 f   libucrtd:signal.obj
 0001:000809a0       __msize                    100819a0 f   libucrtd:msize.obj
 0001:000809c0       __msize_base               100819c0 f   libucrtd:msize.obj
 0001:00080a60       __realloc_base             10081a60 f   libucrtd:realloc_base.obj
 0001:00080b20       ??$?B$$A6GHPA_WKJ@Z@__crt_fast_encoded_nullptr_t@@QBEP6GHPA_WKJ@ZXZ 10081b20 f i libucrtd:winapi_thunks.obj
 0001:00080c10       ??$__crt_fast_decode_pointer@P6GHPA_WKJ@Z@@YAP6GHPA_WKJ@ZQ6GH0KJ@Z@Z 10081c10 f i libucrtd:winapi_thunks.obj
 0001:00080c40       ??$__crt_fast_decode_pointer@PAX@@YAPAXQAX@Z 10081c40 f i libucrtd:winapi_thunks.obj
 0001:00080c70       ??$__crt_fast_encode_pointer@P6GHPA_WKJ@Z@@YAP6GHPA_WKJ@ZQ6GH0KJ@Z@Z 10081c70 f i libucrtd:winapi_thunks.obj
 0001:000815d0       _GetCurrentThreadEffectiveToken 100825d0 f i libucrtd:winapi_thunks.obj
 0001:000815e0       ___acrt_AppPolicyGetProcessTerminationMethodInternal@4 100825e0 f   libucrtd:winapi_thunks.obj
 0001:00081620       ___acrt_AppPolicyGetShowDeveloperDiagnosticInternal@4 10082620 f   libucrtd:winapi_thunks.obj
 0001:00081660       ___acrt_AppPolicyGetThreadInitializationTypeInternal@4 10082660 f   libucrtd:winapi_thunks.obj
 0001:000816a0       ___acrt_AppPolicyGetWindowingModelInternal@4 100826a0 f   libucrtd:winapi_thunks.obj
 0001:000816e0       ___acrt_AreFileApisANSI@0  100826e0 f   libucrtd:winapi_thunks.obj
 0001:00081720       ___acrt_CompareStringEx@36 10082720 f   libucrtd:winapi_thunks.obj
 0001:000817a0       ___acrt_EnumSystemLocalesEx@16 100827a0 f   libucrtd:winapi_thunks.obj
 0001:00081800       ___acrt_FlsAlloc@4         10082800 f   libucrtd:winapi_thunks.obj
 0001:00081840       ___acrt_FlsFree@4          10082840 f   libucrtd:winapi_thunks.obj
 0001:00081880       ___acrt_FlsGetValue@4      10082880 f   libucrtd:winapi_thunks.obj
 0001:000818c0       ___acrt_FlsSetValue@8      100828c0 f   libucrtd:winapi_thunks.obj
 0001:00081910       ___acrt_GetDateFormatEx@28 10082910 f   libucrtd:winapi_thunks.obj
 0001:00081990       ___acrt_GetEnabledXStateFeatures@0 10082990 f   libucrtd:winapi_thunks.obj
 0001:000819d0       ___acrt_GetLocaleInfoEx@16 100829d0 f   libucrtd:winapi_thunks.obj
 0001:00081a30       ___acrt_GetSystemTimePreciseAsFileTime@4 10082a30 f   libucrtd:winapi_thunks.obj
 0001:00081a70       ___acrt_GetTimeFormatEx@24 10082a70 f   libucrtd:winapi_thunks.obj
 0001:00081ae0       ___acrt_GetUserDefaultLocaleName@8 10082ae0 f   libucrtd:winapi_thunks.obj
 0001:00081b30       ___acrt_GetXStateFeaturesMask@8 10082b30 f   libucrtd:winapi_thunks.obj
 0001:00081b70       ___acrt_InitializeCriticalSectionEx@12 10082b70 f   libucrtd:winapi_thunks.obj
 0001:00081bc0       ___acrt_IsValidLocaleName@4 10082bc0 f   libucrtd:winapi_thunks.obj
 0001:00081c10       ___acrt_LCIDToLocaleName@16 10082c10 f   libucrtd:winapi_thunks.obj
 0001:00081c70       ___acrt_LCMapStringEx@36   10082c70 f   libucrtd:winapi_thunks.obj
 0001:00081cf0       ___acrt_LocaleNameToLCID@8 10082cf0 f   libucrtd:winapi_thunks.obj
 0001:00081d40       ___acrt_LocateXStateFeature@12 10082d40 f   libucrtd:winapi_thunks.obj
 0001:00081d90       ___acrt_MessageBoxA@16     10082d90 f   libucrtd:winapi_thunks.obj
 0001:00081de0       ___acrt_MessageBoxW@16     10082de0 f   libucrtd:winapi_thunks.obj
 0001:00081e30       ___acrt_RoInitialize@4     10082e30 f   libucrtd:winapi_thunks.obj
 0001:00081e70       ___acrt_RoUninitialize@0   10082e70 f   libucrtd:winapi_thunks.obj
 0001:00081ea0       ___acrt_RtlGenRandom@8     10082ea0 f   libucrtd:winapi_thunks.obj
 0001:00081ee0       ___acrt_SetThreadStackGuarantee@4 10082ee0 f   libucrtd:winapi_thunks.obj
 0001:00081f20       ___acrt_can_show_message_box 10082f20 f   libucrtd:winapi_thunks.obj
 0001:00081f60       ___acrt_can_use_vista_locale_apis 10082f60 f   libucrtd:winapi_thunks.obj
 0001:00081f90       ___acrt_can_use_xstate_apis 10082f90 f   libucrtd:winapi_thunks.obj
 0001:00081fc0       ___acrt_eagerly_load_locale_apis 10082fc0 f   libucrtd:winapi_thunks.obj
 0001:00082000       ___acrt_get_parent_window  10083000 f   libucrtd:winapi_thunks.obj
 0001:00082070       ___acrt_initialize_winapi_thunks 10083070 f   libucrtd:winapi_thunks.obj
 0001:000820e0       ___acrt_is_interactive     100830e0 f   libucrtd:winapi_thunks.obj
 0001:00082190       ___acrt_uninitialize_winapi_thunks 10083190 f   libucrtd:winapi_thunks.obj
 0001:00082200       __chvalidator              10083200 f   libucrtd:isctype.obj
 0001:00082250       __chvalidator_l            10083250 f   libucrtd:isctype.obj
 0001:000822d0       __isctype                  100832d0 f   libucrtd:isctype.obj
 0001:00082310       __isctype_l                10083310 f   libucrtd:isctype.obj
 0001:00082490       __isleadbyte_fast_internal 10083490 f i libucrtd:isctype.obj
 0001:000824b0       ??$?RU__crt_stdio_stream_data@@@__crt_internal_free_policy@@QBEXQBU__crt_stdio_stream_data@@@Z 100834b0 f i libucrtd:stream.obj
 0001:000824d0       ??0?$__crt_unique_heap_ptr@U__crt_stdio_stream_data@@U__crt_internal_free_policy@@@@QAE@QAU__crt_stdio_stream_data@@@Z 100834d0 f i libucrtd:stream.obj
 0001:000824f0       ??0__crt_stdio_stream@@QAE@QAU__crt_stdio_stream_data@@@Z 100834f0 f i libucrtd:stream.obj
 0001:00082510       ??0__crt_stdio_stream@@QAE@XZ 10083510 f i libucrtd:stream.obj
 0001:00082530       ??1?$__crt_unique_heap_ptr@U__crt_stdio_stream_data@@U__crt_internal_free_policy@@@@QAE@XZ 10083530 f i libucrtd:stream.obj
 0001:00082550       ?__acrt_stdio_allocate_stream@@YA?AV__crt_stdio_stream@@XZ 10083550 f   libucrtd:stream.obj
 0001:00082640       ?__acrt_stdio_free_stream@@YAXV__crt_stdio_stream@@@Z 10083640 f   libucrtd:stream.obj
 0001:000826c0       ?deallocate@__crt_stdio_stream@@QAEXXZ 100836c0 f i libucrtd:stream.obj
 0001:000826e0       ?detach@?$__crt_unique_heap_ptr@U__crt_stdio_stream_data@@U__crt_internal_free_policy@@@@QAEPAU__crt_stdio_stream_data@@XZ 100836e0 f i libucrtd:stream.obj
 0001:00082850       ?lock@__crt_stdio_stream@@QBEXXZ 10083850 f i libucrtd:stream.obj
 0001:00082870       ?release@?$__crt_unique_heap_ptr@U__crt_stdio_stream_data@@U__crt_internal_free_policy@@@@QAEXXZ 10083870 f i libucrtd:stream.obj
 0001:000828a0       ?try_allocate@__crt_stdio_stream@@QAE_NXZ 100838a0 f i libucrtd:stream.obj
 0001:000828f0       ??$__acrt_stdio_parse_mode@D@@YA?AU__acrt_stdio_stream_mode@@QBD@Z 100838f0 f i libucrtd:openfile.obj
 0001:00083160       ??$__acrt_stdio_parse_mode@_W@@YA?AU__acrt_stdio_stream_mode@@QB_W@Z 10084160 f i libucrtd:openfile.obj
 0001:00083cf0       ??$tcsncmp@AAPBDAAY02$$CBDI@?$__crt_char_traits@D@@SAHAAPBDAAY02$$CBD$$QAI@Z 10084cf0 f i libucrtd:openfile.obj
 0001:00083d10       ??$tcsncmp@AAPB_WAAY02$$CB_WI@?$__crt_char_traits@_W@@SAHAAPB_WAAY02$$CB_W$$QAI@Z 10084d10 f i libucrtd:openfile.obj
 0001:00083d30       ??$tcsnicmp@AAPBDAAY04$$CBDI@?$__crt_char_traits@D@@SAHAAPBDAAY04$$CBD$$QAI@Z 10084d30 f i libucrtd:openfile.obj
 0001:00083d50       ??$tcsnicmp@AAPBDAAY06$$CBDI@?$__crt_char_traits@D@@SAHAAPBDAAY06$$CBD$$QAI@Z 10084d50 f i libucrtd:openfile.obj
 0001:00083d70       ??$tcsnicmp@AAPBDAAY07$$CBDI@?$__crt_char_traits@D@@SAHAAPBDAAY07$$CBD$$QAI@Z 10084d70 f i libucrtd:openfile.obj
 0001:00083d90       ??$tcsnicmp@AAPB_WAAY04$$CB_WI@?$__crt_char_traits@_W@@SAHAAPB_WAAY04$$CB_W$$QAI@Z 10084d90 f i libucrtd:openfile.obj
 0001:00083db0       ??$tcsnicmp@AAPB_WAAY06$$CB_WI@?$__crt_char_traits@_W@@SAHAAPB_WAAY06$$CB_W$$QAI@Z 10084db0 f i libucrtd:openfile.obj
 0001:00083dd0       ??$tcsnicmp@AAPB_WAAY07$$CB_WI@?$__crt_char_traits@_W@@SAHAAPB_WAAY07$$CB_W$$QAI@Z 10084dd0 f i libucrtd:openfile.obj
 0001:00083df0       ??$tsopen_s@PAHABQBDABHABHH@?$__crt_char_traits@D@@SAH$$QAPAHABQBDABH2$$QAH@Z 10084df0 f i libucrtd:openfile.obj
 0001:00083e20       ??$tsopen_s@PAHABQB_WABHABHH@?$__crt_char_traits@_W@@SAH$$QAPAHABQB_WABH2$$QAH@Z 10084e20 f i libucrtd:openfile.obj
 0001:00083e50       ?__acrt_stdio_parse_mode_D@@YA_NAAU__acrt_stdio_stream_mode@@@Z 10084e50 f i libucrtd:openfile.obj
 0001:00083e80       ?__acrt_stdio_parse_mode_N@@YA_NAAU__acrt_stdio_stream_mode@@@Z 10084e80 f i libucrtd:openfile.obj
 0001:00083ea0       ?__acrt_stdio_parse_mode_R@@YA_NAAU__acrt_stdio_stream_mode@@AA_N@Z 10084ea0 f i libucrtd:openfile.obj
 0001:00083ed0       ?__acrt_stdio_parse_mode_S@@YA_NAAU__acrt_stdio_stream_mode@@AA_N@Z 10084ed0 f i libucrtd:openfile.obj
 0001:00083f00       ?__acrt_stdio_parse_mode_T@@YA_NAAU__acrt_stdio_stream_mode@@@Z 10084f00 f i libucrtd:openfile.obj
 0001:00083f30       ?__acrt_stdio_parse_mode_b@@YA_NAAU__acrt_stdio_stream_mode@@@Z 10084f30 f i libucrtd:openfile.obj
 0001:00083f60       ?__acrt_stdio_parse_mode_c@@YA_NAAU__acrt_stdio_stream_mode@@AA_N@Z 10084f60 f i libucrtd:openfile.obj
 0001:00083f90       ?__acrt_stdio_parse_mode_n@@YA_NAAU__acrt_stdio_stream_mode@@AA_N@Z 10084f90 f i libucrtd:openfile.obj
 0001:00083fc0       ?__acrt_stdio_parse_mode_plus@@YA_NAAU__acrt_stdio_stream_mode@@AA_N@Z 10084fc0 f i libucrtd:openfile.obj
 0001:00084030       ?__acrt_stdio_parse_mode_t@@YA_NAAU__acrt_stdio_stream_mode@@@Z 10085030 f i libucrtd:openfile.obj
 0001:00084060       ?__acrt_stdio_parse_mode_x@@YA_NAAU__acrt_stdio_stream_mode@@@Z 10085060 f i libucrtd:openfile.obj
 0001:00084090       __openfile                 10085090 f   libucrtd:openfile.obj
 0001:000840c0       __wopenfile                100850c0 f   libucrtd:openfile.obj
 0001:000843a0       __close                    100853a0 f   libucrtd:close.obj
 0001:00084520       __close_nolock             10085520 f   libucrtd:close.obj
 0001:00084580       ?has_crt_buffer@__crt_stdio_stream@@QBE_NXZ 10085580 f i libucrtd:_freebuf.obj
 0001:000845a0       ___acrt_stdio_free_buffer_nolock 100855a0 f   libucrtd:_freebuf.obj
 0001:00084c00       ?__acrt_stdio_reset_buffer@@YAXV__crt_stdio_stream@@@Z 10085c00 f i libucrtd:fflush.obj
 0001:00084d00       ?has_all_of@__crt_stdio_stream@@QBE_NJ@Z 10085d00 f i libucrtd:fflush.obj
 0001:00084dd0       ___acrt_stdio_flush_nolock 10085dd0 f   libucrtd:fflush.obj
 0001:00084ea0       __fflush_nolock            10085ea0 f   libucrtd:fflush.obj
 0001:00084f20       __flushall                 10085f20 f   libucrtd:fflush.obj
 0001:00084f40       _fflush                    10085f40 f   libucrtd:fflush.obj
 0001:00085690       ?has_big_buffer@__crt_stdio_stream@@QBE_NXZ 10086690 f i libucrtd:_flsbuf.obj
 0001:00085790       ___acrt_stdio_flush_and_write_narrow_nolock 10086790 f   libucrtd:_flsbuf.obj
 0001:000857c0       ___acrt_stdio_flush_and_write_wide_nolock 100867c0 f   libucrtd:_flsbuf.obj
 0001:00085af0       ___acrt_get_begin_thread_init_policy 10086af0 f   libucrtd:win_policies.obj
 0001:00085b10       ___acrt_get_developer_information_policy 10086b10 f   libucrtd:win_policies.obj
 0001:00085b30       ___acrt_get_process_end_policy 10086b30 f   libucrtd:win_policies.obj
 0001:00085b50       ___acrt_get_windowing_model_policy 10086b50 f   libucrtd:win_policies.obj
 0001:00085e20       ??$__acrt_mbs_to_wcs_cp@U__crt_win32_buffer_internal_dynamic_resizing@@@@YAHQBDAAV?$__crt_win32_buffer@_WU__crt_win32_buffer_internal_dynamic_resizing@@@@I@Z 10086e20 f i libucrtd:argv_wildcards.obj
 0001:00085e50       ??$__acrt_wcs_to_mbs_cp@U__crt_win32_buffer_internal_dynamic_resizing@@@@YAHQB_WAAV?$__crt_win32_buffer@DU__crt_win32_buffer_internal_dynamic_resizing@@@@I@Z 10086e50 f i libucrtd:argv_wildcards.obj
 0001:00086da0       ??$tcsncpy_s@AAPADIAAPADABI@?$__crt_char_traits@D@@SAHAAPAD$$QAI0ABI@Z 10087da0 f i libucrtd:argv_wildcards.obj
 0001:00086dd0       ??$tcsncpy_s@AAPA_WIAAPA_WABI@?$__crt_char_traits@_W@@SAHAAPA_W$$QAI0ABI@Z 10087dd0 f i libucrtd:argv_wildcards.obj
 0001:00086e00       ??$tcsncpy_s@PADABIABQBDABI@?$__crt_char_traits@D@@SAH$$QAPADABIABQBD1@Z 10087e00 f i libucrtd:argv_wildcards.obj
 0001:00086e30       ??$tcsncpy_s@PADIABQBDABI@?$__crt_char_traits@D@@SAH$$QAPAD$$QAIABQBDABI@Z 10087e30 f i libucrtd:argv_wildcards.obj
 0001:00086e60       ??$tcsncpy_s@PA_WABIABQB_WABI@?$__crt_char_traits@_W@@SAH$$QAPA_WABIABQB_W1@Z 10087e60 f i libucrtd:argv_wildcards.obj
 0001:00086e90       ??$tcsncpy_s@PA_WIABQB_WABI@?$__crt_char_traits@_W@@SAH$$QAPA_W$$QAIABQB_WABI@Z 10087e90 f i libucrtd:argv_wildcards.obj
 0001:00086ec0       ??$tcspbrk@AAPADAAY02$$CBD@?$__crt_char_traits@D@@SAPADAAPADAAY02$$CBD@Z 10087ec0 f i libucrtd:argv_wildcards.obj
 0001:00086ee0       ??$tcspbrk@AAPA_WAAY02$$CB_W@?$__crt_char_traits@_W@@SAPA_WAAPA_WAAY02$$CB_W@Z 10087ee0 f i libucrtd:argv_wildcards.obj
 0001:00086f00       ??0?$__crt_unique_handle_t@U__crt_findfile_traits@@@@QAE@QAX@Z 10087f00 f i libucrtd:argv_wildcards.obj
 0001:00086f20       ??0?$__crt_win32_buffer@DU__crt_win32_buffer_internal_dynamic_resizing@@@@QAE@XZ 10087f20 f i libucrtd:argv_wildcards.obj
 0001:00086f70       ??0?$__crt_win32_buffer@_WU__crt_win32_buffer_internal_dynamic_resizing@@@@QAE@XZ 10087f70 f i libucrtd:argv_wildcards.obj
 0001:00087020       ??1?$__crt_unique_handle_t@U__crt_findfile_traits@@@@QAE@XZ 10088020 f i libucrtd:argv_wildcards.obj
 0001:00087040       ??1?$__crt_win32_buffer@DU__crt_win32_buffer_internal_dynamic_resizing@@@@QAE@XZ 10088040 f i libucrtd:argv_wildcards.obj
 0001:00087080       ??1?$__crt_win32_buffer@_WU__crt_win32_buffer_internal_dynamic_resizing@@@@QAE@XZ 10088080 f i libucrtd:argv_wildcards.obj
 0001:000872e0       ?_deallocate@?$__crt_win32_buffer@DU__crt_win32_buffer_internal_dynamic_resizing@@@@AAEXXZ 100882e0 f i libucrtd:argv_wildcards.obj
 0001:00087320       ?_deallocate@?$__crt_win32_buffer@_WU__crt_win32_buffer_internal_dynamic_resizing@@@@AAEXXZ 10088320 f i libucrtd:argv_wildcards.obj
 0001:00087360       ?allocate@?$__crt_win32_buffer@DU__crt_win32_buffer_internal_dynamic_resizing@@@@QAEHI@Z 10088360 f i libucrtd:argv_wildcards.obj
 0001:000873d0       ?allocate@?$__crt_win32_buffer@_WU__crt_win32_buffer_internal_dynamic_resizing@@@@QAEHI@Z 100883d0 f i libucrtd:argv_wildcards.obj
 0001:00087440       ?allocate@__crt_win32_buffer_internal_dynamic_resizing@@SAHQAPAXIABV__crt_win32_buffer_empty_debug_info@@@Z 10088440 f i libucrtd:argv_wildcards.obj
 0001:00087580       ?capacity@?$__crt_win32_buffer@DU__crt_win32_buffer_internal_dynamic_resizing@@@@QBEIXZ 10088580 f i libucrtd:argv_wildcards.obj
 0001:000875a0       ?capacity@?$__crt_win32_buffer@_WU__crt_win32_buffer_internal_dynamic_resizing@@@@QBEIXZ 100885a0 f i libucrtd:argv_wildcards.obj
 0001:000875c0       ?close@?$__crt_unique_handle_t@U__crt_findfile_traits@@@@QAEXXZ 100885c0 f i libucrtd:argv_wildcards.obj
 0001:00087600       ?close@__crt_findfile_traits@@SA_NPAX@Z 10088600 f i libucrtd:argv_wildcards.obj
 0001:00087630       ?data@?$__crt_win32_buffer@DU__crt_win32_buffer_internal_dynamic_resizing@@@@QAEPADXZ 10088630 f i libucrtd:argv_wildcards.obj
 0001:00087650       ?data@?$__crt_win32_buffer@_WU__crt_win32_buffer_internal_dynamic_resizing@@@@QAEPA_WXZ 10088650 f i libucrtd:argv_wildcards.obj
 0001:00087670       ?deallocate@__crt_win32_buffer_internal_dynamic_resizing@@SAXQAXABV__crt_win32_buffer_empty_debug_info@@@Z 10088670 f i libucrtd:argv_wildcards.obj
 0001:00087690       ?debug_info@?$__crt_win32_buffer@DU__crt_win32_buffer_internal_dynamic_resizing@@@@QBEABV__crt_win32_buffer_empty_debug_info@@XZ 10088690 f i libucrtd:argv_wildcards.obj
 0001:000876a0       ?debug_info@?$__crt_win32_buffer@_WU__crt_win32_buffer_internal_dynamic_resizing@@@@QBEABV__crt_win32_buffer_empty_debug_info@@XZ 100886a0 f i libucrtd:argv_wildcards.obj
 0001:000879b0       ?get@?$__crt_unique_handle_t@U__crt_findfile_traits@@@@QBEPAXXZ 100889b0 f i libucrtd:argv_wildcards.obj
 0001:00087a20       ?get_invalid_value@__crt_findfile_traits@@SAPAXXZ 10088a20 f i libucrtd:argv_wildcards.obj
 0001:00087ab0       ?set_to_nullptr@?$__crt_win32_buffer@DU__crt_win32_buffer_internal_dynamic_resizing@@@@QAEXXZ 10088ab0 f i libucrtd:argv_wildcards.obj
 0001:00087af0       ?set_to_nullptr@?$__crt_win32_buffer@_WU__crt_win32_buffer_internal_dynamic_resizing@@@@QAEXXZ 10088af0 f i libucrtd:argv_wildcards.obj
 0001:00087b30       ?size@?$__crt_win32_buffer@DU__crt_win32_buffer_internal_dynamic_resizing@@@@QAEXI@Z 10088b30 f i libucrtd:argv_wildcards.obj
 0001:00087b50       ?size@?$__crt_win32_buffer@_WU__crt_win32_buffer_internal_dynamic_resizing@@@@QAEXI@Z 10088b50 f i libucrtd:argv_wildcards.obj
 0001:00087bb0       ?strpbrk@@YAPADQADQBD@Z    10088bb0 f i libucrtd:argv_wildcards.obj
 0001:00087bd0       ?wcspbrk@@YAPA_WPA_WPB_W@Z 10088bd0 f i libucrtd:argv_wildcards.obj
 0001:00087bf0       ___acrt_expand_narrow_argv_wildcards 10088bf0 f   libucrtd:argv_wildcards.obj
 0001:00087c10       ___acrt_expand_wide_argv_wildcards 10088c10 f   libucrtd:argv_wildcards.obj
 0001:00087cf0       ??$initialize_from_array@$$BY10BAA@E@?$dual_state_global@PAE@__crt_state_management@@QAAXAAY10BAA@E@Z 10088cf0 f i libucrtd:mbctype.obj
 0001:00087d40       ??$initialize_from_array@$$BY10BAB@E@?$dual_state_global@PAE@__crt_state_management@@QAAXAAY10BAB@E@Z 10088d40 f i libucrtd:mbctype.obj
 0001:00087fb0       ?dangerous_get_state_array@?$dual_state_global@PAE@__crt_state_management@@QAEPAPAEXZ 10088fb0 f i libucrtd:mbctype.obj
 0001:00087fc0       ?dangerous_get_state_array@?$dual_state_global@PAU__crt_multibyte_data@@@__crt_state_management@@QAEPAPAU__crt_multibyte_data@@XZ 10088fc0 f i libucrtd:mbctype.obj
 0001:00088090       ?initialize@?$dual_state_global@PAU__crt_multibyte_data@@@__crt_state_management@@QAEXQAU__crt_multibyte_data@@@Z 10089090 f i libucrtd:mbctype.obj
 0001:000887e0       ?value@?$dual_state_global@PAE@__crt_state_management@@QAEAAPAEXZ 100897e0 f i libucrtd:mbctype.obj
 0001:00088800       ___acrt_initialize_multibyte 10089800 f   libucrtd:mbctype.obj
 0001:000888b0       ___acrt_update_thread_multibyte_data 100898b0 f   libucrtd:mbctype.obj
 0001:000888d0       ___p__mbcasemap            100898d0 f   libucrtd:mbctype.obj
 0001:000888f0       ___p__mbctype              100898f0 f   libucrtd:mbctype.obj
 0001:00088910       __getmbcp                  10089910 f   libucrtd:mbctype.obj
 0001:00088980       __setmbcp                  10089980 f   libucrtd:mbctype.obj
 0001:000889b0       __setmbcp_nolock           100899b0 f   libucrtd:mbctype.obj
 0001:00088f21       __ismbbalnum               10089f21 f   libucrtd:ismbbyte.obj
 0001:00088f3c       __ismbbalnum_l             10089f3c f   libucrtd:ismbbyte.obj
 0001:00088f58       __ismbbalpha               10089f58 f   libucrtd:ismbbyte.obj
 0001:00088f73       __ismbbalpha_l             10089f73 f   libucrtd:ismbbyte.obj
 0001:00088f8f       __ismbbblank               10089f8f f   libucrtd:ismbbyte.obj
 0001:00088fb2       __ismbbblank_l             10089fb2 f   libucrtd:ismbbyte.obj
 0001:00088fd6       __ismbbgraph               10089fd6 f   libucrtd:ismbbyte.obj
 0001:00088ff1       __ismbbgraph_l             10089ff1 f   libucrtd:ismbbyte.obj
 0001:0008900d       __ismbbkalnum              1008a00d f   libucrtd:ismbbyte.obj
 0001:00089025       __ismbbkalnum_l            1008a025 f   libucrtd:ismbbyte.obj
 0001:0008903e       __ismbbkana                1008a03e f   libucrtd:ismbbyte.obj
 0001:00089051       __ismbbkana_l              1008a051 f   libucrtd:ismbbyte.obj
 0001:000890a0       __ismbbkprint              1008a0a0 f   libucrtd:ismbbyte.obj
 0001:000890b8       __ismbbkprint_l            1008a0b8 f   libucrtd:ismbbyte.obj
 0001:000890d1       __ismbbkpunct              1008a0d1 f   libucrtd:ismbbyte.obj
 0001:000890e9       __ismbbkpunct_l            1008a0e9 f   libucrtd:ismbbyte.obj
 0001:00089102       __ismbblead                1008a102 f   libucrtd:ismbbyte.obj
 0001:0008911a       __ismbblead_l              1008a11a f   libucrtd:ismbbyte.obj
 0001:00089133       __ismbbprint               1008a133 f   libucrtd:ismbbyte.obj
 0001:0008914e       __ismbbprint_l             1008a14e f   libucrtd:ismbbyte.obj
 0001:0008916a       __ismbbpunct               1008a16a f   libucrtd:ismbbyte.obj
 0001:00089182       __ismbbpunct_l             1008a182 f   libucrtd:ismbbyte.obj
 0001:0008919b       __ismbbtrail               1008a19b f   libucrtd:ismbbyte.obj
 0001:000891b3       __ismbbtrail_l             1008a1b3 f   libucrtd:ismbbyte.obj
 0001:000891d0       ___acrt_initialize_command_line 1008a1d0 f   libucrtd:argv_data.obj
 0001:000891f0       ___acrt_uninitialize_command_line 1008a1f0 f   libucrtd:argv_data.obj
 0001:00089200       ___p___argc                1008a200 f   libucrtd:argv_data.obj
 0001:00089210       ___p___argv                1008a210 f   libucrtd:argv_data.obj
 0001:00089220       ___p___wargv               1008a220 f   libucrtd:argv_data.obj
 0001:00089230       ___p__acmdln               1008a230 f   libucrtd:argv_data.obj
 0001:00089240       ___p__pgmptr               1008a240 f   libucrtd:argv_data.obj
 0001:00089250       ___p__wcmdln               1008a250 f   libucrtd:argv_data.obj
 0001:00089260       ___p__wpgmptr              1008a260 f   libucrtd:argv_data.obj
 0001:00089270       __get_pgmptr               1008a270 f   libucrtd:argv_data.obj
 0001:00089380       __get_wpgmptr              1008a380 f   libucrtd:argv_data.obj
 0001:00089540       ___acrt_MultiByteToWideChar 1008a540 f   libucrtd:multibytetowidechar.obj
 0001:00089640       ___acrt_WideCharToMultiByte 1008a640 f   libucrtd:widechartomultibyte.obj
 0001:00089799       ___dcrt_get_narrow_environment_from_os 1008a799 f   libucrtd:get_environment_from_os.obj
 0001:0008982b       ___dcrt_get_wide_environment_from_os 1008a82b f   libucrtd:get_environment_from_os.obj
 0001:0008a1c0       ??$get_or_create_environment_nolock@$$V@?$__crt_char_traits@D@@SAPAPADXZ 1008b1c0 f i libucrtd:setenv.obj
 0001:0008a1c5       ??$get_or_create_environment_nolock@$$V@?$__crt_char_traits@_W@@SAPAPA_WXZ 1008b1c5 f i libucrtd:setenv.obj
 0001:0008a1ca       ??$set_environment_variable@ABQADQAD@?$__crt_char_traits@D@@SAHABQAD$$QBQAD@Z 1008b1ca f i libucrtd:setenv.obj
 0001:0008a1e2       ??$set_environment_variable@ABQA_WQA_W@?$__crt_char_traits@_W@@SAHABQA_W$$QBQA_W@Z 1008b1e2 f i libucrtd:setenv.obj
 0001:0008a1f9       ??$tcschr@ABQADD@?$__crt_char_traits@D@@SAPADABQAD$$QAD@Z 1008b1f9 f i libucrtd:setenv.obj
 0001:0008a213       ??$tcschr@ABQA_WD@?$__crt_char_traits@_W@@SAPA_WABQA_W$$QAD@Z 1008b213 f i libucrtd:setenv.obj
 0001:0008a231       ??$tcscpy_s@AAPADABIAAPAD@?$__crt_char_traits@D@@SAHAAPADABI0@Z 1008b231 f i libucrtd:setenv.obj
 0001:0008a24f       ??$tcscpy_s@AAPA_WABIAAPA_W@?$__crt_char_traits@_W@@SAHAAPA_WABI0@Z 1008b24f f i libucrtd:setenv.obj
 0001:0008a26d       ??$tcscpy_s@ABQADABIABQAD@?$__crt_char_traits@D@@SAHABQADABI0@Z 1008b26d f i libucrtd:setenv.obj
 0001:0008a28b       ??$tcscpy_s@ABQA_WABIABQA_W@?$__crt_char_traits@_W@@SAHABQA_WABI0@Z 1008b28b f i libucrtd:setenv.obj
 0001:0008a2a9       ??$tcslen@ABQAD@?$__crt_char_traits@D@@SAIABQAD@Z 1008b2a9 f i libucrtd:setenv.obj
 0001:0008a2c1       ??$tcslen@ABQA_W@?$__crt_char_traits@_W@@SAIABQA_W@Z 1008b2c1 f i libucrtd:setenv.obj
 0001:0008a2df       ??$tcsnicoll@ABQBDAAPADABI@?$__crt_char_traits@D@@SAHABQBDAAPADABI@Z 1008b2df f i libucrtd:setenv.obj
 0001:0008a2fd       ??$tcsnicoll@ABQB_WAAPA_WABI@?$__crt_char_traits@_W@@SAHABQB_WAAPA_WABI@Z 1008b2fd f i libucrtd:setenv.obj
 0001:0008a31b       ??$tcsnlen@PADH@?$__crt_char_traits@D@@SAI$$QAPAD$$QAH@Z 1008b31b f i libucrtd:setenv.obj
