 OPOSSoundPlayer

 Timestamp is 600f7bc0 (Tue Jan 26 11:17:36 2021)

 Preferred load address is 10000000

 Start         Length     Name                   Class
 0001:00000000 00000d90H .text$di                CODE
 0001:00000d90 000a9620H .text$mn                CODE
 0001:000aa3b0 000001c0H .text$x                 CODE
 0001:000aa570 00000120H .text$yd                CODE
 0002:00000000 00000358H .idata$5                DATA
 0002:00000358 00000008H .00cfg                  DATA
 0002:00000360 00000004H .CRT$XCA                DATA
 0002:00000364 00000004H .CRT$XCL                DATA
 0002:00000368 0000006cH .CRT$XCU                DATA
 0002:000003d4 00000004H .CRT$XCZ                DATA
 0002:000003d8 00000004H .CRT$XIA                DATA
 0002:000003dc 00000014H .CRT$XIC                DATA
 0002:000003f0 00000004H .CRT$XIZ                DATA
 0002:000003f4 00000004H .CRT$XLA                DATA
 0002:000003f8 00000004H .CRT$XLZ                DATA
 0002:000003fc 00000004H .CRT$XPA                DATA
 0002:00000400 00000008H .CRT$XPX                DATA
 0002:00000408 00000004H .CRT$XPXA               DATA
 0002:0000040c 00000004H .CRT$XPZ                DATA
 0002:00000410 00000004H .CRT$XTA                DATA
 0002:00000414 0000000cH .CRT$XTZ                DATA
 0002:00000418 00000000H .gfids$y                DATA
 0002:00000420 0002fde0H .rdata                  DATA
 0002:00030200 00000004H .rdata$CastGuardVftablesA DATA
 0002:00030204 00000004H .rdata$CastGuardVftablesC DATA
 0002:00030208 00000018H .rdata$T                DATA
 0002:00030220 0000033cH .rdata$r                DATA
 0002:0003055c 00000044H .rdata$sxdata           DATA
 0002:000305a0 0000044cH .rdata$zzzdbg           DATA
 0002:000309ec 00000004H .rtc$IAA                DATA
 0002:000309f0 00000018H .rtc$IMZ                DATA
 0002:00030a08 00000004H .rtc$IZZ                DATA
 0002:00030a0c 00000004H .rtc$TAA                DATA
 0002:00030a10 00000018H .rtc$TMZ                DATA
 0002:00030a28 00000004H .rtc$TZZ                DATA
 0002:00030a2c 00000004H .tls                    DATA
 0002:00030a30 00000004H .tls$                   DATA
 0002:00030a34 00000004H .tls$ZZZ                DATA
 0002:00030a38 00000e4cH .xdata$x                DATA
 0002:00031884 00000004H ATL$__a                 DATA
 0002:00031888 00000008H ATL$__z                 DATA
 0002:00031890 000000acH .edata                  DATA
 0002:0003193c 00000078H .idata$2                DATA
 0002:000319b4 00000014H .idata$3                DATA
 0002:000319c8 00000358H .idata$4                DATA
 0002:00031d20 00000d56H .idata$6                DATA
 0003:00000000 00000b80H .data                   DATA
 0003:00000b80 00000138H .data$r                 DATA
 0003:00000cb8 00003588H .bss                    DATA
 0004:00000000 00000220H .rsrc$01                DATA
 0004:00000220 00003b00H .rsrc$02                DATA

  Address         Publics by Value              Rva+Base       Lib:Object

 0000:00000000       ___hybrid_code_map_count   00000000     <absolute>
 0000:00000000       ___guard_iat_table         00000000     <absolute>
 0000:00000000       ___guard_iat_count         00000000     <absolute>
 0000:00000000       ___guard_longjmp_table     00000000     <absolute>
 0000:00000000       ___arm64x_redirection_metadata 00000000     <absolute>
 0000:00000000       ___guard_eh_cont_count     00000000     <absolute>
 0000:00000000       ___x64_code_ranges_to_entry_points_count 00000000     <absolute>
 0000:00000000       ___arm64x_redirection_metadata_count 00000000     <absolute>
 0000:00000000       ___arm64x_extra_rfe_table_size 00000000     <absolute>
 0000:00000000       ___AbsoluteZero            00000000     <absolute>
 0000:00000000       ___arm64x_extra_rfe_table  00000000     <absolute>
 0000:00000000       ___hybrid_auxiliary_iat    00000000     <absolute>
 0000:00000000       ___volatile_metadata       00000000     <absolute>
 0000:00000000       ___guard_eh_cont_table     00000000     <absolute>
 0000:00000000       ___guard_fids_count        00000000     <absolute>
 0000:00000000       ___enclave_config          00000000     <absolute>
 0000:00000000       ___guard_fids_table        00000000     <absolute>
 0000:00000000       ___guard_longjmp_count     00000000     <absolute>
 0000:00000000       __except_list              00000000     <absolute>
 0000:00000000       ___x64_code_ranges_to_entry_points 00000000     <absolute>
 0000:00000000       ___arm64x_native_entrypoint 00000000     <absolute>
 0000:00000000       ___hybrid_code_map         00000000     <absolute>
 0000:00000000       ___dynamic_value_reloc_table 00000000     <absolute>
 0000:00000011       ___safe_se_handler_count   00000011     <absolute>
 0000:0000002c       __tls_array                0000002c     <absolute>
 0000:00000100       ___guard_flags             00000100     <absolute>
 0000:00000000       ___ImageBase               10000000     <linker-defined>
 0001:00000d90       ?_assert@@YAXPB_W0I@Z      10001d90 f   Assert.obj
 0001:00000ec0       ___local_stdio_printf_options 10001ec0 f i Assert.obj
 0001:00000ed0       ___vswprintf_l             10001ed0 f i Assert.obj
 0001:00000f00       __swprintf                 10001f00 f i Assert.obj
 0001:00000f60       __vswprintf_c_l            10001f60 f i Assert.obj
 0001:00000fd0       __vswprintf_l              10001fd0 f i Assert.obj
 0001:00001000       ?cw_memcpy@@YGHPADPB_WH@Z  10002000 f   CWString.obj
 0001:00001060       ?cw_memcpy@@YGHPA_WPBDH@Z  10002060 f   CWString.obj
 0001:000010c0       ?cw_memcpy@@YGHPADPBDH@Z   100020c0 f   CWString.obj
 0001:00001110       ?cw_memcpy@@YGHPA_WPB_WH@Z 10002110 f   CWString.obj
 0001:00001150       ?cw_memset@@YAXPADDH@Z     10002150 f   CWString.obj
 0001:00001170       ?cw_memset@@YAXPA_W_WH@Z   10002170 f   CWString.obj
 0001:00001190       ?cw_strlen@@YAHPBD@Z       10002190 f   CWString.obj
 0001:000011e0       ?cw_strlen@@YAHPB_W@Z      100021e0 f   CWString.obj
 0001:00001230       ?cw_strcpy@@YAHPADPB_W@Z   10002230 f   CWString.obj
 0001:00001250       ?cw_strcpy@@YAHPA_WPBD@Z   10002250 f   CWString.obj
 0001:00001270       ?cw_strcpy@@YAHPADPBD@Z    10002270 f   CWString.obj
 0001:00001290       ?cw_strcpy@@YAHPA_WPB_W@Z  10002290 f   CWString.obj
 0001:000012b0       ?cw_strcat@@YAHPADPB_W@Z   100022b0 f   CWString.obj
 0001:000012e0       ?cw_strcat@@YAHPA_WPBD@Z   100022e0 f   CWString.obj
 0001:00001310       ?cw_strcat@@YAHPADPBD@Z    10002310 f   CWString.obj
 0001:00001340       ?cw_strcat@@YAHPA_WPB_W@Z  10002340 f   CWString.obj
 0001:00001370       ?cw_dup@@YGXPBDAAHAAPA_W1@Z 10002370 f   CWString.obj
 0001:00001430       ?cw_dup@@YGXPB_WAAHAAPAD1@Z 10002430 f   CWString.obj
 0001:000014e0       ?DupChar@_CW@@AAEXXZ       100024e0 f   CWString.obj
 0001:00001530       ?DupWide@_CW@@AAEXXZ       10002530 f   CWString.obj
 0001:00001580       ?GetCharsMbcs@_CW@@QAEHXZ  10002580 f   CWString.obj
 0001:000015e0       ?GetCharsWide@_CW@@QAEHXZ  100025e0 f   CWString.obj
 0001:00001640       ?SetVARIANT_BOOL@OposVariant@@QAEXF@Z 10002640 f   OposVariant.obj
 0001:000016a0       ?SetVARIANT_BOOL_Ptr@OposVariant@@QAEXPAFAAJ@Z 100026a0 f   OposVariant.obj
 0001:000016f0       ?GetLONG@OposVariant@@QAEJXZ 100026f0 f   OposVariant.obj
 0001:00001780       ?ChangeLONG@OposVariant@@QAEXPAJAAJ@Z 10002780 f   OposVariant.obj
 0001:00001840       ?SetLONG@OposVariant@@QAEXJ@Z 10002840 f   OposVariant.obj
 0001:00001880       ?SetLONG_Ptr@OposVariant@@QAEXPAJAAJ@Z 10002880 f   OposVariant.obj
 0001:000018d0       ?ChangeCURRENCY@OposVariant@@QAEXPATtagCY@@AAJ@Z 100028d0 f   OposVariant.obj
 0001:00001990       ?SetCURRENCY@OposVariant@@QAEXTtagCY@@@Z 10002990 f   OposVariant.obj
 0001:000019d0       ?SetCURRENCY_Ptr@OposVariant@@QAEXPATtagCY@@AAJ@Z 100029d0 f   OposVariant.obj
 0001:00001a20       ?ChangeBSTR@OposVariant@@QAEXPAPA_WAAJ@Z 10002a20 f   OposVariant.obj
 0001:00001ae0       ?SetBSTR@OposVariant@@QAEXPA_WAAJ@Z 10002ae0 f   OposVariant.obj
 0001:00001b30       ?SetBSTR_Copy@OposVariant@@QAEXPA_WAAJ@Z 10002b30 f   OposVariant.obj
 0001:00001bd0       ?SetBSTR_OutPtr@OposVariant@@QAE_NPAPA_WAAJ@Z 10002bd0 f   OposVariant.obj
 0001:00001c20       ?SetBSTR_InOutPtr@OposVariant@@QAE_NPAPA_WAAJ@Z 10002c20 f   OposVariant.obj
 0001:00001c70       ?SetVARIANT@OposVariant@@QAEXAAUtagVARIANT@@GAAJ@Z 10002c70 f   OposVariant.obj
 0001:00001cf0       ?SetVARIANT_Ptr@OposVariant@@QAEXAAPAUtagVARIANT@@GAAJ@Z 10002cf0 f   OposVariant.obj
 0001:00001d90       ?SetString@OposVariant@@QAEXPB_WAAJ@Z 10002d90 f   OposVariant.obj
 0001:00001e20       ?SetDispatch_Ptr@OposVariant@@QAEXPAUIDispatch@@AAJ@Z 10002e20 f   OposVariant.obj
 0001:00001e90       ??0OposDispParms@@QAE@PAVOposVariant@@H@Z 10002e90 f   OposVariant.obj
 0001:00001f60       ??1OposDispParms@@QAE@XZ   10002f60 f   OposVariant.obj
 0001:00001fb0       ??$AtlMultiply@I@ATL@@YAJPAIII@Z 10002fb0 f i OposVariant.obj
 0001:00002010       ??0?$CHeapPtr@_WVCCRTAllocator@ATL@@@ATL@@QAE@XZ 10003010 f i OposVariant.obj
 0001:00002040       ??0?$CHeapPtrBase@_WVCCRTAllocator@ATL@@@ATL@@IAE@XZ 10003040 f i OposVariant.obj
 0001:00002060       ??0?$CSimpleArray@GV?$CSimpleArrayEqualHelper@G@ATL@@@ATL@@QAE@XZ 10003060 f i OposVariant.obj
 0001:000020a0       ??0?$CTraceCategoryEx@$00$0A@@ATL@@QAE@PB_W@Z 100030a0 f i OposVariant.obj
 0001:000020d0       ??0?$CTraceCategoryEx@$01$0A@@ATL@@QAE@PB_W@Z 100030d0 f i OposVariant.obj
 0001:00002100       ??0?$CTraceCategoryEx@$03$0A@@ATL@@QAE@PB_W@Z 10003100 f i OposVariant.obj
 0001:00002130       ??0?$CTraceCategoryEx@$07$0A@@ATL@@QAE@PB_W@Z 10003130 f i OposVariant.obj
 0001:00002160       ??0?$CTraceCategoryEx@$0BA@$0A@@ATL@@QAE@PB_W@Z 10003160 f i OposVariant.obj
 0001:00002190       ??0?$CTraceCategoryEx@$0BAA@$0A@@ATL@@QAE@PB_W@Z 10003190 f i OposVariant.obj
 0001:000021d0       ??0?$CTraceCategoryEx@$0BAAA@$0A@@ATL@@QAE@PB_W@Z 100031d0 f i OposVariant.obj
 0001:00002210       ??0?$CTraceCategoryEx@$0BAAAA@$0A@@ATL@@QAE@PB_W@Z 10003210 f i OposVariant.obj
 0001:00002250       ??0?$CTraceCategoryEx@$0BAAAAA@$0A@@ATL@@QAE@PB_W@Z 10003250 f i OposVariant.obj
 0001:00002290       ??0?$CTraceCategoryEx@$0CA@$0A@@ATL@@QAE@PB_W@Z 10003290 f i OposVariant.obj
 0001:000022c0       ??0?$CTraceCategoryEx@$0CAA@$0A@@ATL@@QAE@PB_W@Z 100032c0 f i OposVariant.obj
 0001:00002300       ??0?$CTraceCategoryEx@$0CAAA@$0A@@ATL@@QAE@PB_W@Z 10003300 f i OposVariant.obj
 0001:00002340       ??0?$CTraceCategoryEx@$0CAAAA@$0A@@ATL@@QAE@PB_W@Z 10003340 f i OposVariant.obj
 0001:00002380       ??0?$CTraceCategoryEx@$0CAAAAA@$0A@@ATL@@QAE@PB_W@Z 10003380 f i OposVariant.obj
 0001:000023c0       ??0?$CTraceCategoryEx@$0EA@$0A@@ATL@@QAE@PB_W@Z 100033c0 f i OposVariant.obj
 0001:000023f0       ??0?$CTraceCategoryEx@$0EAA@$0A@@ATL@@QAE@PB_W@Z 100033f0 f i OposVariant.obj
 0001:00002430       ??0?$CTraceCategoryEx@$0EAAA@$0A@@ATL@@QAE@PB_W@Z 10003430 f i OposVariant.obj
 0001:00002470       ??0?$CTraceCategoryEx@$0EAAAA@$0A@@ATL@@QAE@PB_W@Z 10003470 f i OposVariant.obj
 0001:000024b0       ??0?$CTraceCategoryEx@$0EAAAAA@$0A@@ATL@@QAE@PB_W@Z 100034b0 f i OposVariant.obj
 0001:000024f0       ??0?$CTraceCategoryEx@$0IA@$0A@@ATL@@QAE@PB_W@Z 100034f0 f i OposVariant.obj
 0001:00002530       ??0?$CTraceCategoryEx@$0IAA@$0A@@ATL@@QAE@PB_W@Z 10003530 f i OposVariant.obj
 0001:00002570       ??0?$CTraceCategoryEx@$0IAAA@$0A@@ATL@@QAE@PB_W@Z 10003570 f i OposVariant.obj
 0001:000025b0       ??0?$CTraceCategoryEx@$0IAAAA@$0A@@ATL@@QAE@PB_W@Z 100035b0 f i OposVariant.obj
 0001:000025f0       ??0CAtlComModule@ATL@@QAE@XZ 100035f0 f i OposVariant.obj
 0001:000026d0       ??0CAtlWinModule@ATL@@QAE@XZ 100036d0 f i OposVariant.obj
 0001:00002760       ??0CComCriticalSection@ATL@@QAE@XZ 10003760 f i OposVariant.obj
 0001:00002790       ??0CPreserveLastError@ATL@@QAE@XZ 10003790 f i OposVariant.obj
 0001:000027d0       ??0CTraceFileAndLineInfo@ATL@@QAE@PBDH@Z 100037d0 f i OposVariant.obj
 0001:00002800       ??0_ATL_COM_MODULE70@ATL@@QAE@XZ 10003800 f i OposVariant.obj
 0001:00002830       ??0_ATL_WIN_MODULE70@ATL@@QAE@XZ 10003830 f i OposVariant.obj
 0001:00002870       ??1?$CHeapPtr@_WVCCRTAllocator@ATL@@@ATL@@QAE@XZ 10003870 f i OposVariant.obj
 0001:000028a0       ??1?$CHeapPtrBase@_WVCCRTAllocator@ATL@@@ATL@@QAE@XZ 100038a0 f i OposVariant.obj
 0001:000028d0       ??1?$CSimpleArray@GV?$CSimpleArrayEqualHelper@G@ATL@@@ATL@@QAE@XZ 100038d0 f i OposVariant.obj
 0001:00002900       ??1CAtlComModule@ATL@@QAE@XZ 10003900 f i OposVariant.obj
 0001:00002930       ??1CAtlWinModule@ATL@@QAE@XZ 10003930 f i OposVariant.obj
 0001:00002960       ??1CComBSTR@ATL@@QAE@XZ    10003960 f i OposVariant.obj
 0001:000029a0       ??1CComCriticalSection@ATL@@QAE@XZ 100039a0 f i OposVariant.obj
 0001:000029c0       ??1CPreserveLastError@ATL@@QAE@XZ 100039c0 f i OposVariant.obj
 0001:00002a00       ??1_ATL_COM_MODULE70@ATL@@QAE@XZ 10003a00 f i OposVariant.obj
 0001:00002a30       ??1_ATL_WIN_MODULE70@ATL@@QAE@XZ 10003a30 f i OposVariant.obj
 0001:00002a70       ??1stringdispid@CComTypeInfoHolder@ATL@@QAE@XZ 10003a70 f i OposVariant.obj
 0001:00002aa0       ??A?$CSimpleArray@GV?$CSimpleArrayEqualHelper@G@ATL@@@ATL@@QAEAAGH@Z 10003aa0 f i OposVariant.obj
 0001:00002b20       ??B?$CHeapPtrBase@_WVCCRTAllocator@ATL@@@ATL@@QBEPA_WXZ 10003b20 f i OposVariant.obj
 0001:00002b40       ??B?$CTraceCategoryEx@$01$0A@@ATL@@QAEIXZ 10003b40 f i OposVariant.obj
 0001:00002b60       ??B?$CTraceCategoryEx@$0CA@$0A@@ATL@@QAEIXZ 10003b60 f i OposVariant.obj
 0001:00002b80       ??RCTraceFileAndLineInfo@ATL@@QBAXHIPB_WZZ 10003b80 f i OposVariant.obj
 0001:00002c20       ??_Estringdispid@CComTypeInfoHolder@ATL@@QAEPAXI@Z 10003c20 f i OposVariant.obj
 0001:00002cb0       ??_H@YGXPAXIIP6EPAX0@Z@Z   10003cb0 f i OposVariant.obj
 0001:00002d20       ??_I@YGXPAXIIP6EX0@Z@Z     10003d20 f i OposVariant.obj
 0001:00002da0       ?Allocate@?$CHeapPtr@_WVCCRTAllocator@ATL@@@ATL@@QAE_NI@Z 10003da0 f i OposVariant.obj
 0001:00002e30       ?Allocate@CCRTAllocator@ATL@@SAPAXI@Z 10003e30 f i OposVariant.obj
 0001:00002e50       ?AllocateBytes@?$CHeapPtrBase@_WVCCRTAllocator@ATL@@@ATL@@QAE_NI@Z 10003e50 f i OposVariant.obj
 0001:00002ec0       ?AtlWinModuleInit@ATL@@YGJPAU_ATL_WIN_MODULE70@1@@Z 10003ec0 f i OposVariant.obj
 0001:00002f90       ?AtlWinModuleTerm@ATL@@YGJPAU_ATL_WIN_MODULE70@1@PAUHINSTANCE__@@@Z 10003f90 f i OposVariant.obj
 0001:00003050       ?Clear@OposVariant@@QAEJXZ 10004050 f i OposVariant.obj
 0001:00003090       ?Free@?$CHeapPtrBase@_WVCCRTAllocator@ATL@@@ATL@@QAEXXZ 10004090 f i OposVariant.obj
 0001:000030d0       ?Free@CCRTAllocator@ATL@@SAXPAX@Z 100040d0 f i OposVariant.obj
 0001:000030f0       ?GetCategoryName@CTrace@ATL@@CAPA_WI@Z 100040f0 f i OposVariant.obj
 0001:00003140       ?GetModuleInstance@CAtlBaseModule@ATL@@QAEPAUHINSTANCE__@@XZ 10004140 f i OposVariant.obj
 0001:00003160       ?GetSize@?$CSimpleArray@GV?$CSimpleArrayEqualHelper@G@ATL@@@ATL@@QBEHXZ 10004160 f i OposVariant.obj
 0001:00003180       ?Init@CComCriticalSection@ATL@@QAEJXZ 10004180 f i OposVariant.obj
 0001:000031e0       ?RegisterCategory@CTrace@ATL@@SAXPB_WI@Z 100041e0 f i OposVariant.obj
 0001:00003270       ?RemoveAll@?$CSimpleArray@GV?$CSimpleArrayEqualHelper@G@ATL@@@ATL@@QAEXXZ 10004270 f i OposVariant.obj
 0001:000032f0       ?Term@CAtlComModule@ATL@@QAEXXZ 100042f0 f i OposVariant.obj
 0001:000033b0       ?Term@CAtlWinModule@ATL@@QAEXXZ 100043b0 f i OposVariant.obj
 0001:000033e0       ?Term@CComCriticalSection@ATL@@QAEJXZ 100043e0 f i OposVariant.obj
 0001:00003420       ?TraceV@CTrace@ATL@@CAXPBDHIIPB_W@Z 10004420 f i OposVariant.obj
 0001:000036a0       ?TraceV@CTrace@ATL@@SAXPBDHIIPB_WPAD@Z 100046a0 f i OposVariant.obj
 0001:000037e0       ?_AtlInitializeCriticalSectionEx@ATL@@YAHPAU_RTL_CRITICAL_SECTION@@KK@Z 100047e0 f i OposVariant.obj
 0001:00003810       ?_AtlRaiseException@ATL@@YAXKK@Z 10004810 f i OposVariant.obj
 0001:00003840       _HRESULT_FROM_WIN32        10004840 f i OposVariant.obj
 0001:00003880       __vswprintf_s_l            10004880 f i OposVariant.obj
 0001:000038f0       _swprintf_s                100048f0 f i OposVariant.obj
 0001:00003950       ?ObjectMain@CComObjectRootBase@ATL@@SGX_N@Z 10004950 f i SoundPlayer.obj
 0001:00003960       ?GetCategoryMap@CComObjectRootBase@ATL@@SAPBU_ATL_CATMAP_ENTRY@2@XZ 10004960 f i SoundPlayer.obj
 0001:00003970       ?GetObjectDescription@?$CComCoClass@VCOPOSSoundPlayer@@$1?CLSID_OPOSSoundPlayer@@3U_GUID@@B@ATL@@SGPB_WXZ 10004970 f i SoundPlayer.obj
 0001:00003980       ?UpdateRegistry@COPOSSoundPlayer@@SGJH@Z 10004980 f i SoundPlayer.obj
 0001:000039a0       ?CreateInstance@?$CComCreator@V?$CComObjectCached@VCComClassFactory@ATL@@@ATL@@@ATL@@SGJPAXABU_GUID@@PAPAX@Z 100049a0 f i SoundPlayer.obj
 0001:00003b20       ?CreateInstance@?$CComCreator2@V?$CComCreator@V?$CComObject@VCOPOSSoundPlayer@@@ATL@@@ATL@@V?$CComCreator@V?$CComAggObject@VCOPOSSoundPlayer@@@ATL@@@2@@ATL@@SGJPAXABU_GUID@@PAPAX@Z 10004b20 f i SoundPlayer.obj
 0001:00003cd0       _DllGetClassObject@12      10004cd0 f   SoundPlayer.obj
 0001:00003d00       _DllCanUnloadNow@0         10004d00 f   SoundPlayer.obj
 0001:00003d40       _DllRegisterServer@0       10004d40 f   SoundPlayer.obj
 0001:00003d60       _DllUnregisterServer@0     10004d60 f   SoundPlayer.obj
 0001:00003ef0       _DllMain@12                10004ef0 f   SoundPlayer.obj
 0001:00003f50       ??$?2G@Wrapper@?$CSimpleArray@GV?$CSimpleArrayEqualHelper@G@ATL@@@ATL@@SAPAXIPAG@Z 10004f50 f i SoundPlayer.obj
 0001:00003f60       ??$?2PA_W@?$Wrapper@PA_W@?$CSimpleMap@PA_WPA_WVCExpansionVectorEqualHelper@ATL@@@ATL@@SAPAXIPAPA_W@Z 10004f60 f i SoundPlayer.obj
 0001:00003f70       ??$?4UITypeInfo2@@@?$CComPtr@UITypeInfo@@@ATL@@QAEPAUITypeInfo@@ABV?$CComPtr@UITypeInfo2@@@1@@Z 10004f70 f i SoundPlayer.obj
 0001:00003fd0       ??$AtlAdd@K@ATL@@YAJPAKKK@Z 10004fd0 f i SoundPlayer.obj
 0001:00004010       ??$AtlAdd@_K@ATL@@YAJPA_K_K1@Z 10005010 f i SoundPlayer.obj
 0001:00004080       ??$AtlAddThrow@K@ATL@@YAKKK@Z 10005080 f i SoundPlayer.obj
 0001:00004100       ??$AtlModuleRegisterWndClassInfoT@VAtlModuleRegisterWndClassInfoParamW@ATL@@@ATL@@YAGPAU_ATL_BASE_MODULE70@0@PAU_ATL_WIN_MODULE70@0@PAU_ATL_WNDCLASSINFOW@0@PAP6GJPAUHWND__@@IIJ@ZVAtlModuleRegisterWndClassInfoParamW@0@@Z 10005100 f i SoundPlayer.obj
 0001:00004510       ??$AtlMultiply@H@ATL@@YAJPAHHH@Z 10005510 f i SoundPlayer.obj
 0001:00004590       ??$AtlMultiply@K@ATL@@YAJPAKKK@Z 10005590 f i SoundPlayer.obj
 0001:000045f0       ??$AtlMultiplyThrow@I@ATL@@YAIII@Z 100055f0 f i SoundPlayer.obj
 0001:00004670       ??$QueryInterface@UIPersistStream@@@IUnknown@@QAGJPAPAUIPersistStream@@@Z 10005670 f i SoundPlayer.obj
 0001:000046a0       ??$QueryInterface@UITypeInfo2@@@IUnknown@@QAGJPAPAUITypeInfo2@@@Z 100056a0 f i SoundPlayer.obj
 0001:000046d0       ??0?$CAtlModuleT@VCComModule@ATL@@@ATL@@QAE@XZ 100056d0 f i SoundPlayer.obj
 0001:00004700       ??0?$CAtlSafeAllocBufferManager@VCCRTAllocator@ATL@@@_ATL_SAFE_ALLOCA_IMPL@ATL@@QAE@XZ 10005700 f i SoundPlayer.obj
 0001:00004720       ??0?$CAutoVectorPtr@_W@ATL@@QAE@XZ 10005720 f i SoundPlayer.obj
 0001:00004740       ??0?$CComAggObject@VCOPOSSoundPlayer@@@ATL@@QAE@PAX@Z 10005740 f i SoundPlayer.obj
 0001:000047b0       ??0?$CComContainedObject@VCOPOSSoundPlayer@@@ATL@@QAE@PAX@Z 100057b0 f i SoundPlayer.obj
 0001:000048c0       ??0?$CComCritSecLock@VCComCriticalSection@ATL@@@ATL@@QAE@AAVCComCriticalSection@1@_N@Z 100058c0 f i SoundPlayer.obj
 0001:00004920       ??0?$CComEnum@UIEnumConnectionPoints@@$1?_GUID_b196b285_bab4_101a_b69c_00aa00341d07@@3U__s_GUID@@BPAUIConnectionPoint@@V?$_CopyInterface@UIConnectionPoint@@@ATL@@VCComSingleThreadModel@6@@ATL@@QAE@XZ 10005920 f i SoundPlayer.obj
 0001:00004960       ??0?$CComEnum@UIEnumConnections@@$1?_GUID_b196b287_bab4_101a_b69c_00aa00341d07@@3U__s_GUID@@BUtagCONNECTDATA@@V?$_Copy@UtagCONNECTDATA@@@ATL@@VCComSingleThreadModel@6@@ATL@@QAE@XZ 10005960 f i SoundPlayer.obj
 0001:000049a0       ??0?$CComEnumImpl@UIEnumConnectionPoints@@$1?_GUID_b196b285_bab4_101a_b69c_00aa00341d07@@3U__s_GUID@@BPAUIConnectionPoint@@V?$_CopyInterface@UIConnectionPoint@@@ATL@@@ATL@@QAE@XZ 100059a0 f i SoundPlayer.obj
 0001:00004a00       ??0?$CComEnumImpl@UIEnumConnections@@$1?_GUID_b196b287_bab4_101a_b69c_00aa00341d07@@3U__s_GUID@@BUtagCONNECTDATA@@V?$_Copy@UtagCONNECTDATA@@@ATL@@@ATL@@QAE@XZ 10005a00 f i SoundPlayer.obj
 0001:00004a60       ??0?$CComObject@V?$CComEnum@UIEnumConnectionPoints@@$1?_GUID_b196b285_bab4_101a_b69c_00aa00341d07@@3U__s_GUID@@BPAUIConnectionPoint@@V?$_CopyInterface@UIConnectionPoint@@@ATL@@VCComSingleThreadModel@6@@ATL@@@ATL@@QAE@PAX@Z 10005a60 f i SoundPlayer.obj
 0001:00004ab0       ??0?$CComObject@V?$CComEnum@UIEnumConnections@@$1?_GUID_b196b287_bab4_101a_b69c_00aa00341d07@@3U__s_GUID@@BUtagCONNECTDATA@@V?$_Copy@UtagCONNECTDATA@@@ATL@@VCComSingleThreadModel@6@@ATL@@@ATL@@QAE@PAX@Z 10005ab0 f i SoundPlayer.obj
 0001:00004b00       ??0?$CComObject@VCOPOSSoundPlayer@@@ATL@@QAE@PAX@Z 10005b00 f i SoundPlayer.obj
 0001:00004c20       ??0?$CComObjectCached@VCComClassFactory@ATL@@@ATL@@QAE@PAX@Z 10005c20 f i SoundPlayer.obj
 0001:00004c60       ??0?$CComObjectRootEx@VCComMultiThreadModel@ATL@@@ATL@@QAE@XZ 10005c60 f i SoundPlayer.obj
 0001:00004ca0       ??0?$CComObjectRootEx@VCComSingleThreadModel@ATL@@@ATL@@QAE@XZ 10005ca0 f i SoundPlayer.obj
 0001:00004cd0       ??0?$CComPtr@UIAdviseSink@@@ATL@@QAE@PAUIAdviseSink@@@Z 10005cd0 f i SoundPlayer.obj
 0001:00004d00       ??0?$CComPtr@UICatRegister@@@ATL@@QAE@XZ 10005d00 f i SoundPlayer.obj
 0001:00004d30       ??0?$CComPtr@UIConnectionPoint@@@ATL@@QAE@XZ 10005d30 f i SoundPlayer.obj
 0001:00004d60       ??0?$CComPtr@UIConnectionPointContainer@@@ATL@@QAE@XZ 10005d60 f i SoundPlayer.obj
 0001:00004d90       ??0?$CComPtr@UIDataObject@@@ATL@@QAE@XZ 10005d90 f i SoundPlayer.obj
 0001:00004dc0       ??0?$CComPtr@UIDispatch@@@ATL@@QAE@XZ 10005dc0 f i SoundPlayer.obj
 0001:00004df0       ??0?$CComPtr@UIOleClientSite@@@ATL@@QAE@PAUIOleClientSite@@@Z 10005df0 f i SoundPlayer.obj
 0001:00004e20       ??0?$CComPtr@UIOleControlSite@@@ATL@@QAE@XZ 10005e20 f i SoundPlayer.obj
 0001:00004e50       ??0?$CComPtr@UIOleInPlaceActiveObject@@@ATL@@QAE@XZ 10005e50 f i SoundPlayer.obj
 0001:00004e80       ??0?$CComPtr@UIOleInPlaceFrame@@@ATL@@QAE@XZ 10005e80 f i SoundPlayer.obj
 0001:00004eb0       ??0?$CComPtr@UIOleInPlaceObject@@@ATL@@QAE@XZ 10005eb0 f i SoundPlayer.obj
 0001:00004ee0       ??0?$CComPtr@UIOleInPlaceUIWindow@@@ATL@@QAE@XZ 10005ee0 f i SoundPlayer.obj
 0001:00004f10       ??0?$CComPtr@UIOleObject@@@ATL@@QAE@XZ 10005f10 f i SoundPlayer.obj
 0001:00004f40       ??0?$CComPtr@UIPersistStream@@@ATL@@QAE@XZ 10005f40 f i SoundPlayer.obj
 0001:00004f70       ??0?$CComPtr@UIPersistStreamInit@@@ATL@@QAE@XZ 10005f70 f i SoundPlayer.obj
 0001:00004fa0       ??0?$CComPtr@UIPointerInactive@@@ATL@@QAE@XZ 10005fa0 f i SoundPlayer.obj
 0001:00004fd0       ??0?$CComPtr@UIProvideClassInfo2@@@ATL@@QAE@XZ 10005fd0 f i SoundPlayer.obj
 0001:00005000       ??0?$CComPtr@UISpecifyPropertyPages@@@ATL@@QAE@XZ 10006000 f i SoundPlayer.obj
 0001:00005030       ??0?$CComPtr@UIStream@@@ATL@@QAE@XZ 10006030 f i SoundPlayer.obj
 0001:00005060       ??0?$CComPtr@UITypeInfo2@@@ATL@@QAE@XZ 10006060 f i SoundPlayer.obj
 0001:00005090       ??0?$CComPtr@UITypeInfo@@@ATL@@QAE@ABV01@@Z 10006090 f i SoundPlayer.obj
 0001:000050c0       ??0?$CComPtr@UITypeInfo@@@ATL@@QAE@XZ 100060c0 f i SoundPlayer.obj
 0001:000050f0       ??0?$CComPtr@UITypeLib@@@ATL@@QAE@XZ 100060f0 f i SoundPlayer.obj
 0001:00005120       ??0?$CComPtr@UIUnknown@@@ATL@@QAE@ABV01@@Z 10006120 f i SoundPlayer.obj
 0001:00005150       ??0?$CComPtr@UIUnknown@@@ATL@@QAE@PAUIUnknown@@@Z 10006150 f i SoundPlayer.obj
 0001:00005180       ??0?$CComPtr@UIUnknown@@@ATL@@QAE@XZ 10006180 f i SoundPlayer.obj
 0001:000051b0       ??0?$CComPtr@UIViewObjectEx@@@ATL@@QAE@XZ 100061b0 f i SoundPlayer.obj
 0001:000051e0       ??0?$CComPtrBase@UIAdviseSink@@@ATL@@IAE@PAUIAdviseSink@@@Z 100061e0 f i SoundPlayer.obj
 0001:00005230       ??0?$CComPtrBase@UICatRegister@@@ATL@@IAE@XZ 10006230 f i SoundPlayer.obj
 0001:00005250       ??0?$CComPtrBase@UIConnectionPoint@@@ATL@@IAE@XZ 10006250 f i SoundPlayer.obj
 0001:00005270       ??0?$CComPtrBase@UIConnectionPointContainer@@@ATL@@IAE@XZ 10006270 f i SoundPlayer.obj
 0001:00005290       ??0?$CComPtrBase@UIDataObject@@@ATL@@IAE@XZ 10006290 f i SoundPlayer.obj
 0001:000052b0       ??0?$CComPtrBase@UIDispatch@@@ATL@@IAE@XZ 100062b0 f i SoundPlayer.obj
 0001:000052d0       ??0?$CComPtrBase@UIOleClientSite@@@ATL@@IAE@PAUIOleClientSite@@@Z 100062d0 f i SoundPlayer.obj
 0001:00005320       ??0?$CComPtrBase@UIOleControlSite@@@ATL@@IAE@XZ 10006320 f i SoundPlayer.obj
 0001:00005340       ??0?$CComPtrBase@UIOleInPlaceActiveObject@@@ATL@@IAE@XZ 10006340 f i SoundPlayer.obj
 0001:00005360       ??0?$CComPtrBase@UIOleInPlaceFrame@@@ATL@@IAE@XZ 10006360 f i SoundPlayer.obj
 0001:00005380       ??0?$CComPtrBase@UIOleInPlaceObject@@@ATL@@IAE@XZ 10006380 f i SoundPlayer.obj
 0001:000053a0       ??0?$CComPtrBase@UIOleInPlaceUIWindow@@@ATL@@IAE@XZ 100063a0 f i SoundPlayer.obj
 0001:000053c0       ??0?$CComPtrBase@UIOleObject@@@ATL@@IAE@XZ 100063c0 f i SoundPlayer.obj
 0001:000053e0       ??0?$CComPtrBase@UIPersistStream@@@ATL@@IAE@XZ 100063e0 f i SoundPlayer.obj
 0001:00005400       ??0?$CComPtrBase@UIPersistStreamInit@@@ATL@@IAE@XZ 10006400 f i SoundPlayer.obj
 0001:00005420       ??0?$CComPtrBase@UIPointerInactive@@@ATL@@IAE@XZ 10006420 f i SoundPlayer.obj
 0001:00005440       ??0?$CComPtrBase@UIProvideClassInfo2@@@ATL@@IAE@XZ 10006440 f i SoundPlayer.obj
 0001:00005460       ??0?$CComPtrBase@UISpecifyPropertyPages@@@ATL@@IAE@XZ 10006460 f i SoundPlayer.obj
 0001:00005480       ??0?$CComPtrBase@UIStream@@@ATL@@IAE@XZ 10006480 f i SoundPlayer.obj
 0001:000054a0       ??0?$CComPtrBase@UITypeInfo2@@@ATL@@IAE@XZ 100064a0 f i SoundPlayer.obj
 0001:000054c0       ??0?$CComPtrBase@UITypeInfo@@@ATL@@IAE@PAUITypeInfo@@@Z 100064c0 f i SoundPlayer.obj
 0001:00005510       ??0?$CComPtrBase@UITypeInfo@@@ATL@@IAE@XZ 10006510 f i SoundPlayer.obj
 0001:00005530       ??0?$CComPtrBase@UITypeLib@@@ATL@@IAE@XZ 10006530 f i SoundPlayer.obj
 0001:00005550       ??0?$CComPtrBase@UIUnknown@@@ATL@@IAE@PAUIUnknown@@@Z 10006550 f i SoundPlayer.obj
 0001:000055a0       ??0?$CComPtrBase@UIUnknown@@@ATL@@IAE@XZ 100065a0 f i SoundPlayer.obj
 0001:000055c0       ??0?$CComPtrBase@UIViewObjectEx@@@ATL@@IAE@XZ 100065c0 f i SoundPlayer.obj
 0001:000055e0       ??0?$CComQIPtr@UIOleControlSite@@$1?_GUID_b196b289_bab4_101a_b69c_00aa00341d07@@3U__s_GUID@@B@ATL@@QAE@PAUIUnknown@@@Z 100065e0 f i SoundPlayer.obj
 0001:00005640       ??0?$CComQIPtr@UIOleObject@@$1?_GUID_00000112_0000_0000_c000_000000000046@@3U__s_GUID@@B@ATL@@QAE@XZ 10006640 f i SoundPlayer.obj
 0001:00005670       ??0?$CComQIPtr@UISpecifyPropertyPages@@$1?_GUID_b196b28b_bab4_101a_b69c_00aa00341d07@@3U__s_GUID@@B@ATL@@QAE@XZ 10006670 f i SoundPlayer.obj
 0001:000056a0       ??0?$CSimpleMap@PA_WPA_WVCExpansionVectorEqualHelper@ATL@@@ATL@@QAE@XZ 100066a0 f i SoundPlayer.obj
 0001:000056e0       ??0?$CTempBuffer@E$0BAA@VCCRTAllocator@ATL@@@ATL@@QAE@XZ 100066e0 f i SoundPlayer.obj
 0001:00005700       ??0?$CTempBuffer@_W$0BAA@VCCRTAllocator@ATL@@@ATL@@QAE@XZ 10006700 f i SoundPlayer.obj
 0001:00005720       ??0?$CTempBuffer@_W$0EAA@VCCRTAllocator@ATL@@@ATL@@QAE@XZ 10006720 f i SoundPlayer.obj
 0001:00005740       ??0?$Wrapper@PA_W@?$CSimpleMap@PA_WPA_WVCExpansionVectorEqualHelper@ATL@@@ATL@@QAE@ABQA_W@Z 10006740 f i SoundPlayer.obj
 0001:00005770       ??0CAtlModule@ATL@@QAE@XZ  10006770 f i SoundPlayer.obj
 0001:00005890       ??0CComAutoDeleteCriticalSection@ATL@@QAE@XZ 10006890 f i SoundPlayer.obj
 0001:000058c0       ??0CComBSTR@ATL@@QAE@XZ    100068c0 f i SoundPlayer.obj
 0001:000058e0       ??0CComClassFactory@ATL@@QAE@XZ 100068e0 f i SoundPlayer.obj
 0001:00005920       ??0CComModule@ATL@@QAE@XZ  10006920 f i SoundPlayer.obj
 0001:00005990       ??0CComObjectRootBase@ATL@@QAE@XZ 10006990 f i SoundPlayer.obj
 0001:000059b0       ??0CComSafeDeleteCriticalSection@ATL@@QAE@XZ 100069b0 f i SoundPlayer.obj
 0001:000059e0       ??0CComVariant@ATL@@QAE@XZ 100069e0 f i SoundPlayer.obj
 0001:00005a30       ??0CExpansionVector@ATL@@QAE@XZ 10006a30 f i SoundPlayer.obj
 0001:00005a60       ??0CParseBuffer@CRegParser@ATL@@QAE@H@Z 10006a60 f i SoundPlayer.obj
 0001:00005ad0       ??0CRegKey@ATL@@QAE@PAUHKEY__@@@Z 10006ad0 f i SoundPlayer.obj
 0001:00005b10       ??0CRegKey@ATL@@QAE@PAVCAtlTransactionManager@1@@Z 10006b10 f i SoundPlayer.obj
 0001:00005b50       ??0CRegObject@ATL@@QAE@XZ  10006b50 f i SoundPlayer.obj
 0001:00005b90       ??0CRegParser@ATL@@QAE@PAVCRegObject@1@@Z 10006b90 f i SoundPlayer.obj
 0001:00005bc0       ??0IClassFactory@@QAE@XZ   10006bc0 f i SoundPlayer.obj
 0001:00005bf0       ??0IEnumConnectionPoints@@QAE@XZ 10006bf0 f i SoundPlayer.obj
 0001:00005c20       ??0IEnumConnections@@QAE@XZ 10006c20 f i SoundPlayer.obj
 0001:00005c50       ??0IRegistrarBase@@QAE@XZ  10006c50 f i SoundPlayer.obj
 0001:00005c80       ??0IUnknown@@QAE@XZ        10006c80 f i SoundPlayer.obj
 0001:00005ca0       ??0ModuleLockHelper@ATL@@QAE@XZ 10006ca0 f i SoundPlayer.obj
 0001:00005ce0       ??0OposVariant@@QAE@XZ     10006ce0 f i SoundPlayer.obj
 0001:00005d10       ??0Wrapper@?$CSimpleArray@GV?$CSimpleArrayEqualHelper@G@ATL@@@ATL@@QAE@ABG@Z 10006d10 f i SoundPlayer.obj
 0001:00005d40       ??0_ATL_MODULE70@ATL@@QAE@XZ 10006d40 f i SoundPlayer.obj
 0001:00005d70       ??0_ATL_MSG@ATL@@QAE@PAUHWND__@@IIJH@Z 10006d70 f i SoundPlayer.obj
 0001:00005de0       ??0_U_MENUorID@ATL@@QAE@I@Z 10006de0 f i SoundPlayer.obj
 0001:00005e00       ??0_U_RECT@ATL@@QAE@AAUtagRECT@@@Z 10006e00 f i SoundPlayer.obj
 0001:00005e20       ??0stringdispid@CComTypeInfoHolder@ATL@@QAE@XZ 10006e20 f i SoundPlayer.obj
 0001:00005e60       ??1?$CAtlModuleT@VCComModule@ATL@@@ATL@@UAE@XZ 10006e60 f i SoundPlayer.obj
 0001:00005e90       ??1?$CAtlSafeAllocBufferManager@VCCRTAllocator@ATL@@@_ATL_SAFE_ALLOCA_IMPL@ATL@@QAE@XZ 10006e90 f i SoundPlayer.obj
 0001:00005ee0       ??1?$CAutoVectorPtr@_W@ATL@@QAE@XZ 10006ee0 f i SoundPlayer.obj
 0001:00005f10       ??1?$CComAggObject@VCOPOSSoundPlayer@@@ATL@@UAE@XZ 10006f10 f i SoundPlayer.obj
 0001:00005f80       ??1?$CComContainedObject@VCOPOSSoundPlayer@@@ATL@@UAE@XZ 10006f80 f i SoundPlayer.obj
 0001:00005fb0       ??1?$CComCritSecLock@VCComCriticalSection@ATL@@@ATL@@QAE@XZ 10006fb0 f i SoundPlayer.obj
 0001:00005fe0       ??1?$CComEnum@UIEnumConnectionPoints@@$1?_GUID_b196b285_bab4_101a_b69c_00aa00341d07@@3U__s_GUID@@BPAUIConnectionPoint@@V?$_CopyInterface@UIConnectionPoint@@@ATL@@VCComSingleThreadModel@6@@ATL@@UAE@XZ 10006fe0 f i SoundPlayer.obj
 0001:00006010       ??1?$CComEnum@UIEnumConnections@@$1?_GUID_b196b287_bab4_101a_b69c_00aa00341d07@@3U__s_GUID@@BUtagCONNECTDATA@@V?$_Copy@UtagCONNECTDATA@@@ATL@@VCComSingleThreadModel@6@@ATL@@UAE@XZ 10007010 f i SoundPlayer.obj
 0001:00006040       ??1?$CComEnumImpl@UIEnumConnectionPoints@@$1?_GUID_b196b285_bab4_101a_b69c_00aa00341d07@@3U__s_GUID@@BPAUIConnectionPoint@@V?$_CopyInterface@UIConnectionPoint@@@ATL@@@ATL@@UAE@XZ 10007040 f i SoundPlayer.obj
 0001:000060d0       ??1?$CComEnumImpl@UIEnumConnections@@$1?_GUID_b196b287_bab4_101a_b69c_00aa00341d07@@3U__s_GUID@@BUtagCONNECTDATA@@V?$_Copy@UtagCONNECTDATA@@@ATL@@@ATL@@UAE@XZ 100070d0 f i SoundPlayer.obj
 0001:00006160       ??1?$CComObject@V?$CComEnum@UIEnumConnectionPoints@@$1?_GUID_b196b285_bab4_101a_b69c_00aa00341d07@@3U__s_GUID@@BPAUIConnectionPoint@@V?$_CopyInterface@UIConnectionPoint@@@ATL@@VCComSingleThreadModel@6@@ATL@@@ATL@@UAE@XZ 10007160 f i SoundPlayer.obj
 0001:000061c0       ??1?$CComObject@V?$CComEnum@UIEnumConnections@@$1?_GUID_b196b287_bab4_101a_b69c_00aa00341d07@@3U__s_GUID@@BUtagCONNECTDATA@@V?$_Copy@UtagCONNECTDATA@@@ATL@@VCComSingleThreadModel@6@@ATL@@@ATL@@UAE@XZ 100071c0 f i SoundPlayer.obj
 0001:00006220       ??1?$CComObject@VCOPOSSoundPlayer@@@ATL@@UAE@XZ 10007220 f i SoundPlayer.obj
 0001:00006360       ??1?$CComObjectCached@VCComClassFactory@ATL@@@ATL@@UAE@XZ 10007360 f i SoundPlayer.obj
 0001:000063b0       ??1?$CComObjectRootEx@VCComMultiThreadModel@ATL@@@ATL@@QAE@XZ 100073b0 f i SoundPlayer.obj
 0001:000063e0       ??1?$CComObjectRootEx@VCComSingleThreadModel@ATL@@@ATL@@QAE@XZ 100073e0 f i SoundPlayer.obj
 0001:00006410       ??1?$CComPtr@UIAdviseSink@@@ATL@@QAE@XZ 10007410 f i SoundPlayer.obj
 0001:00006440       ??1?$CComPtr@UICatRegister@@@ATL@@QAE@XZ 10007440 f i SoundPlayer.obj
 0001:00006470       ??1?$CComPtr@UIConnectionPoint@@@ATL@@QAE@XZ 10007470 f i SoundPlayer.obj
 0001:000064a0       ??1?$CComPtr@UIConnectionPointContainer@@@ATL@@QAE@XZ 100074a0 f i SoundPlayer.obj
 0001:000064d0       ??1?$CComPtr@UIDataObject@@@ATL@@QAE@XZ 100074d0 f i SoundPlayer.obj
 0001:00006500       ??1?$CComPtr@UIDispatch@@@ATL@@QAE@XZ 10007500 f i SoundPlayer.obj
 0001:00006530       ??1?$CComPtr@UIOleClientSite@@@ATL@@QAE@XZ 10007530 f i SoundPlayer.obj
 0001:00006560       ??1?$CComPtr@UIOleControlSite@@@ATL@@QAE@XZ 10007560 f i SoundPlayer.obj
 0001:00006590       ??1?$CComPtr@UIOleInPlaceActiveObject@@@ATL@@QAE@XZ 10007590 f i SoundPlayer.obj
 0001:000065c0       ??1?$CComPtr@UIOleInPlaceFrame@@@ATL@@QAE@XZ 100075c0 f i SoundPlayer.obj
 0001:000065f0       ??1?$CComPtr@UIOleInPlaceObject@@@ATL@@QAE@XZ 100075f0 f i SoundPlayer.obj
 0001:00006620       ??1?$CComPtr@UIOleInPlaceUIWindow@@@ATL@@QAE@XZ 10007620 f i SoundPlayer.obj
 0001:00006650       ??1?$CComPtr@UIOleObject@@@ATL@@QAE@XZ 10007650 f i SoundPlayer.obj
 0001:00006680       ??1?$CComPtr@UIPersistStream@@@ATL@@QAE@XZ 10007680 f i SoundPlayer.obj
 0001:000066b0       ??1?$CComPtr@UIPersistStreamInit@@@ATL@@QAE@XZ 100076b0 f i SoundPlayer.obj
 0001:000066e0       ??1?$CComPtr@UIPointerInactive@@@ATL@@QAE@XZ 100076e0 f i SoundPlayer.obj
 0001:00006710       ??1?$CComPtr@UIProvideClassInfo2@@@ATL@@QAE@XZ 10007710 f i SoundPlayer.obj
 0001:00006740       ??1?$CComPtr@UISpecifyPropertyPages@@@ATL@@QAE@XZ 10007740 f i SoundPlayer.obj
 0001:00006770       ??1?$CComPtr@UIStream@@@ATL@@QAE@XZ 10007770 f i SoundPlayer.obj
 0001:000067a0       ??1?$CComPtr@UITypeInfo2@@@ATL@@QAE@XZ 100077a0 f i SoundPlayer.obj
 0001:000067d0       ??1?$CComPtr@UITypeInfo@@@ATL@@QAE@XZ 100077d0 f i SoundPlayer.obj
 0001:00006800       ??1?$CComPtr@UITypeLib@@@ATL@@QAE@XZ 10007800 f i SoundPlayer.obj
 0001:00006830       ??1?$CComPtr@UIUnknown@@@ATL@@QAE@XZ 10007830 f i SoundPlayer.obj
 0001:00006860       ??1?$CComPtr@UIViewObjectEx@@@ATL@@QAE@XZ 10007860 f i SoundPlayer.obj
 0001:00006890       ??1?$CComPtrBase@UIAdviseSink@@@ATL@@QAE@XZ 10007890 f i SoundPlayer.obj
 0001:000068e0       ??1?$CComPtrBase@UICatRegister@@@ATL@@QAE@XZ 100078e0 f i SoundPlayer.obj
 0001:00006930       ??1?$CComPtrBase@UIConnectionPoint@@@ATL@@QAE@XZ 10007930 f i SoundPlayer.obj
 0001:00006980       ??1?$CComPtrBase@UIConnectionPointContainer@@@ATL@@QAE@XZ 10007980 f i SoundPlayer.obj
 0001:000069d0       ??1?$CComPtrBase@UIDataObject@@@ATL@@QAE@XZ 100079d0 f i SoundPlayer.obj
 0001:00006a20       ??1?$CComPtrBase@UIDispatch@@@ATL@@QAE@XZ 10007a20 f i SoundPlayer.obj
 0001:00006a70       ??1?$CComPtrBase@UIOleClientSite@@@ATL@@QAE@XZ 10007a70 f i SoundPlayer.obj
 0001:00006ac0       ??1?$CComPtrBase@UIOleControlSite@@@ATL@@QAE@XZ 10007ac0 f i SoundPlayer.obj
 0001:00006b10       ??1?$CComPtrBase@UIOleInPlaceActiveObject@@@ATL@@QAE@XZ 10007b10 f i SoundPlayer.obj
 0001:00006b60       ??1?$CComPtrBase@UIOleInPlaceFrame@@@ATL@@QAE@XZ 10007b60 f i SoundPlayer.obj
 0001:00006bb0       ??1?$CComPtrBase@UIOleInPlaceObject@@@ATL@@QAE@XZ 10007bb0 f i SoundPlayer.obj
 0001:00006c00       ??1?$CComPtrBase@UIOleInPlaceUIWindow@@@ATL@@QAE@XZ 10007c00 f i SoundPlayer.obj
 0001:00006c50       ??1?$CComPtrBase@UIOleObject@@@ATL@@QAE@XZ 10007c50 f i SoundPlayer.obj
 0001:00006ca0       ??1?$CComPtrBase@UIPersistStream@@@ATL@@QAE@XZ 10007ca0 f i SoundPlayer.obj
 0001:00006cf0       ??1?$CComPtrBase@UIPersistStreamInit@@@ATL@@QAE@XZ 10007cf0 f i SoundPlayer.obj
 0001:00006d40       ??1?$CComPtrBase@UIPointerInactive@@@ATL@@QAE@XZ 10007d40 f i SoundPlayer.obj
 0001:00006d90       ??1?$CComPtrBase@UIProvideClassInfo2@@@ATL@@QAE@XZ 10007d90 f i SoundPlayer.obj
 0001:00006de0       ??1?$CComPtrBase@UISpecifyPropertyPages@@@ATL@@QAE@XZ 10007de0 f i SoundPlayer.obj
 0001:00006e30       ??1?$CComPtrBase@UIStream@@@ATL@@QAE@XZ 10007e30 f i SoundPlayer.obj
 0001:00006e80       ??1?$CComPtrBase@UITypeInfo2@@@ATL@@QAE@XZ 10007e80 f i SoundPlayer.obj
 0001:00006ed0       ??1?$CComPtrBase@UITypeInfo@@@ATL@@QAE@XZ 10007ed0 f i SoundPlayer.obj
 0001:00006f20       ??1?$CComPtrBase@UITypeLib@@@ATL@@QAE@XZ 10007f20 f i SoundPlayer.obj
 0001:00006f70       ??1?$CComPtrBase@UIUnknown@@@ATL@@QAE@XZ 10007f70 f i SoundPlayer.obj
 0001:00006fc0       ??1?$CComPtrBase@UIViewObjectEx@@@ATL@@QAE@XZ 10007fc0 f i SoundPlayer.obj
 0001:00007010       ??1?$CComQIPtr@UIOleControlSite@@$1?_GUID_b196b289_bab4_101a_b69c_00aa00341d07@@3U__s_GUID@@B@ATL@@QAE@XZ 10008010 f i SoundPlayer.obj
 0001:00007040       ??1?$CComQIPtr@UIOleObject@@$1?_GUID_00000112_0000_0000_c000_000000000046@@3U__s_GUID@@B@ATL@@QAE@XZ 10008040 f i SoundPlayer.obj
 0001:00007070       ??1?$CComQIPtr@UISpecifyPropertyPages@@$1?_GUID_b196b28b_bab4_101a_b69c_00aa00341d07@@3U__s_GUID@@B@ATL@@QAE@XZ 10008070 f i SoundPlayer.obj
 0001:000070a0       ??1?$CSimpleMap@PA_WPA_WVCExpansionVectorEqualHelper@ATL@@@ATL@@QAE@XZ 100080a0 f i SoundPlayer.obj
 0001:000070d0       ??1?$CTempBuffer@E$0BAA@VCCRTAllocator@ATL@@@ATL@@QAE@XZ 100080d0 f i SoundPlayer.obj
 0001:00007110       ??1?$CTempBuffer@_W$0BAA@VCCRTAllocator@ATL@@@ATL@@QAE@XZ 10008110 f i SoundPlayer.obj
 0001:00007150       ??1?$CTempBuffer@_W$0EAA@VCCRTAllocator@ATL@@@ATL@@QAE@XZ 10008150 f i SoundPlayer.obj
 0001:00007190       ??1CAtlModule@ATL@@UAE@XZ  10008190 f i SoundPlayer.obj
 0001:000071c0       ??1CComAutoDeleteCriticalSection@ATL@@QAE@XZ 100081c0 f i SoundPlayer.obj
 0001:000071f0       ??1CComClassFactory@ATL@@UAE@XZ 100081f0 f i SoundPlayer.obj
 0001:00007220       ??1CComModule@ATL@@UAE@XZ  10008220 f i SoundPlayer.obj
 0001:00007250       ??1CComObjectRootBase@ATL@@QAE@XZ 10008250 f i SoundPlayer.obj
 0001:00007270       ??1CComSafeDeleteCriticalSection@ATL@@QAE@XZ 10008270 f i SoundPlayer.obj
 0001:000072b0       ??1CComVariant@ATL@@QAE@XZ 100082b0 f i SoundPlayer.obj
 0001:00007310       ??1CExpansionVector@ATL@@QAE@XZ 10008310 f i SoundPlayer.obj
 0001:00007340       ??1CParseBuffer@CRegParser@ATL@@QAE@XZ 10008340 f i SoundPlayer.obj
 0001:00007380       ??1CRegKey@ATL@@QAE@XZ     10008380 f i SoundPlayer.obj
 0001:000073b0       ??1CRegObject@ATL@@UAE@XZ  100083b0 f i SoundPlayer.obj
 0001:000073f0       ??1ModuleLockHelper@ATL@@QAE@XZ 100083f0 f i SoundPlayer.obj
 0001:00007430       ??1OposVariant@@QAE@XZ     10008430 f i SoundPlayer.obj
 0001:00007460       ??1_ATL_MODULE70@ATL@@QAE@XZ 10008460 f i SoundPlayer.obj
 0001:00007490       ??4?$CComPtr@UIAdviseSink@@@ATL@@QAEPAUIAdviseSink@@PAU2@@Z 10008490 f i SoundPlayer.obj
 0001:000074f0       ??4?$CComPtr@UIOleClientSite@@@ATL@@QAEPAUIOleClientSite@@PAU2@@Z 100084f0 f i SoundPlayer.obj
 0001:00007550       ??4?$CComPtr@UIUnknown@@@ATL@@QAEPAUIUnknown@@PAU2@@Z 10008550 f i SoundPlayer.obj
 0001:000075b0       ??4?$CComQIPtr@UIOleObject@@$1?_GUID_00000112_0000_0000_c000_000000000046@@3U__s_GUID@@B@ATL@@QAEPAUIOleObject@@PAUIUnknown@@@Z 100085b0 f i SoundPlayer.obj
 0001:00007600       ??4?$CComQIPtr@UISpecifyPropertyPages@@$1?_GUID_b196b28b_bab4_101a_b69c_00aa00341d07@@3U__s_GUID@@B@ATL@@QAEPAUISpecifyPropertyPages@@PAUIUnknown@@@Z 10008600 f i SoundPlayer.obj
 0001:00007650       ??7?$CComPtrBase@UIOleClientSite@@@ATL@@QBE_NXZ 10008650 f i SoundPlayer.obj
 0001:00007690       ??7?$CComPtrBase@UIOleInPlaceSiteWindowless@@@ATL@@QBE_NXZ 10008690 f i SoundPlayer.obj
 0001:000076d0       ??7CComBSTR@ATL@@QBE_NXZ   100086d0 f i SoundPlayer.obj
 0001:00007710       ??8?$CComPtrBase@UIConnectionPointContainer@@@ATL@@QBE_NPAUIConnectionPointContainer@@@Z 10008710 f i SoundPlayer.obj
 0001:00007750       ??8?$CComPtrBase@UIDataAdviseHolder@@@ATL@@QBE_NPAUIDataAdviseHolder@@@Z 10008750 f i SoundPlayer.obj
 0001:00007790       ??8?$CComPtrBase@UIOleAdviseHolder@@@ATL@@QBE_NPAUIOleAdviseHolder@@@Z 10008790 f i SoundPlayer.obj
 0001:000077d0       ??8?$CComPtrBase@UIOleClientSite@@@ATL@@QBE_NPAUIOleClientSite@@@Z 100087d0 f i SoundPlayer.obj
 0001:00007810       ??8?$CComPtrBase@UIOleControlSite@@@ATL@@QBE_NPAUIOleControlSite@@@Z 10008810 f i SoundPlayer.obj
 0001:00007850       ??8?$CComPtrBase@UIOleInPlaceObject@@@ATL@@QBE_NPAUIOleInPlaceObject@@@Z 10008850 f i SoundPlayer.obj
 0001:00007890       ??8?$CComPtrBase@UIOleInPlaceSiteWindowless@@@ATL@@QBE_NPAUIOleInPlaceSiteWindowless@@@Z 10008890 f i SoundPlayer.obj
 0001:000078d0       ??8?$CComPtrBase@UIOleObject@@@ATL@@QBE_NPAUIOleObject@@@Z 100088d0 f i SoundPlayer.obj
 0001:00007910       ??8?$CComPtrBase@UIPersistStream@@@ATL@@QBE_NPAUIPersistStream@@@Z 10008910 f i SoundPlayer.obj
 0001:00007950       ??8?$CComPtrBase@UIPersistStreamInit@@@ATL@@QBE_NPAUIPersistStreamInit@@@Z 10008950 f i SoundPlayer.obj
 0001:00007990       ??8?$CComPtrBase@UIPointerInactive@@@ATL@@QBE_NPAUIPointerInactive@@@Z 10008990 f i SoundPlayer.obj
 0001:000079d0       ??8?$CComPtrBase@UIUnknown@@@ATL@@QBE_NPAUIUnknown@@@Z 100089d0 f i SoundPlayer.obj
 0001:00007a10       ??8?$CComPtrBase@UIViewObjectEx@@@ATL@@QBE_NPAUIViewObjectEx@@@Z 10008a10 f i SoundPlayer.obj
 0001:00007a50       ??8CComBSTR@ATL@@QBE_NH@Z  10008a50 f i SoundPlayer.obj
 0001:00007ab0       ??9?$CComPtrBase@UIConnectionPointContainer@@@ATL@@QBE_NPAUIConnectionPointContainer@@@Z 10008ab0 f i SoundPlayer.obj
 0001:00007b00       ??9?$CComPtrBase@UIDataAdviseHolder@@@ATL@@QBE_NPAUIDataAdviseHolder@@@Z 10008b00 f i SoundPlayer.obj
 0001:00007b50       ??9?$CComPtrBase@UIOleAdviseHolder@@@ATL@@QBE_NPAUIOleAdviseHolder@@@Z 10008b50 f i SoundPlayer.obj
 0001:00007ba0       ??9?$CComPtrBase@UIOleClientSite@@@ATL@@QBE_NPAUIOleClientSite@@@Z 10008ba0 f i SoundPlayer.obj
 0001:00007bf0       ??9?$CComPtrBase@UIOleControlSite@@@ATL@@QBE_NPAUIOleControlSite@@@Z 10008bf0 f i SoundPlayer.obj
 0001:00007c40       ??9?$CComPtrBase@UIOleInPlaceObject@@@ATL@@QBE_NPAUIOleInPlaceObject@@@Z 10008c40 f i SoundPlayer.obj
 0001:00007c90       ??9?$CComPtrBase@UIOleInPlaceSiteWindowless@@@ATL@@QBE_NPAUIOleInPlaceSiteWindowless@@@Z 10008c90 f i SoundPlayer.obj
 0001:00007ce0       ??9?$CComPtrBase@UIOleObject@@@ATL@@QBE_NPAUIOleObject@@@Z 10008ce0 f i SoundPlayer.obj
 0001:00007d30       ??9?$CComPtrBase@UIPersistStream@@@ATL@@QBE_NPAUIPersistStream@@@Z 10008d30 f i SoundPlayer.obj
 0001:00007d80       ??9?$CComPtrBase@UIPersistStreamInit@@@ATL@@QBE_NPAUIPersistStreamInit@@@Z 10008d80 f i SoundPlayer.obj
 0001:00007dd0       ??9?$CComPtrBase@UIPointerInactive@@@ATL@@QBE_NPAUIPointerInactive@@@Z 10008dd0 f i SoundPlayer.obj
 0001:00007e20       ??9?$CComPtrBase@UIUnknown@@@ATL@@QBE_NPAUIUnknown@@@Z 10008e20 f i SoundPlayer.obj
 0001:00007e70       ??9?$CComPtrBase@UIViewObjectEx@@@ATL@@QBE_NPAUIViewObjectEx@@@Z 10008e70 f i SoundPlayer.obj
 0001:00007ec0       ??9CComBSTR@ATL@@QBE_NH@Z  10008ec0 f i SoundPlayer.obj
 0001:00007f10       ??B?$CComPtrBase@UIAdviseSink@@@ATL@@QBEPAUIAdviseSink@@XZ 10008f10 f i SoundPlayer.obj
 0001:00007f30       ??B?$CComPtrBase@UIDataAdviseHolder@@@ATL@@QBEPAUIDataAdviseHolder@@XZ 10008f30 f i SoundPlayer.obj
 0001:00007f50       ??B?$CComPtrBase@UIDataObject@@@ATL@@QBEPAUIDataObject@@XZ 10008f50 f i SoundPlayer.obj
 0001:00007f70       ??B?$CComPtrBase@UIOleAdviseHolder@@@ATL@@QBEPAUIOleAdviseHolder@@XZ 10008f70 f i SoundPlayer.obj
 0001:00007f90       ??B?$CComPtrBase@UIOleClientSite@@@ATL@@QBEPAUIOleClientSite@@XZ 10008f90 f i SoundPlayer.obj
 0001:00007fb0       ??B?$CComPtrBase@UIOleControlSite@@@ATL@@QBEPAUIOleControlSite@@XZ 10008fb0 f i SoundPlayer.obj
 0001:00007fd0       ??B?$CComPtrBase@UIOleInPlaceActiveObject@@@ATL@@QBEPAUIOleInPlaceActiveObject@@XZ 10008fd0 f i SoundPlayer.obj
 0001:00007ff0       ??B?$CComPtrBase@UIOleInPlaceFrame@@@ATL@@QBEPAUIOleInPlaceFrame@@XZ 10008ff0 f i SoundPlayer.obj
 0001:00008010       ??B?$CComPtrBase@UIOleInPlaceSiteWindowless@@@ATL@@QBEPAUIOleInPlaceSiteWindowless@@XZ 10009010 f i SoundPlayer.obj
 0001:00008030       ??B?$CComPtrBase@UIOleInPlaceUIWindow@@@ATL@@QBEPAUIOleInPlaceUIWindow@@XZ 10009030 f i SoundPlayer.obj
 0001:00008050       ??B?$CComPtrBase@UIOleObject@@@ATL@@QBEPAUIOleObject@@XZ 10009050 f i SoundPlayer.obj
 0001:00008070       ??B?$CComPtrBase@UIPersistStream@@@ATL@@QBEPAUIPersistStream@@XZ 10009070 f i SoundPlayer.obj
 0001:00008090       ??B?$CComPtrBase@UIProvideClassInfo2@@@ATL@@QBEPAUIProvideClassInfo2@@XZ 10009090 f i SoundPlayer.obj
 0001:000080b0       ??B?$CComPtrBase@UISpecifyPropertyPages@@@ATL@@QBEPAUISpecifyPropertyPages@@XZ 100090b0 f i SoundPlayer.obj
 0001:000080d0       ??B?$CComPtrBase@UIStream@@@ATL@@QBEPAUIStream@@XZ 100090d0 f i SoundPlayer.obj
 0001:000080f0       ??B?$CComPtrBase@UITypeInfo2@@@ATL@@QBEPAUITypeInfo2@@XZ 100090f0 f i SoundPlayer.obj
 0001:00008110       ??B?$CComPtrBase@UITypeInfo@@@ATL@@QBEPAUITypeInfo@@XZ 10009110 f i SoundPlayer.obj
 0001:00008130       ??B?$CComPtrBase@UITypeLib@@@ATL@@QBEPAUITypeLib@@XZ 10009130 f i SoundPlayer.obj
 0001:00008150       ??B?$CComPtrBase@UIUnknown@@@ATL@@QBEPAUIUnknown@@XZ 10009150 f i SoundPlayer.obj
 0001:00008170       ??B?$CTempBuffer@E$0BAA@VCCRTAllocator@ATL@@@ATL@@QBEPAEXZ 10009170 f i SoundPlayer.obj
 0001:00008190       ??B?$CTempBuffer@_W$0BAA@VCCRTAllocator@ATL@@@ATL@@QBEPA_WXZ 10009190 f i SoundPlayer.obj
 0001:000081b0       ??B?$CTempBuffer@_W$0EAA@VCCRTAllocator@ATL@@@ATL@@QBEPA_WXZ 100091b0 f i SoundPlayer.obj
 0001:000081d0       ??B?$CTraceCategoryEx@$00$0A@@ATL@@QAEIXZ 100091d0 f i SoundPlayer.obj
 0001:000081f0       ??B?$CTraceCategoryEx@$07$0A@@ATL@@QAEIXZ 100091f0 f i SoundPlayer.obj
 0001:00008210       ??B?$CTraceCategoryEx@$0CAAA@$0A@@ATL@@QAEIXZ 10009210 f i SoundPlayer.obj
 0001:00008230       ??B?$CTraceCategoryEx@$0EA@$0A@@ATL@@QAEIXZ 10009230 f i SoundPlayer.obj
 0001:00008250       ??B?$CTraceCategoryEx@$0IAA@$0A@@ATL@@QAEIXZ 10009250 f i SoundPlayer.obj
 0001:00008270       ??BCComBSTR@ATL@@QBEPA_WXZ 10009270 f i SoundPlayer.obj
 0001:00008290       ??BCRegKey@ATL@@QBEPAUHKEY__@@XZ 10009290 f i SoundPlayer.obj
 0001:000082b0       ??C?$CComPtrBase@UIAdviseSink@@@ATL@@QBEPAV?$_NoAddRefReleaseOnCComPtr@UIAdviseSink@@@1@XZ 100092b0 f i SoundPlayer.obj
 0001:00008300       ??C?$CComPtrBase@UICatRegister@@@ATL@@QBEPAV?$_NoAddRefReleaseOnCComPtr@UICatRegister@@@1@XZ 10009300 f i SoundPlayer.obj
 0001:00008350       ??C?$CComPtrBase@UIConnectionPoint@@@ATL@@QBEPAV?$_NoAddRefReleaseOnCComPtr@UIConnectionPoint@@@1@XZ 10009350 f i SoundPlayer.obj
 0001:000083a0       ??C?$CComPtrBase@UIConnectionPointContainer@@@ATL@@QBEPAV?$_NoAddRefReleaseOnCComPtr@UIConnectionPointContainer@@@1@XZ 100093a0 f i SoundPlayer.obj
 0001:000083f0       ??C?$CComPtrBase@UIDataAdviseHolder@@@ATL@@QBEPAV?$_NoAddRefReleaseOnCComPtr@UIDataAdviseHolder@@@1@XZ 100093f0 f i SoundPlayer.obj
 0001:00008440       ??C?$CComPtrBase@UIOleAdviseHolder@@@ATL@@QBEPAV?$_NoAddRefReleaseOnCComPtr@UIOleAdviseHolder@@@1@XZ 10009440 f i SoundPlayer.obj
 0001:00008490       ??C?$CComPtrBase@UIOleClientSite@@@ATL@@QBEPAV?$_NoAddRefReleaseOnCComPtr@UIOleClientSite@@@1@XZ 10009490 f i SoundPlayer.obj
 0001:000084e0       ??C?$CComPtrBase@UIOleControlSite@@@ATL@@QBEPAV?$_NoAddRefReleaseOnCComPtr@UIOleControlSite@@@1@XZ 100094e0 f i SoundPlayer.obj
 0001:00008530       ??C?$CComPtrBase@UIOleInPlaceFrame@@@ATL@@QBEPAV?$_NoAddRefReleaseOnCComPtr@UIOleInPlaceFrame@@@1@XZ 10009530 f i SoundPlayer.obj
 0001:00008580       ??C?$CComPtrBase@UIOleInPlaceObject@@@ATL@@QBEPAV?$_NoAddRefReleaseOnCComPtr@UIOleInPlaceObject@@@1@XZ 10009580 f i SoundPlayer.obj
 0001:000085d0       ??C?$CComPtrBase@UIOleInPlaceSiteWindowless@@@ATL@@QBEPAV?$_NoAddRefReleaseOnCComPtr@UIOleInPlaceSiteWindowless@@@1@XZ 100095d0 f i SoundPlayer.obj
 0001:00008620       ??C?$CComPtrBase@UIOleInPlaceUIWindow@@@ATL@@QBEPAV?$_NoAddRefReleaseOnCComPtr@UIOleInPlaceUIWindow@@@1@XZ 10009620 f i SoundPlayer.obj
 0001:00008670       ??C?$CComPtrBase@UIOleObject@@@ATL@@QBEPAV?$_NoAddRefReleaseOnCComPtr@UIOleObject@@@1@XZ 10009670 f i SoundPlayer.obj
 0001:000086c0       ??C?$CComPtrBase@UIPersistStream@@@ATL@@QBEPAV?$_NoAddRefReleaseOnCComPtr@UIPersistStream@@@1@XZ 100096c0 f i SoundPlayer.obj
 0001:00008710       ??C?$CComPtrBase@UIPersistStreamInit@@@ATL@@QBEPAV?$_NoAddRefReleaseOnCComPtr@UIPersistStreamInit@@@1@XZ 10009710 f i SoundPlayer.obj
 0001:00008760       ??C?$CComPtrBase@UIPointerInactive@@@ATL@@QBEPAV?$_NoAddRefReleaseOnCComPtr@UIPointerInactive@@@1@XZ 10009760 f i SoundPlayer.obj
 0001:000087b0       ??C?$CComPtrBase@UIProvideClassInfo2@@@ATL@@QBEPAV?$_NoAddRefReleaseOnCComPtr@UIProvideClassInfo2@@@1@XZ 100097b0 f i SoundPlayer.obj
 0001:00008800       ??C?$CComPtrBase@UISpecifyPropertyPages@@@ATL@@QBEPAV?$_NoAddRefReleaseOnCComPtr@UISpecifyPropertyPages@@@1@XZ 10009800 f i SoundPlayer.obj
 0001:00008850       ??C?$CComPtrBase@UITypeInfo@@@ATL@@QBEPAV?$_NoAddRefReleaseOnCComPtr@UITypeInfo@@@1@XZ 10009850 f i SoundPlayer.obj
 0001:000088a0       ??C?$CComPtrBase@UITypeLib@@@ATL@@QBEPAV?$_NoAddRefReleaseOnCComPtr@UITypeLib@@@1@XZ 100098a0 f i SoundPlayer.obj
 0001:000088f0       ??C?$CComPtrBase@UIUnknown@@@ATL@@QBEPAV?$_NoAddRefReleaseOnCComPtr@UIUnknown@@@1@XZ 100098f0 f i SoundPlayer.obj
 0001:00008940       ??C?$CComPtrBase@UIViewObjectEx@@@ATL@@QBEPAV?$_NoAddRefReleaseOnCComPtr@UIViewObjectEx@@@1@XZ 10009940 f i SoundPlayer.obj
 0001:00008990       ??I?$CComPtrBase@UICatRegister@@@ATL@@QAEPAPAUICatRegister@@XZ 10009990 f i SoundPlayer.obj
 0001:000089e0       ??I?$CComPtrBase@UIConnectionPoint@@@ATL@@QAEPAPAUIConnectionPoint@@XZ 100099e0 f i SoundPlayer.obj
 0001:00008a30       ??I?$CComPtrBase@UIConnectionPointContainer@@@ATL@@QAEPAPAUIConnectionPointContainer@@XZ 10009a30 f i SoundPlayer.obj
 0001:00008a80       ??I?$CComPtrBase@UIDataAdviseHolder@@@ATL@@QAEPAPAUIDataAdviseHolder@@XZ 10009a80 f i SoundPlayer.obj
 0001:00008ad0       ??I?$CComPtrBase@UIDataObject@@@ATL@@QAEPAPAUIDataObject@@XZ 10009ad0 f i SoundPlayer.obj
 0001:00008b20       ??I?$CComPtrBase@UIDispatch@@@ATL@@QAEPAPAUIDispatch@@XZ 10009b20 f i SoundPlayer.obj
 0001:00008b70       ??I?$CComPtrBase@UIOleAdviseHolder@@@ATL@@QAEPAPAUIOleAdviseHolder@@XZ 10009b70 f i SoundPlayer.obj
 0001:00008bc0       ??I?$CComPtrBase@UIOleControlSite@@@ATL@@QAEPAPAUIOleControlSite@@XZ 10009bc0 f i SoundPlayer.obj
 0001:00008c10       ??I?$CComPtrBase@UIOleInPlaceActiveObject@@@ATL@@QAEPAPAUIOleInPlaceActiveObject@@XZ 10009c10 f i SoundPlayer.obj
 0001:00008c60       ??I?$CComPtrBase@UIOleInPlaceFrame@@@ATL@@QAEPAPAUIOleInPlaceFrame@@XZ 10009c60 f i SoundPlayer.obj
 0001:00008cb0       ??I?$CComPtrBase@UIOleInPlaceObject@@@ATL@@QAEPAPAUIOleInPlaceObject@@XZ 10009cb0 f i SoundPlayer.obj
 0001:00008d00       ??I?$CComPtrBase@UIOleInPlaceSiteWindowless@@@ATL@@QAEPAPAUIOleInPlaceSiteWindowless@@XZ 10009d00 f i SoundPlayer.obj
 0001:00008d50       ??I?$CComPtrBase@UIOleInPlaceUIWindow@@@ATL@@QAEPAPAUIOleInPlaceUIWindow@@XZ 10009d50 f i SoundPlayer.obj
 0001:00008da0       ??I?$CComPtrBase@UIOleObject@@@ATL@@QAEPAPAUIOleObject@@XZ 10009da0 f i SoundPlayer.obj
 0001:00008df0       ??I?$CComPtrBase@UIPersistStream@@@ATL@@QAEPAPAUIPersistStream@@XZ 10009df0 f i SoundPlayer.obj
 0001:00008e40       ??I?$CComPtrBase@UIPointerInactive@@@ATL@@QAEPAPAUIPointerInactive@@XZ 10009e40 f i SoundPlayer.obj
 0001:00008e90       ??I?$CComPtrBase@UIProvideClassInfo2@@@ATL@@QAEPAPAUIProvideClassInfo2@@XZ 10009e90 f i SoundPlayer.obj
 0001:00008ee0       ??I?$CComPtrBase@UIStream@@@ATL@@QAEPAPAUIStream@@XZ 10009ee0 f i SoundPlayer.obj
 0001:00008f30       ??I?$CComPtrBase@UITypeInfo2@@@ATL@@QAEPAPAUITypeInfo2@@XZ 10009f30 f i SoundPlayer.obj
 0001:00008f80       ??I?$CComPtrBase@UITypeInfo@@@ATL@@QAEPAPAUITypeInfo@@XZ 10009f80 f i SoundPlayer.obj
 0001:00008fd0       ??I?$CComPtrBase@UITypeLib@@@ATL@@QAEPAPAUITypeLib@@XZ 10009fd0 f i SoundPlayer.obj
 0001:00009020       ??I?$CComPtrBase@UIUnknown@@@ATL@@QAEPAPAUIUnknown@@XZ 1000a020 f i SoundPlayer.obj
 0001:00009070       ??I?$CComPtrBase@UIViewObjectEx@@@ATL@@QAEPAPAUIViewObjectEx@@XZ 1000a070 f i SoundPlayer.obj
 0001:000090c0       ??ICComBSTR@ATL@@QAEPAPA_WXZ 1000a0c0 f i SoundPlayer.obj
 0001:000090d5       ??_E?$CComContainedObject@VCOPOSSoundPlayer@@@ATL@@W3AEPAXI@Z 1000a0d5 f i SoundPlayer.obj
 0001:000090dd       ??_E?$CComContainedObject@VCOPOSSoundPlayer@@@ATL@@WEM@AEPAXI@Z 1000a0dd f i SoundPlayer.obj
 0001:000090e5       ??_E?$CComObject@VCOPOSSoundPlayer@@@ATL@@W3AEPAXI@Z 1000a0e5 f i SoundPlayer.obj
 0001:000090ed       ??_E?$CComObject@VCOPOSSoundPlayer@@@ATL@@WEM@AEPAXI@Z 1000a0ed f i SoundPlayer.obj
 0001:00009100       ??_E?$CComAggObject@VCOPOSSoundPlayer@@@ATL@@UAEPAXI@Z 1000a100 f i SoundPlayer.obj
 0001:00009100       ??_G?$CComAggObject@VCOPOSSoundPlayer@@@ATL@@UAEPAXI@Z 1000a100 f i SoundPlayer.obj
 0001:00009150       ??_E?$CComContainedObject@VCOPOSSoundPlayer@@@ATL@@UAEPAXI@Z 1000a150 f i SoundPlayer.obj
 0001:00009150       ??_G?$CComContainedObject@VCOPOSSoundPlayer@@@ATL@@UAEPAXI@Z 1000a150 f i SoundPlayer.obj
 0001:000091a0       ??_E?$CComObject@V?$CComEnum@UIEnumConnectionPoints@@$1?_GUID_b196b285_bab4_101a_b69c_00aa00341d07@@3U__s_GUID@@BPAUIConnectionPoint@@V?$_CopyInterface@UIConnectionPoint@@@ATL@@VCComSingleThreadModel@6@@ATL@@@ATL@@UAEPAXI@Z 1000a1a0 f i SoundPlayer.obj
 0001:000091a0       ??_G?$CComObject@V?$CComEnum@UIEnumConnectionPoints@@$1?_GUID_b196b285_bab4_101a_b69c_00aa00341d07@@3U__s_GUID@@BPAUIConnectionPoint@@V?$_CopyInterface@UIConnectionPoint@@@ATL@@VCComSingleThreadModel@6@@ATL@@@ATL@@UAEPAXI@Z 1000a1a0 f i SoundPlayer.obj
 0001:000091e0       ??_E?$CComObject@V?$CComEnum@UIEnumConnections@@$1?_GUID_b196b287_bab4_101a_b69c_00aa00341d07@@3U__s_GUID@@BUtagCONNECTDATA@@V?$_Copy@UtagCONNECTDATA@@@ATL@@VCComSingleThreadModel@6@@ATL@@@ATL@@UAEPAXI@Z 1000a1e0 f i SoundPlayer.obj
 0001:000091e0       ??_G?$CComObject@V?$CComEnum@UIEnumConnections@@$1?_GUID_b196b287_bab4_101a_b69c_00aa00341d07@@3U__s_GUID@@BUtagCONNECTDATA@@V?$_Copy@UtagCONNECTDATA@@@ATL@@VCComSingleThreadModel@6@@ATL@@@ATL@@UAEPAXI@Z 1000a1e0 f i SoundPlayer.obj
 0001:00009220       ??_E?$CComObject@VCOPOSSoundPlayer@@@ATL@@UAEPAXI@Z 1000a220 f i SoundPlayer.obj
 0001:00009220       ??_G?$CComObject@VCOPOSSoundPlayer@@@ATL@@UAEPAXI@Z 1000a220 f i SoundPlayer.obj
 0001:00009270       ??_G?$CComObjectCached@VCComClassFactory@ATL@@@ATL@@UAEPAXI@Z 1000a270 f i SoundPlayer.obj
 0001:00009270       ??_E?$CComObjectCached@VCComClassFactory@ATL@@@ATL@@UAEPAXI@Z 1000a270 f i SoundPlayer.obj
 0001:000092b0       ??_ECComClassFactory@ATL@@UAEPAXI@Z 1000a2b0 f i SoundPlayer.obj
 0001:000092b0       ??_GCComClassFactory@ATL@@UAEPAXI@Z 1000a2b0 f i SoundPlayer.obj
 0001:000092f0       ??_ECComModule@ATL@@UAEPAXI@Z 1000a2f0 f i SoundPlayer.obj
 0001:000092f0       ??_GCComModule@ATL@@UAEPAXI@Z 1000a2f0 f i SoundPlayer.obj
 0001:00009330       ??_ECRegObject@ATL@@UAEPAXI@Z 1000a330 f i SoundPlayer.obj
 0001:00009330       ??_GCRegObject@ATL@@UAEPAXI@Z 1000a330 f i SoundPlayer.obj
 0001:00009370       ?Add@?$CSimpleArray@GV?$CSimpleArrayEqualHelper@G@ATL@@@ATL@@QAEHABG@Z 1000a370 f i SoundPlayer.obj
 0001:000094c0       ?Add@?$CSimpleMap@PA_WPA_WVCExpansionVectorEqualHelper@ATL@@@ATL@@QAEHABQA_W0@Z 1000a4c0 f i SoundPlayer.obj
 0001:00009580       ?Add@CComDynamicUnkArray@ATL@@QAEKPAUIUnknown@@@Z 1000a580 f i SoundPlayer.obj
 0001:00009720       ?Add@CExpansionVector@ATL@@QAEHPB_W0@Z 1000a720 f i SoundPlayer.obj
 0001:000099b0       ?AddChar@CParseBuffer@CRegParser@ATL@@QAEHPB_W@Z 1000a9b0 f i SoundPlayer.obj
 0001:000099f0       ?AddCommonRGSReplacements@?$CAtlModuleT@VCComModule@ATL@@@ATL@@UAEJPAUIRegistrarBase@@@Z 1000a9f0 f i SoundPlayer.obj
 0001:00009a40       ?AddCreateWndData@CAtlWinModule@ATL@@QAEXPAU_AtlCreateWndData@2@PAX@Z 1000aa40 f i SoundPlayer.obj
 0001:00009a70       ?AddRef@?$CComAggObject@VCOPOSSoundPlayer@@@ATL@@UAGKXZ 1000aa70 f i SoundPlayer.obj
 0001:00009a90       ?AddRef@?$CComContainedObject@VCOPOSSoundPlayer@@@ATL@@UAGKXZ 1000aa90 f i SoundPlayer.obj
 0001:00009aac       ?AddRef@?$CComContainedObject@VCOPOSSoundPlayer@@@ATL@@WHA@AGKXZ 1000aaac f i SoundPlayer.obj
 0001:00009ab6       ?AddRef@?$CComContainedObject@VCOPOSSoundPlayer@@@ATL@@WHE@AGKXZ 1000aab6 f i SoundPlayer.obj
 0001:00009ac0       ?AddRef@?$CComContainedObject@VCOPOSSoundPlayer@@@ATL@@WHI@AGKXZ 1000aac0 f i SoundPlayer.obj
 0001:00009aca       ?AddRef@?$CComContainedObject@VCOPOSSoundPlayer@@@ATL@@WHM@AGKXZ 1000aaca f i SoundPlayer.obj
 0001:00009ad4       ?AddRef@?$CComContainedObject@VCOPOSSoundPlayer@@@ATL@@WIA@AGKXZ 1000aad4 f i SoundPlayer.obj
 0001:00009ae1       ?AddRef@?$CComContainedObject@VCOPOSSoundPlayer@@@ATL@@WIE@AGKXZ 1000aae1 f i SoundPlayer.obj
 0001:00009aee       ?AddRef@?$CComContainedObject@VCOPOSSoundPlayer@@@ATL@@WII@AGKXZ 1000aaee f i SoundPlayer.obj
 0001:00009afb       ?AddRef@?$CComContainedObject@VCOPOSSoundPlayer@@@ATL@@WIM@AGKXZ 1000aafb f i SoundPlayer.obj
 0001:00009b08       ?AddRef@?$CComContainedObject@VCOPOSSoundPlayer@@@ATL@@WJA@AGKXZ 1000ab08 f i SoundPlayer.obj
 0001:00009b15       ?AddRef@?$CComContainedObject@VCOPOSSoundPlayer@@@ATL@@WJE@AGKXZ 1000ab15 f i SoundPlayer.obj
 0001:00009b22       ?AddRef@?$CComContainedObject@VCOPOSSoundPlayer@@@ATL@@WJI@AGKXZ 1000ab22 f i SoundPlayer.obj
 0001:00009b2f       ?AddRef@?$CComContainedObject@VCOPOSSoundPlayer@@@ATL@@WJM@AGKXZ 1000ab2f f i SoundPlayer.obj
 0001:00009b3c       ?AddRef@?$CComContainedObject@VCOPOSSoundPlayer@@@ATL@@WKA@AGKXZ 1000ab3c f i SoundPlayer.obj
 0001:00009b49       ?AddRef@?$CComContainedObject@VCOPOSSoundPlayer@@@ATL@@WKI@AGKXZ 1000ab49 f i SoundPlayer.obj
 0001:00009b56       ?AddRef@?$CComContainedObject@VCOPOSSoundPlayer@@@ATL@@WLE@AGKXZ 1000ab56 f i SoundPlayer.obj
 0001:00009b70       ?AddRef@?$CComObject@V?$CComEnum@UIEnumConnectionPoints@@$1?_GUID_b196b285_bab4_101a_b69c_00aa00341d07@@3U__s_GUID@@BPAUIConnectionPoint@@V?$_CopyInterface@UIConnectionPoint@@@ATL@@VCComSingleThreadModel@6@@ATL@@@ATL@@UAGKXZ 1000ab70 f i SoundPlayer.obj
 0001:00009b90       ?AddRef@?$CComObject@V?$CComEnum@UIEnumConnections@@$1?_GUID_b196b287_bab4_101a_b69c_00aa00341d07@@3U__s_GUID@@BUtagCONNECTDATA@@V?$_Copy@UtagCONNECTDATA@@@ATL@@VCComSingleThreadModel@6@@ATL@@@ATL@@UAGKXZ 1000ab90 f i SoundPlayer.obj
 0001:00009bb0       ?AddRef@?$CComObject@VCOPOSSoundPlayer@@@ATL@@UAGKXZ 1000abb0 f i SoundPlayer.obj
 0001:00009bcc       ?AddRef@?$CComObject@VCOPOSSoundPlayer@@@ATL@@WHA@AGKXZ 1000abcc f i SoundPlayer.obj
 0001:00009bd6       ?AddRef@?$CComObject@VCOPOSSoundPlayer@@@ATL@@WHE@AGKXZ 1000abd6 f i SoundPlayer.obj
 0001:00009be0       ?AddRef@?$CComObject@VCOPOSSoundPlayer@@@ATL@@WHI@AGKXZ 1000abe0 f i SoundPlayer.obj
 0001:00009bea       ?AddRef@?$CComObject@VCOPOSSoundPlayer@@@ATL@@WHM@AGKXZ 1000abea f i SoundPlayer.obj
 0001:00009bf4       ?AddRef@?$CComObject@VCOPOSSoundPlayer@@@ATL@@WIA@AGKXZ 1000abf4 f i SoundPlayer.obj
 0001:00009c01       ?AddRef@?$CComObject@VCOPOSSoundPlayer@@@ATL@@WIE@AGKXZ 1000ac01 f i SoundPlayer.obj
 0001:00009c0e       ?AddRef@?$CComObject@VCOPOSSoundPlayer@@@ATL@@WII@AGKXZ 1000ac0e f i SoundPlayer.obj
 0001:00009c1b       ?AddRef@?$CComObject@VCOPOSSoundPlayer@@@ATL@@WIM@AGKXZ 1000ac1b f i SoundPlayer.obj
 0001:00009c28       ?AddRef@?$CComObject@VCOPOSSoundPlayer@@@ATL@@WJA@AGKXZ 1000ac28 f i SoundPlayer.obj
 0001:00009c35       ?AddRef@?$CComObject@VCOPOSSoundPlayer@@@ATL@@WJE@AGKXZ 1000ac35 f i SoundPlayer.obj
 0001:00009c42       ?AddRef@?$CComObject@VCOPOSSoundPlayer@@@ATL@@WJI@AGKXZ 1000ac42 f i SoundPlayer.obj
 0001:00009c4f       ?AddRef@?$CComObject@VCOPOSSoundPlayer@@@ATL@@WJM@AGKXZ 1000ac4f f i SoundPlayer.obj
 0001:00009c5c       ?AddRef@?$CComObject@VCOPOSSoundPlayer@@@ATL@@WKA@AGKXZ 1000ac5c f i SoundPlayer.obj
 0001:00009c69       ?AddRef@?$CComObject@VCOPOSSoundPlayer@@@ATL@@WKI@AGKXZ 1000ac69 f i SoundPlayer.obj
 0001:00009c76       ?AddRef@?$CComObject@VCOPOSSoundPlayer@@@ATL@@WLE@AGKXZ 1000ac76 f i SoundPlayer.obj
 0001:00009c90       ?AddRef@?$CComObjectCached@VCComClassFactory@ATL@@@ATL@@UAGKXZ 1000ac90 f i SoundPlayer.obj
 0001:00009ce0       ?AddRef@CRegObject@ATL@@UAGKXZ 1000ace0 f i SoundPlayer.obj
 0001:00009d30       ?AddReplacement@CRegObject@ATL@@UAGJPB_W0@Z 1000ad30 f i SoundPlayer.obj
 0001:00009e40       ?AddString@CParseBuffer@CRegParser@ATL@@QAEHPB_W@Z 1000ae40 f i SoundPlayer.obj
 0001:00009f30       ?AddTermFunc@CAtlModule@ATL@@QAEJP6GXK@ZK@Z 1000af30 f i SoundPlayer.obj
 0001:00009f80       ?AddValue@CRegParser@ATL@@IAEJAAVCRegKey@2@PB_WPA_W@Z 1000af80 f i SoundPlayer.obj
 0001:0000a710       ?Advise@?$CProxy_IOPOSEvents@VCOPOSSoundPlayer@@@@UAGJPAUIUnknown@@PAK@Z 1000b710 f i SoundPlayer.obj
 0001:0000a760       ?Advise@?$IConnectionPointImpl@VCOPOSSoundPlayer@@$1?DIID__IOPOSSoundPlayerEvents@@3U_GUID@@BVCComDynamicUnkArray@ATL@@@ATL@@UAGJPAUIUnknown@@PAK@Z 1000b760 f i SoundPlayer.obj
 0001:0000a900       ?Advise@?$IConnectionPointImpl@VCOPOSSoundPlayer@@$1?IID_IPropertyNotifySink@@3U_GUID@@BVCComDynamicUnkArray@ATL@@@ATL@@UAGJPAUIUnknown@@PAK@Z 1000b900 f i SoundPlayer.obj
 0001:0000aaa0       ?Advise@?$IOleObjectImpl@VCOPOSSoundPlayer@@@ATL@@UAGJPAUIAdviseSink@@PAK@Z 1000baa0 f i SoundPlayer.obj
 0001:0000ab30       ?Allocate@?$CAtlSafeAllocBufferManager@VCCRTAllocator@ATL@@@_ATL_SAFE_ALLOCA_IMPL@ATL@@QAEPAXK@Z 1000bb30 f i SoundPlayer.obj
 0001:0000aba0       ?Allocate@?$CTempBuffer@E$0BAA@VCCRTAllocator@ATL@@@ATL@@QAEPAEI@Z 1000bba0 f i SoundPlayer.obj
 0001:0000abe0       ?Allocate@?$CTempBuffer@_W$0BAA@VCCRTAllocator@ATL@@@ATL@@QAEPA_WI@Z 1000bbe0 f i SoundPlayer.obj
 0001:0000ac20       ?Allocate@?$CTempBuffer@_W$0EAA@VCCRTAllocator@ATL@@@ATL@@QAEPA_WI@Z 1000bc20 f i SoundPlayer.obj
 0001:0000ac60       ?AllocateBytes@?$CTempBuffer@E$0BAA@VCCRTAllocator@ATL@@@ATL@@QAEPAEI@Z 1000bc60 f i SoundPlayer.obj
 0001:0000ace0       ?AllocateBytes@?$CTempBuffer@_W$0BAA@VCCRTAllocator@ATL@@@ATL@@QAEPA_WI@Z 1000bce0 f i SoundPlayer.obj
 0001:0000ad60       ?AllocateBytes@?$CTempBuffer@_W$0EAA@VCCRTAllocator@ATL@@@ATL@@QAEPA_WI@Z 1000bd60 f i SoundPlayer.obj
 0001:0000ade0       ?AllocateHeap@?$CTempBuffer@E$0BAA@VCCRTAllocator@ATL@@@ATL@@AAEXI@Z 1000bde0 f i SoundPlayer.obj
 0001:0000ae30       ?AllocateHeap@?$CTempBuffer@_W$0BAA@VCCRTAllocator@ATL@@@ATL@@AAEXI@Z 1000be30 f i SoundPlayer.obj
 0001:0000ae80       ?AllocateHeap@?$CTempBuffer@_W$0EAA@VCCRTAllocator@ATL@@@ATL@@AAEXI@Z 1000be80 f i SoundPlayer.obj
 0001:0000aed0       ?Append@CParseBuffer@CRegParser@ATL@@QAEHPB_WH@Z 1000bed0 f i SoundPlayer.obj
 0001:0000b070       ?AtlCallTermFunc@ATL@@YGXPAU_ATL_MODULE70@1@@Z 1000c070 f i SoundPlayer.obj
 0001:0000b110       ?AtlCoTaskMemCAlloc@ATL@@YAPAXKK@Z 1000c110 f i SoundPlayer.obj
 0001:0000b1a0       ?AtlCoTaskMemRecalloc@ATL@@YAPAXPAXKK@Z 1000c1a0 f i SoundPlayer.obj
 0001:0000b240       ?AtlComModuleGetClassObject@ATL@@YGJPAU_ATL_COM_MODULE70@1@ABU_GUID@@1PAPAX@Z 1000c240 f i SoundPlayer.obj
 0001:0000b4d0       ?AtlComModuleRegisterServer@ATL@@YGJPAU_ATL_COM_MODULE70@1@HPBU_GUID@@@Z 1000c4d0 f i SoundPlayer.obj
 0001:0000b660       ?AtlComModuleUnregisterServer@ATL@@YGJPAU_ATL_COM_MODULE70@1@HPBU_GUID@@@Z 1000c660 f i SoundPlayer.obj
 0001:0000b790       ?AtlComQIPtrAssign2@ATL@@YAXPAPAUIUnknown@@PAU2@ABU_GUID@@@Z 1000c790 f i SoundPlayer.obj
 0001:0000b810       ?AtlCreateTargetDC@ATL@@YGPAUHDC__@@PAU2@PAUtagDVTARGETDEVICE@@@Z 1000c810 f i SoundPlayer.obj
 0001:0000b9b0       ?AtlCrtErrorCheck@ATL@@YAHH@Z 1000c9b0 f i SoundPlayer.obj
 0001:0000ba80       ?AtlGetPerUserRegistration@ATL@@YGJPA_N@Z 1000ca80 f i SoundPlayer.obj
 0001:0000bab0       ?AtlHiMetricToPixel@ATL@@YGXPBUtagSIZE@@PAU2@@Z 1000cab0 f i SoundPlayer.obj
 0001:0000bc80       ?AtlHresultFromLastError@ATL@@YAJXZ 1000cc80 f i SoundPlayer.obj
 0001:0000bcc0       ?AtlHresultFromWin32@ATL@@YAJK@Z 1000ccc0 f i SoundPlayer.obj
 0001:0000bce0       ?AtlIPersistStreamInit_Load@ATL@@YGJPAUIStream@@PBUATL_PROPMAP_ENTRY@1@PAXPAUIUnknown@@@Z 1000cce0 f i SoundPlayer.obj
 0001:0000c140       ?AtlIPersistStreamInit_Save@ATL@@YGJPAUIStream@@HPBUATL_PROPMAP_ENTRY@1@PAXPAUIUnknown@@@Z 1000d140 f i SoundPlayer.obj
 0001:0000c520       ?AtlInternalOleLoadFromStream@ATL@@YAJPAUIStream@@ABU_GUID@@PAPAXTClassesAllowedInStream@1@K@Z 1000d520 f i SoundPlayer.obj
 0001:0000c7c0       ?AtlInternalQueryInterface@ATL@@YGJPAXPBU_ATL_INTMAP_ENTRY@1@ABU_GUID@@PAPAX@Z 1000d7c0 f i SoundPlayer.obj
 0001:0000c9f0       ?AtlLoadTypeLib@ATL@@YGJPAUHINSTANCE__@@PB_WPAPA_WPAPAUITypeLib@@@Z 1000d9f0 f i SoundPlayer.obj
 0001:0000ce50       ?AtlModuleAddTermFunc@ATL@@YGJPAU_ATL_MODULE70@1@P6GXK@ZK@Z 1000de50 f i SoundPlayer.obj
 0001:0000cfb0       ?AtlRegisterClassCategoriesHelper@ATL@@YGJABU_GUID@@PBU_ATL_CATMAP_ENTRY@1@H@Z 1000dfb0 f i SoundPlayer.obj
 0001:0000d690       ?AtlRegisterTypeLib@ATL@@YGJPAUHINSTANCE__@@PB_W@Z 1000e690 f i SoundPlayer.obj
 0001:0000d9d0       ?AtlThrowImpl@ATL@@YGXJ@Z  1000e9d0 f i SoundPlayer.obj
 0001:0000da80       ?AtlUnRegisterTypeLib@ATL@@YGJPAUHINSTANCE__@@PB_W@Z 1000ea80 f i SoundPlayer.obj
 0001:0000dc90       ?AtlWinModuleAddCreateWndData@ATL@@YGXPAU_ATL_WIN_MODULE70@1@PAU_AtlCreateWndData@1@PAX@Z 1000ec90 f i SoundPlayer.obj
 0001:0000de00       ?AtlWinModuleExtractCreateWndData@ATL@@YGPAXPAU_ATL_WIN_MODULE70@1@@Z 1000ee00 f i SoundPlayer.obj
 0001:0000df80       ?AtlWinModuleRegisterClassExW@ATL@@YGGPAU_ATL_WIN_MODULE70@1@PBUtagWNDCLASSEXW@@@Z 1000ef80 f i SoundPlayer.obj
 0001:0000e050       ?AtlWinModuleRegisterWndClassInfoW@ATL@@YGGPAU_ATL_WIN_MODULE70@1@PAU_ATL_BASE_MODULE70@1@PAU_ATL_WNDCLASSINFOW@1@PAP6GJPAUHWND__@@IIJ@Z@Z 1000f050 f i SoundPlayer.obj
 0001:0000e0e0       ?Attach@?$CAutoVectorPtr@_W@ATL@@QAEXPA_W@Z 1000f0e0 f i SoundPlayer.obj
 0001:0000e140       ?Attach@CComBSTR@ATL@@QAEXPA_W@Z 1000f140 f i SoundPlayer.obj
 0001:0000e190       ?Attach@CRegKey@ATL@@QAEXPAUHKEY__@@@Z 1000f190 f i SoundPlayer.obj
 0001:0000e200       ?CanForceRemoveKey@CRegParser@ATL@@IAEHPB_W@Z 1000f200 f i SoundPlayer.obj
 0001:0000e270       ?ChToByte@CRegParser@ATL@@KAE_W@Z 1000f270 f i SoundPlayer.obj
 0001:0000e390       ?ChangeType@CComVariant@ATL@@QAEJGPBUtagVARIANT@@@Z 1000f390 f i SoundPlayer.obj
 0001:0000e3f0       ?Cleanup@CComTypeInfoHolder@ATL@@SGXK@Z 1000f3f0 f i SoundPlayer.obj
 0001:0000e4c0       ?Clear@CComVariant@ATL@@QAEJXZ 1000f4c0 f i SoundPlayer.obj
 0001:0000e500       ?ClearReplacements@CExpansionVector@ATL@@QAEJXZ 1000f500 f i SoundPlayer.obj
 0001:0000e590       ?ClearReplacements@CRegObject@ATL@@UAGJXZ 1000f590 f i SoundPlayer.obj
 0001:0000e5e0       ?Clone@?$CComEnumImpl@UIEnumConnectionPoints@@$1?_GUID_b196b285_bab4_101a_b69c_00aa00341d07@@3U__s_GUID@@BPAUIConnectionPoint@@V?$_CopyInterface@UIConnectionPoint@@@ATL@@@ATL@@UAGJPAPAUIEnumConnectionPoints@@@Z 1000f5e0 f i SoundPlayer.obj
 0001:0000e750       ?Clone@?$CComEnumImpl@UIEnumConnections@@$1?_GUID_b196b287_bab4_101a_b69c_00aa00341d07@@3U__s_GUID@@BUtagCONNECTDATA@@V?$_Copy@UtagCONNECTDATA@@@ATL@@@ATL@@UAGJPAPAUIEnumConnections@@@Z 1000f750 f i SoundPlayer.obj
 0001:0000e8c0       ?Close@?$IOleObjectImpl@VCOPOSSoundPlayer@@@ATL@@UAGJK@Z 1000f8c0 f i SoundPlayer.obj
 0001:0000e950       ?Close@CRegKey@ATL@@QAEJXZ 1000f950 f i SoundPlayer.obj
 0001:0000e9c0       ?ContextSensitiveHelp@?$IOleInPlaceActiveObjectImpl@VCOPOSSoundPlayer@@@ATL@@UAGJH@Z 1000f9c0 f i SoundPlayer.obj
 0001:0000ea30       ?ContextSensitiveHelp@?$IOleInPlaceObjectWindowlessImpl@VCOPOSSoundPlayer@@@ATL@@UAGJH@Z 1000fa30 f i SoundPlayer.obj
 0001:0000eaa0       ?ControlQueryInterface@?$CComControl@VCOPOSSoundPlayer@@V?$CWindowImpl@VCOPOSSoundPlayer@@VCWindow@ATL@@V?$CWinTraits@$0FGAAAAAA@$0A@@3@@ATL@@@ATL@@UAEJABU_GUID@@PAPAX@Z 1000faa0 f i SoundPlayer.obj
 0001:0000eb20       ?CreateControlWindow@?$CComControl@VCOPOSSoundPlayer@@V?$CWindowImpl@VCOPOSSoundPlayer@@VCWindow@ATL@@V?$CWinTraits@$0FGAAAAAA@$0A@@3@@ATL@@@ATL@@UAEPAUHWND__@@PAU3@AAUtagRECT@@@Z 1000fb20 f i SoundPlayer.obj
 0001:0000eba0       ?CreateInstance@?$CComCreator@V?$CComAggObject@VCOPOSSoundPlayer@@@ATL@@@ATL@@SGJPAXABU_GUID@@PAPAX@Z 1000fba0 f i SoundPlayer.obj
 0001:0000ed20       ?CreateInstance@?$CComCreator@V?$CComObject@VCOPOSSoundPlayer@@@ATL@@@ATL@@SGJPAXABU_GUID@@PAPAX@Z 1000fd20 f i SoundPlayer.obj
 0001:0000eeb0       ?CreateInstance@?$CComObject@V?$CComEnum@UIEnumConnectionPoints@@$1?_GUID_b196b285_bab4_101a_b69c_00aa00341d07@@3U__s_GUID@@BPAUIConnectionPoint@@V?$_CopyInterface@UIConnectionPoint@@@ATL@@VCComSingleThreadModel@6@@ATL@@@ATL@@SGJPAPAV12@@Z 1000feb0 f i SoundPlayer.obj
 0001:0000f020       ?CreateInstance@?$CComObject@V?$CComEnum@UIEnumConnections@@$1?_GUID_b196b287_bab4_101a_b69c_00aa00341d07@@3U__s_GUID@@BUtagCONNECTDATA@@V?$_Copy@UtagCONNECTDATA@@@ATL@@VCComSingleThreadModel@6@@ATL@@@ATL@@SGJPAPAV12@@Z 10010020 f i SoundPlayer.obj
 0001:0000f190       ?CreateInstance@CComClassFactory@ATL@@UAGJPAUIUnknown@@ABU_GUID@@PAPAX@Z 10010190 f i SoundPlayer.obj
 0001:0000f280       ?DAdvise@?$IDataObjectImpl@VCOPOSSoundPlayer@@@ATL@@UAGJPAUtagFORMATETC@@KPAUIAdviseSink@@PAK@Z 10010280 f i SoundPlayer.obj
 0001:0000f380       ?DEVMODEOLE2T_EX@@YAPAU_devicemodeW@@PAU1@@Z 10010380 f i SoundPlayer.obj
 0001:0000f390       ?DUnadvise@?$IDataObjectImpl@VCOPOSSoundPlayer@@@ATL@@UAGJK@Z 10010390 f i SoundPlayer.obj
 0001:0000f460       ?Decrement@CComMultiThreadModel@ATL@@SGKPAJ@Z 10010460 f i SoundPlayer.obj
 0001:0000f480       ?Decrement@CComSingleThreadModel@ATL@@SGKPAJ@Z 10010480 f i SoundPlayer.obj
 0001:0000f4a0       ?DefWindowProcW@?$CWindowImplBaseT@VCWindow@ATL@@V?$CWinTraits@$0FGAAAAAA@$0A@@2@@ATL@@QAEJIIJ@Z 100104a0 f i SoundPlayer.obj
 0001:0000f4f0       ?DefaultReflectionHandler@?$CWindowImplRoot@VCWindow@ATL@@@ATL@@SAHPAUHWND__@@IIJAAJ@Z 100104f0 f i SoundPlayer.obj
 0001:0000f6e0       ?DeleteSubKey@CRegKey@ATL@@QAEJPB_W@Z 100106e0 f i SoundPlayer.obj
 0001:0000f7f0       ?DeleteValue@CRegKey@ATL@@QAEJPB_W@Z 100107f0 f i SoundPlayer.obj
 0001:0000f860       ?Detach@?$CAutoVectorPtr@_W@ATL@@QAEPA_WXZ 10010860 f i SoundPlayer.obj
 0001:0000f890       ?Detach@?$CComPtrBase@UIPersistStream@@@ATL@@QAEPAUIPersistStream@@XZ 10010890 f i SoundPlayer.obj
 0001:0000f8c0       ?Detach@?$CComPtrBase@UITypeInfo@@@ATL@@QAEPAUITypeInfo@@XZ 100108c0 f i SoundPlayer.obj
 0001:0000f8f0       ?Detach@?$CComPtrBase@UIUnknown@@@ATL@@QAEPAUIUnknown@@XZ 100108f0 f i SoundPlayer.obj
 0001:0000f920       ?Detach@CComBSTR@ATL@@QAEPA_WXZ 10010920 f i SoundPlayer.obj
 0001:0000f950       ?Detach@CParseBuffer@CRegParser@ATL@@QAEPA_WXZ 10010950 f i SoundPlayer.obj
 0001:0000f9a0       ?Detach@CRegKey@ATL@@QAEPAUHKEY__@@XZ 100109a0 f i SoundPlayer.obj
 0001:0000f9f0       ?DoEvent@COPOSSoundPlayer@@IAEXIIJ@Z 100109f0 f i SoundPlayer.obj
 0001:0000fb30       ?DoVerb@?$IOleObjectImpl@VCOPOSSoundPlayer@@@ATL@@UAGJJPAUtagMSG@@PAUIOleClientSite@@JPAUHWND__@@PBUtagRECT@@@Z 10010b30 f i SoundPlayer.obj
 0001:0000fd40       ?DoVerbDiscardUndo@?$IOleObjectImpl@VCOPOSSoundPlayer@@@ATL@@QAEJPBUtagRECT@@PAUHWND__@@@Z 10010d40 f i SoundPlayer.obj
 0001:0000fdb0       ?DoVerbHide@?$IOleObjectImpl@VCOPOSSoundPlayer@@@ATL@@QAEJPBUtagRECT@@PAUHWND__@@@Z 10010db0 f i SoundPlayer.obj
 0001:0000fe60       ?DoVerbInPlaceActivate@?$IOleObjectImpl@VCOPOSSoundPlayer@@@ATL@@QAEJPBUtagRECT@@PAUHWND__@@@Z 10010e60 f i SoundPlayer.obj
 0001:0000ff00       ?DoVerbOpen@?$IOleObjectImpl@VCOPOSSoundPlayer@@@ATL@@QAEJPBUtagRECT@@PAUHWND__@@@Z 10010f00 f i SoundPlayer.obj
 0001:0000ff70       ?DoVerbPrimary@?$IOleObjectImpl@VCOPOSSoundPlayer@@@ATL@@QAEJPBUtagRECT@@PAUHWND__@@@Z 10010f70 f i SoundPlayer.obj
 0001:00010080       ?DoVerbProperties@CComControlBase@ATL@@QAEJPBUtagRECT@@PAUHWND__@@@Z 10011080 f i SoundPlayer.obj
 0001:000103a0       ?DoVerbShow@?$IOleObjectImpl@VCOPOSSoundPlayer@@@ATL@@QAEJPBUtagRECT@@PAUHWND__@@@Z 100113a0 f i SoundPlayer.obj
 0001:00010430       ?DoVerbUIActivate@?$IOleObjectImpl@VCOPOSSoundPlayer@@@ATL@@QAEJPBUtagRECT@@PAUHWND__@@@Z 10011430 f i SoundPlayer.obj
 0001:000104d0       ?DoesVerbActivate@CComControlBase@ATL@@QAEHJ@Z 100114d0 f i SoundPlayer.obj
 0001:00010540       ?DoesVerbUIActivate@CComControlBase@ATL@@QAEHJ@Z 10011540 f i SoundPlayer.obj
 0001:000105c0       ?Draw@?$IViewObjectExImpl@VCOPOSSoundPlayer@@@ATL@@UAGJKJPAXPAUtagDVTARGETDEVICE@@PAUHDC__@@2PBU_RECTL@@3P6GHK@ZK@Z 100115c0 f i SoundPlayer.obj
 0001:00010660       ?Empty@CComBSTR@ATL@@QAEXXZ 10011660 f i SoundPlayer.obj
 0001:000106a0       ?EnableModeless@?$IOleInPlaceActiveObjectImpl@VCOPOSSoundPlayer@@@ATL@@UAGJH@Z 100116a0 f i SoundPlayer.obj
 0001:00010700       ?EndOfVar@CRegParser@ATL@@IAEHXZ 10011700 f i SoundPlayer.obj
 0001:00010770       ?EnsureTI@CComTypeInfoHolder@ATL@@QAEJK@Z 10011770 f i SoundPlayer.obj
 0001:000107d0       ?EnumAdvise@?$IOleObjectImpl@VCOPOSSoundPlayer@@@ATL@@UAGJPAPAUIEnumSTATDATA@@@Z 100117d0 f i SoundPlayer.obj
 0001:000108e0       ?EnumConnectionPoints@?$IConnectionPointContainerImpl@VCOPOSSoundPlayer@@@ATL@@UAGJPAPAUIEnumConnectionPoints@@@Z 100118e0 f i SoundPlayer.obj
 0001:00010d10       ?EnumConnections@?$IConnectionPointImpl@VCOPOSSoundPlayer@@$1?DIID__IOPOSSoundPlayerEvents@@3U_GUID@@BVCComDynamicUnkArray@ATL@@@ATL@@UAGJPAPAUIEnumConnections@@@Z 10011d10 f i SoundPlayer.obj
 0001:00010f60       ?EnumConnections@?$IConnectionPointImpl@VCOPOSSoundPlayer@@$1?IID_IPropertyNotifySink@@3U_GUID@@BVCComDynamicUnkArray@ATL@@@ATL@@UAGJPAPAUIEnumConnections@@@Z 10011f60 f i SoundPlayer.obj
 0001:000111b0       ?EnumDAdvise@?$IDataObjectImpl@VCOPOSSoundPlayer@@@ATL@@UAGJPAPAUIEnumSTATDATA@@@Z 100121b0 f i SoundPlayer.obj
 0001:000112b0       ?EnumFormatEtc@?$IDataObjectImpl@VCOPOSSoundPlayer@@@ATL@@UAGJKPAPAUIEnumFORMATETC@@@Z 100122b0 f i SoundPlayer.obj
 0001:00011320       ?EnumVerbs@?$IOleObjectImpl@VCOPOSSoundPlayer@@@ATL@@UAGJPAPAUIEnumOLEVERB@@@Z 10012320 f i SoundPlayer.obj
 0001:000113d0       ?EscapeSingleQuote@CAtlModule@ATL@@SAXPA_WIPB_W@Z 100123d0 f i SoundPlayer.obj
 0001:00011480       ?ExtractCreateWndData@CAtlWinModule@ATL@@QAEPAXXZ 10012480 f i SoundPlayer.obj
 0001:000114b0       ?FAccessAllowed@?$IObjectSafetyImpl@VCOPOSSoundPlayer@@$02@ATL@@MAEHXZ 100124b0 f i SoundPlayer.obj
 0001:000114d0       ?FinalConstruct@?$CComAggObject@VCOPOSSoundPlayer@@@ATL@@QAEJXZ 100124d0 f i SoundPlayer.obj
 0001:00011510       ?FinalConstruct@CComObjectRootBase@ATL@@QAEJXZ 10012510 f i SoundPlayer.obj
 0001:00011530       ?FinalConstruct@CRegObject@ATL@@QAEJXZ 10012530 f i SoundPlayer.obj
 0001:00011560       ?FinalRelease@?$CComAggObject@VCOPOSSoundPlayer@@@ATL@@QAEXXZ 10012560 f i SoundPlayer.obj
 0001:000115a0       ?FinalRelease@CComObjectRootBase@ATL@@QAEXXZ 100125a0 f i SoundPlayer.obj
 0001:000115c0       ?FindConnectionPoint@?$IConnectionPointContainerImpl@VCOPOSSoundPlayer@@@ATL@@UAGJABU_GUID@@PAPAUIConnectionPoint@@@Z 100125c0 f i SoundPlayer.obj
 0001:00011710       ?FindKey@?$CSimpleMap@PA_WPA_WVCExpansionVectorEqualHelper@ATL@@@ATL@@QBEHABQA_W@Z 10012710 f i SoundPlayer.obj
 0001:00011780       ?FireTheEvent@?$CProxy_IOPOSEvents@VCOPOSSoundPlayer@@@@IAEXPAUIUnknown@@PAVOposVariant@@IAAJPB_WJ@Z 10012780 f i SoundPlayer.obj
 0001:000118f0       ?FireViewChange@CComControlBase@ATL@@QAEJXZ 100128f0 f i SoundPlayer.obj
 0001:000119b0       ?Fire_DirectIOEvent@?$CProxy_IOPOSEvents@VCOPOSSoundPlayer@@@@QAEXJPAJPAPA_W@Z 100129b0 f i SoundPlayer.obj
 0001:00011b80       ?Fire_ErrorEvent@?$CProxy_IOPOSEvents@VCOPOSSoundPlayer@@@@QAEXJJJPAJ@Z 10012b80 f i SoundPlayer.obj
 0001:00011d70       ?Fire_OutputCompleteEvent@?$CProxy_IOPOSEvents@VCOPOSSoundPlayer@@@@QAEXJ@Z 10012d70 f i SoundPlayer.obj
 0001:00011ed0       ?Fire_StatusUpdateEvent@?$CProxy_IOPOSEvents@VCOPOSSoundPlayer@@@@QAEXJ@Z 10012ed0 f i SoundPlayer.obj
 0001:00012030       ?FormatWindowClassName@AtlModuleRegisterWndClassInfoParamW@ATL@@SAXPA_WKPAX@Z 10013030 f i SoundPlayer.obj
 0001:00012060       ?Free@?$CAutoVectorPtr@_W@ATL@@QAEXXZ 10013060 f i SoundPlayer.obj
 0001:000120b0       ?FreeHeap@?$CTempBuffer@E$0BAA@VCCRTAllocator@ATL@@@ATL@@AAEXXZ 100130b0 f i SoundPlayer.obj
 0001:000120e0       ?FreeHeap@?$CTempBuffer@_W$0BAA@VCCRTAllocator@ATL@@@ATL@@AAEXXZ 100130e0 f i SoundPlayer.obj
 0001:00012110       ?FreeHeap@?$CTempBuffer@_W$0EAA@VCCRTAllocator@ATL@@@ATL@@AAEXXZ 10013110 f i SoundPlayer.obj
 0001:00012140       ?Freeze@?$IViewObjectExImpl@VCOPOSSoundPlayer@@@ATL@@UAGJKJPAXPAK@Z 10013140 f i SoundPlayer.obj
 0001:000121b0       ?GenerateError@CRegParser@ATL@@IAEJI@Z 100131b0 f i SoundPlayer.obj
 0001:000121d0       ?GetAdvise@?$IViewObjectExImpl@VCOPOSSoundPlayer@@@ATL@@UAGJPAK0PAPAUIAdviseSink@@@Z 100131d0 f i SoundPlayer.obj
 0001:000122d0       ?GetAmbientLocaleID@CComControlBase@ATL@@QAEJAAK@Z 100132d0 f i SoundPlayer.obj
 0001:000123b0       ?GetAmbientProperty@CComControlBase@ATL@@QAEJJAAUtagVARIANT@@@Z 100133b0 f i SoundPlayer.obj
 0001:00012400       ?GetAmbientUserMode@CComControlBase@ATL@@QAEJAAH@Z 10013400 f i SoundPlayer.obj
 0001:00012500       ?GetAppId@?$CAtlModuleT@VCComModule@ATL@@@ATL@@SAPB_WXZ 10013500 f i SoundPlayer.obj
 0001:00012510       ?GetAt@CComDynamicUnkArray@ATL@@QAEPAUIUnknown@@H@Z 10013510 f i SoundPlayer.obj
 0001:00012590       ?GetCanonicalFormatEtc@?$IDataObjectImpl@VCOPOSSoundPlayer@@@ATL@@UAGJPAUtagFORMATETC@@0@Z 10013590 f i SoundPlayer.obj
 0001:00012600       ?GetClassID@?$IPersistStorageImpl@VCOPOSSoundPlayer@@@ATL@@UAGJPAU_GUID@@@Z 10013600 f i SoundPlayer.obj
 0001:00012680       ?GetClassID@?$IPersistStreamInitImpl@VCOPOSSoundPlayer@@@ATL@@UAGJPAU_GUID@@@Z 10013680 f i SoundPlayer.obj
 0001:00012700       ?GetClassInfoExW@AtlModuleRegisterWndClassInfoParamW@ATL@@SAHPAUHINSTANCE__@@PB_WPAUtagWNDCLASSEXW@@@Z 10013700 f i SoundPlayer.obj
 0001:00012730       ?GetClassInfoW@?$IProvideClassInfo2Impl@$1?CLSID_OPOSSoundPlayer@@3U_GUID@@B$1?DIID__IOPOSSoundPlayerEvents@@3U2@B$1?LIBID_OposSoundPlayer_CCO@@3U2@B$00$0A@VCComTypeInfoHolder@ATL@@@ATL@@UAGJPAPAUITypeInfo@@@Z 10013730 f i SoundPlayer.obj
 0001:00012750       ?GetClassObject@CComModule@ATL@@QAEJABU_GUID@@0PAPAX@Z 10013750 f i SoundPlayer.obj
 0001:00012950       ?GetClientSite@?$IOleObjectImpl@VCOPOSSoundPlayer@@@ATL@@UAGJPAPAUIOleClientSite@@@Z 10013950 f i SoundPlayer.obj
 0001:000129e0       ?GetClipboardData@?$IOleObjectImpl@VCOPOSSoundPlayer@@@ATL@@UAGJKPAPAUIDataObject@@@Z 100139e0 f i SoundPlayer.obj
 0001:00012a50       ?GetCodeAddress@CDynamicStdCallThunk2@ATL@@QAEPAXXZ 10013a50 f i SoundPlayer.obj
 0001:00012a80       ?GetColorSet@?$IViewObjectExImpl@VCOPOSSoundPlayer@@@ATL@@UAGJKJPAXPAUtagDVTARGETDEVICE@@PAUHDC__@@PAPAUtagLOGPALETTE@@@Z 10013a80 f i SoundPlayer.obj
 0001:00012af0       ?GetConnMap@COPOSSoundPlayer@@SAPBU_ATL_CONNMAP_ENTRY@ATL@@PAH@Z 10013af0 f i SoundPlayer.obj
 0001:00012c30       ?GetConnectionInterface@?$IConnectionPointImpl@VCOPOSSoundPlayer@@$1?DIID__IOPOSSoundPlayerEvents@@3U_GUID@@BVCComDynamicUnkArray@ATL@@@ATL@@UAGJPAU_GUID@@@Z 10013c30 f i SoundPlayer.obj
 0001:00012c70       ?GetConnectionInterface@?$IConnectionPointImpl@VCOPOSSoundPlayer@@$1?IID_IPropertyNotifySink@@3U_GUID@@BVCComDynamicUnkArray@ATL@@@ATL@@UAGJPAU_GUID@@@Z 10013c70 f i SoundPlayer.obj
 0001:00012cb0       ?GetConnectionPointContainer@?$IConnectionPointImpl@VCOPOSSoundPlayer@@$1?DIID__IOPOSSoundPlayerEvents@@3U_GUID@@BVCComDynamicUnkArray@ATL@@@ATL@@UAGJPAPAUIConnectionPointContainer@@@Z 10013cb0 f i SoundPlayer.obj
 0001:00012d20       ?GetConnectionPointContainer@?$IConnectionPointImpl@VCOPOSSoundPlayer@@$1?IID_IPropertyNotifySink@@3U_GUID@@BVCComDynamicUnkArray@ATL@@@ATL@@UAGJPAPAUIConnectionPointContainer@@@Z 10013d20 f i SoundPlayer.obj
 0001:00012d90       ?GetContentExtent@?$IQuickActivateImpl@VCOPOSSoundPlayer@@@ATL@@UAGJPAUtagSIZE@@@Z 10013d90 f i SoundPlayer.obj
 0001:00012e20       ?GetControlInfo@?$IOleControlImpl@VCOPOSSoundPlayer@@@ATL@@UAGJPAUtagCONTROLINFO@@@Z 10013e20 f i SoundPlayer.obj
 0001:00012e90       ?GetCookie@CComDynamicUnkArray@ATL@@QAGKPAPAUIUnknown@@@Z 10013e90 f i SoundPlayer.obj
 0001:00012f50       ?GetData@?$IDataObjectImpl@VCOPOSSoundPlayer@@@ATL@@UAGJPAUtagFORMATETC@@PAUtagSTGMEDIUM@@@Z 10013f50 f i SoundPlayer.obj
 0001:00012fe0       ?GetData@CAtlSafeAllocBufferNode@?$CAtlSafeAllocBufferManager@VCCRTAllocator@ATL@@@_ATL_SAFE_ALLOCA_IMPL@ATL@@QAEPAXXZ 10013fe0 f i SoundPlayer.obj
 0001:00013000       ?GetDataHere@?$IDataObjectImpl@VCOPOSSoundPlayer@@@ATL@@UAGJPAUtagFORMATETC@@PAUtagSTGMEDIUM@@@Z 10014000 f i SoundPlayer.obj
 0001:00013070       ?GetDropTarget@?$IOleInPlaceObjectWindowlessImpl@VCOPOSSoundPlayer@@@ATL@@UAGJPAPAUIDropTarget@@@Z 10014070 f i SoundPlayer.obj
 0001:000130e0       ?GetExtent@?$IOleObjectImpl@VCOPOSSoundPlayer@@@ATL@@UAGJKPAUtagSIZE@@@Z 100140e0 f i SoundPlayer.obj
 0001:00013180       ?GetExtent@?$IViewObjectExImpl@VCOPOSSoundPlayer@@@ATL@@UAGJKJPAUtagDVTARGETDEVICE@@PAUtagSIZE@@@Z 10014180 f i SoundPlayer.obj
 0001:00013250       ?GetGITPtr@CAtlModule@ATL@@UAEJPAPAUIGlobalInterfaceTable@@@Z 10014250 f i SoundPlayer.obj
 0001:00013350       ?GetGUID@?$IProvideClassInfo2Impl@$1?CLSID_OPOSSoundPlayer@@3U_GUID@@B$1?DIID__IOPOSSoundPlayerEvents@@3U2@B$1?LIBID_OposSoundPlayer_CCO@@3U2@B$00$0A@VCComTypeInfoHolder@ATL@@@ATL@@UAGJKPAU_GUID@@@Z 10014350 f i SoundPlayer.obj
 0001:000133d0       ?GetIDsOfNames@?$IDispatchImpl@UIOPOSSoundPlayer@@$1?IID_IOPOSSoundPlayer@@3U_GUID@@B$1?LIBID_OposSoundPlayer_CCO@@3U3@B$00$0A@VCComTypeInfoHolder@ATL@@@ATL@@UAGJABU_GUID@@PAPA_WIKPAJ@Z 100143d0 f i SoundPlayer.obj
 0001:00013400       ?GetIDsOfNames@CComTypeInfoHolder@ATL@@QAEJABU_GUID@@PAPA_WIKPAJ@Z 10014400 f i SoundPlayer.obj
 0001:000135b0       ?GetInterfaceSafetyOptions@?$IObjectSafetyImpl@VCOPOSSoundPlayer@@$02@ATL@@UAGJABU_GUID@@PAK1@Z 100145b0 f i SoundPlayer.obj
 0001:00013720       ?GetKeyAt@?$CSimpleMap@PA_WPA_WVCExpansionVectorEqualHelper@ATL@@@ATL@@QBEAAPA_WH@Z 10014720 f i SoundPlayer.obj
 0001:000137a0       ?GetLockCount@CAtlModule@ATL@@UAEJXZ 100147a0 f i SoundPlayer.obj
 0001:000137c0       ?GetMiscStatus@?$IOleObjectImpl@VCOPOSSoundPlayer@@@ATL@@UAGJKPAK@Z 100147c0 f i SoundPlayer.obj
 0001:00013830       ?GetMoniker@?$IOleObjectImpl@VCOPOSSoundPlayer@@@ATL@@UAGJKKPAPAUIMoniker@@@Z 10014830 f i SoundPlayer.obj
 0001:000138a0       ?GetNaturalExtent@?$IViewObjectExImpl@VCOPOSSoundPlayer@@@ATL@@UAGJKJPAUtagDVTARGETDEVICE@@PAUHDC__@@PAUtagExtentInfo@@PAUtagSIZE@@@Z 100148a0 f i SoundPlayer.obj
 0001:000139c0       ?GetObjectCLSID@?$CComCoClass@VCOPOSSoundPlayer@@$1?CLSID_OPOSSoundPlayer@@3U_GUID@@B@ATL@@SGABU_GUID@@XZ 100149c0 f i SoundPlayer.obj
 0001:000139d0       ?GetPages@?$ISpecifyPropertyPagesImpl@VCOPOSSoundPlayer@@@ATL@@UAGJPAUtagCAUUID@@@Z 100149d0 f i SoundPlayer.obj
 0001:00013a40       ?GetPagesHelper@?$ISpecifyPropertyPagesImpl@VCOPOSSoundPlayer@@@ATL@@IAEJPAUtagCAUUID@@PBUATL_PROPMAP_ENTRY@2@@Z 10014a40 f i SoundPlayer.obj
 0001:00013c40       ?GetProperty@?$CComPtr@UIDispatch@@@ATL@@QAEJJPAUtagVARIANT@@@Z 10014c40 f i SoundPlayer.obj
 0001:00013c80       ?GetProperty@?$CComPtr@UIDispatch@@@ATL@@SAJPAUIDispatch@@JPAUtagVARIANT@@@Z 10014c80 f i SoundPlayer.obj
 0001:00013de0       ?GetPropertyMap@COPOSSoundPlayer@@SAPBUATL_PROPMAP_ENTRY@ATL@@XZ 10014de0 f i SoundPlayer.obj
 0001:00013df0       ?GetRect@?$IViewObjectExImpl@VCOPOSSoundPlayer@@@ATL@@UAGJKPAU_RECTL@@@Z 10014df0 f i SoundPlayer.obj
 0001:00013e60       ?GetSize@?$CSimpleMap@PA_WPA_WVCExpansionVectorEqualHelper@ATL@@@ATL@@QBEHXZ 10014e60 f i SoundPlayer.obj
 0001:00013e80       ?GetSize@CComDynamicUnkArray@ATL@@QBEHXZ 10014e80 f i SoundPlayer.obj
 0001:00013ea0       ?GetSizeMax@?$IPersistStreamInitImpl@VCOPOSSoundPlayer@@@ATL@@UAGJPAT_ULARGE_INTEGER@@@Z 10014ea0 f i SoundPlayer.obj
 0001:00014410       ?GetSizeMax@CComVariant@ATL@@QBEJPAT_ULARGE_INTEGER@@@Z 10015410 f i SoundPlayer.obj
 0001:00014770       ?GetStreamSize@CComBSTR@ATL@@SAKPA_W@Z 10015770 f i SoundPlayer.obj
 0001:000147c0       ?GetTI@CComTypeInfoHolder@ATL@@QAEJK@Z 100157c0 f i SoundPlayer.obj
 0001:00014fd0       ?GetTI@CComTypeInfoHolder@ATL@@QAEJKPAPAUITypeInfo@@@Z 10015fd0 f i SoundPlayer.obj
 0001:00015090       ?GetTypeInfo@?$IDispatchImpl@UIOPOSSoundPlayer@@$1?IID_IOPOSSoundPlayer@@3U_GUID@@B$1?LIBID_OposSoundPlayer_CCO@@3U3@B$00$0A@VCComTypeInfoHolder@ATL@@@ATL@@UAGJIKPAPAUITypeInfo@@@Z 10016090 f i SoundPlayer.obj
 0001:000150c0       ?GetTypeInfo@CComTypeInfoHolder@ATL@@QAEJIKPAPAUITypeInfo@@@Z 100160c0 f i SoundPlayer.obj
 0001:00015100       ?GetTypeInfoCount@?$IDispatchImpl@UIOPOSSoundPlayer@@$1?IID_IOPOSSoundPlayer@@3U_GUID@@B$1?LIBID_OposSoundPlayer_CCO@@3U3@B$00$0A@VCComTypeInfoHolder@ATL@@@ATL@@UAGJPAI@Z 10016100 f i SoundPlayer.obj
 0001:00015120       ?GetUnknown@CComDynamicUnkArray@ATL@@QAGPAUIUnknown@@K@Z 10016120 f i SoundPlayer.obj
 0001:00015190       ?GetUnknown@COPOSSoundPlayer@@QAEPAUIUnknown@@XZ 10016190 f i SoundPlayer.obj
 0001:000151c0       ?GetUserClassID@?$IOleObjectImpl@VCOPOSSoundPlayer@@@ATL@@UAGJPAU_GUID@@@Z 100161c0 f i SoundPlayer.obj
 0001:00015270       ?GetUserType@?$IOleObjectImpl@VCOPOSSoundPlayer@@@ATL@@UAGJKPAPA_W@Z 10016270 f i SoundPlayer.obj
 0001:000152e0       ?GetValueAt@?$CSimpleMap@PA_WPA_WVCExpansionVectorEqualHelper@ATL@@@ATL@@QBEAAPA_WH@Z 100162e0 f i SoundPlayer.obj
 0001:00015360       ?GetViewStatus@?$IViewObjectExImpl@VCOPOSSoundPlayer@@@ATL@@UAGJPAK@Z 10016360 f i SoundPlayer.obj
 0001:00015420       ?GetWNDPROC@CWndProcThunk@ATL@@QAEP6GJPAUHWND__@@IIJ@ZXZ 10016420 f i SoundPlayer.obj
 0001:00015450       ?GetWindow@?$IOleInPlaceActiveObjectImpl@VCOPOSSoundPlayer@@@ATL@@UAGJPAPAUHWND__@@@Z 10016450 f i SoundPlayer.obj
 0001:00015520       ?GetWindow@?$IOleInPlaceObjectWindowlessImpl@VCOPOSSoundPlayer@@@ATL@@UAGJPAPAUHWND__@@@Z 10016520 f i SoundPlayer.obj
 0001:000155f0       ?GetWindowLongPtrW@@YAJPAUHWND__@@H@Z 100165f0 f i SoundPlayer.obj
 0001:00015620       ?GetWindowProc@?$CWindowImplBaseT@VCWindow@ATL@@V?$CWinTraits@$0FGAAAAAA@$0A@@2@@ATL@@UAEP6GJPAUHWND__@@IIJ@ZXZ 10016620 f i SoundPlayer.obj
 0001:00015640       ?GetWndCaption@?$CWindowImpl@VCOPOSSoundPlayer@@VCWindow@ATL@@V?$CWinTraits@$0FGAAAAAA@$0A@@3@@ATL@@SAPB_WXZ 10016640 f i SoundPlayer.obj
 0001:00015650       ?GetWndClassInfo@?$CWindowImpl@VCOPOSSoundPlayer@@VCWindow@ATL@@V?$CWinTraits@$0FGAAAAAA@$0A@@3@@ATL@@SAAAU_ATL_WNDCLASSINFOW@2@XZ 10016650 f i SoundPlayer.obj
 0001:00015660       ?GetWndClassName@CWindow@ATL@@SAPB_WXZ 10016660 f i SoundPlayer.obj
 0001:00015670       ?GetWndExStyle@?$CWinTraits@$0FGAAAAAA@$0A@@ATL@@SAKK@Z 10016670 f i SoundPlayer.obj
 0001:000156a0       ?GetWndExStyle@?$CWindowImplBaseT@VCWindow@ATL@@V?$CWinTraits@$0FGAAAAAA@$0A@@2@@ATL@@SAKK@Z 100166a0 f i SoundPlayer.obj
 0001:000156c0       ?GetWndStyle@?$CWinTraits@$0FGAAAAAA@$0A@@ATL@@SAKK@Z 100166c0 f i SoundPlayer.obj
 0001:000156f0       ?GetWndStyle@?$CWindowImplBaseT@VCWindow@ATL@@V?$CWinTraits@$0FGAAAAAA@$0A@@2@@ATL@@SAKK@Z 100166f0 f i SoundPlayer.obj
 0001:00015710       ?GetZoomInfo@CComControlBase@ATL@@QAEXAAUATL_DRAWINFO@@@Z 10016710 f i SoundPlayer.obj
 0001:00015880       ?HKeyFromString@CRegParser@ATL@@KAPAUHKEY__@@PA_W@Z 10016880 f i SoundPlayer.obj
 0001:000158f0       ?HandsOffStorage@?$IPersistStorageImpl@VCOPOSSoundPlayer@@@ATL@@UAGJXZ 100168f0 f i SoundPlayer.obj
 0001:00015950       ?HasSubKeys@CRegParser@ATL@@IAEHPAUHKEY__@@@Z 10016950 f i SoundPlayer.obj
 0001:00015a60       ?IDataObject_GetData@CComControlBase@ATL@@QAEJPAUtagFORMATETC@@PAUtagSTGMEDIUM@@@Z 10016a60 f i SoundPlayer.obj
 0001:00015e80       ?IOleInPlaceObject_InPlaceDeactivate@CComControlBase@ATL@@QAEJXZ 10016e80 f i SoundPlayer.obj
 0001:00016080       ?IOleInPlaceObject_SetObjectRects@CComControlBase@ATL@@QAEJPBUtagRECT@@0@Z 10017080 f i SoundPlayer.obj
 0001:00016240       ?IOleInPlaceObject_UIDeactivate@CComControlBase@ATL@@QAEJXZ 10017240 f i SoundPlayer.obj
 0001:000164b0       ?IOleObject_Advise@CComControlBase@ATL@@QAEJPAUIAdviseSink@@PAK@Z 100174b0 f i SoundPlayer.obj
 0001:00016560       ?IOleObject_Close@CComControlBase@ATL@@QAEJK@Z 10017560 f i SoundPlayer.obj
 0001:00016810       ?IOleObject_GetClientSite@CComControlBase@ATL@@QAEJPAPAUIOleClientSite@@@Z 10017810 f i SoundPlayer.obj
 0001:000168b0       ?IOleObject_SetClientSite@CComControlBase@ATL@@QAEJPAUIOleClientSite@@@Z 100178b0 f i SoundPlayer.obj
 0001:00016980       ?IOleObject_SetExtent@CComControlBase@ATL@@QAEJKPAUtagSIZE@@@Z 10017980 f i SoundPlayer.obj
 0001:00016ac0       ?IPSI_GetIPersistStreamInit@?$IPersistStorageImpl@VCOPOSSoundPlayer@@@ATL@@AAEPAUIPersistStreamInit@@XZ 10017ac0 f i SoundPlayer.obj
 0001:00016b90       ?IPersistStreamInit_Load@?$IPersistStreamInitImpl@VCOPOSSoundPlayer@@@ATL@@QAEJPAUIStream@@PBUATL_PROPMAP_ENTRY@2@@Z 10017b90 f i SoundPlayer.obj
 0001:00016c10       ?IPersistStreamInit_Save@?$IPersistStreamInitImpl@VCOPOSSoundPlayer@@@ATL@@QAEJPAUIStream@@HPBUATL_PROPMAP_ENTRY@2@@Z 10017c10 f i SoundPlayer.obj
 0001:00016ca0       ?IQuickActivate_QuickActivate@CComControlBase@ATL@@QAEJPAUtagQACONTAINER@@PAUtagQACONTROL@@@Z 10017ca0 f i SoundPlayer.obj
 0001:000172f0       ?IViewObject_Draw@CComControlBase@ATL@@QAEJKJPAXPAUtagDVTARGETDEVICE@@PAUHDC__@@2PBU_RECTL@@3@Z 100182f0 f i SoundPlayer.obj
 0001:00017590       ?InPlaceActivate@CComControlBase@ATL@@QAEJJPBUtagRECT@@@Z 10018590 f i SoundPlayer.obj
 0001:00017f20       ?InPlaceDeactivate@?$IOleInPlaceObjectWindowlessImpl@VCOPOSSoundPlayer@@@ATL@@UAGJXZ 10018f20 f i SoundPlayer.obj
 0001:00017fa0       ?Increment@CComMultiThreadModel@ATL@@SGKPAJ@Z 10018fa0 f i SoundPlayer.obj
 0001:00017fc0       ?Increment@CComSingleThreadModel@ATL@@SGKPAJ@Z 10018fc0 f i SoundPlayer.obj
 0001:00017fe0       ?Init@?$CComEnumImpl@UIEnumConnectionPoints@@$1?_GUID_b196b285_bab4_101a_b69c_00aa00341d07@@3U__s_GUID@@BPAUIConnectionPoint@@V?$_CopyInterface@UIConnectionPoint@@@ATL@@@ATL@@QAEJPAPAUIConnectionPoint@@0PAUIUnknown@@W4CComEnumFlags@2@@Z 10018fe0 f i SoundPlayer.obj
 0001:000181c0       ?Init@?$CComEnumImpl@UIEnumConnections@@$1?_GUID_b196b287_bab4_101a_b69c_00aa00341d07@@3U__s_GUID@@BUtagCONNECTDATA@@V?$_Copy@UtagCONNECTDATA@@@ATL@@@ATL@@QAEJPAUtagCONNECTDATA@@0PAUIUnknown@@W4CComEnumFlags@2@@Z 100191c0 f i SoundPlayer.obj
 0001:000183a0       ?Init@CComFakeCriticalSection@ATL@@QAEJXZ 100193a0 f i SoundPlayer.obj
 0001:000183c0       ?Init@CComModule@ATL@@QAEJPAU_ATL_OBJMAP_ENTRY30@2@PAUHINSTANCE__@@PBU_GUID@@@Z 100193c0 f i SoundPlayer.obj
 0001:000184b0       ?Init@CComSafeDeleteCriticalSection@ATL@@QAEJXZ 100194b0 f i SoundPlayer.obj
 0001:00018530       ?Init@CDynamicStdCallThunk2@ATL@@QAEHKPAX@Z 10019530 f i SoundPlayer.obj
 0001:00018590       ?Init@CWndProcThunk@ATL@@QAEHP6GJPAUHWND__@@IIJ@ZPAX@Z 10019590 f i SoundPlayer.obj
 0001:000185d0       ?InitFromData@?$IOleObjectImpl@VCOPOSSoundPlayer@@@ATL@@UAGJPAUIDataObject@@HK@Z 100195d0 f i SoundPlayer.obj
 0001:00018640       ?InitLibId@?$CAtlModuleT@VCComModule@ATL@@@ATL@@SAXXZ 10019640 f i SoundPlayer.obj
 0001:00018650       ?InitNew@?$IPersistStorageImpl@VCOPOSSoundPlayer@@@ATL@@UAGJPAUIStorage@@@Z 10019650 f i SoundPlayer.obj
 0001:00018740       ?InitNew@?$IPersistStreamInitImpl@VCOPOSSoundPlayer@@@ATL@@UAGJXZ 10019740 f i SoundPlayer.obj
 0001:000187d0       ?InlineIsEqualUnknown@ATL@@YGHABU_GUID@@@Z 100197d0 f i SoundPlayer.obj
 0001:00018840       ?InternalAddRef@?$CComObjectRootEx@VCComMultiThreadModel@ATL@@@ATL@@QAEKXZ 10019840 f i SoundPlayer.obj
 0001:000188a0       ?InternalAddRef@?$CComObjectRootEx@VCComSingleThreadModel@ATL@@@ATL@@QAEKXZ 100198a0 f i SoundPlayer.obj
 0001:00018900       ?InternalFinalConstructAddRef@CComObjectRootBase@ATL@@QAEXXZ 10019900 f i SoundPlayer.obj
 0001:00018920       ?InternalFinalConstructAddRef@COPOSSoundPlayer@@QAEXXZ 10019920 f i SoundPlayer.obj
 0001:00018950       ?InternalFinalConstructRelease@CComObjectRootBase@ATL@@QAEXXZ 10019950 f i SoundPlayer.obj
 0001:000189a0       ?InternalFinalConstructRelease@COPOSSoundPlayer@@QAEXXZ 100199a0 f i SoundPlayer.obj
 0001:000189d0       ?InternalGetSite@CComControlBase@ATL@@QAEJABU_GUID@@PAPAX@Z 100199d0 f i SoundPlayer.obj
 0001:00018a90       ?InternalQueryInterface@CComObjectRootBase@ATL@@SGJPAXPBU_ATL_INTMAP_ENTRY@2@ABU_GUID@@PAPAX@Z 10019a90 f i SoundPlayer.obj
 0001:00018b50       ?InternalRelease@?$CComObjectRootEx@VCComMultiThreadModel@ATL@@@ATL@@QAEKXZ 10019b50 f i SoundPlayer.obj
 0001:00018bc0       ?InternalRelease@?$CComObjectRootEx@VCComSingleThreadModel@ATL@@@ATL@@QAEKXZ 10019bc0 f i SoundPlayer.obj
 0001:00018c30       ?InternalSetAtIndex@?$CSimpleArray@GV?$CSimpleArrayEqualHelper@G@ATL@@@ATL@@QAEXHABG@Z 10019c30 f i SoundPlayer.obj
 0001:00018ca0       ?InternalSetAtIndex@?$CSimpleMap@PA_WPA_WVCExpansionVectorEqualHelper@ATL@@@ATL@@QAEXHABQA_W0@Z 10019ca0 f i SoundPlayer.obj
 0001:00018d40       ?Invoke@?$IDispatchImpl@UIOPOSSoundPlayer@@$1?IID_IOPOSSoundPlayer@@3U_GUID@@B$1?LIBID_OposSoundPlayer_CCO@@3U3@B$00$0A@VCComTypeInfoHolder@ATL@@@ATL@@UAGJJABU_GUID@@KGPAUtagDISPPARAMS@@PAUtagVARIANT@@PAUtagEXCEPINFO@@PAI@Z 10019d40 f i SoundPlayer.obj
 0001:00018d80       ?Invoke@CComTypeInfoHolder@ATL@@QAEJPAUIDispatch@@JABU_GUID@@KGPAUtagDISPPARAMS@@PAUtagVARIANT@@PAUtagEXCEPINFO@@PAI@Z 10019d80 f i SoundPlayer.obj
 0001:00018e10       ?IsDirty@?$IPersistStorageImpl@VCOPOSSoundPlayer@@@ATL@@UAGJXZ 10019e10 f i SoundPlayer.obj
 0001:00018f00       ?IsDirty@?$IPersistStreamInitImpl@VCOPOSSoundPlayer@@@ATL@@UAGJXZ 10019f00 f i SoundPlayer.obj
 0001:00018fa0       ?IsEqualKey@CExpansionVectorEqualHelper@ATL@@SA_NQA_W0@Z 10019fa0 f i SoundPlayer.obj
 0001:00018fd0       ?IsEqualObject@?$CComPtrBase@UIOleClientSite@@@ATL@@QAE_NPAUIUnknown@@@Z 10019fd0 f i SoundPlayer.obj
 0001:00019100       ?IsEqualObject@?$CComPtrBase@UITypeInfo@@@ATL@@QAE_NPAUIUnknown@@@Z 1001a100 f i SoundPlayer.obj
 0001:00019230       ?IsSpace@CRegParser@ATL@@IAEH_W@Z 1001a230 f i SoundPlayer.obj
 0001:000192a0       ?IsUpToDate@?$IOleObjectImpl@VCOPOSSoundPlayer@@@ATL@@UAGJXZ 1001a2a0 f i SoundPlayer.obj
 0001:00019300       ?Length@CComBSTR@ATL@@QBEIXZ 1001a300 f i SoundPlayer.obj
 0001:00019340       ?Load@?$IPersistStorageImpl@VCOPOSSoundPlayer@@@ATL@@UAGJPAUIStorage@@@Z 1001a340 f i SoundPlayer.obj
 0001:000194a0       ?Load@?$IPersistStreamInitImpl@VCOPOSSoundPlayer@@@ATL@@UAGJPAUIStream@@@Z 1001a4a0 f i SoundPlayer.obj
 0001:00019530       ?LoadCursorW@AtlModuleRegisterWndClassInfoParamW@ATL@@SAPAUHICON__@@PAUHINSTANCE__@@PB_W@Z 1001a530 f i SoundPlayer.obj
 0001:00019560       ?LoadNameCache@CComTypeInfoHolder@ATL@@QAEJPAUITypeInfo@@@Z 1001a560 f i SoundPlayer.obj
 0001:000197f0       ?Lock@?$CComCritSecLock@VCComCriticalSection@ATL@@@ATL@@QAEJXZ 1001a7f0 f i SoundPlayer.obj
 0001:000198a0       ?Lock@?$CComObjectRootEx@VCComSingleThreadModel@ATL@@@ATL@@QAEXXZ 1001a8a0 f i SoundPlayer.obj
 0001:000198c0       ?Lock@CAtlModule@ATL@@UAEJXZ 1001a8c0 f i SoundPlayer.obj
 0001:000198f0       ?Lock@CComCriticalSection@ATL@@QAEJXZ 1001a8f0 f i SoundPlayer.obj
 0001:00019930       ?Lock@CComFakeCriticalSection@ATL@@QAEJXZ 1001a930 f i SoundPlayer.obj
 0001:00019950       ?LockServer@CComClassFactory@ATL@@UAGJH@Z 1001a950 f i SoundPlayer.obj
 0001:000199b0       ?Lookup@?$CSimpleMap@PA_WPA_WVCExpansionVectorEqualHelper@ATL@@@ATL@@QBEPA_WABQA_W@Z 1001a9b0 f i SoundPlayer.obj
 0001:00019a00       ?Next@?$CComEnumImpl@UIEnumConnectionPoints@@$1?_GUID_b196b285_bab4_101a_b69c_00aa00341d07@@3U__s_GUID@@BPAUIConnectionPoint@@V?$_CopyInterface@UIConnectionPoint@@@ATL@@@ATL@@UAGJKPAPAUIConnectionPoint@@PAK@Z 1001aa00 f i SoundPlayer.obj
 0001:00019b70       ?Next@?$CComEnumImpl@UIEnumConnections@@$1?_GUID_b196b287_bab4_101a_b69c_00aa00341d07@@3U__s_GUID@@BUtagCONNECTDATA@@V?$_Copy@UtagCONNECTDATA@@@ATL@@@ATL@@UAGJKPAUtagCONNECTDATA@@PAK@Z 1001ab70 f i SoundPlayer.obj
 0001:00019ce0       ?NextToken@CRegParser@ATL@@IAEJPA_W@Z 1001ace0 f i SoundPlayer.obj
 0001:00019f80       ?OLE2CT_EX@@YAPB_WPB_WI@Z  1001af80 f i SoundPlayer.obj
 0001:00019f90       ?OLE2CT_EX_DEF@@YAPB_WPB_W@Z 1001af90 f i SoundPlayer.obj
 0001:00019fa0       ?OLE2T_EX@@YAPA_WPA_WI@Z   1001afa0 f i SoundPlayer.obj
 0001:00019fb0       ?OnAmbientPropertyChange@?$IOleControlImpl@VCOPOSSoundPlayer@@@ATL@@UAGJJ@Z 1001afb0 f i SoundPlayer.obj
 0001:0001a040       ?OnDocWindowActivate@?$IOleInPlaceActiveObjectImpl@VCOPOSSoundPlayer@@@ATL@@UAGJH@Z 1001b040 f i SoundPlayer.obj
 0001:0001a0d0       ?OnDrawAdvanced@CComControlBase@ATL@@UAEJAAUATL_DRAWINFO@@@Z 1001b0d0 f i SoundPlayer.obj
 0001:0001a2f0       ?OnFinalMessage@?$CWindowImplBaseT@VCWindow@ATL@@V?$CWinTraits@$0FGAAAAAA@$0A@@2@@ATL@@UAEXPAUHWND__@@@Z 1001b2f0 f i SoundPlayer.obj
 0001:0001a310       ?OnFrameWindowActivate@?$IOleInPlaceActiveObjectImpl@VCOPOSSoundPlayer@@@ATL@@UAGJH@Z 1001b310 f i SoundPlayer.obj
 0001:0001a370       ?OnKillFocus@CComControlBase@ATL@@QAEJIIJAAH@Z 1001b370 f i SoundPlayer.obj
 0001:0001a470       ?OnMnemonic@?$IOleControlImpl@VCOPOSSoundPlayer@@@ATL@@UAGJPAUtagMSG@@@Z 1001b470 f i SoundPlayer.obj
 0001:0001a4e0       ?OnMouseActivate@CComControlBase@ATL@@QAEJIIJAAH@Z 1001b4e0 f i SoundPlayer.obj
 0001:0001a630       ?OnPaint@CComControlBase@ATL@@QAEJIIJAAH@Z 1001b630 f i SoundPlayer.obj
 0001:0001a7b0       ?OnPostVerbDiscardUndo@?$IOleObjectImpl@VCOPOSSoundPlayer@@@ATL@@QAEJXZ 1001b7b0 f i SoundPlayer.obj
 0001:0001a7d0       ?OnPostVerbHide@?$IOleObjectImpl@VCOPOSSoundPlayer@@@ATL@@QAEJXZ 1001b7d0 f i SoundPlayer.obj
 0001:0001a7f0       ?OnPostVerbInPlaceActivate@?$IOleObjectImpl@VCOPOSSoundPlayer@@@ATL@@QAEJXZ 1001b7f0 f i SoundPlayer.obj
 0001:0001a810       ?OnPostVerbOpen@?$IOleObjectImpl@VCOPOSSoundPlayer@@@ATL@@QAEJXZ 1001b810 f i SoundPlayer.obj
 0001:0001a830       ?OnPostVerbShow@?$IOleObjectImpl@VCOPOSSoundPlayer@@@ATL@@QAEJXZ 1001b830 f i SoundPlayer.obj
 0001:0001a850       ?OnPostVerbUIActivate@?$IOleObjectImpl@VCOPOSSoundPlayer@@@ATL@@QAEJXZ 1001b850 f i SoundPlayer.obj
 0001:0001a870       ?OnPreVerbDiscardUndo@?$IOleObjectImpl@VCOPOSSoundPlayer@@@ATL@@QAEJXZ 1001b870 f i SoundPlayer.obj
 0001:0001a890       ?OnPreVerbHide@?$IOleObjectImpl@VCOPOSSoundPlayer@@@ATL@@QAEJXZ 1001b890 f i SoundPlayer.obj
 0001:0001a8b0       ?OnPreVerbInPlaceActivate@?$IOleObjectImpl@VCOPOSSoundPlayer@@@ATL@@QAEJXZ 1001b8b0 f i SoundPlayer.obj
 0001:0001a8d0       ?OnPreVerbOpen@?$IOleObjectImpl@VCOPOSSoundPlayer@@@ATL@@QAEJXZ 1001b8d0 f i SoundPlayer.obj
 0001:0001a8f0       ?OnPreVerbShow@?$IOleObjectImpl@VCOPOSSoundPlayer@@@ATL@@QAEJXZ 1001b8f0 f i SoundPlayer.obj
 0001:0001a910       ?OnPreVerbUIActivate@?$IOleObjectImpl@VCOPOSSoundPlayer@@@ATL@@QAEJXZ 1001b910 f i SoundPlayer.obj
 0001:0001a930       ?OnSetFocus@CComControlBase@ATL@@QAEJIIJAAH@Z 1001b930 f i SoundPlayer.obj
 0001:0001aac0       ?OnWindowMessage@?$IOleInPlaceObjectWindowlessImpl@VCOPOSSoundPlayer@@@ATL@@UAGJIIJPAJ@Z 1001bac0 f i SoundPlayer.obj
 0001:0001ac20       ?Open@CRegKey@ATL@@QAEJPAUHKEY__@@PB_WK@Z 1001bc20 f i SoundPlayer.obj
 0001:0001ad70       ?OuterAddRef@CComObjectRootBase@ATL@@QAEKXZ 1001bd70 f i SoundPlayer.obj
 0001:0001adb0       ?OuterQueryInterface@CComObjectRootBase@ATL@@QAEJABU_GUID@@PAPAX@Z 1001bdb0 f i SoundPlayer.obj
 0001:0001ae00       ?OuterRelease@CComObjectRootBase@ATL@@QAEKXZ 1001be00 f i SoundPlayer.obj
 0001:0001ae40       ?PreProcessBuffer@CRegParser@ATL@@QAEJPA_WPAPA_W@Z 1001be40 f i SoundPlayer.obj
 0001:0001b380       ?PreTranslateAccelerator@CComControlBase@ATL@@QAEHPAUtagMSG@@AAJ@Z 1001c380 f i SoundPlayer.obj
 0001:0001b3a0       ?ProcessWindowMessage@?$CComControl@VCOPOSSoundPlayer@@V?$CWindowImpl@VCOPOSSoundPlayer@@VCWindow@ATL@@V?$CWinTraits@$0FGAAAAAA@$0A@@3@@ATL@@@ATL@@UAEHPAUHWND__@@IIJAAJK@Z 1001c3a0 f i SoundPlayer.obj
 0001:0001b570       ?ProcessWindowMessage@COPOSSoundPlayer@@UAEHPAUHWND__@@IIJAAJK@Z 1001c570 f i SoundPlayer.obj
 0001:0001b670       ?PutProperty@?$CComPtr@UIDispatch@@@ATL@@QAEJJPAUtagVARIANT@@@Z 1001c670 f i SoundPlayer.obj
 0001:0001b6b0       ?PutProperty@?$CComPtr@UIDispatch@@@ATL@@SAJPAUIDispatch@@JPAUtagVARIANT@@@Z 1001c6b0 f i SoundPlayer.obj
 0001:0001b8a0       ?QueryGetData@?$IDataObjectImpl@VCOPOSSoundPlayer@@@ATL@@UAGJPAUtagFORMATETC@@@Z 1001c8a0 f i SoundPlayer.obj
 0001:0001b910       ?QueryHitPoint@?$IViewObjectExImpl@VCOPOSSoundPlayer@@@ATL@@UAGJKPBUtagRECT@@UtagPOINT@@JPAK@Z 1001c910 f i SoundPlayer.obj
 0001:0001ba20       ?QueryHitRect@?$IViewObjectExImpl@VCOPOSSoundPlayer@@@ATL@@UAGJKPBUtagRECT@@0JPAK@Z 1001ca20 f i SoundPlayer.obj
 0001:0001bb70       ?QueryInterface@?$CComAggObject@VCOPOSSoundPlayer@@@ATL@@UAGJABU_GUID@@PAPAX@Z 1001cb70 f i SoundPlayer.obj
 0001:0001bc20       ?QueryInterface@?$CComContainedObject@VCOPOSSoundPlayer@@@ATL@@UAGJABU_GUID@@PAPAX@Z 1001cc20 f i SoundPlayer.obj
 0001:0001bc44       ?QueryInterface@?$CComContainedObject@VCOPOSSoundPlayer@@@ATL@@WHA@AGJABU_GUID@@PAPAX@Z 1001cc44 f i SoundPlayer.obj
 0001:0001bc4e       ?QueryInterface@?$CComContainedObject@VCOPOSSoundPlayer@@@ATL@@WHE@AGJABU_GUID@@PAPAX@Z 1001cc4e f i SoundPlayer.obj
 0001:0001bc58       ?QueryInterface@?$CComContainedObject@VCOPOSSoundPlayer@@@ATL@@WHI@AGJABU_GUID@@PAPAX@Z 1001cc58 f i SoundPlayer.obj
 0001:0001bc62       ?QueryInterface@?$CComContainedObject@VCOPOSSoundPlayer@@@ATL@@WHM@AGJABU_GUID@@PAPAX@Z 1001cc62 f i SoundPlayer.obj
 0001:0001bc6c       ?QueryInterface@?$CComContainedObject@VCOPOSSoundPlayer@@@ATL@@WIA@AGJABU_GUID@@PAPAX@Z 1001cc6c f i SoundPlayer.obj
 0001:0001bc79       ?QueryInterface@?$CComContainedObject@VCOPOSSoundPlayer@@@ATL@@WIE@AGJABU_GUID@@PAPAX@Z 1001cc79 f i SoundPlayer.obj
 0001:0001bc86       ?QueryInterface@?$CComContainedObject@VCOPOSSoundPlayer@@@ATL@@WII@AGJABU_GUID@@PAPAX@Z 1001cc86 f i SoundPlayer.obj
 0001:0001bc93       ?QueryInterface@?$CComContainedObject@VCOPOSSoundPlayer@@@ATL@@WIM@AGJABU_GUID@@PAPAX@Z 1001cc93 f i SoundPlayer.obj
 0001:0001bca0       ?QueryInterface@?$CComContainedObject@VCOPOSSoundPlayer@@@ATL@@WJA@AGJABU_GUID@@PAPAX@Z 1001cca0 f i SoundPlayer.obj
 0001:0001bcad       ?QueryInterface@?$CComContainedObject@VCOPOSSoundPlayer@@@ATL@@WJE@AGJABU_GUID@@PAPAX@Z 1001ccad f i SoundPlayer.obj
 0001:0001bcba       ?QueryInterface@?$CComContainedObject@VCOPOSSoundPlayer@@@ATL@@WJI@AGJABU_GUID@@PAPAX@Z 1001ccba f i SoundPlayer.obj
 0001:0001bcc7       ?QueryInterface@?$CComContainedObject@VCOPOSSoundPlayer@@@ATL@@WJM@AGJABU_GUID@@PAPAX@Z 1001ccc7 f i SoundPlayer.obj
 0001:0001bcd4       ?QueryInterface@?$CComContainedObject@VCOPOSSoundPlayer@@@ATL@@WKA@AGJABU_GUID@@PAPAX@Z 1001ccd4 f i SoundPlayer.obj
 0001:0001bcf0       ?QueryInterface@?$CComObject@V?$CComEnum@UIEnumConnectionPoints@@$1?_GUID_b196b285_bab4_101a_b69c_00aa00341d07@@3U__s_GUID@@BPAUIConnectionPoint@@V?$_CopyInterface@UIConnectionPoint@@@ATL@@VCComSingleThreadModel@6@@ATL@@@ATL@@UAGJABU_GUID@@PAPAX@Z 1001ccf0 f i SoundPlayer.obj
 0001:0001bd10       ?QueryInterface@?$CComObject@V?$CComEnum@UIEnumConnections@@$1?_GUID_b196b287_bab4_101a_b69c_00aa00341d07@@3U__s_GUID@@BUtagCONNECTDATA@@V?$_Copy@UtagCONNECTDATA@@@ATL@@VCComSingleThreadModel@6@@ATL@@@ATL@@UAGJABU_GUID@@PAPAX@Z 1001cd10 f i SoundPlayer.obj
 0001:0001bd30       ?QueryInterface@?$CComObject@VCOPOSSoundPlayer@@@ATL@@UAGJABU_GUID@@PAPAX@Z 1001cd30 f i SoundPlayer.obj
 0001:0001bd4e       ?QueryInterface@?$CComObject@VCOPOSSoundPlayer@@@ATL@@WHA@AGJABU_GUID@@PAPAX@Z 1001cd4e f i SoundPlayer.obj
 0001:0001bd58       ?QueryInterface@?$CComObject@VCOPOSSoundPlayer@@@ATL@@WHE@AGJABU_GUID@@PAPAX@Z 1001cd58 f i SoundPlayer.obj
 0001:0001bd62       ?QueryInterface@?$CComObject@VCOPOSSoundPlayer@@@ATL@@WHI@AGJABU_GUID@@PAPAX@Z 1001cd62 f i SoundPlayer.obj
 0001:0001bd6c       ?QueryInterface@?$CComObject@VCOPOSSoundPlayer@@@ATL@@WHM@AGJABU_GUID@@PAPAX@Z 1001cd6c f i SoundPlayer.obj
 0001:0001bd76       ?QueryInterface@?$CComObject@VCOPOSSoundPlayer@@@ATL@@WIA@AGJABU_GUID@@PAPAX@Z 1001cd76 f i SoundPlayer.obj
 0001:0001bd83       ?QueryInterface@?$CComObject@VCOPOSSoundPlayer@@@ATL@@WIE@AGJABU_GUID@@PAPAX@Z 1001cd83 f i SoundPlayer.obj
 0001:0001bd90       ?QueryInterface@?$CComObject@VCOPOSSoundPlayer@@@ATL@@WII@AGJABU_GUID@@PAPAX@Z 1001cd90 f i SoundPlayer.obj
 0001:0001bd9d       ?QueryInterface@?$CComObject@VCOPOSSoundPlayer@@@ATL@@WIM@AGJABU_GUID@@PAPAX@Z 1001cd9d f i SoundPlayer.obj
 0001:0001bdaa       ?QueryInterface@?$CComObject@VCOPOSSoundPlayer@@@ATL@@WJA@AGJABU_GUID@@PAPAX@Z 1001cdaa f i SoundPlayer.obj
 0001:0001bdb7       ?QueryInterface@?$CComObject@VCOPOSSoundPlayer@@@ATL@@WJE@AGJABU_GUID@@PAPAX@Z 1001cdb7 f i SoundPlayer.obj
 0001:0001bdc4       ?QueryInterface@?$CComObject@VCOPOSSoundPlayer@@@ATL@@WJI@AGJABU_GUID@@PAPAX@Z 1001cdc4 f i SoundPlayer.obj
 0001:0001bdd1       ?QueryInterface@?$CComObject@VCOPOSSoundPlayer@@@ATL@@WJM@AGJABU_GUID@@PAPAX@Z 1001cdd1 f i SoundPlayer.obj
 0001:0001bdde       ?QueryInterface@?$CComObject@VCOPOSSoundPlayer@@@ATL@@WKA@AGJABU_GUID@@PAPAX@Z 1001cdde f i SoundPlayer.obj
 0001:0001bdf0       ?QueryInterface@?$CComObjectCached@VCComClassFactory@ATL@@@ATL@@UAGJABU_GUID@@PAPAX@Z 1001cdf0 f i SoundPlayer.obj
 0001:0001be10       ?QueryInterface@CRegObject@ATL@@UAGJABU_GUID@@PAPAX@Z 1001ce10 f i SoundPlayer.obj
 0001:0001be60       ?QuickActivate@?$IQuickActivateImpl@VCOPOSSoundPlayer@@@ATL@@UAGJPAUtagQACONTAINER@@PAUtagQACONTROL@@@Z 1001ce60 f i SoundPlayer.obj
 0001:0001bef0       ?ReactivateAndUndo@?$IOleInPlaceObjectWindowlessImpl@VCOPOSSoundPlayer@@@ATL@@UAGJXZ 1001cef0 f i SoundPlayer.obj
 0001:0001bf60       ?ReadFromStream@CComBSTR@ATL@@QAEJPAUIStream@@@Z 1001cf60 f i SoundPlayer.obj
 0001:0001c360       ?ReadFromStream@CComVariant@ATL@@QAEJPAUIStream@@GTClassesAllowedInStream@2@K@Z 1001d360 f i SoundPlayer.obj
 0001:0001c6c0       ?RecurseDeleteKey@CRegKey@ATL@@QAEJPB_W@Z 1001d6c0 f i SoundPlayer.obj
 0001:0001c8a0       ?RegCreateKeyExW@CAtlTransactionManager@ATL@@QAEJPAUHKEY__@@PB_WKPA_WKKQAU_SECURITY_ATTRIBUTES@@PAPAU3@PAK@Z 1001d8a0 f i SoundPlayer.obj
 0001:0001c9d0       ?RegDeleteKeyW@CAtlTransactionManager@ATL@@QAEJPAUHKEY__@@PB_W@Z 1001d9d0 f i SoundPlayer.obj
 0001:0001cad0       ?RegOpenKeyExW@CAtlTransactionManager@ATL@@QAEJPAUHKEY__@@PB_WKKPAPAU3@@Z 1001dad0 f i SoundPlayer.obj
 0001:0001cbe0       ?Register@_ATL_WNDCLASSINFOW@ATL@@QAEGPAP6GJPAUHWND__@@IIJ@Z@Z 1001dbe0 f i SoundPlayer.obj
 0001:0001cc20       ?RegisterBuffer@CRegParser@ATL@@QAEJPA_WH@Z 1001dc20 f i SoundPlayer.obj
 0001:0001cf50       ?RegisterClassExW@AtlModuleRegisterWndClassInfoParamW@ATL@@SAGPAU_ATL_WIN_MODULE70@2@PBUtagWNDCLASSEXW@@@Z 1001df50 f i SoundPlayer.obj
 0001:0001cf70       ?RegisterFromResource@CRegObject@ATL@@IAEJPB_W00H@Z 1001df70 f i SoundPlayer.obj
 0001:0001d300       ?RegisterServer@?$CAtlModuleT@VCComModule@ATL@@@ATL@@QAEJHPBU_GUID@@@Z 1001e300 f i SoundPlayer.obj
 0001:0001d380       ?RegisterServer@CAtlComModule@ATL@@QAEJHPBU_GUID@@@Z 1001e380 f i SoundPlayer.obj
 0001:0001d3b0       ?RegisterServer@CComModule@ATL@@QAEJHPBU_GUID@@@Z 1001e3b0 f i SoundPlayer.obj
 0001:0001d490       ?RegisterSubkeys@CRegParser@ATL@@IAEJPA_WPAUHKEY__@@HH@Z 1001e490 f i SoundPlayer.obj
 0001:0001dfb0       ?Release@?$CComAggObject@VCOPOSSoundPlayer@@@ATL@@UAGKXZ 1001efb0 f i SoundPlayer.obj
 0001:0001e070       ?Release@?$CComContainedObject@VCOPOSSoundPlayer@@@ATL@@UAGKXZ 1001f070 f i SoundPlayer.obj
 0001:0001e08c       ?Release@?$CComContainedObject@VCOPOSSoundPlayer@@@ATL@@WHA@AGKXZ 1001f08c f i SoundPlayer.obj
 0001:0001e096       ?Release@?$CComContainedObject@VCOPOSSoundPlayer@@@ATL@@WHE@AGKXZ 1001f096 f i SoundPlayer.obj
 0001:0001e0a0       ?Release@?$CComContainedObject@VCOPOSSoundPlayer@@@ATL@@WHI@AGKXZ 1001f0a0 f i SoundPlayer.obj
 0001:0001e0aa       ?Release@?$CComContainedObject@VCOPOSSoundPlayer@@@ATL@@WHM@AGKXZ 1001f0aa f i SoundPlayer.obj
 0001:0001e0b4       ?Release@?$CComContainedObject@VCOPOSSoundPlayer@@@ATL@@WIA@AGKXZ 1001f0b4 f i SoundPlayer.obj
 0001:0001e0c1       ?Release@?$CComContainedObject@VCOPOSSoundPlayer@@@ATL@@WIE@AGKXZ 1001f0c1 f i SoundPlayer.obj
 0001:0001e0ce       ?Release@?$CComContainedObject@VCOPOSSoundPlayer@@@ATL@@WII@AGKXZ 1001f0ce f i SoundPlayer.obj
 0001:0001e0db       ?Release@?$CComContainedObject@VCOPOSSoundPlayer@@@ATL@@WIM@AGKXZ 1001f0db f i SoundPlayer.obj
 0001:0001e0e8       ?Release@?$CComContainedObject@VCOPOSSoundPlayer@@@ATL@@WJA@AGKXZ 1001f0e8 f i SoundPlayer.obj
 0001:0001e0f5       ?Release@?$CComContainedObject@VCOPOSSoundPlayer@@@ATL@@WJE@AGKXZ 1001f0f5 f i SoundPlayer.obj
 0001:0001e102       ?Release@?$CComContainedObject@VCOPOSSoundPlayer@@@ATL@@WJI@AGKXZ 1001f102 f i SoundPlayer.obj
 0001:0001e10f       ?Release@?$CComContainedObject@VCOPOSSoundPlayer@@@ATL@@WJM@AGKXZ 1001f10f f i SoundPlayer.obj
 0001:0001e11c       ?Release@?$CComContainedObject@VCOPOSSoundPlayer@@@ATL@@WKA@AGKXZ 1001f11c f i SoundPlayer.obj
 0001:0001e129       ?Release@?$CComContainedObject@VCOPOSSoundPlayer@@@ATL@@WKI@AGKXZ 1001f129 f i SoundPlayer.obj
 0001:0001e136       ?Release@?$CComContainedObject@VCOPOSSoundPlayer@@@ATL@@WLE@AGKXZ 1001f136 f i SoundPlayer.obj
 0001:0001e150       ?Release@?$CComObject@V?$CComEnum@UIEnumConnectionPoints@@$1?_GUID_b196b285_bab4_101a_b69c_00aa00341d07@@3U__s_GUID@@BPAUIConnectionPoint@@V?$_CopyInterface@UIConnectionPoint@@@ATL@@VCComSingleThreadModel@6@@ATL@@@ATL@@UAGKXZ 1001f150 f i SoundPlayer.obj
 0001:0001e210       ?Release@?$CComObject@V?$CComEnum@UIEnumConnections@@$1?_GUID_b196b287_bab4_101a_b69c_00aa00341d07@@3U__s_GUID@@BUtagCONNECTDATA@@V?$_Copy@UtagCONNECTDATA@@@ATL@@VCComSingleThreadModel@6@@ATL@@@ATL@@UAGKXZ 1001f210 f i SoundPlayer.obj
 0001:0001e2d0       ?Release@?$CComObject@VCOPOSSoundPlayer@@@ATL@@UAGKXZ 1001f2d0 f i SoundPlayer.obj
 0001:0001e389       ?Release@?$CComObject@VCOPOSSoundPlayer@@@ATL@@WHA@AGKXZ 1001f389 f i SoundPlayer.obj
 0001:0001e393       ?Release@?$CComObject@VCOPOSSoundPlayer@@@ATL@@WHE@AGKXZ 1001f393 f i SoundPlayer.obj
 0001:0001e39d       ?Release@?$CComObject@VCOPOSSoundPlayer@@@ATL@@WHI@AGKXZ 1001f39d f i SoundPlayer.obj
 0001:0001e3a7       ?Release@?$CComObject@VCOPOSSoundPlayer@@@ATL@@WHM@AGKXZ 1001f3a7 f i SoundPlayer.obj
 0001:0001e3b1       ?Release@?$CComObject@VCOPOSSoundPlayer@@@ATL@@WIA@AGKXZ 1001f3b1 f i SoundPlayer.obj
 0001:0001e3be       ?Release@?$CComObject@VCOPOSSoundPlayer@@@ATL@@WIE@AGKXZ 1001f3be f i SoundPlayer.obj
 0001:0001e3cb       ?Release@?$CComObject@VCOPOSSoundPlayer@@@ATL@@WII@AGKXZ 1001f3cb f i SoundPlayer.obj
 0001:0001e3d8       ?Release@?$CComObject@VCOPOSSoundPlayer@@@ATL@@WIM@AGKXZ 1001f3d8 f i SoundPlayer.obj
 0001:0001e3e5       ?Release@?$CComObject@VCOPOSSoundPlayer@@@ATL@@WJA@AGKXZ 1001f3e5 f i SoundPlayer.obj
 0001:0001e3f2       ?Release@?$CComObject@VCOPOSSoundPlayer@@@ATL@@WJE@AGKXZ 1001f3f2 f i SoundPlayer.obj
 0001:0001e3ff       ?Release@?$CComObject@VCOPOSSoundPlayer@@@ATL@@WJI@AGKXZ 1001f3ff f i SoundPlayer.obj
 0001:0001e40c       ?Release@?$CComObject@VCOPOSSoundPlayer@@@ATL@@WJM@AGKXZ 1001f40c f i SoundPlayer.obj
 0001:0001e419       ?Release@?$CComObject@VCOPOSSoundPlayer@@@ATL@@WKA@AGKXZ 1001f419 f i SoundPlayer.obj
 0001:0001e426       ?Release@?$CComObject@VCOPOSSoundPlayer@@@ATL@@WKI@AGKXZ 1001f426 f i SoundPlayer.obj
 0001:0001e433       ?Release@?$CComObject@VCOPOSSoundPlayer@@@ATL@@WLE@AGKXZ 1001f433 f i SoundPlayer.obj
 0001:0001e440       ?Release@?$CComObjectCached@VCComClassFactory@ATL@@@ATL@@UAGKXZ 1001f440 f i SoundPlayer.obj
 0001:0001e4e0       ?Release@?$CComPtrBase@UIAdviseSink@@@ATL@@QAEXXZ 1001f4e0 f i SoundPlayer.obj
 0001:0001e540       ?Release@?$CComPtrBase@UIDispatch@@@ATL@@QAEXXZ 1001f540 f i SoundPlayer.obj
 0001:0001e5a0       ?Release@?$CComPtrBase@UIOleInPlaceSiteWindowless@@@ATL@@QAEXXZ 1001f5a0 f i SoundPlayer.obj
 0001:0001e600       ?Release@CRegObject@ATL@@UAGKXZ 1001f600 f i SoundPlayer.obj
 0001:0001e640       ?Remove@CComDynamicUnkArray@ATL@@QAEHK@Z 1001f640 f i SoundPlayer.obj
 0001:0001e6f0       ?RemoveAll@?$CSimpleMap@PA_WPA_WVCExpansionVectorEqualHelper@ATL@@@ATL@@QAEXXZ 1001f6f0 f i SoundPlayer.obj
 0001:0001e780       ?Reset@?$CComEnumImpl@UIEnumConnectionPoints@@$1?_GUID_b196b285_bab4_101a_b69c_00aa00341d07@@3U__s_GUID@@BPAUIConnectionPoint@@V?$_CopyInterface@UIConnectionPoint@@@ATL@@@ATL@@UAGJXZ 1001f780 f i SoundPlayer.obj
 0001:0001e7a0       ?Reset@?$CComEnumImpl@UIEnumConnections@@$1?_GUID_b196b287_bab4_101a_b69c_00aa00341d07@@3U__s_GUID@@BUtagCONNECTDATA@@V?$_Copy@UtagCONNECTDATA@@@ATL@@@ATL@@UAGJXZ 1001f7a0 f i SoundPlayer.obj
 0001:0001e7c0       ?ResizeBorder@?$IOleInPlaceActiveObjectImpl@VCOPOSSoundPlayer@@@ATL@@UAGJPBUtagRECT@@PAUIOleInPlaceUIWindow@@H@Z 1001f7c0 f i SoundPlayer.obj
 0001:0001e820       ?ResourceRegister@CRegObject@ATL@@QAGJPB_WI0@Z 1001f820 f i SoundPlayer.obj
 0001:0001e900       ?ResourceRegisterSz@CRegObject@ATL@@QAGJPB_W00@Z 1001f900 f i SoundPlayer.obj
 0001:0001ea00       ?ResourceUnregister@CRegObject@ATL@@QAGJPB_WI0@Z 1001fa00 f i SoundPlayer.obj
 0001:0001eae0       ?ResourceUnregisterSz@CRegObject@ATL@@QAGJPB_W00@Z 1001fae0 f i SoundPlayer.obj
 0001:0001ebe0       ?SODataDummy@COPOSSoundPlayer@@MAGJJ@Z 1001fbe0 f i SoundPlayer.obj
 0001:0001ebf0       ?SODirectIO@COPOSSoundPlayer@@MAGJJPAJPAPA_W@Z 1001fbf0 f i SoundPlayer.obj
 0001:0001edb0       ?SOError@COPOSSoundPlayer@@MAGJJJJPAJ@Z 1001fdb0 f i SoundPlayer.obj
 0001:0001ee70       ?SOOutputComplete@COPOSSoundPlayer@@MAGJJ@Z 1001fe70 f i SoundPlayer.obj
 0001:0001eef0       ?SOStatusUpdate@COPOSSoundPlayer@@MAGJJ@Z 1001fef0 f i SoundPlayer.obj
 0001:0001ef70       ?Save@?$IPersistStorageImpl@VCOPOSSoundPlayer@@@ATL@@UAGJPAUIStorage@@H@Z 1001ff70 f i SoundPlayer.obj
 0001:0001f0d0       ?Save@?$IPersistStreamInitImpl@VCOPOSSoundPlayer@@@ATL@@UAGJPAUIStream@@H@Z 100200d0 f i SoundPlayer.obj
 0001:0001f160       ?SaveCompleted@?$IPersistStorageImpl@VCOPOSSoundPlayer@@@ATL@@UAGJPAUIStorage@@@Z 10020160 f i SoundPlayer.obj
 0001:0001f1c0       ?SendOnDataChange@CComControlBase@ATL@@QAEJK@Z 100201c0 f i SoundPlayer.obj
 0001:0001f2b0       ?SendOnSave@CComControlBase@ATL@@QAEJXZ 100202b0 f i SoundPlayer.obj
 0001:0001f320       ?SendOnViewChange@CComControlBase@ATL@@QAEJKJ@Z 10020320 f i SoundPlayer.obj
 0001:0001f390       ?SetAdvise@?$IViewObjectExImpl@VCOPOSSoundPlayer@@@ATL@@UAGJKKPAUIAdviseSink@@@Z 10020390 f i SoundPlayer.obj
 0001:0001f420       ?SetClientSite@?$IOleObjectImpl@VCOPOSSoundPlayer@@@ATL@@UAGJPAUIOleClientSite@@@Z 10020420 f i SoundPlayer.obj
 0001:0001f4b0       ?SetColorScheme@?$IOleObjectImpl@VCOPOSSoundPlayer@@@ATL@@UAGJPAUtagLOGPALETTE@@@Z 100204b0 f i SoundPlayer.obj
 0001:0001f520       ?SetContentExtent@?$IQuickActivateImpl@VCOPOSSoundPlayer@@@ATL@@UAGJPAUtagSIZE@@@Z 10020520 f i SoundPlayer.obj
 0001:0001f5b0       ?SetControlFocus@CComControlBase@ATL@@QAEHH@Z 100205b0 f i SoundPlayer.obj
 0001:0001f730       ?SetDWORDValue@CRegKey@ATL@@QAEJPB_WK@Z 10020730 f i SoundPlayer.obj
 0001:0001f7b0       ?SetData@?$IDataObjectImpl@VCOPOSSoundPlayer@@@ATL@@UAGJPAUtagFORMATETC@@PAUtagSTGMEDIUM@@H@Z 100207b0 f i SoundPlayer.obj
 0001:0001f820       ?SetExtent@?$IOleObjectImpl@VCOPOSSoundPlayer@@@ATL@@UAGJKPAUtagSIZE@@@Z 10020820 f i SoundPlayer.obj
 0001:0001f8b0       ?SetHostNames@?$IOleObjectImpl@VCOPOSSoundPlayer@@@ATL@@UAGJPB_W0@Z 100208b0 f i SoundPlayer.obj
 0001:0001f910       ?SetInterfaceSafetyOptions@?$IObjectSafetyImpl@VCOPOSSoundPlayer@@$02@ATL@@UAGJABU_GUID@@KK@Z 10020910 f i SoundPlayer.obj
 0001:0001fa80       ?SetMoniker@?$IOleObjectImpl@VCOPOSSoundPlayer@@@ATL@@UAGJKPAUIMoniker@@@Z 10020a80 f i SoundPlayer.obj
 0001:0001faf0       ?SetMultiStringValue@CRegKey@ATL@@QAEJPB_W0@Z 10020af0 f i SoundPlayer.obj
 0001:0001fc10       ?SetObjectRects@?$IOleInPlaceObjectWindowlessImpl@VCOPOSSoundPlayer@@@ATL@@UAGJPBUtagRECT@@0@Z 10020c10 f i SoundPlayer.obj
 0001:0001fca0       ?SetStringValue@CRegKey@ATL@@QAEJPB_W0K@Z 10020ca0 f i SoundPlayer.obj
 0001:0001fdd0       ?SetVoid@CComClassFactory@ATL@@QAEXPAX@Z 10020dd0 f i SoundPlayer.obj
 0001:0001fdf0       ?SetVoid@CComObjectRootBase@ATL@@QAEXPAX@Z 10020df0 f i SoundPlayer.obj
 0001:0001fe10       ?SetWindowLongPtrW@@YAJPAUHWND__@@HJ@Z 10020e10 f i SoundPlayer.obj
 0001:0001fe40       ?ShowWindow@CWindow@ATL@@QAEHH@Z 10020e40 f i SoundPlayer.obj
 0001:0001fec0       ?Skip@?$CComEnumImpl@UIEnumConnectionPoints@@$1?_GUID_b196b285_bab4_101a_b69c_00aa00341d07@@3U__s_GUID@@BPAUIConnectionPoint@@V?$_CopyInterface@UIConnectionPoint@@@ATL@@@ATL@@UAGJK@Z 10020ec0 f i SoundPlayer.obj
 0001:0001ff40       ?Skip@?$CComEnumImpl@UIEnumConnections@@$1?_GUID_b196b287_bab4_101a_b69c_00aa00341d07@@3U__s_GUID@@BUtagCONNECTDATA@@V?$_Copy@UtagCONNECTDATA@@@ATL@@@ATL@@UAGJK@Z 10020f40 f i SoundPlayer.obj
 0001:0001ffc0       ?SkipAssignment@CRegParser@ATL@@IAEJPA_W@Z 10020fc0 f i SoundPlayer.obj
 0001:000200a0       ?SkipWhiteSpace@CRegParser@ATL@@IAEXXZ 100210a0 f i SoundPlayer.obj
 0001:000200f0       ?StartWindowProc@?$CWindowImplBaseT@VCWindow@ATL@@V?$CWinTraits@$0FGAAAAAA@$0A@@2@@ATL@@SGJPAUHWND__@@IIJ@Z 100210f0 f i SoundPlayer.obj
 0001:00020210       ?StrChrW@CRegParser@ATL@@KAPA_WPA_W_W@Z 10021210 f i SoundPlayer.obj
 0001:00020280       ?StrFromMap@CRegObject@ATL@@QAEPB_WPA_W@Z 10021280 f i SoundPlayer.obj
 0001:00020310       ?Swap@?$CComPtrBase@UIAdviseSink@@@ATL@@IAEXAAV12@@Z 10021310 f i SoundPlayer.obj
 0001:00020350       ?Swap@?$CComPtrBase@UIOleClientSite@@@ATL@@IAEXAAV12@@Z 10021350 f i SoundPlayer.obj
 0001:00020390       ?Swap@?$CComPtrBase@UIUnknown@@@ATL@@IAEXAAV12@@Z 10021390 f i SoundPlayer.obj
 0001:000203d0       ?T2COLE_EX@@YAPB_WPB_WI@Z  100213d0 f i SoundPlayer.obj
 0001:000203e0       ?T2OLE_EX@@YAPA_WPA_WI@Z   100213e0 f i SoundPlayer.obj
 0001:000203f0       ?Term@CAtlModule@ATL@@QAEXXZ 100213f0 f i SoundPlayer.obj
 0001:000204a0       ?Term@CComModule@ATL@@QAEXXZ 100214a0 f i SoundPlayer.obj
 0001:00020590       ?TranslateAcceleratorW@?$IOleInPlaceActiveObjectImpl@VCOPOSSoundPlayer@@@ATL@@UAGJPAUtagMSG@@@Z 10021590 f i SoundPlayer.obj
 0001:00020790       ?UIDeactivate@?$IOleInPlaceObjectWindowlessImpl@VCOPOSSoundPlayer@@@ATL@@UAGJXZ 10021790 f i SoundPlayer.obj
 0001:00020810       ?Unadvise@?$CProxy_IOPOSEvents@VCOPOSSoundPlayer@@@@UAGJK@Z 10021810 f i SoundPlayer.obj
 0001:00020850       ?Unadvise@?$IConnectionPointImpl@VCOPOSSoundPlayer@@$1?DIID__IOPOSSoundPlayerEvents@@3U_GUID@@BVCComDynamicUnkArray@ATL@@@ATL@@UAGJK@Z 10021850 f i SoundPlayer.obj
 0001:00020920       ?Unadvise@?$IConnectionPointImpl@VCOPOSSoundPlayer@@$1?IID_IPropertyNotifySink@@3U_GUID@@BVCComDynamicUnkArray@ATL@@@ATL@@UAGJK@Z 10021920 f i SoundPlayer.obj
 0001:000209f0       ?Unadvise@?$IOleObjectImpl@VCOPOSSoundPlayer@@@ATL@@UAGJK@Z 100219f0 f i SoundPlayer.obj
 0001:00020ac0       ?Unfreeze@?$IViewObjectExImpl@VCOPOSSoundPlayer@@@ATL@@UAGJK@Z 10021ac0 f i SoundPlayer.obj
 0001:00020b30       ?Unlock@?$CComCritSecLock@VCComCriticalSection@ATL@@@ATL@@QAEXXZ 10021b30 f i SoundPlayer.obj
 0001:00020ba0       ?Unlock@?$CComObjectRootEx@VCComSingleThreadModel@ATL@@@ATL@@QAEXXZ 10021ba0 f i SoundPlayer.obj
 0001:00020bc0       ?Unlock@CAtlModule@ATL@@UAEJXZ 10021bc0 f i SoundPlayer.obj
 0001:00020bf0       ?Unlock@CComCriticalSection@ATL@@QAEJXZ 10021bf0 f i SoundPlayer.obj
 0001:00020c30       ?Unlock@CComFakeCriticalSection@ATL@@QAEJXZ 10021c30 f i SoundPlayer.obj
 0001:00020c50       ?UnregisterServer@?$CAtlModuleT@VCComModule@ATL@@@ATL@@QAEJHPBU_GUID@@@Z 10021c50 f i SoundPlayer.obj
 0001:00020cc0       ?UnregisterServer@CAtlComModule@ATL@@QAEJHPBU_GUID@@@Z 10021cc0 f i SoundPlayer.obj
 0001:00020cf0       ?UnregisterServer@CComModule@ATL@@QAEJHPBU_GUID@@@Z 10021cf0 f i SoundPlayer.obj
 0001:00020dd0       ?Update@?$IOleObjectImpl@VCOPOSSoundPlayer@@@ATL@@UAGJXZ 10021dd0 f i SoundPlayer.obj
 0001:00020e30       ?UpdateRegistryFromResource@CAtlModule@ATL@@QAGJIHPAU_ATL_REGMAP_ENTRY@2@@Z 10021e30 f i SoundPlayer.obj
 0001:00021300       ?UpdateRegistryFromResource@CAtlModule@ATL@@QAGJPB_WHPAU_ATL_REGMAP_ENTRY@2@@Z 10022300 f i SoundPlayer.obj
 0001:000217f0       ?UpdateRegistryFromResource@CComModule@ATL@@UAGJIHPAU_ATL_REGMAP_ENTRY@2@@Z 100227f0 f i SoundPlayer.obj
 0001:00021820       ?UpdateRegistryFromResource@CComModule@ATL@@UAGJPB_WHPAU_ATL_REGMAP_ENTRY@2@@Z 10022820 f i SoundPlayer.obj
 0001:00021850       ?UpdateRegistryFromResourceD@CComModule@ATL@@UAGJIHPAU_ATL_REGMAP_ENTRY@2@@Z 10022850 f i SoundPlayer.obj
 0001:00021860       ?UpdateRegistryFromResourceD@CComModule@ATL@@UAGJPB_WHPAU_ATL_REGMAP_ENTRY@2@@Z 10022860 f i SoundPlayer.obj
 0001:00021870       ?VTFromRegType@CRegParser@ATL@@KAHPB_WAAG@Z 10022870 f i SoundPlayer.obj
 0001:00021950       ?WindowProc@?$CWindowImplBaseT@VCWindow@ATL@@V?$CWinTraits@$0FGAAAAAA@$0A@@2@@ATL@@SGJPAUHWND__@@IIJ@Z 10022950 f i SoundPlayer.obj
 0001:00021b60       ?WriteToStream@CComBSTR@ATL@@QAEJPAUIStream@@@Z 10022b60 f i SoundPlayer.obj
 0001:00021cc0       ?WriteToStream@CComVariant@ATL@@QAEJPAUIStream@@@Z 10022cc0 f i SoundPlayer.obj
 0001:00022000       ?WriteToStream@CComVariant@ATL@@QAEJPAUIStream@@G@Z 10023000 f i SoundPlayer.obj
 0001:000220d0       ?_AtlFinalConstruct@CComObjectRootBase@ATL@@QAEJXZ 100230d0 f i SoundPlayer.obj
 0001:000220f0       ?_AtlGetConversionACP@ATL@@YGIXZ 100230f0 f i SoundPlayer.obj
 0001:00022100       ?_AtlInitialConstruct@?$CComAggObject@VCOPOSSoundPlayer@@@ATL@@QAEJXZ 10023100 f i SoundPlayer.obj
 0001:00022150       ?_AtlInitialConstruct@?$CComObjectRootEx@VCComMultiThreadModel@ATL@@@ATL@@QAEJXZ 10023150 f i SoundPlayer.obj
 0001:00022180       ?_AtlInitialConstruct@?$CComObjectRootEx@VCComSingleThreadModel@ATL@@@ATL@@QAEJXZ 10023180 f i SoundPlayer.obj
 0001:000221a0       ?_AtlVerifyStackAvailable@_ATL_SAFE_ALLOCA_IMPL@ATL@@YA_NK@Z 100231a0 f i SoundPlayer.obj
 0001:00022350       ?_GetEntries@?$CComEnum@UIEnumConnectionPoints@@$1?_GUID_b196b285_bab4_101a_b69c_00aa00341d07@@3U__s_GUID@@BPAUIConnectionPoint@@V?$_CopyInterface@UIConnectionPoint@@@ATL@@VCComSingleThreadModel@6@@ATL@@SGPBU_ATL_INTMAP_ENTRY@2@XZ 10023350 f i SoundPlayer.obj
 0001:00022370       ?_GetEntries@?$CComEnum@UIEnumConnections@@$1?_GUID_b196b287_bab4_101a_b69c_00aa00341d07@@3U__s_GUID@@BUtagCONNECTDATA@@V?$_Copy@UtagCONNECTDATA@@@ATL@@VCComSingleThreadModel@6@@ATL@@SGPBU_ATL_INTMAP_ENTRY@2@XZ 10023370 f i SoundPlayer.obj
 0001:00022390       ?_GetEntries@CComClassFactory@ATL@@SGPBU_ATL_INTMAP_ENTRY@2@XZ 10023390 f i SoundPlayer.obj
 0001:000223b0       ?_GetEntries@COPOSSoundPlayer@@SGPBU_ATL_INTMAP_ENTRY@ATL@@XZ 100233b0 f i SoundPlayer.obj
 0001:000223d0       ?_GetRawUnknown@COPOSSoundPlayer@@QAEPAUIUnknown@@XZ 100233d0 f i SoundPlayer.obj
 0001:00022440       ?_GetViewStatus@COPOSSoundPlayer@@QAEKXZ 10023440 f i SoundPlayer.obj
 0001:00022460       ?_InternalQueryInterface@?$CComEnum@UIEnumConnectionPoints@@$1?_GUID_b196b285_bab4_101a_b69c_00aa00341d07@@3U__s_GUID@@BPAUIConnectionPoint@@V?$_CopyInterface@UIConnectionPoint@@@ATL@@VCComSingleThreadModel@6@@ATL@@QAEJABU_GUID@@PAPAX@Z 10023460 f i SoundPlayer.obj
 0001:000224a0       ?_InternalQueryInterface@?$CComEnum@UIEnumConnections@@$1?_GUID_b196b287_bab4_101a_b69c_00aa00341d07@@3U__s_GUID@@BUtagCONNECTDATA@@V?$_Copy@UtagCONNECTDATA@@@ATL@@VCComSingleThreadModel@6@@ATL@@QAEJABU_GUID@@PAPAX@Z 100234a0 f i SoundPlayer.obj
 0001:000224e0       ?_InternalQueryInterface@CComClassFactory@ATL@@QAEJABU_GUID@@PAPAX@Z 100234e0 f i SoundPlayer.obj
 0001:00022520       ?_InternalQueryInterface@COPOSSoundPlayer@@QAEJABU_GUID@@PAPAX@Z 10023520 f i SoundPlayer.obj
 0001:00022560       ?_LocCPQueryInterface@?$IConnectionPointImpl@VCOPOSSoundPlayer@@$1?DIID__IOPOSSoundPlayerEvents@@3U_GUID@@BVCComDynamicUnkArray@ATL@@@ATL@@UAGJABU_GUID@@PAPAX@Z 10023560 f i SoundPlayer.obj
 0001:00022600       ?_LocCPQueryInterface@?$IConnectionPointImpl@VCOPOSSoundPlayer@@$1?IID_IPropertyNotifySink@@3U_GUID@@BVCComDynamicUnkArray@ATL@@@ATL@@UAGJABU_GUID@@PAPAX@Z 10023600 f i SoundPlayer.obj
 0001:000226a0       ?atlCreate@?$CWindowImpl@VCOPOSSoundPlayer@@VCWindow@ATL@@V?$CWinTraits@$0FGAAAAAA@$0A@@3@@ATL@@QAEPAUHWND__@@PAU3@V_U_RECT@2@PB_WKKV_U_MENUorID@2@PAX@Z 100236a0 f i SoundPlayer.obj
 0001:00022750       ?atlCreate@?$CWindowImplBaseT@VCWindow@ATL@@V?$CWinTraits@$0FGAAAAAA@$0A@@2@@ATL@@QAEPAUHWND__@@PAU3@V_U_RECT@2@PB_WKKV_U_MENUorID@2@GPAX@Z 10023750 f i SoundPlayer.obj
 0001:000228d0       ?atlCreate@CRegKey@ATL@@QAEJPAUHKEY__@@PB_WPA_WKKPAU_SECURITY_ATTRIBUTES@@PAK@Z 100238d0 f i SoundPlayer.obj
 0001:00022a30       ?begin@CComDynamicUnkArray@ATL@@QAEPAPAUIUnknown@@XZ 10023a30 f i SoundPlayer.obj
 0001:00022a50       ?copy@?$_Copy@UtagCONNECTDATA@@@ATL@@SAJPAUtagCONNECTDATA@@PBU3@@Z 10023a50 f i SoundPlayer.obj
 0001:00022b10       ?copy@?$_CopyInterface@UIConnectionPoint@@@ATL@@SAJPAPAUIConnectionPoint@@PBQAU3@@Z 10023b10 f i SoundPlayer.obj
 0001:00022bd0       ?destroy@?$_Copy@UtagCONNECTDATA@@@ATL@@SAXPAUtagCONNECTDATA@@@Z 10023bd0 f i SoundPlayer.obj
 0001:00022c10       ?destroy@?$_CopyInterface@UIConnectionPoint@@@ATL@@SAXPAPAUIConnectionPoint@@@Z 10023c10 f i SoundPlayer.obj
 0001:00022c50       ?end@CComDynamicUnkArray@ATL@@QAEPAPAUIUnknown@@XZ 10023c50 f i SoundPlayer.obj
 0001:00022c70       ?init@?$_Copy@UtagCONNECTDATA@@@ATL@@SAXPAUtagCONNECTDATA@@@Z 10023c70 f i SoundPlayer.obj
 0001:00022c80       ?init@?$_CopyInterface@UIConnectionPoint@@@ATL@@SAXPAPAUIConnectionPoint@@@Z 10023c80 f i SoundPlayer.obj
 0001:00022c90       ?memcpy_s@Checked@ATL@@YAXPAXIPBXI@Z 10023c90 f i SoundPlayer.obj
 0001:00022cc0       ?ocscpy_s@@YA_NPA_WIPB_W@Z 10023cc0 f i SoundPlayer.obj
 0001:00022d20       ?ocslen@@YAHPB_W@Z         10023d20 f i SoundPlayer.obj
 0001:00022d50       ?tcsncpy_s@Checked@ATL@@YAHPA_WIPB_WI@Z 10023d50 f i SoundPlayer.obj
 0001:00022d80       ?wcscat_s@Checked@ATL@@YAXPA_WIPB_W@Z 10023d80 f i SoundPlayer.obj
 0001:00022db0       ?wcscpy_s@Checked@ATL@@YAXPA_WIPB_W@Z 10023db0 f i SoundPlayer.obj
 0001:00022de0       ?wcsncpy_s@Checked@ATL@@YAHPA_WIPB_WI@Z 10023de0 f i SoundPlayer.obj
 0001:00022e10       ?wcsstr@@YAPA_WPA_WPB_W@Z  10023e10 f i SoundPlayer.obj
 0001:00022e30       _InlineIsEqualGUID         10023e30 f i SoundPlayer.obj
 0001:00022ed0       _IsEqualGUID               10023ed0 f i SoundPlayer.obj
 0001:00022f20       ??0COPOSSoundPlayer@@QAE@XZ 10023f20 f   SoundPlayerImpl.obj
 0001:00023030       ?FinalConstruct@COPOSSoundPlayer@@QAEJXZ 10024030 f   SoundPlayerImpl.obj
 0001:00023100       ??1COPOSSoundPlayer@@UAE@XZ 10024100 f   SoundPlayerImpl.obj
 0001:000231e0       ?WriteTrace@COPOSSoundPlayer@@QAAXPB_WZZ 100241e0 f   SoundPlayerImpl.obj
 0001:00023290       ?WriteTraceString@COPOSSoundPlayer@@QAEXPB_WPA_W@Z 10024290 f   SoundPlayerImpl.obj
 0001:00023600       ?WriteTraceString@COPOSSoundPlayer@@QAAXPAXHHHPB_WZZ 10024600 f   SoundPlayerImpl.obj
 0001:00023830       ?WriteTraceError@COPOSSoundPlayer@@QAEXPB_WK@Z 10024830 f   SoundPlayerImpl.obj
 0001:00023920       ?WriteTraceMethods@COPOSSoundPlayer@@QAEXPAJH@Z 10024920 f   SoundPlayerImpl.obj
 0001:00023990       ?GetOposProp@COPOSSoundPlayer@@IAEJPBDJPAJJ@Z 10024990 f   SoundPlayerImpl.obj
 0001:00023c00       ?SetOposProp@COPOSSoundPlayer@@IAEJPBDJJJ@Z 10024c00 f   SoundPlayerImpl.obj
 0001:00023e90       ?GetOposProp@COPOSSoundPlayer@@IAEJPBDJPAFJ@Z 10024e90 f   SoundPlayerImpl.obj
 0001:00023f30       ?SetOposProp@COPOSSoundPlayer@@IAEJPBDJFJ@Z 10024f30 f   SoundPlayerImpl.obj
 0001:00023f90       ?GetOposProp@COPOSSoundPlayer@@IAEJPBDJPAPA_WJ@Z 10024f90 f   SoundPlayerImpl.obj
 0001:00024210       ?SetOposProp@COPOSSoundPlayer@@IAEJPBDJPA_WJ@Z 10025210 f   SoundPlayerImpl.obj
 0001:00024550       ?DoInvoke@COPOSSoundPlayer@@IAEJPBDJPAVOposVariant@@IHPAJ_N@Z 10025550 f   SoundPlayerImpl.obj
 0001:00024e80       ?SetCOFreezeEvents@COPOSSoundPlayer@@IAEXF@Z 10025e80 f   SoundPlayerImpl.obj
 0001:00024fc0       ?FreezeEvents@COPOSSoundPlayer@@MAGJH@Z 10025fc0 f   SoundPlayerImpl.obj
 0001:000250a0       ?OnDraw@COPOSSoundPlayer@@MAEJAAUATL_DRAWINFO@@@Z 100260a0 f   SoundPlayerImpl.obj
 0001:00025240       ?SOProcessID@COPOSSoundPlayer@@UAGJPAJ@Z 10026240 f   SoundPlayerImpl.obj
 0001:00025280       ?get_OpenResult@COPOSSoundPlayer@@UAGJPAJ@Z 10026280 f   SoundPlayerImpl.obj
 0001:000252c0       ?get_BinaryConversion@COPOSSoundPlayer@@UAGJPAJ@Z 100262c0 f   SoundPlayerImpl.obj
 0001:000252f0       ?put_BinaryConversion@COPOSSoundPlayer@@UAGJJ@Z 100262f0 f   SoundPlayerImpl.obj
 0001:00025320       ?get_CapPowerReporting@COPOSSoundPlayer@@UAGJPAJ@Z 10026320 f   SoundPlayerImpl.obj
 0001:00025350       ?get_CheckHealthText@COPOSSoundPlayer@@UAGJPAPA_W@Z 10026350 f   SoundPlayerImpl.obj
 0001:00025380       ?get_Claimed@COPOSSoundPlayer@@UAGJPAF@Z 10026380 f   SoundPlayerImpl.obj
 0001:000253b0       ?get_DeviceEnabled@COPOSSoundPlayer@@UAGJPAF@Z 100263b0 f   SoundPlayerImpl.obj
 0001:000253e0       ?put_DeviceEnabled@COPOSSoundPlayer@@UAGJF@Z 100263e0 f   SoundPlayerImpl.obj
 0001:00025410       ?get_FreezeEvents@COPOSSoundPlayer@@UAGJPAF@Z 10026410 f   SoundPlayerImpl.obj
 0001:00025440       ?put_FreezeEvents@COPOSSoundPlayer@@UAGJF@Z 10026440 f   SoundPlayerImpl.obj
 0001:000254d0       ?get_OutputID@COPOSSoundPlayer@@UAGJPAJ@Z 100264d0 f   SoundPlayerImpl.obj
 0001:00025500       ?get_PowerNotify@COPOSSoundPlayer@@UAGJPAJ@Z 10026500 f   SoundPlayerImpl.obj
 0001:00025530       ?put_PowerNotify@COPOSSoundPlayer@@UAGJJ@Z 10026530 f   SoundPlayerImpl.obj
 0001:00025560       ?get_PowerState@COPOSSoundPlayer@@UAGJPAJ@Z 10026560 f   SoundPlayerImpl.obj
 0001:00025590       ?get_ResultCode@COPOSSoundPlayer@@UAGJPAJ@Z 10026590 f   SoundPlayerImpl.obj
 0001:00025620       ?get_ResultCodeExtended@COPOSSoundPlayer@@UAGJPAJ@Z 10026620 f   SoundPlayerImpl.obj
 0001:00025650       ?get_State@COPOSSoundPlayer@@UAGJPAJ@Z 10026650 f   SoundPlayerImpl.obj
 0001:000256a0       ?get_ControlObjectDescription@COPOSSoundPlayer@@UAGJPAPA_W@Z 100266a0 f   SoundPlayerImpl.obj
 0001:00025720       ?get_ControlObjectVersion@COPOSSoundPlayer@@UAGJPAJ@Z 10026720 f   SoundPlayerImpl.obj
 0001:00025760       ?get_ServiceObjectDescription@COPOSSoundPlayer@@UAGJPAPA_W@Z 10026760 f   SoundPlayerImpl.obj
 0001:00025790       ?get_ServiceObjectVersion@COPOSSoundPlayer@@UAGJPAJ@Z 10026790 f   SoundPlayerImpl.obj
 0001:000257c0       ?get_DeviceDescription@COPOSSoundPlayer@@UAGJPAPA_W@Z 100267c0 f   SoundPlayerImpl.obj
 0001:000257f0       ?get_DeviceName@COPOSSoundPlayer@@UAGJPAPA_W@Z 100267f0 f   SoundPlayerImpl.obj
 0001:00025820       ?get_CapStatisticsReporting@COPOSSoundPlayer@@UAGJPAF@Z 10026820 f   SoundPlayerImpl.obj
 0001:00025850       ?get_CapUpdateStatistics@COPOSSoundPlayer@@UAGJPAF@Z 10026850 f   SoundPlayerImpl.obj
 0001:00025880       ?get_CapCompareFirmwareVersion@COPOSSoundPlayer@@UAGJPAF@Z 10026880 f   SoundPlayerImpl.obj
 0001:000258b0       ?get_CapUpdateFirmware@COPOSSoundPlayer@@UAGJPAF@Z 100268b0 f   SoundPlayerImpl.obj
 0001:000258e0       ?CheckHealth@COPOSSoundPlayer@@UAGJJPAJ@Z 100268e0 f   SoundPlayerImpl.obj
 0001:00025980       ?ClaimDevice@COPOSSoundPlayer@@UAGJJPAJ@Z 10026980 f   SoundPlayerImpl.obj
 0001:00025a60       ?ClearOutput@COPOSSoundPlayer@@UAGJPAJ@Z 10026a60 f   SoundPlayerImpl.obj
 0001:00025a90       ?Close@COPOSSoundPlayer@@UAGJPAJ@Z 10026a90 f   SoundPlayerImpl.obj
 0001:00025b60       ?DirectIO@COPOSSoundPlayer@@UAGJJPAJPAPA_W0@Z 10026b60 f   SoundPlayerImpl.obj
 0001:00025c70       ?Open@COPOSSoundPlayer@@UAGJPA_WPAJ@Z 10026c70 f   SoundPlayerImpl.obj
 0001:00026e60       ?ReleaseDevice@COPOSSoundPlayer@@UAGJPAJ@Z 10027e60 f   SoundPlayerImpl.obj
 0001:00026ed0       ?ResetStatistics@COPOSSoundPlayer@@UAGJPA_WPAJ@Z 10027ed0 f   SoundPlayerImpl.obj
 0001:00026f80       ?RetrieveStatistics@COPOSSoundPlayer@@UAGJPAPA_WPAJ@Z 10027f80 f   SoundPlayerImpl.obj
 0001:00027030       ?UpdateStatistics@COPOSSoundPlayer@@UAGJPA_WPAJ@Z 10028030 f   SoundPlayerImpl.obj
 0001:000270e0       ?CompareFirmwareVersion@COPOSSoundPlayer@@UAGJPA_WPAJ1@Z 100280e0 f   SoundPlayerImpl.obj
 0001:000271d0       ?UpdateFirmware@COPOSSoundPlayer@@UAGJPA_WPAJ@Z 100281d0 f   SoundPlayerImpl.obj
 0001:00027280       ?get_CapAssociatedHardTotalsDevice@COPOSSoundPlayer@@UAGJPAPA_W@Z 10028280 f   SoundPlayerImpl.obj
 0001:000272b0       ?get_CapMultiPlay@COPOSSoundPlayer@@UAGJPAF@Z 100282b0 f   SoundPlayerImpl.obj
 0001:000272e0       ?get_CapSoundTypeList@COPOSSoundPlayer@@UAGJPAPA_W@Z 100282e0 f   SoundPlayerImpl.obj
 0001:00027310       ?get_CapStorage@COPOSSoundPlayer@@UAGJPAJ@Z 10028310 f   SoundPlayerImpl.obj
 0001:00027340       ?get_CapVolume@COPOSSoundPlayer@@UAGJPAF@Z 10028340 f   SoundPlayerImpl.obj
 0001:00027370       ?get_DeviceSoundList@COPOSSoundPlayer@@UAGJPAPA_W@Z 10028370 f   SoundPlayerImpl.obj
 0001:000273a0       ?get_OutputIDList@COPOSSoundPlayer@@UAGJPAPA_W@Z 100283a0 f   SoundPlayerImpl.obj
 0001:000273d0       ?get_Storage@COPOSSoundPlayer@@UAGJPAJ@Z 100283d0 f   SoundPlayerImpl.obj
 0001:00027400       ?put_Storage@COPOSSoundPlayer@@UAGJJ@Z 10028400 f   SoundPlayerImpl.obj
 0001:00027430       ?get_Volume@COPOSSoundPlayer@@UAGJPAJ@Z 10028430 f   SoundPlayerImpl.obj
 0001:00027460       ?put_Volume@COPOSSoundPlayer@@UAGJJ@Z 10028460 f   SoundPlayerImpl.obj
 0001:00027490       ?PlaySoundW@COPOSSoundPlayer@@UAGJPA_WFPAJ@Z 10028490 f   SoundPlayerImpl.obj
 0001:00027580       ?StopSound@COPOSSoundPlayer@@UAGJJPAJ@Z 10028580 f   SoundPlayerImpl.obj
 0001:00027620       ??0?$CComControl@VCOPOSSoundPlayer@@V?$CWindowImpl@VCOPOSSoundPlayer@@VCWindow@ATL@@V?$CWinTraits@$0FGAAAAAA@$0A@@3@@ATL@@@ATL@@QAE@XZ 10028620 f i SoundPlayerImpl.obj
 0001:00027660       ??0?$CComPtr@UIAdviseSink@@@ATL@@QAE@XZ 10028660 f i SoundPlayerImpl.obj
 0001:00027690       ??0?$CComPtr@UIDataAdviseHolder@@@ATL@@QAE@XZ 10028690 f i SoundPlayerImpl.obj
 0001:000276c0       ??0?$CComPtr@UIOleAdviseHolder@@@ATL@@QAE@XZ 100286c0 f i SoundPlayerImpl.obj
 0001:000276f0       ??0?$CComPtr@UIOleClientSite@@@ATL@@QAE@XZ 100286f0 f i SoundPlayerImpl.obj
 0001:00027720       ??0?$CComPtr@UIOleInPlaceSiteWindowless@@@ATL@@QAE@XZ 10028720 f i SoundPlayerImpl.obj
 0001:00027750       ??0?$CComPtrBase@UIAdviseSink@@@ATL@@IAE@XZ 10028750 f i SoundPlayerImpl.obj
 0001:00027770       ??0?$CComPtrBase@UIDataAdviseHolder@@@ATL@@IAE@XZ 10028770 f i SoundPlayerImpl.obj
 0001:00027790       ??0?$CComPtrBase@UIOleAdviseHolder@@@ATL@@IAE@XZ 10028790 f i SoundPlayerImpl.obj
 0001:000277b0       ??0?$CComPtrBase@UIOleClientSite@@@ATL@@IAE@XZ 100287b0 f i SoundPlayerImpl.obj
 0001:000277d0       ??0?$CComPtrBase@UIOleInPlaceSiteWindowless@@@ATL@@IAE@XZ 100287d0 f i SoundPlayerImpl.obj
 0001:000277f0       ??0?$CComQIPtr@UIDispatch@@$1?_GUID_00020400_0000_0000_c000_000000000046@@3U__s_GUID@@B@ATL@@QAE@XZ 100287f0 f i SoundPlayerImpl.obj
 0001:00027820       ??0?$CProxy_IOPOSEvents@VCOPOSSoundPlayer@@@@QAE@PAVCOPOSSoundPlayer@@@Z 10028820 f i SoundPlayerImpl.obj
 0001:00027890       ??0?$CWindowImpl@VCOPOSSoundPlayer@@VCWindow@ATL@@V?$CWinTraits@$0FGAAAAAA@$0A@@3@@ATL@@QAE@XZ 10028890 f i SoundPlayerImpl.obj
 0001:000278c0       ??0?$CWindowImplBaseT@VCWindow@ATL@@V?$CWinTraits@$0FGAAAAAA@$0A@@2@@ATL@@QAE@XZ 100288c0 f i SoundPlayerImpl.obj
 0001:00027900       ??0?$CWindowImplRoot@VCWindow@ATL@@@ATL@@QAE@XZ 10028900 f i SoundPlayerImpl.obj
 0001:00027960       ??0?$IConnectionPointContainerImpl@VCOPOSSoundPlayer@@@ATL@@QAE@XZ 10028960 f i SoundPlayerImpl.obj
 0001:00027990       ??0?$IConnectionPointImpl@VCOPOSSoundPlayer@@$1?DIID__IOPOSSoundPlayerEvents@@3U_GUID@@BVCComDynamicUnkArray@ATL@@@ATL@@QAE@XZ 10028990 f i SoundPlayerImpl.obj
 0001:000279d0       ??0?$IConnectionPointImpl@VCOPOSSoundPlayer@@$1?IID_IPropertyNotifySink@@3U_GUID@@BVCComDynamicUnkArray@ATL@@@ATL@@QAE@XZ 100289d0 f i SoundPlayerImpl.obj
 0001:00027a10       ??0?$IDataObjectImpl@VCOPOSSoundPlayer@@@ATL@@QAE@XZ 10028a10 f i SoundPlayerImpl.obj
 0001:00027a40       ??0?$IDispatchImpl@UIOPOSSoundPlayer@@$1?IID_IOPOSSoundPlayer@@3U_GUID@@B$1?LIBID_OposSoundPlayer_CCO@@3U3@B$00$0A@VCComTypeInfoHolder@ATL@@@ATL@@QAE@XZ 10028a40 f i SoundPlayerImpl.obj
 0001:00027a70       ??0?$IObjectSafetyImpl@VCOPOSSoundPlayer@@$02@ATL@@QAE@XZ 10028a70 f i SoundPlayerImpl.obj
 0001:00027ab0       ??0?$IOleControlImpl@VCOPOSSoundPlayer@@@ATL@@QAE@XZ 10028ab0 f i SoundPlayerImpl.obj
 0001:00027ae0       ??0?$IOleInPlaceActiveObjectImpl@VCOPOSSoundPlayer@@@ATL@@QAE@XZ 10028ae0 f i SoundPlayerImpl.obj
 0001:00027b10       ??0?$IOleInPlaceObjectWindowlessImpl@VCOPOSSoundPlayer@@@ATL@@QAE@XZ 10028b10 f i SoundPlayerImpl.obj
 0001:00027b40       ??0?$IOleObjectImpl@VCOPOSSoundPlayer@@@ATL@@QAE@XZ 10028b40 f i SoundPlayerImpl.obj
 0001:00027b70       ??0?$IPersistStorageImpl@VCOPOSSoundPlayer@@@ATL@@QAE@XZ 10028b70 f i SoundPlayerImpl.obj
 0001:00027ba0       ??0?$IPersistStreamInitImpl@VCOPOSSoundPlayer@@@ATL@@QAE@XZ 10028ba0 f i SoundPlayerImpl.obj
 0001:00027bd0       ??0?$IPropertyNotifySinkCP@VCOPOSSoundPlayer@@VCComDynamicUnkArray@ATL@@@ATL@@QAE@XZ 10028bd0 f i SoundPlayerImpl.obj
 0001:00027c00       ??0?$IProvideClassInfo2Impl@$1?CLSID_OPOSSoundPlayer@@3U_GUID@@B$1?DIID__IOPOSSoundPlayerEvents@@3U2@B$1?LIBID_OposSoundPlayer_CCO@@3U2@B$00$0A@VCComTypeInfoHolder@ATL@@@ATL@@QAE@XZ 10028c00 f i SoundPlayerImpl.obj
 0001:00027c30       ??0?$IQuickActivateImpl@VCOPOSSoundPlayer@@@ATL@@QAE@XZ 10028c30 f i SoundPlayerImpl.obj
 0001:00027c60       ??0?$ISpecifyPropertyPagesImpl@VCOPOSSoundPlayer@@@ATL@@QAE@XZ 10028c60 f i SoundPlayerImpl.obj
 0001:00027c90       ??0?$IViewObjectExImpl@VCOPOSSoundPlayer@@@ATL@@QAE@XZ 10028c90 f i SoundPlayerImpl.obj
 0001:00027cc0       ??0?$_ICPLocator@$1?DIID__IOPOSSoundPlayerEvents@@3U_GUID@@B@ATL@@QAE@XZ 10028cc0 f i SoundPlayerImpl.obj
 0001:00027ce0       ??0?$_ICPLocator@$1?IID_IPropertyNotifySink@@3U_GUID@@B@ATL@@QAE@XZ 10028ce0 f i SoundPlayerImpl.obj
 0001:00027d00       ??0CComControlBase@ATL@@QAE@AAPAUHWND__@@@Z 10028d00 f i SoundPlayerImpl.obj
 0001:00027eb0       ??0CComDynamicUnkArray@ATL@@QAE@XZ 10028eb0 f i SoundPlayerImpl.obj
 0001:00027ee0       ??0CDynamicStdCallThunk2@ATL@@QAE@XZ 10028ee0 f i SoundPlayerImpl.obj
 0001:00027f00       ??0CMessageMap@ATL@@QAE@XZ 10028f00 f i SoundPlayerImpl.obj
 0001:00027f20       ??0CWindow@ATL@@QAE@PAUHWND__@@@Z 10028f20 f i SoundPlayerImpl.obj
 0001:00027f40       ??0CWndProcThunk@ATL@@QAE@XZ 10028f40 f i SoundPlayerImpl.obj
 0001:00027f70       ??0IConnectionPointContainer@@QAE@XZ 10028f70 f i SoundPlayerImpl.obj
 0001:00027fa0       ??0IDataObject@@QAE@XZ     10028fa0 f i SoundPlayerImpl.obj
 0001:00027fd0       ??0IDispatch@@QAE@XZ       10028fd0 f i SoundPlayerImpl.obj
 0001:00028000       ??0IOPOSSoundPlayer@@QAE@XZ 10029000 f i SoundPlayerImpl.obj
 0001:00028030       ??0IOPOSSoundPlayer_1_16@@QAE@XZ 10029030 f i SoundPlayerImpl.obj
 0001:00028060       ??0IObjectSafety@@QAE@XZ   10029060 f i SoundPlayerImpl.obj
 0001:00028090       ??0IOleControl@@QAE@XZ     10029090 f i SoundPlayerImpl.obj
 0001:000280c0       ??0IOleInPlaceActiveObject@@QAE@XZ 100290c0 f i SoundPlayerImpl.obj
 0001:000280f0       ??0IOleInPlaceObject@@QAE@XZ 100290f0 f i SoundPlayerImpl.obj
 0001:00028120       ??0IOleInPlaceObjectWindowless@@QAE@XZ 10029120 f i SoundPlayerImpl.obj
 0001:00028150       ??0IOleObject@@QAE@XZ      10029150 f i SoundPlayerImpl.obj
 0001:00028180       ??0IOleWindow@@QAE@XZ      10029180 f i SoundPlayerImpl.obj
 0001:000281b0       ??0IPersist@@QAE@XZ        100291b0 f i SoundPlayerImpl.obj
 0001:000281e0       ??0IPersistStorage@@QAE@XZ 100291e0 f i SoundPlayerImpl.obj
 0001:00028210       ??0IPersistStreamInit@@QAE@XZ 10029210 f i SoundPlayerImpl.obj
 0001:00028240       ??0IProvideClassInfo2@@QAE@XZ 10029240 f i SoundPlayerImpl.obj
 0001:00028270       ??0IProvideClassInfo@@QAE@XZ 10029270 f i SoundPlayerImpl.obj
 0001:000282a0       ??0IQuickActivate@@QAE@XZ  100292a0 f i SoundPlayerImpl.obj
 0001:000282d0       ??0ISpecifyPropertyPages@@QAE@XZ 100292d0 f i SoundPlayerImpl.obj
 0001:00028300       ??0IViewObject2@@QAE@XZ    10029300 f i SoundPlayerImpl.obj
 0001:00028330       ??0IViewObject@@QAE@XZ     10029330 f i SoundPlayerImpl.obj
 0001:00028360       ??0IViewObjectEx@@QAE@XZ   10029360 f i SoundPlayerImpl.obj
 0001:00028390       ??0OposVariantResult@@QAE@XZ 10029390 f i SoundPlayerImpl.obj
 0001:000283c0       ??0_CW@@QAE@PBD@Z          100293c0 f i SoundPlayerImpl.obj
 0001:00028400       ??0_CW@@QAE@PB_W@Z         10029400 f i SoundPlayerImpl.obj
 0001:00028440       ??0_CWNCC@@QAE@PBD@Z       10029440 f i SoundPlayerImpl.obj
 0001:00028470       ??1?$CComControl@VCOPOSSoundPlayer@@V?$CWindowImpl@VCOPOSSoundPlayer@@VCWindow@ATL@@V?$CWinTraits@$0FGAAAAAA@$0A@@3@@ATL@@@ATL@@UAE@XZ 10029470 f i SoundPlayerImpl.obj
 0001:000284a0       ??1?$CComPtr@UIDataAdviseHolder@@@ATL@@QAE@XZ 100294a0 f i SoundPlayerImpl.obj
 0001:000284d0       ??1?$CComPtr@UIOleAdviseHolder@@@ATL@@QAE@XZ 100294d0 f i SoundPlayerImpl.obj
 0001:00028500       ??1?$CComPtr@UIOleInPlaceSiteWindowless@@@ATL@@QAE@XZ 10029500 f i SoundPlayerImpl.obj
 0001:00028530       ??1?$CComPtrBase@UIDataAdviseHolder@@@ATL@@QAE@XZ 10029530 f i SoundPlayerImpl.obj
 0001:00028580       ??1?$CComPtrBase@UIOleAdviseHolder@@@ATL@@QAE@XZ 10029580 f i SoundPlayerImpl.obj
 0001:000285d0       ??1?$CComPtrBase@UIOleInPlaceSiteWindowless@@@ATL@@QAE@XZ 100295d0 f i SoundPlayerImpl.obj
 0001:00028620       ??1?$CComQIPtr@UIDispatch@@$1?_GUID_00020400_0000_0000_c000_000000000046@@3U__s_GUID@@B@ATL@@QAE@XZ 10029620 f i SoundPlayerImpl.obj
 0001:00028650       ??1?$CProxy_IOPOSEvents@VCOPOSSoundPlayer@@@@QAE@XZ 10029650 f i SoundPlayerImpl.obj
 0001:00028680       ??1?$CWindowImpl@VCOPOSSoundPlayer@@VCWindow@ATL@@V?$CWinTraits@$0FGAAAAAA@$0A@@3@@ATL@@UAE@XZ 10029680 f i SoundPlayerImpl.obj
 0001:000286b0       ??1?$CWindowImplBaseT@VCWindow@ATL@@V?$CWinTraits@$0FGAAAAAA@$0A@@2@@ATL@@UAE@XZ 100296b0 f i SoundPlayerImpl.obj
 0001:000286e0       ??1?$CWindowImplRoot@VCWindow@ATL@@@ATL@@UAE@XZ 100296e0 f i SoundPlayerImpl.obj
 0001:00028780       ??1?$IConnectionPointImpl@VCOPOSSoundPlayer@@$1?DIID__IOPOSSoundPlayerEvents@@3U_GUID@@BVCComDynamicUnkArray@ATL@@@ATL@@QAE@XZ 10029780 f i SoundPlayerImpl.obj
 0001:00028800       ??1?$IConnectionPointImpl@VCOPOSSoundPlayer@@$1?IID_IPropertyNotifySink@@3U_GUID@@BVCComDynamicUnkArray@ATL@@@ATL@@QAE@XZ 10029800 f i SoundPlayerImpl.obj
 0001:00028880       ??1?$IPropertyNotifySinkCP@VCOPOSSoundPlayer@@VCComDynamicUnkArray@ATL@@@ATL@@QAE@XZ 10029880 f i SoundPlayerImpl.obj
 0001:000288b0       ??1CComControlBase@ATL@@UAE@XZ 100298b0 f i SoundPlayerImpl.obj
 0001:00028970       ??1CComDynamicUnkArray@ATL@@QAE@XZ 10029970 f i SoundPlayerImpl.obj
 0001:000289b0       ??1CDynamicStdCallThunk2@ATL@@QAE@XZ 100299b0 f i SoundPlayerImpl.obj
 0001:000289e0       ??1CWndProcThunk@ATL@@QAE@XZ 100299e0 f i SoundPlayerImpl.obj
 0001:00028a10       ??1OposVariantResult@@QAE@XZ 10029a10 f i SoundPlayerImpl.obj
 0001:00028a40       ??1_CW@@QAE@XZ             10029a40 f i SoundPlayerImpl.obj
 0001:00028ab0       ??1_CWNCC@@QAE@XZ          10029ab0 f i SoundPlayerImpl.obj
 0001:00028ae0       ??B_CW@@QAEPB_WXZ          10029ae0 f i SoundPlayerImpl.obj
 0001:00028b20       ??B_CWNCC@@QAEPA_WXZ       10029b20 f i SoundPlayerImpl.obj
 0001:00028b50       ??_EOposVariant@@QAEPAXI@Z 10029b50 f i SoundPlayerImpl.obj
 0001:00028be0       ?EventClaim@COPOSSoundPlayer@@IAEXXZ 10029be0 f i SoundPlayerImpl.obj
 0001:00028c20       ?EventClose@COPOSSoundPlayer@@IAEXXZ 10029c20 f i SoundPlayerImpl.obj
 0001:00028cc0       ?EventInit@COPOSSoundPlayer@@IAEJXZ 10029cc0 f i SoundPlayerImpl.obj
 0001:00028ef0       ?EventOpen@COPOSSoundPlayer@@IAEXXZ 10029ef0 f i SoundPlayerImpl.obj
 0001:00028f30       ?EventPreCloseRelease@COPOSSoundPlayer@@IAEXXZ 10029f30 f i SoundPlayerImpl.obj
 0001:00028fb0       ?EventUninit@COPOSSoundPlayer@@IAEXXZ 10029fb0 f i SoundPlayerImpl.obj
 0001:000290e0       ?EventWindowProc@COPOSSoundPlayer@@IAGJIIJ@Z 1002a0e0 f i SoundPlayerImpl.obj
 0001:00029260       ?FireEventCleanup@COPOSSoundPlayer@@IAEXXZ 1002a260 f i SoundPlayerImpl.obj
 0001:000292b0       ?FireEventSetup@COPOSSoundPlayer@@IAE_NXZ 1002a2b0 f i SoundPlayerImpl.obj
 0001:00029320       ?GetModuleInstance@CComModule@ATL@@QAEPAUHINSTANCE__@@XZ 1002a320 f i SoundPlayerImpl.obj
 0001:00029340       ?SetRC@COPOSSoundPlayer@@IAEJJ@Z 1002a340 f i SoundPlayerImpl.obj
 0001:00029370       ?s_EventWindowProc@COPOSSoundPlayer@@KGJPAUHWND__@@IIJ@Z 1002a370 f i SoundPlayerImpl.obj
 0001:00029410       __snwprintf                1002a410 f i SoundPlayerImpl.obj
 0001:00029470       __vfwprintf_l              1002a470 f i SoundPlayerImpl.obj
 0001:000294a0       __vsnwprintf               1002a4a0 f i SoundPlayerImpl.obj
 0001:000294d0       __vsnwprintf_l             1002a4d0 f i SoundPlayerImpl.obj
 0001:00029540       _vfwprintf                 1002a540 f i SoundPlayerImpl.obj
 0001:00029562       _DebugBreak@0              1002a562 f   kernel32:KERNEL32.dll
 0001:00029568       _Sleep@4                   1002a568 f   kernel32:KERNEL32.dll
 0001:0002956e       _GetCurrentProcess@0       1002a56e f   kernel32:KERNEL32.dll
 0001:00029574       _TerminateProcess@8        1002a574 f   kernel32:KERNEL32.dll
 0001:0002957a       _MultiByteToWideChar@24    1002a57a f   kernel32:KERNEL32.dll
 0001:00029580       _WideCharToMultiByte@32    1002a580 f   kernel32:KERNEL32.dll
 0001:00029586       _DecodePointer@4           1002a586 f   kernel32:KERNEL32.dll
 0001:0002958c       _RaiseException@16         1002a58c f   kernel32:KERNEL32.dll
 0001:00029592       _GetLastError@0            1002a592 f   kernel32:KERNEL32.dll
 0001:00029598       _SetLastError@4            1002a598 f   kernel32:KERNEL32.dll
 0001:0002959e       _InitializeCriticalSectionEx@12 1002a59e f   kernel32:KERNEL32.dll
 0001:000295a4       _DeleteCriticalSection@4   1002a5a4 f   kernel32:KERNEL32.dll
 0001:000295aa       _EncodePointer@4           1002a5aa f   kernel32:KERNEL32.dll
 0001:000295b0       _EnterCriticalSection@4    1002a5b0 f   kernel32:KERNEL32.dll
 0001:000295b6       _LeaveCriticalSection@4    1002a5b6 f   kernel32:KERNEL32.dll
 0001:000295bc       _ResetEvent@4              1002a5bc f   kernel32:KERNEL32.dll
 0001:000295c2       _ReleaseMutex@4            1002a5c2 f   kernel32:KERNEL32.dll
 0001:000295c8       _WaitForSingleObject@8     1002a5c8 f   kernel32:KERNEL32.dll
 0001:000295ce       _GetCurrentThreadId@0      1002a5ce f   kernel32:KERNEL32.dll
 0001:000295d4       _DisableThreadLibraryCalls@4 1002a5d4 f   kernel32:KERNEL32.dll
 0001:000295da       _FreeLibrary@4             1002a5da f   kernel32:KERNEL32.dll
 0001:000295e0       _GetModuleFileNameW@12     1002a5e0 f   kernel32:KERNEL32.dll
 0001:000295e6       _GetModuleHandleW@4        1002a5e6 f   kernel32:KERNEL32.dll
 0001:000295ec       _GetProcAddress@8          1002a5ec f   kernel32:KERNEL32.dll
 0001:000295f2       _LoadLibraryExW@12         1002a5f2 f   kernel32:KERNEL32.dll
 0001:000295f8       _LoadResource@8            1002a5f8 f   kernel32:KERNEL32.dll
 0001:000295fe       _SizeofResource@8          1002a5fe f   kernel32:KERNEL32.dll
 0001:00029604       _FindResourceW@12          1002a604 f   kernel32:KERNEL32.dll
 0001:0002960a       _GlobalAlloc@8             1002a60a f   kernel32:KERNEL32.dll
 0001:00029610       _GlobalUnlock@4            1002a610 f   kernel32:KERNEL32.dll
 0001:00029616       _GlobalLock@4              1002a616 f   kernel32:KERNEL32.dll
 0001:0002961c       _MulDiv@12                 1002a61c f   kernel32:KERNEL32.dll
 0001:00029622       _lstrcmpiW@8               1002a622 f   kernel32:KERNEL32.dll
 0001:00029628       _DeleteFileW@4             1002a628 f   kernel32:KERNEL32.dll
 0001:0002962e       _CloseHandle@4             1002a62e f   kernel32:KERNEL32.dll
 0001:00029634       _SetEvent@4                1002a634 f   kernel32:KERNEL32.dll
 0001:0002963a       _CreateMutexW@12           1002a63a f   kernel32:KERNEL32.dll
 0001:00029640       _CreateEventW@16           1002a640 f   kernel32:KERNEL32.dll
 0001:00029646       _GetCurrentProcessId@0     1002a646 f   kernel32:KERNEL32.dll
 0001:0002964c       _LocalFree@4               1002a64c f   kernel32:KERNEL32.dll
 0001:00029652       _FormatMessageW@28         1002a652 f   kernel32:KERNEL32.dll
 0001:00029658       _GetActiveWindow@0         1002a658 f   user32:USER32.dll
 0001:0002965e       _MessageBoxW@16            1002a65e f   user32:USER32.dll
 0001:00029664       _UnregisterClassW@8        1002a664 f   user32:USER32.dll
 0001:0002966a       _PostMessageW@16           1002a66a f   user32:USER32.dll
 0001:00029670       _DefWindowProcW@16         1002a670 f   user32:USER32.dll
 0001:00029676       _CallWindowProcW@20        1002a676 f   user32:USER32.dll
 0001:0002967c       _RegisterClassExW@4        1002a67c f   user32:USER32.dll
 0001:00029682       _GetClassInfoExW@12        1002a682 f   user32:USER32.dll
 0001:00029688       _CreateWindowExW@48        1002a688 f   user32:USER32.dll
 0001:0002968e       _IsWindow@4                1002a68e f   user32:USER32.dll
 0001:00029694       _IsChild@8                 1002a694 f   user32:USER32.dll
 0001:0002969a       _DestroyWindow@4           1002a69a f   user32:USER32.dll
 0001:000296a0       _ShowWindow@8              1002a6a0 f   user32:USER32.dll
 0001:000296a6       _SetWindowPos@28           1002a6a6 f   user32:USER32.dll
 0001:000296ac       _CharNextW@4               1002a6ac f   user32:USER32.dll
 0001:000296b2       _SetFocus@4                1002a6b2 f   user32:USER32.dll
 0001:000296b8       _GetFocus@0                1002a6b8 f   user32:USER32.dll
 0001:000296be       _GetKeyState@4             1002a6be f   user32:USER32.dll
 0001:000296c4       _GetDC@4                   1002a6c4 f   user32:USER32.dll
 0001:000296ca       _ReleaseDC@8               1002a6ca f   user32:USER32.dll
 0001:000296d0       _BeginPaint@8              1002a6d0 f   user32:USER32.dll
 0001:000296d6       _EndPaint@8                1002a6d6 f   user32:USER32.dll
 0001:000296dc       _SetWindowRgn@12           1002a6dc f   user32:USER32.dll
 0001:000296e2       _InvalidateRect@12         1002a6e2 f   user32:USER32.dll
 0001:000296e8       _GetClientRect@8           1002a6e8 f   user32:USER32.dll
 0001:000296ee       _IntersectRect@12          1002a6ee f   user32:USER32.dll
 0001:000296f4       _UnionRect@12              1002a6f4 f   user32:USER32.dll
 0001:000296fa       _OffsetRect@12             1002a6fa f   user32:USER32.dll
 0001:00029700       _EqualRect@8               1002a700 f   user32:USER32.dll
 0001:00029706       _PtInRect@12               1002a706 f   user32:USER32.dll
 0001:0002970c       _GetWindowLongW@8          1002a70c f   user32:USER32.dll
 0001:00029712       _SetWindowLongW@12         1002a712 f   user32:USER32.dll
 0001:00029718       _GetParent@4               1002a718 f   user32:USER32.dll
 0001:0002971e       _LoadCursorW@8             1002a71e f   user32:USER32.dll
 0001:00029724       _PeekMessageW@20           1002a724 f   user32:USER32.dll
 0001:0002972a       _RegisterClassW@4          1002a72a f   user32:USER32.dll
 0001:00029730       _LoadBitmapW@8             1002a730 f   user32:USER32.dll
 0001:00029736       _CloseMetaFile@4           1002a736 f   gdi32:GDI32.dll
 0001:0002973c       _CreateDCW@16              1002a73c f   gdi32:GDI32.dll
 0001:00029742       _CreateMetaFileW@4         1002a742 f   gdi32:GDI32.dll
 0001:00029748       _CreateRectRgnIndirect@4   1002a748 f   gdi32:GDI32.dll
 0001:0002974e       _DeleteDC@4                1002a74e f   gdi32:GDI32.dll
 0001:00029754       _DeleteMetaFile@4          1002a754 f   gdi32:GDI32.dll
 0001:0002975a       _GetDeviceCaps@8           1002a75a f   gdi32:GDI32.dll
 0001:00029760       _RestoreDC@8               1002a760 f   gdi32:GDI32.dll
 0001:00029766       _SaveDC@4                  1002a766 f   gdi32:GDI32.dll
 0001:0002976c       _SetMapMode@8              1002a76c f   gdi32:GDI32.dll
 0001:00029772       _LPtoDP@12                 1002a772 f   gdi32:GDI32.dll
 0001:00029778       _SetViewportOrgEx@16       1002a778 f   gdi32:GDI32.dll
 0001:0002977e       _SetWindowExtEx@16         1002a77e f   gdi32:GDI32.dll
 0001:00029784       _SetWindowOrgEx@16         1002a784 f   gdi32:GDI32.dll
 0001:0002978a       _BitBlt@36                 1002a78a f   gdi32:GDI32.dll
 0001:00029790       _CreateCompatibleDC@4      1002a790 f   gdi32:GDI32.dll
 0001:00029796       _DeleteObject@4            1002a796 f   gdi32:GDI32.dll
 0001:0002979c       _SelectObject@8            1002a79c f   gdi32:GDI32.dll
 0001:000297a2       _GetObjectW@12             1002a7a2 f   gdi32:GDI32.dll
 0001:000297a8       _RegCloseKey@4             1002a7a8 f   advapi32:ADVAPI32.dll
 0001:000297ae       _RegCreateKeyExW@36        1002a7ae f   advapi32:ADVAPI32.dll
 0001:000297b4       _RegDeleteKeyW@8           1002a7b4 f   advapi32:ADVAPI32.dll
 0001:000297ba       _RegDeleteValueW@8         1002a7ba f   advapi32:ADVAPI32.dll
 0001:000297c0       _RegEnumKeyExW@32          1002a7c0 f   advapi32:ADVAPI32.dll
 0001:000297c6       _RegOpenKeyExW@20          1002a7c6 f   advapi32:ADVAPI32.dll
 0001:000297cc       _RegQueryInfoKeyW@48       1002a7cc f   advapi32:ADVAPI32.dll
 0001:000297d2       _RegSetValueExW@24         1002a7d2 f   advapi32:ADVAPI32.dll
 0001:000297d8       _RegQueryValueExW@24       1002a7d8 f   advapi32:ADVAPI32.dll
 0001:000297de       _CoCreateInstance@20       1002a7de f   ole32:ole32.dll
 0001:000297e4       _StringFromGUID2@12        1002a7e4 f   ole32:ole32.dll
 0001:000297ea       _CoTaskMemAlloc@4          1002a7ea f   ole32:ole32.dll
 0001:000297f0       _CoTaskMemRealloc@8        1002a7f0 f   ole32:ole32.dll
 0001:000297f6       _CoTaskMemFree@4           1002a7f6 f   ole32:ole32.dll
 0001:000297fc       _ReadClassStm@8            1002a7fc f   ole32:ole32.dll
 0001:00029802       _WriteClassStm@8           1002a802 f   ole32:ole32.dll
 0001:00029808       _CreateDataAdviseHolder@4  1002a808 f   ole32:ole32.dll
 0001:0002980e       _OleSaveToStream@8         1002a80e f   ole32:ole32.dll
 0001:00029814       _CreateOleAdviseHolder@4   1002a814 f   ole32:ole32.dll
 0001:0002981a       _OleRegGetUserType@12      1002a81a f   ole32:ole32.dll
 0001:00029820       _OleRegGetMiscStatus@12    1002a820 f   ole32:ole32.dll
 0001:00029826       _OleRegEnumVerbs@8         1002a826 f   ole32:ole32.dll
 0001:0002982c       _CLSIDFromProgID@8         1002a82c f   ole32:ole32.dll
 0001:00029832       _SysAllocString@4          1002a832 f   oleaut32:OLEAUT32.dll
 0001:00029838       _SysAllocStringLen@8       1002a838 f   oleaut32:OLEAUT32.dll
 0001:0002983e       _SysFreeString@4           1002a83e f   oleaut32:OLEAUT32.dll
 0001:00029844       _SysStringLen@4            1002a844 f   oleaut32:OLEAUT32.dll
 0001:0002984a       _VariantClear@4            1002a84a f   oleaut32:OLEAUT32.dll
 0001:00029850       _VariantCopyInd@8          1002a850 f   oleaut32:OLEAUT32.dll
 0001:00029856       _VariantChangeType@16      1002a856 f   oleaut32:OLEAUT32.dll
 0001:0002985c       _SysStringByteLen@4        1002a85c f   oleaut32:OLEAUT32.dll
 0001:00029862       _SysAllocStringByteLen@8   1002a862 f   oleaut32:OLEAUT32.dll
 0001:00029868       _VariantInit@4             1002a868 f   oleaut32:OLEAUT32.dll
 0001:0002986e       _VarUI4FromStr@16          1002a86e f   oleaut32:OLEAUT32.dll
 0001:00029874       _LoadTypeLib@8             1002a874 f   oleaut32:OLEAUT32.dll
 0001:0002987a       _LoadRegTypeLib@20         1002a87a f   oleaut32:OLEAUT32.dll
 0001:00029880       _RegisterTypeLib@12        1002a880 f   oleaut32:OLEAUT32.dll
 0001:00029886       _UnRegisterTypeLib@20      1002a886 f   oleaut32:OLEAUT32.dll
 0001:0002988c       _OleCreatePropertyFrame@44 1002a88c f   oleaut32:OLEAUT32.dll
 0001:000298a0       @_RTC_AllocaHelper@12      1002a8a0 f   LIBCMTD:stack.obj
 0001:000298e0       @_RTC_CheckStackVars2@12   1002a8e0 f   LIBCMTD:stack.obj
 0001:000299c0       @_RTC_CheckStackVars@8     1002a9c0 f   LIBCMTD:stack.obj
 0001:00029a20       __RTC_CheckEsp             1002aa20 f   LIBCMTD:stack.obj
 0001:00029a60       @__security_check_cookie@4 1002aa60 f   LIBCMTD:secchk.obj
 0001:00029a80       __CRT_RTC_INIT             1002aa80 f   LIBCMTD:init.obj
 0001:00029a90       __CRT_RTC_INITW            1002aa90 f   LIBCMTD:init.obj
 0001:00029aa0       __RTC_InitBase             1002aaa0 f   LIBCMTD:init.obj
 0001:00029ad0       __RTC_Shutdown             1002aad0 f   LIBCMTD:init.obj
 0001:00029af0       ??_U@YAPAXI@Z              1002aaf0 f   LIBCMTD:new_array.obj
 0001:00029b10       ??3@YAXPAXI@Z              1002ab10 f   LIBCMTD:delete_scalar_size.obj
 0001:00029b30       ??_V@YAXPAX@Z              1002ab30 f   LIBCMTD:delete_array.obj
 0001:00029b50       ??_V@YAXPAXI@Z             1002ab50 f   LIBCMTD:delete_array_size.obj
 0001:00029b70       ?configure_argv@__scrt_narrow_argv_policy@@SAHXZ 1002ab70 f i LIBCMTD:utility.obj
 0001:00029c20       ?initialize_environment@__scrt_narrow_environment_policy@@SAHXZ 1002ac20 f i LIBCMTD:utility.obj
 0001:00029ca0       _NtCurrentTeb              1002aca0 f i LIBCMTD:utility.obj
 0001:00029cb0       ___scrt_acquire_startup_lock 1002acb0 f   LIBCMTD:utility.obj
 0001:00029d00       ___scrt_dllmain_after_initialize_c 1002ad00 f   LIBCMTD:utility.obj
 0001:00029d30       ___scrt_dllmain_before_initialize_c 1002ad30 f   LIBCMTD:utility.obj
 0001:00029d50       ___scrt_dllmain_crt_thread_attach 1002ad50 f   LIBCMTD:utility.obj
 0001:00029d80       ___scrt_dllmain_crt_thread_detach 1002ad80 f   LIBCMTD:utility.obj
 0001:00029da0       ___scrt_dllmain_exception_filter 1002ada0 f   LIBCMTD:utility.obj
 0001:00029df0       ___scrt_dllmain_uninitialize_c 1002adf0 f   LIBCMTD:utility.obj
 0001:00029e20       ___scrt_dllmain_uninitialize_critical 1002ae20 f   LIBCMTD:utility.obj
 0001:00029e40       ___scrt_initialize_crt     1002ae40 f   LIBCMTD:utility.obj
 0001:00029e90       ___scrt_initialize_onexit_tables 1002ae90 f   LIBCMTD:utility.obj
 0001:00029f70       ___scrt_is_nonwritable_in_current_image 1002af70 f   LIBCMTD:utility.obj
 0001:0002a0a0       ___scrt_release_startup_lock 1002b0a0 f   LIBCMTD:utility.obj
 0001:0002a0d0       ___scrt_uninitialize_crt   1002b0d0 f   LIBCMTD:utility.obj
 0001:0002a110       __onexit                   1002b110 f   LIBCMTD:utility.obj
 0001:0002a180       _at_quick_exit             1002b180 f   LIBCMTD:utility.obj
 0001:0002a1c0       _atexit                    1002b1c0 f   LIBCMTD:utility.obj
 0001:0002a1f0       ??3@YAXPAX@Z               1002b1f0 f   LIBCMTD:delete_scalar.obj
 0001:0002a210       ___raise_securityfailure   1002b210 f   LIBCMTD:gs_report.obj
 0001:0002a240       ___report_gsfailure        1002b240 f   LIBCMTD:gs_report.obj
 0001:0002a350       ___report_rangecheckfailure 1002b350 f   LIBCMTD:gs_report.obj
 0001:0002a360       ___report_securityfailure  1002b360 f   LIBCMTD:gs_report.obj
 0001:0002a440       ___report_securityfailureEx 1002b440 f   LIBCMTD:gs_report.obj
 0001:0002a690       __Init_thread_abort        1002b690 f   LIBCMTD:thread_safe_statics.obj
 0001:0002a6b0       __Init_thread_footer       1002b6b0 f   LIBCMTD:thread_safe_statics.obj
 0001:0002a700       __Init_thread_header       1002b700 f   LIBCMTD:thread_safe_statics.obj
 0001:0002a770       __Init_thread_lock         1002b770 f   LIBCMTD:thread_safe_statics.obj
 0001:0002a780       __Init_thread_notify       1002b780 f   LIBCMTD:thread_safe_statics.obj
 0001:0002a7d0       __Init_thread_unlock       1002b7d0 f   LIBCMTD:thread_safe_statics.obj
 0001:0002a7e0       __Init_thread_wait         1002b7e0 f   LIBCMTD:thread_safe_statics.obj
 0001:0002a870       ??2@YAPAXIABUnothrow_t@std@@@Z 1002b870 f   LIBCMTD:new_scalar_nothrow.obj
 0001:0002a900       ??_U@YAPAXIABUnothrow_t@std@@@Z 1002b900 f   LIBCMTD:new_array_nothrow.obj
 0001:0002a920       __allmul                   1002b920 f   LIBCMTD:llmul.obj
 0001:0002a960       __alloca_probe_16          1002b960 f   LIBCMTD:alloca16.obj
 0001:0002a976       __alloca_probe_8           1002b976     LIBCMTD:alloca16.obj
 0001:0002a990       __alloca_probe             1002b990 f   LIBCMTD:chkstk.obj
 0001:0002a990       __chkstk                   1002b990 f   LIBCMTD:chkstk.obj
 0001:0002ae90       __CRT_INIT@12              1002be90 f   LIBCMTD:dll_dllmain.obj
 0001:0002aeb0       __DllMainCRTStartup@12     1002beb0 f   LIBCMTD:dll_dllmain.obj
 0001:0002af70       ?_RTC_AllocaFailure@@YAXPAXPAU_RTC_ALLOCA_NODE@@H@Z 1002bf70 f   LIBCMTD:error.obj
 0001:0002b060       ?_RTC_Failure@@YAXPAXH@Z   1002c060 f   LIBCMTD:error.obj
 0001:0002b0b0       ?_RTC_StackFailure@@YAXPAXPBD@Z 1002c0b0 f   LIBCMTD:error.obj
 0001:0002b470       __RTC_UninitUse            1002c470 f   LIBCMTD:error.obj
 0001:0002b520       __vsprintf_s_l             1002c520 f i LIBCMTD:error.obj
 0001:0002b550       _sprintf_s                 1002c550 f i LIBCMTD:error.obj
 0001:0002b570       ?_RTC_GetErrorFunc@@YAP6AHHPBDH00ZZPBX@Z 1002c570 f   LIBCMTD:userapi.obj
 0001:0002b580       ?_RTC_GetErrorFuncW@@YAP6AHHPB_WH00ZZPBX@Z 1002c580 f   LIBCMTD:userapi.obj
 0001:0002b590       __RTC_GetErrDesc           1002c590 f   LIBCMTD:userapi.obj
 0001:0002b5b0       __RTC_NumErrors            1002c5b0 f   LIBCMTD:userapi.obj
 0001:0002b5c0       __RTC_SetErrorFunc         1002c5c0 f   LIBCMTD:userapi.obj
 0001:0002b5e0       __RTC_SetErrorFuncW        1002c5e0 f   LIBCMTD:userapi.obj
 0001:0002b600       __RTC_SetErrorType         1002c600 f   LIBCMTD:userapi.obj
 0001:0002b630       ??2@YAPAXI@Z               1002c630 f   LIBCMTD:new_scalar.obj
 0001:0002b680       ___isa_available_init      1002c680 f   LIBCMTD:cpu_disp.obj
 0001:0002b9c0       __get_startup_argv_mode    1002c9c0 f   LIBCMTD:argv_mode.obj
 0001:0002b9d0       ___scrt_is_ucrt_dll_in_use 1002c9d0 f   LIBCMTD:ucrt_detection.obj
 0001:0002ba00       ___scrt_fastfail           1002ca00 f   LIBCMTD:utility_desktop.obj
 0001:0002bb40       ___scrt_get_show_window_mode 1002cb40 f   LIBCMTD:utility_desktop.obj
 0001:0002bb80       ___scrt_initialize_mta     1002cb80 f   LIBCMTD:utility_desktop.obj
 0001:0002bb90       ___scrt_initialize_winrt   1002cb90 f   LIBCMTD:utility_desktop.obj
 0001:0002bba0       ___scrt_is_managed_app     1002cba0 f   LIBCMTD:utility_desktop.obj
 0001:0002bc30       ___scrt_set_unhandled_exception_filter 1002cc30 f   LIBCMTD:utility_desktop.obj
 0001:0002bc40       ___scrt_exe_initialize_mta 1002cc40 f   LIBCMTD:utility_desktop.obj
 0001:0002bc40       ___scrt_stub_for_initialize_mta 1002cc40 f   LIBCMTD:utility_desktop.obj
 0001:0002bc50       ___scrt_unhandled_exception_filter@4 1002cc50 f   LIBCMTD:utility_desktop.obj
 0001:0002bcd0       __crt_debugger_hook        1002ccd0 f   LIBCMTD:utility_desktop.obj
 0001:0002bce0       @_guard_check_icall_nop@4  1002cce0 f i LIBCMTD:guard_support.obj
 0001:0002bcf0       _ReadNoFence               1002ccf0 f i LIBCMTD:guard_support.obj
 0001:0002bd10       _ReadPointerNoFence        1002cd10 f i LIBCMTD:guard_support.obj
 0001:0002bd30       ___castguard_check_failure_debugbreak 1002cd30 f i LIBCMTD:guard_support.obj
 0001:0002bd50       ___castguard_check_failure_fastfail 1002cd50 f i LIBCMTD:guard_support.obj
 0001:0002bd70       ___castguard_check_failure_nop 1002cd70 f i LIBCMTD:guard_support.obj
 0001:0002bd80       ___castguard_check_failure_os_handled 1002cd80 f i LIBCMTD:guard_support.obj
 0001:0002be00       ___castguard_slow_path_check_debugbreak 1002ce00 f i LIBCMTD:guard_support.obj
 0001:0002be30       ___castguard_slow_path_check_fastfail 1002ce30 f i LIBCMTD:guard_support.obj
 0001:0002be70       ___castguard_slow_path_check_nop 1002ce70 f i LIBCMTD:guard_support.obj
 0001:0002be80       ___castguard_slow_path_check_os_handled 1002ce80 f i LIBCMTD:guard_support.obj
 0001:0002bf20       __guard_icall_checks_enforced 1002cf20 f i LIBCMTD:guard_support.obj
 0001:0002bfc0       ___security_init_cookie    1002cfc0 f   LIBCMTD:gs_support.obj
 0001:0002c040       ?__scrt_initialize_type_info@@YAXXZ 1002d040 f   LIBCMTD:tncleanup.obj
 0001:0002c050       ?__scrt_uninitialize_type_info@@YAXXZ 1002d050 f   LIBCMTD:tncleanup.obj
 0001:0002c070       ___local_stdio_scanf_options 1002d070 f i LIBCMTD:default_local_stdio_options.obj
 0001:0002c080       ___scrt_initialize_default_local_stdio_options 1002d080 f   LIBCMTD:default_local_stdio_options.obj
 0001:0002c0c0       ___scrt_get_dyn_tls_init_callback 1002d0c0 f   LIBCMTD:dyn_tls_init.obj
 0001:0002c0d0       __RTC_Initialize           1002d0d0 f   LIBCMTD:initsect.obj
 0001:0002c100       __RTC_Terminate            1002d100 f   LIBCMTD:initsect.obj
 0001:0002c5b0       ?_RTC_GetSrcLine@@YAHPAEPA_WKPAH1K@Z 1002d5b0 f   LIBCMTD:pdblkup.obj
 0001:0002c930       __except_handler4_noexcept 1002d930 f   LIBCMTD:chandler4_noexcept.obj
 0001:0002c990       ??0bad_alloc@std@@AAE@QBD@Z 1002d990 f i LIBCMTD:throw_bad_alloc.obj
 0001:0002c9c0       ??0bad_alloc@std@@QAE@ABV01@@Z 1002d9c0 f i LIBCMTD:throw_bad_alloc.obj
 0001:0002c9f0       ??0bad_alloc@std@@QAE@XZ   1002d9f0 f i LIBCMTD:throw_bad_alloc.obj
 0001:0002ca20       ??0bad_array_new_length@std@@QAE@ABV01@@Z 1002da20 f i LIBCMTD:throw_bad_alloc.obj
 0001:0002ca50       ??0bad_array_new_length@std@@QAE@XZ 1002da50 f i LIBCMTD:throw_bad_alloc.obj
 0001:0002ca80       ??0exception@std@@QAE@ABV01@@Z 1002da80 f i LIBCMTD:throw_bad_alloc.obj
 0001:0002cac0       ??0exception@std@@QAE@QBDH@Z 1002dac0 f i LIBCMTD:throw_bad_alloc.obj
 0001:0002caf0       ??1bad_alloc@std@@UAE@XZ   1002daf0 f i LIBCMTD:throw_bad_alloc.obj
 0001:0002cb10       ??1bad_array_new_length@std@@UAE@XZ 1002db10 f i LIBCMTD:throw_bad_alloc.obj
 0001:0002cb30       ??1exception@std@@UAE@XZ   1002db30 f i LIBCMTD:throw_bad_alloc.obj
 0001:0002cb60       ??_Ebad_alloc@std@@UAEPAXI@Z 1002db60 f i LIBCMTD:throw_bad_alloc.obj
 0001:0002cb60       ??_Gbad_alloc@std@@UAEPAXI@Z 1002db60 f i LIBCMTD:throw_bad_alloc.obj
 0001:0002cb90       ??_Gbad_array_new_length@std@@UAEPAXI@Z 1002db90 f i LIBCMTD:throw_bad_alloc.obj
 0001:0002cb90       ??_Ebad_array_new_length@std@@UAEPAXI@Z 1002db90 f i LIBCMTD:throw_bad_alloc.obj
 0001:0002cbc0       ??_Eexception@std@@UAEPAXI@Z 1002dbc0 f i LIBCMTD:throw_bad_alloc.obj
 0001:0002cbc0       ??_Gexception@std@@UAEPAXI@Z 1002dbc0 f i LIBCMTD:throw_bad_alloc.obj
 0001:0002cbf0       ?__scrt_throw_std_bad_alloc@@YAXXZ 1002dbf0 f   LIBCMTD:throw_bad_alloc.obj
 0001:0002cc10       ?__scrt_throw_std_bad_array_new_length@@YAXXZ 1002dc10 f   LIBCMTD:throw_bad_alloc.obj
 0001:0002cc30       ?what@exception@std@@UBEPBDXZ 1002dc30 f i LIBCMTD:throw_bad_alloc.obj
 0001:0002cc60       ??1type_info@@UAE@XZ       1002dc60 f   LIBCMTD:std_type_info_static.obj
 0001:0002cc80       ??_Gtype_info@@UAEPAXI@Z   1002dc80 f i LIBCMTD:std_type_info_static.obj
 0001:0002cc80       ??_Etype_info@@UAEPAXI@Z   1002dc80 f i LIBCMTD:std_type_info_static.obj
 0001:0002ccae       ??$?2PAUHINSTANCE__@@@Wrapper@?$CSimpleArray@PAUHINSTANCE__@@V?$CSimpleArrayEqualHelper@PAUHINSTANCE__@@@ATL@@@ATL@@SAPAXIPAPAUHINSTANCE__@@@Z 1002dcae f i atls:atlbase.obj
 0001:0002ccb6       ??0?$CSimpleArray@PAUHINSTANCE__@@V?$CSimpleArrayEqualHelper@PAUHINSTANCE__@@@ATL@@@ATL@@QAE@XZ 1002dcb6 f i atls:atlbase.obj
 0001:0002ccc3       ??0CAtlBaseModule@ATL@@QAE@XZ 1002dcc3 f   atls:atlbase.obj
 0001:0002cd16       ??0Wrapper@?$CSimpleArray@PAUHINSTANCE__@@V?$CSimpleArrayEqualHelper@PAUHINSTANCE__@@@ATL@@@ATL@@QAE@ABQAUHINSTANCE__@@@Z 1002dd16 f i atls:atlbase.obj
 0001:0002cd26       ??0_ATL_BASE_MODULE70@ATL@@QAE@XZ 1002dd26 f i atls:atlbase.obj
 0001:0002cd49       ??1?$CSimpleArray@PAUHINSTANCE__@@V?$CSimpleArrayEqualHelper@PAUHINSTANCE__@@@ATL@@@ATL@@QAE@XZ 1002dd49 f i atls:atlbase.obj
 0001:0002cd4e       ??1CAtlBaseModule@ATL@@QAE@XZ 1002dd4e f   atls:atlbase.obj
 0001:0002cd64       ??1_ATL_BASE_MODULE70@ATL@@QAE@XZ 1002dd64 f i atls:atlbase.obj
 0001:0002cd6c       ??A?$CSimpleArray@PAUHINSTANCE__@@V?$CSimpleArrayEqualHelper@PAUHINSTANCE__@@@ATL@@@ATL@@QAEAAPAUHINSTANCE__@@H@Z 1002dd6c f i atls:atlbase.obj
 0001:0002cd91       ?Add@?$CSimpleArray@PAUHINSTANCE__@@V?$CSimpleArrayEqualHelper@PAUHINSTANCE__@@@ATL@@@ATL@@QAEHABQAUHINSTANCE__@@@Z 1002dd91 f i atls:atlbase.obj
 0001:0002ce13       ?AddResourceInstance@CAtlBaseModule@ATL@@QAE_NPAUHINSTANCE__@@@Z 1002de13 f   atls:atlbase.obj
 0001:0002ce46       ?GetHInstanceAt@CAtlBaseModule@ATL@@QAEPAUHINSTANCE__@@H@Z 1002de46 f   atls:atlbase.obj
 0001:0002ce8b       ?GetSize@?$CSimpleArray@PAUHINSTANCE__@@V?$CSimpleArrayEqualHelper@PAUHINSTANCE__@@@ATL@@@ATL@@QBEHXZ 1002de8b f i atls:atlbase.obj
 0001:0002ce8f       ?InternalSetAtIndex@?$CSimpleArray@PAUHINSTANCE__@@V?$CSimpleArrayEqualHelper@PAUHINSTANCE__@@@ATL@@@ATL@@QAEXHABQAUHINSTANCE__@@@Z 1002de8f f i atls:atlbase.obj
 0001:0002cea9       ?RemoveAll@?$CSimpleArray@PAUHINSTANCE__@@V?$CSimpleArrayEqualHelper@PAUHINSTANCE__@@@ATL@@@ATL@@QAEXXZ 1002dea9 f i atls:atlbase.obj
 0001:0002cec6       ?RemoveAt@?$CSimpleArray@PAUHINSTANCE__@@V?$CSimpleArrayEqualHelper@PAUHINSTANCE__@@@ATL@@@ATL@@QAEHH@Z 1002dec6 f i atls:atlbase.obj
 0001:0002cf14       ?RemoveResourceInstance@CAtlBaseModule@ATL@@QAE_NPAUHINSTANCE__@@@Z 1002df14 f   atls:atlbase.obj
 0001:0002cf71       ?memmove_s@Checked@ATL@@YAXPAXIPBXI@Z 1002df71 f i atls:atlbase.obj
 0001:0002d2ce       ?GetCodeAddress@_stdcallthunk@ATL@@QAEPAXXZ 1002e2ce f i atls:atlthunk.obj
 0001:0002d2f8       ?Init@_stdcallthunk@ATL@@QAEHKPAX@Z 1002e2f8 f i atls:atlthunk.obj
 0001:0002d32d       ?__AllocStdCallThunk@@YGPAXXZ 1002e32d f   atls:atlthunk.obj
 0001:0002d332       ?__AllocStdCallThunk@ATL@@YGPAXXZ 1002e332 f   atls:atlthunk.obj
 0001:0002d337       ?__AllocStdCallThunk_cmn@@YAPAXXZ 1002e337 f   atls:atlthunk.obj
 0001:0002d3fd       ?__FreeStdCallThunk@@YGXPAX@Z 1002e3fd f   atls:atlthunk.obj
 0001:0002d40d       ?__FreeStdCallThunk@ATL@@YGXPAX@Z 1002e40d f   atls:atlthunk.obj
 0001:0002d41d       ?__FreeStdCallThunk_cmn@@YAXPAX@Z 1002e41d f   atls:atlthunk.obj
 0001:0002d4b8       _AtlThunk_AllocateData@0   1002e4b8 f   atls:atlthunk.obj
 0001:0002d51d       _AtlThunk_DataToCode@4     1002e51d f   atls:atlthunk.obj
 0001:0002d564       _AtlThunk_FreeData@4       1002e564 f   atls:atlthunk.obj
 0001:0002d5ba       _AtlThunk_InitData@12      1002e5ba f   atls:atlthunk.obj
 0001:0002d609       _MemoryBarrier             1002e609 f i atls:atlthunk.obj
 0001:0002d617       __InlineInterlockedCompareExchangePointer 1002e617 f i atls:atlthunk.obj
 0001:0002d630       _memset                    1002e630 f   libvcruntimed:memset.obj
 0001:0002d790       ??$__crt_interlocked_exchange_pointer@$$A6AXXZP6AXXZ@@YAP6AXXZPDS6AXXZQ6AXXZ@Z 1002e790 f i libvcruntimed:purevirt.obj
 0001:0002d7a0       ??$__crt_interlocked_read_pointer@$$A6AXXZ@@YAP6AXXZPDS6AXXZ@Z 1002e7a0 f i libvcruntimed:purevirt.obj
 0001:0002d7c0       ?__crt_interlocked_read_32@@YAHPDH@Z 1002e7c0 f i libvcruntimed:purevirt.obj
 0001:0002d7e0       __get_purecall_handler     1002e7e0 f   libvcruntimed:purevirt.obj
 0001:0002d800       __purecall                 1002e800 f   libvcruntimed:purevirt.obj
 0001:0002d830       __set_purecall_handler     1002e830 f   libvcruntimed:purevirt.obj
 0001:0002da00       _memcmp                    1002ea00 f   libvcruntimed:memcmp.obj
 0001:0002e2d0       _memcpy                    1002f2d0 f   libvcruntimed:memcpy.obj
 0001:0002e850       _wcsstr                    1002f850 f   libvcruntimed:wcsstr.obj
 0001:0002ed80       __except_handler4          1002fd80 f   libvcruntimed:chandler4.obj
 0001:0002ef70       ___vcrt_initialize         1002ff70 f   libvcruntimed:initialization.obj
 0001:0002efb0       ___vcrt_thread_attach      1002ffb0 f   libvcruntimed:initialization.obj
 0001:0002efd0       ___vcrt_thread_detach      1002ffd0 f   libvcruntimed:initialization.obj
 0001:0002eff0       ___vcrt_uninitialize       1002fff0 f   libvcruntimed:initialization.obj
 0001:0002f010       ___vcrt_uninitialize_critical 10030010 f   libvcruntimed:initialization.obj
 0001:0002f030       ??$?0AAViterator@TryBlockMap@__FrameHandler3@@AAV012@$0A@@?$pair@Viterator@TryBlockMap@__FrameHandler3@@V123@@std@@QAE@AAViterator@TryBlockMap@__FrameHandler3@@0@Z 10030030 f i libvcruntimed:trnsctrl.obj
 0001:0002f080       ??$forward@AAViterator@TryBlockMap@__FrameHandler3@@@std@@YAAAViterator@TryBlockMap@__FrameHandler3@@AAV123@@Z 10030080 f i libvcruntimed:trnsctrl.obj
 0001:0002f090       ??0iterator@TryBlockMap@__FrameHandler3@@QAE@AAV12@I@Z 10030090 f i libvcruntimed:trnsctrl.obj
 0001:0002f0c0       ?GetRangeOfTrysToCheck@__FrameHandler3@@SA?AU?$pair@Viterator@TryBlockMap@__FrameHandler3@@V123@@std@@AAVTryBlockMap@1@HPAXPBU_s_FuncInfo@@H@Z 100300c0 f   libvcruntimed:trnsctrl.obj
 0001:0002f1a0       ?_CallCatchBlock2@@YAPAXPAUEHRegistrationNode@@PBU_s_FuncInfo@@PAXHK@Z 100301a0 f   libvcruntimed:trnsctrl.obj
 0001:0002f210       ?_CallSETranslator@@YAHPAUEHExceptionRecord@@PAUEHRegistrationNode@@PAX2PBU_s_FuncInfo@@H1@Z 10030210 f   libvcruntimed:trnsctrl.obj
 0001:0002f310       ?_JumpToContinuation@@YGXPAXPAUEHRegistrationNode@@@Z 10030310 f   libvcruntimed:trnsctrl.obj
 0001:0002f350       ?_UnwindNestedFrames@@YGXPAUEHRegistrationNode@@PAUEHExceptionRecord@@@Z 10030350 f   libvcruntimed:trnsctrl.obj
 0001:0002f3b0       __CatchGuardHandler        100303b0 f   libvcruntimed:trnsctrl.obj
 0001:0002f400       __CreateFrameInfo          10030400 f   libvcruntimed:trnsctrl.obj
 0001:0002f430       __FindAndUnlinkFrame       10030430 f   libvcruntimed:trnsctrl.obj
 0001:0002f4a0       __TranslatorGuardHandler   100304a0 f   libvcruntimed:trnsctrl.obj
 0001:0002f550       ___CxxFrameHandler         10030550 f   libvcruntimed:trnsctrl.obj
 0001:0002f590       ___CxxFrameHandler2        10030590 f   libvcruntimed:trnsctrl.obj
 0001:0002f5d0       ___CxxFrameHandler3        100305d0 f   libvcruntimed:trnsctrl.obj
 0001:0002f610       ___CxxLongjmpUnwind@4      10030610 f   libvcruntimed:trnsctrl.obj
 0001:0002f650       ___DestructExceptionObject 10030650 f   libvcruntimed:ehhelpers.obj
 0001:0002f770       ?_CallMemberFunction0@@YGXQAX0@Z 10030770 f i libvcruntimed:ehhelpers.obj
 0001:0002f810       ?raw_name@type_info@@QBEPBDXZ 10030810 f i libvcruntimed:ehhelpers.obj
 0001:0002f830       __IsExceptionObjectToBeDestroyed 10030830 f   libvcruntimed:ehhelpers.obj
 0001:0002f870       __SetWinRTOutOfMemoryExceptionCallback 10030870 f   libvcruntimed:ehhelpers.obj
 0001:0002f880       ___AdjustPointer           10030880 f   libvcruntimed:ehhelpers.obj
 0001:0002f8d0       ___FrameUnwindFilter       100308d0 f   libvcruntimed:ehhelpers.obj
 0001:0002f960       ___GetPlatformExceptionInfo 10030960 f   libvcruntimed:ehhelpers.obj
 0001:0002f9e0       ___current_exception       100309e0 f   libvcruntimed:ehhelpers.obj
 0001:0002f9f0       ___current_exception_context 100309f0 f   libvcruntimed:ehhelpers.obj
 0001:0002fa00       ___processing_throw        10030a00 f   libvcruntimed:ehhelpers.obj
 0001:0002fa10       ___std_terminate           10030a10 f   libvcruntimed:ehhelpers.obj
 0001:0002fa20       __is_exception_typeof      10030a20 f   libvcruntimed:ehhelpers.obj
 0001:0002fb20       ??$?RD@__crt_internal_free_policy@@QBEXQBD@Z 10030b20 f i libvcruntimed:std_type_info.obj
 0001:0002fb40       ??$?RX@__crt_internal_free_policy@@QBEXQBX@Z 10030b40 f i libvcruntimed:std_type_info.obj
 0001:0002fb60       ??$__crt_interlocked_compare_exchange_pointer@$$CBDPAD$$T@@YAPBDPDSBDQAD$$T@Z 10030b60 f i libvcruntimed:std_type_info.obj
 0001:0002fb80       ??$__crt_interlocked_read_pointer@$$CBD@@YAPBDPDSBD@Z 10030b80 f i libvcruntimed:std_type_info.obj
 0001:0002fba0       ??0?$__crt_unique_heap_ptr@DU__crt_internal_free_policy@@@@QAE@QAD@Z 10030ba0 f i libvcruntimed:std_type_info.obj
 0001:0002fbc0       ??0?$__crt_unique_heap_ptr@XU__crt_internal_free_policy@@@@QAE@QAX@Z 10030bc0 f i libvcruntimed:std_type_info.obj
 0001:0002fbe0       ??1?$__crt_unique_heap_ptr@DU__crt_internal_free_policy@@@@QAE@XZ 10030be0 f i libvcruntimed:std_type_info.obj
 0001:0002fc00       ??1?$__crt_unique_heap_ptr@XU__crt_internal_free_policy@@@@QAE@XZ 10030c00 f i libvcruntimed:std_type_info.obj
 0001:0002fc20       ??B?$__crt_unique_heap_ptr@DU__crt_internal_free_policy@@@@QBE_NXZ 10030c20 f i libvcruntimed:std_type_info.obj
 0001:0002fc40       ??B?$__crt_unique_heap_ptr@XU__crt_internal_free_policy@@@@QBE_NXZ 10030c40 f i libvcruntimed:std_type_info.obj
 0001:0002fcd0       ?detach@?$__crt_unique_heap_ptr@XU__crt_internal_free_policy@@@@QAEPAXXZ 10030cd0 f i libvcruntimed:std_type_info.obj
 0001:0002fd00       ?get@?$__crt_unique_heap_ptr@DU__crt_internal_free_policy@@@@QBEPADXZ 10030d00 f i libvcruntimed:std_type_info.obj
 0001:0002fd10       ?get@?$__crt_unique_heap_ptr@XU__crt_internal_free_policy@@@@QBEPAXXZ 10030d10 f i libvcruntimed:std_type_info.obj
 0001:0002fd20       ?is_valid@?$__crt_unique_heap_ptr@DU__crt_internal_free_policy@@@@QBE_NXZ 10030d20 f i libvcruntimed:std_type_info.obj
 0001:0002fd50       ?is_valid@?$__crt_unique_heap_ptr@XU__crt_internal_free_policy@@@@QBE_NXZ 10030d50 f i libvcruntimed:std_type_info.obj
 0001:0002fd80       ?release@?$__crt_unique_heap_ptr@DU__crt_internal_free_policy@@@@QAEXXZ 10030d80 f i libvcruntimed:std_type_info.obj
 0001:0002fdb0       ?release@?$__crt_unique_heap_ptr@XU__crt_internal_free_policy@@@@QAEXXZ 10030db0 f i libvcruntimed:std_type_info.obj
 0001:0002fde0       ___std_type_info_compare   10030de0 f   libvcruntimed:std_type_info.obj
 0001:0002fe10       ___std_type_info_destroy_list 10030e10 f   libvcruntimed:std_type_info.obj
 0001:0002fe50       ___std_type_info_hash      10030e50 f   libvcruntimed:std_type_info.obj
 0001:0002feb0       ___std_type_info_name      10030eb0 f   libvcruntimed:std_type_info.obj
 0001:00030090       ___vcrt_GetModuleFileNameW 10031090 f   libvcruntimed:winapi_thunks.obj
 0001:000300b0       ___vcrt_GetModuleHandleW   100310b0 f   libvcruntimed:winapi_thunks.obj
 0001:000300c0       ___vcrt_LoadLibraryExW     100310c0 f   libvcruntimed:winapi_thunks.obj
 0001:000300e0       ??$?RD@__crt_public_free_policy@@QBEXQBD@Z 100310e0 f i libvcruntimed:std_exception.obj
 0001:00030100       ??0?$__crt_unique_heap_ptr@DU__crt_public_free_policy@@@@QAE@QAD@Z 10031100 f i libvcruntimed:std_exception.obj
 0001:00030120       ??1?$__crt_unique_heap_ptr@DU__crt_public_free_policy@@@@QAE@XZ 10031120 f i libvcruntimed:std_exception.obj
 0001:00030140       ??B?$__crt_unique_heap_ptr@DU__crt_public_free_policy@@@@QBE_NXZ 10031140 f i libvcruntimed:std_exception.obj
 0001:00030160       ?detach@?$__crt_unique_heap_ptr@DU__crt_public_free_policy@@@@QAEPADXZ 10031160 f i libvcruntimed:std_exception.obj
 0001:00030190       ?get@?$__crt_unique_heap_ptr@DU__crt_public_free_policy@@@@QBEPADXZ 10031190 f i libvcruntimed:std_exception.obj
 0001:000301a0       ?is_valid@?$__crt_unique_heap_ptr@DU__crt_public_free_policy@@@@QBE_NXZ 100311a0 f i libvcruntimed:std_exception.obj
 0001:000301d0       ?release@?$__crt_unique_heap_ptr@DU__crt_public_free_policy@@@@QAEXXZ 100311d0 f i libvcruntimed:std_exception.obj
 0001:00030200       ___std_exception_copy      10031200 f   libvcruntimed:std_exception.obj
 0001:000302f0       ___std_exception_destroy   100312f0 f   libvcruntimed:std_exception.obj
 0001:00030320       __CxxThrowException@8      10031320 f   libvcruntimed:throw.obj
 0001:000303d0       _memmove                   100313d0 f   libvcruntimed:memmove.obj
 0001:00030950       __local_unwind4            10031950 f   libvcruntimed:exsup4.obj
 0001:00030a24       __seh_longjmp_unwind4@4    10031a24 f   libvcruntimed:exsup4.obj
 0001:00030a4c       @_EH4_CallFilterFunc@8     10031a4c f   libvcruntimed:exsup4.obj
 0001:00030a64       @_EH4_TransferToHandler@8  10031a64 f   libvcruntimed:exsup4.obj
 0001:00030a80       @_EH4_GlobalUnwind2@8      10031a80 f   libvcruntimed:exsup4.obj
 0001:00030a9c       @_EH4_LocalUnwind@16       10031a9c f   libvcruntimed:exsup4.obj
 0001:00030ad0       ___except_validate_context_record 10031ad0 f   libvcruntimed:jbcxrval.obj
 0001:00030b20       ___except_validate_jump_buffer 10031b20 f   libvcruntimed:jbcxrval.obj
 0001:00030b40       ___except_validate_jump_buffer_common 10031b40 f i libvcruntimed:jbcxrval.obj
 0001:00030ba0       ??$?RU__vcrt_ptd@@@__crt_internal_free_policy@@QBEXQBU__vcrt_ptd@@@Z 10031ba0 f i libvcruntimed:per_thread_data.obj
 0001:00030bc0       ??0?$__crt_unique_heap_ptr@U__vcrt_ptd@@U__crt_internal_free_policy@@@@QAE@QAU__vcrt_ptd@@@Z 10031bc0 f i libvcruntimed:per_thread_data.obj
 0001:00030c00       ??1?$__crt_unique_heap_ptr@U__vcrt_ptd@@U__crt_internal_free_policy@@@@QAE@XZ 10031c00 f i libvcruntimed:per_thread_data.obj
 0001:00030c40       ??B?$__crt_unique_heap_ptr@U__vcrt_ptd@@U__crt_internal_free_policy@@@@QBE_NXZ 10031c40 f i libvcruntimed:per_thread_data.obj
 0001:00030c60       ?detach@?$__crt_unique_heap_ptr@U__vcrt_ptd@@U__crt_internal_free_policy@@@@QAEPAU__vcrt_ptd@@XZ 10031c60 f i libvcruntimed:per_thread_data.obj
 0001:00030c90       ?get@?$__crt_unique_heap_ptr@U__vcrt_ptd@@U__crt_internal_free_policy@@@@QBEPAU__vcrt_ptd@@XZ 10031c90 f i libvcruntimed:per_thread_data.obj
 0001:00030ca0       ?is_valid@?$__crt_unique_heap_ptr@U__vcrt_ptd@@U__crt_internal_free_policy@@@@QBE_NXZ 10031ca0 f i libvcruntimed:per_thread_data.obj
 0001:00030cd0       ?release@?$__crt_unique_heap_ptr@U__vcrt_ptd@@U__crt_internal_free_policy@@@@QAEXXZ 10031cd0 f i libvcruntimed:per_thread_data.obj
 0001:00030d30       ___vcrt_freefls@4          10031d30 f   libvcruntimed:per_thread_data.obj
 0001:00030d60       ___vcrt_freeptd            10031d60 f   libvcruntimed:per_thread_data.obj
 0001:00030dc0       ___vcrt_getptd             10031dc0 f   libvcruntimed:per_thread_data.obj
 0001:00030de0       ___vcrt_getptd_noexit      10031de0 f   libvcruntimed:per_thread_data.obj
 0001:00030f40       ___vcrt_getptd_noinit      10031f40 f   libvcruntimed:per_thread_data.obj
 0001:00030fa0       ___vcrt_initialize_ptd     10031fa0 f   libvcruntimed:per_thread_data.obj
 0001:00030ff0       ___vcrt_uninitialize_ptd   10031ff0 f   libvcruntimed:per_thread_data.obj
 0001:00031020       ___vcrt_initialize_locks   10032020 f   libvcruntimed:locks.obj
 0001:00031080       ___vcrt_lock               10032080 f   libvcruntimed:locks.obj
 0001:000310a0       ___vcrt_uninitialize_locks 100320a0 f   libvcruntimed:locks.obj
 0001:000310f0       ___vcrt_unlock             100320f0 f   libvcruntimed:locks.obj
 0001:00031c80       ??$TypeMatchHelper@V__FrameHandler3@@@@YAHPBU_s_HandlerType@@PBU_s_CatchableType@@PBU_s_ThrowInfo@@@Z 10032c80 f i libvcruntimed:frame.obj
 0001:00031d60       ??$__InternalCxxFrameHandler@V__FrameHandler3@@@@YA?AW4_EXCEPTION_DISPOSITION@@PAUEHExceptionRecord@@PAUEHRegistrationNode@@PAU_CONTEXT@@PAXPBU_s_FuncInfo@@H1E@Z 10032d60 f i libvcruntimed:frame.obj
 0001:00031f20       ??0HandlerMap@__FrameHandler3@@QAE@PBU_s_TryBlockMapEntry@@II@Z 10032f20 f i libvcruntimed:frame.obj
 0001:00031f50       ??0TryBlockMap@__FrameHandler3@@QAE@PBU_s_FuncInfo@@I@Z 10032f50 f i libvcruntimed:frame.obj
 0001:00031f80       ??0bad_exception@std@@QAE@ABV01@@Z 10032f80 f i libvcruntimed:frame.obj
 0001:00031fb0       ??0bad_exception@std@@QAE@XZ 10032fb0 f i libvcruntimed:frame.obj
 0001:00031fe0       ??0iterator@HandlerMap@__FrameHandler3@@QAE@AAV12@I@Z 10032fe0 f i libvcruntimed:frame.obj
 0001:00032010       ??1bad_exception@std@@UAE@XZ 10033010 f i libvcruntimed:frame.obj
 0001:00032030       ??8iterator@HandlerMap@__FrameHandler3@@QBE_NABV012@@Z 10033030 f i libvcruntimed:frame.obj
 0001:00032060       ??8type_info@@QBE_NABV0@@Z 10033060 f i libvcruntimed:frame.obj
 0001:000320a0       ??9iterator@HandlerMap@__FrameHandler3@@QBE_NABV012@@Z 100330a0 f i libvcruntimed:frame.obj
 0001:000320e0       ??Diterator@HandlerMap@__FrameHandler3@@QAE?BU_s_HandlerType@@XZ 100330e0 f i libvcruntimed:frame.obj
 0001:00032120       ??Diterator@TryBlockMap@__FrameHandler3@@QAE?BU_s_TryBlockMapEntry@@XZ 10033120 f i libvcruntimed:frame.obj
 0001:00032170       ??Eiterator@HandlerMap@__FrameHandler3@@QAEAAV012@XZ 10033170 f i libvcruntimed:frame.obj
 0001:00032190       ??Eiterator@TryBlockMap@__FrameHandler3@@QAEAAV012@XZ 10033190 f i libvcruntimed:frame.obj
 0001:000321b0       ??Miterator@TryBlockMap@__FrameHandler3@@QBE_NABV012@@Z 100331b0 f i libvcruntimed:frame.obj
 0001:000321e0       ??_Ebad_exception@std@@UAEPAXI@Z 100331e0 f i libvcruntimed:frame.obj
 0001:000321e0       ??_Gbad_exception@std@@UAEPAXI@Z 100331e0 f i libvcruntimed:frame.obj
 0001:00032210       ?BuildCatchObject@__FrameHandler3@@SAXPAUEHExceptionRecord@@PAXPBU_s_HandlerType@@PBU_s_CatchableType@@@Z 10033210 f   libvcruntimed:frame.obj
 0001:00032230       ?BuildCatchObjectHelper@__FrameHandler3@@SAHPAUEHExceptionRecord@@PAXPBU_s_HandlerType@@PBU_s_CatchableType@@@Z 10033230 f   libvcruntimed:frame.obj
 0001:000325d0       ?FrameUnwindToEmptyState@__FrameHandler3@@SAXPAUEHRegistrationNode@@PAXPBU_s_FuncInfo@@@Z 100335d0 f   libvcruntimed:frame.obj
 0001:000325f0       ?FrameUnwindToState@__FrameHandler3@@SAXPAUEHRegistrationNode@@PAXPBU_s_FuncInfo@@H@Z 100335f0 f   libvcruntimed:frame.obj
 0001:00032770       ?GetMaxState@__FrameHandler3@@SAHPAXPBU_s_FuncInfo@@@Z 10033770 f i libvcruntimed:frame.obj
 0001:00032890       ?TypeMatch@__FrameHandler3@@SAHPBU_s_HandlerType@@PBU_s_CatchableType@@PBU_s_ThrowInfo@@@Z 10033890 f   libvcruntimed:frame.obj
 0001:000328b0       ?_CallMemberFunction1@@YGXQAX00@Z 100338b0 f i libvcruntimed:frame.obj
 0001:000328e0       ?_CallMemberFunction2@@YGXQAX00H@Z 100338e0 f i libvcruntimed:frame.obj
 0001:00032910       ?begin@HandlerMap@__FrameHandler3@@QAE?AViterator@12@XZ 10033910 f i libvcruntimed:frame.obj
 0001:00032930       ?end@HandlerMap@__FrameHandler3@@QAE?AViterator@12@XZ 10033930 f i libvcruntimed:frame.obj
 0001:00032960       ?getESTypes@__FrameHandler3@@SAPBU_s_ESTypeList@@PBU_s_FuncInfo@@@Z 10033960 f i libvcruntimed:frame.obj
 0001:00032970       ?getLastEntry@HandlerMap@__FrameHandler3@@QAEPBU_s_HandlerType@@XZ 10033970 f i libvcruntimed:frame.obj
 0001:00032990       ?getMagicNum@__FrameHandler3@@SAIPBU_s_FuncInfo@@@Z 10033990 f i libvcruntimed:frame.obj
 0001:000329a0       ?getNumTryBlocks@TryBlockMap@__FrameHandler3@@QAEIXZ 100339a0 f i libvcruntimed:frame.obj
 0001:000329c0       ?isEHs@__FrameHandler3@@SA_NPBU_s_FuncInfo@@@Z 100339c0 f i libvcruntimed:frame.obj
 0001:000329f0       ?isNoExcept@__FrameHandler3@@SA_NPBU_s_FuncInfo@@@Z 100339f0 f i libvcruntimed:frame.obj
 0001:00032a20       ___BuildCatchObject        10033a20 f   libvcruntimed:frame.obj
 0001:00032a40       ___BuildCatchObjectHelper  10033a40 f   libvcruntimed:frame.obj
 0001:00032a60       ___TypeMatch               10033a60 f   libvcruntimed:frame.obj
 0001:00032a80       ___vcrt_EncodePointer      10033a80 f i libvcruntimed:frame.obj
 0001:00032a90       __CallSettingFrame@12      10033a90 f   libvcruntimed:lowhelpr.obj
 0001:00032ab7       __NLG_Return               10033ab7     libvcruntimed:lowhelpr.obj
 0001:00032ae0       ??$?0$00@DName@@QAE@PBDU?$StringLifeSelector@$00@@@Z 10033ae0 f i libvcruntimed:undname.obj
 0001:00032b30       ??$?0$00@pcharNode@@QAE@PBDHU?$StringLifeSelector@$00@@@Z 10033b30 f i libvcruntimed:undname.obj
 0001:00032b70       ??$?0$01@DName@@QAE@PBDU?$StringLifeSelector@$01@@@Z 10033b70 f i libvcruntimed:undname.obj
 0001:00032bc0       ??$?0$01@pcharNode@@QAE@PBDHU?$StringLifeSelector@$01@@@Z 10033bc0 f i libvcruntimed:undname.obj
 0001:00032c40       ??$?0$0A@@DName@@QAE@PBDU?$StringLifeSelector@$0A@@@@Z 10033c40 f i libvcruntimed:undname.obj
 0001:00032c90       ??$?0$0A@@pcharNode@@QAE@PBDHU?$StringLifeSelector@$0A@@@@Z 10033c90 f i libvcruntimed:undname.obj
 0001:00032d10       ??$?0_K$0A@@?$optional@_K@std@@QAE@$$QA_K@Z 10033d10 f i libvcruntimed:undname.obj
 0001:00032d50       ??$?0_K@?$_Optional_construct_base@_K@std@@QAE@Uin_place_t@1@$$QA_K@Z 10033d50 f i libvcruntimed:undname.obj
 0001:00032d80       ??$?0_K@?$_Optional_destruct_base@_K$00@std@@QAE@Uin_place_t@1@$$QA_K@Z 10033d80 f i libvcruntimed:undname.obj
 0001:00032db0       ??$append@VDNameNode@@@DName@@AAEXPBVDNameNode@@@Z 10033db0 f i libvcruntimed:undname.obj
 0001:00032e40       ??$append@VDNameStatusNode@@@DName@@AAEXPBVDNameStatusNode@@@Z 10033e40 f i libvcruntimed:undname.obj
 0001:00032ed0       ??$append@VcharNode@@@DName@@AAEXPBVcharNode@@@Z 10033ed0 f i libvcruntimed:undname.obj
 0001:00032f60       ??$append@VpDNameNode@@@DName@@AAEXPBVpDNameNode@@@Z 10033f60 f i libvcruntimed:undname.obj
 0001:00032ff0       ??$append@VpcharNode@@@DName@@AAEXPBVpcharNode@@@Z 10033ff0 f i libvcruntimed:undname.obj
 0001:00033080       ??$doPchar@$00@DName@@AAEXPBDH@Z 10034080 f i libvcruntimed:undname.obj
 0001:00033190       ??$doPchar@$01@DName@@AAEXPBDH@Z 10034190 f i libvcruntimed:undname.obj
 0001:000332a0       ??$doPchar@$0A@@DName@@AAEXPBDH@Z 100342a0 f i libvcruntimed:undname.obj
 0001:000333b0       ??$forward@_K@std@@YA$$QA_KAA_K@Z 100343b0 f i libvcruntimed:undname.obj
 0001:000333c0       ??$size@D$04@std@@YAIAAY04$$CBD@Z 100343c0 f i libvcruntimed:undname.obj
 0001:000333d0       ??$size@D$0EB@@std@@YAIAAY0EB@$$CBD@Z 100343d0 f i libvcruntimed:undname.obj
 0001:000333e0       ??0?$_Optional_construct_base@_K@std@@QAE@XZ 100343e0 f i libvcruntimed:undname.obj
 0001:00033400       ??0?$_Optional_destruct_base@_K$00@std@@QAE@XZ 10034400 f i libvcruntimed:undname.obj
 0001:00033420       ??0?$optional@_K@std@@QAE@XZ 10034420 f i libvcruntimed:undname.obj
 0001:00033440       ??0Block@_HeapManager@@QAE@XZ 10034440 f i libvcruntimed:undname.obj
 0001:00033460       ??0DName@@QAE@AAPBDD@Z     10034460 f   libvcruntimed:undname.obj
 0001:000335d0       ??0DName@@QAE@ABUStringLiteral@@@Z 100345d0 f   libvcruntimed:undname.obj
 0001:00033620       ??0DName@@QAE@ABV0@@Z      10034620 f i libvcruntimed:undname.obj
 0001:00033650       ??0DName@@QAE@D@Z          10034650 f   libvcruntimed:undname.obj
 0001:00033680       ??0DName@@QAE@PAV0@@Z      10034680 f   libvcruntimed:undname.obj
 0001:00033730       ??0DName@@QAE@W4DNameStatus@@@Z 10034730 f   libvcruntimed:undname.obj
 0001:000337d0       ??0DName@@QAE@XZ           100347d0 f i libvcruntimed:undname.obj
 0001:00033800       ??0DName@@QAE@_J@Z         10034800 f   libvcruntimed:undname.obj
 0001:000338f0       ??0DName@@QAE@_K@Z         100348f0 f   libvcruntimed:undname.obj
 0001:000339a0       ??0DNameNode@@IAE@XZ       100349a0 f i libvcruntimed:undname.obj
 0001:000339c0       ??0Replicator@@QAE@XZ      100349c0 f i libvcruntimed:undname.obj
 0001:00033a00       ??0UnDecorator@@QAE@PBDP6APADJ@ZK@Z 10034a00 f i libvcruntimed:undname.obj
 0001:00033a80       ??0_Nontrivial_dummy_type@std@@QAE@XZ 10034a80 f i libvcruntimed:undname.obj
 0001:00033a90       ??0charNode@@QAE@D@Z       10034a90 f i libvcruntimed:undname.obj
 0001:00033ac0       ??0pDNameNode@@QAE@PAVDName@@@Z 10034ac0 f   libvcruntimed:undname.obj
 0001:00033b20       ??0pairNode@@QAE@PBVDNameNode@@0@Z 10034b20 f i libvcruntimed:undname.obj
 0001:00033b80       ??2@YAPAXIAAV_HeapManager@@H@Z 10034b80 f   libvcruntimed:undname.obj
 0001:00033bc0       ??4DName@@QAEAAV0@ABUStringLiteral@@@Z 10034bc0 f   libvcruntimed:undname.obj
 0001:00033c00       ??4DName@@QAEAAV0@ABV0@@Z  10034c00 f   libvcruntimed:undname.obj
 0001:00033c30       ??4DName@@QAEAAV0@D@Z      10034c30 f i libvcruntimed:undname.obj
 0001:00033c60       ??4DName@@QAEAAV0@PAV0@@Z  10034c60 f   libvcruntimed:undname.obj
 0001:00033d00       ??4DName@@QAEAAV0@W4DNameStatus@@@Z 10034d00 f   libvcruntimed:undname.obj
 0001:00033d80       ??AReplicator@@QBE?AVDName@@H@Z 10034d80 f   libvcruntimed:undname.obj
 0001:00033df0       ??B?$optional@_K@std@@QBE_NXZ 10034df0 f i libvcruntimed:undname.obj
 0001:00033e10       ??D?$optional@_K@std@@QGAEAA_KXZ 10034e10 f i libvcruntimed:undname.obj
 0001:00033e20       ??H@YA?AVDName@@ABUStringLiteral@@ABV0@@Z 10034e20 f i libvcruntimed:undname.obj
 0001:00033e50       ??H@YA?AVDName@@DABV0@@Z   10034e50 f i libvcruntimed:undname.obj
 0001:00033e80       ??H@YA?AVDName@@W4DNameStatus@@ABV0@@Z 10034e80 f i libvcruntimed:undname.obj
 0001:00033eb0       ??HDName@@QBE?AV0@ABUStringLiteral@@@Z 10034eb0 f   libvcruntimed:undname.obj
 0001:00033ef0       ??HDName@@QBE?AV0@ABV0@@Z  10034ef0 f   libvcruntimed:undname.obj
 0001:00033f30       ??HDName@@QBE?AV0@D@Z      10034f30 f   libvcruntimed:undname.obj
 0001:00033f70       ??HDName@@QBE?AV0@PAV0@@Z  10034f70 f   libvcruntimed:undname.obj
 0001:00033fb0       ??HDName@@QBE?AV0@W4DNameStatus@@@Z 10034fb0 f   libvcruntimed:undname.obj
 0001:00033ff0       ??HStringLiteral@@QBE?AU0@H@Z 10034ff0 f i libvcruntimed:undname.obj
 0001:00034020       ??YDName@@QAEAAV0@ABUStringLiteral@@@Z 10035020 f   libvcruntimed:undname.obj
 0001:000340c0       ??YDName@@QAEAAV0@ABV0@@Z  100350c0 f   libvcruntimed:undname.obj
 0001:00034160       ??YDName@@QAEAAV0@D@Z      10035160 f   libvcruntimed:undname.obj
 0001:000341e0       ??YDName@@QAEAAV0@PAV0@@Z  100351e0 f   libvcruntimed:undname.obj
 0001:00034290       ??YDName@@QAEAAV0@W4DNameStatus@@@Z 10035290 f   libvcruntimed:undname.obj
 0001:000342f0       ??YReplicator@@QAEAAV0@ABVDName@@@Z 100352f0 f   libvcruntimed:undname.obj
 0001:00034380       ??_5DName@@QAEAAV0@ABV0@@Z 10035380 f   libvcruntimed:undname.obj
 0001:000343e0       ??__K_l@@YA?AUStringLiteral@@PBDI@Z 100353e0 f i libvcruntimed:undname.obj
 0001:00034400       ?Constructor@_HeapManager@@QAEXP6APAXI@ZP6AXPAX@Z@Z 10035400 f i libvcruntimed:undname.obj
 0001:00034440       ?Destructor@_HeapManager@@QAEXXZ 10035440 f i libvcruntimed:undname.obj
 0001:000344b0       ?UScore@UnDecorator@@SA?AUStringLiteral@@W4Tokens@@@Z 100354b0 f   libvcruntimed:undname.obj
 0001:00034500       ?composeDeclaration@UnDecorator@@CA?AVDName@@ABV2@@Z 10035500 f i libvcruntimed:undname.obj
 0001:00036470       ?dbGetString@DName@@QBEPADXZ 10037470 f   libvcruntimed:undname.obj
 0001:00036490       ?doAccessSpecifiers@UnDecorator@@SAHXZ 10037490 f i libvcruntimed:undname.obj
 0001:000364c0       ?doAllocationLanguage@UnDecorator@@SAHXZ 100374c0 f i libvcruntimed:undname.obj
 0001:000364f0       ?doAllocationModel@UnDecorator@@SAHXZ 100374f0 f i libvcruntimed:undname.obj
 0001:00036520       ?doEcsu@UnDecorator@@SAHXZ 10037520 f i libvcruntimed:undname.obj
 0001:00036550       ?doEllipsis@UnDecorator@@SAHXZ 10037550 f i libvcruntimed:undname.obj
 0001:00036580       ?doFunctionReturns@UnDecorator@@SAHXZ 10037580 f i libvcruntimed:undname.obj
 0001:000365b0       ?doMSKeywords@UnDecorator@@SAHXZ 100375b0 f i libvcruntimed:undname.obj
 0001:000365e0       ?doMemberTypes@UnDecorator@@SAHXZ 100375e0 f i libvcruntimed:undname.obj
 0001:00036610       ?doNameOnly@UnDecorator@@SAHXZ 10037610 f i libvcruntimed:undname.obj
 0001:00036620       ?doNoIdentCharCheck@UnDecorator@@SAHXZ 10037620 f i libvcruntimed:undname.obj
 0001:00036630       ?doPchar@DName@@AAEXD@Z    10037630 f   libvcruntimed:undname.obj
 0001:000366a0       ?doPtr64@UnDecorator@@SAHXZ 100376a0 f i libvcruntimed:undname.obj
 0001:000366d0       ?doRestrictionSpec@UnDecorator@@SAHXZ 100376d0 f i libvcruntimed:undname.obj
 0001:00036700       ?doThisTypes@UnDecorator@@SAHXZ 10037700 f i libvcruntimed:undname.obj
 0001:00036730       ?doThrowTypes@UnDecorator@@SAHXZ 10037730 f i libvcruntimed:undname.obj
 0001:00036760       ?doTypeOnly@UnDecorator@@SAHXZ 10037760 f i libvcruntimed:undname.obj
 0001:00036770       ?doUnderScore@UnDecorator@@SAHXZ 10037770 f i libvcruntimed:undname.obj
 0001:000367a0       ?getArgumentList@UnDecorator@@CA?AVDName@@XZ 100377a0 f   libvcruntimed:undname.obj
 0001:000368f0       ?getArgumentTypes@UnDecorator@@CA?AVDName@@XZ 100378f0 f   libvcruntimed:undname.obj
 0001:00036b00       ?getArrayObject@UnDecorator@@CA?AVDName@@XZ 10037b00 f   libvcruntimed:undname.obj
 0001:00036be0       ?getArrayType@UnDecorator@@CA?AVDName@@ABV2@@Z 10037be0 f i libvcruntimed:undname.obj
 0001:00036e80       ?getBasedType@UnDecorator@@CA?AVDName@@XZ 10037e80 f   libvcruntimed:undname.obj
 0001:00036f70       ?getBasicDataType@UnDecorator@@CA?AVDName@@ABV2@@Z 10037f70 f   libvcruntimed:undname.obj
 0001:00037880       ?getCHPEName@UnDecorator@@QAEPADPADH@Z 10038880 f i libvcruntimed:undname.obj
 0001:000379e0       ?getCallIndex@UnDecorator@@CA?AVDName@@XZ 100389e0 f i libvcruntimed:undname.obj
 0001:00037a00       ?getCallingConvention@UnDecorator@@CA?AVDName@@XZ 10038a00 f   libvcruntimed:undname.obj
 0001:00037c40       ?getDataIndirectType@UnDecorator@@CA?AVDName@@ABV2@W4IndirectionKind@@0H@Z 10038c40 f   libvcruntimed:undname.obj
 0001:00038560       ?getDataIndirectType@UnDecorator@@CA?AVDName@@XZ 10039560 f i libvcruntimed:undname.obj
 0001:000385a0       ?getDataType@UnDecorator@@CA?AVDName@@PAV2@@Z 100395a0 f   libvcruntimed:undname.obj
 0001:000386e0       ?getDecoratedName@UnDecorator@@CA?AVDName@@XZ 100396e0 f   libvcruntimed:undname.obj
 0001:00038b20       ?getDimension@UnDecorator@@CA?AVDName@@_N@Z 10039b20 f   libvcruntimed:undname.obj
 0001:00038d80       ?getDispatchTarget@UnDecorator@@CA?AVDName@@XZ 10039d80 f   libvcruntimed:undname.obj
 0001:00038e20       ?getDisplacement@UnDecorator@@CA?AVDName@@XZ 10039e20 f i libvcruntimed:undname.obj
 0001:00038e40       ?getECSUDataType@UnDecorator@@CA?AVDName@@XZ 10039e40 f   libvcruntimed:undname.obj
 0001:000390a0       ?getECSUName@UnDecorator@@CA?AVDName@@XZ 1003a0a0 f i libvcruntimed:undname.obj
 0001:000390c0       ?getEnumType@UnDecorator@@CA?AVDName@@XZ 1003a0c0 f i libvcruntimed:undname.obj
 0001:00039270       ?getExtendedDataIndirectType@UnDecorator@@CA?AVDName@@AAW4IndirectionKind@@AA_NH@Z 1003a270 f   libvcruntimed:undname.obj
 0001:000394c0       ?getExternalDataType@UnDecorator@@CA?AVDName@@ABV2@@Z 1003a4c0 f i libvcruntimed:undname.obj
 0001:00039560       ?getFloatingPoint@UnDecorator@@CA?AVDName@@H@Z 1003a560 f   libvcruntimed:undname.obj
 0001:00039710       ?getFunctionIndirectType@UnDecorator@@CA?AVDName@@ABV2@@Z 1003a710 f   libvcruntimed:undname.obj
 0001:00039bf0       ?getGuardNumber@UnDecorator@@CA?AVDName@@XZ 1003abf0 f i libvcruntimed:undname.obj
 0001:00039c10       ?getLastChar@DName@@QBEDXZ 1003ac10 f i libvcruntimed:undname.obj
 0001:00039c50       ?getLastChar@DNameStatusNode@@UBEDXZ 1003ac50 f i libvcruntimed:undname.obj
 0001:00039c80       ?getLastChar@charNode@@UBEDXZ 1003ac80 f i libvcruntimed:undname.obj
 0001:00039ca0       ?getLastChar@pDNameNode@@UBEDXZ 1003aca0 f i libvcruntimed:undname.obj
 0001:00039cd0       ?getLastChar@pairNode@@UBEDXZ 1003acd0 f i libvcruntimed:undname.obj
 0001:00039d40       ?getLastChar@pcharNode@@UBEDXZ 1003ad40 f i libvcruntimed:undname.obj
 0001:00039d80       ?getLexicalFrame@UnDecorator@@CA?AVDName@@XZ 1003ad80 f i libvcruntimed:undname.obj
 0001:00039dc0       ?getMemoryWithBuffer@_HeapManager@@QAEPAXI@Z 1003adc0 f   libvcruntimed:undname.obj
 0001:00039eb0       ?getMemoryWithoutBuffer@_HeapManager@@QAEPAXI@Z 1003aeb0 f   libvcruntimed:undname.obj
 0001:00039ef0       ?getNoexcept@UnDecorator@@CA?AVDName@@XZ 1003aef0 f   libvcruntimed:undname.obj
 0001:00039f70       ?getNumberOfDimensions@UnDecorator@@CAHXZ 1003af70 f   libvcruntimed:undname.obj
 0001:0003a070       ?getOperatorName@UnDecorator@@CA?AVDName@@_NPA_N@Z 1003b070 f i libvcruntimed:undname.obj
 0001:0003ab60       ?getPointerType@UnDecorator@@CA?AVDName@@ABV2@0@Z 1003bb60 f i libvcruntimed:undname.obj
 0001:0003ab80       ?getPointerTypeArray@UnDecorator@@CA?AVDName@@ABV2@0@Z 1003bb80 f i libvcruntimed:undname.obj
 0001:0003aba0       ?getPrimaryDataType@UnDecorator@@CA?AVDName@@ABV2@@Z 1003bba0 f   libvcruntimed:undname.obj
 0001:0003b030       ?getPtrRefDataType@UnDecorator@@CA?AVDName@@ABV2@H@Z 1003c030 f   libvcruntimed:undname.obj
 0001:0003b2e0       ?getPtrRefType@UnDecorator@@CA?AVDName@@ABV2@0W4IndirectionKind@@@Z 1003c2e0 f   libvcruntimed:undname.obj
 0001:0003b460       ?getReferenceType@UnDecorator@@CA?AVDName@@ABV2@0W4IndirectionKind@@@Z 1003c460 f i libvcruntimed:undname.obj
 0001:0003b480       ?getRestrictionSpec@UnDecorator@@CA?AVDName@@XZ 1003c480 f   libvcruntimed:undname.obj
 0001:0003b640       ?getReturnType@UnDecorator@@CA?AVDName@@PAV2@@Z 1003c640 f   libvcruntimed:undname.obj
 0001:0003b690       ?getScope@UnDecorator@@CA?AVDName@@XZ 1003c690 f   libvcruntimed:undname.obj
 0001:0003bc20       ?getScopedName@UnDecorator@@CA?AVDName@@XZ 1003cc20 f   libvcruntimed:undname.obj
 0001:0003bd70       ?getSignedDimension@UnDecorator@@CA?AVDName@@XZ 1003cd70 f   libvcruntimed:undname.obj
 0001:0003bdf0       ?getStorageConvention@UnDecorator@@CA?AVDName@@XZ 1003cdf0 f i libvcruntimed:undname.obj
 0001:0003be10       ?getString@DName@@QBEPADPAD0@Z 1003ce10 f i libvcruntimed:undname.obj
 0001:0003be70       ?getString@DName@@QBEPADPADH@Z 1003ce70 f i libvcruntimed:undname.obj
 0001:0003bf00       ?getString@DNameStatusNode@@UBEPADPAD0@Z 1003cf00 f i libvcruntimed:undname.obj
 0001:0003bf40       ?getString@charNode@@UBEPADPAD0@Z 1003cf40 f i libvcruntimed:undname.obj
 0001:0003bf70       ?getString@pDNameNode@@UBEPADPAD0@Z 1003cf70 f i libvcruntimed:undname.obj
 0001:0003bfb0       ?getString@pairNode@@UBEPADPAD0@Z 1003cfb0 f i libvcruntimed:undname.obj
 0001:0003c040       ?getString@pcharNode@@UBEPADPAD0@Z 1003d040 f i libvcruntimed:undname.obj
 0001:0003c070       ?getStringEncoding@UnDecorator@@CA?AVDName@@W4PrefixKind@@H@Z 1003d070 f   libvcruntimed:undname.obj
 0001:0003c180       ?getStringHelper@@YAPADPADPBD1H@Z 1003d180 f i libvcruntimed:undname.obj
 0001:0003c1c0       ?getStringObject@UnDecorator@@CA?AVDName@@XZ 1003d1c0 f   libvcruntimed:undname.obj
 0001:0003c270       ?getSymbolName@UnDecorator@@CA?AVDName@@XZ 1003d270 f i libvcruntimed:undname.obj
 0001:0003c300       ?getTemplateArgumentList@UnDecorator@@CA?AVDName@@XZ 1003d300 f   libvcruntimed:undname.obj
 0001:0003c5f0       ?getTemplateName@UnDecorator@@CA?AVDName@@_N@Z 1003d5f0 f   libvcruntimed:undname.obj
 0001:0003c7b0       ?getTemplateNonTypeArgument@UnDecorator@@CA?AVDName@@XZ 1003d7b0 f   libvcruntimed:undname.obj
 0001:0003ccf0       ?getTemplateTypeArgument@UnDecorator@@CA?AVDName@@XZ 1003dcf0 f   libvcruntimed:undname.obj
 0001:0003ce90       ?getThisType@UnDecorator@@CA?AVDName@@XZ 1003de90 f i libvcruntimed:undname.obj
 0001:0003ced0       ?getThrowTypes@UnDecorator@@CA?AVDName@@XZ 1003ded0 f   libvcruntimed:undname.obj
 0001:0003cf10       ?getTypeEncoding@UnDecorator@@CAHXZ 1003df10 f i libvcruntimed:undname.obj
 0001:0003d9d0       ?getUndecoratedName@UnDecorator@@QAEPADPADH@Z 1003e9d0 f i libvcruntimed:undname.obj
 0001:0003db30       ?getVCallThunkType@UnDecorator@@CA?AVDName@@XZ 1003eb30 f i libvcruntimed:undname.obj
 0001:0003dbb0       ?getValue@UnDecorator@@CA?AV?$optional@_K@std@@XZ 1003ebb0 f   libvcruntimed:undname.obj
 0001:0003dc70       ?getValueObject@UnDecorator@@CA?AVDName@@XZ 1003ec70 f   libvcruntimed:undname.obj
 0001:0003de30       ?getVbTableType@UnDecorator@@CA?AVDName@@ABV2@@Z 1003ee30 f i libvcruntimed:undname.obj
 0001:0003de50       ?getVdispMapType@UnDecorator@@CA?AVDName@@ABV2@@Z 1003ee50 f i libvcruntimed:undname.obj
 0001:0003dee0       ?getVfTableType@UnDecorator@@CA?AVDName@@ABV2@@Z 1003eee0 f i libvcruntimed:undname.obj
 0001:0003e0e0       ?getZName@UnDecorator@@CA?AVDName@@_N0@Z 1003f0e0 f   libvcruntimed:undname.obj
 0001:0003e420       ?haveTemplateParameters@UnDecorator@@SAHXZ 1003f420 f i libvcruntimed:undname.obj
 0001:0003e430       ?isArray@DName@@QBEHXZ     1003f430 f i libvcruntimed:undname.obj
 0001:0003e450       ?isComArray@DName@@QBEHXZ  1003f450 f i libvcruntimed:undname.obj
 0001:0003e470       ?isEmpty@DName@@QBEHXZ     1003f470 f i libvcruntimed:undname.obj
 0001:0003e4a0       ?isFull@Replicator@@QBEHXZ 1003f4a0 f i libvcruntimed:undname.obj
 0001:0003e4d0       ?isNoTE@DName@@QBEHXZ      1003f4d0 f i libvcruntimed:undname.obj
 0001:0003e4f0       ?isPinPtr@DName@@QBEHXZ    1003f4f0 f i libvcruntimed:undname.obj
 0001:0003e510       ?isPtrRef@DName@@QBEHXZ    1003f510 f i libvcruntimed:undname.obj
 0001:0003e530       ?isUDC@DName@@QBEHXZ       1003f530 f i libvcruntimed:undname.obj
 0001:0003e570       ?isUDTThunk@DName@@QBEHXZ  1003f570 f i libvcruntimed:undname.obj
 0001:0003e5b0       ?isVCallThunk@DName@@QBEHXZ 1003f5b0 f i libvcruntimed:undname.obj
 0001:0003e5d0       ?isValid@DName@@QBEHXZ     1003f5d0 f i libvcruntimed:undname.obj
 0001:0003e610       ?length@DName@@QBEHXZ      1003f610 f i libvcruntimed:undname.obj
 0001:0003e650       ?length@DNameStatusNode@@UBEHXZ 1003f650 f i libvcruntimed:undname.obj
 0001:0003e670       ?length@charNode@@UBEHXZ   1003f670 f i libvcruntimed:undname.obj
 0001:0003e680       ?length@pDNameNode@@UBEHXZ 1003f680 f i libvcruntimed:undname.obj
 0001:0003e6b0       ?length@pairNode@@UBEHXZ   1003f6b0 f i libvcruntimed:undname.obj
 0001:0003e720       ?length@pcharNode@@UBEHXZ  1003f720 f i libvcruntimed:undname.obj
 0001:0003e740       ?make@DNameStatusNode@@SAPBV1@W4DNameStatus@@@Z 1003f740 f i libvcruntimed:undname.obj
 0001:0003e770       ?parseDecoratedName@UnDecorator@@CA?AVDName@@XZ 1003f770 f   libvcruntimed:undname.obj
 0001:0003e900       ?raw_length@DNameStatusNode@@UBEHXZ 1003f900 f i libvcruntimed:undname.obj
 0001:0003e920       ?raw_length@charNode@@UBEHXZ 1003f920 f i libvcruntimed:undname.obj
 0001:0003e940       ?raw_length@pDNameNode@@UBEHXZ 1003f940 f i libvcruntimed:undname.obj
 0001:0003e950       ?raw_length@pairNode@@UBEHXZ 1003f950 f i libvcruntimed:undname.obj
 0001:0003e970       ?raw_length@pcharNode@@UBEHXZ 1003f970 f i libvcruntimed:undname.obj
 0001:0003e990       ?setIsArray@DName@@QAEXXZ  1003f990 f i libvcruntimed:undname.obj
 0001:0003e9b0       ?setIsComArray@DName@@QAEXXZ 1003f9b0 f i libvcruntimed:undname.obj
 0001:0003e9d0       ?setIsNoTE@DName@@QAEXXZ   1003f9d0 f i libvcruntimed:undname.obj
 0001:0003e9f0       ?setIsPinPtr@DName@@QAEXXZ 1003f9f0 f i libvcruntimed:undname.obj
 0001:0003ea10       ?setIsUDC@DName@@QAEXXZ    1003fa10 f i libvcruntimed:undname.obj
 0001:0003ea40       ?setIsVCallThunk@DName@@QAEXXZ 1003fa40 f i libvcruntimed:undname.obj
 0001:0003ea60       ?setPtrRef@DName@@QAEAAV1@XZ 1003fa60 f i libvcruntimed:undname.obj
 0001:0003ea80       ?status@DName@@QBE?AW4DNameStatus@@XZ 1003fa80 f i libvcruntimed:undname.obj
 0001:0003eb80       ___unDName                 1003fb80 f   libvcruntimed:undname.obj
 0001:0003ebb0       ___unDNameEx               1003fbb0 f   libvcruntimed:undname.obj
 0001:0003ec80       _unDNameGenerateCHPE       1003fc80 f   libvcruntimed:undname.obj
 0001:0003ece0       __global_unwind2           1003fce0 f   libvcruntimed:exsup.obj
 0001:0003ed46       __local_unwind2            1003fd46 f   libvcruntimed:exsup.obj
 0001:0003edca       __abnormal_termination     1003fdca f   libvcruntimed:exsup.obj
 0001:0003edf0       __NLG_Notify1              1003fdf0 f   libvcruntimed:exsup.obj
 0001:0003edfc       __NLG_Notify               1003fdfc f   libvcruntimed:exsup.obj
 0001:0003ee13       __NLG_Dispatch2            1003fe13     libvcruntimed:exsup.obj
 0001:0003ee13       __NLG_Dispatch             1003fe13     libvcruntimed:exsup.obj
 0001:0003ee1b       __NLG_Call                 1003fe1b f   libvcruntimed:exsup.obj
 0001:0003ee1d       __NLG_Return2              1003fe1d     libvcruntimed:exsup.obj
 0001:0003ee20       ??$__crt_interlocked_exchange_pointer@UHINSTANCE__@@PAU1@@@YAPAUHINSTANCE__@@PDSAU0@QAU0@@Z 1003fe20 f i libvcruntimed:winapi_downlevel.obj
 0001:0003ee30       ??$__crt_interlocked_exchange_pointer@UHINSTANCE__@@PAX@@YAPAUHINSTANCE__@@PDSAU0@QAX@Z 1003fe30 f i libvcruntimed:winapi_downlevel.obj
 0001:0003ee40       ??$__crt_interlocked_exchange_pointer@XPAX@@YAPAXPDSAXQAX@Z 1003fe40 f i libvcruntimed:winapi_downlevel.obj
 0001:0003ee50       ??$__crt_interlocked_read_pointer@UHINSTANCE__@@@@YAPAUHINSTANCE__@@PDSAU0@@Z 1003fe50 f i libvcruntimed:winapi_downlevel.obj
 0001:0003ee70       ??$__crt_interlocked_read_pointer@X@@YAPAXPDSAX@Z 1003fe70 f i libvcruntimed:winapi_downlevel.obj
 0001:0003f240       ___vcrt_FlsAlloc           10040240 f   libvcruntimed:winapi_downlevel.obj
 0001:0003f280       ___vcrt_FlsFree            10040280 f   libvcruntimed:winapi_downlevel.obj
 0001:0003f2c0       ___vcrt_FlsGetValue        100402c0 f   libvcruntimed:winapi_downlevel.obj
 0001:0003f300       ___vcrt_FlsSetValue        10040300 f   libvcruntimed:winapi_downlevel.obj
 0001:0003f350       ___vcrt_InitializeCriticalSectionEx 10040350 f   libvcruntimed:winapi_downlevel.obj
 0001:0003f3d0       __get_unexpected           100403d0 f   libvcruntimed:unexpected.obj
 0001:0003f3f0       _set_unexpected            100403f0 f   libvcruntimed:unexpected.obj
 0001:0003f420       _unexpected                10040420 f   libvcruntimed:unexpected.obj
 0001:0003f460       ?GetCurrentState@__FrameHandler3@@SAHPAUEHRegistrationNode@@PAXPBU_s_FuncInfo@@@Z 10040460 f   libvcruntimed:ehstate.obj
 0001:0003f490       ?SetState@__FrameHandler3@@SAXPAUEHRegistrationNode@@PBU_s_FuncInfo@@H@Z 10040490 f   libvcruntimed:ehstate.obj
 0001:0003f4a0       ??$?0ABV?$stream_output_adapter@D@__crt_stdio_output@@AB_KABQBDABQAU__crt_locale_pointers@@ABQAD@?$format_validation_base@DV?$stream_output_adapter@D@__crt_stdio_output@@@__crt_stdio_output@@IAE@ABV?$stream_output_adapter@D@1@AB_KABQBDABQAU__crt_locale_pointers@@ABQAD@Z 100404a0 f i libucrtd:output.obj
 0001:0003f4d0       ??$?0ABV?$stream_output_adapter@D@__crt_stdio_output@@AB_KABQBDABQAU__crt_locale_pointers@@ABQAD@?$positional_parameter_base@DV?$stream_output_adapter@D@__crt_stdio_output@@@__crt_stdio_output@@IAE@ABV?$stream_output_adapter@D@1@AB_KABQBDABQAU__crt_locale_pointers@@ABQAD@Z 100404d0 f i libucrtd:output.obj
 0001:0003f550       ??$?0ABV?$stream_output_adapter@D@__crt_stdio_output@@AB_KABQBDABQAU__crt_locale_pointers@@ABQAD@?$standard_base@DV?$stream_output_adapter@D@__crt_stdio_output@@@__crt_stdio_output@@IAE@ABV?$stream_output_adapter@D@1@AB_KABQBDABQAU__crt_locale_pointers@@ABQAD@Z 10040550 f i libucrtd:output.obj
 0001:0003f5a0       ??$?0ABV?$stream_output_adapter@_W@__crt_stdio_output@@AB_KABQB_WABQAU__crt_locale_pointers@@ABQAD@?$format_validation_base@_WV?$stream_output_adapter@_W@__crt_stdio_output@@@__crt_stdio_output@@IAE@ABV?$stream_output_adapter@_W@1@AB_KABQB_WABQAU__crt_locale_pointers@@ABQAD@Z 100405a0 f i libucrtd:output.obj
 0001:0003f5d0       ??$?0ABV?$stream_output_adapter@_W@__crt_stdio_output@@AB_KABQB_WABQAU__crt_locale_pointers@@ABQAD@?$positional_parameter_base@_WV?$stream_output_adapter@_W@__crt_stdio_output@@@__crt_stdio_output@@IAE@ABV?$stream_output_adapter@_W@1@AB_KABQB_WABQAU__crt_locale_pointers@@ABQAD@Z 100405d0 f i libucrtd:output.obj
 0001:0003f650       ??$?0ABV?$stream_output_adapter@_W@__crt_stdio_output@@AB_KABQB_WABQAU__crt_locale_pointers@@ABQAD@?$standard_base@_WV?$stream_output_adapter@_W@__crt_stdio_output@@@__crt_stdio_output@@IAE@ABV?$stream_output_adapter@_W@1@AB_KABQB_WABQAU__crt_locale_pointers@@ABQAD@Z 10040650 f i libucrtd:output.obj
 0001:0003f6a0       ??$?0ABV?$string_output_adapter@D@__crt_stdio_output@@AB_KABQBDABQAU__crt_locale_pointers@@ABQAD@?$format_validation_base@DV?$string_output_adapter@D@__crt_stdio_output@@@__crt_stdio_output@@IAE@ABV?$string_output_adapter@D@1@AB_KABQBDABQAU__crt_locale_pointers@@ABQAD@Z 100406a0 f i libucrtd:output.obj
 0001:0003f6d0       ??$?0ABV?$string_output_adapter@D@__crt_stdio_output@@AB_KABQBDABQAU__crt_locale_pointers@@ABQAD@?$positional_parameter_base@DV?$string_output_adapter@D@__crt_stdio_output@@@__crt_stdio_output@@IAE@ABV?$string_output_adapter@D@1@AB_KABQBDABQAU__crt_locale_pointers@@ABQAD@Z 100406d0 f i libucrtd:output.obj
 0001:0003f750       ??$?0ABV?$string_output_adapter@D@__crt_stdio_output@@AB_KABQBDABQAU__crt_locale_pointers@@ABQAD@?$standard_base@DV?$string_output_adapter@D@__crt_stdio_output@@@__crt_stdio_output@@IAE@ABV?$string_output_adapter@D@1@AB_KABQBDABQAU__crt_locale_pointers@@ABQAD@Z 10040750 f i libucrtd:output.obj
 0001:0003f7a0       ??$?0ABV?$string_output_adapter@_W@__crt_stdio_output@@AB_KABQB_WABQAU__crt_locale_pointers@@ABQAD@?$format_validation_base@_WV?$string_output_adapter@_W@__crt_stdio_output@@@__crt_stdio_output@@IAE@ABV?$string_output_adapter@_W@1@AB_KABQB_WABQAU__crt_locale_pointers@@ABQAD@Z 100407a0 f i libucrtd:output.obj
 0001:0003f7d0       ??$?0ABV?$string_output_adapter@_W@__crt_stdio_output@@AB_KABQB_WABQAU__crt_locale_pointers@@ABQAD@?$positional_parameter_base@_WV?$string_output_adapter@_W@__crt_stdio_output@@@__crt_stdio_output@@IAE@ABV?$string_output_adapter@_W@1@AB_KABQB_WABQAU__crt_locale_pointers@@ABQAD@Z 100407d0 f i libucrtd:output.obj
 0001:0003f850       ??$?0ABV?$string_output_adapter@_W@__crt_stdio_output@@AB_KABQB_WABQAU__crt_locale_pointers@@ABQAD@?$standard_base@_WV?$string_output_adapter@_W@__crt_stdio_output@@@__crt_stdio_output@@IAE@ABV?$string_output_adapter@_W@1@AB_KABQB_WABQAU__crt_locale_pointers@@ABQAD@Z 10040850 f i libucrtd:output.obj
 0001:0003fd80       ??$__crt_interlocked_read@J@@YAJPDJ@Z 10040d80 f i libucrtd:output.obj
 0001:00042b20       ??$count@D@formatting_buffer@__crt_stdio_output@@QBEIXZ 10043b20 f i libucrtd:output.obj
 0001:00042b60       ??$count@_W@formatting_buffer@__crt_stdio_output@@QBEIXZ 10043b60 f i libucrtd:output.obj
 0001:00042ba0       ??$data@D@formatting_buffer@__crt_stdio_output@@QAEPADXZ 10043ba0 f i libucrtd:output.obj
 0001:00042be0       ??$data@_W@formatting_buffer@__crt_stdio_output@@QAEPA_WXZ 10043be0 f i libucrtd:output.obj
 0001:00042c20       ??$ensure_buffer_is_big_enough@D@formatting_buffer@__crt_stdio_output@@QAE_NI@Z 10043c20 f i libucrtd:output.obj
 0001:00042d00       ??$ensure_buffer_is_big_enough@_W@formatting_buffer@__crt_stdio_output@@QAE_NI@Z 10043d00 f i libucrtd:output.obj
 0001:00042df0       ??$extract_argument_from_va_list@C_J@?$positional_parameter_base@DV?$stream_output_adapter@D@__crt_stdio_output@@@__crt_stdio_output@@IAE_NAA_J@Z 10043df0 f i libucrtd:output.obj
 0001:00042f30       ??$extract_argument_from_va_list@C_J@?$positional_parameter_base@DV?$string_output_adapter@D@__crt_stdio_output@@@__crt_stdio_output@@IAE_NAA_J@Z 10043f30 f i libucrtd:output.obj
 0001:00043070       ??$extract_argument_from_va_list@C_J@?$positional_parameter_base@_WV?$stream_output_adapter@_W@__crt_stdio_output@@@__crt_stdio_output@@IAE_NAA_J@Z 10044070 f i libucrtd:output.obj
 0001:000431b0       ??$extract_argument_from_va_list@C_J@?$positional_parameter_base@_WV?$string_output_adapter@_W@__crt_stdio_output@@@__crt_stdio_output@@IAE_NAA_J@Z 100441b0 f i libucrtd:output.obj
 0001:000432f0       ??$extract_argument_from_va_list@C_J@?$standard_base@DV?$stream_output_adapter@D@__crt_stdio_output@@@__crt_stdio_output@@IAE_NAA_J@Z 100442f0 f i libucrtd:output.obj
 0001:00043320       ??$extract_argument_from_va_list@C_J@?$standard_base@DV?$string_output_adapter@D@__crt_stdio_output@@@__crt_stdio_output@@IAE_NAA_J@Z 10044320 f i libucrtd:output.obj
 0001:00043350       ??$extract_argument_from_va_list@C_J@?$standard_base@_WV?$stream_output_adapter@_W@__crt_stdio_output@@@__crt_stdio_output@@IAE_NAA_J@Z 10044350 f i libucrtd:output.obj
 0001:00043380       ??$extract_argument_from_va_list@C_J@?$standard_base@_WV?$string_output_adapter@_W@__crt_stdio_output@@@__crt_stdio_output@@IAE_NAA_J@Z 10044380 f i libucrtd:output.obj
 0001:000433b0       ??$extract_argument_from_va_list@E_J@?$positional_parameter_base@DV?$stream_output_adapter@D@__crt_stdio_output@@@__crt_stdio_output@@IAE_NAA_J@Z 100443b0 f i libucrtd:output.obj
 0001:000434f0       ??$extract_argument_from_va_list@E_J@?$positional_parameter_base@DV?$string_output_adapter@D@__crt_stdio_output@@@__crt_stdio_output@@IAE_NAA_J@Z 100444f0 f i libucrtd:output.obj
 0001:00043630       ??$extract_argument_from_va_list@E_J@?$positional_parameter_base@_WV?$stream_output_adapter@_W@__crt_stdio_output@@@__crt_stdio_output@@IAE_NAA_J@Z 10044630 f i libucrtd:output.obj
 0001:00043770       ??$extract_argument_from_va_list@E_J@?$positional_parameter_base@_WV?$string_output_adapter@_W@__crt_stdio_output@@@__crt_stdio_output@@IAE_NAA_J@Z 10044770 f i libucrtd:output.obj
 0001:000438b0       ??$extract_argument_from_va_list@E_J@?$standard_base@DV?$stream_output_adapter@D@__crt_stdio_output@@@__crt_stdio_output@@IAE_NAA_J@Z 100448b0 f i libucrtd:output.obj
 0001:000438e0       ??$extract_argument_from_va_list@E_J@?$standard_base@DV?$string_output_adapter@D@__crt_stdio_output@@@__crt_stdio_output@@IAE_NAA_J@Z 100448e0 f i libucrtd:output.obj
 0001:00043910       ??$extract_argument_from_va_list@E_J@?$standard_base@_WV?$stream_output_adapter@_W@__crt_stdio_output@@@__crt_stdio_output@@IAE_NAA_J@Z 10044910 f i libucrtd:output.obj
 0001:00043940       ??$extract_argument_from_va_list@E_J@?$standard_base@_WV?$string_output_adapter@_W@__crt_stdio_output@@@__crt_stdio_output@@IAE_NAA_J@Z 10044940 f i libucrtd:output.obj
 0001:00043970       ??$extract_argument_from_va_list@F_J@?$positional_parameter_base@DV?$stream_output_adapter@D@__crt_stdio_output@@@__crt_stdio_output@@IAE_NAA_J@Z 10044970 f i libucrtd:output.obj
 0001:00043aa0       ??$extract_argument_from_va_list@F_J@?$positional_parameter_base@DV?$string_output_adapter@D@__crt_stdio_output@@@__crt_stdio_output@@IAE_NAA_J@Z 10044aa0 f i libucrtd:output.obj
 0001:00043bd0       ??$extract_argument_from_va_list@F_J@?$positional_parameter_base@_WV?$stream_output_adapter@_W@__crt_stdio_output@@@__crt_stdio_output@@IAE_NAA_J@Z 10044bd0 f i libucrtd:output.obj
 0001:00043d00       ??$extract_argument_from_va_list@F_J@?$positional_parameter_base@_WV?$string_output_adapter@_W@__crt_stdio_output@@@__crt_stdio_output@@IAE_NAA_J@Z 10044d00 f i libucrtd:output.obj
 0001:00043e30       ??$extract_argument_from_va_list@F_J@?$standard_base@DV?$stream_output_adapter@D@__crt_stdio_output@@@__crt_stdio_output@@IAE_NAA_J@Z 10044e30 f i libucrtd:output.obj
 0001:00043e60       ??$extract_argument_from_va_list@F_J@?$standard_base@DV?$string_output_adapter@D@__crt_stdio_output@@@__crt_stdio_output@@IAE_NAA_J@Z 10044e60 f i libucrtd:output.obj
 0001:00043e90       ??$extract_argument_from_va_list@F_J@?$standard_base@_WV?$stream_output_adapter@_W@__crt_stdio_output@@@__crt_stdio_output@@IAE_NAA_J@Z 10044e90 f i libucrtd:output.obj
 0001:00043ec0       ??$extract_argument_from_va_list@F_J@?$standard_base@_WV?$string_output_adapter@_W@__crt_stdio_output@@@__crt_stdio_output@@IAE_NAA_J@Z 10044ec0 f i libucrtd:output.obj
 0001:00043ef0       ??$extract_argument_from_va_list@GD@?$positional_parameter_base@DV?$stream_output_adapter@D@__crt_stdio_output@@@__crt_stdio_output@@IAE_NAAD@Z 10044ef0 f i libucrtd:output.obj
 0001:00044020       ??$extract_argument_from_va_list@GD@?$positional_parameter_base@DV?$string_output_adapter@D@__crt_stdio_output@@@__crt_stdio_output@@IAE_NAAD@Z 10045020 f i libucrtd:output.obj
 0001:00044150       ??$extract_argument_from_va_list@GD@?$standard_base@DV?$stream_output_adapter@D@__crt_stdio_output@@@__crt_stdio_output@@IAE_NAAD@Z 10045150 f i libucrtd:output.obj
 0001:00044180       ??$extract_argument_from_va_list@GD@?$standard_base@DV?$string_output_adapter@D@__crt_stdio_output@@@__crt_stdio_output@@IAE_NAAD@Z 10045180 f i libucrtd:output.obj
 0001:000441b0       ??$extract_argument_from_va_list@G_J@?$positional_parameter_base@DV?$stream_output_adapter@D@__crt_stdio_output@@@__crt_stdio_output@@IAE_NAA_J@Z 100451b0 f i libucrtd:output.obj
 0001:000442f0       ??$extract_argument_from_va_list@G_J@?$positional_parameter_base@DV?$string_output_adapter@D@__crt_stdio_output@@@__crt_stdio_output@@IAE_NAA_J@Z 100452f0 f i libucrtd:output.obj
 0001:00044430       ??$extract_argument_from_va_list@G_J@?$positional_parameter_base@_WV?$stream_output_adapter@_W@__crt_stdio_output@@@__crt_stdio_output@@IAE_NAA_J@Z 10045430 f i libucrtd:output.obj
 0001:00044570       ??$extract_argument_from_va_list@G_J@?$positional_parameter_base@_WV?$string_output_adapter@_W@__crt_stdio_output@@@__crt_stdio_output@@IAE_NAA_J@Z 10045570 f i libucrtd:output.obj
 0001:000446b0       ??$extract_argument_from_va_list@G_J@?$standard_base@DV?$stream_output_adapter@D@__crt_stdio_output@@@__crt_stdio_output@@IAE_NAA_J@Z 100456b0 f i libucrtd:output.obj
 0001:000446e0       ??$extract_argument_from_va_list@G_J@?$standard_base@DV?$string_output_adapter@D@__crt_stdio_output@@@__crt_stdio_output@@IAE_NAA_J@Z 100456e0 f i libucrtd:output.obj
 0001:00044710       ??$extract_argument_from_va_list@G_J@?$standard_base@_WV?$stream_output_adapter@_W@__crt_stdio_output@@@__crt_stdio_output@@IAE_NAA_J@Z 10045710 f i libucrtd:output.obj
 0001:00044740       ??$extract_argument_from_va_list@G_J@?$standard_base@_WV?$string_output_adapter@_W@__crt_stdio_output@@@__crt_stdio_output@@IAE_NAA_J@Z 10045740 f i libucrtd:output.obj
 0001:00044770       ??$extract_argument_from_va_list@H_J@?$positional_parameter_base@DV?$stream_output_adapter@D@__crt_stdio_output@@@__crt_stdio_output@@IAE_NAA_J@Z 10045770 f i libucrtd:output.obj
 0001:000448a0       ??$extract_argument_from_va_list@H_J@?$positional_parameter_base@DV?$string_output_adapter@D@__crt_stdio_output@@@__crt_stdio_output@@IAE_NAA_J@Z 100458a0 f i libucrtd:output.obj
 0001:000449d0       ??$extract_argument_from_va_list@H_J@?$positional_parameter_base@_WV?$stream_output_adapter@_W@__crt_stdio_output@@@__crt_stdio_output@@IAE_NAA_J@Z 100459d0 f i libucrtd:output.obj
 0001:00044b00       ??$extract_argument_from_va_list@H_J@?$positional_parameter_base@_WV?$string_output_adapter@_W@__crt_stdio_output@@@__crt_stdio_output@@IAE_NAA_J@Z 10045b00 f i libucrtd:output.obj
 0001:00044c30       ??$extract_argument_from_va_list@H_J@?$standard_base@DV?$stream_output_adapter@D@__crt_stdio_output@@@__crt_stdio_output@@IAE_NAA_J@Z 10045c30 f i libucrtd:output.obj
 0001:00044c60       ??$extract_argument_from_va_list@H_J@?$standard_base@DV?$string_output_adapter@D@__crt_stdio_output@@@__crt_stdio_output@@IAE_NAA_J@Z 10045c60 f i libucrtd:output.obj
 0001:00044c90       ??$extract_argument_from_va_list@H_J@?$standard_base@_WV?$stream_output_adapter@_W@__crt_stdio_output@@@__crt_stdio_output@@IAE_NAA_J@Z 10045c90 f i libucrtd:output.obj
 0001:00044cc0       ??$extract_argument_from_va_list@H_J@?$standard_base@_WV?$string_output_adapter@_W@__crt_stdio_output@@@__crt_stdio_output@@IAE_NAA_J@Z 10045cc0 f i libucrtd:output.obj
 0001:00044cf0       ??$extract_argument_from_va_list@I_J@?$positional_parameter_base@DV?$stream_output_adapter@D@__crt_stdio_output@@@__crt_stdio_output@@IAE_NAA_J@Z 10045cf0 f i libucrtd:output.obj
 0001:00044e20       ??$extract_argument_from_va_list@I_J@?$positional_parameter_base@DV?$string_output_adapter@D@__crt_stdio_output@@@__crt_stdio_output@@IAE_NAA_J@Z 10045e20 f i libucrtd:output.obj
 0001:00044f50       ??$extract_argument_from_va_list@I_J@?$positional_parameter_base@_WV?$stream_output_adapter@_W@__crt_stdio_output@@@__crt_stdio_output@@IAE_NAA_J@Z 10045f50 f i libucrtd:output.obj
 0001:00045080       ??$extract_argument_from_va_list@I_J@?$positional_parameter_base@_WV?$string_output_adapter@_W@__crt_stdio_output@@@__crt_stdio_output@@IAE_NAA_J@Z 10046080 f i libucrtd:output.obj
 0001:000451b0       ??$extract_argument_from_va_list@I_J@?$standard_base@DV?$stream_output_adapter@D@__crt_stdio_output@@@__crt_stdio_output@@IAE_NAA_J@Z 100461b0 f i libucrtd:output.obj
 0001:000451e0       ??$extract_argument_from_va_list@I_J@?$standard_base@DV?$string_output_adapter@D@__crt_stdio_output@@@__crt_stdio_output@@IAE_NAA_J@Z 100461e0 f i libucrtd:output.obj
 0001:00045210       ??$extract_argument_from_va_list@I_J@?$standard_base@_WV?$stream_output_adapter@_W@__crt_stdio_output@@@__crt_stdio_output@@IAE_NAA_J@Z 10046210 f i libucrtd:output.obj
 0001:00045240       ??$extract_argument_from_va_list@I_J@?$standard_base@_WV?$string_output_adapter@_W@__crt_stdio_output@@@__crt_stdio_output@@IAE_NAA_J@Z 10046240 f i libucrtd:output.obj
 0001:00045270       ??$extract_argument_from_va_list@PADPAD@?$positional_parameter_base@DV?$stream_output_adapter@D@__crt_stdio_output@@@__crt_stdio_output@@IAE_NAAPAD@Z 10046270 f i libucrtd:output.obj
 0001:000453a0       ??$extract_argument_from_va_list@PADPAD@?$positional_parameter_base@DV?$string_output_adapter@D@__crt_stdio_output@@@__crt_stdio_output@@IAE_NAAPAD@Z 100463a0 f i libucrtd:output.obj
 0001:000454d0       ??$extract_argument_from_va_list@PADPAD@?$positional_parameter_base@_WV?$stream_output_adapter@_W@__crt_stdio_output@@@__crt_stdio_output@@IAE_NAAPAD@Z 100464d0 f i libucrtd:output.obj
 0001:00045600       ??$extract_argument_from_va_list@PADPAD@?$positional_parameter_base@_WV?$string_output_adapter@_W@__crt_stdio_output@@@__crt_stdio_output@@IAE_NAAPAD@Z 10046600 f i libucrtd:output.obj
 0001:00045730       ??$extract_argument_from_va_list@PADPAD@?$standard_base@DV?$stream_output_adapter@D@__crt_stdio_output@@@__crt_stdio_output@@IAE_NAAPAD@Z 10046730 f i libucrtd:output.obj
 0001:00045760       ??$extract_argument_from_va_list@PADPAD@?$standard_base@DV?$string_output_adapter@D@__crt_stdio_output@@@__crt_stdio_output@@IAE_NAAPAD@Z 10046760 f i libucrtd:output.obj
 0001:00045790       ??$extract_argument_from_va_list@PADPAD@?$standard_base@_WV?$stream_output_adapter@_W@__crt_stdio_output@@@__crt_stdio_output@@IAE_NAAPAD@Z 10046790 f i libucrtd:output.obj
 0001:000457c0       ??$extract_argument_from_va_list@PADPAD@?$standard_base@_WV?$string_output_adapter@_W@__crt_stdio_output@@@__crt_stdio_output@@IAE_NAAPAD@Z 100467c0 f i libucrtd:output.obj
 0001:000457f0       ??$extract_argument_from_va_list@PAUansi_string@?1??type_case_Z@?$output_processor@DV?$stream_output_adapter@D@__crt_stdio_output@@V?$format_validation_base@DV?$stream_output_adapter@D@__crt_stdio_output@@@2@@__crt_stdio_output@@AAE_NXZ@PAU1?1??234@AAE_NXZ@@?$standard_base@DV?$stream_output_adapter@D@__crt_stdio_output@@@__crt_stdio_output@@IAE_NAAPAUansi_string@?1??type_case_Z@?$output_processor@DV?$stream_output_adapter@D@__crt_stdio_output@@V?$format_validation_base@DV?$stream_output_adapter@D@__crt_stdio_output@@@2@@1@AAE_NXZ@@Z 100467f0 f i libucrtd:output.obj
 0001:00045820       ??$extract_argument_from_va_list@PAUansi_string@?1??type_case_Z@?$output_processor@DV?$stream_output_adapter@D@__crt_stdio_output@@V?$positional_parameter_base@DV?$stream_output_adapter@D@__crt_stdio_output@@@2@@__crt_stdio_output@@AAE_NXZ@PAU1?1??234@AAE_NXZ@@?$positional_parameter_base@DV?$stream_output_adapter@D@__crt_stdio_output@@@__crt_stdio_output@@IAE_NAAPAUansi_string@?1??type_case_Z@?$output_processor@DV?$stream_output_adapter@D@__crt_stdio_output@@V?$positional_parameter_base@DV?$stream_output_adapter@D@__crt_stdio_output@@@2@@1@AAE_NXZ@@Z 10046820 f i libucrtd:output.obj
 0001:00045950       ??$extract_argument_from_va_list@PAUansi_string@?1??type_case_Z@?$output_processor@DV?$stream_output_adapter@D@__crt_stdio_output@@V?$positional_parameter_base@DV?$stream_output_adapter@D@__crt_stdio_output@@@2@@__crt_stdio_output@@AAE_NXZ@PAU1?1??234@AAE_NXZ@@?$standard_base@DV?$stream_output_adapter@D@__crt_stdio_output@@@__crt_stdio_output@@IAE_NAAPAUansi_string@?1??type_case_Z@?$output_processor@DV?$stream_output_adapter@D@__crt_stdio_output@@V?$positional_parameter_base@DV?$stream_output_adapter@D@__crt_stdio_output@@@2@@1@AAE_NXZ@@Z 10046950 f i libucrtd:output.obj
 0001:00045980       ??$extract_argument_from_va_list@PAUansi_string@?1??type_case_Z@?$output_processor@DV?$stream_output_adapter@D@__crt_stdio_output@@V?$standard_base@DV?$stream_output_adapter@D@__crt_stdio_output@@@2@@__crt_stdio_output@@AAE_NXZ@PAU1?1??234@AAE_NXZ@@?$standard_base@DV?$stream_output_adapter@D@__crt_stdio_output@@@__crt_stdio_output@@IAE_NAAPAUansi_string@?1??type_case_Z@?$output_processor@DV?$stream_output_adapter@D@__crt_stdio_output@@V?$standard_base@DV?$stream_output_adapter@D@__crt_stdio_output@@@2@@1@AAE_NXZ@@Z 10046980 f i libucrtd:output.obj
 0001:000459b0       ??$extract_argument_from_va_list@PAUansi_string@?1??type_case_Z@?$output_processor@DV?$string_output_adapter@D@__crt_stdio_output@@V?$format_validation_base@DV?$string_output_adapter@D@__crt_stdio_output@@@2@@__crt_stdio_output@@AAE_NXZ@PAU1?1??234@AAE_NXZ@@?$standard_base@DV?$string_output_adapter@D@__crt_stdio_output@@@__crt_stdio_output@@IAE_NAAPAUansi_string@?1??type_case_Z@?$output_processor@DV?$string_output_adapter@D@__crt_stdio_output@@V?$format_validation_base@DV?$string_output_adapter@D@__crt_stdio_output@@@2@@1@AAE_NXZ@@Z 100469b0 f i libucrtd:output.obj
 0001:000459e0       ??$extract_argument_from_va_list@PAUansi_string@?1??type_case_Z@?$output_processor@DV?$string_output_adapter@D@__crt_stdio_output@@V?$positional_parameter_base@DV?$string_output_adapter@D@__crt_stdio_output@@@2@@__crt_stdio_output@@AAE_NXZ@PAU1?1??234@AAE_NXZ@@?$positional_parameter_base@DV?$string_output_adapter@D@__crt_stdio_output@@@__crt_stdio_output@@IAE_NAAPAUansi_string@?1??type_case_Z@?$output_processor@DV?$string_output_adapter@D@__crt_stdio_output@@V?$positional_parameter_base@DV?$string_output_adapter@D@__crt_stdio_output@@@2@@1@AAE_NXZ@@Z 100469e0 f i libucrtd:output.obj
 0001:00045b10       ??$extract_argument_from_va_list@PAUansi_string@?1??type_case_Z@?$output_processor@DV?$string_output_adapter@D@__crt_stdio_output@@V?$positional_parameter_base@DV?$string_output_adapter@D@__crt_stdio_output@@@2@@__crt_stdio_output@@AAE_NXZ@PAU1?1??234@AAE_NXZ@@?$standard_base@DV?$string_output_adapter@D@__crt_stdio_output@@@__crt_stdio_output@@IAE_NAAPAUansi_string@?1??type_case_Z@?$output_processor@DV?$string_output_adapter@D@__crt_stdio_output@@V?$positional_parameter_base@DV?$string_output_adapter@D@__crt_stdio_output@@@2@@1@AAE_NXZ@@Z 10046b10 f i libucrtd:output.obj
 0001:00045b40       ??$extract_argument_from_va_list@PAUansi_string@?1??type_case_Z@?$output_processor@DV?$string_output_adapter@D@__crt_stdio_output@@V?$standard_base@DV?$string_output_adapter@D@__crt_stdio_output@@@2@@__crt_stdio_output@@AAE_NXZ@PAU1?1??234@AAE_NXZ@@?$standard_base@DV?$string_output_adapter@D@__crt_stdio_output@@@__crt_stdio_output@@IAE_NAAPAUansi_string@?1??type_case_Z@?$output_processor@DV?$string_output_adapter@D@__crt_stdio_output@@V?$standard_base@DV?$string_output_adapter@D@__crt_stdio_output@@@2@@1@AAE_NXZ@@Z 10046b40 f i libucrtd:output.obj
 0001:00045b70       ??$extract_argument_from_va_list@PAUansi_string@?1??type_case_Z@?$output_processor@_WV?$stream_output_adapter@_W@__crt_stdio_output@@V?$format_validation_base@_WV?$stream_output_adapter@_W@__crt_stdio_output@@@2@@__crt_stdio_output@@AAE_NXZ@PAU1?1??234@AAE_NXZ@@?$standard_base@_WV?$stream_output_adapter@_W@__crt_stdio_output@@@__crt_stdio_output@@IAE_NAAPAUansi_string@?1??type_case_Z@?$output_processor@_WV?$stream_output_adapter@_W@__crt_stdio_output@@V?$format_validation_base@_WV?$stream_output_adapter@_W@__crt_stdio_output@@@2@@1@AAE_NXZ@@Z 10046b70 f i libucrtd:output.obj
 0001:00045ba0       ??$extract_argument_from_va_list@PAUansi_string@?1??type_case_Z@?$output_processor@_WV?$stream_output_adapter@_W@__crt_stdio_output@@V?$positional_parameter_base@_WV?$stream_output_adapter@_W@__crt_stdio_output@@@2@@__crt_stdio_output@@AAE_NXZ@PAU1?1??234@AAE_NXZ@@?$positional_parameter_base@_WV?$stream_output_adapter@_W@__crt_stdio_output@@@__crt_stdio_output@@IAE_NAAPAUansi_string@?1??type_case_Z@?$output_processor@_WV?$stream_output_adapter@_W@__crt_stdio_output@@V?$positional_parameter_base@_WV?$stream_output_adapter@_W@__crt_stdio_output@@@2@@1@AAE_NXZ@@Z 10046ba0 f i libucrtd:output.obj
 0001:00045cd0       ??$extract_argument_from_va_list@PAUansi_string@?1??type_case_Z@?$output_processor@_WV?$stream_output_adapter@_W@__crt_stdio_output@@V?$positional_parameter_base@_WV?$stream_output_adapter@_W@__crt_stdio_output@@@2@@__crt_stdio_output@@AAE_NXZ@PAU1?1??234@AAE_NXZ@@?$standard_base@_WV?$stream_output_adapter@_W@__crt_stdio_output@@@__crt_stdio_output@@IAE_NAAPAUansi_string@?1??type_case_Z@?$output_processor@_WV?$stream_output_adapter@_W@__crt_stdio_output@@V?$positional_parameter_base@_WV?$stream_output_adapter@_W@__crt_stdio_output@@@2@@1@AAE_NXZ@@Z 10046cd0 f i libucrtd:output.obj
 0001:00045d00       ??$extract_argument_from_va_list@PAUansi_string@?1??type_case_Z@?$output_processor@_WV?$stream_output_adapter@_W@__crt_stdio_output@@V?$standard_base@_WV?$stream_output_adapter@_W@__crt_stdio_output@@@2@@__crt_stdio_output@@AAE_NXZ@PAU1?1??234@AAE_NXZ@@?$standard_base@_WV?$stream_output_adapter@_W@__crt_stdio_output@@@__crt_stdio_output@@IAE_NAAPAUansi_string@?1??type_case_Z@?$output_processor@_WV?$stream_output_adapter@_W@__crt_stdio_output@@V?$standard_base@_WV?$stream_output_adapter@_W@__crt_stdio_output@@@2@@1@AAE_NXZ@@Z 10046d00 f i libucrtd:output.obj
 0001:00045d30       ??$extract_argument_from_va_list@PAUansi_string@?1??type_case_Z@?$output_processor@_WV?$string_output_adapter@_W@__crt_stdio_output@@V?$format_validation_base@_WV?$string_output_adapter@_W@__crt_stdio_output@@@2@@__crt_stdio_output@@AAE_NXZ@PAU1?1??234@AAE_NXZ@@?$standard_base@_WV?$string_output_adapter@_W@__crt_stdio_output@@@__crt_stdio_output@@IAE_NAAPAUansi_string@?1??type_case_Z@?$output_processor@_WV?$string_output_adapter@_W@__crt_stdio_output@@V?$format_validation_base@_WV?$string_output_adapter@_W@__crt_stdio_output@@@2@@1@AAE_NXZ@@Z 10046d30 f i libucrtd:output.obj
 0001:00045d60       ??$extract_argument_from_va_list@PAUansi_string@?1??type_case_Z@?$output_processor@_WV?$string_output_adapter@_W@__crt_stdio_output@@V?$positional_parameter_base@_WV?$string_output_adapter@_W@__crt_stdio_output@@@2@@__crt_stdio_output@@AAE_NXZ@PAU1?1??234@AAE_NXZ@@?$positional_parameter_base@_WV?$string_output_adapter@_W@__crt_stdio_output@@@__crt_stdio_output@@IAE_NAAPAUansi_string@?1??type_case_Z@?$output_processor@_WV?$string_output_adapter@_W@__crt_stdio_output@@V?$positional_parameter_base@_WV?$string_output_adapter@_W@__crt_stdio_output@@@2@@1@AAE_NXZ@@Z 10046d60 f i libucrtd:output.obj
 0001:00045e90       ??$extract_argument_from_va_list@PAUansi_string@?1??type_case_Z@?$output_processor@_WV?$string_output_adapter@_W@__crt_stdio_output@@V?$positional_parameter_base@_WV?$string_output_adapter@_W@__crt_stdio_output@@@2@@__crt_stdio_output@@AAE_NXZ@PAU1?1??234@AAE_NXZ@@?$standard_base@_WV?$string_output_adapter@_W@__crt_stdio_output@@@__crt_stdio_output@@IAE_NAAPAUansi_string@?1??type_case_Z@?$output_processor@_WV?$string_output_adapter@_W@__crt_stdio_output@@V?$positional_parameter_base@_WV?$string_output_adapter@_W@__crt_stdio_output@@@2@@1@AAE_NXZ@@Z 10046e90 f i libucrtd:output.obj
 0001:00045ec0       ??$extract_argument_from_va_list@PAUansi_string@?1??type_case_Z@?$output_processor@_WV?$string_output_adapter@_W@__crt_stdio_output@@V?$standard_base@_WV?$string_output_adapter@_W@__crt_stdio_output@@@2@@__crt_stdio_output@@AAE_NXZ@PAU1?1??234@AAE_NXZ@@?$standard_base@_WV?$string_output_adapter@_W@__crt_stdio_output@@@__crt_stdio_output@@IAE_NAAPAUansi_string@?1??type_case_Z@?$output_processor@_WV?$string_output_adapter@_W@__crt_stdio_output@@V?$standard_base@_WV?$string_output_adapter@_W@__crt_stdio_output@@@2@@1@AAE_NXZ@@Z 10046ec0 f i libucrtd:output.obj
 0001:00045ef0       ??$extract_argument_from_va_list@PAXPAX@?$positional_parameter_base@DV?$stream_output_adapter@D@__crt_stdio_output@@@__crt_stdio_output@@IAE_NAAPAX@Z 10046ef0 f i libucrtd:output.obj
 0001:00046020       ??$extract_argument_from_va_list@PAXPAX@?$positional_parameter_base@DV?$string_output_adapter@D@__crt_stdio_output@@@__crt_stdio_output@@IAE_NAAPAX@Z 10047020 f i libucrtd:output.obj
 0001:00046150       ??$extract_argument_from_va_list@PAXPAX@?$positional_parameter_base@_WV?$stream_output_adapter@_W@__crt_stdio_output@@@__crt_stdio_output@@IAE_NAAPAX@Z 10047150 f i libucrtd:output.obj
 0001:00046280       ??$extract_argument_from_va_list@PAXPAX@?$positional_parameter_base@_WV?$string_output_adapter@_W@__crt_stdio_output@@@__crt_stdio_output@@IAE_NAAPAX@Z 10047280 f i libucrtd:output.obj
 0001:000463b0       ??$extract_argument_from_va_list@PAXPAX@?$standard_base@DV?$stream_output_adapter@D@__crt_stdio_output@@@__crt_stdio_output@@IAE_NAAPAX@Z 100473b0 f i libucrtd:output.obj
 0001:000463e0       ??$extract_argument_from_va_list@PAXPAX@?$standard_base@DV?$string_output_adapter@D@__crt_stdio_output@@@__crt_stdio_output@@IAE_NAAPAX@Z 100473e0 f i libucrtd:output.obj
 0001:00046410       ??$extract_argument_from_va_list@PAXPAX@?$standard_base@_WV?$stream_output_adapter@_W@__crt_stdio_output@@@__crt_stdio_output@@IAE_NAAPAX@Z 10047410 f i libucrtd:output.obj
 0001:00046440       ??$extract_argument_from_va_list@PAXPAX@?$standard_base@_WV?$string_output_adapter@_W@__crt_stdio_output@@@__crt_stdio_output@@IAE_NAAPAX@Z 10047440 f i libucrtd:output.obj
 0001:00046470       ??$extract_argument_from_va_list@U_CRT_DOUBLE@@U1@@?$positional_parameter_base@DV?$stream_output_adapter@D@__crt_stdio_output@@@__crt_stdio_output@@IAE_NAAU_CRT_DOUBLE@@@Z 10047470 f i libucrtd:output.obj
 0001:000465d0       ??$extract_argument_from_va_list@U_CRT_DOUBLE@@U1@@?$positional_parameter_base@DV?$string_output_adapter@D@__crt_stdio_output@@@__crt_stdio_output@@IAE_NAAU_CRT_DOUBLE@@@Z 100475d0 f i libucrtd:output.obj
 0001:00046730       ??$extract_argument_from_va_list@U_CRT_DOUBLE@@U1@@?$positional_parameter_base@_WV?$stream_output_adapter@_W@__crt_stdio_output@@@__crt_stdio_output@@IAE_NAAU_CRT_DOUBLE@@@Z 10047730 f i libucrtd:output.obj
 0001:00046890       ??$extract_argument_from_va_list@U_CRT_DOUBLE@@U1@@?$positional_parameter_base@_WV?$string_output_adapter@_W@__crt_stdio_output@@@__crt_stdio_output@@IAE_NAAU_CRT_DOUBLE@@@Z 10047890 f i libucrtd:output.obj
 0001:000469f0       ??$extract_argument_from_va_list@U_CRT_DOUBLE@@U1@@?$standard_base@DV?$stream_output_adapter@D@__crt_stdio_output@@@__crt_stdio_output@@IAE_NAAU_CRT_DOUBLE@@@Z 100479f0 f i libucrtd:output.obj
 0001:00046a40       ??$extract_argument_from_va_list@U_CRT_DOUBLE@@U1@@?$standard_base@DV?$string_output_adapter@D@__crt_stdio_output@@@__crt_stdio_output@@IAE_NAAU_CRT_DOUBLE@@@Z 10047a40 f i libucrtd:output.obj
 0001:00046a90       ??$extract_argument_from_va_list@U_CRT_DOUBLE@@U1@@?$standard_base@_WV?$stream_output_adapter@_W@__crt_stdio_output@@@__crt_stdio_output@@IAE_NAAU_CRT_DOUBLE@@@Z 10047a90 f i libucrtd:output.obj
 0001:00046ae0       ??$extract_argument_from_va_list@U_CRT_DOUBLE@@U1@@?$standard_base@_WV?$string_output_adapter@_W@__crt_stdio_output@@@__crt_stdio_output@@IAE_NAAU_CRT_DOUBLE@@@Z 10047ae0 f i libucrtd:output.obj
 0001:00046b30       ??$extract_argument_from_va_list@_J_J@?$positional_parameter_base@DV?$stream_output_adapter@D@__crt_stdio_output@@@__crt_stdio_output@@IAE_NAA_J@Z 10047b30 f i libucrtd:output.obj
 0001:00046c60       ??$extract_argument_from_va_list@_J_J@?$positional_parameter_base@DV?$string_output_adapter@D@__crt_stdio_output@@@__crt_stdio_output@@IAE_NAA_J@Z 10047c60 f i libucrtd:output.obj
 0001:00046d90       ??$extract_argument_from_va_list@_J_J@?$positional_parameter_base@_WV?$stream_output_adapter@_W@__crt_stdio_output@@@__crt_stdio_output@@IAE_NAA_J@Z 10047d90 f i libucrtd:output.obj
 0001:00046ec0       ??$extract_argument_from_va_list@_J_J@?$positional_parameter_base@_WV?$string_output_adapter@_W@__crt_stdio_output@@@__crt_stdio_output@@IAE_NAA_J@Z 10047ec0 f i libucrtd:output.obj
 0001:00046ff0       ??$extract_argument_from_va_list@_J_J@?$standard_base@DV?$stream_output_adapter@D@__crt_stdio_output@@@__crt_stdio_output@@IAE_NAA_J@Z 10047ff0 f i libucrtd:output.obj
 0001:00047020       ??$extract_argument_from_va_list@_J_J@?$standard_base@DV?$string_output_adapter@D@__crt_stdio_output@@@__crt_stdio_output@@IAE_NAA_J@Z 10048020 f i libucrtd:output.obj
 0001:00047050       ??$extract_argument_from_va_list@_J_J@?$standard_base@_WV?$stream_output_adapter@_W@__crt_stdio_output@@@__crt_stdio_output@@IAE_NAA_J@Z 10048050 f i libucrtd:output.obj
 0001:00047080       ??$extract_argument_from_va_list@_J_J@?$standard_base@_WV?$string_output_adapter@_W@__crt_stdio_output@@@__crt_stdio_output@@IAE_NAA_J@Z 10048080 f i libucrtd:output.obj
 0001:000470b0       ??$extract_argument_from_va_list@_K_J@?$positional_parameter_base@DV?$stream_output_adapter@D@__crt_stdio_output@@@__crt_stdio_output@@IAE_NAA_J@Z 100480b0 f i libucrtd:output.obj
 0001:000471e0       ??$extract_argument_from_va_list@_K_J@?$positional_parameter_base@DV?$string_output_adapter@D@__crt_stdio_output@@@__crt_stdio_output@@IAE_NAA_J@Z 100481e0 f i libucrtd:output.obj
 0001:00047310       ??$extract_argument_from_va_list@_K_J@?$positional_parameter_base@_WV?$stream_output_adapter@_W@__crt_stdio_output@@@__crt_stdio_output@@IAE_NAA_J@Z 10048310 f i libucrtd:output.obj
 0001:00047440       ??$extract_argument_from_va_list@_K_J@?$positional_parameter_base@_WV?$string_output_adapter@_W@__crt_stdio_output@@@__crt_stdio_output@@IAE_NAA_J@Z 10048440 f i libucrtd:output.obj
 0001:00047570       ??$extract_argument_from_va_list@_K_J@?$standard_base@DV?$stream_output_adapter@D@__crt_stdio_output@@@__crt_stdio_output@@IAE_NAA_J@Z 10048570 f i libucrtd:output.obj
 0001:000475a0       ??$extract_argument_from_va_list@_K_J@?$standard_base@DV?$string_output_adapter@D@__crt_stdio_output@@@__crt_stdio_output@@IAE_NAA_J@Z 100485a0 f i libucrtd:output.obj
 0001:000475d0       ??$extract_argument_from_va_list@_K_J@?$standard_base@_WV?$stream_output_adapter@_W@__crt_stdio_output@@@__crt_stdio_output@@IAE_NAA_J@Z 100485d0 f i libucrtd:output.obj
 0001:00047600       ??$extract_argument_from_va_list@_K_J@?$standard_base@_WV?$string_output_adapter@_W@__crt_stdio_output@@@__crt_stdio_output@@IAE_NAA_J@Z 10048600 f i libucrtd:output.obj
 0001:00047630       ??$extract_argument_from_va_list@_W_W@?$positional_parameter_base@DV?$stream_output_adapter@D@__crt_stdio_output@@@__crt_stdio_output@@IAE_NAA_W@Z 10048630 f i libucrtd:output.obj
 0001:00047760       ??$extract_argument_from_va_list@_W_W@?$positional_parameter_base@DV?$string_output_adapter@D@__crt_stdio_output@@@__crt_stdio_output@@IAE_NAA_W@Z 10048760 f i libucrtd:output.obj
 0001:00047890       ??$extract_argument_from_va_list@_W_W@?$positional_parameter_base@_WV?$stream_output_adapter@_W@__crt_stdio_output@@@__crt_stdio_output@@IAE_NAA_W@Z 10048890 f i libucrtd:output.obj
 0001:000479c0       ??$extract_argument_from_va_list@_W_W@?$positional_parameter_base@_WV?$string_output_adapter@_W@__crt_stdio_output@@@__crt_stdio_output@@IAE_NAA_W@Z 100489c0 f i libucrtd:output.obj
 0001:00047af0       ??$extract_argument_from_va_list@_W_W@?$standard_base@DV?$stream_output_adapter@D@__crt_stdio_output@@@__crt_stdio_output@@IAE_NAA_W@Z 10048af0 f i libucrtd:output.obj
 0001:00047b20       ??$extract_argument_from_va_list@_W_W@?$standard_base@DV?$string_output_adapter@D@__crt_stdio_output@@@__crt_stdio_output@@IAE_NAA_W@Z 10048b20 f i libucrtd:output.obj
 0001:00047b50       ??$extract_argument_from_va_list@_W_W@?$standard_base@_WV?$stream_output_adapter@_W@__crt_stdio_output@@@__crt_stdio_output@@IAE_NAA_W@Z 10048b50 f i libucrtd:output.obj
 0001:00047b80       ??$extract_argument_from_va_list@_W_W@?$standard_base@_WV?$string_output_adapter@_W@__crt_stdio_output@@@__crt_stdio_output@@IAE_NAA_W@Z 10048b80 f i libucrtd:output.obj
 0001:00047bb0       ??$get_parameter_type@D@?$positional_parameter_base@DV?$stream_output_adapter@D@__crt_stdio_output@@@__crt_stdio_output@@CA?AW4parameter_type@01@PAD@Z 10048bb0 f i libucrtd:output.obj
 0001:00047bc0       ??$get_parameter_type@D@?$positional_parameter_base@DV?$string_output_adapter@D@__crt_stdio_output@@@__crt_stdio_output@@CA?AW4parameter_type@01@PAD@Z 10048bc0 f i libucrtd:output.obj
 0001:00047bd0       ??$get_parameter_type@D@?$positional_parameter_base@_WV?$stream_output_adapter@_W@__crt_stdio_output@@@__crt_stdio_output@@CA?AW4parameter_type@01@PAD@Z 10048bd0 f i libucrtd:output.obj
 0001:00047be0       ??$get_parameter_type@D@?$positional_parameter_base@_WV?$string_output_adapter@_W@__crt_stdio_output@@@__crt_stdio_output@@CA?AW4parameter_type@01@PAD@Z 10048be0 f i libucrtd:output.obj
 0001:00047bf0       ??$get_parameter_type@Uansi_string@?1??type_case_Z@?$output_processor@DV?$stream_output_adapter@D@__crt_stdio_output@@V?$positional_parameter_base@DV?$stream_output_adapter@D@__crt_stdio_output@@@2@@__crt_stdio_output@@AAE_NXZ@@?$positional_parameter_base@DV?$stream_output_adapter@D@__crt_stdio_output@@@__crt_stdio_output@@CA?AW4parameter_type@01@PAUansi_string@?1??type_case_Z@?$output_processor@DV?$stream_output_adapter@D@__crt_stdio_output@@V?$positional_parameter_base@DV?$stream_output_adapter@D@__crt_stdio_output@@@2@@1@AAE_NXZ@@Z 10048bf0 f i libucrtd:output.obj
 0001:00047c00       ??$get_parameter_type@Uansi_string@?1??type_case_Z@?$output_processor@DV?$string_output_adapter@D@__crt_stdio_output@@V?$positional_parameter_base@DV?$string_output_adapter@D@__crt_stdio_output@@@2@@__crt_stdio_output@@AAE_NXZ@@?$positional_parameter_base@DV?$string_output_adapter@D@__crt_stdio_output@@@__crt_stdio_output@@CA?AW4parameter_type@01@PAUansi_string@?1??type_case_Z@?$output_processor@DV?$string_output_adapter@D@__crt_stdio_output@@V?$positional_parameter_base@DV?$string_output_adapter@D@__crt_stdio_output@@@2@@1@AAE_NXZ@@Z 10048c00 f i libucrtd:output.obj
 0001:00047c10       ??$get_parameter_type@Uansi_string@?1??type_case_Z@?$output_processor@_WV?$stream_output_adapter@_W@__crt_stdio_output@@V?$positional_parameter_base@_WV?$stream_output_adapter@_W@__crt_stdio_output@@@2@@__crt_stdio_output@@AAE_NXZ@@?$positional_parameter_base@_WV?$stream_output_adapter@_W@__crt_stdio_output@@@__crt_stdio_output@@CA?AW4parameter_type@01@PAUansi_string@?1??type_case_Z@?$output_processor@_WV?$stream_output_adapter@_W@__crt_stdio_output@@V?$positional_parameter_base@_WV?$stream_output_adapter@_W@__crt_stdio_output@@@2@@1@AAE_NXZ@@Z 10048c10 f i libucrtd:output.obj
 0001:00047c20       ??$get_parameter_type@Uansi_string@?1??type_case_Z@?$output_processor@_WV?$string_output_adapter@_W@__crt_stdio_output@@V?$positional_parameter_base@_WV?$string_output_adapter@_W@__crt_stdio_output@@@2@@__crt_stdio_output@@AAE_NXZ@@?$positional_parameter_base@_WV?$string_output_adapter@_W@__crt_stdio_output@@@__crt_stdio_output@@CA?AW4parameter_type@01@PAUansi_string@?1??type_case_Z@?$output_processor@_WV?$string_output_adapter@_W@__crt_stdio_output@@V?$positional_parameter_base@_WV?$string_output_adapter@_W@__crt_stdio_output@@@2@@1@AAE_NXZ@@Z 10048c20 f i libucrtd:output.obj
 0001:00047c30       ??$get_parameter_type@X@?$positional_parameter_base@DV?$stream_output_adapter@D@__crt_stdio_output@@@__crt_stdio_output@@CA?AW4parameter_type@01@PAX@Z 10048c30 f i libucrtd:output.obj
 0001:00047c40       ??$get_parameter_type@X@?$positional_parameter_base@DV?$string_output_adapter@D@__crt_stdio_output@@@__crt_stdio_output@@CA?AW4parameter_type@01@PAX@Z 10048c40 f i libucrtd:output.obj
 0001:00047c50       ??$get_parameter_type@X@?$positional_parameter_base@_WV?$stream_output_adapter@_W@__crt_stdio_output@@@__crt_stdio_output@@CA?AW4parameter_type@01@PAX@Z 10048c50 f i libucrtd:output.obj
 0001:00047c60       ??$get_parameter_type@X@?$positional_parameter_base@_WV?$string_output_adapter@_W@__crt_stdio_output@@@__crt_stdio_output@@CA?AW4parameter_type@01@PAX@Z 10048c60 f i libucrtd:output.obj
 0001:00047c70       ??$is_character_specifier@D@?$positional_parameter_base@DV?$stream_output_adapter@D@__crt_stdio_output@@@__crt_stdio_output@@CA_ND@Z 10048c70 f i libucrtd:output.obj
 0001:00047ca0       ??$is_character_specifier@D@?$positional_parameter_base@DV?$string_output_adapter@D@__crt_stdio_output@@@__crt_stdio_output@@CA_ND@Z 10048ca0 f i libucrtd:output.obj
 0001:00047cd0       ??$is_character_specifier@_W@?$positional_parameter_base@_WV?$stream_output_adapter@_W@__crt_stdio_output@@@__crt_stdio_output@@CA_N_W@Z 10048cd0 f i libucrtd:output.obj
 0001:00047d00       ??$is_character_specifier@_W@?$positional_parameter_base@_WV?$string_output_adapter@_W@__crt_stdio_output@@@__crt_stdio_output@@CA_N_W@Z 10048d00 f i libucrtd:output.obj
 0001:00047d30       ??$is_integral_specifier@D@?$positional_parameter_base@DV?$stream_output_adapter@D@__crt_stdio_output@@@__crt_stdio_output@@CA_ND@Z 10048d30 f i libucrtd:output.obj
 0001:00047d90       ??$is_integral_specifier@D@?$positional_parameter_base@DV?$string_output_adapter@D@__crt_stdio_output@@@__crt_stdio_output@@CA_ND@Z 10048d90 f i libucrtd:output.obj
 0001:00047df0       ??$is_integral_specifier@_W@?$positional_parameter_base@_WV?$stream_output_adapter@_W@__crt_stdio_output@@@__crt_stdio_output@@CA_N_W@Z 10048df0 f i libucrtd:output.obj
 0001:00047e50       ??$is_integral_specifier@_W@?$positional_parameter_base@_WV?$string_output_adapter@_W@__crt_stdio_output@@@__crt_stdio_output@@CA_N_W@Z 10048e50 f i libucrtd:output.obj
 0001:00047eb0       ??$is_pointer_specifier@D@?$positional_parameter_base@DV?$stream_output_adapter@D@__crt_stdio_output@@@__crt_stdio_output@@CA_ND@Z 10048eb0 f i libucrtd:output.obj
 0001:00047ee0       ??$is_pointer_specifier@D@?$positional_parameter_base@DV?$string_output_adapter@D@__crt_stdio_output@@@__crt_stdio_output@@CA_ND@Z 10048ee0 f i libucrtd:output.obj
 0001:00047f10       ??$is_pointer_specifier@_W@?$positional_parameter_base@_WV?$stream_output_adapter@_W@__crt_stdio_output@@@__crt_stdio_output@@CA_N_W@Z 10048f10 f i libucrtd:output.obj
 0001:00047f40       ??$is_pointer_specifier@_W@?$positional_parameter_base@_WV?$string_output_adapter@_W@__crt_stdio_output@@@__crt_stdio_output@@CA_N_W@Z 10048f40 f i libucrtd:output.obj
 0001:00047f70       ??$is_string_specifier@D@?$positional_parameter_base@DV?$stream_output_adapter@D@__crt_stdio_output@@@__crt_stdio_output@@CA_ND@Z 10048f70 f i libucrtd:output.obj
 0001:00047fa0       ??$is_string_specifier@D@?$positional_parameter_base@DV?$string_output_adapter@D@__crt_stdio_output@@@__crt_stdio_output@@CA_ND@Z 10048fa0 f i libucrtd:output.obj
 0001:00047fd0       ??$is_string_specifier@_W@?$positional_parameter_base@_WV?$stream_output_adapter@_W@__crt_stdio_output@@@__crt_stdio_output@@CA_N_W@Z 10048fd0 f i libucrtd:output.obj
 0001:00048000       ??$is_string_specifier@_W@?$positional_parameter_base@_WV?$string_output_adapter@_W@__crt_stdio_output@@@__crt_stdio_output@@CA_N_W@Z 10049000 f i libucrtd:output.obj
 0001:00048030       ??$is_wide_character_specifier@D@__crt_stdio_output@@YA_N_KDW4length_modifier@0@@Z 10049030 f i libucrtd:output.obj
 0001:000480b0       ??$is_wide_character_specifier@_W@__crt_stdio_output@@YA_N_K_WW4length_modifier@0@@Z 100490b0 f i libucrtd:output.obj
 0001:00048170       ??$peek_va_arg@C@__crt_stdio_output@@YACPAD@Z 10049170 f i libucrtd:output.obj
 0001:00048190       ??$peek_va_arg@E@__crt_stdio_output@@YAEPAD@Z 10049190 f i libucrtd:output.obj
 0001:000481b0       ??$peek_va_arg@F@__crt_stdio_output@@YAFPAD@Z 100491b0 f i libucrtd:output.obj
 0001:000481d0       ??$peek_va_arg@G@__crt_stdio_output@@YAGPAD@Z 100491d0 f i libucrtd:output.obj
 0001:000481f0       ??$peek_va_arg@H@__crt_stdio_output@@YAHPAD@Z 100491f0 f i libucrtd:output.obj
 0001:00048210       ??$peek_va_arg@I@__crt_stdio_output@@YAIPAD@Z 10049210 f i libucrtd:output.obj
 0001:00048230       ??$peek_va_arg@PAD@__crt_stdio_output@@YAPADPAD@Z 10049230 f i libucrtd:output.obj
 0001:00048250       ??$peek_va_arg@PAUansi_string@?1??type_case_Z@?$output_processor@DV?$stream_output_adapter@D@__crt_stdio_output@@V?$positional_parameter_base@DV?$stream_output_adapter@D@__crt_stdio_output@@@2@@__crt_stdio_output@@AAE_NXZ@@__crt_stdio_output@@YAPAUansi_string@?1??type_case_Z@?$output_processor@DV?$stream_output_adapter@D@__crt_stdio_output@@V?$positional_parameter_base@DV?$stream_output_adapter@D@__crt_stdio_output@@@2@@0@AAE_NXZ@PAD@Z 10049250 f i libucrtd:output.obj
 0001:00048270       ??$peek_va_arg@PAUansi_string@?1??type_case_Z@?$output_processor@DV?$string_output_adapter@D@__crt_stdio_output@@V?$positional_parameter_base@DV?$string_output_adapter@D@__crt_stdio_output@@@2@@__crt_stdio_output@@AAE_NXZ@@__crt_stdio_output@@YAPAUansi_string@?1??type_case_Z@?$output_processor@DV?$string_output_adapter@D@__crt_stdio_output@@V?$positional_parameter_base@DV?$string_output_adapter@D@__crt_stdio_output@@@2@@0@AAE_NXZ@PAD@Z 10049270 f i libucrtd:output.obj
 0001:00048290       ??$peek_va_arg@PAUansi_string@?1??type_case_Z@?$output_processor@_WV?$stream_output_adapter@_W@__crt_stdio_output@@V?$positional_parameter_base@_WV?$stream_output_adapter@_W@__crt_stdio_output@@@2@@__crt_stdio_output@@AAE_NXZ@@__crt_stdio_output@@YAPAUansi_string@?1??type_case_Z@?$output_processor@_WV?$stream_output_adapter@_W@__crt_stdio_output@@V?$positional_parameter_base@_WV?$stream_output_adapter@_W@__crt_stdio_output@@@2@@0@AAE_NXZ@PAD@Z 10049290 f i libucrtd:output.obj
 0001:000482b0       ??$peek_va_arg@PAUansi_string@?1??type_case_Z@?$output_processor@_WV?$string_output_adapter@_W@__crt_stdio_output@@V?$positional_parameter_base@_WV?$string_output_adapter@_W@__crt_stdio_output@@@2@@__crt_stdio_output@@AAE_NXZ@@__crt_stdio_output@@YAPAUansi_string@?1??type_case_Z@?$output_processor@_WV?$string_output_adapter@_W@__crt_stdio_output@@V?$positional_parameter_base@_WV?$string_output_adapter@_W@__crt_stdio_output@@@2@@0@AAE_NXZ@PAD@Z 100492b0 f i libucrtd:output.obj
 0001:000482d0       ??$peek_va_arg@PAX@__crt_stdio_output@@YAPAXPAD@Z 100492d0 f i libucrtd:output.obj
 0001:000482f0       ??$peek_va_arg@U_CRT_DOUBLE@@@__crt_stdio_output@@YA?AU_CRT_DOUBLE@@PAD@Z 100492f0 f i libucrtd:output.obj
 0001:00048310       ??$peek_va_arg@_J@__crt_stdio_output@@YA_JPAD@Z 10049310 f i libucrtd:output.obj
 0001:00048330       ??$peek_va_arg@_K@__crt_stdio_output@@YA_KPAD@Z 10049330 f i libucrtd:output.obj
 0001:00048350       ??$peek_va_arg@_W@__crt_stdio_output@@YA_WPAD@Z 10049350 f i libucrtd:output.obj
 0001:00048370       ??$puttc_nolock@ABDPAU_iobuf@@@?$__crt_char_traits@D@@SAHABD$$QAPAU_iobuf@@@Z 10049370 f i libucrtd:output.obj
 0001:00048390       ??$puttc_nolock@AB_WPAU_iobuf@@@?$__crt_char_traits@_W@@SAGAB_W$$QAPAU_iobuf@@@Z 10049390 f i libucrtd:output.obj
 0001:000483b0       ??$read_va_arg@C@__crt_stdio_output@@YACAAPAD@Z 100493b0 f i libucrtd:output.obj
 0001:000483d0       ??$read_va_arg@E@__crt_stdio_output@@YAEAAPAD@Z 100493d0 f i libucrtd:output.obj
 0001:000483f0       ??$read_va_arg@F@__crt_stdio_output@@YAFAAPAD@Z 100493f0 f i libucrtd:output.obj
 0001:00048410       ??$read_va_arg@G@__crt_stdio_output@@YAGAAPAD@Z 10049410 f i libucrtd:output.obj
 0001:00048430       ??$read_va_arg@H@__crt_stdio_output@@YAHAAPAD@Z 10049430 f i libucrtd:output.obj
 0001:00048450       ??$read_va_arg@I@__crt_stdio_output@@YAIAAPAD@Z 10049450 f i libucrtd:output.obj
 0001:00048470       ??$read_va_arg@PAD@__crt_stdio_output@@YAPADAAPAD@Z 10049470 f i libucrtd:output.obj
 0001:00048490       ??$read_va_arg@PAUansi_string@?1??type_case_Z@?$output_processor@DV?$stream_output_adapter@D@__crt_stdio_output@@V?$format_validation_base@DV?$stream_output_adapter@D@__crt_stdio_output@@@2@@__crt_stdio_output@@AAE_NXZ@@__crt_stdio_output@@YAPAUansi_string@?1??type_case_Z@?$output_processor@DV?$stream_output_adapter@D@__crt_stdio_output@@V?$format_validation_base@DV?$stream_output_adapter@D@__crt_stdio_output@@@2@@0@AAE_NXZ@AAPAD@Z 10049490 f i libucrtd:output.obj
 0001:000484b0       ??$read_va_arg@PAUansi_string@?1??type_case_Z@?$output_processor@DV?$stream_output_adapter@D@__crt_stdio_output@@V?$positional_parameter_base@DV?$stream_output_adapter@D@__crt_stdio_output@@@2@@__crt_stdio_output@@AAE_NXZ@@__crt_stdio_output@@YAPAUansi_string@?1??type_case_Z@?$output_processor@DV?$stream_output_adapter@D@__crt_stdio_output@@V?$positional_parameter_base@DV?$stream_output_adapter@D@__crt_stdio_output@@@2@@0@AAE_NXZ@AAPAD@Z 100494b0 f i libucrtd:output.obj
 0001:000484d0       ??$read_va_arg@PAUansi_string@?1??type_case_Z@?$output_processor@DV?$stream_output_adapter@D@__crt_stdio_output@@V?$standard_base@DV?$stream_output_adapter@D@__crt_stdio_output@@@2@@__crt_stdio_output@@AAE_NXZ@@__crt_stdio_output@@YAPAUansi_string@?1??type_case_Z@?$output_processor@DV?$stream_output_adapter@D@__crt_stdio_output@@V?$standard_base@DV?$stream_output_adapter@D@__crt_stdio_output@@@2@@0@AAE_NXZ@AAPAD@Z 100494d0 f i libucrtd:output.obj
 0001:000484f0       ??$read_va_arg@PAUansi_string@?1??type_case_Z@?$output_processor@DV?$string_output_adapter@D@__crt_stdio_output@@V?$format_validation_base@DV?$string_output_adapter@D@__crt_stdio_output@@@2@@__crt_stdio_output@@AAE_NXZ@@__crt_stdio_output@@YAPAUansi_string@?1??type_case_Z@?$output_processor@DV?$string_output_adapter@D@__crt_stdio_output@@V?$format_validation_base@DV?$string_output_adapter@D@__crt_stdio_output@@@2@@0@AAE_NXZ@AAPAD@Z 100494f0 f i libucrtd:output.obj
 0001:00048510       ??$read_va_arg@PAUansi_string@?1??type_case_Z@?$output_processor@DV?$string_output_adapter@D@__crt_stdio_output@@V?$positional_parameter_base@DV?$string_output_adapter@D@__crt_stdio_output@@@2@@__crt_stdio_output@@AAE_NXZ@@__crt_stdio_output@@YAPAUansi_string@?1??type_case_Z@?$output_processor@DV?$string_output_adapter@D@__crt_stdio_output@@V?$positional_parameter_base@DV?$string_output_adapter@D@__crt_stdio_output@@@2@@0@AAE_NXZ@AAPAD@Z 10049510 f i libucrtd:output.obj
 0001:00048530       ??$read_va_arg@PAUansi_string@?1??type_case_Z@?$output_processor@DV?$string_output_adapter@D@__crt_stdio_output@@V?$standard_base@DV?$string_output_adapter@D@__crt_stdio_output@@@2@@__crt_stdio_output@@AAE_NXZ@@__crt_stdio_output@@YAPAUansi_string@?1??type_case_Z@?$output_processor@DV?$string_output_adapter@D@__crt_stdio_output@@V?$standard_base@DV?$string_output_adapter@D@__crt_stdio_output@@@2@@0@AAE_NXZ@AAPAD@Z 10049530 f i libucrtd:output.obj
 0001:00048550       ??$read_va_arg@PAUansi_string@?1??type_case_Z@?$output_processor@_WV?$stream_output_adapter@_W@__crt_stdio_output@@V?$format_validation_base@_WV?$stream_output_adapter@_W@__crt_stdio_output@@@2@@__crt_stdio_output@@AAE_NXZ@@__crt_stdio_output@@YAPAUansi_string@?1??type_case_Z@?$output_processor@_WV?$stream_output_adapter@_W@__crt_stdio_output@@V?$format_validation_base@_WV?$stream_output_adapter@_W@__crt_stdio_output@@@2@@0@AAE_NXZ@AAPAD@Z 10049550 f i libucrtd:output.obj
 0001:00048570       ??$read_va_arg@PAUansi_string@?1??type_case_Z@?$output_processor@_WV?$stream_output_adapter@_W@__crt_stdio_output@@V?$positional_parameter_base@_WV?$stream_output_adapter@_W@__crt_stdio_output@@@2@@__crt_stdio_output@@AAE_NXZ@@__crt_stdio_output@@YAPAUansi_string@?1??type_case_Z@?$output_processor@_WV?$stream_output_adapter@_W@__crt_stdio_output@@V?$positional_parameter_base@_WV?$stream_output_adapter@_W@__crt_stdio_output@@@2@@0@AAE_NXZ@AAPAD@Z 10049570 f i libucrtd:output.obj
 0001:00048590       ??$read_va_arg@PAUansi_string@?1??type_case_Z@?$output_processor@_WV?$stream_output_adapter@_W@__crt_stdio_output@@V?$standard_base@_WV?$stream_output_adapter@_W@__crt_stdio_output@@@2@@__crt_stdio_output@@AAE_NXZ@@__crt_stdio_output@@YAPAUansi_string@?1??type_case_Z@?$output_processor@_WV?$stream_output_adapter@_W@__crt_stdio_output@@V?$standard_base@_WV?$stream_output_adapter@_W@__crt_stdio_output@@@2@@0@AAE_NXZ@AAPAD@Z 10049590 f i libucrtd:output.obj
 0001:000485b0       ??$read_va_arg@PAUansi_string@?1??type_case_Z@?$output_processor@_WV?$string_output_adapter@_W@__crt_stdio_output@@V?$format_validation_base@_WV?$string_output_adapter@_W@__crt_stdio_output@@@2@@__crt_stdio_output@@AAE_NXZ@@__crt_stdio_output@@YAPAUansi_string@?1??type_case_Z@?$output_processor@_WV?$string_output_adapter@_W@__crt_stdio_output@@V?$format_validation_base@_WV?$string_output_adapter@_W@__crt_stdio_output@@@2@@0@AAE_NXZ@AAPAD@Z 100495b0 f i libucrtd:output.obj
 0001:000485d0       ??$read_va_arg@PAUansi_string@?1??type_case_Z@?$output_processor@_WV?$string_output_adapter@_W@__crt_stdio_output@@V?$positional_parameter_base@_WV?$string_output_adapter@_W@__crt_stdio_output@@@2@@__crt_stdio_output@@AAE_NXZ@@__crt_stdio_output@@YAPAUansi_string@?1??type_case_Z@?$output_processor@_WV?$string_output_adapter@_W@__crt_stdio_output@@V?$positional_parameter_base@_WV?$string_output_adapter@_W@__crt_stdio_output@@@2@@0@AAE_NXZ@AAPAD@Z 100495d0 f i libucrtd:output.obj
 0001:000485f0       ??$read_va_arg@PAUansi_string@?1??type_case_Z@?$output_processor@_WV?$string_output_adapter@_W@__crt_stdio_output@@V?$standard_base@_WV?$string_output_adapter@_W@__crt_stdio_output@@@2@@__crt_stdio_output@@AAE_NXZ@@__crt_stdio_output@@YAPAUansi_string@?1??type_case_Z@?$output_processor@_WV?$string_output_adapter@_W@__crt_stdio_output@@V?$standard_base@_WV?$string_output_adapter@_W@__crt_stdio_output@@@2@@0@AAE_NXZ@AAPAD@Z 100495f0 f i libucrtd:output.obj
 0001:00048610       ??$read_va_arg@PAX@__crt_stdio_output@@YAPAXAAPAD@Z 10049610 f i libucrtd:output.obj
 0001:00048630       ??$read_va_arg@U_CRT_DOUBLE@@@__crt_stdio_output@@YA?AU_CRT_DOUBLE@@AAPAD@Z 10049630 f i libucrtd:output.obj
 0001:00048650       ??$read_va_arg@_J@__crt_stdio_output@@YA_JAAPAD@Z 10049650 f i libucrtd:output.obj
 0001:00048670       ??$read_va_arg@_K@__crt_stdio_output@@YA_KAAPAD@Z 10049670 f i libucrtd:output.obj
 0001:00048690       ??$read_va_arg@_W@__crt_stdio_output@@YA_WAAPAD@Z 10049690 f i libucrtd:output.obj
 0001:000486b0       ??$scratch_count@D@formatting_buffer@__crt_stdio_output@@QBEIXZ 100496b0 f i libucrtd:output.obj
 0001:000486d0       ??$scratch_data@D@formatting_buffer@__crt_stdio_output@@QAEPADXZ 100496d0 f i libucrtd:output.obj
 0001:00048720       ??$tcstol@AAPBDPAPADH@?$__crt_char_traits@D@@SAJAAPBD$$QAPAPAD$$QAH@Z 10049720 f i libucrtd:output.obj
 0001:00048750       ??$tcstol@AAPB_WPAPA_WH@?$__crt_char_traits@_W@@SAJAAPB_W$$QAPAPA_W$$QAH@Z 10049750 f i libucrtd:output.obj
 0001:00048780       ??$tcstol@PBDPAPADH@?$__crt_char_traits@D@@SAJ$$QAPBD$$QAPAPAD$$QAH@Z 10049780 f i libucrtd:output.obj
 0001:000487b0       ??$tcstol@PB_WPAPA_WH@?$__crt_char_traits@_W@@SAJ$$QAPB_W$$QAPAPA_W$$QAH@Z 100497b0 f i libucrtd:output.obj
 0001:000487e0       ??$type_case_integer_parse_into_buffer@I@?$output_processor@DV?$stream_output_adapter@D@__crt_stdio_output@@V?$format_validation_base@DV?$stream_output_adapter@D@__crt_stdio_output@@@2@@__crt_stdio_output@@AAEXII_N@Z 100497e0 f i libucrtd:output.obj
 0001:000488b0       ??$type_case_integer_parse_into_buffer@I@?$output_processor@DV?$stream_output_adapter@D@__crt_stdio_output@@V?$positional_parameter_base@DV?$stream_output_adapter@D@__crt_stdio_output@@@2@@__crt_stdio_output@@AAEXII_N@Z 100498b0 f i libucrtd:output.obj
 0001:00048980       ??$type_case_integer_parse_into_buffer@I@?$output_processor@DV?$stream_output_adapter@D@__crt_stdio_output@@V?$standard_base@DV?$stream_output_adapter@D@__crt_stdio_output@@@2@@__crt_stdio_output@@AAEXII_N@Z 10049980 f i libucrtd:output.obj
 0001:00048a50       ??$type_case_integer_parse_into_buffer@I@?$output_processor@DV?$string_output_adapter@D@__crt_stdio_output@@V?$format_validation_base@DV?$string_output_adapter@D@__crt_stdio_output@@@2@@__crt_stdio_output@@AAEXII_N@Z 10049a50 f i libucrtd:output.obj
 0001:00048b20       ??$type_case_integer_parse_into_buffer@I@?$output_processor@DV?$string_output_adapter@D@__crt_stdio_output@@V?$positional_parameter_base@DV?$string_output_adapter@D@__crt_stdio_output@@@2@@__crt_stdio_output@@AAEXII_N@Z 10049b20 f i libucrtd:output.obj
 0001:00048bf0       ??$type_case_integer_parse_into_buffer@I@?$output_processor@DV?$string_output_adapter@D@__crt_stdio_output@@V?$standard_base@DV?$string_output_adapter@D@__crt_stdio_output@@@2@@__crt_stdio_output@@AAEXII_N@Z 10049bf0 f i libucrtd:output.obj
 0001:00048cc0       ??$type_case_integer_parse_into_buffer@I@?$output_processor@_WV?$stream_output_adapter@_W@__crt_stdio_output@@V?$format_validation_base@_WV?$stream_output_adapter@_W@__crt_stdio_output@@@2@@__crt_stdio_output@@AAEXII_N@Z 10049cc0 f i libucrtd:output.obj
 0001:00048da0       ??$type_case_integer_parse_into_buffer@I@?$output_processor@_WV?$stream_output_adapter@_W@__crt_stdio_output@@V?$positional_parameter_base@_WV?$stream_output_adapter@_W@__crt_stdio_output@@@2@@__crt_stdio_output@@AAEXII_N@Z 10049da0 f i libucrtd:output.obj
 0001:00048e80       ??$type_case_integer_parse_into_buffer@I@?$output_processor@_WV?$stream_output_adapter@_W@__crt_stdio_output@@V?$standard_base@_WV?$stream_output_adapter@_W@__crt_stdio_output@@@2@@__crt_stdio_output@@AAEXII_N@Z 10049e80 f i libucrtd:output.obj
 0001:00048f60       ??$type_case_integer_parse_into_buffer@I@?$output_processor@_WV?$string_output_adapter@_W@__crt_stdio_output@@V?$format_validation_base@_WV?$string_output_adapter@_W@__crt_stdio_output@@@2@@__crt_stdio_output@@AAEXII_N@Z 10049f60 f i libucrtd:output.obj
 0001:00049040       ??$type_case_integer_parse_into_buffer@I@?$output_processor@_WV?$string_output_adapter@_W@__crt_stdio_output@@V?$positional_parameter_base@_WV?$string_output_adapter@_W@__crt_stdio_output@@@2@@__crt_stdio_output@@AAEXII_N@Z 1004a040 f i libucrtd:output.obj
 0001:00049120       ??$type_case_integer_parse_into_buffer@I@?$output_processor@_WV?$string_output_adapter@_W@__crt_stdio_output@@V?$standard_base@_WV?$string_output_adapter@_W@__crt_stdio_output@@@2@@__crt_stdio_output@@AAEXII_N@Z 1004a120 f i libucrtd:output.obj
 0001:00049200       ??$type_case_integer_parse_into_buffer@_K@?$output_processor@DV?$stream_output_adapter@D@__crt_stdio_output@@V?$format_validation_base@DV?$stream_output_adapter@D@__crt_stdio_output@@@2@@__crt_stdio_output@@AAEX_KI_N@Z 1004a200 f i libucrtd:output.obj
 0001:000492f0       ??$type_case_integer_parse_into_buffer@_K@?$output_processor@DV?$stream_output_adapter@D@__crt_stdio_output@@V?$positional_parameter_base@DV?$stream_output_adapter@D@__crt_stdio_output@@@2@@__crt_stdio_output@@AAEX_KI_N@Z 1004a2f0 f i libucrtd:output.obj
 0001:000493e0       ??$type_case_integer_parse_into_buffer@_K@?$output_processor@DV?$stream_output_adapter@D@__crt_stdio_output@@V?$standard_base@DV?$stream_output_adapter@D@__crt_stdio_output@@@2@@__crt_stdio_output@@AAEX_KI_N@Z 1004a3e0 f i libucrtd:output.obj
 0001:000494d0       ??$type_case_integer_parse_into_buffer@_K@?$output_processor@DV?$string_output_adapter@D@__crt_stdio_output@@V?$format_validation_base@DV?$string_output_adapter@D@__crt_stdio_output@@@2@@__crt_stdio_output@@AAEX_KI_N@Z 1004a4d0 f i libucrtd:output.obj
 0001:000495c0       ??$type_case_integer_parse_into_buffer@_K@?$output_processor@DV?$string_output_adapter@D@__crt_stdio_output@@V?$positional_parameter_base@DV?$string_output_adapter@D@__crt_stdio_output@@@2@@__crt_stdio_output@@AAEX_KI_N@Z 1004a5c0 f i libucrtd:output.obj
 0001:000496b0       ??$type_case_integer_parse_into_buffer@_K@?$output_processor@DV?$string_output_adapter@D@__crt_stdio_output@@V?$standard_base@DV?$string_output_adapter@D@__crt_stdio_output@@@2@@__crt_stdio_output@@AAEX_KI_N@Z 1004a6b0 f i libucrtd:output.obj
 0001:000497a0       ??$type_case_integer_parse_into_buffer@_K@?$output_processor@_WV?$stream_output_adapter@_W@__crt_stdio_output@@V?$format_validation_base@_WV?$stream_output_adapter@_W@__crt_stdio_output@@@2@@__crt_stdio_output@@AAEX_KI_N@Z 1004a7a0 f i libucrtd:output.obj
 0001:000498a0       ??$type_case_integer_parse_into_buffer@_K@?$output_processor@_WV?$stream_output_adapter@_W@__crt_stdio_output@@V?$positional_parameter_base@_WV?$stream_output_adapter@_W@__crt_stdio_output@@@2@@__crt_stdio_output@@AAEX_KI_N@Z 1004a8a0 f i libucrtd:output.obj
 0001:000499a0       ??$type_case_integer_parse_into_buffer@_K@?$output_processor@_WV?$stream_output_adapter@_W@__crt_stdio_output@@V?$standard_base@_WV?$stream_output_adapter@_W@__crt_stdio_output@@@2@@__crt_stdio_output@@AAEX_KI_N@Z 1004a9a0 f i libucrtd:output.obj
 0001:00049aa0       ??$type_case_integer_parse_into_buffer@_K@?$output_processor@_WV?$string_output_adapter@_W@__crt_stdio_output@@V?$format_validation_base@_WV?$string_output_adapter@_W@__crt_stdio_output@@@2@@__crt_stdio_output@@AAEX_KI_N@Z 1004aaa0 f i libucrtd:output.obj
 0001:00049ba0       ??$type_case_integer_parse_into_buffer@_K@?$output_processor@_WV?$string_output_adapter@_W@__crt_stdio_output@@V?$positional_parameter_base@_WV?$string_output_adapter@_W@__crt_stdio_output@@@2@@__crt_stdio_output@@AAEX_KI_N@Z 1004aba0 f i libucrtd:output.obj
 0001:00049ca0       ??$type_case_integer_parse_into_buffer@_K@?$output_processor@_WV?$string_output_adapter@_W@__crt_stdio_output@@V?$standard_base@_WV?$string_output_adapter@_W@__crt_stdio_output@@@2@@__crt_stdio_output@@AAEX_KI_N@Z 1004aca0 f i libucrtd:output.obj
 0001:00049da0       ??$write_multiple_characters@V?$stream_output_adapter@D@__crt_stdio_output@@D@__crt_stdio_output@@YAXABV?$stream_output_adapter@D@0@DHQAH@Z 1004ada0 f i libucrtd:output.obj
 0001:00049df0       ??$write_multiple_characters@V?$stream_output_adapter@_W@__crt_stdio_output@@D@__crt_stdio_output@@YAXABV?$stream_output_adapter@_W@0@DHQAH@Z 1004adf0 f i libucrtd:output.obj
 0001:00049e40       ??$write_multiple_characters@V?$string_output_adapter@D@__crt_stdio_output@@D@__crt_stdio_output@@YAXABV?$string_output_adapter@D@0@DHQAH@Z 1004ae40 f i libucrtd:output.obj
 0001:00049e90       ??$write_multiple_characters@V?$string_output_adapter@_W@__crt_stdio_output@@D@__crt_stdio_output@@YAXABV?$string_output_adapter@_W@0@DHQAH@Z 1004ae90 f i libucrtd:output.obj
 0001:0004a1e0       ??0?$common_data@D@__crt_stdio_output@@IAE@XZ 1004b1e0 f i libucrtd:output.obj
 0001:0004a290       ??0?$common_data@_W@__crt_stdio_output@@IAE@XZ 1004b290 f i libucrtd:output.obj
 0001:0004a340       ??0?$output_adapter_data@DV?$stream_output_adapter@D@__crt_stdio_output@@@__crt_stdio_output@@IAE@ABV?$stream_output_adapter@D@1@_KQBDQAU__crt_locale_pointers@@QAD@Z 1004b340 f i libucrtd:output.obj
 0001:0004a3a0       ??0?$output_adapter_data@DV?$string_output_adapter@D@__crt_stdio_output@@@__crt_stdio_output@@IAE@ABV?$string_output_adapter@D@1@_KQBDQAU__crt_locale_pointers@@QAD@Z 1004b3a0 f i libucrtd:output.obj
 0001:0004a400       ??0?$output_adapter_data@_WV?$stream_output_adapter@_W@__crt_stdio_output@@@__crt_stdio_output@@IAE@ABV?$stream_output_adapter@_W@1@_KQB_WQAU__crt_locale_pointers@@QAD@Z 1004b400 f i libucrtd:output.obj
 0001:0004a460       ??0?$output_adapter_data@_WV?$string_output_adapter@_W@__crt_stdio_output@@@__crt_stdio_output@@IAE@ABV?$string_output_adapter@_W@1@_KQB_WQAU__crt_locale_pointers@@QAD@Z 1004b460 f i libucrtd:output.obj
 0001:0004a4c0       ??0?$output_processor@DV?$stream_output_adapter@D@__crt_stdio_output@@V?$format_validation_base@DV?$stream_output_adapter@D@__crt_stdio_output@@@2@@__crt_stdio_output@@QAE@ABV?$stream_output_adapter@D@1@_KQBDQAU__crt_locale_pointers@@QAD@Z 1004b4c0 f i libucrtd:output.obj
 0001:0004a4f0       ??0?$output_processor@DV?$stream_output_adapter@D@__crt_stdio_output@@V?$positional_parameter_base@DV?$stream_output_adapter@D@__crt_stdio_output@@@2@@__crt_stdio_output@@QAE@ABV?$stream_output_adapter@D@1@_KQBDQAU__crt_locale_pointers@@QAD@Z 1004b4f0 f i libucrtd:output.obj
 0001:0004a520       ??0?$output_processor@DV?$stream_output_adapter@D@__crt_stdio_output@@V?$standard_base@DV?$stream_output_adapter@D@__crt_stdio_output@@@2@@__crt_stdio_output@@QAE@ABV?$stream_output_adapter@D@1@_KQBDQAU__crt_locale_pointers@@QAD@Z 1004b520 f i libucrtd:output.obj
 0001:0004a550       ??0?$output_processor@DV?$string_output_adapter@D@__crt_stdio_output@@V?$format_validation_base@DV?$string_output_adapter@D@__crt_stdio_output@@@2@@__crt_stdio_output@@QAE@ABV?$string_output_adapter@D@1@_KQBDQAU__crt_locale_pointers@@QAD@Z 1004b550 f i libucrtd:output.obj
 0001:0004a580       ??0?$output_processor@DV?$string_output_adapter@D@__crt_stdio_output@@V?$positional_parameter_base@DV?$string_output_adapter@D@__crt_stdio_output@@@2@@__crt_stdio_output@@QAE@ABV?$string_output_adapter@D@1@_KQBDQAU__crt_locale_pointers@@QAD@Z 1004b580 f i libucrtd:output.obj
 0001:0004a5b0       ??0?$output_processor@DV?$string_output_adapter@D@__crt_stdio_output@@V?$standard_base@DV?$string_output_adapter@D@__crt_stdio_output@@@2@@__crt_stdio_output@@QAE@ABV?$string_output_adapter@D@1@_KQBDQAU__crt_locale_pointers@@QAD@Z 1004b5b0 f i libucrtd:output.obj
 0001:0004a5e0       ??0?$output_processor@_WV?$stream_output_adapter@_W@__crt_stdio_output@@V?$format_validation_base@_WV?$stream_output_adapter@_W@__crt_stdio_output@@@2@@__crt_stdio_output@@QAE@ABV?$stream_output_adapter@_W@1@_KQB_WQAU__crt_locale_pointers@@QAD@Z 1004b5e0 f i libucrtd:output.obj
 0001:0004a610       ??0?$output_processor@_WV?$stream_output_adapter@_W@__crt_stdio_output@@V?$positional_parameter_base@_WV?$stream_output_adapter@_W@__crt_stdio_output@@@2@@__crt_stdio_output@@QAE@ABV?$stream_output_adapter@_W@1@_KQB_WQAU__crt_locale_pointers@@QAD@Z 1004b610 f i libucrtd:output.obj
 0001:0004a640       ??0?$output_processor@_WV?$stream_output_adapter@_W@__crt_stdio_output@@V?$standard_base@_WV?$stream_output_adapter@_W@__crt_stdio_output@@@2@@__crt_stdio_output@@QAE@ABV?$stream_output_adapter@_W@1@_KQB_WQAU__crt_locale_pointers@@QAD@Z 1004b640 f i libucrtd:output.obj
 0001:0004a670       ??0?$output_processor@_WV?$string_output_adapter@_W@__crt_stdio_output@@V?$format_validation_base@_WV?$string_output_adapter@_W@__crt_stdio_output@@@2@@__crt_stdio_output@@QAE@ABV?$string_output_adapter@_W@1@_KQB_WQAU__crt_locale_pointers@@QAD@Z 1004b670 f i libucrtd:output.obj
 0001:0004a6a0       ??0?$output_processor@_WV?$string_output_adapter@_W@__crt_stdio_output@@V?$positional_parameter_base@_WV?$string_output_adapter@_W@__crt_stdio_output@@@2@@__crt_stdio_output@@QAE@ABV?$string_output_adapter@_W@1@_KQB_WQAU__crt_locale_pointers@@QAD@Z 1004b6a0 f i libucrtd:output.obj
 0001:0004a6d0       ??0?$output_processor@_WV?$string_output_adapter@_W@__crt_stdio_output@@V?$standard_base@_WV?$string_output_adapter@_W@__crt_stdio_output@@@2@@__crt_stdio_output@@QAE@ABV?$string_output_adapter@_W@1@_KQB_WQAU__crt_locale_pointers@@QAD@Z 1004b6d0 f i libucrtd:output.obj
 0001:0004a700       ??0?$stream_output_adapter@D@__crt_stdio_output@@QAE@QAU_iobuf@@@Z 1004b700 f i libucrtd:output.obj
 0001:0004a720       ??0?$stream_output_adapter@_W@__crt_stdio_output@@QAE@QAU_iobuf@@@Z 1004b720 f i libucrtd:output.obj
 0001:0004a740       ??0?$string_output_adapter@D@__crt_stdio_output@@QAE@QAU?$string_output_adapter_context@D@1@@Z 1004b740 f i libucrtd:output.obj
 0001:0004a760       ??0?$string_output_adapter@_W@__crt_stdio_output@@QAE@QAU?$string_output_adapter_context@_W@1@@Z 1004b760 f i libucrtd:output.obj
 0001:0004a780       ??0_LocaleUpdate@@QAE@QAU__crt_locale_pointers@@@Z 1004b780 f i libucrtd:output.obj
 0001:0004a850       ??0__acrt_stdio_temporary_buffering_guard@@QAE@QAU_iobuf@@@Z 1004b850 f i libucrtd:output.obj
 0001:0004a880       ??0__crt_deferred_errno_cache@@QAE@XZ 1004b880 f i libucrtd:output.obj
 0001:0004a8a0       ??0__crt_errno_guard@@QAE@QAH@Z 1004b8a0 f i libucrtd:output.obj
 0001:0004a8d0       ??0__crt_stdio_stream@@QAE@QAU_iobuf@@@Z 1004b8d0 f i libucrtd:output.obj
 0001:0004a8f0       ??0formatting_buffer@__crt_stdio_output@@QAE@XZ 1004b8f0 f i libucrtd:output.obj
 0001:0004a920       ??1?$common_data@D@__crt_stdio_output@@QAE@XZ 1004b920 f i libucrtd:output.obj
 0001:0004a940       ??1?$common_data@_W@__crt_stdio_output@@QAE@XZ 1004b940 f i libucrtd:output.obj
 0001:0004a960       ??1?$format_validation_base@DV?$stream_output_adapter@D@__crt_stdio_output@@@__crt_stdio_output@@QAE@XZ 1004b960 f i libucrtd:output.obj
 0001:0004a980       ??1?$format_validation_base@DV?$string_output_adapter@D@__crt_stdio_output@@@__crt_stdio_output@@QAE@XZ 1004b980 f i libucrtd:output.obj
 0001:0004a9a0       ??1?$format_validation_base@_WV?$stream_output_adapter@_W@__crt_stdio_output@@@__crt_stdio_output@@QAE@XZ 1004b9a0 f i libucrtd:output.obj
 0001:0004a9c0       ??1?$format_validation_base@_WV?$string_output_adapter@_W@__crt_stdio_output@@@__crt_stdio_output@@QAE@XZ 1004b9c0 f i libucrtd:output.obj
 0001:0004a9e0       ??1?$output_adapter_data@DV?$stream_output_adapter@D@__crt_stdio_output@@@__crt_stdio_output@@QAE@XZ 1004b9e0 f i libucrtd:output.obj
 0001:0004aa00       ??1?$output_adapter_data@DV?$string_output_adapter@D@__crt_stdio_output@@@__crt_stdio_output@@QAE@XZ 1004ba00 f i libucrtd:output.obj
 0001:0004aa20       ??1?$output_adapter_data@_WV?$stream_output_adapter@_W@__crt_stdio_output@@@__crt_stdio_output@@QAE@XZ 1004ba20 f i libucrtd:output.obj
 0001:0004aa40       ??1?$output_adapter_data@_WV?$string_output_adapter@_W@__crt_stdio_output@@@__crt_stdio_output@@QAE@XZ 1004ba40 f i libucrtd:output.obj
 0001:0004aa60       ??1?$output_processor@DV?$stream_output_adapter@D@__crt_stdio_output@@V?$format_validation_base@DV?$stream_output_adapter@D@__crt_stdio_output@@@2@@__crt_stdio_output@@QAE@XZ 1004ba60 f i libucrtd:output.obj
 0001:0004aa80       ??1?$output_processor@DV?$stream_output_adapter@D@__crt_stdio_output@@V?$positional_parameter_base@DV?$stream_output_adapter@D@__crt_stdio_output@@@2@@__crt_stdio_output@@QAE@XZ 1004ba80 f i libucrtd:output.obj
 0001:0004aaa0       ??1?$output_processor@DV?$stream_output_adapter@D@__crt_stdio_output@@V?$standard_base@DV?$stream_output_adapter@D@__crt_stdio_output@@@2@@__crt_stdio_output@@QAE@XZ 1004baa0 f i libucrtd:output.obj
 0001:0004aac0       ??1?$output_processor@DV?$string_output_adapter@D@__crt_stdio_output@@V?$format_validation_base@DV?$string_output_adapter@D@__crt_stdio_output@@@2@@__crt_stdio_output@@QAE@XZ 1004bac0 f i libucrtd:output.obj
 0001:0004aae0       ??1?$output_processor@DV?$string_output_adapter@D@__crt_stdio_output@@V?$positional_parameter_base@DV?$string_output_adapter@D@__crt_stdio_output@@@2@@__crt_stdio_output@@QAE@XZ 1004bae0 f i libucrtd:output.obj
 0001:0004ab00       ??1?$output_processor@DV?$string_output_adapter@D@__crt_stdio_output@@V?$standard_base@DV?$string_output_adapter@D@__crt_stdio_output@@@2@@__crt_stdio_output@@QAE@XZ 1004bb00 f i libucrtd:output.obj
 0001:0004ab20       ??1?$output_processor@_WV?$stream_output_adapter@_W@__crt_stdio_output@@V?$format_validation_base@_WV?$stream_output_adapter@_W@__crt_stdio_output@@@2@@__crt_stdio_output@@QAE@XZ 1004bb20 f i libucrtd:output.obj
 0001:0004ab40       ??1?$output_processor@_WV?$stream_output_adapter@_W@__crt_stdio_output@@V?$positional_parameter_base@_WV?$stream_output_adapter@_W@__crt_stdio_output@@@2@@__crt_stdio_output@@QAE@XZ 1004bb40 f i libucrtd:output.obj
 0001:0004ab60       ??1?$output_processor@_WV?$stream_output_adapter@_W@__crt_stdio_output@@V?$standard_base@_WV?$stream_output_adapter@_W@__crt_stdio_output@@@2@@__crt_stdio_output@@QAE@XZ 1004bb60 f i libucrtd:output.obj
 0001:0004ab80       ??1?$output_processor@_WV?$string_output_adapter@_W@__crt_stdio_output@@V?$format_validation_base@_WV?$string_output_adapter@_W@__crt_stdio_output@@@2@@__crt_stdio_output@@QAE@XZ 1004bb80 f i libucrtd:output.obj
 0001:0004aba0       ??1?$output_processor@_WV?$string_output_adapter@_W@__crt_stdio_output@@V?$positional_parameter_base@_WV?$string_output_adapter@_W@__crt_stdio_output@@@2@@__crt_stdio_output@@QAE@XZ 1004bba0 f i libucrtd:output.obj
 0001:0004abc0       ??1?$output_processor@_WV?$string_output_adapter@_W@__crt_stdio_output@@V?$standard_base@_WV?$string_output_adapter@_W@__crt_stdio_output@@@2@@__crt_stdio_output@@QAE@XZ 1004bbc0 f i libucrtd:output.obj
 0001:0004abe0       ??1?$positional_parameter_base@DV?$stream_output_adapter@D@__crt_stdio_output@@@__crt_stdio_output@@QAE@XZ 1004bbe0 f i libucrtd:output.obj
 0001:0004ac00       ??1?$positional_parameter_base@DV?$string_output_adapter@D@__crt_stdio_output@@@__crt_stdio_output@@QAE@XZ 1004bc00 f i libucrtd:output.obj
 0001:0004ac20       ??1?$positional_parameter_base@_WV?$stream_output_adapter@_W@__crt_stdio_output@@@__crt_stdio_output@@QAE@XZ 1004bc20 f i libucrtd:output.obj
 0001:0004ac40       ??1?$positional_parameter_base@_WV?$string_output_adapter@_W@__crt_stdio_output@@@__crt_stdio_output@@QAE@XZ 1004bc40 f i libucrtd:output.obj
 0001:0004ac60       ??1?$standard_base@DV?$stream_output_adapter@D@__crt_stdio_output@@@__crt_stdio_output@@QAE@XZ 1004bc60 f i libucrtd:output.obj
 0001:0004ac80       ??1?$standard_base@DV?$string_output_adapter@D@__crt_stdio_output@@@__crt_stdio_output@@QAE@XZ 1004bc80 f i libucrtd:output.obj
 0001:0004aca0       ??1?$standard_base@_WV?$stream_output_adapter@_W@__crt_stdio_output@@@__crt_stdio_output@@QAE@XZ 1004bca0 f i libucrtd:output.obj
 0001:0004acc0       ??1?$standard_base@_WV?$string_output_adapter@_W@__crt_stdio_output@@@__crt_stdio_output@@QAE@XZ 1004bcc0 f i libucrtd:output.obj
 0001:0004ace0       ??1_LocaleUpdate@@QAE@XZ   1004bce0 f i libucrtd:output.obj
 0001:0004ad10       ??1__acrt_stdio_temporary_buffering_guard@@QAE@XZ 1004bd10 f i libucrtd:output.obj
 0001:0004ad40       ??1__crt_errno_guard@@QAE@XZ 1004bd40 f i libucrtd:output.obj
 0001:0004ad70       ??1formatting_buffer@__crt_stdio_output@@QAE@XZ 1004bd70 f i libucrtd:output.obj
 0001:0004ad90       ??4?$__crt_unique_heap_ptr@DU__crt_internal_free_policy@@@@QAEAAV0@$$QAV0@@Z 1004bd90 f i libucrtd:output.obj
 0001:0004adc0       ??A?$spectre_mitigated_lookup_table@Ustate_transition_pair@__crt_stdio_output@@$0IA@@__crt_stdio_output@@QBEABUstate_transition_pair@1@I@Z 1004bdc0 f i libucrtd:output.obj
 0001:0004ade0       ??C__crt_stdio_stream@@QBEPAU__crt_stdio_stream_data@@XZ 1004bde0 f i libucrtd:output.obj
 0001:0004b520       ?GetLocaleT@_LocaleUpdate@@QAEPAU__crt_locale_pointers@@XZ 1004c520 f i libucrtd:output.obj
 0001:0004b540       ?adjust_hexit@?$output_processor@DV?$stream_output_adapter@D@__crt_stdio_output@@V?$format_validation_base@DV?$stream_output_adapter@D@__crt_stdio_output@@@2@@__crt_stdio_output@@CADH_N@Z 1004c540 f i libucrtd:output.obj
 0001:0004b580       ?adjust_hexit@?$output_processor@DV?$stream_output_adapter@D@__crt_stdio_output@@V?$positional_parameter_base@DV?$stream_output_adapter@D@__crt_stdio_output@@@2@@__crt_stdio_output@@CADH_N@Z 1004c580 f i libucrtd:output.obj
 0001:0004b5c0       ?adjust_hexit@?$output_processor@DV?$stream_output_adapter@D@__crt_stdio_output@@V?$standard_base@DV?$stream_output_adapter@D@__crt_stdio_output@@@2@@__crt_stdio_output@@CADH_N@Z 1004c5c0 f i libucrtd:output.obj
 0001:0004b600       ?adjust_hexit@?$output_processor@DV?$string_output_adapter@D@__crt_stdio_output@@V?$format_validation_base@DV?$string_output_adapter@D@__crt_stdio_output@@@2@@__crt_stdio_output@@CADH_N@Z 1004c600 f i libucrtd:output.obj
 0001:0004b640       ?adjust_hexit@?$output_processor@DV?$string_output_adapter@D@__crt_stdio_output@@V?$positional_parameter_base@DV?$string_output_adapter@D@__crt_stdio_output@@@2@@__crt_stdio_output@@CADH_N@Z 1004c640 f i libucrtd:output.obj
 0001:0004b680       ?adjust_hexit@?$output_processor@DV?$string_output_adapter@D@__crt_stdio_output@@V?$standard_base@DV?$string_output_adapter@D@__crt_stdio_output@@@2@@__crt_stdio_output@@CADH_N@Z 1004c680 f i libucrtd:output.obj
 0001:0004b6c0       ?adjust_hexit@?$output_processor@_WV?$stream_output_adapter@_W@__crt_stdio_output@@V?$format_validation_base@_WV?$stream_output_adapter@_W@__crt_stdio_output@@@2@@__crt_stdio_output@@CADH_N@Z 1004c6c0 f i libucrtd:output.obj
 0001:0004b700       ?adjust_hexit@?$output_processor@_WV?$stream_output_adapter@_W@__crt_stdio_output@@V?$positional_parameter_base@_WV?$stream_output_adapter@_W@__crt_stdio_output@@@2@@__crt_stdio_output@@CADH_N@Z 1004c700 f i libucrtd:output.obj
 0001:0004b740       ?adjust_hexit@?$output_processor@_WV?$stream_output_adapter@_W@__crt_stdio_output@@V?$standard_base@_WV?$stream_output_adapter@_W@__crt_stdio_output@@@2@@__crt_stdio_output@@CADH_N@Z 1004c740 f i libucrtd:output.obj
 0001:0004b780       ?adjust_hexit@?$output_processor@_WV?$string_output_adapter@_W@__crt_stdio_output@@V?$format_validation_base@_WV?$string_output_adapter@_W@__crt_stdio_output@@@2@@__crt_stdio_output@@CADH_N@Z 1004c780 f i libucrtd:output.obj
 0001:0004b7c0       ?adjust_hexit@?$output_processor@_WV?$string_output_adapter@_W@__crt_stdio_output@@V?$positional_parameter_base@_WV?$string_output_adapter@_W@__crt_stdio_output@@@2@@__crt_stdio_output@@CADH_N@Z 1004c7c0 f i libucrtd:output.obj
 0001:0004b800       ?adjust_hexit@?$output_processor@_WV?$string_output_adapter@_W@__crt_stdio_output@@V?$standard_base@_WV?$string_output_adapter@_W@__crt_stdio_output@@@2@@__crt_stdio_output@@CADH_N@Z 1004c800 f i libucrtd:output.obj
 0001:0004b840       ?advance_to_next_pass@?$positional_parameter_base@DV?$stream_output_adapter@D@__crt_stdio_output@@@__crt_stdio_output@@IAE_NXZ 1004c840 f i libucrtd:output.obj
 0001:0004b8e0       ?advance_to_next_pass@?$positional_parameter_base@DV?$string_output_adapter@D@__crt_stdio_output@@@__crt_stdio_output@@IAE_NXZ 1004c8e0 f i libucrtd:output.obj
 0001:0004b980       ?advance_to_next_pass@?$positional_parameter_base@_WV?$stream_output_adapter@_W@__crt_stdio_output@@@__crt_stdio_output@@IAE_NXZ 1004c980 f i libucrtd:output.obj
 0001:0004ba20       ?advance_to_next_pass@?$positional_parameter_base@_WV?$string_output_adapter@_W@__crt_stdio_output@@@__crt_stdio_output@@IAE_NXZ 1004ca20 f i libucrtd:output.obj
 0001:0004bac0       ?advance_to_next_pass@?$standard_base@DV?$stream_output_adapter@D@__crt_stdio_output@@@__crt_stdio_output@@IAE_NXZ 1004cac0 f i libucrtd:output.obj
 0001:0004bb10       ?advance_to_next_pass@?$standard_base@DV?$string_output_adapter@D@__crt_stdio_output@@@__crt_stdio_output@@IAE_NXZ 1004cb10 f i libucrtd:output.obj
 0001:0004bb60       ?advance_to_next_pass@?$standard_base@_WV?$stream_output_adapter@_W@__crt_stdio_output@@@__crt_stdio_output@@IAE_NXZ 1004cb60 f i libucrtd:output.obj
 0001:0004bbb0       ?advance_to_next_pass@?$standard_base@_WV?$string_output_adapter@_W@__crt_stdio_output@@@__crt_stdio_output@@IAE_NXZ 1004cbb0 f i libucrtd:output.obj
 0001:0004bc00       ?crop_zeroes@__crt_stdio_output@@YAXPADQAU__crt_locale_pointers@@@Z 1004cc00 f i libucrtd:output.obj
 0001:0004bd00       ?find_next_state@?$output_processor@DV?$stream_output_adapter@D@__crt_stdio_output@@V?$format_validation_base@DV?$stream_output_adapter@D@__crt_stdio_output@@@2@@__crt_stdio_output@@ABE?AW4state@2@DW432@@Z 1004cd00 f i libucrtd:output.obj
 0001:0004bd70       ?find_next_state@?$output_processor@DV?$stream_output_adapter@D@__crt_stdio_output@@V?$positional_parameter_base@DV?$stream_output_adapter@D@__crt_stdio_output@@@2@@__crt_stdio_output@@ABE?AW4state@2@DW432@@Z 1004cd70 f i libucrtd:output.obj
 0001:0004bde0       ?find_next_state@?$output_processor@DV?$stream_output_adapter@D@__crt_stdio_output@@V?$standard_base@DV?$stream_output_adapter@D@__crt_stdio_output@@@2@@__crt_stdio_output@@ABE?AW4state@2@DW432@@Z 1004cde0 f i libucrtd:output.obj
 0001:0004be50       ?find_next_state@?$output_processor@DV?$string_output_adapter@D@__crt_stdio_output@@V?$format_validation_base@DV?$string_output_adapter@D@__crt_stdio_output@@@2@@__crt_stdio_output@@ABE?AW4state@2@DW432@@Z 1004ce50 f i libucrtd:output.obj
 0001:0004bec0       ?find_next_state@?$output_processor@DV?$string_output_adapter@D@__crt_stdio_output@@V?$positional_parameter_base@DV?$string_output_adapter@D@__crt_stdio_output@@@2@@__crt_stdio_output@@ABE?AW4state@2@DW432@@Z 1004cec0 f i libucrtd:output.obj
 0001:0004bf30       ?find_next_state@?$output_processor@DV?$string_output_adapter@D@__crt_stdio_output@@V?$standard_base@DV?$string_output_adapter@D@__crt_stdio_output@@@2@@__crt_stdio_output@@ABE?AW4state@2@DW432@@Z 1004cf30 f i libucrtd:output.obj
 0001:0004bfa0       ?find_next_state@?$output_processor@_WV?$stream_output_adapter@_W@__crt_stdio_output@@V?$format_validation_base@_WV?$stream_output_adapter@_W@__crt_stdio_output@@@2@@__crt_stdio_output@@ABE?AW4state@2@_WW432@@Z 1004cfa0 f i libucrtd:output.obj
 0001:0004c010       ?find_next_state@?$output_processor@_WV?$stream_output_adapter@_W@__crt_stdio_output@@V?$positional_parameter_base@_WV?$stream_output_adapter@_W@__crt_stdio_output@@@2@@__crt_stdio_output@@ABE?AW4state@2@_WW432@@Z 1004d010 f i libucrtd:output.obj
 0001:0004c080       ?find_next_state@?$output_processor@_WV?$stream_output_adapter@_W@__crt_stdio_output@@V?$standard_base@_WV?$stream_output_adapter@_W@__crt_stdio_output@@@2@@__crt_stdio_output@@ABE?AW4state@2@_WW432@@Z 1004d080 f i libucrtd:output.obj
 0001:0004c0f0       ?find_next_state@?$output_processor@_WV?$string_output_adapter@_W@__crt_stdio_output@@V?$format_validation_base@_WV?$string_output_adapter@_W@__crt_stdio_output@@@2@@__crt_stdio_output@@ABE?AW4state@2@_WW432@@Z 1004d0f0 f i libucrtd:output.obj
 0001:0004c160       ?find_next_state@?$output_processor@_WV?$string_output_adapter@_W@__crt_stdio_output@@V?$positional_parameter_base@_WV?$string_output_adapter@_W@__crt_stdio_output@@@2@@__crt_stdio_output@@ABE?AW4state@2@_WW432@@Z 1004d160 f i libucrtd:output.obj
 0001:0004c1d0       ?find_next_state@?$output_processor@_WV?$string_output_adapter@_W@__crt_stdio_output@@V?$standard_base@_WV?$string_output_adapter@_W@__crt_stdio_output@@@2@@__crt_stdio_output@@ABE?AW4state@2@_WW432@@Z 1004d1d0 f i libucrtd:output.obj
 0001:0004c240       ?force_decimal_point@__crt_stdio_output@@YAXPADQAU__crt_locale_pointers@@@Z 1004d240 f i libucrtd:output.obj
 0001:0004c310       ?get@__crt_deferred_errno_cache@@QAEAAHXZ 1004d310 f i libucrtd:output.obj
 0001:0004c340       ?get_flags@__crt_stdio_stream@@QBEJXZ 1004d340 f i libucrtd:output.obj
 0001:0004c360       ?get_parameter_type@?$positional_parameter_base@DV?$stream_output_adapter@D@__crt_stdio_output@@@__crt_stdio_output@@CA?AW4parameter_type@12@F@Z 1004d360 f i libucrtd:output.obj
 0001:0004c370       ?get_parameter_type@?$positional_parameter_base@DV?$stream_output_adapter@D@__crt_stdio_output@@@__crt_stdio_output@@CA?AW4parameter_type@12@G@Z 1004d370 f i libucrtd:output.obj
 0001:0004c380       ?get_parameter_type@?$positional_parameter_base@DV?$stream_output_adapter@D@__crt_stdio_output@@@__crt_stdio_output@@CA?AW4parameter_type@12@H@Z 1004d380 f i libucrtd:output.obj
 0001:0004c390       ?get_parameter_type@?$positional_parameter_base@DV?$stream_output_adapter@D@__crt_stdio_output@@@__crt_stdio_output@@CA?AW4parameter_type@12@I@Z 1004d390 f i libucrtd:output.obj
 0001:0004c3a0       ?get_parameter_type@?$positional_parameter_base@DV?$stream_output_adapter@D@__crt_stdio_output@@@__crt_stdio_output@@CA?AW4parameter_type@12@U_CRT_DOUBLE@@@Z 1004d3a0 f i libucrtd:output.obj
 0001:0004c3b0       ?get_parameter_type@?$positional_parameter_base@DV?$stream_output_adapter@D@__crt_stdio_output@@@__crt_stdio_output@@CA?AW4parameter_type@12@_J@Z 1004d3b0 f i libucrtd:output.obj
 0001:0004c3c0       ?get_parameter_type@?$positional_parameter_base@DV?$stream_output_adapter@D@__crt_stdio_output@@@__crt_stdio_output@@CA?AW4parameter_type@12@_K@Z 1004d3c0 f i libucrtd:output.obj
 0001:0004c3d0       ?get_parameter_type@?$positional_parameter_base@DV?$stream_output_adapter@D@__crt_stdio_output@@@__crt_stdio_output@@CA?AW4parameter_type@12@_W@Z 1004d3d0 f i libucrtd:output.obj
 0001:0004c3e0       ?get_parameter_type@?$positional_parameter_base@DV?$string_output_adapter@D@__crt_stdio_output@@@__crt_stdio_output@@CA?AW4parameter_type@12@F@Z 1004d3e0 f i libucrtd:output.obj
 0001:0004c3f0       ?get_parameter_type@?$positional_parameter_base@DV?$string_output_adapter@D@__crt_stdio_output@@@__crt_stdio_output@@CA?AW4parameter_type@12@G@Z 1004d3f0 f i libucrtd:output.obj
 0001:0004c400       ?get_parameter_type@?$positional_parameter_base@DV?$string_output_adapter@D@__crt_stdio_output@@@__crt_stdio_output@@CA?AW4parameter_type@12@H@Z 1004d400 f i libucrtd:output.obj
 0001:0004c410       ?get_parameter_type@?$positional_parameter_base@DV?$string_output_adapter@D@__crt_stdio_output@@@__crt_stdio_output@@CA?AW4parameter_type@12@I@Z 1004d410 f i libucrtd:output.obj
 0001:0004c420       ?get_parameter_type@?$positional_parameter_base@DV?$string_output_adapter@D@__crt_stdio_output@@@__crt_stdio_output@@CA?AW4parameter_type@12@U_CRT_DOUBLE@@@Z 1004d420 f i libucrtd:output.obj
 0001:0004c430       ?get_parameter_type@?$positional_parameter_base@DV?$string_output_adapter@D@__crt_stdio_output@@@__crt_stdio_output@@CA?AW4parameter_type@12@_J@Z 1004d430 f i libucrtd:output.obj
 0001:0004c440       ?get_parameter_type@?$positional_parameter_base@DV?$string_output_adapter@D@__crt_stdio_output@@@__crt_stdio_output@@CA?AW4parameter_type@12@_K@Z 1004d440 f i libucrtd:output.obj
 0001:0004c450       ?get_parameter_type@?$positional_parameter_base@DV?$string_output_adapter@D@__crt_stdio_output@@@__crt_stdio_output@@CA?AW4parameter_type@12@_W@Z 1004d450 f i libucrtd:output.obj
 0001:0004c460       ?get_parameter_type@?$positional_parameter_base@_WV?$stream_output_adapter@_W@__crt_stdio_output@@@__crt_stdio_output@@CA?AW4parameter_type@12@F@Z 1004d460 f i libucrtd:output.obj
 0001:0004c470       ?get_parameter_type@?$positional_parameter_base@_WV?$stream_output_adapter@_W@__crt_stdio_output@@@__crt_stdio_output@@CA?AW4parameter_type@12@G@Z 1004d470 f i libucrtd:output.obj
 0001:0004c480       ?get_parameter_type@?$positional_parameter_base@_WV?$stream_output_adapter@_W@__crt_stdio_output@@@__crt_stdio_output@@CA?AW4parameter_type@12@H@Z 1004d480 f i libucrtd:output.obj
 0001:0004c490       ?get_parameter_type@?$positional_parameter_base@_WV?$stream_output_adapter@_W@__crt_stdio_output@@@__crt_stdio_output@@CA?AW4parameter_type@12@I@Z 1004d490 f i libucrtd:output.obj
 0001:0004c4a0       ?get_parameter_type@?$positional_parameter_base@_WV?$stream_output_adapter@_W@__crt_stdio_output@@@__crt_stdio_output@@CA?AW4parameter_type@12@U_CRT_DOUBLE@@@Z 1004d4a0 f i libucrtd:output.obj
 0001:0004c4b0       ?get_parameter_type@?$positional_parameter_base@_WV?$stream_output_adapter@_W@__crt_stdio_output@@@__crt_stdio_output@@CA?AW4parameter_type@12@_J@Z 1004d4b0 f i libucrtd:output.obj
 0001:0004c4c0       ?get_parameter_type@?$positional_parameter_base@_WV?$stream_output_adapter@_W@__crt_stdio_output@@@__crt_stdio_output@@CA?AW4parameter_type@12@_K@Z 1004d4c0 f i libucrtd:output.obj
 0001:0004c4d0       ?get_parameter_type@?$positional_parameter_base@_WV?$stream_output_adapter@_W@__crt_stdio_output@@@__crt_stdio_output@@CA?AW4parameter_type@12@_W@Z 1004d4d0 f i libucrtd:output.obj
 0001:0004c4e0       ?get_parameter_type@?$positional_parameter_base@_WV?$string_output_adapter@_W@__crt_stdio_output@@@__crt_stdio_output@@CA?AW4parameter_type@12@F@Z 1004d4e0 f i libucrtd:output.obj
 0001:0004c4f0       ?get_parameter_type@?$positional_parameter_base@_WV?$string_output_adapter@_W@__crt_stdio_output@@@__crt_stdio_output@@CA?AW4parameter_type@12@G@Z 1004d4f0 f i libucrtd:output.obj
 0001:0004c500       ?get_parameter_type@?$positional_parameter_base@_WV?$string_output_adapter@_W@__crt_stdio_output@@@__crt_stdio_output@@CA?AW4parameter_type@12@H@Z 1004d500 f i libucrtd:output.obj
 0001:0004c510       ?get_parameter_type@?$positional_parameter_base@_WV?$string_output_adapter@_W@__crt_stdio_output@@@__crt_stdio_output@@CA?AW4parameter_type@12@I@Z 1004d510 f i libucrtd:output.obj
 0001:0004c520       ?get_parameter_type@?$positional_parameter_base@_WV?$string_output_adapter@_W@__crt_stdio_output@@@__crt_stdio_output@@CA?AW4parameter_type@12@U_CRT_DOUBLE@@@Z 1004d520 f i libucrtd:output.obj
 0001:0004c530       ?get_parameter_type@?$positional_parameter_base@_WV?$string_output_adapter@_W@__crt_stdio_output@@@__crt_stdio_output@@CA?AW4parameter_type@12@_J@Z 1004d530 f i libucrtd:output.obj
 0001:0004c540       ?get_parameter_type@?$positional_parameter_base@_WV?$string_output_adapter@_W@__crt_stdio_output@@@__crt_stdio_output@@CA?AW4parameter_type@12@_K@Z 1004d540 f i libucrtd:output.obj
 0001:0004c550       ?get_parameter_type@?$positional_parameter_base@_WV?$string_output_adapter@_W@__crt_stdio_output@@@__crt_stdio_output@@CA?AW4parameter_type@12@_W@Z 1004d550 f i libucrtd:output.obj
 0001:0004c560       ?has_flag@?$output_processor@DV?$stream_output_adapter@D@__crt_stdio_output@@V?$format_validation_base@DV?$stream_output_adapter@D@__crt_stdio_output@@@2@@__crt_stdio_output@@ABE_NI@Z 1004d560 f i libucrtd:output.obj
 0001:0004c590       ?has_flag@?$output_processor@DV?$stream_output_adapter@D@__crt_stdio_output@@V?$positional_parameter_base@DV?$stream_output_adapter@D@__crt_stdio_output@@@2@@__crt_stdio_output@@ABE_NI@Z 1004d590 f i libucrtd:output.obj
 0001:0004c5c0       ?has_flag@?$output_processor@DV?$stream_output_adapter@D@__crt_stdio_output@@V?$standard_base@DV?$stream_output_adapter@D@__crt_stdio_output@@@2@@__crt_stdio_output@@ABE_NI@Z 1004d5c0 f i libucrtd:output.obj
 0001:0004c5f0       ?has_flag@?$output_processor@DV?$string_output_adapter@D@__crt_stdio_output@@V?$format_validation_base@DV?$string_output_adapter@D@__crt_stdio_output@@@2@@__crt_stdio_output@@ABE_NI@Z 1004d5f0 f i libucrtd:output.obj
 0001:0004c620       ?has_flag@?$output_processor@DV?$string_output_adapter@D@__crt_stdio_output@@V?$positional_parameter_base@DV?$string_output_adapter@D@__crt_stdio_output@@@2@@__crt_stdio_output@@ABE_NI@Z 1004d620 f i libucrtd:output.obj
 0001:0004c650       ?has_flag@?$output_processor@DV?$string_output_adapter@D@__crt_stdio_output@@V?$standard_base@DV?$string_output_adapter@D@__crt_stdio_output@@@2@@__crt_stdio_output@@ABE_NI@Z 1004d650 f i libucrtd:output.obj
 0001:0004c680       ?has_flag@?$output_processor@_WV?$stream_output_adapter@_W@__crt_stdio_output@@V?$format_validation_base@_WV?$stream_output_adapter@_W@__crt_stdio_output@@@2@@__crt_stdio_output@@ABE_NI@Z 1004d680 f i libucrtd:output.obj
 0001:0004c6b0       ?has_flag@?$output_processor@_WV?$stream_output_adapter@_W@__crt_stdio_output@@V?$positional_parameter_base@_WV?$stream_output_adapter@_W@__crt_stdio_output@@@2@@__crt_stdio_output@@ABE_NI@Z 1004d6b0 f i libucrtd:output.obj
 0001:0004c6e0       ?has_flag@?$output_processor@_WV?$stream_output_adapter@_W@__crt_stdio_output@@V?$standard_base@_WV?$stream_output_adapter@_W@__crt_stdio_output@@@2@@__crt_stdio_output@@ABE_NI@Z 1004d6e0 f i libucrtd:output.obj
 0001:0004c710       ?has_flag@?$output_processor@_WV?$string_output_adapter@_W@__crt_stdio_output@@V?$format_validation_base@_WV?$string_output_adapter@_W@__crt_stdio_output@@@2@@__crt_stdio_output@@ABE_NI@Z 1004d710 f i libucrtd:output.obj
 0001:0004c740       ?has_flag@?$output_processor@_WV?$string_output_adapter@_W@__crt_stdio_output@@V?$positional_parameter_base@_WV?$string_output_adapter@_W@__crt_stdio_output@@@2@@__crt_stdio_output@@ABE_NI@Z 1004d740 f i libucrtd:output.obj
 0001:0004c770       ?has_flag@?$output_processor@_WV?$string_output_adapter@_W@__crt_stdio_output@@V?$standard_base@_WV?$string_output_adapter@_W@__crt_stdio_output@@@2@@__crt_stdio_output@@ABE_NI@Z 1004d770 f i libucrtd:output.obj
 0001:0004c7a0       ?is_positional_parameter_reappearance_consistent@?$positional_parameter_base@DV?$stream_output_adapter@D@__crt_stdio_output@@@__crt_stdio_output@@AAE_NABUparameter_data@12@W4parameter_type@12@DW4length_modifier@2@@Z 1004d7a0 f i libucrtd:output.obj
 0001:0004c9d0       ?is_positional_parameter_reappearance_consistent@?$positional_parameter_base@DV?$string_output_adapter@D@__crt_stdio_output@@@__crt_stdio_output@@AAE_NABUparameter_data@12@W4parameter_type@12@DW4length_modifier@2@@Z 1004d9d0 f i libucrtd:output.obj
 0001:0004cc00       ?is_positional_parameter_reappearance_consistent@?$positional_parameter_base@_WV?$stream_output_adapter@_W@__crt_stdio_output@@@__crt_stdio_output@@AAE_NABUparameter_data@12@W4parameter_type@12@_WW4length_modifier@2@@Z 1004dc00 f i libucrtd:output.obj
 0001:0004ce30       ?is_positional_parameter_reappearance_consistent@?$positional_parameter_base@_WV?$string_output_adapter@_W@__crt_stdio_output@@@__crt_stdio_output@@AAE_NABUparameter_data@12@W4parameter_type@12@_WW4length_modifier@2@@Z 1004de30 f i libucrtd:output.obj
 0001:0004d060       ?is_string_backed@__crt_stdio_stream@@QBE_NXZ 1004e060 f i libucrtd:output.obj
 0001:0004d0a0       ?narrow_null_string@?$output_processor@DV?$stream_output_adapter@D@__crt_stdio_output@@V?$format_validation_base@DV?$stream_output_adapter@D@__crt_stdio_output@@@2@@__crt_stdio_output@@CAPADXZ 1004e0a0 f i libucrtd:output.obj
 0001:0004d0b0       ?narrow_null_string@?$output_processor@DV?$stream_output_adapter@D@__crt_stdio_output@@V?$positional_parameter_base@DV?$stream_output_adapter@D@__crt_stdio_output@@@2@@__crt_stdio_output@@CAPADXZ 1004e0b0 f i libucrtd:output.obj
 0001:0004d0c0       ?narrow_null_string@?$output_processor@DV?$stream_output_adapter@D@__crt_stdio_output@@V?$standard_base@DV?$stream_output_adapter@D@__crt_stdio_output@@@2@@__crt_stdio_output@@CAPADXZ 1004e0c0 f i libucrtd:output.obj
 0001:0004d0d0       ?narrow_null_string@?$output_processor@DV?$string_output_adapter@D@__crt_stdio_output@@V?$format_validation_base@DV?$string_output_adapter@D@__crt_stdio_output@@@2@@__crt_stdio_output@@CAPADXZ 1004e0d0 f i libucrtd:output.obj
 0001:0004d0e0       ?narrow_null_string@?$output_processor@DV?$string_output_adapter@D@__crt_stdio_output@@V?$positional_parameter_base@DV?$string_output_adapter@D@__crt_stdio_output@@@2@@__crt_stdio_output@@CAPADXZ 1004e0e0 f i libucrtd:output.obj
 0001:0004d0f0       ?narrow_null_string@?$output_processor@DV?$string_output_adapter@D@__crt_stdio_output@@V?$standard_base@DV?$string_output_adapter@D@__crt_stdio_output@@@2@@__crt_stdio_output@@CAPADXZ 1004e0f0 f i libucrtd:output.obj
 0001:0004d100       ?narrow_null_string@?$output_processor@_WV?$stream_output_adapter@_W@__crt_stdio_output@@V?$format_validation_base@_WV?$stream_output_adapter@_W@__crt_stdio_output@@@2@@__crt_stdio_output@@CAPADXZ 1004e100 f i libucrtd:output.obj
 0001:0004d110       ?narrow_null_string@?$output_processor@_WV?$stream_output_adapter@_W@__crt_stdio_output@@V?$positional_parameter_base@_WV?$stream_output_adapter@_W@__crt_stdio_output@@@2@@__crt_stdio_output@@CAPADXZ 1004e110 f i libucrtd:output.obj
 0001:0004d120       ?narrow_null_string@?$output_processor@_WV?$stream_output_adapter@_W@__crt_stdio_output@@V?$standard_base@_WV?$stream_output_adapter@_W@__crt_stdio_output@@@2@@__crt_stdio_output@@CAPADXZ 1004e120 f i libucrtd:output.obj
 0001:0004d130       ?narrow_null_string@?$output_processor@_WV?$string_output_adapter@_W@__crt_stdio_output@@V?$format_validation_base@_WV?$string_output_adapter@_W@__crt_stdio_output@@@2@@__crt_stdio_output@@CAPADXZ 1004e130 f i libucrtd:output.obj
 0001:0004d140       ?narrow_null_string@?$output_processor@_WV?$string_output_adapter@_W@__crt_stdio_output@@V?$positional_parameter_base@_WV?$string_output_adapter@_W@__crt_stdio_output@@@2@@__crt_stdio_output@@CAPADXZ 1004e140 f i libucrtd:output.obj
 0001:0004d150       ?narrow_null_string@?$output_processor@_WV?$string_output_adapter@_W@__crt_stdio_output@@V?$standard_base@_WV?$string_output_adapter@_W@__crt_stdio_output@@@2@@__crt_stdio_output@@CAPADXZ 1004e150 f i libucrtd:output.obj
 0001:0004d160       ?parse_int_from_format_string@?$output_processor@DV?$stream_output_adapter@D@__crt_stdio_output@@V?$format_validation_base@DV?$stream_output_adapter@D@__crt_stdio_output@@@2@@__crt_stdio_output@@AAE_NQAH@Z 1004e160 f i libucrtd:output.obj
 0001:0004d220       ?parse_int_from_format_string@?$output_processor@DV?$stream_output_adapter@D@__crt_stdio_output@@V?$positional_parameter_base@DV?$stream_output_adapter@D@__crt_stdio_output@@@2@@__crt_stdio_output@@AAE_NQAH@Z 1004e220 f i libucrtd:output.obj
 0001:0004d2e0       ?parse_int_from_format_string@?$output_processor@DV?$stream_output_adapter@D@__crt_stdio_output@@V?$standard_base@DV?$stream_output_adapter@D@__crt_stdio_output@@@2@@__crt_stdio_output@@AAE_NQAH@Z 1004e2e0 f i libucrtd:output.obj
 0001:0004d3a0       ?parse_int_from_format_string@?$output_processor@DV?$string_output_adapter@D@__crt_stdio_output@@V?$format_validation_base@DV?$string_output_adapter@D@__crt_stdio_output@@@2@@__crt_stdio_output@@AAE_NQAH@Z 1004e3a0 f i libucrtd:output.obj
 0001:0004d460       ?parse_int_from_format_string@?$output_processor@DV?$string_output_adapter@D@__crt_stdio_output@@V?$positional_parameter_base@DV?$string_output_adapter@D@__crt_stdio_output@@@2@@__crt_stdio_output@@AAE_NQAH@Z 1004e460 f i libucrtd:output.obj
 0001:0004d520       ?parse_int_from_format_string@?$output_processor@DV?$string_output_adapter@D@__crt_stdio_output@@V?$standard_base@DV?$string_output_adapter@D@__crt_stdio_output@@@2@@__crt_stdio_output@@AAE_NQAH@Z 1004e520 f i libucrtd:output.obj
 0001:0004d5e0       ?parse_int_from_format_string@?$output_processor@_WV?$stream_output_adapter@_W@__crt_stdio_output@@V?$format_validation_base@_WV?$stream_output_adapter@_W@__crt_stdio_output@@@2@@__crt_stdio_output@@AAE_NQAH@Z 1004e5e0 f i libucrtd:output.obj
 0001:0004d6a0       ?parse_int_from_format_string@?$output_processor@_WV?$stream_output_adapter@_W@__crt_stdio_output@@V?$positional_parameter_base@_WV?$stream_output_adapter@_W@__crt_stdio_output@@@2@@__crt_stdio_output@@AAE_NQAH@Z 1004e6a0 f i libucrtd:output.obj
 0001:0004d760       ?parse_int_from_format_string@?$output_processor@_WV?$stream_output_adapter@_W@__crt_stdio_output@@V?$standard_base@_WV?$stream_output_adapter@_W@__crt_stdio_output@@@2@@__crt_stdio_output@@AAE_NQAH@Z 1004e760 f i libucrtd:output.obj
 0001:0004d820       ?parse_int_from_format_string@?$output_processor@_WV?$string_output_adapter@_W@__crt_stdio_output@@V?$format_validation_base@_WV?$string_output_adapter@_W@__crt_stdio_output@@@2@@__crt_stdio_output@@AAE_NQAH@Z 1004e820 f i libucrtd:output.obj
 0001:0004d8e0       ?parse_int_from_format_string@?$output_processor@_WV?$string_output_adapter@_W@__crt_stdio_output@@V?$positional_parameter_base@_WV?$string_output_adapter@_W@__crt_stdio_output@@@2@@__crt_stdio_output@@AAE_NQAH@Z 1004e8e0 f i libucrtd:output.obj
 0001:0004d9a0       ?parse_int_from_format_string@?$output_processor@_WV?$string_output_adapter@_W@__crt_stdio_output@@V?$standard_base@_WV?$string_output_adapter@_W@__crt_stdio_output@@@2@@__crt_stdio_output@@AAE_NQAH@Z 1004e9a0 f i libucrtd:output.obj
 0001:0004da60       ?process@?$output_processor@DV?$stream_output_adapter@D@__crt_stdio_output@@V?$format_validation_base@DV?$stream_output_adapter@D@__crt_stdio_output@@@2@@__crt_stdio_output@@QAEHXZ 1004ea60 f i libucrtd:output.obj
 0001:0004dd10       ?process@?$output_processor@DV?$stream_output_adapter@D@__crt_stdio_output@@V?$positional_parameter_base@DV?$stream_output_adapter@D@__crt_stdio_output@@@2@@__crt_stdio_output@@QAEHXZ 1004ed10 f i libucrtd:output.obj
 0001:0004dfc0       ?process@?$output_processor@DV?$stream_output_adapter@D@__crt_stdio_output@@V?$standard_base@DV?$stream_output_adapter@D@__crt_stdio_output@@@2@@__crt_stdio_output@@QAEHXZ 1004efc0 f i libucrtd:output.obj
 0001:0004e270       ?process@?$output_processor@DV?$string_output_adapter@D@__crt_stdio_output@@V?$format_validation_base@DV?$string_output_adapter@D@__crt_stdio_output@@@2@@__crt_stdio_output@@QAEHXZ 1004f270 f i libucrtd:output.obj
 0001:0004e520       ?process@?$output_processor@DV?$string_output_adapter@D@__crt_stdio_output@@V?$positional_parameter_base@DV?$string_output_adapter@D@__crt_stdio_output@@@2@@__crt_stdio_output@@QAEHXZ 1004f520 f i libucrtd:output.obj
 0001:0004e7d0       ?process@?$output_processor@DV?$string_output_adapter@D@__crt_stdio_output@@V?$standard_base@DV?$string_output_adapter@D@__crt_stdio_output@@@2@@__crt_stdio_output@@QAEHXZ 1004f7d0 f i libucrtd:output.obj
 0001:0004ea80       ?process@?$output_processor@_WV?$stream_output_adapter@_W@__crt_stdio_output@@V?$format_validation_base@_WV?$stream_output_adapter@_W@__crt_stdio_output@@@2@@__crt_stdio_output@@QAEHXZ 1004fa80 f i libucrtd:output.obj
 0001:0004ed30       ?process@?$output_processor@_WV?$stream_output_adapter@_W@__crt_stdio_output@@V?$positional_parameter_base@_WV?$stream_output_adapter@_W@__crt_stdio_output@@@2@@__crt_stdio_output@@QAEHXZ 1004fd30 f i libucrtd:output.obj
 0001:0004efe0       ?process@?$output_processor@_WV?$stream_output_adapter@_W@__crt_stdio_output@@V?$standard_base@_WV?$stream_output_adapter@_W@__crt_stdio_output@@@2@@__crt_stdio_output@@QAEHXZ 1004ffe0 f i libucrtd:output.obj
 0001:0004f290       ?process@?$output_processor@_WV?$string_output_adapter@_W@__crt_stdio_output@@V?$format_validation_base@_WV?$string_output_adapter@_W@__crt_stdio_output@@@2@@__crt_stdio_output@@QAEHXZ 10050290 f i libucrtd:output.obj
 0001:0004f540       ?process@?$output_processor@_WV?$string_output_adapter@_W@__crt_stdio_output@@V?$positional_parameter_base@_WV?$string_output_adapter@_W@__crt_stdio_output@@@2@@__crt_stdio_output@@QAEHXZ 10050540 f i libucrtd:output.obj
 0001:0004f7f0       ?process@?$output_processor@_WV?$string_output_adapter@_W@__crt_stdio_output@@V?$standard_base@_WV?$string_output_adapter@_W@__crt_stdio_output@@@2@@__crt_stdio_output@@QAEHXZ 100507f0 f i libucrtd:output.obj
 0001:0004faa0       ?public_stream@__crt_stdio_stream@@QBEPAU_iobuf@@XZ 10050aa0 f i libucrtd:output.obj
 0001:0004fac0       ?set_flag@?$output_processor@DV?$stream_output_adapter@D@__crt_stdio_output@@V?$format_validation_base@DV?$stream_output_adapter@D@__crt_stdio_output@@@2@@__crt_stdio_output@@AAEXI@Z 10050ac0 f i libucrtd:output.obj
 0001:0004fae0       ?set_flag@?$output_processor@DV?$stream_output_adapter@D@__crt_stdio_output@@V?$positional_parameter_base@DV?$stream_output_adapter@D@__crt_stdio_output@@@2@@__crt_stdio_output@@AAEXI@Z 10050ae0 f i libucrtd:output.obj
 0001:0004fb00       ?set_flag@?$output_processor@DV?$stream_output_adapter@D@__crt_stdio_output@@V?$standard_base@DV?$stream_output_adapter@D@__crt_stdio_output@@@2@@__crt_stdio_output@@AAEXI@Z 10050b00 f i libucrtd:output.obj
 0001:0004fb20       ?set_flag@?$output_processor@DV?$string_output_adapter@D@__crt_stdio_output@@V?$format_validation_base@DV?$string_output_adapter@D@__crt_stdio_output@@@2@@__crt_stdio_output@@AAEXI@Z 10050b20 f i libucrtd:output.obj
 0001:0004fb40       ?set_flag@?$output_processor@DV?$string_output_adapter@D@__crt_stdio_output@@V?$positional_parameter_base@DV?$string_output_adapter@D@__crt_stdio_output@@@2@@__crt_stdio_output@@AAEXI@Z 10050b40 f i libucrtd:output.obj
 0001:0004fb60       ?set_flag@?$output_processor@DV?$string_output_adapter@D@__crt_stdio_output@@V?$standard_base@DV?$string_output_adapter@D@__crt_stdio_output@@@2@@__crt_stdio_output@@AAEXI@Z 10050b60 f i libucrtd:output.obj
 0001:0004fb80       ?set_flag@?$output_processor@_WV?$stream_output_adapter@_W@__crt_stdio_output@@V?$format_validation_base@_WV?$stream_output_adapter@_W@__crt_stdio_output@@@2@@__crt_stdio_output@@AAEXI@Z 10050b80 f i libucrtd:output.obj
 0001:0004fba0       ?set_flag@?$output_processor@_WV?$stream_output_adapter@_W@__crt_stdio_output@@V?$positional_parameter_base@_WV?$stream_output_adapter@_W@__crt_stdio_output@@@2@@__crt_stdio_output@@AAEXI@Z 10050ba0 f i libucrtd:output.obj
 0001:0004fbc0       ?set_flag@?$output_processor@_WV?$stream_output_adapter@_W@__crt_stdio_output@@V?$standard_base@_WV?$stream_output_adapter@_W@__crt_stdio_output@@@2@@__crt_stdio_output@@AAEXI@Z 10050bc0 f i libucrtd:output.obj
 0001:0004fbe0       ?set_flag@?$output_processor@_WV?$string_output_adapter@_W@__crt_stdio_output@@V?$format_validation_base@_WV?$string_output_adapter@_W@__crt_stdio_output@@@2@@__crt_stdio_output@@AAEXI@Z 10050be0 f i libucrtd:output.obj
 0001:0004fc00       ?set_flag@?$output_processor@_WV?$string_output_adapter@_W@__crt_stdio_output@@V?$positional_parameter_base@_WV?$string_output_adapter@_W@__crt_stdio_output@@@2@@__crt_stdio_output@@AAEXI@Z 10050c00 f i libucrtd:output.obj
 0001:0004fc20       ?set_flag@?$output_processor@_WV?$string_output_adapter@_W@__crt_stdio_output@@V?$standard_base@_WV?$string_output_adapter@_W@__crt_stdio_output@@@2@@__crt_stdio_output@@AAEXI@Z 10050c20 f i libucrtd:output.obj
 0001:0004fc40       ?should_format@?$positional_parameter_base@DV?$stream_output_adapter@D@__crt_stdio_output@@@__crt_stdio_output@@IAE_NXZ 10050c40 f i libucrtd:output.obj
 0001:0004fc80       ?should_format@?$positional_parameter_base@DV?$string_output_adapter@D@__crt_stdio_output@@@__crt_stdio_output@@IAE_NXZ 10050c80 f i libucrtd:output.obj
 0001:0004fcc0       ?should_format@?$positional_parameter_base@_WV?$stream_output_adapter@_W@__crt_stdio_output@@@__crt_stdio_output@@IAE_NXZ 10050cc0 f i libucrtd:output.obj
 0001:0004fd00       ?should_format@?$positional_parameter_base@_WV?$string_output_adapter@_W@__crt_stdio_output@@@__crt_stdio_output@@IAE_NXZ 10050d00 f i libucrtd:output.obj
 0001:0004fd40       ?should_format@?$standard_base@DV?$stream_output_adapter@D@__crt_stdio_output@@@__crt_stdio_output@@IAE_NXZ 10050d40 f i libucrtd:output.obj
 0001:0004fd50       ?should_format@?$standard_base@DV?$string_output_adapter@D@__crt_stdio_output@@@__crt_stdio_output@@IAE_NXZ 10050d50 f i libucrtd:output.obj
 0001:0004fd60       ?should_format@?$standard_base@_WV?$stream_output_adapter@_W@__crt_stdio_output@@@__crt_stdio_output@@IAE_NXZ 10050d60 f i libucrtd:output.obj
 0001:0004fd70       ?should_format@?$standard_base@_WV?$string_output_adapter@_W@__crt_stdio_output@@@__crt_stdio_output@@IAE_NXZ 10050d70 f i libucrtd:output.obj
 0001:0004fd80       ?should_skip_normal_state_processing@?$positional_parameter_base@DV?$stream_output_adapter@D@__crt_stdio_output@@@__crt_stdio_output@@IAE_NXZ 10050d80 f i libucrtd:output.obj
 0001:0004fdd0       ?should_skip_normal_state_processing@?$positional_parameter_base@DV?$string_output_adapter@D@__crt_stdio_output@@@__crt_stdio_output@@IAE_NXZ 10050dd0 f i libucrtd:output.obj
 0001:0004fe20       ?should_skip_normal_state_processing@?$positional_parameter_base@_WV?$stream_output_adapter@_W@__crt_stdio_output@@@__crt_stdio_output@@IAE_NXZ 10050e20 f i libucrtd:output.obj
 0001:0004fe70       ?should_skip_normal_state_processing@?$positional_parameter_base@_WV?$string_output_adapter@_W@__crt_stdio_output@@@__crt_stdio_output@@IAE_NXZ 10050e70 f i libucrtd:output.obj
 0001:0004fec0       ?should_skip_normal_state_processing@?$standard_base@DV?$stream_output_adapter@D@__crt_stdio_output@@@__crt_stdio_output@@IAE_NXZ 10050ec0 f i libucrtd:output.obj
 0001:0004fed0       ?should_skip_normal_state_processing@?$standard_base@DV?$string_output_adapter@D@__crt_stdio_output@@@__crt_stdio_output@@IAE_NXZ 10050ed0 f i libucrtd:output.obj
 0001:0004fee0       ?should_skip_normal_state_processing@?$standard_base@_WV?$stream_output_adapter@_W@__crt_stdio_output@@@__crt_stdio_output@@IAE_NXZ 10050ee0 f i libucrtd:output.obj
 0001:0004fef0       ?should_skip_normal_state_processing@?$standard_base@_WV?$string_output_adapter@_W@__crt_stdio_output@@@__crt_stdio_output@@IAE_NXZ 10050ef0 f i libucrtd:output.obj
 0001:0004ff00       ?should_skip_type_state_output@?$positional_parameter_base@DV?$stream_output_adapter@D@__crt_stdio_output@@@__crt_stdio_output@@IBE_NXZ 10050f00 f i libucrtd:output.obj
 0001:0004ff40       ?should_skip_type_state_output@?$positional_parameter_base@DV?$string_output_adapter@D@__crt_stdio_output@@@__crt_stdio_output@@IBE_NXZ 10050f40 f i libucrtd:output.obj
 0001:0004ff80       ?should_skip_type_state_output@?$positional_parameter_base@_WV?$stream_output_adapter@_W@__crt_stdio_output@@@__crt_stdio_output@@IBE_NXZ 10050f80 f i libucrtd:output.obj
 0001:0004ffc0       ?should_skip_type_state_output@?$positional_parameter_base@_WV?$string_output_adapter@_W@__crt_stdio_output@@@__crt_stdio_output@@IBE_NXZ 10050fc0 f i libucrtd:output.obj
 0001:00050000       ?should_skip_type_state_output@?$standard_base@DV?$stream_output_adapter@D@__crt_stdio_output@@@__crt_stdio_output@@IBE_NXZ 10051000 f i libucrtd:output.obj
 0001:00050010       ?should_skip_type_state_output@?$standard_base@DV?$string_output_adapter@D@__crt_stdio_output@@@__crt_stdio_output@@IBE_NXZ 10051010 f i libucrtd:output.obj
 0001:00050020       ?should_skip_type_state_output@?$standard_base@_WV?$stream_output_adapter@_W@__crt_stdio_output@@@__crt_stdio_output@@IBE_NXZ 10051020 f i libucrtd:output.obj
 0001:00050030       ?should_skip_type_state_output@?$standard_base@_WV?$string_output_adapter@_W@__crt_stdio_output@@@__crt_stdio_output@@IBE_NXZ 10051030 f i libucrtd:output.obj
 0001:00050040       ?state_case_dot@?$output_processor@DV?$stream_output_adapter@D@__crt_stdio_output@@V?$format_validation_base@DV?$stream_output_adapter@D@__crt_stdio_output@@@2@@__crt_stdio_output@@AAE_NXZ 10051040 f i libucrtd:output.obj
 0001:00050060       ?state_case_dot@?$output_processor@DV?$stream_output_adapter@D@__crt_stdio_output@@V?$positional_parameter_base@DV?$stream_output_adapter@D@__crt_stdio_output@@@2@@__crt_stdio_output@@AAE_NXZ 10051060 f i libucrtd:output.obj
 0001:00050080       ?state_case_dot@?$output_processor@DV?$stream_output_adapter@D@__crt_stdio_output@@V?$standard_base@DV?$stream_output_adapter@D@__crt_stdio_output@@@2@@__crt_stdio_output@@AAE_NXZ 10051080 f i libucrtd:output.obj
 0001:000500a0       ?state_case_dot@?$output_processor@DV?$string_output_adapter@D@__crt_stdio_output@@V?$format_validation_base@DV?$string_output_adapter@D@__crt_stdio_output@@@2@@__crt_stdio_output@@AAE_NXZ 100510a0 f i libucrtd:output.obj
 0001:000500c0       ?state_case_dot@?$output_processor@DV?$string_output_adapter@D@__crt_stdio_output@@V?$positional_parameter_base@DV?$string_output_adapter@D@__crt_stdio_output@@@2@@__crt_stdio_output@@AAE_NXZ 100510c0 f i libucrtd:output.obj
 0001:000500e0       ?state_case_dot@?$output_processor@DV?$string_output_adapter@D@__crt_stdio_output@@V?$standard_base@DV?$string_output_adapter@D@__crt_stdio_output@@@2@@__crt_stdio_output@@AAE_NXZ 100510e0 f i libucrtd:output.obj
 0001:00050100       ?state_case_dot@?$output_processor@_WV?$stream_output_adapter@_W@__crt_stdio_output@@V?$format_validation_base@_WV?$stream_output_adapter@_W@__crt_stdio_output@@@2@@__crt_stdio_output@@AAE_NXZ 10051100 f i libucrtd:output.obj
 0001:00050120       ?state_case_dot@?$output_processor@_WV?$stream_output_adapter@_W@__crt_stdio_output@@V?$positional_parameter_base@_WV?$stream_output_adapter@_W@__crt_stdio_output@@@2@@__crt_stdio_output@@AAE_NXZ 10051120 f i libucrtd:output.obj
 0001:00050140       ?state_case_dot@?$output_processor@_WV?$stream_output_adapter@_W@__crt_stdio_output@@V?$standard_base@_WV?$stream_output_adapter@_W@__crt_stdio_output@@@2@@__crt_stdio_output@@AAE_NXZ 10051140 f i libucrtd:output.obj
 0001:00050160       ?state_case_dot@?$output_processor@_WV?$string_output_adapter@_W@__crt_stdio_output@@V?$format_validation_base@_WV?$string_output_adapter@_W@__crt_stdio_output@@@2@@__crt_stdio_output@@AAE_NXZ 10051160 f i libucrtd:output.obj
 0001:00050180       ?state_case_dot@?$output_processor@_WV?$string_output_adapter@_W@__crt_stdio_output@@V?$positional_parameter_base@_WV?$string_output_adapter@_W@__crt_stdio_output@@@2@@__crt_stdio_output@@AAE_NXZ 10051180 f i libucrtd:output.obj
 0001:000501a0       ?state_case_dot@?$output_processor@_WV?$string_output_adapter@_W@__crt_stdio_output@@V?$standard_base@_WV?$string_output_adapter@_W@__crt_stdio_output@@@2@@__crt_stdio_output@@AAE_NXZ 100511a0 f i libucrtd:output.obj
 0001:000501c0       ?state_case_flag@?$output_processor@DV?$stream_output_adapter@D@__crt_stdio_output@@V?$format_validation_base@DV?$stream_output_adapter@D@__crt_stdio_output@@@2@@__crt_stdio_output@@AAE_NXZ 100511c0 f i libucrtd:output.obj
 0001:00050270       ?state_case_flag@?$output_processor@DV?$stream_output_adapter@D@__crt_stdio_output@@V?$positional_parameter_base@DV?$stream_output_adapter@D@__crt_stdio_output@@@2@@__crt_stdio_output@@AAE_NXZ 10051270 f i libucrtd:output.obj
 0001:00050320       ?state_case_flag@?$output_processor@DV?$stream_output_adapter@D@__crt_stdio_output@@V?$standard_base@DV?$stream_output_adapter@D@__crt_stdio_output@@@2@@__crt_stdio_output@@AAE_NXZ 10051320 f i libucrtd:output.obj
 0001:000503d0       ?state_case_flag@?$output_processor@DV?$string_output_adapter@D@__crt_stdio_output@@V?$format_validation_base@DV?$string_output_adapter@D@__crt_stdio_output@@@2@@__crt_stdio_output@@AAE_NXZ 100513d0 f i libucrtd:output.obj
 0001:00050480       ?state_case_flag@?$output_processor@DV?$string_output_adapter@D@__crt_stdio_output@@V?$positional_parameter_base@DV?$string_output_adapter@D@__crt_stdio_output@@@2@@__crt_stdio_output@@AAE_NXZ 10051480 f i libucrtd:output.obj
 0001:00050530       ?state_case_flag@?$output_processor@DV?$string_output_adapter@D@__crt_stdio_output@@V?$standard_base@DV?$string_output_adapter@D@__crt_stdio_output@@@2@@__crt_stdio_output@@AAE_NXZ 10051530 f i libucrtd:output.obj
 0001:000505e0       ?state_case_flag@?$output_processor@_WV?$stream_output_adapter@_W@__crt_stdio_output@@V?$format_validation_base@_WV?$stream_output_adapter@_W@__crt_stdio_output@@@2@@__crt_stdio_output@@AAE_NXZ 100515e0 f i libucrtd:output.obj
 0001:00050690       ?state_case_flag@?$output_processor@_WV?$stream_output_adapter@_W@__crt_stdio_output@@V?$positional_parameter_base@_WV?$stream_output_adapter@_W@__crt_stdio_output@@@2@@__crt_stdio_output@@AAE_NXZ 10051690 f i libucrtd:output.obj
 0001:00050740       ?state_case_flag@?$output_processor@_WV?$stream_output_adapter@_W@__crt_stdio_output@@V?$standard_base@_WV?$stream_output_adapter@_W@__crt_stdio_output@@@2@@__crt_stdio_output@@AAE_NXZ 10051740 f i libucrtd:output.obj
 0001:000507f0       ?state_case_flag@?$output_processor@_WV?$string_output_adapter@_W@__crt_stdio_output@@V?$format_validation_base@_WV?$string_output_adapter@_W@__crt_stdio_output@@@2@@__crt_stdio_output@@AAE_NXZ 100517f0 f i libucrtd:output.obj
 0001:000508a0       ?state_case_flag@?$output_processor@_WV?$string_output_adapter@_W@__crt_stdio_output@@V?$positional_parameter_base@_WV?$string_output_adapter@_W@__crt_stdio_output@@@2@@__crt_stdio_output@@AAE_NXZ 100518a0 f i libucrtd:output.obj
 0001:00050950       ?state_case_flag@?$output_processor@_WV?$string_output_adapter@_W@__crt_stdio_output@@V?$standard_base@_WV?$string_output_adapter@_W@__crt_stdio_output@@@2@@__crt_stdio_output@@AAE_NXZ 10051950 f i libucrtd:output.obj
 0001:00050a00       ?state_case_normal@?$output_processor@DV?$stream_output_adapter@D@__crt_stdio_output@@V?$format_validation_base@DV?$stream_output_adapter@D@__crt_stdio_output@@@2@@__crt_stdio_output@@AAE_NXZ 10051a00 f i libucrtd:output.obj
 0001:00050ab0       ?state_case_normal@?$output_processor@DV?$stream_output_adapter@D@__crt_stdio_output@@V?$positional_parameter_base@DV?$stream_output_adapter@D@__crt_stdio_output@@@2@@__crt_stdio_output@@AAE_NXZ 10051ab0 f i libucrtd:output.obj
 0001:00050b60       ?state_case_normal@?$output_processor@DV?$stream_output_adapter@D@__crt_stdio_output@@V?$standard_base@DV?$stream_output_adapter@D@__crt_stdio_output@@@2@@__crt_stdio_output@@AAE_NXZ 10051b60 f i libucrtd:output.obj
 0001:00050c10       ?state_case_normal@?$output_processor@DV?$string_output_adapter@D@__crt_stdio_output@@V?$format_validation_base@DV?$string_output_adapter@D@__crt_stdio_output@@@2@@__crt_stdio_output@@AAE_NXZ 10051c10 f i libucrtd:output.obj
 0001:00050cc0       ?state_case_normal@?$output_processor@DV?$string_output_adapter@D@__crt_stdio_output@@V?$positional_parameter_base@DV?$string_output_adapter@D@__crt_stdio_output@@@2@@__crt_stdio_output@@AAE_NXZ 10051cc0 f i libucrtd:output.obj
 0001:00050d70       ?state_case_normal@?$output_processor@DV?$string_output_adapter@D@__crt_stdio_output@@V?$standard_base@DV?$string_output_adapter@D@__crt_stdio_output@@@2@@__crt_stdio_output@@AAE_NXZ 10051d70 f i libucrtd:output.obj
 0001:00050e20       ?state_case_normal@?$output_processor@_WV?$stream_output_adapter@_W@__crt_stdio_output@@V?$format_validation_base@_WV?$stream_output_adapter@_W@__crt_stdio_output@@@2@@__crt_stdio_output@@AAE_NXZ 10051e20 f i libucrtd:output.obj
 0001:00050ed0       ?state_case_normal@?$output_processor@_WV?$stream_output_adapter@_W@__crt_stdio_output@@V?$positional_parameter_base@_WV?$stream_output_adapter@_W@__crt_stdio_output@@@2@@__crt_stdio_output@@AAE_NXZ 10051ed0 f i libucrtd:output.obj
 0001:00050f80       ?state_case_normal@?$output_processor@_WV?$stream_output_adapter@_W@__crt_stdio_output@@V?$standard_base@_WV?$stream_output_adapter@_W@__crt_stdio_output@@@2@@__crt_stdio_output@@AAE_NXZ 10051f80 f i libucrtd:output.obj
 0001:00051030       ?state_case_normal@?$output_processor@_WV?$string_output_adapter@_W@__crt_stdio_output@@V?$format_validation_base@_WV?$string_output_adapter@_W@__crt_stdio_output@@@2@@__crt_stdio_output@@AAE_NXZ 10052030 f i libucrtd:output.obj
 0001:000510e0       ?state_case_normal@?$output_processor@_WV?$string_output_adapter@_W@__crt_stdio_output@@V?$positional_parameter_base@_WV?$string_output_adapter@_W@__crt_stdio_output@@@2@@__crt_stdio_output@@AAE_NXZ 100520e0 f i libucrtd:output.obj
 0001:00051190       ?state_case_normal@?$output_processor@_WV?$string_output_adapter@_W@__crt_stdio_output@@V?$standard_base@_WV?$string_output_adapter@_W@__crt_stdio_output@@@2@@__crt_stdio_output@@AAE_NXZ 10052190 f i libucrtd:output.obj
 0001:00051240       ?state_case_normal_common@?$output_processor@DV?$stream_output_adapter@D@__crt_stdio_output@@V?$format_validation_base@DV?$stream_output_adapter@D@__crt_stdio_output@@@2@@__crt_stdio_output@@AAE_NXZ 10052240 f i libucrtd:output.obj
 0001:00051290       ?state_case_normal_common@?$output_processor@DV?$stream_output_adapter@D@__crt_stdio_output@@V?$positional_parameter_base@DV?$stream_output_adapter@D@__crt_stdio_output@@@2@@__crt_stdio_output@@AAE_NXZ 10052290 f i libucrtd:output.obj
 0001:000512e0       ?state_case_normal_common@?$output_processor@DV?$stream_output_adapter@D@__crt_stdio_output@@V?$standard_base@DV?$stream_output_adapter@D@__crt_stdio_output@@@2@@__crt_stdio_output@@AAE_NXZ 100522e0 f i libucrtd:output.obj
 0001:00051330       ?state_case_normal_common@?$output_processor@DV?$string_output_adapter@D@__crt_stdio_output@@V?$format_validation_base@DV?$string_output_adapter@D@__crt_stdio_output@@@2@@__crt_stdio_output@@AAE_NXZ 10052330 f i libucrtd:output.obj
 0001:00051380       ?state_case_normal_common@?$output_processor@DV?$string_output_adapter@D@__crt_stdio_output@@V?$positional_parameter_base@DV?$string_output_adapter@D@__crt_stdio_output@@@2@@__crt_stdio_output@@AAE_NXZ 10052380 f i libucrtd:output.obj
 0001:000513d0       ?state_case_normal_common@?$output_processor@DV?$string_output_adapter@D@__crt_stdio_output@@V?$standard_base@DV?$string_output_adapter@D@__crt_stdio_output@@@2@@__crt_stdio_output@@AAE_NXZ 100523d0 f i libucrtd:output.obj
 0001:00051420       ?state_case_normal_common@?$output_processor@_WV?$stream_output_adapter@_W@__crt_stdio_output@@V?$format_validation_base@_WV?$stream_output_adapter@_W@__crt_stdio_output@@@2@@__crt_stdio_output@@AAE_NXZ 10052420 f i libucrtd:output.obj
 0001:00051470       ?state_case_normal_common@?$output_processor@_WV?$stream_output_adapter@_W@__crt_stdio_output@@V?$positional_parameter_base@_WV?$stream_output_adapter@_W@__crt_stdio_output@@@2@@__crt_stdio_output@@AAE_NXZ 10052470 f i libucrtd:output.obj
 0001:000514c0       ?state_case_normal_common@?$output_processor@_WV?$stream_output_adapter@_W@__crt_stdio_output@@V?$standard_base@_WV?$stream_output_adapter@_W@__crt_stdio_output@@@2@@__crt_stdio_output@@AAE_NXZ 100524c0 f i libucrtd:output.obj
 0001:00051510       ?state_case_normal_common@?$output_processor@_WV?$string_output_adapter@_W@__crt_stdio_output@@V?$format_validation_base@_WV?$string_output_adapter@_W@__crt_stdio_output@@@2@@__crt_stdio_output@@AAE_NXZ 10052510 f i libucrtd:output.obj
 0001:00051560       ?state_case_normal_common@?$output_processor@_WV?$string_output_adapter@_W@__crt_stdio_output@@V?$positional_parameter_base@_WV?$string_output_adapter@_W@__crt_stdio_output@@@2@@__crt_stdio_output@@AAE_NXZ 10052560 f i libucrtd:output.obj
 0001:000515b0       ?state_case_normal_common@?$output_processor@_WV?$string_output_adapter@_W@__crt_stdio_output@@V?$standard_base@_WV?$string_output_adapter@_W@__crt_stdio_output@@@2@@__crt_stdio_output@@AAE_NXZ 100525b0 f i libucrtd:output.obj
 0001:00051600       ?state_case_normal_tchar@?$output_processor@DV?$stream_output_adapter@D@__crt_stdio_output@@V?$format_validation_base@DV?$stream_output_adapter@D@__crt_stdio_output@@@2@@__crt_stdio_output@@AAE_ND@Z 10052600 f i libucrtd:output.obj
 0001:00051700       ?state_case_normal_tchar@?$output_processor@DV?$stream_output_adapter@D@__crt_stdio_output@@V?$positional_parameter_base@DV?$stream_output_adapter@D@__crt_stdio_output@@@2@@__crt_stdio_output@@AAE_ND@Z 10052700 f i libucrtd:output.obj
 0001:00051800       ?state_case_normal_tchar@?$output_processor@DV?$stream_output_adapter@D@__crt_stdio_output@@V?$standard_base@DV?$stream_output_adapter@D@__crt_stdio_output@@@2@@__crt_stdio_output@@AAE_ND@Z 10052800 f i libucrtd:output.obj
 0001:00051900       ?state_case_normal_tchar@?$output_processor@DV?$string_output_adapter@D@__crt_stdio_output@@V?$format_validation_base@DV?$string_output_adapter@D@__crt_stdio_output@@@2@@__crt_stdio_output@@AAE_ND@Z 10052900 f i libucrtd:output.obj
 0001:00051a00       ?state_case_normal_tchar@?$output_processor@DV?$string_output_adapter@D@__crt_stdio_output@@V?$positional_parameter_base@DV?$string_output_adapter@D@__crt_stdio_output@@@2@@__crt_stdio_output@@AAE_ND@Z 10052a00 f i libucrtd:output.obj
 0001:00051b00       ?state_case_normal_tchar@?$output_processor@DV?$string_output_adapter@D@__crt_stdio_output@@V?$standard_base@DV?$string_output_adapter@D@__crt_stdio_output@@@2@@__crt_stdio_output@@AAE_ND@Z 10052b00 f i libucrtd:output.obj
 0001:00051c00       ?state_case_normal_tchar@?$output_processor@_WV?$stream_output_adapter@_W@__crt_stdio_output@@V?$format_validation_base@_WV?$stream_output_adapter@_W@__crt_stdio_output@@@2@@__crt_stdio_output@@AAE_N_W@Z 10052c00 f i libucrtd:output.obj
 0001:00051c20       ?state_case_normal_tchar@?$output_processor@_WV?$stream_output_adapter@_W@__crt_stdio_output@@V?$positional_parameter_base@_WV?$stream_output_adapter@_W@__crt_stdio_output@@@2@@__crt_stdio_output@@AAE_N_W@Z 10052c20 f i libucrtd:output.obj
 0001:00051c40       ?state_case_normal_tchar@?$output_processor@_WV?$stream_output_adapter@_W@__crt_stdio_output@@V?$standard_base@_WV?$stream_output_adapter@_W@__crt_stdio_output@@@2@@__crt_stdio_output@@AAE_N_W@Z 10052c40 f i libucrtd:output.obj
 0001:00051c60       ?state_case_normal_tchar@?$output_processor@_WV?$string_output_adapter@_W@__crt_stdio_output@@V?$format_validation_base@_WV?$string_output_adapter@_W@__crt_stdio_output@@@2@@__crt_stdio_output@@AAE_N_W@Z 10052c60 f i libucrtd:output.obj
 0001:00051c80       ?state_case_normal_tchar@?$output_processor@_WV?$string_output_adapter@_W@__crt_stdio_output@@V?$positional_parameter_base@_WV?$string_output_adapter@_W@__crt_stdio_output@@@2@@__crt_stdio_output@@AAE_N_W@Z 10052c80 f i libucrtd:output.obj
 0001:00051ca0       ?state_case_normal_tchar@?$output_processor@_WV?$string_output_adapter@_W@__crt_stdio_output@@V?$standard_base@_WV?$string_output_adapter@_W@__crt_stdio_output@@@2@@__crt_stdio_output@@AAE_N_W@Z 10052ca0 f i libucrtd:output.obj
 0001:00051cc0       ?state_case_percent@?$output_processor@DV?$stream_output_adapter@D@__crt_stdio_output@@V?$format_validation_base@DV?$stream_output_adapter@D@__crt_stdio_output@@@2@@__crt_stdio_output@@AAE_NXZ 10052cc0 f i libucrtd:output.obj
 0001:00051d10       ?state_case_percent@?$output_processor@DV?$stream_output_adapter@D@__crt_stdio_output@@V?$positional_parameter_base@DV?$stream_output_adapter@D@__crt_stdio_output@@@2@@__crt_stdio_output@@AAE_NXZ 10052d10 f i libucrtd:output.obj
 0001:00051d60       ?state_case_percent@?$output_processor@DV?$stream_output_adapter@D@__crt_stdio_output@@V?$standard_base@DV?$stream_output_adapter@D@__crt_stdio_output@@@2@@__crt_stdio_output@@AAE_NXZ 10052d60 f i libucrtd:output.obj
 0001:00051db0       ?state_case_percent@?$output_processor@DV?$string_output_adapter@D@__crt_stdio_output@@V?$format_validation_base@DV?$string_output_adapter@D@__crt_stdio_output@@@2@@__crt_stdio_output@@AAE_NXZ 10052db0 f i libucrtd:output.obj
 0001:00051e00       ?state_case_percent@?$output_processor@DV?$string_output_adapter@D@__crt_stdio_output@@V?$positional_parameter_base@DV?$string_output_adapter@D@__crt_stdio_output@@@2@@__crt_stdio_output@@AAE_NXZ 10052e00 f i libucrtd:output.obj
 0001:00051e50       ?state_case_percent@?$output_processor@DV?$string_output_adapter@D@__crt_stdio_output@@V?$standard_base@DV?$string_output_adapter@D@__crt_stdio_output@@@2@@__crt_stdio_output@@AAE_NXZ 10052e50 f i libucrtd:output.obj
 0001:00051ea0       ?state_case_percent@?$output_processor@_WV?$stream_output_adapter@_W@__crt_stdio_output@@V?$format_validation_base@_WV?$stream_output_adapter@_W@__crt_stdio_output@@@2@@__crt_stdio_output@@AAE_NXZ 10052ea0 f i libucrtd:output.obj
 0001:00051ef0       ?state_case_percent@?$output_processor@_WV?$stream_output_adapter@_W@__crt_stdio_output@@V?$positional_parameter_base@_WV?$stream_output_adapter@_W@__crt_stdio_output@@@2@@__crt_stdio_output@@AAE_NXZ 10052ef0 f i libucrtd:output.obj
 0001:00051f40       ?state_case_percent@?$output_processor@_WV?$stream_output_adapter@_W@__crt_stdio_output@@V?$standard_base@_WV?$stream_output_adapter@_W@__crt_stdio_output@@@2@@__crt_stdio_output@@AAE_NXZ 10052f40 f i libucrtd:output.obj
 0001:00051f90       ?state_case_percent@?$output_processor@_WV?$string_output_adapter@_W@__crt_stdio_output@@V?$format_validation_base@_WV?$string_output_adapter@_W@__crt_stdio_output@@@2@@__crt_stdio_output@@AAE_NXZ 10052f90 f i libucrtd:output.obj
 0001:00051fe0       ?state_case_percent@?$output_processor@_WV?$string_output_adapter@_W@__crt_stdio_output@@V?$positional_parameter_base@_WV?$string_output_adapter@_W@__crt_stdio_output@@@2@@__crt_stdio_output@@AAE_NXZ 10052fe0 f i libucrtd:output.obj
 0001:00052030       ?state_case_percent@?$output_processor@_WV?$string_output_adapter@_W@__crt_stdio_output@@V?$standard_base@_WV?$string_output_adapter@_W@__crt_stdio_output@@@2@@__crt_stdio_output@@AAE_NXZ 10053030 f i libucrtd:output.obj
 0001:00052080       ?state_case_precision@?$output_processor@DV?$stream_output_adapter@D@__crt_stdio_output@@V?$format_validation_base@DV?$stream_output_adapter@D@__crt_stdio_output@@@2@@__crt_stdio_output@@AAE_NXZ 10053080 f i libucrtd:output.obj
 0001:000520f0       ?state_case_precision@?$output_processor@DV?$stream_output_adapter@D@__crt_stdio_output@@V?$positional_parameter_base@DV?$stream_output_adapter@D@__crt_stdio_output@@@2@@__crt_stdio_output@@AAE_NXZ 100530f0 f i libucrtd:output.obj
 0001:00052160       ?state_case_precision@?$output_processor@DV?$stream_output_adapter@D@__crt_stdio_output@@V?$standard_base@DV?$stream_output_adapter@D@__crt_stdio_output@@@2@@__crt_stdio_output@@AAE_NXZ 10053160 f i libucrtd:output.obj
 0001:000521d0       ?state_case_precision@?$output_processor@DV?$string_output_adapter@D@__crt_stdio_output@@V?$format_validation_base@DV?$string_output_adapter@D@__crt_stdio_output@@@2@@__crt_stdio_output@@AAE_NXZ 100531d0 f i libucrtd:output.obj
 0001:00052240       ?state_case_precision@?$output_processor@DV?$string_output_adapter@D@__crt_stdio_output@@V?$positional_parameter_base@DV?$string_output_adapter@D@__crt_stdio_output@@@2@@__crt_stdio_output@@AAE_NXZ 10053240 f i libucrtd:output.obj
 0001:000522b0       ?state_case_precision@?$output_processor@DV?$string_output_adapter@D@__crt_stdio_output@@V?$standard_base@DV?$string_output_adapter@D@__crt_stdio_output@@@2@@__crt_stdio_output@@AAE_NXZ 100532b0 f i libucrtd:output.obj
 0001:00052320       ?state_case_precision@?$output_processor@_WV?$stream_output_adapter@_W@__crt_stdio_output@@V?$format_validation_base@_WV?$stream_output_adapter@_W@__crt_stdio_output@@@2@@__crt_stdio_output@@AAE_NXZ 10053320 f i libucrtd:output.obj
 0001:00052390       ?state_case_precision@?$output_processor@_WV?$stream_output_adapter@_W@__crt_stdio_output@@V?$positional_parameter_base@_WV?$stream_output_adapter@_W@__crt_stdio_output@@@2@@__crt_stdio_output@@AAE_NXZ 10053390 f i libucrtd:output.obj
 0001:00052400       ?state_case_precision@?$output_processor@_WV?$stream_output_adapter@_W@__crt_stdio_output@@V?$standard_base@_WV?$stream_output_adapter@_W@__crt_stdio_output@@@2@@__crt_stdio_output@@AAE_NXZ 10053400 f i libucrtd:output.obj
 0001:00052470       ?state_case_precision@?$output_processor@_WV?$string_output_adapter@_W@__crt_stdio_output@@V?$format_validation_base@_WV?$string_output_adapter@_W@__crt_stdio_output@@@2@@__crt_stdio_output@@AAE_NXZ 10053470 f i libucrtd:output.obj
 0001:000524e0       ?state_case_precision@?$output_processor@_WV?$string_output_adapter@_W@__crt_stdio_output@@V?$positional_parameter_base@_WV?$string_output_adapter@_W@__crt_stdio_output@@@2@@__crt_stdio_output@@AAE_NXZ 100534e0 f i libucrtd:output.obj
 0001:00052550       ?state_case_precision@?$output_processor@_WV?$string_output_adapter@_W@__crt_stdio_output@@V?$standard_base@_WV?$string_output_adapter@_W@__crt_stdio_output@@@2@@__crt_stdio_output@@AAE_NXZ 10053550 f i libucrtd:output.obj
 0001:000525c0       ?state_case_size@?$output_processor@DV?$stream_output_adapter@D@__crt_stdio_output@@V?$format_validation_base@DV?$stream_output_adapter@D@__crt_stdio_output@@@2@@__crt_stdio_output@@AAE_NXZ 100535c0 f i libucrtd:output.obj
 0001:00052990       ?state_case_size@?$output_processor@DV?$stream_output_adapter@D@__crt_stdio_output@@V?$positional_parameter_base@DV?$stream_output_adapter@D@__crt_stdio_output@@@2@@__crt_stdio_output@@AAE_NXZ 10053990 f i libucrtd:output.obj
 0001:00052d60       ?state_case_size@?$output_processor@DV?$stream_output_adapter@D@__crt_stdio_output@@V?$standard_base@DV?$stream_output_adapter@D@__crt_stdio_output@@@2@@__crt_stdio_output@@AAE_NXZ 10053d60 f i libucrtd:output.obj
 0001:00053130       ?state_case_size@?$output_processor@DV?$string_output_adapter@D@__crt_stdio_output@@V?$format_validation_base@DV?$string_output_adapter@D@__crt_stdio_output@@@2@@__crt_stdio_output@@AAE_NXZ 10054130 f i libucrtd:output.obj
 0001:00053500       ?state_case_size@?$output_processor@DV?$string_output_adapter@D@__crt_stdio_output@@V?$positional_parameter_base@DV?$string_output_adapter@D@__crt_stdio_output@@@2@@__crt_stdio_output@@AAE_NXZ 10054500 f i libucrtd:output.obj
 0001:000538d0       ?state_case_size@?$output_processor@DV?$string_output_adapter@D@__crt_stdio_output@@V?$standard_base@DV?$string_output_adapter@D@__crt_stdio_output@@@2@@__crt_stdio_output@@AAE_NXZ 100548d0 f i libucrtd:output.obj
 0001:00053ca0       ?state_case_size@?$output_processor@_WV?$stream_output_adapter@_W@__crt_stdio_output@@V?$format_validation_base@_WV?$stream_output_adapter@_W@__crt_stdio_output@@@2@@__crt_stdio_output@@AAE_NXZ 10054ca0 f i libucrtd:output.obj
 0001:00054070       ?state_case_size@?$output_processor@_WV?$stream_output_adapter@_W@__crt_stdio_output@@V?$positional_parameter_base@_WV?$stream_output_adapter@_W@__crt_stdio_output@@@2@@__crt_stdio_output@@AAE_NXZ 10055070 f i libucrtd:output.obj
 0001:00054440       ?state_case_size@?$output_processor@_WV?$stream_output_adapter@_W@__crt_stdio_output@@V?$standard_base@_WV?$stream_output_adapter@_W@__crt_stdio_output@@@2@@__crt_stdio_output@@AAE_NXZ 10055440 f i libucrtd:output.obj
 0001:00054810       ?state_case_size@?$output_processor@_WV?$string_output_adapter@_W@__crt_stdio_output@@V?$format_validation_base@_WV?$string_output_adapter@_W@__crt_stdio_output@@@2@@__crt_stdio_output@@AAE_NXZ 10055810 f i libucrtd:output.obj
 0001:00054be0       ?state_case_size@?$output_processor@_WV?$string_output_adapter@_W@__crt_stdio_output@@V?$positional_parameter_base@_WV?$string_output_adapter@_W@__crt_stdio_output@@@2@@__crt_stdio_output@@AAE_NXZ 10055be0 f i libucrtd:output.obj
 0001:00054fb0       ?state_case_size@?$output_processor@_WV?$string_output_adapter@_W@__crt_stdio_output@@V?$standard_base@_WV?$string_output_adapter@_W@__crt_stdio_output@@@2@@__crt_stdio_output@@AAE_NXZ 10055fb0 f i libucrtd:output.obj
 0001:00055380       ?state_case_type@?$output_processor@DV?$stream_output_adapter@D@__crt_stdio_output@@V?$format_validation_base@DV?$stream_output_adapter@D@__crt_stdio_output@@@2@@__crt_stdio_output@@AAE_NXZ 10056380 f i libucrtd:output.obj
 0001:00055730       ?state_case_type@?$output_processor@DV?$stream_output_adapter@D@__crt_stdio_output@@V?$positional_parameter_base@DV?$stream_output_adapter@D@__crt_stdio_output@@@2@@__crt_stdio_output@@AAE_NXZ 10056730 f i libucrtd:output.obj
 0001:00055ae0       ?state_case_type@?$output_processor@DV?$stream_output_adapter@D@__crt_stdio_output@@V?$standard_base@DV?$stream_output_adapter@D@__crt_stdio_output@@@2@@__crt_stdio_output@@AAE_NXZ 10056ae0 f i libucrtd:output.obj
 0001:00055e90       ?state_case_type@?$output_processor@DV?$string_output_adapter@D@__crt_stdio_output@@V?$format_validation_base@DV?$string_output_adapter@D@__crt_stdio_output@@@2@@__crt_stdio_output@@AAE_NXZ 10056e90 f i libucrtd:output.obj
 0001:00056240       ?state_case_type@?$output_processor@DV?$string_output_adapter@D@__crt_stdio_output@@V?$positional_parameter_base@DV?$string_output_adapter@D@__crt_stdio_output@@@2@@__crt_stdio_output@@AAE_NXZ 10057240 f i libucrtd:output.obj
 0001:000565f0       ?state_case_type@?$output_processor@DV?$string_output_adapter@D@__crt_stdio_output@@V?$standard_base@DV?$string_output_adapter@D@__crt_stdio_output@@@2@@__crt_stdio_output@@AAE_NXZ 100575f0 f i libucrtd:output.obj
 0001:000569a0       ?state_case_type@?$output_processor@_WV?$stream_output_adapter@_W@__crt_stdio_output@@V?$format_validation_base@_WV?$stream_output_adapter@_W@__crt_stdio_output@@@2@@__crt_stdio_output@@AAE_NXZ 100579a0 f i libucrtd:output.obj
 0001:00056d80       ?state_case_type@?$output_processor@_WV?$stream_output_adapter@_W@__crt_stdio_output@@V?$positional_parameter_base@_WV?$stream_output_adapter@_W@__crt_stdio_output@@@2@@__crt_stdio_output@@AAE_NXZ 10057d80 f i libucrtd:output.obj
 0001:00057160       ?state_case_type@?$output_processor@_WV?$stream_output_adapter@_W@__crt_stdio_output@@V?$standard_base@_WV?$stream_output_adapter@_W@__crt_stdio_output@@@2@@__crt_stdio_output@@AAE_NXZ 10058160 f i libucrtd:output.obj
 0001:00057540       ?state_case_type@?$output_processor@_WV?$string_output_adapter@_W@__crt_stdio_output@@V?$format_validation_base@_WV?$string_output_adapter@_W@__crt_stdio_output@@@2@@__crt_stdio_output@@AAE_NXZ 10058540 f i libucrtd:output.obj
 0001:00057920       ?state_case_type@?$output_processor@_WV?$string_output_adapter@_W@__crt_stdio_output@@V?$positional_parameter_base@_WV?$string_output_adapter@_W@__crt_stdio_output@@@2@@__crt_stdio_output@@AAE_NXZ 10058920 f i libucrtd:output.obj
 0001:00057d00       ?state_case_type@?$output_processor@_WV?$string_output_adapter@_W@__crt_stdio_output@@V?$standard_base@_WV?$string_output_adapter@_W@__crt_stdio_output@@@2@@__crt_stdio_output@@AAE_NXZ 10058d00 f i libucrtd:output.obj
 0001:000580e0       ?state_case_width@?$output_processor@DV?$stream_output_adapter@D@__crt_stdio_output@@V?$format_validation_base@DV?$stream_output_adapter@D@__crt_stdio_output@@@2@@__crt_stdio_output@@AAE_NXZ 100590e0 f i libucrtd:output.obj
 0001:00058160       ?state_case_width@?$output_processor@DV?$stream_output_adapter@D@__crt_stdio_output@@V?$positional_parameter_base@DV?$stream_output_adapter@D@__crt_stdio_output@@@2@@__crt_stdio_output@@AAE_NXZ 10059160 f i libucrtd:output.obj
 0001:000581e0       ?state_case_width@?$output_processor@DV?$stream_output_adapter@D@__crt_stdio_output@@V?$standard_base@DV?$stream_output_adapter@D@__crt_stdio_output@@@2@@__crt_stdio_output@@AAE_NXZ 100591e0 f i libucrtd:output.obj
 0001:00058260       ?state_case_width@?$output_processor@DV?$string_output_adapter@D@__crt_stdio_output@@V?$format_validation_base@DV?$string_output_adapter@D@__crt_stdio_output@@@2@@__crt_stdio_output@@AAE_NXZ 10059260 f i libucrtd:output.obj
 0001:000582e0       ?state_case_width@?$output_processor@DV?$string_output_adapter@D@__crt_stdio_output@@V?$positional_parameter_base@DV?$string_output_adapter@D@__crt_stdio_output@@@2@@__crt_stdio_output@@AAE_NXZ 100592e0 f i libucrtd:output.obj
 0001:00058360       ?state_case_width@?$output_processor@DV?$string_output_adapter@D@__crt_stdio_output@@V?$standard_base@DV?$string_output_adapter@D@__crt_stdio_output@@@2@@__crt_stdio_output@@AAE_NXZ 10059360 f i libucrtd:output.obj
 0001:000583e0       ?state_case_width@?$output_processor@_WV?$stream_output_adapter@_W@__crt_stdio_output@@V?$format_validation_base@_WV?$stream_output_adapter@_W@__crt_stdio_output@@@2@@__crt_stdio_output@@AAE_NXZ 100593e0 f i libucrtd:output.obj
 0001:00058460       ?state_case_width@?$output_processor@_WV?$stream_output_adapter@_W@__crt_stdio_output@@V?$positional_parameter_base@_WV?$stream_output_adapter@_W@__crt_stdio_output@@@2@@__crt_stdio_output@@AAE_NXZ 10059460 f i libucrtd:output.obj
 0001:000584e0       ?state_case_width@?$output_processor@_WV?$stream_output_adapter@_W@__crt_stdio_output@@V?$standard_base@_WV?$stream_output_adapter@_W@__crt_stdio_output@@@2@@__crt_stdio_output@@AAE_NXZ 100594e0 f i libucrtd:output.obj
 0001:00058560       ?state_case_width@?$output_processor@_WV?$string_output_adapter@_W@__crt_stdio_output@@V?$format_validation_base@_WV?$string_output_adapter@_W@__crt_stdio_output@@@2@@__crt_stdio_output@@AAE_NXZ 10059560 f i libucrtd:output.obj
 0001:000585e0       ?state_case_width@?$output_processor@_WV?$string_output_adapter@_W@__crt_stdio_output@@V?$positional_parameter_base@_WV?$string_output_adapter@_W@__crt_stdio_output@@@2@@__crt_stdio_output@@AAE_NXZ 100595e0 f i libucrtd:output.obj
 0001:00058660       ?state_case_width@?$output_processor@_WV?$string_output_adapter@_W@__crt_stdio_output@@V?$standard_base@_WV?$string_output_adapter@_W@__crt_stdio_output@@@2@@__crt_stdio_output@@AAE_NXZ 10059660 f i libucrtd:output.obj
 0001:000586e0       ?state_count@?$format_validation_base@DV?$stream_output_adapter@D@__crt_stdio_output@@@__crt_stdio_output@@KAIXZ 100596e0 f i libucrtd:output.obj
 0001:000586f0       ?state_count@?$format_validation_base@DV?$string_output_adapter@D@__crt_stdio_output@@@__crt_stdio_output@@KAIXZ 100596f0 f i libucrtd:output.obj
 0001:00058700       ?state_count@?$format_validation_base@_WV?$stream_output_adapter@_W@__crt_stdio_output@@@__crt_stdio_output@@KAIXZ 10059700 f i libucrtd:output.obj
 0001:00058710       ?state_count@?$format_validation_base@_WV?$string_output_adapter@_W@__crt_stdio_output@@@__crt_stdio_output@@KAIXZ 10059710 f i libucrtd:output.obj
 0001:00058720       ?state_count@?$standard_base@DV?$stream_output_adapter@D@__crt_stdio_output@@@__crt_stdio_output@@KAIXZ 10059720 f i libucrtd:output.obj
 0001:00058730       ?state_count@?$standard_base@DV?$string_output_adapter@D@__crt_stdio_output@@@__crt_stdio_output@@KAIXZ 10059730 f i libucrtd:output.obj
 0001:00058740       ?state_count@?$standard_base@_WV?$stream_output_adapter@_W@__crt_stdio_output@@@__crt_stdio_output@@KAIXZ 10059740 f i libucrtd:output.obj
 0001:00058750       ?state_count@?$standard_base@_WV?$string_output_adapter@_W@__crt_stdio_output@@@__crt_stdio_output@@KAIXZ 10059750 f i libucrtd:output.obj
 0001:00058760       ?state_transition_table@?$format_validation_base@DV?$stream_output_adapter@D@__crt_stdio_output@@@__crt_stdio_output@@KAABV?$spectre_mitigated_lookup_table@Ustate_transition_pair@__crt_stdio_output@@$0IA@@2@XZ 10059760 f i libucrtd:output.obj
 0001:00058770       ?state_transition_table@?$format_validation_base@DV?$string_output_adapter@D@__crt_stdio_output@@@__crt_stdio_output@@KAABV?$spectre_mitigated_lookup_table@Ustate_transition_pair@__crt_stdio_output@@$0IA@@2@XZ 10059770 f i libucrtd:output.obj
 0001:00058780       ?state_transition_table@?$format_validation_base@_WV?$stream_output_adapter@_W@__crt_stdio_output@@@__crt_stdio_output@@KAABV?$spectre_mitigated_lookup_table@Ustate_transition_pair@__crt_stdio_output@@$0IA@@2@XZ 10059780 f i libucrtd:output.obj
 0001:00058790       ?state_transition_table@?$format_validation_base@_WV?$string_output_adapter@_W@__crt_stdio_output@@@__crt_stdio_output@@KAABV?$spectre_mitigated_lookup_table@Ustate_transition_pair@__crt_stdio_output@@$0IA@@2@XZ 10059790 f i libucrtd:output.obj
 0001:000587a0       ?state_transition_table@?$standard_base@DV?$stream_output_adapter@D@__crt_stdio_output@@@__crt_stdio_output@@KAABV?$spectre_mitigated_lookup_table@Ustate_transition_pair@__crt_stdio_output@@$0IA@@2@XZ 100597a0 f i libucrtd:output.obj
 0001:000587b0       ?state_transition_table@?$standard_base@DV?$string_output_adapter@D@__crt_stdio_output@@@__crt_stdio_output@@KAABV?$spectre_mitigated_lookup_table@Ustate_transition_pair@__crt_stdio_output@@$0IA@@2@XZ 100597b0 f i libucrtd:output.obj
 0001:000587c0       ?state_transition_table@?$standard_base@_WV?$stream_output_adapter@_W@__crt_stdio_output@@@__crt_stdio_output@@KAABV?$spectre_mitigated_lookup_table@Ustate_transition_pair@__crt_stdio_output@@$0IA@@2@XZ 100597c0 f i libucrtd:output.obj
 0001:000587d0       ?state_transition_table@?$standard_base@_WV?$string_output_adapter@_W@__crt_stdio_output@@@__crt_stdio_output@@KAABV?$spectre_mitigated_lookup_table@Ustate_transition_pair@__crt_stdio_output@@$0IA@@2@XZ 100597d0 f i libucrtd:output.obj
 0001:000587e0       ?tchar_string@?$common_data@D@__crt_stdio_output@@IAEAAPADD@Z 100597e0 f i libucrtd:output.obj
 0001:00058800       ?tchar_string@?$common_data@D@__crt_stdio_output@@IAEAAPADXZ 10059800 f i libucrtd:output.obj
 0001:00058820       ?tchar_string@?$common_data@_W@__crt_stdio_output@@IAEAAPA_WXZ 10059820 f i libucrtd:output.obj
 0001:00058840       ?tchar_string@?$common_data@_W@__crt_stdio_output@@IAEAAPA_W_W@Z 10059840 f i libucrtd:output.obj
 0001:00058860       ?to_integer_size@__crt_stdio_output@@YAIW4length_modifier@1@@Z 10059860 f i libucrtd:output.obj
 0001:00058900       ?type_case_X@?$output_processor@DV?$stream_output_adapter@D@__crt_stdio_output@@V?$format_validation_base@DV?$stream_output_adapter@D@__crt_stdio_output@@@2@@__crt_stdio_output@@AAE_NXZ 10059900 f i libucrtd:output.obj
 0001:00058920       ?type_case_X@?$output_processor@DV?$stream_output_adapter@D@__crt_stdio_output@@V?$positional_parameter_base@DV?$stream_output_adapter@D@__crt_stdio_output@@@2@@__crt_stdio_output@@AAE_NXZ 10059920 f i libucrtd:output.obj
 0001:00058940       ?type_case_X@?$output_processor@DV?$stream_output_adapter@D@__crt_stdio_output@@V?$standard_base@DV?$stream_output_adapter@D@__crt_stdio_output@@@2@@__crt_stdio_output@@AAE_NXZ 10059940 f i libucrtd:output.obj
 0001:00058960       ?type_case_X@?$output_processor@DV?$string_output_adapter@D@__crt_stdio_output@@V?$format_validation_base@DV?$string_output_adapter@D@__crt_stdio_output@@@2@@__crt_stdio_output@@AAE_NXZ 10059960 f i libucrtd:output.obj
 0001:00058980       ?type_case_X@?$output_processor@DV?$string_output_adapter@D@__crt_stdio_output@@V?$positional_parameter_base@DV?$string_output_adapter@D@__crt_stdio_output@@@2@@__crt_stdio_output@@AAE_NXZ 10059980 f i libucrtd:output.obj
 0001:000589a0       ?type_case_X@?$output_processor@DV?$string_output_adapter@D@__crt_stdio_output@@V?$standard_base@DV?$string_output_adapter@D@__crt_stdio_output@@@2@@__crt_stdio_output@@AAE_NXZ 100599a0 f i libucrtd:output.obj
 0001:000589c0       ?type_case_X@?$output_processor@_WV?$stream_output_adapter@_W@__crt_stdio_output@@V?$format_validation_base@_WV?$stream_output_adapter@_W@__crt_stdio_output@@@2@@__crt_stdio_output@@AAE_NXZ 100599c0 f i libucrtd:output.obj
 0001:000589e0       ?type_case_X@?$output_processor@_WV?$stream_output_adapter@_W@__crt_stdio_output@@V?$positional_parameter_base@_WV?$stream_output_adapter@_W@__crt_stdio_output@@@2@@__crt_stdio_output@@AAE_NXZ 100599e0 f i libucrtd:output.obj
 0001:00058a00       ?type_case_X@?$output_processor@_WV?$stream_output_adapter@_W@__crt_stdio_output@@V?$standard_base@_WV?$stream_output_adapter@_W@__crt_stdio_output@@@2@@__crt_stdio_output@@AAE_NXZ 10059a00 f i libucrtd:output.obj
 0001:00058a20       ?type_case_X@?$output_processor@_WV?$string_output_adapter@_W@__crt_stdio_output@@V?$format_validation_base@_WV?$string_output_adapter@_W@__crt_stdio_output@@@2@@__crt_stdio_output@@AAE_NXZ 10059a20 f i libucrtd:output.obj
 0001:00058a40       ?type_case_X@?$output_processor@_WV?$string_output_adapter@_W@__crt_stdio_output@@V?$positional_parameter_base@_WV?$string_output_adapter@_W@__crt_stdio_output@@@2@@__crt_stdio_output@@AAE_NXZ 10059a40 f i libucrtd:output.obj
 0001:00058a60       ?type_case_X@?$output_processor@_WV?$string_output_adapter@_W@__crt_stdio_output@@V?$standard_base@_WV?$string_output_adapter@_W@__crt_stdio_output@@@2@@__crt_stdio_output@@AAE_NXZ 10059a60 f i libucrtd:output.obj
 0001:00058a80       ?type_case_Z@?$output_processor@DV?$stream_output_adapter@D@__crt_stdio_output@@V?$format_validation_base@DV?$stream_output_adapter@D@__crt_stdio_output@@@2@@__crt_stdio_output@@AAE_NXZ 10059a80 f i libucrtd:output.obj
 0001:00058b70       ?type_case_Z@?$output_processor@DV?$stream_output_adapter@D@__crt_stdio_output@@V?$positional_parameter_base@DV?$stream_output_adapter@D@__crt_stdio_output@@@2@@__crt_stdio_output@@AAE_NXZ 10059b70 f i libucrtd:output.obj
 0001:00058c60       ?type_case_Z@?$output_processor@DV?$stream_output_adapter@D@__crt_stdio_output@@V?$standard_base@DV?$stream_output_adapter@D@__crt_stdio_output@@@2@@__crt_stdio_output@@AAE_NXZ 10059c60 f i libucrtd:output.obj
 0001:00058d50       ?type_case_Z@?$output_processor@DV?$string_output_adapter@D@__crt_stdio_output@@V?$format_validation_base@DV?$string_output_adapter@D@__crt_stdio_output@@@2@@__crt_stdio_output@@AAE_NXZ 10059d50 f i libucrtd:output.obj
 0001:00058e40       ?type_case_Z@?$output_processor@DV?$string_output_adapter@D@__crt_stdio_output@@V?$positional_parameter_base@DV?$string_output_adapter@D@__crt_stdio_output@@@2@@__crt_stdio_output@@AAE_NXZ 10059e40 f i libucrtd:output.obj
 0001:00058f30       ?type_case_Z@?$output_processor@DV?$string_output_adapter@D@__crt_stdio_output@@V?$standard_base@DV?$string_output_adapter@D@__crt_stdio_output@@@2@@__crt_stdio_output@@AAE_NXZ 10059f30 f i libucrtd:output.obj
 0001:00059020       ?type_case_Z@?$output_processor@_WV?$stream_output_adapter@_W@__crt_stdio_output@@V?$format_validation_base@_WV?$stream_output_adapter@_W@__crt_stdio_output@@@2@@__crt_stdio_output@@AAE_NXZ 1005a020 f i libucrtd:output.obj
 0001:00059110       ?type_case_Z@?$output_processor@_WV?$stream_output_adapter@_W@__crt_stdio_output@@V?$positional_parameter_base@_WV?$stream_output_adapter@_W@__crt_stdio_output@@@2@@__crt_stdio_output@@AAE_NXZ 1005a110 f i libucrtd:output.obj
 0001:00059200       ?type_case_Z@?$output_processor@_WV?$stream_output_adapter@_W@__crt_stdio_output@@V?$standard_base@_WV?$stream_output_adapter@_W@__crt_stdio_output@@@2@@__crt_stdio_output@@AAE_NXZ 1005a200 f i libucrtd:output.obj
 0001:000592f0       ?type_case_Z@?$output_processor@_WV?$string_output_adapter@_W@__crt_stdio_output@@V?$format_validation_base@_WV?$string_output_adapter@_W@__crt_stdio_output@@@2@@__crt_stdio_output@@AAE_NXZ 1005a2f0 f i libucrtd:output.obj
 0001:000593e0       ?type_case_Z@?$output_processor@_WV?$string_output_adapter@_W@__crt_stdio_output@@V?$positional_parameter_base@_WV?$string_output_adapter@_W@__crt_stdio_output@@@2@@__crt_stdio_output@@AAE_NXZ 1005a3e0 f i libucrtd:output.obj
 0001:000594d0       ?type_case_Z@?$output_processor@_WV?$string_output_adapter@_W@__crt_stdio_output@@V?$standard_base@_WV?$string_output_adapter@_W@__crt_stdio_output@@@2@@__crt_stdio_output@@AAE_NXZ 1005a4d0 f i libucrtd:output.obj
 0001:000595c0       ?type_case_a@?$output_processor@DV?$stream_output_adapter@D@__crt_stdio_output@@V?$format_validation_base@DV?$stream_output_adapter@D@__crt_stdio_output@@@2@@__crt_stdio_output@@AAE_NXZ 1005a5c0 f i libucrtd:output.obj
 0001:00059830       ?type_case_a@?$output_processor@DV?$stream_output_adapter@D@__crt_stdio_output@@V?$positional_parameter_base@DV?$stream_output_adapter@D@__crt_stdio_output@@@2@@__crt_stdio_output@@AAE_NXZ 1005a830 f i libucrtd:output.obj
 0001:00059aa0       ?type_case_a@?$output_processor@DV?$stream_output_adapter@D@__crt_stdio_output@@V?$standard_base@DV?$stream_output_adapter@D@__crt_stdio_output@@@2@@__crt_stdio_output@@AAE_NXZ 1005aaa0 f i libucrtd:output.obj
 0001:00059d10       ?type_case_a@?$output_processor@DV?$string_output_adapter@D@__crt_stdio_output@@V?$format_validation_base@DV?$string_output_adapter@D@__crt_stdio_output@@@2@@__crt_stdio_output@@AAE_NXZ 1005ad10 f i libucrtd:output.obj
 0001:00059f80       ?type_case_a@?$output_processor@DV?$string_output_adapter@D@__crt_stdio_output@@V?$positional_parameter_base@DV?$string_output_adapter@D@__crt_stdio_output@@@2@@__crt_stdio_output@@AAE_NXZ 1005af80 f i libucrtd:output.obj
 0001:0005a1f0       ?type_case_a@?$output_processor@DV?$string_output_adapter@D@__crt_stdio_output@@V?$standard_base@DV?$string_output_adapter@D@__crt_stdio_output@@@2@@__crt_stdio_output@@AAE_NXZ 1005b1f0 f i libucrtd:output.obj
 0001:0005a460       ?type_case_a@?$output_processor@_WV?$stream_output_adapter@_W@__crt_stdio_output@@V?$format_validation_base@_WV?$stream_output_adapter@_W@__crt_stdio_output@@@2@@__crt_stdio_output@@AAE_NXZ 1005b460 f i libucrtd:output.obj
 0001:0005a6d0       ?type_case_a@?$output_processor@_WV?$stream_output_adapter@_W@__crt_stdio_output@@V?$positional_parameter_base@_WV?$stream_output_adapter@_W@__crt_stdio_output@@@2@@__crt_stdio_output@@AAE_NXZ 1005b6d0 f i libucrtd:output.obj
 0001:0005a940       ?type_case_a@?$output_processor@_WV?$stream_output_adapter@_W@__crt_stdio_output@@V?$standard_base@_WV?$stream_output_adapter@_W@__crt_stdio_output@@@2@@__crt_stdio_output@@AAE_NXZ 1005b940 f i libucrtd:output.obj
 0001:0005abb0       ?type_case_a@?$output_processor@_WV?$string_output_adapter@_W@__crt_stdio_output@@V?$format_validation_base@_WV?$string_output_adapter@_W@__crt_stdio_output@@@2@@__crt_stdio_output@@AAE_NXZ 1005bbb0 f i libucrtd:output.obj
 0001:0005ae20       ?type_case_a@?$output_processor@_WV?$string_output_adapter@_W@__crt_stdio_output@@V?$positional_parameter_base@_WV?$string_output_adapter@_W@__crt_stdio_output@@@2@@__crt_stdio_output@@AAE_NXZ 1005be20 f i libucrtd:output.obj
 0001:0005b090       ?type_case_a@?$output_processor@_WV?$string_output_adapter@_W@__crt_stdio_output@@V?$standard_base@_WV?$string_output_adapter@_W@__crt_stdio_output@@@2@@__crt_stdio_output@@AAE_NXZ 1005c090 f i libucrtd:output.obj
 0001:0005b300       ?type_case_c@?$output_processor@DV?$stream_output_adapter@D@__crt_stdio_output@@V?$format_validation_base@DV?$stream_output_adapter@D@__crt_stdio_output@@@2@@__crt_stdio_output@@AAE_NXZ 1005c300 f i libucrtd:output.obj
 0001:0005b320       ?type_case_c@?$output_processor@DV?$stream_output_adapter@D@__crt_stdio_output@@V?$positional_parameter_base@DV?$stream_output_adapter@D@__crt_stdio_output@@@2@@__crt_stdio_output@@AAE_NXZ 1005c320 f i libucrtd:output.obj
 0001:0005b340       ?type_case_c@?$output_processor@DV?$stream_output_adapter@D@__crt_stdio_output@@V?$standard_base@DV?$stream_output_adapter@D@__crt_stdio_output@@@2@@__crt_stdio_output@@AAE_NXZ 1005c340 f i libucrtd:output.obj
 0001:0005b360       ?type_case_c@?$output_processor@DV?$string_output_adapter@D@__crt_stdio_output@@V?$format_validation_base@DV?$string_output_adapter@D@__crt_stdio_output@@@2@@__crt_stdio_output@@AAE_NXZ 1005c360 f i libucrtd:output.obj
 0001:0005b380       ?type_case_c@?$output_processor@DV?$string_output_adapter@D@__crt_stdio_output@@V?$positional_parameter_base@DV?$string_output_adapter@D@__crt_stdio_output@@@2@@__crt_stdio_output@@AAE_NXZ 1005c380 f i libucrtd:output.obj
 0001:0005b3a0       ?type_case_c@?$output_processor@DV?$string_output_adapter@D@__crt_stdio_output@@V?$standard_base@DV?$string_output_adapter@D@__crt_stdio_output@@@2@@__crt_stdio_output@@AAE_NXZ 1005c3a0 f i libucrtd:output.obj
 0001:0005b3c0       ?type_case_c@?$output_processor@_WV?$stream_output_adapter@_W@__crt_stdio_output@@V?$format_validation_base@_WV?$stream_output_adapter@_W@__crt_stdio_output@@@2@@__crt_stdio_output@@AAE_NXZ 1005c3c0 f i libucrtd:output.obj
 0001:0005b3e0       ?type_case_c@?$output_processor@_WV?$stream_output_adapter@_W@__crt_stdio_output@@V?$positional_parameter_base@_WV?$stream_output_adapter@_W@__crt_stdio_output@@@2@@__crt_stdio_output@@AAE_NXZ 1005c3e0 f i libucrtd:output.obj
 0001:0005b400       ?type_case_c@?$output_processor@_WV?$stream_output_adapter@_W@__crt_stdio_output@@V?$standard_base@_WV?$stream_output_adapter@_W@__crt_stdio_output@@@2@@__crt_stdio_output@@AAE_NXZ 1005c400 f i libucrtd:output.obj
 0001:0005b420       ?type_case_c@?$output_processor@_WV?$string_output_adapter@_W@__crt_stdio_output@@V?$format_validation_base@_WV?$string_output_adapter@_W@__crt_stdio_output@@@2@@__crt_stdio_output@@AAE_NXZ 1005c420 f i libucrtd:output.obj
 0001:0005b440       ?type_case_c@?$output_processor@_WV?$string_output_adapter@_W@__crt_stdio_output@@V?$positional_parameter_base@_WV?$string_output_adapter@_W@__crt_stdio_output@@@2@@__crt_stdio_output@@AAE_NXZ 1005c440 f i libucrtd:output.obj
 0001:0005b460       ?type_case_c@?$output_processor@_WV?$string_output_adapter@_W@__crt_stdio_output@@V?$standard_base@_WV?$string_output_adapter@_W@__crt_stdio_output@@@2@@__crt_stdio_output@@AAE_NXZ 1005c460 f i libucrtd:output.obj
 0001:0005b480       ?type_case_c_tchar@?$output_processor@DV?$stream_output_adapter@D@__crt_stdio_output@@V?$format_validation_base@DV?$stream_output_adapter@D@__crt_stdio_output@@@2@@__crt_stdio_output@@AAE_ND@Z 1005c480 f i libucrtd:output.obj
 0001:0005b590       ?type_case_c_tchar@?$output_processor@DV?$stream_output_adapter@D@__crt_stdio_output@@V?$positional_parameter_base@DV?$stream_output_adapter@D@__crt_stdio_output@@@2@@__crt_stdio_output@@AAE_ND@Z 1005c590 f i libucrtd:output.obj
 0001:0005b6a0       ?type_case_c_tchar@?$output_processor@DV?$stream_output_adapter@D@__crt_stdio_output@@V?$standard_base@DV?$stream_output_adapter@D@__crt_stdio_output@@@2@@__crt_stdio_output@@AAE_ND@Z 1005c6a0 f i libucrtd:output.obj
 0001:0005b7b0       ?type_case_c_tchar@?$output_processor@DV?$string_output_adapter@D@__crt_stdio_output@@V?$format_validation_base@DV?$string_output_adapter@D@__crt_stdio_output@@@2@@__crt_stdio_output@@AAE_ND@Z 1005c7b0 f i libucrtd:output.obj
 0001:0005b8c0       ?type_case_c_tchar@?$output_processor@DV?$string_output_adapter@D@__crt_stdio_output@@V?$positional_parameter_base@DV?$string_output_adapter@D@__crt_stdio_output@@@2@@__crt_stdio_output@@AAE_ND@Z 1005c8c0 f i libucrtd:output.obj
 0001:0005b9d0       ?type_case_c_tchar@?$output_processor@DV?$string_output_adapter@D@__crt_stdio_output@@V?$standard_base@DV?$string_output_adapter@D@__crt_stdio_output@@@2@@__crt_stdio_output@@AAE_ND@Z 1005c9d0 f i libucrtd:output.obj
 0001:0005bae0       ?type_case_c_tchar@?$output_processor@_WV?$stream_output_adapter@_W@__crt_stdio_output@@V?$format_validation_base@_WV?$stream_output_adapter@_W@__crt_stdio_output@@@2@@__crt_stdio_output@@AAE_N_W@Z 1005cae0 f i libucrtd:output.obj
 0001:0005bbe0       ?type_case_c_tchar@?$output_processor@_WV?$stream_output_adapter@_W@__crt_stdio_output@@V?$positional_parameter_base@_WV?$stream_output_adapter@_W@__crt_stdio_output@@@2@@__crt_stdio_output@@AAE_N_W@Z 1005cbe0 f i libucrtd:output.obj
 0001:0005bce0       ?type_case_c_tchar@?$output_processor@_WV?$stream_output_adapter@_W@__crt_stdio_output@@V?$standard_base@_WV?$stream_output_adapter@_W@__crt_stdio_output@@@2@@__crt_stdio_output@@AAE_N_W@Z 1005cce0 f i libucrtd:output.obj
 0001:0005bde0       ?type_case_c_tchar@?$output_processor@_WV?$string_output_adapter@_W@__crt_stdio_output@@V?$format_validation_base@_WV?$string_output_adapter@_W@__crt_stdio_output@@@2@@__crt_stdio_output@@AAE_N_W@Z 1005cde0 f i libucrtd:output.obj
 0001:0005bee0       ?type_case_c_tchar@?$output_processor@_WV?$string_output_adapter@_W@__crt_stdio_output@@V?$positional_parameter_base@_WV?$string_output_adapter@_W@__crt_stdio_output@@@2@@__crt_stdio_output@@AAE_N_W@Z 1005cee0 f i libucrtd:output.obj
 0001:0005bfe0       ?type_case_c_tchar@?$output_processor@_WV?$string_output_adapter@_W@__crt_stdio_output@@V?$standard_base@_WV?$string_output_adapter@_W@__crt_stdio_output@@@2@@__crt_stdio_output@@AAE_N_W@Z 1005cfe0 f i libucrtd:output.obj
 0001:0005c0e0       ?type_case_d@?$output_processor@DV?$stream_output_adapter@D@__crt_stdio_output@@V?$format_validation_base@DV?$stream_output_adapter@D@__crt_stdio_output@@@2@@__crt_stdio_output@@AAE_NXZ 1005d0e0 f i libucrtd:output.obj
 0001:0005c110       ?type_case_d@?$output_processor@DV?$stream_output_adapter@D@__crt_stdio_output@@V?$positional_parameter_base@DV?$stream_output_adapter@D@__crt_stdio_output@@@2@@__crt_stdio_output@@AAE_NXZ 1005d110 f i libucrtd:output.obj
 0001:0005c140       ?type_case_d@?$output_processor@DV?$stream_output_adapter@D@__crt_stdio_output@@V?$standard_base@DV?$stream_output_adapter@D@__crt_stdio_output@@@2@@__crt_stdio_output@@AAE_NXZ 1005d140 f i libucrtd:output.obj
 0001:0005c170       ?type_case_d@?$output_processor@DV?$string_output_adapter@D@__crt_stdio_output@@V?$format_validation_base@DV?$string_output_adapter@D@__crt_stdio_output@@@2@@__crt_stdio_output@@AAE_NXZ 1005d170 f i libucrtd:output.obj
 0001:0005c1a0       ?type_case_d@?$output_processor@DV?$string_output_adapter@D@__crt_stdio_output@@V?$positional_parameter_base@DV?$string_output_adapter@D@__crt_stdio_output@@@2@@__crt_stdio_output@@AAE_NXZ 1005d1a0 f i libucrtd:output.obj
 0001:0005c1d0       ?type_case_d@?$output_processor@DV?$string_output_adapter@D@__crt_stdio_output@@V?$standard_base@DV?$string_output_adapter@D@__crt_stdio_output@@@2@@__crt_stdio_output@@AAE_NXZ 1005d1d0 f i libucrtd:output.obj
 0001:0005c200       ?type_case_d@?$output_processor@_WV?$stream_output_adapter@_W@__crt_stdio_output@@V?$format_validation_base@_WV?$stream_output_adapter@_W@__crt_stdio_output@@@2@@__crt_stdio_output@@AAE_NXZ 1005d200 f i libucrtd:output.obj
 0001:0005c230       ?type_case_d@?$output_processor@_WV?$stream_output_adapter@_W@__crt_stdio_output@@V?$positional_parameter_base@_WV?$stream_output_adapter@_W@__crt_stdio_output@@@2@@__crt_stdio_output@@AAE_NXZ 1005d230 f i libucrtd:output.obj
 0001:0005c260       ?type_case_d@?$output_processor@_WV?$stream_output_adapter@_W@__crt_stdio_output@@V?$standard_base@_WV?$stream_output_adapter@_W@__crt_stdio_output@@@2@@__crt_stdio_output@@AAE_NXZ 1005d260 f i libucrtd:output.obj
 0001:0005c290       ?type_case_d@?$output_processor@_WV?$string_output_adapter@_W@__crt_stdio_output@@V?$format_validation_base@_WV?$string_output_adapter@_W@__crt_stdio_output@@@2@@__crt_stdio_output@@AAE_NXZ 1005d290 f i libucrtd:output.obj
 0001:0005c2c0       ?type_case_d@?$output_processor@_WV?$string_output_adapter@_W@__crt_stdio_output@@V?$positional_parameter_base@_WV?$string_output_adapter@_W@__crt_stdio_output@@@2@@__crt_stdio_output@@AAE_NXZ 1005d2c0 f i libucrtd:output.obj
 0001:0005c2f0       ?type_case_d@?$output_processor@_WV?$string_output_adapter@_W@__crt_stdio_output@@V?$standard_base@_WV?$string_output_adapter@_W@__crt_stdio_output@@@2@@__crt_stdio_output@@AAE_NXZ 1005d2f0 f i libucrtd:output.obj
 0001:0005c320       ?type_case_integer@?$output_processor@DV?$stream_output_adapter@D@__crt_stdio_output@@V?$format_validation_base@DV?$stream_output_adapter@D@__crt_stdio_output@@@2@@__crt_stdio_output@@AAE_NI_N@Z 1005d320 f i libucrtd:output.obj
 0001:0005c670       ?type_case_integer@?$output_processor@DV?$stream_output_adapter@D@__crt_stdio_output@@V?$positional_parameter_base@DV?$stream_output_adapter@D@__crt_stdio_output@@@2@@__crt_stdio_output@@AAE_NI_N@Z 1005d670 f i libucrtd:output.obj
 0001:0005c9c0       ?type_case_integer@?$output_processor@DV?$stream_output_adapter@D@__crt_stdio_output@@V?$standard_base@DV?$stream_output_adapter@D@__crt_stdio_output@@@2@@__crt_stdio_output@@AAE_NI_N@Z 1005d9c0 f i libucrtd:output.obj
 0001:0005cd10       ?type_case_integer@?$output_processor@DV?$string_output_adapter@D@__crt_stdio_output@@V?$format_validation_base@DV?$string_output_adapter@D@__crt_stdio_output@@@2@@__crt_stdio_output@@AAE_NI_N@Z 1005dd10 f i libucrtd:output.obj
 0001:0005d060       ?type_case_integer@?$output_processor@DV?$string_output_adapter@D@__crt_stdio_output@@V?$positional_parameter_base@DV?$string_output_adapter@D@__crt_stdio_output@@@2@@__crt_stdio_output@@AAE_NI_N@Z 1005e060 f i libucrtd:output.obj
 0001:0005d3b0       ?type_case_integer@?$output_processor@DV?$string_output_adapter@D@__crt_stdio_output@@V?$standard_base@DV?$string_output_adapter@D@__crt_stdio_output@@@2@@__crt_stdio_output@@AAE_NI_N@Z 1005e3b0 f i libucrtd:output.obj
 0001:0005d700       ?type_case_integer@?$output_processor@_WV?$stream_output_adapter@_W@__crt_stdio_output@@V?$format_validation_base@_WV?$stream_output_adapter@_W@__crt_stdio_output@@@2@@__crt_stdio_output@@AAE_NI_N@Z 1005e700 f i libucrtd:output.obj
 0001:0005da50       ?type_case_integer@?$output_processor@_WV?$stream_output_adapter@_W@__crt_stdio_output@@V?$positional_parameter_base@_WV?$stream_output_adapter@_W@__crt_stdio_output@@@2@@__crt_stdio_output@@AAE_NI_N@Z 1005ea50 f i libucrtd:output.obj
 0001:0005dda0       ?type_case_integer@?$output_processor@_WV?$stream_output_adapter@_W@__crt_stdio_output@@V?$standard_base@_WV?$stream_output_adapter@_W@__crt_stdio_output@@@2@@__crt_stdio_output@@AAE_NI_N@Z 1005eda0 f i libucrtd:output.obj
 0001:0005e0f0       ?type_case_integer@?$output_processor@_WV?$string_output_adapter@_W@__crt_stdio_output@@V?$format_validation_base@_WV?$string_output_adapter@_W@__crt_stdio_output@@@2@@__crt_stdio_output@@AAE_NI_N@Z 1005f0f0 f i libucrtd:output.obj
 0001:0005e440       ?type_case_integer@?$output_processor@_WV?$string_output_adapter@_W@__crt_stdio_output@@V?$positional_parameter_base@_WV?$string_output_adapter@_W@__crt_stdio_output@@@2@@__crt_stdio_output@@AAE_NI_N@Z 1005f440 f i libucrtd:output.obj
 0001:0005e790       ?type_case_integer@?$output_processor@_WV?$string_output_adapter@_W@__crt_stdio_output@@V?$standard_base@_WV?$string_output_adapter@_W@__crt_stdio_output@@@2@@__crt_stdio_output@@AAE_NI_N@Z 1005f790 f i libucrtd:output.obj
 0001:0005eae0       ?type_case_n@?$output_processor@DV?$stream_output_adapter@D@__crt_stdio_output@@V?$format_validation_base@DV?$stream_output_adapter@D@__crt_stdio_output@@@2@@__crt_stdio_output@@AAE_NXZ 1005fae0 f i libucrtd:output.obj
 0001:0005ecd0       ?type_case_n@?$output_processor@DV?$stream_output_adapter@D@__crt_stdio_output@@V?$positional_parameter_base@DV?$stream_output_adapter@D@__crt_stdio_output@@@2@@__crt_stdio_output@@AAE_NXZ 1005fcd0 f i libucrtd:output.obj
 0001:0005eec0       ?type_case_n@?$output_processor@DV?$stream_output_adapter@D@__crt_stdio_output@@V?$standard_base@DV?$stream_output_adapter@D@__crt_stdio_output@@@2@@__crt_stdio_output@@AAE_NXZ 1005fec0 f i libucrtd:output.obj
 0001:0005f0b0       ?type_case_n@?$output_processor@DV?$string_output_adapter@D@__crt_stdio_output@@V?$format_validation_base@DV?$string_output_adapter@D@__crt_stdio_output@@@2@@__crt_stdio_output@@AAE_NXZ 100600b0 f i libucrtd:output.obj
 0001:0005f2a0       ?type_case_n@?$output_processor@DV?$string_output_adapter@D@__crt_stdio_output@@V?$positional_parameter_base@DV?$string_output_adapter@D@__crt_stdio_output@@@2@@__crt_stdio_output@@AAE_NXZ 100602a0 f i libucrtd:output.obj
 0001:0005f490       ?type_case_n@?$output_processor@DV?$string_output_adapter@D@__crt_stdio_output@@V?$standard_base@DV?$string_output_adapter@D@__crt_stdio_output@@@2@@__crt_stdio_output@@AAE_NXZ 10060490 f i libucrtd:output.obj
 0001:0005f680       ?type_case_n@?$output_processor@_WV?$stream_output_adapter@_W@__crt_stdio_output@@V?$format_validation_base@_WV?$stream_output_adapter@_W@__crt_stdio_output@@@2@@__crt_stdio_output@@AAE_NXZ 10060680 f i libucrtd:output.obj
 0001:0005f870       ?type_case_n@?$output_processor@_WV?$stream_output_adapter@_W@__crt_stdio_output@@V?$positional_parameter_base@_WV?$stream_output_adapter@_W@__crt_stdio_output@@@2@@__crt_stdio_output@@AAE_NXZ 10060870 f i libucrtd:output.obj
 0001:0005fa60       ?type_case_n@?$output_processor@_WV?$stream_output_adapter@_W@__crt_stdio_output@@V?$standard_base@_WV?$stream_output_adapter@_W@__crt_stdio_output@@@2@@__crt_stdio_output@@AAE_NXZ 10060a60 f i libucrtd:output.obj
 0001:0005fc50       ?type_case_n@?$output_processor@_WV?$string_output_adapter@_W@__crt_stdio_output@@V?$format_validation_base@_WV?$string_output_adapter@_W@__crt_stdio_output@@@2@@__crt_stdio_output@@AAE_NXZ 10060c50 f i libucrtd:output.obj
 0001:0005fe40       ?type_case_n@?$output_processor@_WV?$string_output_adapter@_W@__crt_stdio_output@@V?$positional_parameter_base@_WV?$string_output_adapter@_W@__crt_stdio_output@@@2@@__crt_stdio_output@@AAE_NXZ 10060e40 f i libucrtd:output.obj
 0001:00060030       ?type_case_n@?$output_processor@_WV?$string_output_adapter@_W@__crt_stdio_output@@V?$standard_base@_WV?$string_output_adapter@_W@__crt_stdio_output@@@2@@__crt_stdio_output@@AAE_NXZ 10061030 f i libucrtd:output.obj
 0001:00060220       ?type_case_o@?$output_processor@DV?$stream_output_adapter@D@__crt_stdio_output@@V?$format_validation_base@DV?$stream_output_adapter@D@__crt_stdio_output@@@2@@__crt_stdio_output@@AAE_NXZ 10061220 f i libucrtd:output.obj
 0001:00060260       ?type_case_o@?$output_processor@DV?$stream_output_adapter@D@__crt_stdio_output@@V?$positional_parameter_base@DV?$stream_output_adapter@D@__crt_stdio_output@@@2@@__crt_stdio_output@@AAE_NXZ 10061260 f i libucrtd:output.obj
 0001:000602a0       ?type_case_o@?$output_processor@DV?$stream_output_adapter@D@__crt_stdio_output@@V?$standard_base@DV?$stream_output_adapter@D@__crt_stdio_output@@@2@@__crt_stdio_output@@AAE_NXZ 100612a0 f i libucrtd:output.obj
 0001:000602e0       ?type_case_o@?$output_processor@DV?$string_output_adapter@D@__crt_stdio_output@@V?$format_validation_base@DV?$string_output_adapter@D@__crt_stdio_output@@@2@@__crt_stdio_output@@AAE_NXZ 100612e0 f i libucrtd:output.obj
 0001:00060320       ?type_case_o@?$output_processor@DV?$string_output_adapter@D@__crt_stdio_output@@V?$positional_parameter_base@DV?$string_output_adapter@D@__crt_stdio_output@@@2@@__crt_stdio_output@@AAE_NXZ 10061320 f i libucrtd:output.obj
 0001:00060360       ?type_case_o@?$output_processor@DV?$string_output_adapter@D@__crt_stdio_output@@V?$standard_base@DV?$string_output_adapter@D@__crt_stdio_output@@@2@@__crt_stdio_output@@AAE_NXZ 10061360 f i libucrtd:output.obj
 0001:000603a0       ?type_case_o@?$output_processor@_WV?$stream_output_adapter@_W@__crt_stdio_output@@V?$format_validation_base@_WV?$stream_output_adapter@_W@__crt_stdio_output@@@2@@__crt_stdio_output@@AAE_NXZ 100613a0 f i libucrtd:output.obj
 0001:000603e0       ?type_case_o@?$output_processor@_WV?$stream_output_adapter@_W@__crt_stdio_output@@V?$positional_parameter_base@_WV?$stream_output_adapter@_W@__crt_stdio_output@@@2@@__crt_stdio_output@@AAE_NXZ 100613e0 f i libucrtd:output.obj
 0001:00060420       ?type_case_o@?$output_processor@_WV?$stream_output_adapter@_W@__crt_stdio_output@@V?$standard_base@_WV?$stream_output_adapter@_W@__crt_stdio_output@@@2@@__crt_stdio_output@@AAE_NXZ 10061420 f i libucrtd:output.obj
 0001:00060460       ?type_case_o@?$output_processor@_WV?$string_output_adapter@_W@__crt_stdio_output@@V?$format_validation_base@_WV?$string_output_adapter@_W@__crt_stdio_output@@@2@@__crt_stdio_output@@AAE_NXZ 10061460 f i libucrtd:output.obj
 0001:000604a0       ?type_case_o@?$output_processor@_WV?$string_output_adapter@_W@__crt_stdio_output@@V?$positional_parameter_base@_WV?$string_output_adapter@_W@__crt_stdio_output@@@2@@__crt_stdio_output@@AAE_NXZ 100614a0 f i libucrtd:output.obj
 0001:000604e0       ?type_case_o@?$output_processor@_WV?$string_output_adapter@_W@__crt_stdio_output@@V?$standard_base@_WV?$string_output_adapter@_W@__crt_stdio_output@@@2@@__crt_stdio_output@@AAE_NXZ 100614e0 f i libucrtd:output.obj
 0001:00060520       ?type_case_p@?$output_processor@DV?$stream_output_adapter@D@__crt_stdio_output@@V?$format_validation_base@DV?$stream_output_adapter@D@__crt_stdio_output@@@2@@__crt_stdio_output@@AAE_NXZ 10061520 f i libucrtd:output.obj
 0001:00060550       ?type_case_p@?$output_processor@DV?$stream_output_adapter@D@__crt_stdio_output@@V?$positional_parameter_base@DV?$stream_output_adapter@D@__crt_stdio_output@@@2@@__crt_stdio_output@@AAE_NXZ 10061550 f i libucrtd:output.obj
 0001:00060580       ?type_case_p@?$output_processor@DV?$stream_output_adapter@D@__crt_stdio_output@@V?$standard_base@DV?$stream_output_adapter@D@__crt_stdio_output@@@2@@__crt_stdio_output@@AAE_NXZ 10061580 f i libucrtd:output.obj
 0001:000605b0       ?type_case_p@?$output_processor@DV?$string_output_adapter@D@__crt_stdio_output@@V?$format_validation_base@DV?$string_output_adapter@D@__crt_stdio_output@@@2@@__crt_stdio_output@@AAE_NXZ 100615b0 f i libucrtd:output.obj
 0001:000605e0       ?type_case_p@?$output_processor@DV?$string_output_adapter@D@__crt_stdio_output@@V?$positional_parameter_base@DV?$string_output_adapter@D@__crt_stdio_output@@@2@@__crt_stdio_output@@AAE_NXZ 100615e0 f i libucrtd:output.obj
 0001:00060610       ?type_case_p@?$output_processor@DV?$string_output_adapter@D@__crt_stdio_output@@V?$standard_base@DV?$string_output_adapter@D@__crt_stdio_output@@@2@@__crt_stdio_output@@AAE_NXZ 10061610 f i libucrtd:output.obj
 0001:00060640       ?type_case_p@?$output_processor@_WV?$stream_output_adapter@_W@__crt_stdio_output@@V?$format_validation_base@_WV?$stream_output_adapter@_W@__crt_stdio_output@@@2@@__crt_stdio_output@@AAE_NXZ 10061640 f i libucrtd:output.obj
 0001:00060670       ?type_case_p@?$output_processor@_WV?$stream_output_adapter@_W@__crt_stdio_output@@V?$positional_parameter_base@_WV?$stream_output_adapter@_W@__crt_stdio_output@@@2@@__crt_stdio_output@@AAE_NXZ 10061670 f i libucrtd:output.obj
 0001:000606a0       ?type_case_p@?$output_processor@_WV?$stream_output_adapter@_W@__crt_stdio_output@@V?$standard_base@_WV?$stream_output_adapter@_W@__crt_stdio_output@@@2@@__crt_stdio_output@@AAE_NXZ 100616a0 f i libucrtd:output.obj
 0001:000606d0       ?type_case_p@?$output_processor@_WV?$string_output_adapter@_W@__crt_stdio_output@@V?$format_validation_base@_WV?$string_output_adapter@_W@__crt_stdio_output@@@2@@__crt_stdio_output@@AAE_NXZ 100616d0 f i libucrtd:output.obj
 0001:00060700       ?type_case_p@?$output_processor@_WV?$string_output_adapter@_W@__crt_stdio_output@@V?$positional_parameter_base@_WV?$string_output_adapter@_W@__crt_stdio_output@@@2@@__crt_stdio_output@@AAE_NXZ 10061700 f i libucrtd:output.obj
 0001:00060730       ?type_case_p@?$output_processor@_WV?$string_output_adapter@_W@__crt_stdio_output@@V?$standard_base@_WV?$string_output_adapter@_W@__crt_stdio_output@@@2@@__crt_stdio_output@@AAE_NXZ 10061730 f i libucrtd:output.obj
 0001:00060760       ?type_case_s@?$output_processor@DV?$stream_output_adapter@D@__crt_stdio_output@@V?$format_validation_base@DV?$stream_output_adapter@D@__crt_stdio_output@@@2@@__crt_stdio_output@@AAE_NXZ 10061760 f i libucrtd:output.obj
 0001:00060850       ?type_case_s@?$output_processor@DV?$stream_output_adapter@D@__crt_stdio_output@@V?$positional_parameter_base@DV?$stream_output_adapter@D@__crt_stdio_output@@@2@@__crt_stdio_output@@AAE_NXZ 10061850 f i libucrtd:output.obj
 0001:00060940       ?type_case_s@?$output_processor@DV?$stream_output_adapter@D@__crt_stdio_output@@V?$standard_base@DV?$stream_output_adapter@D@__crt_stdio_output@@@2@@__crt_stdio_output@@AAE_NXZ 10061940 f i libucrtd:output.obj
 0001:00060a30       ?type_case_s@?$output_processor@DV?$string_output_adapter@D@__crt_stdio_output@@V?$format_validation_base@DV?$string_output_adapter@D@__crt_stdio_output@@@2@@__crt_stdio_output@@AAE_NXZ 10061a30 f i libucrtd:output.obj
 0001:00060b20       ?type_case_s@?$output_processor@DV?$string_output_adapter@D@__crt_stdio_output@@V?$positional_parameter_base@DV?$string_output_adapter@D@__crt_stdio_output@@@2@@__crt_stdio_output@@AAE_NXZ 10061b20 f i libucrtd:output.obj
 0001:00060c10       ?type_case_s@?$output_processor@DV?$string_output_adapter@D@__crt_stdio_output@@V?$standard_base@DV?$string_output_adapter@D@__crt_stdio_output@@@2@@__crt_stdio_output@@AAE_NXZ 10061c10 f i libucrtd:output.obj
 0001:00060d00       ?type_case_s@?$output_processor@_WV?$stream_output_adapter@_W@__crt_stdio_output@@V?$format_validation_base@_WV?$stream_output_adapter@_W@__crt_stdio_output@@@2@@__crt_stdio_output@@AAE_NXZ 10061d00 f i libucrtd:output.obj
 0001:00060df0       ?type_case_s@?$output_processor@_WV?$stream_output_adapter@_W@__crt_stdio_output@@V?$positional_parameter_base@_WV?$stream_output_adapter@_W@__crt_stdio_output@@@2@@__crt_stdio_output@@AAE_NXZ 10061df0 f i libucrtd:output.obj
 0001:00060ee0       ?type_case_s@?$output_processor@_WV?$stream_output_adapter@_W@__crt_stdio_output@@V?$standard_base@_WV?$stream_output_adapter@_W@__crt_stdio_output@@@2@@__crt_stdio_output@@AAE_NXZ 10061ee0 f i libucrtd:output.obj
 0001:00060fd0       ?type_case_s@?$output_processor@_WV?$string_output_adapter@_W@__crt_stdio_output@@V?$format_validation_base@_WV?$string_output_adapter@_W@__crt_stdio_output@@@2@@__crt_stdio_output@@AAE_NXZ 10061fd0 f i libucrtd:output.obj
 0001:000610c0       ?type_case_s@?$output_processor@_WV?$string_output_adapter@_W@__crt_stdio_output@@V?$positional_parameter_base@_WV?$string_output_adapter@_W@__crt_stdio_output@@@2@@__crt_stdio_output@@AAE_NXZ 100620c0 f i libucrtd:output.obj
 0001:000611b0       ?type_case_s@?$output_processor@_WV?$string_output_adapter@_W@__crt_stdio_output@@V?$standard_base@_WV?$string_output_adapter@_W@__crt_stdio_output@@@2@@__crt_stdio_output@@AAE_NXZ 100621b0 f i libucrtd:output.obj
 0001:000612a0       ?type_case_s_compute_narrow_string_length@?$output_processor@DV?$stream_output_adapter@D@__crt_stdio_output@@V?$format_validation_base@DV?$stream_output_adapter@D@__crt_stdio_output@@@2@@__crt_stdio_output@@ABEHHD@Z 100622a0 f i libucrtd:output.obj
 0001:000612d0       ?type_case_s_compute_narrow_string_length@?$output_processor@DV?$stream_output_adapter@D@__crt_stdio_output@@V?$positional_parameter_base@DV?$stream_output_adapter@D@__crt_stdio_output@@@2@@__crt_stdio_output@@ABEHHD@Z 100622d0 f i libucrtd:output.obj
 0001:00061300       ?type_case_s_compute_narrow_string_length@?$output_processor@DV?$stream_output_adapter@D@__crt_stdio_output@@V?$standard_base@DV?$stream_output_adapter@D@__crt_stdio_output@@@2@@__crt_stdio_output@@ABEHHD@Z 10062300 f i libucrtd:output.obj
 0001:00061330       ?type_case_s_compute_narrow_string_length@?$output_processor@DV?$string_output_adapter@D@__crt_stdio_output@@V?$format_validation_base@DV?$string_output_adapter@D@__crt_stdio_output@@@2@@__crt_stdio_output@@ABEHHD@Z 10062330 f i libucrtd:output.obj
 0001:00061360       ?type_case_s_compute_narrow_string_length@?$output_processor@DV?$string_output_adapter@D@__crt_stdio_output@@V?$positional_parameter_base@DV?$string_output_adapter@D@__crt_stdio_output@@@2@@__crt_stdio_output@@ABEHHD@Z 10062360 f i libucrtd:output.obj
 0001:00061390       ?type_case_s_compute_narrow_string_length@?$output_processor@DV?$string_output_adapter@D@__crt_stdio_output@@V?$standard_base@DV?$string_output_adapter@D@__crt_stdio_output@@@2@@__crt_stdio_output@@ABEHHD@Z 10062390 f i libucrtd:output.obj
 0001:000613c0       ?type_case_s_compute_narrow_string_length@?$output_processor@_WV?$stream_output_adapter@_W@__crt_stdio_output@@V?$format_validation_base@_WV?$stream_output_adapter@_W@__crt_stdio_output@@@2@@__crt_stdio_output@@ABEHH_W@Z 100623c0 f i libucrtd:output.obj
 0001:00061430       ?type_case_s_compute_narrow_string_length@?$output_processor@_WV?$stream_output_adapter@_W@__crt_stdio_output@@V?$positional_parameter_base@_WV?$stream_output_adapter@_W@__crt_stdio_output@@@2@@__crt_stdio_output@@ABEHH_W@Z 10062430 f i libucrtd:output.obj
 0001:000614a0       ?type_case_s_compute_narrow_string_length@?$output_processor@_WV?$stream_output_adapter@_W@__crt_stdio_output@@V?$standard_base@_WV?$stream_output_adapter@_W@__crt_stdio_output@@@2@@__crt_stdio_output@@ABEHH_W@Z 100624a0 f i libucrtd:output.obj
 0001:00061510       ?type_case_s_compute_narrow_string_length@?$output_processor@_WV?$string_output_adapter@_W@__crt_stdio_output@@V?$format_validation_base@_WV?$string_output_adapter@_W@__crt_stdio_output@@@2@@__crt_stdio_output@@ABEHH_W@Z 10062510 f i libucrtd:output.obj
 0001:00061580       ?type_case_s_compute_narrow_string_length@?$output_processor@_WV?$string_output_adapter@_W@__crt_stdio_output@@V?$positional_parameter_base@_WV?$string_output_adapter@_W@__crt_stdio_output@@@2@@__crt_stdio_output@@ABEHH_W@Z 10062580 f i libucrtd:output.obj
 0001:000615f0       ?type_case_s_compute_narrow_string_length@?$output_processor@_WV?$string_output_adapter@_W@__crt_stdio_output@@V?$standard_base@_WV?$string_output_adapter@_W@__crt_stdio_output@@@2@@__crt_stdio_output@@ABEHH_W@Z 100625f0 f i libucrtd:output.obj
 0001:00061660       ?type_case_u@?$output_processor@DV?$stream_output_adapter@D@__crt_stdio_output@@V?$format_validation_base@DV?$stream_output_adapter@D@__crt_stdio_output@@@2@@__crt_stdio_output@@AAE_NXZ 10062660 f i libucrtd:output.obj
 0001:00061680       ?type_case_u@?$output_processor@DV?$stream_output_adapter@D@__crt_stdio_output@@V?$positional_parameter_base@DV?$stream_output_adapter@D@__crt_stdio_output@@@2@@__crt_stdio_output@@AAE_NXZ 10062680 f i libucrtd:output.obj
 0001:000616a0       ?type_case_u@?$output_processor@DV?$stream_output_adapter@D@__crt_stdio_output@@V?$standard_base@DV?$stream_output_adapter@D@__crt_stdio_output@@@2@@__crt_stdio_output@@AAE_NXZ 100626a0 f i libucrtd:output.obj
 0001:000616c0       ?type_case_u@?$output_processor@DV?$string_output_adapter@D@__crt_stdio_output@@V?$format_validation_base@DV?$string_output_adapter@D@__crt_stdio_output@@@2@@__crt_stdio_output@@AAE_NXZ 100626c0 f i libucrtd:output.obj
 0001:000616e0       ?type_case_u@?$output_processor@DV?$string_output_adapter@D@__crt_stdio_output@@V?$positional_parameter_base@DV?$string_output_adapter@D@__crt_stdio_output@@@2@@__crt_stdio_output@@AAE_NXZ 100626e0 f i libucrtd:output.obj
 0001:00061700       ?type_case_u@?$output_processor@DV?$string_output_adapter@D@__crt_stdio_output@@V?$standard_base@DV?$string_output_adapter@D@__crt_stdio_output@@@2@@__crt_stdio_output@@AAE_NXZ 10062700 f i libucrtd:output.obj
 0001:00061720       ?type_case_u@?$output_processor@_WV?$stream_output_adapter@_W@__crt_stdio_output@@V?$format_validation_base@_WV?$stream_output_adapter@_W@__crt_stdio_output@@@2@@__crt_stdio_output@@AAE_NXZ 10062720 f i libucrtd:output.obj
 0001:00061740       ?type_case_u@?$output_processor@_WV?$stream_output_adapter@_W@__crt_stdio_output@@V?$positional_parameter_base@_WV?$stream_output_adapter@_W@__crt_stdio_output@@@2@@__crt_stdio_output@@AAE_NXZ 10062740 f i libucrtd:output.obj
 0001:00061760       ?type_case_u@?$output_processor@_WV?$stream_output_adapter@_W@__crt_stdio_output@@V?$standard_base@_WV?$stream_output_adapter@_W@__crt_stdio_output@@@2@@__crt_stdio_output@@AAE_NXZ 10062760 f i libucrtd:output.obj
 0001:00061780       ?type_case_u@?$output_processor@_WV?$string_output_adapter@_W@__crt_stdio_output@@V?$format_validation_base@_WV?$string_output_adapter@_W@__crt_stdio_output@@@2@@__crt_stdio_output@@AAE_NXZ 10062780 f i libucrtd:output.obj
 0001:000617a0       ?type_case_u@?$output_processor@_WV?$string_output_adapter@_W@__crt_stdio_output@@V?$positional_parameter_base@_WV?$string_output_adapter@_W@__crt_stdio_output@@@2@@__crt_stdio_output@@AAE_NXZ 100627a0 f i libucrtd:output.obj
 0001:000617c0       ?type_case_u@?$output_processor@_WV?$string_output_adapter@_W@__crt_stdio_output@@V?$standard_base@_WV?$string_output_adapter@_W@__crt_stdio_output@@@2@@__crt_stdio_output@@AAE_NXZ 100627c0 f i libucrtd:output.obj
 0001:000617e0       ?type_case_x@?$output_processor@DV?$stream_output_adapter@D@__crt_stdio_output@@V?$format_validation_base@DV?$stream_output_adapter@D@__crt_stdio_output@@@2@@__crt_stdio_output@@AAE_NXZ 100627e0 f i libucrtd:output.obj
 0001:00061800       ?type_case_x@?$output_processor@DV?$stream_output_adapter@D@__crt_stdio_output@@V?$positional_parameter_base@DV?$stream_output_adapter@D@__crt_stdio_output@@@2@@__crt_stdio_output@@AAE_NXZ 10062800 f i libucrtd:output.obj
 0001:00061820       ?type_case_x@?$output_processor@DV?$stream_output_adapter@D@__crt_stdio_output@@V?$standard_base@DV?$stream_output_adapter@D@__crt_stdio_output@@@2@@__crt_stdio_output@@AAE_NXZ 10062820 f i libucrtd:output.obj
 0001:00061840       ?type_case_x@?$output_processor@DV?$string_output_adapter@D@__crt_stdio_output@@V?$format_validation_base@DV?$string_output_adapter@D@__crt_stdio_output@@@2@@__crt_stdio_output@@AAE_NXZ 10062840 f i libucrtd:output.obj
 0001:00061860       ?type_case_x@?$output_processor@DV?$string_output_adapter@D@__crt_stdio_output@@V?$positional_parameter_base@DV?$string_output_adapter@D@__crt_stdio_output@@@2@@__crt_stdio_output@@AAE_NXZ 10062860 f i libucrtd:output.obj
 0001:00061880       ?type_case_x@?$output_processor@DV?$string_output_adapter@D@__crt_stdio_output@@V?$standard_base@DV?$string_output_adapter@D@__crt_stdio_output@@@2@@__crt_stdio_output@@AAE_NXZ 10062880 f i libucrtd:output.obj
 0001:000618a0       ?type_case_x@?$output_processor@_WV?$stream_output_adapter@_W@__crt_stdio_output@@V?$format_validation_base@_WV?$stream_output_adapter@_W@__crt_stdio_output@@@2@@__crt_stdio_output@@AAE_NXZ 100628a0 f i libucrtd:output.obj
 0001:000618c0       ?type_case_x@?$output_processor@_WV?$stream_output_adapter@_W@__crt_stdio_output@@V?$positional_parameter_base@_WV?$stream_output_adapter@_W@__crt_stdio_output@@@2@@__crt_stdio_output@@AAE_NXZ 100628c0 f i libucrtd:output.obj
 0001:000618e0       ?type_case_x@?$output_processor@_WV?$stream_output_adapter@_W@__crt_stdio_output@@V?$standard_base@_WV?$stream_output_adapter@_W@__crt_stdio_output@@@2@@__crt_stdio_output@@AAE_NXZ 100628e0 f i libucrtd:output.obj
 0001:00061900       ?type_case_x@?$output_processor@_WV?$string_output_adapter@_W@__crt_stdio_output@@V?$format_validation_base@_WV?$string_output_adapter@_W@__crt_stdio_output@@@2@@__crt_stdio_output@@AAE_NXZ 10062900 f i libucrtd:output.obj
 0001:00061920       ?type_case_x@?$output_processor@_WV?$string_output_adapter@_W@__crt_stdio_output@@V?$positional_parameter_base@_WV?$string_output_adapter@_W@__crt_stdio_output@@@2@@__crt_stdio_output@@AAE_NXZ 10062920 f i libucrtd:output.obj
 0001:00061940       ?type_case_x@?$output_processor@_WV?$string_output_adapter@_W@__crt_stdio_output@@V?$standard_base@_WV?$string_output_adapter@_W@__crt_stdio_output@@@2@@__crt_stdio_output@@AAE_NXZ 10062940 f i libucrtd:output.obj
 0001:00061960       ?unset_flag@?$output_processor@DV?$stream_output_adapter@D@__crt_stdio_output@@V?$format_validation_base@DV?$stream_output_adapter@D@__crt_stdio_output@@@2@@__crt_stdio_output@@AAEXI@Z 10062960 f i libucrtd:output.obj
 0001:00061980       ?unset_flag@?$output_processor@DV?$stream_output_adapter@D@__crt_stdio_output@@V?$positional_parameter_base@DV?$stream_output_adapter@D@__crt_stdio_output@@@2@@__crt_stdio_output@@AAEXI@Z 10062980 f i libucrtd:output.obj
 0001:000619a0       ?unset_flag@?$output_processor@DV?$stream_output_adapter@D@__crt_stdio_output@@V?$standard_base@DV?$stream_output_adapter@D@__crt_stdio_output@@@2@@__crt_stdio_output@@AAEXI@Z 100629a0 f i libucrtd:output.obj
 0001:000619c0       ?unset_flag@?$output_processor@DV?$string_output_adapter@D@__crt_stdio_output@@V?$format_validation_base@DV?$string_output_adapter@D@__crt_stdio_output@@@2@@__crt_stdio_output@@AAEXI@Z 100629c0 f i libucrtd:output.obj
 0001:000619e0       ?unset_flag@?$output_processor@DV?$string_output_adapter@D@__crt_stdio_output@@V?$positional_parameter_base@DV?$string_output_adapter@D@__crt_stdio_output@@@2@@__crt_stdio_output@@AAEXI@Z 100629e0 f i libucrtd:output.obj
 0001:00061a00       ?unset_flag@?$output_processor@DV?$string_output_adapter@D@__crt_stdio_output@@V?$standard_base@DV?$string_output_adapter@D@__crt_stdio_output@@@2@@__crt_stdio_output@@AAEXI@Z 10062a00 f i libucrtd:output.obj
 0001:00061a20       ?unset_flag@?$output_processor@_WV?$stream_output_adapter@_W@__crt_stdio_output@@V?$format_validation_base@_WV?$stream_output_adapter@_W@__crt_stdio_output@@@2@@__crt_stdio_output@@AAEXI@Z 10062a20 f i libucrtd:output.obj
 0001:00061a40       ?unset_flag@?$output_processor@_WV?$stream_output_adapter@_W@__crt_stdio_output@@V?$positional_parameter_base@_WV?$stream_output_adapter@_W@__crt_stdio_output@@@2@@__crt_stdio_output@@AAEXI@Z 10062a40 f i libucrtd:output.obj
 0001:00061a60       ?unset_flag@?$output_processor@_WV?$stream_output_adapter@_W@__crt_stdio_output@@V?$standard_base@_WV?$stream_output_adapter@_W@__crt_stdio_output@@@2@@__crt_stdio_output@@AAEXI@Z 10062a60 f i libucrtd:output.obj
 0001:00061a80       ?unset_flag@?$output_processor@_WV?$string_output_adapter@_W@__crt_stdio_output@@V?$format_validation_base@_WV?$string_output_adapter@_W@__crt_stdio_output@@@2@@__crt_stdio_output@@AAEXI@Z 10062a80 f i libucrtd:output.obj
 0001:00061aa0       ?unset_flag@?$output_processor@_WV?$string_output_adapter@_W@__crt_stdio_output@@V?$positional_parameter_base@_WV?$string_output_adapter@_W@__crt_stdio_output@@@2@@__crt_stdio_output@@AAEXI@Z 10062aa0 f i libucrtd:output.obj
 0001:00061ac0       ?unset_flag@?$output_processor@_WV?$string_output_adapter@_W@__crt_stdio_output@@V?$standard_base@_WV?$string_output_adapter@_W@__crt_stdio_output@@@2@@__crt_stdio_output@@AAEXI@Z 10062ac0 f i libucrtd:output.obj
 0001:00061ae0       ?update_field_width@?$positional_parameter_base@DV?$stream_output_adapter@D@__crt_stdio_output@@@__crt_stdio_output@@IAE_NXZ 10062ae0 f i libucrtd:output.obj
 0001:00061c60       ?update_field_width@?$positional_parameter_base@DV?$string_output_adapter@D@__crt_stdio_output@@@__crt_stdio_output@@IAE_NXZ 10062c60 f i libucrtd:output.obj
 0001:00061de0       ?update_field_width@?$positional_parameter_base@_WV?$stream_output_adapter@_W@__crt_stdio_output@@@__crt_stdio_output@@IAE_NXZ 10062de0 f i libucrtd:output.obj
 0001:00061f60       ?update_field_width@?$positional_parameter_base@_WV?$string_output_adapter@_W@__crt_stdio_output@@@__crt_stdio_output@@IAE_NXZ 10062f60 f i libucrtd:output.obj
 0001:000620e0       ?update_field_width@?$standard_base@DV?$stream_output_adapter@D@__crt_stdio_output@@@__crt_stdio_output@@IAE_NXZ 100630e0 f i libucrtd:output.obj
 0001:00062110       ?update_field_width@?$standard_base@DV?$string_output_adapter@D@__crt_stdio_output@@@__crt_stdio_output@@IAE_NXZ 10063110 f i libucrtd:output.obj
 0001:00062140       ?update_field_width@?$standard_base@_WV?$stream_output_adapter@_W@__crt_stdio_output@@@__crt_stdio_output@@IAE_NXZ 10063140 f i libucrtd:output.obj
 0001:00062170       ?update_field_width@?$standard_base@_WV?$string_output_adapter@_W@__crt_stdio_output@@@__crt_stdio_output@@IAE_NXZ 10063170 f i libucrtd:output.obj
 0001:000621a0       ?update_precision@?$positional_parameter_base@DV?$stream_output_adapter@D@__crt_stdio_output@@@__crt_stdio_output@@IAE_NXZ 100631a0 f i libucrtd:output.obj
 0001:00062320       ?update_precision@?$positional_parameter_base@DV?$string_output_adapter@D@__crt_stdio_output@@@__crt_stdio_output@@IAE_NXZ 10063320 f i libucrtd:output.obj
 0001:000624a0       ?update_precision@?$positional_parameter_base@_WV?$stream_output_adapter@_W@__crt_stdio_output@@@__crt_stdio_output@@IAE_NXZ 100634a0 f i libucrtd:output.obj
 0001:00062620       ?update_precision@?$positional_parameter_base@_WV?$string_output_adapter@_W@__crt_stdio_output@@@__crt_stdio_output@@IAE_NXZ 10063620 f i libucrtd:output.obj
 0001:000627a0       ?update_precision@?$standard_base@DV?$stream_output_adapter@D@__crt_stdio_output@@@__crt_stdio_output@@IAE_NXZ 100637a0 f i libucrtd:output.obj
 0001:000627d0       ?update_precision@?$standard_base@DV?$string_output_adapter@D@__crt_stdio_output@@@__crt_stdio_output@@IAE_NXZ 100637d0 f i libucrtd:output.obj
 0001:00062800       ?update_precision@?$standard_base@_WV?$stream_output_adapter@_W@__crt_stdio_output@@@__crt_stdio_output@@IAE_NXZ 10063800 f i libucrtd:output.obj
 0001:00062830       ?update_precision@?$standard_base@_WV?$string_output_adapter@_W@__crt_stdio_output@@@__crt_stdio_output@@IAE_NXZ 10063830 f i libucrtd:output.obj
 0001:00062860       ?valid@__crt_stdio_stream@@QBE_NXZ 10063860 f i libucrtd:output.obj
 0001:00062890       ?validate@?$stream_output_adapter@D@__crt_stdio_output@@QBE_NXZ 10063890 f i libucrtd:output.obj
 0001:00062940       ?validate@?$stream_output_adapter@_W@__crt_stdio_output@@QBE_NXZ 10063940 f i libucrtd:output.obj
 0001:000629f0       ?validate@?$string_output_adapter@D@__crt_stdio_output@@QBE_NXZ 100639f0 f i libucrtd:output.obj
 0001:00062a80       ?validate@?$string_output_adapter@_W@__crt_stdio_output@@QBE_NXZ 10063a80 f i libucrtd:output.obj
 0001:00062b10       ?validate_and_store_parameter_data@?$positional_parameter_base@DV?$stream_output_adapter@D@__crt_stdio_output@@@__crt_stdio_output@@AAE_NAAUparameter_data@12@W4parameter_type@12@DW4length_modifier@2@@Z 10063b10 f i libucrtd:output.obj
 0001:00062be0       ?validate_and_store_parameter_data@?$positional_parameter_base@DV?$string_output_adapter@D@__crt_stdio_output@@@__crt_stdio_output@@AAE_NAAUparameter_data@12@W4parameter_type@12@DW4length_modifier@2@@Z 10063be0 f i libucrtd:output.obj
 0001:00062cb0       ?validate_and_store_parameter_data@?$positional_parameter_base@_WV?$stream_output_adapter@_W@__crt_stdio_output@@@__crt_stdio_output@@AAE_NAAUparameter_data@12@W4parameter_type@12@_WW4length_modifier@2@@Z 10063cb0 f i libucrtd:output.obj
 0001:00062d90       ?validate_and_store_parameter_data@?$positional_parameter_base@_WV?$string_output_adapter@_W@__crt_stdio_output@@@__crt_stdio_output@@AAE_NAAUparameter_data@12@W4parameter_type@12@_WW4length_modifier@2@@Z 10063d90 f i libucrtd:output.obj
 0001:00062e70       ?validate_and_update_state_at_beginning_of_format_character@?$positional_parameter_base@DV?$stream_output_adapter@D@__crt_stdio_output@@@__crt_stdio_output@@IAE_NXZ 10063e70 f i libucrtd:output.obj
 0001:00063090       ?validate_and_update_state_at_beginning_of_format_character@?$positional_parameter_base@DV?$string_output_adapter@D@__crt_stdio_output@@@__crt_stdio_output@@IAE_NXZ 10064090 f i libucrtd:output.obj
 0001:000632b0       ?validate_and_update_state_at_beginning_of_format_character@?$positional_parameter_base@_WV?$stream_output_adapter@_W@__crt_stdio_output@@@__crt_stdio_output@@IAE_NXZ 100642b0 f i libucrtd:output.obj
 0001:000634d0       ?validate_and_update_state_at_beginning_of_format_character@?$positional_parameter_base@_WV?$string_output_adapter@_W@__crt_stdio_output@@@__crt_stdio_output@@IAE_NXZ 100644d0 f i libucrtd:output.obj
 0001:000636f0       ?validate_and_update_state_at_beginning_of_format_character@?$standard_base@DV?$stream_output_adapter@D@__crt_stdio_output@@@__crt_stdio_output@@IAE_NXZ 100646f0 f i libucrtd:output.obj
 0001:00063700       ?validate_and_update_state_at_beginning_of_format_character@?$standard_base@DV?$string_output_adapter@D@__crt_stdio_output@@@__crt_stdio_output@@IAE_NXZ 10064700 f i libucrtd:output.obj
 0001:00063710       ?validate_and_update_state_at_beginning_of_format_character@?$standard_base@_WV?$stream_output_adapter@_W@__crt_stdio_output@@@__crt_stdio_output@@IAE_NXZ 10064710 f i libucrtd:output.obj
 0001:00063720       ?validate_and_update_state_at_beginning_of_format_character@?$standard_base@_WV?$string_output_adapter@_W@__crt_stdio_output@@@__crt_stdio_output@@IAE_NXZ 10064720 f i libucrtd:output.obj
 0001:00063730       ?validate_and_update_state_at_end_of_format_string@?$format_validation_base@DV?$stream_output_adapter@D@__crt_stdio_output@@@__crt_stdio_output@@IBE_NXZ 10064730 f i libucrtd:output.obj
 0001:000637d0       ?validate_and_update_state_at_end_of_format_string@?$format_validation_base@DV?$string_output_adapter@D@__crt_stdio_output@@@__crt_stdio_output@@IBE_NXZ 100647d0 f i libucrtd:output.obj
 0001:00063870       ?validate_and_update_state_at_end_of_format_string@?$format_validation_base@_WV?$stream_output_adapter@_W@__crt_stdio_output@@@__crt_stdio_output@@IBE_NXZ 10064870 f i libucrtd:output.obj
 0001:00063910       ?validate_and_update_state_at_end_of_format_string@?$format_validation_base@_WV?$string_output_adapter@_W@__crt_stdio_output@@@__crt_stdio_output@@IBE_NXZ 10064910 f i libucrtd:output.obj
 0001:000639b0       ?validate_and_update_state_at_end_of_format_string@?$positional_parameter_base@DV?$stream_output_adapter@D@__crt_stdio_output@@@__crt_stdio_output@@IAE_NXZ 100649b0 f i libucrtd:output.obj
 0001:00063b50       ?validate_and_update_state_at_end_of_format_string@?$positional_parameter_base@DV?$string_output_adapter@D@__crt_stdio_output@@@__crt_stdio_output@@IAE_NXZ 10064b50 f i libucrtd:output.obj
 0001:00063cf0       ?validate_and_update_state_at_end_of_format_string@?$positional_parameter_base@_WV?$stream_output_adapter@_W@__crt_stdio_output@@@__crt_stdio_output@@IAE_NXZ 10064cf0 f i libucrtd:output.obj
 0001:00063e90       ?validate_and_update_state_at_end_of_format_string@?$positional_parameter_base@_WV?$string_output_adapter@_W@__crt_stdio_output@@@__crt_stdio_output@@IAE_NXZ 10064e90 f i libucrtd:output.obj
 0001:00064030       ?validate_and_update_state_at_end_of_format_string@?$standard_base@DV?$stream_output_adapter@D@__crt_stdio_output@@@__crt_stdio_output@@IBE_NXZ 10065030 f i libucrtd:output.obj
 0001:00064040       ?validate_and_update_state_at_end_of_format_string@?$standard_base@DV?$string_output_adapter@D@__crt_stdio_output@@@__crt_stdio_output@@IBE_NXZ 10065040 f i libucrtd:output.obj
 0001:00064050       ?validate_and_update_state_at_end_of_format_string@?$standard_base@_WV?$stream_output_adapter@_W@__crt_stdio_output@@@__crt_stdio_output@@IBE_NXZ 10065050 f i libucrtd:output.obj
 0001:00064060       ?validate_and_update_state_at_end_of_format_string@?$standard_base@_WV?$string_output_adapter@_W@__crt_stdio_output@@@__crt_stdio_output@@IBE_NXZ 10065060 f i libucrtd:output.obj
 0001:00064070       ?validate_state_for_type_case_a@?$positional_parameter_base@DV?$stream_output_adapter@D@__crt_stdio_output@@@__crt_stdio_output@@IAE_NXZ 10065070 f i libucrtd:output.obj
 0001:00064160       ?validate_state_for_type_case_a@?$positional_parameter_base@DV?$string_output_adapter@D@__crt_stdio_output@@@__crt_stdio_output@@IAE_NXZ 10065160 f i libucrtd:output.obj
 0001:00064250       ?validate_state_for_type_case_a@?$positional_parameter_base@_WV?$stream_output_adapter@_W@__crt_stdio_output@@@__crt_stdio_output@@IAE_NXZ 10065250 f i libucrtd:output.obj
 0001:00064340       ?validate_state_for_type_case_a@?$positional_parameter_base@_WV?$string_output_adapter@_W@__crt_stdio_output@@@__crt_stdio_output@@IAE_NXZ 10065340 f i libucrtd:output.obj
 0001:00064430       ?validate_state_for_type_case_a@?$standard_base@DV?$stream_output_adapter@D@__crt_stdio_output@@@__crt_stdio_output@@IBE_NXZ 10065430 f i libucrtd:output.obj
 0001:00064440       ?validate_state_for_type_case_a@?$standard_base@DV?$string_output_adapter@D@__crt_stdio_output@@@__crt_stdio_output@@IBE_NXZ 10065440 f i libucrtd:output.obj
 0001:00064450       ?validate_state_for_type_case_a@?$standard_base@_WV?$stream_output_adapter@_W@__crt_stdio_output@@@__crt_stdio_output@@IBE_NXZ 10065450 f i libucrtd:output.obj
 0001:00064460       ?validate_state_for_type_case_a@?$standard_base@_WV?$string_output_adapter@_W@__crt_stdio_output@@@__crt_stdio_output@@IBE_NXZ 10065460 f i libucrtd:output.obj
 0001:00064470       ?validate_stream_is_ansi_if_required@?$__acrt_stdio_char_traits@D@@SA_NQAU_iobuf@@@Z 10065470 f i libucrtd:output.obj
 0001:000645a0       ?validate_stream_is_ansi_if_required@?$__acrt_stdio_char_traits@_W@@SA_NQAU_iobuf@@@Z 100655a0 f i libucrtd:output.obj
 0001:000645b0       ?wide_null_string@?$output_processor@DV?$stream_output_adapter@D@__crt_stdio_output@@V?$format_validation_base@DV?$stream_output_adapter@D@__crt_stdio_output@@@2@@__crt_stdio_output@@CAPA_WXZ 100655b0 f i libucrtd:output.obj
 0001:000645c0       ?wide_null_string@?$output_processor@DV?$stream_output_adapter@D@__crt_stdio_output@@V?$positional_parameter_base@DV?$stream_output_adapter@D@__crt_stdio_output@@@2@@__crt_stdio_output@@CAPA_WXZ 100655c0 f i libucrtd:output.obj
 0001:000645d0       ?wide_null_string@?$output_processor@DV?$stream_output_adapter@D@__crt_stdio_output@@V?$standard_base@DV?$stream_output_adapter@D@__crt_stdio_output@@@2@@__crt_stdio_output@@CAPA_WXZ 100655d0 f i libucrtd:output.obj
 0001:000645e0       ?wide_null_string@?$output_processor@DV?$string_output_adapter@D@__crt_stdio_output@@V?$format_validation_base@DV?$string_output_adapter@D@__crt_stdio_output@@@2@@__crt_stdio_output@@CAPA_WXZ 100655e0 f i libucrtd:output.obj
 0001:000645f0       ?wide_null_string@?$output_processor@DV?$string_output_adapter@D@__crt_stdio_output@@V?$positional_parameter_base@DV?$string_output_adapter@D@__crt_stdio_output@@@2@@__crt_stdio_output@@CAPA_WXZ 100655f0 f i libucrtd:output.obj
 0001:00064600       ?wide_null_string@?$output_processor@DV?$string_output_adapter@D@__crt_stdio_output@@V?$standard_base@DV?$string_output_adapter@D@__crt_stdio_output@@@2@@__crt_stdio_output@@CAPA_WXZ 10065600 f i libucrtd:output.obj
 0001:00064610       ?wide_null_string@?$output_processor@_WV?$stream_output_adapter@_W@__crt_stdio_output@@V?$format_validation_base@_WV?$stream_output_adapter@_W@__crt_stdio_output@@@2@@__crt_stdio_output@@CAPA_WXZ 10065610 f i libucrtd:output.obj
 0001:00064620       ?wide_null_string@?$output_processor@_WV?$stream_output_adapter@_W@__crt_stdio_output@@V?$positional_parameter_base@_WV?$stream_output_adapter@_W@__crt_stdio_output@@@2@@__crt_stdio_output@@CAPA_WXZ 10065620 f i libucrtd:output.obj
 0001:00064630       ?wide_null_string@?$output_processor@_WV?$stream_output_adapter@_W@__crt_stdio_output@@V?$standard_base@_WV?$stream_output_adapter@_W@__crt_stdio_output@@@2@@__crt_stdio_output@@CAPA_WXZ 10065630 f i libucrtd:output.obj
 0001:00064640       ?wide_null_string@?$output_processor@_WV?$string_output_adapter@_W@__crt_stdio_output@@V?$format_validation_base@_WV?$string_output_adapter@_W@__crt_stdio_output@@@2@@__crt_stdio_output@@CAPA_WXZ 10065640 f i libucrtd:output.obj
 0001:00064650       ?wide_null_string@?$output_processor@_WV?$string_output_adapter@_W@__crt_stdio_output@@V?$positional_parameter_base@_WV?$string_output_adapter@_W@__crt_stdio_output@@@2@@__crt_stdio_output@@CAPA_WXZ 10065650 f i libucrtd:output.obj
 0001:00064660       ?wide_null_string@?$output_processor@_WV?$string_output_adapter@_W@__crt_stdio_output@@V?$standard_base@_WV?$string_output_adapter@_W@__crt_stdio_output@@@2@@__crt_stdio_output@@CAPA_WXZ 10065660 f i libucrtd:output.obj
 0001:00064670       ?write_character@?$output_adapter_common@DV?$stream_output_adapter@D@__crt_stdio_output@@@__crt_stdio_output@@QBEXDQAH@Z 10065670 f i libucrtd:output.obj
 0001:000646b0       ?write_character@?$output_adapter_common@_WV?$stream_output_adapter@_W@__crt_stdio_output@@@__crt_stdio_output@@QBEX_WQAH@Z 100656b0 f i libucrtd:output.obj
 0001:000646f0       ?write_character@?$string_output_adapter@D@__crt_stdio_output@@QBE_NDQAH@Z 100656f0 f i libucrtd:output.obj
 0001:00064780       ?write_character@?$string_output_adapter@_W@__crt_stdio_output@@QBE_N_WQAH@Z 10065780 f i libucrtd:output.obj
 0001:00064820       ?write_character_without_count_update@?$stream_output_adapter@D@__crt_stdio_output@@QBE_ND@Z 10065820 f i libucrtd:output.obj
 0001:00064890       ?write_character_without_count_update@?$stream_output_adapter@_W@__crt_stdio_output@@QBE_N_W@Z 10065890 f i libucrtd:output.obj
 0001:00064900       ?write_stored_string_tchar@?$output_processor@DV?$stream_output_adapter@D@__crt_stdio_output@@V?$format_validation_base@DV?$stream_output_adapter@D@__crt_stdio_output@@@2@@__crt_stdio_output@@AAE_ND@Z 10065900 f i libucrtd:output.obj
 0001:00064a20       ?write_stored_string_tchar@?$output_processor@DV?$stream_output_adapter@D@__crt_stdio_output@@V?$positional_parameter_base@DV?$stream_output_adapter@D@__crt_stdio_output@@@2@@__crt_stdio_output@@AAE_ND@Z 10065a20 f i libucrtd:output.obj
 0001:00064b40       ?write_stored_string_tchar@?$output_processor@DV?$stream_output_adapter@D@__crt_stdio_output@@V?$standard_base@DV?$stream_output_adapter@D@__crt_stdio_output@@@2@@__crt_stdio_output@@AAE_ND@Z 10065b40 f i libucrtd:output.obj
 0001:00064c60       ?write_stored_string_tchar@?$output_processor@DV?$string_output_adapter@D@__crt_stdio_output@@V?$format_validation_base@DV?$string_output_adapter@D@__crt_stdio_output@@@2@@__crt_stdio_output@@AAE_ND@Z 10065c60 f i libucrtd:output.obj
 0001:00064d80       ?write_stored_string_tchar@?$output_processor@DV?$string_output_adapter@D@__crt_stdio_output@@V?$positional_parameter_base@DV?$string_output_adapter@D@__crt_stdio_output@@@2@@__crt_stdio_output@@AAE_ND@Z 10065d80 f i libucrtd:output.obj
 0001:00064ea0       ?write_stored_string_tchar@?$output_processor@DV?$string_output_adapter@D@__crt_stdio_output@@V?$standard_base@DV?$string_output_adapter@D@__crt_stdio_output@@@2@@__crt_stdio_output@@AAE_ND@Z 10065ea0 f i libucrtd:output.obj
 0001:00064fc0       ?write_stored_string_tchar@?$output_processor@_WV?$stream_output_adapter@_W@__crt_stdio_output@@V?$format_validation_base@_WV?$stream_output_adapter@_W@__crt_stdio_output@@@2@@__crt_stdio_output@@AAE_N_W@Z 10065fc0 f i libucrtd:output.obj
 0001:000650b0       ?write_stored_string_tchar@?$output_processor@_WV?$stream_output_adapter@_W@__crt_stdio_output@@V?$positional_parameter_base@_WV?$stream_output_adapter@_W@__crt_stdio_output@@@2@@__crt_stdio_output@@AAE_N_W@Z 100660b0 f i libucrtd:output.obj
 0001:000651a0       ?write_stored_string_tchar@?$output_processor@_WV?$stream_output_adapter@_W@__crt_stdio_output@@V?$standard_base@_WV?$stream_output_adapter@_W@__crt_stdio_output@@@2@@__crt_stdio_output@@AAE_N_W@Z 100661a0 f i libucrtd:output.obj
 0001:00065290       ?write_stored_string_tchar@?$output_processor@_WV?$string_output_adapter@_W@__crt_stdio_output@@V?$format_validation_base@_WV?$string_output_adapter@_W@__crt_stdio_output@@@2@@__crt_stdio_output@@AAE_N_W@Z 10066290 f i libucrtd:output.obj
 0001:00065380       ?write_stored_string_tchar@?$output_processor@_WV?$string_output_adapter@_W@__crt_stdio_output@@V?$positional_parameter_base@_WV?$string_output_adapter@_W@__crt_stdio_output@@@2@@__crt_stdio_output@@AAE_N_W@Z 10066380 f i libucrtd:output.obj
 0001:00065470       ?write_stored_string_tchar@?$output_processor@_WV?$string_output_adapter@_W@__crt_stdio_output@@V?$standard_base@_WV?$string_output_adapter@_W@__crt_stdio_output@@@2@@__crt_stdio_output@@AAE_N_W@Z 10066470 f i libucrtd:output.obj
 0001:00065560       ?write_string@?$stream_output_adapter@D@__crt_stdio_output@@QBEXQBDHQAHAAV__crt_deferred_errno_cache@@@Z 10066560 f i libucrtd:output.obj
 0001:000655c0       ?write_string@?$stream_output_adapter@_W@__crt_stdio_output@@QBEXQB_WHQAHAAV__crt_deferred_errno_cache@@@Z 100665c0 f i libucrtd:output.obj
 0001:00065620       ?write_string@?$string_output_adapter@D@__crt_stdio_output@@QBEXQBDHQAHAAV__crt_deferred_errno_cache@@@Z 10066620 f i libucrtd:output.obj
 0001:00065720       ?write_string@?$string_output_adapter@_W@__crt_stdio_output@@QBEXQB_WHQAHAAV__crt_deferred_errno_cache@@@Z 10066720 f i libucrtd:output.obj
 0001:00065830       ?write_string_impl@?$output_adapter_common@DV?$stream_output_adapter@D@__crt_stdio_output@@@__crt_stdio_output@@IBEXQBDHQAHAAV__crt_deferred_errno_cache@@@Z 10066830 f i libucrtd:output.obj
 0001:000658d0       ?write_string_impl@?$output_adapter_common@_WV?$stream_output_adapter@_W@__crt_stdio_output@@@__crt_stdio_output@@IBEXQB_WHQAHAAV__crt_deferred_errno_cache@@@Z 100668d0 f i libucrtd:output.obj
 0001:00065970       ___acrt_disable_global_locale_sync 10066970 f i libucrtd:output.obj
 0001:00065990       ___acrt_enable_global_locale_sync 10066990 f i libucrtd:output.obj
 0001:000659b0       ___acrt_isleadbyte_l_noupdate 100669b0 f i libucrtd:output.obj
 0001:000659d0       ___acrt_locale_changed     100669d0 f i libucrtd:output.obj
 0001:00065a00       ___acrt_locale_get_ctype_array_value 10066a00 f i libucrtd:output.obj
 0001:00065a30       ___stdio_common_vfprintf   10066a30 f   libucrtd:output.obj
 0001:00065a60       ___stdio_common_vfprintf_p 10066a60 f   libucrtd:output.obj
 0001:00065a90       ___stdio_common_vfprintf_s 10066a90 f   libucrtd:output.obj
 0001:00065ac0       ___stdio_common_vfwprintf  10066ac0 f   libucrtd:output.obj
 0001:00065af0       ___stdio_common_vfwprintf_p 10066af0 f   libucrtd:output.obj
 0001:00065b20       ___stdio_common_vfwprintf_s 10066b20 f   libucrtd:output.obj
 0001:00065b50       ___stdio_common_vsnprintf_s 10066b50 f   libucrtd:output.obj
 0001:00065b80       ___stdio_common_vsnwprintf_s 10066b80 f   libucrtd:output.obj
 0001:00065bb0       ___stdio_common_vsprintf   10066bb0 f   libucrtd:output.obj
 0001:00065be0       ___stdio_common_vsprintf_p 10066be0 f   libucrtd:output.obj
 0001:00065c10       ___stdio_common_vsprintf_s 10066c10 f   libucrtd:output.obj
 0001:00065c40       ___stdio_common_vswprintf  10066c40 f   libucrtd:output.obj
 0001:00065c70       ___stdio_common_vswprintf_p 10066c70 f   libucrtd:output.obj
 0001:00065ca0       ___stdio_common_vswprintf_s 10066ca0 f   libucrtd:output.obj
 0001:00065cd0       __ctype_fast_check_internal 10066cd0 f i libucrtd:output.obj
 0001:00065cf0       __isdigit_fast_internal    10066cf0 f i libucrtd:output.obj
 0001:00065d10       __tolower_fast_internal    10066d10 f i libucrtd:output.obj
 0001:00065d30       _free                      10066d30 f   libucrtd:free.obj
 0001:00065d60       _malloc                    10066d60 f   libucrtd:malloc.obj
 0001:00065d80       ??$?RU?$__crt_report_hook_node@D@@@__crt_internal_free_policy@@QBEXQBU?$__crt_report_hook_node@D@@@Z 10066d80 f i libucrtd:dbgrpt.obj
 0001:00065da0       ??$?RU?$__crt_report_hook_node@_W@@@__crt_internal_free_policy@@QBEXQBU?$__crt_report_hook_node@_W@@@Z 10066da0 f i libucrtd:dbgrpt.obj
 0001:00066b90       ??$get_module_file_name@AAPAUHINSTANCE__@@AAY0BAF@DK@?$__crt_char_traits@D@@SAKAAPAUHINSTANCE__@@AAY0BAF@D$$QAK@Z 10067b90 f i libucrtd:dbgrpt.obj
 0001:00066bb0       ??$get_module_file_name@AAPAUHINSTANCE__@@AAY0BAF@_WK@?$__crt_char_traits@_W@@SAKAAPAUHINSTANCE__@@AAY0BAF@_W$$QAK@Z 10067bb0 f i libucrtd:dbgrpt.obj
 0001:00066bd0       ??$tcscpy_s@AAY0BAF@DIPBD@?$__crt_char_traits@D@@SAHAAY0BAF@D$$QAI$$QAPBD@Z 10067bd0 f i libucrtd:dbgrpt.obj
 0001:00066bf0       ??$tcscpy_s@AAY0BAF@_WIPB_W@?$__crt_char_traits@_W@@SAHAAY0BAF@_W$$QAI$$QAPB_W@Z 10067bf0 f i libucrtd:dbgrpt.obj
 0001:00066c10       ??$tcslen@AAY0BAF@D@?$__crt_char_traits@D@@SAIAAY0BAF@D@Z 10067c10 f i libucrtd:dbgrpt.obj
 0001:00066c30       ??$tcslen@AAY0BAF@_W@?$__crt_char_traits@_W@@SAIAAY0BAF@_W@Z 10067c30 f i libucrtd:dbgrpt.obj
 0001:00066c50       ??$tcslen@ABQBD@?$__crt_char_traits@D@@SAIABQBD@Z 10067c50 f i libucrtd:dbgrpt.obj
 0001:00066c70       ??$tcslen@ABQB_W@?$__crt_char_traits@_W@@SAIABQB_W@Z 10067c70 f i libucrtd:dbgrpt.obj
 0001:00066d70       ??0?$__crt_unique_heap_ptr@U?$__crt_report_hook_node@D@@U__crt_internal_free_policy@@@@QAE@QAU?$__crt_report_hook_node@D@@@Z 10067d70 f i libucrtd:dbgrpt.obj
 0001:00066d90       ??0?$__crt_unique_heap_ptr@U?$__crt_report_hook_node@_W@@U__crt_internal_free_policy@@@@QAE@QAU?$__crt_report_hook_node@_W@@@Z 10067d90 f i libucrtd:dbgrpt.obj
 0001:00066db0       ??1?$__crt_unique_heap_ptr@U?$__crt_report_hook_node@D@@U__crt_internal_free_policy@@@@QAE@XZ 10067db0 f i libucrtd:dbgrpt.obj
 0001:00066dd0       ??1?$__crt_unique_heap_ptr@U?$__crt_report_hook_node@_W@@U__crt_internal_free_policy@@@@QAE@XZ 10067dd0 f i libucrtd:dbgrpt.obj
 0001:00066df0       ??B?$__crt_unique_heap_ptr@U?$__crt_report_hook_node@D@@U__crt_internal_free_policy@@@@QBE_NXZ 10067df0 f i libucrtd:dbgrpt.obj
 0001:00066e10       ??B?$__crt_unique_heap_ptr@U?$__crt_report_hook_node@_W@@U__crt_internal_free_policy@@@@QBE_NXZ 10067e10 f i libucrtd:dbgrpt.obj
 0001:00067350       ?detach@?$__crt_unique_heap_ptr@U?$__crt_report_hook_node@D@@U__crt_internal_free_policy@@@@QAEPAU?$__crt_report_hook_node@D@@XZ 10068350 f i libucrtd:dbgrpt.obj
 0001:00067380       ?detach@?$__crt_unique_heap_ptr@U?$__crt_report_hook_node@_W@@U__crt_internal_free_policy@@@@QAEPAU?$__crt_report_hook_node@_W@@XZ 10068380 f i libucrtd:dbgrpt.obj
 0001:000673b0       ?get@?$__crt_unique_heap_ptr@U?$__crt_report_hook_node@D@@U__crt_internal_free_policy@@@@QBEPAU?$__crt_report_hook_node@D@@XZ 100683b0 f i libucrtd:dbgrpt.obj
 0001:000673d0       ?get@?$__crt_unique_heap_ptr@U?$__crt_report_hook_node@_W@@U__crt_internal_free_policy@@@@QBEPAU?$__crt_report_hook_node@_W@@XZ 100683d0 f i libucrtd:dbgrpt.obj
 0001:00067450       ?is_valid@?$__crt_unique_heap_ptr@U?$__crt_report_hook_node@D@@U__crt_internal_free_policy@@@@QBE_NXZ 10068450 f i libucrtd:dbgrpt.obj
 0001:00067480       ?is_valid@?$__crt_unique_heap_ptr@U?$__crt_report_hook_node@_W@@U__crt_internal_free_policy@@@@QBE_NXZ 10068480 f i libucrtd:dbgrpt.obj
 0001:000674b0       ?release@?$__crt_unique_heap_ptr@U?$__crt_report_hook_node@D@@U__crt_internal_free_policy@@@@QAEXXZ 100684b0 f i libucrtd:dbgrpt.obj
 0001:000674e0       ?release@?$__crt_unique_heap_ptr@U?$__crt_report_hook_node@_W@@U__crt_internal_free_policy@@@@QAEXXZ 100684e0 f i libucrtd:dbgrpt.obj
 0001:00067510       __CrtDbgReport             10068510 f   libucrtd:dbgrpt.obj
 0001:00067560       __CrtDbgReportW            10068560 f   libucrtd:dbgrpt.obj
 0001:000675b0       __CrtSetReportHook2        100685b0 f   libucrtd:dbgrpt.obj
 0001:000675d0       __CrtSetReportHookW2       100685d0 f   libucrtd:dbgrpt.obj
 0001:000675f0       ___acrt_MessageWindowA     100685f0 f   libucrtd:dbgrpt.obj
 0001:00067620       ___acrt_MessageWindowW     10068620 f   libucrtd:dbgrpt.obj
 0001:00067650       __invoke_watson_if_error   10068650 f i libucrtd:dbgrpt.obj
 0001:00067680       __invoke_watson_if_oneof   10068680 f i libucrtd:dbgrpt.obj
 0001:000676c0       __snwprintf_s              100686c0 f i libucrtd:dbgrpt.obj
 0001:00067700       __vsnwprintf_s_l           10068700 f i libucrtd:dbgrpt.obj
 0001:00067a80       _wcscpy_s                  10068a80 f   libucrtd:wcscpy_s.obj
 0001:000687a0       ??1?$__crt_simd_cleanup_guard@$00@@QAE@XZ 100697a0 f i libucrtd:strnlen.obj
 0001:000687b0       ??1?$__crt_simd_cleanup_guard@$0A@@@QAE@XZ 100697b0 f i libucrtd:strnlen.obj
 0001:000687c0       ?compare_equals@?$__crt_simd_traits@$00E@@SA?AT__m256i@@T2@0@Z 100697c0 f i libucrtd:strnlen.obj
 0001:00068800       ?compare_equals@?$__crt_simd_traits@$00G@@SA?AT__m256i@@T2@0@Z 10069800 f i libucrtd:strnlen.obj
 0001:00068840       ?compare_equals@?$__crt_simd_traits@$0A@E@@SA?AT__m128i@@T2@0@Z 10069840 f i libucrtd:strnlen.obj
 0001:00068880       ?compare_equals@?$__crt_simd_traits@$0A@G@@SA?AT__m128i@@T2@0@Z 10069880 f i libucrtd:strnlen.obj
 0001:000688c0       ?compute_byte_mask@?$__crt_simd_pack_traits@$00@@SAHT__m256i@@@Z 100698c0 f i libucrtd:strnlen.obj
 0001:000688f0       ?compute_byte_mask@?$__crt_simd_pack_traits@$0A@@@SAHT__m128i@@@Z 100698f0 f i libucrtd:strnlen.obj
 0001:00068920       ?get_zero_pack@?$__crt_simd_pack_traits@$00@@SA?AT__m256i@@XZ 10069920 f i libucrtd:strnlen.obj
 0001:00068950       ?get_zero_pack@?$__crt_simd_pack_traits@$0A@@@SA?AT__m128i@@XZ 10069950 f i libucrtd:strnlen.obj
 0001:00068980       _strnlen                   10069980 f   libucrtd:strnlen.obj
 0001:000689a0       _wcslen                    100699a0 f   libucrtd:strnlen.obj
 0001:000689c0       _wcsnlen                   100699c0 f   libucrtd:strnlen.obj
 0001:000689e0       ??$__crt_fast_decode_pointer@P6AXPB_W00II@Z@@YAP6AXPB_W00II@ZQ6AX000II@Z@Z 100699e0 f i libucrtd:invalid_parameter.obj
 0001:00068a10       ??$__crt_fast_encode_pointer@P6AXPB_W00II@Z@@YAP6AXPB_W00II@ZQ6AX000II@Z@Z 10069a10 f i libucrtd:invalid_parameter.obj
 0001:00068a40       ??$initialize_from_array@$$BY00Q6AXPB_W00II@Z@?$dual_state_global@P6AXPB_W00II@Z@__crt_state_management@@QAAXAAY00Q6AXPB_W00II@Z@Z 10069a40 f i libucrtd:invalid_parameter.obj
 0001:00068a90       ?__crt_rotate_pointer_value@@YAIIH@Z 10069a90 f i libucrtd:invalid_parameter.obj
 0001:00068aa0       ?dangerous_get_state_array@?$dual_state_global@P6AXPB_W00II@Z@__crt_state_management@@QAEPAP6AXPB_W00II@ZXZ 10069aa0 f i libucrtd:invalid_parameter.obj
 0001:00068ab0       ?get_current_state_index@__crt_state_management@@YAIXZ 10069ab0 f i libucrtd:invalid_parameter.obj
 0001:00068ac0       ?value@?$dual_state_global@P6AXPB_W00II@Z@__crt_state_management@@QAEAAP6AXPB_W00II@ZXZ 10069ac0 f i libucrtd:invalid_parameter.obj
 0001:00068ae0       ___acrt_call_reportfault   10069ae0 f   libucrtd:invalid_parameter.obj
 0001:00068c40       ___acrt_initialize_invalid_parameter_handler 10069c40 f   libucrtd:invalid_parameter.obj
 0001:00068c70       __get_invalid_parameter_handler 10069c70 f   libucrtd:invalid_parameter.obj
 0001:00068c90       __get_thread_local_invalid_parameter_handler 10069c90 f   libucrtd:invalid_parameter.obj
 0001:00068cc0       __invalid_parameter        10069cc0 f   libucrtd:invalid_parameter.obj
 0001:00068d80       __invalid_parameter_noinfo 10069d80 f   libucrtd:invalid_parameter.obj
 0001:00068da0       __invalid_parameter_noinfo_noreturn 10069da0 f   libucrtd:invalid_parameter.obj
 0001:00068dd0       __invoke_watson            10069dd0 f   libucrtd:invalid_parameter.obj
 0001:00068e10       __set_invalid_parameter_handler 10069e10 f   libucrtd:invalid_parameter.obj
 0001:00068e60       __set_thread_local_invalid_parameter_handler 10069e60 f   libucrtd:invalid_parameter.obj
 0001:00068e90       ___acrt_errno_from_os_error 10069e90 f   libucrtd:errno.obj
 0001:00068f10       ___acrt_errno_map_os_error 10069f10 f   libucrtd:errno.obj
 0001:00068f40       ___doserrno                10069f40 f   libucrtd:errno.obj
 0001:00068f70       __errno                    10069f70 f   libucrtd:errno.obj
 0001:00068fa0       __get_doserrno             10069fa0 f   libucrtd:errno.obj
 0001:00069030       __get_errno                1006a030 f   libucrtd:errno.obj
 0001:000690c0       __set_doserrno             1006a0c0 f   libucrtd:errno.obj
 0001:000690f0       __set_errno                1006a0f0 f   libucrtd:errno.obj
 0001:00069120       _calloc                    1006a120 f   libucrtd:calloc.obj
 0001:00069140       __recalloc                 1006a140 f   libucrtd:recalloc.obj
 0001:00069170       __recalloc_base            1006a170 f   libucrtd:recalloc.obj
 0001:0006920a       __resetstkoflw             1006a20a f   libucrtd:resetstk.obj
 0001:000696f0       _wcscat_s                  1006a6f0 f   libucrtd:wcscat_s.obj
 0001:00069b40       _wcsncpy_s                 1006ab40 f   libucrtd:wcsncpy_s.obj
 0001:00069c80       ___isascii                 1006ac80 f   libucrtd:_ctype.obj
 0001:00069cb0       ___iscsym                  1006acb0 f   libucrtd:_ctype.obj
 0001:00069cf0       ___iscsymf                 1006acf0 f   libucrtd:_ctype.obj
 0001:00069d30       ___toascii                 1006ad30 f   libucrtd:_ctype.obj
 0001:00069d40       __isalnum_l                1006ad40 f   libucrtd:_ctype.obj
 0001:00069d60       __isalpha_l                1006ad60 f   libucrtd:_ctype.obj
 0001:00069d80       __isblank_l                1006ad80 f   libucrtd:_ctype.obj
 0001:00069da0       __iscntrl_l                1006ada0 f   libucrtd:_ctype.obj
 0001:00069dc0       __iscsym_l                 1006adc0 f   libucrtd:_ctype.obj
 0001:00069e00       __iscsymf_l                1006ae00 f   libucrtd:_ctype.obj
 0001:00069e40       __isdigit_l                1006ae40 f   libucrtd:_ctype.obj
 0001:00069e60       __isgraph_l                1006ae60 f   libucrtd:_ctype.obj
 0001:00069e80       __islower_l                1006ae80 f   libucrtd:_ctype.obj
 0001:00069ea0       __isprint_l                1006aea0 f   libucrtd:_ctype.obj
 0001:00069ec0       __ispunct_l                1006aec0 f   libucrtd:_ctype.obj
 0001:00069ee0       __isspace_l                1006aee0 f   libucrtd:_ctype.obj
 0001:00069f00       __isupper_l                1006af00 f   libucrtd:_ctype.obj
 0001:00069f20       __isxdigit_l               1006af20 f   libucrtd:_ctype.obj
 0001:00069f40       _isalnum                   1006af40 f   libucrtd:_ctype.obj
 0001:00069f60       _isalpha                   1006af60 f   libucrtd:_ctype.obj
 0001:00069f80       _isblank                   1006af80 f   libucrtd:_ctype.obj
 0001:00069fb0       _iscntrl                   1006afb0 f   libucrtd:_ctype.obj
 0001:00069fd0       _isdigit                   1006afd0 f   libucrtd:_ctype.obj
 0001:00069ff0       _isgraph                   1006aff0 f   libucrtd:_ctype.obj
 0001:0006a010       _islower                   1006b010 f   libucrtd:_ctype.obj
 0001:0006a030       _isprint                   1006b030 f   libucrtd:_ctype.obj
 0001:0006a050       _ispunct                   1006b050 f   libucrtd:_ctype.obj
 0001:0006a070       _isspace                   1006b070 f   libucrtd:_ctype.obj
 0001:0006a090       _isupper                   1006b090 f   libucrtd:_ctype.obj
 0001:0006a0b0       _isxdigit                  1006b0b0 f   libucrtd:_ctype.obj
 0001:0006a0d0       _wcscat                    1006b0d0 f   libucrtd:wcscat.obj
 0001:0006a130       _wcscpy                    1006b130 f   libucrtd:wcscpy.obj
 0001:0006a7c0       ??$open_file@ABQBDABQBDABHPAU_iobuf@@@?$__crt_char_traits@D@@SAPAU_iobuf@@ABQBD0ABH$$QAPAU1@@Z 1006b7c0 f i libucrtd:fopen.obj
 0001:0006a7f0       ??$open_file@ABQB_WABQB_WABHPAU_iobuf@@@?$__crt_char_traits@_W@@SAPAU_iobuf@@ABQB_W0ABH$$QAPAU1@@Z 1006b7f0 f i libucrtd:fopen.obj
 0001:0006a820       ?unlock@__crt_stdio_stream@@QBEXXZ 1006b820 f i libucrtd:fopen.obj
 0001:0006a840       __fsopen                   1006b840 f   libucrtd:fopen.obj
 0001:0006a860       __wfopen                   1006b860 f   libucrtd:fopen.obj
 0001:0006a880       __wfopen_s                 1006b880 f   libucrtd:fopen.obj
 0001:0006a8a0       __wfsopen                  1006b8a0 f   libucrtd:fopen.obj
 0001:0006a8c0       _fopen                     1006b8c0 f   libucrtd:fopen.obj
 0001:0006a8e0       _fopen_s                   1006b8e0 f   libucrtd:fopen.obj
 0001:0006a900       ?is_in_use@__crt_stdio_stream@@QBE_NXZ 1006b900 f i libucrtd:fclose.obj
 0001:0006a940       __fclose_nolock            1006b940 f   libucrtd:fclose.obj
 0001:0006aa80       _fclose                    1006ba80 f   libucrtd:fclose.obj
 0001:0006abd0       __fputc_nolock             1006bbd0 f   libucrtd:fputc.obj
 0001:0006ac60       __fputchar                 1006bc60 f   libucrtd:fputc.obj
 0001:0006ac80       __putc_nolock              1006bc80 f   libucrtd:fputc.obj
 0001:0006aca0       _fputc                     1006bca0 f   libucrtd:fputc.obj
 0001:0006aee0       _putc                      1006bee0 f   libucrtd:fputc.obj
 0001:0006af00       _putchar                   1006bf00 f   libucrtd:fputc.obj
 0001:0006af70       __seh_filter_dll           1006bf70 f   libucrtd:exception_filter.obj
 0001:0006afa0       __seh_filter_exe           1006bfa0 f   libucrtd:exception_filter.obj
 0001:0006b1b0       ??$?B$$A6GXPAXK0@Z@__crt_fast_encoded_nullptr_t@@QBEP6GXPAXK0@ZXZ 1006c1b0 f i libucrtd:exit.obj
 0001:0006b290       ??$__crt_fast_decode_pointer@P6GXPAXK0@Z@@YAP6GXPAXK0@ZQ6GX0K0@Z@Z 1006c290 f i libucrtd:exit.obj
 0001:0006b2c0       ??$__crt_fast_encode_pointer@P6GXPAXK0@Z@@YAP6GXPAXK0@ZQ6GX0K0@Z@Z 1006c2c0 f i libucrtd:exit.obj
 0001:0006b2f0       ??$__crt_get_proc_address@P6GXI@Z@@YAP6GXI@ZQAUHINSTANCE__@@QBD@Z 1006c2f0 f i libucrtd:exit.obj
 0001:0006b380       ??0?$__crt_unique_handle_t@U__crt_hmodule_traits@@@@QAE@QAUHINSTANCE__@@@Z 1006c380 f i libucrtd:exit.obj
 0001:0006b3a0       ??1?$__crt_unique_handle_t@U__crt_hmodule_traits@@@@QAE@XZ 1006c3a0 f i libucrtd:exit.obj
 0001:0006b560       ?__acrt_select_exit_lock@@YA?AW4__acrt_lock_id@@XZ 1006c560 f i libucrtd:exit.obj
 0001:0006b570       ?__crt_fast_encode_pointer@@YA?AU__crt_fast_encoded_nullptr_t@@$$T@Z 1006c570 f i libucrtd:exit.obj
 0001:0006b5a0       ?close@?$__crt_unique_handle_t@U__crt_hmodule_traits@@@@QAEXXZ 1006c5a0 f i libucrtd:exit.obj
 0001:0006b5e0       ?close@__crt_hmodule_traits@@SA_NPAUHINSTANCE__@@@Z 1006c5e0 f i libucrtd:exit.obj
 0001:0006b6d0       ?get@?$__crt_unique_handle_t@U__crt_hmodule_traits@@@@QBEPAUHINSTANCE__@@XZ 1006c6d0 f i libucrtd:exit.obj
 0001:0006b6f0       ?get_address_of@?$__crt_unique_handle_t@U__crt_hmodule_traits@@@@QAEPAPAUHINSTANCE__@@XZ 1006c6f0 f i libucrtd:exit.obj
 0001:0006b700       ?get_invalid_value@__crt_hmodule_traits@@SAPAUHINSTANCE__@@XZ 1006c700 f i libucrtd:exit.obj
 0001:0006b880       __Exit                     1006c880 f   libucrtd:exit.obj
 0001:0006b8a0       ___acrt_initialize_thread_local_exit_callback 1006c8a0 f   libucrtd:exit.obj
 0001:0006b8b0       __c_exit                   1006c8b0 f   libucrtd:exit.obj
 0001:0006b8d0       __cexit                    1006c8d0 f   libucrtd:exit.obj
 0001:0006b8f0       __exit                     1006c8f0 f   libucrtd:exit.obj
 0001:0006b910       __is_c_termination_complete 1006c910 f   libucrtd:exit.obj
 0001:0006b930       __register_thread_local_exe_atexit_callback 1006c930 f   libucrtd:exit.obj
 0001:0006b970       _exit                      1006c970 f   libucrtd:exit.obj
 0001:0006b990       _quick_exit                1006c990 f   libucrtd:exit.obj
 0001:0006b9b0       ??$?RE@__crt_internal_free_policy@@QBEXQBE@Z 1006c9b0 f i libucrtd:argv_parsing.obj
 0001:0006b9d0       ??$?RPAD@__crt_internal_free_policy@@QBEXQBQAD@Z 1006c9d0 f i libucrtd:argv_parsing.obj
 0001:0006b9f0       ??$?RPA_W@__crt_internal_free_policy@@QBEXQBQA_W@Z 1006c9f0 f i libucrtd:argv_parsing.obj
 0001:0006bf50       ??$get_module_file_name@$$TAAY0BAF@DH@?$__crt_char_traits@D@@SAK$$QA$$TAAY0BAF@D$$QAH@Z 1006cf50 f i libucrtd:argv_parsing.obj
 0001:0006bf70       ??$get_module_file_name@$$TAAY0BAF@_WH@?$__crt_char_traits@_W@@SAK$$QA$$TAAY0BAF@_W$$QAH@Z 1006cf70 f i libucrtd:argv_parsing.obj
 0001:0006c690       ??$set_program_name@PAD@?$__crt_char_traits@D@@SAX$$QAPAD@Z 1006d690 f i libucrtd:argv_parsing.obj
 0001:0006c6b0       ??$set_program_name@PA_W@?$__crt_char_traits@_W@@SAX$$QAPA_W@Z 1006d6b0 f i libucrtd:argv_parsing.obj
 0001:0006c710       ??0?$__crt_unique_heap_ptr@EU__crt_internal_free_policy@@@@QAE@QAE@Z 1006d710 f i libucrtd:argv_parsing.obj
 0001:0006c730       ??0?$__crt_unique_heap_ptr@PADU__crt_internal_free_policy@@@@QAE@QAPAD@Z 1006d730 f i libucrtd:argv_parsing.obj
 0001:0006c750       ??0?$__crt_unique_heap_ptr@PA_WU__crt_internal_free_policy@@@@QAE@QAPA_W@Z 1006d750 f i libucrtd:argv_parsing.obj
 0001:0006c770       ??1?$__crt_unique_heap_ptr@EU__crt_internal_free_policy@@@@QAE@XZ 1006d770 f i libucrtd:argv_parsing.obj
 0001:0006c790       ??1?$__crt_unique_heap_ptr@PADU__crt_internal_free_policy@@@@QAE@XZ 1006d790 f i libucrtd:argv_parsing.obj
 0001:0006c7b0       ??1?$__crt_unique_heap_ptr@PA_WU__crt_internal_free_policy@@@@QAE@XZ 1006d7b0 f i libucrtd:argv_parsing.obj
 0001:0006c7d0       ??B?$__crt_unique_heap_ptr@EU__crt_internal_free_policy@@@@QBE_NXZ 1006d7d0 f i libucrtd:argv_parsing.obj
 0001:0006c890       ?detach@?$__crt_unique_heap_ptr@EU__crt_internal_free_policy@@@@QAEPAEXZ 1006d890 f i libucrtd:argv_parsing.obj
 0001:0006c8c0       ?detach@?$__crt_unique_heap_ptr@PADU__crt_internal_free_policy@@@@QAEPAPADXZ 1006d8c0 f i libucrtd:argv_parsing.obj
 0001:0006c8f0       ?detach@?$__crt_unique_heap_ptr@PA_WU__crt_internal_free_policy@@@@QAEPAPA_WXZ 1006d8f0 f i libucrtd:argv_parsing.obj
 0001:0006c980       ?get@?$__crt_unique_heap_ptr@EU__crt_internal_free_policy@@@@QBEPAEXZ 1006d980 f i libucrtd:argv_parsing.obj
 0001:0006c9a0       ?get@?$__crt_unique_heap_ptr@PADU__crt_internal_free_policy@@@@QBEPAPADXZ 1006d9a0 f i libucrtd:argv_parsing.obj
 0001:0006c9c0       ?get@?$__crt_unique_heap_ptr@PA_WU__crt_internal_free_policy@@@@QBEPAPA_WXZ 1006d9c0 f i libucrtd:argv_parsing.obj
 0001:0006c9e0       ?get_address_of@?$__crt_unique_heap_ptr@PADU__crt_internal_free_policy@@@@QAEPAPAPADXZ 1006d9e0 f i libucrtd:argv_parsing.obj
 0001:0006c9f0       ?get_address_of@?$__crt_unique_heap_ptr@PA_WU__crt_internal_free_policy@@@@QAEPAPAPA_WXZ 1006d9f0 f i libucrtd:argv_parsing.obj
 0001:0006ca40       ?is_valid@?$__crt_unique_heap_ptr@EU__crt_internal_free_policy@@@@QBE_NXZ 1006da40 f i libucrtd:argv_parsing.obj
 0001:0006ca70       ?release@?$__crt_unique_heap_ptr@EU__crt_internal_free_policy@@@@QAEXXZ 1006da70 f i libucrtd:argv_parsing.obj
 0001:0006caa0       ?release@?$__crt_unique_heap_ptr@PADU__crt_internal_free_policy@@@@QAEXXZ 1006daa0 f i libucrtd:argv_parsing.obj
 0001:0006cad0       ?release@?$__crt_unique_heap_ptr@PA_WU__crt_internal_free_policy@@@@QAEXXZ 1006dad0 f i libucrtd:argv_parsing.obj
 0001:0006cb40       ___acrt_allocate_buffer_for_argv 1006db40 f   libucrtd:argv_parsing.obj
 0001:0006cc00       __configure_narrow_argv    1006dc00 f   libucrtd:argv_parsing.obj
 0001:0006cc20       __configure_wide_argv      1006dc20 f   libucrtd:argv_parsing.obj
 0001:0006cc40       __set_pgmptr               1006dc40 f i libucrtd:argv_parsing.obj
 0001:0006cc50       __set_wpgmptr              1006dc50 f i libucrtd:argv_parsing.obj
 0001:0006cc5f       ??$?R_W@__crt_internal_free_policy@@QBEXQB_W@Z 1006dc5f f i libucrtd:environment_initialization.obj
 0001:0006d0c8       ??$get_environment_from_os@$$V@?$__crt_char_traits@D@@SAPADXZ 1006e0c8 f i libucrtd:environment_initialization.obj
 0001:0006d0cd       ??$get_environment_from_os@$$V@?$__crt_char_traits@_W@@SAPA_WXZ 1006e0cd f i libucrtd:environment_initialization.obj
 0001:0006d1f6       ??$set_variable_in_environment_nolock@PADH@?$__crt_char_traits@D@@SAH$$QAPAD$$QAH@Z 1006e1f6 f i libucrtd:environment_initialization.obj
 0001:0006d20e       ??$set_variable_in_environment_nolock@PA_WH@?$__crt_char_traits@_W@@SAH$$QAPA_W$$QAH@Z 1006e20e f i libucrtd:environment_initialization.obj
 0001:0006d226       ??$tcscpy_s@PADABIAAPAD@?$__crt_char_traits@D@@SAH$$QAPADABIAAPAD@Z 1006e226 f i libucrtd:environment_initialization.obj
 0001:0006d244       ??$tcscpy_s@PA_WABIAAPA_W@?$__crt_char_traits@_W@@SAH$$QAPA_WABIAAPA_W@Z 1006e244 f i libucrtd:environment_initialization.obj
 0001:0006d262       ??$tcslen@AAPAD@?$__crt_char_traits@D@@SAIAAPAD@Z 1006e262 f i libucrtd:environment_initialization.obj
 0001:0006d27a       ??$tcslen@AAPA_W@?$__crt_char_traits@_W@@SAIAAPA_W@Z 1006e27a f i libucrtd:environment_initialization.obj
 0001:0006d298       ??$uninitialize@A6AXAAPAPAD@Z@?$dual_state_global@PAPAD@__crt_state_management@@QAEXA6AXAAPAPAD@Z@Z 1006e298 f i libucrtd:environment_initialization.obj
 0001:0006d2c1       ??$uninitialize@A6AXAAPAPA_W@Z@?$dual_state_global@PAPA_W@__crt_state_management@@QAEXA6AXAAPAPA_W@Z@Z 1006e2c1 f i libucrtd:environment_initialization.obj
 0001:0006d320       ??0?$__crt_unique_heap_ptr@_WU__crt_internal_free_policy@@@@QAE@QA_W@Z 1006e320 f i libucrtd:environment_initialization.obj
 0001:0006d330       ??1?$__crt_unique_heap_ptr@_WU__crt_internal_free_policy@@@@QAE@XZ 1006e330 f i libucrtd:environment_initialization.obj
 0001:0006d345       ??B?$__crt_unique_heap_ptr@PADU__crt_internal_free_policy@@@@QBE_NXZ 1006e345 f i libucrtd:environment_initialization.obj
 0001:0006d34c       ??B?$__crt_unique_heap_ptr@PA_WU__crt_internal_free_policy@@@@QBE_NXZ 1006e34c f i libucrtd:environment_initialization.obj
 0001:0006d353       ??B?$__crt_unique_heap_ptr@_WU__crt_internal_free_policy@@@@QBE_NXZ 1006e353 f i libucrtd:environment_initialization.obj
 0001:0006d35a       ?__crt_compute_required_transform_buffer_count@@YAIIQBD@Z 1006e35a f i libucrtd:environment_initialization.obj
 0001:0006d376       ?__crt_compute_required_transform_buffer_count@@YAIIQB_W@Z 1006e376 f i libucrtd:environment_initialization.obj
 0001:0006d394       ?__crt_transform_string@@YAIIQBDQA_WI@Z 1006e394 f i libucrtd:environment_initialization.obj
 0001:0006d3b3       ?__crt_transform_string@@YAIIQB_WQADI@Z 1006e3b3 f i libucrtd:environment_initialization.obj
 0001:0006d3d5       ?detach@?$__crt_unique_heap_ptr@DU__crt_internal_free_policy@@@@QAEPADXZ 1006e3d5 f i libucrtd:environment_initialization.obj
 0001:0006d3db       ?detach@?$__crt_unique_heap_ptr@_WU__crt_internal_free_policy@@@@QAEPA_WXZ 1006e3db f i libucrtd:environment_initialization.obj
 0001:0006d3e1       ?get@?$__crt_unique_heap_ptr@_WU__crt_internal_free_policy@@@@QBEPA_WXZ 1006e3e1 f i libucrtd:environment_initialization.obj
 0001:0006d408       ?initialize@?$dual_state_global@PAPAD@__crt_state_management@@QAEXQAPAD@Z 1006e408 f i libucrtd:environment_initialization.obj
 0001:0006d42e       ?initialize@?$dual_state_global@PAPA_W@__crt_state_management@@QAEXQAPA_W@Z 1006e42e f i libucrtd:environment_initialization.obj
 0001:0006d454       ?is_valid@?$__crt_unique_heap_ptr@PADU__crt_internal_free_policy@@@@QBE_NXZ 1006e454 f i libucrtd:environment_initialization.obj
 0001:0006d45b       ?is_valid@?$__crt_unique_heap_ptr@PA_WU__crt_internal_free_policy@@@@QBE_NXZ 1006e45b f i libucrtd:environment_initialization.obj
 0001:0006d462       ?is_valid@?$__crt_unique_heap_ptr@_WU__crt_internal_free_policy@@@@QBE_NXZ 1006e462 f i libucrtd:environment_initialization.obj
 0001:0006d471       ?release@?$__crt_unique_heap_ptr@_WU__crt_internal_free_policy@@@@QAEXXZ 1006e471 f i libucrtd:environment_initialization.obj
 0001:0006d486       ?value@?$dual_state_global@PAPAD@__crt_state_management@@QAEAAPAPADXZ 1006e486 f i libucrtd:environment_initialization.obj
 0001:0006d489       ?value@?$dual_state_global@PAPA_W@__crt_state_management@@QAEAAPAPA_WXZ 1006e489 f i libucrtd:environment_initialization.obj
 0001:0006d48c       ___dcrt_get_or_create_narrow_environment_nolock 1006e48c f   libucrtd:environment_initialization.obj
 0001:0006d491       ___dcrt_get_or_create_wide_environment_nolock 1006e491 f   libucrtd:environment_initialization.obj
 0001:0006d496       ___dcrt_uninitialize_environments_nolock 1006e496 f   libucrtd:environment_initialization.obj
 0001:0006d4cd       ___p__environ              1006e4cd f   libucrtd:environment_initialization.obj
 0001:0006d4d3       ___p__wenviron             1006e4d3 f   libucrtd:environment_initialization.obj
 0001:0006d4d9       __get_initial_narrow_environment 1006e4d9 f   libucrtd:environment_initialization.obj
 0001:0006d4ed       __get_initial_wide_environment 1006e4ed f   libucrtd:environment_initialization.obj
 0001:0006d501       __initialize_narrow_environment 1006e501 f   libucrtd:environment_initialization.obj
 0001:0006d506       __initialize_wide_environment 1006e506 f   libucrtd:environment_initialization.obj
 0001:0006d510       ??$?B$$A6AXXZ@__crt_fast_encoded_nullptr_t@@QBEP6AXXZXZ 1006e510 f i libucrtd:onexit.obj
 0001:0006d530       ??$?BP6AXXZ@__crt_fast_encoded_nullptr_t@@QBEPAP6AXXZXZ 1006e530 f i libucrtd:onexit.obj
 0001:0006d550       ??$?RP6AXXZ@__crt_internal_free_policy@@QBEXQBQ6AXXZ@Z 1006e550 f i libucrtd:onexit.obj
 0001:0006d710       ??$__crt_fast_decode_pointer@P6AXXZ@@YAP6AXXZQ6AXXZ@Z 1006e710 f i libucrtd:onexit.obj
 0001:0006d740       ??$__crt_fast_decode_pointer@PAP6AXXZ@@YAPAP6AXXZQAP6AXXZ@Z 1006e740 f i libucrtd:onexit.obj
 0001:0006d770       ??$__crt_fast_encode_pointer@P6AHXZ@@YAP6AHXZQ6AHXZ@Z 1006e770 f i libucrtd:onexit.obj
 0001:0006d7a0       ??$__crt_fast_encode_pointer@P6AXXZ@@YAP6AXXZQ6AXXZ@Z 1006e7a0 f i libucrtd:onexit.obj
 0001:0006d7d0       ??$__crt_fast_encode_pointer@PAP6AXXZ@@YAPAP6AXXZQAP6AXXZ@Z 1006e7d0 f i libucrtd:onexit.obj
 0001:0006d8d0       ??0?$__crt_unique_heap_ptr@P6AXXZU__crt_internal_free_policy@@@@QAE@QAP6AXXZ@Z 1006e8d0 f i libucrtd:onexit.obj
 0001:0006d8f0       ??1?$__crt_unique_heap_ptr@P6AXXZU__crt_internal_free_policy@@@@QAE@XZ 1006e8f0 f i libucrtd:onexit.obj
 0001:0006d910       ??1scoped_global_state_reset@__crt_state_management@@QAE@XZ 1006e910 f i libucrtd:onexit.obj
 0001:0006dd80       ?detach@?$__crt_unique_heap_ptr@P6AXXZU__crt_internal_free_policy@@@@QAEPAP6AXXZXZ 1006ed80 f i libucrtd:onexit.obj
 0001:0006ddb0       ?release@?$__crt_unique_heap_ptr@P6AXXZU__crt_internal_free_policy@@@@QAEXXZ 1006edb0 f i libucrtd:onexit.obj
 0001:0006dde0       __crt_at_quick_exit        1006ede0 f   libucrtd:onexit.obj
 0001:0006de00       __crt_atexit               1006ee00 f   libucrtd:onexit.obj
 0001:0006de20       __execute_onexit_table     1006ee20 f   libucrtd:onexit.obj
 0001:0006de50       __initialize_onexit_table  1006ee50 f   libucrtd:onexit.obj
 0001:0006deb0       __register_onexit_function 1006eeb0 f   libucrtd:onexit.obj
 0001:0006e0f0       ??$?BX@__crt_fast_encoded_nullptr_t@@QBEPAXXZ 1006f0f0 f i libucrtd:initialization.obj
 0001:0006e110       ??$__crt_fast_encode_pointer@PAX@@YAPAXQAX@Z 1006f110 f i libucrtd:initialization.obj
 0001:0006e1d0       ?initialize@?$dual_state_global@PAU__crt_locale_data@@@__crt_state_management@@QAEXQAU__crt_locale_data@@@Z 1006f1d0 f i libucrtd:initialization.obj
 0001:0006e210       ___acrt_initialize         1006f210 f   libucrtd:initialization.obj
 0001:0006e230       ___acrt_thread_attach      1006f230 f   libucrtd:initialization.obj
 0001:0006e250       ___acrt_thread_detach      1006f250 f   libucrtd:initialization.obj
 0001:0006e260       ___acrt_uninitialize       1006f260 f   libucrtd:initialization.obj
 0001:0006e280       ___acrt_uninitialize_critical 1006f280 f   libucrtd:initialization.obj
 0001:0006faf0       __CrtCheckMemory           10070af0 f   libucrtd:debug_heap.obj
 0001:0006fc80       __CrtDoForAllClientObjects 10070c80 f   libucrtd:debug_heap.obj
 0001:0006fdd0       __CrtDumpMemoryLeaks       10070dd0 f   libucrtd:debug_heap.obj
 0001:0006fe70       __CrtGetAllocHook          10070e70 f   libucrtd:debug_heap.obj
 0001:0006fe80       __CrtGetDumpClient         10070e80 f   libucrtd:debug_heap.obj
 0001:0006fe90       __CrtIsMemoryBlock         10070e90 f   libucrtd:debug_heap.obj
 0001:0006ffe0       __CrtIsValidHeapPointer    10070fe0 f   libucrtd:debug_heap.obj
 0001:00070010       __CrtIsValidPointer        10071010 f   libucrtd:debug_heap.obj
 0001:00070040       __CrtMemCheckpoint         10071040 f   libucrtd:debug_heap.obj
 0001:00070270       __CrtMemDifference         10071270 f   libucrtd:debug_heap.obj
 0001:000704e0       __CrtMemDumpAllObjectsSince 100714e0 f   libucrtd:debug_heap.obj
 0001:00070580       __CrtMemDumpStatistics     10071580 f   libucrtd:debug_heap.obj
 0001:000706b0       __CrtReportBlockType       100716b0 f   libucrtd:debug_heap.obj
 0001:000706e0       __CrtSetAllocHook          100716e0 f   libucrtd:debug_heap.obj
 0001:00070700       __CrtSetBreakAlloc         10071700 f   libucrtd:debug_heap.obj
 0001:00070720       __CrtSetDbgBlockType       10071720 f   libucrtd:debug_heap.obj
 0001:00070800       __CrtSetDbgFlag            10071800 f   libucrtd:debug_heap.obj
 0001:00070970       __CrtSetDumpClient         10071970 f   libucrtd:debug_heap.obj
 0001:00070990       ___acrt_get_locale_data_prefix 10071990 f i libucrtd:debug_heap.obj
 0001:000709b0       ___p__crtBreakAlloc        100719b0 f   libucrtd:debug_heap.obj
 0001:000709c0       ___p__crtDbgFlag           100719c0 f   libucrtd:debug_heap.obj
 0001:000709d0       __aligned_free_dbg         100719d0 f   libucrtd:debug_heap.obj
 0001:00070a80       __aligned_malloc_dbg       10071a80 f   libucrtd:debug_heap.obj
 0001:00070ab0       __aligned_msize_dbg        10071ab0 f   libucrtd:debug_heap.obj
 0001:00070be0       __aligned_offset_malloc_dbg 10071be0 f   libucrtd:debug_heap.obj
 0001:00070dc0       __aligned_offset_realloc_dbg 10071dc0 f   libucrtd:debug_heap.obj
 0001:000710d0       __aligned_offset_recalloc_dbg 100720d0 f   libucrtd:debug_heap.obj
 0001:00071190       __aligned_realloc_dbg      10072190 f   libucrtd:debug_heap.obj
 0001:000711c0       __aligned_recalloc_dbg     100721c0 f   libucrtd:debug_heap.obj
 0001:000711f0       __calloc_dbg               100721f0 f   libucrtd:debug_heap.obj
 0001:00071260       __chvalidchk_l             10072260 f i libucrtd:debug_heap.obj
 0001:00071280       __expand_dbg               10072280 f   libucrtd:debug_heap.obj
 0001:000713b0       __free_dbg                 100723b0 f   libucrtd:debug_heap.obj
 0001:00071460       __ischartype_l             10072460 f i libucrtd:debug_heap.obj
 0001:000714e0       __malloc_dbg               100724e0 f   libucrtd:debug_heap.obj
 0001:00071500       __msize_dbg                10072500 f   libucrtd:debug_heap.obj
 0001:00071690       __realloc_dbg              10072690 f   libucrtd:debug_heap.obj
 0001:00071730       __recalloc_dbg             10072730 f   libucrtd:debug_heap.obj
 0001:000717e0       __initterm                 100727e0 f   libucrtd:initterm.obj
 0001:00071830       __initterm_e               10072830 f   libucrtd:initterm.obj
 0001:00071ba0       _strcpy_s                  10072ba0 f   libucrtd:strcpy_s.obj
 0001:00071fd0       _strcat_s                  10072fd0 f   libucrtd:strcat_s.obj
 0001:00071ff0       ??$?B$$A6AHI@Z@__crt_fast_encoded_nullptr_t@@QBEP6AHI@ZXZ 10072ff0 f i libucrtd:new_handler.obj
 0001:00072010       ??$__crt_fast_decode_pointer@P6AHI@Z@@YAP6AHI@ZQ6AHI@Z@Z 10073010 f i libucrtd:new_handler.obj
 0001:00072040       ??$__crt_fast_encode_pointer@P6AHI@Z@@YAP6AHI@ZQ6AHI@Z@Z 10073040 f i libucrtd:new_handler.obj
 0001:00072070       ?_set_new_handler@@YAP6AHI@ZH@Z 10073070 f   libucrtd:new_handler.obj
 0001:000720d0       ?initialize@?$dual_state_global@P6AHI@Z@__crt_state_management@@QAEXQ6AHI@Z@Z 100730d0 f i libucrtd:new_handler.obj
 0001:00072110       ?value@?$dual_state_global@P6AHI@Z@__crt_state_management@@QAEAAP6AHI@ZXZ 10073110 f i libucrtd:new_handler.obj
 0001:00072130       ___acrt_initialize_new_handler 10073130 f   libucrtd:new_handler.obj
 0001:00072150       __callnewh                 10073150 f   libucrtd:new_handler.obj
 0001:00072190       __query_new_handler        10073190 f   libucrtd:new_handler.obj
 0001:00072220       __set_new_handler          10073220 f   libucrtd:new_handler.obj
 0001:00072300       __get_terminate            10073300 f   libucrtd:terminate.obj
 0001:00072320       _set_terminate             10073320 f   libucrtd:terminate.obj
 0001:00072350       _terminate                 10073350 f   libucrtd:terminate.obj
 0001:00072d20       __makepath                 10073d20 f   libucrtd:makepath.obj
 0001:00072d50       __makepath_s               10073d50 f   libucrtd:makepath.obj
 0001:00072d80       __wmakepath                10073d80 f   libucrtd:makepath.obj
 0001:00072db0       __wmakepath_s              10073db0 f   libucrtd:makepath.obj
 0001:00074700       ??$tcsncpy_s@AAPADIAAPBDABI@?$__crt_char_traits@D@@SAHAAPAD$$QAIAAPBDABI@Z 10075700 f i libucrtd:splitpath.obj
 0001:00074730       ??$tcsncpy_s@AAPADIAAPBDH@?$__crt_char_traits@D@@SAHAAPAD$$QAIAAPBD$$QAH@Z 10075730 f i libucrtd:splitpath.obj
 0001:00074760       ??$tcsncpy_s@AAPA_WIAAPB_WABI@?$__crt_char_traits@_W@@SAHAAPA_W$$QAIAAPB_WABI@Z 10075760 f i libucrtd:splitpath.obj
 0001:00074790       ??$tcsncpy_s@AAPA_WIAAPB_WH@?$__crt_char_traits@_W@@SAHAAPA_W$$QAIAAPB_W$$QAH@Z 10075790 f i libucrtd:splitpath.obj
 0001:000749d0       __splitpath                100759d0 f   libucrtd:splitpath.obj
 0001:00074a00       __splitpath_s              10075a00 f   libucrtd:splitpath.obj
 0001:00074a50       __wsplitpath               10075a50 f   libucrtd:splitpath.obj
 0001:00074a80       __wsplitpath_s             10075a80 f   libucrtd:splitpath.obj
 0001:00074ad0       __set_abort_behavior       10075ad0 f   libucrtd:abort.obj
 0001:00074b00       _abort                     10075b00 f   libucrtd:abort.obj
 0001:00074b70       _strcmp                    10075b70 f   libucrtd:strcmp.obj
 0001:00074c00       _strlen                    10075c00 f   libucrtd:strlen.obj
 0001:00074c90       ??$is_overflow_condition@K@__crt_strtox@@YA_NIK@Z 10075c90 f i libucrtd:atox.obj
 0001:00074cf0       ??$is_overflow_condition@_K@__crt_strtox@@YA_NI_K@Z 10075cf0 f i libucrtd:atox.obj
 0001:00074d80       ??$make_c_string_character_source@D$$T@__crt_strtox@@YA?AV?$c_string_character_source@D@0@QBD$$T@Z 10075d80 f i libucrtd:atox.obj
 0001:00074da0       ??$make_c_string_character_source@_W$$T@__crt_strtox@@YA?AV?$c_string_character_source@_W@0@QB_W$$T@Z 10075da0 f i libucrtd:atox.obj
 0001:00074dc0       ??$parse_integer@KV?$c_string_character_source@D@__crt_strtox@@@__crt_strtox@@YAKQAU__crt_locale_pointers@@V?$c_string_character_source@D@0@H_N@Z 10075dc0 f i libucrtd:atox.obj
 0001:00075130       ??$parse_integer@KV?$c_string_character_source@_W@__crt_strtox@@@__crt_strtox@@YAKQAU__crt_locale_pointers@@V?$c_string_character_source@_W@0@H_N@Z 10076130 f i libucrtd:atox.obj
 0001:000754a0       ??$parse_integer@_KV?$c_string_character_source@D@__crt_strtox@@@__crt_strtox@@YA_KQAU__crt_locale_pointers@@V?$c_string_character_source@D@0@H_N@Z 100764a0 f i libucrtd:atox.obj
 0001:000758c0       ??$parse_integer@_KV?$c_string_character_source@_W@__crt_strtox@@@__crt_strtox@@YA_KQAU__crt_locale_pointers@@V?$c_string_character_source@_W@0@H_N@Z 100768c0 f i libucrtd:atox.obj
 0001:00075cf0       ??$parse_integer_from_string@JD$$T@__crt_strtox@@YAJQBD$$THQAU__crt_locale_pointers@@@Z 10076cf0 f i libucrtd:atox.obj
 0001:00075d30       ??$parse_integer_from_string@J_W$$T@__crt_strtox@@YAJQB_W$$THQAU__crt_locale_pointers@@@Z 10076d30 f i libucrtd:atox.obj
 0001:00075d70       ??$parse_integer_from_string@_JD$$T@__crt_strtox@@YA_JQBD$$THQAU__crt_locale_pointers@@@Z 10076d70 f i libucrtd:atox.obj
 0001:00075db0       ??$parse_integer_from_string@_J_W$$T@__crt_strtox@@YA_JQB_W$$THQAU__crt_locale_pointers@@@Z 10076db0 f i libucrtd:atox.obj
 0001:00075df0       ??0?$c_string_character_source@D@__crt_strtox@@QAE@QBDQAPBD@Z 10076df0 f i libucrtd:atox.obj
 0001:00075e30       ??0?$c_string_character_source@_W@__crt_strtox@@QAE@QB_WQAPB_W@Z 10076e30 f i libucrtd:atox.obj
 0001:00075e70       ??1?$c_string_character_source@D@__crt_strtox@@QAE@XZ 10076e70 f i libucrtd:atox.obj
 0001:00075ea0       ??1?$c_string_character_source@_W@__crt_strtox@@QAE@XZ 10076ea0 f i libucrtd:atox.obj
 0001:00075ed0       ?get@?$c_string_character_source@D@__crt_strtox@@QAEDXZ 10076ed0 f i libucrtd:atox.obj
 0001:00075f00       ?get@?$c_string_character_source@_W@__crt_strtox@@QAE_WXZ 10076f00 f i libucrtd:atox.obj
 0001:00075f30       ?is_space@__crt_strtox@@YA_NDQAU__crt_locale_pointers@@@Z 10076f30 f i libucrtd:atox.obj
 0001:00075f70       ?is_space@__crt_strtox@@YA_N_WPAU__crt_locale_pointers@@@Z 10076f70 f i libucrtd:atox.obj
 0001:00075fa0       ?maximum_signed_value@__crt_strtox@@YAJK@Z 10076fa0 f i libucrtd:atox.obj
 0001:00075fb0       ?maximum_signed_value@__crt_strtox@@YA_J_K@Z 10076fb0 f i libucrtd:atox.obj
 0001:00075fc0       ?minimum_signed_value@__crt_strtox@@YAJK@Z 10076fc0 f i libucrtd:atox.obj
 0001:00075fd0       ?minimum_signed_value@__crt_strtox@@YA_J_K@Z 10076fd0 f i libucrtd:atox.obj
 0001:00075fe0       ?parse_digit@__crt_strtox@@YAID@Z 10076fe0 f i libucrtd:atox.obj
 0001:00076040       ?parse_digit@__crt_strtox@@YAI_W@Z 10077040 f i libucrtd:atox.obj
 0001:00076090       ?restore_state@?$c_string_character_source@D@__crt_strtox@@QAE_NQBD@Z 10077090 f i libucrtd:atox.obj
 0001:000760b0       ?restore_state@?$c_string_character_source@_W@__crt_strtox@@QAE_NQB_W@Z 100770b0 f i libucrtd:atox.obj
 0001:000760d0       ?save_state@?$c_string_character_source@D@__crt_strtox@@QBEPBDXZ 100770d0 f i libucrtd:atox.obj
 0001:000760f0       ?save_state@?$c_string_character_source@_W@__crt_strtox@@QBEPB_WXZ 100770f0 f i libucrtd:atox.obj
 0001:00076110       ?unget@?$c_string_character_source@D@__crt_strtox@@QAEXD@Z 10077110 f i libucrtd:atox.obj
 0001:000761c0       ?unget@?$c_string_character_source@_W@__crt_strtox@@QAEX_W@Z 100771c0 f i libucrtd:atox.obj
 0001:00076270       ?validate@?$c_string_character_source@D@__crt_strtox@@QBE_NXZ 10077270 f i libucrtd:atox.obj
 0001:00076300       ?validate@?$c_string_character_source@_W@__crt_strtox@@QBE_NXZ 10077300 f i libucrtd:atox.obj
 0001:00076390       ?wide_character_to_digit@__crt_strtox@@YAH_W@Z 10077390 f i libucrtd:atox.obj
 0001:000766c0       ___ascii_iswalpha          100776c0 f i libucrtd:atox.obj
 0001:00076700       ___ascii_toupper           10077700 f i libucrtd:atox.obj
 0001:00076720       ___ascii_towupper          10077720 f i libucrtd:atox.obj
 0001:00076740       __atoi64                   10077740 f   libucrtd:atox.obj
 0001:00076760       __atoi64_l                 10077760 f   libucrtd:atox.obj
 0001:00076780       __atoi_l                   10077780 f   libucrtd:atox.obj
 0001:000767a0       __atol_l                   100777a0 f   libucrtd:atox.obj
 0001:000767c0       __atoll_l                  100777c0 f   libucrtd:atox.obj
 0001:000767e0       __wtoi                     100777e0 f   libucrtd:atox.obj
 0001:00076800       __wtoi64                   10077800 f   libucrtd:atox.obj
 0001:00076820       __wtoi64_l                 10077820 f   libucrtd:atox.obj
 0001:00076840       __wtoi_l                   10077840 f   libucrtd:atox.obj
 0001:00076860       __wtol                     10077860 f   libucrtd:atox.obj
 0001:00076880       __wtol_l                   10077880 f   libucrtd:atox.obj
 0001:000768a0       __wtoll                    100778a0 f   libucrtd:atox.obj
 0001:000768c0       __wtoll_l                  100778c0 f   libucrtd:atox.obj
 0001:000768e0       _atoi                      100778e0 f   libucrtd:atox.obj
 0001:00076900       _atol                      10077900 f   libucrtd:atox.obj
 0001:00076920       _atoll                     10077920 f   libucrtd:atox.obj
 0001:00076940       _strncmp                   10077940 f   libucrtd:strncmp.obj
 0001:000769c0       _wcsncmp                   100779c0 f   libucrtd:wcsncmp.obj
 0001:00076a20       __CrtGetDebugFillThreshold 10077a20 f   libucrtd:debug_fill_threshold.obj
 0001:00076a30       __CrtSetDebugFillThreshold 10077a30 f   libucrtd:debug_fill_threshold.obj
 0001:00076a50       ??$make_c_string_character_source@DPAPAD@__crt_strtox@@YA?AV?$c_string_character_source@D@0@QBDQAPAD@Z 10077a50 f i libucrtd:strtox.obj
 0001:00076a70       ??$make_c_string_character_source@_WPAPA_W@__crt_strtox@@YA?AV?$c_string_character_source@_W@0@QB_WQAPA_W@Z 10077a70 f i libucrtd:strtox.obj
 0001:00076a90       ??$parse_integer_from_string@JDPAPAD@__crt_strtox@@YAJQBDQAPADHQAU__crt_locale_pointers@@@Z 10077a90 f i libucrtd:strtox.obj
 0001:00076ad0       ??$parse_integer_from_string@J_WPAPA_W@__crt_strtox@@YAJQB_WQAPA_WHQAU__crt_locale_pointers@@@Z 10077ad0 f i libucrtd:strtox.obj
 0001:00076b10       ??$parse_integer_from_string@KDPAPAD@__crt_strtox@@YAKQBDQAPADHQAU__crt_locale_pointers@@@Z 10077b10 f i libucrtd:strtox.obj
 0001:00076b50       ??$parse_integer_from_string@K_WPAPA_W@__crt_strtox@@YAKQB_WQAPA_WHQAU__crt_locale_pointers@@@Z 10077b50 f i libucrtd:strtox.obj
 0001:00076b90       ??$parse_integer_from_string@_JDPAPAD@__crt_strtox@@YA_JQBDQAPADHQAU__crt_locale_pointers@@@Z 10077b90 f i libucrtd:strtox.obj
 0001:00076bd0       ??$parse_integer_from_string@_J_WPAPA_W@__crt_strtox@@YA_JQB_WQAPA_WHQAU__crt_locale_pointers@@@Z 10077bd0 f i libucrtd:strtox.obj
 0001:00076c10       ??$parse_integer_from_string@_KDPAPAD@__crt_strtox@@YA_KQBDQAPADHQAU__crt_locale_pointers@@@Z 10077c10 f i libucrtd:strtox.obj
 0001:00076c50       ??$parse_integer_from_string@_K_WPAPA_W@__crt_strtox@@YA_KQB_WQAPA_WHQAU__crt_locale_pointers@@@Z 10077c50 f i libucrtd:strtox.obj
 0001:00076c90       __strtoi64                 10077c90 f   libucrtd:strtox.obj
 0001:00076cb0       __strtoi64_l               10077cb0 f   libucrtd:strtox.obj
 0001:00076cd0       __strtoimax_l              10077cd0 f   libucrtd:strtox.obj
 0001:00076cf0       __strtol_l                 10077cf0 f   libucrtd:strtox.obj
 0001:00076d10       __strtoll_l                10077d10 f   libucrtd:strtox.obj
 0001:00076d30       __strtoui64                10077d30 f   libucrtd:strtox.obj
 0001:00076d50       __strtoui64_l              10077d50 f   libucrtd:strtox.obj
 0001:00076d70       __strtoul_l                10077d70 f   libucrtd:strtox.obj
 0001:00076d90       __strtoull_l               10077d90 f   libucrtd:strtox.obj
 0001:00076db0       __strtoumax_l              10077db0 f   libucrtd:strtox.obj
 0001:00076dd0       __wcstoi64                 10077dd0 f   libucrtd:strtox.obj
 0001:00076df0       __wcstoi64_l               10077df0 f   libucrtd:strtox.obj
 0001:00076e10       __wcstoimax_l              10077e10 f   libucrtd:strtox.obj
 0001:00076e30       __wcstol_l                 10077e30 f   libucrtd:strtox.obj
 0001:00076e50       __wcstoll_l                10077e50 f   libucrtd:strtox.obj
 0001:00076e70       __wcstoui64                10077e70 f   libucrtd:strtox.obj
 0001:00076e90       __wcstoui64_l              10077e90 f   libucrtd:strtox.obj
 0001:00076eb0       __wcstoul_l                10077eb0 f   libucrtd:strtox.obj
 0001:00076ed0       __wcstoull_l               10077ed0 f   libucrtd:strtox.obj
 0001:00076ef0       __wcstoumax_l              10077ef0 f   libucrtd:strtox.obj
 0001:00076f10       _strtoimax                 10077f10 f   libucrtd:strtox.obj
 0001:00076f30       _strtol                    10077f30 f   libucrtd:strtox.obj
 0001:00076f50       _strtoll                   10077f50 f   libucrtd:strtox.obj
 0001:00076f70       _strtoul                   10077f70 f   libucrtd:strtox.obj
 0001:00076f90       _strtoull                  10077f90 f   libucrtd:strtox.obj
 0001:00076fb0       _strtoumax                 10077fb0 f   libucrtd:strtox.obj
 0001:00076fd0       _wcstoimax                 10077fd0 f   libucrtd:strtox.obj
 0001:00076ff0       _wcstol                    10077ff0 f   libucrtd:strtox.obj
 0001:00077010       _wcstoll                   10078010 f   libucrtd:strtox.obj
 0001:00077030       _wcstoul                   10078030 f   libucrtd:strtox.obj
 0001:00077050       _wcstoull                  10078050 f   libucrtd:strtox.obj
 0001:00077070       _wcstoumax                 10078070 f   libucrtd:strtox.obj
 0001:00077090       __mbtowc_l                 10078090 f   libucrtd:mbtowc.obj
 0001:000773b0       _mbtowc                    100783b0 f   libucrtd:mbtowc.obj
 0001:000773d0       __wctomb_l                 100783d0 f   libucrtd:wctomb.obj
 0001:00077450       __wctomb_s_l               10078450 f   libucrtd:wctomb.obj
 0001:00077810       _wctomb                    10078810 f   libucrtd:wctomb.obj
 0001:00077860       _wctomb_s                  10078860 f   libucrtd:wctomb.obj
 0001:00077890       ??$?RU__acrt_ptd@@@__crt_internal_free_policy@@QBEXQBU__acrt_ptd@@@Z 10078890 f i libucrtd:per_thread_data.obj
 0001:00077d40       ??0?$__crt_unique_heap_ptr@U__acrt_ptd@@U__crt_internal_free_policy@@@@QAE@QAU__acrt_ptd@@@Z 10078d40 f i libucrtd:per_thread_data.obj
 0001:00077d60       ??0__crt_scoped_get_last_error_reset@@QAE@XZ 10078d60 f i libucrtd:per_thread_data.obj
 0001:00077d80       ??1?$__crt_unique_heap_ptr@U__acrt_ptd@@U__crt_internal_free_policy@@@@QAE@XZ 10078d80 f i libucrtd:per_thread_data.obj
 0001:00077da0       ??1__crt_scoped_get_last_error_reset@@QAE@XZ 10078da0 f i libucrtd:per_thread_data.obj
 0001:00077dc0       ??B?$__crt_unique_heap_ptr@U__acrt_ptd@@U__crt_internal_free_policy@@@@QBE_NXZ 10078dc0 f i libucrtd:per_thread_data.obj
 0001:000780a0       ?dangerous_get_state_array@?$dual_state_global@PAU__crt_locale_data@@@__crt_state_management@@QAEPAPAU__crt_locale_data@@XZ 100790a0 f i libucrtd:per_thread_data.obj
 0001:00078220       ?detach@?$__crt_unique_heap_ptr@U__acrt_ptd@@U__crt_internal_free_policy@@@@QAEPAU__acrt_ptd@@XZ 10079220 f i libucrtd:per_thread_data.obj
 0001:00078250       ?get@?$__crt_unique_heap_ptr@U__acrt_ptd@@U__crt_internal_free_policy@@@@QBEPAU__acrt_ptd@@XZ 10079250 f i libucrtd:per_thread_data.obj
 0001:00078270       ?get_current_state_index@__crt_state_management@@YAIABV__crt_scoped_get_last_error_reset@@@Z 10079270 f i libucrtd:per_thread_data.obj
 0001:000783e0       ?is_valid@?$__crt_unique_heap_ptr@U__acrt_ptd@@U__crt_internal_free_policy@@@@QBE_NXZ 100793e0 f i libucrtd:per_thread_data.obj
 0001:00078410       ?release@?$__crt_unique_heap_ptr@U__acrt_ptd@@U__crt_internal_free_policy@@@@QAEXXZ 10079410 f i libucrtd:per_thread_data.obj
 0001:00078500       ?value@?$dual_state_global@PAU__crt_locale_data@@@__crt_state_management@@QAEAAPAU__crt_locale_data@@XZ 10079500 f i libucrtd:per_thread_data.obj
 0001:00078520       ___acrt_freeptd            10079520 f   libucrtd:per_thread_data.obj
 0001:00078550       ___acrt_getptd             10079550 f   libucrtd:per_thread_data.obj
 0001:00078570       ___acrt_getptd_head        10079570 f   libucrtd:per_thread_data.obj
 0001:00078590       ___acrt_getptd_noexit      10079590 f   libucrtd:per_thread_data.obj
 0001:000785a0       ___acrt_initialize_ptd     100795a0 f   libucrtd:per_thread_data.obj
 0001:000785e0       ___acrt_uninitialize_ptd   100795e0 f   libucrtd:per_thread_data.obj
 0001:00078610       ___threadhandle            10079610 f   libucrtd:per_thread_data.obj
 0001:00078620       ___threadid                10079620 f   libucrtd:per_thread_data.obj
 0001:00078630       ?value@?$dual_state_global@PAU__crt_multibyte_data@@@__crt_state_management@@QAEAAPAU__crt_multibyte_data@@XZ 10079630 f i libucrtd:locale_update.obj
 0001:00078650       ___acrt_should_sync_with_global_locale 10079650 f i libucrtd:locale_update.obj
 0001:00078680       ___acrt_update_locale_info 10079680 f   libucrtd:locale_update.obj
 0001:000786c0       ___acrt_update_multibyte_info 100796c0 f   libucrtd:locale_update.obj
 0001:00078700       ?__acrt_fp_classify@@YA?AW4__acrt_fp_class@@ABN@Z 10079700 f i libucrtd:cvt.obj
 0001:00078820       ?__acrt_fp_is_negative@@YA_NABN@Z 10079820 f i libucrtd:cvt.obj
 0001:00079b10       ?strrchr@@YAPADQADH@Z      1007ab10 f i libucrtd:cvt.obj
 0001:00079b30       ___acrt_fp_format          1007ab30 f   libucrtd:cvt.obj
 0001:00079ff0       __fputwc_nolock            1007aff0 f   libucrtd:fputwc.obj
 0001:0007a1e0       __fputwchar                1007b1e0 f   libucrtd:fputwc.obj
 0001:0007a200       __putwc_nolock             1007b200 f   libucrtd:fputwc.obj
 0001:0007a220       _fputwc                    1007b220 f   libucrtd:fputwc.obj
 0001:0007a330       _putwc                     1007b330 f   libucrtd:fputwc.obj
 0001:0007a350       _putwchar                  1007b350 f   libucrtd:fputwc.obj
 0001:0007a370       ?lowio_handle@__crt_stdio_stream@@QBEHXZ 1007b370 f i libucrtd:fileno.obj
 0001:0007a390       __fileno                   1007b390 f   libucrtd:fileno.obj
 0001:0007a430       ??$?RPAU__crt_stdio_stream_data@@@__crt_internal_free_policy@@QBEXQBQAU__crt_stdio_stream_data@@@Z 1007b430 f i libucrtd:_file.obj
 0001:0007a450       ??0?$__crt_unique_heap_ptr@PAU__crt_stdio_stream_data@@U__crt_internal_free_policy@@@@QAE@QAPAU__crt_stdio_stream_data@@@Z 1007b450 f i libucrtd:_file.obj
 0001:0007a470       ??1?$__crt_unique_heap_ptr@PAU__crt_stdio_stream_data@@U__crt_internal_free_policy@@@@QAE@XZ 1007b470 f i libucrtd:_file.obj
 0001:0007a490       ?detach@?$__crt_unique_heap_ptr@PAU__crt_stdio_stream_data@@U__crt_internal_free_policy@@@@QAEPAPAU__crt_stdio_stream_data@@XZ 1007b490 f i libucrtd:_file.obj
 0001:0007a4c0       ?release@?$__crt_unique_heap_ptr@PAU__crt_stdio_stream_data@@U__crt_internal_free_policy@@@@QAEXXZ 1007b4c0 f i libucrtd:_file.obj
 0001:0007a4f0       ___acrt_initialize_stdio   1007b4f0 f   libucrtd:_file.obj
 0001:0007a660       ___acrt_iob_func           1007b660 f   libucrtd:_file.obj
 0001:0007a670       ___acrt_uninitialize_stdio 1007b670 f   libucrtd:_file.obj
 0001:0007a6f0       __get_stream_buffer_pointers 1007b6f0 f   libucrtd:_file.obj
 0001:0007a7d0       __lock_file                1007b7d0 f   libucrtd:_file.obj
 0001:0007a800       __unlock_file              1007b800 f   libucrtd:_file.obj
 0001:0007a830       __get_printf_count_output  1007b830 f   libucrtd:printf_count_output.obj
 0001:0007a860       __set_printf_count_output  1007b860 f   libucrtd:printf_count_output.obj
 0001:0007a8c0       ?has_any_buffer@__crt_stdio_stream@@QBE_NXZ 1007b8c0 f i libucrtd:_sftbuf.obj
 0001:0007a8e0       ?has_any_of@__crt_stdio_stream@@QBE_NJ@Z 1007b8e0 f i libucrtd:_sftbuf.obj
 0001:0007a920       ?has_temporary_buffer@__crt_stdio_stream@@QBE_NXZ 1007b920 f i libucrtd:_sftbuf.obj
 0001:0007a940       ?set_flags@__crt_stdio_stream@@QBE_NJ@Z 1007b940 f i libucrtd:_sftbuf.obj
 0001:0007a990       ?unset_flags@__crt_stdio_stream@@QBE_NJ@Z 1007b990 f i libucrtd:_sftbuf.obj
 0001:0007a9e0       ___acrt_should_use_temporary_buffer 1007b9e0 f   libucrtd:_sftbuf.obj
 0001:0007aa30       ___acrt_stdio_begin_temporary_buffering_nolock 1007ba30 f   libucrtd:_sftbuf.obj
 0001:0007abe0       ___acrt_stdio_end_temporary_buffering_nolock 1007bbe0 f   libucrtd:_sftbuf.obj
 0001:0007ac70       ??$?RU__crt_locale_data@@@__crt_internal_free_policy@@QBEXQBU__crt_locale_data@@@Z 1007bc70 f i libucrtd:wsetlocale.obj
 0001:0007ac90       ??$?RU__crt_locale_pointers@@@__crt_internal_free_policy@@QBEXQBU__crt_locale_pointers@@@Z 1007bc90 f i libucrtd:wsetlocale.obj
 0001:0007acb0       ??$?RU__crt_multibyte_data@@@__crt_internal_free_policy@@QBEXQBU__crt_multibyte_data@@@Z 1007bcb0 f i libucrtd:wsetlocale.obj
 0001:0007b2a0       ??0?$__crt_unique_heap_ptr@U__crt_locale_data@@U__crt_internal_free_policy@@@@QAE@QAU__crt_locale_data@@@Z 1007c2a0 f i libucrtd:wsetlocale.obj
 0001:0007b2c0       ??0?$__crt_unique_heap_ptr@U__crt_locale_pointers@@U__crt_internal_free_policy@@@@QAE@QAU__crt_locale_pointers@@@Z 1007c2c0 f i libucrtd:wsetlocale.obj
 0001:0007b2e0       ??0?$__crt_unique_heap_ptr@U__crt_multibyte_data@@U__crt_internal_free_policy@@@@QAE@QAU__crt_multibyte_data@@@Z 1007c2e0 f i libucrtd:wsetlocale.obj
 0001:0007b300       ??0_expandlocale_locale_name_cache@@QAE@QA_WIQAU__crt_qualified_locale_data@@@Z 1007c300 f i libucrtd:wsetlocale.obj
 0001:0007b370       ??1?$__crt_unique_heap_ptr@U__crt_locale_data@@U__crt_internal_free_policy@@@@QAE@XZ 1007c370 f i libucrtd:wsetlocale.obj
 0001:0007b390       ??1?$__crt_unique_heap_ptr@U__crt_locale_pointers@@U__crt_internal_free_policy@@@@QAE@XZ 1007c390 f i libucrtd:wsetlocale.obj
 0001:0007b3b0       ??1?$__crt_unique_heap_ptr@U__crt_multibyte_data@@U__crt_internal_free_policy@@@@QAE@XZ 1007c3b0 f i libucrtd:wsetlocale.obj
 0001:0007b3d0       ??1_expandlocale_locale_name_cache@@QAE@XZ 1007c3d0 f i libucrtd:wsetlocale.obj
 0001:0007b430       ??B?$__crt_unique_heap_ptr@U__crt_locale_data@@U__crt_internal_free_policy@@@@QBE_NXZ 1007c430 f i libucrtd:wsetlocale.obj
 0001:0007b450       ??B?$__crt_unique_heap_ptr@U__crt_locale_pointers@@U__crt_internal_free_policy@@@@QBE_NXZ 1007c450 f i libucrtd:wsetlocale.obj
 0001:0007b470       ??B?$__crt_unique_heap_ptr@U__crt_multibyte_data@@U__crt_internal_free_policy@@@@QBE_NXZ 1007c470 f i libucrtd:wsetlocale.obj
 0001:0007b850       ?commit_locale_name@_expandlocale_locale_name_cache@@QAEXQB_WI@Z 1007c850 f i libucrtd:wsetlocale.obj
 0001:0007b8b0       ?commit_locale_name_cache_already_updated@_expandlocale_locale_name_cache@@QAEXQB_WI@Z 1007c8b0 f i libucrtd:wsetlocale.obj
 0001:0007b910       ?detach@?$__crt_unique_heap_ptr@U__crt_locale_data@@U__crt_internal_free_policy@@@@QAEPAU__crt_locale_data@@XZ 1007c910 f i libucrtd:wsetlocale.obj
 0001:0007b940       ?detach@?$__crt_unique_heap_ptr@U__crt_locale_pointers@@U__crt_internal_free_policy@@@@QAEPAU__crt_locale_pointers@@XZ 1007c940 f i libucrtd:wsetlocale.obj
 0001:0007b970       ?detach@?$__crt_unique_heap_ptr@U__crt_multibyte_data@@U__crt_internal_free_policy@@@@QAEPAU__crt_multibyte_data@@XZ 1007c970 f i libucrtd:wsetlocale.obj
 0001:0007b9a0       ?get@?$__crt_unique_heap_ptr@U__crt_locale_data@@U__crt_internal_free_policy@@@@QBEPAU__crt_locale_data@@XZ 1007c9a0 f i libucrtd:wsetlocale.obj
 0001:0007b9c0       ?get@?$__crt_unique_heap_ptr@U__crt_locale_pointers@@U__crt_internal_free_policy@@@@QBEPAU__crt_locale_pointers@@XZ 1007c9c0 f i libucrtd:wsetlocale.obj
 0001:0007b9e0       ?get@?$__crt_unique_heap_ptr@U__crt_multibyte_data@@U__crt_internal_free_policy@@@@QBEPAU__crt_multibyte_data@@XZ 1007c9e0 f i libucrtd:wsetlocale.obj
 0001:0007ba00       ?is_valid@?$__crt_unique_heap_ptr@U__crt_locale_data@@U__crt_internal_free_policy@@@@QBE_NXZ 1007ca00 f i libucrtd:wsetlocale.obj
 0001:0007ba30       ?is_valid@?$__crt_unique_heap_ptr@U__crt_locale_pointers@@U__crt_internal_free_policy@@@@QBE_NXZ 1007ca30 f i libucrtd:wsetlocale.obj
 0001:0007ba60       ?is_valid@?$__crt_unique_heap_ptr@U__crt_multibyte_data@@U__crt_internal_free_policy@@@@QBE_NXZ 1007ca60 f i libucrtd:wsetlocale.obj
 0001:0007ba90       ?release@?$__crt_unique_heap_ptr@U__crt_locale_data@@U__crt_internal_free_policy@@@@QAEXXZ 1007ca90 f i libucrtd:wsetlocale.obj
 0001:0007bac0       ?release@?$__crt_unique_heap_ptr@U__crt_locale_pointers@@U__crt_internal_free_policy@@@@QAEXXZ 1007cac0 f i libucrtd:wsetlocale.obj
 0001:0007baf0       ?release@?$__crt_unique_heap_ptr@U__crt_multibyte_data@@U__crt_internal_free_policy@@@@QAEXXZ 1007caf0 f i libucrtd:wsetlocale.obj
 0001:0007bb20       ___acrt_copy_locale_name   1007cb20 f   libucrtd:wsetlocale.obj
 0001:0007bbc0       ___acrt_set_locale_changed 1007cbc0 f   libucrtd:wsetlocale.obj
 0001:0007bbe0       ___acrt_uninitialize_locale 1007cbe0 f   libucrtd:wsetlocale.obj
 0001:0007bc00       ___ascii_tolower           1007cc00 f i libucrtd:wsetlocale.obj
 0001:0007bc20       ___ascii_towlower          1007cc20 f i libucrtd:wsetlocale.obj
 0001:0007bc40       ___lc_lctowcs              1007cc40 f   libucrtd:wsetlocale.obj
 0001:0007bcf0       ___lc_wcstolc              1007ccf0 f   libucrtd:wsetlocale.obj
 0001:0007bf20       __configthreadlocale       1007cf20 f   libucrtd:wsetlocale.obj
 0001:0007c0a0       __create_locale            1007d0a0 f   libucrtd:wsetlocale.obj
 0001:0007c6e0       __free_locale              1007d6e0 f   libucrtd:wsetlocale.obj
 0001:0007c810       __get_current_locale       1007d810 f   libucrtd:wsetlocale.obj
 0001:0007c8e0       __wcreate_locale           1007d8e0 f   libucrtd:wsetlocale.obj
 0001:0007cb20       __wcscats                  1007db20 f   libucrtd:wsetlocale.obj
 0001:0007cba0       __wsetlocale               1007dba0 f   libucrtd:wsetlocale.obj
 0001:0007e290       ___p___mb_cur_max          1007f290 f   libucrtd:nlsdata.obj
 0001:0007e590       ___acrt_initialize_lowio   1007f590 f   libucrtd:ioinit.obj
 0001:0007e630       ___acrt_uninitialize_lowio 1007f630 f   libucrtd:ioinit.obj
 0001:0007e690       __CrtGetReportHook         1007f690 f   libucrtd:dbgrptt.obj
 0001:0007e6a0       __CrtSetReportFile         1007f6a0 f   libucrtd:dbgrptt.obj
 0001:0007e7a0       __CrtSetReportHook         1007f7a0 f   libucrtd:dbgrptt.obj
 0001:0007e7c0       __CrtSetReportMode         1007f7c0 f   libucrtd:dbgrptt.obj
 0001:0007e900       __VCrtDbgReportA           1007f900 f   libucrtd:dbgrptt.obj
 0001:0007f180       __VCrtDbgReportW           10080180 f   libucrtd:dbgrptt.obj
 0001:0007fb30       __snprintf_s               10080b30 f i libucrtd:dbgrptt.obj
 0001:0007fb70       __vsnprintf_s              10080b70 f i libucrtd:dbgrptt.obj
 0001:0007fba0       __vsnprintf_s_l            10080ba0 f i libucrtd:dbgrptt.obj
 0001:0007fd30       ??$__acrt_wcs_to_mbs_cp@U__crt_win32_buffer_no_resizing@@@@YAHQB_WAAV?$__crt_win32_buffer@DU__crt_win32_buffer_no_resizing@@@@I@Z 10080d30 f i libucrtd:getmodulefilenamea.obj
 0001:0007fd60       ??0?$__crt_win32_buffer@DU__crt_win32_buffer_no_resizing@@@@QAE@QADI@Z 10080d60 f i libucrtd:getmodulefilenamea.obj
 0001:0007fdb0       ??1?$__crt_win32_buffer@DU__crt_win32_buffer_no_resizing@@@@QAE@XZ 10080db0 f i libucrtd:getmodulefilenamea.obj
 0001:0007fe20       ?__acrt_get_utf8_acp_compatibility_codepage@@YAIXZ 10080e20 f i libucrtd:getmodulefilenamea.obj
 0001:0007feb0       ?_deallocate@?$__crt_win32_buffer@DU__crt_win32_buffer_no_resizing@@@@AAEXXZ 10080eb0 f i libucrtd:getmodulefilenamea.obj
 0001:0007fef0       ?allocate@?$__crt_win32_buffer@DU__crt_win32_buffer_no_resizing@@@@QAEHI@Z 10080ef0 f i libucrtd:getmodulefilenamea.obj
 0001:0007ff60       ?allocate@__crt_win32_buffer_no_resizing@@SAHQAPAXIABV__crt_win32_buffer_empty_debug_info@@@Z 10080f60 f i libucrtd:getmodulefilenamea.obj
 0001:0007ff80       ?capacity@?$__crt_win32_buffer@DU__crt_win32_buffer_no_resizing@@@@QBEIXZ 10080f80 f i libucrtd:getmodulefilenamea.obj
 0001:0007ffa0       ?data@?$__crt_win32_buffer@DU__crt_win32_buffer_no_resizing@@@@QAEPADXZ 10080fa0 f i libucrtd:getmodulefilenamea.obj
 0001:0007ffc0       ?deallocate@__crt_win32_buffer_no_resizing@@SAXQAXABV__crt_win32_buffer_empty_debug_info@@@Z 10080fc0 f i libucrtd:getmodulefilenamea.obj
 0001:0007ffd0       ?debug_info@?$__crt_win32_buffer@DU__crt_win32_buffer_no_resizing@@@@QBEABV__crt_win32_buffer_empty_debug_info@@XZ 10080fd0 f i libucrtd:getmodulefilenamea.obj
 0001:0007ffe0       ?set_to_nullptr@?$__crt_win32_buffer@DU__crt_win32_buffer_no_resizing@@@@QAEXXZ 10080fe0 f i libucrtd:getmodulefilenamea.obj
 0001:00080020       ?size@?$__crt_win32_buffer@DU__crt_win32_buffer_no_resizing@@@@QAEXI@Z 10081020 f i libucrtd:getmodulefilenamea.obj
 0001:00080040       ?size@?$__crt_win32_buffer@DU__crt_win32_buffer_no_resizing@@@@QBEIXZ 10081040 f i libucrtd:getmodulefilenamea.obj
 0001:00080060       ___acrt_GetModuleFileNameA 10081060 f   libucrtd:getmodulefilenamea.obj
 0001:00080340       ??$message_box@$$TABQBDABQBDK@?$__crt_char_traits@D@@SAH$$QA$$TABQBD1$$QAK@Z 10081340 f i libucrtd:crtmbox.obj
 0001:00080370       ??$message_box@$$TABQB_WABQB_WK@?$__crt_char_traits@_W@@SAH$$QA$$TABQB_W1$$QAK@Z 10081370 f i libucrtd:crtmbox.obj
 0001:000803a0       ??$message_box@PAUHWND__@@ABQBDABQBDABI@?$__crt_char_traits@D@@SAH$$QAPAUHWND__@@ABQBD1ABI@Z 100813a0 f i libucrtd:crtmbox.obj
 0001:000803d0       ??$message_box@PAUHWND__@@ABQB_WABQB_WABI@?$__crt_char_traits@_W@@SAH$$QAPAUHWND__@@ABQB_W1ABI@Z 100813d0 f i libucrtd:crtmbox.obj
 0001:00080400       ??$output_debug_string@ABQBD@?$__crt_char_traits@D@@SAXABQBD@Z 10081400 f i libucrtd:crtmbox.obj
 0001:00080420       ??$output_debug_string@ABQB_W@?$__crt_char_traits@_W@@SAXABQB_W@Z 10081420 f i libucrtd:crtmbox.obj
 0001:00080440       ___acrt_show_narrow_message_box 10081440 f   libucrtd:crtmbox.obj
 0001:00080460       ___acrt_show_wide_message_box 10081460 f   libucrtd:crtmbox.obj
 0001:00080480       ___acrt_initialize_locks   10081480 f   libucrtd:locks.obj
 0001:000804e0       ___acrt_lock               100814e0 f   libucrtd:locks.obj
 0001:00080500       ___acrt_uninitialize_locks 10081500 f   libucrtd:locks.obj
 0001:00080550       ___acrt_unlock             10081550 f   libucrtd:locks.obj
 0001:00080570       __lock_locales             10081570 f   libucrtd:locks.obj
 0001:00080590       __unlock_locales           10081590 f   libucrtd:locks.obj
 0001:000805b0       ??$?B$$A6AXH@Z@__crt_fast_encoded_nullptr_t@@QBEP6AXH@ZXZ 100815b0 f i libucrtd:signal.obj
 0001:000806a0       ??$__crt_fast_decode_pointer@P6AXH@Z@@YAP6AXH@ZQ6AXH@Z@Z 100816a0 f i libucrtd:signal.obj
 0001:000806d0       ??$__crt_fast_encode_pointer@P6AXH@Z@@YAP6AXH@ZQ6AXH@Z@Z 100816d0 f i libucrtd:signal.obj
 0001:00080980       ?initialize@?$dual_state_global@P6AXH@Z@__crt_state_management@@QAEXQ6AXH@Z@Z 10081980 f i libucrtd:signal.obj
 0001:00080ac0       ?value@?$dual_state_global@P6AXH@Z@__crt_state_management@@QAEAAP6AXH@ZXZ 10081ac0 f i libucrtd:signal.obj
 0001:00080ae0       ___acrt_get_sigabrt_handler 10081ae0 f   libucrtd:signal.obj
 0001:00080b00       ___acrt_initialize_signal_handlers 10081b00 f   libucrtd:signal.obj
 0001:00080b40       ___fpecode                 10081b40 f   libucrtd:signal.obj
 0001:00080b50       ___pxcptinfoptrs           10081b50 f   libucrtd:signal.obj
 0001:00080b60       _raise                     10081b60 f   libucrtd:signal.obj
 0001:00080f30       _signal                    10081f30 f   libucrtd:signal.obj
 0001:000811b0       __msize                    100821b0 f   libucrtd:msize.obj
 0001:000811d0       __msize_base               100821d0 f   libucrtd:msize.obj
 0001:00081270       __realloc_base             10082270 f   libucrtd:realloc_base.obj
 0001:00081330       ??$?B$$A6GHPA_WKJ@Z@__crt_fast_encoded_nullptr_t@@QBEP6GHPA_WKJ@ZXZ 10082330 f i libucrtd:winapi_thunks.obj
 0001:00081420       ??$__crt_fast_decode_pointer@P6GHPA_WKJ@Z@@YAP6GHPA_WKJ@ZQ6GH0KJ@Z@Z 10082420 f i libucrtd:winapi_thunks.obj
 0001:00081450       ??$__crt_fast_decode_pointer@PAX@@YAPAXQAX@Z 10082450 f i libucrtd:winapi_thunks.obj
 0001:00081480       ??$__crt_fast_encode_pointer@P6GHPA_WKJ@Z@@YAP6GHPA_WKJ@ZQ6GH0KJ@Z@Z 10082480 f i libucrtd:winapi_thunks.obj
 0001:00081de0       _GetCurrentThreadEffectiveToken 10082de0 f i libucrtd:winapi_thunks.obj
 0001:00081df0       ___acrt_AppPolicyGetProcessTerminationMethodInternal@4 10082df0 f   libucrtd:winapi_thunks.obj
 0001:00081e30       ___acrt_AppPolicyGetShowDeveloperDiagnosticInternal@4 10082e30 f   libucrtd:winapi_thunks.obj
 0001:00081e70       ___acrt_AppPolicyGetThreadInitializationTypeInternal@4 10082e70 f   libucrtd:winapi_thunks.obj
 0001:00081eb0       ___acrt_AppPolicyGetWindowingModelInternal@4 10082eb0 f   libucrtd:winapi_thunks.obj
 0001:00081ef0       ___acrt_AreFileApisANSI@0  10082ef0 f   libucrtd:winapi_thunks.obj
 0001:00081f30       ___acrt_CompareStringEx@36 10082f30 f   libucrtd:winapi_thunks.obj
 0001:00081fb0       ___acrt_EnumSystemLocalesEx@16 10082fb0 f   libucrtd:winapi_thunks.obj
 0001:00082010       ___acrt_FlsAlloc@4         10083010 f   libucrtd:winapi_thunks.obj
 0001:00082050       ___acrt_FlsFree@4          10083050 f   libucrtd:winapi_thunks.obj
 0001:00082090       ___acrt_FlsGetValue@4      10083090 f   libucrtd:winapi_thunks.obj
 0001:000820d0       ___acrt_FlsSetValue@8      100830d0 f   libucrtd:winapi_thunks.obj
 0001:00082120       ___acrt_GetDateFormatEx@28 10083120 f   libucrtd:winapi_thunks.obj
 0001:000821a0       ___acrt_GetEnabledXStateFeatures@0 100831a0 f   libucrtd:winapi_thunks.obj
 0001:000821e0       ___acrt_GetLocaleInfoEx@16 100831e0 f   libucrtd:winapi_thunks.obj
 0001:00082240       ___acrt_GetSystemTimePreciseAsFileTime@4 10083240 f   libucrtd:winapi_thunks.obj
 0001:00082280       ___acrt_GetTimeFormatEx@24 10083280 f   libucrtd:winapi_thunks.obj
 0001:000822f0       ___acrt_GetUserDefaultLocaleName@8 100832f0 f   libucrtd:winapi_thunks.obj
 0001:00082340       ___acrt_GetXStateFeaturesMask@8 10083340 f   libucrtd:winapi_thunks.obj
 0001:00082380       ___acrt_InitializeCriticalSectionEx@12 10083380 f   libucrtd:winapi_thunks.obj
 0001:000823d0       ___acrt_IsValidLocaleName@4 100833d0 f   libucrtd:winapi_thunks.obj
 0001:00082420       ___acrt_LCIDToLocaleName@16 10083420 f   libucrtd:winapi_thunks.obj
 0001:00082480       ___acrt_LCMapStringEx@36   10083480 f   libucrtd:winapi_thunks.obj
 0001:00082500       ___acrt_LocaleNameToLCID@8 10083500 f   libucrtd:winapi_thunks.obj
 0001:00082550       ___acrt_LocateXStateFeature@12 10083550 f   libucrtd:winapi_thunks.obj
 0001:000825a0       ___acrt_MessageBoxA@16     100835a0 f   libucrtd:winapi_thunks.obj
 0001:000825f0       ___acrt_MessageBoxW@16     100835f0 f   libucrtd:winapi_thunks.obj
 0001:00082640       ___acrt_RoInitialize@4     10083640 f   libucrtd:winapi_thunks.obj
 0001:00082680       ___acrt_RoUninitialize@0   10083680 f   libucrtd:winapi_thunks.obj
 0001:000826b0       ___acrt_RtlGenRandom@8     100836b0 f   libucrtd:winapi_thunks.obj
 0001:000826f0       ___acrt_SetThreadStackGuarantee@4 100836f0 f   libucrtd:winapi_thunks.obj
 0001:00082730       ___acrt_can_show_message_box 10083730 f   libucrtd:winapi_thunks.obj
 0001:00082770       ___acrt_can_use_vista_locale_apis 10083770 f   libucrtd:winapi_thunks.obj
 0001:000827a0       ___acrt_can_use_xstate_apis 100837a0 f   libucrtd:winapi_thunks.obj
 0001:000827d0       ___acrt_eagerly_load_locale_apis 100837d0 f   libucrtd:winapi_thunks.obj
 0001:00082810       ___acrt_get_parent_window  10083810 f   libucrtd:winapi_thunks.obj
 0001:00082880       ___acrt_initialize_winapi_thunks 10083880 f   libucrtd:winapi_thunks.obj
 0001:000828f0       ___acrt_is_interactive     100838f0 f   libucrtd:winapi_thunks.obj
 0001:000829a0       ___acrt_uninitialize_winapi_thunks 100839a0 f   libucrtd:winapi_thunks.obj
 0001:00082a10       __chvalidator              10083a10 f   libucrtd:isctype.obj
 0001:00082a60       __chvalidator_l            10083a60 f   libucrtd:isctype.obj
 0001:00082ae0       __isctype                  10083ae0 f   libucrtd:isctype.obj
 0001:00082b20       __isctype_l                10083b20 f   libucrtd:isctype.obj
 0001:00082ca0       __isleadbyte_fast_internal 10083ca0 f i libucrtd:isctype.obj
 0001:00082cc0       ??$?RU__crt_stdio_stream_data@@@__crt_internal_free_policy@@QBEXQBU__crt_stdio_stream_data@@@Z 10083cc0 f i libucrtd:stream.obj
 0001:00082ce0       ??0?$__crt_unique_heap_ptr@U__crt_stdio_stream_data@@U__crt_internal_free_policy@@@@QAE@QAU__crt_stdio_stream_data@@@Z 10083ce0 f i libucrtd:stream.obj
 0001:00082d00       ??0__crt_stdio_stream@@QAE@QAU__crt_stdio_stream_data@@@Z 10083d00 f i libucrtd:stream.obj
 0001:00082d20       ??0__crt_stdio_stream@@QAE@XZ 10083d20 f i libucrtd:stream.obj
 0001:00082d40       ??1?$__crt_unique_heap_ptr@U__crt_stdio_stream_data@@U__crt_internal_free_policy@@@@QAE@XZ 10083d40 f i libucrtd:stream.obj
 0001:00082d60       ?__acrt_stdio_allocate_stream@@YA?AV__crt_stdio_stream@@XZ 10083d60 f   libucrtd:stream.obj
 0001:00082e50       ?__acrt_stdio_free_stream@@YAXV__crt_stdio_stream@@@Z 10083e50 f   libucrtd:stream.obj
 0001:00082ed0       ?deallocate@__crt_stdio_stream@@QAEXXZ 10083ed0 f i libucrtd:stream.obj
 0001:00082ef0       ?detach@?$__crt_unique_heap_ptr@U__crt_stdio_stream_data@@U__crt_internal_free_policy@@@@QAEPAU__crt_stdio_stream_data@@XZ 10083ef0 f i libucrtd:stream.obj
 0001:00083060       ?lock@__crt_stdio_stream@@QBEXXZ 10084060 f i libucrtd:stream.obj
 0001:00083080       ?release@?$__crt_unique_heap_ptr@U__crt_stdio_stream_data@@U__crt_internal_free_policy@@@@QAEXXZ 10084080 f i libucrtd:stream.obj
 0001:000830b0       ?try_allocate@__crt_stdio_stream@@QAE_NXZ 100840b0 f i libucrtd:stream.obj
 0001:00083100       ??$__acrt_stdio_parse_mode@D@@YA?AU__acrt_stdio_stream_mode@@QBD@Z 10084100 f i libucrtd:openfile.obj
 0001:00083970       ??$__acrt_stdio_parse_mode@_W@@YA?AU__acrt_stdio_stream_mode@@QB_W@Z 10084970 f i libucrtd:openfile.obj
 0001:00084500       ??$tcsncmp@AAPBDAAY02$$CBDI@?$__crt_char_traits@D@@SAHAAPBDAAY02$$CBD$$QAI@Z 10085500 f i libucrtd:openfile.obj
 0001:00084520       ??$tcsncmp@AAPB_WAAY02$$CB_WI@?$__crt_char_traits@_W@@SAHAAPB_WAAY02$$CB_W$$QAI@Z 10085520 f i libucrtd:openfile.obj
 0001:00084540       ??$tcsnicmp@AAPBDAAY04$$CBDI@?$__crt_char_traits@D@@SAHAAPBDAAY04$$CBD$$QAI@Z 10085540 f i libucrtd:openfile.obj
 0001:00084560       ??$tcsnicmp@AAPBDAAY06$$CBDI@?$__crt_char_traits@D@@SAHAAPBDAAY06$$CBD$$QAI@Z 10085560 f i libucrtd:openfile.obj
 0001:00084580       ??$tcsnicmp@AAPBDAAY07$$CBDI@?$__crt_char_traits@D@@SAHAAPBDAAY07$$CBD$$QAI@Z 10085580 f i libucrtd:openfile.obj
 0001:000845a0       ??$tcsnicmp@AAPB_WAAY04$$CB_WI@?$__crt_char_traits@_W@@SAHAAPB_WAAY04$$CB_W$$QAI@Z 100855a0 f i libucrtd:openfile.obj
 0001:000845c0       ??$tcsnicmp@AAPB_WAAY06$$CB_WI@?$__crt_char_traits@_W@@SAHAAPB_WAAY06$$CB_W$$QAI@Z 100855c0 f i libucrtd:openfile.obj
 0001:000845e0       ??$tcsnicmp@AAPB_WAAY07$$CB_WI@?$__crt_char_traits@_W@@SAHAAPB_WAAY07$$CB_W$$QAI@Z 100855e0 f i libucrtd:openfile.obj
 0001:00084600       ??$tsopen_s@PAHABQBDABHABHH@?$__crt_char_traits@D@@SAH$$QAPAHABQBDABH2$$QAH@Z 10085600 f i libucrtd:openfile.obj
 0001:00084630       ??$tsopen_s@PAHABQB_WABHABHH@?$__crt_char_traits@_W@@SAH$$QAPAHABQB_WABH2$$QAH@Z 10085630 f i libucrtd:openfile.obj
 0001:00084660       ?__acrt_stdio_parse_mode_D@@YA_NAAU__acrt_stdio_stream_mode@@@Z 10085660 f i libucrtd:openfile.obj
 0001:00084690       ?__acrt_stdio_parse_mode_N@@YA_NAAU__acrt_stdio_stream_mode@@@Z 10085690 f i libucrtd:openfile.obj
 0001:000846b0       ?__acrt_stdio_parse_mode_R@@YA_NAAU__acrt_stdio_stream_mode@@AA_N@Z 100856b0 f i libucrtd:openfile.obj
 0001:000846e0       ?__acrt_stdio_parse_mode_S@@YA_NAAU__acrt_stdio_stream_mode@@AA_N@Z 100856e0 f i libucrtd:openfile.obj
 0001:00084710       ?__acrt_stdio_parse_mode_T@@YA_NAAU__acrt_stdio_stream_mode@@@Z 10085710 f i libucrtd:openfile.obj
 0001:00084740       ?__acrt_stdio_parse_mode_b@@YA_NAAU__acrt_stdio_stream_mode@@@Z 10085740 f i libucrtd:openfile.obj
 0001:00084770       ?__acrt_stdio_parse_mode_c@@YA_NAAU__acrt_stdio_stream_mode@@AA_N@Z 10085770 f i libucrtd:openfile.obj
 0001:000847a0       ?__acrt_stdio_parse_mode_n@@YA_NAAU__acrt_stdio_stream_mode@@AA_N@Z 100857a0 f i libucrtd:openfile.obj
 0001:000847d0       ?__acrt_stdio_parse_mode_plus@@YA_NAAU__acrt_stdio_stream_mode@@AA_N@Z 100857d0 f i libucrtd:openfile.obj
 0001:00084840       ?__acrt_stdio_parse_mode_t@@YA_NAAU__acrt_stdio_stream_mode@@@Z 10085840 f i libucrtd:openfile.obj
 0001:00084870       ?__acrt_stdio_parse_mode_x@@YA_NAAU__acrt_stdio_stream_mode@@@Z 10085870 f i libucrtd:openfile.obj
 0001:000848a0       __openfile                 100858a0 f   libucrtd:openfile.obj
 0001:000848d0       __wopenfile                100858d0 f   libucrtd:openfile.obj
 0001:00084bb0       __close                    10085bb0 f   libucrtd:close.obj
 0001:00084d30       __close_nolock             10085d30 f   libucrtd:close.obj
 0001:00084d90       ?has_crt_buffer@__crt_stdio_stream@@QBE_NXZ 10085d90 f i libucrtd:_freebuf.obj
 0001:00084db0       ___acrt_stdio_free_buffer_nolock 10085db0 f   libucrtd:_freebuf.obj
 0001:00085410       ?__acrt_stdio_reset_buffer@@YAXV__crt_stdio_stream@@@Z 10086410 f i libucrtd:fflush.obj
 0001:00085510       ?has_all_of@__crt_stdio_stream@@QBE_NJ@Z 10086510 f i libucrtd:fflush.obj
 0001:000855e0       ___acrt_stdio_flush_nolock 100865e0 f   libucrtd:fflush.obj
 0001:000856b0       __fflush_nolock            100866b0 f   libucrtd:fflush.obj
 0001:00085730       __flushall                 10086730 f   libucrtd:fflush.obj
 0001:00085750       _fflush                    10086750 f   libucrtd:fflush.obj
 0001:00085ea0       ?has_big_buffer@__crt_stdio_stream@@QBE_NXZ 10086ea0 f i libucrtd:_flsbuf.obj
 0001:00085fa0       ___acrt_stdio_flush_and_write_narrow_nolock 10086fa0 f   libucrtd:_flsbuf.obj
 0001:00085fd0       ___acrt_stdio_flush_and_write_wide_nolock 10086fd0 f   libucrtd:_flsbuf.obj
 0001:00086300       ___acrt_get_begin_thread_init_policy 10087300 f   libucrtd:win_policies.obj
 0001:00086320       ___acrt_get_developer_information_policy 10087320 f   libucrtd:win_policies.obj
 0001:00086340       ___acrt_get_process_end_policy 10087340 f   libucrtd:win_policies.obj
 0001:00086360       ___acrt_get_windowing_model_policy 10087360 f   libucrtd:win_policies.obj
 0001:00086630       ??$__acrt_mbs_to_wcs_cp@U__crt_win32_buffer_internal_dynamic_resizing@@@@YAHQBDAAV?$__crt_win32_buffer@_WU__crt_win32_buffer_internal_dynamic_resizing@@@@I@Z 10087630 f i libucrtd:argv_wildcards.obj
 0001:00086660       ??$__acrt_wcs_to_mbs_cp@U__crt_win32_buffer_internal_dynamic_resizing@@@@YAHQB_WAAV?$__crt_win32_buffer@DU__crt_win32_buffer_internal_dynamic_resizing@@@@I@Z 10087660 f i libucrtd:argv_wildcards.obj
 0001:000875b0       ??$tcsncpy_s@AAPADIAAPADABI@?$__crt_char_traits@D@@SAHAAPAD$$QAI0ABI@Z 100885b0 f i libucrtd:argv_wildcards.obj
 0001:000875e0       ??$tcsncpy_s@AAPA_WIAAPA_WABI@?$__crt_char_traits@_W@@SAHAAPA_W$$QAI0ABI@Z 100885e0 f i libucrtd:argv_wildcards.obj
 0001:00087610       ??$tcsncpy_s@PADABIABQBDABI@?$__crt_char_traits@D@@SAH$$QAPADABIABQBD1@Z 10088610 f i libucrtd:argv_wildcards.obj
 0001:00087640       ??$tcsncpy_s@PADIABQBDABI@?$__crt_char_traits@D@@SAH$$QAPAD$$QAIABQBDABI@Z 10088640 f i libucrtd:argv_wildcards.obj
 0001:00087670       ??$tcsncpy_s@PA_WABIABQB_WABI@?$__crt_char_traits@_W@@SAH$$QAPA_WABIABQB_W1@Z 10088670 f i libucrtd:argv_wildcards.obj
 0001:000876a0       ??$tcsncpy_s@PA_WIABQB_WABI@?$__crt_char_traits@_W@@SAH$$QAPA_W$$QAIABQB_WABI@Z 100886a0 f i libucrtd:argv_wildcards.obj
 0001:000876d0       ??$tcspbrk@AAPADAAY02$$CBD@?$__crt_char_traits@D@@SAPADAAPADAAY02$$CBD@Z 100886d0 f i libucrtd:argv_wildcards.obj
 0001:000876f0       ??$tcspbrk@AAPA_WAAY02$$CB_W@?$__crt_char_traits@_W@@SAPA_WAAPA_WAAY02$$CB_W@Z 100886f0 f i libucrtd:argv_wildcards.obj
 0001:00087710       ??0?$__crt_unique_handle_t@U__crt_findfile_traits@@@@QAE@QAX@Z 10088710 f i libucrtd:argv_wildcards.obj
 0001:00087730       ??0?$__crt_win32_buffer@DU__crt_win32_buffer_internal_dynamic_resizing@@@@QAE@XZ 10088730 f i libucrtd:argv_wildcards.obj
 0001:00087780       ??0?$__crt_win32_buffer@_WU__crt_win32_buffer_internal_dynamic_resizing@@@@QAE@XZ 10088780 f i libucrtd:argv_wildcards.obj
 0001:00087830       ??1?$__crt_unique_handle_t@U__crt_findfile_traits@@@@QAE@XZ 10088830 f i libucrtd:argv_wildcards.obj
 0001:00087850       ??1?$__crt_win32_buffer@DU__crt_win32_buffer_internal_dynamic_resizing@@@@QAE@XZ 10088850 f i libucrtd:argv_wildcards.obj
 0001:00087890       ??1?$__crt_win32_buffer@_WU__crt_win32_buffer_internal_dynamic_resizing@@@@QAE@XZ 10088890 f i libucrtd:argv_wildcards.obj
 0001:00087af0       ?_deallocate@?$__crt_win32_buffer@DU__crt_win32_buffer_internal_dynamic_resizing@@@@AAEXXZ 10088af0 f i libucrtd:argv_wildcards.obj
 0001:00087b30       ?_deallocate@?$__crt_win32_buffer@_WU__crt_win32_buffer_internal_dynamic_resizing@@@@AAEXXZ 10088b30 f i libucrtd:argv_wildcards.obj
 0001:00087b70       ?allocate@?$__crt_win32_buffer@DU__crt_win32_buffer_internal_dynamic_resizing@@@@QAEHI@Z 10088b70 f i libucrtd:argv_wildcards.obj
 0001:00087be0       ?allocate@?$__crt_win32_buffer@_WU__crt_win32_buffer_internal_dynamic_resizing@@@@QAEHI@Z 10088be0 f i libucrtd:argv_wildcards.obj
 0001:00087c50       ?allocate@__crt_win32_buffer_internal_dynamic_resizing@@SAHQAPAXIABV__crt_win32_buffer_empty_debug_info@@@Z 10088c50 f i libucrtd:argv_wildcards.obj
 0001:00087d90       ?capacity@?$__crt_win32_buffer@DU__crt_win32_buffer_internal_dynamic_resizing@@@@QBEIXZ 10088d90 f i libucrtd:argv_wildcards.obj
 0001:00087db0       ?capacity@?$__crt_win32_buffer@_WU__crt_win32_buffer_internal_dynamic_resizing@@@@QBEIXZ 10088db0 f i libucrtd:argv_wildcards.obj
 0001:00087dd0       ?close@?$__crt_unique_handle_t@U__crt_findfile_traits@@@@QAEXXZ 10088dd0 f i libucrtd:argv_wildcards.obj
 0001:00087e10       ?close@__crt_findfile_traits@@SA_NPAX@Z 10088e10 f i libucrtd:argv_wildcards.obj
 0001:00087e40       ?data@?$__crt_win32_buffer@DU__crt_win32_buffer_internal_dynamic_resizing@@@@QAEPADXZ 10088e40 f i libucrtd:argv_wildcards.obj
 0001:00087e60       ?data@?$__crt_win32_buffer@_WU__crt_win32_buffer_internal_dynamic_resizing@@@@QAEPA_WXZ 10088e60 f i libucrtd:argv_wildcards.obj
 0001:00087e80       ?deallocate@__crt_win32_buffer_internal_dynamic_resizing@@SAXQAXABV__crt_win32_buffer_empty_debug_info@@@Z 10088e80 f i libucrtd:argv_wildcards.obj
 0001:00087ea0       ?debug_info@?$__crt_win32_buffer@DU__crt_win32_buffer_internal_dynamic_resizing@@@@QBEABV__crt_win32_buffer_empty_debug_info@@XZ 10088ea0 f i libucrtd:argv_wildcards.obj
 0001:00087eb0       ?debug_info@?$__crt_win32_buffer@_WU__crt_win32_buffer_internal_dynamic_resizing@@@@QBEABV__crt_win32_buffer_empty_debug_info@@XZ 10088eb0 f i libucrtd:argv_wildcards.obj
 0001:000881c0       ?get@?$__crt_unique_handle_t@U__crt_findfile_traits@@@@QBEPAXXZ 100891c0 f i libucrtd:argv_wildcards.obj
 0001:00088230       ?get_invalid_value@__crt_findfile_traits@@SAPAXXZ 10089230 f i libucrtd:argv_wildcards.obj
 0001:000882c0       ?set_to_nullptr@?$__crt_win32_buffer@DU__crt_win32_buffer_internal_dynamic_resizing@@@@QAEXXZ 100892c0 f i libucrtd:argv_wildcards.obj
 0001:00088300       ?set_to_nullptr@?$__crt_win32_buffer@_WU__crt_win32_buffer_internal_dynamic_resizing@@@@QAEXXZ 10089300 f i libucrtd:argv_wildcards.obj
 0001:00088340       ?size@?$__crt_win32_buffer@DU__crt_win32_buffer_internal_dynamic_resizing@@@@QAEXI@Z 10089340 f i libucrtd:argv_wildcards.obj
 0001:00088360       ?size@?$__crt_win32_buffer@_WU__crt_win32_buffer_internal_dynamic_resizing@@@@QAEXI@Z 10089360 f i libucrtd:argv_wildcards.obj
 0001:000883c0       ?strpbrk@@YAPADQADQBD@Z    100893c0 f i libucrtd:argv_wildcards.obj
 0001:000883e0       ?wcspbrk@@YAPA_WPA_WPB_W@Z 100893e0 f i libucrtd:argv_wildcards.obj
 0001:00088400       ___acrt_expand_narrow_argv_wildcards 10089400 f   libucrtd:argv_wildcards.obj
 0001:00088420       ___acrt_expand_wide_argv_wildcards 10089420 f   libucrtd:argv_wildcards.obj
 0001:00088500       ??$initialize_from_array@$$BY10BAA@E@?$dual_state_global@PAE@__crt_state_management@@QAAXAAY10BAA@E@Z 10089500 f i libucrtd:mbctype.obj
 0001:00088550       ??$initialize_from_array@$$BY10BAB@E@?$dual_state_global@PAE@__crt_state_management@@QAAXAAY10BAB@E@Z 10089550 f i libucrtd:mbctype.obj
 0001:000887c0       ?dangerous_get_state_array@?$dual_state_global@PAE@__crt_state_management@@QAEPAPAEXZ 100897c0 f i libucrtd:mbctype.obj
 0001:000887d0       ?dangerous_get_state_array@?$dual_state_global@PAU__crt_multibyte_data@@@__crt_state_management@@QAEPAPAU__crt_multibyte_data@@XZ 100897d0 f i libucrtd:mbctype.obj
 0001:000888a0       ?initialize@?$dual_state_global@PAU__crt_multibyte_data@@@__crt_state_management@@QAEXQAU__crt_multibyte_data@@@Z 100898a0 f i libucrtd:mbctype.obj
 0001:00088ff0       ?value@?$dual_state_global@PAE@__crt_state_management@@QAEAAPAEXZ 10089ff0 f i libucrtd:mbctype.obj
 0001:00089010       ___acrt_initialize_multibyte 1008a010 f   libucrtd:mbctype.obj
 0001:000890c0       ___acrt_update_thread_multibyte_data 1008a0c0 f   libucrtd:mbctype.obj
 0001:000890e0       ___p__mbcasemap            1008a0e0 f   libucrtd:mbctype.obj
 0001:00089100       ___p__mbctype              1008a100 f   libucrtd:mbctype.obj
 0001:00089120       __getmbcp                  1008a120 f   libucrtd:mbctype.obj
 0001:00089190       __setmbcp                  1008a190 f   libucrtd:mbctype.obj
 0001:000891c0       __setmbcp_nolock           1008a1c0 f   libucrtd:mbctype.obj
 0001:00089731       __ismbbalnum               1008a731 f   libucrtd:ismbbyte.obj
 0001:0008974c       __ismbbalnum_l             1008a74c f   libucrtd:ismbbyte.obj
 0001:00089768       __ismbbalpha               1008a768 f   libucrtd:ismbbyte.obj
 0001:00089783       __ismbbalpha_l             1008a783 f   libucrtd:ismbbyte.obj
 0001:0008979f       __ismbbblank               1008a79f f   libucrtd:ismbbyte.obj
 0001:000897c2       __ismbbblank_l             1008a7c2 f   libucrtd:ismbbyte.obj
 0001:000897e6       __ismbbgraph               1008a7e6 f   libucrtd:ismbbyte.obj
 0001:00089801       __ismbbgraph_l             1008a801 f   libucrtd:ismbbyte.obj
 0001:0008981d       __ismbbkalnum              1008a81d f   libucrtd:ismbbyte.obj
 0001:00089835       __ismbbkalnum_l            1008a835 f   libucrtd:ismbbyte.obj
 0001:0008984e       __ismbbkana                1008a84e f   libucrtd:ismbbyte.obj
 0001:00089861       __ismbbkana_l              1008a861 f   libucrtd:ismbbyte.obj
 0001:000898b0       __ismbbkprint              1008a8b0 f   libucrtd:ismbbyte.obj
 0001:000898c8       __ismbbkprint_l            1008a8c8 f   libucrtd:ismbbyte.obj
 0001:000898e1       __ismbbkpunct              1008a8e1 f   libucrtd:ismbbyte.obj
 0001:000898f9       __ismbbkpunct_l            1008a8f9 f   libucrtd:ismbbyte.obj
 0001:00089912       __ismbblead                1008a912 f   libucrtd:ismbbyte.obj
 0001:0008992a       __ismbblead_l              1008a92a f   libucrtd:ismbbyte.obj
 0001:00089943       __ismbbprint               1008a943 f   libucrtd:ismbbyte.obj
 0001:0008995e       __ismbbprint_l             1008a95e f   libucrtd:ismbbyte.obj
 0001:0008997a       __ismbbpunct               1008a97a f   libucrtd:ismbbyte.obj
 0001:00089992       __ismbbpunct_l             1008a992 f   libucrtd:ismbbyte.obj
 0001:000899ab       __ismbbtrail               1008a9ab f   libucrtd:ismbbyte.obj
 0001:000899c3       __ismbbtrail_l             1008a9c3 f   libucrtd:ismbbyte.obj
 0001:000899e0       ___acrt_initialize_command_line 1008a9e0 f   libucrtd:argv_data.obj
 0001:00089a00       ___acrt_uninitialize_command_line 1008aa00 f   libucrtd:argv_data.obj
 0001:00089a10       ___p___argc                1008aa10 f   libucrtd:argv_data.obj
 0001:00089a20       ___p___argv                1008aa20 f   libucrtd:argv_data.obj
 0001:00089a30       ___p___wargv               1008aa30 f   libucrtd:argv_data.obj
 0001:00089a40       ___p__acmdln               1008aa40 f   libucrtd:argv_data.obj
 0001:00089a50       ___p__pgmptr               1008aa50 f   libucrtd:argv_data.obj
 0001:00089a60       ___p__wcmdln               1008aa60 f   libucrtd:argv_data.obj
 0001:00089a70       ___p__wpgmptr              1008aa70 f   libucrtd:argv_data.obj
 0001:00089a80       __get_pgmptr               1008aa80 f   libucrtd:argv_data.obj
 0001:00089b90       __get_wpgmptr              1008ab90 f   libucrtd:argv_data.obj
 0001:00089d50       ___acrt_MultiByteToWideChar 1008ad50 f   libucrtd:multibytetowidechar.obj
 0001:00089e50       ___acrt_WideCharToMultiByte 1008ae50 f   libucrtd:widechartomultibyte.obj
 0001:00089fa9       ___dcrt_get_narrow_environment_from_os 1008afa9 f   libucrtd:get_environment_from_os.obj
 0001:0008a03b       ___dcrt_get_wide_environment_from_os 1008b03b f   libucrtd:get_environment_from_os.obj
 0001:0008a9d0       ??$get_or_create_environment_nolock@$$V@?$__crt_char_traits@D@@SAPAPADXZ 1008b9d0 f i libucrtd:setenv.obj
 0001:0008a9d5       ??$get_or_create_environment_nolock@$$V@?$__crt_char_traits@_W@@SAPAPA_WXZ 1008b9d5 f i libucrtd:setenv.obj
 0001:0008a9da       ??$set_environment_variable@ABQADQAD@?$__crt_char_traits@D@@SAHABQAD$$QBQAD@Z 1008b9da f i libucrtd:setenv.obj
 0001:0008a9f2       ??$set_environment_variable@ABQA_WQA_W@?$__crt_char_traits@_W@@SAHABQA_W$$QBQA_W@Z 1008b9f2 f i libucrtd:setenv.obj
 0001:0008aa09       ??$tcschr@ABQADD@?$__crt_char_traits@D@@SAPADABQAD$$QAD@Z 1008ba09 f i libucrtd:setenv.obj
 0001:0008aa23       ??$tcschr@ABQA_WD@?$__crt_char_traits@_W@@SAPA_WABQA_W$$QAD@Z 1008ba23 f i libucrtd:setenv.obj
 0001:0008aa41       ??$tcscpy_s@AAPADABIAAPAD@?$__crt_char_traits@D@@SAHAAPADABI0@Z 1008ba41 f i libucrtd:setenv.obj
 0001:0008aa5f       ??$tcscpy_s@AAPA_WABIAAPA_W@?$__crt_char_traits@_W@@SAHAAPA_WABI0@Z 1008ba5f f i libucrtd:setenv.obj
 0001:0008aa7d       ??$tcscpy_s@ABQADABIABQAD@?$__crt_char_traits@D@@SAHABQADABI0@Z 1008ba7d f i libucrtd:setenv.obj
 0001:0008aa9b       ??$tcscpy_s@ABQA_WABIABQA_W@?$__crt_char_traits@_W@@SAHABQA_WABI0@Z 1008ba9b f i libucrtd:setenv.obj
 0001:0008aab9       ??$tcslen@ABQAD@?$__crt_char_traits@D@@SAIABQAD@Z 1008bab9 f i libucrtd:setenv.obj
 0001:0008aad1       ??$tcslen@ABQA_W@?$__crt_char_traits@_W@@SAIABQA_W@Z 1008bad1 f i libucrtd:setenv.obj
 0001:0008aaef       ??$tcsnicoll@ABQBDAAPADABI@?$__crt_char_traits@D@@SAHABQBDAAPADABI@Z 1008baef f i libucrtd:setenv.obj
 0001:0008ab0d       ??$tcsnicoll@ABQB_WAAPA_WABI@?$__crt_char_traits@_W@@SAHABQB_WAAPA_WABI@Z 1008bb0d f i libucrtd:setenv.obj
 0001:0008ab2b       ??$tcsnlen@PADH@?$__crt_char_traits@D@@SAI$$QAPAD$$QAH@Z 1008bb2b f i libucrtd:setenv.obj
 0001:0008ab43       ??$tcsnlen@PA_WH@?$__crt_char_traits@_W@@SAI$$QAPA_W$$QAH@Z 1008bb43 f i libucrtd:setenv.obj
 0001:0008ab7f       ?strchr@@YAPADQADH@Z       1008bb7f f i libucrtd:setenv.obj
 0001:0008ab8a       ?wcschr@@YAPA_WPA_W_W@Z    1008bb8a f i libucrtd:setenv.obj
