 OPOSBelt

 Timestamp is 600f76fd (Tue Jan 26 10:57:17 2021)

 Preferred load address is 10000000

 Start         Length     Name                   Class
 0001:00000000 00000d90H .text$di                CODE
 0001:00000d90 000a94c0H .text$mn                CODE
 0001:000aa250 000001c0H .text$x                 CODE
 0001:000aa410 00000120H .text$yd                CODE
 0002:00000000 00000358H .idata$5                DATA
 0002:00000358 00000008H .00cfg                  DATA
 0002:00000360 00000004H .CRT$XCA                DATA
 0002:00000364 00000004H .CRT$XCL                DATA
 0002:00000368 0000006cH .CRT$XCU                DATA
 0002:000003d4 00000004H .CRT$XCZ                DATA
 0002:000003d8 00000004H .CRT$XIA                DATA
 0002:000003dc 00000014H .CRT$XIC                DATA
 0002:000003f0 00000004H .CRT$XIZ                DATA
 0002:000003f4 00000004H .CRT$XLA                DATA
 0002:000003f8 00000004H .CRT$XLZ                DATA
 0002:000003fc 00000004H .CRT$XPA                DATA
 0002:00000400 00000008H .CRT$XPX                DATA
 0002:00000408 00000004H .CRT$XPXA               DATA
 0002:0000040c 00000004H .CRT$XPZ                DATA
 0002:00000410 00000004H .CRT$XTA                DATA
 0002:00000414 0000000cH .CRT$XTZ                DATA
 0002:00000418 00000000H .gfids$y                DATA
 0002:00000420 0002fde0H .rdata                  DATA
 0002:00030200 00000004H .rdata$CastGuardVftablesA DATA
 0002:00030204 00000004H .rdata$CastGuardVftablesC DATA
 0002:00030208 00000018H .rdata$T                DATA
 0002:00030220 0000033cH .rdata$r                DATA
 0002:0003055c 00000044H .rdata$sxdata           DATA
 0002:000305a0 00000448H .rdata$zzzdbg           DATA
 0002:000309e8 00000004H .rtc$IAA                DATA
 0002:000309ec 00000018H .rtc$IMZ                DATA
 0002:00030a04 00000004H .rtc$IZZ                DATA
 0002:00030a08 00000004H .rtc$TAA                DATA
 0002:00030a0c 00000018H .rtc$TMZ                DATA
 0002:00030a24 00000004H .rtc$TZZ                DATA
 0002:00030a28 00000004H .tls                    DATA
 0002:00030a2c 00000004H .tls$                   DATA
 0002:00030a30 00000008H .tls$ZZZ                DATA
 0002:00030a38 00000e4cH .xdata$x                DATA
 0002:00031884 00000004H ATL$__a                 DATA
 0002:00031888 00000008H ATL$__z                 DATA
 0002:00031890 000000a8H .edata                  DATA
 0002:00031938 00000078H .idata$2                DATA
 0002:000319b0 00000014H .idata$3                DATA
 0002:000319c4 00000358H .idata$4                DATA
 0002:00031d1c 00000d56H .idata$6                DATA
 0003:00000000 00000b80H .data                   DATA
 0003:00000b80 00000138H .data$r                 DATA
 0003:00000cb8 00003588H .bss                    DATA
 0004:00000000 00000220H .rsrc$01                DATA
 0004:00000220 000044f0H .rsrc$02                DATA

  Address         Publics by Value              Rva+Base       Lib:Object

 0000:00000000       ___arm64x_redirection_metadata_count 00000000     <absolute>
 0000:00000000       ___arm64x_extra_rfe_table  00000000     <absolute>
 0000:00000000       ___arm64x_redirection_metadata 00000000     <absolute>
 0000:00000000       ___guard_fids_table        00000000     <absolute>
 0000:00000000       __except_list              00000000     <absolute>
 0000:00000000       ___enclave_config          00000000     <absolute>
 0000:00000000       ___x64_code_ranges_to_entry_points 00000000     <absolute>
 0000:00000000       ___guard_iat_count         00000000     <absolute>
 0000:00000000       ___x64_code_ranges_to_entry_points_count 00000000     <absolute>
 0000:00000000       ___guard_eh_cont_table     00000000     <absolute>
 0000:00000000       ___guard_longjmp_table     00000000     <absolute>
 0000:00000000       ___AbsoluteZero            00000000     <absolute>
 0000:00000000       ___hybrid_code_map_count   00000000     <absolute>
 0000:00000000       ___guard_fids_count        00000000     <absolute>
 0000:00000000       ___dynamic_value_reloc_table 00000000     <absolute>
 0000:00000000       ___volatile_metadata       00000000     <absolute>
 0000:00000000       ___hybrid_auxiliary_iat    00000000     <absolute>
 0000:00000000       ___hybrid_code_map         00000000     <absolute>
 0000:00000000       ___arm64x_native_entrypoint 00000000     <absolute>
 0000:00000000       ___guard_eh_cont_count     00000000     <absolute>
 0000:00000000       ___guard_longjmp_count     00000000     <absolute>
 0000:00000000       ___guard_iat_table         00000000     <absolute>
 0000:00000000       ___arm64x_extra_rfe_table_size 00000000     <absolute>
 0000:00000011       ___safe_se_handler_count   00000011     <absolute>
 0000:0000002c       __tls_array                0000002c     <absolute>
 0000:00000100       ___guard_flags             00000100     <absolute>
 0000:00000000       ___ImageBase               10000000     <linker-defined>
 0001:00000d90       ?_assert@@YAXPB_W0I@Z      10001d90 f   Assert.obj
 0001:00000ec0       ___local_stdio_printf_options 10001ec0 f i Assert.obj
 0001:00000ed0       ___vswprintf_l             10001ed0 f i Assert.obj
 0001:00000f00       __swprintf                 10001f00 f i Assert.obj
 0001:00000f60       __vswprintf_c_l            10001f60 f i Assert.obj
 0001:00000fd0       __vswprintf_l              10001fd0 f i Assert.obj
 0001:00001000       ?cw_memcpy@@YGHPADPB_WH@Z  10002000 f   CWString.obj
 0001:00001060       ?cw_memcpy@@YGHPA_WPBDH@Z  10002060 f   CWString.obj
 0001:000010c0       ?cw_memcpy@@YGHPADPBDH@Z   100020c0 f   CWString.obj
 0001:00001110       ?cw_memcpy@@YGHPA_WPB_WH@Z 10002110 f   CWString.obj
 0001:00001150       ?cw_memset@@YAXPADDH@Z     10002150 f   CWString.obj
 0001:00001170       ?cw_memset@@YAXPA_W_WH@Z   10002170 f   CWString.obj
 0001:00001190       ?cw_strlen@@YAHPBD@Z       10002190 f   CWString.obj
 0001:000011e0       ?cw_strlen@@YAHPB_W@Z      100021e0 f   CWString.obj
 0001:00001230       ?cw_strcpy@@YAHPADPB_W@Z   10002230 f   CWString.obj
 0001:00001250       ?cw_strcpy@@YAHPA_WPBD@Z   10002250 f   CWString.obj
 0001:00001270       ?cw_strcpy@@YAHPADPBD@Z    10002270 f   CWString.obj
 0001:00001290       ?cw_strcpy@@YAHPA_WPB_W@Z  10002290 f   CWString.obj
 0001:000012b0       ?cw_strcat@@YAHPADPB_W@Z   100022b0 f   CWString.obj
 0001:000012e0       ?cw_strcat@@YAHPA_WPBD@Z   100022e0 f   CWString.obj
 0001:00001310       ?cw_strcat@@YAHPADPBD@Z    10002310 f   CWString.obj
 0001:00001340       ?cw_strcat@@YAHPA_WPB_W@Z  10002340 f   CWString.obj
 0001:00001370       ?cw_dup@@YGXPBDAAHAAPA_W1@Z 10002370 f   CWString.obj
 0001:00001430       ?cw_dup@@YGXPB_WAAHAAPAD1@Z 10002430 f   CWString.obj
 0001:000014e0       ?DupChar@_CW@@AAEXXZ       100024e0 f   CWString.obj
 0001:00001530       ?DupWide@_CW@@AAEXXZ       10002530 f   CWString.obj
 0001:00001580       ?GetCharsMbcs@_CW@@QAEHXZ  10002580 f   CWString.obj
 0001:000015e0       ?GetCharsWide@_CW@@QAEHXZ  100025e0 f   CWString.obj
 0001:00001640       ?SetVARIANT_BOOL@OposVariant@@QAEXF@Z 10002640 f   OposVariant.obj
 0001:000016a0       ?SetVARIANT_BOOL_Ptr@OposVariant@@QAEXPAFAAJ@Z 100026a0 f   OposVariant.obj
 0001:000016f0       ?GetLONG@OposVariant@@QAEJXZ 100026f0 f   OposVariant.obj
 0001:00001780       ?ChangeLONG@OposVariant@@QAEXPAJAAJ@Z 10002780 f   OposVariant.obj
 0001:00001840       ?SetLONG@OposVariant@@QAEXJ@Z 10002840 f   OposVariant.obj
 0001:00001880       ?SetLONG_Ptr@OposVariant@@QAEXPAJAAJ@Z 10002880 f   OposVariant.obj
 0001:000018d0       ?ChangeCURRENCY@OposVariant@@QAEXPATtagCY@@AAJ@Z 100028d0 f   OposVariant.obj
 0001:00001990       ?SetCURRENCY@OposVariant@@QAEXTtagCY@@@Z 10002990 f   OposVariant.obj
 0001:000019d0       ?SetCURRENCY_Ptr@OposVariant@@QAEXPATtagCY@@AAJ@Z 100029d0 f   OposVariant.obj
 0001:00001a20       ?ChangeBSTR@OposVariant@@QAEXPAPA_WAAJ@Z 10002a20 f   OposVariant.obj
 0001:00001ae0       ?SetBSTR@OposVariant@@QAEXPA_WAAJ@Z 10002ae0 f   OposVariant.obj
 0001:00001b30       ?SetBSTR_Copy@OposVariant@@QAEXPA_WAAJ@Z 10002b30 f   OposVariant.obj
 0001:00001bd0       ?SetBSTR_OutPtr@OposVariant@@QAE_NPAPA_WAAJ@Z 10002bd0 f   OposVariant.obj
 0001:00001c20       ?SetBSTR_InOutPtr@OposVariant@@QAE_NPAPA_WAAJ@Z 10002c20 f   OposVariant.obj
 0001:00001c70       ?SetVARIANT@OposVariant@@QAEXAAUtagVARIANT@@GAAJ@Z 10002c70 f   OposVariant.obj
 0001:00001cf0       ?SetVARIANT_Ptr@OposVariant@@QAEXAAPAUtagVARIANT@@GAAJ@Z 10002cf0 f   OposVariant.obj
 0001:00001d90       ?SetString@OposVariant@@QAEXPB_WAAJ@Z 10002d90 f   OposVariant.obj
 0001:00001e20       ?SetDispatch_Ptr@OposVariant@@QAEXPAUIDispatch@@AAJ@Z 10002e20 f   OposVariant.obj
 0001:00001e90       ??0OposDispParms@@QAE@PAVOposVariant@@H@Z 10002e90 f   OposVariant.obj
 0001:00001f60       ??1OposDispParms@@QAE@XZ   10002f60 f   OposVariant.obj
 0001:00001fb0       ??$AtlMultiply@I@ATL@@YAJPAIII@Z 10002fb0 f i OposVariant.obj
 0001:00002010       ??0?$CHeapPtr@_WVCCRTAllocator@ATL@@@ATL@@QAE@XZ 10003010 f i OposVariant.obj
 0001:00002040       ??0?$CHeapPtrBase@_WVCCRTAllocator@ATL@@@ATL@@IAE@XZ 10003040 f i OposVariant.obj
 0001:00002060       ??0?$CSimpleArray@GV?$CSimpleArrayEqualHelper@G@ATL@@@ATL@@QAE@XZ 10003060 f i OposVariant.obj
 0001:000020a0       ??0?$CTraceCategoryEx@$00$0A@@ATL@@QAE@PB_W@Z 100030a0 f i OposVariant.obj
 0001:000020d0       ??0?$CTraceCategoryEx@$01$0A@@ATL@@QAE@PB_W@Z 100030d0 f i OposVariant.obj
 0001:00002100       ??0?$CTraceCategoryEx@$03$0A@@ATL@@QAE@PB_W@Z 10003100 f i OposVariant.obj
 0001:00002130       ??0?$CTraceCategoryEx@$07$0A@@ATL@@QAE@PB_W@Z 10003130 f i OposVariant.obj
 0001:00002160       ??0?$CTraceCategoryEx@$0BA@$0A@@ATL@@QAE@PB_W@Z 10003160 f i OposVariant.obj
 0001:00002190       ??0?$CTraceCategoryEx@$0BAA@$0A@@ATL@@QAE@PB_W@Z 10003190 f i OposVariant.obj
 0001:000021d0       ??0?$CTraceCategoryEx@$0BAAA@$0A@@ATL@@QAE@PB_W@Z 100031d0 f i OposVariant.obj
 0001:00002210       ??0?$CTraceCategoryEx@$0BAAAA@$0A@@ATL@@QAE@PB_W@Z 10003210 f i OposVariant.obj
 0001:00002250       ??0?$CTraceCategoryEx@$0BAAAAA@$0A@@ATL@@QAE@PB_W@Z 10003250 f i OposVariant.obj
 0001:00002290       ??0?$CTraceCategoryEx@$0CA@$0A@@ATL@@QAE@PB_W@Z 10003290 f i OposVariant.obj
 0001:000022c0       ??0?$CTraceCategoryEx@$0CAA@$0A@@ATL@@QAE@PB_W@Z 100032c0 f i OposVariant.obj
 0001:00002300       ??0?$CTraceCategoryEx@$0CAAA@$0A@@ATL@@QAE@PB_W@Z 10003300 f i OposVariant.obj
 0001:00002340       ??0?$CTraceCategoryEx@$0CAAAA@$0A@@ATL@@QAE@PB_W@Z 10003340 f i OposVariant.obj
 0001:00002380       ??0?$CTraceCategoryEx@$0CAAAAA@$0A@@ATL@@QAE@PB_W@Z 10003380 f i OposVariant.obj
 0001:000023c0       ??0?$CTraceCategoryEx@$0EA@$0A@@ATL@@QAE@PB_W@Z 100033c0 f i OposVariant.obj
 0001:000023f0       ??0?$CTraceCategoryEx@$0EAA@$0A@@ATL@@QAE@PB_W@Z 100033f0 f i OposVariant.obj
 0001:00002430       ??0?$CTraceCategoryEx@$0EAAA@$0A@@ATL@@QAE@PB_W@Z 10003430 f i OposVariant.obj
 0001:00002470       ??0?$CTraceCategoryEx@$0EAAAA@$0A@@ATL@@QAE@PB_W@Z 10003470 f i OposVariant.obj
 0001:000024b0       ??0?$CTraceCategoryEx@$0EAAAAA@$0A@@ATL@@QAE@PB_W@Z 100034b0 f i OposVariant.obj
 0001:000024f0       ??0?$CTraceCategoryEx@$0IA@$0A@@ATL@@QAE@PB_W@Z 100034f0 f i OposVariant.obj
 0001:00002530       ??0?$CTraceCategoryEx@$0IAA@$0A@@ATL@@QAE@PB_W@Z 10003530 f i OposVariant.obj
 0001:00002570       ??0?$CTraceCategoryEx@$0IAAA@$0A@@ATL@@QAE@PB_W@Z 10003570 f i OposVariant.obj
 0001:000025b0       ??0?$CTraceCategoryEx@$0IAAAA@$0A@@ATL@@QAE@PB_W@Z 100035b0 f i OposVariant.obj
 0001:000025f0       ??0CAtlComModule@ATL@@QAE@XZ 100035f0 f i OposVariant.obj
 0001:000026d0       ??0CAtlWinModule@ATL@@QAE@XZ 100036d0 f i OposVariant.obj
 0001:00002760       ??0CComCriticalSection@ATL@@QAE@XZ 10003760 f i OposVariant.obj
 0001:00002790       ??0CPreserveLastError@ATL@@QAE@XZ 10003790 f i OposVariant.obj
 0001:000027d0       ??0CTraceFileAndLineInfo@ATL@@QAE@PBDH@Z 100037d0 f i OposVariant.obj
 0001:00002800       ??0_ATL_COM_MODULE70@ATL@@QAE@XZ 10003800 f i OposVariant.obj
 0001:00002830       ??0_ATL_WIN_MODULE70@ATL@@QAE@XZ 10003830 f i OposVariant.obj
 0001:00002870       ??1?$CHeapPtr@_WVCCRTAllocator@ATL@@@ATL@@QAE@XZ 10003870 f i OposVariant.obj
 0001:000028a0       ??1?$CHeapPtrBase@_WVCCRTAllocator@ATL@@@ATL@@QAE@XZ 100038a0 f i OposVariant.obj
 0001:000028d0       ??1?$CSimpleArray@GV?$CSimpleArrayEqualHelper@G@ATL@@@ATL@@QAE@XZ 100038d0 f i OposVariant.obj
 0001:00002900       ??1CAtlComModule@ATL@@QAE@XZ 10003900 f i OposVariant.obj
 0001:00002930       ??1CAtlWinModule@ATL@@QAE@XZ 10003930 f i OposVariant.obj
 0001:00002960       ??1CComBSTR@ATL@@QAE@XZ    10003960 f i OposVariant.obj
 0001:000029a0       ??1CComCriticalSection@ATL@@QAE@XZ 100039a0 f i OposVariant.obj
 0001:000029c0       ??1CPreserveLastError@ATL@@QAE@XZ 100039c0 f i OposVariant.obj
 0001:00002a00       ??1_ATL_COM_MODULE70@ATL@@QAE@XZ 10003a00 f i OposVariant.obj
 0001:00002a30       ??1_ATL_WIN_MODULE70@ATL@@QAE@XZ 10003a30 f i OposVariant.obj
 0001:00002a70       ??1stringdispid@CComTypeInfoHolder@ATL@@QAE@XZ 10003a70 f i OposVariant.obj
 0001:00002aa0       ??A?$CSimpleArray@GV?$CSimpleArrayEqualHelper@G@ATL@@@ATL@@QAEAAGH@Z 10003aa0 f i OposVariant.obj
 0001:00002b20       ??B?$CHeapPtrBase@_WVCCRTAllocator@ATL@@@ATL@@QBEPA_WXZ 10003b20 f i OposVariant.obj
 0001:00002b40       ??B?$CTraceCategoryEx@$01$0A@@ATL@@QAEIXZ 10003b40 f i OposVariant.obj
 0001:00002b60       ??B?$CTraceCategoryEx@$0CA@$0A@@ATL@@QAEIXZ 10003b60 f i OposVariant.obj
 0001:00002b80       ??RCTraceFileAndLineInfo@ATL@@QBAXHIPB_WZZ 10003b80 f i OposVariant.obj
 0001:00002c20       ??_Estringdispid@CComTypeInfoHolder@ATL@@QAEPAXI@Z 10003c20 f i OposVariant.obj
 0001:00002cb0       ??_H@YGXPAXIIP6EPAX0@Z@Z   10003cb0 f i OposVariant.obj
 0001:00002d20       ??_I@YGXPAXIIP6EX0@Z@Z     10003d20 f i OposVariant.obj
 0001:00002da0       ?Allocate@?$CHeapPtr@_WVCCRTAllocator@ATL@@@ATL@@QAE_NI@Z 10003da0 f i OposVariant.obj
 0001:00002e30       ?Allocate@CCRTAllocator@ATL@@SAPAXI@Z 10003e30 f i OposVariant.obj
 0001:00002e50       ?AllocateBytes@?$CHeapPtrBase@_WVCCRTAllocator@ATL@@@ATL@@QAE_NI@Z 10003e50 f i OposVariant.obj
 0001:00002ec0       ?AtlWinModuleInit@ATL@@YGJPAU_ATL_WIN_MODULE70@1@@Z 10003ec0 f i OposVariant.obj
 0001:00002f90       ?AtlWinModuleTerm@ATL@@YGJPAU_ATL_WIN_MODULE70@1@PAUHINSTANCE__@@@Z 10003f90 f i OposVariant.obj
 0001:00003050       ?Clear@OposVariant@@QAEJXZ 10004050 f i OposVariant.obj
 0001:00003090       ?Free@?$CHeapPtrBase@_WVCCRTAllocator@ATL@@@ATL@@QAEXXZ 10004090 f i OposVariant.obj
 0001:000030d0       ?Free@CCRTAllocator@ATL@@SAXPAX@Z 100040d0 f i OposVariant.obj
 0001:000030f0       ?GetCategoryName@CTrace@ATL@@CAPA_WI@Z 100040f0 f i OposVariant.obj
 0001:00003140       ?GetModuleInstance@CAtlBaseModule@ATL@@QAEPAUHINSTANCE__@@XZ 10004140 f i OposVariant.obj
 0001:00003160       ?GetSize@?$CSimpleArray@GV?$CSimpleArrayEqualHelper@G@ATL@@@ATL@@QBEHXZ 10004160 f i OposVariant.obj
 0001:00003180       ?Init@CComCriticalSection@ATL@@QAEJXZ 10004180 f i OposVariant.obj
 0001:000031e0       ?RegisterCategory@CTrace@ATL@@SAXPB_WI@Z 100041e0 f i OposVariant.obj
 0001:00003270       ?RemoveAll@?$CSimpleArray@GV?$CSimpleArrayEqualHelper@G@ATL@@@ATL@@QAEXXZ 10004270 f i OposVariant.obj
 0001:000032f0       ?Term@CAtlComModule@ATL@@QAEXXZ 100042f0 f i OposVariant.obj
 0001:000033b0       ?Term@CAtlWinModule@ATL@@QAEXXZ 100043b0 f i OposVariant.obj
 0001:000033e0       ?Term@CComCriticalSection@ATL@@QAEJXZ 100043e0 f i OposVariant.obj
 0001:00003420       ?TraceV@CTrace@ATL@@CAXPBDHIIPB_W@Z 10004420 f i OposVariant.obj
 0001:000036a0       ?TraceV@CTrace@ATL@@SAXPBDHIIPB_WPAD@Z 100046a0 f i OposVariant.obj
 0001:000037e0       ?_AtlInitializeCriticalSectionEx@ATL@@YAHPAU_RTL_CRITICAL_SECTION@@KK@Z 100047e0 f i OposVariant.obj
 0001:00003810       ?_AtlRaiseException@ATL@@YAXKK@Z 10004810 f i OposVariant.obj
 0001:00003840       _HRESULT_FROM_WIN32        10004840 f i OposVariant.obj
 0001:00003880       __vswprintf_s_l            10004880 f i OposVariant.obj
 0001:000038f0       _swprintf_s                100048f0 f i OposVariant.obj
 0001:00003950       ?ObjectMain@CComObjectRootBase@ATL@@SGX_N@Z 10004950 f i Belt.obj
 0001:00003960       ?GetCategoryMap@CComObjectRootBase@ATL@@SAPBU_ATL_CATMAP_ENTRY@2@XZ 10004960 f i Belt.obj
 0001:00003970       ?GetObjectDescription@?$CComCoClass@VCOPOSBelt@@$1?CLSID_OPOSBelt@@3U_GUID@@B@ATL@@SGPB_WXZ 10004970 f i Belt.obj
 0001:00003980       ?UpdateRegistry@COPOSBelt@@SGJH@Z 10004980 f i Belt.obj
 0001:000039a0       ?CreateInstance@?$CComCreator@V?$CComObjectCached@VCComClassFactory@ATL@@@ATL@@@ATL@@SGJPAXABU_GUID@@PAPAX@Z 100049a0 f i Belt.obj
 0001:00003b20       ?CreateInstance@?$CComCreator2@V?$CComCreator@V?$CComObject@VCOPOSBelt@@@ATL@@@ATL@@V?$CComCreator@V?$CComAggObject@VCOPOSBelt@@@ATL@@@2@@ATL@@SGJPAXABU_GUID@@PAPAX@Z 10004b20 f i Belt.obj
 0001:00003cd0       _DllGetClassObject@12      10004cd0 f   Belt.obj
 0001:00003d00       _DllCanUnloadNow@0         10004d00 f   Belt.obj
 0001:00003d40       _DllRegisterServer@0       10004d40 f   Belt.obj
 0001:00003d60       _DllUnregisterServer@0     10004d60 f   Belt.obj
 0001:00003ef0       _DllMain@12                10004ef0 f   Belt.obj
 0001:00003f50       ??$?2G@Wrapper@?$CSimpleArray@GV?$CSimpleArrayEqualHelper@G@ATL@@@ATL@@SAPAXIPAG@Z 10004f50 f i Belt.obj
 0001:00003f60       ??$?2PA_W@?$Wrapper@PA_W@?$CSimpleMap@PA_WPA_WVCExpansionVectorEqualHelper@ATL@@@ATL@@SAPAXIPAPA_W@Z 10004f60 f i Belt.obj
 0001:00003f70       ??$?4UITypeInfo2@@@?$CComPtr@UITypeInfo@@@ATL@@QAEPAUITypeInfo@@ABV?$CComPtr@UITypeInfo2@@@1@@Z 10004f70 f i Belt.obj
 0001:00003fd0       ??$AtlAdd@K@ATL@@YAJPAKKK@Z 10004fd0 f i Belt.obj
 0001:00004010       ??$AtlAdd@_K@ATL@@YAJPA_K_K1@Z 10005010 f i Belt.obj
 0001:00004080       ??$AtlAddThrow@K@ATL@@YAKKK@Z 10005080 f i Belt.obj
 0001:00004100       ??$AtlModuleRegisterWndClassInfoT@VAtlModuleRegisterWndClassInfoParamW@ATL@@@ATL@@YAGPAU_ATL_BASE_MODULE70@0@PAU_ATL_WIN_MODULE70@0@PAU_ATL_WNDCLASSINFOW@0@PAP6GJPAUHWND__@@IIJ@ZVAtlModuleRegisterWndClassInfoParamW@0@@Z 10005100 f i Belt.obj
 0001:00004510       ??$AtlMultiply@H@ATL@@YAJPAHHH@Z 10005510 f i Belt.obj
 0001:00004590       ??$AtlMultiply@K@ATL@@YAJPAKKK@Z 10005590 f i Belt.obj
 0001:000045f0       ??$AtlMultiplyThrow@I@ATL@@YAIII@Z 100055f0 f i Belt.obj
 0001:00004670       ??$QueryInterface@UIPersistStream@@@IUnknown@@QAGJPAPAUIPersistStream@@@Z 10005670 f i Belt.obj
 0001:000046a0       ??$QueryInterface@UITypeInfo2@@@IUnknown@@QAGJPAPAUITypeInfo2@@@Z 100056a0 f i Belt.obj
 0001:000046d0       ??0?$CAtlModuleT@VCComModule@ATL@@@ATL@@QAE@XZ 100056d0 f i Belt.obj
 0001:00004700       ??0?$CAtlSafeAllocBufferManager@VCCRTAllocator@ATL@@@_ATL_SAFE_ALLOCA_IMPL@ATL@@QAE@XZ 10005700 f i Belt.obj
 0001:00004720       ??0?$CAutoVectorPtr@_W@ATL@@QAE@XZ 10005720 f i Belt.obj
 0001:00004740       ??0?$CComAggObject@VCOPOSBelt@@@ATL@@QAE@PAX@Z 10005740 f i Belt.obj
 0001:000047b0       ??0?$CComContainedObject@VCOPOSBelt@@@ATL@@QAE@PAX@Z 100057b0 f i Belt.obj
 0001:000048c0       ??0?$CComCritSecLock@VCComCriticalSection@ATL@@@ATL@@QAE@AAVCComCriticalSection@1@_N@Z 100058c0 f i Belt.obj
 0001:00004920       ??0?$CComEnum@UIEnumConnectionPoints@@$1?_GUID_b196b285_bab4_101a_b69c_00aa00341d07@@3U__s_GUID@@BPAUIConnectionPoint@@V?$_CopyInterface@UIConnectionPoint@@@ATL@@VCComSingleThreadModel@6@@ATL@@QAE@XZ 10005920 f i Belt.obj
 0001:00004960       ??0?$CComEnum@UIEnumConnections@@$1?_GUID_b196b287_bab4_101a_b69c_00aa00341d07@@3U__s_GUID@@BUtagCONNECTDATA@@V?$_Copy@UtagCONNECTDATA@@@ATL@@VCComSingleThreadModel@6@@ATL@@QAE@XZ 10005960 f i Belt.obj
 0001:000049a0       ??0?$CComEnumImpl@UIEnumConnectionPoints@@$1?_GUID_b196b285_bab4_101a_b69c_00aa00341d07@@3U__s_GUID@@BPAUIConnectionPoint@@V?$_CopyInterface@UIConnectionPoint@@@ATL@@@ATL@@QAE@XZ 100059a0 f i Belt.obj
 0001:00004a00       ??0?$CComEnumImpl@UIEnumConnections@@$1?_GUID_b196b287_bab4_101a_b69c_00aa00341d07@@3U__s_GUID@@BUtagCONNECTDATA@@V?$_Copy@UtagCONNECTDATA@@@ATL@@@ATL@@QAE@XZ 10005a00 f i Belt.obj
 0001:00004a60       ??0?$CComObject@V?$CComEnum@UIEnumConnectionPoints@@$1?_GUID_b196b285_bab4_101a_b69c_00aa00341d07@@3U__s_GUID@@BPAUIConnectionPoint@@V?$_CopyInterface@UIConnectionPoint@@@ATL@@VCComSingleThreadModel@6@@ATL@@@ATL@@QAE@PAX@Z 10005a60 f i Belt.obj
 0001:00004ab0       ??0?$CComObject@V?$CComEnum@UIEnumConnections@@$1?_GUID_b196b287_bab4_101a_b69c_00aa00341d07@@3U__s_GUID@@BUtagCONNECTDATA@@V?$_Copy@UtagCONNECTDATA@@@ATL@@VCComSingleThreadModel@6@@ATL@@@ATL@@QAE@PAX@Z 10005ab0 f i Belt.obj
 0001:00004b00       ??0?$CComObject@VCOPOSBelt@@@ATL@@QAE@PAX@Z 10005b00 f i Belt.obj
 0001:00004c20       ??0?$CComObjectCached@VCComClassFactory@ATL@@@ATL@@QAE@PAX@Z 10005c20 f i Belt.obj
 0001:00004c60       ??0?$CComObjectRootEx@VCComMultiThreadModel@ATL@@@ATL@@QAE@XZ 10005c60 f i Belt.obj
 0001:00004ca0       ??0?$CComObjectRootEx@VCComSingleThreadModel@ATL@@@ATL@@QAE@XZ 10005ca0 f i Belt.obj
 0001:00004cd0       ??0?$CComPtr@UIAdviseSink@@@ATL@@QAE@PAUIAdviseSink@@@Z 10005cd0 f i Belt.obj
 0001:00004d00       ??0?$CComPtr@UICatRegister@@@ATL@@QAE@XZ 10005d00 f i Belt.obj
 0001:00004d30       ??0?$CComPtr@UIConnectionPoint@@@ATL@@QAE@XZ 10005d30 f i Belt.obj
 0001:00004d60       ??0?$CComPtr@UIConnectionPointContainer@@@ATL@@QAE@XZ 10005d60 f i Belt.obj
 0001:00004d90       ??0?$CComPtr@UIDataObject@@@ATL@@QAE@XZ 10005d90 f i Belt.obj
 0001:00004dc0       ??0?$CComPtr@UIDispatch@@@ATL@@QAE@XZ 10005dc0 f i Belt.obj
 0001:00004df0       ??0?$CComPtr@UIOleClientSite@@@ATL@@QAE@PAUIOleClientSite@@@Z 10005df0 f i Belt.obj
 0001:00004e20       ??0?$CComPtr@UIOleControlSite@@@ATL@@QAE@XZ 10005e20 f i Belt.obj
 0001:00004e50       ??0?$CComPtr@UIOleInPlaceActiveObject@@@ATL@@QAE@XZ 10005e50 f i Belt.obj
 0001:00004e80       ??0?$CComPtr@UIOleInPlaceFrame@@@ATL@@QAE@XZ 10005e80 f i Belt.obj
 0001:00004eb0       ??0?$CComPtr@UIOleInPlaceObject@@@ATL@@QAE@XZ 10005eb0 f i Belt.obj
 0001:00004ee0       ??0?$CComPtr@UIOleInPlaceUIWindow@@@ATL@@QAE@XZ 10005ee0 f i Belt.obj
 0001:00004f10       ??0?$CComPtr@UIOleObject@@@ATL@@QAE@XZ 10005f10 f i Belt.obj
 0001:00004f40       ??0?$CComPtr@UIPersistStream@@@ATL@@QAE@XZ 10005f40 f i Belt.obj
 0001:00004f70       ??0?$CComPtr@UIPersistStreamInit@@@ATL@@QAE@XZ 10005f70 f i Belt.obj
 0001:00004fa0       ??0?$CComPtr@UIPointerInactive@@@ATL@@QAE@XZ 10005fa0 f i Belt.obj
 0001:00004fd0       ??0?$CComPtr@UIProvideClassInfo2@@@ATL@@QAE@XZ 10005fd0 f i Belt.obj
 0001:00005000       ??0?$CComPtr@UISpecifyPropertyPages@@@ATL@@QAE@XZ 10006000 f i Belt.obj
 0001:00005030       ??0?$CComPtr@UIStream@@@ATL@@QAE@XZ 10006030 f i Belt.obj
 0001:00005060       ??0?$CComPtr@UITypeInfo2@@@ATL@@QAE@XZ 10006060 f i Belt.obj
 0001:00005090       ??0?$CComPtr@UITypeInfo@@@ATL@@QAE@ABV01@@Z 10006090 f i Belt.obj
 0001:000050c0       ??0?$CComPtr@UITypeInfo@@@ATL@@QAE@XZ 100060c0 f i Belt.obj
 0001:000050f0       ??0?$CComPtr@UITypeLib@@@ATL@@QAE@XZ 100060f0 f i Belt.obj
 0001:00005120       ??0?$CComPtr@UIUnknown@@@ATL@@QAE@ABV01@@Z 10006120 f i Belt.obj
 0001:00005150       ??0?$CComPtr@UIUnknown@@@ATL@@QAE@PAUIUnknown@@@Z 10006150 f i Belt.obj
 0001:00005180       ??0?$CComPtr@UIUnknown@@@ATL@@QAE@XZ 10006180 f i Belt.obj
 0001:000051b0       ??0?$CComPtr@UIViewObjectEx@@@ATL@@QAE@XZ 100061b0 f i Belt.obj
 0001:000051e0       ??0?$CComPtrBase@UIAdviseSink@@@ATL@@IAE@PAUIAdviseSink@@@Z 100061e0 f i Belt.obj
 0001:00005230       ??0?$CComPtrBase@UICatRegister@@@ATL@@IAE@XZ 10006230 f i Belt.obj
 0001:00005250       ??0?$CComPtrBase@UIConnectionPoint@@@ATL@@IAE@XZ 10006250 f i Belt.obj
 0001:00005270       ??0?$CComPtrBase@UIConnectionPointContainer@@@ATL@@IAE@XZ 10006270 f i Belt.obj
 0001:00005290       ??0?$CComPtrBase@UIDataObject@@@ATL@@IAE@XZ 10006290 f i Belt.obj
 0001:000052b0       ??0?$CComPtrBase@UIDispatch@@@ATL@@IAE@XZ 100062b0 f i Belt.obj
 0001:000052d0       ??0?$CComPtrBase@UIOleClientSite@@@ATL@@IAE@PAUIOleClientSite@@@Z 100062d0 f i Belt.obj
 0001:00005320       ??0?$CComPtrBase@UIOleControlSite@@@ATL@@IAE@XZ 10006320 f i Belt.obj
 0001:00005340       ??0?$CComPtrBase@UIOleInPlaceActiveObject@@@ATL@@IAE@XZ 10006340 f i Belt.obj
 0001:00005360       ??0?$CComPtrBase@UIOleInPlaceFrame@@@ATL@@IAE@XZ 10006360 f i Belt.obj
 0001:00005380       ??0?$CComPtrBase@UIOleInPlaceObject@@@ATL@@IAE@XZ 10006380 f i Belt.obj
 0001:000053a0       ??0?$CComPtrBase@UIOleInPlaceUIWindow@@@ATL@@IAE@XZ 100063a0 f i Belt.obj
 0001:000053c0       ??0?$CComPtrBase@UIOleObject@@@ATL@@IAE@XZ 100063c0 f i Belt.obj
 0001:000053e0       ??0?$CComPtrBase@UIPersistStream@@@ATL@@IAE@XZ 100063e0 f i Belt.obj
 0001:00005400       ??0?$CComPtrBase@UIPersistStreamInit@@@ATL@@IAE@XZ 10006400 f i Belt.obj
 0001:00005420       ??0?$CComPtrBase@UIPointerInactive@@@ATL@@IAE@XZ 10006420 f i Belt.obj
 0001:00005440       ??0?$CComPtrBase@UIProvideClassInfo2@@@ATL@@IAE@XZ 10006440 f i Belt.obj
 0001:00005460       ??0?$CComPtrBase@UISpecifyPropertyPages@@@ATL@@IAE@XZ 10006460 f i Belt.obj
 0001:00005480       ??0?$CComPtrBase@UIStream@@@ATL@@IAE@XZ 10006480 f i Belt.obj
 0001:000054a0       ??0?$CComPtrBase@UITypeInfo2@@@ATL@@IAE@XZ 100064a0 f i Belt.obj
 0001:000054c0       ??0?$CComPtrBase@UITypeInfo@@@ATL@@IAE@PAUITypeInfo@@@Z 100064c0 f i Belt.obj
 0001:00005510       ??0?$CComPtrBase@UITypeInfo@@@ATL@@IAE@XZ 10006510 f i Belt.obj
 0001:00005530       ??0?$CComPtrBase@UITypeLib@@@ATL@@IAE@XZ 10006530 f i Belt.obj
 0001:00005550       ??0?$CComPtrBase@UIUnknown@@@ATL@@IAE@PAUIUnknown@@@Z 10006550 f i Belt.obj
 0001:000055a0       ??0?$CComPtrBase@UIUnknown@@@ATL@@IAE@XZ 100065a0 f i Belt.obj
 0001:000055c0       ??0?$CComPtrBase@UIViewObjectEx@@@ATL@@IAE@XZ 100065c0 f i Belt.obj
 0001:000055e0       ??0?$CComQIPtr@UIOleControlSite@@$1?_GUID_b196b289_bab4_101a_b69c_00aa00341d07@@3U__s_GUID@@B@ATL@@QAE@PAUIUnknown@@@Z 100065e0 f i Belt.obj
 0001:00005640       ??0?$CComQIPtr@UIOleObject@@$1?_GUID_00000112_0000_0000_c000_000000000046@@3U__s_GUID@@B@ATL@@QAE@XZ 10006640 f i Belt.obj
 0001:00005670       ??0?$CComQIPtr@UISpecifyPropertyPages@@$1?_GUID_b196b28b_bab4_101a_b69c_00aa00341d07@@3U__s_GUID@@B@ATL@@QAE@XZ 10006670 f i Belt.obj
 0001:000056a0       ??0?$CSimpleMap@PA_WPA_WVCExpansionVectorEqualHelper@ATL@@@ATL@@QAE@XZ 100066a0 f i Belt.obj
 0001:000056e0       ??0?$CTempBuffer@E$0BAA@VCCRTAllocator@ATL@@@ATL@@QAE@XZ 100066e0 f i Belt.obj
 0001:00005700       ??0?$CTempBuffer@_W$0BAA@VCCRTAllocator@ATL@@@ATL@@QAE@XZ 10006700 f i Belt.obj
 0001:00005720       ??0?$CTempBuffer@_W$0EAA@VCCRTAllocator@ATL@@@ATL@@QAE@XZ 10006720 f i Belt.obj
 0001:00005740       ??0?$Wrapper@PA_W@?$CSimpleMap@PA_WPA_WVCExpansionVectorEqualHelper@ATL@@@ATL@@QAE@ABQA_W@Z 10006740 f i Belt.obj
 0001:00005770       ??0CAtlModule@ATL@@QAE@XZ  10006770 f i Belt.obj
 0001:00005890       ??0CComAutoDeleteCriticalSection@ATL@@QAE@XZ 10006890 f i Belt.obj
 0001:000058c0       ??0CComBSTR@ATL@@QAE@XZ    100068c0 f i Belt.obj
 0001:000058e0       ??0CComClassFactory@ATL@@QAE@XZ 100068e0 f i Belt.obj
 0001:00005920       ??0CComModule@ATL@@QAE@XZ  10006920 f i Belt.obj
 0001:00005990       ??0CComObjectRootBase@ATL@@QAE@XZ 10006990 f i Belt.obj
 0001:000059b0       ??0CComSafeDeleteCriticalSection@ATL@@QAE@XZ 100069b0 f i Belt.obj
 0001:000059e0       ??0CComVariant@ATL@@QAE@XZ 100069e0 f i Belt.obj
 0001:00005a30       ??0CExpansionVector@ATL@@QAE@XZ 10006a30 f i Belt.obj
 0001:00005a60       ??0CParseBuffer@CRegParser@ATL@@QAE@H@Z 10006a60 f i Belt.obj
 0001:00005ad0       ??0CRegKey@ATL@@QAE@PAUHKEY__@@@Z 10006ad0 f i Belt.obj
 0001:00005b10       ??0CRegKey@ATL@@QAE@PAVCAtlTransactionManager@1@@Z 10006b10 f i Belt.obj
 0001:00005b50       ??0CRegObject@ATL@@QAE@XZ  10006b50 f i Belt.obj
 0001:00005b90       ??0CRegParser@ATL@@QAE@PAVCRegObject@1@@Z 10006b90 f i Belt.obj
 0001:00005bc0       ??0IClassFactory@@QAE@XZ   10006bc0 f i Belt.obj
 0001:00005bf0       ??0IEnumConnectionPoints@@QAE@XZ 10006bf0 f i Belt.obj
 0001:00005c20       ??0IEnumConnections@@QAE@XZ 10006c20 f i Belt.obj
 0001:00005c50       ??0IRegistrarBase@@QAE@XZ  10006c50 f i Belt.obj
 0001:00005c80       ??0IUnknown@@QAE@XZ        10006c80 f i Belt.obj
 0001:00005ca0       ??0ModuleLockHelper@ATL@@QAE@XZ 10006ca0 f i Belt.obj
 0001:00005ce0       ??0OposVariant@@QAE@XZ     10006ce0 f i Belt.obj
 0001:00005d10       ??0Wrapper@?$CSimpleArray@GV?$CSimpleArrayEqualHelper@G@ATL@@@ATL@@QAE@ABG@Z 10006d10 f i Belt.obj
 0001:00005d40       ??0_ATL_MODULE70@ATL@@QAE@XZ 10006d40 f i Belt.obj
 0001:00005d70       ??0_ATL_MSG@ATL@@QAE@PAUHWND__@@IIJH@Z 10006d70 f i Belt.obj
 0001:00005de0       ??0_U_MENUorID@ATL@@QAE@I@Z 10006de0 f i Belt.obj
 0001:00005e00       ??0_U_RECT@ATL@@QAE@AAUtagRECT@@@Z 10006e00 f i Belt.obj
 0001:00005e20       ??0stringdispid@CComTypeInfoHolder@ATL@@QAE@XZ 10006e20 f i Belt.obj
 0001:00005e60       ??1?$CAtlModuleT@VCComModule@ATL@@@ATL@@UAE@XZ 10006e60 f i Belt.obj
 0001:00005e90       ??1?$CAtlSafeAllocBufferManager@VCCRTAllocator@ATL@@@_ATL_SAFE_ALLOCA_IMPL@ATL@@QAE@XZ 10006e90 f i Belt.obj
 0001:00005ee0       ??1?$CAutoVectorPtr@_W@ATL@@QAE@XZ 10006ee0 f i Belt.obj
 0001:00005f10       ??1?$CComAggObject@VCOPOSBelt@@@ATL@@UAE@XZ 10006f10 f i Belt.obj
 0001:00005f80       ??1?$CComContainedObject@VCOPOSBelt@@@ATL@@UAE@XZ 10006f80 f i Belt.obj
 0001:00005fb0       ??1?$CComCritSecLock@VCComCriticalSection@ATL@@@ATL@@QAE@XZ 10006fb0 f i Belt.obj
 0001:00005fe0       ??1?$CComEnum@UIEnumConnectionPoints@@$1?_GUID_b196b285_bab4_101a_b69c_00aa00341d07@@3U__s_GUID@@BPAUIConnectionPoint@@V?$_CopyInterface@UIConnectionPoint@@@ATL@@VCComSingleThreadModel@6@@ATL@@UAE@XZ 10006fe0 f i Belt.obj
 0001:00006010       ??1?$CComEnum@UIEnumConnections@@$1?_GUID_b196b287_bab4_101a_b69c_00aa00341d07@@3U__s_GUID@@BUtagCONNECTDATA@@V?$_Copy@UtagCONNECTDATA@@@ATL@@VCComSingleThreadModel@6@@ATL@@UAE@XZ 10007010 f i Belt.obj
 0001:00006040       ??1?$CComEnumImpl@UIEnumConnectionPoints@@$1?_GUID_b196b285_bab4_101a_b69c_00aa00341d07@@3U__s_GUID@@BPAUIConnectionPoint@@V?$_CopyInterface@UIConnectionPoint@@@ATL@@@ATL@@UAE@XZ 10007040 f i Belt.obj
 0001:000060d0       ??1?$CComEnumImpl@UIEnumConnections@@$1?_GUID_b196b287_bab4_101a_b69c_00aa00341d07@@3U__s_GUID@@BUtagCONNECTDATA@@V?$_Copy@UtagCONNECTDATA@@@ATL@@@ATL@@UAE@XZ 100070d0 f i Belt.obj
 0001:00006160       ??1?$CComObject@V?$CComEnum@UIEnumConnectionPoints@@$1?_GUID_b196b285_bab4_101a_b69c_00aa00341d07@@3U__s_GUID@@BPAUIConnectionPoint@@V?$_CopyInterface@UIConnectionPoint@@@ATL@@VCComSingleThreadModel@6@@ATL@@@ATL@@UAE@XZ 10007160 f i Belt.obj
 0001:000061c0       ??1?$CComObject@V?$CComEnum@UIEnumConnections@@$1?_GUID_b196b287_bab4_101a_b69c_00aa00341d07@@3U__s_GUID@@BUtagCONNECTDATA@@V?$_Copy@UtagCONNECTDATA@@@ATL@@VCComSingleThreadModel@6@@ATL@@@ATL@@UAE@XZ 100071c0 f i Belt.obj
 0001:00006220       ??1?$CComObject@VCOPOSBelt@@@ATL@@UAE@XZ 10007220 f i Belt.obj
 0001:00006360       ??1?$CComObjectCached@VCComClassFactory@ATL@@@ATL@@UAE@XZ 10007360 f i Belt.obj
 0001:000063b0       ??1?$CComObjectRootEx@VCComMultiThreadModel@ATL@@@ATL@@QAE@XZ 100073b0 f i Belt.obj
 0001:000063e0       ??1?$CComObjectRootEx@VCComSingleThreadModel@ATL@@@ATL@@QAE@XZ 100073e0 f i Belt.obj
 0001:00006410       ??1?$CComPtr@UIAdviseSink@@@ATL@@QAE@XZ 10007410 f i Belt.obj
 0001:00006440       ??1?$CComPtr@UICatRegister@@@ATL@@QAE@XZ 10007440 f i Belt.obj
 0001:00006470       ??1?$CComPtr@UIConnectionPoint@@@ATL@@QAE@XZ 10007470 f i Belt.obj
 0001:000064a0       ??1?$CComPtr@UIConnectionPointContainer@@@ATL@@QAE@XZ 100074a0 f i Belt.obj
 0001:000064d0       ??1?$CComPtr@UIDataObject@@@ATL@@QAE@XZ 100074d0 f i Belt.obj
 0001:00006500       ??1?$CComPtr@UIDispatch@@@ATL@@QAE@XZ 10007500 f i Belt.obj
 0001:00006530       ??1?$CComPtr@UIOleClientSite@@@ATL@@QAE@XZ 10007530 f i Belt.obj
 0001:00006560       ??1?$CComPtr@UIOleControlSite@@@ATL@@QAE@XZ 10007560 f i Belt.obj
 0001:00006590       ??1?$CComPtr@UIOleInPlaceActiveObject@@@ATL@@QAE@XZ 10007590 f i Belt.obj
 0001:000065c0       ??1?$CComPtr@UIOleInPlaceFrame@@@ATL@@QAE@XZ 100075c0 f i Belt.obj
 0001:000065f0       ??1?$CComPtr@UIOleInPlaceObject@@@ATL@@QAE@XZ 100075f0 f i Belt.obj
 0001:00006620       ??1?$CComPtr@UIOleInPlaceUIWindow@@@ATL@@QAE@XZ 10007620 f i Belt.obj
 0001:00006650       ??1?$CComPtr@UIOleObject@@@ATL@@QAE@XZ 10007650 f i Belt.obj
 0001:00006680       ??1?$CComPtr@UIPersistStream@@@ATL@@QAE@XZ 10007680 f i Belt.obj
 0001:000066b0       ??1?$CComPtr@UIPersistStreamInit@@@ATL@@QAE@XZ 100076b0 f i Belt.obj
 0001:000066e0       ??1?$CComPtr@UIPointerInactive@@@ATL@@QAE@XZ 100076e0 f i Belt.obj
 0001:00006710       ??1?$CComPtr@UIProvideClassInfo2@@@ATL@@QAE@XZ 10007710 f i Belt.obj
 0001:00006740       ??1?$CComPtr@UISpecifyPropertyPages@@@ATL@@QAE@XZ 10007740 f i Belt.obj
 0001:00006770       ??1?$CComPtr@UIStream@@@ATL@@QAE@XZ 10007770 f i Belt.obj
 0001:000067a0       ??1?$CComPtr@UITypeInfo2@@@ATL@@QAE@XZ 100077a0 f i Belt.obj
 0001:000067d0       ??1?$CComPtr@UITypeInfo@@@ATL@@QAE@XZ 100077d0 f i Belt.obj
 0001:00006800       ??1?$CComPtr@UITypeLib@@@ATL@@QAE@XZ 10007800 f i Belt.obj
 0001:00006830       ??1?$CComPtr@UIUnknown@@@ATL@@QAE@XZ 10007830 f i Belt.obj
 0001:00006860       ??1?$CComPtr@UIViewObjectEx@@@ATL@@QAE@XZ 10007860 f i Belt.obj
 0001:00006890       ??1?$CComPtrBase@UIAdviseSink@@@ATL@@QAE@XZ 10007890 f i Belt.obj
 0001:000068e0       ??1?$CComPtrBase@UICatRegister@@@ATL@@QAE@XZ 100078e0 f i Belt.obj
 0001:00006930       ??1?$CComPtrBase@UIConnectionPoint@@@ATL@@QAE@XZ 10007930 f i Belt.obj
 0001:00006980       ??1?$CComPtrBase@UIConnectionPointContainer@@@ATL@@QAE@XZ 10007980 f i Belt.obj
 0001:000069d0       ??1?$CComPtrBase@UIDataObject@@@ATL@@QAE@XZ 100079d0 f i Belt.obj
 0001:00006a20       ??1?$CComPtrBase@UIDispatch@@@ATL@@QAE@XZ 10007a20 f i Belt.obj
 0001:00006a70       ??1?$CComPtrBase@UIOleClientSite@@@ATL@@QAE@XZ 10007a70 f i Belt.obj
 0001:00006ac0       ??1?$CComPtrBase@UIOleControlSite@@@ATL@@QAE@XZ 10007ac0 f i Belt.obj
 0001:00006b10       ??1?$CComPtrBase@UIOleInPlaceActiveObject@@@ATL@@QAE@XZ 10007b10 f i Belt.obj
 0001:00006b60       ??1?$CComPtrBase@UIOleInPlaceFrame@@@ATL@@QAE@XZ 10007b60 f i Belt.obj
 0001:00006bb0       ??1?$CComPtrBase@UIOleInPlaceObject@@@ATL@@QAE@XZ 10007bb0 f i Belt.obj
 0001:00006c00       ??1?$CComPtrBase@UIOleInPlaceUIWindow@@@ATL@@QAE@XZ 10007c00 f i Belt.obj
 0001:00006c50       ??1?$CComPtrBase@UIOleObject@@@ATL@@QAE@XZ 10007c50 f i Belt.obj
 0001:00006ca0       ??1?$CComPtrBase@UIPersistStream@@@ATL@@QAE@XZ 10007ca0 f i Belt.obj
 0001:00006cf0       ??1?$CComPtrBase@UIPersistStreamInit@@@ATL@@QAE@XZ 10007cf0 f i Belt.obj
 0001:00006d40       ??1?$CComPtrBase@UIPointerInactive@@@ATL@@QAE@XZ 10007d40 f i Belt.obj
 0001:00006d90       ??1?$CComPtrBase@UIProvideClassInfo2@@@ATL@@QAE@XZ 10007d90 f i Belt.obj
 0001:00006de0       ??1?$CComPtrBase@UISpecifyPropertyPages@@@ATL@@QAE@XZ 10007de0 f i Belt.obj
 0001:00006e30       ??1?$CComPtrBase@UIStream@@@ATL@@QAE@XZ 10007e30 f i Belt.obj
 0001:00006e80       ??1?$CComPtrBase@UITypeInfo2@@@ATL@@QAE@XZ 10007e80 f i Belt.obj
 0001:00006ed0       ??1?$CComPtrBase@UITypeInfo@@@ATL@@QAE@XZ 10007ed0 f i Belt.obj
 0001:00006f20       ??1?$CComPtrBase@UITypeLib@@@ATL@@QAE@XZ 10007f20 f i Belt.obj
 0001:00006f70       ??1?$CComPtrBase@UIUnknown@@@ATL@@QAE@XZ 10007f70 f i Belt.obj
 0001:00006fc0       ??1?$CComPtrBase@UIViewObjectEx@@@ATL@@QAE@XZ 10007fc0 f i Belt.obj
 0001:00007010       ??1?$CComQIPtr@UIOleControlSite@@$1?_GUID_b196b289_bab4_101a_b69c_00aa00341d07@@3U__s_GUID@@B@ATL@@QAE@XZ 10008010 f i Belt.obj
 0001:00007040       ??1?$CComQIPtr@UIOleObject@@$1?_GUID_00000112_0000_0000_c000_000000000046@@3U__s_GUID@@B@ATL@@QAE@XZ 10008040 f i Belt.obj
 0001:00007070       ??1?$CComQIPtr@UISpecifyPropertyPages@@$1?_GUID_b196b28b_bab4_101a_b69c_00aa00341d07@@3U__s_GUID@@B@ATL@@QAE@XZ 10008070 f i Belt.obj
 0001:000070a0       ??1?$CSimpleMap@PA_WPA_WVCExpansionVectorEqualHelper@ATL@@@ATL@@QAE@XZ 100080a0 f i Belt.obj
 0001:000070d0       ??1?$CTempBuffer@E$0BAA@VCCRTAllocator@ATL@@@ATL@@QAE@XZ 100080d0 f i Belt.obj
 0001:00007110       ??1?$CTempBuffer@_W$0BAA@VCCRTAllocator@ATL@@@ATL@@QAE@XZ 10008110 f i Belt.obj
 0001:00007150       ??1?$CTempBuffer@_W$0EAA@VCCRTAllocator@ATL@@@ATL@@QAE@XZ 10008150 f i Belt.obj
 0001:00007190       ??1CAtlModule@ATL@@UAE@XZ  10008190 f i Belt.obj
 0001:000071c0       ??1CComAutoDeleteCriticalSection@ATL@@QAE@XZ 100081c0 f i Belt.obj
 0001:000071f0       ??1CComClassFactory@ATL@@UAE@XZ 100081f0 f i Belt.obj
 0001:00007220       ??1CComModule@ATL@@UAE@XZ  10008220 f i Belt.obj
 0001:00007250       ??1CComObjectRootBase@ATL@@QAE@XZ 10008250 f i Belt.obj
 0001:00007270       ??1CComSafeDeleteCriticalSection@ATL@@QAE@XZ 10008270 f i Belt.obj
 0001:000072b0       ??1CComVariant@ATL@@QAE@XZ 100082b0 f i Belt.obj
 0001:00007310       ??1CExpansionVector@ATL@@QAE@XZ 10008310 f i Belt.obj
 0001:00007340       ??1CParseBuffer@CRegParser@ATL@@QAE@XZ 10008340 f i Belt.obj
 0001:00007380       ??1CRegKey@ATL@@QAE@XZ     10008380 f i Belt.obj
 0001:000073b0       ??1CRegObject@ATL@@UAE@XZ  100083b0 f i Belt.obj
 0001:000073f0       ??1ModuleLockHelper@ATL@@QAE@XZ 100083f0 f i Belt.obj
 0001:00007430       ??1OposVariant@@QAE@XZ     10008430 f i Belt.obj
 0001:00007460       ??1_ATL_MODULE70@ATL@@QAE@XZ 10008460 f i Belt.obj
 0001:00007490       ??4?$CComPtr@UIAdviseSink@@@ATL@@QAEPAUIAdviseSink@@PAU2@@Z 10008490 f i Belt.obj
 0001:000074f0       ??4?$CComPtr@UIOleClientSite@@@ATL@@QAEPAUIOleClientSite@@PAU2@@Z 100084f0 f i Belt.obj
 0001:00007550       ??4?$CComPtr@UIUnknown@@@ATL@@QAEPAUIUnknown@@PAU2@@Z 10008550 f i Belt.obj
 0001:000075b0       ??4?$CComQIPtr@UIOleObject@@$1?_GUID_00000112_0000_0000_c000_000000000046@@3U__s_GUID@@B@ATL@@QAEPAUIOleObject@@PAUIUnknown@@@Z 100085b0 f i Belt.obj
 0001:00007600       ??4?$CComQIPtr@UISpecifyPropertyPages@@$1?_GUID_b196b28b_bab4_101a_b69c_00aa00341d07@@3U__s_GUID@@B@ATL@@QAEPAUISpecifyPropertyPages@@PAUIUnknown@@@Z 10008600 f i Belt.obj
 0001:00007650       ??7?$CComPtrBase@UIOleClientSite@@@ATL@@QBE_NXZ 10008650 f i Belt.obj
 0001:00007690       ??7?$CComPtrBase@UIOleInPlaceSiteWindowless@@@ATL@@QBE_NXZ 10008690 f i Belt.obj
 0001:000076d0       ??7CComBSTR@ATL@@QBE_NXZ   100086d0 f i Belt.obj
 0001:00007710       ??8?$CComPtrBase@UIConnectionPointContainer@@@ATL@@QBE_NPAUIConnectionPointContainer@@@Z 10008710 f i Belt.obj
 0001:00007750       ??8?$CComPtrBase@UIDataAdviseHolder@@@ATL@@QBE_NPAUIDataAdviseHolder@@@Z 10008750 f i Belt.obj
 0001:00007790       ??8?$CComPtrBase@UIOleAdviseHolder@@@ATL@@QBE_NPAUIOleAdviseHolder@@@Z 10008790 f i Belt.obj
 0001:000077d0       ??8?$CComPtrBase@UIOleClientSite@@@ATL@@QBE_NPAUIOleClientSite@@@Z 100087d0 f i Belt.obj
 0001:00007810       ??8?$CComPtrBase@UIOleControlSite@@@ATL@@QBE_NPAUIOleControlSite@@@Z 10008810 f i Belt.obj
 0001:00007850       ??8?$CComPtrBase@UIOleInPlaceObject@@@ATL@@QBE_NPAUIOleInPlaceObject@@@Z 10008850 f i Belt.obj
 0001:00007890       ??8?$CComPtrBase@UIOleInPlaceSiteWindowless@@@ATL@@QBE_NPAUIOleInPlaceSiteWindowless@@@Z 10008890 f i Belt.obj
 0001:000078d0       ??8?$CComPtrBase@UIOleObject@@@ATL@@QBE_NPAUIOleObject@@@Z 100088d0 f i Belt.obj
 0001:00007910       ??8?$CComPtrBase@UIPersistStream@@@ATL@@QBE_NPAUIPersistStream@@@Z 10008910 f i Belt.obj
 0001:00007950       ??8?$CComPtrBase@UIPersistStreamInit@@@ATL@@QBE_NPAUIPersistStreamInit@@@Z 10008950 f i Belt.obj
 0001:00007990       ??8?$CComPtrBase@UIPointerInactive@@@ATL@@QBE_NPAUIPointerInactive@@@Z 10008990 f i Belt.obj
 0001:000079d0       ??8?$CComPtrBase@UIUnknown@@@ATL@@QBE_NPAUIUnknown@@@Z 100089d0 f i Belt.obj
 0001:00007a10       ??8?$CComPtrBase@UIViewObjectEx@@@ATL@@QBE_NPAUIViewObjectEx@@@Z 10008a10 f i Belt.obj
 0001:00007a50       ??8CComBSTR@ATL@@QBE_NH@Z  10008a50 f i Belt.obj
 0001:00007ab0       ??9?$CComPtrBase@UIConnectionPointContainer@@@ATL@@QBE_NPAUIConnectionPointContainer@@@Z 10008ab0 f i Belt.obj
 0001:00007b00       ??9?$CComPtrBase@UIDataAdviseHolder@@@ATL@@QBE_NPAUIDataAdviseHolder@@@Z 10008b00 f i Belt.obj
 0001:00007b50       ??9?$CComPtrBase@UIOleAdviseHolder@@@ATL@@QBE_NPAUIOleAdviseHolder@@@Z 10008b50 f i Belt.obj
 0001:00007ba0       ??9?$CComPtrBase@UIOleClientSite@@@ATL@@QBE_NPAUIOleClientSite@@@Z 10008ba0 f i Belt.obj
 0001:00007bf0       ??9?$CComPtrBase@UIOleControlSite@@@ATL@@QBE_NPAUIOleControlSite@@@Z 10008bf0 f i Belt.obj
 0001:00007c40       ??9?$CComPtrBase@UIOleInPlaceObject@@@ATL@@QBE_NPAUIOleInPlaceObject@@@Z 10008c40 f i Belt.obj
 0001:00007c90       ??9?$CComPtrBase@UIOleInPlaceSiteWindowless@@@ATL@@QBE_NPAUIOleInPlaceSiteWindowless@@@Z 10008c90 f i Belt.obj
 0001:00007ce0       ??9?$CComPtrBase@UIOleObject@@@ATL@@QBE_NPAUIOleObject@@@Z 10008ce0 f i Belt.obj
 0001:00007d30       ??9?$CComPtrBase@UIPersistStream@@@ATL@@QBE_NPAUIPersistStream@@@Z 10008d30 f i Belt.obj
 0001:00007d80       ??9?$CComPtrBase@UIPersistStreamInit@@@ATL@@QBE_NPAUIPersistStreamInit@@@Z 10008d80 f i Belt.obj
 0001:00007dd0       ??9?$CComPtrBase@UIPointerInactive@@@ATL@@QBE_NPAUIPointerInactive@@@Z 10008dd0 f i Belt.obj
 0001:00007e20       ??9?$CComPtrBase@UIUnknown@@@ATL@@QBE_NPAUIUnknown@@@Z 10008e20 f i Belt.obj
 0001:00007e70       ??9?$CComPtrBase@UIViewObjectEx@@@ATL@@QBE_NPAUIViewObjectEx@@@Z 10008e70 f i Belt.obj
 0001:00007ec0       ??9CComBSTR@ATL@@QBE_NH@Z  10008ec0 f i Belt.obj
 0001:00007f10       ??B?$CComPtrBase@UIAdviseSink@@@ATL@@QBEPAUIAdviseSink@@XZ 10008f10 f i Belt.obj
 0001:00007f30       ??B?$CComPtrBase@UIDataAdviseHolder@@@ATL@@QBEPAUIDataAdviseHolder@@XZ 10008f30 f i Belt.obj
 0001:00007f50       ??B?$CComPtrBase@UIDataObject@@@ATL@@QBEPAUIDataObject@@XZ 10008f50 f i Belt.obj
 0001:00007f70       ??B?$CComPtrBase@UIOleAdviseHolder@@@ATL@@QBEPAUIOleAdviseHolder@@XZ 10008f70 f i Belt.obj
 0001:00007f90       ??B?$CComPtrBase@UIOleClientSite@@@ATL@@QBEPAUIOleClientSite@@XZ 10008f90 f i Belt.obj
 0001:00007fb0       ??B?$CComPtrBase@UIOleControlSite@@@ATL@@QBEPAUIOleControlSite@@XZ 10008fb0 f i Belt.obj
 0001:00007fd0       ??B?$CComPtrBase@UIOleInPlaceActiveObject@@@ATL@@QBEPAUIOleInPlaceActiveObject@@XZ 10008fd0 f i Belt.obj
 0001:00007ff0       ??B?$CComPtrBase@UIOleInPlaceFrame@@@ATL@@QBEPAUIOleInPlaceFrame@@XZ 10008ff0 f i Belt.obj
 0001:00008010       ??B?$CComPtrBase@UIOleInPlaceSiteWindowless@@@ATL@@QBEPAUIOleInPlaceSiteWindowless@@XZ 10009010 f i Belt.obj
 0001:00008030       ??B?$CComPtrBase@UIOleInPlaceUIWindow@@@ATL@@QBEPAUIOleInPlaceUIWindow@@XZ 10009030 f i Belt.obj
 0001:00008050       ??B?$CComPtrBase@UIOleObject@@@ATL@@QBEPAUIOleObject@@XZ 10009050 f i Belt.obj
 0001:00008070       ??B?$CComPtrBase@UIPersistStream@@@ATL@@QBEPAUIPersistStream@@XZ 10009070 f i Belt.obj
 0001:00008090       ??B?$CComPtrBase@UIProvideClassInfo2@@@ATL@@QBEPAUIProvideClassInfo2@@XZ 10009090 f i Belt.obj
 0001:000080b0       ??B?$CComPtrBase@UISpecifyPropertyPages@@@ATL@@QBEPAUISpecifyPropertyPages@@XZ 100090b0 f i Belt.obj
 0001:000080d0       ??B?$CComPtrBase@UIStream@@@ATL@@QBEPAUIStream@@XZ 100090d0 f i Belt.obj
 0001:000080f0       ??B?$CComPtrBase@UITypeInfo2@@@ATL@@QBEPAUITypeInfo2@@XZ 100090f0 f i Belt.obj
 0001:00008110       ??B?$CComPtrBase@UITypeInfo@@@ATL@@QBEPAUITypeInfo@@XZ 10009110 f i Belt.obj
 0001:00008130       ??B?$CComPtrBase@UITypeLib@@@ATL@@QBEPAUITypeLib@@XZ 10009130 f i Belt.obj
 0001:00008150       ??B?$CComPtrBase@UIUnknown@@@ATL@@QBEPAUIUnknown@@XZ 10009150 f i Belt.obj
 0001:00008170       ??B?$CTempBuffer@E$0BAA@VCCRTAllocator@ATL@@@ATL@@QBEPAEXZ 10009170 f i Belt.obj
 0001:00008190       ??B?$CTempBuffer@_W$0BAA@VCCRTAllocator@ATL@@@ATL@@QBEPA_WXZ 10009190 f i Belt.obj
 0001:000081b0       ??B?$CTempBuffer@_W$0EAA@VCCRTAllocator@ATL@@@ATL@@QBEPA_WXZ 100091b0 f i Belt.obj
 0001:000081d0       ??B?$CTraceCategoryEx@$00$0A@@ATL@@QAEIXZ 100091d0 f i Belt.obj
 0001:000081f0       ??B?$CTraceCategoryEx@$07$0A@@ATL@@QAEIXZ 100091f0 f i Belt.obj
 0001:00008210       ??B?$CTraceCategoryEx@$0CAAA@$0A@@ATL@@QAEIXZ 10009210 f i Belt.obj
 0001:00008230       ??B?$CTraceCategoryEx@$0EA@$0A@@ATL@@QAEIXZ 10009230 f i Belt.obj
 0001:00008250       ??B?$CTraceCategoryEx@$0IAA@$0A@@ATL@@QAEIXZ 10009250 f i Belt.obj
 0001:00008270       ??BCComBSTR@ATL@@QBEPA_WXZ 10009270 f i Belt.obj
 0001:00008290       ??BCRegKey@ATL@@QBEPAUHKEY__@@XZ 10009290 f i Belt.obj
 0001:000082b0       ??C?$CComPtrBase@UIAdviseSink@@@ATL@@QBEPAV?$_NoAddRefReleaseOnCComPtr@UIAdviseSink@@@1@XZ 100092b0 f i Belt.obj
 0001:00008300       ??C?$CComPtrBase@UICatRegister@@@ATL@@QBEPAV?$_NoAddRefReleaseOnCComPtr@UICatRegister@@@1@XZ 10009300 f i Belt.obj
 0001:00008350       ??C?$CComPtrBase@UIConnectionPoint@@@ATL@@QBEPAV?$_NoAddRefReleaseOnCComPtr@UIConnectionPoint@@@1@XZ 10009350 f i Belt.obj
 0001:000083a0       ??C?$CComPtrBase@UIConnectionPointContainer@@@ATL@@QBEPAV?$_NoAddRefReleaseOnCComPtr@UIConnectionPointContainer@@@1@XZ 100093a0 f i Belt.obj
 0001:000083f0       ??C?$CComPtrBase@UIDataAdviseHolder@@@ATL@@QBEPAV?$_NoAddRefReleaseOnCComPtr@UIDataAdviseHolder@@@1@XZ 100093f0 f i Belt.obj
 0001:00008440       ??C?$CComPtrBase@UIOleAdviseHolder@@@ATL@@QBEPAV?$_NoAddRefReleaseOnCComPtr@UIOleAdviseHolder@@@1@XZ 10009440 f i Belt.obj
 0001:00008490       ??C?$CComPtrBase@UIOleClientSite@@@ATL@@QBEPAV?$_NoAddRefReleaseOnCComPtr@UIOleClientSite@@@1@XZ 10009490 f i Belt.obj
 0001:000084e0       ??C?$CComPtrBase@UIOleControlSite@@@ATL@@QBEPAV?$_NoAddRefReleaseOnCComPtr@UIOleControlSite@@@1@XZ 100094e0 f i Belt.obj
 0001:00008530       ??C?$CComPtrBase@UIOleInPlaceFrame@@@ATL@@QBEPAV?$_NoAddRefReleaseOnCComPtr@UIOleInPlaceFrame@@@1@XZ 10009530 f i Belt.obj
 0001:00008580       ??C?$CComPtrBase@UIOleInPlaceObject@@@ATL@@QBEPAV?$_NoAddRefReleaseOnCComPtr@UIOleInPlaceObject@@@1@XZ 10009580 f i Belt.obj
 0001:000085d0       ??C?$CComPtrBase@UIOleInPlaceSiteWindowless@@@ATL@@QBEPAV?$_NoAddRefReleaseOnCComPtr@UIOleInPlaceSiteWindowless@@@1@XZ 100095d0 f i Belt.obj
 0001:00008620       ??C?$CComPtrBase@UIOleInPlaceUIWindow@@@ATL@@QBEPAV?$_NoAddRefReleaseOnCComPtr@UIOleInPlaceUIWindow@@@1@XZ 10009620 f i Belt.obj
 0001:00008670       ??C?$CComPtrBase@UIOleObject@@@ATL@@QBEPAV?$_NoAddRefReleaseOnCComPtr@UIOleObject@@@1@XZ 10009670 f i Belt.obj
 0001:000086c0       ??C?$CComPtrBase@UIPersistStream@@@ATL@@QBEPAV?$_NoAddRefReleaseOnCComPtr@UIPersistStream@@@1@XZ 100096c0 f i Belt.obj
 0001:00008710       ??C?$CComPtrBase@UIPersistStreamInit@@@ATL@@QBEPAV?$_NoAddRefReleaseOnCComPtr@UIPersistStreamInit@@@1@XZ 10009710 f i Belt.obj
 0001:00008760       ??C?$CComPtrBase@UIPointerInactive@@@ATL@@QBEPAV?$_NoAddRefReleaseOnCComPtr@UIPointerInactive@@@1@XZ 10009760 f i Belt.obj
 0001:000087b0       ??C?$CComPtrBase@UIProvideClassInfo2@@@ATL@@QBEPAV?$_NoAddRefReleaseOnCComPtr@UIProvideClassInfo2@@@1@XZ 100097b0 f i Belt.obj
 0001:00008800       ??C?$CComPtrBase@UISpecifyPropertyPages@@@ATL@@QBEPAV?$_NoAddRefReleaseOnCComPtr@UISpecifyPropertyPages@@@1@XZ 10009800 f i Belt.obj
 0001:00008850       ??C?$CComPtrBase@UITypeInfo@@@ATL@@QBEPAV?$_NoAddRefReleaseOnCComPtr@UITypeInfo@@@1@XZ 10009850 f i Belt.obj
 0001:000088a0       ??C?$CComPtrBase@UITypeLib@@@ATL@@QBEPAV?$_NoAddRefReleaseOnCComPtr@UITypeLib@@@1@XZ 100098a0 f i Belt.obj
 0001:000088f0       ??C?$CComPtrBase@UIUnknown@@@ATL@@QBEPAV?$_NoAddRefReleaseOnCComPtr@UIUnknown@@@1@XZ 100098f0 f i Belt.obj
 0001:00008940       ??C?$CComPtrBase@UIViewObjectEx@@@ATL@@QBEPAV?$_NoAddRefReleaseOnCComPtr@UIViewObjectEx@@@1@XZ 10009940 f i Belt.obj
 0001:00008990       ??I?$CComPtrBase@UICatRegister@@@ATL@@QAEPAPAUICatRegister@@XZ 10009990 f i Belt.obj
 0001:000089e0       ??I?$CComPtrBase@UIConnectionPoint@@@ATL@@QAEPAPAUIConnectionPoint@@XZ 100099e0 f i Belt.obj
 0001:00008a30       ??I?$CComPtrBase@UIConnectionPointContainer@@@ATL@@QAEPAPAUIConnectionPointContainer@@XZ 10009a30 f i Belt.obj
 0001:00008a80       ??I?$CComPtrBase@UIDataAdviseHolder@@@ATL@@QAEPAPAUIDataAdviseHolder@@XZ 10009a80 f i Belt.obj
 0001:00008ad0       ??I?$CComPtrBase@UIDataObject@@@ATL@@QAEPAPAUIDataObject@@XZ 10009ad0 f i Belt.obj
 0001:00008b20       ??I?$CComPtrBase@UIDispatch@@@ATL@@QAEPAPAUIDispatch@@XZ 10009b20 f i Belt.obj
 0001:00008b70       ??I?$CComPtrBase@UIOleAdviseHolder@@@ATL@@QAEPAPAUIOleAdviseHolder@@XZ 10009b70 f i Belt.obj
 0001:00008bc0       ??I?$CComPtrBase@UIOleControlSite@@@ATL@@QAEPAPAUIOleControlSite@@XZ 10009bc0 f i Belt.obj
 0001:00008c10       ??I?$CComPtrBase@UIOleInPlaceActiveObject@@@ATL@@QAEPAPAUIOleInPlaceActiveObject@@XZ 10009c10 f i Belt.obj
 0001:00008c60       ??I?$CComPtrBase@UIOleInPlaceFrame@@@ATL@@QAEPAPAUIOleInPlaceFrame@@XZ 10009c60 f i Belt.obj
 0001:00008cb0       ??I?$CComPtrBase@UIOleInPlaceObject@@@ATL@@QAEPAPAUIOleInPlaceObject@@XZ 10009cb0 f i Belt.obj
 0001:00008d00       ??I?$CComPtrBase@UIOleInPlaceSiteWindowless@@@ATL@@QAEPAPAUIOleInPlaceSiteWindowless@@XZ 10009d00 f i Belt.obj
 0001:00008d50       ??I?$CComPtrBase@UIOleInPlaceUIWindow@@@ATL@@QAEPAPAUIOleInPlaceUIWindow@@XZ 10009d50 f i Belt.obj
 0001:00008da0       ??I?$CComPtrBase@UIOleObject@@@ATL@@QAEPAPAUIOleObject@@XZ 10009da0 f i Belt.obj
 0001:00008df0       ??I?$CComPtrBase@UIPersistStream@@@ATL@@QAEPAPAUIPersistStream@@XZ 10009df0 f i Belt.obj
 0001:00008e40       ??I?$CComPtrBase@UIPointerInactive@@@ATL@@QAEPAPAUIPointerInactive@@XZ 10009e40 f i Belt.obj
 0001:00008e90       ??I?$CComPtrBase@UIProvideClassInfo2@@@ATL@@QAEPAPAUIProvideClassInfo2@@XZ 10009e90 f i Belt.obj
 0001:00008ee0       ??I?$CComPtrBase@UIStream@@@ATL@@QAEPAPAUIStream@@XZ 10009ee0 f i Belt.obj
 0001:00008f30       ??I?$CComPtrBase@UITypeInfo2@@@ATL@@QAEPAPAUITypeInfo2@@XZ 10009f30 f i Belt.obj
 0001:00008f80       ??I?$CComPtrBase@UITypeInfo@@@ATL@@QAEPAPAUITypeInfo@@XZ 10009f80 f i Belt.obj
 0001:00008fd0       ??I?$CComPtrBase@UITypeLib@@@ATL@@QAEPAPAUITypeLib@@XZ 10009fd0 f i Belt.obj
 0001:00009020       ??I?$CComPtrBase@UIUnknown@@@ATL@@QAEPAPAUIUnknown@@XZ 1000a020 f i Belt.obj
 0001:00009070       ??I?$CComPtrBase@UIViewObjectEx@@@ATL@@QAEPAPAUIViewObjectEx@@XZ 1000a070 f i Belt.obj
 0001:000090c0       ??ICComBSTR@ATL@@QAEPAPA_WXZ 1000a0c0 f i Belt.obj
 0001:000090d5       ??_E?$CComContainedObject@VCOPOSBelt@@@ATL@@W3AEPAXI@Z 1000a0d5 f i Belt.obj
 0001:000090dd       ??_E?$CComContainedObject@VCOPOSBelt@@@ATL@@WEM@AEPAXI@Z 1000a0dd f i Belt.obj
 0001:000090e5       ??_E?$CComObject@VCOPOSBelt@@@ATL@@W3AEPAXI@Z 1000a0e5 f i Belt.obj
 0001:000090ed       ??_E?$CComObject@VCOPOSBelt@@@ATL@@WEM@AEPAXI@Z 1000a0ed f i Belt.obj
 0001:00009100       ??_G?$CComAggObject@VCOPOSBelt@@@ATL@@UAEPAXI@Z 1000a100 f i Belt.obj
 0001:00009100       ??_E?$CComAggObject@VCOPOSBelt@@@ATL@@UAEPAXI@Z 1000a100 f i Belt.obj
 0001:00009150       ??_G?$CComContainedObject@VCOPOSBelt@@@ATL@@UAEPAXI@Z 1000a150 f i Belt.obj
 0001:00009150       ??_E?$CComContainedObject@VCOPOSBelt@@@ATL@@UAEPAXI@Z 1000a150 f i Belt.obj
 0001:000091a0       ??_E?$CComObject@V?$CComEnum@UIEnumConnectionPoints@@$1?_GUID_b196b285_bab4_101a_b69c_00aa00341d07@@3U__s_GUID@@BPAUIConnectionPoint@@V?$_CopyInterface@UIConnectionPoint@@@ATL@@VCComSingleThreadModel@6@@ATL@@@ATL@@UAEPAXI@Z 1000a1a0 f i Belt.obj
 0001:000091a0       ??_G?$CComObject@V?$CComEnum@UIEnumConnectionPoints@@$1?_GUID_b196b285_bab4_101a_b69c_00aa00341d07@@3U__s_GUID@@BPAUIConnectionPoint@@V?$_CopyInterface@UIConnectionPoint@@@ATL@@VCComSingleThreadModel@6@@ATL@@@ATL@@UAEPAXI@Z 1000a1a0 f i Belt.obj
 0001:000091e0       ??_G?$CComObject@V?$CComEnum@UIEnumConnections@@$1?_GUID_b196b287_bab4_101a_b69c_00aa00341d07@@3U__s_GUID@@BUtagCONNECTDATA@@V?$_Copy@UtagCONNECTDATA@@@ATL@@VCComSingleThreadModel@6@@ATL@@@ATL@@UAEPAXI@Z 1000a1e0 f i Belt.obj
 0001:000091e0       ??_E?$CComObject@V?$CComEnum@UIEnumConnections@@$1?_GUID_b196b287_bab4_101a_b69c_00aa00341d07@@3U__s_GUID@@BUtagCONNECTDATA@@V?$_Copy@UtagCONNECTDATA@@@ATL@@VCComSingleThreadModel@6@@ATL@@@ATL@@UAEPAXI@Z 1000a1e0 f i Belt.obj
 0001:00009220       ??_G?$CComObject@VCOPOSBelt@@@ATL@@UAEPAXI@Z 1000a220 f i Belt.obj
 0001:00009220       ??_E?$CComObject@VCOPOSBelt@@@ATL@@UAEPAXI@Z 1000a220 f i Belt.obj
 0001:00009270       ??_G?$CComObjectCached@VCComClassFactory@ATL@@@ATL@@UAEPAXI@Z 1000a270 f i Belt.obj
 0001:00009270       ??_E?$CComObjectCached@VCComClassFactory@ATL@@@ATL@@UAEPAXI@Z 1000a270 f i Belt.obj
 0001:000092b0       ??_GCComClassFactory@ATL@@UAEPAXI@Z 1000a2b0 f i Belt.obj
 0001:000092b0       ??_ECComClassFactory@ATL@@UAEPAXI@Z 1000a2b0 f i Belt.obj
 0001:000092f0       ??_GCComModule@ATL@@UAEPAXI@Z 1000a2f0 f i Belt.obj
 0001:000092f0       ??_ECComModule@ATL@@UAEPAXI@Z 1000a2f0 f i Belt.obj
 0001:00009330       ??_GCRegObject@ATL@@UAEPAXI@Z 1000a330 f i Belt.obj
 0001:00009330       ??_ECRegObject@ATL@@UAEPAXI@Z 1000a330 f i Belt.obj
 0001:00009370       ?Add@?$CSimpleArray@GV?$CSimpleArrayEqualHelper@G@ATL@@@ATL@@QAEHABG@Z 1000a370 f i Belt.obj
 0001:000094c0       ?Add@?$CSimpleMap@PA_WPA_WVCExpansionVectorEqualHelper@ATL@@@ATL@@QAEHABQA_W0@Z 1000a4c0 f i Belt.obj
 0001:00009580       ?Add@CComDynamicUnkArray@ATL@@QAEKPAUIUnknown@@@Z 1000a580 f i Belt.obj
 0001:00009720       ?Add@CExpansionVector@ATL@@QAEHPB_W0@Z 1000a720 f i Belt.obj
 0001:000099b0       ?AddChar@CParseBuffer@CRegParser@ATL@@QAEHPB_W@Z 1000a9b0 f i Belt.obj
 0001:000099f0       ?AddCommonRGSReplacements@?$CAtlModuleT@VCComModule@ATL@@@ATL@@UAEJPAUIRegistrarBase@@@Z 1000a9f0 f i Belt.obj
 0001:00009a40       ?AddCreateWndData@CAtlWinModule@ATL@@QAEXPAU_AtlCreateWndData@2@PAX@Z 1000aa40 f i Belt.obj
 0001:00009a70       ?AddRef@?$CComAggObject@VCOPOSBelt@@@ATL@@UAGKXZ 1000aa70 f i Belt.obj
 0001:00009a90       ?AddRef@?$CComContainedObject@VCOPOSBelt@@@ATL@@UAGKXZ 1000aa90 f i Belt.obj
 0001:00009aac       ?AddRef@?$CComContainedObject@VCOPOSBelt@@@ATL@@WHA@AGKXZ 1000aaac f i Belt.obj
 0001:00009ab6       ?AddRef@?$CComContainedObject@VCOPOSBelt@@@ATL@@WHE@AGKXZ 1000aab6 f i Belt.obj
 0001:00009ac0       ?AddRef@?$CComContainedObject@VCOPOSBelt@@@ATL@@WHI@AGKXZ 1000aac0 f i Belt.obj
 0001:00009aca       ?AddRef@?$CComContainedObject@VCOPOSBelt@@@ATL@@WHM@AGKXZ 1000aaca f i Belt.obj
 0001:00009ad4       ?AddRef@?$CComContainedObject@VCOPOSBelt@@@ATL@@WIA@AGKXZ 1000aad4 f i Belt.obj
 0001:00009ae1       ?AddRef@?$CComContainedObject@VCOPOSBelt@@@ATL@@WIE@AGKXZ 1000aae1 f i Belt.obj
 0001:00009aee       ?AddRef@?$CComContainedObject@VCOPOSBelt@@@ATL@@WII@AGKXZ 1000aaee f i Belt.obj
 0001:00009afb       ?AddRef@?$CComContainedObject@VCOPOSBelt@@@ATL@@WIM@AGKXZ 1000aafb f i Belt.obj
 0001:00009b08       ?AddRef@?$CComContainedObject@VCOPOSBelt@@@ATL@@WJA@AGKXZ 1000ab08 f i Belt.obj
 0001:00009b15       ?AddRef@?$CComContainedObject@VCOPOSBelt@@@ATL@@WJE@AGKXZ 1000ab15 f i Belt.obj
 0001:00009b22       ?AddRef@?$CComContainedObject@VCOPOSBelt@@@ATL@@WJI@AGKXZ 1000ab22 f i Belt.obj
 0001:00009b2f       ?AddRef@?$CComContainedObject@VCOPOSBelt@@@ATL@@WJM@AGKXZ 1000ab2f f i Belt.obj
 0001:00009b3c       ?AddRef@?$CComContainedObject@VCOPOSBelt@@@ATL@@WKA@AGKXZ 1000ab3c f i Belt.obj
 0001:00009b49       ?AddRef@?$CComContainedObject@VCOPOSBelt@@@ATL@@WKI@AGKXZ 1000ab49 f i Belt.obj
 0001:00009b56       ?AddRef@?$CComContainedObject@VCOPOSBelt@@@ATL@@WLE@AGKXZ 1000ab56 f i Belt.obj
 0001:00009b70       ?AddRef@?$CComObject@V?$CComEnum@UIEnumConnectionPoints@@$1?_GUID_b196b285_bab4_101a_b69c_00aa00341d07@@3U__s_GUID@@BPAUIConnectionPoint@@V?$_CopyInterface@UIConnectionPoint@@@ATL@@VCComSingleThreadModel@6@@ATL@@@ATL@@UAGKXZ 1000ab70 f i Belt.obj
 0001:00009b90       ?AddRef@?$CComObject@V?$CComEnum@UIEnumConnections@@$1?_GUID_b196b287_bab4_101a_b69c_00aa00341d07@@3U__s_GUID@@BUtagCONNECTDATA@@V?$_Copy@UtagCONNECTDATA@@@ATL@@VCComSingleThreadModel@6@@ATL@@@ATL@@UAGKXZ 1000ab90 f i Belt.obj
 0001:00009bb0       ?AddRef@?$CComObject@VCOPOSBelt@@@ATL@@UAGKXZ 1000abb0 f i Belt.obj
 0001:00009bcc       ?AddRef@?$CComObject@VCOPOSBelt@@@ATL@@WHA@AGKXZ 1000abcc f i Belt.obj
 0001:00009bd6       ?AddRef@?$CComObject@VCOPOSBelt@@@ATL@@WHE@AGKXZ 1000abd6 f i Belt.obj
 0001:00009be0       ?AddRef@?$CComObject@VCOPOSBelt@@@ATL@@WHI@AGKXZ 1000abe0 f i Belt.obj
 0001:00009bea       ?AddRef@?$CComObject@VCOPOSBelt@@@ATL@@WHM@AGKXZ 1000abea f i Belt.obj
 0001:00009bf4       ?AddRef@?$CComObject@VCOPOSBelt@@@ATL@@WIA@AGKXZ 1000abf4 f i Belt.obj
 0001:00009c01       ?AddRef@?$CComObject@VCOPOSBelt@@@ATL@@WIE@AGKXZ 1000ac01 f i Belt.obj
 0001:00009c0e       ?AddRef@?$CComObject@VCOPOSBelt@@@ATL@@WII@AGKXZ 1000ac0e f i Belt.obj
 0001:00009c1b       ?AddRef@?$CComObject@VCOPOSBelt@@@ATL@@WIM@AGKXZ 1000ac1b f i Belt.obj
 0001:00009c28       ?AddRef@?$CComObject@VCOPOSBelt@@@ATL@@WJA@AGKXZ 1000ac28 f i Belt.obj
 0001:00009c35       ?AddRef@?$CComObject@VCOPOSBelt@@@ATL@@WJE@AGKXZ 1000ac35 f i Belt.obj
 0001:00009c42       ?AddRef@?$CComObject@VCOPOSBelt@@@ATL@@WJI@AGKXZ 1000ac42 f i Belt.obj
 0001:00009c4f       ?AddRef@?$CComObject@VCOPOSBelt@@@ATL@@WJM@AGKXZ 1000ac4f f i Belt.obj
 0001:00009c5c       ?AddRef@?$CComObject@VCOPOSBelt@@@ATL@@WKA@AGKXZ 1000ac5c f i Belt.obj
 0001:00009c69       ?AddRef@?$CComObject@VCOPOSBelt@@@ATL@@WKI@AGKXZ 1000ac69 f i Belt.obj
 0001:00009c76       ?AddRef@?$CComObject@VCOPOSBelt@@@ATL@@WLE@AGKXZ 1000ac76 f i Belt.obj
 0001:00009c90       ?AddRef@?$CComObjectCached@VCComClassFactory@ATL@@@ATL@@UAGKXZ 1000ac90 f i Belt.obj
 0001:00009ce0       ?AddRef@CRegObject@ATL@@UAGKXZ 1000ace0 f i Belt.obj
 0001:00009d30       ?AddReplacement@CRegObject@ATL@@UAGJPB_W0@Z 1000ad30 f i Belt.obj
 0001:00009e40       ?AddString@CParseBuffer@CRegParser@ATL@@QAEHPB_W@Z 1000ae40 f i Belt.obj
 0001:00009f30       ?AddTermFunc@CAtlModule@ATL@@QAEJP6GXK@ZK@Z 1000af30 f i Belt.obj
 0001:00009f80       ?AddValue@CRegParser@ATL@@IAEJAAVCRegKey@2@PB_WPA_W@Z 1000af80 f i Belt.obj
 0001:0000a710       ?Advise@?$CProxy_IOPOSEvents@VCOPOSBelt@@@@UAGJPAUIUnknown@@PAK@Z 1000b710 f i Belt.obj
 0001:0000a760       ?Advise@?$IConnectionPointImpl@VCOPOSBelt@@$1?DIID__IOPOSBeltEvents@@3U_GUID@@BVCComDynamicUnkArray@ATL@@@ATL@@UAGJPAUIUnknown@@PAK@Z 1000b760 f i Belt.obj
 0001:0000a900       ?Advise@?$IConnectionPointImpl@VCOPOSBelt@@$1?IID_IPropertyNotifySink@@3U_GUID@@BVCComDynamicUnkArray@ATL@@@ATL@@UAGJPAUIUnknown@@PAK@Z 1000b900 f i Belt.obj
 0001:0000aaa0       ?Advise@?$IOleObjectImpl@VCOPOSBelt@@@ATL@@UAGJPAUIAdviseSink@@PAK@Z 1000baa0 f i Belt.obj
 0001:0000ab30       ?Allocate@?$CAtlSafeAllocBufferManager@VCCRTAllocator@ATL@@@_ATL_SAFE_ALLOCA_IMPL@ATL@@QAEPAXK@Z 1000bb30 f i Belt.obj
 0001:0000aba0       ?Allocate@?$CTempBuffer@E$0BAA@VCCRTAllocator@ATL@@@ATL@@QAEPAEI@Z 1000bba0 f i Belt.obj
 0001:0000abe0       ?Allocate@?$CTempBuffer@_W$0BAA@VCCRTAllocator@ATL@@@ATL@@QAEPA_WI@Z 1000bbe0 f i Belt.obj
 0001:0000ac20       ?Allocate@?$CTempBuffer@_W$0EAA@VCCRTAllocator@ATL@@@ATL@@QAEPA_WI@Z 1000bc20 f i Belt.obj
 0001:0000ac60       ?AllocateBytes@?$CTempBuffer@E$0BAA@VCCRTAllocator@ATL@@@ATL@@QAEPAEI@Z 1000bc60 f i Belt.obj
 0001:0000ace0       ?AllocateBytes@?$CTempBuffer@_W$0BAA@VCCRTAllocator@ATL@@@ATL@@QAEPA_WI@Z 1000bce0 f i Belt.obj
 0001:0000ad60       ?AllocateBytes@?$CTempBuffer@_W$0EAA@VCCRTAllocator@ATL@@@ATL@@QAEPA_WI@Z 1000bd60 f i Belt.obj
 0001:0000ade0       ?AllocateHeap@?$CTempBuffer@E$0BAA@VCCRTAllocator@ATL@@@ATL@@AAEXI@Z 1000bde0 f i Belt.obj
 0001:0000ae30       ?AllocateHeap@?$CTempBuffer@_W$0BAA@VCCRTAllocator@ATL@@@ATL@@AAEXI@Z 1000be30 f i Belt.obj
 0001:0000ae80       ?AllocateHeap@?$CTempBuffer@_W$0EAA@VCCRTAllocator@ATL@@@ATL@@AAEXI@Z 1000be80 f i Belt.obj
 0001:0000aed0       ?Append@CParseBuffer@CRegParser@ATL@@QAEHPB_WH@Z 1000bed0 f i Belt.obj
 0001:0000b070       ?AtlCallTermFunc@ATL@@YGXPAU_ATL_MODULE70@1@@Z 1000c070 f i Belt.obj
 0001:0000b110       ?AtlCoTaskMemCAlloc@ATL@@YAPAXKK@Z 1000c110 f i Belt.obj
 0001:0000b1a0       ?AtlCoTaskMemRecalloc@ATL@@YAPAXPAXKK@Z 1000c1a0 f i Belt.obj
 0001:0000b240       ?AtlComModuleGetClassObject@ATL@@YGJPAU_ATL_COM_MODULE70@1@ABU_GUID@@1PAPAX@Z 1000c240 f i Belt.obj
 0001:0000b4d0       ?AtlComModuleRegisterServer@ATL@@YGJPAU_ATL_COM_MODULE70@1@HPBU_GUID@@@Z 1000c4d0 f i Belt.obj
 0001:0000b660       ?AtlComModuleUnregisterServer@ATL@@YGJPAU_ATL_COM_MODULE70@1@HPBU_GUID@@@Z 1000c660 f i Belt.obj
 0001:0000b790       ?AtlComQIPtrAssign2@ATL@@YAXPAPAUIUnknown@@PAU2@ABU_GUID@@@Z 1000c790 f i Belt.obj
 0001:0000b810       ?AtlCreateTargetDC@ATL@@YGPAUHDC__@@PAU2@PAUtagDVTARGETDEVICE@@@Z 1000c810 f i Belt.obj
 0001:0000b9b0       ?AtlCrtErrorCheck@ATL@@YAHH@Z 1000c9b0 f i Belt.obj
 0001:0000ba80       ?AtlGetPerUserRegistration@ATL@@YGJPA_N@Z 1000ca80 f i Belt.obj
 0001:0000bab0       ?AtlHiMetricToPixel@ATL@@YGXPBUtagSIZE@@PAU2@@Z 1000cab0 f i Belt.obj
 0001:0000bc80       ?AtlHresultFromLastError@ATL@@YAJXZ 1000cc80 f i Belt.obj
 0001:0000bcc0       ?AtlHresultFromWin32@ATL@@YAJK@Z 1000ccc0 f i Belt.obj
 0001:0000bce0       ?AtlIPersistStreamInit_Load@ATL@@YGJPAUIStream@@PBUATL_PROPMAP_ENTRY@1@PAXPAUIUnknown@@@Z 1000cce0 f i Belt.obj
 0001:0000c140       ?AtlIPersistStreamInit_Save@ATL@@YGJPAUIStream@@HPBUATL_PROPMAP_ENTRY@1@PAXPAUIUnknown@@@Z 1000d140 f i Belt.obj
 0001:0000c520       ?AtlInternalOleLoadFromStream@ATL@@YAJPAUIStream@@ABU_GUID@@PAPAXTClassesAllowedInStream@1@K@Z 1000d520 f i Belt.obj
 0001:0000c7c0       ?AtlInternalQueryInterface@ATL@@YGJPAXPBU_ATL_INTMAP_ENTRY@1@ABU_GUID@@PAPAX@Z 1000d7c0 f i Belt.obj
 0001:0000c9f0       ?AtlLoadTypeLib@ATL@@YGJPAUHINSTANCE__@@PB_WPAPA_WPAPAUITypeLib@@@Z 1000d9f0 f i Belt.obj
 0001:0000ce50       ?AtlModuleAddTermFunc@ATL@@YGJPAU_ATL_MODULE70@1@P6GXK@ZK@Z 1000de50 f i Belt.obj
 0001:0000cfb0       ?AtlRegisterClassCategoriesHelper@ATL@@YGJABU_GUID@@PBU_ATL_CATMAP_ENTRY@1@H@Z 1000dfb0 f i Belt.obj
 0001:0000d690       ?AtlRegisterTypeLib@ATL@@YGJPAUHINSTANCE__@@PB_W@Z 1000e690 f i Belt.obj
 0001:0000d9d0       ?AtlThrowImpl@ATL@@YGXJ@Z  1000e9d0 f i Belt.obj
 0001:0000da80       ?AtlUnRegisterTypeLib@ATL@@YGJPAUHINSTANCE__@@PB_W@Z 1000ea80 f i Belt.obj
 0001:0000dc90       ?AtlWinModuleAddCreateWndData@ATL@@YGXPAU_ATL_WIN_MODULE70@1@PAU_AtlCreateWndData@1@PAX@Z 1000ec90 f i Belt.obj
 0001:0000de00       ?AtlWinModuleExtractCreateWndData@ATL@@YGPAXPAU_ATL_WIN_MODULE70@1@@Z 1000ee00 f i Belt.obj
 0001:0000df80       ?AtlWinModuleRegisterClassExW@ATL@@YGGPAU_ATL_WIN_MODULE70@1@PBUtagWNDCLASSEXW@@@Z 1000ef80 f i Belt.obj
 0001:0000e050       ?AtlWinModuleRegisterWndClassInfoW@ATL@@YGGPAU_ATL_WIN_MODULE70@1@PAU_ATL_BASE_MODULE70@1@PAU_ATL_WNDCLASSINFOW@1@PAP6GJPAUHWND__@@IIJ@Z@Z 1000f050 f i Belt.obj
 0001:0000e0e0       ?Attach@?$CAutoVectorPtr@_W@ATL@@QAEXPA_W@Z 1000f0e0 f i Belt.obj
 0001:0000e140       ?Attach@CComBSTR@ATL@@QAEXPA_W@Z 1000f140 f i Belt.obj
 0001:0000e190       ?Attach@CRegKey@ATL@@QAEXPAUHKEY__@@@Z 1000f190 f i Belt.obj
 0001:0000e200       ?CanForceRemoveKey@CRegParser@ATL@@IAEHPB_W@Z 1000f200 f i Belt.obj
 0001:0000e270       ?ChToByte@CRegParser@ATL@@KAE_W@Z 1000f270 f i Belt.obj
 0001:0000e390       ?ChangeType@CComVariant@ATL@@QAEJGPBUtagVARIANT@@@Z 1000f390 f i Belt.obj
 0001:0000e3f0       ?Cleanup@CComTypeInfoHolder@ATL@@SGXK@Z 1000f3f0 f i Belt.obj
 0001:0000e4c0       ?Clear@CComVariant@ATL@@QAEJXZ 1000f4c0 f i Belt.obj
 0001:0000e500       ?ClearReplacements@CExpansionVector@ATL@@QAEJXZ 1000f500 f i Belt.obj
 0001:0000e590       ?ClearReplacements@CRegObject@ATL@@UAGJXZ 1000f590 f i Belt.obj
 0001:0000e5e0       ?Clone@?$CComEnumImpl@UIEnumConnectionPoints@@$1?_GUID_b196b285_bab4_101a_b69c_00aa00341d07@@3U__s_GUID@@BPAUIConnectionPoint@@V?$_CopyInterface@UIConnectionPoint@@@ATL@@@ATL@@UAGJPAPAUIEnumConnectionPoints@@@Z 1000f5e0 f i Belt.obj
 0001:0000e750       ?Clone@?$CComEnumImpl@UIEnumConnections@@$1?_GUID_b196b287_bab4_101a_b69c_00aa00341d07@@3U__s_GUID@@BUtagCONNECTDATA@@V?$_Copy@UtagCONNECTDATA@@@ATL@@@ATL@@UAGJPAPAUIEnumConnections@@@Z 1000f750 f i Belt.obj
 0001:0000e8c0       ?Close@?$IOleObjectImpl@VCOPOSBelt@@@ATL@@UAGJK@Z 1000f8c0 f i Belt.obj
 0001:0000e950       ?Close@CRegKey@ATL@@QAEJXZ 1000f950 f i Belt.obj
 0001:0000e9c0       ?ContextSensitiveHelp@?$IOleInPlaceActiveObjectImpl@VCOPOSBelt@@@ATL@@UAGJH@Z 1000f9c0 f i Belt.obj
 0001:0000ea30       ?ContextSensitiveHelp@?$IOleInPlaceObjectWindowlessImpl@VCOPOSBelt@@@ATL@@UAGJH@Z 1000fa30 f i Belt.obj
 0001:0000eaa0       ?ControlQueryInterface@?$CComControl@VCOPOSBelt@@V?$CWindowImpl@VCOPOSBelt@@VCWindow@ATL@@V?$CWinTraits@$0FGAAAAAA@$0A@@3@@ATL@@@ATL@@UAEJABU_GUID@@PAPAX@Z 1000faa0 f i Belt.obj
 0001:0000eb20       ?CreateControlWindow@?$CComControl@VCOPOSBelt@@V?$CWindowImpl@VCOPOSBelt@@VCWindow@ATL@@V?$CWinTraits@$0FGAAAAAA@$0A@@3@@ATL@@@ATL@@UAEPAUHWND__@@PAU3@AAUtagRECT@@@Z 1000fb20 f i Belt.obj
 0001:0000eba0       ?CreateInstance@?$CComCreator@V?$CComAggObject@VCOPOSBelt@@@ATL@@@ATL@@SGJPAXABU_GUID@@PAPAX@Z 1000fba0 f i Belt.obj
 0001:0000ed20       ?CreateInstance@?$CComCreator@V?$CComObject@VCOPOSBelt@@@ATL@@@ATL@@SGJPAXABU_GUID@@PAPAX@Z 1000fd20 f i Belt.obj
 0001:0000eeb0       ?CreateInstance@?$CComObject@V?$CComEnum@UIEnumConnectionPoints@@$1?_GUID_b196b285_bab4_101a_b69c_00aa00341d07@@3U__s_GUID@@BPAUIConnectionPoint@@V?$_CopyInterface@UIConnectionPoint@@@ATL@@VCComSingleThreadModel@6@@ATL@@@ATL@@SGJPAPAV12@@Z 1000feb0 f i Belt.obj
 0001:0000f020       ?CreateInstance@?$CComObject@V?$CComEnum@UIEnumConnections@@$1?_GUID_b196b287_bab4_101a_b69c_00aa00341d07@@3U__s_GUID@@BUtagCONNECTDATA@@V?$_Copy@UtagCONNECTDATA@@@ATL@@VCComSingleThreadModel@6@@ATL@@@ATL@@SGJPAPAV12@@Z 10010020 f i Belt.obj
 0001:0000f190       ?CreateInstance@CComClassFactory@ATL@@UAGJPAUIUnknown@@ABU_GUID@@PAPAX@Z 10010190 f i Belt.obj
 0001:0000f280       ?DAdvise@?$IDataObjectImpl@VCOPOSBelt@@@ATL@@UAGJPAUtagFORMATETC@@KPAUIAdviseSink@@PAK@Z 10010280 f i Belt.obj
 0001:0000f380       ?DEVMODEOLE2T_EX@@YAPAU_devicemodeW@@PAU1@@Z 10010380 f i Belt.obj
 0001:0000f390       ?DUnadvise@?$IDataObjectImpl@VCOPOSBelt@@@ATL@@UAGJK@Z 10010390 f i Belt.obj
 0001:0000f460       ?Decrement@CComMultiThreadModel@ATL@@SGKPAJ@Z 10010460 f i Belt.obj
 0001:0000f480       ?Decrement@CComSingleThreadModel@ATL@@SGKPAJ@Z 10010480 f i Belt.obj
 0001:0000f4a0       ?DefWindowProcW@?$CWindowImplBaseT@VCWindow@ATL@@V?$CWinTraits@$0FGAAAAAA@$0A@@2@@ATL@@QAEJIIJ@Z 100104a0 f i Belt.obj
 0001:0000f4f0       ?DefaultReflectionHandler@?$CWindowImplRoot@VCWindow@ATL@@@ATL@@SAHPAUHWND__@@IIJAAJ@Z 100104f0 f i Belt.obj
 0001:0000f6e0       ?DeleteSubKey@CRegKey@ATL@@QAEJPB_W@Z 100106e0 f i Belt.obj
 0001:0000f7f0       ?DeleteValue@CRegKey@ATL@@QAEJPB_W@Z 100107f0 f i Belt.obj
 0001:0000f860       ?Detach@?$CAutoVectorPtr@_W@ATL@@QAEPA_WXZ 10010860 f i Belt.obj
 0001:0000f890       ?Detach@?$CComPtrBase@UIPersistStream@@@ATL@@QAEPAUIPersistStream@@XZ 10010890 f i Belt.obj
 0001:0000f8c0       ?Detach@?$CComPtrBase@UITypeInfo@@@ATL@@QAEPAUITypeInfo@@XZ 100108c0 f i Belt.obj
 0001:0000f8f0       ?Detach@?$CComPtrBase@UIUnknown@@@ATL@@QAEPAUIUnknown@@XZ 100108f0 f i Belt.obj
 0001:0000f920       ?Detach@CComBSTR@ATL@@QAEPA_WXZ 10010920 f i Belt.obj
 0001:0000f950       ?Detach@CParseBuffer@CRegParser@ATL@@QAEPA_WXZ 10010950 f i Belt.obj
 0001:0000f9a0       ?Detach@CRegKey@ATL@@QAEPAUHKEY__@@XZ 100109a0 f i Belt.obj
 0001:0000f9f0       ?DoEvent@COPOSBelt@@IAEXIIJ@Z 100109f0 f i Belt.obj
 0001:0000fb30       ?DoVerb@?$IOleObjectImpl@VCOPOSBelt@@@ATL@@UAGJJPAUtagMSG@@PAUIOleClientSite@@JPAUHWND__@@PBUtagRECT@@@Z 10010b30 f i Belt.obj
 0001:0000fd40       ?DoVerbDiscardUndo@?$IOleObjectImpl@VCOPOSBelt@@@ATL@@QAEJPBUtagRECT@@PAUHWND__@@@Z 10010d40 f i Belt.obj
 0001:0000fdb0       ?DoVerbHide@?$IOleObjectImpl@VCOPOSBelt@@@ATL@@QAEJPBUtagRECT@@PAUHWND__@@@Z 10010db0 f i Belt.obj
 0001:0000fe60       ?DoVerbInPlaceActivate@?$IOleObjectImpl@VCOPOSBelt@@@ATL@@QAEJPBUtagRECT@@PAUHWND__@@@Z 10010e60 f i Belt.obj
 0001:0000ff00       ?DoVerbOpen@?$IOleObjectImpl@VCOPOSBelt@@@ATL@@QAEJPBUtagRECT@@PAUHWND__@@@Z 10010f00 f i Belt.obj
 0001:0000ff70       ?DoVerbPrimary@?$IOleObjectImpl@VCOPOSBelt@@@ATL@@QAEJPBUtagRECT@@PAUHWND__@@@Z 10010f70 f i Belt.obj
 0001:00010080       ?DoVerbProperties@CComControlBase@ATL@@QAEJPBUtagRECT@@PAUHWND__@@@Z 10011080 f i Belt.obj
 0001:000103a0       ?DoVerbShow@?$IOleObjectImpl@VCOPOSBelt@@@ATL@@QAEJPBUtagRECT@@PAUHWND__@@@Z 100113a0 f i Belt.obj
 0001:00010430       ?DoVerbUIActivate@?$IOleObjectImpl@VCOPOSBelt@@@ATL@@QAEJPBUtagRECT@@PAUHWND__@@@Z 10011430 f i Belt.obj
 0001:000104d0       ?DoesVerbActivate@CComControlBase@ATL@@QAEHJ@Z 100114d0 f i Belt.obj
 0001:00010540       ?DoesVerbUIActivate@CComControlBase@ATL@@QAEHJ@Z 10011540 f i Belt.obj
 0001:000105c0       ?Draw@?$IViewObjectExImpl@VCOPOSBelt@@@ATL@@UAGJKJPAXPAUtagDVTARGETDEVICE@@PAUHDC__@@2PBU_RECTL@@3P6GHK@ZK@Z 100115c0 f i Belt.obj
 0001:00010660       ?Empty@CComBSTR@ATL@@QAEXXZ 10011660 f i Belt.obj
 0001:000106a0       ?EnableModeless@?$IOleInPlaceActiveObjectImpl@VCOPOSBelt@@@ATL@@UAGJH@Z 100116a0 f i Belt.obj
 0001:00010700       ?EndOfVar@CRegParser@ATL@@IAEHXZ 10011700 f i Belt.obj
 0001:00010770       ?EnsureTI@CComTypeInfoHolder@ATL@@QAEJK@Z 10011770 f i Belt.obj
 0001:000107d0       ?EnumAdvise@?$IOleObjectImpl@VCOPOSBelt@@@ATL@@UAGJPAPAUIEnumSTATDATA@@@Z 100117d0 f i Belt.obj
 0001:000108e0       ?EnumConnectionPoints@?$IConnectionPointContainerImpl@VCOPOSBelt@@@ATL@@UAGJPAPAUIEnumConnectionPoints@@@Z 100118e0 f i Belt.obj
 0001:00010d10       ?EnumConnections@?$IConnectionPointImpl@VCOPOSBelt@@$1?DIID__IOPOSBeltEvents@@3U_GUID@@BVCComDynamicUnkArray@ATL@@@ATL@@UAGJPAPAUIEnumConnections@@@Z 10011d10 f i Belt.obj
 0001:00010f60       ?EnumConnections@?$IConnectionPointImpl@VCOPOSBelt@@$1?IID_IPropertyNotifySink@@3U_GUID@@BVCComDynamicUnkArray@ATL@@@ATL@@UAGJPAPAUIEnumConnections@@@Z 10011f60 f i Belt.obj
 0001:000111b0       ?EnumDAdvise@?$IDataObjectImpl@VCOPOSBelt@@@ATL@@UAGJPAPAUIEnumSTATDATA@@@Z 100121b0 f i Belt.obj
 0001:000112b0       ?EnumFormatEtc@?$IDataObjectImpl@VCOPOSBelt@@@ATL@@UAGJKPAPAUIEnumFORMATETC@@@Z 100122b0 f i Belt.obj
 0001:00011320       ?EnumVerbs@?$IOleObjectImpl@VCOPOSBelt@@@ATL@@UAGJPAPAUIEnumOLEVERB@@@Z 10012320 f i Belt.obj
 0001:000113d0       ?EscapeSingleQuote@CAtlModule@ATL@@SAXPA_WIPB_W@Z 100123d0 f i Belt.obj
 0001:00011480       ?ExtractCreateWndData@CAtlWinModule@ATL@@QAEPAXXZ 10012480 f i Belt.obj
 0001:000114b0       ?FAccessAllowed@?$IObjectSafetyImpl@VCOPOSBelt@@$02@ATL@@MAEHXZ 100124b0 f i Belt.obj
 0001:000114d0       ?FinalConstruct@?$CComAggObject@VCOPOSBelt@@@ATL@@QAEJXZ 100124d0 f i Belt.obj
 0001:00011510       ?FinalConstruct@CComObjectRootBase@ATL@@QAEJXZ 10012510 f i Belt.obj
 0001:00011530       ?FinalConstruct@CRegObject@ATL@@QAEJXZ 10012530 f i Belt.obj
 0001:00011560       ?FinalRelease@?$CComAggObject@VCOPOSBelt@@@ATL@@QAEXXZ 10012560 f i Belt.obj
 0001:000115a0       ?FinalRelease@CComObjectRootBase@ATL@@QAEXXZ 100125a0 f i Belt.obj
 0001:000115c0       ?FindConnectionPoint@?$IConnectionPointContainerImpl@VCOPOSBelt@@@ATL@@UAGJABU_GUID@@PAPAUIConnectionPoint@@@Z 100125c0 f i Belt.obj
 0001:00011710       ?FindKey@?$CSimpleMap@PA_WPA_WVCExpansionVectorEqualHelper@ATL@@@ATL@@QBEHABQA_W@Z 10012710 f i Belt.obj
 0001:00011780       ?FireTheEvent@?$CProxy_IOPOSEvents@VCOPOSBelt@@@@IAEXPAUIUnknown@@PAVOposVariant@@IAAJPB_WJ@Z 10012780 f i Belt.obj
 0001:000118f0       ?FireViewChange@CComControlBase@ATL@@QAEJXZ 100128f0 f i Belt.obj
 0001:000119b0       ?Fire_DirectIOEvent@?$CProxy_IOPOSEvents@VCOPOSBelt@@@@QAEXJPAJPAPA_W@Z 100129b0 f i Belt.obj
 0001:00011b80       ?Fire_StatusUpdateEvent@?$CProxy_IOPOSEvents@VCOPOSBelt@@@@QAEXJ@Z 10012b80 f i Belt.obj
 0001:00011ce0       ?FormatWindowClassName@AtlModuleRegisterWndClassInfoParamW@ATL@@SAXPA_WKPAX@Z 10012ce0 f i Belt.obj
 0001:00011d10       ?Free@?$CAutoVectorPtr@_W@ATL@@QAEXXZ 10012d10 f i Belt.obj
 0001:00011d60       ?FreeHeap@?$CTempBuffer@E$0BAA@VCCRTAllocator@ATL@@@ATL@@AAEXXZ 10012d60 f i Belt.obj
 0001:00011d90       ?FreeHeap@?$CTempBuffer@_W$0BAA@VCCRTAllocator@ATL@@@ATL@@AAEXXZ 10012d90 f i Belt.obj
 0001:00011dc0       ?FreeHeap@?$CTempBuffer@_W$0EAA@VCCRTAllocator@ATL@@@ATL@@AAEXXZ 10012dc0 f i Belt.obj
 0001:00011df0       ?Freeze@?$IViewObjectExImpl@VCOPOSBelt@@@ATL@@UAGJKJPAXPAK@Z 10012df0 f i Belt.obj
 0001:00011e60       ?GenerateError@CRegParser@ATL@@IAEJI@Z 10012e60 f i Belt.obj
 0001:00011e80       ?GetAdvise@?$IViewObjectExImpl@VCOPOSBelt@@@ATL@@UAGJPAK0PAPAUIAdviseSink@@@Z 10012e80 f i Belt.obj
 0001:00011f80       ?GetAmbientLocaleID@CComControlBase@ATL@@QAEJAAK@Z 10012f80 f i Belt.obj
 0001:00012060       ?GetAmbientProperty@CComControlBase@ATL@@QAEJJAAUtagVARIANT@@@Z 10013060 f i Belt.obj
 0001:000120b0       ?GetAmbientUserMode@CComControlBase@ATL@@QAEJAAH@Z 100130b0 f i Belt.obj
 0001:000121b0       ?GetAppId@?$CAtlModuleT@VCComModule@ATL@@@ATL@@SAPB_WXZ 100131b0 f i Belt.obj
 0001:000121c0       ?GetAt@CComDynamicUnkArray@ATL@@QAEPAUIUnknown@@H@Z 100131c0 f i Belt.obj
 0001:00012240       ?GetCanonicalFormatEtc@?$IDataObjectImpl@VCOPOSBelt@@@ATL@@UAGJPAUtagFORMATETC@@0@Z 10013240 f i Belt.obj
 0001:000122b0       ?GetClassID@?$IPersistStorageImpl@VCOPOSBelt@@@ATL@@UAGJPAU_GUID@@@Z 100132b0 f i Belt.obj
 0001:00012330       ?GetClassID@?$IPersistStreamInitImpl@VCOPOSBelt@@@ATL@@UAGJPAU_GUID@@@Z 10013330 f i Belt.obj
 0001:000123b0       ?GetClassInfoExW@AtlModuleRegisterWndClassInfoParamW@ATL@@SAHPAUHINSTANCE__@@PB_WPAUtagWNDCLASSEXW@@@Z 100133b0 f i Belt.obj
 0001:000123e0       ?GetClassInfoW@?$IProvideClassInfo2Impl@$1?CLSID_OPOSBelt@@3U_GUID@@B$1?DIID__IOPOSBeltEvents@@3U2@B$1?LIBID_OposBelt_CCO@@3U2@B$00$0A@VCComTypeInfoHolder@ATL@@@ATL@@UAGJPAPAUITypeInfo@@@Z 100133e0 f i Belt.obj
 0001:00012400       ?GetClassObject@CComModule@ATL@@QAEJABU_GUID@@0PAPAX@Z 10013400 f i Belt.obj
 0001:00012600       ?GetClientSite@?$IOleObjectImpl@VCOPOSBelt@@@ATL@@UAGJPAPAUIOleClientSite@@@Z 10013600 f i Belt.obj
 0001:00012690       ?GetClipboardData@?$IOleObjectImpl@VCOPOSBelt@@@ATL@@UAGJKPAPAUIDataObject@@@Z 10013690 f i Belt.obj
 0001:00012700       ?GetCodeAddress@CDynamicStdCallThunk2@ATL@@QAEPAXXZ 10013700 f i Belt.obj
 0001:00012730       ?GetColorSet@?$IViewObjectExImpl@VCOPOSBelt@@@ATL@@UAGJKJPAXPAUtagDVTARGETDEVICE@@PAUHDC__@@PAPAUtagLOGPALETTE@@@Z 10013730 f i Belt.obj
 0001:000127a0       ?GetConnMap@COPOSBelt@@SAPBU_ATL_CONNMAP_ENTRY@ATL@@PAH@Z 100137a0 f i Belt.obj
 0001:000128e0       ?GetConnectionInterface@?$IConnectionPointImpl@VCOPOSBelt@@$1?DIID__IOPOSBeltEvents@@3U_GUID@@BVCComDynamicUnkArray@ATL@@@ATL@@UAGJPAU_GUID@@@Z 100138e0 f i Belt.obj
 0001:00012920       ?GetConnectionInterface@?$IConnectionPointImpl@VCOPOSBelt@@$1?IID_IPropertyNotifySink@@3U_GUID@@BVCComDynamicUnkArray@ATL@@@ATL@@UAGJPAU_GUID@@@Z 10013920 f i Belt.obj
 0001:00012960       ?GetConnectionPointContainer@?$IConnectionPointImpl@VCOPOSBelt@@$1?DIID__IOPOSBeltEvents@@3U_GUID@@BVCComDynamicUnkArray@ATL@@@ATL@@UAGJPAPAUIConnectionPointContainer@@@Z 10013960 f i Belt.obj
 0001:000129d0       ?GetConnectionPointContainer@?$IConnectionPointImpl@VCOPOSBelt@@$1?IID_IPropertyNotifySink@@3U_GUID@@BVCComDynamicUnkArray@ATL@@@ATL@@UAGJPAPAUIConnectionPointContainer@@@Z 100139d0 f i Belt.obj
 0001:00012a40       ?GetContentExtent@?$IQuickActivateImpl@VCOPOSBelt@@@ATL@@UAGJPAUtagSIZE@@@Z 10013a40 f i Belt.obj
 0001:00012ad0       ?GetControlInfo@?$IOleControlImpl@VCOPOSBelt@@@ATL@@UAGJPAUtagCONTROLINFO@@@Z 10013ad0 f i Belt.obj
 0001:00012b40       ?GetCookie@CComDynamicUnkArray@ATL@@QAGKPAPAUIUnknown@@@Z 10013b40 f i Belt.obj
 0001:00012c00       ?GetData@?$IDataObjectImpl@VCOPOSBelt@@@ATL@@UAGJPAUtagFORMATETC@@PAUtagSTGMEDIUM@@@Z 10013c00 f i Belt.obj
 0001:00012c90       ?GetData@CAtlSafeAllocBufferNode@?$CAtlSafeAllocBufferManager@VCCRTAllocator@ATL@@@_ATL_SAFE_ALLOCA_IMPL@ATL@@QAEPAXXZ 10013c90 f i Belt.obj
 0001:00012cb0       ?GetDataHere@?$IDataObjectImpl@VCOPOSBelt@@@ATL@@UAGJPAUtagFORMATETC@@PAUtagSTGMEDIUM@@@Z 10013cb0 f i Belt.obj
 0001:00012d20       ?GetDropTarget@?$IOleInPlaceObjectWindowlessImpl@VCOPOSBelt@@@ATL@@UAGJPAPAUIDropTarget@@@Z 10013d20 f i Belt.obj
 0001:00012d90       ?GetExtent@?$IOleObjectImpl@VCOPOSBelt@@@ATL@@UAGJKPAUtagSIZE@@@Z 10013d90 f i Belt.obj
 0001:00012e30       ?GetExtent@?$IViewObjectExImpl@VCOPOSBelt@@@ATL@@UAGJKJPAUtagDVTARGETDEVICE@@PAUtagSIZE@@@Z 10013e30 f i Belt.obj
 0001:00012f00       ?GetGITPtr@CAtlModule@ATL@@UAEJPAPAUIGlobalInterfaceTable@@@Z 10013f00 f i Belt.obj
 0001:00013000       ?GetGUID@?$IProvideClassInfo2Impl@$1?CLSID_OPOSBelt@@3U_GUID@@B$1?DIID__IOPOSBeltEvents@@3U2@B$1?LIBID_OposBelt_CCO@@3U2@B$00$0A@VCComTypeInfoHolder@ATL@@@ATL@@UAGJKPAU_GUID@@@Z 10014000 f i Belt.obj
 0001:00013080       ?GetIDsOfNames@?$IDispatchImpl@UIOPOSBelt@@$1?IID_IOPOSBelt@@3U_GUID@@B$1?LIBID_OposBelt_CCO@@3U3@B$00$0A@VCComTypeInfoHolder@ATL@@@ATL@@UAGJABU_GUID@@PAPA_WIKPAJ@Z 10014080 f i Belt.obj
 0001:000130b0       ?GetIDsOfNames@CComTypeInfoHolder@ATL@@QAEJABU_GUID@@PAPA_WIKPAJ@Z 100140b0 f i Belt.obj
 0001:00013260       ?GetInterfaceSafetyOptions@?$IObjectSafetyImpl@VCOPOSBelt@@$02@ATL@@UAGJABU_GUID@@PAK1@Z 10014260 f i Belt.obj
 0001:000133d0       ?GetKeyAt@?$CSimpleMap@PA_WPA_WVCExpansionVectorEqualHelper@ATL@@@ATL@@QBEAAPA_WH@Z 100143d0 f i Belt.obj
 0001:00013450       ?GetLockCount@CAtlModule@ATL@@UAEJXZ 10014450 f i Belt.obj
 0001:00013470       ?GetMiscStatus@?$IOleObjectImpl@VCOPOSBelt@@@ATL@@UAGJKPAK@Z 10014470 f i Belt.obj
 0001:000134e0       ?GetMoniker@?$IOleObjectImpl@VCOPOSBelt@@@ATL@@UAGJKKPAPAUIMoniker@@@Z 100144e0 f i Belt.obj
 0001:00013550       ?GetNaturalExtent@?$IViewObjectExImpl@VCOPOSBelt@@@ATL@@UAGJKJPAUtagDVTARGETDEVICE@@PAUHDC__@@PAUtagExtentInfo@@PAUtagSIZE@@@Z 10014550 f i Belt.obj
 0001:00013670       ?GetObjectCLSID@?$CComCoClass@VCOPOSBelt@@$1?CLSID_OPOSBelt@@3U_GUID@@B@ATL@@SGABU_GUID@@XZ 10014670 f i Belt.obj
 0001:00013680       ?GetPages@?$ISpecifyPropertyPagesImpl@VCOPOSBelt@@@ATL@@UAGJPAUtagCAUUID@@@Z 10014680 f i Belt.obj
 0001:000136f0       ?GetPagesHelper@?$ISpecifyPropertyPagesImpl@VCOPOSBelt@@@ATL@@IAEJPAUtagCAUUID@@PBUATL_PROPMAP_ENTRY@2@@Z 100146f0 f i Belt.obj
 0001:000138f0       ?GetProperty@?$CComPtr@UIDispatch@@@ATL@@QAEJJPAUtagVARIANT@@@Z 100148f0 f i Belt.obj
 0001:00013930       ?GetProperty@?$CComPtr@UIDispatch@@@ATL@@SAJPAUIDispatch@@JPAUtagVARIANT@@@Z 10014930 f i Belt.obj
 0001:00013a90       ?GetPropertyMap@COPOSBelt@@SAPBUATL_PROPMAP_ENTRY@ATL@@XZ 10014a90 f i Belt.obj
 0001:00013aa0       ?GetRect@?$IViewObjectExImpl@VCOPOSBelt@@@ATL@@UAGJKPAU_RECTL@@@Z 10014aa0 f i Belt.obj
 0001:00013b10       ?GetSize@?$CSimpleMap@PA_WPA_WVCExpansionVectorEqualHelper@ATL@@@ATL@@QBEHXZ 10014b10 f i Belt.obj
 0001:00013b30       ?GetSize@CComDynamicUnkArray@ATL@@QBEHXZ 10014b30 f i Belt.obj
 0001:00013b50       ?GetSizeMax@?$IPersistStreamInitImpl@VCOPOSBelt@@@ATL@@UAGJPAT_ULARGE_INTEGER@@@Z 10014b50 f i Belt.obj
 0001:000140c0       ?GetSizeMax@CComVariant@ATL@@QBEJPAT_ULARGE_INTEGER@@@Z 100150c0 f i Belt.obj
 0001:00014420       ?GetStreamSize@CComBSTR@ATL@@SAKPA_W@Z 10015420 f i Belt.obj
 0001:00014470       ?GetTI@CComTypeInfoHolder@ATL@@QAEJK@Z 10015470 f i Belt.obj
 0001:00014c80       ?GetTI@CComTypeInfoHolder@ATL@@QAEJKPAPAUITypeInfo@@@Z 10015c80 f i Belt.obj
 0001:00014d40       ?GetTypeInfo@?$IDispatchImpl@UIOPOSBelt@@$1?IID_IOPOSBelt@@3U_GUID@@B$1?LIBID_OposBelt_CCO@@3U3@B$00$0A@VCComTypeInfoHolder@ATL@@@ATL@@UAGJIKPAPAUITypeInfo@@@Z 10015d40 f i Belt.obj
 0001:00014d70       ?GetTypeInfo@CComTypeInfoHolder@ATL@@QAEJIKPAPAUITypeInfo@@@Z 10015d70 f i Belt.obj
 0001:00014db0       ?GetTypeInfoCount@?$IDispatchImpl@UIOPOSBelt@@$1?IID_IOPOSBelt@@3U_GUID@@B$1?LIBID_OposBelt_CCO@@3U3@B$00$0A@VCComTypeInfoHolder@ATL@@@ATL@@UAGJPAI@Z 10015db0 f i Belt.obj
 0001:00014dd0       ?GetUnknown@CComDynamicUnkArray@ATL@@QAGPAUIUnknown@@K@Z 10015dd0 f i Belt.obj
 0001:00014e40       ?GetUnknown@COPOSBelt@@QAEPAUIUnknown@@XZ 10015e40 f i Belt.obj
 0001:00014e70       ?GetUserClassID@?$IOleObjectImpl@VCOPOSBelt@@@ATL@@UAGJPAU_GUID@@@Z 10015e70 f i Belt.obj
 0001:00014f20       ?GetUserType@?$IOleObjectImpl@VCOPOSBelt@@@ATL@@UAGJKPAPA_W@Z 10015f20 f i Belt.obj
 0001:00014f90       ?GetValueAt@?$CSimpleMap@PA_WPA_WVCExpansionVectorEqualHelper@ATL@@@ATL@@QBEAAPA_WH@Z 10015f90 f i Belt.obj
 0001:00015010       ?GetViewStatus@?$IViewObjectExImpl@VCOPOSBelt@@@ATL@@UAGJPAK@Z 10016010 f i Belt.obj
 0001:000150d0       ?GetWNDPROC@CWndProcThunk@ATL@@QAEP6GJPAUHWND__@@IIJ@ZXZ 100160d0 f i Belt.obj
 0001:00015100       ?GetWindow@?$IOleInPlaceActiveObjectImpl@VCOPOSBelt@@@ATL@@UAGJPAPAUHWND__@@@Z 10016100 f i Belt.obj
 0001:000151d0       ?GetWindow@?$IOleInPlaceObjectWindowlessImpl@VCOPOSBelt@@@ATL@@UAGJPAPAUHWND__@@@Z 100161d0 f i Belt.obj
 0001:000152a0       ?GetWindowLongPtrW@@YAJPAUHWND__@@H@Z 100162a0 f i Belt.obj
 0001:000152d0       ?GetWindowProc@?$CWindowImplBaseT@VCWindow@ATL@@V?$CWinTraits@$0FGAAAAAA@$0A@@2@@ATL@@UAEP6GJPAUHWND__@@IIJ@ZXZ 100162d0 f i Belt.obj
 0001:000152f0       ?GetWndCaption@?$CWindowImpl@VCOPOSBelt@@VCWindow@ATL@@V?$CWinTraits@$0FGAAAAAA@$0A@@3@@ATL@@SAPB_WXZ 100162f0 f i Belt.obj
 0001:00015300       ?GetWndClassInfo@?$CWindowImpl@VCOPOSBelt@@VCWindow@ATL@@V?$CWinTraits@$0FGAAAAAA@$0A@@3@@ATL@@SAAAU_ATL_WNDCLASSINFOW@2@XZ 10016300 f i Belt.obj
 0001:00015310       ?GetWndClassName@CWindow@ATL@@SAPB_WXZ 10016310 f i Belt.obj
 0001:00015320       ?GetWndExStyle@?$CWinTraits@$0FGAAAAAA@$0A@@ATL@@SAKK@Z 10016320 f i Belt.obj
 0001:00015350       ?GetWndExStyle@?$CWindowImplBaseT@VCWindow@ATL@@V?$CWinTraits@$0FGAAAAAA@$0A@@2@@ATL@@SAKK@Z 10016350 f i Belt.obj
 0001:00015370       ?GetWndStyle@?$CWinTraits@$0FGAAAAAA@$0A@@ATL@@SAKK@Z 10016370 f i Belt.obj
 0001:000153a0       ?GetWndStyle@?$CWindowImplBaseT@VCWindow@ATL@@V?$CWinTraits@$0FGAAAAAA@$0A@@2@@ATL@@SAKK@Z 100163a0 f i Belt.obj
 0001:000153c0       ?GetZoomInfo@CComControlBase@ATL@@QAEXAAUATL_DRAWINFO@@@Z 100163c0 f i Belt.obj
 0001:00015530       ?HKeyFromString@CRegParser@ATL@@KAPAUHKEY__@@PA_W@Z 10016530 f i Belt.obj
 0001:000155a0       ?HandsOffStorage@?$IPersistStorageImpl@VCOPOSBelt@@@ATL@@UAGJXZ 100165a0 f i Belt.obj
 0001:00015600       ?HasSubKeys@CRegParser@ATL@@IAEHPAUHKEY__@@@Z 10016600 f i Belt.obj
 0001:00015710       ?IDataObject_GetData@CComControlBase@ATL@@QAEJPAUtagFORMATETC@@PAUtagSTGMEDIUM@@@Z 10016710 f i Belt.obj
 0001:00015b30       ?IOleInPlaceObject_InPlaceDeactivate@CComControlBase@ATL@@QAEJXZ 10016b30 f i Belt.obj
 0001:00015d30       ?IOleInPlaceObject_SetObjectRects@CComControlBase@ATL@@QAEJPBUtagRECT@@0@Z 10016d30 f i Belt.obj
 0001:00015ef0       ?IOleInPlaceObject_UIDeactivate@CComControlBase@ATL@@QAEJXZ 10016ef0 f i Belt.obj
 0001:00016160       ?IOleObject_Advise@CComControlBase@ATL@@QAEJPAUIAdviseSink@@PAK@Z 10017160 f i Belt.obj
 0001:00016210       ?IOleObject_Close@CComControlBase@ATL@@QAEJK@Z 10017210 f i Belt.obj
 0001:000164c0       ?IOleObject_GetClientSite@CComControlBase@ATL@@QAEJPAPAUIOleClientSite@@@Z 100174c0 f i Belt.obj
 0001:00016560       ?IOleObject_SetClientSite@CComControlBase@ATL@@QAEJPAUIOleClientSite@@@Z 10017560 f i Belt.obj
 0001:00016630       ?IOleObject_SetExtent@CComControlBase@ATL@@QAEJKPAUtagSIZE@@@Z 10017630 f i Belt.obj
 0001:00016770       ?IPSI_GetIPersistStreamInit@?$IPersistStorageImpl@VCOPOSBelt@@@ATL@@AAEPAUIPersistStreamInit@@XZ 10017770 f i Belt.obj
 0001:00016840       ?IPersistStreamInit_Load@?$IPersistStreamInitImpl@VCOPOSBelt@@@ATL@@QAEJPAUIStream@@PBUATL_PROPMAP_ENTRY@2@@Z 10017840 f i Belt.obj
 0001:000168c0       ?IPersistStreamInit_Save@?$IPersistStreamInitImpl@VCOPOSBelt@@@ATL@@QAEJPAUIStream@@HPBUATL_PROPMAP_ENTRY@2@@Z 100178c0 f i Belt.obj
 0001:00016950       ?IQuickActivate_QuickActivate@CComControlBase@ATL@@QAEJPAUtagQACONTAINER@@PAUtagQACONTROL@@@Z 10017950 f i Belt.obj
 0001:00016fa0       ?IViewObject_Draw@CComControlBase@ATL@@QAEJKJPAXPAUtagDVTARGETDEVICE@@PAUHDC__@@2PBU_RECTL@@3@Z 10017fa0 f i Belt.obj
 0001:00017240       ?InPlaceActivate@CComControlBase@ATL@@QAEJJPBUtagRECT@@@Z 10018240 f i Belt.obj
 0001:00017bd0       ?InPlaceDeactivate@?$IOleInPlaceObjectWindowlessImpl@VCOPOSBelt@@@ATL@@UAGJXZ 10018bd0 f i Belt.obj
 0001:00017c50       ?Increment@CComMultiThreadModel@ATL@@SGKPAJ@Z 10018c50 f i Belt.obj
 0001:00017c70       ?Increment@CComSingleThreadModel@ATL@@SGKPAJ@Z 10018c70 f i Belt.obj
 0001:00017c90       ?Init@?$CComEnumImpl@UIEnumConnectionPoints@@$1?_GUID_b196b285_bab4_101a_b69c_00aa00341d07@@3U__s_GUID@@BPAUIConnectionPoint@@V?$_CopyInterface@UIConnectionPoint@@@ATL@@@ATL@@QAEJPAPAUIConnectionPoint@@0PAUIUnknown@@W4CComEnumFlags@2@@Z 10018c90 f i Belt.obj
 0001:00017e70       ?Init@?$CComEnumImpl@UIEnumConnections@@$1?_GUID_b196b287_bab4_101a_b69c_00aa00341d07@@3U__s_GUID@@BUtagCONNECTDATA@@V?$_Copy@UtagCONNECTDATA@@@ATL@@@ATL@@QAEJPAUtagCONNECTDATA@@0PAUIUnknown@@W4CComEnumFlags@2@@Z 10018e70 f i Belt.obj
 0001:00018050       ?Init@CComFakeCriticalSection@ATL@@QAEJXZ 10019050 f i Belt.obj
 0001:00018070       ?Init@CComModule@ATL@@QAEJPAU_ATL_OBJMAP_ENTRY30@2@PAUHINSTANCE__@@PBU_GUID@@@Z 10019070 f i Belt.obj
 0001:00018160       ?Init@CComSafeDeleteCriticalSection@ATL@@QAEJXZ 10019160 f i Belt.obj
 0001:000181e0       ?Init@CDynamicStdCallThunk2@ATL@@QAEHKPAX@Z 100191e0 f i Belt.obj
 0001:00018240       ?Init@CWndProcThunk@ATL@@QAEHP6GJPAUHWND__@@IIJ@ZPAX@Z 10019240 f i Belt.obj
 0001:00018280       ?InitFromData@?$IOleObjectImpl@VCOPOSBelt@@@ATL@@UAGJPAUIDataObject@@HK@Z 10019280 f i Belt.obj
 0001:000182f0       ?InitLibId@?$CAtlModuleT@VCComModule@ATL@@@ATL@@SAXXZ 100192f0 f i Belt.obj
 0001:00018300       ?InitNew@?$IPersistStorageImpl@VCOPOSBelt@@@ATL@@UAGJPAUIStorage@@@Z 10019300 f i Belt.obj
 0001:000183f0       ?InitNew@?$IPersistStreamInitImpl@VCOPOSBelt@@@ATL@@UAGJXZ 100193f0 f i Belt.obj
 0001:00018480       ?InlineIsEqualUnknown@ATL@@YGHABU_GUID@@@Z 10019480 f i Belt.obj
 0001:000184f0       ?InternalAddRef@?$CComObjectRootEx@VCComMultiThreadModel@ATL@@@ATL@@QAEKXZ 100194f0 f i Belt.obj
 0001:00018550       ?InternalAddRef@?$CComObjectRootEx@VCComSingleThreadModel@ATL@@@ATL@@QAEKXZ 10019550 f i Belt.obj
 0001:000185b0       ?InternalFinalConstructAddRef@CComObjectRootBase@ATL@@QAEXXZ 100195b0 f i Belt.obj
 0001:000185d0       ?InternalFinalConstructAddRef@COPOSBelt@@QAEXXZ 100195d0 f i Belt.obj
 0001:00018600       ?InternalFinalConstructRelease@CComObjectRootBase@ATL@@QAEXXZ 10019600 f i Belt.obj
 0001:00018650       ?InternalFinalConstructRelease@COPOSBelt@@QAEXXZ 10019650 f i Belt.obj
 0001:00018680       ?InternalGetSite@CComControlBase@ATL@@QAEJABU_GUID@@PAPAX@Z 10019680 f i Belt.obj
 0001:00018740       ?InternalQueryInterface@CComObjectRootBase@ATL@@SGJPAXPBU_ATL_INTMAP_ENTRY@2@ABU_GUID@@PAPAX@Z 10019740 f i Belt.obj
 0001:00018800       ?InternalRelease@?$CComObjectRootEx@VCComMultiThreadModel@ATL@@@ATL@@QAEKXZ 10019800 f i Belt.obj
 0001:00018870       ?InternalRelease@?$CComObjectRootEx@VCComSingleThreadModel@ATL@@@ATL@@QAEKXZ 10019870 f i Belt.obj
 0001:000188e0       ?InternalSetAtIndex@?$CSimpleArray@GV?$CSimpleArrayEqualHelper@G@ATL@@@ATL@@QAEXHABG@Z 100198e0 f i Belt.obj
 0001:00018950       ?InternalSetAtIndex@?$CSimpleMap@PA_WPA_WVCExpansionVectorEqualHelper@ATL@@@ATL@@QAEXHABQA_W0@Z 10019950 f i Belt.obj
 0001:000189f0       ?Invoke@?$IDispatchImpl@UIOPOSBelt@@$1?IID_IOPOSBelt@@3U_GUID@@B$1?LIBID_OposBelt_CCO@@3U3@B$00$0A@VCComTypeInfoHolder@ATL@@@ATL@@UAGJJABU_GUID@@KGPAUtagDISPPARAMS@@PAUtagVARIANT@@PAUtagEXCEPINFO@@PAI@Z 100199f0 f i Belt.obj
 0001:00018a30       ?Invoke@CComTypeInfoHolder@ATL@@QAEJPAUIDispatch@@JABU_GUID@@KGPAUtagDISPPARAMS@@PAUtagVARIANT@@PAUtagEXCEPINFO@@PAI@Z 10019a30 f i Belt.obj
 0001:00018ac0       ?IsDirty@?$IPersistStorageImpl@VCOPOSBelt@@@ATL@@UAGJXZ 10019ac0 f i Belt.obj
 0001:00018bb0       ?IsDirty@?$IPersistStreamInitImpl@VCOPOSBelt@@@ATL@@UAGJXZ 10019bb0 f i Belt.obj
 0001:00018c50       ?IsEqualKey@CExpansionVectorEqualHelper@ATL@@SA_NQA_W0@Z 10019c50 f i Belt.obj
 0001:00018c80       ?IsEqualObject@?$CComPtrBase@UIOleClientSite@@@ATL@@QAE_NPAUIUnknown@@@Z 10019c80 f i Belt.obj
 0001:00018db0       ?IsEqualObject@?$CComPtrBase@UITypeInfo@@@ATL@@QAE_NPAUIUnknown@@@Z 10019db0 f i Belt.obj
 0001:00018ee0       ?IsSpace@CRegParser@ATL@@IAEH_W@Z 10019ee0 f i Belt.obj
 0001:00018f50       ?IsUpToDate@?$IOleObjectImpl@VCOPOSBelt@@@ATL@@UAGJXZ 10019f50 f i Belt.obj
 0001:00018fb0       ?Length@CComBSTR@ATL@@QBEIXZ 10019fb0 f i Belt.obj
 0001:00018ff0       ?Load@?$IPersistStorageImpl@VCOPOSBelt@@@ATL@@UAGJPAUIStorage@@@Z 10019ff0 f i Belt.obj
 0001:00019150       ?Load@?$IPersistStreamInitImpl@VCOPOSBelt@@@ATL@@UAGJPAUIStream@@@Z 1001a150 f i Belt.obj
 0001:000191e0       ?LoadCursorW@AtlModuleRegisterWndClassInfoParamW@ATL@@SAPAUHICON__@@PAUHINSTANCE__@@PB_W@Z 1001a1e0 f i Belt.obj
 0001:00019210       ?LoadNameCache@CComTypeInfoHolder@ATL@@QAEJPAUITypeInfo@@@Z 1001a210 f i Belt.obj
 0001:000194a0       ?Lock@?$CComCritSecLock@VCComCriticalSection@ATL@@@ATL@@QAEJXZ 1001a4a0 f i Belt.obj
 0001:00019550       ?Lock@?$CComObjectRootEx@VCComSingleThreadModel@ATL@@@ATL@@QAEXXZ 1001a550 f i Belt.obj
 0001:00019570       ?Lock@CAtlModule@ATL@@UAEJXZ 1001a570 f i Belt.obj
 0001:000195a0       ?Lock@CComCriticalSection@ATL@@QAEJXZ 1001a5a0 f i Belt.obj
 0001:000195e0       ?Lock@CComFakeCriticalSection@ATL@@QAEJXZ 1001a5e0 f i Belt.obj
 0001:00019600       ?LockServer@CComClassFactory@ATL@@UAGJH@Z 1001a600 f i Belt.obj
 0001:00019660       ?Lookup@?$CSimpleMap@PA_WPA_WVCExpansionVectorEqualHelper@ATL@@@ATL@@QBEPA_WABQA_W@Z 1001a660 f i Belt.obj
 0001:000196b0       ?Next@?$CComEnumImpl@UIEnumConnectionPoints@@$1?_GUID_b196b285_bab4_101a_b69c_00aa00341d07@@3U__s_GUID@@BPAUIConnectionPoint@@V?$_CopyInterface@UIConnectionPoint@@@ATL@@@ATL@@UAGJKPAPAUIConnectionPoint@@PAK@Z 1001a6b0 f i Belt.obj
 0001:00019820       ?Next@?$CComEnumImpl@UIEnumConnections@@$1?_GUID_b196b287_bab4_101a_b69c_00aa00341d07@@3U__s_GUID@@BUtagCONNECTDATA@@V?$_Copy@UtagCONNECTDATA@@@ATL@@@ATL@@UAGJKPAUtagCONNECTDATA@@PAK@Z 1001a820 f i Belt.obj
 0001:00019990       ?NextToken@CRegParser@ATL@@IAEJPA_W@Z 1001a990 f i Belt.obj
 0001:00019c30       ?OLE2CT_EX@@YAPB_WPB_WI@Z  1001ac30 f i Belt.obj
 0001:00019c40       ?OLE2CT_EX_DEF@@YAPB_WPB_W@Z 1001ac40 f i Belt.obj
 0001:00019c50       ?OLE2T_EX@@YAPA_WPA_WI@Z   1001ac50 f i Belt.obj
 0001:00019c60       ?OnAmbientPropertyChange@?$IOleControlImpl@VCOPOSBelt@@@ATL@@UAGJJ@Z 1001ac60 f i Belt.obj
 0001:00019cf0       ?OnDocWindowActivate@?$IOleInPlaceActiveObjectImpl@VCOPOSBelt@@@ATL@@UAGJH@Z 1001acf0 f i Belt.obj
 0001:00019d80       ?OnDrawAdvanced@CComControlBase@ATL@@UAEJAAUATL_DRAWINFO@@@Z 1001ad80 f i Belt.obj
 0001:00019fa0       ?OnFinalMessage@?$CWindowImplBaseT@VCWindow@ATL@@V?$CWinTraits@$0FGAAAAAA@$0A@@2@@ATL@@UAEXPAUHWND__@@@Z 1001afa0 f i Belt.obj
 0001:00019fc0       ?OnFrameWindowActivate@?$IOleInPlaceActiveObjectImpl@VCOPOSBelt@@@ATL@@UAGJH@Z 1001afc0 f i Belt.obj
 0001:0001a020       ?OnKillFocus@CComControlBase@ATL@@QAEJIIJAAH@Z 1001b020 f i Belt.obj
 0001:0001a120       ?OnMnemonic@?$IOleControlImpl@VCOPOSBelt@@@ATL@@UAGJPAUtagMSG@@@Z 1001b120 f i Belt.obj
 0001:0001a190       ?OnMouseActivate@CComControlBase@ATL@@QAEJIIJAAH@Z 1001b190 f i Belt.obj
 0001:0001a2e0       ?OnPaint@CComControlBase@ATL@@QAEJIIJAAH@Z 1001b2e0 f i Belt.obj
 0001:0001a460       ?OnPostVerbDiscardUndo@?$IOleObjectImpl@VCOPOSBelt@@@ATL@@QAEJXZ 1001b460 f i Belt.obj
 0001:0001a480       ?OnPostVerbHide@?$IOleObjectImpl@VCOPOSBelt@@@ATL@@QAEJXZ 1001b480 f i Belt.obj
 0001:0001a4a0       ?OnPostVerbInPlaceActivate@?$IOleObjectImpl@VCOPOSBelt@@@ATL@@QAEJXZ 1001b4a0 f i Belt.obj
 0001:0001a4c0       ?OnPostVerbOpen@?$IOleObjectImpl@VCOPOSBelt@@@ATL@@QAEJXZ 1001b4c0 f i Belt.obj
 0001:0001a4e0       ?OnPostVerbShow@?$IOleObjectImpl@VCOPOSBelt@@@ATL@@QAEJXZ 1001b4e0 f i Belt.obj
 0001:0001a500       ?OnPostVerbUIActivate@?$IOleObjectImpl@VCOPOSBelt@@@ATL@@QAEJXZ 1001b500 f i Belt.obj
 0001:0001a520       ?OnPreVerbDiscardUndo@?$IOleObjectImpl@VCOPOSBelt@@@ATL@@QAEJXZ 1001b520 f i Belt.obj
 0001:0001a540       ?OnPreVerbHide@?$IOleObjectImpl@VCOPOSBelt@@@ATL@@QAEJXZ 1001b540 f i Belt.obj
 0001:0001a560       ?OnPreVerbInPlaceActivate@?$IOleObjectImpl@VCOPOSBelt@@@ATL@@QAEJXZ 1001b560 f i Belt.obj
 0001:0001a580       ?OnPreVerbOpen@?$IOleObjectImpl@VCOPOSBelt@@@ATL@@QAEJXZ 1001b580 f i Belt.obj
 0001:0001a5a0       ?OnPreVerbShow@?$IOleObjectImpl@VCOPOSBelt@@@ATL@@QAEJXZ 1001b5a0 f i Belt.obj
 0001:0001a5c0       ?OnPreVerbUIActivate@?$IOleObjectImpl@VCOPOSBelt@@@ATL@@QAEJXZ 1001b5c0 f i Belt.obj
 0001:0001a5e0       ?OnSetFocus@CComControlBase@ATL@@QAEJIIJAAH@Z 1001b5e0 f i Belt.obj
 0001:0001a770       ?OnWindowMessage@?$IOleInPlaceObjectWindowlessImpl@VCOPOSBelt@@@ATL@@UAGJIIJPAJ@Z 1001b770 f i Belt.obj
 0001:0001a8d0       ?Open@CRegKey@ATL@@QAEJPAUHKEY__@@PB_WK@Z 1001b8d0 f i Belt.obj
 0001:0001aa20       ?OuterAddRef@CComObjectRootBase@ATL@@QAEKXZ 1001ba20 f i Belt.obj
 0001:0001aa60       ?OuterQueryInterface@CComObjectRootBase@ATL@@QAEJABU_GUID@@PAPAX@Z 1001ba60 f i Belt.obj
 0001:0001aab0       ?OuterRelease@CComObjectRootBase@ATL@@QAEKXZ 1001bab0 f i Belt.obj
 0001:0001aaf0       ?PreProcessBuffer@CRegParser@ATL@@QAEJPA_WPAPA_W@Z 1001baf0 f i Belt.obj
 0001:0001b030       ?PreTranslateAccelerator@CComControlBase@ATL@@QAEHPAUtagMSG@@AAJ@Z 1001c030 f i Belt.obj
 0001:0001b050       ?ProcessWindowMessage@?$CComControl@VCOPOSBelt@@V?$CWindowImpl@VCOPOSBelt@@VCWindow@ATL@@V?$CWinTraits@$0FGAAAAAA@$0A@@3@@ATL@@@ATL@@UAEHPAUHWND__@@IIJAAJK@Z 1001c050 f i Belt.obj
 0001:0001b220       ?ProcessWindowMessage@COPOSBelt@@UAEHPAUHWND__@@IIJAAJK@Z 1001c220 f i Belt.obj
 0001:0001b320       ?PutProperty@?$CComPtr@UIDispatch@@@ATL@@QAEJJPAUtagVARIANT@@@Z 1001c320 f i Belt.obj
 0001:0001b360       ?PutProperty@?$CComPtr@UIDispatch@@@ATL@@SAJPAUIDispatch@@JPAUtagVARIANT@@@Z 1001c360 f i Belt.obj
 0001:0001b550       ?QueryGetData@?$IDataObjectImpl@VCOPOSBelt@@@ATL@@UAGJPAUtagFORMATETC@@@Z 1001c550 f i Belt.obj
 0001:0001b5c0       ?QueryHitPoint@?$IViewObjectExImpl@VCOPOSBelt@@@ATL@@UAGJKPBUtagRECT@@UtagPOINT@@JPAK@Z 1001c5c0 f i Belt.obj
 0001:0001b6d0       ?QueryHitRect@?$IViewObjectExImpl@VCOPOSBelt@@@ATL@@UAGJKPBUtagRECT@@0JPAK@Z 1001c6d0 f i Belt.obj
 0001:0001b820       ?QueryInterface@?$CComAggObject@VCOPOSBelt@@@ATL@@UAGJABU_GUID@@PAPAX@Z 1001c820 f i Belt.obj
 0001:0001b8d0       ?QueryInterface@?$CComContainedObject@VCOPOSBelt@@@ATL@@UAGJABU_GUID@@PAPAX@Z 1001c8d0 f i Belt.obj
 0001:0001b8f4       ?QueryInterface@?$CComContainedObject@VCOPOSBelt@@@ATL@@WHA@AGJABU_GUID@@PAPAX@Z 1001c8f4 f i Belt.obj
 0001:0001b8fe       ?QueryInterface@?$CComContainedObject@VCOPOSBelt@@@ATL@@WHE@AGJABU_GUID@@PAPAX@Z 1001c8fe f i Belt.obj
 0001:0001b908       ?QueryInterface@?$CComContainedObject@VCOPOSBelt@@@ATL@@WHI@AGJABU_GUID@@PAPAX@Z 1001c908 f i Belt.obj
 0001:0001b912       ?QueryInterface@?$CComContainedObject@VCOPOSBelt@@@ATL@@WHM@AGJABU_GUID@@PAPAX@Z 1001c912 f i Belt.obj
 0001:0001b91c       ?QueryInterface@?$CComContainedObject@VCOPOSBelt@@@ATL@@WIA@AGJABU_GUID@@PAPAX@Z 1001c91c f i Belt.obj
 0001:0001b929       ?QueryInterface@?$CComContainedObject@VCOPOSBelt@@@ATL@@WIE@AGJABU_GUID@@PAPAX@Z 1001c929 f i Belt.obj
 0001:0001b936       ?QueryInterface@?$CComContainedObject@VCOPOSBelt@@@ATL@@WII@AGJABU_GUID@@PAPAX@Z 1001c936 f i Belt.obj
 0001:0001b943       ?QueryInterface@?$CComContainedObject@VCOPOSBelt@@@ATL@@WIM@AGJABU_GUID@@PAPAX@Z 1001c943 f i Belt.obj
 0001:0001b950       ?QueryInterface@?$CComContainedObject@VCOPOSBelt@@@ATL@@WJA@AGJABU_GUID@@PAPAX@Z 1001c950 f i Belt.obj
 0001:0001b95d       ?QueryInterface@?$CComContainedObject@VCOPOSBelt@@@ATL@@WJE@AGJABU_GUID@@PAPAX@Z 1001c95d f i Belt.obj
 0001:0001b96a       ?QueryInterface@?$CComContainedObject@VCOPOSBelt@@@ATL@@WJI@AGJABU_GUID@@PAPAX@Z 1001c96a f i Belt.obj
 0001:0001b977       ?QueryInterface@?$CComContainedObject@VCOPOSBelt@@@ATL@@WJM@AGJABU_GUID@@PAPAX@Z 1001c977 f i Belt.obj
 0001:0001b984       ?QueryInterface@?$CComContainedObject@VCOPOSBelt@@@ATL@@WKA@AGJABU_GUID@@PAPAX@Z 1001c984 f i Belt.obj
 0001:0001b9a0       ?QueryInterface@?$CComObject@V?$CComEnum@UIEnumConnectionPoints@@$1?_GUID_b196b285_bab4_101a_b69c_00aa00341d07@@3U__s_GUID@@BPAUIConnectionPoint@@V?$_CopyInterface@UIConnectionPoint@@@ATL@@VCComSingleThreadModel@6@@ATL@@@ATL@@UAGJABU_GUID@@PAPAX@Z 1001c9a0 f i Belt.obj
 0001:0001b9c0       ?QueryInterface@?$CComObject@V?$CComEnum@UIEnumConnections@@$1?_GUID_b196b287_bab4_101a_b69c_00aa00341d07@@3U__s_GUID@@BUtagCONNECTDATA@@V?$_Copy@UtagCONNECTDATA@@@ATL@@VCComSingleThreadModel@6@@ATL@@@ATL@@UAGJABU_GUID@@PAPAX@Z 1001c9c0 f i Belt.obj
 0001:0001b9e0       ?QueryInterface@?$CComObject@VCOPOSBelt@@@ATL@@UAGJABU_GUID@@PAPAX@Z 1001c9e0 f i Belt.obj
 0001:0001b9fe       ?QueryInterface@?$CComObject@VCOPOSBelt@@@ATL@@WHA@AGJABU_GUID@@PAPAX@Z 1001c9fe f i Belt.obj
 0001:0001ba08       ?QueryInterface@?$CComObject@VCOPOSBelt@@@ATL@@WHE@AGJABU_GUID@@PAPAX@Z 1001ca08 f i Belt.obj
 0001:0001ba12       ?QueryInterface@?$CComObject@VCOPOSBelt@@@ATL@@WHI@AGJABU_GUID@@PAPAX@Z 1001ca12 f i Belt.obj
 0001:0001ba1c       ?QueryInterface@?$CComObject@VCOPOSBelt@@@ATL@@WHM@AGJABU_GUID@@PAPAX@Z 1001ca1c f i Belt.obj
 0001:0001ba26       ?QueryInterface@?$CComObject@VCOPOSBelt@@@ATL@@WIA@AGJABU_GUID@@PAPAX@Z 1001ca26 f i Belt.obj
 0001:0001ba33       ?QueryInterface@?$CComObject@VCOPOSBelt@@@ATL@@WIE@AGJABU_GUID@@PAPAX@Z 1001ca33 f i Belt.obj
 0001:0001ba40       ?QueryInterface@?$CComObject@VCOPOSBelt@@@ATL@@WII@AGJABU_GUID@@PAPAX@Z 1001ca40 f i Belt.obj
 0001:0001ba4d       ?QueryInterface@?$CComObject@VCOPOSBelt@@@ATL@@WIM@AGJABU_GUID@@PAPAX@Z 1001ca4d f i Belt.obj
 0001:0001ba5a       ?QueryInterface@?$CComObject@VCOPOSBelt@@@ATL@@WJA@AGJABU_GUID@@PAPAX@Z 1001ca5a f i Belt.obj
 0001:0001ba67       ?QueryInterface@?$CComObject@VCOPOSBelt@@@ATL@@WJE@AGJABU_GUID@@PAPAX@Z 1001ca67 f i Belt.obj
 0001:0001ba74       ?QueryInterface@?$CComObject@VCOPOSBelt@@@ATL@@WJI@AGJABU_GUID@@PAPAX@Z 1001ca74 f i Belt.obj
 0001:0001ba81       ?QueryInterface@?$CComObject@VCOPOSBelt@@@ATL@@WJM@AGJABU_GUID@@PAPAX@Z 1001ca81 f i Belt.obj
 0001:0001ba8e       ?QueryInterface@?$CComObject@VCOPOSBelt@@@ATL@@WKA@AGJABU_GUID@@PAPAX@Z 1001ca8e f i Belt.obj
 0001:0001baa0       ?QueryInterface@?$CComObjectCached@VCComClassFactory@ATL@@@ATL@@UAGJABU_GUID@@PAPAX@Z 1001caa0 f i Belt.obj
 0001:0001bac0       ?QueryInterface@CRegObject@ATL@@UAGJABU_GUID@@PAPAX@Z 1001cac0 f i Belt.obj
 0001:0001bb10       ?QuickActivate@?$IQuickActivateImpl@VCOPOSBelt@@@ATL@@UAGJPAUtagQACONTAINER@@PAUtagQACONTROL@@@Z 1001cb10 f i Belt.obj
 0001:0001bba0       ?ReactivateAndUndo@?$IOleInPlaceObjectWindowlessImpl@VCOPOSBelt@@@ATL@@UAGJXZ 1001cba0 f i Belt.obj
 0001:0001bc10       ?ReadFromStream@CComBSTR@ATL@@QAEJPAUIStream@@@Z 1001cc10 f i Belt.obj
 0001:0001c010       ?ReadFromStream@CComVariant@ATL@@QAEJPAUIStream@@GTClassesAllowedInStream@2@K@Z 1001d010 f i Belt.obj
 0001:0001c370       ?RecurseDeleteKey@CRegKey@ATL@@QAEJPB_W@Z 1001d370 f i Belt.obj
 0001:0001c550       ?RegCreateKeyExW@CAtlTransactionManager@ATL@@QAEJPAUHKEY__@@PB_WKPA_WKKQAU_SECURITY_ATTRIBUTES@@PAPAU3@PAK@Z 1001d550 f i Belt.obj
 0001:0001c680       ?RegDeleteKeyW@CAtlTransactionManager@ATL@@QAEJPAUHKEY__@@PB_W@Z 1001d680 f i Belt.obj
 0001:0001c780       ?RegOpenKeyExW@CAtlTransactionManager@ATL@@QAEJPAUHKEY__@@PB_WKKPAPAU3@@Z 1001d780 f i Belt.obj
 0001:0001c890       ?Register@_ATL_WNDCLASSINFOW@ATL@@QAEGPAP6GJPAUHWND__@@IIJ@Z@Z 1001d890 f i Belt.obj
 0001:0001c8d0       ?RegisterBuffer@CRegParser@ATL@@QAEJPA_WH@Z 1001d8d0 f i Belt.obj
 0001:0001cc00       ?RegisterClassExW@AtlModuleRegisterWndClassInfoParamW@ATL@@SAGPAU_ATL_WIN_MODULE70@2@PBUtagWNDCLASSEXW@@@Z 1001dc00 f i Belt.obj
 0001:0001cc20       ?RegisterFromResource@CRegObject@ATL@@IAEJPB_W00H@Z 1001dc20 f i Belt.obj
 0001:0001cfb0       ?RegisterServer@?$CAtlModuleT@VCComModule@ATL@@@ATL@@QAEJHPBU_GUID@@@Z 1001dfb0 f i Belt.obj
 0001:0001d030       ?RegisterServer@CAtlComModule@ATL@@QAEJHPBU_GUID@@@Z 1001e030 f i Belt.obj
 0001:0001d060       ?RegisterServer@CComModule@ATL@@QAEJHPBU_GUID@@@Z 1001e060 f i Belt.obj
 0001:0001d140       ?RegisterSubkeys@CRegParser@ATL@@IAEJPA_WPAUHKEY__@@HH@Z 1001e140 f i Belt.obj
 0001:0001dc60       ?Release@?$CComAggObject@VCOPOSBelt@@@ATL@@UAGKXZ 1001ec60 f i Belt.obj
 0001:0001dd20       ?Release@?$CComContainedObject@VCOPOSBelt@@@ATL@@UAGKXZ 1001ed20 f i Belt.obj
 0001:0001dd3c       ?Release@?$CComContainedObject@VCOPOSBelt@@@ATL@@WHA@AGKXZ 1001ed3c f i Belt.obj
 0001:0001dd46       ?Release@?$CComContainedObject@VCOPOSBelt@@@ATL@@WHE@AGKXZ 1001ed46 f i Belt.obj
 0001:0001dd50       ?Release@?$CComContainedObject@VCOPOSBelt@@@ATL@@WHI@AGKXZ 1001ed50 f i Belt.obj
 0001:0001dd5a       ?Release@?$CComContainedObject@VCOPOSBelt@@@ATL@@WHM@AGKXZ 1001ed5a f i Belt.obj
 0001:0001dd64       ?Release@?$CComContainedObject@VCOPOSBelt@@@ATL@@WIA@AGKXZ 1001ed64 f i Belt.obj
 0001:0001dd71       ?Release@?$CComContainedObject@VCOPOSBelt@@@ATL@@WIE@AGKXZ 1001ed71 f i Belt.obj
 0001:0001dd7e       ?Release@?$CComContainedObject@VCOPOSBelt@@@ATL@@WII@AGKXZ 1001ed7e f i Belt.obj
 0001:0001dd8b       ?Release@?$CComContainedObject@VCOPOSBelt@@@ATL@@WIM@AGKXZ 1001ed8b f i Belt.obj
 0001:0001dd98       ?Release@?$CComContainedObject@VCOPOSBelt@@@ATL@@WJA@AGKXZ 1001ed98 f i Belt.obj
 0001:0001dda5       ?Release@?$CComContainedObject@VCOPOSBelt@@@ATL@@WJE@AGKXZ 1001eda5 f i Belt.obj
 0001:0001ddb2       ?Release@?$CComContainedObject@VCOPOSBelt@@@ATL@@WJI@AGKXZ 1001edb2 f i Belt.obj
 0001:0001ddbf       ?Release@?$CComContainedObject@VCOPOSBelt@@@ATL@@WJM@AGKXZ 1001edbf f i Belt.obj
 0001:0001ddcc       ?Release@?$CComContainedObject@VCOPOSBelt@@@ATL@@WKA@AGKXZ 1001edcc f i Belt.obj
 0001:0001ddd9       ?Release@?$CComContainedObject@VCOPOSBelt@@@ATL@@WKI@AGKXZ 1001edd9 f i Belt.obj
 0001:0001dde6       ?Release@?$CComContainedObject@VCOPOSBelt@@@ATL@@WLE@AGKXZ 1001ede6 f i Belt.obj
 0001:0001de00       ?Release@?$CComObject@V?$CComEnum@UIEnumConnectionPoints@@$1?_GUID_b196b285_bab4_101a_b69c_00aa00341d07@@3U__s_GUID@@BPAUIConnectionPoint@@V?$_CopyInterface@UIConnectionPoint@@@ATL@@VCComSingleThreadModel@6@@ATL@@@ATL@@UAGKXZ 1001ee00 f i Belt.obj
 0001:0001dec0       ?Release@?$CComObject@V?$CComEnum@UIEnumConnections@@$1?_GUID_b196b287_bab4_101a_b69c_00aa00341d07@@3U__s_GUID@@BUtagCONNECTDATA@@V?$_Copy@UtagCONNECTDATA@@@ATL@@VCComSingleThreadModel@6@@ATL@@@ATL@@UAGKXZ 1001eec0 f i Belt.obj
 0001:0001df80       ?Release@?$CComObject@VCOPOSBelt@@@ATL@@UAGKXZ 1001ef80 f i Belt.obj
 0001:0001e039       ?Release@?$CComObject@VCOPOSBelt@@@ATL@@WHA@AGKXZ 1001f039 f i Belt.obj
 0001:0001e043       ?Release@?$CComObject@VCOPOSBelt@@@ATL@@WHE@AGKXZ 1001f043 f i Belt.obj
 0001:0001e04d       ?Release@?$CComObject@VCOPOSBelt@@@ATL@@WHI@AGKXZ 1001f04d f i Belt.obj
 0001:0001e057       ?Release@?$CComObject@VCOPOSBelt@@@ATL@@WHM@AGKXZ 1001f057 f i Belt.obj
 0001:0001e061       ?Release@?$CComObject@VCOPOSBelt@@@ATL@@WIA@AGKXZ 1001f061 f i Belt.obj
 0001:0001e06e       ?Release@?$CComObject@VCOPOSBelt@@@ATL@@WIE@AGKXZ 1001f06e f i Belt.obj
 0001:0001e07b       ?Release@?$CComObject@VCOPOSBelt@@@ATL@@WII@AGKXZ 1001f07b f i Belt.obj
 0001:0001e088       ?Release@?$CComObject@VCOPOSBelt@@@ATL@@WIM@AGKXZ 1001f088 f i Belt.obj
 0001:0001e095       ?Release@?$CComObject@VCOPOSBelt@@@ATL@@WJA@AGKXZ 1001f095 f i Belt.obj
 0001:0001e0a2       ?Release@?$CComObject@VCOPOSBelt@@@ATL@@WJE@AGKXZ 1001f0a2 f i Belt.obj
 0001:0001e0af       ?Release@?$CComObject@VCOPOSBelt@@@ATL@@WJI@AGKXZ 1001f0af f i Belt.obj
 0001:0001e0bc       ?Release@?$CComObject@VCOPOSBelt@@@ATL@@WJM@AGKXZ 1001f0bc f i Belt.obj
 0001:0001e0c9       ?Release@?$CComObject@VCOPOSBelt@@@ATL@@WKA@AGKXZ 1001f0c9 f i Belt.obj
 0001:0001e0d6       ?Release@?$CComObject@VCOPOSBelt@@@ATL@@WKI@AGKXZ 1001f0d6 f i Belt.obj
 0001:0001e0e3       ?Release@?$CComObject@VCOPOSBelt@@@ATL@@WLE@AGKXZ 1001f0e3 f i Belt.obj
 0001:0001e0f0       ?Release@?$CComObjectCached@VCComClassFactory@ATL@@@ATL@@UAGKXZ 1001f0f0 f i Belt.obj
 0001:0001e190       ?Release@?$CComPtrBase@UIAdviseSink@@@ATL@@QAEXXZ 1001f190 f i Belt.obj
 0001:0001e1f0       ?Release@?$CComPtrBase@UIDispatch@@@ATL@@QAEXXZ 1001f1f0 f i Belt.obj
 0001:0001e250       ?Release@?$CComPtrBase@UIOleInPlaceSiteWindowless@@@ATL@@QAEXXZ 1001f250 f i Belt.obj
 0001:0001e2b0       ?Release@CRegObject@ATL@@UAGKXZ 1001f2b0 f i Belt.obj
 0001:0001e2f0       ?Remove@CComDynamicUnkArray@ATL@@QAEHK@Z 1001f2f0 f i Belt.obj
 0001:0001e3a0       ?RemoveAll@?$CSimpleMap@PA_WPA_WVCExpansionVectorEqualHelper@ATL@@@ATL@@QAEXXZ 1001f3a0 f i Belt.obj
 0001:0001e430       ?Reset@?$CComEnumImpl@UIEnumConnectionPoints@@$1?_GUID_b196b285_bab4_101a_b69c_00aa00341d07@@3U__s_GUID@@BPAUIConnectionPoint@@V?$_CopyInterface@UIConnectionPoint@@@ATL@@@ATL@@UAGJXZ 1001f430 f i Belt.obj
 0001:0001e450       ?Reset@?$CComEnumImpl@UIEnumConnections@@$1?_GUID_b196b287_bab4_101a_b69c_00aa00341d07@@3U__s_GUID@@BUtagCONNECTDATA@@V?$_Copy@UtagCONNECTDATA@@@ATL@@@ATL@@UAGJXZ 1001f450 f i Belt.obj
 0001:0001e470       ?ResizeBorder@?$IOleInPlaceActiveObjectImpl@VCOPOSBelt@@@ATL@@UAGJPBUtagRECT@@PAUIOleInPlaceUIWindow@@H@Z 1001f470 f i Belt.obj
 0001:0001e4d0       ?ResourceRegister@CRegObject@ATL@@QAGJPB_WI0@Z 1001f4d0 f i Belt.obj
 0001:0001e5b0       ?ResourceRegisterSz@CRegObject@ATL@@QAGJPB_W00@Z 1001f5b0 f i Belt.obj
 0001:0001e6b0       ?ResourceUnregister@CRegObject@ATL@@QAGJPB_WI0@Z 1001f6b0 f i Belt.obj
 0001:0001e790       ?ResourceUnregisterSz@CRegObject@ATL@@QAGJPB_W00@Z 1001f790 f i Belt.obj
 0001:0001e890       ?SODataDummy@COPOSBelt@@MAGJJ@Z 1001f890 f i Belt.obj
 0001:0001e8a0       ?SODirectIO@COPOSBelt@@MAGJJPAJPAPA_W@Z 1001f8a0 f i Belt.obj
 0001:0001ea60       ?SOErrorDummy@COPOSBelt@@MAGJJJJPAJ@Z 1001fa60 f i Belt.obj
 0001:0001ea70       ?SOOutputCompleteDummy@COPOSBelt@@MAGJJ@Z 1001fa70 f i Belt.obj
 0001:0001ea80       ?SOStatusUpdate@COPOSBelt@@MAGJJ@Z 1001fa80 f i Belt.obj
 0001:0001eb00       ?Save@?$IPersistStorageImpl@VCOPOSBelt@@@ATL@@UAGJPAUIStorage@@H@Z 1001fb00 f i Belt.obj
 0001:0001ec60       ?Save@?$IPersistStreamInitImpl@VCOPOSBelt@@@ATL@@UAGJPAUIStream@@H@Z 1001fc60 f i Belt.obj
 0001:0001ecf0       ?SaveCompleted@?$IPersistStorageImpl@VCOPOSBelt@@@ATL@@UAGJPAUIStorage@@@Z 1001fcf0 f i Belt.obj
 0001:0001ed50       ?SendOnDataChange@CComControlBase@ATL@@QAEJK@Z 1001fd50 f i Belt.obj
 0001:0001ee40       ?SendOnSave@CComControlBase@ATL@@QAEJXZ 1001fe40 f i Belt.obj
 0001:0001eeb0       ?SendOnViewChange@CComControlBase@ATL@@QAEJKJ@Z 1001feb0 f i Belt.obj
 0001:0001ef20       ?SetAdvise@?$IViewObjectExImpl@VCOPOSBelt@@@ATL@@UAGJKKPAUIAdviseSink@@@Z 1001ff20 f i Belt.obj
 0001:0001efb0       ?SetClientSite@?$IOleObjectImpl@VCOPOSBelt@@@ATL@@UAGJPAUIOleClientSite@@@Z 1001ffb0 f i Belt.obj
 0001:0001f040       ?SetColorScheme@?$IOleObjectImpl@VCOPOSBelt@@@ATL@@UAGJPAUtagLOGPALETTE@@@Z 10020040 f i Belt.obj
 0001:0001f0b0       ?SetContentExtent@?$IQuickActivateImpl@VCOPOSBelt@@@ATL@@UAGJPAUtagSIZE@@@Z 100200b0 f i Belt.obj
 0001:0001f140       ?SetControlFocus@CComControlBase@ATL@@QAEHH@Z 10020140 f i Belt.obj
 0001:0001f2c0       ?SetDWORDValue@CRegKey@ATL@@QAEJPB_WK@Z 100202c0 f i Belt.obj
 0001:0001f340       ?SetData@?$IDataObjectImpl@VCOPOSBelt@@@ATL@@UAGJPAUtagFORMATETC@@PAUtagSTGMEDIUM@@H@Z 10020340 f i Belt.obj
 0001:0001f3b0       ?SetExtent@?$IOleObjectImpl@VCOPOSBelt@@@ATL@@UAGJKPAUtagSIZE@@@Z 100203b0 f i Belt.obj
 0001:0001f440       ?SetHostNames@?$IOleObjectImpl@VCOPOSBelt@@@ATL@@UAGJPB_W0@Z 10020440 f i Belt.obj
 0001:0001f4a0       ?SetInterfaceSafetyOptions@?$IObjectSafetyImpl@VCOPOSBelt@@$02@ATL@@UAGJABU_GUID@@KK@Z 100204a0 f i Belt.obj
 0001:0001f610       ?SetMoniker@?$IOleObjectImpl@VCOPOSBelt@@@ATL@@UAGJKPAUIMoniker@@@Z 10020610 f i Belt.obj
 0001:0001f680       ?SetMultiStringValue@CRegKey@ATL@@QAEJPB_W0@Z 10020680 f i Belt.obj
 0001:0001f7a0       ?SetObjectRects@?$IOleInPlaceObjectWindowlessImpl@VCOPOSBelt@@@ATL@@UAGJPBUtagRECT@@0@Z 100207a0 f i Belt.obj
 0001:0001f830       ?SetStringValue@CRegKey@ATL@@QAEJPB_W0K@Z 10020830 f i Belt.obj
 0001:0001f960       ?SetVoid@CComClassFactory@ATL@@QAEXPAX@Z 10020960 f i Belt.obj
 0001:0001f980       ?SetVoid@CComObjectRootBase@ATL@@QAEXPAX@Z 10020980 f i Belt.obj
 0001:0001f9a0       ?SetWindowLongPtrW@@YAJPAUHWND__@@HJ@Z 100209a0 f i Belt.obj
 0001:0001f9d0       ?ShowWindow@CWindow@ATL@@QAEHH@Z 100209d0 f i Belt.obj
 0001:0001fa50       ?Skip@?$CComEnumImpl@UIEnumConnectionPoints@@$1?_GUID_b196b285_bab4_101a_b69c_00aa00341d07@@3U__s_GUID@@BPAUIConnectionPoint@@V?$_CopyInterface@UIConnectionPoint@@@ATL@@@ATL@@UAGJK@Z 10020a50 f i Belt.obj
 0001:0001fad0       ?Skip@?$CComEnumImpl@UIEnumConnections@@$1?_GUID_b196b287_bab4_101a_b69c_00aa00341d07@@3U__s_GUID@@BUtagCONNECTDATA@@V?$_Copy@UtagCONNECTDATA@@@ATL@@@ATL@@UAGJK@Z 10020ad0 f i Belt.obj
 0001:0001fb50       ?SkipAssignment@CRegParser@ATL@@IAEJPA_W@Z 10020b50 f i Belt.obj
 0001:0001fc30       ?SkipWhiteSpace@CRegParser@ATL@@IAEXXZ 10020c30 f i Belt.obj
 0001:0001fc80       ?StartWindowProc@?$CWindowImplBaseT@VCWindow@ATL@@V?$CWinTraits@$0FGAAAAAA@$0A@@2@@ATL@@SGJPAUHWND__@@IIJ@Z 10020c80 f i Belt.obj
 0001:0001fda0       ?StrChrW@CRegParser@ATL@@KAPA_WPA_W_W@Z 10020da0 f i Belt.obj
 0001:0001fe10       ?StrFromMap@CRegObject@ATL@@QAEPB_WPA_W@Z 10020e10 f i Belt.obj
 0001:0001fea0       ?Swap@?$CComPtrBase@UIAdviseSink@@@ATL@@IAEXAAV12@@Z 10020ea0 f i Belt.obj
 0001:0001fee0       ?Swap@?$CComPtrBase@UIOleClientSite@@@ATL@@IAEXAAV12@@Z 10020ee0 f i Belt.obj
 0001:0001ff20       ?Swap@?$CComPtrBase@UIUnknown@@@ATL@@IAEXAAV12@@Z 10020f20 f i Belt.obj
 0001:0001ff60       ?T2COLE_EX@@YAPB_WPB_WI@Z  10020f60 f i Belt.obj
 0001:0001ff70       ?T2OLE_EX@@YAPA_WPA_WI@Z   10020f70 f i Belt.obj
 0001:0001ff80       ?Term@CAtlModule@ATL@@QAEXXZ 10020f80 f i Belt.obj
 0001:00020030       ?Term@CComModule@ATL@@QAEXXZ 10021030 f i Belt.obj
 0001:00020120       ?TranslateAcceleratorW@?$IOleInPlaceActiveObjectImpl@VCOPOSBelt@@@ATL@@UAGJPAUtagMSG@@@Z 10021120 f i Belt.obj
 0001:00020320       ?UIDeactivate@?$IOleInPlaceObjectWindowlessImpl@VCOPOSBelt@@@ATL@@UAGJXZ 10021320 f i Belt.obj
 0001:000203a0       ?Unadvise@?$CProxy_IOPOSEvents@VCOPOSBelt@@@@UAGJK@Z 100213a0 f i Belt.obj
 0001:000203e0       ?Unadvise@?$IConnectionPointImpl@VCOPOSBelt@@$1?DIID__IOPOSBeltEvents@@3U_GUID@@BVCComDynamicUnkArray@ATL@@@ATL@@UAGJK@Z 100213e0 f i Belt.obj
 0001:000204b0       ?Unadvise@?$IConnectionPointImpl@VCOPOSBelt@@$1?IID_IPropertyNotifySink@@3U_GUID@@BVCComDynamicUnkArray@ATL@@@ATL@@UAGJK@Z 100214b0 f i Belt.obj
 0001:00020580       ?Unadvise@?$IOleObjectImpl@VCOPOSBelt@@@ATL@@UAGJK@Z 10021580 f i Belt.obj
 0001:00020650       ?Unfreeze@?$IViewObjectExImpl@VCOPOSBelt@@@ATL@@UAGJK@Z 10021650 f i Belt.obj
 0001:000206c0       ?Unlock@?$CComCritSecLock@VCComCriticalSection@ATL@@@ATL@@QAEXXZ 100216c0 f i Belt.obj
 0001:00020730       ?Unlock@?$CComObjectRootEx@VCComSingleThreadModel@ATL@@@ATL@@QAEXXZ 10021730 f i Belt.obj
 0001:00020750       ?Unlock@CAtlModule@ATL@@UAEJXZ 10021750 f i Belt.obj
 0001:00020780       ?Unlock@CComCriticalSection@ATL@@QAEJXZ 10021780 f i Belt.obj
 0001:000207c0       ?Unlock@CComFakeCriticalSection@ATL@@QAEJXZ 100217c0 f i Belt.obj
 0001:000207e0       ?UnregisterServer@?$CAtlModuleT@VCComModule@ATL@@@ATL@@QAEJHPBU_GUID@@@Z 100217e0 f i Belt.obj
 0001:00020850       ?UnregisterServer@CAtlComModule@ATL@@QAEJHPBU_GUID@@@Z 10021850 f i Belt.obj
 0001:00020880       ?UnregisterServer@CComModule@ATL@@QAEJHPBU_GUID@@@Z 10021880 f i Belt.obj
 0001:00020960       ?Update@?$IOleObjectImpl@VCOPOSBelt@@@ATL@@UAGJXZ 10021960 f i Belt.obj
 0001:000209c0       ?UpdateRegistryFromResource@CAtlModule@ATL@@QAGJIHPAU_ATL_REGMAP_ENTRY@2@@Z 100219c0 f i Belt.obj
 0001:00020e90       ?UpdateRegistryFromResource@CAtlModule@ATL@@QAGJPB_WHPAU_ATL_REGMAP_ENTRY@2@@Z 10021e90 f i Belt.obj
 0001:00021380       ?UpdateRegistryFromResource@CComModule@ATL@@UAGJIHPAU_ATL_REGMAP_ENTRY@2@@Z 10022380 f i Belt.obj
 0001:000213b0       ?UpdateRegistryFromResource@CComModule@ATL@@UAGJPB_WHPAU_ATL_REGMAP_ENTRY@2@@Z 100223b0 f i Belt.obj
 0001:000213e0       ?UpdateRegistryFromResourceD@CComModule@ATL@@UAGJIHPAU_ATL_REGMAP_ENTRY@2@@Z 100223e0 f i Belt.obj
 0001:000213f0       ?UpdateRegistryFromResourceD@CComModule@ATL@@UAGJPB_WHPAU_ATL_REGMAP_ENTRY@2@@Z 100223f0 f i Belt.obj
 0001:00021400       ?VTFromRegType@CRegParser@ATL@@KAHPB_WAAG@Z 10022400 f i Belt.obj
 0001:000214e0       ?WindowProc@?$CWindowImplBaseT@VCWindow@ATL@@V?$CWinTraits@$0FGAAAAAA@$0A@@2@@ATL@@SGJPAUHWND__@@IIJ@Z 100224e0 f i Belt.obj
 0001:000216f0       ?WriteToStream@CComBSTR@ATL@@QAEJPAUIStream@@@Z 100226f0 f i Belt.obj
 0001:00021850       ?WriteToStream@CComVariant@ATL@@QAEJPAUIStream@@@Z 10022850 f i Belt.obj
 0001:00021b90       ?WriteToStream@CComVariant@ATL@@QAEJPAUIStream@@G@Z 10022b90 f i Belt.obj
 0001:00021c60       ?_AtlFinalConstruct@CComObjectRootBase@ATL@@QAEJXZ 10022c60 f i Belt.obj
 0001:00021c80       ?_AtlGetConversionACP@ATL@@YGIXZ 10022c80 f i Belt.obj
 0001:00021c90       ?_AtlInitialConstruct@?$CComAggObject@VCOPOSBelt@@@ATL@@QAEJXZ 10022c90 f i Belt.obj
 0001:00021ce0       ?_AtlInitialConstruct@?$CComObjectRootEx@VCComMultiThreadModel@ATL@@@ATL@@QAEJXZ 10022ce0 f i Belt.obj
 0001:00021d10       ?_AtlInitialConstruct@?$CComObjectRootEx@VCComSingleThreadModel@ATL@@@ATL@@QAEJXZ 10022d10 f i Belt.obj
 0001:00021d30       ?_AtlVerifyStackAvailable@_ATL_SAFE_ALLOCA_IMPL@ATL@@YA_NK@Z 10022d30 f i Belt.obj
 0001:00021ee0       ?_GetEntries@?$CComEnum@UIEnumConnectionPoints@@$1?_GUID_b196b285_bab4_101a_b69c_00aa00341d07@@3U__s_GUID@@BPAUIConnectionPoint@@V?$_CopyInterface@UIConnectionPoint@@@ATL@@VCComSingleThreadModel@6@@ATL@@SGPBU_ATL_INTMAP_ENTRY@2@XZ 10022ee0 f i Belt.obj
 0001:00021f00       ?_GetEntries@?$CComEnum@UIEnumConnections@@$1?_GUID_b196b287_bab4_101a_b69c_00aa00341d07@@3U__s_GUID@@BUtagCONNECTDATA@@V?$_Copy@UtagCONNECTDATA@@@ATL@@VCComSingleThreadModel@6@@ATL@@SGPBU_ATL_INTMAP_ENTRY@2@XZ 10022f00 f i Belt.obj
 0001:00021f20       ?_GetEntries@CComClassFactory@ATL@@SGPBU_ATL_INTMAP_ENTRY@2@XZ 10022f20 f i Belt.obj
 0001:00021f40       ?_GetEntries@COPOSBelt@@SGPBU_ATL_INTMAP_ENTRY@ATL@@XZ 10022f40 f i Belt.obj
 0001:00021f60       ?_GetRawUnknown@COPOSBelt@@QAEPAUIUnknown@@XZ 10022f60 f i Belt.obj
 0001:00021fd0       ?_GetViewStatus@COPOSBelt@@QAEKXZ 10022fd0 f i Belt.obj
 0001:00021ff0       ?_InternalQueryInterface@?$CComEnum@UIEnumConnectionPoints@@$1?_GUID_b196b285_bab4_101a_b69c_00aa00341d07@@3U__s_GUID@@BPAUIConnectionPoint@@V?$_CopyInterface@UIConnectionPoint@@@ATL@@VCComSingleThreadModel@6@@ATL@@QAEJABU_GUID@@PAPAX@Z 10022ff0 f i Belt.obj
 0001:00022030       ?_InternalQueryInterface@?$CComEnum@UIEnumConnections@@$1?_GUID_b196b287_bab4_101a_b69c_00aa00341d07@@3U__s_GUID@@BUtagCONNECTDATA@@V?$_Copy@UtagCONNECTDATA@@@ATL@@VCComSingleThreadModel@6@@ATL@@QAEJABU_GUID@@PAPAX@Z 10023030 f i Belt.obj
 0001:00022070       ?_InternalQueryInterface@CComClassFactory@ATL@@QAEJABU_GUID@@PAPAX@Z 10023070 f i Belt.obj
 0001:000220b0       ?_InternalQueryInterface@COPOSBelt@@QAEJABU_GUID@@PAPAX@Z 100230b0 f i Belt.obj
 0001:000220f0       ?_LocCPQueryInterface@?$IConnectionPointImpl@VCOPOSBelt@@$1?DIID__IOPOSBeltEvents@@3U_GUID@@BVCComDynamicUnkArray@ATL@@@ATL@@UAGJABU_GUID@@PAPAX@Z 100230f0 f i Belt.obj
 0001:00022190       ?_LocCPQueryInterface@?$IConnectionPointImpl@VCOPOSBelt@@$1?IID_IPropertyNotifySink@@3U_GUID@@BVCComDynamicUnkArray@ATL@@@ATL@@UAGJABU_GUID@@PAPAX@Z 10023190 f i Belt.obj
 0001:00022230       ?atlCreate@?$CWindowImpl@VCOPOSBelt@@VCWindow@ATL@@V?$CWinTraits@$0FGAAAAAA@$0A@@3@@ATL@@QAEPAUHWND__@@PAU3@V_U_RECT@2@PB_WKKV_U_MENUorID@2@PAX@Z 10023230 f i Belt.obj
 0001:000222e0       ?atlCreate@?$CWindowImplBaseT@VCWindow@ATL@@V?$CWinTraits@$0FGAAAAAA@$0A@@2@@ATL@@QAEPAUHWND__@@PAU3@V_U_RECT@2@PB_WKKV_U_MENUorID@2@GPAX@Z 100232e0 f i Belt.obj
 0001:00022460       ?atlCreate@CRegKey@ATL@@QAEJPAUHKEY__@@PB_WPA_WKKPAU_SECURITY_ATTRIBUTES@@PAK@Z 10023460 f i Belt.obj
 0001:000225c0       ?begin@CComDynamicUnkArray@ATL@@QAEPAPAUIUnknown@@XZ 100235c0 f i Belt.obj
 0001:000225e0       ?copy@?$_Copy@UtagCONNECTDATA@@@ATL@@SAJPAUtagCONNECTDATA@@PBU3@@Z 100235e0 f i Belt.obj
 0001:000226a0       ?copy@?$_CopyInterface@UIConnectionPoint@@@ATL@@SAJPAPAUIConnectionPoint@@PBQAU3@@Z 100236a0 f i Belt.obj
 0001:00022760       ?destroy@?$_Copy@UtagCONNECTDATA@@@ATL@@SAXPAUtagCONNECTDATA@@@Z 10023760 f i Belt.obj
 0001:000227a0       ?destroy@?$_CopyInterface@UIConnectionPoint@@@ATL@@SAXPAPAUIConnectionPoint@@@Z 100237a0 f i Belt.obj
 0001:000227e0       ?end@CComDynamicUnkArray@ATL@@QAEPAPAUIUnknown@@XZ 100237e0 f i Belt.obj
 0001:00022800       ?init@?$_Copy@UtagCONNECTDATA@@@ATL@@SAXPAUtagCONNECTDATA@@@Z 10023800 f i Belt.obj
 0001:00022810       ?init@?$_CopyInterface@UIConnectionPoint@@@ATL@@SAXPAPAUIConnectionPoint@@@Z 10023810 f i Belt.obj
 0001:00022820       ?memcpy_s@Checked@ATL@@YAXPAXIPBXI@Z 10023820 f i Belt.obj
 0001:00022850       ?ocscpy_s@@YA_NPA_WIPB_W@Z 10023850 f i Belt.obj
 0001:000228b0       ?ocslen@@YAHPB_W@Z         100238b0 f i Belt.obj
 0001:000228e0       ?tcsncpy_s@Checked@ATL@@YAHPA_WIPB_WI@Z 100238e0 f i Belt.obj
 0001:00022910       ?wcscat_s@Checked@ATL@@YAXPA_WIPB_W@Z 10023910 f i Belt.obj
 0001:00022940       ?wcscpy_s@Checked@ATL@@YAXPA_WIPB_W@Z 10023940 f i Belt.obj
 0001:00022970       ?wcsncpy_s@Checked@ATL@@YAHPA_WIPB_WI@Z 10023970 f i Belt.obj
 0001:000229a0       ?wcsstr@@YAPA_WPA_WPB_W@Z  100239a0 f i Belt.obj
 0001:000229c0       _InlineIsEqualGUID         100239c0 f i Belt.obj
 0001:00022a60       _IsEqualGUID               10023a60 f i Belt.obj
 0001:00022ab0       ??0COPOSBelt@@QAE@XZ       10023ab0 f   BeltImpl.obj
 0001:00022bc0       ?FinalConstruct@COPOSBelt@@QAEJXZ 10023bc0 f   BeltImpl.obj
 0001:00022c90       ??1COPOSBelt@@UAE@XZ       10023c90 f   BeltImpl.obj
 0001:00022d70       ?WriteTrace@COPOSBelt@@QAAXPB_WZZ 10023d70 f   BeltImpl.obj
 0001:00022e20       ?WriteTraceString@COPOSBelt@@QAEXPB_WPA_W@Z 10023e20 f   BeltImpl.obj
 0001:00023190       ?WriteTraceString@COPOSBelt@@QAAXPAXHHHPB_WZZ 10024190 f   BeltImpl.obj
 0001:000233c0       ?WriteTraceError@COPOSBelt@@QAEXPB_WK@Z 100243c0 f   BeltImpl.obj
 0001:000234b0       ?WriteTraceMethods@COPOSBelt@@QAEXPAJH@Z 100244b0 f   BeltImpl.obj
 0001:00023520       ?GetOposProp@COPOSBelt@@IAEJPBDJPAJJ@Z 10024520 f   BeltImpl.obj
 0001:00023790       ?SetOposProp@COPOSBelt@@IAEJPBDJJJ@Z 10024790 f   BeltImpl.obj
 0001:00023a20       ?GetOposProp@COPOSBelt@@IAEJPBDJPAFJ@Z 10024a20 f   BeltImpl.obj
 0001:00023ac0       ?SetOposProp@COPOSBelt@@IAEJPBDJFJ@Z 10024ac0 f   BeltImpl.obj
 0001:00023b20       ?GetOposProp@COPOSBelt@@IAEJPBDJPAPA_WJ@Z 10024b20 f   BeltImpl.obj
 0001:00023da0       ?SetOposProp@COPOSBelt@@IAEJPBDJPA_WJ@Z 10024da0 f   BeltImpl.obj
 0001:000240e0       ?DoInvoke@COPOSBelt@@IAEJPBDJPAVOposVariant@@IHPAJ_N@Z 100250e0 f   BeltImpl.obj
 0001:00024a10       ?SetCOFreezeEvents@COPOSBelt@@IAEXF@Z 10025a10 f   BeltImpl.obj
 0001:00024b50       ?FreezeEvents@COPOSBelt@@MAGJH@Z 10025b50 f   BeltImpl.obj
 0001:00024c10       ?OnDraw@COPOSBelt@@MAEJAAUATL_DRAWINFO@@@Z 10025c10 f   BeltImpl.obj
 0001:00024db0       ?SOProcessID@COPOSBelt@@UAGJPAJ@Z 10025db0 f   BeltImpl.obj
 0001:00024df0       ?get_OpenResult@COPOSBelt@@UAGJPAJ@Z 10025df0 f   BeltImpl.obj
 0001:00024e30       ?get_BinaryConversion@COPOSBelt@@UAGJPAJ@Z 10025e30 f   BeltImpl.obj
 0001:00024e60       ?put_BinaryConversion@COPOSBelt@@UAGJJ@Z 10025e60 f   BeltImpl.obj
 0001:00024e90       ?get_CapPowerReporting@COPOSBelt@@UAGJPAJ@Z 10025e90 f   BeltImpl.obj
 0001:00024ec0       ?get_CheckHealthText@COPOSBelt@@UAGJPAPA_W@Z 10025ec0 f   BeltImpl.obj
 0001:00024ef0       ?get_Claimed@COPOSBelt@@UAGJPAF@Z 10025ef0 f   BeltImpl.obj
 0001:00024f20       ?get_DeviceEnabled@COPOSBelt@@UAGJPAF@Z 10025f20 f   BeltImpl.obj
 0001:00024f50       ?put_DeviceEnabled@COPOSBelt@@UAGJF@Z 10025f50 f   BeltImpl.obj
 0001:00024f80       ?get_FreezeEvents@COPOSBelt@@UAGJPAF@Z 10025f80 f   BeltImpl.obj
 0001:00024fb0       ?put_FreezeEvents@COPOSBelt@@UAGJF@Z 10025fb0 f   BeltImpl.obj
 0001:00025040       ?get_PowerNotify@COPOSBelt@@UAGJPAJ@Z 10026040 f   BeltImpl.obj
 0001:00025070       ?put_PowerNotify@COPOSBelt@@UAGJJ@Z 10026070 f   BeltImpl.obj
 0001:000250a0       ?get_PowerState@COPOSBelt@@UAGJPAJ@Z 100260a0 f   BeltImpl.obj
 0001:000250d0       ?get_ResultCode@COPOSBelt@@UAGJPAJ@Z 100260d0 f   BeltImpl.obj
 0001:00025160       ?get_ResultCodeExtended@COPOSBelt@@UAGJPAJ@Z 10026160 f   BeltImpl.obj
 0001:00025190       ?get_State@COPOSBelt@@UAGJPAJ@Z 10026190 f   BeltImpl.obj
 0001:000251e0       ?get_ControlObjectDescription@COPOSBelt@@UAGJPAPA_W@Z 100261e0 f   BeltImpl.obj
 0001:00025260       ?get_ControlObjectVersion@COPOSBelt@@UAGJPAJ@Z 10026260 f   BeltImpl.obj
 0001:000252a0       ?get_ServiceObjectDescription@COPOSBelt@@UAGJPAPA_W@Z 100262a0 f   BeltImpl.obj
 0001:000252d0       ?get_ServiceObjectVersion@COPOSBelt@@UAGJPAJ@Z 100262d0 f   BeltImpl.obj
 0001:00025300       ?get_DeviceDescription@COPOSBelt@@UAGJPAPA_W@Z 10026300 f   BeltImpl.obj
 0001:00025330       ?get_DeviceName@COPOSBelt@@UAGJPAPA_W@Z 10026330 f   BeltImpl.obj
 0001:00025360       ?get_CapStatisticsReporting@COPOSBelt@@UAGJPAF@Z 10026360 f   BeltImpl.obj
 0001:00025390       ?get_CapUpdateStatistics@COPOSBelt@@UAGJPAF@Z 10026390 f   BeltImpl.obj
 0001:000253c0       ?get_CapCompareFirmwareVersion@COPOSBelt@@UAGJPAF@Z 100263c0 f   BeltImpl.obj
 0001:000253f0       ?get_CapUpdateFirmware@COPOSBelt@@UAGJPAF@Z 100263f0 f   BeltImpl.obj
 0001:00025420       ?CheckHealth@COPOSBelt@@UAGJJPAJ@Z 10026420 f   BeltImpl.obj
 0001:000254c0       ?ClaimDevice@COPOSBelt@@UAGJJPAJ@Z 100264c0 f   BeltImpl.obj
 0001:000255a0       ?Close@COPOSBelt@@UAGJPAJ@Z 100265a0 f   BeltImpl.obj
 0001:00025670       ?DirectIO@COPOSBelt@@UAGJJPAJPAPA_W0@Z 10026670 f   BeltImpl.obj
 0001:00025780       ?Open@COPOSBelt@@UAGJPA_WPAJ@Z 10026780 f   BeltImpl.obj
 0001:00026970       ?ReleaseDevice@COPOSBelt@@UAGJPAJ@Z 10027970 f   BeltImpl.obj
 0001:000269e0       ?ResetStatistics@COPOSBelt@@UAGJPA_WPAJ@Z 100279e0 f   BeltImpl.obj
 0001:00026a90       ?RetrieveStatistics@COPOSBelt@@UAGJPAPA_WPAJ@Z 10027a90 f   BeltImpl.obj
 0001:00026b40       ?UpdateStatistics@COPOSBelt@@UAGJPA_WPAJ@Z 10027b40 f   BeltImpl.obj
 0001:00026bf0       ?CompareFirmwareVersion@COPOSBelt@@UAGJPA_WPAJ1@Z 10027bf0 f   BeltImpl.obj
 0001:00026ce0       ?UpdateFirmware@COPOSBelt@@UAGJPA_WPAJ@Z 10027ce0 f   BeltImpl.obj
 0001:00026d90       ?get_AutoStopBackward@COPOSBelt@@UAGJPAF@Z 10027d90 f   BeltImpl.obj
 0001:00026dc0       ?put_AutoStopBackward@COPOSBelt@@UAGJF@Z 10027dc0 f   BeltImpl.obj
 0001:00026df0       ?get_AutoStopBackwardDelayTime@COPOSBelt@@UAGJPAJ@Z 10027df0 f   BeltImpl.obj
 0001:00026e20       ?put_AutoStopBackwardDelayTime@COPOSBelt@@UAGJJ@Z 10027e20 f   BeltImpl.obj
 0001:00026e50       ?get_AutoStopBackwardItemCount@COPOSBelt@@UAGJPAJ@Z 10027e50 f   BeltImpl.obj
 0001:00026e80       ?get_AutoStopForward@COPOSBelt@@UAGJPAF@Z 10027e80 f   BeltImpl.obj
 0001:00026eb0       ?put_AutoStopForward@COPOSBelt@@UAGJF@Z 10027eb0 f   BeltImpl.obj
 0001:00026ee0       ?get_AutoStopForwardDelayTime@COPOSBelt@@UAGJPAJ@Z 10027ee0 f   BeltImpl.obj
 0001:00026f10       ?put_AutoStopForwardDelayTime@COPOSBelt@@UAGJJ@Z 10027f10 f   BeltImpl.obj
 0001:00026f40       ?get_AutoStopForwardItemCount@COPOSBelt@@UAGJPAJ@Z 10027f40 f   BeltImpl.obj
 0001:00026f70       ?get_CapAutoStopBackward@COPOSBelt@@UAGJPAF@Z 10027f70 f   BeltImpl.obj
 0001:00026fa0       ?get_CapAutoStopBackwardItemCount@COPOSBelt@@UAGJPAF@Z 10027fa0 f   BeltImpl.obj
 0001:00026fd0       ?get_CapAutoStopForward@COPOSBelt@@UAGJPAF@Z 10027fd0 f   BeltImpl.obj
 0001:00027000       ?get_CapAutoStopForwardItemCount@COPOSBelt@@UAGJPAF@Z 10028000 f   BeltImpl.obj
 0001:00027030       ?get_CapLightBarrierBackward@COPOSBelt@@UAGJPAF@Z 10028030 f   BeltImpl.obj
 0001:00027060       ?get_CapLightBarrierForward@COPOSBelt@@UAGJPAF@Z 10028060 f   BeltImpl.obj
 0001:00027090       ?get_CapMoveBackward@COPOSBelt@@UAGJPAF@Z 10028090 f   BeltImpl.obj
 0001:000270c0       ?get_CapSecurityFlapBackward@COPOSBelt@@UAGJPAF@Z 100280c0 f   BeltImpl.obj
 0001:000270f0       ?get_CapSecurityFlapForward@COPOSBelt@@UAGJPAF@Z 100280f0 f   BeltImpl.obj
 0001:00027120       ?get_CapSpeedStepsBackward@COPOSBelt@@UAGJPAJ@Z 10028120 f   BeltImpl.obj
 0001:00027150       ?get_CapSpeedStepsForward@COPOSBelt@@UAGJPAJ@Z 10028150 f   BeltImpl.obj
 0001:00027180       ?get_LightBarrierBackwardInterrupted@COPOSBelt@@UAGJPAF@Z 10028180 f   BeltImpl.obj
 0001:000271b0       ?get_LightBarrierForwardInterrupted@COPOSBelt@@UAGJPAF@Z 100281b0 f   BeltImpl.obj
 0001:000271e0       ?get_MotionStatus@COPOSBelt@@UAGJPAJ@Z 100281e0 f   BeltImpl.obj
 0001:00027210       ?get_SecurityFlapBackwardOpened@COPOSBelt@@UAGJPAF@Z 10028210 f   BeltImpl.obj
 0001:00027240       ?get_SecurityFlapForwardOpened@COPOSBelt@@UAGJPAF@Z 10028240 f   BeltImpl.obj
 0001:00027270       ?AdjustItemCount@COPOSBelt@@UAGJJJPAJ@Z 10028270 f   BeltImpl.obj
 0001:00027340       ?MoveBackward@COPOSBelt@@UAGJJPAJ@Z 10028340 f   BeltImpl.obj
 0001:000273e0       ?MoveForward@COPOSBelt@@UAGJJPAJ@Z 100283e0 f   BeltImpl.obj
 0001:00027480       ?ResetBelt@COPOSBelt@@UAGJPAJ@Z 10028480 f   BeltImpl.obj
 0001:000274b0       ?ResetItemCount@COPOSBelt@@UAGJJPAJ@Z 100284b0 f   BeltImpl.obj
 0001:00027550       ?StopBelt@COPOSBelt@@UAGJPAJ@Z 10028550 f   BeltImpl.obj
 0001:00027580       ??0?$CComControl@VCOPOSBelt@@V?$CWindowImpl@VCOPOSBelt@@VCWindow@ATL@@V?$CWinTraits@$0FGAAAAAA@$0A@@3@@ATL@@@ATL@@QAE@XZ 10028580 f i BeltImpl.obj
 0001:000275c0       ??0?$CComPtr@UIAdviseSink@@@ATL@@QAE@XZ 100285c0 f i BeltImpl.obj
 0001:000275f0       ??0?$CComPtr@UIDataAdviseHolder@@@ATL@@QAE@XZ 100285f0 f i BeltImpl.obj
 0001:00027620       ??0?$CComPtr@UIOleAdviseHolder@@@ATL@@QAE@XZ 10028620 f i BeltImpl.obj
 0001:00027650       ??0?$CComPtr@UIOleClientSite@@@ATL@@QAE@XZ 10028650 f i BeltImpl.obj
 0001:00027680       ??0?$CComPtr@UIOleInPlaceSiteWindowless@@@ATL@@QAE@XZ 10028680 f i BeltImpl.obj
 0001:000276b0       ??0?$CComPtrBase@UIAdviseSink@@@ATL@@IAE@XZ 100286b0 f i BeltImpl.obj
 0001:000276d0       ??0?$CComPtrBase@UIDataAdviseHolder@@@ATL@@IAE@XZ 100286d0 f i BeltImpl.obj
 0001:000276f0       ??0?$CComPtrBase@UIOleAdviseHolder@@@ATL@@IAE@XZ 100286f0 f i BeltImpl.obj
 0001:00027710       ??0?$CComPtrBase@UIOleClientSite@@@ATL@@IAE@XZ 10028710 f i BeltImpl.obj
 0001:00027730       ??0?$CComPtrBase@UIOleInPlaceSiteWindowless@@@ATL@@IAE@XZ 10028730 f i BeltImpl.obj
 0001:00027750       ??0?$CComQIPtr@UIDispatch@@$1?_GUID_00020400_0000_0000_c000_000000000046@@3U__s_GUID@@B@ATL@@QAE@XZ 10028750 f i BeltImpl.obj
 0001:00027780       ??0?$CProxy_IOPOSEvents@VCOPOSBelt@@@@QAE@PAVCOPOSBelt@@@Z 10028780 f i BeltImpl.obj
 0001:000277d0       ??0?$CWindowImpl@VCOPOSBelt@@VCWindow@ATL@@V?$CWinTraits@$0FGAAAAAA@$0A@@3@@ATL@@QAE@XZ 100287d0 f i BeltImpl.obj
 0001:00027800       ??0?$CWindowImplBaseT@VCWindow@ATL@@V?$CWinTraits@$0FGAAAAAA@$0A@@2@@ATL@@QAE@XZ 10028800 f i BeltImpl.obj
 0001:00027840       ??0?$CWindowImplRoot@VCWindow@ATL@@@ATL@@QAE@XZ 10028840 f i BeltImpl.obj
 0001:000278a0       ??0?$IConnectionPointContainerImpl@VCOPOSBelt@@@ATL@@QAE@XZ 100288a0 f i BeltImpl.obj
 0001:000278d0       ??0?$IConnectionPointImpl@VCOPOSBelt@@$1?DIID__IOPOSBeltEvents@@3U_GUID@@BVCComDynamicUnkArray@ATL@@@ATL@@QAE@XZ 100288d0 f i BeltImpl.obj
 0001:00027910       ??0?$IConnectionPointImpl@VCOPOSBelt@@$1?IID_IPropertyNotifySink@@3U_GUID@@BVCComDynamicUnkArray@ATL@@@ATL@@QAE@XZ 10028910 f i BeltImpl.obj
 0001:00027950       ??0?$IDataObjectImpl@VCOPOSBelt@@@ATL@@QAE@XZ 10028950 f i BeltImpl.obj
 0001:00027980       ??0?$IDispatchImpl@UIOPOSBelt@@$1?IID_IOPOSBelt@@3U_GUID@@B$1?LIBID_OposBelt_CCO@@3U3@B$00$0A@VCComTypeInfoHolder@ATL@@@ATL@@QAE@XZ 10028980 f i BeltImpl.obj
 0001:000279b0       ??0?$IObjectSafetyImpl@VCOPOSBelt@@$02@ATL@@QAE@XZ 100289b0 f i BeltImpl.obj
 0001:000279f0       ??0?$IOleControlImpl@VCOPOSBelt@@@ATL@@QAE@XZ 100289f0 f i BeltImpl.obj
 0001:00027a20       ??0?$IOleInPlaceActiveObjectImpl@VCOPOSBelt@@@ATL@@QAE@XZ 10028a20 f i BeltImpl.obj
 0001:00027a50       ??0?$IOleInPlaceObjectWindowlessImpl@VCOPOSBelt@@@ATL@@QAE@XZ 10028a50 f i BeltImpl.obj
 0001:00027a80       ??0?$IOleObjectImpl@VCOPOSBelt@@@ATL@@QAE@XZ 10028a80 f i BeltImpl.obj
 0001:00027ab0       ??0?$IPersistStorageImpl@VCOPOSBelt@@@ATL@@QAE@XZ 10028ab0 f i BeltImpl.obj
 0001:00027ae0       ??0?$IPersistStreamInitImpl@VCOPOSBelt@@@ATL@@QAE@XZ 10028ae0 f i BeltImpl.obj
 0001:00027b10       ??0?$IPropertyNotifySinkCP@VCOPOSBelt@@VCComDynamicUnkArray@ATL@@@ATL@@QAE@XZ 10028b10 f i BeltImpl.obj
 0001:00027b40       ??0?$IProvideClassInfo2Impl@$1?CLSID_OPOSBelt@@3U_GUID@@B$1?DIID__IOPOSBeltEvents@@3U2@B$1?LIBID_OposBelt_CCO@@3U2@B$00$0A@VCComTypeInfoHolder@ATL@@@ATL@@QAE@XZ 10028b40 f i BeltImpl.obj
 0001:00027b70       ??0?$IQuickActivateImpl@VCOPOSBelt@@@ATL@@QAE@XZ 10028b70 f i BeltImpl.obj
 0001:00027ba0       ??0?$ISpecifyPropertyPagesImpl@VCOPOSBelt@@@ATL@@QAE@XZ 10028ba0 f i BeltImpl.obj
 0001:00027bd0       ??0?$IViewObjectExImpl@VCOPOSBelt@@@ATL@@QAE@XZ 10028bd0 f i BeltImpl.obj
 0001:00027c00       ??0?$_ICPLocator@$1?DIID__IOPOSBeltEvents@@3U_GUID@@B@ATL@@QAE@XZ 10028c00 f i BeltImpl.obj
 0001:00027c20       ??0?$_ICPLocator@$1?IID_IPropertyNotifySink@@3U_GUID@@B@ATL@@QAE@XZ 10028c20 f i BeltImpl.obj
 0001:00027c40       ??0CComControlBase@ATL@@QAE@AAPAUHWND__@@@Z 10028c40 f i BeltImpl.obj
 0001:00027df0       ??0CComDynamicUnkArray@ATL@@QAE@XZ 10028df0 f i BeltImpl.obj
 0001:00027e20       ??0CDynamicStdCallThunk2@ATL@@QAE@XZ 10028e20 f i BeltImpl.obj
 0001:00027e40       ??0CMessageMap@ATL@@QAE@XZ 10028e40 f i BeltImpl.obj
 0001:00027e60       ??0CWindow@ATL@@QAE@PAUHWND__@@@Z 10028e60 f i BeltImpl.obj
 0001:00027e80       ??0CWndProcThunk@ATL@@QAE@XZ 10028e80 f i BeltImpl.obj
 0001:00027eb0       ??0IConnectionPointContainer@@QAE@XZ 10028eb0 f i BeltImpl.obj
 0001:00027ee0       ??0IDataObject@@QAE@XZ     10028ee0 f i BeltImpl.obj
 0001:00027f10       ??0IDispatch@@QAE@XZ       10028f10 f i BeltImpl.obj
 0001:00027f40       ??0IOPOSBelt@@QAE@XZ       10028f40 f i BeltImpl.obj
 0001:00027f70       ??0IOPOSBelt_1_12@@QAE@XZ  10028f70 f i BeltImpl.obj
 0001:00027fa0       ??0IObjectSafety@@QAE@XZ   10028fa0 f i BeltImpl.obj
 0001:00027fd0       ??0IOleControl@@QAE@XZ     10028fd0 f i BeltImpl.obj
 0001:00028000       ??0IOleInPlaceActiveObject@@QAE@XZ 10029000 f i BeltImpl.obj
 0001:00028030       ??0IOleInPlaceObject@@QAE@XZ 10029030 f i BeltImpl.obj
 0001:00028060       ??0IOleInPlaceObjectWindowless@@QAE@XZ 10029060 f i BeltImpl.obj
 0001:00028090       ??0IOleObject@@QAE@XZ      10029090 f i BeltImpl.obj
 0001:000280c0       ??0IOleWindow@@QAE@XZ      100290c0 f i BeltImpl.obj
 0001:000280f0       ??0IPersist@@QAE@XZ        100290f0 f i BeltImpl.obj
 0001:00028120       ??0IPersistStorage@@QAE@XZ 10029120 f i BeltImpl.obj
 0001:00028150       ??0IPersistStreamInit@@QAE@XZ 10029150 f i BeltImpl.obj
 0001:00028180       ??0IProvideClassInfo2@@QAE@XZ 10029180 f i BeltImpl.obj
 0001:000281b0       ??0IProvideClassInfo@@QAE@XZ 100291b0 f i BeltImpl.obj
 0001:000281e0       ??0IQuickActivate@@QAE@XZ  100291e0 f i BeltImpl.obj
 0001:00028210       ??0ISpecifyPropertyPages@@QAE@XZ 10029210 f i BeltImpl.obj
 0001:00028240       ??0IViewObject2@@QAE@XZ    10029240 f i BeltImpl.obj
 0001:00028270       ??0IViewObject@@QAE@XZ     10029270 f i BeltImpl.obj
 0001:000282a0       ??0IViewObjectEx@@QAE@XZ   100292a0 f i BeltImpl.obj
 0001:000282d0       ??0OposVariantResult@@QAE@XZ 100292d0 f i BeltImpl.obj
 0001:00028300       ??0_CW@@QAE@PBD@Z          10029300 f i BeltImpl.obj
 0001:00028340       ??0_CW@@QAE@PB_W@Z         10029340 f i BeltImpl.obj
 0001:00028380       ??0_CWNCC@@QAE@PBD@Z       10029380 f i BeltImpl.obj
 0001:000283b0       ??1?$CComControl@VCOPOSBelt@@V?$CWindowImpl@VCOPOSBelt@@VCWindow@ATL@@V?$CWinTraits@$0FGAAAAAA@$0A@@3@@ATL@@@ATL@@UAE@XZ 100293b0 f i BeltImpl.obj
 0001:000283e0       ??1?$CComPtr@UIDataAdviseHolder@@@ATL@@QAE@XZ 100293e0 f i BeltImpl.obj
 0001:00028410       ??1?$CComPtr@UIOleAdviseHolder@@@ATL@@QAE@XZ 10029410 f i BeltImpl.obj
 0001:00028440       ??1?$CComPtr@UIOleInPlaceSiteWindowless@@@ATL@@QAE@XZ 10029440 f i BeltImpl.obj
 0001:00028470       ??1?$CComPtrBase@UIDataAdviseHolder@@@ATL@@QAE@XZ 10029470 f i BeltImpl.obj
 0001:000284c0       ??1?$CComPtrBase@UIOleAdviseHolder@@@ATL@@QAE@XZ 100294c0 f i BeltImpl.obj
 0001:00028510       ??1?$CComPtrBase@UIOleInPlaceSiteWindowless@@@ATL@@QAE@XZ 10029510 f i BeltImpl.obj
 0001:00028560       ??1?$CComQIPtr@UIDispatch@@$1?_GUID_00020400_0000_0000_c000_000000000046@@3U__s_GUID@@B@ATL@@QAE@XZ 10029560 f i BeltImpl.obj
 0001:00028590       ??1?$CProxy_IOPOSEvents@VCOPOSBelt@@@@QAE@XZ 10029590 f i BeltImpl.obj
 0001:000285c0       ??1?$CWindowImpl@VCOPOSBelt@@VCWindow@ATL@@V?$CWinTraits@$0FGAAAAAA@$0A@@3@@ATL@@UAE@XZ 100295c0 f i BeltImpl.obj
 0001:000285f0       ??1?$CWindowImplBaseT@VCWindow@ATL@@V?$CWinTraits@$0FGAAAAAA@$0A@@2@@ATL@@UAE@XZ 100295f0 f i BeltImpl.obj
 0001:00028620       ??1?$CWindowImplRoot@VCWindow@ATL@@@ATL@@UAE@XZ 10029620 f i BeltImpl.obj
 0001:000286c0       ??1?$IConnectionPointImpl@VCOPOSBelt@@$1?DIID__IOPOSBeltEvents@@3U_GUID@@BVCComDynamicUnkArray@ATL@@@ATL@@QAE@XZ 100296c0 f i BeltImpl.obj
 0001:00028740       ??1?$IConnectionPointImpl@VCOPOSBelt@@$1?IID_IPropertyNotifySink@@3U_GUID@@BVCComDynamicUnkArray@ATL@@@ATL@@QAE@XZ 10029740 f i BeltImpl.obj
 0001:000287c0       ??1?$IPropertyNotifySinkCP@VCOPOSBelt@@VCComDynamicUnkArray@ATL@@@ATL@@QAE@XZ 100297c0 f i BeltImpl.obj
 0001:000287f0       ??1CComControlBase@ATL@@UAE@XZ 100297f0 f i BeltImpl.obj
 0001:000288b0       ??1CComDynamicUnkArray@ATL@@QAE@XZ 100298b0 f i BeltImpl.obj
 0001:000288f0       ??1CDynamicStdCallThunk2@ATL@@QAE@XZ 100298f0 f i BeltImpl.obj
 0001:00028920       ??1CWndProcThunk@ATL@@QAE@XZ 10029920 f i BeltImpl.obj
 0001:00028950       ??1OposVariantResult@@QAE@XZ 10029950 f i BeltImpl.obj
 0001:00028980       ??1_CW@@QAE@XZ             10029980 f i BeltImpl.obj
 0001:000289f0       ??1_CWNCC@@QAE@XZ          100299f0 f i BeltImpl.obj
 0001:00028a20       ??B_CW@@QAEPB_WXZ          10029a20 f i BeltImpl.obj
 0001:00028a60       ??B_CWNCC@@QAEPA_WXZ       10029a60 f i BeltImpl.obj
 0001:00028a90       ??_EOposVariant@@QAEPAXI@Z 10029a90 f i BeltImpl.obj
 0001:00028b20       ?EventClaim@COPOSBelt@@IAEXXZ 10029b20 f i BeltImpl.obj
 0001:00028b60       ?EventClose@COPOSBelt@@IAEXXZ 10029b60 f i BeltImpl.obj
 0001:00028c00       ?EventInit@COPOSBelt@@IAEJXZ 10029c00 f i BeltImpl.obj
 0001:00028e30       ?EventOpen@COPOSBelt@@IAEXXZ 10029e30 f i BeltImpl.obj
 0001:00028e70       ?EventPreCloseRelease@COPOSBelt@@IAEXXZ 10029e70 f i BeltImpl.obj
 0001:00028ef0       ?EventUninit@COPOSBelt@@IAEXXZ 10029ef0 f i BeltImpl.obj
 0001:00029020       ?EventWindowProc@COPOSBelt@@IAGJIIJ@Z 1002a020 f i BeltImpl.obj
 0001:00029100       ?FireEventCleanup@COPOSBelt@@IAEXXZ 1002a100 f i BeltImpl.obj
 0001:00029150       ?FireEventSetup@COPOSBelt@@IAE_NXZ 1002a150 f i BeltImpl.obj
 0001:000291c0       ?GetModuleInstance@CComModule@ATL@@QAEPAUHINSTANCE__@@XZ 1002a1c0 f i BeltImpl.obj
 0001:000291e0       ?SetRC@COPOSBelt@@IAEJJ@Z  1002a1e0 f i BeltImpl.obj
 0001:00029210       ?s_EventWindowProc@COPOSBelt@@KGJPAUHWND__@@IIJ@Z 1002a210 f i BeltImpl.obj
 0001:000292b0       __snwprintf                1002a2b0 f i BeltImpl.obj
 0001:00029310       __vfwprintf_l              1002a310 f i BeltImpl.obj
 0001:00029340       __vsnwprintf               1002a340 f i BeltImpl.obj
 0001:00029370       __vsnwprintf_l             1002a370 f i BeltImpl.obj
 0001:000293e0       _vfwprintf                 1002a3e0 f i BeltImpl.obj
 0001:00029402       _DebugBreak@0              1002a402 f   kernel32:KERNEL32.dll
 0001:00029408       _Sleep@4                   1002a408 f   kernel32:KERNEL32.dll
 0001:0002940e       _GetCurrentProcess@0       1002a40e f   kernel32:KERNEL32.dll
 0001:00029414       _TerminateProcess@8        1002a414 f   kernel32:KERNEL32.dll
 0001:0002941a       _MultiByteToWideChar@24    1002a41a f   kernel32:KERNEL32.dll
 0001:00029420       _WideCharToMultiByte@32    1002a420 f   kernel32:KERNEL32.dll
 0001:00029426       _DecodePointer@4           1002a426 f   kernel32:KERNEL32.dll
 0001:0002942c       _RaiseException@16         1002a42c f   kernel32:KERNEL32.dll
 0001:00029432       _GetLastError@0            1002a432 f   kernel32:KERNEL32.dll
 0001:00029438       _SetLastError@4            1002a438 f   kernel32:KERNEL32.dll
 0001:0002943e       _InitializeCriticalSectionEx@12 1002a43e f   kernel32:KERNEL32.dll
 0001:00029444       _DeleteCriticalSection@4   1002a444 f   kernel32:KERNEL32.dll
 0001:0002944a       _EncodePointer@4           1002a44a f   kernel32:KERNEL32.dll
 0001:00029450       _EnterCriticalSection@4    1002a450 f   kernel32:KERNEL32.dll
 0001:00029456       _LeaveCriticalSection@4    1002a456 f   kernel32:KERNEL32.dll
 0001:0002945c       _ResetEvent@4              1002a45c f   kernel32:KERNEL32.dll
 0001:00029462       _ReleaseMutex@4            1002a462 f   kernel32:KERNEL32.dll
 0001:00029468       _WaitForSingleObject@8     1002a468 f   kernel32:KERNEL32.dll
 0001:0002946e       _GetCurrentThreadId@0      1002a46e f   kernel32:KERNEL32.dll
 0001:00029474       _DisableThreadLibraryCalls@4 1002a474 f   kernel32:KERNEL32.dll
 0001:0002947a       _FreeLibrary@4             1002a47a f   kernel32:KERNEL32.dll
 0001:00029480       _GetModuleFileNameW@12     1002a480 f   kernel32:KERNEL32.dll
 0001:00029486       _GetModuleHandleW@4        1002a486 f   kernel32:KERNEL32.dll
 0001:0002948c       _GetProcAddress@8          1002a48c f   kernel32:KERNEL32.dll
 0001:00029492       _LoadLibraryExW@12         1002a492 f   kernel32:KERNEL32.dll
 0001:00029498       _LoadResource@8            1002a498 f   kernel32:KERNEL32.dll
 0001:0002949e       _SizeofResource@8          1002a49e f   kernel32:KERNEL32.dll
 0001:000294a4       _FindResourceW@12          1002a4a4 f   kernel32:KERNEL32.dll
 0001:000294aa       _GlobalAlloc@8             1002a4aa f   kernel32:KERNEL32.dll
 0001:000294b0       _GlobalUnlock@4            1002a4b0 f   kernel32:KERNEL32.dll
 0001:000294b6       _GlobalLock@4              1002a4b6 f   kernel32:KERNEL32.dll
 0001:000294bc       _MulDiv@12                 1002a4bc f   kernel32:KERNEL32.dll
 0001:000294c2       _lstrcmpiW@8               1002a4c2 f   kernel32:KERNEL32.dll
 0001:000294c8       _DeleteFileW@4             1002a4c8 f   kernel32:KERNEL32.dll
 0001:000294ce       _CloseHandle@4             1002a4ce f   kernel32:KERNEL32.dll
 0001:000294d4       _SetEvent@4                1002a4d4 f   kernel32:KERNEL32.dll
 0001:000294da       _CreateMutexW@12           1002a4da f   kernel32:KERNEL32.dll
 0001:000294e0       _CreateEventW@16           1002a4e0 f   kernel32:KERNEL32.dll
 0001:000294e6       _GetCurrentProcessId@0     1002a4e6 f   kernel32:KERNEL32.dll
 0001:000294ec       _LocalFree@4               1002a4ec f   kernel32:KERNEL32.dll
 0001:000294f2       _FormatMessageW@28         1002a4f2 f   kernel32:KERNEL32.dll
 0001:000294f8       _GetActiveWindow@0         1002a4f8 f   user32:USER32.dll
 0001:000294fe       _MessageBoxW@16            1002a4fe f   user32:USER32.dll
 0001:00029504       _UnregisterClassW@8        1002a504 f   user32:USER32.dll
 0001:0002950a       _PostMessageW@16           1002a50a f   user32:USER32.dll
 0001:00029510       _DefWindowProcW@16         1002a510 f   user32:USER32.dll
 0001:00029516       _CallWindowProcW@20        1002a516 f   user32:USER32.dll
 0001:0002951c       _RegisterClassExW@4        1002a51c f   user32:USER32.dll
 0001:00029522       _GetClassInfoExW@12        1002a522 f   user32:USER32.dll
 0001:00029528       _CreateWindowExW@48        1002a528 f   user32:USER32.dll
 0001:0002952e       _IsWindow@4                1002a52e f   user32:USER32.dll
 0001:00029534       _IsChild@8                 1002a534 f   user32:USER32.dll
 0001:0002953a       _DestroyWindow@4           1002a53a f   user32:USER32.dll
 0001:00029540       _ShowWindow@8              1002a540 f   user32:USER32.dll
 0001:00029546       _SetWindowPos@28           1002a546 f   user32:USER32.dll
 0001:0002954c       _CharNextW@4               1002a54c f   user32:USER32.dll
 0001:00029552       _SetFocus@4                1002a552 f   user32:USER32.dll
 0001:00029558       _GetFocus@0                1002a558 f   user32:USER32.dll
 0001:0002955e       _GetKeyState@4             1002a55e f   user32:USER32.dll
 0001:00029564       _GetDC@4                   1002a564 f   user32:USER32.dll
 0001:0002956a       _ReleaseDC@8               1002a56a f   user32:USER32.dll
 0001:00029570       _BeginPaint@8              1002a570 f   user32:USER32.dll
 0001:00029576       _EndPaint@8                1002a576 f   user32:USER32.dll
 0001:0002957c       _SetWindowRgn@12           1002a57c f   user32:USER32.dll
 0001:00029582       _InvalidateRect@12         1002a582 f   user32:USER32.dll
 0001:00029588       _GetClientRect@8           1002a588 f   user32:USER32.dll
 0001:0002958e       _IntersectRect@12          1002a58e f   user32:USER32.dll
 0001:00029594       _UnionRect@12              1002a594 f   user32:USER32.dll
 0001:0002959a       _OffsetRect@12             1002a59a f   user32:USER32.dll
 0001:000295a0       _EqualRect@8               1002a5a0 f   user32:USER32.dll
 0001:000295a6       _PtInRect@12               1002a5a6 f   user32:USER32.dll
 0001:000295ac       _GetWindowLongW@8          1002a5ac f   user32:USER32.dll
 0001:000295b2       _SetWindowLongW@12         1002a5b2 f   user32:USER32.dll
 0001:000295b8       _GetParent@4               1002a5b8 f   user32:USER32.dll
 0001:000295be       _LoadCursorW@8             1002a5be f   user32:USER32.dll
 0001:000295c4       _PeekMessageW@20           1002a5c4 f   user32:USER32.dll
 0001:000295ca       _RegisterClassW@4          1002a5ca f   user32:USER32.dll
 0001:000295d0       _LoadBitmapW@8             1002a5d0 f   user32:USER32.dll
 0001:000295d6       _CloseMetaFile@4           1002a5d6 f   gdi32:GDI32.dll
 0001:000295dc       _CreateDCW@16              1002a5dc f   gdi32:GDI32.dll
 0001:000295e2       _CreateMetaFileW@4         1002a5e2 f   gdi32:GDI32.dll
 0001:000295e8       _CreateRectRgnIndirect@4   1002a5e8 f   gdi32:GDI32.dll
 0001:000295ee       _DeleteDC@4                1002a5ee f   gdi32:GDI32.dll
 0001:000295f4       _DeleteMetaFile@4          1002a5f4 f   gdi32:GDI32.dll
 0001:000295fa       _GetDeviceCaps@8           1002a5fa f   gdi32:GDI32.dll
 0001:00029600       _RestoreDC@8               1002a600 f   gdi32:GDI32.dll
 0001:00029606       _SaveDC@4                  1002a606 f   gdi32:GDI32.dll
 0001:0002960c       _SetMapMode@8              1002a60c f   gdi32:GDI32.dll
 0001:00029612       _LPtoDP@12                 1002a612 f   gdi32:GDI32.dll
 0001:00029618       _SetViewportOrgEx@16       1002a618 f   gdi32:GDI32.dll
 0001:0002961e       _SetWindowExtEx@16         1002a61e f   gdi32:GDI32.dll
 0001:00029624       _SetWindowOrgEx@16         1002a624 f   gdi32:GDI32.dll
 0001:0002962a       _BitBlt@36                 1002a62a f   gdi32:GDI32.dll
 0001:00029630       _CreateCompatibleDC@4      1002a630 f   gdi32:GDI32.dll
 0001:00029636       _DeleteObject@4            1002a636 f   gdi32:GDI32.dll
 0001:0002963c       _SelectObject@8            1002a63c f   gdi32:GDI32.dll
 0001:00029642       _GetObjectW@12             1002a642 f   gdi32:GDI32.dll
 0001:00029648       _RegCloseKey@4             1002a648 f   advapi32:ADVAPI32.dll
 0001:0002964e       _RegCreateKeyExW@36        1002a64e f   advapi32:ADVAPI32.dll
 0001:00029654       _RegDeleteKeyW@8           1002a654 f   advapi32:ADVAPI32.dll
 0001:0002965a       _RegDeleteValueW@8         1002a65a f   advapi32:ADVAPI32.dll
 0001:00029660       _RegEnumKeyExW@32          1002a660 f   advapi32:ADVAPI32.dll
 0001:00029666       _RegOpenKeyExW@20          1002a666 f   advapi32:ADVAPI32.dll
 0001:0002966c       _RegQueryInfoKeyW@48       1002a66c f   advapi32:ADVAPI32.dll
 0001:00029672       _RegSetValueExW@24         1002a672 f   advapi32:ADVAPI32.dll
 0001:00029678       _RegQueryValueExW@24       1002a678 f   advapi32:ADVAPI32.dll
 0001:0002967e       _CoCreateInstance@20       1002a67e f   ole32:ole32.dll
 0001:00029684       _StringFromGUID2@12        1002a684 f   ole32:ole32.dll
 0001:0002968a       _CoTaskMemAlloc@4          1002a68a f   ole32:ole32.dll
 0001:00029690       _CoTaskMemRealloc@8        1002a690 f   ole32:ole32.dll
 0001:00029696       _CoTaskMemFree@4           1002a696 f   ole32:ole32.dll
 0001:0002969c       _ReadClassStm@8            1002a69c f   ole32:ole32.dll
 0001:000296a2       _WriteClassStm@8           1002a6a2 f   ole32:ole32.dll
 0001:000296a8       _CreateDataAdviseHolder@4  1002a6a8 f   ole32:ole32.dll
 0001:000296ae       _OleSaveToStream@8         1002a6ae f   ole32:ole32.dll
 0001:000296b4       _CreateOleAdviseHolder@4   1002a6b4 f   ole32:ole32.dll
 0001:000296ba       _OleRegGetUserType@12      1002a6ba f   ole32:ole32.dll
 0001:000296c0       _OleRegGetMiscStatus@12    1002a6c0 f   ole32:ole32.dll
 0001:000296c6       _OleRegEnumVerbs@8         1002a6c6 f   ole32:ole32.dll
 0001:000296cc       _CLSIDFromProgID@8         1002a6cc f   ole32:ole32.dll
 0001:000296d2       _SysAllocString@4          1002a6d2 f   oleaut32:OLEAUT32.dll
 0001:000296d8       _SysAllocStringLen@8       1002a6d8 f   oleaut32:OLEAUT32.dll
 0001:000296de       _SysFreeString@4           1002a6de f   oleaut32:OLEAUT32.dll
 0001:000296e4       _SysStringLen@4            1002a6e4 f   oleaut32:OLEAUT32.dll
 0001:000296ea       _VariantClear@4            1002a6ea f   oleaut32:OLEAUT32.dll
 0001:000296f0       _VariantCopyInd@8          1002a6f0 f   oleaut32:OLEAUT32.dll
 0001:000296f6       _VariantChangeType@16      1002a6f6 f   oleaut32:OLEAUT32.dll
 0001:000296fc       _SysStringByteLen@4        1002a6fc f   oleaut32:OLEAUT32.dll
 0001:00029702       _SysAllocStringByteLen@8   1002a702 f   oleaut32:OLEAUT32.dll
 0001:00029708       _VariantInit@4             1002a708 f   oleaut32:OLEAUT32.dll
 0001:0002970e       _VarUI4FromStr@16          1002a70e f   oleaut32:OLEAUT32.dll
 0001:00029714       _LoadTypeLib@8             1002a714 f   oleaut32:OLEAUT32.dll
 0001:0002971a       _LoadRegTypeLib@20         1002a71a f   oleaut32:OLEAUT32.dll
 0001:00029720       _RegisterTypeLib@12        1002a720 f   oleaut32:OLEAUT32.dll
 0001:00029726       _UnRegisterTypeLib@20      1002a726 f   oleaut32:OLEAUT32.dll
 0001:0002972c       _OleCreatePropertyFrame@44 1002a72c f   oleaut32:OLEAUT32.dll
 0001:00029740       @_RTC_AllocaHelper@12      1002a740 f   LIBCMTD:stack.obj
 0001:00029780       @_RTC_CheckStackVars2@12   1002a780 f   LIBCMTD:stack.obj
 0001:00029860       @_RTC_CheckStackVars@8     1002a860 f   LIBCMTD:stack.obj
 0001:000298c0       __RTC_CheckEsp             1002a8c0 f   LIBCMTD:stack.obj
 0001:00029900       @__security_check_cookie@4 1002a900 f   LIBCMTD:secchk.obj
 0001:00029920       __CRT_RTC_INIT             1002a920 f   LIBCMTD:init.obj
 0001:00029930       __CRT_RTC_INITW            1002a930 f   LIBCMTD:init.obj
 0001:00029940       __RTC_InitBase             1002a940 f   LIBCMTD:init.obj
 0001:00029970       __RTC_Shutdown             1002a970 f   LIBCMTD:init.obj
 0001:00029990       ??_U@YAPAXI@Z              1002a990 f   LIBCMTD:new_array.obj
 0001:000299b0       ??3@YAXPAXI@Z              1002a9b0 f   LIBCMTD:delete_scalar_size.obj
 0001:000299d0       ??_V@YAXPAX@Z              1002a9d0 f   LIBCMTD:delete_array.obj
 0001:000299f0       ??_V@YAXPAXI@Z             1002a9f0 f   LIBCMTD:delete_array_size.obj
 0001:00029a10       ?configure_argv@__scrt_narrow_argv_policy@@SAHXZ 1002aa10 f i LIBCMTD:utility.obj
 0001:00029ac0       ?initialize_environment@__scrt_narrow_environment_policy@@SAHXZ 1002aac0 f i LIBCMTD:utility.obj
 0001:00029b40       _NtCurrentTeb              1002ab40 f i LIBCMTD:utility.obj
 0001:00029b50       ___scrt_acquire_startup_lock 1002ab50 f   LIBCMTD:utility.obj
 0001:00029ba0       ___scrt_dllmain_after_initialize_c 1002aba0 f   LIBCMTD:utility.obj
 0001:00029bd0       ___scrt_dllmain_before_initialize_c 1002abd0 f   LIBCMTD:utility.obj
 0001:00029bf0       ___scrt_dllmain_crt_thread_attach 1002abf0 f   LIBCMTD:utility.obj
 0001:00029c20       ___scrt_dllmain_crt_thread_detach 1002ac20 f   LIBCMTD:utility.obj
 0001:00029c40       ___scrt_dllmain_exception_filter 1002ac40 f   LIBCMTD:utility.obj
 0001:00029c90       ___scrt_dllmain_uninitialize_c 1002ac90 f   LIBCMTD:utility.obj
 0001:00029cc0       ___scrt_dllmain_uninitialize_critical 1002acc0 f   LIBCMTD:utility.obj
 0001:00029ce0       ___scrt_initialize_crt     1002ace0 f   LIBCMTD:utility.obj
 0001:00029d30       ___scrt_initialize_onexit_tables 1002ad30 f   LIBCMTD:utility.obj
 0001:00029e10       ___scrt_is_nonwritable_in_current_image 1002ae10 f   LIBCMTD:utility.obj
 0001:00029f40       ___scrt_release_startup_lock 1002af40 f   LIBCMTD:utility.obj
 0001:00029f70       ___scrt_uninitialize_crt   1002af70 f   LIBCMTD:utility.obj
 0001:00029fb0       __onexit                   1002afb0 f   LIBCMTD:utility.obj
 0001:0002a020       _at_quick_exit             1002b020 f   LIBCMTD:utility.obj
 0001:0002a060       _atexit                    1002b060 f   LIBCMTD:utility.obj
 0001:0002a090       ??3@YAXPAX@Z               1002b090 f   LIBCMTD:delete_scalar.obj
 0001:0002a0b0       ___raise_securityfailure   1002b0b0 f   LIBCMTD:gs_report.obj
 0001:0002a0e0       ___report_gsfailure        1002b0e0 f   LIBCMTD:gs_report.obj
 0001:0002a1f0       ___report_rangecheckfailure 1002b1f0 f   LIBCMTD:gs_report.obj
 0001:0002a200       ___report_securityfailure  1002b200 f   LIBCMTD:gs_report.obj
 0001:0002a2e0       ___report_securityfailureEx 1002b2e0 f   LIBCMTD:gs_report.obj
 0001:0002a530       __Init_thread_abort        1002b530 f   LIBCMTD:thread_safe_statics.obj
 0001:0002a550       __Init_thread_footer       1002b550 f   LIBCMTD:thread_safe_statics.obj
 0001:0002a5a0       __Init_thread_header       1002b5a0 f   LIBCMTD:thread_safe_statics.obj
 0001:0002a610       __Init_thread_lock         1002b610 f   LIBCMTD:thread_safe_statics.obj
 0001:0002a620       __Init_thread_notify       1002b620 f   LIBCMTD:thread_safe_statics.obj
 0001:0002a670       __Init_thread_unlock       1002b670 f   LIBCMTD:thread_safe_statics.obj
 0001:0002a680       __Init_thread_wait         1002b680 f   LIBCMTD:thread_safe_statics.obj
 0001:0002a710       ??2@YAPAXIABUnothrow_t@std@@@Z 1002b710 f   LIBCMTD:new_scalar_nothrow.obj
 0001:0002a7a0       ??_U@YAPAXIABUnothrow_t@std@@@Z 1002b7a0 f   LIBCMTD:new_array_nothrow.obj
 0001:0002a7c0       __allmul                   1002b7c0 f   LIBCMTD:llmul.obj
 0001:0002a800       __alloca_probe_16          1002b800 f   LIBCMTD:alloca16.obj
 0001:0002a816       __alloca_probe_8           1002b816     LIBCMTD:alloca16.obj
 0001:0002a830       __alloca_probe             1002b830 f   LIBCMTD:chkstk.obj
 0001:0002a830       __chkstk                   1002b830 f   LIBCMTD:chkstk.obj
 0001:0002ad30       __CRT_INIT@12              1002bd30 f   LIBCMTD:dll_dllmain.obj
 0001:0002ad50       __DllMainCRTStartup@12     1002bd50 f   LIBCMTD:dll_dllmain.obj
 0001:0002ae10       ?_RTC_AllocaFailure@@YAXPAXPAU_RTC_ALLOCA_NODE@@H@Z 1002be10 f   LIBCMTD:error.obj
 0001:0002af00       ?_RTC_Failure@@YAXPAXH@Z   1002bf00 f   LIBCMTD:error.obj
 0001:0002af50       ?_RTC_StackFailure@@YAXPAXPBD@Z 1002bf50 f   LIBCMTD:error.obj
 0001:0002b310       __RTC_UninitUse            1002c310 f   LIBCMTD:error.obj
 0001:0002b3c0       __vsprintf_s_l             1002c3c0 f i LIBCMTD:error.obj
 0001:0002b3f0       _sprintf_s                 1002c3f0 f i LIBCMTD:error.obj
 0001:0002b410       ?_RTC_GetErrorFunc@@YAP6AHHPBDH00ZZPBX@Z 1002c410 f   LIBCMTD:userapi.obj
 0001:0002b420       ?_RTC_GetErrorFuncW@@YAP6AHHPB_WH00ZZPBX@Z 1002c420 f   LIBCMTD:userapi.obj
 0001:0002b430       __RTC_GetErrDesc           1002c430 f   LIBCMTD:userapi.obj
 0001:0002b450       __RTC_NumErrors            1002c450 f   LIBCMTD:userapi.obj
 0001:0002b460       __RTC_SetErrorFunc         1002c460 f   LIBCMTD:userapi.obj
 0001:0002b480       __RTC_SetErrorFuncW        1002c480 f   LIBCMTD:userapi.obj
 0001:0002b4a0       __RTC_SetErrorType         1002c4a0 f   LIBCMTD:userapi.obj
 0001:0002b4d0       ??2@YAPAXI@Z               1002c4d0 f   LIBCMTD:new_scalar.obj
 0001:0002b520       ___isa_available_init      1002c520 f   LIBCMTD:cpu_disp.obj
 0001:0002b860       __get_startup_argv_mode    1002c860 f   LIBCMTD:argv_mode.obj
 0001:0002b870       ___scrt_is_ucrt_dll_in_use 1002c870 f   LIBCMTD:ucrt_detection.obj
 0001:0002b8a0       ___scrt_fastfail           1002c8a0 f   LIBCMTD:utility_desktop.obj
 0001:0002b9e0       ___scrt_get_show_window_mode 1002c9e0 f   LIBCMTD:utility_desktop.obj
 0001:0002ba20       ___scrt_initialize_mta     1002ca20 f   LIBCMTD:utility_desktop.obj
 0001:0002ba30       ___scrt_initialize_winrt   1002ca30 f   LIBCMTD:utility_desktop.obj
 0001:0002ba40       ___scrt_is_managed_app     1002ca40 f   LIBCMTD:utility_desktop.obj
 0001:0002bad0       ___scrt_set_unhandled_exception_filter 1002cad0 f   LIBCMTD:utility_desktop.obj
 0001:0002bae0       ___scrt_exe_initialize_mta 1002cae0 f   LIBCMTD:utility_desktop.obj
 0001:0002bae0       ___scrt_stub_for_initialize_mta 1002cae0 f   LIBCMTD:utility_desktop.obj
 0001:0002baf0       ___scrt_unhandled_exception_filter@4 1002caf0 f   LIBCMTD:utility_desktop.obj
 0001:0002bb70       __crt_debugger_hook        1002cb70 f   LIBCMTD:utility_desktop.obj
 0001:0002bb80       @_guard_check_icall_nop@4  1002cb80 f i LIBCMTD:guard_support.obj
 0001:0002bb90       _ReadNoFence               1002cb90 f i LIBCMTD:guard_support.obj
 0001:0002bbb0       _ReadPointerNoFence        1002cbb0 f i LIBCMTD:guard_support.obj
 0001:0002bbd0       ___castguard_check_failure_debugbreak 1002cbd0 f i LIBCMTD:guard_support.obj
 0001:0002bbf0       ___castguard_check_failure_fastfail 1002cbf0 f i LIBCMTD:guard_support.obj
 0001:0002bc10       ___castguard_check_failure_nop 1002cc10 f i LIBCMTD:guard_support.obj
 0001:0002bc20       ___castguard_check_failure_os_handled 1002cc20 f i LIBCMTD:guard_support.obj
 0001:0002bca0       ___castguard_slow_path_check_debugbreak 1002cca0 f i LIBCMTD:guard_support.obj
 0001:0002bcd0       ___castguard_slow_path_check_fastfail 1002ccd0 f i LIBCMTD:guard_support.obj
 0001:0002bd10       ___castguard_slow_path_check_nop 1002cd10 f i LIBCMTD:guard_support.obj
 0001:0002bd20       ___castguard_slow_path_check_os_handled 1002cd20 f i LIBCMTD:guard_support.obj
 0001:0002bdc0       __guard_icall_checks_enforced 1002cdc0 f i LIBCMTD:guard_support.obj
 0001:0002be60       ___security_init_cookie    1002ce60 f   LIBCMTD:gs_support.obj
 0001:0002bee0       ?__scrt_initialize_type_info@@YAXXZ 1002cee0 f   LIBCMTD:tncleanup.obj
 0001:0002bef0       ?__scrt_uninitialize_type_info@@YAXXZ 1002cef0 f   LIBCMTD:tncleanup.obj
 0001:0002bf10       ___local_stdio_scanf_options 1002cf10 f i LIBCMTD:default_local_stdio_options.obj
 0001:0002bf20       ___scrt_initialize_default_local_stdio_options 1002cf20 f   LIBCMTD:default_local_stdio_options.obj
 0001:0002bf60       ___scrt_get_dyn_tls_init_callback 1002cf60 f   LIBCMTD:dyn_tls_init.obj
 0001:0002bf70       __RTC_Initialize           1002cf70 f   LIBCMTD:initsect.obj
 0001:0002bfa0       __RTC_Terminate            1002cfa0 f   LIBCMTD:initsect.obj
 0001:0002c450       ?_RTC_GetSrcLine@@YAHPAEPA_WKPAH1K@Z 1002d450 f   LIBCMTD:pdblkup.obj
 0001:0002c7d0       __except_handler4_noexcept 1002d7d0 f   LIBCMTD:chandler4_noexcept.obj
 0001:0002c830       ??0bad_alloc@std@@AAE@QBD@Z 1002d830 f i LIBCMTD:throw_bad_alloc.obj
 0001:0002c860       ??0bad_alloc@std@@QAE@ABV01@@Z 1002d860 f i LIBCMTD:throw_bad_alloc.obj
 0001:0002c890       ??0bad_alloc@std@@QAE@XZ   1002d890 f i LIBCMTD:throw_bad_alloc.obj
 0001:0002c8c0       ??0bad_array_new_length@std@@QAE@ABV01@@Z 1002d8c0 f i LIBCMTD:throw_bad_alloc.obj
 0001:0002c8f0       ??0bad_array_new_length@std@@QAE@XZ 1002d8f0 f i LIBCMTD:throw_bad_alloc.obj
 0001:0002c920       ??0exception@std@@QAE@ABV01@@Z 1002d920 f i LIBCMTD:throw_bad_alloc.obj
 0001:0002c960       ??0exception@std@@QAE@QBDH@Z 1002d960 f i LIBCMTD:throw_bad_alloc.obj
 0001:0002c990       ??1bad_alloc@std@@UAE@XZ   1002d990 f i LIBCMTD:throw_bad_alloc.obj
 0001:0002c9b0       ??1bad_array_new_length@std@@UAE@XZ 1002d9b0 f i LIBCMTD:throw_bad_alloc.obj
 0001:0002c9d0       ??1exception@std@@UAE@XZ   1002d9d0 f i LIBCMTD:throw_bad_alloc.obj
 0001:0002ca00       ??_Gbad_alloc@std@@UAEPAXI@Z 1002da00 f i LIBCMTD:throw_bad_alloc.obj
 0001:0002ca00       ??_Ebad_alloc@std@@UAEPAXI@Z 1002da00 f i LIBCMTD:throw_bad_alloc.obj
 0001:0002ca30       ??_Ebad_array_new_length@std@@UAEPAXI@Z 1002da30 f i LIBCMTD:throw_bad_alloc.obj
 0001:0002ca30       ??_Gbad_array_new_length@std@@UAEPAXI@Z 1002da30 f i LIBCMTD:throw_bad_alloc.obj
 0001:0002ca60       ??_Gexception@std@@UAEPAXI@Z 1002da60 f i LIBCMTD:throw_bad_alloc.obj
 0001:0002ca60       ??_Eexception@std@@UAEPAXI@Z 1002da60 f i LIBCMTD:throw_bad_alloc.obj
 0001:0002ca90       ?__scrt_throw_std_bad_alloc@@YAXXZ 1002da90 f   LIBCMTD:throw_bad_alloc.obj
 0001:0002cab0       ?__scrt_throw_std_bad_array_new_length@@YAXXZ 1002dab0 f   LIBCMTD:throw_bad_alloc.obj
 0001:0002cad0       ?what@exception@std@@UBEPBDXZ 1002dad0 f i LIBCMTD:throw_bad_alloc.obj
 0001:0002cb00       ??1type_info@@UAE@XZ       1002db00 f   LIBCMTD:std_type_info_static.obj
 0001:0002cb20       ??_Etype_info@@UAEPAXI@Z   1002db20 f i LIBCMTD:std_type_info_static.obj
 0001:0002cb20       ??_Gtype_info@@UAEPAXI@Z   1002db20 f i LIBCMTD:std_type_info_static.obj
 0001:0002cb4e       ??$?2PAUHINSTANCE__@@@Wrapper@?$CSimpleArray@PAUHINSTANCE__@@V?$CSimpleArrayEqualHelper@PAUHINSTANCE__@@@ATL@@@ATL@@SAPAXIPAPAUHINSTANCE__@@@Z 1002db4e f i atls:atlbase.obj
 0001:0002cb56       ??0?$CSimpleArray@PAUHINSTANCE__@@V?$CSimpleArrayEqualHelper@PAUHINSTANCE__@@@ATL@@@ATL@@QAE@XZ 1002db56 f i atls:atlbase.obj
 0001:0002cb63       ??0CAtlBaseModule@ATL@@QAE@XZ 1002db63 f   atls:atlbase.obj
 0001:0002cbb6       ??0Wrapper@?$CSimpleArray@PAUHINSTANCE__@@V?$CSimpleArrayEqualHelper@PAUHINSTANCE__@@@ATL@@@ATL@@QAE@ABQAUHINSTANCE__@@@Z 1002dbb6 f i atls:atlbase.obj
 0001:0002cbc6       ??0_ATL_BASE_MODULE70@ATL@@QAE@XZ 1002dbc6 f i atls:atlbase.obj
 0001:0002cbe9       ??1?$CSimpleArray@PAUHINSTANCE__@@V?$CSimpleArrayEqualHelper@PAUHINSTANCE__@@@ATL@@@ATL@@QAE@XZ 1002dbe9 f i atls:atlbase.obj
 0001:0002cbee       ??1CAtlBaseModule@ATL@@QAE@XZ 1002dbee f   atls:atlbase.obj
 0001:0002cc04       ??1_ATL_BASE_MODULE70@ATL@@QAE@XZ 1002dc04 f i atls:atlbase.obj
 0001:0002cc0c       ??A?$CSimpleArray@PAUHINSTANCE__@@V?$CSimpleArrayEqualHelper@PAUHINSTANCE__@@@ATL@@@ATL@@QAEAAPAUHINSTANCE__@@H@Z 1002dc0c f i atls:atlbase.obj
 0001:0002cc31       ?Add@?$CSimpleArray@PAUHINSTANCE__@@V?$CSimpleArrayEqualHelper@PAUHINSTANCE__@@@ATL@@@ATL@@QAEHABQAUHINSTANCE__@@@Z 1002dc31 f i atls:atlbase.obj
 0001:0002ccb3       ?AddResourceInstance@CAtlBaseModule@ATL@@QAE_NPAUHINSTANCE__@@@Z 1002dcb3 f   atls:atlbase.obj
 0001:0002cce6       ?GetHInstanceAt@CAtlBaseModule@ATL@@QAEPAUHINSTANCE__@@H@Z 1002dce6 f   atls:atlbase.obj
 0001:0002cd2b       ?GetSize@?$CSimpleArray@PAUHINSTANCE__@@V?$CSimpleArrayEqualHelper@PAUHINSTANCE__@@@ATL@@@ATL@@QBEHXZ 1002dd2b f i atls:atlbase.obj
 0001:0002cd2f       ?InternalSetAtIndex@?$CSimpleArray@PAUHINSTANCE__@@V?$CSimpleArrayEqualHelper@PAUHINSTANCE__@@@ATL@@@ATL@@QAEXHABQAUHINSTANCE__@@@Z 1002dd2f f i atls:atlbase.obj
 0001:0002cd49       ?RemoveAll@?$CSimpleArray@PAUHINSTANCE__@@V?$CSimpleArrayEqualHelper@PAUHINSTANCE__@@@ATL@@@ATL@@QAEXXZ 1002dd49 f i atls:atlbase.obj
 0001:0002cd66       ?RemoveAt@?$CSimpleArray@PAUHINSTANCE__@@V?$CSimpleArrayEqualHelper@PAUHINSTANCE__@@@ATL@@@ATL@@QAEHH@Z 1002dd66 f i atls:atlbase.obj
 0001:0002cdb4       ?RemoveResourceInstance@CAtlBaseModule@ATL@@QAE_NPAUHINSTANCE__@@@Z 1002ddb4 f   atls:atlbase.obj
 0001:0002ce11       ?memmove_s@Checked@ATL@@YAXPAXIPBXI@Z 1002de11 f i atls:atlbase.obj
 0001:0002d16e       ?GetCodeAddress@_stdcallthunk@ATL@@QAEPAXXZ 1002e16e f i atls:atlthunk.obj
 0001:0002d198       ?Init@_stdcallthunk@ATL@@QAEHKPAX@Z 1002e198 f i atls:atlthunk.obj
 0001:0002d1cd       ?__AllocStdCallThunk@@YGPAXXZ 1002e1cd f   atls:atlthunk.obj
 0001:0002d1d2       ?__AllocStdCallThunk@ATL@@YGPAXXZ 1002e1d2 f   atls:atlthunk.obj
 0001:0002d1d7       ?__AllocStdCallThunk_cmn@@YAPAXXZ 1002e1d7 f   atls:atlthunk.obj
 0001:0002d29d       ?__FreeStdCallThunk@@YGXPAX@Z 1002e29d f   atls:atlthunk.obj
 0001:0002d2ad       ?__FreeStdCallThunk@ATL@@YGXPAX@Z 1002e2ad f   atls:atlthunk.obj
 0001:0002d2bd       ?__FreeStdCallThunk_cmn@@YAXPAX@Z 1002e2bd f   atls:atlthunk.obj
 0001:0002d358       _AtlThunk_AllocateData@0   1002e358 f   atls:atlthunk.obj
 0001:0002d3bd       _AtlThunk_DataToCode@4     1002e3bd f   atls:atlthunk.obj
 0001:0002d404       _AtlThunk_FreeData@4       1002e404 f   atls:atlthunk.obj
 0001:0002d45a       _AtlThunk_InitData@12      1002e45a f   atls:atlthunk.obj
 0001:0002d4a9       _MemoryBarrier             1002e4a9 f i atls:atlthunk.obj
 0001:0002d4b7       __InlineInterlockedCompareExchangePointer 1002e4b7 f i atls:atlthunk.obj
 0001:0002d4d0       _memset                    1002e4d0 f   libvcruntimed:memset.obj
 0001:0002d630       ??$__crt_interlocked_exchange_pointer@$$A6AXXZP6AXXZ@@YAP6AXXZPDS6AXXZQ6AXXZ@Z 1002e630 f i libvcruntimed:purevirt.obj
 0001:0002d640       ??$__crt_interlocked_read_pointer@$$A6AXXZ@@YAP6AXXZPDS6AXXZ@Z 1002e640 f i libvcruntimed:purevirt.obj
 0001:0002d660       ?__crt_interlocked_read_32@@YAHPDH@Z 1002e660 f i libvcruntimed:purevirt.obj
 0001:0002d680       __get_purecall_handler     1002e680 f   libvcruntimed:purevirt.obj
 0001:0002d6a0       __purecall                 1002e6a0 f   libvcruntimed:purevirt.obj
 0001:0002d6d0       __set_purecall_handler     1002e6d0 f   libvcruntimed:purevirt.obj
 0001:0002d8a0       _memcmp                    1002e8a0 f   libvcruntimed:memcmp.obj
 0001:0002e170       _memcpy                    1002f170 f   libvcruntimed:memcpy.obj
 0001:0002e6f0       _wcsstr                    1002f6f0 f   libvcruntimed:wcsstr.obj
 0001:0002ec20       __except_handler4          1002fc20 f   libvcruntimed:chandler4.obj
 0001:0002ee10       ___vcrt_initialize         1002fe10 f   libvcruntimed:initialization.obj
 0001:0002ee50       ___vcrt_thread_attach      1002fe50 f   libvcruntimed:initialization.obj
 0001:0002ee70       ___vcrt_thread_detach      1002fe70 f   libvcruntimed:initialization.obj
 0001:0002ee90       ___vcrt_uninitialize       1002fe90 f   libvcruntimed:initialization.obj
 0001:0002eeb0       ___vcrt_uninitialize_critical 1002feb0 f   libvcruntimed:initialization.obj
 0001:0002eed0       ??$?0AAViterator@TryBlockMap@__FrameHandler3@@AAV012@$0A@@?$pair@Viterator@TryBlockMap@__FrameHandler3@@V123@@std@@QAE@AAViterator@TryBlockMap@__FrameHandler3@@0@Z 1002fed0 f i libvcruntimed:trnsctrl.obj
 0001:0002ef20       ??$forward@AAViterator@TryBlockMap@__FrameHandler3@@@std@@YAAAViterator@TryBlockMap@__FrameHandler3@@AAV123@@Z 1002ff20 f i libvcruntimed:trnsctrl.obj
 0001:0002ef30       ??0iterator@TryBlockMap@__FrameHandler3@@QAE@AAV12@I@Z 1002ff30 f i libvcruntimed:trnsctrl.obj
 0001:0002ef60       ?GetRangeOfTrysToCheck@__FrameHandler3@@SA?AU?$pair@Viterator@TryBlockMap@__FrameHandler3@@V123@@std@@AAVTryBlockMap@1@HPAXPBU_s_FuncInfo@@H@Z 1002ff60 f   libvcruntimed:trnsctrl.obj
 0001:0002f040       ?_CallCatchBlock2@@YAPAXPAUEHRegistrationNode@@PBU_s_FuncInfo@@PAXHK@Z 10030040 f   libvcruntimed:trnsctrl.obj
 0001:0002f0b0       ?_CallSETranslator@@YAHPAUEHExceptionRecord@@PAUEHRegistrationNode@@PAX2PBU_s_FuncInfo@@H1@Z 100300b0 f   libvcruntimed:trnsctrl.obj
 0001:0002f1b0       ?_JumpToContinuation@@YGXPAXPAUEHRegistrationNode@@@Z 100301b0 f   libvcruntimed:trnsctrl.obj
 0001:0002f1f0       ?_UnwindNestedFrames@@YGXPAUEHRegistrationNode@@PAUEHExceptionRecord@@@Z 100301f0 f   libvcruntimed:trnsctrl.obj
 0001:0002f250       __CatchGuardHandler        10030250 f   libvcruntimed:trnsctrl.obj
 0001:0002f2a0       __CreateFrameInfo          100302a0 f   libvcruntimed:trnsctrl.obj
 0001:0002f2d0       __FindAndUnlinkFrame       100302d0 f   libvcruntimed:trnsctrl.obj
 0001:0002f340       __TranslatorGuardHandler   10030340 f   libvcruntimed:trnsctrl.obj
 0001:0002f3f0       ___CxxFrameHandler         100303f0 f   libvcruntimed:trnsctrl.obj
 0001:0002f430       ___CxxFrameHandler2        10030430 f   libvcruntimed:trnsctrl.obj
 0001:0002f470       ___CxxFrameHandler3        10030470 f   libvcruntimed:trnsctrl.obj
 0001:0002f4b0       ___CxxLongjmpUnwind@4      100304b0 f   libvcruntimed:trnsctrl.obj
 0001:0002f4f0       ___DestructExceptionObject 100304f0 f   libvcruntimed:ehhelpers.obj
 0001:0002f610       ?_CallMemberFunction0@@YGXQAX0@Z 10030610 f i libvcruntimed:ehhelpers.obj
 0001:0002f6b0       ?raw_name@type_info@@QBEPBDXZ 100306b0 f i libvcruntimed:ehhelpers.obj
 0001:0002f6d0       __IsExceptionObjectToBeDestroyed 100306d0 f   libvcruntimed:ehhelpers.obj
 0001:0002f710       __SetWinRTOutOfMemoryExceptionCallback 10030710 f   libvcruntimed:ehhelpers.obj
 0001:0002f720       ___AdjustPointer           10030720 f   libvcruntimed:ehhelpers.obj
 0001:0002f770       ___FrameUnwindFilter       10030770 f   libvcruntimed:ehhelpers.obj
 0001:0002f800       ___GetPlatformExceptionInfo 10030800 f   libvcruntimed:ehhelpers.obj
 0001:0002f880       ___current_exception       10030880 f   libvcruntimed:ehhelpers.obj
 0001:0002f890       ___current_exception_context 10030890 f   libvcruntimed:ehhelpers.obj
 0001:0002f8a0       ___processing_throw        100308a0 f   libvcruntimed:ehhelpers.obj
 0001:0002f8b0       ___std_terminate           100308b0 f   libvcruntimed:ehhelpers.obj
 0001:0002f8c0       __is_exception_typeof      100308c0 f   libvcruntimed:ehhelpers.obj
 0001:0002f9c0       ??$?RD@__crt_internal_free_policy@@QBEXQBD@Z 100309c0 f i libvcruntimed:std_type_info.obj
 0001:0002f9e0       ??$?RX@__crt_internal_free_policy@@QBEXQBX@Z 100309e0 f i libvcruntimed:std_type_info.obj
 0001:0002fa00       ??$__crt_interlocked_compare_exchange_pointer@$$CBDPAD$$T@@YAPBDPDSBDQAD$$T@Z 10030a00 f i libvcruntimed:std_type_info.obj
 0001:0002fa20       ??$__crt_interlocked_read_pointer@$$CBD@@YAPBDPDSBD@Z 10030a20 f i libvcruntimed:std_type_info.obj
 0001:0002fa40       ??0?$__crt_unique_heap_ptr@DU__crt_internal_free_policy@@@@QAE@QAD@Z 10030a40 f i libvcruntimed:std_type_info.obj
 0001:0002fa60       ??0?$__crt_unique_heap_ptr@XU__crt_internal_free_policy@@@@QAE@QAX@Z 10030a60 f i libvcruntimed:std_type_info.obj
 0001:0002fa80       ??1?$__crt_unique_heap_ptr@DU__crt_internal_free_policy@@@@QAE@XZ 10030a80 f i libvcruntimed:std_type_info.obj
 0001:0002faa0       ??1?$__crt_unique_heap_ptr@XU__crt_internal_free_policy@@@@QAE@XZ 10030aa0 f i libvcruntimed:std_type_info.obj
 0001:0002fac0       ??B?$__crt_unique_heap_ptr@DU__crt_internal_free_policy@@@@QBE_NXZ 10030ac0 f i libvcruntimed:std_type_info.obj
 0001:0002fae0       ??B?$__crt_unique_heap_ptr@XU__crt_internal_free_policy@@@@QBE_NXZ 10030ae0 f i libvcruntimed:std_type_info.obj
 0001:0002fb70       ?detach@?$__crt_unique_heap_ptr@XU__crt_internal_free_policy@@@@QAEPAXXZ 10030b70 f i libvcruntimed:std_type_info.obj
 0001:0002fba0       ?get@?$__crt_unique_heap_ptr@DU__crt_internal_free_policy@@@@QBEPADXZ 10030ba0 f i libvcruntimed:std_type_info.obj
 0001:0002fbb0       ?get@?$__crt_unique_heap_ptr@XU__crt_internal_free_policy@@@@QBEPAXXZ 10030bb0 f i libvcruntimed:std_type_info.obj
 0001:0002fbc0       ?is_valid@?$__crt_unique_heap_ptr@DU__crt_internal_free_policy@@@@QBE_NXZ 10030bc0 f i libvcruntimed:std_type_info.obj
 0001:0002fbf0       ?is_valid@?$__crt_unique_heap_ptr@XU__crt_internal_free_policy@@@@QBE_NXZ 10030bf0 f i libvcruntimed:std_type_info.obj
 0001:0002fc20       ?release@?$__crt_unique_heap_ptr@DU__crt_internal_free_policy@@@@QAEXXZ 10030c20 f i libvcruntimed:std_type_info.obj
 0001:0002fc50       ?release@?$__crt_unique_heap_ptr@XU__crt_internal_free_policy@@@@QAEXXZ 10030c50 f i libvcruntimed:std_type_info.obj
 0001:0002fc80       ___std_type_info_compare   10030c80 f   libvcruntimed:std_type_info.obj
 0001:0002fcb0       ___std_type_info_destroy_list 10030cb0 f   libvcruntimed:std_type_info.obj
 0001:0002fcf0       ___std_type_info_hash      10030cf0 f   libvcruntimed:std_type_info.obj
 0001:0002fd50       ___std_type_info_name      10030d50 f   libvcruntimed:std_type_info.obj
 0001:0002ff30       ___vcrt_GetModuleFileNameW 10030f30 f   libvcruntimed:winapi_thunks.obj
 0001:0002ff50       ___vcrt_GetModuleHandleW   10030f50 f   libvcruntimed:winapi_thunks.obj
 0001:0002ff60       ___vcrt_LoadLibraryExW     10030f60 f   libvcruntimed:winapi_thunks.obj
 0001:0002ff80       ??$?RD@__crt_public_free_policy@@QBEXQBD@Z 10030f80 f i libvcruntimed:std_exception.obj
 0001:0002ffa0       ??0?$__crt_unique_heap_ptr@DU__crt_public_free_policy@@@@QAE@QAD@Z 10030fa0 f i libvcruntimed:std_exception.obj
 0001:0002ffc0       ??1?$__crt_unique_heap_ptr@DU__crt_public_free_policy@@@@QAE@XZ 10030fc0 f i libvcruntimed:std_exception.obj
 0001:0002ffe0       ??B?$__crt_unique_heap_ptr@DU__crt_public_free_policy@@@@QBE_NXZ 10030fe0 f i libvcruntimed:std_exception.obj
 0001:00030000       ?detach@?$__crt_unique_heap_ptr@DU__crt_public_free_policy@@@@QAEPADXZ 10031000 f i libvcruntimed:std_exception.obj
 0001:00030030       ?get@?$__crt_unique_heap_ptr@DU__crt_public_free_policy@@@@QBEPADXZ 10031030 f i libvcruntimed:std_exception.obj
 0001:00030040       ?is_valid@?$__crt_unique_heap_ptr@DU__crt_public_free_policy@@@@QBE_NXZ 10031040 f i libvcruntimed:std_exception.obj
 0001:00030070       ?release@?$__crt_unique_heap_ptr@DU__crt_public_free_policy@@@@QAEXXZ 10031070 f i libvcruntimed:std_exception.obj
 0001:000300a0       ___std_exception_copy      100310a0 f   libvcruntimed:std_exception.obj
 0001:00030190       ___std_exception_destroy   10031190 f   libvcruntimed:std_exception.obj
 0001:000301c0       __CxxThrowException@8      100311c0 f   libvcruntimed:throw.obj
 0001:00030270       _memmove                   10031270 f   libvcruntimed:memmove.obj
 0001:000307f0       __local_unwind4            100317f0 f   libvcruntimed:exsup4.obj
 0001:000308c4       __seh_longjmp_unwind4@4    100318c4 f   libvcruntimed:exsup4.obj
 0001:000308ec       @_EH4_CallFilterFunc@8     100318ec f   libvcruntimed:exsup4.obj
 0001:00030904       @_EH4_TransferToHandler@8  10031904 f   libvcruntimed:exsup4.obj
 0001:00030920       @_EH4_GlobalUnwind2@8      10031920 f   libvcruntimed:exsup4.obj
 0001:0003093c       @_EH4_LocalUnwind@16       1003193c f   libvcruntimed:exsup4.obj
 0001:00030970       ___except_validate_context_record 10031970 f   libvcruntimed:jbcxrval.obj
 0001:000309c0       ___except_validate_jump_buffer 100319c0 f   libvcruntimed:jbcxrval.obj
 0001:000309e0       ___except_validate_jump_buffer_common 100319e0 f i libvcruntimed:jbcxrval.obj
 0001:00030a40       ??$?RU__vcrt_ptd@@@__crt_internal_free_policy@@QBEXQBU__vcrt_ptd@@@Z 10031a40 f i libvcruntimed:per_thread_data.obj
 0001:00030a60       ??0?$__crt_unique_heap_ptr@U__vcrt_ptd@@U__crt_internal_free_policy@@@@QAE@QAU__vcrt_ptd@@@Z 10031a60 f i libvcruntimed:per_thread_data.obj
 0001:00030aa0       ??1?$__crt_unique_heap_ptr@U__vcrt_ptd@@U__crt_internal_free_policy@@@@QAE@XZ 10031aa0 f i libvcruntimed:per_thread_data.obj
 0001:00030ae0       ??B?$__crt_unique_heap_ptr@U__vcrt_ptd@@U__crt_internal_free_policy@@@@QBE_NXZ 10031ae0 f i libvcruntimed:per_thread_data.obj
 0001:00030b00       ?detach@?$__crt_unique_heap_ptr@U__vcrt_ptd@@U__crt_internal_free_policy@@@@QAEPAU__vcrt_ptd@@XZ 10031b00 f i libvcruntimed:per_thread_data.obj
 0001:00030b30       ?get@?$__crt_unique_heap_ptr@U__vcrt_ptd@@U__crt_internal_free_policy@@@@QBEPAU__vcrt_ptd@@XZ 10031b30 f i libvcruntimed:per_thread_data.obj
 0001:00030b40       ?is_valid@?$__crt_unique_heap_ptr@U__vcrt_ptd@@U__crt_internal_free_policy@@@@QBE_NXZ 10031b40 f i libvcruntimed:per_thread_data.obj
 0001:00030b70       ?release@?$__crt_unique_heap_ptr@U__vcrt_ptd@@U__crt_internal_free_policy@@@@QAEXXZ 10031b70 f i libvcruntimed:per_thread_data.obj
 0001:00030bd0       ___vcrt_freefls@4          10031bd0 f   libvcruntimed:per_thread_data.obj
 0001:00030c00       ___vcrt_freeptd            10031c00 f   libvcruntimed:per_thread_data.obj
 0001:00030c60       ___vcrt_getptd             10031c60 f   libvcruntimed:per_thread_data.obj
 0001:00030c80       ___vcrt_getptd_noexit      10031c80 f   libvcruntimed:per_thread_data.obj
 0001:00030de0       ___vcrt_getptd_noinit      10031de0 f   libvcruntimed:per_thread_data.obj
 0001:00030e40       ___vcrt_initialize_ptd     10031e40 f   libvcruntimed:per_thread_data.obj
 0001:00030e90       ___vcrt_uninitialize_ptd   10031e90 f   libvcruntimed:per_thread_data.obj
 0001:00030ec0       ___vcrt_initialize_locks   10031ec0 f   libvcruntimed:locks.obj
 0001:00030f20       ___vcrt_lock               10031f20 f   libvcruntimed:locks.obj
 0001:00030f40       ___vcrt_uninitialize_locks 10031f40 f   libvcruntimed:locks.obj
 0001:00030f90       ___vcrt_unlock             10031f90 f   libvcruntimed:locks.obj
 0001:00031b20       ??$TypeMatchHelper@V__FrameHandler3@@@@YAHPBU_s_HandlerType@@PBU_s_CatchableType@@PBU_s_ThrowInfo@@@Z 10032b20 f i libvcruntimed:frame.obj
 0001:00031c00       ??$__InternalCxxFrameHandler@V__FrameHandler3@@@@YA?AW4_EXCEPTION_DISPOSITION@@PAUEHExceptionRecord@@PAUEHRegistrationNode@@PAU_CONTEXT@@PAXPBU_s_FuncInfo@@H1E@Z 10032c00 f i libvcruntimed:frame.obj
 0001:00031dc0       ??0HandlerMap@__FrameHandler3@@QAE@PBU_s_TryBlockMapEntry@@II@Z 10032dc0 f i libvcruntimed:frame.obj
 0001:00031df0       ??0TryBlockMap@__FrameHandler3@@QAE@PBU_s_FuncInfo@@I@Z 10032df0 f i libvcruntimed:frame.obj
 0001:00031e20       ??0bad_exception@std@@QAE@ABV01@@Z 10032e20 f i libvcruntimed:frame.obj
 0001:00031e50       ??0bad_exception@std@@QAE@XZ 10032e50 f i libvcruntimed:frame.obj
 0001:00031e80       ??0iterator@HandlerMap@__FrameHandler3@@QAE@AAV12@I@Z 10032e80 f i libvcruntimed:frame.obj
 0001:00031eb0       ??1bad_exception@std@@UAE@XZ 10032eb0 f i libvcruntimed:frame.obj
 0001:00031ed0       ??8iterator@HandlerMap@__FrameHandler3@@QBE_NABV012@@Z 10032ed0 f i libvcruntimed:frame.obj
 0001:00031f00       ??8type_info@@QBE_NABV0@@Z 10032f00 f i libvcruntimed:frame.obj
 0001:00031f40       ??9iterator@HandlerMap@__FrameHandler3@@QBE_NABV012@@Z 10032f40 f i libvcruntimed:frame.obj
 0001:00031f80       ??Diterator@HandlerMap@__FrameHandler3@@QAE?BU_s_HandlerType@@XZ 10032f80 f i libvcruntimed:frame.obj
 0001:00031fc0       ??Diterator@TryBlockMap@__FrameHandler3@@QAE?BU_s_TryBlockMapEntry@@XZ 10032fc0 f i libvcruntimed:frame.obj
 0001:00032010       ??Eiterator@HandlerMap@__FrameHandler3@@QAEAAV012@XZ 10033010 f i libvcruntimed:frame.obj
 0001:00032030       ??Eiterator@TryBlockMap@__FrameHandler3@@QAEAAV012@XZ 10033030 f i libvcruntimed:frame.obj
 0001:00032050       ??Miterator@TryBlockMap@__FrameHandler3@@QBE_NABV012@@Z 10033050 f i libvcruntimed:frame.obj
 0001:00032080       ??_Ebad_exception@std@@UAEPAXI@Z 10033080 f i libvcruntimed:frame.obj
 0001:00032080       ??_Gbad_exception@std@@UAEPAXI@Z 10033080 f i libvcruntimed:frame.obj
 0001:000320b0       ?BuildCatchObject@__FrameHandler3@@SAXPAUEHExceptionRecord@@PAXPBU_s_HandlerType@@PBU_s_CatchableType@@@Z 100330b0 f   libvcruntimed:frame.obj
 0001:000320d0       ?BuildCatchObjectHelper@__FrameHandler3@@SAHPAUEHExceptionRecord@@PAXPBU_s_HandlerType@@PBU_s_CatchableType@@@Z 100330d0 f   libvcruntimed:frame.obj
 0001:00032470       ?FrameUnwindToEmptyState@__FrameHandler3@@SAXPAUEHRegistrationNode@@PAXPBU_s_FuncInfo@@@Z 10033470 f   libvcruntimed:frame.obj
 0001:00032490       ?FrameUnwindToState@__FrameHandler3@@SAXPAUEHRegistrationNode@@PAXPBU_s_FuncInfo@@H@Z 10033490 f   libvcruntimed:frame.obj
 0001:00032610       ?GetMaxState@__FrameHandler3@@SAHPAXPBU_s_FuncInfo@@@Z 10033610 f i libvcruntimed:frame.obj
 0001:00032730       ?TypeMatch@__FrameHandler3@@SAHPBU_s_HandlerType@@PBU_s_CatchableType@@PBU_s_ThrowInfo@@@Z 10033730 f   libvcruntimed:frame.obj
 0001:00032750       ?_CallMemberFunction1@@YGXQAX00@Z 10033750 f i libvcruntimed:frame.obj
 0001:00032780       ?_CallMemberFunction2@@YGXQAX00H@Z 10033780 f i libvcruntimed:frame.obj
 0001:000327b0       ?begin@HandlerMap@__FrameHandler3@@QAE?AViterator@12@XZ 100337b0 f i libvcruntimed:frame.obj
 0001:000327d0       ?end@HandlerMap@__FrameHandler3@@QAE?AViterator@12@XZ 100337d0 f i libvcruntimed:frame.obj
 0001:00032800       ?getESTypes@__FrameHandler3@@SAPBU_s_ESTypeList@@PBU_s_FuncInfo@@@Z 10033800 f i libvcruntimed:frame.obj
 0001:00032810       ?getLastEntry@HandlerMap@__FrameHandler3@@QAEPBU_s_HandlerType@@XZ 10033810 f i libvcruntimed:frame.obj
 0001:00032830       ?getMagicNum@__FrameHandler3@@SAIPBU_s_FuncInfo@@@Z 10033830 f i libvcruntimed:frame.obj
 0001:00032840       ?getNumTryBlocks@TryBlockMap@__FrameHandler3@@QAEIXZ 10033840 f i libvcruntimed:frame.obj
 0001:00032860       ?isEHs@__FrameHandler3@@SA_NPBU_s_FuncInfo@@@Z 10033860 f i libvcruntimed:frame.obj
 0001:00032890       ?isNoExcept@__FrameHandler3@@SA_NPBU_s_FuncInfo@@@Z 10033890 f i libvcruntimed:frame.obj
 0001:000328c0       ___BuildCatchObject        100338c0 f   libvcruntimed:frame.obj
 0001:000328e0       ___BuildCatchObjectHelper  100338e0 f   libvcruntimed:frame.obj
 0001:00032900       ___TypeMatch               10033900 f   libvcruntimed:frame.obj
 0001:00032920       ___vcrt_EncodePointer      10033920 f i libvcruntimed:frame.obj
 0001:00032930       __CallSettingFrame@12      10033930 f   libvcruntimed:lowhelpr.obj
 0001:00032957       __NLG_Return               10033957     libvcruntimed:lowhelpr.obj
 0001:00032980       ??$?0$00@DName@@QAE@PBDU?$StringLifeSelector@$00@@@Z 10033980 f i libvcruntimed:undname.obj
 0001:000329d0       ??$?0$00@pcharNode@@QAE@PBDHU?$StringLifeSelector@$00@@@Z 100339d0 f i libvcruntimed:undname.obj
 0001:00032a10       ??$?0$01@DName@@QAE@PBDU?$StringLifeSelector@$01@@@Z 10033a10 f i libvcruntimed:undname.obj
 0001:00032a60       ??$?0$01@pcharNode@@QAE@PBDHU?$StringLifeSelector@$01@@@Z 10033a60 f i libvcruntimed:undname.obj
 0001:00032ae0       ??$?0$0A@@DName@@QAE@PBDU?$StringLifeSelector@$0A@@@@Z 10033ae0 f i libvcruntimed:undname.obj
 0001:00032b30       ??$?0$0A@@pcharNode@@QAE@PBDHU?$StringLifeSelector@$0A@@@@Z 10033b30 f i libvcruntimed:undname.obj
 0001:00032bb0       ??$?0_K$0A@@?$optional@_K@std@@QAE@$$QA_K@Z 10033bb0 f i libvcruntimed:undname.obj
 0001:00032bf0       ??$?0_K@?$_Optional_construct_base@_K@std@@QAE@Uin_place_t@1@$$QA_K@Z 10033bf0 f i libvcruntimed:undname.obj
 0001:00032c20       ??$?0_K@?$_Optional_destruct_base@_K$00@std@@QAE@Uin_place_t@1@$$QA_K@Z 10033c20 f i libvcruntimed:undname.obj
 0001:00032c50       ??$append@VDNameNode@@@DName@@AAEXPBVDNameNode@@@Z 10033c50 f i libvcruntimed:undname.obj
 0001:00032ce0       ??$append@VDNameStatusNode@@@DName@@AAEXPBVDNameStatusNode@@@Z 10033ce0 f i libvcruntimed:undname.obj
 0001:00032d70       ??$append@VcharNode@@@DName@@AAEXPBVcharNode@@@Z 10033d70 f i libvcruntimed:undname.obj
 0001:00032e00       ??$append@VpDNameNode@@@DName@@AAEXPBVpDNameNode@@@Z 10033e00 f i libvcruntimed:undname.obj
 0001:00032e90       ??$append@VpcharNode@@@DName@@AAEXPBVpcharNode@@@Z 10033e90 f i libvcruntimed:undname.obj
 0001:00032f20       ??$doPchar@$00@DName@@AAEXPBDH@Z 10033f20 f i libvcruntimed:undname.obj
 0001:00033030       ??$doPchar@$01@DName@@AAEXPBDH@Z 10034030 f i libvcruntimed:undname.obj
 0001:00033140       ??$doPchar@$0A@@DName@@AAEXPBDH@Z 10034140 f i libvcruntimed:undname.obj
 0001:00033250       ??$forward@_K@std@@YA$$QA_KAA_K@Z 10034250 f i libvcruntimed:undname.obj
 0001:00033260       ??$size@D$04@std@@YAIAAY04$$CBD@Z 10034260 f i libvcruntimed:undname.obj
 0001:00033270       ??$size@D$0EB@@std@@YAIAAY0EB@$$CBD@Z 10034270 f i libvcruntimed:undname.obj
 0001:00033280       ??0?$_Optional_construct_base@_K@std@@QAE@XZ 10034280 f i libvcruntimed:undname.obj
 0001:000332a0       ??0?$_Optional_destruct_base@_K$00@std@@QAE@XZ 100342a0 f i libvcruntimed:undname.obj
 0001:000332c0       ??0?$optional@_K@std@@QAE@XZ 100342c0 f i libvcruntimed:undname.obj
 0001:000332e0       ??0Block@_HeapManager@@QAE@XZ 100342e0 f i libvcruntimed:undname.obj
 0001:00033300       ??0DName@@QAE@AAPBDD@Z     10034300 f   libvcruntimed:undname.obj
 0001:00033470       ??0DName@@QAE@ABUStringLiteral@@@Z 10034470 f   libvcruntimed:undname.obj
 0001:000334c0       ??0DName@@QAE@ABV0@@Z      100344c0 f i libvcruntimed:undname.obj
 0001:000334f0       ??0DName@@QAE@D@Z          100344f0 f   libvcruntimed:undname.obj
 0001:00033520       ??0DName@@QAE@PAV0@@Z      10034520 f   libvcruntimed:undname.obj
 0001:000335d0       ??0DName@@QAE@W4DNameStatus@@@Z 100345d0 f   libvcruntimed:undname.obj
 0001:00033670       ??0DName@@QAE@XZ           10034670 f i libvcruntimed:undname.obj
 0001:000336a0       ??0DName@@QAE@_J@Z         100346a0 f   libvcruntimed:undname.obj
 0001:00033790       ??0DName@@QAE@_K@Z         10034790 f   libvcruntimed:undname.obj
 0001:00033840       ??0DNameNode@@IAE@XZ       10034840 f i libvcruntimed:undname.obj
 0001:00033860       ??0Replicator@@QAE@XZ      10034860 f i libvcruntimed:undname.obj
 0001:000338a0       ??0UnDecorator@@QAE@PBDP6APADJ@ZK@Z 100348a0 f i libvcruntimed:undname.obj
 0001:00033920       ??0_Nontrivial_dummy_type@std@@QAE@XZ 10034920 f i libvcruntimed:undname.obj
 0001:00033930       ??0charNode@@QAE@D@Z       10034930 f i libvcruntimed:undname.obj
 0001:00033960       ??0pDNameNode@@QAE@PAVDName@@@Z 10034960 f   libvcruntimed:undname.obj
 0001:000339c0       ??0pairNode@@QAE@PBVDNameNode@@0@Z 100349c0 f i libvcruntimed:undname.obj
 0001:00033a20       ??2@YAPAXIAAV_HeapManager@@H@Z 10034a20 f   libvcruntimed:undname.obj
 0001:00033a60       ??4DName@@QAEAAV0@ABUStringLiteral@@@Z 10034a60 f   libvcruntimed:undname.obj
 0001:00033aa0       ??4DName@@QAEAAV0@ABV0@@Z  10034aa0 f   libvcruntimed:undname.obj
 0001:00033ad0       ??4DName@@QAEAAV0@D@Z      10034ad0 f i libvcruntimed:undname.obj
 0001:00033b00       ??4DName@@QAEAAV0@PAV0@@Z  10034b00 f   libvcruntimed:undname.obj
 0001:00033ba0       ??4DName@@QAEAAV0@W4DNameStatus@@@Z 10034ba0 f   libvcruntimed:undname.obj
 0001:00033c20       ??AReplicator@@QBE?AVDName@@H@Z 10034c20 f   libvcruntimed:undname.obj
 0001:00033c90       ??B?$optional@_K@std@@QBE_NXZ 10034c90 f i libvcruntimed:undname.obj
 0001:00033cb0       ??D?$optional@_K@std@@QGAEAA_KXZ 10034cb0 f i libvcruntimed:undname.obj
 0001:00033cc0       ??H@YA?AVDName@@ABUStringLiteral@@ABV0@@Z 10034cc0 f i libvcruntimed:undname.obj
 0001:00033cf0       ??H@YA?AVDName@@DABV0@@Z   10034cf0 f i libvcruntimed:undname.obj
 0001:00033d20       ??H@YA?AVDName@@W4DNameStatus@@ABV0@@Z 10034d20 f i libvcruntimed:undname.obj
 0001:00033d50       ??HDName@@QBE?AV0@ABUStringLiteral@@@Z 10034d50 f   libvcruntimed:undname.obj
 0001:00033d90       ??HDName@@QBE?AV0@ABV0@@Z  10034d90 f   libvcruntimed:undname.obj
 0001:00033dd0       ??HDName@@QBE?AV0@D@Z      10034dd0 f   libvcruntimed:undname.obj
 0001:00033e10       ??HDName@@QBE?AV0@PAV0@@Z  10034e10 f   libvcruntimed:undname.obj
 0001:00033e50       ??HDName@@QBE?AV0@W4DNameStatus@@@Z 10034e50 f   libvcruntimed:undname.obj
 0001:00033e90       ??HStringLiteral@@QBE?AU0@H@Z 10034e90 f i libvcruntimed:undname.obj
 0001:00033ec0       ??YDName@@QAEAAV0@ABUStringLiteral@@@Z 10034ec0 f   libvcruntimed:undname.obj
 0001:00033f60       ??YDName@@QAEAAV0@ABV0@@Z  10034f60 f   libvcruntimed:undname.obj
 0001:00034000       ??YDName@@QAEAAV0@D@Z      10035000 f   libvcruntimed:undname.obj
 0001:00034080       ??YDName@@QAEAAV0@PAV0@@Z  10035080 f   libvcruntimed:undname.obj
 0001:00034130       ??YDName@@QAEAAV0@W4DNameStatus@@@Z 10035130 f   libvcruntimed:undname.obj
 0001:00034190       ??YReplicator@@QAEAAV0@ABVDName@@@Z 10035190 f   libvcruntimed:undname.obj
 0001:00034220       ??_5DName@@QAEAAV0@ABV0@@Z 10035220 f   libvcruntimed:undname.obj
 0001:00034280       ??__K_l@@YA?AUStringLiteral@@PBDI@Z 10035280 f i libvcruntimed:undname.obj
 0001:000342a0       ?Constructor@_HeapManager@@QAEXP6APAXI@ZP6AXPAX@Z@Z 100352a0 f i libvcruntimed:undname.obj
 0001:000342e0       ?Destructor@_HeapManager@@QAEXXZ 100352e0 f i libvcruntimed:undname.obj
 0001:00034350       ?UScore@UnDecorator@@SA?AUStringLiteral@@W4Tokens@@@Z 10035350 f   libvcruntimed:undname.obj
 0001:000343a0       ?composeDeclaration@UnDecorator@@CA?AVDName@@ABV2@@Z 100353a0 f i libvcruntimed:undname.obj
 0001:00036310       ?dbGetString@DName@@QBEPADXZ 10037310 f   libvcruntimed:undname.obj
 0001:00036330       ?doAccessSpecifiers@UnDecorator@@SAHXZ 10037330 f i libvcruntimed:undname.obj
 0001:00036360       ?doAllocationLanguage@UnDecorator@@SAHXZ 10037360 f i libvcruntimed:undname.obj
 0001:00036390       ?doAllocationModel@UnDecorator@@SAHXZ 10037390 f i libvcruntimed:undname.obj
 0001:000363c0       ?doEcsu@UnDecorator@@SAHXZ 100373c0 f i libvcruntimed:undname.obj
 0001:000363f0       ?doEllipsis@UnDecorator@@SAHXZ 100373f0 f i libvcruntimed:undname.obj
 0001:00036420       ?doFunctionReturns@UnDecorator@@SAHXZ 10037420 f i libvcruntimed:undname.obj
 0001:00036450       ?doMSKeywords@UnDecorator@@SAHXZ 10037450 f i libvcruntimed:undname.obj
 0001:00036480       ?doMemberTypes@UnDecorator@@SAHXZ 10037480 f i libvcruntimed:undname.obj
 0001:000364b0       ?doNameOnly@UnDecorator@@SAHXZ 100374b0 f i libvcruntimed:undname.obj
 0001:000364c0       ?doNoIdentCharCheck@UnDecorator@@SAHXZ 100374c0 f i libvcruntimed:undname.obj
 0001:000364d0       ?doPchar@DName@@AAEXD@Z    100374d0 f   libvcruntimed:undname.obj
 0001:00036540       ?doPtr64@UnDecorator@@SAHXZ 10037540 f i libvcruntimed:undname.obj
 0001:00036570       ?doRestrictionSpec@UnDecorator@@SAHXZ 10037570 f i libvcruntimed:undname.obj
 0001:000365a0       ?doThisTypes@UnDecorator@@SAHXZ 100375a0 f i libvcruntimed:undname.obj
 0001:000365d0       ?doThrowTypes@UnDecorator@@SAHXZ 100375d0 f i libvcruntimed:undname.obj
 0001:00036600       ?doTypeOnly@UnDecorator@@SAHXZ 10037600 f i libvcruntimed:undname.obj
 0001:00036610       ?doUnderScore@UnDecorator@@SAHXZ 10037610 f i libvcruntimed:undname.obj
 0001:00036640       ?getArgumentList@UnDecorator@@CA?AVDName@@XZ 10037640 f   libvcruntimed:undname.obj
 0001:00036790       ?getArgumentTypes@UnDecorator@@CA?AVDName@@XZ 10037790 f   libvcruntimed:undname.obj
 0001:000369a0       ?getArrayObject@UnDecorator@@CA?AVDName@@XZ 100379a0 f   libvcruntimed:undname.obj
 0001:00036a80       ?getArrayType@UnDecorator@@CA?AVDName@@ABV2@@Z 10037a80 f i libvcruntimed:undname.obj
 0001:00036d20       ?getBasedType@UnDecorator@@CA?AVDName@@XZ 10037d20 f   libvcruntimed:undname.obj
 0001:00036e10       ?getBasicDataType@UnDecorator@@CA?AVDName@@ABV2@@Z 10037e10 f   libvcruntimed:undname.obj
 0001:00037720       ?getCHPEName@UnDecorator@@QAEPADPADH@Z 10038720 f i libvcruntimed:undname.obj
 0001:00037880       ?getCallIndex@UnDecorator@@CA?AVDName@@XZ 10038880 f i libvcruntimed:undname.obj
 0001:000378a0       ?getCallingConvention@UnDecorator@@CA?AVDName@@XZ 100388a0 f   libvcruntimed:undname.obj
 0001:00037ae0       ?getDataIndirectType@UnDecorator@@CA?AVDName@@ABV2@W4IndirectionKind@@0H@Z 10038ae0 f   libvcruntimed:undname.obj
 0001:00038400       ?getDataIndirectType@UnDecorator@@CA?AVDName@@XZ 10039400 f i libvcruntimed:undname.obj
 0001:00038440       ?getDataType@UnDecorator@@CA?AVDName@@PAV2@@Z 10039440 f   libvcruntimed:undname.obj
 0001:00038580       ?getDecoratedName@UnDecorator@@CA?AVDName@@XZ 10039580 f   libvcruntimed:undname.obj
 0001:000389c0       ?getDimension@UnDecorator@@CA?AVDName@@_N@Z 100399c0 f   libvcruntimed:undname.obj
 0001:00038c20       ?getDispatchTarget@UnDecorator@@CA?AVDName@@XZ 10039c20 f   libvcruntimed:undname.obj
 0001:00038cc0       ?getDisplacement@UnDecorator@@CA?AVDName@@XZ 10039cc0 f i libvcruntimed:undname.obj
 0001:00038ce0       ?getECSUDataType@UnDecorator@@CA?AVDName@@XZ 10039ce0 f   libvcruntimed:undname.obj
 0001:00038f40       ?getECSUName@UnDecorator@@CA?AVDName@@XZ 10039f40 f i libvcruntimed:undname.obj
 0001:00038f60       ?getEnumType@UnDecorator@@CA?AVDName@@XZ 10039f60 f i libvcruntimed:undname.obj
 0001:00039110       ?getExtendedDataIndirectType@UnDecorator@@CA?AVDName@@AAW4IndirectionKind@@AA_NH@Z 1003a110 f   libvcruntimed:undname.obj
 0001:00039360       ?getExternalDataType@UnDecorator@@CA?AVDName@@ABV2@@Z 1003a360 f i libvcruntimed:undname.obj
 0001:00039400       ?getFloatingPoint@UnDecorator@@CA?AVDName@@H@Z 1003a400 f   libvcruntimed:undname.obj
 0001:000395b0       ?getFunctionIndirectType@UnDecorator@@CA?AVDName@@ABV2@@Z 1003a5b0 f   libvcruntimed:undname.obj
 0001:00039a90       ?getGuardNumber@UnDecorator@@CA?AVDName@@XZ 1003aa90 f i libvcruntimed:undname.obj
 0001:00039ab0       ?getLastChar@DName@@QBEDXZ 1003aab0 f i libvcruntimed:undname.obj
 0001:00039af0       ?getLastChar@DNameStatusNode@@UBEDXZ 1003aaf0 f i libvcruntimed:undname.obj
 0001:00039b20       ?getLastChar@charNode@@UBEDXZ 1003ab20 f i libvcruntimed:undname.obj
 0001:00039b40       ?getLastChar@pDNameNode@@UBEDXZ 1003ab40 f i libvcruntimed:undname.obj
 0001:00039b70       ?getLastChar@pairNode@@UBEDXZ 1003ab70 f i libvcruntimed:undname.obj
 0001:00039be0       ?getLastChar@pcharNode@@UBEDXZ 1003abe0 f i libvcruntimed:undname.obj
 0001:00039c20       ?getLexicalFrame@UnDecorator@@CA?AVDName@@XZ 1003ac20 f i libvcruntimed:undname.obj
 0001:00039c60       ?getMemoryWithBuffer@_HeapManager@@QAEPAXI@Z 1003ac60 f   libvcruntimed:undname.obj
 0001:00039d50       ?getMemoryWithoutBuffer@_HeapManager@@QAEPAXI@Z 1003ad50 f   libvcruntimed:undname.obj
 0001:00039d90       ?getNoexcept@UnDecorator@@CA?AVDName@@XZ 1003ad90 f   libvcruntimed:undname.obj
 0001:00039e10       ?getNumberOfDimensions@UnDecorator@@CAHXZ 1003ae10 f   libvcruntimed:undname.obj
 0001:00039f10       ?getOperatorName@UnDecorator@@CA?AVDName@@_NPA_N@Z 1003af10 f i libvcruntimed:undname.obj
 0001:0003aa00       ?getPointerType@UnDecorator@@CA?AVDName@@ABV2@0@Z 1003ba00 f i libvcruntimed:undname.obj
 0001:0003aa20       ?getPointerTypeArray@UnDecorator@@CA?AVDName@@ABV2@0@Z 1003ba20 f i libvcruntimed:undname.obj
 0001:0003aa40       ?getPrimaryDataType@UnDecorator@@CA?AVDName@@ABV2@@Z 1003ba40 f   libvcruntimed:undname.obj
 0001:0003aed0       ?getPtrRefDataType@UnDecorator@@CA?AVDName@@ABV2@H@Z 1003bed0 f   libvcruntimed:undname.obj
 0001:0003b180       ?getPtrRefType@UnDecorator@@CA?AVDName@@ABV2@0W4IndirectionKind@@@Z 1003c180 f   libvcruntimed:undname.obj
 0001:0003b300       ?getReferenceType@UnDecorator@@CA?AVDName@@ABV2@0W4IndirectionKind@@@Z 1003c300 f i libvcruntimed:undname.obj
 0001:0003b320       ?getRestrictionSpec@UnDecorator@@CA?AVDName@@XZ 1003c320 f   libvcruntimed:undname.obj
 0001:0003b4e0       ?getReturnType@UnDecorator@@CA?AVDName@@PAV2@@Z 1003c4e0 f   libvcruntimed:undname.obj
 0001:0003b530       ?getScope@UnDecorator@@CA?AVDName@@XZ 1003c530 f   libvcruntimed:undname.obj
 0001:0003bac0       ?getScopedName@UnDecorator@@CA?AVDName@@XZ 1003cac0 f   libvcruntimed:undname.obj
 0001:0003bc10       ?getSignedDimension@UnDecorator@@CA?AVDName@@XZ 1003cc10 f   libvcruntimed:undname.obj
 0001:0003bc90       ?getStorageConvention@UnDecorator@@CA?AVDName@@XZ 1003cc90 f i libvcruntimed:undname.obj
 0001:0003bcb0       ?getString@DName@@QBEPADPAD0@Z 1003ccb0 f i libvcruntimed:undname.obj
 0001:0003bd10       ?getString@DName@@QBEPADPADH@Z 1003cd10 f i libvcruntimed:undname.obj
 0001:0003bda0       ?getString@DNameStatusNode@@UBEPADPAD0@Z 1003cda0 f i libvcruntimed:undname.obj
 0001:0003bde0       ?getString@charNode@@UBEPADPAD0@Z 1003cde0 f i libvcruntimed:undname.obj
 0001:0003be10       ?getString@pDNameNode@@UBEPADPAD0@Z 1003ce10 f i libvcruntimed:undname.obj
 0001:0003be50       ?getString@pairNode@@UBEPADPAD0@Z 1003ce50 f i libvcruntimed:undname.obj
 0001:0003bee0       ?getString@pcharNode@@UBEPADPAD0@Z 1003cee0 f i libvcruntimed:undname.obj
 0001:0003bf10       ?getStringEncoding@UnDecorator@@CA?AVDName@@W4PrefixKind@@H@Z 1003cf10 f   libvcruntimed:undname.obj
 0001:0003c020       ?getStringHelper@@YAPADPADPBD1H@Z 1003d020 f i libvcruntimed:undname.obj
 0001:0003c060       ?getStringObject@UnDecorator@@CA?AVDName@@XZ 1003d060 f   libvcruntimed:undname.obj
 0001:0003c110       ?getSymbolName@UnDecorator@@CA?AVDName@@XZ 1003d110 f i libvcruntimed:undname.obj
 0001:0003c1a0       ?getTemplateArgumentList@UnDecorator@@CA?AVDName@@XZ 1003d1a0 f   libvcruntimed:undname.obj
 0001:0003c490       ?getTemplateName@UnDecorator@@CA?AVDName@@_N@Z 1003d490 f   libvcruntimed:undname.obj
 0001:0003c650       ?getTemplateNonTypeArgument@UnDecorator@@CA?AVDName@@XZ 1003d650 f   libvcruntimed:undname.obj
 0001:0003cb90       ?getTemplateTypeArgument@UnDecorator@@CA?AVDName@@XZ 1003db90 f   libvcruntimed:undname.obj
 0001:0003cd30       ?getThisType@UnDecorator@@CA?AVDName@@XZ 1003dd30 f i libvcruntimed:undname.obj
 0001:0003cd70       ?getThrowTypes@UnDecorator@@CA?AVDName@@XZ 1003dd70 f   libvcruntimed:undname.obj
 0001:0003cdb0       ?getTypeEncoding@UnDecorator@@CAHXZ 1003ddb0 f i libvcruntimed:undname.obj
 0001:0003d870       ?getUndecoratedName@UnDecorator@@QAEPADPADH@Z 1003e870 f i libvcruntimed:undname.obj
 0001:0003d9d0       ?getVCallThunkType@UnDecorator@@CA?AVDName@@XZ 1003e9d0 f i libvcruntimed:undname.obj
 0001:0003da50       ?getValue@UnDecorator@@CA?AV?$optional@_K@std@@XZ 1003ea50 f   libvcruntimed:undname.obj
 0001:0003db10       ?getValueObject@UnDecorator@@CA?AVDName@@XZ 1003eb10 f   libvcruntimed:undname.obj
 0001:0003dcd0       ?getVbTableType@UnDecorator@@CA?AVDName@@ABV2@@Z 1003ecd0 f i libvcruntimed:undname.obj
 0001:0003dcf0       ?getVdispMapType@UnDecorator@@CA?AVDName@@ABV2@@Z 1003ecf0 f i libvcruntimed:undname.obj
 0001:0003dd80       ?getVfTableType@UnDecorator@@CA?AVDName@@ABV2@@Z 1003ed80 f i libvcruntimed:undname.obj
 0001:0003df80       ?getZName@UnDecorator@@CA?AVDName@@_N0@Z 1003ef80 f   libvcruntimed:undname.obj
 0001:0003e2c0       ?haveTemplateParameters@UnDecorator@@SAHXZ 1003f2c0 f i libvcruntimed:undname.obj
 0001:0003e2d0       ?isArray@DName@@QBEHXZ     1003f2d0 f i libvcruntimed:undname.obj
 0001:0003e2f0       ?isComArray@DName@@QBEHXZ  1003f2f0 f i libvcruntimed:undname.obj
 0001:0003e310       ?isEmpty@DName@@QBEHXZ     1003f310 f i libvcruntimed:undname.obj
 0001:0003e340       ?isFull@Replicator@@QBEHXZ 1003f340 f i libvcruntimed:undname.obj
 0001:0003e370       ?isNoTE@DName@@QBEHXZ      1003f370 f i libvcruntimed:undname.obj
 0001:0003e390       ?isPinPtr@DName@@QBEHXZ    1003f390 f i libvcruntimed:undname.obj
 0001:0003e3b0       ?isPtrRef@DName@@QBEHXZ    1003f3b0 f i libvcruntimed:undname.obj
 0001:0003e3d0       ?isUDC@DName@@QBEHXZ       1003f3d0 f i libvcruntimed:undname.obj
 0001:0003e410       ?isUDTThunk@DName@@QBEHXZ  1003f410 f i libvcruntimed:undname.obj
 0001:0003e450       ?isVCallThunk@DName@@QBEHXZ 1003f450 f i libvcruntimed:undname.obj
 0001:0003e470       ?isValid@DName@@QBEHXZ     1003f470 f i libvcruntimed:undname.obj
 0001:0003e4b0       ?length@DName@@QBEHXZ      1003f4b0 f i libvcruntimed:undname.obj
 0001:0003e4f0       ?length@DNameStatusNode@@UBEHXZ 1003f4f0 f i libvcruntimed:undname.obj
 0001:0003e510       ?length@charNode@@UBEHXZ   1003f510 f i libvcruntimed:undname.obj
 0001:0003e520       ?length@pDNameNode@@UBEHXZ 1003f520 f i libvcruntimed:undname.obj
 0001:0003e550       ?length@pairNode@@UBEHXZ   1003f550 f i libvcruntimed:undname.obj
 0001:0003e5c0       ?length@pcharNode@@UBEHXZ  1003f5c0 f i libvcruntimed:undname.obj
 0001:0003e5e0       ?make@DNameStatusNode@@SAPBV1@W4DNameStatus@@@Z 1003f5e0 f i libvcruntimed:undname.obj
 0001:0003e610       ?parseDecoratedName@UnDecorator@@CA?AVDName@@XZ 1003f610 f   libvcruntimed:undname.obj
 0001:0003e7a0       ?raw_length@DNameStatusNode@@UBEHXZ 1003f7a0 f i libvcruntimed:undname.obj
 0001:0003e7c0       ?raw_length@charNode@@UBEHXZ 1003f7c0 f i libvcruntimed:undname.obj
 0001:0003e7e0       ?raw_length@pDNameNode@@UBEHXZ 1003f7e0 f i libvcruntimed:undname.obj
 0001:0003e7f0       ?raw_length@pairNode@@UBEHXZ 1003f7f0 f i libvcruntimed:undname.obj
 0001:0003e810       ?raw_length@pcharNode@@UBEHXZ 1003f810 f i libvcruntimed:undname.obj
 0001:0003e830       ?setIsArray@DName@@QAEXXZ  1003f830 f i libvcruntimed:undname.obj
 0001:0003e850       ?setIsComArray@DName@@QAEXXZ 1003f850 f i libvcruntimed:undname.obj
 0001:0003e870       ?setIsNoTE@DName@@QAEXXZ   1003f870 f i libvcruntimed:undname.obj
 0001:0003e890       ?setIsPinPtr@DName@@QAEXXZ 1003f890 f i libvcruntimed:undname.obj
 0001:0003e8b0       ?setIsUDC@DName@@QAEXXZ    1003f8b0 f i libvcruntimed:undname.obj
 0001:0003e8e0       ?setIsVCallThunk@DName@@QAEXXZ 1003f8e0 f i libvcruntimed:undname.obj
 0001:0003e900       ?setPtrRef@DName@@QAEAAV1@XZ 1003f900 f i libvcruntimed:undname.obj
 0001:0003e920       ?status@DName@@QBE?AW4DNameStatus@@XZ 1003f920 f i libvcruntimed:undname.obj
 0001:0003ea20       ___unDName                 1003fa20 f   libvcruntimed:undname.obj
 0001:0003ea50       ___unDNameEx               1003fa50 f   libvcruntimed:undname.obj
 0001:0003eb20       _unDNameGenerateCHPE       1003fb20 f   libvcruntimed:undname.obj
 0001:0003eb80       __global_unwind2           1003fb80 f   libvcruntimed:exsup.obj
 0001:0003ebe6       __local_unwind2            1003fbe6 f   libvcruntimed:exsup.obj
 0001:0003ec6a       __abnormal_termination     1003fc6a f   libvcruntimed:exsup.obj
 0001:0003ec90       __NLG_Notify1              1003fc90 f   libvcruntimed:exsup.obj
 0001:0003ec9c       __NLG_Notify               1003fc9c f   libvcruntimed:exsup.obj
 0001:0003ecb3       __NLG_Dispatch             1003fcb3     libvcruntimed:exsup.obj
 0001:0003ecb3       __NLG_Dispatch2            1003fcb3     libvcruntimed:exsup.obj
 0001:0003ecbb       __NLG_Call                 1003fcbb f   libvcruntimed:exsup.obj
 0001:0003ecbd       __NLG_Return2              1003fcbd     libvcruntimed:exsup.obj
 0001:0003ecc0       ??$__crt_interlocked_exchange_pointer@UHINSTANCE__@@PAU1@@@YAPAUHINSTANCE__@@PDSAU0@QAU0@@Z 1003fcc0 f i libvcruntimed:winapi_downlevel.obj
 0001:0003ecd0       ??$__crt_interlocked_exchange_pointer@UHINSTANCE__@@PAX@@YAPAUHINSTANCE__@@PDSAU0@QAX@Z 1003fcd0 f i libvcruntimed:winapi_downlevel.obj
 0001:0003ece0       ??$__crt_interlocked_exchange_pointer@XPAX@@YAPAXPDSAXQAX@Z 1003fce0 f i libvcruntimed:winapi_downlevel.obj
 0001:0003ecf0       ??$__crt_interlocked_read_pointer@UHINSTANCE__@@@@YAPAUHINSTANCE__@@PDSAU0@@Z 1003fcf0 f i libvcruntimed:winapi_downlevel.obj
 0001:0003ed10       ??$__crt_interlocked_read_pointer@X@@YAPAXPDSAX@Z 1003fd10 f i libvcruntimed:winapi_downlevel.obj
 0001:0003f0e0       ___vcrt_FlsAlloc           100400e0 f   libvcruntimed:winapi_downlevel.obj
 0001:0003f120       ___vcrt_FlsFree            10040120 f   libvcruntimed:winapi_downlevel.obj
 0001:0003f160       ___vcrt_FlsGetValue        10040160 f   libvcruntimed:winapi_downlevel.obj
 0001:0003f1a0       ___vcrt_FlsSetValue        100401a0 f   libvcruntimed:winapi_downlevel.obj
 0001:0003f1f0       ___vcrt_InitializeCriticalSectionEx 100401f0 f   libvcruntimed:winapi_downlevel.obj
 0001:0003f270       __get_unexpected           10040270 f   libvcruntimed:unexpected.obj
 0001:0003f290       _set_unexpected            10040290 f   libvcruntimed:unexpected.obj
 0001:0003f2c0       _unexpected                100402c0 f   libvcruntimed:unexpected.obj
 0001:0003f300       ?GetCurrentState@__FrameHandler3@@SAHPAUEHRegistrationNode@@PAXPBU_s_FuncInfo@@@Z 10040300 f   libvcruntimed:ehstate.obj
 0001:0003f330       ?SetState@__FrameHandler3@@SAXPAUEHRegistrationNode@@PBU_s_FuncInfo@@H@Z 10040330 f   libvcruntimed:ehstate.obj
 0001:0003f340       ??$?0ABV?$stream_output_adapter@D@__crt_stdio_output@@AB_KABQBDABQAU__crt_locale_pointers@@ABQAD@?$format_validation_base@DV?$stream_output_adapter@D@__crt_stdio_output@@@__crt_stdio_output@@IAE@ABV?$stream_output_adapter@D@1@AB_KABQBDABQAU__crt_locale_pointers@@ABQAD@Z 10040340 f i libucrtd:output.obj
 0001:0003f370       ??$?0ABV?$stream_output_adapter@D@__crt_stdio_output@@AB_KABQBDABQAU__crt_locale_pointers@@ABQAD@?$positional_parameter_base@DV?$stream_output_adapter@D@__crt_stdio_output@@@__crt_stdio_output@@IAE@ABV?$stream_output_adapter@D@1@AB_KABQBDABQAU__crt_locale_pointers@@ABQAD@Z 10040370 f i libucrtd:output.obj
 0001:0003f3f0       ??$?0ABV?$stream_output_adapter@D@__crt_stdio_output@@AB_KABQBDABQAU__crt_locale_pointers@@ABQAD@?$standard_base@DV?$stream_output_adapter@D@__crt_stdio_output@@@__crt_stdio_output@@IAE@ABV?$stream_output_adapter@D@1@AB_KABQBDABQAU__crt_locale_pointers@@ABQAD@Z 100403f0 f i libucrtd:output.obj
 0001:0003f440       ??$?0ABV?$stream_output_adapter@_W@__crt_stdio_output@@AB_KABQB_WABQAU__crt_locale_pointers@@ABQAD@?$format_validation_base@_WV?$stream_output_adapter@_W@__crt_stdio_output@@@__crt_stdio_output@@IAE@ABV?$stream_output_adapter@_W@1@AB_KABQB_WABQAU__crt_locale_pointers@@ABQAD@Z 10040440 f i libucrtd:output.obj
 0001:0003f470       ??$?0ABV?$stream_output_adapter@_W@__crt_stdio_output@@AB_KABQB_WABQAU__crt_locale_pointers@@ABQAD@?$positional_parameter_base@_WV?$stream_output_adapter@_W@__crt_stdio_output@@@__crt_stdio_output@@IAE@ABV?$stream_output_adapter@_W@1@AB_KABQB_WABQAU__crt_locale_pointers@@ABQAD@Z 10040470 f i libucrtd:output.obj
 0001:0003f4f0       ??$?0ABV?$stream_output_adapter@_W@__crt_stdio_output@@AB_KABQB_WABQAU__crt_locale_pointers@@ABQAD@?$standard_base@_WV?$stream_output_adapter@_W@__crt_stdio_output@@@__crt_stdio_output@@IAE@ABV?$stream_output_adapter@_W@1@AB_KABQB_WABQAU__crt_locale_pointers@@ABQAD@Z 100404f0 f i libucrtd:output.obj
 0001:0003f540       ??$?0ABV?$string_output_adapter@D@__crt_stdio_output@@AB_KABQBDABQAU__crt_locale_pointers@@ABQAD@?$format_validation_base@DV?$string_output_adapter@D@__crt_stdio_output@@@__crt_stdio_output@@IAE@ABV?$string_output_adapter@D@1@AB_KABQBDABQAU__crt_locale_pointers@@ABQAD@Z 10040540 f i libucrtd:output.obj
 0001:0003f570       ??$?0ABV?$string_output_adapter@D@__crt_stdio_output@@AB_KABQBDABQAU__crt_locale_pointers@@ABQAD@?$positional_parameter_base@DV?$string_output_adapter@D@__crt_stdio_output@@@__crt_stdio_output@@IAE@ABV?$string_output_adapter@D@1@AB_KABQBDABQAU__crt_locale_pointers@@ABQAD@Z 10040570 f i libucrtd:output.obj
 0001:0003f5f0       ??$?0ABV?$string_output_adapter@D@__crt_stdio_output@@AB_KABQBDABQAU__crt_locale_pointers@@ABQAD@?$standard_base@DV?$string_output_adapter@D@__crt_stdio_output@@@__crt_stdio_output@@IAE@ABV?$string_output_adapter@D@1@AB_KABQBDABQAU__crt_locale_pointers@@ABQAD@Z 100405f0 f i libucrtd:output.obj
 0001:0003f640       ??$?0ABV?$string_output_adapter@_W@__crt_stdio_output@@AB_KABQB_WABQAU__crt_locale_pointers@@ABQAD@?$format_validation_base@_WV?$string_output_adapter@_W@__crt_stdio_output@@@__crt_stdio_output@@IAE@ABV?$string_output_adapter@_W@1@AB_KABQB_WABQAU__crt_locale_pointers@@ABQAD@Z 10040640 f i libucrtd:output.obj
 0001:0003f670       ??$?0ABV?$string_output_adapter@_W@__crt_stdio_output@@AB_KABQB_WABQAU__crt_locale_pointers@@ABQAD@?$positional_parameter_base@_WV?$string_output_adapter@_W@__crt_stdio_output@@@__crt_stdio_output@@IAE@ABV?$string_output_adapter@_W@1@AB_KABQB_WABQAU__crt_locale_pointers@@ABQAD@Z 10040670 f i libucrtd:output.obj
 0001:0003f6f0       ??$?0ABV?$string_output_adapter@_W@__crt_stdio_output@@AB_KABQB_WABQAU__crt_locale_pointers@@ABQAD@?$standard_base@_WV?$string_output_adapter@_W@__crt_stdio_output@@@__crt_stdio_output@@IAE@ABV?$string_output_adapter@_W@1@AB_KABQB_WABQAU__crt_locale_pointers@@ABQAD@Z 100406f0 f i libucrtd:output.obj
 0001:0003fc20       ??$__crt_interlocked_read@J@@YAJPDJ@Z 10040c20 f i libucrtd:output.obj
 0001:000429c0       ??$count@D@formatting_buffer@__crt_stdio_output@@QBEIXZ 100439c0 f i libucrtd:output.obj
 0001:00042a00       ??$count@_W@formatting_buffer@__crt_stdio_output@@QBEIXZ 10043a00 f i libucrtd:output.obj
 0001:00042a40       ??$data@D@formatting_buffer@__crt_stdio_output@@QAEPADXZ 10043a40 f i libucrtd:output.obj
 0001:00042a80       ??$data@_W@formatting_buffer@__crt_stdio_output@@QAEPA_WXZ 10043a80 f i libucrtd:output.obj
 0001:00042ac0       ??$ensure_buffer_is_big_enough@D@formatting_buffer@__crt_stdio_output@@QAE_NI@Z 10043ac0 f i libucrtd:output.obj
 0001:00042ba0       ??$ensure_buffer_is_big_enough@_W@formatting_buffer@__crt_stdio_output@@QAE_NI@Z 10043ba0 f i libucrtd:output.obj
 0001:00042c90       ??$extract_argument_from_va_list@C_J@?$positional_parameter_base@DV?$stream_output_adapter@D@__crt_stdio_output@@@__crt_stdio_output@@IAE_NAA_J@Z 10043c90 f i libucrtd:output.obj
 0001:00042dd0       ??$extract_argument_from_va_list@C_J@?$positional_parameter_base@DV?$string_output_adapter@D@__crt_stdio_output@@@__crt_stdio_output@@IAE_NAA_J@Z 10043dd0 f i libucrtd:output.obj
 0001:00042f10       ??$extract_argument_from_va_list@C_J@?$positional_parameter_base@_WV?$stream_output_adapter@_W@__crt_stdio_output@@@__crt_stdio_output@@IAE_NAA_J@Z 10043f10 f i libucrtd:output.obj
 0001:00043050       ??$extract_argument_from_va_list@C_J@?$positional_parameter_base@_WV?$string_output_adapter@_W@__crt_stdio_output@@@__crt_stdio_output@@IAE_NAA_J@Z 10044050 f i libucrtd:output.obj
 0001:00043190       ??$extract_argument_from_va_list@C_J@?$standard_base@DV?$stream_output_adapter@D@__crt_stdio_output@@@__crt_stdio_output@@IAE_NAA_J@Z 10044190 f i libucrtd:output.obj
 0001:000431c0       ??$extract_argument_from_va_list@C_J@?$standard_base@DV?$string_output_adapter@D@__crt_stdio_output@@@__crt_stdio_output@@IAE_NAA_J@Z 100441c0 f i libucrtd:output.obj
 0001:000431f0       ??$extract_argument_from_va_list@C_J@?$standard_base@_WV?$stream_output_adapter@_W@__crt_stdio_output@@@__crt_stdio_output@@IAE_NAA_J@Z 100441f0 f i libucrtd:output.obj
 0001:00043220       ??$extract_argument_from_va_list@C_J@?$standard_base@_WV?$string_output_adapter@_W@__crt_stdio_output@@@__crt_stdio_output@@IAE_NAA_J@Z 10044220 f i libucrtd:output.obj
 0001:00043250       ??$extract_argument_from_va_list@E_J@?$positional_parameter_base@DV?$stream_output_adapter@D@__crt_stdio_output@@@__crt_stdio_output@@IAE_NAA_J@Z 10044250 f i libucrtd:output.obj
 0001:00043390       ??$extract_argument_from_va_list@E_J@?$positional_parameter_base@DV?$string_output_adapter@D@__crt_stdio_output@@@__crt_stdio_output@@IAE_NAA_J@Z 10044390 f i libucrtd:output.obj
 0001:000434d0       ??$extract_argument_from_va_list@E_J@?$positional_parameter_base@_WV?$stream_output_adapter@_W@__crt_stdio_output@@@__crt_stdio_output@@IAE_NAA_J@Z 100444d0 f i libucrtd:output.obj
 0001:00043610       ??$extract_argument_from_va_list@E_J@?$positional_parameter_base@_WV?$string_output_adapter@_W@__crt_stdio_output@@@__crt_stdio_output@@IAE_NAA_J@Z 10044610 f i libucrtd:output.obj
 0001:00043750       ??$extract_argument_from_va_list@E_J@?$standard_base@DV?$stream_output_adapter@D@__crt_stdio_output@@@__crt_stdio_output@@IAE_NAA_J@Z 10044750 f i libucrtd:output.obj
 0001:00043780       ??$extract_argument_from_va_list@E_J@?$standard_base@DV?$string_output_adapter@D@__crt_stdio_output@@@__crt_stdio_output@@IAE_NAA_J@Z 10044780 f i libucrtd:output.obj
 0001:000437b0       ??$extract_argument_from_va_list@E_J@?$standard_base@_WV?$stream_output_adapter@_W@__crt_stdio_output@@@__crt_stdio_output@@IAE_NAA_J@Z 100447b0 f i libucrtd:output.obj
 0001:000437e0       ??$extract_argument_from_va_list@E_J@?$standard_base@_WV?$string_output_adapter@_W@__crt_stdio_output@@@__crt_stdio_output@@IAE_NAA_J@Z 100447e0 f i libucrtd:output.obj
 0001:00043810       ??$extract_argument_from_va_list@F_J@?$positional_parameter_base@DV?$stream_output_adapter@D@__crt_stdio_output@@@__crt_stdio_output@@IAE_NAA_J@Z 10044810 f i libucrtd:output.obj
 0001:00043940       ??$extract_argument_from_va_list@F_J@?$positional_parameter_base@DV?$string_output_adapter@D@__crt_stdio_output@@@__crt_stdio_output@@IAE_NAA_J@Z 10044940 f i libucrtd:output.obj
 0001:00043a70       ??$extract_argument_from_va_list@F_J@?$positional_parameter_base@_WV?$stream_output_adapter@_W@__crt_stdio_output@@@__crt_stdio_output@@IAE_NAA_J@Z 10044a70 f i libucrtd:output.obj
 0001:00043ba0       ??$extract_argument_from_va_list@F_J@?$positional_parameter_base@_WV?$string_output_adapter@_W@__crt_stdio_output@@@__crt_stdio_output@@IAE_NAA_J@Z 10044ba0 f i libucrtd:output.obj
 0001:00043cd0       ??$extract_argument_from_va_list@F_J@?$standard_base@DV?$stream_output_adapter@D@__crt_stdio_output@@@__crt_stdio_output@@IAE_NAA_J@Z 10044cd0 f i libucrtd:output.obj
 0001:00043d00       ??$extract_argument_from_va_list@F_J@?$standard_base@DV?$string_output_adapter@D@__crt_stdio_output@@@__crt_stdio_output@@IAE_NAA_J@Z 10044d00 f i libucrtd:output.obj
 0001:00043d30       ??$extract_argument_from_va_list@F_J@?$standard_base@_WV?$stream_output_adapter@_W@__crt_stdio_output@@@__crt_stdio_output@@IAE_NAA_J@Z 10044d30 f i libucrtd:output.obj
 0001:00043d60       ??$extract_argument_from_va_list@F_J@?$standard_base@_WV?$string_output_adapter@_W@__crt_stdio_output@@@__crt_stdio_output@@IAE_NAA_J@Z 10044d60 f i libucrtd:output.obj
 0001:00043d90       ??$extract_argument_from_va_list@GD@?$positional_parameter_base@DV?$stream_output_adapter@D@__crt_stdio_output@@@__crt_stdio_output@@IAE_NAAD@Z 10044d90 f i libucrtd:output.obj
 0001:00043ec0       ??$extract_argument_from_va_list@GD@?$positional_parameter_base@DV?$string_output_adapter@D@__crt_stdio_output@@@__crt_stdio_output@@IAE_NAAD@Z 10044ec0 f i libucrtd:output.obj
 0001:00043ff0       ??$extract_argument_from_va_list@GD@?$standard_base@DV?$stream_output_adapter@D@__crt_stdio_output@@@__crt_stdio_output@@IAE_NAAD@Z 10044ff0 f i libucrtd:output.obj
 0001:00044020       ??$extract_argument_from_va_list@GD@?$standard_base@DV?$string_output_adapter@D@__crt_stdio_output@@@__crt_stdio_output@@IAE_NAAD@Z 10045020 f i libucrtd:output.obj
 0001:00044050       ??$extract_argument_from_va_list@G_J@?$positional_parameter_base@DV?$stream_output_adapter@D@__crt_stdio_output@@@__crt_stdio_output@@IAE_NAA_J@Z 10045050 f i libucrtd:output.obj
 0001:00044190       ??$extract_argument_from_va_list@G_J@?$positional_parameter_base@DV?$string_output_adapter@D@__crt_stdio_output@@@__crt_stdio_output@@IAE_NAA_J@Z 10045190 f i libucrtd:output.obj
 0001:000442d0       ??$extract_argument_from_va_list@G_J@?$positional_parameter_base@_WV?$stream_output_adapter@_W@__crt_stdio_output@@@__crt_stdio_output@@IAE_NAA_J@Z 100452d0 f i libucrtd:output.obj
 0001:00044410       ??$extract_argument_from_va_list@G_J@?$positional_parameter_base@_WV?$string_output_adapter@_W@__crt_stdio_output@@@__crt_stdio_output@@IAE_NAA_J@Z 10045410 f i libucrtd:output.obj
 0001:00044550       ??$extract_argument_from_va_list@G_J@?$standard_base@DV?$stream_output_adapter@D@__crt_stdio_output@@@__crt_stdio_output@@IAE_NAA_J@Z 10045550 f i libucrtd:output.obj
 0001:00044580       ??$extract_argument_from_va_list@G_J@?$standard_base@DV?$string_output_adapter@D@__crt_stdio_output@@@__crt_stdio_output@@IAE_NAA_J@Z 10045580 f i libucrtd:output.obj
 0001:000445b0       ??$extract_argument_from_va_list@G_J@?$standard_base@_WV?$stream_output_adapter@_W@__crt_stdio_output@@@__crt_stdio_output@@IAE_NAA_J@Z 100455b0 f i libucrtd:output.obj
 0001:000445e0       ??$extract_argument_from_va_list@G_J@?$standard_base@_WV?$string_output_adapter@_W@__crt_stdio_output@@@__crt_stdio_output@@IAE_NAA_J@Z 100455e0 f i libucrtd:output.obj
 0001:00044610       ??$extract_argument_from_va_list@H_J@?$positional_parameter_base@DV?$stream_output_adapter@D@__crt_stdio_output@@@__crt_stdio_output@@IAE_NAA_J@Z 10045610 f i libucrtd:output.obj
 0001:00044740       ??$extract_argument_from_va_list@H_J@?$positional_parameter_base@DV?$string_output_adapter@D@__crt_stdio_output@@@__crt_stdio_output@@IAE_NAA_J@Z 10045740 f i libucrtd:output.obj
 0001:00044870       ??$extract_argument_from_va_list@H_J@?$positional_parameter_base@_WV?$stream_output_adapter@_W@__crt_stdio_output@@@__crt_stdio_output@@IAE_NAA_J@Z 10045870 f i libucrtd:output.obj
 0001:000449a0       ??$extract_argument_from_va_list@H_J@?$positional_parameter_base@_WV?$string_output_adapter@_W@__crt_stdio_output@@@__crt_stdio_output@@IAE_NAA_J@Z 100459a0 f i libucrtd:output.obj
 0001:00044ad0       ??$extract_argument_from_va_list@H_J@?$standard_base@DV?$stream_output_adapter@D@__crt_stdio_output@@@__crt_stdio_output@@IAE_NAA_J@Z 10045ad0 f i libucrtd:output.obj
 0001:00044b00       ??$extract_argument_from_va_list@H_J@?$standard_base@DV?$string_output_adapter@D@__crt_stdio_output@@@__crt_stdio_output@@IAE_NAA_J@Z 10045b00 f i libucrtd:output.obj
 0001:00044b30       ??$extract_argument_from_va_list@H_J@?$standard_base@_WV?$stream_output_adapter@_W@__crt_stdio_output@@@__crt_stdio_output@@IAE_NAA_J@Z 10045b30 f i libucrtd:output.obj
 0001:00044b60       ??$extract_argument_from_va_list@H_J@?$standard_base@_WV?$string_output_adapter@_W@__crt_stdio_output@@@__crt_stdio_output@@IAE_NAA_J@Z 10045b60 f i libucrtd:output.obj
 0001:00044b90       ??$extract_argument_from_va_list@I_J@?$positional_parameter_base@DV?$stream_output_adapter@D@__crt_stdio_output@@@__crt_stdio_output@@IAE_NAA_J@Z 10045b90 f i libucrtd:output.obj
 0001:00044cc0       ??$extract_argument_from_va_list@I_J@?$positional_parameter_base@DV?$string_output_adapter@D@__crt_stdio_output@@@__crt_stdio_output@@IAE_NAA_J@Z 10045cc0 f i libucrtd:output.obj
 0001:00044df0       ??$extract_argument_from_va_list@I_J@?$positional_parameter_base@_WV?$stream_output_adapter@_W@__crt_stdio_output@@@__crt_stdio_output@@IAE_NAA_J@Z 10045df0 f i libucrtd:output.obj
 0001:00044f20       ??$extract_argument_from_va_list@I_J@?$positional_parameter_base@_WV?$string_output_adapter@_W@__crt_stdio_output@@@__crt_stdio_output@@IAE_NAA_J@Z 10045f20 f i libucrtd:output.obj
 0001:00045050       ??$extract_argument_from_va_list@I_J@?$standard_base@DV?$stream_output_adapter@D@__crt_stdio_output@@@__crt_stdio_output@@IAE_NAA_J@Z 10046050 f i libucrtd:output.obj
 0001:00045080       ??$extract_argument_from_va_list@I_J@?$standard_base@DV?$string_output_adapter@D@__crt_stdio_output@@@__crt_stdio_output@@IAE_NAA_J@Z 10046080 f i libucrtd:output.obj
 0001:000450b0       ??$extract_argument_from_va_list@I_J@?$standard_base@_WV?$stream_output_adapter@_W@__crt_stdio_output@@@__crt_stdio_output@@IAE_NAA_J@Z 100460b0 f i libucrtd:output.obj
 0001:000450e0       ??$extract_argument_from_va_list@I_J@?$standard_base@_WV?$string_output_adapter@_W@__crt_stdio_output@@@__crt_stdio_output@@IAE_NAA_J@Z 100460e0 f i libucrtd:output.obj
 0001:00045110       ??$extract_argument_from_va_list@PADPAD@?$positional_parameter_base@DV?$stream_output_adapter@D@__crt_stdio_output@@@__crt_stdio_output@@IAE_NAAPAD@Z 10046110 f i libucrtd:output.obj
 0001:00045240       ??$extract_argument_from_va_list@PADPAD@?$positional_parameter_base@DV?$string_output_adapter@D@__crt_stdio_output@@@__crt_stdio_output@@IAE_NAAPAD@Z 10046240 f i libucrtd:output.obj
 0001:00045370       ??$extract_argument_from_va_list@PADPAD@?$positional_parameter_base@_WV?$stream_output_adapter@_W@__crt_stdio_output@@@__crt_stdio_output@@IAE_NAAPAD@Z 10046370 f i libucrtd:output.obj
 0001:000454a0       ??$extract_argument_from_va_list@PADPAD@?$positional_parameter_base@_WV?$string_output_adapter@_W@__crt_stdio_output@@@__crt_stdio_output@@IAE_NAAPAD@Z 100464a0 f i libucrtd:output.obj
 0001:000455d0       ??$extract_argument_from_va_list@PADPAD@?$standard_base@DV?$stream_output_adapter@D@__crt_stdio_output@@@__crt_stdio_output@@IAE_NAAPAD@Z 100465d0 f i libucrtd:output.obj
 0001:00045600       ??$extract_argument_from_va_list@PADPAD@?$standard_base@DV?$string_output_adapter@D@__crt_stdio_output@@@__crt_stdio_output@@IAE_NAAPAD@Z 10046600 f i libucrtd:output.obj
 0001:00045630       ??$extract_argument_from_va_list@PADPAD@?$standard_base@_WV?$stream_output_adapter@_W@__crt_stdio_output@@@__crt_stdio_output@@IAE_NAAPAD@Z 10046630 f i libucrtd:output.obj
 0001:00045660       ??$extract_argument_from_va_list@PADPAD@?$standard_base@_WV?$string_output_adapter@_W@__crt_stdio_output@@@__crt_stdio_output@@IAE_NAAPAD@Z 10046660 f i libucrtd:output.obj
 0001:00045690       ??$extract_argument_from_va_list@PAUansi_string@?1??type_case_Z@?$output_processor@DV?$stream_output_adapter@D@__crt_stdio_output@@V?$format_validation_base@DV?$stream_output_adapter@D@__crt_stdio_output@@@2@@__crt_stdio_output@@AAE_NXZ@PAU1?1??234@AAE_NXZ@@?$standard_base@DV?$stream_output_adapter@D@__crt_stdio_output@@@__crt_stdio_output@@IAE_NAAPAUansi_string@?1??type_case_Z@?$output_processor@DV?$stream_output_adapter@D@__crt_stdio_output@@V?$format_validation_base@DV?$stream_output_adapter@D@__crt_stdio_output@@@2@@1@AAE_NXZ@@Z 10046690 f i libucrtd:output.obj
 0001:000456c0       ??$extract_argument_from_va_list@PAUansi_string@?1??type_case_Z@?$output_processor@DV?$stream_output_adapter@D@__crt_stdio_output@@V?$positional_parameter_base@DV?$stream_output_adapter@D@__crt_stdio_output@@@2@@__crt_stdio_output@@AAE_NXZ@PAU1?1??234@AAE_NXZ@@?$positional_parameter_base@DV?$stream_output_adapter@D@__crt_stdio_output@@@__crt_stdio_output@@IAE_NAAPAUansi_string@?1??type_case_Z@?$output_processor@DV?$stream_output_adapter@D@__crt_stdio_output@@V?$positional_parameter_base@DV?$stream_output_adapter@D@__crt_stdio_output@@@2@@1@AAE_NXZ@@Z 100466c0 f i libucrtd:output.obj
 0001:000457f0       ??$extract_argument_from_va_list@PAUansi_string@?1??type_case_Z@?$output_processor@DV?$stream_output_adapter@D@__crt_stdio_output@@V?$positional_parameter_base@DV?$stream_output_adapter@D@__crt_stdio_output@@@2@@__crt_stdio_output@@AAE_NXZ@PAU1?1??234@AAE_NXZ@@?$standard_base@DV?$stream_output_adapter@D@__crt_stdio_output@@@__crt_stdio_output@@IAE_NAAPAUansi_string@?1??type_case_Z@?$output_processor@DV?$stream_output_adapter@D@__crt_stdio_output@@V?$positional_parameter_base@DV?$stream_output_adapter@D@__crt_stdio_output@@@2@@1@AAE_NXZ@@Z 100467f0 f i libucrtd:output.obj
 0001:00045820       ??$extract_argument_from_va_list@PAUansi_string@?1??type_case_Z@?$output_processor@DV?$stream_output_adapter@D@__crt_stdio_output@@V?$standard_base@DV?$stream_output_adapter@D@__crt_stdio_output@@@2@@__crt_stdio_output@@AAE_NXZ@PAU1?1??234@AAE_NXZ@@?$standard_base@DV?$stream_output_adapter@D@__crt_stdio_output@@@__crt_stdio_output@@IAE_NAAPAUansi_string@?1??type_case_Z@?$output_processor@DV?$stream_output_adapter@D@__crt_stdio_output@@V?$standard_base@DV?$stream_output_adapter@D@__crt_stdio_output@@@2@@1@AAE_NXZ@@Z 10046820 f i libucrtd:output.obj
 0001:00045850       ??$extract_argument_from_va_list@PAUansi_string@?1??type_case_Z@?$output_processor@DV?$string_output_adapter@D@__crt_stdio_output@@V?$format_validation_base@DV?$string_output_adapter@D@__crt_stdio_output@@@2@@__crt_stdio_output@@AAE_NXZ@PAU1?1??234@AAE_NXZ@@?$standard_base@DV?$string_output_adapter@D@__crt_stdio_output@@@__crt_stdio_output@@IAE_NAAPAUansi_string@?1??type_case_Z@?$output_processor@DV?$string_output_adapter@D@__crt_stdio_output@@V?$format_validation_base@DV?$string_output_adapter@D@__crt_stdio_output@@@2@@1@AAE_NXZ@@Z 10046850 f i libucrtd:output.obj
 0001:00045880       ??$extract_argument_from_va_list@PAUansi_string@?1??type_case_Z@?$output_processor@DV?$string_output_adapter@D@__crt_stdio_output@@V?$positional_parameter_base@DV?$string_output_adapter@D@__crt_stdio_output@@@2@@__crt_stdio_output@@AAE_NXZ@PAU1?1??234@AAE_NXZ@@?$positional_parameter_base@DV?$string_output_adapter@D@__crt_stdio_output@@@__crt_stdio_output@@IAE_NAAPAUansi_string@?1??type_case_Z@?$output_processor@DV?$string_output_adapter@D@__crt_stdio_output@@V?$positional_parameter_base@DV?$string_output_adapter@D@__crt_stdio_output@@@2@@1@AAE_NXZ@@Z 10046880 f i libucrtd:output.obj
 0001:000459b0       ??$extract_argument_from_va_list@PAUansi_string@?1??type_case_Z@?$output_processor@DV?$string_output_adapter@D@__crt_stdio_output@@V?$positional_parameter_base@DV?$string_output_adapter@D@__crt_stdio_output@@@2@@__crt_stdio_output@@AAE_NXZ@PAU1?1??234@AAE_NXZ@@?$standard_base@DV?$string_output_adapter@D@__crt_stdio_output@@@__crt_stdio_output@@IAE_NAAPAUansi_string@?1??type_case_Z@?$output_processor@DV?$string_output_adapter@D@__crt_stdio_output@@V?$positional_parameter_base@DV?$string_output_adapter@D@__crt_stdio_output@@@2@@1@AAE_NXZ@@Z 100469b0 f i libucrtd:output.obj
 0001:000459e0       ??$extract_argument_from_va_list@PAUansi_string@?1??type_case_Z@?$output_processor@DV?$string_output_adapter@D@__crt_stdio_output@@V?$standard_base@DV?$string_output_adapter@D@__crt_stdio_output@@@2@@__crt_stdio_output@@AAE_NXZ@PAU1?1??234@AAE_NXZ@@?$standard_base@DV?$string_output_adapter@D@__crt_stdio_output@@@__crt_stdio_output@@IAE_NAAPAUansi_string@?1??type_case_Z@?$output_processor@DV?$string_output_adapter@D@__crt_stdio_output@@V?$standard_base@DV?$string_output_adapter@D@__crt_stdio_output@@@2@@1@AAE_NXZ@@Z 100469e0 f i libucrtd:output.obj
 0001:00045a10       ??$extract_argument_from_va_list@PAUansi_string@?1??type_case_Z@?$output_processor@_WV?$stream_output_adapter@_W@__crt_stdio_output@@V?$format_validation_base@_WV?$stream_output_adapter@_W@__crt_stdio_output@@@2@@__crt_stdio_output@@AAE_NXZ@PAU1?1??234@AAE_NXZ@@?$standard_base@_WV?$stream_output_adapter@_W@__crt_stdio_output@@@__crt_stdio_output@@IAE_NAAPAUansi_string@?1??type_case_Z@?$output_processor@_WV?$stream_output_adapter@_W@__crt_stdio_output@@V?$format_validation_base@_WV?$stream_output_adapter@_W@__crt_stdio_output@@@2@@1@AAE_NXZ@@Z 10046a10 f i libucrtd:output.obj
 0001:00045a40       ??$extract_argument_from_va_list@PAUansi_string@?1??type_case_Z@?$output_processor@_WV?$stream_output_adapter@_W@__crt_stdio_output@@V?$positional_parameter_base@_WV?$stream_output_adapter@_W@__crt_stdio_output@@@2@@__crt_stdio_output@@AAE_NXZ@PAU1?1??234@AAE_NXZ@@?$positional_parameter_base@_WV?$stream_output_adapter@_W@__crt_stdio_output@@@__crt_stdio_output@@IAE_NAAPAUansi_string@?1??type_case_Z@?$output_processor@_WV?$stream_output_adapter@_W@__crt_stdio_output@@V?$positional_parameter_base@_WV?$stream_output_adapter@_W@__crt_stdio_output@@@2@@1@AAE_NXZ@@Z 10046a40 f i libucrtd:output.obj
 0001:00045b70       ??$extract_argument_from_va_list@PAUansi_string@?1??type_case_Z@?$output_processor@_WV?$stream_output_adapter@_W@__crt_stdio_output@@V?$positional_parameter_base@_WV?$stream_output_adapter@_W@__crt_stdio_output@@@2@@__crt_stdio_output@@AAE_NXZ@PAU1?1??234@AAE_NXZ@@?$standard_base@_WV?$stream_output_adapter@_W@__crt_stdio_output@@@__crt_stdio_output@@IAE_NAAPAUansi_string@?1??type_case_Z@?$output_processor@_WV?$stream_output_adapter@_W@__crt_stdio_output@@V?$positional_parameter_base@_WV?$stream_output_adapter@_W@__crt_stdio_output@@@2@@1@AAE_NXZ@@Z 10046b70 f i libucrtd:output.obj
 0001:00045ba0       ??$extract_argument_from_va_list@PAUansi_string@?1??type_case_Z@?$output_processor@_WV?$stream_output_adapter@_W@__crt_stdio_output@@V?$standard_base@_WV?$stream_output_adapter@_W@__crt_stdio_output@@@2@@__crt_stdio_output@@AAE_NXZ@PAU1?1??234@AAE_NXZ@@?$standard_base@_WV?$stream_output_adapter@_W@__crt_stdio_output@@@__crt_stdio_output@@IAE_NAAPAUansi_string@?1??type_case_Z@?$output_processor@_WV?$stream_output_adapter@_W@__crt_stdio_output@@V?$standard_base@_WV?$stream_output_adapter@_W@__crt_stdio_output@@@2@@1@AAE_NXZ@@Z 10046ba0 f i libucrtd:output.obj
 0001:00045bd0       ??$extract_argument_from_va_list@PAUansi_string@?1??type_case_Z@?$output_processor@_WV?$string_output_adapter@_W@__crt_stdio_output@@V?$format_validation_base@_WV?$string_output_adapter@_W@__crt_stdio_output@@@2@@__crt_stdio_output@@AAE_NXZ@PAU1?1??234@AAE_NXZ@@?$standard_base@_WV?$string_output_adapter@_W@__crt_stdio_output@@@__crt_stdio_output@@IAE_NAAPAUansi_string@?1??type_case_Z@?$output_processor@_WV?$string_output_adapter@_W@__crt_stdio_output@@V?$format_validation_base@_WV?$string_output_adapter@_W@__crt_stdio_output@@@2@@1@AAE_NXZ@@Z 10046bd0 f i libucrtd:output.obj
 0001:00045c00       ??$extract_argument_from_va_list@PAUansi_string@?1??type_case_Z@?$output_processor@_WV?$string_output_adapter@_W@__crt_stdio_output@@V?$positional_parameter_base@_WV?$string_output_adapter@_W@__crt_stdio_output@@@2@@__crt_stdio_output@@AAE_NXZ@PAU1?1??234@AAE_NXZ@@?$positional_parameter_base@_WV?$string_output_adapter@_W@__crt_stdio_output@@@__crt_stdio_output@@IAE_NAAPAUansi_string@?1??type_case_Z@?$output_processor@_WV?$string_output_adapter@_W@__crt_stdio_output@@V?$positional_parameter_base@_WV?$string_output_adapter@_W@__crt_stdio_output@@@2@@1@AAE_NXZ@@Z 10046c00 f i libucrtd:output.obj
 0001:00045d30       ??$extract_argument_from_va_list@PAUansi_string@?1??type_case_Z@?$output_processor@_WV?$string_output_adapter@_W@__crt_stdio_output@@V?$positional_parameter_base@_WV?$string_output_adapter@_W@__crt_stdio_output@@@2@@__crt_stdio_output@@AAE_NXZ@PAU1?1??234@AAE_NXZ@@?$standard_base@_WV?$string_output_adapter@_W@__crt_stdio_output@@@__crt_stdio_output@@IAE_NAAPAUansi_string@?1??type_case_Z@?$output_processor@_WV?$string_output_adapter@_W@__crt_stdio_output@@V?$positional_parameter_base@_WV?$string_output_adapter@_W@__crt_stdio_output@@@2@@1@AAE_NXZ@@Z 10046d30 f i libucrtd:output.obj
 0001:00045d60       ??$extract_argument_from_va_list@PAUansi_string@?1??type_case_Z@?$output_processor@_WV?$string_output_adapter@_W@__crt_stdio_output@@V?$standard_base@_WV?$string_output_adapter@_W@__crt_stdio_output@@@2@@__crt_stdio_output@@AAE_NXZ@PAU1?1??234@AAE_NXZ@@?$standard_base@_WV?$string_output_adapter@_W@__crt_stdio_output@@@__crt_stdio_output@@IAE_NAAPAUansi_string@?1??type_case_Z@?$output_processor@_WV?$string_output_adapter@_W@__crt_stdio_output@@V?$standard_base@_WV?$string_output_adapter@_W@__crt_stdio_output@@@2@@1@AAE_NXZ@@Z 10046d60 f i libucrtd:output.obj
 0001:00045d90       ??$extract_argument_from_va_list@PAXPAX@?$positional_parameter_base@DV?$stream_output_adapter@D@__crt_stdio_output@@@__crt_stdio_output@@IAE_NAAPAX@Z 10046d90 f i libucrtd:output.obj
 0001:00045ec0       ??$extract_argument_from_va_list@PAXPAX@?$positional_parameter_base@DV?$string_output_adapter@D@__crt_stdio_output@@@__crt_stdio_output@@IAE_NAAPAX@Z 10046ec0 f i libucrtd:output.obj
 0001:00045ff0       ??$extract_argument_from_va_list@PAXPAX@?$positional_parameter_base@_WV?$stream_output_adapter@_W@__crt_stdio_output@@@__crt_stdio_output@@IAE_NAAPAX@Z 10046ff0 f i libucrtd:output.obj
 0001:00046120       ??$extract_argument_from_va_list@PAXPAX@?$positional_parameter_base@_WV?$string_output_adapter@_W@__crt_stdio_output@@@__crt_stdio_output@@IAE_NAAPAX@Z 10047120 f i libucrtd:output.obj
 0001:00046250       ??$extract_argument_from_va_list@PAXPAX@?$standard_base@DV?$stream_output_adapter@D@__crt_stdio_output@@@__crt_stdio_output@@IAE_NAAPAX@Z 10047250 f i libucrtd:output.obj
 0001:00046280       ??$extract_argument_from_va_list@PAXPAX@?$standard_base@DV?$string_output_adapter@D@__crt_stdio_output@@@__crt_stdio_output@@IAE_NAAPAX@Z 10047280 f i libucrtd:output.obj
 0001:000462b0       ??$extract_argument_from_va_list@PAXPAX@?$standard_base@_WV?$stream_output_adapter@_W@__crt_stdio_output@@@__crt_stdio_output@@IAE_NAAPAX@Z 100472b0 f i libucrtd:output.obj
 0001:000462e0       ??$extract_argument_from_va_list@PAXPAX@?$standard_base@_WV?$string_output_adapter@_W@__crt_stdio_output@@@__crt_stdio_output@@IAE_NAAPAX@Z 100472e0 f i libucrtd:output.obj
 0001:00046310       ??$extract_argument_from_va_list@U_CRT_DOUBLE@@U1@@?$positional_parameter_base@DV?$stream_output_adapter@D@__crt_stdio_output@@@__crt_stdio_output@@IAE_NAAU_CRT_DOUBLE@@@Z 10047310 f i libucrtd:output.obj
 0001:00046470       ??$extract_argument_from_va_list@U_CRT_DOUBLE@@U1@@?$positional_parameter_base@DV?$string_output_adapter@D@__crt_stdio_output@@@__crt_stdio_output@@IAE_NAAU_CRT_DOUBLE@@@Z 10047470 f i libucrtd:output.obj
 0001:000465d0       ??$extract_argument_from_va_list@U_CRT_DOUBLE@@U1@@?$positional_parameter_base@_WV?$stream_output_adapter@_W@__crt_stdio_output@@@__crt_stdio_output@@IAE_NAAU_CRT_DOUBLE@@@Z 100475d0 f i libucrtd:output.obj
 0001:00046730       ??$extract_argument_from_va_list@U_CRT_DOUBLE@@U1@@?$positional_parameter_base@_WV?$string_output_adapter@_W@__crt_stdio_output@@@__crt_stdio_output@@IAE_NAAU_CRT_DOUBLE@@@Z 10047730 f i libucrtd:output.obj
 0001:00046890       ??$extract_argument_from_va_list@U_CRT_DOUBLE@@U1@@?$standard_base@DV?$stream_output_adapter@D@__crt_stdio_output@@@__crt_stdio_output@@IAE_NAAU_CRT_DOUBLE@@@Z 10047890 f i libucrtd:output.obj
 0001:000468e0       ??$extract_argument_from_va_list@U_CRT_DOUBLE@@U1@@?$standard_base@DV?$string_output_adapter@D@__crt_stdio_output@@@__crt_stdio_output@@IAE_NAAU_CRT_DOUBLE@@@Z 100478e0 f i libucrtd:output.obj
 0001:00046930       ??$extract_argument_from_va_list@U_CRT_DOUBLE@@U1@@?$standard_base@_WV?$stream_output_adapter@_W@__crt_stdio_output@@@__crt_stdio_output@@IAE_NAAU_CRT_DOUBLE@@@Z 10047930 f i libucrtd:output.obj
 0001:00046980       ??$extract_argument_from_va_list@U_CRT_DOUBLE@@U1@@?$standard_base@_WV?$string_output_adapter@_W@__crt_stdio_output@@@__crt_stdio_output@@IAE_NAAU_CRT_DOUBLE@@@Z 10047980 f i libucrtd:output.obj
 0001:000469d0       ??$extract_argument_from_va_list@_J_J@?$positional_parameter_base@DV?$stream_output_adapter@D@__crt_stdio_output@@@__crt_stdio_output@@IAE_NAA_J@Z 100479d0 f i libucrtd:output.obj
 0001:00046b00       ??$extract_argument_from_va_list@_J_J@?$positional_parameter_base@DV?$string_output_adapter@D@__crt_stdio_output@@@__crt_stdio_output@@IAE_NAA_J@Z 10047b00 f i libucrtd:output.obj
 0001:00046c30       ??$extract_argument_from_va_list@_J_J@?$positional_parameter_base@_WV?$stream_output_adapter@_W@__crt_stdio_output@@@__crt_stdio_output@@IAE_NAA_J@Z 10047c30 f i libucrtd:output.obj
 0001:00046d60       ??$extract_argument_from_va_list@_J_J@?$positional_parameter_base@_WV?$string_output_adapter@_W@__crt_stdio_output@@@__crt_stdio_output@@IAE_NAA_J@Z 10047d60 f i libucrtd:output.obj
 0001:00046e90       ??$extract_argument_from_va_list@_J_J@?$standard_base@DV?$stream_output_adapter@D@__crt_stdio_output@@@__crt_stdio_output@@IAE_NAA_J@Z 10047e90 f i libucrtd:output.obj
 0001:00046ec0       ??$extract_argument_from_va_list@_J_J@?$standard_base@DV?$string_output_adapter@D@__crt_stdio_output@@@__crt_stdio_output@@IAE_NAA_J@Z 10047ec0 f i libucrtd:output.obj
 0001:00046ef0       ??$extract_argument_from_va_list@_J_J@?$standard_base@_WV?$stream_output_adapter@_W@__crt_stdio_output@@@__crt_stdio_output@@IAE_NAA_J@Z 10047ef0 f i libucrtd:output.obj
 0001:00046f20       ??$extract_argument_from_va_list@_J_J@?$standard_base@_WV?$string_output_adapter@_W@__crt_stdio_output@@@__crt_stdio_output@@IAE_NAA_J@Z 10047f20 f i libucrtd:output.obj
 0001:00046f50       ??$extract_argument_from_va_list@_K_J@?$positional_parameter_base@DV?$stream_output_adapter@D@__crt_stdio_output@@@__crt_stdio_output@@IAE_NAA_J@Z 10047f50 f i libucrtd:output.obj
 0001:00047080       ??$extract_argument_from_va_list@_K_J@?$positional_parameter_base@DV?$string_output_adapter@D@__crt_stdio_output@@@__crt_stdio_output@@IAE_NAA_J@Z 10048080 f i libucrtd:output.obj
 0001:000471b0       ??$extract_argument_from_va_list@_K_J@?$positional_parameter_base@_WV?$stream_output_adapter@_W@__crt_stdio_output@@@__crt_stdio_output@@IAE_NAA_J@Z 100481b0 f i libucrtd:output.obj
 0001:000472e0       ??$extract_argument_from_va_list@_K_J@?$positional_parameter_base@_WV?$string_output_adapter@_W@__crt_stdio_output@@@__crt_stdio_output@@IAE_NAA_J@Z 100482e0 f i libucrtd:output.obj
 0001:00047410       ??$extract_argument_from_va_list@_K_J@?$standard_base@DV?$stream_output_adapter@D@__crt_stdio_output@@@__crt_stdio_output@@IAE_NAA_J@Z 10048410 f i libucrtd:output.obj
 0001:00047440       ??$extract_argument_from_va_list@_K_J@?$standard_base@DV?$string_output_adapter@D@__crt_stdio_output@@@__crt_stdio_output@@IAE_NAA_J@Z 10048440 f i libucrtd:output.obj
 0001:00047470       ??$extract_argument_from_va_list@_K_J@?$standard_base@_WV?$stream_output_adapter@_W@__crt_stdio_output@@@__crt_stdio_output@@IAE_NAA_J@Z 10048470 f i libucrtd:output.obj
 0001:000474a0       ??$extract_argument_from_va_list@_K_J@?$standard_base@_WV?$string_output_adapter@_W@__crt_stdio_output@@@__crt_stdio_output@@IAE_NAA_J@Z 100484a0 f i libucrtd:output.obj
 0001:000474d0       ??$extract_argument_from_va_list@_W_W@?$positional_parameter_base@DV?$stream_output_adapter@D@__crt_stdio_output@@@__crt_stdio_output@@IAE_NAA_W@Z 100484d0 f i libucrtd:output.obj
 0001:00047600       ??$extract_argument_from_va_list@_W_W@?$positional_parameter_base@DV?$string_output_adapter@D@__crt_stdio_output@@@__crt_stdio_output@@IAE_NAA_W@Z 10048600 f i libucrtd:output.obj
 0001:00047730       ??$extract_argument_from_va_list@_W_W@?$positional_parameter_base@_WV?$stream_output_adapter@_W@__crt_stdio_output@@@__crt_stdio_output@@IAE_NAA_W@Z 10048730 f i libucrtd:output.obj
 0001:00047860       ??$extract_argument_from_va_list@_W_W@?$positional_parameter_base@_WV?$string_output_adapter@_W@__crt_stdio_output@@@__crt_stdio_output@@IAE_NAA_W@Z 10048860 f i libucrtd:output.obj
 0001:00047990       ??$extract_argument_from_va_list@_W_W@?$standard_base@DV?$stream_output_adapter@D@__crt_stdio_output@@@__crt_stdio_output@@IAE_NAA_W@Z 10048990 f i libucrtd:output.obj
 0001:000479c0       ??$extract_argument_from_va_list@_W_W@?$standard_base@DV?$string_output_adapter@D@__crt_stdio_output@@@__crt_stdio_output@@IAE_NAA_W@Z 100489c0 f i libucrtd:output.obj
 0001:000479f0       ??$extract_argument_from_va_list@_W_W@?$standard_base@_WV?$stream_output_adapter@_W@__crt_stdio_output@@@__crt_stdio_output@@IAE_NAA_W@Z 100489f0 f i libucrtd:output.obj
 0001:00047a20       ??$extract_argument_from_va_list@_W_W@?$standard_base@_WV?$string_output_adapter@_W@__crt_stdio_output@@@__crt_stdio_output@@IAE_NAA_W@Z 10048a20 f i libucrtd:output.obj
 0001:00047a50       ??$get_parameter_type@D@?$positional_parameter_base@DV?$stream_output_adapter@D@__crt_stdio_output@@@__crt_stdio_output@@CA?AW4parameter_type@01@PAD@Z 10048a50 f i libucrtd:output.obj
 0001:00047a60       ??$get_parameter_type@D@?$positional_parameter_base@DV?$string_output_adapter@D@__crt_stdio_output@@@__crt_stdio_output@@CA?AW4parameter_type@01@PAD@Z 10048a60 f i libucrtd:output.obj
 0001:00047a70       ??$get_parameter_type@D@?$positional_parameter_base@_WV?$stream_output_adapter@_W@__crt_stdio_output@@@__crt_stdio_output@@CA?AW4parameter_type@01@PAD@Z 10048a70 f i libucrtd:output.obj
 0001:00047a80       ??$get_parameter_type@D@?$positional_parameter_base@_WV?$string_output_adapter@_W@__crt_stdio_output@@@__crt_stdio_output@@CA?AW4parameter_type@01@PAD@Z 10048a80 f i libucrtd:output.obj
 0001:00047a90       ??$get_parameter_type@Uansi_string@?1??type_case_Z@?$output_processor@DV?$stream_output_adapter@D@__crt_stdio_output@@V?$positional_parameter_base@DV?$stream_output_adapter@D@__crt_stdio_output@@@2@@__crt_stdio_output@@AAE_NXZ@@?$positional_parameter_base@DV?$stream_output_adapter@D@__crt_stdio_output@@@__crt_stdio_output@@CA?AW4parameter_type@01@PAUansi_string@?1??type_case_Z@?$output_processor@DV?$stream_output_adapter@D@__crt_stdio_output@@V?$positional_parameter_base@DV?$stream_output_adapter@D@__crt_stdio_output@@@2@@1@AAE_NXZ@@Z 10048a90 f i libucrtd:output.obj
 0001:00047aa0       ??$get_parameter_type@Uansi_string@?1??type_case_Z@?$output_processor@DV?$string_output_adapter@D@__crt_stdio_output@@V?$positional_parameter_base@DV?$string_output_adapter@D@__crt_stdio_output@@@2@@__crt_stdio_output@@AAE_NXZ@@?$positional_parameter_base@DV?$string_output_adapter@D@__crt_stdio_output@@@__crt_stdio_output@@CA?AW4parameter_type@01@PAUansi_string@?1??type_case_Z@?$output_processor@DV?$string_output_adapter@D@__crt_stdio_output@@V?$positional_parameter_base@DV?$string_output_adapter@D@__crt_stdio_output@@@2@@1@AAE_NXZ@@Z 10048aa0 f i libucrtd:output.obj
 0001:00047ab0       ??$get_parameter_type@Uansi_string@?1??type_case_Z@?$output_processor@_WV?$stream_output_adapter@_W@__crt_stdio_output@@V?$positional_parameter_base@_WV?$stream_output_adapter@_W@__crt_stdio_output@@@2@@__crt_stdio_output@@AAE_NXZ@@?$positional_parameter_base@_WV?$stream_output_adapter@_W@__crt_stdio_output@@@__crt_stdio_output@@CA?AW4parameter_type@01@PAUansi_string@?1??type_case_Z@?$output_processor@_WV?$stream_output_adapter@_W@__crt_stdio_output@@V?$positional_parameter_base@_WV?$stream_output_adapter@_W@__crt_stdio_output@@@2@@1@AAE_NXZ@@Z 10048ab0 f i libucrtd:output.obj
 0001:00047ac0       ??$get_parameter_type@Uansi_string@?1??type_case_Z@?$output_processor@_WV?$string_output_adapter@_W@__crt_stdio_output@@V?$positional_parameter_base@_WV?$string_output_adapter@_W@__crt_stdio_output@@@2@@__crt_stdio_output@@AAE_NXZ@@?$positional_parameter_base@_WV?$string_output_adapter@_W@__crt_stdio_output@@@__crt_stdio_output@@CA?AW4parameter_type@01@PAUansi_string@?1??type_case_Z@?$output_processor@_WV?$string_output_adapter@_W@__crt_stdio_output@@V?$positional_parameter_base@_WV?$string_output_adapter@_W@__crt_stdio_output@@@2@@1@AAE_NXZ@@Z 10048ac0 f i libucrtd:output.obj
 0001:00047ad0       ??$get_parameter_type@X@?$positional_parameter_base@DV?$stream_output_adapter@D@__crt_stdio_output@@@__crt_stdio_output@@CA?AW4parameter_type@01@PAX@Z 10048ad0 f i libucrtd:output.obj
 0001:00047ae0       ??$get_parameter_type@X@?$positional_parameter_base@DV?$string_output_adapter@D@__crt_stdio_output@@@__crt_stdio_output@@CA?AW4parameter_type@01@PAX@Z 10048ae0 f i libucrtd:output.obj
 0001:00047af0       ??$get_parameter_type@X@?$positional_parameter_base@_WV?$stream_output_adapter@_W@__crt_stdio_output@@@__crt_stdio_output@@CA?AW4parameter_type@01@PAX@Z 10048af0 f i libucrtd:output.obj
 0001:00047b00       ??$get_parameter_type@X@?$positional_parameter_base@_WV?$string_output_adapter@_W@__crt_stdio_output@@@__crt_stdio_output@@CA?AW4parameter_type@01@PAX@Z 10048b00 f i libucrtd:output.obj
 0001:00047b10       ??$is_character_specifier@D@?$positional_parameter_base@DV?$stream_output_adapter@D@__crt_stdio_output@@@__crt_stdio_output@@CA_ND@Z 10048b10 f i libucrtd:output.obj
 0001:00047b40       ??$is_character_specifier@D@?$positional_parameter_base@DV?$string_output_adapter@D@__crt_stdio_output@@@__crt_stdio_output@@CA_ND@Z 10048b40 f i libucrtd:output.obj
 0001:00047b70       ??$is_character_specifier@_W@?$positional_parameter_base@_WV?$stream_output_adapter@_W@__crt_stdio_output@@@__crt_stdio_output@@CA_N_W@Z 10048b70 f i libucrtd:output.obj
 0001:00047ba0       ??$is_character_specifier@_W@?$positional_parameter_base@_WV?$string_output_adapter@_W@__crt_stdio_output@@@__crt_stdio_output@@CA_N_W@Z 10048ba0 f i libucrtd:output.obj
 0001:00047bd0       ??$is_integral_specifier@D@?$positional_parameter_base@DV?$stream_output_adapter@D@__crt_stdio_output@@@__crt_stdio_output@@CA_ND@Z 10048bd0 f i libucrtd:output.obj
 0001:00047c30       ??$is_integral_specifier@D@?$positional_parameter_base@DV?$string_output_adapter@D@__crt_stdio_output@@@__crt_stdio_output@@CA_ND@Z 10048c30 f i libucrtd:output.obj
 0001:00047c90       ??$is_integral_specifier@_W@?$positional_parameter_base@_WV?$stream_output_adapter@_W@__crt_stdio_output@@@__crt_stdio_output@@CA_N_W@Z 10048c90 f i libucrtd:output.obj
 0001:00047cf0       ??$is_integral_specifier@_W@?$positional_parameter_base@_WV?$string_output_adapter@_W@__crt_stdio_output@@@__crt_stdio_output@@CA_N_W@Z 10048cf0 f i libucrtd:output.obj
 0001:00047d50       ??$is_pointer_specifier@D@?$positional_parameter_base@DV?$stream_output_adapter@D@__crt_stdio_output@@@__crt_stdio_output@@CA_ND@Z 10048d50 f i libucrtd:output.obj
 0001:00047d80       ??$is_pointer_specifier@D@?$positional_parameter_base@DV?$string_output_adapter@D@__crt_stdio_output@@@__crt_stdio_output@@CA_ND@Z 10048d80 f i libucrtd:output.obj
 0001:00047db0       ??$is_pointer_specifier@_W@?$positional_parameter_base@_WV?$stream_output_adapter@_W@__crt_stdio_output@@@__crt_stdio_output@@CA_N_W@Z 10048db0 f i libucrtd:output.obj
 0001:00047de0       ??$is_pointer_specifier@_W@?$positional_parameter_base@_WV?$string_output_adapter@_W@__crt_stdio_output@@@__crt_stdio_output@@CA_N_W@Z 10048de0 f i libucrtd:output.obj
 0001:00047e10       ??$is_string_specifier@D@?$positional_parameter_base@DV?$stream_output_adapter@D@__crt_stdio_output@@@__crt_stdio_output@@CA_ND@Z 10048e10 f i libucrtd:output.obj
 0001:00047e40       ??$is_string_specifier@D@?$positional_parameter_base@DV?$string_output_adapter@D@__crt_stdio_output@@@__crt_stdio_output@@CA_ND@Z 10048e40 f i libucrtd:output.obj
 0001:00047e70       ??$is_string_specifier@_W@?$positional_parameter_base@_WV?$stream_output_adapter@_W@__crt_stdio_output@@@__crt_stdio_output@@CA_N_W@Z 10048e70 f i libucrtd:output.obj
 0001:00047ea0       ??$is_string_specifier@_W@?$positional_parameter_base@_WV?$string_output_adapter@_W@__crt_stdio_output@@@__crt_stdio_output@@CA_N_W@Z 10048ea0 f i libucrtd:output.obj
 0001:00047ed0       ??$is_wide_character_specifier@D@__crt_stdio_output@@YA_N_KDW4length_modifier@0@@Z 10048ed0 f i libucrtd:output.obj
 0001:00047f50       ??$is_wide_character_specifier@_W@__crt_stdio_output@@YA_N_K_WW4length_modifier@0@@Z 10048f50 f i libucrtd:output.obj
 0001:00048010       ??$peek_va_arg@C@__crt_stdio_output@@YACPAD@Z 10049010 f i libucrtd:output.obj
 0001:00048030       ??$peek_va_arg@E@__crt_stdio_output@@YAEPAD@Z 10049030 f i libucrtd:output.obj
 0001:00048050       ??$peek_va_arg@F@__crt_stdio_output@@YAFPAD@Z 10049050 f i libucrtd:output.obj
 0001:00048070       ??$peek_va_arg@G@__crt_stdio_output@@YAGPAD@Z 10049070 f i libucrtd:output.obj
 0001:00048090       ??$peek_va_arg@H@__crt_stdio_output@@YAHPAD@Z 10049090 f i libucrtd:output.obj
 0001:000480b0       ??$peek_va_arg@I@__crt_stdio_output@@YAIPAD@Z 100490b0 f i libucrtd:output.obj
 0001:000480d0       ??$peek_va_arg@PAD@__crt_stdio_output@@YAPADPAD@Z 100490d0 f i libucrtd:output.obj
 0001:000480f0       ??$peek_va_arg@PAUansi_string@?1??type_case_Z@?$output_processor@DV?$stream_output_adapter@D@__crt_stdio_output@@V?$positional_parameter_base@DV?$stream_output_adapter@D@__crt_stdio_output@@@2@@__crt_stdio_output@@AAE_NXZ@@__crt_stdio_output@@YAPAUansi_string@?1??type_case_Z@?$output_processor@DV?$stream_output_adapter@D@__crt_stdio_output@@V?$positional_parameter_base@DV?$stream_output_adapter@D@__crt_stdio_output@@@2@@0@AAE_NXZ@PAD@Z 100490f0 f i libucrtd:output.obj
 0001:00048110       ??$peek_va_arg@PAUansi_string@?1??type_case_Z@?$output_processor@DV?$string_output_adapter@D@__crt_stdio_output@@V?$positional_parameter_base@DV?$string_output_adapter@D@__crt_stdio_output@@@2@@__crt_stdio_output@@AAE_NXZ@@__crt_stdio_output@@YAPAUansi_string@?1??type_case_Z@?$output_processor@DV?$string_output_adapter@D@__crt_stdio_output@@V?$positional_parameter_base@DV?$string_output_adapter@D@__crt_stdio_output@@@2@@0@AAE_NXZ@PAD@Z 10049110 f i libucrtd:output.obj
 0001:00048130       ??$peek_va_arg@PAUansi_string@?1??type_case_Z@?$output_processor@_WV?$stream_output_adapter@_W@__crt_stdio_output@@V?$positional_parameter_base@_WV?$stream_output_adapter@_W@__crt_stdio_output@@@2@@__crt_stdio_output@@AAE_NXZ@@__crt_stdio_output@@YAPAUansi_string@?1??type_case_Z@?$output_processor@_WV?$stream_output_adapter@_W@__crt_stdio_output@@V?$positional_parameter_base@_WV?$stream_output_adapter@_W@__crt_stdio_output@@@2@@0@AAE_NXZ@PAD@Z 10049130 f i libucrtd:output.obj
 0001:00048150       ??$peek_va_arg@PAUansi_string@?1??type_case_Z@?$output_processor@_WV?$string_output_adapter@_W@__crt_stdio_output@@V?$positional_parameter_base@_WV?$string_output_adapter@_W@__crt_stdio_output@@@2@@__crt_stdio_output@@AAE_NXZ@@__crt_stdio_output@@YAPAUansi_string@?1??type_case_Z@?$output_processor@_WV?$string_output_adapter@_W@__crt_stdio_output@@V?$positional_parameter_base@_WV?$string_output_adapter@_W@__crt_stdio_output@@@2@@0@AAE_NXZ@PAD@Z 10049150 f i libucrtd:output.obj
 0001:00048170       ??$peek_va_arg@PAX@__crt_stdio_output@@YAPAXPAD@Z 10049170 f i libucrtd:output.obj
 0001:00048190       ??$peek_va_arg@U_CRT_DOUBLE@@@__crt_stdio_output@@YA?AU_CRT_DOUBLE@@PAD@Z 10049190 f i libucrtd:output.obj
 0001:000481b0       ??$peek_va_arg@_J@__crt_stdio_output@@YA_JPAD@Z 100491b0 f i libucrtd:output.obj
 0001:000481d0       ??$peek_va_arg@_K@__crt_stdio_output@@YA_KPAD@Z 100491d0 f i libucrtd:output.obj
 0001:000481f0       ??$peek_va_arg@_W@__crt_stdio_output@@YA_WPAD@Z 100491f0 f i libucrtd:output.obj
 0001:00048210       ??$puttc_nolock@ABDPAU_iobuf@@@?$__crt_char_traits@D@@SAHABD$$QAPAU_iobuf@@@Z 10049210 f i libucrtd:output.obj
 0001:00048230       ??$puttc_nolock@AB_WPAU_iobuf@@@?$__crt_char_traits@_W@@SAGAB_W$$QAPAU_iobuf@@@Z 10049230 f i libucrtd:output.obj
 0001:00048250       ??$read_va_arg@C@__crt_stdio_output@@YACAAPAD@Z 10049250 f i libucrtd:output.obj
 0001:00048270       ??$read_va_arg@E@__crt_stdio_output@@YAEAAPAD@Z 10049270 f i libucrtd:output.obj
 0001:00048290       ??$read_va_arg@F@__crt_stdio_output@@YAFAAPAD@Z 10049290 f i libucrtd:output.obj
 0001:000482b0       ??$read_va_arg@G@__crt_stdio_output@@YAGAAPAD@Z 100492b0 f i libucrtd:output.obj
 0001:000482d0       ??$read_va_arg@H@__crt_stdio_output@@YAHAAPAD@Z 100492d0 f i libucrtd:output.obj
 0001:000482f0       ??$read_va_arg@I@__crt_stdio_output@@YAIAAPAD@Z 100492f0 f i libucrtd:output.obj
 0001:00048310       ??$read_va_arg@PAD@__crt_stdio_output@@YAPADAAPAD@Z 10049310 f i libucrtd:output.obj
 0001:00048330       ??$read_va_arg@PAUansi_string@?1??type_case_Z@?$output_processor@DV?$stream_output_adapter@D@__crt_stdio_output@@V?$format_validation_base@DV?$stream_output_adapter@D@__crt_stdio_output@@@2@@__crt_stdio_output@@AAE_NXZ@@__crt_stdio_output@@YAPAUansi_string@?1??type_case_Z@?$output_processor@DV?$stream_output_adapter@D@__crt_stdio_output@@V?$format_validation_base@DV?$stream_output_adapter@D@__crt_stdio_output@@@2@@0@AAE_NXZ@AAPAD@Z 10049330 f i libucrtd:output.obj
 0001:00048350       ??$read_va_arg@PAUansi_string@?1??type_case_Z@?$output_processor@DV?$stream_output_adapter@D@__crt_stdio_output@@V?$positional_parameter_base@DV?$stream_output_adapter@D@__crt_stdio_output@@@2@@__crt_stdio_output@@AAE_NXZ@@__crt_stdio_output@@YAPAUansi_string@?1??type_case_Z@?$output_processor@DV?$stream_output_adapter@D@__crt_stdio_output@@V?$positional_parameter_base@DV?$stream_output_adapter@D@__crt_stdio_output@@@2@@0@AAE_NXZ@AAPAD@Z 10049350 f i libucrtd:output.obj
 0001:00048370       ??$read_va_arg@PAUansi_string@?1??type_case_Z@?$output_processor@DV?$stream_output_adapter@D@__crt_stdio_output@@V?$standard_base@DV?$stream_output_adapter@D@__crt_stdio_output@@@2@@__crt_stdio_output@@AAE_NXZ@@__crt_stdio_output@@YAPAUansi_string@?1??type_case_Z@?$output_processor@DV?$stream_output_adapter@D@__crt_stdio_output@@V?$standard_base@DV?$stream_output_adapter@D@__crt_stdio_output@@@2@@0@AAE_NXZ@AAPAD@Z 10049370 f i libucrtd:output.obj
 0001:00048390       ??$read_va_arg@PAUansi_string@?1??type_case_Z@?$output_processor@DV?$string_output_adapter@D@__crt_stdio_output@@V?$format_validation_base@DV?$string_output_adapter@D@__crt_stdio_output@@@2@@__crt_stdio_output@@AAE_NXZ@@__crt_stdio_output@@YAPAUansi_string@?1??type_case_Z@?$output_processor@DV?$string_output_adapter@D@__crt_stdio_output@@V?$format_validation_base@DV?$string_output_adapter@D@__crt_stdio_output@@@2@@0@AAE_NXZ@AAPAD@Z 10049390 f i libucrtd:output.obj
 0001:000483b0       ??$read_va_arg@PAUansi_string@?1??type_case_Z@?$output_processor@DV?$string_output_adapter@D@__crt_stdio_output@@V?$positional_parameter_base@DV?$string_output_adapter@D@__crt_stdio_output@@@2@@__crt_stdio_output@@AAE_NXZ@@__crt_stdio_output@@YAPAUansi_string@?1??type_case_Z@?$output_processor@DV?$string_output_adapter@D@__crt_stdio_output@@V?$positional_parameter_base@DV?$string_output_adapter@D@__crt_stdio_output@@@2@@0@AAE_NXZ@AAPAD@Z 100493b0 f i libucrtd:output.obj
 0001:000483d0       ??$read_va_arg@PAUansi_string@?1??type_case_Z@?$output_processor@DV?$string_output_adapter@D@__crt_stdio_output@@V?$standard_base@DV?$string_output_adapter@D@__crt_stdio_output@@@2@@__crt_stdio_output@@AAE_NXZ@@__crt_stdio_output@@YAPAUansi_string@?1??type_case_Z@?$output_processor@DV?$string_output_adapter@D@__crt_stdio_output@@V?$standard_base@DV?$string_output_adapter@D@__crt_stdio_output@@@2@@0@AAE_NXZ@AAPAD@Z 100493d0 f i libucrtd:output.obj
 0001:000483f0       ??$read_va_arg@PAUansi_string@?1??type_case_Z@?$output_processor@_WV?$stream_output_adapter@_W@__crt_stdio_output@@V?$format_validation_base@_WV?$stream_output_adapter@_W@__crt_stdio_output@@@2@@__crt_stdio_output@@AAE_NXZ@@__crt_stdio_output@@YAPAUansi_string@?1??type_case_Z@?$output_processor@_WV?$stream_output_adapter@_W@__crt_stdio_output@@V?$format_validation_base@_WV?$stream_output_adapter@_W@__crt_stdio_output@@@2@@0@AAE_NXZ@AAPAD@Z 100493f0 f i libucrtd:output.obj
 0001:00048410       ??$read_va_arg@PAUansi_string@?1??type_case_Z@?$output_processor@_WV?$stream_output_adapter@_W@__crt_stdio_output@@V?$positional_parameter_base@_WV?$stream_output_adapter@_W@__crt_stdio_output@@@2@@__crt_stdio_output@@AAE_NXZ@@__crt_stdio_output@@YAPAUansi_string@?1??type_case_Z@?$output_processor@_WV?$stream_output_adapter@_W@__crt_stdio_output@@V?$positional_parameter_base@_WV?$stream_output_adapter@_W@__crt_stdio_output@@@2@@0@AAE_NXZ@AAPAD@Z 10049410 f i libucrtd:output.obj
 0001:00048430       ??$read_va_arg@PAUansi_string@?1??type_case_Z@?$output_processor@_WV?$stream_output_adapter@_W@__crt_stdio_output@@V?$standard_base@_WV?$stream_output_adapter@_W@__crt_stdio_output@@@2@@__crt_stdio_output@@AAE_NXZ@@__crt_stdio_output@@YAPAUansi_string@?1??type_case_Z@?$output_processor@_WV?$stream_output_adapter@_W@__crt_stdio_output@@V?$standard_base@_WV?$stream_output_adapter@_W@__crt_stdio_output@@@2@@0@AAE_NXZ@AAPAD@Z 10049430 f i libucrtd:output.obj
 0001:00048450       ??$read_va_arg@PAUansi_string@?1??type_case_Z@?$output_processor@_WV?$string_output_adapter@_W@__crt_stdio_output@@V?$format_validation_base@_WV?$string_output_adapter@_W@__crt_stdio_output@@@2@@__crt_stdio_output@@AAE_NXZ@@__crt_stdio_output@@YAPAUansi_string@?1??type_case_Z@?$output_processor@_WV?$string_output_adapter@_W@__crt_stdio_output@@V?$format_validation_base@_WV?$string_output_adapter@_W@__crt_stdio_output@@@2@@0@AAE_NXZ@AAPAD@Z 10049450 f i libucrtd:output.obj
 0001:00048470       ??$read_va_arg@PAUansi_string@?1??type_case_Z@?$output_processor@_WV?$string_output_adapter@_W@__crt_stdio_output@@V?$positional_parameter_base@_WV?$string_output_adapter@_W@__crt_stdio_output@@@2@@__crt_stdio_output@@AAE_NXZ@@__crt_stdio_output@@YAPAUansi_string@?1??type_case_Z@?$output_processor@_WV?$string_output_adapter@_W@__crt_stdio_output@@V?$positional_parameter_base@_WV?$string_output_adapter@_W@__crt_stdio_output@@@2@@0@AAE_NXZ@AAPAD@Z 10049470 f i libucrtd:output.obj
 0001:00048490       ??$read_va_arg@PAUansi_string@?1??type_case_Z@?$output_processor@_WV?$string_output_adapter@_W@__crt_stdio_output@@V?$standard_base@_WV?$string_output_adapter@_W@__crt_stdio_output@@@2@@__crt_stdio_output@@AAE_NXZ@@__crt_stdio_output@@YAPAUansi_string@?1??type_case_Z@?$output_processor@_WV?$string_output_adapter@_W@__crt_stdio_output@@V?$standard_base@_WV?$string_output_adapter@_W@__crt_stdio_output@@@2@@0@AAE_NXZ@AAPAD@Z 10049490 f i libucrtd:output.obj
 0001:000484b0       ??$read_va_arg@PAX@__crt_stdio_output@@YAPAXAAPAD@Z 100494b0 f i libucrtd:output.obj
 0001:000484d0       ??$read_va_arg@U_CRT_DOUBLE@@@__crt_stdio_output@@YA?AU_CRT_DOUBLE@@AAPAD@Z 100494d0 f i libucrtd:output.obj
 0001:000484f0       ??$read_va_arg@_J@__crt_stdio_output@@YA_JAAPAD@Z 100494f0 f i libucrtd:output.obj
 0001:00048510       ??$read_va_arg@_K@__crt_stdio_output@@YA_KAAPAD@Z 10049510 f i libucrtd:output.obj
 0001:00048530       ??$read_va_arg@_W@__crt_stdio_output@@YA_WAAPAD@Z 10049530 f i libucrtd:output.obj
 0001:00048550       ??$scratch_count@D@formatting_buffer@__crt_stdio_output@@QBEIXZ 10049550 f i libucrtd:output.obj
 0001:00048570       ??$scratch_data@D@formatting_buffer@__crt_stdio_output@@QAEPADXZ 10049570 f i libucrtd:output.obj
 0001:000485c0       ??$tcstol@AAPBDPAPADH@?$__crt_char_traits@D@@SAJAAPBD$$QAPAPAD$$QAH@Z 100495c0 f i libucrtd:output.obj
 0001:000485f0       ??$tcstol@AAPB_WPAPA_WH@?$__crt_char_traits@_W@@SAJAAPB_W$$QAPAPA_W$$QAH@Z 100495f0 f i libucrtd:output.obj
 0001:00048620       ??$tcstol@PBDPAPADH@?$__crt_char_traits@D@@SAJ$$QAPBD$$QAPAPAD$$QAH@Z 10049620 f i libucrtd:output.obj
 0001:00048650       ??$tcstol@PB_WPAPA_WH@?$__crt_char_traits@_W@@SAJ$$QAPB_W$$QAPAPA_W$$QAH@Z 10049650 f i libucrtd:output.obj
 0001:00048680       ??$type_case_integer_parse_into_buffer@I@?$output_processor@DV?$stream_output_adapter@D@__crt_stdio_output@@V?$format_validation_base@DV?$stream_output_adapter@D@__crt_stdio_output@@@2@@__crt_stdio_output@@AAEXII_N@Z 10049680 f i libucrtd:output.obj
 0001:00048750       ??$type_case_integer_parse_into_buffer@I@?$output_processor@DV?$stream_output_adapter@D@__crt_stdio_output@@V?$positional_parameter_base@DV?$stream_output_adapter@D@__crt_stdio_output@@@2@@__crt_stdio_output@@AAEXII_N@Z 10049750 f i libucrtd:output.obj
 0001:00048820       ??$type_case_integer_parse_into_buffer@I@?$output_processor@DV?$stream_output_adapter@D@__crt_stdio_output@@V?$standard_base@DV?$stream_output_adapter@D@__crt_stdio_output@@@2@@__crt_stdio_output@@AAEXII_N@Z 10049820 f i libucrtd:output.obj
 0001:000488f0       ??$type_case_integer_parse_into_buffer@I@?$output_processor@DV?$string_output_adapter@D@__crt_stdio_output@@V?$format_validation_base@DV?$string_output_adapter@D@__crt_stdio_output@@@2@@__crt_stdio_output@@AAEXII_N@Z 100498f0 f i libucrtd:output.obj
 0001:000489c0       ??$type_case_integer_parse_into_buffer@I@?$output_processor@DV?$string_output_adapter@D@__crt_stdio_output@@V?$positional_parameter_base@DV?$string_output_adapter@D@__crt_stdio_output@@@2@@__crt_stdio_output@@AAEXII_N@Z 100499c0 f i libucrtd:output.obj
 0001:00048a90       ??$type_case_integer_parse_into_buffer@I@?$output_processor@DV?$string_output_adapter@D@__crt_stdio_output@@V?$standard_base@DV?$string_output_adapter@D@__crt_stdio_output@@@2@@__crt_stdio_output@@AAEXII_N@Z 10049a90 f i libucrtd:output.obj
 0001:00048b60       ??$type_case_integer_parse_into_buffer@I@?$output_processor@_WV?$stream_output_adapter@_W@__crt_stdio_output@@V?$format_validation_base@_WV?$stream_output_adapter@_W@__crt_stdio_output@@@2@@__crt_stdio_output@@AAEXII_N@Z 10049b60 f i libucrtd:output.obj
 0001:00048c40       ??$type_case_integer_parse_into_buffer@I@?$output_processor@_WV?$stream_output_adapter@_W@__crt_stdio_output@@V?$positional_parameter_base@_WV?$stream_output_adapter@_W@__crt_stdio_output@@@2@@__crt_stdio_output@@AAEXII_N@Z 10049c40 f i libucrtd:output.obj
 0001:00048d20       ??$type_case_integer_parse_into_buffer@I@?$output_processor@_WV?$stream_output_adapter@_W@__crt_stdio_output@@V?$standard_base@_WV?$stream_output_adapter@_W@__crt_stdio_output@@@2@@__crt_stdio_output@@AAEXII_N@Z 10049d20 f i libucrtd:output.obj
 0001:00048e00       ??$type_case_integer_parse_into_buffer@I@?$output_processor@_WV?$string_output_adapter@_W@__crt_stdio_output@@V?$format_validation_base@_WV?$string_output_adapter@_W@__crt_stdio_output@@@2@@__crt_stdio_output@@AAEXII_N@Z 10049e00 f i libucrtd:output.obj
 0001:00048ee0       ??$type_case_integer_parse_into_buffer@I@?$output_processor@_WV?$string_output_adapter@_W@__crt_stdio_output@@V?$positional_parameter_base@_WV?$string_output_adapter@_W@__crt_stdio_output@@@2@@__crt_stdio_output@@AAEXII_N@Z 10049ee0 f i libucrtd:output.obj
 0001:00048fc0       ??$type_case_integer_parse_into_buffer@I@?$output_processor@_WV?$string_output_adapter@_W@__crt_stdio_output@@V?$standard_base@_WV?$string_output_adapter@_W@__crt_stdio_output@@@2@@__crt_stdio_output@@AAEXII_N@Z 10049fc0 f i libucrtd:output.obj
 0001:000490a0       ??$type_case_integer_parse_into_buffer@_K@?$output_processor@DV?$stream_output_adapter@D@__crt_stdio_output@@V?$format_validation_base@DV?$stream_output_adapter@D@__crt_stdio_output@@@2@@__crt_stdio_output@@AAEX_KI_N@Z 1004a0a0 f i libucrtd:output.obj
 0001:00049190       ??$type_case_integer_parse_into_buffer@_K@?$output_processor@DV?$stream_output_adapter@D@__crt_stdio_output@@V?$positional_parameter_base@DV?$stream_output_adapter@D@__crt_stdio_output@@@2@@__crt_stdio_output@@AAEX_KI_N@Z 1004a190 f i libucrtd:output.obj
 0001:00049280       ??$type_case_integer_parse_into_buffer@_K@?$output_processor@DV?$stream_output_adapter@D@__crt_stdio_output@@V?$standard_base@DV?$stream_output_adapter@D@__crt_stdio_output@@@2@@__crt_stdio_output@@AAEX_KI_N@Z 1004a280 f i libucrtd:output.obj
 0001:00049370       ??$type_case_integer_parse_into_buffer@_K@?$output_processor@DV?$string_output_adapter@D@__crt_stdio_output@@V?$format_validation_base@DV?$string_output_adapter@D@__crt_stdio_output@@@2@@__crt_stdio_output@@AAEX_KI_N@Z 1004a370 f i libucrtd:output.obj
 0001:00049460       ??$type_case_integer_parse_into_buffer@_K@?$output_processor@DV?$string_output_adapter@D@__crt_stdio_output@@V?$positional_parameter_base@DV?$string_output_adapter@D@__crt_stdio_output@@@2@@__crt_stdio_output@@AAEX_KI_N@Z 1004a460 f i libucrtd:output.obj
 0001:00049550       ??$type_case_integer_parse_into_buffer@_K@?$output_processor@DV?$string_output_adapter@D@__crt_stdio_output@@V?$standard_base@DV?$string_output_adapter@D@__crt_stdio_output@@@2@@__crt_stdio_output@@AAEX_KI_N@Z 1004a550 f i libucrtd:output.obj
 0001:00049640       ??$type_case_integer_parse_into_buffer@_K@?$output_processor@_WV?$stream_output_adapter@_W@__crt_stdio_output@@V?$format_validation_base@_WV?$stream_output_adapter@_W@__crt_stdio_output@@@2@@__crt_stdio_output@@AAEX_KI_N@Z 1004a640 f i libucrtd:output.obj
 0001:00049740       ??$type_case_integer_parse_into_buffer@_K@?$output_processor@_WV?$stream_output_adapter@_W@__crt_stdio_output@@V?$positional_parameter_base@_WV?$stream_output_adapter@_W@__crt_stdio_output@@@2@@__crt_stdio_output@@AAEX_KI_N@Z 1004a740 f i libucrtd:output.obj
 0001:00049840       ??$type_case_integer_parse_into_buffer@_K@?$output_processor@_WV?$stream_output_adapter@_W@__crt_stdio_output@@V?$standard_base@_WV?$stream_output_adapter@_W@__crt_stdio_output@@@2@@__crt_stdio_output@@AAEX_KI_N@Z 1004a840 f i libucrtd:output.obj
 0001:00049940       ??$type_case_integer_parse_into_buffer@_K@?$output_processor@_WV?$string_output_adapter@_W@__crt_stdio_output@@V?$format_validation_base@_WV?$string_output_adapter@_W@__crt_stdio_output@@@2@@__crt_stdio_output@@AAEX_KI_N@Z 1004a940 f i libucrtd:output.obj
 0001:00049a40       ??$type_case_integer_parse_into_buffer@_K@?$output_processor@_WV?$string_output_adapter@_W@__crt_stdio_output@@V?$positional_parameter_base@_WV?$string_output_adapter@_W@__crt_stdio_output@@@2@@__crt_stdio_output@@AAEX_KI_N@Z 1004aa40 f i libucrtd:output.obj
 0001:00049b40       ??$type_case_integer_parse_into_buffer@_K@?$output_processor@_WV?$string_output_adapter@_W@__crt_stdio_output@@V?$standard_base@_WV?$string_output_adapter@_W@__crt_stdio_output@@@2@@__crt_stdio_output@@AAEX_KI_N@Z 1004ab40 f i libucrtd:output.obj
 0001:00049c40       ??$write_multiple_characters@V?$stream_output_adapter@D@__crt_stdio_output@@D@__crt_stdio_output@@YAXABV?$stream_output_adapter@D@0@DHQAH@Z 1004ac40 f i libucrtd:output.obj
 0001:00049c90       ??$write_multiple_characters@V?$stream_output_adapter@_W@__crt_stdio_output@@D@__crt_stdio_output@@YAXABV?$stream_output_adapter@_W@0@DHQAH@Z 1004ac90 f i libucrtd:output.obj
 0001:00049ce0       ??$write_multiple_characters@V?$string_output_adapter@D@__crt_stdio_output@@D@__crt_stdio_output@@YAXABV?$string_output_adapter@D@0@DHQAH@Z 1004ace0 f i libucrtd:output.obj
 0001:00049d30       ??$write_multiple_characters@V?$string_output_adapter@_W@__crt_stdio_output@@D@__crt_stdio_output@@YAXABV?$string_output_adapter@_W@0@DHQAH@Z 1004ad30 f i libucrtd:output.obj
 0001:0004a080       ??0?$common_data@D@__crt_stdio_output@@IAE@XZ 1004b080 f i libucrtd:output.obj
 0001:0004a130       ??0?$common_data@_W@__crt_stdio_output@@IAE@XZ 1004b130 f i libucrtd:output.obj
 0001:0004a1e0       ??0?$output_adapter_data@DV?$stream_output_adapter@D@__crt_stdio_output@@@__crt_stdio_output@@IAE@ABV?$stream_output_adapter@D@1@_KQBDQAU__crt_locale_pointers@@QAD@Z 1004b1e0 f i libucrtd:output.obj
 0001:0004a240       ??0?$output_adapter_data@DV?$string_output_adapter@D@__crt_stdio_output@@@__crt_stdio_output@@IAE@ABV?$string_output_adapter@D@1@_KQBDQAU__crt_locale_pointers@@QAD@Z 1004b240 f i libucrtd:output.obj
 0001:0004a2a0       ??0?$output_adapter_data@_WV?$stream_output_adapter@_W@__crt_stdio_output@@@__crt_stdio_output@@IAE@ABV?$stream_output_adapter@_W@1@_KQB_WQAU__crt_locale_pointers@@QAD@Z 1004b2a0 f i libucrtd:output.obj
 0001:0004a300       ??0?$output_adapter_data@_WV?$string_output_adapter@_W@__crt_stdio_output@@@__crt_stdio_output@@IAE@ABV?$string_output_adapter@_W@1@_KQB_WQAU__crt_locale_pointers@@QAD@Z 1004b300 f i libucrtd:output.obj
 0001:0004a360       ??0?$output_processor@DV?$stream_output_adapter@D@__crt_stdio_output@@V?$format_validation_base@DV?$stream_output_adapter@D@__crt_stdio_output@@@2@@__crt_stdio_output@@QAE@ABV?$stream_output_adapter@D@1@_KQBDQAU__crt_locale_pointers@@QAD@Z 1004b360 f i libucrtd:output.obj
 0001:0004a390       ??0?$output_processor@DV?$stream_output_adapter@D@__crt_stdio_output@@V?$positional_parameter_base@DV?$stream_output_adapter@D@__crt_stdio_output@@@2@@__crt_stdio_output@@QAE@ABV?$stream_output_adapter@D@1@_KQBDQAU__crt_locale_pointers@@QAD@Z 1004b390 f i libucrtd:output.obj
 0001:0004a3c0       ??0?$output_processor@DV?$stream_output_adapter@D@__crt_stdio_output@@V?$standard_base@DV?$stream_output_adapter@D@__crt_stdio_output@@@2@@__crt_stdio_output@@QAE@ABV?$stream_output_adapter@D@1@_KQBDQAU__crt_locale_pointers@@QAD@Z 1004b3c0 f i libucrtd:output.obj
 0001:0004a3f0       ??0?$output_processor@DV?$string_output_adapter@D@__crt_stdio_output@@V?$format_validation_base@DV?$string_output_adapter@D@__crt_stdio_output@@@2@@__crt_stdio_output@@QAE@ABV?$string_output_adapter@D@1@_KQBDQAU__crt_locale_pointers@@QAD@Z 1004b3f0 f i libucrtd:output.obj
 0001:0004a420       ??0?$output_processor@DV?$string_output_adapter@D@__crt_stdio_output@@V?$positional_parameter_base@DV?$string_output_adapter@D@__crt_stdio_output@@@2@@__crt_stdio_output@@QAE@ABV?$string_output_adapter@D@1@_KQBDQAU__crt_locale_pointers@@QAD@Z 1004b420 f i libucrtd:output.obj
 0001:0004a450       ??0?$output_processor@DV?$string_output_adapter@D@__crt_stdio_output@@V?$standard_base@DV?$string_output_adapter@D@__crt_stdio_output@@@2@@__crt_stdio_output@@QAE@ABV?$string_output_adapter@D@1@_KQBDQAU__crt_locale_pointers@@QAD@Z 1004b450 f i libucrtd:output.obj
 0001:0004a480       ??0?$output_processor@_WV?$stream_output_adapter@_W@__crt_stdio_output@@V?$format_validation_base@_WV?$stream_output_adapter@_W@__crt_stdio_output@@@2@@__crt_stdio_output@@QAE@ABV?$stream_output_adapter@_W@1@_KQB_WQAU__crt_locale_pointers@@QAD@Z 1004b480 f i libucrtd:output.obj
 0001:0004a4b0       ??0?$output_processor@_WV?$stream_output_adapter@_W@__crt_stdio_output@@V?$positional_parameter_base@_WV?$stream_output_adapter@_W@__crt_stdio_output@@@2@@__crt_stdio_output@@QAE@ABV?$stream_output_adapter@_W@1@_KQB_WQAU__crt_locale_pointers@@QAD@Z 1004b4b0 f i libucrtd:output.obj
 0001:0004a4e0       ??0?$output_processor@_WV?$stream_output_adapter@_W@__crt_stdio_output@@V?$standard_base@_WV?$stream_output_adapter@_W@__crt_stdio_output@@@2@@__crt_stdio_output@@QAE@ABV?$stream_output_adapter@_W@1@_KQB_WQAU__crt_locale_pointers@@QAD@Z 1004b4e0 f i libucrtd:output.obj
 0001:0004a510       ??0?$output_processor@_WV?$string_output_adapter@_W@__crt_stdio_output@@V?$format_validation_base@_WV?$string_output_adapter@_W@__crt_stdio_output@@@2@@__crt_stdio_output@@QAE@ABV?$string_output_adapter@_W@1@_KQB_WQAU__crt_locale_pointers@@QAD@Z 1004b510 f i libucrtd:output.obj
 0001:0004a540       ??0?$output_processor@_WV?$string_output_adapter@_W@__crt_stdio_output@@V?$positional_parameter_base@_WV?$string_output_adapter@_W@__crt_stdio_output@@@2@@__crt_stdio_output@@QAE@ABV?$string_output_adapter@_W@1@_KQB_WQAU__crt_locale_pointers@@QAD@Z 1004b540 f i libucrtd:output.obj
 0001:0004a570       ??0?$output_processor@_WV?$string_output_adapter@_W@__crt_stdio_output@@V?$standard_base@_WV?$string_output_adapter@_W@__crt_stdio_output@@@2@@__crt_stdio_output@@QAE@ABV?$string_output_adapter@_W@1@_KQB_WQAU__crt_locale_pointers@@QAD@Z 1004b570 f i libucrtd:output.obj
 0001:0004a5a0       ??0?$stream_output_adapter@D@__crt_stdio_output@@QAE@QAU_iobuf@@@Z 1004b5a0 f i libucrtd:output.obj
 0001:0004a5c0       ??0?$stream_output_adapter@_W@__crt_stdio_output@@QAE@QAU_iobuf@@@Z 1004b5c0 f i libucrtd:output.obj
 0001:0004a5e0       ??0?$string_output_adapter@D@__crt_stdio_output@@QAE@QAU?$string_output_adapter_context@D@1@@Z 1004b5e0 f i libucrtd:output.obj
 0001:0004a600       ??0?$string_output_adapter@_W@__crt_stdio_output@@QAE@QAU?$string_output_adapter_context@_W@1@@Z 1004b600 f i libucrtd:output.obj
 0001:0004a620       ??0_LocaleUpdate@@QAE@QAU__crt_locale_pointers@@@Z 1004b620 f i libucrtd:output.obj
 0001:0004a6f0       ??0__acrt_stdio_temporary_buffering_guard@@QAE@QAU_iobuf@@@Z 1004b6f0 f i libucrtd:output.obj
 0001:0004a720       ??0__crt_deferred_errno_cache@@QAE@XZ 1004b720 f i libucrtd:output.obj
 0001:0004a740       ??0__crt_errno_guard@@QAE@QAH@Z 1004b740 f i libucrtd:output.obj
 0001:0004a770       ??0__crt_stdio_stream@@QAE@QAU_iobuf@@@Z 1004b770 f i libucrtd:output.obj
 0001:0004a790       ??0formatting_buffer@__crt_stdio_output@@QAE@XZ 1004b790 f i libucrtd:output.obj
 0001:0004a7c0       ??1?$common_data@D@__crt_stdio_output@@QAE@XZ 1004b7c0 f i libucrtd:output.obj
 0001:0004a7e0       ??1?$common_data@_W@__crt_stdio_output@@QAE@XZ 1004b7e0 f i libucrtd:output.obj
 0001:0004a800       ??1?$format_validation_base@DV?$stream_output_adapter@D@__crt_stdio_output@@@__crt_stdio_output@@QAE@XZ 1004b800 f i libucrtd:output.obj
 0001:0004a820       ??1?$format_validation_base@DV?$string_output_adapter@D@__crt_stdio_output@@@__crt_stdio_output@@QAE@XZ 1004b820 f i libucrtd:output.obj
 0001:0004a840       ??1?$format_validation_base@_WV?$stream_output_adapter@_W@__crt_stdio_output@@@__crt_stdio_output@@QAE@XZ 1004b840 f i libucrtd:output.obj
 0001:0004a860       ??1?$format_validation_base@_WV?$string_output_adapter@_W@__crt_stdio_output@@@__crt_stdio_output@@QAE@XZ 1004b860 f i libucrtd:output.obj
 0001:0004a880       ??1?$output_adapter_data@DV?$stream_output_adapter@D@__crt_stdio_output@@@__crt_stdio_output@@QAE@XZ 1004b880 f i libucrtd:output.obj
 0001:0004a8a0       ??1?$output_adapter_data@DV?$string_output_adapter@D@__crt_stdio_output@@@__crt_stdio_output@@QAE@XZ 1004b8a0 f i libucrtd:output.obj
 0001:0004a8c0       ??1?$output_adapter_data@_WV?$stream_output_adapter@_W@__crt_stdio_output@@@__crt_stdio_output@@QAE@XZ 1004b8c0 f i libucrtd:output.obj
 0001:0004a8e0       ??1?$output_adapter_data@_WV?$string_output_adapter@_W@__crt_stdio_output@@@__crt_stdio_output@@QAE@XZ 1004b8e0 f i libucrtd:output.obj
 0001:0004a900       ??1?$output_processor@DV?$stream_output_adapter@D@__crt_stdio_output@@V?$format_validation_base@DV?$stream_output_adapter@D@__crt_stdio_output@@@2@@__crt_stdio_output@@QAE@XZ 1004b900 f i libucrtd:output.obj
 0001:0004a920       ??1?$output_processor@DV?$stream_output_adapter@D@__crt_stdio_output@@V?$positional_parameter_base@DV?$stream_output_adapter@D@__crt_stdio_output@@@2@@__crt_stdio_output@@QAE@XZ 1004b920 f i libucrtd:output.obj
 0001:0004a940       ??1?$output_processor@DV?$stream_output_adapter@D@__crt_stdio_output@@V?$standard_base@DV?$stream_output_adapter@D@__crt_stdio_output@@@2@@__crt_stdio_output@@QAE@XZ 1004b940 f i libucrtd:output.obj
 0001:0004a960       ??1?$output_processor@DV?$string_output_adapter@D@__crt_stdio_output@@V?$format_validation_base@DV?$string_output_adapter@D@__crt_stdio_output@@@2@@__crt_stdio_output@@QAE@XZ 1004b960 f i libucrtd:output.obj
 0001:0004a980       ??1?$output_processor@DV?$string_output_adapter@D@__crt_stdio_output@@V?$positional_parameter_base@DV?$string_output_adapter@D@__crt_stdio_output@@@2@@__crt_stdio_output@@QAE@XZ 1004b980 f i libucrtd:output.obj
 0001:0004a9a0       ??1?$output_processor@DV?$string_output_adapter@D@__crt_stdio_output@@V?$standard_base@DV?$string_output_adapter@D@__crt_stdio_output@@@2@@__crt_stdio_output@@QAE@XZ 1004b9a0 f i libucrtd:output.obj
 0001:0004a9c0       ??1?$output_processor@_WV?$stream_output_adapter@_W@__crt_stdio_output@@V?$format_validation_base@_WV?$stream_output_adapter@_W@__crt_stdio_output@@@2@@__crt_stdio_output@@QAE@XZ 1004b9c0 f i libucrtd:output.obj
 0001:0004a9e0       ??1?$output_processor@_WV?$stream_output_adapter@_W@__crt_stdio_output@@V?$positional_parameter_base@_WV?$stream_output_adapter@_W@__crt_stdio_output@@@2@@__crt_stdio_output@@QAE@XZ 1004b9e0 f i libucrtd:output.obj
 0001:0004aa00       ??1?$output_processor@_WV?$stream_output_adapter@_W@__crt_stdio_output@@V?$standard_base@_WV?$stream_output_adapter@_W@__crt_stdio_output@@@2@@__crt_stdio_output@@QAE@XZ 1004ba00 f i libucrtd:output.obj
 0001:0004aa20       ??1?$output_processor@_WV?$string_output_adapter@_W@__crt_stdio_output@@V?$format_validation_base@_WV?$string_output_adapter@_W@__crt_stdio_output@@@2@@__crt_stdio_output@@QAE@XZ 1004ba20 f i libucrtd:output.obj
 0001:0004aa40       ??1?$output_processor@_WV?$string_output_adapter@_W@__crt_stdio_output@@V?$positional_parameter_base@_WV?$string_output_adapter@_W@__crt_stdio_output@@@2@@__crt_stdio_output@@QAE@XZ 1004ba40 f i libucrtd:output.obj
 0001:0004aa60       ??1?$output_processor@_WV?$string_output_adapter@_W@__crt_stdio_output@@V?$standard_base@_WV?$string_output_adapter@_W@__crt_stdio_output@@@2@@__crt_stdio_output@@QAE@XZ 1004ba60 f i libucrtd:output.obj
 0001:0004aa80       ??1?$positional_parameter_base@DV?$stream_output_adapter@D@__crt_stdio_output@@@__crt_stdio_output@@QAE@XZ 1004ba80 f i libucrtd:output.obj
 0001:0004aaa0       ??1?$positional_parameter_base@DV?$string_output_adapter@D@__crt_stdio_output@@@__crt_stdio_output@@QAE@XZ 1004baa0 f i libucrtd:output.obj
 0001:0004aac0       ??1?$positional_parameter_base@_WV?$stream_output_adapter@_W@__crt_stdio_output@@@__crt_stdio_output@@QAE@XZ 1004bac0 f i libucrtd:output.obj
 0001:0004aae0       ??1?$positional_parameter_base@_WV?$string_output_adapter@_W@__crt_stdio_output@@@__crt_stdio_output@@QAE@XZ 1004bae0 f i libucrtd:output.obj
 0001:0004ab00       ??1?$standard_base@DV?$stream_output_adapter@D@__crt_stdio_output@@@__crt_stdio_output@@QAE@XZ 1004bb00 f i libucrtd:output.obj
 0001:0004ab20       ??1?$standard_base@DV?$string_output_adapter@D@__crt_stdio_output@@@__crt_stdio_output@@QAE@XZ 1004bb20 f i libucrtd:output.obj
 0001:0004ab40       ??1?$standard_base@_WV?$stream_output_adapter@_W@__crt_stdio_output@@@__crt_stdio_output@@QAE@XZ 1004bb40 f i libucrtd:output.obj
 0001:0004ab60       ??1?$standard_base@_WV?$string_output_adapter@_W@__crt_stdio_output@@@__crt_stdio_output@@QAE@XZ 1004bb60 f i libucrtd:output.obj
 0001:0004ab80       ??1_LocaleUpdate@@QAE@XZ   1004bb80 f i libucrtd:output.obj
 0001:0004abb0       ??1__acrt_stdio_temporary_buffering_guard@@QAE@XZ 1004bbb0 f i libucrtd:output.obj
 0001:0004abe0       ??1__crt_errno_guard@@QAE@XZ 1004bbe0 f i libucrtd:output.obj
 0001:0004ac10       ??1formatting_buffer@__crt_stdio_output@@QAE@XZ 1004bc10 f i libucrtd:output.obj
 0001:0004ac30       ??4?$__crt_unique_heap_ptr@DU__crt_internal_free_policy@@@@QAEAAV0@$$QAV0@@Z 1004bc30 f i libucrtd:output.obj
 0001:0004ac60       ??A?$spectre_mitigated_lookup_table@Ustate_transition_pair@__crt_stdio_output@@$0IA@@__crt_stdio_output@@QBEABUstate_transition_pair@1@I@Z 1004bc60 f i libucrtd:output.obj
 0001:0004ac80       ??C__crt_stdio_stream@@QBEPAU__crt_stdio_stream_data@@XZ 1004bc80 f i libucrtd:output.obj
 0001:0004b3c0       ?GetLocaleT@_LocaleUpdate@@QAEPAU__crt_locale_pointers@@XZ 1004c3c0 f i libucrtd:output.obj
 0001:0004b3e0       ?adjust_hexit@?$output_processor@DV?$stream_output_adapter@D@__crt_stdio_output@@V?$format_validation_base@DV?$stream_output_adapter@D@__crt_stdio_output@@@2@@__crt_stdio_output@@CADH_N@Z 1004c3e0 f i libucrtd:output.obj
 0001:0004b420       ?adjust_hexit@?$output_processor@DV?$stream_output_adapter@D@__crt_stdio_output@@V?$positional_parameter_base@DV?$stream_output_adapter@D@__crt_stdio_output@@@2@@__crt_stdio_output@@CADH_N@Z 1004c420 f i libucrtd:output.obj
 0001:0004b460       ?adjust_hexit@?$output_processor@DV?$stream_output_adapter@D@__crt_stdio_output@@V?$standard_base@DV?$stream_output_adapter@D@__crt_stdio_output@@@2@@__crt_stdio_output@@CADH_N@Z 1004c460 f i libucrtd:output.obj
 0001:0004b4a0       ?adjust_hexit@?$output_processor@DV?$string_output_adapter@D@__crt_stdio_output@@V?$format_validation_base@DV?$string_output_adapter@D@__crt_stdio_output@@@2@@__crt_stdio_output@@CADH_N@Z 1004c4a0 f i libucrtd:output.obj
 0001:0004b4e0       ?adjust_hexit@?$output_processor@DV?$string_output_adapter@D@__crt_stdio_output@@V?$positional_parameter_base@DV?$string_output_adapter@D@__crt_stdio_output@@@2@@__crt_stdio_output@@CADH_N@Z 1004c4e0 f i libucrtd:output.obj
 0001:0004b520       ?adjust_hexit@?$output_processor@DV?$string_output_adapter@D@__crt_stdio_output@@V?$standard_base@DV?$string_output_adapter@D@__crt_stdio_output@@@2@@__crt_stdio_output@@CADH_N@Z 1004c520 f i libucrtd:output.obj
 0001:0004b560       ?adjust_hexit@?$output_processor@_WV?$stream_output_adapter@_W@__crt_stdio_output@@V?$format_validation_base@_WV?$stream_output_adapter@_W@__crt_stdio_output@@@2@@__crt_stdio_output@@CADH_N@Z 1004c560 f i libucrtd:output.obj
 0001:0004b5a0       ?adjust_hexit@?$output_processor@_WV?$stream_output_adapter@_W@__crt_stdio_output@@V?$positional_parameter_base@_WV?$stream_output_adapter@_W@__crt_stdio_output@@@2@@__crt_stdio_output@@CADH_N@Z 1004c5a0 f i libucrtd:output.obj
 0001:0004b5e0       ?adjust_hexit@?$output_processor@_WV?$stream_output_adapter@_W@__crt_stdio_output@@V?$standard_base@_WV?$stream_output_adapter@_W@__crt_stdio_output@@@2@@__crt_stdio_output@@CADH_N@Z 1004c5e0 f i libucrtd:output.obj
 0001:0004b620       ?adjust_hexit@?$output_processor@_WV?$string_output_adapter@_W@__crt_stdio_output@@V?$format_validation_base@_WV?$string_output_adapter@_W@__crt_stdio_output@@@2@@__crt_stdio_output@@CADH_N@Z 1004c620 f i libucrtd:output.obj
 0001:0004b660       ?adjust_hexit@?$output_processor@_WV?$string_output_adapter@_W@__crt_stdio_output@@V?$positional_parameter_base@_WV?$string_output_adapter@_W@__crt_stdio_output@@@2@@__crt_stdio_output@@CADH_N@Z 1004c660 f i libucrtd:output.obj
 0001:0004b6a0       ?adjust_hexit@?$output_processor@_WV?$string_output_adapter@_W@__crt_stdio_output@@V?$standard_base@_WV?$string_output_adapter@_W@__crt_stdio_output@@@2@@__crt_stdio_output@@CADH_N@Z 1004c6a0 f i libucrtd:output.obj
 0001:0004b6e0       ?advance_to_next_pass@?$positional_parameter_base@DV?$stream_output_adapter@D@__crt_stdio_output@@@__crt_stdio_output@@IAE_NXZ 1004c6e0 f i libucrtd:output.obj
 0001:0004b780       ?advance_to_next_pass@?$positional_parameter_base@DV?$string_output_adapter@D@__crt_stdio_output@@@__crt_stdio_output@@IAE_NXZ 1004c780 f i libucrtd:output.obj
 0001:0004b820       ?advance_to_next_pass@?$positional_parameter_base@_WV?$stream_output_adapter@_W@__crt_stdio_output@@@__crt_stdio_output@@IAE_NXZ 1004c820 f i libucrtd:output.obj
 0001:0004b8c0       ?advance_to_next_pass@?$positional_parameter_base@_WV?$string_output_adapter@_W@__crt_stdio_output@@@__crt_stdio_output@@IAE_NXZ 1004c8c0 f i libucrtd:output.obj
 0001:0004b960       ?advance_to_next_pass@?$standard_base@DV?$stream_output_adapter@D@__crt_stdio_output@@@__crt_stdio_output@@IAE_NXZ 1004c960 f i libucrtd:output.obj
 0001:0004b9b0       ?advance_to_next_pass@?$standard_base@DV?$string_output_adapter@D@__crt_stdio_output@@@__crt_stdio_output@@IAE_NXZ 1004c9b0 f i libucrtd:output.obj
 0001:0004ba00       ?advance_to_next_pass@?$standard_base@_WV?$stream_output_adapter@_W@__crt_stdio_output@@@__crt_stdio_output@@IAE_NXZ 1004ca00 f i libucrtd:output.obj
 0001:0004ba50       ?advance_to_next_pass@?$standard_base@_WV?$string_output_adapter@_W@__crt_stdio_output@@@__crt_stdio_output@@IAE_NXZ 1004ca50 f i libucrtd:output.obj
 0001:0004baa0       ?crop_zeroes@__crt_stdio_output@@YAXPADQAU__crt_locale_pointers@@@Z 1004caa0 f i libucrtd:output.obj
 0001:0004bba0       ?find_next_state@?$output_processor@DV?$stream_output_adapter@D@__crt_stdio_output@@V?$format_validation_base@DV?$stream_output_adapter@D@__crt_stdio_output@@@2@@__crt_stdio_output@@ABE?AW4state@2@DW432@@Z 1004cba0 f i libucrtd:output.obj
 0001:0004bc10       ?find_next_state@?$output_processor@DV?$stream_output_adapter@D@__crt_stdio_output@@V?$positional_parameter_base@DV?$stream_output_adapter@D@__crt_stdio_output@@@2@@__crt_stdio_output@@ABE?AW4state@2@DW432@@Z 1004cc10 f i libucrtd:output.obj
 0001:0004bc80       ?find_next_state@?$output_processor@DV?$stream_output_adapter@D@__crt_stdio_output@@V?$standard_base@DV?$stream_output_adapter@D@__crt_stdio_output@@@2@@__crt_stdio_output@@ABE?AW4state@2@DW432@@Z 1004cc80 f i libucrtd:output.obj
 0001:0004bcf0       ?find_next_state@?$output_processor@DV?$string_output_adapter@D@__crt_stdio_output@@V?$format_validation_base@DV?$string_output_adapter@D@__crt_stdio_output@@@2@@__crt_stdio_output@@ABE?AW4state@2@DW432@@Z 1004ccf0 f i libucrtd:output.obj
 0001:0004bd60       ?find_next_state@?$output_processor@DV?$string_output_adapter@D@__crt_stdio_output@@V?$positional_parameter_base@DV?$string_output_adapter@D@__crt_stdio_output@@@2@@__crt_stdio_output@@ABE?AW4state@2@DW432@@Z 1004cd60 f i libucrtd:output.obj
 0001:0004bdd0       ?find_next_state@?$output_processor@DV?$string_output_adapter@D@__crt_stdio_output@@V?$standard_base@DV?$string_output_adapter@D@__crt_stdio_output@@@2@@__crt_stdio_output@@ABE?AW4state@2@DW432@@Z 1004cdd0 f i libucrtd:output.obj
 0001:0004be40       ?find_next_state@?$output_processor@_WV?$stream_output_adapter@_W@__crt_stdio_output@@V?$format_validation_base@_WV?$stream_output_adapter@_W@__crt_stdio_output@@@2@@__crt_stdio_output@@ABE?AW4state@2@_WW432@@Z 1004ce40 f i libucrtd:output.obj
 0001:0004beb0       ?find_next_state@?$output_processor@_WV?$stream_output_adapter@_W@__crt_stdio_output@@V?$positional_parameter_base@_WV?$stream_output_adapter@_W@__crt_stdio_output@@@2@@__crt_stdio_output@@ABE?AW4state@2@_WW432@@Z 1004ceb0 f i libucrtd:output.obj
 0001:0004bf20       ?find_next_state@?$output_processor@_WV?$stream_output_adapter@_W@__crt_stdio_output@@V?$standard_base@_WV?$stream_output_adapter@_W@__crt_stdio_output@@@2@@__crt_stdio_output@@ABE?AW4state@2@_WW432@@Z 1004cf20 f i libucrtd:output.obj
 0001:0004bf90       ?find_next_state@?$output_processor@_WV?$string_output_adapter@_W@__crt_stdio_output@@V?$format_validation_base@_WV?$string_output_adapter@_W@__crt_stdio_output@@@2@@__crt_stdio_output@@ABE?AW4state@2@_WW432@@Z 1004cf90 f i libucrtd:output.obj
 0001:0004c000       ?find_next_state@?$output_processor@_WV?$string_output_adapter@_W@__crt_stdio_output@@V?$positional_parameter_base@_WV?$string_output_adapter@_W@__crt_stdio_output@@@2@@__crt_stdio_output@@ABE?AW4state@2@_WW432@@Z 1004d000 f i libucrtd:output.obj
 0001:0004c070       ?find_next_state@?$output_processor@_WV?$string_output_adapter@_W@__crt_stdio_output@@V?$standard_base@_WV?$string_output_adapter@_W@__crt_stdio_output@@@2@@__crt_stdio_output@@ABE?AW4state@2@_WW432@@Z 1004d070 f i libucrtd:output.obj
 0001:0004c0e0       ?force_decimal_point@__crt_stdio_output@@YAXPADQAU__crt_locale_pointers@@@Z 1004d0e0 f i libucrtd:output.obj
 0001:0004c1b0       ?get@__crt_deferred_errno_cache@@QAEAAHXZ 1004d1b0 f i libucrtd:output.obj
 0001:0004c1e0       ?get_flags@__crt_stdio_stream@@QBEJXZ 1004d1e0 f i libucrtd:output.obj
 0001:0004c200       ?get_parameter_type@?$positional_parameter_base@DV?$stream_output_adapter@D@__crt_stdio_output@@@__crt_stdio_output@@CA?AW4parameter_type@12@F@Z 1004d200 f i libucrtd:output.obj
 0001:0004c210       ?get_parameter_type@?$positional_parameter_base@DV?$stream_output_adapter@D@__crt_stdio_output@@@__crt_stdio_output@@CA?AW4parameter_type@12@G@Z 1004d210 f i libucrtd:output.obj
 0001:0004c220       ?get_parameter_type@?$positional_parameter_base@DV?$stream_output_adapter@D@__crt_stdio_output@@@__crt_stdio_output@@CA?AW4parameter_type@12@H@Z 1004d220 f i libucrtd:output.obj
 0001:0004c230       ?get_parameter_type@?$positional_parameter_base@DV?$stream_output_adapter@D@__crt_stdio_output@@@__crt_stdio_output@@CA?AW4parameter_type@12@I@Z 1004d230 f i libucrtd:output.obj
 0001:0004c240       ?get_parameter_type@?$positional_parameter_base@DV?$stream_output_adapter@D@__crt_stdio_output@@@__crt_stdio_output@@CA?AW4parameter_type@12@U_CRT_DOUBLE@@@Z 1004d240 f i libucrtd:output.obj
 0001:0004c250       ?get_parameter_type@?$positional_parameter_base@DV?$stream_output_adapter@D@__crt_stdio_output@@@__crt_stdio_output@@CA?AW4parameter_type@12@_J@Z 1004d250 f i libucrtd:output.obj
 0001:0004c260       ?get_parameter_type@?$positional_parameter_base@DV?$stream_output_adapter@D@__crt_stdio_output@@@__crt_stdio_output@@CA?AW4parameter_type@12@_K@Z 1004d260 f i libucrtd:output.obj
 0001:0004c270       ?get_parameter_type@?$positional_parameter_base@DV?$stream_output_adapter@D@__crt_stdio_output@@@__crt_stdio_output@@CA?AW4parameter_type@12@_W@Z 1004d270 f i libucrtd:output.obj
 0001:0004c280       ?get_parameter_type@?$positional_parameter_base@DV?$string_output_adapter@D@__crt_stdio_output@@@__crt_stdio_output@@CA?AW4parameter_type@12@F@Z 1004d280 f i libucrtd:output.obj
 0001:0004c290       ?get_parameter_type@?$positional_parameter_base@DV?$string_output_adapter@D@__crt_stdio_output@@@__crt_stdio_output@@CA?AW4parameter_type@12@G@Z 1004d290 f i libucrtd:output.obj
 0001:0004c2a0       ?get_parameter_type@?$positional_parameter_base@DV?$string_output_adapter@D@__crt_stdio_output@@@__crt_stdio_output@@CA?AW4parameter_type@12@H@Z 1004d2a0 f i libucrtd:output.obj
 0001:0004c2b0       ?get_parameter_type@?$positional_parameter_base@DV?$string_output_adapter@D@__crt_stdio_output@@@__crt_stdio_output@@CA?AW4parameter_type@12@I@Z 1004d2b0 f i libucrtd:output.obj
 0001:0004c2c0       ?get_parameter_type@?$positional_parameter_base@DV?$string_output_adapter@D@__crt_stdio_output@@@__crt_stdio_output@@CA?AW4parameter_type@12@U_CRT_DOUBLE@@@Z 1004d2c0 f i libucrtd:output.obj
 0001:0004c2d0       ?get_parameter_type@?$positional_parameter_base@DV?$string_output_adapter@D@__crt_stdio_output@@@__crt_stdio_output@@CA?AW4parameter_type@12@_J@Z 1004d2d0 f i libucrtd:output.obj
 0001:0004c2e0       ?get_parameter_type@?$positional_parameter_base@DV?$string_output_adapter@D@__crt_stdio_output@@@__crt_stdio_output@@CA?AW4parameter_type@12@_K@Z 1004d2e0 f i libucrtd:output.obj
 0001:0004c2f0       ?get_parameter_type@?$positional_parameter_base@DV?$string_output_adapter@D@__crt_stdio_output@@@__crt_stdio_output@@CA?AW4parameter_type@12@_W@Z 1004d2f0 f i libucrtd:output.obj
 0001:0004c300       ?get_parameter_type@?$positional_parameter_base@_WV?$stream_output_adapter@_W@__crt_stdio_output@@@__crt_stdio_output@@CA?AW4parameter_type@12@F@Z 1004d300 f i libucrtd:output.obj
 0001:0004c310       ?get_parameter_type@?$positional_parameter_base@_WV?$stream_output_adapter@_W@__crt_stdio_output@@@__crt_stdio_output@@CA?AW4parameter_type@12@G@Z 1004d310 f i libucrtd:output.obj
 0001:0004c320       ?get_parameter_type@?$positional_parameter_base@_WV?$stream_output_adapter@_W@__crt_stdio_output@@@__crt_stdio_output@@CA?AW4parameter_type@12@H@Z 1004d320 f i libucrtd:output.obj
 0001:0004c330       ?get_parameter_type@?$positional_parameter_base@_WV?$stream_output_adapter@_W@__crt_stdio_output@@@__crt_stdio_output@@CA?AW4parameter_type@12@I@Z 1004d330 f i libucrtd:output.obj
 0001:0004c340       ?get_parameter_type@?$positional_parameter_base@_WV?$stream_output_adapter@_W@__crt_stdio_output@@@__crt_stdio_output@@CA?AW4parameter_type@12@U_CRT_DOUBLE@@@Z 1004d340 f i libucrtd:output.obj
 0001:0004c350       ?get_parameter_type@?$positional_parameter_base@_WV?$stream_output_adapter@_W@__crt_stdio_output@@@__crt_stdio_output@@CA?AW4parameter_type@12@_J@Z 1004d350 f i libucrtd:output.obj
 0001:0004c360       ?get_parameter_type@?$positional_parameter_base@_WV?$stream_output_adapter@_W@__crt_stdio_output@@@__crt_stdio_output@@CA?AW4parameter_type@12@_K@Z 1004d360 f i libucrtd:output.obj
 0001:0004c370       ?get_parameter_type@?$positional_parameter_base@_WV?$stream_output_adapter@_W@__crt_stdio_output@@@__crt_stdio_output@@CA?AW4parameter_type@12@_W@Z 1004d370 f i libucrtd:output.obj
 0001:0004c380       ?get_parameter_type@?$positional_parameter_base@_WV?$string_output_adapter@_W@__crt_stdio_output@@@__crt_stdio_output@@CA?AW4parameter_type@12@F@Z 1004d380 f i libucrtd:output.obj
 0001:0004c390       ?get_parameter_type@?$positional_parameter_base@_WV?$string_output_adapter@_W@__crt_stdio_output@@@__crt_stdio_output@@CA?AW4parameter_type@12@G@Z 1004d390 f i libucrtd:output.obj
 0001:0004c3a0       ?get_parameter_type@?$positional_parameter_base@_WV?$string_output_adapter@_W@__crt_stdio_output@@@__crt_stdio_output@@CA?AW4parameter_type@12@H@Z 1004d3a0 f i libucrtd:output.obj
 0001:0004c3b0       ?get_parameter_type@?$positional_parameter_base@_WV?$string_output_adapter@_W@__crt_stdio_output@@@__crt_stdio_output@@CA?AW4parameter_type@12@I@Z 1004d3b0 f i libucrtd:output.obj
 0001:0004c3c0       ?get_parameter_type@?$positional_parameter_base@_WV?$string_output_adapter@_W@__crt_stdio_output@@@__crt_stdio_output@@CA?AW4parameter_type@12@U_CRT_DOUBLE@@@Z 1004d3c0 f i libucrtd:output.obj
 0001:0004c3d0       ?get_parameter_type@?$positional_parameter_base@_WV?$string_output_adapter@_W@__crt_stdio_output@@@__crt_stdio_output@@CA?AW4parameter_type@12@_J@Z 1004d3d0 f i libucrtd:output.obj
 0001:0004c3e0       ?get_parameter_type@?$positional_parameter_base@_WV?$string_output_adapter@_W@__crt_stdio_output@@@__crt_stdio_output@@CA?AW4parameter_type@12@_K@Z 1004d3e0 f i libucrtd:output.obj
 0001:0004c3f0       ?get_parameter_type@?$positional_parameter_base@_WV?$string_output_adapter@_W@__crt_stdio_output@@@__crt_stdio_output@@CA?AW4parameter_type@12@_W@Z 1004d3f0 f i libucrtd:output.obj
 0001:0004c400       ?has_flag@?$output_processor@DV?$stream_output_adapter@D@__crt_stdio_output@@V?$format_validation_base@DV?$stream_output_adapter@D@__crt_stdio_output@@@2@@__crt_stdio_output@@ABE_NI@Z 1004d400 f i libucrtd:output.obj
 0001:0004c430       ?has_flag@?$output_processor@DV?$stream_output_adapter@D@__crt_stdio_output@@V?$positional_parameter_base@DV?$stream_output_adapter@D@__crt_stdio_output@@@2@@__crt_stdio_output@@ABE_NI@Z 1004d430 f i libucrtd:output.obj
 0001:0004c460       ?has_flag@?$output_processor@DV?$stream_output_adapter@D@__crt_stdio_output@@V?$standard_base@DV?$stream_output_adapter@D@__crt_stdio_output@@@2@@__crt_stdio_output@@ABE_NI@Z 1004d460 f i libucrtd:output.obj
 0001:0004c490       ?has_flag@?$output_processor@DV?$string_output_adapter@D@__crt_stdio_output@@V?$format_validation_base@DV?$string_output_adapter@D@__crt_stdio_output@@@2@@__crt_stdio_output@@ABE_NI@Z 1004d490 f i libucrtd:output.obj
 0001:0004c4c0       ?has_flag@?$output_processor@DV?$string_output_adapter@D@__crt_stdio_output@@V?$positional_parameter_base@DV?$string_output_adapter@D@__crt_stdio_output@@@2@@__crt_stdio_output@@ABE_NI@Z 1004d4c0 f i libucrtd:output.obj
 0001:0004c4f0       ?has_flag@?$output_processor@DV?$string_output_adapter@D@__crt_stdio_output@@V?$standard_base@DV?$string_output_adapter@D@__crt_stdio_output@@@2@@__crt_stdio_output@@ABE_NI@Z 1004d4f0 f i libucrtd:output.obj
 0001:0004c520       ?has_flag@?$output_processor@_WV?$stream_output_adapter@_W@__crt_stdio_output@@V?$format_validation_base@_WV?$stream_output_adapter@_W@__crt_stdio_output@@@2@@__crt_stdio_output@@ABE_NI@Z 1004d520 f i libucrtd:output.obj
 0001:0004c550       ?has_flag@?$output_processor@_WV?$stream_output_adapter@_W@__crt_stdio_output@@V?$positional_parameter_base@_WV?$stream_output_adapter@_W@__crt_stdio_output@@@2@@__crt_stdio_output@@ABE_NI@Z 1004d550 f i libucrtd:output.obj
 0001:0004c580       ?has_flag@?$output_processor@_WV?$stream_output_adapter@_W@__crt_stdio_output@@V?$standard_base@_WV?$stream_output_adapter@_W@__crt_stdio_output@@@2@@__crt_stdio_output@@ABE_NI@Z 1004d580 f i libucrtd:output.obj
 0001:0004c5b0       ?has_flag@?$output_processor@_WV?$string_output_adapter@_W@__crt_stdio_output@@V?$format_validation_base@_WV?$string_output_adapter@_W@__crt_stdio_output@@@2@@__crt_stdio_output@@ABE_NI@Z 1004d5b0 f i libucrtd:output.obj
 0001:0004c5e0       ?has_flag@?$output_processor@_WV?$string_output_adapter@_W@__crt_stdio_output@@V?$positional_parameter_base@_WV?$string_output_adapter@_W@__crt_stdio_output@@@2@@__crt_stdio_output@@ABE_NI@Z 1004d5e0 f i libucrtd:output.obj
 0001:0004c610       ?has_flag@?$output_processor@_WV?$string_output_adapter@_W@__crt_stdio_output@@V?$standard_base@_WV?$string_output_adapter@_W@__crt_stdio_output@@@2@@__crt_stdio_output@@ABE_NI@Z 1004d610 f i libucrtd:output.obj
 0001:0004c640       ?is_positional_parameter_reappearance_consistent@?$positional_parameter_base@DV?$stream_output_adapter@D@__crt_stdio_output@@@__crt_stdio_output@@AAE_NABUparameter_data@12@W4parameter_type@12@DW4length_modifier@2@@Z 1004d640 f i libucrtd:output.obj
 0001:0004c870       ?is_positional_parameter_reappearance_consistent@?$positional_parameter_base@DV?$string_output_adapter@D@__crt_stdio_output@@@__crt_stdio_output@@AAE_NABUparameter_data@12@W4parameter_type@12@DW4length_modifier@2@@Z 1004d870 f i libucrtd:output.obj
 0001:0004caa0       ?is_positional_parameter_reappearance_consistent@?$positional_parameter_base@_WV?$stream_output_adapter@_W@__crt_stdio_output@@@__crt_stdio_output@@AAE_NABUparameter_data@12@W4parameter_type@12@_WW4length_modifier@2@@Z 1004daa0 f i libucrtd:output.obj
 0001:0004ccd0       ?is_positional_parameter_reappearance_consistent@?$positional_parameter_base@_WV?$string_output_adapter@_W@__crt_stdio_output@@@__crt_stdio_output@@AAE_NABUparameter_data@12@W4parameter_type@12@_WW4length_modifier@2@@Z 1004dcd0 f i libucrtd:output.obj
 0001:0004cf00       ?is_string_backed@__crt_stdio_stream@@QBE_NXZ 1004df00 f i libucrtd:output.obj
 0001:0004cf40       ?narrow_null_string@?$output_processor@DV?$stream_output_adapter@D@__crt_stdio_output@@V?$format_validation_base@DV?$stream_output_adapter@D@__crt_stdio_output@@@2@@__crt_stdio_output@@CAPADXZ 1004df40 f i libucrtd:output.obj
 0001:0004cf50       ?narrow_null_string@?$output_processor@DV?$stream_output_adapter@D@__crt_stdio_output@@V?$positional_parameter_base@DV?$stream_output_adapter@D@__crt_stdio_output@@@2@@__crt_stdio_output@@CAPADXZ 1004df50 f i libucrtd:output.obj
 0001:0004cf60       ?narrow_null_string@?$output_processor@DV?$stream_output_adapter@D@__crt_stdio_output@@V?$standard_base@DV?$stream_output_adapter@D@__crt_stdio_output@@@2@@__crt_stdio_output@@CAPADXZ 1004df60 f i libucrtd:output.obj
 0001:0004cf70       ?narrow_null_string@?$output_processor@DV?$string_output_adapter@D@__crt_stdio_output@@V?$format_validation_base@DV?$string_output_adapter@D@__crt_stdio_output@@@2@@__crt_stdio_output@@CAPADXZ 1004df70 f i libucrtd:output.obj
 0001:0004cf80       ?narrow_null_string@?$output_processor@DV?$string_output_adapter@D@__crt_stdio_output@@V?$positional_parameter_base@DV?$string_output_adapter@D@__crt_stdio_output@@@2@@__crt_stdio_output@@CAPADXZ 1004df80 f i libucrtd:output.obj
 0001:0004cf90       ?narrow_null_string@?$output_processor@DV?$string_output_adapter@D@__crt_stdio_output@@V?$standard_base@DV?$string_output_adapter@D@__crt_stdio_output@@@2@@__crt_stdio_output@@CAPADXZ 1004df90 f i libucrtd:output.obj
 0001:0004cfa0       ?narrow_null_string@?$output_processor@_WV?$stream_output_adapter@_W@__crt_stdio_output@@V?$format_validation_base@_WV?$stream_output_adapter@_W@__crt_stdio_output@@@2@@__crt_stdio_output@@CAPADXZ 1004dfa0 f i libucrtd:output.obj
 0001:0004cfb0       ?narrow_null_string@?$output_processor@_WV?$stream_output_adapter@_W@__crt_stdio_output@@V?$positional_parameter_base@_WV?$stream_output_adapter@_W@__crt_stdio_output@@@2@@__crt_stdio_output@@CAPADXZ 1004dfb0 f i libucrtd:output.obj
 0001:0004cfc0       ?narrow_null_string@?$output_processor@_WV?$stream_output_adapter@_W@__crt_stdio_output@@V?$standard_base@_WV?$stream_output_adapter@_W@__crt_stdio_output@@@2@@__crt_stdio_output@@CAPADXZ 1004dfc0 f i libucrtd:output.obj
 0001:0004cfd0       ?narrow_null_string@?$output_processor@_WV?$string_output_adapter@_W@__crt_stdio_output@@V?$format_validation_base@_WV?$string_output_adapter@_W@__crt_stdio_output@@@2@@__crt_stdio_output@@CAPADXZ 1004dfd0 f i libucrtd:output.obj
 0001:0004cfe0       ?narrow_null_string@?$output_processor@_WV?$string_output_adapter@_W@__crt_stdio_output@@V?$positional_parameter_base@_WV?$string_output_adapter@_W@__crt_stdio_output@@@2@@__crt_stdio_output@@CAPADXZ 1004dfe0 f i libucrtd:output.obj
 0001:0004cff0       ?narrow_null_string@?$output_processor@_WV?$string_output_adapter@_W@__crt_stdio_output@@V?$standard_base@_WV?$string_output_adapter@_W@__crt_stdio_output@@@2@@__crt_stdio_output@@CAPADXZ 1004dff0 f i libucrtd:output.obj
 0001:0004d000       ?parse_int_from_format_string@?$output_processor@DV?$stream_output_adapter@D@__crt_stdio_output@@V?$format_validation_base@DV?$stream_output_adapter@D@__crt_stdio_output@@@2@@__crt_stdio_output@@AAE_NQAH@Z 1004e000 f i libucrtd:output.obj
 0001:0004d0c0       ?parse_int_from_format_string@?$output_processor@DV?$stream_output_adapter@D@__crt_stdio_output@@V?$positional_parameter_base@DV?$stream_output_adapter@D@__crt_stdio_output@@@2@@__crt_stdio_output@@AAE_NQAH@Z 1004e0c0 f i libucrtd:output.obj
 0001:0004d180       ?parse_int_from_format_string@?$output_processor@DV?$stream_output_adapter@D@__crt_stdio_output@@V?$standard_base@DV?$stream_output_adapter@D@__crt_stdio_output@@@2@@__crt_stdio_output@@AAE_NQAH@Z 1004e180 f i libucrtd:output.obj
 0001:0004d240       ?parse_int_from_format_string@?$output_processor@DV?$string_output_adapter@D@__crt_stdio_output@@V?$format_validation_base@DV?$string_output_adapter@D@__crt_stdio_output@@@2@@__crt_stdio_output@@AAE_NQAH@Z 1004e240 f i libucrtd:output.obj
 0001:0004d300       ?parse_int_from_format_string@?$output_processor@DV?$string_output_adapter@D@__crt_stdio_output@@V?$positional_parameter_base@DV?$string_output_adapter@D@__crt_stdio_output@@@2@@__crt_stdio_output@@AAE_NQAH@Z 1004e300 f i libucrtd:output.obj
 0001:0004d3c0       ?parse_int_from_format_string@?$output_processor@DV?$string_output_adapter@D@__crt_stdio_output@@V?$standard_base@DV?$string_output_adapter@D@__crt_stdio_output@@@2@@__crt_stdio_output@@AAE_NQAH@Z 1004e3c0 f i libucrtd:output.obj
 0001:0004d480       ?parse_int_from_format_string@?$output_processor@_WV?$stream_output_adapter@_W@__crt_stdio_output@@V?$format_validation_base@_WV?$stream_output_adapter@_W@__crt_stdio_output@@@2@@__crt_stdio_output@@AAE_NQAH@Z 1004e480 f i libucrtd:output.obj
 0001:0004d540       ?parse_int_from_format_string@?$output_processor@_WV?$stream_output_adapter@_W@__crt_stdio_output@@V?$positional_parameter_base@_WV?$stream_output_adapter@_W@__crt_stdio_output@@@2@@__crt_stdio_output@@AAE_NQAH@Z 1004e540 f i libucrtd:output.obj
 0001:0004d600       ?parse_int_from_format_string@?$output_processor@_WV?$stream_output_adapter@_W@__crt_stdio_output@@V?$standard_base@_WV?$stream_output_adapter@_W@__crt_stdio_output@@@2@@__crt_stdio_output@@AAE_NQAH@Z 1004e600 f i libucrtd:output.obj
 0001:0004d6c0       ?parse_int_from_format_string@?$output_processor@_WV?$string_output_adapter@_W@__crt_stdio_output@@V?$format_validation_base@_WV?$string_output_adapter@_W@__crt_stdio_output@@@2@@__crt_stdio_output@@AAE_NQAH@Z 1004e6c0 f i libucrtd:output.obj
 0001:0004d780       ?parse_int_from_format_string@?$output_processor@_WV?$string_output_adapter@_W@__crt_stdio_output@@V?$positional_parameter_base@_WV?$string_output_adapter@_W@__crt_stdio_output@@@2@@__crt_stdio_output@@AAE_NQAH@Z 1004e780 f i libucrtd:output.obj
 0001:0004d840       ?parse_int_from_format_string@?$output_processor@_WV?$string_output_adapter@_W@__crt_stdio_output@@V?$standard_base@_WV?$string_output_adapter@_W@__crt_stdio_output@@@2@@__crt_stdio_output@@AAE_NQAH@Z 1004e840 f i libucrtd:output.obj
 0001:0004d900       ?process@?$output_processor@DV?$stream_output_adapter@D@__crt_stdio_output@@V?$format_validation_base@DV?$stream_output_adapter@D@__crt_stdio_output@@@2@@__crt_stdio_output@@QAEHXZ 1004e900 f i libucrtd:output.obj
 0001:0004dbb0       ?process@?$output_processor@DV?$stream_output_adapter@D@__crt_stdio_output@@V?$positional_parameter_base@DV?$stream_output_adapter@D@__crt_stdio_output@@@2@@__crt_stdio_output@@QAEHXZ 1004ebb0 f i libucrtd:output.obj
 0001:0004de60       ?process@?$output_processor@DV?$stream_output_adapter@D@__crt_stdio_output@@V?$standard_base@DV?$stream_output_adapter@D@__crt_stdio_output@@@2@@__crt_stdio_output@@QAEHXZ 1004ee60 f i libucrtd:output.obj
 0001:0004e110       ?process@?$output_processor@DV?$string_output_adapter@D@__crt_stdio_output@@V?$format_validation_base@DV?$string_output_adapter@D@__crt_stdio_output@@@2@@__crt_stdio_output@@QAEHXZ 1004f110 f i libucrtd:output.obj
 0001:0004e3c0       ?process@?$output_processor@DV?$string_output_adapter@D@__crt_stdio_output@@V?$positional_parameter_base@DV?$string_output_adapter@D@__crt_stdio_output@@@2@@__crt_stdio_output@@QAEHXZ 1004f3c0 f i libucrtd:output.obj
 0001:0004e670       ?process@?$output_processor@DV?$string_output_adapter@D@__crt_stdio_output@@V?$standard_base@DV?$string_output_adapter@D@__crt_stdio_output@@@2@@__crt_stdio_output@@QAEHXZ 1004f670 f i libucrtd:output.obj
 0001:0004e920       ?process@?$output_processor@_WV?$stream_output_adapter@_W@__crt_stdio_output@@V?$format_validation_base@_WV?$stream_output_adapter@_W@__crt_stdio_output@@@2@@__crt_stdio_output@@QAEHXZ 1004f920 f i libucrtd:output.obj
 0001:0004ebd0       ?process@?$output_processor@_WV?$stream_output_adapter@_W@__crt_stdio_output@@V?$positional_parameter_base@_WV?$stream_output_adapter@_W@__crt_stdio_output@@@2@@__crt_stdio_output@@QAEHXZ 1004fbd0 f i libucrtd:output.obj
 0001:0004ee80       ?process@?$output_processor@_WV?$stream_output_adapter@_W@__crt_stdio_output@@V?$standard_base@_WV?$stream_output_adapter@_W@__crt_stdio_output@@@2@@__crt_stdio_output@@QAEHXZ 1004fe80 f i libucrtd:output.obj
 0001:0004f130       ?process@?$output_processor@_WV?$string_output_adapter@_W@__crt_stdio_output@@V?$format_validation_base@_WV?$string_output_adapter@_W@__crt_stdio_output@@@2@@__crt_stdio_output@@QAEHXZ 10050130 f i libucrtd:output.obj
 0001:0004f3e0       ?process@?$output_processor@_WV?$string_output_adapter@_W@__crt_stdio_output@@V?$positional_parameter_base@_WV?$string_output_adapter@_W@__crt_stdio_output@@@2@@__crt_stdio_output@@QAEHXZ 100503e0 f i libucrtd:output.obj
 0001:0004f690       ?process@?$output_processor@_WV?$string_output_adapter@_W@__crt_stdio_output@@V?$standard_base@_WV?$string_output_adapter@_W@__crt_stdio_output@@@2@@__crt_stdio_output@@QAEHXZ 10050690 f i libucrtd:output.obj
 0001:0004f940       ?public_stream@__crt_stdio_stream@@QBEPAU_iobuf@@XZ 10050940 f i libucrtd:output.obj
 0001:0004f960       ?set_flag@?$output_processor@DV?$stream_output_adapter@D@__crt_stdio_output@@V?$format_validation_base@DV?$stream_output_adapter@D@__crt_stdio_output@@@2@@__crt_stdio_output@@AAEXI@Z 10050960 f i libucrtd:output.obj
 0001:0004f980       ?set_flag@?$output_processor@DV?$stream_output_adapter@D@__crt_stdio_output@@V?$positional_parameter_base@DV?$stream_output_adapter@D@__crt_stdio_output@@@2@@__crt_stdio_output@@AAEXI@Z 10050980 f i libucrtd:output.obj
 0001:0004f9a0       ?set_flag@?$output_processor@DV?$stream_output_adapter@D@__crt_stdio_output@@V?$standard_base@DV?$stream_output_adapter@D@__crt_stdio_output@@@2@@__crt_stdio_output@@AAEXI@Z 100509a0 f i libucrtd:output.obj
 0001:0004f9c0       ?set_flag@?$output_processor@DV?$string_output_adapter@D@__crt_stdio_output@@V?$format_validation_base@DV?$string_output_adapter@D@__crt_stdio_output@@@2@@__crt_stdio_output@@AAEXI@Z 100509c0 f i libucrtd:output.obj
 0001:0004f9e0       ?set_flag@?$output_processor@DV?$string_output_adapter@D@__crt_stdio_output@@V?$positional_parameter_base@DV?$string_output_adapter@D@__crt_stdio_output@@@2@@__crt_stdio_output@@AAEXI@Z 100509e0 f i libucrtd:output.obj
 0001:0004fa00       ?set_flag@?$output_processor@DV?$string_output_adapter@D@__crt_stdio_output@@V?$standard_base@DV?$string_output_adapter@D@__crt_stdio_output@@@2@@__crt_stdio_output@@AAEXI@Z 10050a00 f i libucrtd:output.obj
 0001:0004fa20       ?set_flag@?$output_processor@_WV?$stream_output_adapter@_W@__crt_stdio_output@@V?$format_validation_base@_WV?$stream_output_adapter@_W@__crt_stdio_output@@@2@@__crt_stdio_output@@AAEXI@Z 10050a20 f i libucrtd:output.obj
 0001:0004fa40       ?set_flag@?$output_processor@_WV?$stream_output_adapter@_W@__crt_stdio_output@@V?$positional_parameter_base@_WV?$stream_output_adapter@_W@__crt_stdio_output@@@2@@__crt_stdio_output@@AAEXI@Z 10050a40 f i libucrtd:output.obj
 0001:0004fa60       ?set_flag@?$output_processor@_WV?$stream_output_adapter@_W@__crt_stdio_output@@V?$standard_base@_WV?$stream_output_adapter@_W@__crt_stdio_output@@@2@@__crt_stdio_output@@AAEXI@Z 10050a60 f i libucrtd:output.obj
 0001:0004fa80       ?set_flag@?$output_processor@_WV?$string_output_adapter@_W@__crt_stdio_output@@V?$format_validation_base@_WV?$string_output_adapter@_W@__crt_stdio_output@@@2@@__crt_stdio_output@@AAEXI@Z 10050a80 f i libucrtd:output.obj
 0001:0004faa0       ?set_flag@?$output_processor@_WV?$string_output_adapter@_W@__crt_stdio_output@@V?$positional_parameter_base@_WV?$string_output_adapter@_W@__crt_stdio_output@@@2@@__crt_stdio_output@@AAEXI@Z 10050aa0 f i libucrtd:output.obj
 0001:0004fac0       ?set_flag@?$output_processor@_WV?$string_output_adapter@_W@__crt_stdio_output@@V?$standard_base@_WV?$string_output_adapter@_W@__crt_stdio_output@@@2@@__crt_stdio_output@@AAEXI@Z 10050ac0 f i libucrtd:output.obj
 0001:0004fae0       ?should_format@?$positional_parameter_base@DV?$stream_output_adapter@D@__crt_stdio_output@@@__crt_stdio_output@@IAE_NXZ 10050ae0 f i libucrtd:output.obj
 0001:0004fb20       ?should_format@?$positional_parameter_base@DV?$string_output_adapter@D@__crt_stdio_output@@@__crt_stdio_output@@IAE_NXZ 10050b20 f i libucrtd:output.obj
 0001:0004fb60       ?should_format@?$positional_parameter_base@_WV?$stream_output_adapter@_W@__crt_stdio_output@@@__crt_stdio_output@@IAE_NXZ 10050b60 f i libucrtd:output.obj
 0001:0004fba0       ?should_format@?$positional_parameter_base@_WV?$string_output_adapter@_W@__crt_stdio_output@@@__crt_stdio_output@@IAE_NXZ 10050ba0 f i libucrtd:output.obj
 0001:0004fbe0       ?should_format@?$standard_base@DV?$stream_output_adapter@D@__crt_stdio_output@@@__crt_stdio_output@@IAE_NXZ 10050be0 f i libucrtd:output.obj
 0001:0004fbf0       ?should_format@?$standard_base@DV?$string_output_adapter@D@__crt_stdio_output@@@__crt_stdio_output@@IAE_NXZ 10050bf0 f i libucrtd:output.obj
 0001:0004fc00       ?should_format@?$standard_base@_WV?$stream_output_adapter@_W@__crt_stdio_output@@@__crt_stdio_output@@IAE_NXZ 10050c00 f i libucrtd:output.obj
 0001:0004fc10       ?should_format@?$standard_base@_WV?$string_output_adapter@_W@__crt_stdio_output@@@__crt_stdio_output@@IAE_NXZ 10050c10 f i libucrtd:output.obj
 0001:0004fc20       ?should_skip_normal_state_processing@?$positional_parameter_base@DV?$stream_output_adapter@D@__crt_stdio_output@@@__crt_stdio_output@@IAE_NXZ 10050c20 f i libucrtd:output.obj
 0001:0004fc70       ?should_skip_normal_state_processing@?$positional_parameter_base@DV?$string_output_adapter@D@__crt_stdio_output@@@__crt_stdio_output@@IAE_NXZ 10050c70 f i libucrtd:output.obj
 0001:0004fcc0       ?should_skip_normal_state_processing@?$positional_parameter_base@_WV?$stream_output_adapter@_W@__crt_stdio_output@@@__crt_stdio_output@@IAE_NXZ 10050cc0 f i libucrtd:output.obj
 0001:0004fd10       ?should_skip_normal_state_processing@?$positional_parameter_base@_WV?$string_output_adapter@_W@__crt_stdio_output@@@__crt_stdio_output@@IAE_NXZ 10050d10 f i libucrtd:output.obj
 0001:0004fd60       ?should_skip_normal_state_processing@?$standard_base@DV?$stream_output_adapter@D@__crt_stdio_output@@@__crt_stdio_output@@IAE_NXZ 10050d60 f i libucrtd:output.obj
 0001:0004fd70       ?should_skip_normal_state_processing@?$standard_base@DV?$string_output_adapter@D@__crt_stdio_output@@@__crt_stdio_output@@IAE_NXZ 10050d70 f i libucrtd:output.obj
 0001:0004fd80       ?should_skip_normal_state_processing@?$standard_base@_WV?$stream_output_adapter@_W@__crt_stdio_output@@@__crt_stdio_output@@IAE_NXZ 10050d80 f i libucrtd:output.obj
 0001:0004fd90       ?should_skip_normal_state_processing@?$standard_base@_WV?$string_output_adapter@_W@__crt_stdio_output@@@__crt_stdio_output@@IAE_NXZ 10050d90 f i libucrtd:output.obj
 0001:0004fda0       ?should_skip_type_state_output@?$positional_parameter_base@DV?$stream_output_adapter@D@__crt_stdio_output@@@__crt_stdio_output@@IBE_NXZ 10050da0 f i libucrtd:output.obj
 0001:0004fde0       ?should_skip_type_state_output@?$positional_parameter_base@DV?$string_output_adapter@D@__crt_stdio_output@@@__crt_stdio_output@@IBE_NXZ 10050de0 f i libucrtd:output.obj
 0001:0004fe20       ?should_skip_type_state_output@?$positional_parameter_base@_WV?$stream_output_adapter@_W@__crt_stdio_output@@@__crt_stdio_output@@IBE_NXZ 10050e20 f i libucrtd:output.obj
 0001:0004fe60       ?should_skip_type_state_output@?$positional_parameter_base@_WV?$string_output_adapter@_W@__crt_stdio_output@@@__crt_stdio_output@@IBE_NXZ 10050e60 f i libucrtd:output.obj
 0001:0004fea0       ?should_skip_type_state_output@?$standard_base@DV?$stream_output_adapter@D@__crt_stdio_output@@@__crt_stdio_output@@IBE_NXZ 10050ea0 f i libucrtd:output.obj
 0001:0004feb0       ?should_skip_type_state_output@?$standard_base@DV?$string_output_adapter@D@__crt_stdio_output@@@__crt_stdio_output@@IBE_NXZ 10050eb0 f i libucrtd:output.obj
 0001:0004fec0       ?should_skip_type_state_output@?$standard_base@_WV?$stream_output_adapter@_W@__crt_stdio_output@@@__crt_stdio_output@@IBE_NXZ 10050ec0 f i libucrtd:output.obj
 0001:0004fed0       ?should_skip_type_state_output@?$standard_base@_WV?$string_output_adapter@_W@__crt_stdio_output@@@__crt_stdio_output@@IBE_NXZ 10050ed0 f i libucrtd:output.obj
 0001:0004fee0       ?state_case_dot@?$output_processor@DV?$stream_output_adapter@D@__crt_stdio_output@@V?$format_validation_base@DV?$stream_output_adapter@D@__crt_stdio_output@@@2@@__crt_stdio_output@@AAE_NXZ 10050ee0 f i libucrtd:output.obj
 0001:0004ff00       ?state_case_dot@?$output_processor@DV?$stream_output_adapter@D@__crt_stdio_output@@V?$positional_parameter_base@DV?$stream_output_adapter@D@__crt_stdio_output@@@2@@__crt_stdio_output@@AAE_NXZ 10050f00 f i libucrtd:output.obj
 0001:0004ff20       ?state_case_dot@?$output_processor@DV?$stream_output_adapter@D@__crt_stdio_output@@V?$standard_base@DV?$stream_output_adapter@D@__crt_stdio_output@@@2@@__crt_stdio_output@@AAE_NXZ 10050f20 f i libucrtd:output.obj
 0001:0004ff40       ?state_case_dot@?$output_processor@DV?$string_output_adapter@D@__crt_stdio_output@@V?$format_validation_base@DV?$string_output_adapter@D@__crt_stdio_output@@@2@@__crt_stdio_output@@AAE_NXZ 10050f40 f i libucrtd:output.obj
 0001:0004ff60       ?state_case_dot@?$output_processor@DV?$string_output_adapter@D@__crt_stdio_output@@V?$positional_parameter_base@DV?$string_output_adapter@D@__crt_stdio_output@@@2@@__crt_stdio_output@@AAE_NXZ 10050f60 f i libucrtd:output.obj
 0001:0004ff80       ?state_case_dot@?$output_processor@DV?$string_output_adapter@D@__crt_stdio_output@@V?$standard_base@DV?$string_output_adapter@D@__crt_stdio_output@@@2@@__crt_stdio_output@@AAE_NXZ 10050f80 f i libucrtd:output.obj
 0001:0004ffa0       ?state_case_dot@?$output_processor@_WV?$stream_output_adapter@_W@__crt_stdio_output@@V?$format_validation_base@_WV?$stream_output_adapter@_W@__crt_stdio_output@@@2@@__crt_stdio_output@@AAE_NXZ 10050fa0 f i libucrtd:output.obj
 0001:0004ffc0       ?state_case_dot@?$output_processor@_WV?$stream_output_adapter@_W@__crt_stdio_output@@V?$positional_parameter_base@_WV?$stream_output_adapter@_W@__crt_stdio_output@@@2@@__crt_stdio_output@@AAE_NXZ 10050fc0 f i libucrtd:output.obj
 0001:0004ffe0       ?state_case_dot@?$output_processor@_WV?$stream_output_adapter@_W@__crt_stdio_output@@V?$standard_base@_WV?$stream_output_adapter@_W@__crt_stdio_output@@@2@@__crt_stdio_output@@AAE_NXZ 10050fe0 f i libucrtd:output.obj
 0001:00050000       ?state_case_dot@?$output_processor@_WV?$string_output_adapter@_W@__crt_stdio_output@@V?$format_validation_base@_WV?$string_output_adapter@_W@__crt_stdio_output@@@2@@__crt_stdio_output@@AAE_NXZ 10051000 f i libucrtd:output.obj
 0001:00050020       ?state_case_dot@?$output_processor@_WV?$string_output_adapter@_W@__crt_stdio_output@@V?$positional_parameter_base@_WV?$string_output_adapter@_W@__crt_stdio_output@@@2@@__crt_stdio_output@@AAE_NXZ 10051020 f i libucrtd:output.obj
 0001:00050040       ?state_case_dot@?$output_processor@_WV?$string_output_adapter@_W@__crt_stdio_output@@V?$standard_base@_WV?$string_output_adapter@_W@__crt_stdio_output@@@2@@__crt_stdio_output@@AAE_NXZ 10051040 f i libucrtd:output.obj
 0001:00050060       ?state_case_flag@?$output_processor@DV?$stream_output_adapter@D@__crt_stdio_output@@V?$format_validation_base@DV?$stream_output_adapter@D@__crt_stdio_output@@@2@@__crt_stdio_output@@AAE_NXZ 10051060 f i libucrtd:output.obj
 0001:00050110       ?state_case_flag@?$output_processor@DV?$stream_output_adapter@D@__crt_stdio_output@@V?$positional_parameter_base@DV?$stream_output_adapter@D@__crt_stdio_output@@@2@@__crt_stdio_output@@AAE_NXZ 10051110 f i libucrtd:output.obj
 0001:000501c0       ?state_case_flag@?$output_processor@DV?$stream_output_adapter@D@__crt_stdio_output@@V?$standard_base@DV?$stream_output_adapter@D@__crt_stdio_output@@@2@@__crt_stdio_output@@AAE_NXZ 100511c0 f i libucrtd:output.obj
 0001:00050270       ?state_case_flag@?$output_processor@DV?$string_output_adapter@D@__crt_stdio_output@@V?$format_validation_base@DV?$string_output_adapter@D@__crt_stdio_output@@@2@@__crt_stdio_output@@AAE_NXZ 10051270 f i libucrtd:output.obj
 0001:00050320       ?state_case_flag@?$output_processor@DV?$string_output_adapter@D@__crt_stdio_output@@V?$positional_parameter_base@DV?$string_output_adapter@D@__crt_stdio_output@@@2@@__crt_stdio_output@@AAE_NXZ 10051320 f i libucrtd:output.obj
 0001:000503d0       ?state_case_flag@?$output_processor@DV?$string_output_adapter@D@__crt_stdio_output@@V?$standard_base@DV?$string_output_adapter@D@__crt_stdio_output@@@2@@__crt_stdio_output@@AAE_NXZ 100513d0 f i libucrtd:output.obj
 0001:00050480       ?state_case_flag@?$output_processor@_WV?$stream_output_adapter@_W@__crt_stdio_output@@V?$format_validation_base@_WV?$stream_output_adapter@_W@__crt_stdio_output@@@2@@__crt_stdio_output@@AAE_NXZ 10051480 f i libucrtd:output.obj
 0001:00050530       ?state_case_flag@?$output_processor@_WV?$stream_output_adapter@_W@__crt_stdio_output@@V?$positional_parameter_base@_WV?$stream_output_adapter@_W@__crt_stdio_output@@@2@@__crt_stdio_output@@AAE_NXZ 10051530 f i libucrtd:output.obj
 0001:000505e0       ?state_case_flag@?$output_processor@_WV?$stream_output_adapter@_W@__crt_stdio_output@@V?$standard_base@_WV?$stream_output_adapter@_W@__crt_stdio_output@@@2@@__crt_stdio_output@@AAE_NXZ 100515e0 f i libucrtd:output.obj
 0001:00050690       ?state_case_flag@?$output_processor@_WV?$string_output_adapter@_W@__crt_stdio_output@@V?$format_validation_base@_WV?$string_output_adapter@_W@__crt_stdio_output@@@2@@__crt_stdio_output@@AAE_NXZ 10051690 f i libucrtd:output.obj
 0001:00050740       ?state_case_flag@?$output_processor@_WV?$string_output_adapter@_W@__crt_stdio_output@@V?$positional_parameter_base@_WV?$string_output_adapter@_W@__crt_stdio_output@@@2@@__crt_stdio_output@@AAE_NXZ 10051740 f i libucrtd:output.obj
 0001:000507f0       ?state_case_flag@?$output_processor@_WV?$string_output_adapter@_W@__crt_stdio_output@@V?$standard_base@_WV?$string_output_adapter@_W@__crt_stdio_output@@@2@@__crt_stdio_output@@AAE_NXZ 100517f0 f i libucrtd:output.obj
 0001:000508a0       ?state_case_normal@?$output_processor@DV?$stream_output_adapter@D@__crt_stdio_output@@V?$format_validation_base@DV?$stream_output_adapter@D@__crt_stdio_output@@@2@@__crt_stdio_output@@AAE_NXZ 100518a0 f i libucrtd:output.obj
 0001:00050950       ?state_case_normal@?$output_processor@DV?$stream_output_adapter@D@__crt_stdio_output@@V?$positional_parameter_base@DV?$stream_output_adapter@D@__crt_stdio_output@@@2@@__crt_stdio_output@@AAE_NXZ 10051950 f i libucrtd:output.obj
 0001:00050a00       ?state_case_normal@?$output_processor@DV?$stream_output_adapter@D@__crt_stdio_output@@V?$standard_base@DV?$stream_output_adapter@D@__crt_stdio_output@@@2@@__crt_stdio_output@@AAE_NXZ 10051a00 f i libucrtd:output.obj
 0001:00050ab0       ?state_case_normal@?$output_processor@DV?$string_output_adapter@D@__crt_stdio_output@@V?$format_validation_base@DV?$string_output_adapter@D@__crt_stdio_output@@@2@@__crt_stdio_output@@AAE_NXZ 10051ab0 f i libucrtd:output.obj
 0001:00050b60       ?state_case_normal@?$output_processor@DV?$string_output_adapter@D@__crt_stdio_output@@V?$positional_parameter_base@DV?$string_output_adapter@D@__crt_stdio_output@@@2@@__crt_stdio_output@@AAE_NXZ 10051b60 f i libucrtd:output.obj
 0001:00050c10       ?state_case_normal@?$output_processor@DV?$string_output_adapter@D@__crt_stdio_output@@V?$standard_base@DV?$string_output_adapter@D@__crt_stdio_output@@@2@@__crt_stdio_output@@AAE_NXZ 10051c10 f i libucrtd:output.obj
 0001:00050cc0       ?state_case_normal@?$output_processor@_WV?$stream_output_adapter@_W@__crt_stdio_output@@V?$format_validation_base@_WV?$stream_output_adapter@_W@__crt_stdio_output@@@2@@__crt_stdio_output@@AAE_NXZ 10051cc0 f i libucrtd:output.obj
 0001:00050d70       ?state_case_normal@?$output_processor@_WV?$stream_output_adapter@_W@__crt_stdio_output@@V?$positional_parameter_base@_WV?$stream_output_adapter@_W@__crt_stdio_output@@@2@@__crt_stdio_output@@AAE_NXZ 10051d70 f i libucrtd:output.obj
 0001:00050e20       ?state_case_normal@?$output_processor@_WV?$stream_output_adapter@_W@__crt_stdio_output@@V?$standard_base@_WV?$stream_output_adapter@_W@__crt_stdio_output@@@2@@__crt_stdio_output@@AAE_NXZ 10051e20 f i libucrtd:output.obj
 0001:00050ed0       ?state_case_normal@?$output_processor@_WV?$string_output_adapter@_W@__crt_stdio_output@@V?$format_validation_base@_WV?$string_output_adapter@_W@__crt_stdio_output@@@2@@__crt_stdio_output@@AAE_NXZ 10051ed0 f i libucrtd:output.obj
 0001:00050f80       ?state_case_normal@?$output_processor@_WV?$string_output_adapter@_W@__crt_stdio_output@@V?$positional_parameter_base@_WV?$string_output_adapter@_W@__crt_stdio_output@@@2@@__crt_stdio_output@@AAE_NXZ 10051f80 f i libucrtd:output.obj
 0001:00051030       ?state_case_normal@?$output_processor@_WV?$string_output_adapter@_W@__crt_stdio_output@@V?$standard_base@_WV?$string_output_adapter@_W@__crt_stdio_output@@@2@@__crt_stdio_output@@AAE_NXZ 10052030 f i libucrtd:output.obj
 0001:000510e0       ?state_case_normal_common@?$output_processor@DV?$stream_output_adapter@D@__crt_stdio_output@@V?$format_validation_base@DV?$stream_output_adapter@D@__crt_stdio_output@@@2@@__crt_stdio_output@@AAE_NXZ 100520e0 f i libucrtd:output.obj
 0001:00051130       ?state_case_normal_common@?$output_processor@DV?$stream_output_adapter@D@__crt_stdio_output@@V?$positional_parameter_base@DV?$stream_output_adapter@D@__crt_stdio_output@@@2@@__crt_stdio_output@@AAE_NXZ 10052130 f i libucrtd:output.obj
 0001:00051180       ?state_case_normal_common@?$output_processor@DV?$stream_output_adapter@D@__crt_stdio_output@@V?$standard_base@DV?$stream_output_adapter@D@__crt_stdio_output@@@2@@__crt_stdio_output@@AAE_NXZ 10052180 f i libucrtd:output.obj
 0001:000511d0       ?state_case_normal_common@?$output_processor@DV?$string_output_adapter@D@__crt_stdio_output@@V?$format_validation_base@DV?$string_output_adapter@D@__crt_stdio_output@@@2@@__crt_stdio_output@@AAE_NXZ 100521d0 f i libucrtd:output.obj
 0001:00051220       ?state_case_normal_common@?$output_processor@DV?$string_output_adapter@D@__crt_stdio_output@@V?$positional_parameter_base@DV?$string_output_adapter@D@__crt_stdio_output@@@2@@__crt_stdio_output@@AAE_NXZ 10052220 f i libucrtd:output.obj
 0001:00051270       ?state_case_normal_common@?$output_processor@DV?$string_output_adapter@D@__crt_stdio_output@@V?$standard_base@DV?$string_output_adapter@D@__crt_stdio_output@@@2@@__crt_stdio_output@@AAE_NXZ 10052270 f i libucrtd:output.obj
 0001:000512c0       ?state_case_normal_common@?$output_processor@_WV?$stream_output_adapter@_W@__crt_stdio_output@@V?$format_validation_base@_WV?$stream_output_adapter@_W@__crt_stdio_output@@@2@@__crt_stdio_output@@AAE_NXZ 100522c0 f i libucrtd:output.obj
 0001:00051310       ?state_case_normal_common@?$output_processor@_WV?$stream_output_adapter@_W@__crt_stdio_output@@V?$positional_parameter_base@_WV?$stream_output_adapter@_W@__crt_stdio_output@@@2@@__crt_stdio_output@@AAE_NXZ 10052310 f i libucrtd:output.obj
 0001:00051360       ?state_case_normal_common@?$output_processor@_WV?$stream_output_adapter@_W@__crt_stdio_output@@V?$standard_base@_WV?$stream_output_adapter@_W@__crt_stdio_output@@@2@@__crt_stdio_output@@AAE_NXZ 10052360 f i libucrtd:output.obj
 0001:000513b0       ?state_case_normal_common@?$output_processor@_WV?$string_output_adapter@_W@__crt_stdio_output@@V?$format_validation_base@_WV?$string_output_adapter@_W@__crt_stdio_output@@@2@@__crt_stdio_output@@AAE_NXZ 100523b0 f i libucrtd:output.obj
 0001:00051400       ?state_case_normal_common@?$output_processor@_WV?$string_output_adapter@_W@__crt_stdio_output@@V?$positional_parameter_base@_WV?$string_output_adapter@_W@__crt_stdio_output@@@2@@__crt_stdio_output@@AAE_NXZ 10052400 f i libucrtd:output.obj
 0001:00051450       ?state_case_normal_common@?$output_processor@_WV?$string_output_adapter@_W@__crt_stdio_output@@V?$standard_base@_WV?$string_output_adapter@_W@__crt_stdio_output@@@2@@__crt_stdio_output@@AAE_NXZ 10052450 f i libucrtd:output.obj
 0001:000514a0       ?state_case_normal_tchar@?$output_processor@DV?$stream_output_adapter@D@__crt_stdio_output@@V?$format_validation_base@DV?$stream_output_adapter@D@__crt_stdio_output@@@2@@__crt_stdio_output@@AAE_ND@Z 100524a0 f i libucrtd:output.obj
 0001:000515a0       ?state_case_normal_tchar@?$output_processor@DV?$stream_output_adapter@D@__crt_stdio_output@@V?$positional_parameter_base@DV?$stream_output_adapter@D@__crt_stdio_output@@@2@@__crt_stdio_output@@AAE_ND@Z 100525a0 f i libucrtd:output.obj
 0001:000516a0       ?state_case_normal_tchar@?$output_processor@DV?$stream_output_adapter@D@__crt_stdio_output@@V?$standard_base@DV?$stream_output_adapter@D@__crt_stdio_output@@@2@@__crt_stdio_output@@AAE_ND@Z 100526a0 f i libucrtd:output.obj
 0001:000517a0       ?state_case_normal_tchar@?$output_processor@DV?$string_output_adapter@D@__crt_stdio_output@@V?$format_validation_base@DV?$string_output_adapter@D@__crt_stdio_output@@@2@@__crt_stdio_output@@AAE_ND@Z 100527a0 f i libucrtd:output.obj
 0001:000518a0       ?state_case_normal_tchar@?$output_processor@DV?$string_output_adapter@D@__crt_stdio_output@@V?$positional_parameter_base@DV?$string_output_adapter@D@__crt_stdio_output@@@2@@__crt_stdio_output@@AAE_ND@Z 100528a0 f i libucrtd:output.obj
 0001:000519a0       ?state_case_normal_tchar@?$output_processor@DV?$string_output_adapter@D@__crt_stdio_output@@V?$standard_base@DV?$string_output_adapter@D@__crt_stdio_output@@@2@@__crt_stdio_output@@AAE_ND@Z 100529a0 f i libucrtd:output.obj
 0001:00051aa0       ?state_case_normal_tchar@?$output_processor@_WV?$stream_output_adapter@_W@__crt_stdio_output@@V?$format_validation_base@_WV?$stream_output_adapter@_W@__crt_stdio_output@@@2@@__crt_stdio_output@@AAE_N_W@Z 10052aa0 f i libucrtd:output.obj
 0001:00051ac0       ?state_case_normal_tchar@?$output_processor@_WV?$stream_output_adapter@_W@__crt_stdio_output@@V?$positional_parameter_base@_WV?$stream_output_adapter@_W@__crt_stdio_output@@@2@@__crt_stdio_output@@AAE_N_W@Z 10052ac0 f i libucrtd:output.obj
 0001:00051ae0       ?state_case_normal_tchar@?$output_processor@_WV?$stream_output_adapter@_W@__crt_stdio_output@@V?$standard_base@_WV?$stream_output_adapter@_W@__crt_stdio_output@@@2@@__crt_stdio_output@@AAE_N_W@Z 10052ae0 f i libucrtd:output.obj
 0001:00051b00       ?state_case_normal_tchar@?$output_processor@_WV?$string_output_adapter@_W@__crt_stdio_output@@V?$format_validation_base@_WV?$string_output_adapter@_W@__crt_stdio_output@@@2@@__crt_stdio_output@@AAE_N_W@Z 10052b00 f i libucrtd:output.obj
 0001:00051b20       ?state_case_normal_tchar@?$output_processor@_WV?$string_output_adapter@_W@__crt_stdio_output@@V?$positional_parameter_base@_WV?$string_output_adapter@_W@__crt_stdio_output@@@2@@__crt_stdio_output@@AAE_N_W@Z 10052b20 f i libucrtd:output.obj
 0001:00051b40       ?state_case_normal_tchar@?$output_processor@_WV?$string_output_adapter@_W@__crt_stdio_output@@V?$standard_base@_WV?$string_output_adapter@_W@__crt_stdio_output@@@2@@__crt_stdio_output@@AAE_N_W@Z 10052b40 f i libucrtd:output.obj
 0001:00051b60       ?state_case_percent@?$output_processor@DV?$stream_output_adapter@D@__crt_stdio_output@@V?$format_validation_base@DV?$stream_output_adapter@D@__crt_stdio_output@@@2@@__crt_stdio_output@@AAE_NXZ 10052b60 f i libucrtd:output.obj
 0001:00051bb0       ?state_case_percent@?$output_processor@DV?$stream_output_adapter@D@__crt_stdio_output@@V?$positional_parameter_base@DV?$stream_output_adapter@D@__crt_stdio_output@@@2@@__crt_stdio_output@@AAE_NXZ 10052bb0 f i libucrtd:output.obj
 0001:00051c00       ?state_case_percent@?$output_processor@DV?$stream_output_adapter@D@__crt_stdio_output@@V?$standard_base@DV?$stream_output_adapter@D@__crt_stdio_output@@@2@@__crt_stdio_output@@AAE_NXZ 10052c00 f i libucrtd:output.obj
 0001:00051c50       ?state_case_percent@?$output_processor@DV?$string_output_adapter@D@__crt_stdio_output@@V?$format_validation_base@DV?$string_output_adapter@D@__crt_stdio_output@@@2@@__crt_stdio_output@@AAE_NXZ 10052c50 f i libucrtd:output.obj
 0001:00051ca0       ?state_case_percent@?$output_processor@DV?$string_output_adapter@D@__crt_stdio_output@@V?$positional_parameter_base@DV?$string_output_adapter@D@__crt_stdio_output@@@2@@__crt_stdio_output@@AAE_NXZ 10052ca0 f i libucrtd:output.obj
 0001:00051cf0       ?state_case_percent@?$output_processor@DV?$string_output_adapter@D@__crt_stdio_output@@V?$standard_base@DV?$string_output_adapter@D@__crt_stdio_output@@@2@@__crt_stdio_output@@AAE_NXZ 10052cf0 f i libucrtd:output.obj
 0001:00051d40       ?state_case_percent@?$output_processor@_WV?$stream_output_adapter@_W@__crt_stdio_output@@V?$format_validation_base@_WV?$stream_output_adapter@_W@__crt_stdio_output@@@2@@__crt_stdio_output@@AAE_NXZ 10052d40 f i libucrtd:output.obj
 0001:00051d90       ?state_case_percent@?$output_processor@_WV?$stream_output_adapter@_W@__crt_stdio_output@@V?$positional_parameter_base@_WV?$stream_output_adapter@_W@__crt_stdio_output@@@2@@__crt_stdio_output@@AAE_NXZ 10052d90 f i libucrtd:output.obj
 0001:00051de0       ?state_case_percent@?$output_processor@_WV?$stream_output_adapter@_W@__crt_stdio_output@@V?$standard_base@_WV?$stream_output_adapter@_W@__crt_stdio_output@@@2@@__crt_stdio_output@@AAE_NXZ 10052de0 f i libucrtd:output.obj
 0001:00051e30       ?state_case_percent@?$output_processor@_WV?$string_output_adapter@_W@__crt_stdio_output@@V?$format_validation_base@_WV?$string_output_adapter@_W@__crt_stdio_output@@@2@@__crt_stdio_output@@AAE_NXZ 10052e30 f i libucrtd:output.obj
 0001:00051e80       ?state_case_percent@?$output_processor@_WV?$string_output_adapter@_W@__crt_stdio_output@@V?$positional_parameter_base@_WV?$string_output_adapter@_W@__crt_stdio_output@@@2@@__crt_stdio_output@@AAE_NXZ 10052e80 f i libucrtd:output.obj
 0001:00051ed0       ?state_case_percent@?$output_processor@_WV?$string_output_adapter@_W@__crt_stdio_output@@V?$standard_base@_WV?$string_output_adapter@_W@__crt_stdio_output@@@2@@__crt_stdio_output@@AAE_NXZ 10052ed0 f i libucrtd:output.obj
 0001:00051f20       ?state_case_precision@?$output_processor@DV?$stream_output_adapter@D@__crt_stdio_output@@V?$format_validation_base@DV?$stream_output_adapter@D@__crt_stdio_output@@@2@@__crt_stdio_output@@AAE_NXZ 10052f20 f i libucrtd:output.obj
 0001:00051f90       ?state_case_precision@?$output_processor@DV?$stream_output_adapter@D@__crt_stdio_output@@V?$positional_parameter_base@DV?$stream_output_adapter@D@__crt_stdio_output@@@2@@__crt_stdio_output@@AAE_NXZ 10052f90 f i libucrtd:output.obj
 0001:00052000       ?state_case_precision@?$output_processor@DV?$stream_output_adapter@D@__crt_stdio_output@@V?$standard_base@DV?$stream_output_adapter@D@__crt_stdio_output@@@2@@__crt_stdio_output@@AAE_NXZ 10053000 f i libucrtd:output.obj
 0001:00052070       ?state_case_precision@?$output_processor@DV?$string_output_adapter@D@__crt_stdio_output@@V?$format_validation_base@DV?$string_output_adapter@D@__crt_stdio_output@@@2@@__crt_stdio_output@@AAE_NXZ 10053070 f i libucrtd:output.obj
 0001:000520e0       ?state_case_precision@?$output_processor@DV?$string_output_adapter@D@__crt_stdio_output@@V?$positional_parameter_base@DV?$string_output_adapter@D@__crt_stdio_output@@@2@@__crt_stdio_output@@AAE_NXZ 100530e0 f i libucrtd:output.obj
 0001:00052150       ?state_case_precision@?$output_processor@DV?$string_output_adapter@D@__crt_stdio_output@@V?$standard_base@DV?$string_output_adapter@D@__crt_stdio_output@@@2@@__crt_stdio_output@@AAE_NXZ 10053150 f i libucrtd:output.obj
 0001:000521c0       ?state_case_precision@?$output_processor@_WV?$stream_output_adapter@_W@__crt_stdio_output@@V?$format_validation_base@_WV?$stream_output_adapter@_W@__crt_stdio_output@@@2@@__crt_stdio_output@@AAE_NXZ 100531c0 f i libucrtd:output.obj
 0001:00052230       ?state_case_precision@?$output_processor@_WV?$stream_output_adapter@_W@__crt_stdio_output@@V?$positional_parameter_base@_WV?$stream_output_adapter@_W@__crt_stdio_output@@@2@@__crt_stdio_output@@AAE_NXZ 10053230 f i libucrtd:output.obj
 0001:000522a0       ?state_case_precision@?$output_processor@_WV?$stream_output_adapter@_W@__crt_stdio_output@@V?$standard_base@_WV?$stream_output_adapter@_W@__crt_stdio_output@@@2@@__crt_stdio_output@@AAE_NXZ 100532a0 f i libucrtd:output.obj
 0001:00052310       ?state_case_precision@?$output_processor@_WV?$string_output_adapter@_W@__crt_stdio_output@@V?$format_validation_base@_WV?$string_output_adapter@_W@__crt_stdio_output@@@2@@__crt_stdio_output@@AAE_NXZ 10053310 f i libucrtd:output.obj
 0001:00052380       ?state_case_precision@?$output_processor@_WV?$string_output_adapter@_W@__crt_stdio_output@@V?$positional_parameter_base@_WV?$string_output_adapter@_W@__crt_stdio_output@@@2@@__crt_stdio_output@@AAE_NXZ 10053380 f i libucrtd:output.obj
 0001:000523f0       ?state_case_precision@?$output_processor@_WV?$string_output_adapter@_W@__crt_stdio_output@@V?$standard_base@_WV?$string_output_adapter@_W@__crt_stdio_output@@@2@@__crt_stdio_output@@AAE_NXZ 100533f0 f i libucrtd:output.obj
 0001:00052460       ?state_case_size@?$output_processor@DV?$stream_output_adapter@D@__crt_stdio_output@@V?$format_validation_base@DV?$stream_output_adapter@D@__crt_stdio_output@@@2@@__crt_stdio_output@@AAE_NXZ 10053460 f i libucrtd:output.obj
 0001:00052830       ?state_case_size@?$output_processor@DV?$stream_output_adapter@D@__crt_stdio_output@@V?$positional_parameter_base@DV?$stream_output_adapter@D@__crt_stdio_output@@@2@@__crt_stdio_output@@AAE_NXZ 10053830 f i libucrtd:output.obj
 0001:00052c00       ?state_case_size@?$output_processor@DV?$stream_output_adapter@D@__crt_stdio_output@@V?$standard_base@DV?$stream_output_adapter@D@__crt_stdio_output@@@2@@__crt_stdio_output@@AAE_NXZ 10053c00 f i libucrtd:output.obj
 0001:00052fd0       ?state_case_size@?$output_processor@DV?$string_output_adapter@D@__crt_stdio_output@@V?$format_validation_base@DV?$string_output_adapter@D@__crt_stdio_output@@@2@@__crt_stdio_output@@AAE_NXZ 10053fd0 f i libucrtd:output.obj
 0001:000533a0       ?state_case_size@?$output_processor@DV?$string_output_adapter@D@__crt_stdio_output@@V?$positional_parameter_base@DV?$string_output_adapter@D@__crt_stdio_output@@@2@@__crt_stdio_output@@AAE_NXZ 100543a0 f i libucrtd:output.obj
 0001:00053770       ?state_case_size@?$output_processor@DV?$string_output_adapter@D@__crt_stdio_output@@V?$standard_base@DV?$string_output_adapter@D@__crt_stdio_output@@@2@@__crt_stdio_output@@AAE_NXZ 10054770 f i libucrtd:output.obj
 0001:00053b40       ?state_case_size@?$output_processor@_WV?$stream_output_adapter@_W@__crt_stdio_output@@V?$format_validation_base@_WV?$stream_output_adapter@_W@__crt_stdio_output@@@2@@__crt_stdio_output@@AAE_NXZ 10054b40 f i libucrtd:output.obj
 0001:00053f10       ?state_case_size@?$output_processor@_WV?$stream_output_adapter@_W@__crt_stdio_output@@V?$positional_parameter_base@_WV?$stream_output_adapter@_W@__crt_stdio_output@@@2@@__crt_stdio_output@@AAE_NXZ 10054f10 f i libucrtd:output.obj
 0001:000542e0       ?state_case_size@?$output_processor@_WV?$stream_output_adapter@_W@__crt_stdio_output@@V?$standard_base@_WV?$stream_output_adapter@_W@__crt_stdio_output@@@2@@__crt_stdio_output@@AAE_NXZ 100552e0 f i libucrtd:output.obj
 0001:000546b0       ?state_case_size@?$output_processor@_WV?$string_output_adapter@_W@__crt_stdio_output@@V?$format_validation_base@_WV?$string_output_adapter@_W@__crt_stdio_output@@@2@@__crt_stdio_output@@AAE_NXZ 100556b0 f i libucrtd:output.obj
 0001:00054a80       ?state_case_size@?$output_processor@_WV?$string_output_adapter@_W@__crt_stdio_output@@V?$positional_parameter_base@_WV?$string_output_adapter@_W@__crt_stdio_output@@@2@@__crt_stdio_output@@AAE_NXZ 10055a80 f i libucrtd:output.obj
 0001:00054e50       ?state_case_size@?$output_processor@_WV?$string_output_adapter@_W@__crt_stdio_output@@V?$standard_base@_WV?$string_output_adapter@_W@__crt_stdio_output@@@2@@__crt_stdio_output@@AAE_NXZ 10055e50 f i libucrtd:output.obj
 0001:00055220       ?state_case_type@?$output_processor@DV?$stream_output_adapter@D@__crt_stdio_output@@V?$format_validation_base@DV?$stream_output_adapter@D@__crt_stdio_output@@@2@@__crt_stdio_output@@AAE_NXZ 10056220 f i libucrtd:output.obj
 0001:000555d0       ?state_case_type@?$output_processor@DV?$stream_output_adapter@D@__crt_stdio_output@@V?$positional_parameter_base@DV?$stream_output_adapter@D@__crt_stdio_output@@@2@@__crt_stdio_output@@AAE_NXZ 100565d0 f i libucrtd:output.obj
 0001:00055980       ?state_case_type@?$output_processor@DV?$stream_output_adapter@D@__crt_stdio_output@@V?$standard_base@DV?$stream_output_adapter@D@__crt_stdio_output@@@2@@__crt_stdio_output@@AAE_NXZ 10056980 f i libucrtd:output.obj
 0001:00055d30       ?state_case_type@?$output_processor@DV?$string_output_adapter@D@__crt_stdio_output@@V?$format_validation_base@DV?$string_output_adapter@D@__crt_stdio_output@@@2@@__crt_stdio_output@@AAE_NXZ 10056d30 f i libucrtd:output.obj
 0001:000560e0       ?state_case_type@?$output_processor@DV?$string_output_adapter@D@__crt_stdio_output@@V?$positional_parameter_base@DV?$string_output_adapter@D@__crt_stdio_output@@@2@@__crt_stdio_output@@AAE_NXZ 100570e0 f i libucrtd:output.obj
 0001:00056490       ?state_case_type@?$output_processor@DV?$string_output_adapter@D@__crt_stdio_output@@V?$standard_base@DV?$string_output_adapter@D@__crt_stdio_output@@@2@@__crt_stdio_output@@AAE_NXZ 10057490 f i libucrtd:output.obj
 0001:00056840       ?state_case_type@?$output_processor@_WV?$stream_output_adapter@_W@__crt_stdio_output@@V?$format_validation_base@_WV?$stream_output_adapter@_W@__crt_stdio_output@@@2@@__crt_stdio_output@@AAE_NXZ 10057840 f i libucrtd:output.obj
 0001:00056c20       ?state_case_type@?$output_processor@_WV?$stream_output_adapter@_W@__crt_stdio_output@@V?$positional_parameter_base@_WV?$stream_output_adapter@_W@__crt_stdio_output@@@2@@__crt_stdio_output@@AAE_NXZ 10057c20 f i libucrtd:output.obj
 0001:00057000       ?state_case_type@?$output_processor@_WV?$stream_output_adapter@_W@__crt_stdio_output@@V?$standard_base@_WV?$stream_output_adapter@_W@__crt_stdio_output@@@2@@__crt_stdio_output@@AAE_NXZ 10058000 f i libucrtd:output.obj
 0001:000573e0       ?state_case_type@?$output_processor@_WV?$string_output_adapter@_W@__crt_stdio_output@@V?$format_validation_base@_WV?$string_output_adapter@_W@__crt_stdio_output@@@2@@__crt_stdio_output@@AAE_NXZ 100583e0 f i libucrtd:output.obj
 0001:000577c0       ?state_case_type@?$output_processor@_WV?$string_output_adapter@_W@__crt_stdio_output@@V?$positional_parameter_base@_WV?$string_output_adapter@_W@__crt_stdio_output@@@2@@__crt_stdio_output@@AAE_NXZ 100587c0 f i libucrtd:output.obj
 0001:00057ba0       ?state_case_type@?$output_processor@_WV?$string_output_adapter@_W@__crt_stdio_output@@V?$standard_base@_WV?$string_output_adapter@_W@__crt_stdio_output@@@2@@__crt_stdio_output@@AAE_NXZ 10058ba0 f i libucrtd:output.obj
 0001:00057f80       ?state_case_width@?$output_processor@DV?$stream_output_adapter@D@__crt_stdio_output@@V?$format_validation_base@DV?$stream_output_adapter@D@__crt_stdio_output@@@2@@__crt_stdio_output@@AAE_NXZ 10058f80 f i libucrtd:output.obj
 0001:00058000       ?state_case_width@?$output_processor@DV?$stream_output_adapter@D@__crt_stdio_output@@V?$positional_parameter_base@DV?$stream_output_adapter@D@__crt_stdio_output@@@2@@__crt_stdio_output@@AAE_NXZ 10059000 f i libucrtd:output.obj
 0001:00058080       ?state_case_width@?$output_processor@DV?$stream_output_adapter@D@__crt_stdio_output@@V?$standard_base@DV?$stream_output_adapter@D@__crt_stdio_output@@@2@@__crt_stdio_output@@AAE_NXZ 10059080 f i libucrtd:output.obj
 0001:00058100       ?state_case_width@?$output_processor@DV?$string_output_adapter@D@__crt_stdio_output@@V?$format_validation_base@DV?$string_output_adapter@D@__crt_stdio_output@@@2@@__crt_stdio_output@@AAE_NXZ 10059100 f i libucrtd:output.obj
 0001:00058180       ?state_case_width@?$output_processor@DV?$string_output_adapter@D@__crt_stdio_output@@V?$positional_parameter_base@DV?$string_output_adapter@D@__crt_stdio_output@@@2@@__crt_stdio_output@@AAE_NXZ 10059180 f i libucrtd:output.obj
 0001:00058200       ?state_case_width@?$output_processor@DV?$string_output_adapter@D@__crt_stdio_output@@V?$standard_base@DV?$string_output_adapter@D@__crt_stdio_output@@@2@@__crt_stdio_output@@AAE_NXZ 10059200 f i libucrtd:output.obj
 0001:00058280       ?state_case_width@?$output_processor@_WV?$stream_output_adapter@_W@__crt_stdio_output@@V?$format_validation_base@_WV?$stream_output_adapter@_W@__crt_stdio_output@@@2@@__crt_stdio_output@@AAE_NXZ 10059280 f i libucrtd:output.obj
 0001:00058300       ?state_case_width@?$output_processor@_WV?$stream_output_adapter@_W@__crt_stdio_output@@V?$positional_parameter_base@_WV?$stream_output_adapter@_W@__crt_stdio_output@@@2@@__crt_stdio_output@@AAE_NXZ 10059300 f i libucrtd:output.obj
 0001:00058380       ?state_case_width@?$output_processor@_WV?$stream_output_adapter@_W@__crt_stdio_output@@V?$standard_base@_WV?$stream_output_adapter@_W@__crt_stdio_output@@@2@@__crt_stdio_output@@AAE_NXZ 10059380 f i libucrtd:output.obj
 0001:00058400       ?state_case_width@?$output_processor@_WV?$string_output_adapter@_W@__crt_stdio_output@@V?$format_validation_base@_WV?$string_output_adapter@_W@__crt_stdio_output@@@2@@__crt_stdio_output@@AAE_NXZ 10059400 f i libucrtd:output.obj
 0001:00058480       ?state_case_width@?$output_processor@_WV?$string_output_adapter@_W@__crt_stdio_output@@V?$positional_parameter_base@_WV?$string_output_adapter@_W@__crt_stdio_output@@@2@@__crt_stdio_output@@AAE_NXZ 10059480 f i libucrtd:output.obj
 0001:00058500       ?state_case_width@?$output_processor@_WV?$string_output_adapter@_W@__crt_stdio_output@@V?$standard_base@_WV?$string_output_adapter@_W@__crt_stdio_output@@@2@@__crt_stdio_output@@AAE_NXZ 10059500 f i libucrtd:output.obj
 0001:00058580       ?state_count@?$format_validation_base@DV?$stream_output_adapter@D@__crt_stdio_output@@@__crt_stdio_output@@KAIXZ 10059580 f i libucrtd:output.obj
 0001:00058590       ?state_count@?$format_validation_base@DV?$string_output_adapter@D@__crt_stdio_output@@@__crt_stdio_output@@KAIXZ 10059590 f i libucrtd:output.obj
 0001:000585a0       ?state_count@?$format_validation_base@_WV?$stream_output_adapter@_W@__crt_stdio_output@@@__crt_stdio_output@@KAIXZ 100595a0 f i libucrtd:output.obj
 0001:000585b0       ?state_count@?$format_validation_base@_WV?$string_output_adapter@_W@__crt_stdio_output@@@__crt_stdio_output@@KAIXZ 100595b0 f i libucrtd:output.obj
 0001:000585c0       ?state_count@?$standard_base@DV?$stream_output_adapter@D@__crt_stdio_output@@@__crt_stdio_output@@KAIXZ 100595c0 f i libucrtd:output.obj
 0001:000585d0       ?state_count@?$standard_base@DV?$string_output_adapter@D@__crt_stdio_output@@@__crt_stdio_output@@KAIXZ 100595d0 f i libucrtd:output.obj
 0001:000585e0       ?state_count@?$standard_base@_WV?$stream_output_adapter@_W@__crt_stdio_output@@@__crt_stdio_output@@KAIXZ 100595e0 f i libucrtd:output.obj
 0001:000585f0       ?state_count@?$standard_base@_WV?$string_output_adapter@_W@__crt_stdio_output@@@__crt_stdio_output@@KAIXZ 100595f0 f i libucrtd:output.obj
 0001:00058600       ?state_transition_table@?$format_validation_base@DV?$stream_output_adapter@D@__crt_stdio_output@@@__crt_stdio_output@@KAABV?$spectre_mitigated_lookup_table@Ustate_transition_pair@__crt_stdio_output@@$0IA@@2@XZ 10059600 f i libucrtd:output.obj
 0001:00058610       ?state_transition_table@?$format_validation_base@DV?$string_output_adapter@D@__crt_stdio_output@@@__crt_stdio_output@@KAABV?$spectre_mitigated_lookup_table@Ustate_transition_pair@__crt_stdio_output@@$0IA@@2@XZ 10059610 f i libucrtd:output.obj
 0001:00058620       ?state_transition_table@?$format_validation_base@_WV?$stream_output_adapter@_W@__crt_stdio_output@@@__crt_stdio_output@@KAABV?$spectre_mitigated_lookup_table@Ustate_transition_pair@__crt_stdio_output@@$0IA@@2@XZ 10059620 f i libucrtd:output.obj
 0001:00058630       ?state_transition_table@?$format_validation_base@_WV?$string_output_adapter@_W@__crt_stdio_output@@@__crt_stdio_output@@KAABV?$spectre_mitigated_lookup_table@Ustate_transition_pair@__crt_stdio_output@@$0IA@@2@XZ 10059630 f i libucrtd:output.obj
 0001:00058640       ?state_transition_table@?$standard_base@DV?$stream_output_adapter@D@__crt_stdio_output@@@__crt_stdio_output@@KAABV?$spectre_mitigated_lookup_table@Ustate_transition_pair@__crt_stdio_output@@$0IA@@2@XZ 10059640 f i libucrtd:output.obj
 0001:00058650       ?state_transition_table@?$standard_base@DV?$string_output_adapter@D@__crt_stdio_output@@@__crt_stdio_output@@KAABV?$spectre_mitigated_lookup_table@Ustate_transition_pair@__crt_stdio_output@@$0IA@@2@XZ 10059650 f i libucrtd:output.obj
 0001:00058660       ?state_transition_table@?$standard_base@_WV?$stream_output_adapter@_W@__crt_stdio_output@@@__crt_stdio_output@@KAABV?$spectre_mitigated_lookup_table@Ustate_transition_pair@__crt_stdio_output@@$0IA@@2@XZ 10059660 f i libucrtd:output.obj
 0001:00058670       ?state_transition_table@?$standard_base@_WV?$string_output_adapter@_W@__crt_stdio_output@@@__crt_stdio_output@@KAABV?$spectre_mitigated_lookup_table@Ustate_transition_pair@__crt_stdio_output@@$0IA@@2@XZ 10059670 f i libucrtd:output.obj
 0001:00058680       ?tchar_string@?$common_data@D@__crt_stdio_output@@IAEAAPADD@Z 10059680 f i libucrtd:output.obj
 0001:000586a0       ?tchar_string@?$common_data@D@__crt_stdio_output@@IAEAAPADXZ 100596a0 f i libucrtd:output.obj
 0001:000586c0       ?tchar_string@?$common_data@_W@__crt_stdio_output@@IAEAAPA_WXZ 100596c0 f i libucrtd:output.obj
 0001:000586e0       ?tchar_string@?$common_data@_W@__crt_stdio_output@@IAEAAPA_W_W@Z 100596e0 f i libucrtd:output.obj
 0001:00058700       ?to_integer_size@__crt_stdio_output@@YAIW4length_modifier@1@@Z 10059700 f i libucrtd:output.obj
 0001:000587a0       ?type_case_X@?$output_processor@DV?$stream_output_adapter@D@__crt_stdio_output@@V?$format_validation_base@DV?$stream_output_adapter@D@__crt_stdio_output@@@2@@__crt_stdio_output@@AAE_NXZ 100597a0 f i libucrtd:output.obj
 0001:000587c0       ?type_case_X@?$output_processor@DV?$stream_output_adapter@D@__crt_stdio_output@@V?$positional_parameter_base@DV?$stream_output_adapter@D@__crt_stdio_output@@@2@@__crt_stdio_output@@AAE_NXZ 100597c0 f i libucrtd:output.obj
 0001:000587e0       ?type_case_X@?$output_processor@DV?$stream_output_adapter@D@__crt_stdio_output@@V?$standard_base@DV?$stream_output_adapter@D@__crt_stdio_output@@@2@@__crt_stdio_output@@AAE_NXZ 100597e0 f i libucrtd:output.obj
 0001:00058800       ?type_case_X@?$output_processor@DV?$string_output_adapter@D@__crt_stdio_output@@V?$format_validation_base@DV?$string_output_adapter@D@__crt_stdio_output@@@2@@__crt_stdio_output@@AAE_NXZ 10059800 f i libucrtd:output.obj
 0001:00058820       ?type_case_X@?$output_processor@DV?$string_output_adapter@D@__crt_stdio_output@@V?$positional_parameter_base@DV?$string_output_adapter@D@__crt_stdio_output@@@2@@__crt_stdio_output@@AAE_NXZ 10059820 f i libucrtd:output.obj
 0001:00058840       ?type_case_X@?$output_processor@DV?$string_output_adapter@D@__crt_stdio_output@@V?$standard_base@DV?$string_output_adapter@D@__crt_stdio_output@@@2@@__crt_stdio_output@@AAE_NXZ 10059840 f i libucrtd:output.obj
 0001:00058860       ?type_case_X@?$output_processor@_WV?$stream_output_adapter@_W@__crt_stdio_output@@V?$format_validation_base@_WV?$stream_output_adapter@_W@__crt_stdio_output@@@2@@__crt_stdio_output@@AAE_NXZ 10059860 f i libucrtd:output.obj
 0001:00058880       ?type_case_X@?$output_processor@_WV?$stream_output_adapter@_W@__crt_stdio_output@@V?$positional_parameter_base@_WV?$stream_output_adapter@_W@__crt_stdio_output@@@2@@__crt_stdio_output@@AAE_NXZ 10059880 f i libucrtd:output.obj
 0001:000588a0       ?type_case_X@?$output_processor@_WV?$stream_output_adapter@_W@__crt_stdio_output@@V?$standard_base@_WV?$stream_output_adapter@_W@__crt_stdio_output@@@2@@__crt_stdio_output@@AAE_NXZ 100598a0 f i libucrtd:output.obj
 0001:000588c0       ?type_case_X@?$output_processor@_WV?$string_output_adapter@_W@__crt_stdio_output@@V?$format_validation_base@_WV?$string_output_adapter@_W@__crt_stdio_output@@@2@@__crt_stdio_output@@AAE_NXZ 100598c0 f i libucrtd:output.obj
 0001:000588e0       ?type_case_X@?$output_processor@_WV?$string_output_adapter@_W@__crt_stdio_output@@V?$positional_parameter_base@_WV?$string_output_adapter@_W@__crt_stdio_output@@@2@@__crt_stdio_output@@AAE_NXZ 100598e0 f i libucrtd:output.obj
 0001:00058900       ?type_case_X@?$output_processor@_WV?$string_output_adapter@_W@__crt_stdio_output@@V?$standard_base@_WV?$string_output_adapter@_W@__crt_stdio_output@@@2@@__crt_stdio_output@@AAE_NXZ 10059900 f i libucrtd:output.obj
 0001:00058920       ?type_case_Z@?$output_processor@DV?$stream_output_adapter@D@__crt_stdio_output@@V?$format_validation_base@DV?$stream_output_adapter@D@__crt_stdio_output@@@2@@__crt_stdio_output@@AAE_NXZ 10059920 f i libucrtd:output.obj
 0001:00058a10       ?type_case_Z@?$output_processor@DV?$stream_output_adapter@D@__crt_stdio_output@@V?$positional_parameter_base@DV?$stream_output_adapter@D@__crt_stdio_output@@@2@@__crt_stdio_output@@AAE_NXZ 10059a10 f i libucrtd:output.obj
 0001:00058b00       ?type_case_Z@?$output_processor@DV?$stream_output_adapter@D@__crt_stdio_output@@V?$standard_base@DV?$stream_output_adapter@D@__crt_stdio_output@@@2@@__crt_stdio_output@@AAE_NXZ 10059b00 f i libucrtd:output.obj
 0001:00058bf0       ?type_case_Z@?$output_processor@DV?$string_output_adapter@D@__crt_stdio_output@@V?$format_validation_base@DV?$string_output_adapter@D@__crt_stdio_output@@@2@@__crt_stdio_output@@AAE_NXZ 10059bf0 f i libucrtd:output.obj
 0001:00058ce0       ?type_case_Z@?$output_processor@DV?$string_output_adapter@D@__crt_stdio_output@@V?$positional_parameter_base@DV?$string_output_adapter@D@__crt_stdio_output@@@2@@__crt_stdio_output@@AAE_NXZ 10059ce0 f i libucrtd:output.obj
 0001:00058dd0       ?type_case_Z@?$output_processor@DV?$string_output_adapter@D@__crt_stdio_output@@V?$standard_base@DV?$string_output_adapter@D@__crt_stdio_output@@@2@@__crt_stdio_output@@AAE_NXZ 10059dd0 f i libucrtd:output.obj
 0001:00058ec0       ?type_case_Z@?$output_processor@_WV?$stream_output_adapter@_W@__crt_stdio_output@@V?$format_validation_base@_WV?$stream_output_adapter@_W@__crt_stdio_output@@@2@@__crt_stdio_output@@AAE_NXZ 10059ec0 f i libucrtd:output.obj
 0001:00058fb0       ?type_case_Z@?$output_processor@_WV?$stream_output_adapter@_W@__crt_stdio_output@@V?$positional_parameter_base@_WV?$stream_output_adapter@_W@__crt_stdio_output@@@2@@__crt_stdio_output@@AAE_NXZ 10059fb0 f i libucrtd:output.obj
 0001:000590a0       ?type_case_Z@?$output_processor@_WV?$stream_output_adapter@_W@__crt_stdio_output@@V?$standard_base@_WV?$stream_output_adapter@_W@__crt_stdio_output@@@2@@__crt_stdio_output@@AAE_NXZ 1005a0a0 f i libucrtd:output.obj
 0001:00059190       ?type_case_Z@?$output_processor@_WV?$string_output_adapter@_W@__crt_stdio_output@@V?$format_validation_base@_WV?$string_output_adapter@_W@__crt_stdio_output@@@2@@__crt_stdio_output@@AAE_NXZ 1005a190 f i libucrtd:output.obj
 0001:00059280       ?type_case_Z@?$output_processor@_WV?$string_output_adapter@_W@__crt_stdio_output@@V?$positional_parameter_base@_WV?$string_output_adapter@_W@__crt_stdio_output@@@2@@__crt_stdio_output@@AAE_NXZ 1005a280 f i libucrtd:output.obj
 0001:00059370       ?type_case_Z@?$output_processor@_WV?$string_output_adapter@_W@__crt_stdio_output@@V?$standard_base@_WV?$string_output_adapter@_W@__crt_stdio_output@@@2@@__crt_stdio_output@@AAE_NXZ 1005a370 f i libucrtd:output.obj
 0001:00059460       ?type_case_a@?$output_processor@DV?$stream_output_adapter@D@__crt_stdio_output@@V?$format_validation_base@DV?$stream_output_adapter@D@__crt_stdio_output@@@2@@__crt_stdio_output@@AAE_NXZ 1005a460 f i libucrtd:output.obj
 0001:000596d0       ?type_case_a@?$output_processor@DV?$stream_output_adapter@D@__crt_stdio_output@@V?$positional_parameter_base@DV?$stream_output_adapter@D@__crt_stdio_output@@@2@@__crt_stdio_output@@AAE_NXZ 1005a6d0 f i libucrtd:output.obj
 0001:00059940       ?type_case_a@?$output_processor@DV?$stream_output_adapter@D@__crt_stdio_output@@V?$standard_base@DV?$stream_output_adapter@D@__crt_stdio_output@@@2@@__crt_stdio_output@@AAE_NXZ 1005a940 f i libucrtd:output.obj
 0001:00059bb0       ?type_case_a@?$output_processor@DV?$string_output_adapter@D@__crt_stdio_output@@V?$format_validation_base@DV?$string_output_adapter@D@__crt_stdio_output@@@2@@__crt_stdio_output@@AAE_NXZ 1005abb0 f i libucrtd:output.obj
 0001:00059e20       ?type_case_a@?$output_processor@DV?$string_output_adapter@D@__crt_stdio_output@@V?$positional_parameter_base@DV?$string_output_adapter@D@__crt_stdio_output@@@2@@__crt_stdio_output@@AAE_NXZ 1005ae20 f i libucrtd:output.obj
 0001:0005a090       ?type_case_a@?$output_processor@DV?$string_output_adapter@D@__crt_stdio_output@@V?$standard_base@DV?$string_output_adapter@D@__crt_stdio_output@@@2@@__crt_stdio_output@@AAE_NXZ 1005b090 f i libucrtd:output.obj
 0001:0005a300       ?type_case_a@?$output_processor@_WV?$stream_output_adapter@_W@__crt_stdio_output@@V?$format_validation_base@_WV?$stream_output_adapter@_W@__crt_stdio_output@@@2@@__crt_stdio_output@@AAE_NXZ 1005b300 f i libucrtd:output.obj
 0001:0005a570       ?type_case_a@?$output_processor@_WV?$stream_output_adapter@_W@__crt_stdio_output@@V?$positional_parameter_base@_WV?$stream_output_adapter@_W@__crt_stdio_output@@@2@@__crt_stdio_output@@AAE_NXZ 1005b570 f i libucrtd:output.obj
 0001:0005a7e0       ?type_case_a@?$output_processor@_WV?$stream_output_adapter@_W@__crt_stdio_output@@V?$standard_base@_WV?$stream_output_adapter@_W@__crt_stdio_output@@@2@@__crt_stdio_output@@AAE_NXZ 1005b7e0 f i libucrtd:output.obj
 0001:0005aa50       ?type_case_a@?$output_processor@_WV?$string_output_adapter@_W@__crt_stdio_output@@V?$format_validation_base@_WV?$string_output_adapter@_W@__crt_stdio_output@@@2@@__crt_stdio_output@@AAE_NXZ 1005ba50 f i libucrtd:output.obj
 0001:0005acc0       ?type_case_a@?$output_processor@_WV?$string_output_adapter@_W@__crt_stdio_output@@V?$positional_parameter_base@_WV?$string_output_adapter@_W@__crt_stdio_output@@@2@@__crt_stdio_output@@AAE_NXZ 1005bcc0 f i libucrtd:output.obj
 0001:0005af30       ?type_case_a@?$output_processor@_WV?$string_output_adapter@_W@__crt_stdio_output@@V?$standard_base@_WV?$string_output_adapter@_W@__crt_stdio_output@@@2@@__crt_stdio_output@@AAE_NXZ 1005bf30 f i libucrtd:output.obj
 0001:0005b1a0       ?type_case_c@?$output_processor@DV?$stream_output_adapter@D@__crt_stdio_output@@V?$format_validation_base@DV?$stream_output_adapter@D@__crt_stdio_output@@@2@@__crt_stdio_output@@AAE_NXZ 1005c1a0 f i libucrtd:output.obj
 0001:0005b1c0       ?type_case_c@?$output_processor@DV?$stream_output_adapter@D@__crt_stdio_output@@V?$positional_parameter_base@DV?$stream_output_adapter@D@__crt_stdio_output@@@2@@__crt_stdio_output@@AAE_NXZ 1005c1c0 f i libucrtd:output.obj
 0001:0005b1e0       ?type_case_c@?$output_processor@DV?$stream_output_adapter@D@__crt_stdio_output@@V?$standard_base@DV?$stream_output_adapter@D@__crt_stdio_output@@@2@@__crt_stdio_output@@AAE_NXZ 1005c1e0 f i libucrtd:output.obj
 0001:0005b200       ?type_case_c@?$output_processor@DV?$string_output_adapter@D@__crt_stdio_output@@V?$format_validation_base@DV?$string_output_adapter@D@__crt_stdio_output@@@2@@__crt_stdio_output@@AAE_NXZ 1005c200 f i libucrtd:output.obj
 0001:0005b220       ?type_case_c@?$output_processor@DV?$string_output_adapter@D@__crt_stdio_output@@V?$positional_parameter_base@DV?$string_output_adapter@D@__crt_stdio_output@@@2@@__crt_stdio_output@@AAE_NXZ 1005c220 f i libucrtd:output.obj
 0001:0005b240       ?type_case_c@?$output_processor@DV?$string_output_adapter@D@__crt_stdio_output@@V?$standard_base@DV?$string_output_adapter@D@__crt_stdio_output@@@2@@__crt_stdio_output@@AAE_NXZ 1005c240 f i libucrtd:output.obj
 0001:0005b260       ?type_case_c@?$output_processor@_WV?$stream_output_adapter@_W@__crt_stdio_output@@V?$format_validation_base@_WV?$stream_output_adapter@_W@__crt_stdio_output@@@2@@__crt_stdio_output@@AAE_NXZ 1005c260 f i libucrtd:output.obj
 0001:0005b280       ?type_case_c@?$output_processor@_WV?$stream_output_adapter@_W@__crt_stdio_output@@V?$positional_parameter_base@_WV?$stream_output_adapter@_W@__crt_stdio_output@@@2@@__crt_stdio_output@@AAE_NXZ 1005c280 f i libucrtd:output.obj
 0001:0005b2a0       ?type_case_c@?$output_processor@_WV?$stream_output_adapter@_W@__crt_stdio_output@@V?$standard_base@_WV?$stream_output_adapter@_W@__crt_stdio_output@@@2@@__crt_stdio_output@@AAE_NXZ 1005c2a0 f i libucrtd:output.obj
 0001:0005b2c0       ?type_case_c@?$output_processor@_WV?$string_output_adapter@_W@__crt_stdio_output@@V?$format_validation_base@_WV?$string_output_adapter@_W@__crt_stdio_output@@@2@@__crt_stdio_output@@AAE_NXZ 1005c2c0 f i libucrtd:output.obj
 0001:0005b2e0       ?type_case_c@?$output_processor@_WV?$string_output_adapter@_W@__crt_stdio_output@@V?$positional_parameter_base@_WV?$string_output_adapter@_W@__crt_stdio_output@@@2@@__crt_stdio_output@@AAE_NXZ 1005c2e0 f i libucrtd:output.obj
 0001:0005b300       ?type_case_c@?$output_processor@_WV?$string_output_adapter@_W@__crt_stdio_output@@V?$standard_base@_WV?$string_output_adapter@_W@__crt_stdio_output@@@2@@__crt_stdio_output@@AAE_NXZ 1005c300 f i libucrtd:output.obj
 0001:0005b320       ?type_case_c_tchar@?$output_processor@DV?$stream_output_adapter@D@__crt_stdio_output@@V?$format_validation_base@DV?$stream_output_adapter@D@__crt_stdio_output@@@2@@__crt_stdio_output@@AAE_ND@Z 1005c320 f i libucrtd:output.obj
 0001:0005b430       ?type_case_c_tchar@?$output_processor@DV?$stream_output_adapter@D@__crt_stdio_output@@V?$positional_parameter_base@DV?$stream_output_adapter@D@__crt_stdio_output@@@2@@__crt_stdio_output@@AAE_ND@Z 1005c430 f i libucrtd:output.obj
 0001:0005b540       ?type_case_c_tchar@?$output_processor@DV?$stream_output_adapter@D@__crt_stdio_output@@V?$standard_base@DV?$stream_output_adapter@D@__crt_stdio_output@@@2@@__crt_stdio_output@@AAE_ND@Z 1005c540 f i libucrtd:output.obj
 0001:0005b650       ?type_case_c_tchar@?$output_processor@DV?$string_output_adapter@D@__crt_stdio_output@@V?$format_validation_base@DV?$string_output_adapter@D@__crt_stdio_output@@@2@@__crt_stdio_output@@AAE_ND@Z 1005c650 f i libucrtd:output.obj
 0001:0005b760       ?type_case_c_tchar@?$output_processor@DV?$string_output_adapter@D@__crt_stdio_output@@V?$positional_parameter_base@DV?$string_output_adapter@D@__crt_stdio_output@@@2@@__crt_stdio_output@@AAE_ND@Z 1005c760 f i libucrtd:output.obj
 0001:0005b870       ?type_case_c_tchar@?$output_processor@DV?$string_output_adapter@D@__crt_stdio_output@@V?$standard_base@DV?$string_output_adapter@D@__crt_stdio_output@@@2@@__crt_stdio_output@@AAE_ND@Z 1005c870 f i libucrtd:output.obj
 0001:0005b980       ?type_case_c_tchar@?$output_processor@_WV?$stream_output_adapter@_W@__crt_stdio_output@@V?$format_validation_base@_WV?$stream_output_adapter@_W@__crt_stdio_output@@@2@@__crt_stdio_output@@AAE_N_W@Z 1005c980 f i libucrtd:output.obj
 0001:0005ba80       ?type_case_c_tchar@?$output_processor@_WV?$stream_output_adapter@_W@__crt_stdio_output@@V?$positional_parameter_base@_WV?$stream_output_adapter@_W@__crt_stdio_output@@@2@@__crt_stdio_output@@AAE_N_W@Z 1005ca80 f i libucrtd:output.obj
 0001:0005bb80       ?type_case_c_tchar@?$output_processor@_WV?$stream_output_adapter@_W@__crt_stdio_output@@V?$standard_base@_WV?$stream_output_adapter@_W@__crt_stdio_output@@@2@@__crt_stdio_output@@AAE_N_W@Z 1005cb80 f i libucrtd:output.obj
 0001:0005bc80       ?type_case_c_tchar@?$output_processor@_WV?$string_output_adapter@_W@__crt_stdio_output@@V?$format_validation_base@_WV?$string_output_adapter@_W@__crt_stdio_output@@@2@@__crt_stdio_output@@AAE_N_W@Z 1005cc80 f i libucrtd:output.obj
 0001:0005bd80       ?type_case_c_tchar@?$output_processor@_WV?$string_output_adapter@_W@__crt_stdio_output@@V?$positional_parameter_base@_WV?$string_output_adapter@_W@__crt_stdio_output@@@2@@__crt_stdio_output@@AAE_N_W@Z 1005cd80 f i libucrtd:output.obj
 0001:0005be80       ?type_case_c_tchar@?$output_processor@_WV?$string_output_adapter@_W@__crt_stdio_output@@V?$standard_base@_WV?$string_output_adapter@_W@__crt_stdio_output@@@2@@__crt_stdio_output@@AAE_N_W@Z 1005ce80 f i libucrtd:output.obj
 0001:0005bf80       ?type_case_d@?$output_processor@DV?$stream_output_adapter@D@__crt_stdio_output@@V?$format_validation_base@DV?$stream_output_adapter@D@__crt_stdio_output@@@2@@__crt_stdio_output@@AAE_NXZ 1005cf80 f i libucrtd:output.obj
 0001:0005bfb0       ?type_case_d@?$output_processor@DV?$stream_output_adapter@D@__crt_stdio_output@@V?$positional_parameter_base@DV?$stream_output_adapter@D@__crt_stdio_output@@@2@@__crt_stdio_output@@AAE_NXZ 1005cfb0 f i libucrtd:output.obj
 0001:0005bfe0       ?type_case_d@?$output_processor@DV?$stream_output_adapter@D@__crt_stdio_output@@V?$standard_base@DV?$stream_output_adapter@D@__crt_stdio_output@@@2@@__crt_stdio_output@@AAE_NXZ 1005cfe0 f i libucrtd:output.obj
 0001:0005c010       ?type_case_d@?$output_processor@DV?$string_output_adapter@D@__crt_stdio_output@@V?$format_validation_base@DV?$string_output_adapter@D@__crt_stdio_output@@@2@@__crt_stdio_output@@AAE_NXZ 1005d010 f i libucrtd:output.obj
 0001:0005c040       ?type_case_d@?$output_processor@DV?$string_output_adapter@D@__crt_stdio_output@@V?$positional_parameter_base@DV?$string_output_adapter@D@__crt_stdio_output@@@2@@__crt_stdio_output@@AAE_NXZ 1005d040 f i libucrtd:output.obj
 0001:0005c070       ?type_case_d@?$output_processor@DV?$string_output_adapter@D@__crt_stdio_output@@V?$standard_base@DV?$string_output_adapter@D@__crt_stdio_output@@@2@@__crt_stdio_output@@AAE_NXZ 1005d070 f i libucrtd:output.obj
 0001:0005c0a0       ?type_case_d@?$output_processor@_WV?$stream_output_adapter@_W@__crt_stdio_output@@V?$format_validation_base@_WV?$stream_output_adapter@_W@__crt_stdio_output@@@2@@__crt_stdio_output@@AAE_NXZ 1005d0a0 f i libucrtd:output.obj
 0001:0005c0d0       ?type_case_d@?$output_processor@_WV?$stream_output_adapter@_W@__crt_stdio_output@@V?$positional_parameter_base@_WV?$stream_output_adapter@_W@__crt_stdio_output@@@2@@__crt_stdio_output@@AAE_NXZ 1005d0d0 f i libucrtd:output.obj
 0001:0005c100       ?type_case_d@?$output_processor@_WV?$stream_output_adapter@_W@__crt_stdio_output@@V?$standard_base@_WV?$stream_output_adapter@_W@__crt_stdio_output@@@2@@__crt_stdio_output@@AAE_NXZ 1005d100 f i libucrtd:output.obj
 0001:0005c130       ?type_case_d@?$output_processor@_WV?$string_output_adapter@_W@__crt_stdio_output@@V?$format_validation_base@_WV?$string_output_adapter@_W@__crt_stdio_output@@@2@@__crt_stdio_output@@AAE_NXZ 1005d130 f i libucrtd:output.obj
 0001:0005c160       ?type_case_d@?$output_processor@_WV?$string_output_adapter@_W@__crt_stdio_output@@V?$positional_parameter_base@_WV?$string_output_adapter@_W@__crt_stdio_output@@@2@@__crt_stdio_output@@AAE_NXZ 1005d160 f i libucrtd:output.obj
 0001:0005c190       ?type_case_d@?$output_processor@_WV?$string_output_adapter@_W@__crt_stdio_output@@V?$standard_base@_WV?$string_output_adapter@_W@__crt_stdio_output@@@2@@__crt_stdio_output@@AAE_NXZ 1005d190 f i libucrtd:output.obj
 0001:0005c1c0       ?type_case_integer@?$output_processor@DV?$stream_output_adapter@D@__crt_stdio_output@@V?$format_validation_base@DV?$stream_output_adapter@D@__crt_stdio_output@@@2@@__crt_stdio_output@@AAE_NI_N@Z 1005d1c0 f i libucrtd:output.obj
 0001:0005c510       ?type_case_integer@?$output_processor@DV?$stream_output_adapter@D@__crt_stdio_output@@V?$positional_parameter_base@DV?$stream_output_adapter@D@__crt_stdio_output@@@2@@__crt_stdio_output@@AAE_NI_N@Z 1005d510 f i libucrtd:output.obj
 0001:0005c860       ?type_case_integer@?$output_processor@DV?$stream_output_adapter@D@__crt_stdio_output@@V?$standard_base@DV?$stream_output_adapter@D@__crt_stdio_output@@@2@@__crt_stdio_output@@AAE_NI_N@Z 1005d860 f i libucrtd:output.obj
 0001:0005cbb0       ?type_case_integer@?$output_processor@DV?$string_output_adapter@D@__crt_stdio_output@@V?$format_validation_base@DV?$string_output_adapter@D@__crt_stdio_output@@@2@@__crt_stdio_output@@AAE_NI_N@Z 1005dbb0 f i libucrtd:output.obj
 0001:0005cf00       ?type_case_integer@?$output_processor@DV?$string_output_adapter@D@__crt_stdio_output@@V?$positional_parameter_base@DV?$string_output_adapter@D@__crt_stdio_output@@@2@@__crt_stdio_output@@AAE_NI_N@Z 1005df00 f i libucrtd:output.obj
 0001:0005d250       ?type_case_integer@?$output_processor@DV?$string_output_adapter@D@__crt_stdio_output@@V?$standard_base@DV?$string_output_adapter@D@__crt_stdio_output@@@2@@__crt_stdio_output@@AAE_NI_N@Z 1005e250 f i libucrtd:output.obj
 0001:0005d5a0       ?type_case_integer@?$output_processor@_WV?$stream_output_adapter@_W@__crt_stdio_output@@V?$format_validation_base@_WV?$stream_output_adapter@_W@__crt_stdio_output@@@2@@__crt_stdio_output@@AAE_NI_N@Z 1005e5a0 f i libucrtd:output.obj
 0001:0005d8f0       ?type_case_integer@?$output_processor@_WV?$stream_output_adapter@_W@__crt_stdio_output@@V?$positional_parameter_base@_WV?$stream_output_adapter@_W@__crt_stdio_output@@@2@@__crt_stdio_output@@AAE_NI_N@Z 1005e8f0 f i libucrtd:output.obj
 0001:0005dc40       ?type_case_integer@?$output_processor@_WV?$stream_output_adapter@_W@__crt_stdio_output@@V?$standard_base@_WV?$stream_output_adapter@_W@__crt_stdio_output@@@2@@__crt_stdio_output@@AAE_NI_N@Z 1005ec40 f i libucrtd:output.obj
 0001:0005df90       ?type_case_integer@?$output_processor@_WV?$string_output_adapter@_W@__crt_stdio_output@@V?$format_validation_base@_WV?$string_output_adapter@_W@__crt_stdio_output@@@2@@__crt_stdio_output@@AAE_NI_N@Z 1005ef90 f i libucrtd:output.obj
 0001:0005e2e0       ?type_case_integer@?$output_processor@_WV?$string_output_adapter@_W@__crt_stdio_output@@V?$positional_parameter_base@_WV?$string_output_adapter@_W@__crt_stdio_output@@@2@@__crt_stdio_output@@AAE_NI_N@Z 1005f2e0 f i libucrtd:output.obj
 0001:0005e630       ?type_case_integer@?$output_processor@_WV?$string_output_adapter@_W@__crt_stdio_output@@V?$standard_base@_WV?$string_output_adapter@_W@__crt_stdio_output@@@2@@__crt_stdio_output@@AAE_NI_N@Z 1005f630 f i libucrtd:output.obj
 0001:0005e980       ?type_case_n@?$output_processor@DV?$stream_output_adapter@D@__crt_stdio_output@@V?$format_validation_base@DV?$stream_output_adapter@D@__crt_stdio_output@@@2@@__crt_stdio_output@@AAE_NXZ 1005f980 f i libucrtd:output.obj
 0001:0005eb70       ?type_case_n@?$output_processor@DV?$stream_output_adapter@D@__crt_stdio_output@@V?$positional_parameter_base@DV?$stream_output_adapter@D@__crt_stdio_output@@@2@@__crt_stdio_output@@AAE_NXZ 1005fb70 f i libucrtd:output.obj
 0001:0005ed60       ?type_case_n@?$output_processor@DV?$stream_output_adapter@D@__crt_stdio_output@@V?$standard_base@DV?$stream_output_adapter@D@__crt_stdio_output@@@2@@__crt_stdio_output@@AAE_NXZ 1005fd60 f i libucrtd:output.obj
 0001:0005ef50       ?type_case_n@?$output_processor@DV?$string_output_adapter@D@__crt_stdio_output@@V?$format_validation_base@DV?$string_output_adapter@D@__crt_stdio_output@@@2@@__crt_stdio_output@@AAE_NXZ 1005ff50 f i libucrtd:output.obj
 0001:0005f140       ?type_case_n@?$output_processor@DV?$string_output_adapter@D@__crt_stdio_output@@V?$positional_parameter_base@DV?$string_output_adapter@D@__crt_stdio_output@@@2@@__crt_stdio_output@@AAE_NXZ 10060140 f i libucrtd:output.obj
 0001:0005f330       ?type_case_n@?$output_processor@DV?$string_output_adapter@D@__crt_stdio_output@@V?$standard_base@DV?$string_output_adapter@D@__crt_stdio_output@@@2@@__crt_stdio_output@@AAE_NXZ 10060330 f i libucrtd:output.obj
 0001:0005f520       ?type_case_n@?$output_processor@_WV?$stream_output_adapter@_W@__crt_stdio_output@@V?$format_validation_base@_WV?$stream_output_adapter@_W@__crt_stdio_output@@@2@@__crt_stdio_output@@AAE_NXZ 10060520 f i libucrtd:output.obj
 0001:0005f710       ?type_case_n@?$output_processor@_WV?$stream_output_adapter@_W@__crt_stdio_output@@V?$positional_parameter_base@_WV?$stream_output_adapter@_W@__crt_stdio_output@@@2@@__crt_stdio_output@@AAE_NXZ 10060710 f i libucrtd:output.obj
 0001:0005f900       ?type_case_n@?$output_processor@_WV?$stream_output_adapter@_W@__crt_stdio_output@@V?$standard_base@_WV?$stream_output_adapter@_W@__crt_stdio_output@@@2@@__crt_stdio_output@@AAE_NXZ 10060900 f i libucrtd:output.obj
 0001:0005faf0       ?type_case_n@?$output_processor@_WV?$string_output_adapter@_W@__crt_stdio_output@@V?$format_validation_base@_WV?$string_output_adapter@_W@__crt_stdio_output@@@2@@__crt_stdio_output@@AAE_NXZ 10060af0 f i libucrtd:output.obj
 0001:0005fce0       ?type_case_n@?$output_processor@_WV?$string_output_adapter@_W@__crt_stdio_output@@V?$positional_parameter_base@_WV?$string_output_adapter@_W@__crt_stdio_output@@@2@@__crt_stdio_output@@AAE_NXZ 10060ce0 f i libucrtd:output.obj
 0001:0005fed0       ?type_case_n@?$output_processor@_WV?$string_output_adapter@_W@__crt_stdio_output@@V?$standard_base@_WV?$string_output_adapter@_W@__crt_stdio_output@@@2@@__crt_stdio_output@@AAE_NXZ 10060ed0 f i libucrtd:output.obj
 0001:000600c0       ?type_case_o@?$output_processor@DV?$stream_output_adapter@D@__crt_stdio_output@@V?$format_validation_base@DV?$stream_output_adapter@D@__crt_stdio_output@@@2@@__crt_stdio_output@@AAE_NXZ 100610c0 f i libucrtd:output.obj
 0001:00060100       ?type_case_o@?$output_processor@DV?$stream_output_adapter@D@__crt_stdio_output@@V?$positional_parameter_base@DV?$stream_output_adapter@D@__crt_stdio_output@@@2@@__crt_stdio_output@@AAE_NXZ 10061100 f i libucrtd:output.obj
 0001:00060140       ?type_case_o@?$output_processor@DV?$stream_output_adapter@D@__crt_stdio_output@@V?$standard_base@DV?$stream_output_adapter@D@__crt_stdio_output@@@2@@__crt_stdio_output@@AAE_NXZ 10061140 f i libucrtd:output.obj
 0001:00060180       ?type_case_o@?$output_processor@DV?$string_output_adapter@D@__crt_stdio_output@@V?$format_validation_base@DV?$string_output_adapter@D@__crt_stdio_output@@@2@@__crt_stdio_output@@AAE_NXZ 10061180 f i libucrtd:output.obj
 0001:000601c0       ?type_case_o@?$output_processor@DV?$string_output_adapter@D@__crt_stdio_output@@V?$positional_parameter_base@DV?$string_output_adapter@D@__crt_stdio_output@@@2@@__crt_stdio_output@@AAE_NXZ 100611c0 f i libucrtd:output.obj
 0001:00060200       ?type_case_o@?$output_processor@DV?$string_output_adapter@D@__crt_stdio_output@@V?$standard_base@DV?$string_output_adapter@D@__crt_stdio_output@@@2@@__crt_stdio_output@@AAE_NXZ 10061200 f i libucrtd:output.obj
 0001:00060240       ?type_case_o@?$output_processor@_WV?$stream_output_adapter@_W@__crt_stdio_output@@V?$format_validation_base@_WV?$stream_output_adapter@_W@__crt_stdio_output@@@2@@__crt_stdio_output@@AAE_NXZ 10061240 f i libucrtd:output.obj
 0001:00060280       ?type_case_o@?$output_processor@_WV?$stream_output_adapter@_W@__crt_stdio_output@@V?$positional_parameter_base@_WV?$stream_output_adapter@_W@__crt_stdio_output@@@2@@__crt_stdio_output@@AAE_NXZ 10061280 f i libucrtd:output.obj
 0001:000602c0       ?type_case_o@?$output_processor@_WV?$stream_output_adapter@_W@__crt_stdio_output@@V?$standard_base@_WV?$stream_output_adapter@_W@__crt_stdio_output@@@2@@__crt_stdio_output@@AAE_NXZ 100612c0 f i libucrtd:output.obj
 0001:00060300       ?type_case_o@?$output_processor@_WV?$string_output_adapter@_W@__crt_stdio_output@@V?$format_validation_base@_WV?$string_output_adapter@_W@__crt_stdio_output@@@2@@__crt_stdio_output@@AAE_NXZ 10061300 f i libucrtd:output.obj
 0001:00060340       ?type_case_o@?$output_processor@_WV?$string_output_adapter@_W@__crt_stdio_output@@V?$positional_parameter_base@_WV?$string_output_adapter@_W@__crt_stdio_output@@@2@@__crt_stdio_output@@AAE_NXZ 10061340 f i libucrtd:output.obj
 0001:00060380       ?type_case_o@?$output_processor@_WV?$string_output_adapter@_W@__crt_stdio_output@@V?$standard_base@_WV?$string_output_adapter@_W@__crt_stdio_output@@@2@@__crt_stdio_output@@AAE_NXZ 10061380 f i libucrtd:output.obj
 0001:000603c0       ?type_case_p@?$output_processor@DV?$stream_output_adapter@D@__crt_stdio_output@@V?$format_validation_base@DV?$stream_output_adapter@D@__crt_stdio_output@@@2@@__crt_stdio_output@@AAE_NXZ 100613c0 f i libucrtd:output.obj
 0001:000603f0       ?type_case_p@?$output_processor@DV?$stream_output_adapter@D@__crt_stdio_output@@V?$positional_parameter_base@DV?$stream_output_adapter@D@__crt_stdio_output@@@2@@__crt_stdio_output@@AAE_NXZ 100613f0 f i libucrtd:output.obj
 0001:00060420       ?type_case_p@?$output_processor@DV?$stream_output_adapter@D@__crt_stdio_output@@V?$standard_base@DV?$stream_output_adapter@D@__crt_stdio_output@@@2@@__crt_stdio_output@@AAE_NXZ 10061420 f i libucrtd:output.obj
 0001:00060450       ?type_case_p@?$output_processor@DV?$string_output_adapter@D@__crt_stdio_output@@V?$format_validation_base@DV?$string_output_adapter@D@__crt_stdio_output@@@2@@__crt_stdio_output@@AAE_NXZ 10061450 f i libucrtd:output.obj
 0001:00060480       ?type_case_p@?$output_processor@DV?$string_output_adapter@D@__crt_stdio_output@@V?$positional_parameter_base@DV?$string_output_adapter@D@__crt_stdio_output@@@2@@__crt_stdio_output@@AAE_NXZ 10061480 f i libucrtd:output.obj
 0001:000604b0       ?type_case_p@?$output_processor@DV?$string_output_adapter@D@__crt_stdio_output@@V?$standard_base@DV?$string_output_adapter@D@__crt_stdio_output@@@2@@__crt_stdio_output@@AAE_NXZ 100614b0 f i libucrtd:output.obj
 0001:000604e0       ?type_case_p@?$output_processor@_WV?$stream_output_adapter@_W@__crt_stdio_output@@V?$format_validation_base@_WV?$stream_output_adapter@_W@__crt_stdio_output@@@2@@__crt_stdio_output@@AAE_NXZ 100614e0 f i libucrtd:output.obj
 0001:00060510       ?type_case_p@?$output_processor@_WV?$stream_output_adapter@_W@__crt_stdio_output@@V?$positional_parameter_base@_WV?$stream_output_adapter@_W@__crt_stdio_output@@@2@@__crt_stdio_output@@AAE_NXZ 10061510 f i libucrtd:output.obj
 0001:00060540       ?type_case_p@?$output_processor@_WV?$stream_output_adapter@_W@__crt_stdio_output@@V?$standard_base@_WV?$stream_output_adapter@_W@__crt_stdio_output@@@2@@__crt_stdio_output@@AAE_NXZ 10061540 f i libucrtd:output.obj
 0001:00060570       ?type_case_p@?$output_processor@_WV?$string_output_adapter@_W@__crt_stdio_output@@V?$format_validation_base@_WV?$string_output_adapter@_W@__crt_stdio_output@@@2@@__crt_stdio_output@@AAE_NXZ 10061570 f i libucrtd:output.obj
 0001:000605a0       ?type_case_p@?$output_processor@_WV?$string_output_adapter@_W@__crt_stdio_output@@V?$positional_parameter_base@_WV?$string_output_adapter@_W@__crt_stdio_output@@@2@@__crt_stdio_output@@AAE_NXZ 100615a0 f i libucrtd:output.obj
 0001:000605d0       ?type_case_p@?$output_processor@_WV?$string_output_adapter@_W@__crt_stdio_output@@V?$standard_base@_WV?$string_output_adapter@_W@__crt_stdio_output@@@2@@__crt_stdio_output@@AAE_NXZ 100615d0 f i libucrtd:output.obj
 0001:00060600       ?type_case_s@?$output_processor@DV?$stream_output_adapter@D@__crt_stdio_output@@V?$format_validation_base@DV?$stream_output_adapter@D@__crt_stdio_output@@@2@@__crt_stdio_output@@AAE_NXZ 10061600 f i libucrtd:output.obj
 0001:000606f0       ?type_case_s@?$output_processor@DV?$stream_output_adapter@D@__crt_stdio_output@@V?$positional_parameter_base@DV?$stream_output_adapter@D@__crt_stdio_output@@@2@@__crt_stdio_output@@AAE_NXZ 100616f0 f i libucrtd:output.obj
 0001:000607e0       ?type_case_s@?$output_processor@DV?$stream_output_adapter@D@__crt_stdio_output@@V?$standard_base@DV?$stream_output_adapter@D@__crt_stdio_output@@@2@@__crt_stdio_output@@AAE_NXZ 100617e0 f i libucrtd:output.obj
 0001:000608d0       ?type_case_s@?$output_processor@DV?$string_output_adapter@D@__crt_stdio_output@@V?$format_validation_base@DV?$string_output_adapter@D@__crt_stdio_output@@@2@@__crt_stdio_output@@AAE_NXZ 100618d0 f i libucrtd:output.obj
 0001:000609c0       ?type_case_s@?$output_processor@DV?$string_output_adapter@D@__crt_stdio_output@@V?$positional_parameter_base@DV?$string_output_adapter@D@__crt_stdio_output@@@2@@__crt_stdio_output@@AAE_NXZ 100619c0 f i libucrtd:output.obj
 0001:00060ab0       ?type_case_s@?$output_processor@DV?$string_output_adapter@D@__crt_stdio_output@@V?$standard_base@DV?$string_output_adapter@D@__crt_stdio_output@@@2@@__crt_stdio_output@@AAE_NXZ 10061ab0 f i libucrtd:output.obj
 0001:00060ba0       ?type_case_s@?$output_processor@_WV?$stream_output_adapter@_W@__crt_stdio_output@@V?$format_validation_base@_WV?$stream_output_adapter@_W@__crt_stdio_output@@@2@@__crt_stdio_output@@AAE_NXZ 10061ba0 f i libucrtd:output.obj
 0001:00060c90       ?type_case_s@?$output_processor@_WV?$stream_output_adapter@_W@__crt_stdio_output@@V?$positional_parameter_base@_WV?$stream_output_adapter@_W@__crt_stdio_output@@@2@@__crt_stdio_output@@AAE_NXZ 10061c90 f i libucrtd:output.obj
 0001:00060d80       ?type_case_s@?$output_processor@_WV?$stream_output_adapter@_W@__crt_stdio_output@@V?$standard_base@_WV?$stream_output_adapter@_W@__crt_stdio_output@@@2@@__crt_stdio_output@@AAE_NXZ 10061d80 f i libucrtd:output.obj
 0001:00060e70       ?type_case_s@?$output_processor@_WV?$string_output_adapter@_W@__crt_stdio_output@@V?$format_validation_base@_WV?$string_output_adapter@_W@__crt_stdio_output@@@2@@__crt_stdio_output@@AAE_NXZ 10061e70 f i libucrtd:output.obj
 0001:00060f60       ?type_case_s@?$output_processor@_WV?$string_output_adapter@_W@__crt_stdio_output@@V?$positional_parameter_base@_WV?$string_output_adapter@_W@__crt_stdio_output@@@2@@__crt_stdio_output@@AAE_NXZ 10061f60 f i libucrtd:output.obj
 0001:00061050       ?type_case_s@?$output_processor@_WV?$string_output_adapter@_W@__crt_stdio_output@@V?$standard_base@_WV?$string_output_adapter@_W@__crt_stdio_output@@@2@@__crt_stdio_output@@AAE_NXZ 10062050 f i libucrtd:output.obj
 0001:00061140       ?type_case_s_compute_narrow_string_length@?$output_processor@DV?$stream_output_adapter@D@__crt_stdio_output@@V?$format_validation_base@DV?$stream_output_adapter@D@__crt_stdio_output@@@2@@__crt_stdio_output@@ABEHHD@Z 10062140 f i libucrtd:output.obj
 0001:00061170       ?type_case_s_compute_narrow_string_length@?$output_processor@DV?$stream_output_adapter@D@__crt_stdio_output@@V?$positional_parameter_base@DV?$stream_output_adapter@D@__crt_stdio_output@@@2@@__crt_stdio_output@@ABEHHD@Z 10062170 f i libucrtd:output.obj
 0001:000611a0       ?type_case_s_compute_narrow_string_length@?$output_processor@DV?$stream_output_adapter@D@__crt_stdio_output@@V?$standard_base@DV?$stream_output_adapter@D@__crt_stdio_output@@@2@@__crt_stdio_output@@ABEHHD@Z 100621a0 f i libucrtd:output.obj
 0001:000611d0       ?type_case_s_compute_narrow_string_length@?$output_processor@DV?$string_output_adapter@D@__crt_stdio_output@@V?$format_validation_base@DV?$string_output_adapter@D@__crt_stdio_output@@@2@@__crt_stdio_output@@ABEHHD@Z 100621d0 f i libucrtd:output.obj
 0001:00061200       ?type_case_s_compute_narrow_string_length@?$output_processor@DV?$string_output_adapter@D@__crt_stdio_output@@V?$positional_parameter_base@DV?$string_output_adapter@D@__crt_stdio_output@@@2@@__crt_stdio_output@@ABEHHD@Z 10062200 f i libucrtd:output.obj
 0001:00061230       ?type_case_s_compute_narrow_string_length@?$output_processor@DV?$string_output_adapter@D@__crt_stdio_output@@V?$standard_base@DV?$string_output_adapter@D@__crt_stdio_output@@@2@@__crt_stdio_output@@ABEHHD@Z 10062230 f i libucrtd:output.obj
 0001:00061260       ?type_case_s_compute_narrow_string_length@?$output_processor@_WV?$stream_output_adapter@_W@__crt_stdio_output@@V?$format_validation_base@_WV?$stream_output_adapter@_W@__crt_stdio_output@@@2@@__crt_stdio_output@@ABEHH_W@Z 10062260 f i libucrtd:output.obj
 0001:000612d0       ?type_case_s_compute_narrow_string_length@?$output_processor@_WV?$stream_output_adapter@_W@__crt_stdio_output@@V?$positional_parameter_base@_WV?$stream_output_adapter@_W@__crt_stdio_output@@@2@@__crt_stdio_output@@ABEHH_W@Z 100622d0 f i libucrtd:output.obj
 0001:00061340       ?type_case_s_compute_narrow_string_length@?$output_processor@_WV?$stream_output_adapter@_W@__crt_stdio_output@@V?$standard_base@_WV?$stream_output_adapter@_W@__crt_stdio_output@@@2@@__crt_stdio_output@@ABEHH_W@Z 10062340 f i libucrtd:output.obj
 0001:000613b0       ?type_case_s_compute_narrow_string_length@?$output_processor@_WV?$string_output_adapter@_W@__crt_stdio_output@@V?$format_validation_base@_WV?$string_output_adapter@_W@__crt_stdio_output@@@2@@__crt_stdio_output@@ABEHH_W@Z 100623b0 f i libucrtd:output.obj
 0001:00061420       ?type_case_s_compute_narrow_string_length@?$output_processor@_WV?$string_output_adapter@_W@__crt_stdio_output@@V?$positional_parameter_base@_WV?$string_output_adapter@_W@__crt_stdio_output@@@2@@__crt_stdio_output@@ABEHH_W@Z 10062420 f i libucrtd:output.obj
 0001:00061490       ?type_case_s_compute_narrow_string_length@?$output_processor@_WV?$string_output_adapter@_W@__crt_stdio_output@@V?$standard_base@_WV?$string_output_adapter@_W@__crt_stdio_output@@@2@@__crt_stdio_output@@ABEHH_W@Z 10062490 f i libucrtd:output.obj
 0001:00061500       ?type_case_u@?$output_processor@DV?$stream_output_adapter@D@__crt_stdio_output@@V?$format_validation_base@DV?$stream_output_adapter@D@__crt_stdio_output@@@2@@__crt_stdio_output@@AAE_NXZ 10062500 f i libucrtd:output.obj
 0001:00061520       ?type_case_u@?$output_processor@DV?$stream_output_adapter@D@__crt_stdio_output@@V?$positional_parameter_base@DV?$stream_output_adapter@D@__crt_stdio_output@@@2@@__crt_stdio_output@@AAE_NXZ 10062520 f i libucrtd:output.obj
 0001:00061540       ?type_case_u@?$output_processor@DV?$stream_output_adapter@D@__crt_stdio_output@@V?$standard_base@DV?$stream_output_adapter@D@__crt_stdio_output@@@2@@__crt_stdio_output@@AAE_NXZ 10062540 f i libucrtd:output.obj
 0001:00061560       ?type_case_u@?$output_processor@DV?$string_output_adapter@D@__crt_stdio_output@@V?$format_validation_base@DV?$string_output_adapter@D@__crt_stdio_output@@@2@@__crt_stdio_output@@AAE_NXZ 10062560 f i libucrtd:output.obj
 0001:00061580       ?type_case_u@?$output_processor@DV?$string_output_adapter@D@__crt_stdio_output@@V?$positional_parameter_base@DV?$string_output_adapter@D@__crt_stdio_output@@@2@@__crt_stdio_output@@AAE_NXZ 10062580 f i libucrtd:output.obj
 0001:000615a0       ?type_case_u@?$output_processor@DV?$string_output_adapter@D@__crt_stdio_output@@V?$standard_base@DV?$string_output_adapter@D@__crt_stdio_output@@@2@@__crt_stdio_output@@AAE_NXZ 100625a0 f i libucrtd:output.obj
 0001:000615c0       ?type_case_u@?$output_processor@_WV?$stream_output_adapter@_W@__crt_stdio_output@@V?$format_validation_base@_WV?$stream_output_adapter@_W@__crt_stdio_output@@@2@@__crt_stdio_output@@AAE_NXZ 100625c0 f i libucrtd:output.obj
 0001:000615e0       ?type_case_u@?$output_processor@_WV?$stream_output_adapter@_W@__crt_stdio_output@@V?$positional_parameter_base@_WV?$stream_output_adapter@_W@__crt_stdio_output@@@2@@__crt_stdio_output@@AAE_NXZ 100625e0 f i libucrtd:output.obj
 0001:00061600       ?type_case_u@?$output_processor@_WV?$stream_output_adapter@_W@__crt_stdio_output@@V?$standard_base@_WV?$stream_output_adapter@_W@__crt_stdio_output@@@2@@__crt_stdio_output@@AAE_NXZ 10062600 f i libucrtd:output.obj
 0001:00061620       ?type_case_u@?$output_processor@_WV?$string_output_adapter@_W@__crt_stdio_output@@V?$format_validation_base@_WV?$string_output_adapter@_W@__crt_stdio_output@@@2@@__crt_stdio_output@@AAE_NXZ 10062620 f i libucrtd:output.obj
 0001:00061640       ?type_case_u@?$output_processor@_WV?$string_output_adapter@_W@__crt_stdio_output@@V?$positional_parameter_base@_WV?$string_output_adapter@_W@__crt_stdio_output@@@2@@__crt_stdio_output@@AAE_NXZ 10062640 f i libucrtd:output.obj
 0001:00061660       ?type_case_u@?$output_processor@_WV?$string_output_adapter@_W@__crt_stdio_output@@V?$standard_base@_WV?$string_output_adapter@_W@__crt_stdio_output@@@2@@__crt_stdio_output@@AAE_NXZ 10062660 f i libucrtd:output.obj
 0001:00061680       ?type_case_x@?$output_processor@DV?$stream_output_adapter@D@__crt_stdio_output@@V?$format_validation_base@DV?$stream_output_adapter@D@__crt_stdio_output@@@2@@__crt_stdio_output@@AAE_NXZ 10062680 f i libucrtd:output.obj
 0001:000616a0       ?type_case_x@?$output_processor@DV?$stream_output_adapter@D@__crt_stdio_output@@V?$positional_parameter_base@DV?$stream_output_adapter@D@__crt_stdio_output@@@2@@__crt_stdio_output@@AAE_NXZ 100626a0 f i libucrtd:output.obj
 0001:000616c0       ?type_case_x@?$output_processor@DV?$stream_output_adapter@D@__crt_stdio_output@@V?$standard_base@DV?$stream_output_adapter@D@__crt_stdio_output@@@2@@__crt_stdio_output@@AAE_NXZ 100626c0 f i libucrtd:output.obj
 0001:000616e0       ?type_case_x@?$output_processor@DV?$string_output_adapter@D@__crt_stdio_output@@V?$format_validation_base@DV?$string_output_adapter@D@__crt_stdio_output@@@2@@__crt_stdio_output@@AAE_NXZ 100626e0 f i libucrtd:output.obj
 0001:00061700       ?type_case_x@?$output_processor@DV?$string_output_adapter@D@__crt_stdio_output@@V?$positional_parameter_base@DV?$string_output_adapter@D@__crt_stdio_output@@@2@@__crt_stdio_output@@AAE_NXZ 10062700 f i libucrtd:output.obj
 0001:00061720       ?type_case_x@?$output_processor@DV?$string_output_adapter@D@__crt_stdio_output@@V?$standard_base@DV?$string_output_adapter@D@__crt_stdio_output@@@2@@__crt_stdio_output@@AAE_NXZ 10062720 f i libucrtd:output.obj
 0001:00061740       ?type_case_x@?$output_processor@_WV?$stream_output_adapter@_W@__crt_stdio_output@@V?$format_validation_base@_WV?$stream_output_adapter@_W@__crt_stdio_output@@@2@@__crt_stdio_output@@AAE_NXZ 10062740 f i libucrtd:output.obj
 0001:00061760       ?type_case_x@?$output_processor@_WV?$stream_output_adapter@_W@__crt_stdio_output@@V?$positional_parameter_base@_WV?$stream_output_adapter@_W@__crt_stdio_output@@@2@@__crt_stdio_output@@AAE_NXZ 10062760 f i libucrtd:output.obj
 0001:00061780       ?type_case_x@?$output_processor@_WV?$stream_output_adapter@_W@__crt_stdio_output@@V?$standard_base@_WV?$stream_output_adapter@_W@__crt_stdio_output@@@2@@__crt_stdio_output@@AAE_NXZ 10062780 f i libucrtd:output.obj
 0001:000617a0       ?type_case_x@?$output_processor@_WV?$string_output_adapter@_W@__crt_stdio_output@@V?$format_validation_base@_WV?$string_output_adapter@_W@__crt_stdio_output@@@2@@__crt_stdio_output@@AAE_NXZ 100627a0 f i libucrtd:output.obj
 0001:000617c0       ?type_case_x@?$output_processor@_WV?$string_output_adapter@_W@__crt_stdio_output@@V?$positional_parameter_base@_WV?$string_output_adapter@_W@__crt_stdio_output@@@2@@__crt_stdio_output@@AAE_NXZ 100627c0 f i libucrtd:output.obj
 0001:000617e0       ?type_case_x@?$output_processor@_WV?$string_output_adapter@_W@__crt_stdio_output@@V?$standard_base@_WV?$string_output_adapter@_W@__crt_stdio_output@@@2@@__crt_stdio_output@@AAE_NXZ 100627e0 f i libucrtd:output.obj
 0001:00061800       ?unset_flag@?$output_processor@DV?$stream_output_adapter@D@__crt_stdio_output@@V?$format_validation_base@DV?$stream_output_adapter@D@__crt_stdio_output@@@2@@__crt_stdio_output@@AAEXI@Z 10062800 f i libucrtd:output.obj
 0001:00061820       ?unset_flag@?$output_processor@DV?$stream_output_adapter@D@__crt_stdio_output@@V?$positional_parameter_base@DV?$stream_output_adapter@D@__crt_stdio_output@@@2@@__crt_stdio_output@@AAEXI@Z 10062820 f i libucrtd:output.obj
 0001:00061840       ?unset_flag@?$output_processor@DV?$stream_output_adapter@D@__crt_stdio_output@@V?$standard_base@DV?$stream_output_adapter@D@__crt_stdio_output@@@2@@__crt_stdio_output@@AAEXI@Z 10062840 f i libucrtd:output.obj
 0001:00061860       ?unset_flag@?$output_processor@DV?$string_output_adapter@D@__crt_stdio_output@@V?$format_validation_base@DV?$string_output_adapter@D@__crt_stdio_output@@@2@@__crt_stdio_output@@AAEXI@Z 10062860 f i libucrtd:output.obj
 0001:00061880       ?unset_flag@?$output_processor@DV?$string_output_adapter@D@__crt_stdio_output@@V?$positional_parameter_base@DV?$string_output_adapter@D@__crt_stdio_output@@@2@@__crt_stdio_output@@AAEXI@Z 10062880 f i libucrtd:output.obj
 0001:000618a0       ?unset_flag@?$output_processor@DV?$string_output_adapter@D@__crt_stdio_output@@V?$standard_base@DV?$string_output_adapter@D@__crt_stdio_output@@@2@@__crt_stdio_output@@AAEXI@Z 100628a0 f i libucrtd:output.obj
 0001:000618c0       ?unset_flag@?$output_processor@_WV?$stream_output_adapter@_W@__crt_stdio_output@@V?$format_validation_base@_WV?$stream_output_adapter@_W@__crt_stdio_output@@@2@@__crt_stdio_output@@AAEXI@Z 100628c0 f i libucrtd:output.obj
 0001:000618e0       ?unset_flag@?$output_processor@_WV?$stream_output_adapter@_W@__crt_stdio_output@@V?$positional_parameter_base@_WV?$stream_output_adapter@_W@__crt_stdio_output@@@2@@__crt_stdio_output@@AAEXI@Z 100628e0 f i libucrtd:output.obj
 0001:00061900       ?unset_flag@?$output_processor@_WV?$stream_output_adapter@_W@__crt_stdio_output@@V?$standard_base@_WV?$stream_output_adapter@_W@__crt_stdio_output@@@2@@__crt_stdio_output@@AAEXI@Z 10062900 f i libucrtd:output.obj
 0001:00061920       ?unset_flag@?$output_processor@_WV?$string_output_adapter@_W@__crt_stdio_output@@V?$format_validation_base@_WV?$string_output_adapter@_W@__crt_stdio_output@@@2@@__crt_stdio_output@@AAEXI@Z 10062920 f i libucrtd:output.obj
 0001:00061940       ?unset_flag@?$output_processor@_WV?$string_output_adapter@_W@__crt_stdio_output@@V?$positional_parameter_base@_WV?$string_output_adapter@_W@__crt_stdio_output@@@2@@__crt_stdio_output@@AAEXI@Z 10062940 f i libucrtd:output.obj
 0001:00061960       ?unset_flag@?$output_processor@_WV?$string_output_adapter@_W@__crt_stdio_output@@V?$standard_base@_WV?$string_output_adapter@_W@__crt_stdio_output@@@2@@__crt_stdio_output@@AAEXI@Z 10062960 f i libucrtd:output.obj
 0001:00061980       ?update_field_width@?$positional_parameter_base@DV?$stream_output_adapter@D@__crt_stdio_output@@@__crt_stdio_output@@IAE_NXZ 10062980 f i libucrtd:output.obj
 0001:00061b00       ?update_field_width@?$positional_parameter_base@DV?$string_output_adapter@D@__crt_stdio_output@@@__crt_stdio_output@@IAE_NXZ 10062b00 f i libucrtd:output.obj
 0001:00061c80       ?update_field_width@?$positional_parameter_base@_WV?$stream_output_adapter@_W@__crt_stdio_output@@@__crt_stdio_output@@IAE_NXZ 10062c80 f i libucrtd:output.obj
 0001:00061e00       ?update_field_width@?$positional_parameter_base@_WV?$string_output_adapter@_W@__crt_stdio_output@@@__crt_stdio_output@@IAE_NXZ 10062e00 f i libucrtd:output.obj
 0001:00061f80       ?update_field_width@?$standard_base@DV?$stream_output_adapter@D@__crt_stdio_output@@@__crt_stdio_output@@IAE_NXZ 10062f80 f i libucrtd:output.obj
 0001:00061fb0       ?update_field_width@?$standard_base@DV?$string_output_adapter@D@__crt_stdio_output@@@__crt_stdio_output@@IAE_NXZ 10062fb0 f i libucrtd:output.obj
 0001:00061fe0       ?update_field_width@?$standard_base@_WV?$stream_output_adapter@_W@__crt_stdio_output@@@__crt_stdio_output@@IAE_NXZ 10062fe0 f i libucrtd:output.obj
 0001:00062010       ?update_field_width@?$standard_base@_WV?$string_output_adapter@_W@__crt_stdio_output@@@__crt_stdio_output@@IAE_NXZ 10063010 f i libucrtd:output.obj
 0001:00062040       ?update_precision@?$positional_parameter_base@DV?$stream_output_adapter@D@__crt_stdio_output@@@__crt_stdio_output@@IAE_NXZ 10063040 f i libucrtd:output.obj
 0001:000621c0       ?update_precision@?$positional_parameter_base@DV?$string_output_adapter@D@__crt_stdio_output@@@__crt_stdio_output@@IAE_NXZ 100631c0 f i libucrtd:output.obj
 0001:00062340       ?update_precision@?$positional_parameter_base@_WV?$stream_output_adapter@_W@__crt_stdio_output@@@__crt_stdio_output@@IAE_NXZ 10063340 f i libucrtd:output.obj
 0001:000624c0       ?update_precision@?$positional_parameter_base@_WV?$string_output_adapter@_W@__crt_stdio_output@@@__crt_stdio_output@@IAE_NXZ 100634c0 f i libucrtd:output.obj
 0001:00062640       ?update_precision@?$standard_base@DV?$stream_output_adapter@D@__crt_stdio_output@@@__crt_stdio_output@@IAE_NXZ 10063640 f i libucrtd:output.obj
 0001:00062670       ?update_precision@?$standard_base@DV?$string_output_adapter@D@__crt_stdio_output@@@__crt_stdio_output@@IAE_NXZ 10063670 f i libucrtd:output.obj
 0001:000626a0       ?update_precision@?$standard_base@_WV?$stream_output_adapter@_W@__crt_stdio_output@@@__crt_stdio_output@@IAE_NXZ 100636a0 f i libucrtd:output.obj
 0001:000626d0       ?update_precision@?$standard_base@_WV?$string_output_adapter@_W@__crt_stdio_output@@@__crt_stdio_output@@IAE_NXZ 100636d0 f i libucrtd:output.obj
 0001:00062700       ?valid@__crt_stdio_stream@@QBE_NXZ 10063700 f i libucrtd:output.obj
 0001:00062730       ?validate@?$stream_output_adapter@D@__crt_stdio_output@@QBE_NXZ 10063730 f i libucrtd:output.obj
 0001:000627e0       ?validate@?$stream_output_adapter@_W@__crt_stdio_output@@QBE_NXZ 100637e0 f i libucrtd:output.obj
 0001:00062890       ?validate@?$string_output_adapter@D@__crt_stdio_output@@QBE_NXZ 10063890 f i libucrtd:output.obj
 0001:00062920       ?validate@?$string_output_adapter@_W@__crt_stdio_output@@QBE_NXZ 10063920 f i libucrtd:output.obj
 0001:000629b0       ?validate_and_store_parameter_data@?$positional_parameter_base@DV?$stream_output_adapter@D@__crt_stdio_output@@@__crt_stdio_output@@AAE_NAAUparameter_data@12@W4parameter_type@12@DW4length_modifier@2@@Z 100639b0 f i libucrtd:output.obj
 0001:00062a80       ?validate_and_store_parameter_data@?$positional_parameter_base@DV?$string_output_adapter@D@__crt_stdio_output@@@__crt_stdio_output@@AAE_NAAUparameter_data@12@W4parameter_type@12@DW4length_modifier@2@@Z 10063a80 f i libucrtd:output.obj
 0001:00062b50       ?validate_and_store_parameter_data@?$positional_parameter_base@_WV?$stream_output_adapter@_W@__crt_stdio_output@@@__crt_stdio_output@@AAE_NAAUparameter_data@12@W4parameter_type@12@_WW4length_modifier@2@@Z 10063b50 f i libucrtd:output.obj
 0001:00062c30       ?validate_and_store_parameter_data@?$positional_parameter_base@_WV?$string_output_adapter@_W@__crt_stdio_output@@@__crt_stdio_output@@AAE_NAAUparameter_data@12@W4parameter_type@12@_WW4length_modifier@2@@Z 10063c30 f i libucrtd:output.obj
 0001:00062d10       ?validate_and_update_state_at_beginning_of_format_character@?$positional_parameter_base@DV?$stream_output_adapter@D@__crt_stdio_output@@@__crt_stdio_output@@IAE_NXZ 10063d10 f i libucrtd:output.obj
 0001:00062f30       ?validate_and_update_state_at_beginning_of_format_character@?$positional_parameter_base@DV?$string_output_adapter@D@__crt_stdio_output@@@__crt_stdio_output@@IAE_NXZ 10063f30 f i libucrtd:output.obj
 0001:00063150       ?validate_and_update_state_at_beginning_of_format_character@?$positional_parameter_base@_WV?$stream_output_adapter@_W@__crt_stdio_output@@@__crt_stdio_output@@IAE_NXZ 10064150 f i libucrtd:output.obj
 0001:00063370       ?validate_and_update_state_at_beginning_of_format_character@?$positional_parameter_base@_WV?$string_output_adapter@_W@__crt_stdio_output@@@__crt_stdio_output@@IAE_NXZ 10064370 f i libucrtd:output.obj
 0001:00063590       ?validate_and_update_state_at_beginning_of_format_character@?$standard_base@DV?$stream_output_adapter@D@__crt_stdio_output@@@__crt_stdio_output@@IAE_NXZ 10064590 f i libucrtd:output.obj
 0001:000635a0       ?validate_and_update_state_at_beginning_of_format_character@?$standard_base@DV?$string_output_adapter@D@__crt_stdio_output@@@__crt_stdio_output@@IAE_NXZ 100645a0 f i libucrtd:output.obj
 0001:000635b0       ?validate_and_update_state_at_beginning_of_format_character@?$standard_base@_WV?$stream_output_adapter@_W@__crt_stdio_output@@@__crt_stdio_output@@IAE_NXZ 100645b0 f i libucrtd:output.obj
 0001:000635c0       ?validate_and_update_state_at_beginning_of_format_character@?$standard_base@_WV?$string_output_adapter@_W@__crt_stdio_output@@@__crt_stdio_output@@IAE_NXZ 100645c0 f i libucrtd:output.obj
 0001:000635d0       ?validate_and_update_state_at_end_of_format_string@?$format_validation_base@DV?$stream_output_adapter@D@__crt_stdio_output@@@__crt_stdio_output@@IBE_NXZ 100645d0 f i libucrtd:output.obj
 0001:00063670       ?validate_and_update_state_at_end_of_format_string@?$format_validation_base@DV?$string_output_adapter@D@__crt_stdio_output@@@__crt_stdio_output@@IBE_NXZ 10064670 f i libucrtd:output.obj
 0001:00063710       ?validate_and_update_state_at_end_of_format_string@?$format_validation_base@_WV?$stream_output_adapter@_W@__crt_stdio_output@@@__crt_stdio_output@@IBE_NXZ 10064710 f i libucrtd:output.obj
 0001:000637b0       ?validate_and_update_state_at_end_of_format_string@?$format_validation_base@_WV?$string_output_adapter@_W@__crt_stdio_output@@@__crt_stdio_output@@IBE_NXZ 100647b0 f i libucrtd:output.obj
 0001:00063850       ?validate_and_update_state_at_end_of_format_string@?$positional_parameter_base@DV?$stream_output_adapter@D@__crt_stdio_output@@@__crt_stdio_output@@IAE_NXZ 10064850 f i libucrtd:output.obj
 0001:000639f0       ?validate_and_update_state_at_end_of_format_string@?$positional_parameter_base@DV?$string_output_adapter@D@__crt_stdio_output@@@__crt_stdio_output@@IAE_NXZ 100649f0 f i libucrtd:output.obj
 0001:00063b90       ?validate_and_update_state_at_end_of_format_string@?$positional_parameter_base@_WV?$stream_output_adapter@_W@__crt_stdio_output@@@__crt_stdio_output@@IAE_NXZ 10064b90 f i libucrtd:output.obj
 0001:00063d30       ?validate_and_update_state_at_end_of_format_string@?$positional_parameter_base@_WV?$string_output_adapter@_W@__crt_stdio_output@@@__crt_stdio_output@@IAE_NXZ 10064d30 f i libucrtd:output.obj
 0001:00063ed0       ?validate_and_update_state_at_end_of_format_string@?$standard_base@DV?$stream_output_adapter@D@__crt_stdio_output@@@__crt_stdio_output@@IBE_NXZ 10064ed0 f i libucrtd:output.obj
 0001:00063ee0       ?validate_and_update_state_at_end_of_format_string@?$standard_base@DV?$string_output_adapter@D@__crt_stdio_output@@@__crt_stdio_output@@IBE_NXZ 10064ee0 f i libucrtd:output.obj
 0001:00063ef0       ?validate_and_update_state_at_end_of_format_string@?$standard_base@_WV?$stream_output_adapter@_W@__crt_stdio_output@@@__crt_stdio_output@@IBE_NXZ 10064ef0 f i libucrtd:output.obj
 0001:00063f00       ?validate_and_update_state_at_end_of_format_string@?$standard_base@_WV?$string_output_adapter@_W@__crt_stdio_output@@@__crt_stdio_output@@IBE_NXZ 10064f00 f i libucrtd:output.obj
 0001:00063f10       ?validate_state_for_type_case_a@?$positional_parameter_base@DV?$stream_output_adapter@D@__crt_stdio_output@@@__crt_stdio_output@@IAE_NXZ 10064f10 f i libucrtd:output.obj
 0001:00064000       ?validate_state_for_type_case_a@?$positional_parameter_base@DV?$string_output_adapter@D@__crt_stdio_output@@@__crt_stdio_output@@IAE_NXZ 10065000 f i libucrtd:output.obj
 0001:000640f0       ?validate_state_for_type_case_a@?$positional_parameter_base@_WV?$stream_output_adapter@_W@__crt_stdio_output@@@__crt_stdio_output@@IAE_NXZ 100650f0 f i libucrtd:output.obj
 0001:000641e0       ?validate_state_for_type_case_a@?$positional_parameter_base@_WV?$string_output_adapter@_W@__crt_stdio_output@@@__crt_stdio_output@@IAE_NXZ 100651e0 f i libucrtd:output.obj
 0001:000642d0       ?validate_state_for_type_case_a@?$standard_base@DV?$stream_output_adapter@D@__crt_stdio_output@@@__crt_stdio_output@@IBE_NXZ 100652d0 f i libucrtd:output.obj
 0001:000642e0       ?validate_state_for_type_case_a@?$standard_base@DV?$string_output_adapter@D@__crt_stdio_output@@@__crt_stdio_output@@IBE_NXZ 100652e0 f i libucrtd:output.obj
 0001:000642f0       ?validate_state_for_type_case_a@?$standard_base@_WV?$stream_output_adapter@_W@__crt_stdio_output@@@__crt_stdio_output@@IBE_NXZ 100652f0 f i libucrtd:output.obj
 0001:00064300       ?validate_state_for_type_case_a@?$standard_base@_WV?$string_output_adapter@_W@__crt_stdio_output@@@__crt_stdio_output@@IBE_NXZ 10065300 f i libucrtd:output.obj
 0001:00064310       ?validate_stream_is_ansi_if_required@?$__acrt_stdio_char_traits@D@@SA_NQAU_iobuf@@@Z 10065310 f i libucrtd:output.obj
 0001:00064440       ?validate_stream_is_ansi_if_required@?$__acrt_stdio_char_traits@_W@@SA_NQAU_iobuf@@@Z 10065440 f i libucrtd:output.obj
 0001:00064450       ?wide_null_string@?$output_processor@DV?$stream_output_adapter@D@__crt_stdio_output@@V?$format_validation_base@DV?$stream_output_adapter@D@__crt_stdio_output@@@2@@__crt_stdio_output@@CAPA_WXZ 10065450 f i libucrtd:output.obj
 0001:00064460       ?wide_null_string@?$output_processor@DV?$stream_output_adapter@D@__crt_stdio_output@@V?$positional_parameter_base@DV?$stream_output_adapter@D@__crt_stdio_output@@@2@@__crt_stdio_output@@CAPA_WXZ 10065460 f i libucrtd:output.obj
 0001:00064470       ?wide_null_string@?$output_processor@DV?$stream_output_adapter@D@__crt_stdio_output@@V?$standard_base@DV?$stream_output_adapter@D@__crt_stdio_output@@@2@@__crt_stdio_output@@CAPA_WXZ 10065470 f i libucrtd:output.obj
 0001:00064480       ?wide_null_string@?$output_processor@DV?$string_output_adapter@D@__crt_stdio_output@@V?$format_validation_base@DV?$string_output_adapter@D@__crt_stdio_output@@@2@@__crt_stdio_output@@CAPA_WXZ 10065480 f i libucrtd:output.obj
 0001:00064490       ?wide_null_string@?$output_processor@DV?$string_output_adapter@D@__crt_stdio_output@@V?$positional_parameter_base@DV?$string_output_adapter@D@__crt_stdio_output@@@2@@__crt_stdio_output@@CAPA_WXZ 10065490 f i libucrtd:output.obj
 0001:000644a0       ?wide_null_string@?$output_processor@DV?$string_output_adapter@D@__crt_stdio_output@@V?$standard_base@DV?$string_output_adapter@D@__crt_stdio_output@@@2@@__crt_stdio_output@@CAPA_WXZ 100654a0 f i libucrtd:output.obj
 0001:000644b0       ?wide_null_string@?$output_processor@_WV?$stream_output_adapter@_W@__crt_stdio_output@@V?$format_validation_base@_WV?$stream_output_adapter@_W@__crt_stdio_output@@@2@@__crt_stdio_output@@CAPA_WXZ 100654b0 f i libucrtd:output.obj
 0001:000644c0       ?wide_null_string@?$output_processor@_WV?$stream_output_adapter@_W@__crt_stdio_output@@V?$positional_parameter_base@_WV?$stream_output_adapter@_W@__crt_stdio_output@@@2@@__crt_stdio_output@@CAPA_WXZ 100654c0 f i libucrtd:output.obj
 0001:000644d0       ?wide_null_string@?$output_processor@_WV?$stream_output_adapter@_W@__crt_stdio_output@@V?$standard_base@_WV?$stream_output_adapter@_W@__crt_stdio_output@@@2@@__crt_stdio_output@@CAPA_WXZ 100654d0 f i libucrtd:output.obj
 0001:000644e0       ?wide_null_string@?$output_processor@_WV?$string_output_adapter@_W@__crt_stdio_output@@V?$format_validation_base@_WV?$string_output_adapter@_W@__crt_stdio_output@@@2@@__crt_stdio_output@@CAPA_WXZ 100654e0 f i libucrtd:output.obj
 0001:000644f0       ?wide_null_string@?$output_processor@_WV?$string_output_adapter@_W@__crt_stdio_output@@V?$positional_parameter_base@_WV?$string_output_adapter@_W@__crt_stdio_output@@@2@@__crt_stdio_output@@CAPA_WXZ 100654f0 f i libucrtd:output.obj
 0001:00064500       ?wide_null_string@?$output_processor@_WV?$string_output_adapter@_W@__crt_stdio_output@@V?$standard_base@_WV?$string_output_adapter@_W@__crt_stdio_output@@@2@@__crt_stdio_output@@CAPA_WXZ 10065500 f i libucrtd:output.obj
 0001:00064510       ?write_character@?$output_adapter_common@DV?$stream_output_adapter@D@__crt_stdio_output@@@__crt_stdio_output@@QBEXDQAH@Z 10065510 f i libucrtd:output.obj
 0001:00064550       ?write_character@?$output_adapter_common@_WV?$stream_output_adapter@_W@__crt_stdio_output@@@__crt_stdio_output@@QBEX_WQAH@Z 10065550 f i libucrtd:output.obj
 0001:00064590       ?write_character@?$string_output_adapter@D@__crt_stdio_output@@QBE_NDQAH@Z 10065590 f i libucrtd:output.obj
 0001:00064620       ?write_character@?$string_output_adapter@_W@__crt_stdio_output@@QBE_N_WQAH@Z 10065620 f i libucrtd:output.obj
 0001:000646c0       ?write_character_without_count_update@?$stream_output_adapter@D@__crt_stdio_output@@QBE_ND@Z 100656c0 f i libucrtd:output.obj
 0001:00064730       ?write_character_without_count_update@?$stream_output_adapter@_W@__crt_stdio_output@@QBE_N_W@Z 10065730 f i libucrtd:output.obj
 0001:000647a0       ?write_stored_string_tchar@?$output_processor@DV?$stream_output_adapter@D@__crt_stdio_output@@V?$format_validation_base@DV?$stream_output_adapter@D@__crt_stdio_output@@@2@@__crt_stdio_output@@AAE_ND@Z 100657a0 f i libucrtd:output.obj
 0001:000648c0       ?write_stored_string_tchar@?$output_processor@DV?$stream_output_adapter@D@__crt_stdio_output@@V?$positional_parameter_base@DV?$stream_output_adapter@D@__crt_stdio_output@@@2@@__crt_stdio_output@@AAE_ND@Z 100658c0 f i libucrtd:output.obj
 0001:000649e0       ?write_stored_string_tchar@?$output_processor@DV?$stream_output_adapter@D@__crt_stdio_output@@V?$standard_base@DV?$stream_output_adapter@D@__crt_stdio_output@@@2@@__crt_stdio_output@@AAE_ND@Z 100659e0 f i libucrtd:output.obj
 0001:00064b00       ?write_stored_string_tchar@?$output_processor@DV?$string_output_adapter@D@__crt_stdio_output@@V?$format_validation_base@DV?$string_output_adapter@D@__crt_stdio_output@@@2@@__crt_stdio_output@@AAE_ND@Z 10065b00 f i libucrtd:output.obj
 0001:00064c20       ?write_stored_string_tchar@?$output_processor@DV?$string_output_adapter@D@__crt_stdio_output@@V?$positional_parameter_base@DV?$string_output_adapter@D@__crt_stdio_output@@@2@@__crt_stdio_output@@AAE_ND@Z 10065c20 f i libucrtd:output.obj
 0001:00064d40       ?write_stored_string_tchar@?$output_processor@DV?$string_output_adapter@D@__crt_stdio_output@@V?$standard_base@DV?$string_output_adapter@D@__crt_stdio_output@@@2@@__crt_stdio_output@@AAE_ND@Z 10065d40 f i libucrtd:output.obj
 0001:00064e60       ?write_stored_string_tchar@?$output_processor@_WV?$stream_output_adapter@_W@__crt_stdio_output@@V?$format_validation_base@_WV?$stream_output_adapter@_W@__crt_stdio_output@@@2@@__crt_stdio_output@@AAE_N_W@Z 10065e60 f i libucrtd:output.obj
 0001:00064f50       ?write_stored_string_tchar@?$output_processor@_WV?$stream_output_adapter@_W@__crt_stdio_output@@V?$positional_parameter_base@_WV?$stream_output_adapter@_W@__crt_stdio_output@@@2@@__crt_stdio_output@@AAE_N_W@Z 10065f50 f i libucrtd:output.obj
 0001:00065040       ?write_stored_string_tchar@?$output_processor@_WV?$stream_output_adapter@_W@__crt_stdio_output@@V?$standard_base@_WV?$stream_output_adapter@_W@__crt_stdio_output@@@2@@__crt_stdio_output@@AAE_N_W@Z 10066040 f i libucrtd:output.obj
 0001:00065130       ?write_stored_string_tchar@?$output_processor@_WV?$string_output_adapter@_W@__crt_stdio_output@@V?$format_validation_base@_WV?$string_output_adapter@_W@__crt_stdio_output@@@2@@__crt_stdio_output@@AAE_N_W@Z 10066130 f i libucrtd:output.obj
 0001:00065220       ?write_stored_string_tchar@?$output_processor@_WV?$string_output_adapter@_W@__crt_stdio_output@@V?$positional_parameter_base@_WV?$string_output_adapter@_W@__crt_stdio_output@@@2@@__crt_stdio_output@@AAE_N_W@Z 10066220 f i libucrtd:output.obj
 0001:00065310       ?write_stored_string_tchar@?$output_processor@_WV?$string_output_adapter@_W@__crt_stdio_output@@V?$standard_base@_WV?$string_output_adapter@_W@__crt_stdio_output@@@2@@__crt_stdio_output@@AAE_N_W@Z 10066310 f i libucrtd:output.obj
 0001:00065400       ?write_string@?$stream_output_adapter@D@__crt_stdio_output@@QBEXQBDHQAHAAV__crt_deferred_errno_cache@@@Z 10066400 f i libucrtd:output.obj
 0001:00065460       ?write_string@?$stream_output_adapter@_W@__crt_stdio_output@@QBEXQB_WHQAHAAV__crt_deferred_errno_cache@@@Z 10066460 f i libucrtd:output.obj
 0001:000654c0       ?write_string@?$string_output_adapter@D@__crt_stdio_output@@QBEXQBDHQAHAAV__crt_deferred_errno_cache@@@Z 100664c0 f i libucrtd:output.obj
 0001:000655c0       ?write_string@?$string_output_adapter@_W@__crt_stdio_output@@QBEXQB_WHQAHAAV__crt_deferred_errno_cache@@@Z 100665c0 f i libucrtd:output.obj
 0001:000656d0       ?write_string_impl@?$output_adapter_common@DV?$stream_output_adapter@D@__crt_stdio_output@@@__crt_stdio_output@@IBEXQBDHQAHAAV__crt_deferred_errno_cache@@@Z 100666d0 f i libucrtd:output.obj
 0001:00065770       ?write_string_impl@?$output_adapter_common@_WV?$stream_output_adapter@_W@__crt_stdio_output@@@__crt_stdio_output@@IBEXQB_WHQAHAAV__crt_deferred_errno_cache@@@Z 10066770 f i libucrtd:output.obj
 0001:00065810       ___acrt_disable_global_locale_sync 10066810 f i libucrtd:output.obj
 0001:00065830       ___acrt_enable_global_locale_sync 10066830 f i libucrtd:output.obj
 0001:00065850       ___acrt_isleadbyte_l_noupdate 10066850 f i libucrtd:output.obj
 0001:00065870       ___acrt_locale_changed     10066870 f i libucrtd:output.obj
 0001:000658a0       ___acrt_locale_get_ctype_array_value 100668a0 f i libucrtd:output.obj
 0001:000658d0       ___stdio_common_vfprintf   100668d0 f   libucrtd:output.obj
 0001:00065900       ___stdio_common_vfprintf_p 10066900 f   libucrtd:output.obj
 0001:00065930       ___stdio_common_vfprintf_s 10066930 f   libucrtd:output.obj
 0001:00065960       ___stdio_common_vfwprintf  10066960 f   libucrtd:output.obj
 0001:00065990       ___stdio_common_vfwprintf_p 10066990 f   libucrtd:output.obj
 0001:000659c0       ___stdio_common_vfwprintf_s 100669c0 f   libucrtd:output.obj
 0001:000659f0       ___stdio_common_vsnprintf_s 100669f0 f   libucrtd:output.obj
 0001:00065a20       ___stdio_common_vsnwprintf_s 10066a20 f   libucrtd:output.obj
 0001:00065a50       ___stdio_common_vsprintf   10066a50 f   libucrtd:output.obj
 0001:00065a80       ___stdio_common_vsprintf_p 10066a80 f   libucrtd:output.obj
 0001:00065ab0       ___stdio_common_vsprintf_s 10066ab0 f   libucrtd:output.obj
 0001:00065ae0       ___stdio_common_vswprintf  10066ae0 f   libucrtd:output.obj
 0001:00065b10       ___stdio_common_vswprintf_p 10066b10 f   libucrtd:output.obj
 0001:00065b40       ___stdio_common_vswprintf_s 10066b40 f   libucrtd:output.obj
 0001:00065b70       __ctype_fast_check_internal 10066b70 f i libucrtd:output.obj
 0001:00065b90       __isdigit_fast_internal    10066b90 f i libucrtd:output.obj
 0001:00065bb0       __tolower_fast_internal    10066bb0 f i libucrtd:output.obj
 0001:00065bd0       _free                      10066bd0 f   libucrtd:free.obj
 0001:00065c00       _malloc                    10066c00 f   libucrtd:malloc.obj
 0001:00065c20       ??$?RU?$__crt_report_hook_node@D@@@__crt_internal_free_policy@@QBEXQBU?$__crt_report_hook_node@D@@@Z 10066c20 f i libucrtd:dbgrpt.obj
 0001:00065c40       ??$?RU?$__crt_report_hook_node@_W@@@__crt_internal_free_policy@@QBEXQBU?$__crt_report_hook_node@_W@@@Z 10066c40 f i libucrtd:dbgrpt.obj
 0001:00066a30       ??$get_module_file_name@AAPAUHINSTANCE__@@AAY0BAF@DK@?$__crt_char_traits@D@@SAKAAPAUHINSTANCE__@@AAY0BAF@D$$QAK@Z 10067a30 f i libucrtd:dbgrpt.obj
 0001:00066a50       ??$get_module_file_name@AAPAUHINSTANCE__@@AAY0BAF@_WK@?$__crt_char_traits@_W@@SAKAAPAUHINSTANCE__@@AAY0BAF@_W$$QAK@Z 10067a50 f i libucrtd:dbgrpt.obj
 0001:00066a70       ??$tcscpy_s@AAY0BAF@DIPBD@?$__crt_char_traits@D@@SAHAAY0BAF@D$$QAI$$QAPBD@Z 10067a70 f i libucrtd:dbgrpt.obj
 0001:00066a90       ??$tcscpy_s@AAY0BAF@_WIPB_W@?$__crt_char_traits@_W@@SAHAAY0BAF@_W$$QAI$$QAPB_W@Z 10067a90 f i libucrtd:dbgrpt.obj
 0001:00066ab0       ??$tcslen@AAY0BAF@D@?$__crt_char_traits@D@@SAIAAY0BAF@D@Z 10067ab0 f i libucrtd:dbgrpt.obj
 0001:00066ad0       ??$tcslen@AAY0BAF@_W@?$__crt_char_traits@_W@@SAIAAY0BAF@_W@Z 10067ad0 f i libucrtd:dbgrpt.obj
 0001:00066af0       ??$tcslen@ABQBD@?$__crt_char_traits@D@@SAIABQBD@Z 10067af0 f i libucrtd:dbgrpt.obj
 0001:00066b10       ??$tcslen@ABQB_W@?$__crt_char_traits@_W@@SAIABQB_W@Z 10067b10 f i libucrtd:dbgrpt.obj
 0001:00066c10       ??0?$__crt_unique_heap_ptr@U?$__crt_report_hook_node@D@@U__crt_internal_free_policy@@@@QAE@QAU?$__crt_report_hook_node@D@@@Z 10067c10 f i libucrtd:dbgrpt.obj
 0001:00066c30       ??0?$__crt_unique_heap_ptr@U?$__crt_report_hook_node@_W@@U__crt_internal_free_policy@@@@QAE@QAU?$__crt_report_hook_node@_W@@@Z 10067c30 f i libucrtd:dbgrpt.obj
 0001:00066c50       ??1?$__crt_unique_heap_ptr@U?$__crt_report_hook_node@D@@U__crt_internal_free_policy@@@@QAE@XZ 10067c50 f i libucrtd:dbgrpt.obj
 0001:00066c70       ??1?$__crt_unique_heap_ptr@U?$__crt_report_hook_node@_W@@U__crt_internal_free_policy@@@@QAE@XZ 10067c70 f i libucrtd:dbgrpt.obj
 0001:00066c90       ??B?$__crt_unique_heap_ptr@U?$__crt_report_hook_node@D@@U__crt_internal_free_policy@@@@QBE_NXZ 10067c90 f i libucrtd:dbgrpt.obj
 0001:00066cb0       ??B?$__crt_unique_heap_ptr@U?$__crt_report_hook_node@_W@@U__crt_internal_free_policy@@@@QBE_NXZ 10067cb0 f i libucrtd:dbgrpt.obj
 0001:000671f0       ?detach@?$__crt_unique_heap_ptr@U?$__crt_report_hook_node@D@@U__crt_internal_free_policy@@@@QAEPAU?$__crt_report_hook_node@D@@XZ 100681f0 f i libucrtd:dbgrpt.obj
 0001:00067220       ?detach@?$__crt_unique_heap_ptr@U?$__crt_report_hook_node@_W@@U__crt_internal_free_policy@@@@QAEPAU?$__crt_report_hook_node@_W@@XZ 10068220 f i libucrtd:dbgrpt.obj
 0001:00067250       ?get@?$__crt_unique_heap_ptr@U?$__crt_report_hook_node@D@@U__crt_internal_free_policy@@@@QBEPAU?$__crt_report_hook_node@D@@XZ 10068250 f i libucrtd:dbgrpt.obj
 0001:00067270       ?get@?$__crt_unique_heap_ptr@U?$__crt_report_hook_node@_W@@U__crt_internal_free_policy@@@@QBEPAU?$__crt_report_hook_node@_W@@XZ 10068270 f i libucrtd:dbgrpt.obj
 0001:000672f0       ?is_valid@?$__crt_unique_heap_ptr@U?$__crt_report_hook_node@D@@U__crt_internal_free_policy@@@@QBE_NXZ 100682f0 f i libucrtd:dbgrpt.obj
 0001:00067320       ?is_valid@?$__crt_unique_heap_ptr@U?$__crt_report_hook_node@_W@@U__crt_internal_free_policy@@@@QBE_NXZ 10068320 f i libucrtd:dbgrpt.obj
 0001:00067350       ?release@?$__crt_unique_heap_ptr@U?$__crt_report_hook_node@D@@U__crt_internal_free_policy@@@@QAEXXZ 10068350 f i libucrtd:dbgrpt.obj
 0001:00067380       ?release@?$__crt_unique_heap_ptr@U?$__crt_report_hook_node@_W@@U__crt_internal_free_policy@@@@QAEXXZ 10068380 f i libucrtd:dbgrpt.obj
 0001:000673b0       __CrtDbgReport             100683b0 f   libucrtd:dbgrpt.obj
 0001:00067400       __CrtDbgReportW            10068400 f   libucrtd:dbgrpt.obj
 0001:00067450       __CrtSetReportHook2        10068450 f   libucrtd:dbgrpt.obj
 0001:00067470       __CrtSetReportHookW2       10068470 f   libucrtd:dbgrpt.obj
 0001:00067490       ___acrt_MessageWindowA     10068490 f   libucrtd:dbgrpt.obj
 0001:000674c0       ___acrt_MessageWindowW     100684c0 f   libucrtd:dbgrpt.obj
 0001:000674f0       __invoke_watson_if_error   100684f0 f i libucrtd:dbgrpt.obj
 0001:00067520       __invoke_watson_if_oneof   10068520 f i libucrtd:dbgrpt.obj
 0001:00067560       __snwprintf_s              10068560 f i libucrtd:dbgrpt.obj
 0001:000675a0       __vsnwprintf_s_l           100685a0 f i libucrtd:dbgrpt.obj
 0001:00067920       _wcscpy_s                  10068920 f   libucrtd:wcscpy_s.obj
 0001:00068640       ??1?$__crt_simd_cleanup_guard@$00@@QAE@XZ 10069640 f i libucrtd:strnlen.obj
 0001:00068650       ??1?$__crt_simd_cleanup_guard@$0A@@@QAE@XZ 10069650 f i libucrtd:strnlen.obj
 0001:00068660       ?compare_equals@?$__crt_simd_traits@$00E@@SA?AT__m256i@@T2@0@Z 10069660 f i libucrtd:strnlen.obj
 0001:000686a0       ?compare_equals@?$__crt_simd_traits@$00G@@SA?AT__m256i@@T2@0@Z 100696a0 f i libucrtd:strnlen.obj
 0001:000686e0       ?compare_equals@?$__crt_simd_traits@$0A@E@@SA?AT__m128i@@T2@0@Z 100696e0 f i libucrtd:strnlen.obj
 0001:00068720       ?compare_equals@?$__crt_simd_traits@$0A@G@@SA?AT__m128i@@T2@0@Z 10069720 f i libucrtd:strnlen.obj
 0001:00068760       ?compute_byte_mask@?$__crt_simd_pack_traits@$00@@SAHT__m256i@@@Z 10069760 f i libucrtd:strnlen.obj
 0001:00068790       ?compute_byte_mask@?$__crt_simd_pack_traits@$0A@@@SAHT__m128i@@@Z 10069790 f i libucrtd:strnlen.obj
 0001:000687c0       ?get_zero_pack@?$__crt_simd_pack_traits@$00@@SA?AT__m256i@@XZ 100697c0 f i libucrtd:strnlen.obj
 0001:000687f0       ?get_zero_pack@?$__crt_simd_pack_traits@$0A@@@SA?AT__m128i@@XZ 100697f0 f i libucrtd:strnlen.obj
 0001:00068820       _strnlen                   10069820 f   libucrtd:strnlen.obj
 0001:00068840       _wcslen                    10069840 f   libucrtd:strnlen.obj
 0001:00068860       _wcsnlen                   10069860 f   libucrtd:strnlen.obj
 0001:00068880       ??$__crt_fast_decode_pointer@P6AXPB_W00II@Z@@YAP6AXPB_W00II@ZQ6AX000II@Z@Z 10069880 f i libucrtd:invalid_parameter.obj
 0001:000688b0       ??$__crt_fast_encode_pointer@P6AXPB_W00II@Z@@YAP6AXPB_W00II@ZQ6AX000II@Z@Z 100698b0 f i libucrtd:invalid_parameter.obj
 0001:000688e0       ??$initialize_from_array@$$BY00Q6AXPB_W00II@Z@?$dual_state_global@P6AXPB_W00II@Z@__crt_state_management@@QAAXAAY00Q6AXPB_W00II@Z@Z 100698e0 f i libucrtd:invalid_parameter.obj
 0001:00068930       ?__crt_rotate_pointer_value@@YAIIH@Z 10069930 f i libucrtd:invalid_parameter.obj
 0001:00068940       ?dangerous_get_state_array@?$dual_state_global@P6AXPB_W00II@Z@__crt_state_management@@QAEPAP6AXPB_W00II@ZXZ 10069940 f i libucrtd:invalid_parameter.obj
 0001:00068950       ?get_current_state_index@__crt_state_management@@YAIXZ 10069950 f i libucrtd:invalid_parameter.obj
 0001:00068960       ?value@?$dual_state_global@P6AXPB_W00II@Z@__crt_state_management@@QAEAAP6AXPB_W00II@ZXZ 10069960 f i libucrtd:invalid_parameter.obj
 0001:00068980       ___acrt_call_reportfault   10069980 f   libucrtd:invalid_parameter.obj
 0001:00068ae0       ___acrt_initialize_invalid_parameter_handler 10069ae0 f   libucrtd:invalid_parameter.obj
 0001:00068b10       __get_invalid_parameter_handler 10069b10 f   libucrtd:invalid_parameter.obj
 0001:00068b30       __get_thread_local_invalid_parameter_handler 10069b30 f   libucrtd:invalid_parameter.obj
 0001:00068b60       __invalid_parameter        10069b60 f   libucrtd:invalid_parameter.obj
 0001:00068c20       __invalid_parameter_noinfo 10069c20 f   libucrtd:invalid_parameter.obj
 0001:00068c40       __invalid_parameter_noinfo_noreturn 10069c40 f   libucrtd:invalid_parameter.obj
 0001:00068c70       __invoke_watson            10069c70 f   libucrtd:invalid_parameter.obj
 0001:00068cb0       __set_invalid_parameter_handler 10069cb0 f   libucrtd:invalid_parameter.obj
 0001:00068d00       __set_thread_local_invalid_parameter_handler 10069d00 f   libucrtd:invalid_parameter.obj
 0001:00068d30       ___acrt_errno_from_os_error 10069d30 f   libucrtd:errno.obj
 0001:00068db0       ___acrt_errno_map_os_error 10069db0 f   libucrtd:errno.obj
 0001:00068de0       ___doserrno                10069de0 f   libucrtd:errno.obj
 0001:00068e10       __errno                    10069e10 f   libucrtd:errno.obj
 0001:00068e40       __get_doserrno             10069e40 f   libucrtd:errno.obj
 0001:00068ed0       __get_errno                10069ed0 f   libucrtd:errno.obj
 0001:00068f60       __set_doserrno             10069f60 f   libucrtd:errno.obj
 0001:00068f90       __set_errno                10069f90 f   libucrtd:errno.obj
 0001:00068fc0       _calloc                    10069fc0 f   libucrtd:calloc.obj
 0001:00068fe0       __recalloc                 10069fe0 f   libucrtd:recalloc.obj
 0001:00069010       __recalloc_base            1006a010 f   libucrtd:recalloc.obj
 0001:000690aa       __resetstkoflw             1006a0aa f   libucrtd:resetstk.obj
 0001:00069590       _wcscat_s                  1006a590 f   libucrtd:wcscat_s.obj
 0001:000699e0       _wcsncpy_s                 1006a9e0 f   libucrtd:wcsncpy_s.obj
 0001:00069b20       ___isascii                 1006ab20 f   libucrtd:_ctype.obj
 0001:00069b50       ___iscsym                  1006ab50 f   libucrtd:_ctype.obj
 0001:00069b90       ___iscsymf                 1006ab90 f   libucrtd:_ctype.obj
 0001:00069bd0       ___toascii                 1006abd0 f   libucrtd:_ctype.obj
 0001:00069be0       __isalnum_l                1006abe0 f   libucrtd:_ctype.obj
 0001:00069c00       __isalpha_l                1006ac00 f   libucrtd:_ctype.obj
 0001:00069c20       __isblank_l                1006ac20 f   libucrtd:_ctype.obj
 0001:00069c40       __iscntrl_l                1006ac40 f   libucrtd:_ctype.obj
 0001:00069c60       __iscsym_l                 1006ac60 f   libucrtd:_ctype.obj
 0001:00069ca0       __iscsymf_l                1006aca0 f   libucrtd:_ctype.obj
 0001:00069ce0       __isdigit_l                1006ace0 f   libucrtd:_ctype.obj
 0001:00069d00       __isgraph_l                1006ad00 f   libucrtd:_ctype.obj
 0001:00069d20       __islower_l                1006ad20 f   libucrtd:_ctype.obj
 0001:00069d40       __isprint_l                1006ad40 f   libucrtd:_ctype.obj
 0001:00069d60       __ispunct_l                1006ad60 f   libucrtd:_ctype.obj
 0001:00069d80       __isspace_l                1006ad80 f   libucrtd:_ctype.obj
 0001:00069da0       __isupper_l                1006ada0 f   libucrtd:_ctype.obj
 0001:00069dc0       __isxdigit_l               1006adc0 f   libucrtd:_ctype.obj
 0001:00069de0       _isalnum                   1006ade0 f   libucrtd:_ctype.obj
 0001:00069e00       _isalpha                   1006ae00 f   libucrtd:_ctype.obj
 0001:00069e20       _isblank                   1006ae20 f   libucrtd:_ctype.obj
 0001:00069e50       _iscntrl                   1006ae50 f   libucrtd:_ctype.obj
 0001:00069e70       _isdigit                   1006ae70 f   libucrtd:_ctype.obj
 0001:00069e90       _isgraph                   1006ae90 f   libucrtd:_ctype.obj
 0001:00069eb0       _islower                   1006aeb0 f   libucrtd:_ctype.obj
 0001:00069ed0       _isprint                   1006aed0 f   libucrtd:_ctype.obj
 0001:00069ef0       _ispunct                   1006aef0 f   libucrtd:_ctype.obj
 0001:00069f10       _isspace                   1006af10 f   libucrtd:_ctype.obj
 0001:00069f30       _isupper                   1006af30 f   libucrtd:_ctype.obj
 0001:00069f50       _isxdigit                  1006af50 f   libucrtd:_ctype.obj
 0001:00069f70       _wcscat                    1006af70 f   libucrtd:wcscat.obj
 0001:00069fd0       _wcscpy                    1006afd0 f   libucrtd:wcscpy.obj
 0001:0006a660       ??$open_file@ABQBDABQBDABHPAU_iobuf@@@?$__crt_char_traits@D@@SAPAU_iobuf@@ABQBD0ABH$$QAPAU1@@Z 1006b660 f i libucrtd:fopen.obj
 0001:0006a690       ??$open_file@ABQB_WABQB_WABHPAU_iobuf@@@?$__crt_char_traits@_W@@SAPAU_iobuf@@ABQB_W0ABH$$QAPAU1@@Z 1006b690 f i libucrtd:fopen.obj
 0001:0006a6c0       ?unlock@__crt_stdio_stream@@QBEXXZ 1006b6c0 f i libucrtd:fopen.obj
 0001:0006a6e0       __fsopen                   1006b6e0 f   libucrtd:fopen.obj
 0001:0006a700       __wfopen                   1006b700 f   libucrtd:fopen.obj
 0001:0006a720       __wfopen_s                 1006b720 f   libucrtd:fopen.obj
 0001:0006a740       __wfsopen                  1006b740 f   libucrtd:fopen.obj
 0001:0006a760       _fopen                     1006b760 f   libucrtd:fopen.obj
 0001:0006a780       _fopen_s                   1006b780 f   libucrtd:fopen.obj
 0001:0006a7a0       ?is_in_use@__crt_stdio_stream@@QBE_NXZ 1006b7a0 f i libucrtd:fclose.obj
 0001:0006a7e0       __fclose_nolock            1006b7e0 f   libucrtd:fclose.obj
 0001:0006a920       _fclose                    1006b920 f   libucrtd:fclose.obj
 0001:0006aa70       __fputc_nolock             1006ba70 f   libucrtd:fputc.obj
 0001:0006ab00       __fputchar                 1006bb00 f   libucrtd:fputc.obj
 0001:0006ab20       __putc_nolock              1006bb20 f   libucrtd:fputc.obj
 0001:0006ab40       _fputc                     1006bb40 f   libucrtd:fputc.obj
 0001:0006ad80       _putc                      1006bd80 f   libucrtd:fputc.obj
 0001:0006ada0       _putchar                   1006bda0 f   libucrtd:fputc.obj
 0001:0006ae10       __seh_filter_dll           1006be10 f   libucrtd:exception_filter.obj
 0001:0006ae40       __seh_filter_exe           1006be40 f   libucrtd:exception_filter.obj
 0001:0006b050       ??$?B$$A6GXPAXK0@Z@__crt_fast_encoded_nullptr_t@@QBEP6GXPAXK0@ZXZ 1006c050 f i libucrtd:exit.obj
 0001:0006b130       ??$__crt_fast_decode_pointer@P6GXPAXK0@Z@@YAP6GXPAXK0@ZQ6GX0K0@Z@Z 1006c130 f i libucrtd:exit.obj
 0001:0006b160       ??$__crt_fast_encode_pointer@P6GXPAXK0@Z@@YAP6GXPAXK0@ZQ6GX0K0@Z@Z 1006c160 f i libucrtd:exit.obj
 0001:0006b190       ??$__crt_get_proc_address@P6GXI@Z@@YAP6GXI@ZQAUHINSTANCE__@@QBD@Z 1006c190 f i libucrtd:exit.obj
 0001:0006b220       ??0?$__crt_unique_handle_t@U__crt_hmodule_traits@@@@QAE@QAUHINSTANCE__@@@Z 1006c220 f i libucrtd:exit.obj
 0001:0006b240       ??1?$__crt_unique_handle_t@U__crt_hmodule_traits@@@@QAE@XZ 1006c240 f i libucrtd:exit.obj
 0001:0006b400       ?__acrt_select_exit_lock@@YA?AW4__acrt_lock_id@@XZ 1006c400 f i libucrtd:exit.obj
 0001:0006b410       ?__crt_fast_encode_pointer@@YA?AU__crt_fast_encoded_nullptr_t@@$$T@Z 1006c410 f i libucrtd:exit.obj
 0001:0006b440       ?close@?$__crt_unique_handle_t@U__crt_hmodule_traits@@@@QAEXXZ 1006c440 f i libucrtd:exit.obj
 0001:0006b480       ?close@__crt_hmodule_traits@@SA_NPAUHINSTANCE__@@@Z 1006c480 f i libucrtd:exit.obj
 0001:0006b570       ?get@?$__crt_unique_handle_t@U__crt_hmodule_traits@@@@QBEPAUHINSTANCE__@@XZ 1006c570 f i libucrtd:exit.obj
 0001:0006b590       ?get_address_of@?$__crt_unique_handle_t@U__crt_hmodule_traits@@@@QAEPAPAUHINSTANCE__@@XZ 1006c590 f i libucrtd:exit.obj
 0001:0006b5a0       ?get_invalid_value@__crt_hmodule_traits@@SAPAUHINSTANCE__@@XZ 1006c5a0 f i libucrtd:exit.obj
 0001:0006b720       __Exit                     1006c720 f   libucrtd:exit.obj
 0001:0006b740       ___acrt_initialize_thread_local_exit_callback 1006c740 f   libucrtd:exit.obj
 0001:0006b750       __c_exit                   1006c750 f   libucrtd:exit.obj
 0001:0006b770       __cexit                    1006c770 f   libucrtd:exit.obj
 0001:0006b790       __exit                     1006c790 f   libucrtd:exit.obj
 0001:0006b7b0       __is_c_termination_complete 1006c7b0 f   libucrtd:exit.obj
 0001:0006b7d0       __register_thread_local_exe_atexit_callback 1006c7d0 f   libucrtd:exit.obj
 0001:0006b810       _exit                      1006c810 f   libucrtd:exit.obj
 0001:0006b830       _quick_exit                1006c830 f   libucrtd:exit.obj
 0001:0006b850       ??$?RE@__crt_internal_free_policy@@QBEXQBE@Z 1006c850 f i libucrtd:argv_parsing.obj
 0001:0006b870       ??$?RPAD@__crt_internal_free_policy@@QBEXQBQAD@Z 1006c870 f i libucrtd:argv_parsing.obj
 0001:0006b890       ??$?RPA_W@__crt_internal_free_policy@@QBEXQBQA_W@Z 1006c890 f i libucrtd:argv_parsing.obj
 0001:0006bdf0       ??$get_module_file_name@$$TAAY0BAF@DH@?$__crt_char_traits@D@@SAK$$QA$$TAAY0BAF@D$$QAH@Z 1006cdf0 f i libucrtd:argv_parsing.obj
 0001:0006be10       ??$get_module_file_name@$$TAAY0BAF@_WH@?$__crt_char_traits@_W@@SAK$$QA$$TAAY0BAF@_W$$QAH@Z 1006ce10 f i libucrtd:argv_parsing.obj
 0001:0006c530       ??$set_program_name@PAD@?$__crt_char_traits@D@@SAX$$QAPAD@Z 1006d530 f i libucrtd:argv_parsing.obj
 0001:0006c550       ??$set_program_name@PA_W@?$__crt_char_traits@_W@@SAX$$QAPA_W@Z 1006d550 f i libucrtd:argv_parsing.obj
 0001:0006c5b0       ??0?$__crt_unique_heap_ptr@EU__crt_internal_free_policy@@@@QAE@QAE@Z 1006d5b0 f i libucrtd:argv_parsing.obj
 0001:0006c5d0       ??0?$__crt_unique_heap_ptr@PADU__crt_internal_free_policy@@@@QAE@QAPAD@Z 1006d5d0 f i libucrtd:argv_parsing.obj
 0001:0006c5f0       ??0?$__crt_unique_heap_ptr@PA_WU__crt_internal_free_policy@@@@QAE@QAPA_W@Z 1006d5f0 f i libucrtd:argv_parsing.obj
 0001:0006c610       ??1?$__crt_unique_heap_ptr@EU__crt_internal_free_policy@@@@QAE@XZ 1006d610 f i libucrtd:argv_parsing.obj
 0001:0006c630       ??1?$__crt_unique_heap_ptr@PADU__crt_internal_free_policy@@@@QAE@XZ 1006d630 f i libucrtd:argv_parsing.obj
 0001:0006c650       ??1?$__crt_unique_heap_ptr@PA_WU__crt_internal_free_policy@@@@QAE@XZ 1006d650 f i libucrtd:argv_parsing.obj
 0001:0006c670       ??B?$__crt_unique_heap_ptr@EU__crt_internal_free_policy@@@@QBE_NXZ 1006d670 f i libucrtd:argv_parsing.obj
 0001:0006c730       ?detach@?$__crt_unique_heap_ptr@EU__crt_internal_free_policy@@@@QAEPAEXZ 1006d730 f i libucrtd:argv_parsing.obj
 0001:0006c760       ?detach@?$__crt_unique_heap_ptr@PADU__crt_internal_free_policy@@@@QAEPAPADXZ 1006d760 f i libucrtd:argv_parsing.obj
 0001:0006c790       ?detach@?$__crt_unique_heap_ptr@PA_WU__crt_internal_free_policy@@@@QAEPAPA_WXZ 1006d790 f i libucrtd:argv_parsing.obj
 0001:0006c820       ?get@?$__crt_unique_heap_ptr@EU__crt_internal_free_policy@@@@QBEPAEXZ 1006d820 f i libucrtd:argv_parsing.obj
 0001:0006c840       ?get@?$__crt_unique_heap_ptr@PADU__crt_internal_free_policy@@@@QBEPAPADXZ 1006d840 f i libucrtd:argv_parsing.obj
 0001:0006c860       ?get@?$__crt_unique_heap_ptr@PA_WU__crt_internal_free_policy@@@@QBEPAPA_WXZ 1006d860 f i libucrtd:argv_parsing.obj
 0001:0006c880       ?get_address_of@?$__crt_unique_heap_ptr@PADU__crt_internal_free_policy@@@@QAEPAPAPADXZ 1006d880 f i libucrtd:argv_parsing.obj
 0001:0006c890       ?get_address_of@?$__crt_unique_heap_ptr@PA_WU__crt_internal_free_policy@@@@QAEPAPAPA_WXZ 1006d890 f i libucrtd:argv_parsing.obj
 0001:0006c8e0       ?is_valid@?$__crt_unique_heap_ptr@EU__crt_internal_free_policy@@@@QBE_NXZ 1006d8e0 f i libucrtd:argv_parsing.obj
 0001:0006c910       ?release@?$__crt_unique_heap_ptr@EU__crt_internal_free_policy@@@@QAEXXZ 1006d910 f i libucrtd:argv_parsing.obj
 0001:0006c940       ?release@?$__crt_unique_heap_ptr@PADU__crt_internal_free_policy@@@@QAEXXZ 1006d940 f i libucrtd:argv_parsing.obj
 0001:0006c970       ?release@?$__crt_unique_heap_ptr@PA_WU__crt_internal_free_policy@@@@QAEXXZ 1006d970 f i libucrtd:argv_parsing.obj
 0001:0006c9e0       ___acrt_allocate_buffer_for_argv 1006d9e0 f   libucrtd:argv_parsing.obj
 0001:0006caa0       __configure_narrow_argv    1006daa0 f   libucrtd:argv_parsing.obj
 0001:0006cac0       __configure_wide_argv      1006dac0 f   libucrtd:argv_parsing.obj
 0001:0006cae0       __set_pgmptr               1006dae0 f i libucrtd:argv_parsing.obj
 0001:0006caf0       __set_wpgmptr              1006daf0 f i libucrtd:argv_parsing.obj
 0001:0006caff       ??$?R_W@__crt_internal_free_policy@@QBEXQB_W@Z 1006daff f i libucrtd:environment_initialization.obj
 0001:0006cf68       ??$get_environment_from_os@$$V@?$__crt_char_traits@D@@SAPADXZ 1006df68 f i libucrtd:environment_initialization.obj
 0001:0006cf6d       ??$get_environment_from_os@$$V@?$__crt_char_traits@_W@@SAPA_WXZ 1006df6d f i libucrtd:environment_initialization.obj
 0001:0006d096       ??$set_variable_in_environment_nolock@PADH@?$__crt_char_traits@D@@SAH$$QAPAD$$QAH@Z 1006e096 f i libucrtd:environment_initialization.obj
 0001:0006d0ae       ??$set_variable_in_environment_nolock@PA_WH@?$__crt_char_traits@_W@@SAH$$QAPA_W$$QAH@Z 1006e0ae f i libucrtd:environment_initialization.obj
 0001:0006d0c6       ??$tcscpy_s@PADABIAAPAD@?$__crt_char_traits@D@@SAH$$QAPADABIAAPAD@Z 1006e0c6 f i libucrtd:environment_initialization.obj
 0001:0006d0e4       ??$tcscpy_s@PA_WABIAAPA_W@?$__crt_char_traits@_W@@SAH$$QAPA_WABIAAPA_W@Z 1006e0e4 f i libucrtd:environment_initialization.obj
 0001:0006d102       ??$tcslen@AAPAD@?$__crt_char_traits@D@@SAIAAPAD@Z 1006e102 f i libucrtd:environment_initialization.obj
 0001:0006d11a       ??$tcslen@AAPA_W@?$__crt_char_traits@_W@@SAIAAPA_W@Z 1006e11a f i libucrtd:environment_initialization.obj
 0001:0006d138       ??$uninitialize@A6AXAAPAPAD@Z@?$dual_state_global@PAPAD@__crt_state_management@@QAEXA6AXAAPAPAD@Z@Z 1006e138 f i libucrtd:environment_initialization.obj
 0001:0006d161       ??$uninitialize@A6AXAAPAPA_W@Z@?$dual_state_global@PAPA_W@__crt_state_management@@QAEXA6AXAAPAPA_W@Z@Z 1006e161 f i libucrtd:environment_initialization.obj
 0001:0006d1c0       ??0?$__crt_unique_heap_ptr@_WU__crt_internal_free_policy@@@@QAE@QA_W@Z 1006e1c0 f i libucrtd:environment_initialization.obj
 0001:0006d1d0       ??1?$__crt_unique_heap_ptr@_WU__crt_internal_free_policy@@@@QAE@XZ 1006e1d0 f i libucrtd:environment_initialization.obj
 0001:0006d1e5       ??B?$__crt_unique_heap_ptr@PADU__crt_internal_free_policy@@@@QBE_NXZ 1006e1e5 f i libucrtd:environment_initialization.obj
 0001:0006d1ec       ??B?$__crt_unique_heap_ptr@PA_WU__crt_internal_free_policy@@@@QBE_NXZ 1006e1ec f i libucrtd:environment_initialization.obj
 0001:0006d1f3       ??B?$__crt_unique_heap_ptr@_WU__crt_internal_free_policy@@@@QBE_NXZ 1006e1f3 f i libucrtd:environment_initialization.obj
 0001:0006d1fa       ?__crt_compute_required_transform_buffer_count@@YAIIQBD@Z 1006e1fa f i libucrtd:environment_initialization.obj
 0001:0006d216       ?__crt_compute_required_transform_buffer_count@@YAIIQB_W@Z 1006e216 f i libucrtd:environment_initialization.obj
 0001:0006d234       ?__crt_transform_string@@YAIIQBDQA_WI@Z 1006e234 f i libucrtd:environment_initialization.obj
 0001:0006d253       ?__crt_transform_string@@YAIIQB_WQADI@Z 1006e253 f i libucrtd:environment_initialization.obj
 0001:0006d275       ?detach@?$__crt_unique_heap_ptr@DU__crt_internal_free_policy@@@@QAEPADXZ 1006e275 f i libucrtd:environment_initialization.obj
 0001:0006d27b       ?detach@?$__crt_unique_heap_ptr@_WU__crt_internal_free_policy@@@@QAEPA_WXZ 1006e27b f i libucrtd:environment_initialization.obj
 0001:0006d281       ?get@?$__crt_unique_heap_ptr@_WU__crt_internal_free_policy@@@@QBEPA_WXZ 1006e281 f i libucrtd:environment_initialization.obj
 0001:0006d2a8       ?initialize@?$dual_state_global@PAPAD@__crt_state_management@@QAEXQAPAD@Z 1006e2a8 f i libucrtd:environment_initialization.obj
 0001:0006d2ce       ?initialize@?$dual_state_global@PAPA_W@__crt_state_management@@QAEXQAPA_W@Z 1006e2ce f i libucrtd:environment_initialization.obj
 0001:0006d2f4       ?is_valid@?$__crt_unique_heap_ptr@PADU__crt_internal_free_policy@@@@QBE_NXZ 1006e2f4 f i libucrtd:environment_initialization.obj
 0001:0006d2fb       ?is_valid@?$__crt_unique_heap_ptr@PA_WU__crt_internal_free_policy@@@@QBE_NXZ 1006e2fb f i libucrtd:environment_initialization.obj
 0001:0006d302       ?is_valid@?$__crt_unique_heap_ptr@_WU__crt_internal_free_policy@@@@QBE_NXZ 1006e302 f i libucrtd:environment_initialization.obj
 0001:0006d311       ?release@?$__crt_unique_heap_ptr@_WU__crt_internal_free_policy@@@@QAEXXZ 1006e311 f i libucrtd:environment_initialization.obj
 0001:0006d326       ?value@?$dual_state_global@PAPAD@__crt_state_management@@QAEAAPAPADXZ 1006e326 f i libucrtd:environment_initialization.obj
 0001:0006d329       ?value@?$dual_state_global@PAPA_W@__crt_state_management@@QAEAAPAPA_WXZ 1006e329 f i libucrtd:environment_initialization.obj
 0001:0006d32c       ___dcrt_get_or_create_narrow_environment_nolock 1006e32c f   libucrtd:environment_initialization.obj
 0001:0006d331       ___dcrt_get_or_create_wide_environment_nolock 1006e331 f   libucrtd:environment_initialization.obj
 0001:0006d336       ___dcrt_uninitialize_environments_nolock 1006e336 f   libucrtd:environment_initialization.obj
 0001:0006d36d       ___p__environ              1006e36d f   libucrtd:environment_initialization.obj
 0001:0006d373       ___p__wenviron             1006e373 f   libucrtd:environment_initialization.obj
 0001:0006d379       __get_initial_narrow_environment 1006e379 f   libucrtd:environment_initialization.obj
 0001:0006d38d       __get_initial_wide_environment 1006e38d f   libucrtd:environment_initialization.obj
 0001:0006d3a1       __initialize_narrow_environment 1006e3a1 f   libucrtd:environment_initialization.obj
 0001:0006d3a6       __initialize_wide_environment 1006e3a6 f   libucrtd:environment_initialization.obj
 0001:0006d3b0       ??$?B$$A6AXXZ@__crt_fast_encoded_nullptr_t@@QBEP6AXXZXZ 1006e3b0 f i libucrtd:onexit.obj
 0001:0006d3d0       ??$?BP6AXXZ@__crt_fast_encoded_nullptr_t@@QBEPAP6AXXZXZ 1006e3d0 f i libucrtd:onexit.obj
 0001:0006d3f0       ??$?RP6AXXZ@__crt_internal_free_policy@@QBEXQBQ6AXXZ@Z 1006e3f0 f i libucrtd:onexit.obj
 0001:0006d5b0       ??$__crt_fast_decode_pointer@P6AXXZ@@YAP6AXXZQ6AXXZ@Z 1006e5b0 f i libucrtd:onexit.obj
 0001:0006d5e0       ??$__crt_fast_decode_pointer@PAP6AXXZ@@YAPAP6AXXZQAP6AXXZ@Z 1006e5e0 f i libucrtd:onexit.obj
 0001:0006d610       ??$__crt_fast_encode_pointer@P6AHXZ@@YAP6AHXZQ6AHXZ@Z 1006e610 f i libucrtd:onexit.obj
 0001:0006d640       ??$__crt_fast_encode_pointer@P6AXXZ@@YAP6AXXZQ6AXXZ@Z 1006e640 f i libucrtd:onexit.obj
 0001:0006d670       ??$__crt_fast_encode_pointer@PAP6AXXZ@@YAPAP6AXXZQAP6AXXZ@Z 1006e670 f i libucrtd:onexit.obj
 0001:0006d770       ??0?$__crt_unique_heap_ptr@P6AXXZU__crt_internal_free_policy@@@@QAE@QAP6AXXZ@Z 1006e770 f i libucrtd:onexit.obj
 0001:0006d790       ??1?$__crt_unique_heap_ptr@P6AXXZU__crt_internal_free_policy@@@@QAE@XZ 1006e790 f i libucrtd:onexit.obj
 0001:0006d7b0       ??1scoped_global_state_reset@__crt_state_management@@QAE@XZ 1006e7b0 f i libucrtd:onexit.obj
 0001:0006dc20       ?detach@?$__crt_unique_heap_ptr@P6AXXZU__crt_internal_free_policy@@@@QAEPAP6AXXZXZ 1006ec20 f i libucrtd:onexit.obj
 0001:0006dc50       ?release@?$__crt_unique_heap_ptr@P6AXXZU__crt_internal_free_policy@@@@QAEXXZ 1006ec50 f i libucrtd:onexit.obj
 0001:0006dc80       __crt_at_quick_exit        1006ec80 f   libucrtd:onexit.obj
 0001:0006dca0       __crt_atexit               1006eca0 f   libucrtd:onexit.obj
 0001:0006dcc0       __execute_onexit_table     1006ecc0 f   libucrtd:onexit.obj
 0001:0006dcf0       __initialize_onexit_table  1006ecf0 f   libucrtd:onexit.obj
 0001:0006dd50       __register_onexit_function 1006ed50 f   libucrtd:onexit.obj
 0001:0006df90       ??$?BX@__crt_fast_encoded_nullptr_t@@QBEPAXXZ 1006ef90 f i libucrtd:initialization.obj
 0001:0006dfb0       ??$__crt_fast_encode_pointer@PAX@@YAPAXQAX@Z 1006efb0 f i libucrtd:initialization.obj
 0001:0006e070       ?initialize@?$dual_state_global@PAU__crt_locale_data@@@__crt_state_management@@QAEXQAU__crt_locale_data@@@Z 1006f070 f i libucrtd:initialization.obj
 0001:0006e0b0       ___acrt_initialize         1006f0b0 f   libucrtd:initialization.obj
 0001:0006e0d0       ___acrt_thread_attach      1006f0d0 f   libucrtd:initialization.obj
 0001:0006e0f0       ___acrt_thread_detach      1006f0f0 f   libucrtd:initialization.obj
 0001:0006e100       ___acrt_uninitialize       1006f100 f   libucrtd:initialization.obj
 0001:0006e120       ___acrt_uninitialize_critical 1006f120 f   libucrtd:initialization.obj
 0001:0006f990       __CrtCheckMemory           10070990 f   libucrtd:debug_heap.obj
 0001:0006fb20       __CrtDoForAllClientObjects 10070b20 f   libucrtd:debug_heap.obj
 0001:0006fc70       __CrtDumpMemoryLeaks       10070c70 f   libucrtd:debug_heap.obj
 0001:0006fd10       __CrtGetAllocHook          10070d10 f   libucrtd:debug_heap.obj
 0001:0006fd20       __CrtGetDumpClient         10070d20 f   libucrtd:debug_heap.obj
 0001:0006fd30       __CrtIsMemoryBlock         10070d30 f   libucrtd:debug_heap.obj
 0001:0006fe80       __CrtIsValidHeapPointer    10070e80 f   libucrtd:debug_heap.obj
 0001:0006feb0       __CrtIsValidPointer        10070eb0 f   libucrtd:debug_heap.obj
 0001:0006fee0       __CrtMemCheckpoint         10070ee0 f   libucrtd:debug_heap.obj
 0001:00070110       __CrtMemDifference         10071110 f   libucrtd:debug_heap.obj
 0001:00070380       __CrtMemDumpAllObjectsSince 10071380 f   libucrtd:debug_heap.obj
 0001:00070420       __CrtMemDumpStatistics     10071420 f   libucrtd:debug_heap.obj
 0001:00070550       __CrtReportBlockType       10071550 f   libucrtd:debug_heap.obj
 0001:00070580       __CrtSetAllocHook          10071580 f   libucrtd:debug_heap.obj
 0001:000705a0       __CrtSetBreakAlloc         100715a0 f   libucrtd:debug_heap.obj
 0001:000705c0       __CrtSetDbgBlockType       100715c0 f   libucrtd:debug_heap.obj
 0001:000706a0       __CrtSetDbgFlag            100716a0 f   libucrtd:debug_heap.obj
 0001:00070810       __CrtSetDumpClient         10071810 f   libucrtd:debug_heap.obj
 0001:00070830       ___acrt_get_locale_data_prefix 10071830 f i libucrtd:debug_heap.obj
 0001:00070850       ___p__crtBreakAlloc        10071850 f   libucrtd:debug_heap.obj
 0001:00070860       ___p__crtDbgFlag           10071860 f   libucrtd:debug_heap.obj
 0001:00070870       __aligned_free_dbg         10071870 f   libucrtd:debug_heap.obj
 0001:00070920       __aligned_malloc_dbg       10071920 f   libucrtd:debug_heap.obj
 0001:00070950       __aligned_msize_dbg        10071950 f   libucrtd:debug_heap.obj
 0001:00070a80       __aligned_offset_malloc_dbg 10071a80 f   libucrtd:debug_heap.obj
 0001:00070c60       __aligned_offset_realloc_dbg 10071c60 f   libucrtd:debug_heap.obj
 0001:00070f70       __aligned_offset_recalloc_dbg 10071f70 f   libucrtd:debug_heap.obj
 0001:00071030       __aligned_realloc_dbg      10072030 f   libucrtd:debug_heap.obj
 0001:00071060       __aligned_recalloc_dbg     10072060 f   libucrtd:debug_heap.obj
 0001:00071090       __calloc_dbg               10072090 f   libucrtd:debug_heap.obj
 0001:00071100       __chvalidchk_l             10072100 f i libucrtd:debug_heap.obj
 0001:00071120       __expand_dbg               10072120 f   libucrtd:debug_heap.obj
 0001:00071250       __free_dbg                 10072250 f   libucrtd:debug_heap.obj
 0001:00071300       __ischartype_l             10072300 f i libucrtd:debug_heap.obj
 0001:00071380       __malloc_dbg               10072380 f   libucrtd:debug_heap.obj
 0001:000713a0       __msize_dbg                100723a0 f   libucrtd:debug_heap.obj
 0001:00071530       __realloc_dbg              10072530 f   libucrtd:debug_heap.obj
 0001:000715d0       __recalloc_dbg             100725d0 f   libucrtd:debug_heap.obj
 0001:00071680       __initterm                 10072680 f   libucrtd:initterm.obj
 0001:000716d0       __initterm_e               100726d0 f   libucrtd:initterm.obj
 0001:00071a40       _strcpy_s                  10072a40 f   libucrtd:strcpy_s.obj
 0001:00071e70       _strcat_s                  10072e70 f   libucrtd:strcat_s.obj
 0001:00071e90       ??$?B$$A6AHI@Z@__crt_fast_encoded_nullptr_t@@QBEP6AHI@ZXZ 10072e90 f i libucrtd:new_handler.obj
 0001:00071eb0       ??$__crt_fast_decode_pointer@P6AHI@Z@@YAP6AHI@ZQ6AHI@Z@Z 10072eb0 f i libucrtd:new_handler.obj
 0001:00071ee0       ??$__crt_fast_encode_pointer@P6AHI@Z@@YAP6AHI@ZQ6AHI@Z@Z 10072ee0 f i libucrtd:new_handler.obj
 0001:00071f10       ?_set_new_handler@@YAP6AHI@ZH@Z 10072f10 f   libucrtd:new_handler.obj
 0001:00071f70       ?initialize@?$dual_state_global@P6AHI@Z@__crt_state_management@@QAEXQ6AHI@Z@Z 10072f70 f i libucrtd:new_handler.obj
 0001:00071fb0       ?value@?$dual_state_global@P6AHI@Z@__crt_state_management@@QAEAAP6AHI@ZXZ 10072fb0 f i libucrtd:new_handler.obj
 0001:00071fd0       ___acrt_initialize_new_handler 10072fd0 f   libucrtd:new_handler.obj
 0001:00071ff0       __callnewh                 10072ff0 f   libucrtd:new_handler.obj
 0001:00072030       __query_new_handler        10073030 f   libucrtd:new_handler.obj
 0001:000720c0       __set_new_handler          100730c0 f   libucrtd:new_handler.obj
 0001:000721a0       __get_terminate            100731a0 f   libucrtd:terminate.obj
 0001:000721c0       _set_terminate             100731c0 f   libucrtd:terminate.obj
 0001:000721f0       _terminate                 100731f0 f   libucrtd:terminate.obj
 0001:00072bc0       __makepath                 10073bc0 f   libucrtd:makepath.obj
 0001:00072bf0       __makepath_s               10073bf0 f   libucrtd:makepath.obj
 0001:00072c20       __wmakepath                10073c20 f   libucrtd:makepath.obj
 0001:00072c50       __wmakepath_s              10073c50 f   libucrtd:makepath.obj
 0001:000745a0       ??$tcsncpy_s@AAPADIAAPBDABI@?$__crt_char_traits@D@@SAHAAPAD$$QAIAAPBDABI@Z 100755a0 f i libucrtd:splitpath.obj
 0001:000745d0       ??$tcsncpy_s@AAPADIAAPBDH@?$__crt_char_traits@D@@SAHAAPAD$$QAIAAPBD$$QAH@Z 100755d0 f i libucrtd:splitpath.obj
 0001:00074600       ??$tcsncpy_s@AAPA_WIAAPB_WABI@?$__crt_char_traits@_W@@SAHAAPA_W$$QAIAAPB_WABI@Z 10075600 f i libucrtd:splitpath.obj
 0001:00074630       ??$tcsncpy_s@AAPA_WIAAPB_WH@?$__crt_char_traits@_W@@SAHAAPA_W$$QAIAAPB_W$$QAH@Z 10075630 f i libucrtd:splitpath.obj
 0001:00074870       __splitpath                10075870 f   libucrtd:splitpath.obj
 0001:000748a0       __splitpath_s              100758a0 f   libucrtd:splitpath.obj
 0001:000748f0       __wsplitpath               100758f0 f   libucrtd:splitpath.obj
 0001:00074920       __wsplitpath_s             10075920 f   libucrtd:splitpath.obj
 0001:00074970       __set_abort_behavior       10075970 f   libucrtd:abort.obj
 0001:000749a0       _abort                     100759a0 f   libucrtd:abort.obj
 0001:00074a10       _strcmp                    10075a10 f   libucrtd:strcmp.obj
 0001:00074aa0       _strlen                    10075aa0 f   libucrtd:strlen.obj
 0001:00074b30       ??$is_overflow_condition@K@__crt_strtox@@YA_NIK@Z 10075b30 f i libucrtd:atox.obj
 0001:00074b90       ??$is_overflow_condition@_K@__crt_strtox@@YA_NI_K@Z 10075b90 f i libucrtd:atox.obj
 0001:00074c20       ??$make_c_string_character_source@D$$T@__crt_strtox@@YA?AV?$c_string_character_source@D@0@QBD$$T@Z 10075c20 f i libucrtd:atox.obj
 0001:00074c40       ??$make_c_string_character_source@_W$$T@__crt_strtox@@YA?AV?$c_string_character_source@_W@0@QB_W$$T@Z 10075c40 f i libucrtd:atox.obj
 0001:00074c60       ??$parse_integer@KV?$c_string_character_source@D@__crt_strtox@@@__crt_strtox@@YAKQAU__crt_locale_pointers@@V?$c_string_character_source@D@0@H_N@Z 10075c60 f i libucrtd:atox.obj
 0001:00074fd0       ??$parse_integer@KV?$c_string_character_source@_W@__crt_strtox@@@__crt_strtox@@YAKQAU__crt_locale_pointers@@V?$c_string_character_source@_W@0@H_N@Z 10075fd0 f i libucrtd:atox.obj
 0001:00075340       ??$parse_integer@_KV?$c_string_character_source@D@__crt_strtox@@@__crt_strtox@@YA_KQAU__crt_locale_pointers@@V?$c_string_character_source@D@0@H_N@Z 10076340 f i libucrtd:atox.obj
 0001:00075760       ??$parse_integer@_KV?$c_string_character_source@_W@__crt_strtox@@@__crt_strtox@@YA_KQAU__crt_locale_pointers@@V?$c_string_character_source@_W@0@H_N@Z 10076760 f i libucrtd:atox.obj
 0001:00075b90       ??$parse_integer_from_string@JD$$T@__crt_strtox@@YAJQBD$$THQAU__crt_locale_pointers@@@Z 10076b90 f i libucrtd:atox.obj
 0001:00075bd0       ??$parse_integer_from_string@J_W$$T@__crt_strtox@@YAJQB_W$$THQAU__crt_locale_pointers@@@Z 10076bd0 f i libucrtd:atox.obj
 0001:00075c10       ??$parse_integer_from_string@_JD$$T@__crt_strtox@@YA_JQBD$$THQAU__crt_locale_pointers@@@Z 10076c10 f i libucrtd:atox.obj
 0001:00075c50       ??$parse_integer_from_string@_J_W$$T@__crt_strtox@@YA_JQB_W$$THQAU__crt_locale_pointers@@@Z 10076c50 f i libucrtd:atox.obj
 0001:00075c90       ??0?$c_string_character_source@D@__crt_strtox@@QAE@QBDQAPBD@Z 10076c90 f i libucrtd:atox.obj
 0001:00075cd0       ??0?$c_string_character_source@_W@__crt_strtox@@QAE@QB_WQAPB_W@Z 10076cd0 f i libucrtd:atox.obj
 0001:00075d10       ??1?$c_string_character_source@D@__crt_strtox@@QAE@XZ 10076d10 f i libucrtd:atox.obj
 0001:00075d40       ??1?$c_string_character_source@_W@__crt_strtox@@QAE@XZ 10076d40 f i libucrtd:atox.obj
 0001:00075d70       ?get@?$c_string_character_source@D@__crt_strtox@@QAEDXZ 10076d70 f i libucrtd:atox.obj
 0001:00075da0       ?get@?$c_string_character_source@_W@__crt_strtox@@QAE_WXZ 10076da0 f i libucrtd:atox.obj
 0001:00075dd0       ?is_space@__crt_strtox@@YA_NDQAU__crt_locale_pointers@@@Z 10076dd0 f i libucrtd:atox.obj
 0001:00075e10       ?is_space@__crt_strtox@@YA_N_WPAU__crt_locale_pointers@@@Z 10076e10 f i libucrtd:atox.obj
 0001:00075e40       ?maximum_signed_value@__crt_strtox@@YAJK@Z 10076e40 f i libucrtd:atox.obj
 0001:00075e50       ?maximum_signed_value@__crt_strtox@@YA_J_K@Z 10076e50 f i libucrtd:atox.obj
 0001:00075e60       ?minimum_signed_value@__crt_strtox@@YAJK@Z 10076e60 f i libucrtd:atox.obj
 0001:00075e70       ?minimum_signed_value@__crt_strtox@@YA_J_K@Z 10076e70 f i libucrtd:atox.obj
 0001:00075e80       ?parse_digit@__crt_strtox@@YAID@Z 10076e80 f i libucrtd:atox.obj
 0001:00075ee0       ?parse_digit@__crt_strtox@@YAI_W@Z 10076ee0 f i libucrtd:atox.obj
 0001:00075f30       ?restore_state@?$c_string_character_source@D@__crt_strtox@@QAE_NQBD@Z 10076f30 f i libucrtd:atox.obj
 0001:00075f50       ?restore_state@?$c_string_character_source@_W@__crt_strtox@@QAE_NQB_W@Z 10076f50 f i libucrtd:atox.obj
 0001:00075f70       ?save_state@?$c_string_character_source@D@__crt_strtox@@QBEPBDXZ 10076f70 f i libucrtd:atox.obj
 0001:00075f90       ?save_state@?$c_string_character_source@_W@__crt_strtox@@QBEPB_WXZ 10076f90 f i libucrtd:atox.obj
 0001:00075fb0       ?unget@?$c_string_character_source@D@__crt_strtox@@QAEXD@Z 10076fb0 f i libucrtd:atox.obj
 0001:00076060       ?unget@?$c_string_character_source@_W@__crt_strtox@@QAEX_W@Z 10077060 f i libucrtd:atox.obj
 0001:00076110       ?validate@?$c_string_character_source@D@__crt_strtox@@QBE_NXZ 10077110 f i libucrtd:atox.obj
 0001:000761a0       ?validate@?$c_string_character_source@_W@__crt_strtox@@QBE_NXZ 100771a0 f i libucrtd:atox.obj
 0001:00076230       ?wide_character_to_digit@__crt_strtox@@YAH_W@Z 10077230 f i libucrtd:atox.obj
 0001:00076560       ___ascii_iswalpha          10077560 f i libucrtd:atox.obj
 0001:000765a0       ___ascii_toupper           100775a0 f i libucrtd:atox.obj
 0001:000765c0       ___ascii_towupper          100775c0 f i libucrtd:atox.obj
 0001:000765e0       __atoi64                   100775e0 f   libucrtd:atox.obj
 0001:00076600       __atoi64_l                 10077600 f   libucrtd:atox.obj
 0001:00076620       __atoi_l                   10077620 f   libucrtd:atox.obj
 0001:00076640       __atol_l                   10077640 f   libucrtd:atox.obj
 0001:00076660       __atoll_l                  10077660 f   libucrtd:atox.obj
 0001:00076680       __wtoi                     10077680 f   libucrtd:atox.obj
 0001:000766a0       __wtoi64                   100776a0 f   libucrtd:atox.obj
 0001:000766c0       __wtoi64_l                 100776c0 f   libucrtd:atox.obj
 0001:000766e0       __wtoi_l                   100776e0 f   libucrtd:atox.obj
 0001:00076700       __wtol                     10077700 f   libucrtd:atox.obj
 0001:00076720       __wtol_l                   10077720 f   libucrtd:atox.obj
 0001:00076740       __wtoll                    10077740 f   libucrtd:atox.obj
 0001:00076760       __wtoll_l                  10077760 f   libucrtd:atox.obj
 0001:00076780       _atoi                      10077780 f   libucrtd:atox.obj
 0001:000767a0       _atol                      100777a0 f   libucrtd:atox.obj
 0001:000767c0       _atoll                     100777c0 f   libucrtd:atox.obj
 0001:000767e0       _strncmp                   100777e0 f   libucrtd:strncmp.obj
 0001:00076860       _wcsncmp                   10077860 f   libucrtd:wcsncmp.obj
 0001:000768c0       __CrtGetDebugFillThreshold 100778c0 f   libucrtd:debug_fill_threshold.obj
 0001:000768d0       __CrtSetDebugFillThreshold 100778d0 f   libucrtd:debug_fill_threshold.obj
 0001:000768f0       ??$make_c_string_character_source@DPAPAD@__crt_strtox@@YA?AV?$c_string_character_source@D@0@QBDQAPAD@Z 100778f0 f i libucrtd:strtox.obj
 0001:00076910       ??$make_c_string_character_source@_WPAPA_W@__crt_strtox@@YA?AV?$c_string_character_source@_W@0@QB_WQAPA_W@Z 10077910 f i libucrtd:strtox.obj
 0001:00076930       ??$parse_integer_from_string@JDPAPAD@__crt_strtox@@YAJQBDQAPADHQAU__crt_locale_pointers@@@Z 10077930 f i libucrtd:strtox.obj
 0001:00076970       ??$parse_integer_from_string@J_WPAPA_W@__crt_strtox@@YAJQB_WQAPA_WHQAU__crt_locale_pointers@@@Z 10077970 f i libucrtd:strtox.obj
 0001:000769b0       ??$parse_integer_from_string@KDPAPAD@__crt_strtox@@YAKQBDQAPADHQAU__crt_locale_pointers@@@Z 100779b0 f i libucrtd:strtox.obj
 0001:000769f0       ??$parse_integer_from_string@K_WPAPA_W@__crt_strtox@@YAKQB_WQAPA_WHQAU__crt_locale_pointers@@@Z 100779f0 f i libucrtd:strtox.obj
 0001:00076a30       ??$parse_integer_from_string@_JDPAPAD@__crt_strtox@@YA_JQBDQAPADHQAU__crt_locale_pointers@@@Z 10077a30 f i libucrtd:strtox.obj
 0001:00076a70       ??$parse_integer_from_string@_J_WPAPA_W@__crt_strtox@@YA_JQB_WQAPA_WHQAU__crt_locale_pointers@@@Z 10077a70 f i libucrtd:strtox.obj
 0001:00076ab0       ??$parse_integer_from_string@_KDPAPAD@__crt_strtox@@YA_KQBDQAPADHQAU__crt_locale_pointers@@@Z 10077ab0 f i libucrtd:strtox.obj
 0001:00076af0       ??$parse_integer_from_string@_K_WPAPA_W@__crt_strtox@@YA_KQB_WQAPA_WHQAU__crt_locale_pointers@@@Z 10077af0 f i libucrtd:strtox.obj
 0001:00076b30       __strtoi64                 10077b30 f   libucrtd:strtox.obj
 0001:00076b50       __strtoi64_l               10077b50 f   libucrtd:strtox.obj
 0001:00076b70       __strtoimax_l              10077b70 f   libucrtd:strtox.obj
 0001:00076b90       __strtol_l                 10077b90 f   libucrtd:strtox.obj
 0001:00076bb0       __strtoll_l                10077bb0 f   libucrtd:strtox.obj
 0001:00076bd0       __strtoui64                10077bd0 f   libucrtd:strtox.obj
 0001:00076bf0       __strtoui64_l              10077bf0 f   libucrtd:strtox.obj
 0001:00076c10       __strtoul_l                10077c10 f   libucrtd:strtox.obj
 0001:00076c30       __strtoull_l               10077c30 f   libucrtd:strtox.obj
 0001:00076c50       __strtoumax_l              10077c50 f   libucrtd:strtox.obj
 0001:00076c70       __wcstoi64                 10077c70 f   libucrtd:strtox.obj
 0001:00076c90       __wcstoi64_l               10077c90 f   libucrtd:strtox.obj
 0001:00076cb0       __wcstoimax_l              10077cb0 f   libucrtd:strtox.obj
 0001:00076cd0       __wcstol_l                 10077cd0 f   libucrtd:strtox.obj
 0001:00076cf0       __wcstoll_l                10077cf0 f   libucrtd:strtox.obj
 0001:00076d10       __wcstoui64                10077d10 f   libucrtd:strtox.obj
 0001:00076d30       __wcstoui64_l              10077d30 f   libucrtd:strtox.obj
 0001:00076d50       __wcstoul_l                10077d50 f   libucrtd:strtox.obj
 0001:00076d70       __wcstoull_l               10077d70 f   libucrtd:strtox.obj
 0001:00076d90       __wcstoumax_l              10077d90 f   libucrtd:strtox.obj
 0001:00076db0       _strtoimax                 10077db0 f   libucrtd:strtox.obj
 0001:00076dd0       _strtol                    10077dd0 f   libucrtd:strtox.obj
 0001:00076df0       _strtoll                   10077df0 f   libucrtd:strtox.obj
 0001:00076e10       _strtoul                   10077e10 f   libucrtd:strtox.obj
 0001:00076e30       _strtoull                  10077e30 f   libucrtd:strtox.obj
 0001:00076e50       _strtoumax                 10077e50 f   libucrtd:strtox.obj
 0001:00076e70       _wcstoimax                 10077e70 f   libucrtd:strtox.obj
 0001:00076e90       _wcstol                    10077e90 f   libucrtd:strtox.obj
 0001:00076eb0       _wcstoll                   10077eb0 f   libucrtd:strtox.obj
 0001:00076ed0       _wcstoul                   10077ed0 f   libucrtd:strtox.obj
 0001:00076ef0       _wcstoull                  10077ef0 f   libucrtd:strtox.obj
 0001:00076f10       _wcstoumax                 10077f10 f   libucrtd:strtox.obj
 0001:00076f30       __mbtowc_l                 10077f30 f   libucrtd:mbtowc.obj
 0001:00077250       _mbtowc                    10078250 f   libucrtd:mbtowc.obj
 0001:00077270       __wctomb_l                 10078270 f   libucrtd:wctomb.obj
 0001:000772f0       __wctomb_s_l               100782f0 f   libucrtd:wctomb.obj
 0001:000776b0       _wctomb                    100786b0 f   libucrtd:wctomb.obj
 0001:00077700       _wctomb_s                  10078700 f   libucrtd:wctomb.obj
 0001:00077730       ??$?RU__acrt_ptd@@@__crt_internal_free_policy@@QBEXQBU__acrt_ptd@@@Z 10078730 f i libucrtd:per_thread_data.obj
 0001:00077be0       ??0?$__crt_unique_heap_ptr@U__acrt_ptd@@U__crt_internal_free_policy@@@@QAE@QAU__acrt_ptd@@@Z 10078be0 f i libucrtd:per_thread_data.obj
 0001:00077c00       ??0__crt_scoped_get_last_error_reset@@QAE@XZ 10078c00 f i libucrtd:per_thread_data.obj
 0001:00077c20       ??1?$__crt_unique_heap_ptr@U__acrt_ptd@@U__crt_internal_free_policy@@@@QAE@XZ 10078c20 f i libucrtd:per_thread_data.obj
 0001:00077c40       ??1__crt_scoped_get_last_error_reset@@QAE@XZ 10078c40 f i libucrtd:per_thread_data.obj
 0001:00077c60       ??B?$__crt_unique_heap_ptr@U__acrt_ptd@@U__crt_internal_free_policy@@@@QBE_NXZ 10078c60 f i libucrtd:per_thread_data.obj
 0001:00077f40       ?dangerous_get_state_array@?$dual_state_global@PAU__crt_locale_data@@@__crt_state_management@@QAEPAPAU__crt_locale_data@@XZ 10078f40 f i libucrtd:per_thread_data.obj
 0001:000780c0       ?detach@?$__crt_unique_heap_ptr@U__acrt_ptd@@U__crt_internal_free_policy@@@@QAEPAU__acrt_ptd@@XZ 100790c0 f i libucrtd:per_thread_data.obj
 0001:000780f0       ?get@?$__crt_unique_heap_ptr@U__acrt_ptd@@U__crt_internal_free_policy@@@@QBEPAU__acrt_ptd@@XZ 100790f0 f i libucrtd:per_thread_data.obj
 0001:00078110       ?get_current_state_index@__crt_state_management@@YAIABV__crt_scoped_get_last_error_reset@@@Z 10079110 f i libucrtd:per_thread_data.obj
 0001:00078280       ?is_valid@?$__crt_unique_heap_ptr@U__acrt_ptd@@U__crt_internal_free_policy@@@@QBE_NXZ 10079280 f i libucrtd:per_thread_data.obj
 0001:000782b0       ?release@?$__crt_unique_heap_ptr@U__acrt_ptd@@U__crt_internal_free_policy@@@@QAEXXZ 100792b0 f i libucrtd:per_thread_data.obj
 0001:000783a0       ?value@?$dual_state_global@PAU__crt_locale_data@@@__crt_state_management@@QAEAAPAU__crt_locale_data@@XZ 100793a0 f i libucrtd:per_thread_data.obj
 0001:000783c0       ___acrt_freeptd            100793c0 f   libucrtd:per_thread_data.obj
 0001:000783f0       ___acrt_getptd             100793f0 f   libucrtd:per_thread_data.obj
 0001:00078410       ___acrt_getptd_head        10079410 f   libucrtd:per_thread_data.obj
 0001:00078430       ___acrt_getptd_noexit      10079430 f   libucrtd:per_thread_data.obj
 0001:00078440       ___acrt_initialize_ptd     10079440 f   libucrtd:per_thread_data.obj
 0001:00078480       ___acrt_uninitialize_ptd   10079480 f   libucrtd:per_thread_data.obj
 0001:000784b0       ___threadhandle            100794b0 f   libucrtd:per_thread_data.obj
 0001:000784c0       ___threadid                100794c0 f   libucrtd:per_thread_data.obj
 0001:000784d0       ?value@?$dual_state_global@PAU__crt_multibyte_data@@@__crt_state_management@@QAEAAPAU__crt_multibyte_data@@XZ 100794d0 f i libucrtd:locale_update.obj
 0001:000784f0       ___acrt_should_sync_with_global_locale 100794f0 f i libucrtd:locale_update.obj
 0001:00078520       ___acrt_update_locale_info 10079520 f   libucrtd:locale_update.obj
 0001:00078560       ___acrt_update_multibyte_info 10079560 f   libucrtd:locale_update.obj
 0001:000785a0       ?__acrt_fp_classify@@YA?AW4__acrt_fp_class@@ABN@Z 100795a0 f i libucrtd:cvt.obj
 0001:000786c0       ?__acrt_fp_is_negative@@YA_NABN@Z 100796c0 f i libucrtd:cvt.obj
 0001:000799b0       ?strrchr@@YAPADQADH@Z      1007a9b0 f i libucrtd:cvt.obj
 0001:000799d0       ___acrt_fp_format          1007a9d0 f   libucrtd:cvt.obj
 0001:00079e90       __fputwc_nolock            1007ae90 f   libucrtd:fputwc.obj
 0001:0007a080       __fputwchar                1007b080 f   libucrtd:fputwc.obj
 0001:0007a0a0       __putwc_nolock             1007b0a0 f   libucrtd:fputwc.obj
 0001:0007a0c0       _fputwc                    1007b0c0 f   libucrtd:fputwc.obj
 0001:0007a1d0       _putwc                     1007b1d0 f   libucrtd:fputwc.obj
 0001:0007a1f0       _putwchar                  1007b1f0 f   libucrtd:fputwc.obj
 0001:0007a210       ?lowio_handle@__crt_stdio_stream@@QBEHXZ 1007b210 f i libucrtd:fileno.obj
 0001:0007a230       __fileno                   1007b230 f   libucrtd:fileno.obj
 0001:0007a2d0       ??$?RPAU__crt_stdio_stream_data@@@__crt_internal_free_policy@@QBEXQBQAU__crt_stdio_stream_data@@@Z 1007b2d0 f i libucrtd:_file.obj
 0001:0007a2f0       ??0?$__crt_unique_heap_ptr@PAU__crt_stdio_stream_data@@U__crt_internal_free_policy@@@@QAE@QAPAU__crt_stdio_stream_data@@@Z 1007b2f0 f i libucrtd:_file.obj
 0001:0007a310       ??1?$__crt_unique_heap_ptr@PAU__crt_stdio_stream_data@@U__crt_internal_free_policy@@@@QAE@XZ 1007b310 f i libucrtd:_file.obj
 0001:0007a330       ?detach@?$__crt_unique_heap_ptr@PAU__crt_stdio_stream_data@@U__crt_internal_free_policy@@@@QAEPAPAU__crt_stdio_stream_data@@XZ 1007b330 f i libucrtd:_file.obj
 0001:0007a360       ?release@?$__crt_unique_heap_ptr@PAU__crt_stdio_stream_data@@U__crt_internal_free_policy@@@@QAEXXZ 1007b360 f i libucrtd:_file.obj
 0001:0007a390       ___acrt_initialize_stdio   1007b390 f   libucrtd:_file.obj
 0001:0007a500       ___acrt_iob_func           1007b500 f   libucrtd:_file.obj
 0001:0007a510       ___acrt_uninitialize_stdio 1007b510 f   libucrtd:_file.obj
 0001:0007a590       __get_stream_buffer_pointers 1007b590 f   libucrtd:_file.obj
 0001:0007a670       __lock_file                1007b670 f   libucrtd:_file.obj
 0001:0007a6a0       __unlock_file              1007b6a0 f   libucrtd:_file.obj
 0001:0007a6d0       __get_printf_count_output  1007b6d0 f   libucrtd:printf_count_output.obj
 0001:0007a700       __set_printf_count_output  1007b700 f   libucrtd:printf_count_output.obj
 0001:0007a760       ?has_any_buffer@__crt_stdio_stream@@QBE_NXZ 1007b760 f i libucrtd:_sftbuf.obj
 0001:0007a780       ?has_any_of@__crt_stdio_stream@@QBE_NJ@Z 1007b780 f i libucrtd:_sftbuf.obj
 0001:0007a7c0       ?has_temporary_buffer@__crt_stdio_stream@@QBE_NXZ 1007b7c0 f i libucrtd:_sftbuf.obj
 0001:0007a7e0       ?set_flags@__crt_stdio_stream@@QBE_NJ@Z 1007b7e0 f i libucrtd:_sftbuf.obj
 0001:0007a830       ?unset_flags@__crt_stdio_stream@@QBE_NJ@Z 1007b830 f i libucrtd:_sftbuf.obj
 0001:0007a880       ___acrt_should_use_temporary_buffer 1007b880 f   libucrtd:_sftbuf.obj
 0001:0007a8d0       ___acrt_stdio_begin_temporary_buffering_nolock 1007b8d0 f   libucrtd:_sftbuf.obj
 0001:0007aa80       ___acrt_stdio_end_temporary_buffering_nolock 1007ba80 f   libucrtd:_sftbuf.obj
 0001:0007ab10       ??$?RU__crt_locale_data@@@__crt_internal_free_policy@@QBEXQBU__crt_locale_data@@@Z 1007bb10 f i libucrtd:wsetlocale.obj
 0001:0007ab30       ??$?RU__crt_locale_pointers@@@__crt_internal_free_policy@@QBEXQBU__crt_locale_pointers@@@Z 1007bb30 f i libucrtd:wsetlocale.obj
 0001:0007ab50       ??$?RU__crt_multibyte_data@@@__crt_internal_free_policy@@QBEXQBU__crt_multibyte_data@@@Z 1007bb50 f i libucrtd:wsetlocale.obj
 0001:0007b140       ??0?$__crt_unique_heap_ptr@U__crt_locale_data@@U__crt_internal_free_policy@@@@QAE@QAU__crt_locale_data@@@Z 1007c140 f i libucrtd:wsetlocale.obj
 0001:0007b160       ??0?$__crt_unique_heap_ptr@U__crt_locale_pointers@@U__crt_internal_free_policy@@@@QAE@QAU__crt_locale_pointers@@@Z 1007c160 f i libucrtd:wsetlocale.obj
 0001:0007b180       ??0?$__crt_unique_heap_ptr@U__crt_multibyte_data@@U__crt_internal_free_policy@@@@QAE@QAU__crt_multibyte_data@@@Z 1007c180 f i libucrtd:wsetlocale.obj
 0001:0007b1a0       ??0_expandlocale_locale_name_cache@@QAE@QA_WIQAU__crt_qualified_locale_data@@@Z 1007c1a0 f i libucrtd:wsetlocale.obj
 0001:0007b210       ??1?$__crt_unique_heap_ptr@U__crt_locale_data@@U__crt_internal_free_policy@@@@QAE@XZ 1007c210 f i libucrtd:wsetlocale.obj
 0001:0007b230       ??1?$__crt_unique_heap_ptr@U__crt_locale_pointers@@U__crt_internal_free_policy@@@@QAE@XZ 1007c230 f i libucrtd:wsetlocale.obj
 0001:0007b250       ??1?$__crt_unique_heap_ptr@U__crt_multibyte_data@@U__crt_internal_free_policy@@@@QAE@XZ 1007c250 f i libucrtd:wsetlocale.obj
 0001:0007b270       ??1_expandlocale_locale_name_cache@@QAE@XZ 1007c270 f i libucrtd:wsetlocale.obj
 0001:0007b2d0       ??B?$__crt_unique_heap_ptr@U__crt_locale_data@@U__crt_internal_free_policy@@@@QBE_NXZ 1007c2d0 f i libucrtd:wsetlocale.obj
 0001:0007b2f0       ??B?$__crt_unique_heap_ptr@U__crt_locale_pointers@@U__crt_internal_free_policy@@@@QBE_NXZ 1007c2f0 f i libucrtd:wsetlocale.obj
 0001:0007b310       ??B?$__crt_unique_heap_ptr@U__crt_multibyte_data@@U__crt_internal_free_policy@@@@QBE_NXZ 1007c310 f i libucrtd:wsetlocale.obj
 0001:0007b6f0       ?commit_locale_name@_expandlocale_locale_name_cache@@QAEXQB_WI@Z 1007c6f0 f i libucrtd:wsetlocale.obj
 0001:0007b750       ?commit_locale_name_cache_already_updated@_expandlocale_locale_name_cache@@QAEXQB_WI@Z 1007c750 f i libucrtd:wsetlocale.obj
 0001:0007b7b0       ?detach@?$__crt_unique_heap_ptr@U__crt_locale_data@@U__crt_internal_free_policy@@@@QAEPAU__crt_locale_data@@XZ 1007c7b0 f i libucrtd:wsetlocale.obj
 0001:0007b7e0       ?detach@?$__crt_unique_heap_ptr@U__crt_locale_pointers@@U__crt_internal_free_policy@@@@QAEPAU__crt_locale_pointers@@XZ 1007c7e0 f i libucrtd:wsetlocale.obj
 0001:0007b810       ?detach@?$__crt_unique_heap_ptr@U__crt_multibyte_data@@U__crt_internal_free_policy@@@@QAEPAU__crt_multibyte_data@@XZ 1007c810 f i libucrtd:wsetlocale.obj
 0001:0007b840       ?get@?$__crt_unique_heap_ptr@U__crt_locale_data@@U__crt_internal_free_policy@@@@QBEPAU__crt_locale_data@@XZ 1007c840 f i libucrtd:wsetlocale.obj
 0001:0007b860       ?get@?$__crt_unique_heap_ptr@U__crt_locale_pointers@@U__crt_internal_free_policy@@@@QBEPAU__crt_locale_pointers@@XZ 1007c860 f i libucrtd:wsetlocale.obj
 0001:0007b880       ?get@?$__crt_unique_heap_ptr@U__crt_multibyte_data@@U__crt_internal_free_policy@@@@QBEPAU__crt_multibyte_data@@XZ 1007c880 f i libucrtd:wsetlocale.obj
 0001:0007b8a0       ?is_valid@?$__crt_unique_heap_ptr@U__crt_locale_data@@U__crt_internal_free_policy@@@@QBE_NXZ 1007c8a0 f i libucrtd:wsetlocale.obj
 0001:0007b8d0       ?is_valid@?$__crt_unique_heap_ptr@U__crt_locale_pointers@@U__crt_internal_free_policy@@@@QBE_NXZ 1007c8d0 f i libucrtd:wsetlocale.obj
 0001:0007b900       ?is_valid@?$__crt_unique_heap_ptr@U__crt_multibyte_data@@U__crt_internal_free_policy@@@@QBE_NXZ 1007c900 f i libucrtd:wsetlocale.obj
 0001:0007b930       ?release@?$__crt_unique_heap_ptr@U__crt_locale_data@@U__crt_internal_free_policy@@@@QAEXXZ 1007c930 f i libucrtd:wsetlocale.obj
 0001:0007b960       ?release@?$__crt_unique_heap_ptr@U__crt_locale_pointers@@U__crt_internal_free_policy@@@@QAEXXZ 1007c960 f i libucrtd:wsetlocale.obj
 0001:0007b990       ?release@?$__crt_unique_heap_ptr@U__crt_multibyte_data@@U__crt_internal_free_policy@@@@QAEXXZ 1007c990 f i libucrtd:wsetlocale.obj
 0001:0007b9c0       ___acrt_copy_locale_name   1007c9c0 f   libucrtd:wsetlocale.obj
 0001:0007ba60       ___acrt_set_locale_changed 1007ca60 f   libucrtd:wsetlocale.obj
 0001:0007ba80       ___acrt_uninitialize_locale 1007ca80 f   libucrtd:wsetlocale.obj
 0001:0007baa0       ___ascii_tolower           1007caa0 f i libucrtd:wsetlocale.obj
 0001:0007bac0       ___ascii_towlower          1007cac0 f i libucrtd:wsetlocale.obj
 0001:0007bae0       ___lc_lctowcs              1007cae0 f   libucrtd:wsetlocale.obj
 0001:0007bb90       ___lc_wcstolc              1007cb90 f   libucrtd:wsetlocale.obj
 0001:0007bdc0       __configthreadlocale       1007cdc0 f   libucrtd:wsetlocale.obj
 0001:0007bf40       __create_locale            1007cf40 f   libucrtd:wsetlocale.obj
 0001:0007c580       __free_locale              1007d580 f   libucrtd:wsetlocale.obj
 0001:0007c6b0       __get_current_locale       1007d6b0 f   libucrtd:wsetlocale.obj
 0001:0007c780       __wcreate_locale           1007d780 f   libucrtd:wsetlocale.obj
 0001:0007c9c0       __wcscats                  1007d9c0 f   libucrtd:wsetlocale.obj
 0001:0007ca40       __wsetlocale               1007da40 f   libucrtd:wsetlocale.obj
 0001:0007e130       ___p___mb_cur_max          1007f130 f   libucrtd:nlsdata.obj
 0001:0007e430       ___acrt_initialize_lowio   1007f430 f   libucrtd:ioinit.obj
 0001:0007e4d0       ___acrt_uninitialize_lowio 1007f4d0 f   libucrtd:ioinit.obj
 0001:0007e530       __CrtGetReportHook         1007f530 f   libucrtd:dbgrptt.obj
 0001:0007e540       __CrtSetReportFile         1007f540 f   libucrtd:dbgrptt.obj
 0001:0007e640       __CrtSetReportHook         1007f640 f   libucrtd:dbgrptt.obj
 0001:0007e660       __CrtSetReportMode         1007f660 f   libucrtd:dbgrptt.obj
 0001:0007e7a0       __VCrtDbgReportA           1007f7a0 f   libucrtd:dbgrptt.obj
 0001:0007f020       __VCrtDbgReportW           10080020 f   libucrtd:dbgrptt.obj
 0001:0007f9d0       __snprintf_s               100809d0 f i libucrtd:dbgrptt.obj
 0001:0007fa10       __vsnprintf_s              10080a10 f i libucrtd:dbgrptt.obj
 0001:0007fa40       __vsnprintf_s_l            10080a40 f i libucrtd:dbgrptt.obj
 0001:0007fbd0       ??$__acrt_wcs_to_mbs_cp@U__crt_win32_buffer_no_resizing@@@@YAHQB_WAAV?$__crt_win32_buffer@DU__crt_win32_buffer_no_resizing@@@@I@Z 10080bd0 f i libucrtd:getmodulefilenamea.obj
 0001:0007fc00       ??0?$__crt_win32_buffer@DU__crt_win32_buffer_no_resizing@@@@QAE@QADI@Z 10080c00 f i libucrtd:getmodulefilenamea.obj
 0001:0007fc50       ??1?$__crt_win32_buffer@DU__crt_win32_buffer_no_resizing@@@@QAE@XZ 10080c50 f i libucrtd:getmodulefilenamea.obj
 0001:0007fcc0       ?__acrt_get_utf8_acp_compatibility_codepage@@YAIXZ 10080cc0 f i libucrtd:getmodulefilenamea.obj
 0001:0007fd50       ?_deallocate@?$__crt_win32_buffer@DU__crt_win32_buffer_no_resizing@@@@AAEXXZ 10080d50 f i libucrtd:getmodulefilenamea.obj
 0001:0007fd90       ?allocate@?$__crt_win32_buffer@DU__crt_win32_buffer_no_resizing@@@@QAEHI@Z 10080d90 f i libucrtd:getmodulefilenamea.obj
 0001:0007fe00       ?allocate@__crt_win32_buffer_no_resizing@@SAHQAPAXIABV__crt_win32_buffer_empty_debug_info@@@Z 10080e00 f i libucrtd:getmodulefilenamea.obj
 0001:0007fe20       ?capacity@?$__crt_win32_buffer@DU__crt_win32_buffer_no_resizing@@@@QBEIXZ 10080e20 f i libucrtd:getmodulefilenamea.obj
 0001:0007fe40       ?data@?$__crt_win32_buffer@DU__crt_win32_buffer_no_resizing@@@@QAEPADXZ 10080e40 f i libucrtd:getmodulefilenamea.obj
 0001:0007fe60       ?deallocate@__crt_win32_buffer_no_resizing@@SAXQAXABV__crt_win32_buffer_empty_debug_info@@@Z 10080e60 f i libucrtd:getmodulefilenamea.obj
 0001:0007fe70       ?debug_info@?$__crt_win32_buffer@DU__crt_win32_buffer_no_resizing@@@@QBEABV__crt_win32_buffer_empty_debug_info@@XZ 10080e70 f i libucrtd:getmodulefilenamea.obj
 0001:0007fe80       ?set_to_nullptr@?$__crt_win32_buffer@DU__crt_win32_buffer_no_resizing@@@@QAEXXZ 10080e80 f i libucrtd:getmodulefilenamea.obj
 0001:0007fec0       ?size@?$__crt_win32_buffer@DU__crt_win32_buffer_no_resizing@@@@QAEXI@Z 10080ec0 f i libucrtd:getmodulefilenamea.obj
 0001:0007fee0       ?size@?$__crt_win32_buffer@DU__crt_win32_buffer_no_resizing@@@@QBEIXZ 10080ee0 f i libucrtd:getmodulefilenamea.obj
 0001:0007ff00       ___acrt_GetModuleFileNameA 10080f00 f   libucrtd:getmodulefilenamea.obj
 0001:000801e0       ??$message_box@$$TABQBDABQBDK@?$__crt_char_traits@D@@SAH$$QA$$TABQBD1$$QAK@Z 100811e0 f i libucrtd:crtmbox.obj
 0001:00080210       ??$message_box@$$TABQB_WABQB_WK@?$__crt_char_traits@_W@@SAH$$QA$$TABQB_W1$$QAK@Z 10081210 f i libucrtd:crtmbox.obj
 0001:00080240       ??$message_box@PAUHWND__@@ABQBDABQBDABI@?$__crt_char_traits@D@@SAH$$QAPAUHWND__@@ABQBD1ABI@Z 10081240 f i libucrtd:crtmbox.obj
 0001:00080270       ??$message_box@PAUHWND__@@ABQB_WABQB_WABI@?$__crt_char_traits@_W@@SAH$$QAPAUHWND__@@ABQB_W1ABI@Z 10081270 f i libucrtd:crtmbox.obj
 0001:000802a0       ??$output_debug_string@ABQBD@?$__crt_char_traits@D@@SAXABQBD@Z 100812a0 f i libucrtd:crtmbox.obj
 0001:000802c0       ??$output_debug_string@ABQB_W@?$__crt_char_traits@_W@@SAXABQB_W@Z 100812c0 f i libucrtd:crtmbox.obj
 0001:000802e0       ___acrt_show_narrow_message_box 100812e0 f   libucrtd:crtmbox.obj
 0001:00080300       ___acrt_show_wide_message_box 10081300 f   libucrtd:crtmbox.obj
 0001:00080320       ___acrt_initialize_locks   10081320 f   libucrtd:locks.obj
 0001:00080380       ___acrt_lock               10081380 f   libucrtd:locks.obj
 0001:000803a0       ___acrt_uninitialize_locks 100813a0 f   libucrtd:locks.obj
 0001:000803f0       ___acrt_unlock             100813f0 f   libucrtd:locks.obj
 0001:00080410       __lock_locales             10081410 f   libucrtd:locks.obj
 0001:00080430       __unlock_locales           10081430 f   libucrtd:locks.obj
 0001:00080450       ??$?B$$A6AXH@Z@__crt_fast_encoded_nullptr_t@@QBEP6AXH@ZXZ 10081450 f i libucrtd:signal.obj
 0001:00080540       ??$__crt_fast_decode_pointer@P6AXH@Z@@YAP6AXH@ZQ6AXH@Z@Z 10081540 f i libucrtd:signal.obj
 0001:00080570       ??$__crt_fast_encode_pointer@P6AXH@Z@@YAP6AXH@ZQ6AXH@Z@Z 10081570 f i libucrtd:signal.obj
 0001:00080820       ?initialize@?$dual_state_global@P6AXH@Z@__crt_state_management@@QAEXQ6AXH@Z@Z 10081820 f i libucrtd:signal.obj
 0001:00080960       ?value@?$dual_state_global@P6AXH@Z@__crt_state_management@@QAEAAP6AXH@ZXZ 10081960 f i libucrtd:signal.obj
 0001:00080980       ___acrt_get_sigabrt_handler 10081980 f   libucrtd:signal.obj
 0001:000809a0       ___acrt_initialize_signal_handlers 100819a0 f   libucrtd:signal.obj
 0001:000809e0       ___fpecode                 100819e0 f   libucrtd:signal.obj
 0001:000809f0       ___pxcptinfoptrs           100819f0 f   libucrtd:signal.obj
 0001:00080a00       _raise                     10081a00 f   libucrtd:signal.obj
 0001:00080dd0       _signal                    10081dd0 f   libucrtd:signal.obj
 0001:00081050       __msize                    10082050 f   libucrtd:msize.obj
 0001:00081070       __msize_base               10082070 f   libucrtd:msize.obj
 0001:00081110       __realloc_base             10082110 f   libucrtd:realloc_base.obj
 0001:000811d0       ??$?B$$A6GHPA_WKJ@Z@__crt_fast_encoded_nullptr_t@@QBEP6GHPA_WKJ@ZXZ 100821d0 f i libucrtd:winapi_thunks.obj
 0001:000812c0       ??$__crt_fast_decode_pointer@P6GHPA_WKJ@Z@@YAP6GHPA_WKJ@ZQ6GH0KJ@Z@Z 100822c0 f i libucrtd:winapi_thunks.obj
 0001:000812f0       ??$__crt_fast_decode_pointer@PAX@@YAPAXQAX@Z 100822f0 f i libucrtd:winapi_thunks.obj
 0001:00081320       ??$__crt_fast_encode_pointer@P6GHPA_WKJ@Z@@YAP6GHPA_WKJ@ZQ6GH0KJ@Z@Z 10082320 f i libucrtd:winapi_thunks.obj
 0001:00081c80       _GetCurrentThreadEffectiveToken 10082c80 f i libucrtd:winapi_thunks.obj
 0001:00081c90       ___acrt_AppPolicyGetProcessTerminationMethodInternal@4 10082c90 f   libucrtd:winapi_thunks.obj
 0001:00081cd0       ___acrt_AppPolicyGetShowDeveloperDiagnosticInternal@4 10082cd0 f   libucrtd:winapi_thunks.obj
 0001:00081d10       ___acrt_AppPolicyGetThreadInitializationTypeInternal@4 10082d10 f   libucrtd:winapi_thunks.obj
 0001:00081d50       ___acrt_AppPolicyGetWindowingModelInternal@4 10082d50 f   libucrtd:winapi_thunks.obj
 0001:00081d90       ___acrt_AreFileApisANSI@0  10082d90 f   libucrtd:winapi_thunks.obj
 0001:00081dd0       ___acrt_CompareStringEx@36 10082dd0 f   libucrtd:winapi_thunks.obj
 0001:00081e50       ___acrt_EnumSystemLocalesEx@16 10082e50 f   libucrtd:winapi_thunks.obj
 0001:00081eb0       ___acrt_FlsAlloc@4         10082eb0 f   libucrtd:winapi_thunks.obj
 0001:00081ef0       ___acrt_FlsFree@4          10082ef0 f   libucrtd:winapi_thunks.obj
 0001:00081f30       ___acrt_FlsGetValue@4      10082f30 f   libucrtd:winapi_thunks.obj
 0001:00081f70       ___acrt_FlsSetValue@8      10082f70 f   libucrtd:winapi_thunks.obj
 0001:00081fc0       ___acrt_GetDateFormatEx@28 10082fc0 f   libucrtd:winapi_thunks.obj
 0001:00082040       ___acrt_GetEnabledXStateFeatures@0 10083040 f   libucrtd:winapi_thunks.obj
 0001:00082080       ___acrt_GetLocaleInfoEx@16 10083080 f   libucrtd:winapi_thunks.obj
 0001:000820e0       ___acrt_GetSystemTimePreciseAsFileTime@4 100830e0 f   libucrtd:winapi_thunks.obj
 0001:00082120       ___acrt_GetTimeFormatEx@24 10083120 f   libucrtd:winapi_thunks.obj
 0001:00082190       ___acrt_GetUserDefaultLocaleName@8 10083190 f   libucrtd:winapi_thunks.obj
 0001:000821e0       ___acrt_GetXStateFeaturesMask@8 100831e0 f   libucrtd:winapi_thunks.obj
 0001:00082220       ___acrt_InitializeCriticalSectionEx@12 10083220 f   libucrtd:winapi_thunks.obj
 0001:00082270       ___acrt_IsValidLocaleName@4 10083270 f   libucrtd:winapi_thunks.obj
 0001:000822c0       ___acrt_LCIDToLocaleName@16 100832c0 f   libucrtd:winapi_thunks.obj
 0001:00082320       ___acrt_LCMapStringEx@36   10083320 f   libucrtd:winapi_thunks.obj
 0001:000823a0       ___acrt_LocaleNameToLCID@8 100833a0 f   libucrtd:winapi_thunks.obj
 0001:000823f0       ___acrt_LocateXStateFeature@12 100833f0 f   libucrtd:winapi_thunks.obj
 0001:00082440       ___acrt_MessageBoxA@16     10083440 f   libucrtd:winapi_thunks.obj
 0001:00082490       ___acrt_MessageBoxW@16     10083490 f   libucrtd:winapi_thunks.obj
 0001:000824e0       ___acrt_RoInitialize@4     100834e0 f   libucrtd:winapi_thunks.obj
 0001:00082520       ___acrt_RoUninitialize@0   10083520 f   libucrtd:winapi_thunks.obj
 0001:00082550       ___acrt_RtlGenRandom@8     10083550 f   libucrtd:winapi_thunks.obj
 0001:00082590       ___acrt_SetThreadStackGuarantee@4 10083590 f   libucrtd:winapi_thunks.obj
 0001:000825d0       ___acrt_can_show_message_box 100835d0 f   libucrtd:winapi_thunks.obj
 0001:00082610       ___acrt_can_use_vista_locale_apis 10083610 f   libucrtd:winapi_thunks.obj
 0001:00082640       ___acrt_can_use_xstate_apis 10083640 f   libucrtd:winapi_thunks.obj
 0001:00082670       ___acrt_eagerly_load_locale_apis 10083670 f   libucrtd:winapi_thunks.obj
 0001:000826b0       ___acrt_get_parent_window  100836b0 f   libucrtd:winapi_thunks.obj
 0001:00082720       ___acrt_initialize_winapi_thunks 10083720 f   libucrtd:winapi_thunks.obj
 0001:00082790       ___acrt_is_interactive     10083790 f   libucrtd:winapi_thunks.obj
 0001:00082840       ___acrt_uninitialize_winapi_thunks 10083840 f   libucrtd:winapi_thunks.obj
 0001:000828b0       __chvalidator              100838b0 f   libucrtd:isctype.obj
 0001:00082900       __chvalidator_l            10083900 f   libucrtd:isctype.obj
 0001:00082980       __isctype                  10083980 f   libucrtd:isctype.obj
 0001:000829c0       __isctype_l                100839c0 f   libucrtd:isctype.obj
 0001:00082b40       __isleadbyte_fast_internal 10083b40 f i libucrtd:isctype.obj
 0001:00082b60       ??$?RU__crt_stdio_stream_data@@@__crt_internal_free_policy@@QBEXQBU__crt_stdio_stream_data@@@Z 10083b60 f i libucrtd:stream.obj
 0001:00082b80       ??0?$__crt_unique_heap_ptr@U__crt_stdio_stream_data@@U__crt_internal_free_policy@@@@QAE@QAU__crt_stdio_stream_data@@@Z 10083b80 f i libucrtd:stream.obj
 0001:00082ba0       ??0__crt_stdio_stream@@QAE@QAU__crt_stdio_stream_data@@@Z 10083ba0 f i libucrtd:stream.obj
 0001:00082bc0       ??0__crt_stdio_stream@@QAE@XZ 10083bc0 f i libucrtd:stream.obj
 0001:00082be0       ??1?$__crt_unique_heap_ptr@U__crt_stdio_stream_data@@U__crt_internal_free_policy@@@@QAE@XZ 10083be0 f i libucrtd:stream.obj
 0001:00082c00       ?__acrt_stdio_allocate_stream@@YA?AV__crt_stdio_stream@@XZ 10083c00 f   libucrtd:stream.obj
 0001:00082cf0       ?__acrt_stdio_free_stream@@YAXV__crt_stdio_stream@@@Z 10083cf0 f   libucrtd:stream.obj
 0001:00082d70       ?deallocate@__crt_stdio_stream@@QAEXXZ 10083d70 f i libucrtd:stream.obj
 0001:00082d90       ?detach@?$__crt_unique_heap_ptr@U__crt_stdio_stream_data@@U__crt_internal_free_policy@@@@QAEPAU__crt_stdio_stream_data@@XZ 10083d90 f i libucrtd:stream.obj
 0001:00082f00       ?lock@__crt_stdio_stream@@QBEXXZ 10083f00 f i libucrtd:stream.obj
 0001:00082f20       ?release@?$__crt_unique_heap_ptr@U__crt_stdio_stream_data@@U__crt_internal_free_policy@@@@QAEXXZ 10083f20 f i libucrtd:stream.obj
 0001:00082f50       ?try_allocate@__crt_stdio_stream@@QAE_NXZ 10083f50 f i libucrtd:stream.obj
 0001:00082fa0       ??$__acrt_stdio_parse_mode@D@@YA?AU__acrt_stdio_stream_mode@@QBD@Z 10083fa0 f i libucrtd:openfile.obj
 0001:00083810       ??$__acrt_stdio_parse_mode@_W@@YA?AU__acrt_stdio_stream_mode@@QB_W@Z 10084810 f i libucrtd:openfile.obj
 0001:000843a0       ??$tcsncmp@AAPBDAAY02$$CBDI@?$__crt_char_traits@D@@SAHAAPBDAAY02$$CBD$$QAI@Z 100853a0 f i libucrtd:openfile.obj
 0001:000843c0       ??$tcsncmp@AAPB_WAAY02$$CB_WI@?$__crt_char_traits@_W@@SAHAAPB_WAAY02$$CB_W$$QAI@Z 100853c0 f i libucrtd:openfile.obj
 0001:000843e0       ??$tcsnicmp@AAPBDAAY04$$CBDI@?$__crt_char_traits@D@@SAHAAPBDAAY04$$CBD$$QAI@Z 100853e0 f i libucrtd:openfile.obj
 0001:00084400       ??$tcsnicmp@AAPBDAAY06$$CBDI@?$__crt_char_traits@D@@SAHAAPBDAAY06$$CBD$$QAI@Z 10085400 f i libucrtd:openfile.obj
 0001:00084420       ??$tcsnicmp@AAPBDAAY07$$CBDI@?$__crt_char_traits@D@@SAHAAPBDAAY07$$CBD$$QAI@Z 10085420 f i libucrtd:openfile.obj
 0001:00084440       ??$tcsnicmp@AAPB_WAAY04$$CB_WI@?$__crt_char_traits@_W@@SAHAAPB_WAAY04$$CB_W$$QAI@Z 10085440 f i libucrtd:openfile.obj
 0001:00084460       ??$tcsnicmp@AAPB_WAAY06$$CB_WI@?$__crt_char_traits@_W@@SAHAAPB_WAAY06$$CB_W$$QAI@Z 10085460 f i libucrtd:openfile.obj
 0001:00084480       ??$tcsnicmp@AAPB_WAAY07$$CB_WI@?$__crt_char_traits@_W@@SAHAAPB_WAAY07$$CB_W$$QAI@Z 10085480 f i libucrtd:openfile.obj
 0001:000844a0       ??$tsopen_s@PAHABQBDABHABHH@?$__crt_char_traits@D@@SAH$$QAPAHABQBDABH2$$QAH@Z 100854a0 f i libucrtd:openfile.obj
 0001:000844d0       ??$tsopen_s@PAHABQB_WABHABHH@?$__crt_char_traits@_W@@SAH$$QAPAHABQB_WABH2$$QAH@Z 100854d0 f i libucrtd:openfile.obj
 0001:00084500       ?__acrt_stdio_parse_mode_D@@YA_NAAU__acrt_stdio_stream_mode@@@Z 10085500 f i libucrtd:openfile.obj
 0001:00084530       ?__acrt_stdio_parse_mode_N@@YA_NAAU__acrt_stdio_stream_mode@@@Z 10085530 f i libucrtd:openfile.obj
 0001:00084550       ?__acrt_stdio_parse_mode_R@@YA_NAAU__acrt_stdio_stream_mode@@AA_N@Z 10085550 f i libucrtd:openfile.obj
 0001:00084580       ?__acrt_stdio_parse_mode_S@@YA_NAAU__acrt_stdio_stream_mode@@AA_N@Z 10085580 f i libucrtd:openfile.obj
 0001:000845b0       ?__acrt_stdio_parse_mode_T@@YA_NAAU__acrt_stdio_stream_mode@@@Z 100855b0 f i libucrtd:openfile.obj
 0001:000845e0       ?__acrt_stdio_parse_mode_b@@YA_NAAU__acrt_stdio_stream_mode@@@Z 100855e0 f i libucrtd:openfile.obj
 0001:00084610       ?__acrt_stdio_parse_mode_c@@YA_NAAU__acrt_stdio_stream_mode@@AA_N@Z 10085610 f i libucrtd:openfile.obj
 0001:00084640       ?__acrt_stdio_parse_mode_n@@YA_NAAU__acrt_stdio_stream_mode@@AA_N@Z 10085640 f i libucrtd:openfile.obj
 0001:00084670       ?__acrt_stdio_parse_mode_plus@@YA_NAAU__acrt_stdio_stream_mode@@AA_N@Z 10085670 f i libucrtd:openfile.obj
 0001:000846e0       ?__acrt_stdio_parse_mode_t@@YA_NAAU__acrt_stdio_stream_mode@@@Z 100856e0 f i libucrtd:openfile.obj
 0001:00084710       ?__acrt_stdio_parse_mode_x@@YA_NAAU__acrt_stdio_stream_mode@@@Z 10085710 f i libucrtd:openfile.obj
 0001:00084740       __openfile                 10085740 f   libucrtd:openfile.obj
 0001:00084770       __wopenfile                10085770 f   libucrtd:openfile.obj
 0001:00084a50       __close                    10085a50 f   libucrtd:close.obj
 0001:00084bd0       __close_nolock             10085bd0 f   libucrtd:close.obj
 0001:00084c30       ?has_crt_buffer@__crt_stdio_stream@@QBE_NXZ 10085c30 f i libucrtd:_freebuf.obj
 0001:00084c50       ___acrt_stdio_free_buffer_nolock 10085c50 f   libucrtd:_freebuf.obj
 0001:000852b0       ?__acrt_stdio_reset_buffer@@YAXV__crt_stdio_stream@@@Z 100862b0 f i libucrtd:fflush.obj
 0001:000853b0       ?has_all_of@__crt_stdio_stream@@QBE_NJ@Z 100863b0 f i libucrtd:fflush.obj
 0001:00085480       ___acrt_stdio_flush_nolock 10086480 f   libucrtd:fflush.obj
 0001:00085550       __fflush_nolock            10086550 f   libucrtd:fflush.obj
 0001:000855d0       __flushall                 100865d0 f   libucrtd:fflush.obj
 0001:000855f0       _fflush                    100865f0 f   libucrtd:fflush.obj
 0001:00085d40       ?has_big_buffer@__crt_stdio_stream@@QBE_NXZ 10086d40 f i libucrtd:_flsbuf.obj
 0001:00085e40       ___acrt_stdio_flush_and_write_narrow_nolock 10086e40 f   libucrtd:_flsbuf.obj
 0001:00085e70       ___acrt_stdio_flush_and_write_wide_nolock 10086e70 f   libucrtd:_flsbuf.obj
 0001:000861a0       ___acrt_get_begin_thread_init_policy 100871a0 f   libucrtd:win_policies.obj
 0001:000861c0       ___acrt_get_developer_information_policy 100871c0 f   libucrtd:win_policies.obj
 0001:000861e0       ___acrt_get_process_end_policy 100871e0 f   libucrtd:win_policies.obj
 0001:00086200       ___acrt_get_windowing_model_policy 10087200 f   libucrtd:win_policies.obj
 0001:000864d0       ??$__acrt_mbs_to_wcs_cp@U__crt_win32_buffer_internal_dynamic_resizing@@@@YAHQBDAAV?$__crt_win32_buffer@_WU__crt_win32_buffer_internal_dynamic_resizing@@@@I@Z 100874d0 f i libucrtd:argv_wildcards.obj
 0001:00086500       ??$__acrt_wcs_to_mbs_cp@U__crt_win32_buffer_internal_dynamic_resizing@@@@YAHQB_WAAV?$__crt_win32_buffer@DU__crt_win32_buffer_internal_dynamic_resizing@@@@I@Z 10087500 f i libucrtd:argv_wildcards.obj
 0001:00087450       ??$tcsncpy_s@AAPADIAAPADABI@?$__crt_char_traits@D@@SAHAAPAD$$QAI0ABI@Z 10088450 f i libucrtd:argv_wildcards.obj
 0001:00087480       ??$tcsncpy_s@AAPA_WIAAPA_WABI@?$__crt_char_traits@_W@@SAHAAPA_W$$QAI0ABI@Z 10088480 f i libucrtd:argv_wildcards.obj
 0001:000874b0       ??$tcsncpy_s@PADABIABQBDABI@?$__crt_char_traits@D@@SAH$$QAPADABIABQBD1@Z 100884b0 f i libucrtd:argv_wildcards.obj
 0001:000874e0       ??$tcsncpy_s@PADIABQBDABI@?$__crt_char_traits@D@@SAH$$QAPAD$$QAIABQBDABI@Z 100884e0 f i libucrtd:argv_wildcards.obj
 0001:00087510       ??$tcsncpy_s@PA_WABIABQB_WABI@?$__crt_char_traits@_W@@SAH$$QAPA_WABIABQB_W1@Z 10088510 f i libucrtd:argv_wildcards.obj
 0001:00087540       ??$tcsncpy_s@PA_WIABQB_WABI@?$__crt_char_traits@_W@@SAH$$QAPA_W$$QAIABQB_WABI@Z 10088540 f i libucrtd:argv_wildcards.obj
 0001:00087570       ??$tcspbrk@AAPADAAY02$$CBD@?$__crt_char_traits@D@@SAPADAAPADAAY02$$CBD@Z 10088570 f i libucrtd:argv_wildcards.obj
 0001:00087590       ??$tcspbrk@AAPA_WAAY02$$CB_W@?$__crt_char_traits@_W@@SAPA_WAAPA_WAAY02$$CB_W@Z 10088590 f i libucrtd:argv_wildcards.obj
 0001:000875b0       ??0?$__crt_unique_handle_t@U__crt_findfile_traits@@@@QAE@QAX@Z 100885b0 f i libucrtd:argv_wildcards.obj
 0001:000875d0       ??0?$__crt_win32_buffer@DU__crt_win32_buffer_internal_dynamic_resizing@@@@QAE@XZ 100885d0 f i libucrtd:argv_wildcards.obj
 0001:00087620       ??0?$__crt_win32_buffer@_WU__crt_win32_buffer_internal_dynamic_resizing@@@@QAE@XZ 10088620 f i libucrtd:argv_wildcards.obj
 0001:000876d0       ??1?$__crt_unique_handle_t@U__crt_findfile_traits@@@@QAE@XZ 100886d0 f i libucrtd:argv_wildcards.obj
 0001:000876f0       ??1?$__crt_win32_buffer@DU__crt_win32_buffer_internal_dynamic_resizing@@@@QAE@XZ 100886f0 f i libucrtd:argv_wildcards.obj
 0001:00087730       ??1?$__crt_win32_buffer@_WU__crt_win32_buffer_internal_dynamic_resizing@@@@QAE@XZ 10088730 f i libucrtd:argv_wildcards.obj
 0001:00087990       ?_deallocate@?$__crt_win32_buffer@DU__crt_win32_buffer_internal_dynamic_resizing@@@@AAEXXZ 10088990 f i libucrtd:argv_wildcards.obj
 0001:000879d0       ?_deallocate@?$__crt_win32_buffer@_WU__crt_win32_buffer_internal_dynamic_resizing@@@@AAEXXZ 100889d0 f i libucrtd:argv_wildcards.obj
 0001:00087a10       ?allocate@?$__crt_win32_buffer@DU__crt_win32_buffer_internal_dynamic_resizing@@@@QAEHI@Z 10088a10 f i libucrtd:argv_wildcards.obj
 0001:00087a80       ?allocate@?$__crt_win32_buffer@_WU__crt_win32_buffer_internal_dynamic_resizing@@@@QAEHI@Z 10088a80 f i libucrtd:argv_wildcards.obj
 0001:00087af0       ?allocate@__crt_win32_buffer_internal_dynamic_resizing@@SAHQAPAXIABV__crt_win32_buffer_empty_debug_info@@@Z 10088af0 f i libucrtd:argv_wildcards.obj
 0001:00087c30       ?capacity@?$__crt_win32_buffer@DU__crt_win32_buffer_internal_dynamic_resizing@@@@QBEIXZ 10088c30 f i libucrtd:argv_wildcards.obj
 0001:00087c50       ?capacity@?$__crt_win32_buffer@_WU__crt_win32_buffer_internal_dynamic_resizing@@@@QBEIXZ 10088c50 f i libucrtd:argv_wildcards.obj
 0001:00087c70       ?close@?$__crt_unique_handle_t@U__crt_findfile_traits@@@@QAEXXZ 10088c70 f i libucrtd:argv_wildcards.obj
 0001:00087cb0       ?close@__crt_findfile_traits@@SA_NPAX@Z 10088cb0 f i libucrtd:argv_wildcards.obj
 0001:00087ce0       ?data@?$__crt_win32_buffer@DU__crt_win32_buffer_internal_dynamic_resizing@@@@QAEPADXZ 10088ce0 f i libucrtd:argv_wildcards.obj
 0001:00087d00       ?data@?$__crt_win32_buffer@_WU__crt_win32_buffer_internal_dynamic_resizing@@@@QAEPA_WXZ 10088d00 f i libucrtd:argv_wildcards.obj
 0001:00087d20       ?deallocate@__crt_win32_buffer_internal_dynamic_resizing@@SAXQAXABV__crt_win32_buffer_empty_debug_info@@@Z 10088d20 f i libucrtd:argv_wildcards.obj
 0001:00087d40       ?debug_info@?$__crt_win32_buffer@DU__crt_win32_buffer_internal_dynamic_resizing@@@@QBEABV__crt_win32_buffer_empty_debug_info@@XZ 10088d40 f i libucrtd:argv_wildcards.obj
 0001:00087d50       ?debug_info@?$__crt_win32_buffer@_WU__crt_win32_buffer_internal_dynamic_resizing@@@@QBEABV__crt_win32_buffer_empty_debug_info@@XZ 10088d50 f i libucrtd:argv_wildcards.obj
 0001:00088060       ?get@?$__crt_unique_handle_t@U__crt_findfile_traits@@@@QBEPAXXZ 10089060 f i libucrtd:argv_wildcards.obj
 0001:000880d0       ?get_invalid_value@__crt_findfile_traits@@SAPAXXZ 100890d0 f i libucrtd:argv_wildcards.obj
 0001:00088160       ?set_to_nullptr@?$__crt_win32_buffer@DU__crt_win32_buffer_internal_dynamic_resizing@@@@QAEXXZ 10089160 f i libucrtd:argv_wildcards.obj
 0001:000881a0       ?set_to_nullptr@?$__crt_win32_buffer@_WU__crt_win32_buffer_internal_dynamic_resizing@@@@QAEXXZ 100891a0 f i libucrtd:argv_wildcards.obj
 0001:000881e0       ?size@?$__crt_win32_buffer@DU__crt_win32_buffer_internal_dynamic_resizing@@@@QAEXI@Z 100891e0 f i libucrtd:argv_wildcards.obj
 0001:00088200       ?size@?$__crt_win32_buffer@_WU__crt_win32_buffer_internal_dynamic_resizing@@@@QAEXI@Z 10089200 f i libucrtd:argv_wildcards.obj
 0001:00088260       ?strpbrk@@YAPADQADQBD@Z    10089260 f i libucrtd:argv_wildcards.obj
 0001:00088280       ?wcspbrk@@YAPA_WPA_WPB_W@Z 10089280 f i libucrtd:argv_wildcards.obj
 0001:000882a0       ___acrt_expand_narrow_argv_wildcards 100892a0 f   libucrtd:argv_wildcards.obj
 0001:000882c0       ___acrt_expand_wide_argv_wildcards 100892c0 f   libucrtd:argv_wildcards.obj
 0001:000883a0       ??$initialize_from_array@$$BY10BAA@E@?$dual_state_global@PAE@__crt_state_management@@QAAXAAY10BAA@E@Z 100893a0 f i libucrtd:mbctype.obj
 0001:000883f0       ??$initialize_from_array@$$BY10BAB@E@?$dual_state_global@PAE@__crt_state_management@@QAAXAAY10BAB@E@Z 100893f0 f i libucrtd:mbctype.obj
 0001:00088660       ?dangerous_get_state_array@?$dual_state_global@PAE@__crt_state_management@@QAEPAPAEXZ 10089660 f i libucrtd:mbctype.obj
 0001:00088670       ?dangerous_get_state_array@?$dual_state_global@PAU__crt_multibyte_data@@@__crt_state_management@@QAEPAPAU__crt_multibyte_data@@XZ 10089670 f i libucrtd:mbctype.obj
 0001:00088740       ?initialize@?$dual_state_global@PAU__crt_multibyte_data@@@__crt_state_management@@QAEXQAU__crt_multibyte_data@@@Z 10089740 f i libucrtd:mbctype.obj
 0001:00088e90       ?value@?$dual_state_global@PAE@__crt_state_management@@QAEAAPAEXZ 10089e90 f i libucrtd:mbctype.obj
 0001:00088eb0       ___acrt_initialize_multibyte 10089eb0 f   libucrtd:mbctype.obj
 0001:00088f60       ___acrt_update_thread_multibyte_data 10089f60 f   libucrtd:mbctype.obj
 0001:00088f80       ___p__mbcasemap            10089f80 f   libucrtd:mbctype.obj
 0001:00088fa0       ___p__mbctype              10089fa0 f   libucrtd:mbctype.obj
 0001:00088fc0       __getmbcp                  10089fc0 f   libucrtd:mbctype.obj
 0001:00089030       __setmbcp                  1008a030 f   libucrtd:mbctype.obj
 0001:00089060       __setmbcp_nolock           1008a060 f   libucrtd:mbctype.obj
 0001:000895d1       __ismbbalnum               1008a5d1 f   libucrtd:ismbbyte.obj
 0001:000895ec       __ismbbalnum_l             1008a5ec f   libucrtd:ismbbyte.obj
 0001:00089608       __ismbbalpha               1008a608 f   libucrtd:ismbbyte.obj
 0001:00089623       __ismbbalpha_l             1008a623 f   libucrtd:ismbbyte.obj
 0001:0008963f       __ismbbblank               1008a63f f   libucrtd:ismbbyte.obj
 0001:00089662       __ismbbblank_l             1008a662 f   libucrtd:ismbbyte.obj
 0001:00089686       __ismbbgraph               1008a686 f   libucrtd:ismbbyte.obj
 0001:000896a1       __ismbbgraph_l             1008a6a1 f   libucrtd:ismbbyte.obj
 0001:000896bd       __ismbbkalnum              1008a6bd f   libucrtd:ismbbyte.obj
 0001:000896d5       __ismbbkalnum_l            1008a6d5 f   libucrtd:ismbbyte.obj
 0001:000896ee       __ismbbkana                1008a6ee f   libucrtd:ismbbyte.obj
 0001:00089701       __ismbbkana_l              1008a701 f   libucrtd:ismbbyte.obj
 0001:00089750       __ismbbkprint              1008a750 f   libucrtd:ismbbyte.obj
 0001:00089768       __ismbbkprint_l            1008a768 f   libucrtd:ismbbyte.obj
 0001:00089781       __ismbbkpunct              1008a781 f   libucrtd:ismbbyte.obj
 0001:00089799       __ismbbkpunct_l            1008a799 f   libucrtd:ismbbyte.obj
 0001:000897b2       __ismbblead                1008a7b2 f   libucrtd:ismbbyte.obj
 0001:000897ca       __ismbblead_l              1008a7ca f   libucrtd:ismbbyte.obj
 0001:000897e3       __ismbbprint               1008a7e3 f   libucrtd:ismbbyte.obj
 0001:000897fe       __ismbbprint_l             1008a7fe f   libucrtd:ismbbyte.obj
 0001:0008981a       __ismbbpunct               1008a81a f   libucrtd:ismbbyte.obj
 0001:00089832       __ismbbpunct_l             1008a832 f   libucrtd:ismbbyte.obj
 0001:0008984b       __ismbbtrail               1008a84b f   libucrtd:ismbbyte.obj
 0001:00089863       __ismbbtrail_l             1008a863 f   libucrtd:ismbbyte.obj
 0001:00089880       ___acrt_initialize_command_line 1008a880 f   libucrtd:argv_data.obj
 0001:000898a0       ___acrt_uninitialize_command_line 1008a8a0 f   libucrtd:argv_data.obj
 0001:000898b0       ___p___argc                1008a8b0 f   libucrtd:argv_data.obj
 0001:000898c0       ___p___argv                1008a8c0 f   libucrtd:argv_data.obj
 0001:000898d0       ___p___wargv               1008a8d0 f   libucrtd:argv_data.obj
 0001:000898e0       ___p__acmdln               1008a8e0 f   libucrtd:argv_data.obj
 0001:000898f0       ___p__pgmptr               1008a8f0 f   libucrtd:argv_data.obj
 0001:00089900       ___p__wcmdln               1008a900 f   libucrtd:argv_data.obj
 0001:00089910       ___p__wpgmptr              1008a910 f   libucrtd:argv_data.obj
 0001:00089920       __get_pgmptr               1008a920 f   libucrtd:argv_data.obj
 0001:00089a30       __get_wpgmptr              1008aa30 f   libucrtd:argv_data.obj
 0001:00089bf0       ___acrt_MultiByteToWideChar 1008abf0 f   libucrtd:multibytetowidechar.obj
 0001:00089cf0       ___acrt_WideCharToMultiByte 1008acf0 f   libucrtd:widechartomultibyte.obj
 0001:00089e49       ___dcrt_get_narrow_environment_from_os 1008ae49 f   libucrtd:get_environment_from_os.obj
 0001:00089edb       ___dcrt_get_wide_environment_from_os 1008aedb f   libucrtd:get_environment_from_os.obj
 0001:0008a870       ??$get_or_create_environment_nolock@$$V@?$__crt_char_traits@D@@SAPAPADXZ 1008b870 f i libucrtd:setenv.obj
 0001:0008a875       ??$get_or_create_environment_nolock@$$V@?$__crt_char_traits@_W@@SAPAPA_WXZ 1008b875 f i libucrtd:setenv.obj
 0001:0008a87a       ??$set_environment_variable@ABQADQAD@?$__crt_char_traits@D@@SAHABQAD$$QBQAD@Z 1008b87a f i libucrtd:setenv.obj
 0001:0008a892       ??$set_environment_variable@ABQA_WQA_W@?$__crt_char_traits@_W@@SAHABQA_W$$QBQA_W@Z 1008b892 f i libucrtd:setenv.obj
 0001:0008a8a9       ??$tcschr@ABQADD@?$__crt_char_traits@D@@SAPADABQAD$$QAD@Z 1008b8a9 f i libucrtd:setenv.obj
 0001:0008a8c3       ??$tcschr@ABQA_WD@?$__crt_char_traits@_W@@SAPA_WABQA_W$$QAD@Z 1008b8c3 f i libucrtd:setenv.obj
 0001:0008a8e1       ??$tcscpy_s@AAPADABIAAPAD@?$__crt_char_traits@D@@SAHAAPADABI0@Z 1008b8e1 f i libucrtd:setenv.obj
 0001:0008a8ff       ??$tcscpy_s@AAPA_WABIAAPA_W@?$__crt_char_traits@_W@@SAHAAPA_WABI0@Z 1008b8ff f i libucrtd:setenv.obj
 0001:0008a91d       ??$tcscpy_s@ABQADABIABQAD@?$__crt_char_traits@D@@SAHABQADABI0@Z 1008b91d f i libucrtd:setenv.obj
 0001:0008a93b       ??$tcscpy_s@ABQA_WABIABQA_W@?$__crt_char_traits@_W@@SAHABQA_WABI0@Z 1008b93b f i libucrtd:setenv.obj
 0001:0008a959       ??$tcslen@ABQAD@?$__crt_char_traits@D@@SAIABQAD@Z 1008b959 f i libucrtd:setenv.obj
 0001:0008a971       ??$tcslen@ABQA_W@?$__crt_char_traits@_W@@SAIABQA_W@Z 1008b971 f i libucrtd:setenv.obj
 0001:0008a98f       ??$tcsnicoll@ABQBDAAPADABI@?$__crt_char_traits@D@@SAHABQBDAAPADABI@Z 1008b98f f i libucrtd:setenv.obj
 0001:0008a9ad       ??$tcsnicoll@ABQB_WAAPA_WABI@?$__crt_char_traits@_W@@SAHABQB_WAAPA_WABI@Z 1008b9ad f i libucrtd:setenv.obj
 0001:0008a9cb       ??$tcsnlen@PADH@?$__crt_char_traits@D@@SAI$$QAPAD$$QAH@Z 1008b9cb f i libucrtd:setenv.obj
 0001:0008a9e3       ??$tcsnlen@PA_WH@?$__crt_char_traits@_W@@SAI$$QAPA_W$$QAH@Z 1008b9e3 f i libucrtd:setenv.obj
 0001:0008aa1f       ?strchr@@YAPADQADH@Z       1008ba1f f i libucrtd:setenv.obj
 0001:0008aa2a       ?wcschr@@YAPA_WPA_W_W@Z    1008ba2a f i libucrtd:setenv.obj
 0001:0008aa35       ___dcrt_set_variable_in_narrow_environment_nolock 1008ba35 f   libucrtd:setenv.obj
 0001:0008aa40       ___dcrt_set_variable_in_wide_environment_nolock 1008ba40 f   libucrtd:setenv.obj
 0001:0008aa50       ___acrt_getheap            1008ba50 f   libucrtd:heap_handle.obj
 0001:0008aa90       ___acrt_initialize_heap    1008ba90 f   libucrtd:heap_handle.obj
 0001:0008aac0       ___acrt_uninitialize_heap  1008bac0 f   libucrtd:heap_handle.obj
 0001:0008aae0       __get_heap_handle          1008bae0 f   libucrtd:heap_handle.obj
 0001:0008ab20       ___acrt_execute_initializers 1008bb20 f   libucrtd:shared_initialization.obj
 0001:0008abd0       ___acrt_execute_uninitializers 1008bbd0 f   libucrtd:shared_initialization.obj
 0001:0008ac30       ??$__crt_fast_decode_pointer@P6AHPAU_exception@@@Z@@YAP6AHPAU_exception@@@ZQ6AH0@Z@Z 1008bc30 f i libucrtd:matherr.obj
 0001:0008ac60       ??$__crt_fast_encode_pointer@P6AHPAU_exception@@@Z@@YAP6AHPAU_exception@@@ZQ6AH0@Z@Z 1008bc60 f i libucrtd:matherr.obj
 0001:0008ac90       ?initialize@?$dual_state_global@P6AHPAU_exception@@@Z@__crt_state_management@@QAEXQ6AHPAU_exception@@@Z@Z 1008bc90 f i libucrtd:matherr.obj
 0001:0008acd0       ?value@?$dual_state_global@P6AHPAU_exception@@@Z@__crt_state_management@@QAEAAP6AHPAU_exception@@@ZXZ 1008bcd0 f i libucrtd:matherr.obj
 0001:0008acf0       ___acrt_has_user_matherr   1008bcf0 f   libucrtd:matherr.obj
 0001:0008ad30       ___acrt_initialize_user_matherr 1008bd30 f   libucrtd:matherr.obj
 0001:0008ad50       ___acrt_invoke_user_matherr 1008bd50 f   libucrtd:matherr.obj
 0001:0008ada0       ___setusermatherr          1008bda0 f   libucrtd:matherr.obj
 0001:0008ade0       __free_base                1008bde0 f   libucrtd:free_base.obj
 0001:0008ae90       __expand                   1008be90 f   libucrtd:expand.obj
 0001:0008aeb0       __expand_base              1008beb0 f   libucrtd:expand.obj
 0001:0008afe0       ?value@?$dual_state_global@J@__crt_state_management@@QAEAAJXZ 1008bfe0 f i libucrtd:new_mode.obj
 0001:0008b000       __query_new_mode           1008c000 f   libucrtd:new_mode.obj
 0001:0008b020       __set_new_mode             1008c020 f   libucrtd:new_mode.obj
 0001:0008b0c0       __CrtDefaultAllocHook      1008c0c0 f   libucrtd:debug_heap_hook.obj
 0001:0008b0cc       __mbsdec                   1008c0cc f   libucrtd:mbsdec.obj
 0001:0008b0e3       __mbsdec_l                 1008c0e3 f   libucrtd:mbsdec.obj
 0001:0008b5d0       _strncpy_s                 1008c5d0 f   libucrtd:strncpy_s.obj
 0001:0008b7a0       ___acrt_report_runtime_error 1008c7a0 f   libucrtd:report_runtime_error.obj
 0001:0008b990       __query_app_type           1008c990 f   libucrtd:report_runtime_error.obj
 0001:0008b9a0       __set_app_type             1008c9a0 f   libucrtd:report_runtime_error.obj
 0001:0008b9b0       __iswctype_l               1008c9b0 f   libucrtd:iswctype.obj
 0001:0008b9d0       _iswctype                  1008c9d0 f   libucrtd:iswctype.obj
 0001:0008ba40       ___iswcsym                 1008ca40 f i libucrtd:_wctype.obj
 0001:0008ba80       ___iswcsymf                1008ca80 f i libucrtd:_wctype.obj
 0001:0008bac0       __isleadbyte_l             1008cac0 f i libucrtd:_wctype.obj
 0001:0008bb10       __iswalnum_l               1008cb10 f i libucrtd:_wctype.obj
 0001:0008bb30       __iswalpha_l               1008cb30 f i libucrtd:_wctype.obj
 0001:0008bb50       __iswblank_l               1008cb50 f i libucrtd:_wctype.obj
 0001:0008bb90       __iswcntrl_l               1008cb90 f i libucrtd:_wctype.obj
 0001:0008bbb0       __iswcsym_l                1008cbb0 f i libucrtd:_wctype.obj
 0001:0008bbf0       __iswcsymf_l               1008cbf0 f i libucrtd:_wctype.obj
 0001:0008bc30       __iswdigit_l               1008cc30 f i libucrtd:_wctype.obj
 0001:0008bc50       __iswgraph_l               1008cc50 f i libucrtd:_wctype.obj
 0001:0008bc70       __iswlower_l               1008cc70 f i libucrtd:_wctype.obj
 0001:0008bc90       __iswprint_l               1008cc90 f i libucrtd:_wctype.obj
 0001:0008bcb0       __iswpunct_l               1008ccb0 f i libucrtd:_wctype.obj
 0001:0008bcd0       __iswspace_l               1008ccd0 f i libucrtd:_wctype.obj
 0001:0008bcf0       __iswupper_l               1008ccf0 f i libucrtd:_wctype.obj
 0001:0008bd10       __iswxdigit_l              1008cd10 f i libucrtd:_wctype.obj
 0001:0008bd30       _isleadbyte                1008cd30 f i libucrtd:_wctype.obj
 0001:0008bd50       _iswalnum                  1008cd50 f i libucrtd:_wctype.obj
 0001:0008bd70       _iswalpha                  1008cd70 f i libucrtd:_wctype.obj
 0001:0008bd90       _iswascii                  1008cd90 f i libucrtd:_wctype.obj
 0001:0008bdc0       _iswblank                  1008cdc0 f i libucrtd:_wctype.obj
 0001:0008be00       _iswcntrl                  1008ce00 f i libucrtd:_wctype.obj
 0001:0008be20       _iswdigit                  1008ce20 f i libucrtd:_wctype.obj
 0001:0008be40       _iswgraph                  1008ce40 f i libucrtd:_wctype.obj
 0001:0008be60       _iswlower                  1008ce60 f i libucrtd:_wctype.obj
 0001:0008be80       _iswprint                  1008ce80 f i libucrtd:_wctype.obj
 0001:0008bea0       _iswpunct                  1008cea0 f i libucrtd:_wctype.obj
 0001:0008bec0       _iswspace                  1008cec0 f i libucrtd:_wctype.obj
 0001:0008bee0       _iswupper                  1008cee0 f i libucrtd:_wctype.obj
 0001:0008bf00       _iswxdigit                 1008cf00 f i libucrtd:_wctype.obj
 0001:0008bf90       ?__mbrtowc_utf8@__crt_mbstring@@YAIPA_WPBDIPAU_Mbstatet@@@Z 1008cf90 f   libucrtd:mbrtowc.obj
 0001:0008bfe0       ?__mbsrtowcs_utf8@__crt_mbstring@@YAIPA_WPAPBDIPAU_Mbstatet@@@Z 1008cfe0 f   libucrtd:mbrtowc.obj
 0001:0008c850       _btowc                     1008d850 f   libucrtd:mbrtowc.obj
 0001:0008c8c0       _mbrlen                    1008d8c0 f   libucrtd:mbrtowc.obj
 0001:0008c910       _mbrtowc                   1008d910 f   libucrtd:mbrtowc.obj
 0001:0008c9a0       _mbsrtowcs                 1008d9a0 f   libucrtd:mbrtowc.obj
 0001:0008c9c0       _mbsrtowcs_s               1008d9c0 f   libucrtd:mbrtowc.obj
 0001:0008cd10       ??$?RG@__crt_internal_free_policy@@QBEXQBG@Z 1008dd10 f i libucrtd:initctype.obj
 0001:0008cd30       ??$?RJ@__crt_internal_free_policy@@QBEXQBJ@Z 1008dd30 f i libucrtd:initctype.obj
 0001:0008cd50       ??0?$__crt_unique_heap_ptr@GU__crt_internal_free_policy@@@@QAE@QAG@Z 1008dd50 f i libucrtd:initctype.obj
 0001:0008cd70       ??0?$__crt_unique_heap_ptr@JU__crt_internal_free_policy@@@@QAE@QAJ@Z 1008dd70 f i libucrtd:initctype.obj
 0001:0008cd90       ??1?$__crt_unique_heap_ptr@GU__crt_internal_free_policy@@@@QAE@XZ 1008dd90 f i libucrtd:initctype.obj
 0001:0008cdb0       ??1?$__crt_unique_heap_ptr@JU__crt_internal_free_policy@@@@QAE@XZ 1008ddb0 f i libucrtd:initctype.obj
 0001:0008cdd0       ?detach@?$__crt_unique_heap_ptr@GU__crt_internal_free_policy@@@@QAEPAGXZ 1008ddd0 f i libucrtd:initctype.obj
 0001:0008ce00       ?detach@?$__crt_unique_heap_ptr@JU__crt_internal_free_policy@@@@QAEPAJXZ 1008de00 f i libucrtd:initctype.obj
 0001:0008ce30       ?release@?$__crt_unique_heap_ptr@GU__crt_internal_free_policy@@@@QAEXXZ 1008de30 f i libucrtd:initctype.obj
 0001:0008ce60       ?release@?$__crt_unique_heap_ptr@JU__crt_internal_free_policy@@@@QAEXXZ 1008de60 f i libucrtd:initctype.obj
 0001:0008ce90       ____lc_codepage_func       1008de90 f   libucrtd:initctype.obj
 0001:0008ced0       ____lc_collate_cp_func     1008ded0 f   libucrtd:initctype.obj
 0001:0008cf10       ____lc_locale_name_func    1008df10 f   libucrtd:initctype.obj
 0001:0008cf50       ____mb_cur_max_func        1008df50 f   libucrtd:initctype.obj
 0001:0008cf90       ____mb_cur_max_l_func      1008df90 f   libucrtd:initctype.obj
 0001:0008cfc0       ___acrt_locale_initialize_ctype 1008dfc0 f   libucrtd:initctype.obj
 0001:0008d740       ?__c32rtomb_utf8@__crt_mbstring@@YAIPAD_UPAU_Mbstatet@@@Z 1008e740 f   libucrtd:c32rtomb.obj
 0001:0008d920       ?reset_and_return@__crt_mbstring@@YAIIPAU_Mbstatet@@@Z 1008e920 f i libucrtd:c32rtomb.obj
 0001:0008d950       ?return_illegal_sequence@__crt_mbstring@@YAIPAU_Mbstatet@@@Z 1008e950 f i libucrtd:c32rtomb.obj
 0001:0008d980       _c32rtomb                  1008e980 f   libucrtd:c32rtomb.obj
 0001:0008d9a0       ___acrt_add_locale_ref     1008e9a0 f   libucrtd:locale_refcounting.obj
 0001:0008dab0       ___acrt_free_locale        1008eab0 f   libucrtd:locale_refcounting.obj
 0001:0008dd80       ___acrt_locale_add_lc_time_reference 1008ed80 f   libucrtd:locale_refcounting.obj
 0001:0008ddc0       ___acrt_locale_free_lc_time_if_unreferenced 1008edc0 f   libucrtd:locale_refcounting.obj
 0001:0008de10       ___acrt_locale_release_lc_time_reference 1008ee10 f   libucrtd:locale_refcounting.obj
 0001:0008de40       ___acrt_release_locale_ref 1008ee40 f   libucrtd:locale_refcounting.obj
 0001:0008df50       ___acrt_update_thread_locale_data 1008ef50 f   libucrtd:locale_refcounting.obj
