 OPOSPointCardRW

 Timestamp is 61a75c4f (Wed Dec  1 20:28:15 2021)

 Preferred load address is 10000000

 Start         Length     Name                   Class
 0001:00000000 00000d90H .text$di                CODE
 0001:00000d90 000b7e80H .text$mn                CODE
 0001:000b8c10 00000cb0H .text$x                 CODE
 0001:000b98c0 00000120H .text$yd                CODE
 0002:00000000 00000358H .idata$5                DATA
 0002:00000358 0000000cH .00cfg                  DATA
 0002:00000364 00000004H .CRT$XCA                DATA
 0002:00000368 00000004H .CRT$XCL                DATA
 0002:0000036c 0000006cH .CRT$XCU                DATA
 0002:000003d8 00000004H .CRT$XCZ                DATA
 0002:000003dc 00000004H .CRT$XIA                DATA
 0002:000003e0 00000014H .CRT$XIC                DATA
 0002:000003f4 00000004H .CRT$XIZ                DATA
 0002:000003f8 00000004H .CRT$XLA                DATA
 0002:000003fc 00000004H .CRT$XLZ                DATA
 0002:00000400 00000004H .CRT$XPA                DATA
 0002:00000404 00000008H .CRT$XPX                DATA
 0002:0000040c 00000004H .CRT$XPXA               DATA
 0002:00000410 00000004H .CRT$XPZ                DATA
 0002:00000414 00000004H .CRT$XTA                DATA
 0002:00000418 00000008H .CRT$XTZ                DATA
 0002:0000041c 00000000H .gfids$y                DATA
 0002:00000420 0002fc20H .rdata                  DATA
 0002:00030040 00000040H .rdata$CastGuardVftablesA DATA
 0002:00030080 00000040H .rdata$CastGuardVftablesC DATA
 0002:000300c0 00000018H .rdata$T                DATA
 0002:000300d8 0000033cH .rdata$r                DATA
 0002:00030414 000001a0H .rdata$sxdata           DATA
 0002:000305b4 00000178H .rdata$voltmd           DATA
 0002:0003072c 00000478H .rdata$zzzdbg           DATA
 0002:00030ba4 00000004H .rtc$IAA                DATA
 0002:00030ba8 00000018H .rtc$IMZ                DATA
 0002:00030bc0 00000004H .rtc$IZZ                DATA
 0002:00030bc4 00000004H .rtc$TAA                DATA
 0002:00030bc8 00000018H .rtc$TMZ                DATA
 0002:00030be0 00000004H .rtc$TZZ                DATA
 0002:00030be4 00000004H .tls                    DATA
 0002:00030be8 00000004H .tls$                   DATA
 0002:00030bec 00000004H .tls$ZZZ                DATA
 0002:00030bf0 00001a4cH .xdata$x                DATA
 0002:0003263c 00000004H ATL$__a                 DATA
 0002:00032640 00000010H ATL$__z                 DATA
 0002:00032650 000000acH .edata                  DATA
 0002:000326fc 00000078H .idata$2                DATA
 0002:00032774 00000014H .idata$3                DATA
 0002:00032788 00000358H .idata$4                DATA
 0002:00032ae0 00000d56H .idata$6                DATA
 0003:00000000 00000bd0H .data                   DATA
 0003:00000bd0 00000080H .data$r                 DATA
 0003:00000c50 000000b8H .data$rs                DATA
 0003:00000d08 00003580H .bss                    DATA
 0004:00000000 00000220H .rsrc$01                DATA
 0004:00000220 00005e00H .rsrc$02                DATA

  Address         Publics by Value              Rva+Base       Lib:Object

 0000:00000000       ___guard_longjmp_count     00000000     <absolute>
 0000:00000000       ___guard_eh_cont_table     00000000     <absolute>
 0000:00000000       ___AbsoluteZero            00000000     <absolute>
 0000:00000000       ___arm64x_native_entrypoint 00000000     <absolute>
 0000:00000000       ___guard_iat_table         00000000     <absolute>
 0000:00000000       __except_list              00000000     <absolute>
 0000:00000000       ___dynamic_value_reloc_table 00000000     <absolute>
 0000:00000000       ___hybrid_auxiliary_iat    00000000     <absolute>
 0000:00000000       ___hybrid_code_map_count   00000000     <absolute>
 0000:00000000       ___arm64x_redirection_metadata_count 00000000     <absolute>
 0000:00000000       ___guard_check_icall_a64n_fptr 00000000     <absolute>
 0000:00000000       ___guard_eh_cont_count     00000000     <absolute>
 0000:00000000       ___enclave_config          00000000     <absolute>
 0000:00000000       ___guard_fids_table        00000000     <absolute>
 0000:00000000       ___arm64x_redirection_metadata 00000000     <absolute>
 0000:00000000       ___hybrid_code_map         00000000     <absolute>
 0000:00000000       ___arm64x_extra_rfe_table_size 00000000     <absolute>
 0000:00000000       ___arm64x_extra_rfe_table  00000000     <absolute>
 0000:00000000       ___x64_code_ranges_to_entry_points 00000000     <absolute>
 0000:00000000       ___guard_fids_count        00000000     <absolute>
 0000:00000000       ___x64_code_ranges_to_entry_points_count 00000000     <absolute>
 0000:00000000       ___guard_iat_count         00000000     <absolute>
 0000:00000000       ___guard_longjmp_table     00000000     <absolute>
 0000:00000000       ___hybrid_auxiliary_iat_copy 00000000     <absolute>
 0000:0000002c       __tls_array                0000002c     <absolute>
 0000:00000068       ___safe_se_handler_count   00000068     <absolute>
 0000:00000100       ___guard_flags             00000100     <absolute>
 0000:00000000       ___ImageBase               10000000     <linker-defined>
 0001:00000d90       ?_assert@@YAXPB_W0I@Z      10001d90 f   Assert.obj
 0001:00000ec0       ___local_stdio_printf_options 10001ec0 f i Assert.obj
 0001:00000ed0       ___vswprintf_l             10001ed0 f i Assert.obj
 0001:00000f00       __swprintf                 10001f00 f i Assert.obj
 0001:00000f60       __vswprintf_c_l            10001f60 f i Assert.obj
 0001:00000fd0       __vswprintf_l              10001fd0 f i Assert.obj
 0001:00001000       ?cw_memcpy@@YGHPADPB_WH@Z  10002000 f   CWString.obj
 0001:00001060       ?cw_memcpy@@YGHPA_WPBDH@Z  10002060 f   CWString.obj
 0001:000010c0       ?cw_memcpy@@YGHPADPBDH@Z   100020c0 f   CWString.obj
 0001:00001110       ?cw_memcpy@@YGHPA_WPB_WH@Z 10002110 f   CWString.obj
 0001:00001150       ?cw_memset@@YAXPADDH@Z     10002150 f   CWString.obj
 0001:00001170       ?cw_memset@@YAXPA_W_WH@Z   10002170 f   CWString.obj
 0001:00001190       ?cw_strlen@@YAHPBD@Z       10002190 f   CWString.obj
 0001:000011d0       ?cw_strlen@@YAHPB_W@Z      100021d0 f   CWString.obj
 0001:00001210       ?cw_strcpy@@YAHPADPB_W@Z   10002210 f   CWString.obj
 0001:00001230       ?cw_strcpy@@YAHPA_WPBD@Z   10002230 f   CWString.obj
 0001:00001250       ?cw_strcpy@@YAHPADPBD@Z    10002250 f   CWString.obj
 0001:00001270       ?cw_strcpy@@YAHPA_WPB_W@Z  10002270 f   CWString.obj
 0001:00001290       ?cw_strcat@@YAHPADPB_W@Z   10002290 f   CWString.obj
 0001:000012c0       ?cw_strcat@@YAHPA_WPBD@Z   100022c0 f   CWString.obj
 0001:000012f0       ?cw_strcat@@YAHPADPBD@Z    100022f0 f   CWString.obj
 0001:00001320       ?cw_strcat@@YAHPA_WPB_W@Z  10002320 f   CWString.obj
 0001:00001350       ?cw_dup@@YGXPBDAAHAAPA_W1@Z 10002350 f   CWString.obj
 0001:00001410       ?cw_dup@@YGXPB_WAAHAAPAD1@Z 10002410 f   CWString.obj
 0001:000014c0       ?DupChar@_CW@@AAEXXZ       100024c0 f   CWString.obj
 0001:00001510       ?DupWide@_CW@@AAEXXZ       10002510 f   CWString.obj
 0001:00001560       ?GetCharsMbcs@_CW@@QAEHXZ  10002560 f   CWString.obj
 0001:000015c0       ?GetCharsWide@_CW@@QAEHXZ  100025c0 f   CWString.obj
 0001:00001620       ?SetVARIANT_BOOL@OposVariant@@QAEXF@Z 10002620 f   OposVariant.obj
 0001:00001680       ?SetVARIANT_BOOL_Ptr@OposVariant@@QAEXPAFAAJ@Z 10002680 f   OposVariant.obj
 0001:000016d0       ?GetLONG@OposVariant@@QAEJXZ 100026d0 f   OposVariant.obj
 0001:00001760       ?ChangeLONG@OposVariant@@QAEXPAJAAJ@Z 10002760 f   OposVariant.obj
 0001:00001820       ?SetLONG@OposVariant@@QAEXJ@Z 10002820 f   OposVariant.obj
 0001:00001860       ?SetLONG_Ptr@OposVariant@@QAEXPAJAAJ@Z 10002860 f   OposVariant.obj
 0001:000018b0       ?ChangeCURRENCY@OposVariant@@QAEXPATtagCY@@AAJ@Z 100028b0 f   OposVariant.obj
 0001:00001970       ?SetCURRENCY@OposVariant@@QAEXTtagCY@@@Z 10002970 f   OposVariant.obj
 0001:000019b0       ?SetCURRENCY_Ptr@OposVariant@@QAEXPATtagCY@@AAJ@Z 100029b0 f   OposVariant.obj
 0001:00001a00       ?ChangeBSTR@OposVariant@@QAEXPAPA_WAAJ@Z 10002a00 f   OposVariant.obj
 0001:00001ac0       ?SetBSTR@OposVariant@@QAEXPA_WAAJ@Z 10002ac0 f   OposVariant.obj
 0001:00001b10       ?SetBSTR_Copy@OposVariant@@QAEXPA_WAAJ@Z 10002b10 f   OposVariant.obj
 0001:00001bb0       ?SetBSTR_OutPtr@OposVariant@@QAE_NPAPA_WAAJ@Z 10002bb0 f   OposVariant.obj
 0001:00001c00       ?SetBSTR_InOutPtr@OposVariant@@QAE_NPAPA_WAAJ@Z 10002c00 f   OposVariant.obj
 0001:00001c50       ?SetVARIANT@OposVariant@@QAEXAAUtagVARIANT@@GAAJ@Z 10002c50 f   OposVariant.obj
 0001:00001cd0       ?SetVARIANT_Ptr@OposVariant@@QAEXAAPAUtagVARIANT@@GAAJ@Z 10002cd0 f   OposVariant.obj
 0001:00001d70       ?SetString@OposVariant@@QAEXPB_WAAJ@Z 10002d70 f   OposVariant.obj
 0001:00001e00       ?SetDispatch_Ptr@OposVariant@@QAEXPAUIDispatch@@AAJ@Z 10002e00 f   OposVariant.obj
 0001:00001e70       ??0OposDispParms@@QAE@PAVOposVariant@@H@Z 10002e70 f   OposVariant.obj
 0001:00001f40       ??1OposDispParms@@QAE@XZ   10002f40 f   OposVariant.obj
 0001:00001f90       ??$AtlMultiply@I@ATL@@YAJPAIII@Z 10002f90 f i OposVariant.obj
 0001:00001ff0       ??0?$CHeapPtr@_WVCCRTAllocator@ATL@@@ATL@@QAE@XZ 10002ff0 f i OposVariant.obj
 0001:00002020       ??0?$CHeapPtrBase@_WVCCRTAllocator@ATL@@@ATL@@IAE@XZ 10003020 f i OposVariant.obj
 0001:00002040       ??0?$CSimpleArray@GV?$CSimpleArrayEqualHelper@G@ATL@@@ATL@@QAE@XZ 10003040 f i OposVariant.obj
 0001:00002070       ??0?$CTraceCategoryEx@$00$0A@@ATL@@QAE@PB_W@Z 10003070 f i OposVariant.obj
 0001:000020a0       ??0?$CTraceCategoryEx@$01$0A@@ATL@@QAE@PB_W@Z 100030a0 f i OposVariant.obj
 0001:000020d0       ??0?$CTraceCategoryEx@$03$0A@@ATL@@QAE@PB_W@Z 100030d0 f i OposVariant.obj
 0001:00002100       ??0?$CTraceCategoryEx@$07$0A@@ATL@@QAE@PB_W@Z 10003100 f i OposVariant.obj
 0001:00002130       ??0?$CTraceCategoryEx@$0BA@$0A@@ATL@@QAE@PB_W@Z 10003130 f i OposVariant.obj
 0001:00002160       ??0?$CTraceCategoryEx@$0BAA@$0A@@ATL@@QAE@PB_W@Z 10003160 f i OposVariant.obj
 0001:000021a0       ??0?$CTraceCategoryEx@$0BAAA@$0A@@ATL@@QAE@PB_W@Z 100031a0 f i OposVariant.obj
 0001:000021e0       ??0?$CTraceCategoryEx@$0BAAAA@$0A@@ATL@@QAE@PB_W@Z 100031e0 f i OposVariant.obj
 0001:00002220       ??0?$CTraceCategoryEx@$0BAAAAA@$0A@@ATL@@QAE@PB_W@Z 10003220 f i OposVariant.obj
 0001:00002260       ??0?$CTraceCategoryEx@$0CA@$0A@@ATL@@QAE@PB_W@Z 10003260 f i OposVariant.obj
 0001:00002290       ??0?$CTraceCategoryEx@$0CAA@$0A@@ATL@@QAE@PB_W@Z 10003290 f i OposVariant.obj
 0001:000022d0       ??0?$CTraceCategoryEx@$0CAAA@$0A@@ATL@@QAE@PB_W@Z 100032d0 f i OposVariant.obj
 0001:00002310       ??0?$CTraceCategoryEx@$0CAAAA@$0A@@ATL@@QAE@PB_W@Z 10003310 f i OposVariant.obj
 0001:00002350       ??0?$CTraceCategoryEx@$0CAAAAA@$0A@@ATL@@QAE@PB_W@Z 10003350 f i OposVariant.obj
 0001:00002390       ??0?$CTraceCategoryEx@$0EA@$0A@@ATL@@QAE@PB_W@Z 10003390 f i OposVariant.obj
 0001:000023c0       ??0?$CTraceCategoryEx@$0EAA@$0A@@ATL@@QAE@PB_W@Z 100033c0 f i OposVariant.obj
 0001:00002400       ??0?$CTraceCategoryEx@$0EAAA@$0A@@ATL@@QAE@PB_W@Z 10003400 f i OposVariant.obj
 0001:00002440       ??0?$CTraceCategoryEx@$0EAAAA@$0A@@ATL@@QAE@PB_W@Z 10003440 f i OposVariant.obj
 0001:00002480       ??0?$CTraceCategoryEx@$0EAAAAA@$0A@@ATL@@QAE@PB_W@Z 10003480 f i OposVariant.obj
 0001:000024c0       ??0?$CTraceCategoryEx@$0IA@$0A@@ATL@@QAE@PB_W@Z 100034c0 f i OposVariant.obj
 0001:00002500       ??0?$CTraceCategoryEx@$0IAA@$0A@@ATL@@QAE@PB_W@Z 10003500 f i OposVariant.obj
 0001:00002540       ??0?$CTraceCategoryEx@$0IAAA@$0A@@ATL@@QAE@PB_W@Z 10003540 f i OposVariant.obj
 0001:00002580       ??0?$CTraceCategoryEx@$0IAAAA@$0A@@ATL@@QAE@PB_W@Z 10003580 f i OposVariant.obj
 0001:000025c0       ??0CAtlComModule@ATL@@QAE@XZ 100035c0 f i OposVariant.obj
 0001:000026a0       ??0CAtlWinModule@ATL@@QAE@XZ 100036a0 f i OposVariant.obj
 0001:00002730       ??0CComCriticalSection@ATL@@QAE@XZ 10003730 f i OposVariant.obj
 0001:00002760       ??0CPreserveLastError@ATL@@QAE@XZ 10003760 f i OposVariant.obj
 0001:000027a0       ??0CTraceFileAndLineInfo@ATL@@QAE@PBDH@Z 100037a0 f i OposVariant.obj
 0001:000027d0       ??0_ATL_COM_MODULE70@ATL@@QAE@XZ 100037d0 f i OposVariant.obj
 0001:00002800       ??0_ATL_WIN_MODULE70@ATL@@QAE@XZ 10003800 f i OposVariant.obj
 0001:00002840       ??1?$CHeapPtr@_WVCCRTAllocator@ATL@@@ATL@@QAE@XZ 10003840 f i OposVariant.obj
 0001:00002870       ??1?$CHeapPtrBase@_WVCCRTAllocator@ATL@@@ATL@@QAE@XZ 10003870 f i OposVariant.obj
 0001:000028a0       ??1?$CSimpleArray@GV?$CSimpleArrayEqualHelper@G@ATL@@@ATL@@QAE@XZ 100038a0 f i OposVariant.obj
 0001:000028d0       ??1CAtlComModule@ATL@@QAE@XZ 100038d0 f i OposVariant.obj
 0001:00002900       ??1CAtlWinModule@ATL@@QAE@XZ 10003900 f i OposVariant.obj
 0001:00002930       ??1CComBSTR@ATL@@QAE@XZ    10003930 f i OposVariant.obj
 0001:00002970       ??1CComCriticalSection@ATL@@QAE@XZ 10003970 f i OposVariant.obj
 0001:00002980       ??1CPreserveLastError@ATL@@QAE@XZ 10003980 f i OposVariant.obj
 0001:000029c0       ??1_ATL_COM_MODULE70@ATL@@QAE@XZ 100039c0 f i OposVariant.obj
 0001:000029f0       ??1_ATL_WIN_MODULE70@ATL@@QAE@XZ 100039f0 f i OposVariant.obj
 0001:00002a30       ??1stringdispid@CComTypeInfoHolder@ATL@@QAE@XZ 10003a30 f i OposVariant.obj
 0001:00002a60       ??A?$CSimpleArray@GV?$CSimpleArrayEqualHelper@G@ATL@@@ATL@@QAEAAGH@Z 10003a60 f i OposVariant.obj
 0001:00002ae0       ??B?$CHeapPtrBase@_WVCCRTAllocator@ATL@@@ATL@@QBEPA_WXZ 10003ae0 f i OposVariant.obj
 0001:00002af0       ??B?$CTraceCategoryEx@$01$0A@@ATL@@QAEIXZ 10003af0 f i OposVariant.obj
 0001:00002b00       ??B?$CTraceCategoryEx@$0CA@$0A@@ATL@@QAEIXZ 10003b00 f i OposVariant.obj
 0001:00002b10       ??RCTraceFileAndLineInfo@ATL@@QBAXHIPB_WZZ 10003b10 f i OposVariant.obj
 0001:00002bb0       ??_Estringdispid@CComTypeInfoHolder@ATL@@QAEPAXI@Z 10003bb0 f i OposVariant.obj
 0001:00002c40       ??_H@YGXPAXIIP6EPAX0@Z@Z   10003c40 f i OposVariant.obj
 0001:00002cb0       ??_I@YGXPAXIIP6EX0@Z@Z     10003cb0 f i OposVariant.obj
 0001:00002d30       ?Allocate@?$CHeapPtr@_WVCCRTAllocator@ATL@@@ATL@@QAE_NI@Z 10003d30 f i OposVariant.obj
 0001:00002dc0       ?Allocate@CCRTAllocator@ATL@@SAPAXI@Z 10003dc0 f i OposVariant.obj
 0001:00002de0       ?AllocateBytes@?$CHeapPtrBase@_WVCCRTAllocator@ATL@@@ATL@@QAE_NI@Z 10003de0 f i OposVariant.obj
 0001:00002e50       ?AtlWinModuleInit@ATL@@YGJPAU_ATL_WIN_MODULE70@1@@Z 10003e50 f i OposVariant.obj
 0001:00002f20       ?AtlWinModuleTerm@ATL@@YGJPAU_ATL_WIN_MODULE70@1@PAUHINSTANCE__@@@Z 10003f20 f i OposVariant.obj
 0001:00002fe0       ?Clear@OposVariant@@QAEJXZ 10003fe0 f i OposVariant.obj
 0001:00003020       ?Free@?$CHeapPtrBase@_WVCCRTAllocator@ATL@@@ATL@@QAEXXZ 10004020 f i OposVariant.obj
 0001:00003060       ?Free@CCRTAllocator@ATL@@SAXPAX@Z 10004060 f i OposVariant.obj
 0001:00003080       ?GetCategoryName@CTrace@ATL@@CAPA_WI@Z 10004080 f i OposVariant.obj
 0001:000030d0       ?GetModuleInstance@CAtlBaseModule@ATL@@QAEPAUHINSTANCE__@@XZ 100040d0 f i OposVariant.obj
 0001:000030f0       ?GetSize@?$CSimpleArray@GV?$CSimpleArrayEqualHelper@G@ATL@@@ATL@@QBEHXZ 100040f0 f i OposVariant.obj
 0001:00003110       ?Init@CComCriticalSection@ATL@@QAEJXZ 10004110 f i OposVariant.obj
 0001:00003170       ?RegisterCategory@CTrace@ATL@@SAXPB_WI@Z 10004170 f i OposVariant.obj
 0001:00003200       ?RemoveAll@?$CSimpleArray@GV?$CSimpleArrayEqualHelper@G@ATL@@@ATL@@QAEXXZ 10004200 f i OposVariant.obj
 0001:00003280       ?Term@CAtlComModule@ATL@@QAEXXZ 10004280 f i OposVariant.obj
 0001:00003340       ?Term@CAtlWinModule@ATL@@QAEXXZ 10004340 f i OposVariant.obj
 0001:00003370       ?Term@CComCriticalSection@ATL@@QAEJXZ 10004370 f i OposVariant.obj
 0001:000033b0       ?TraceV@CTrace@ATL@@CAXPBDHIIPB_W@Z 100043b0 f i OposVariant.obj
 0001:00003630       ?TraceV@CTrace@ATL@@SAXPBDHIIPB_WPAD@Z 10004630 f i OposVariant.obj
 0001:00003770       ?_AtlInitializeCriticalSectionEx@ATL@@YAHPAU_RTL_CRITICAL_SECTION@@KK@Z 10004770 f i OposVariant.obj
 0001:000037a0       ?_AtlRaiseException@ATL@@YAXKK@Z 100047a0 f i OposVariant.obj
 0001:000037d0       _HRESULT_FROM_WIN32        100047d0 f i OposVariant.obj
 0001:00003810       __vswprintf_s_l            10004810 f i OposVariant.obj
 0001:00003880       _swprintf_s                10004880 f i OposVariant.obj
 0001:000038e0       ?ObjectMain@CComObjectRootBase@ATL@@SGX_N@Z 100048e0 f i PointCardRW.obj
 0001:000038f0       ?GetCategoryMap@CComObjectRootBase@ATL@@SAPBU_ATL_CATMAP_ENTRY@2@XZ 100048f0 f i PointCardRW.obj
 0001:00003900       ?GetObjectDescription@?$CComCoClass@VCOPOSPointCardRW@@$1?CLSID_OPOSPointCardRW@@3U_GUID@@B@ATL@@SGPB_WXZ 10004900 f i PointCardRW.obj
 0001:00003910       ?UpdateRegistry@COPOSPointCardRW@@SGJH@Z 10004910 f i PointCardRW.obj
 0001:00003930       ?CreateInstance@?$CComCreator@V?$CComObjectCached@VCComClassFactory@ATL@@@ATL@@@ATL@@SGJPAXABU_GUID@@PAPAX@Z 10004930 f i PointCardRW.obj
 0001:00003ab0       ?CreateInstance@?$CComCreator2@V?$CComCreator@V?$CComObject@VCOPOSPointCardRW@@@ATL@@@ATL@@V?$CComCreator@V?$CComAggObject@VCOPOSPointCardRW@@@ATL@@@2@@ATL@@SGJPAXABU_GUID@@PAPAX@Z 10004ab0 f i PointCardRW.obj
 0001:00003c60       _DllGetClassObject@12      10004c60 f   PointCardRW.obj
 0001:00003c90       _DllCanUnloadNow@0         10004c90 f   PointCardRW.obj
 0001:00003cd0       _DllRegisterServer@0       10004cd0 f   PointCardRW.obj
 0001:00003cf0       _DllUnregisterServer@0     10004cf0 f   PointCardRW.obj
 0001:00003e80       _DllMain@12                10004e80 f   PointCardRW.obj
 0001:00003ee0       ??$?2G@Wrapper@?$CSimpleArray@GV?$CSimpleArrayEqualHelper@G@ATL@@@ATL@@SAPAXIPAG@Z 10004ee0 f i PointCardRW.obj
 0001:00003ef0       ??$?2PA_W@?$Wrapper@PA_W@?$CSimpleMap@PA_WPA_WVCExpansionVectorEqualHelper@ATL@@@ATL@@SAPAXIPAPA_W@Z 10004ef0 f i PointCardRW.obj
 0001:00003f00       ??$?4UITypeInfo2@@@?$CComPtr@UITypeInfo@@@ATL@@QAEPAUITypeInfo@@ABV?$CComPtr@UITypeInfo2@@@1@@Z 10004f00 f i PointCardRW.obj
 0001:00003f60       ??$AtlAdd@K@ATL@@YAJPAKKK@Z 10004f60 f i PointCardRW.obj
 0001:00003fa0       ??$AtlAdd@_K@ATL@@YAJPA_K_K1@Z 10004fa0 f i PointCardRW.obj
 0001:00004010       ??$AtlAddThrow@K@ATL@@YAKKK@Z 10005010 f i PointCardRW.obj
 0001:00004090       ??$AtlModuleRegisterWndClassInfoT@VAtlModuleRegisterWndClassInfoParamW@ATL@@@ATL@@YAGPAU_ATL_BASE_MODULE70@0@PAU_ATL_WIN_MODULE70@0@PAU_ATL_WNDCLASSINFOW@0@PAP6GJPAUHWND__@@IIJ@ZVAtlModuleRegisterWndClassInfoParamW@0@@Z 10005090 f i PointCardRW.obj
 0001:000044a0       ??$AtlMultiply@H@ATL@@YAJPAHHH@Z 100054a0 f i PointCardRW.obj
 0001:00004520       ??$AtlMultiply@K@ATL@@YAJPAKKK@Z 10005520 f i PointCardRW.obj
 0001:00004580       ??$AtlMultiplyThrow@I@ATL@@YAIII@Z 10005580 f i PointCardRW.obj
 0001:00004600       ??$QueryInterface@UIPersistStream@@@IUnknown@@QAGJPAPAUIPersistStream@@@Z 10005600 f i PointCardRW.obj
 0001:00004630       ??$QueryInterface@UITypeInfo2@@@IUnknown@@QAGJPAPAUITypeInfo2@@@Z 10005630 f i PointCardRW.obj
 0001:00004660       ??0?$CAtlModuleT@VCComModule@ATL@@@ATL@@QAE@XZ 10005660 f i PointCardRW.obj
 0001:00004690       ??0?$CAtlSafeAllocBufferManager@VCCRTAllocator@ATL@@@_ATL_SAFE_ALLOCA_IMPL@ATL@@QAE@XZ 10005690 f i PointCardRW.obj
 0001:000046b0       ??0?$CAutoVectorPtr@_W@ATL@@QAE@XZ 100056b0 f i PointCardRW.obj
 0001:000046d0       ??0?$CComAggObject@VCOPOSPointCardRW@@@ATL@@QAE@PAX@Z 100056d0 f i PointCardRW.obj
 0001:00004740       ??0?$CComContainedObject@VCOPOSPointCardRW@@@ATL@@QAE@PAX@Z 10005740 f i PointCardRW.obj
 0001:00004850       ??0?$CComCritSecLock@VCComCriticalSection@ATL@@@ATL@@QAE@AAVCComCriticalSection@1@_N@Z 10005850 f i PointCardRW.obj
 0001:000048b0       ??0?$CComEnum@UIEnumConnectionPoints@@$1?_GUID_b196b285_bab4_101a_b69c_00aa00341d07@@3U__s_GUID@@BPAUIConnectionPoint@@V?$_CopyInterface@UIConnectionPoint@@@ATL@@VCComSingleThreadModel@6@@ATL@@QAE@XZ 100058b0 f i PointCardRW.obj
 0001:000048f0       ??0?$CComEnum@UIEnumConnections@@$1?_GUID_b196b287_bab4_101a_b69c_00aa00341d07@@3U__s_GUID@@BUtagCONNECTDATA@@V?$_Copy@UtagCONNECTDATA@@@ATL@@VCComSingleThreadModel@6@@ATL@@QAE@XZ 100058f0 f i PointCardRW.obj
 0001:00004930       ??0?$CComEnumImpl@UIEnumConnectionPoints@@$1?_GUID_b196b285_bab4_101a_b69c_00aa00341d07@@3U__s_GUID@@BPAUIConnectionPoint@@V?$_CopyInterface@UIConnectionPoint@@@ATL@@@ATL@@QAE@XZ 10005930 f i PointCardRW.obj
 0001:00004990       ??0?$CComEnumImpl@UIEnumConnections@@$1?_GUID_b196b287_bab4_101a_b69c_00aa00341d07@@3U__s_GUID@@BUtagCONNECTDATA@@V?$_Copy@UtagCONNECTDATA@@@ATL@@@ATL@@QAE@XZ 10005990 f i PointCardRW.obj
 0001:000049f0       ??0?$CComObject@V?$CComEnum@UIEnumConnectionPoints@@$1?_GUID_b196b285_bab4_101a_b69c_00aa00341d07@@3U__s_GUID@@BPAUIConnectionPoint@@V?$_CopyInterface@UIConnectionPoint@@@ATL@@VCComSingleThreadModel@6@@ATL@@@ATL@@QAE@PAX@Z 100059f0 f i PointCardRW.obj
 0001:00004a40       ??0?$CComObject@V?$CComEnum@UIEnumConnections@@$1?_GUID_b196b287_bab4_101a_b69c_00aa00341d07@@3U__s_GUID@@BUtagCONNECTDATA@@V?$_Copy@UtagCONNECTDATA@@@ATL@@VCComSingleThreadModel@6@@ATL@@@ATL@@QAE@PAX@Z 10005a40 f i PointCardRW.obj
 0001:00004a90       ??0?$CComObject@VCOPOSPointCardRW@@@ATL@@QAE@PAX@Z 10005a90 f i PointCardRW.obj
 0001:00004bb0       ??0?$CComObjectCached@VCComClassFactory@ATL@@@ATL@@QAE@PAX@Z 10005bb0 f i PointCardRW.obj
 0001:00004bf0       ??0?$CComObjectRootEx@VCComMultiThreadModel@ATL@@@ATL@@QAE@XZ 10005bf0 f i PointCardRW.obj
 0001:00004c30       ??0?$CComObjectRootEx@VCComSingleThreadModel@ATL@@@ATL@@QAE@XZ 10005c30 f i PointCardRW.obj
 0001:00004c60       ??0?$CComPtr@UIAdviseSink@@@ATL@@QAE@PAUIAdviseSink@@@Z 10005c60 f i PointCardRW.obj
 0001:00004c90       ??0?$CComPtr@UICatRegister@@@ATL@@QAE@XZ 10005c90 f i PointCardRW.obj
 0001:00004cc0       ??0?$CComPtr@UIConnectionPoint@@@ATL@@QAE@XZ 10005cc0 f i PointCardRW.obj
 0001:00004cf0       ??0?$CComPtr@UIConnectionPointContainer@@@ATL@@QAE@XZ 10005cf0 f i PointCardRW.obj
 0001:00004d20       ??0?$CComPtr@UIDataObject@@@ATL@@QAE@XZ 10005d20 f i PointCardRW.obj
 0001:00004d50       ??0?$CComPtr@UIDispatch@@@ATL@@QAE@XZ 10005d50 f i PointCardRW.obj
 0001:00004d80       ??0?$CComPtr@UIOleClientSite@@@ATL@@QAE@PAUIOleClientSite@@@Z 10005d80 f i PointCardRW.obj
 0001:00004db0       ??0?$CComPtr@UIOleControlSite@@@ATL@@QAE@XZ 10005db0 f i PointCardRW.obj
 0001:00004de0       ??0?$CComPtr@UIOleInPlaceActiveObject@@@ATL@@QAE@XZ 10005de0 f i PointCardRW.obj
 0001:00004e10       ??0?$CComPtr@UIOleInPlaceFrame@@@ATL@@QAE@XZ 10005e10 f i PointCardRW.obj
 0001:00004e40       ??0?$CComPtr@UIOleInPlaceObject@@@ATL@@QAE@XZ 10005e40 f i PointCardRW.obj
 0001:00004e70       ??0?$CComPtr@UIOleInPlaceUIWindow@@@ATL@@QAE@XZ 10005e70 f i PointCardRW.obj
 0001:00004ea0       ??0?$CComPtr@UIOleObject@@@ATL@@QAE@XZ 10005ea0 f i PointCardRW.obj
 0001:00004ed0       ??0?$CComPtr@UIPersistStream@@@ATL@@QAE@XZ 10005ed0 f i PointCardRW.obj
 0001:00004f00       ??0?$CComPtr@UIPersistStreamInit@@@ATL@@QAE@XZ 10005f00 f i PointCardRW.obj
 0001:00004f30       ??0?$CComPtr@UIPointerInactive@@@ATL@@QAE@XZ 10005f30 f i PointCardRW.obj
 0001:00004f60       ??0?$CComPtr@UIProvideClassInfo2@@@ATL@@QAE@XZ 10005f60 f i PointCardRW.obj
 0001:00004f90       ??0?$CComPtr@UISpecifyPropertyPages@@@ATL@@QAE@XZ 10005f90 f i PointCardRW.obj
 0001:00004fc0       ??0?$CComPtr@UIStream@@@ATL@@QAE@XZ 10005fc0 f i PointCardRW.obj
 0001:00004ff0       ??0?$CComPtr@UITypeInfo2@@@ATL@@QAE@XZ 10005ff0 f i PointCardRW.obj
 0001:00005020       ??0?$CComPtr@UITypeInfo@@@ATL@@QAE@ABV01@@Z 10006020 f i PointCardRW.obj
 0001:00005050       ??0?$CComPtr@UITypeInfo@@@ATL@@QAE@XZ 10006050 f i PointCardRW.obj
 0001:00005080       ??0?$CComPtr@UITypeLib@@@ATL@@QAE@XZ 10006080 f i PointCardRW.obj
 0001:000050b0       ??0?$CComPtr@UIUnknown@@@ATL@@QAE@ABV01@@Z 100060b0 f i PointCardRW.obj
 0001:000050e0       ??0?$CComPtr@UIUnknown@@@ATL@@QAE@PAUIUnknown@@@Z 100060e0 f i PointCardRW.obj
 0001:00005110       ??0?$CComPtr@UIUnknown@@@ATL@@QAE@XZ 10006110 f i PointCardRW.obj
 0001:00005140       ??0?$CComPtr@UIViewObjectEx@@@ATL@@QAE@XZ 10006140 f i PointCardRW.obj
 0001:00005170       ??0?$CComPtrBase@UIAdviseSink@@@ATL@@IAE@PAUIAdviseSink@@@Z 10006170 f i PointCardRW.obj
 0001:000051c0       ??0?$CComPtrBase@UICatRegister@@@ATL@@IAE@XZ 100061c0 f i PointCardRW.obj
 0001:000051e0       ??0?$CComPtrBase@UIConnectionPoint@@@ATL@@IAE@XZ 100061e0 f i PointCardRW.obj
 0001:00005200       ??0?$CComPtrBase@UIConnectionPointContainer@@@ATL@@IAE@XZ 10006200 f i PointCardRW.obj
 0001:00005220       ??0?$CComPtrBase@UIDataObject@@@ATL@@IAE@XZ 10006220 f i PointCardRW.obj
 0001:00005240       ??0?$CComPtrBase@UIDispatch@@@ATL@@IAE@XZ 10006240 f i PointCardRW.obj
 0001:00005260       ??0?$CComPtrBase@UIOleClientSite@@@ATL@@IAE@PAUIOleClientSite@@@Z 10006260 f i PointCardRW.obj
 0001:000052b0       ??0?$CComPtrBase@UIOleControlSite@@@ATL@@IAE@XZ 100062b0 f i PointCardRW.obj
 0001:000052d0       ??0?$CComPtrBase@UIOleInPlaceActiveObject@@@ATL@@IAE@XZ 100062d0 f i PointCardRW.obj
 0001:000052f0       ??0?$CComPtrBase@UIOleInPlaceFrame@@@ATL@@IAE@XZ 100062f0 f i PointCardRW.obj
 0001:00005310       ??0?$CComPtrBase@UIOleInPlaceObject@@@ATL@@IAE@XZ 10006310 f i PointCardRW.obj
 0001:00005330       ??0?$CComPtrBase@UIOleInPlaceUIWindow@@@ATL@@IAE@XZ 10006330 f i PointCardRW.obj
 0001:00005350       ??0?$CComPtrBase@UIOleObject@@@ATL@@IAE@XZ 10006350 f i PointCardRW.obj
 0001:00005370       ??0?$CComPtrBase@UIPersistStream@@@ATL@@IAE@XZ 10006370 f i PointCardRW.obj
 0001:00005390       ??0?$CComPtrBase@UIPersistStreamInit@@@ATL@@IAE@XZ 10006390 f i PointCardRW.obj
 0001:000053b0       ??0?$CComPtrBase@UIPointerInactive@@@ATL@@IAE@XZ 100063b0 f i PointCardRW.obj
 0001:000053d0       ??0?$CComPtrBase@UIProvideClassInfo2@@@ATL@@IAE@XZ 100063d0 f i PointCardRW.obj
 0001:000053f0       ??0?$CComPtrBase@UISpecifyPropertyPages@@@ATL@@IAE@XZ 100063f0 f i PointCardRW.obj
 0001:00005410       ??0?$CComPtrBase@UIStream@@@ATL@@IAE@XZ 10006410 f i PointCardRW.obj
 0001:00005430       ??0?$CComPtrBase@UITypeInfo2@@@ATL@@IAE@XZ 10006430 f i PointCardRW.obj
 0001:00005450       ??0?$CComPtrBase@UITypeInfo@@@ATL@@IAE@PAUITypeInfo@@@Z 10006450 f i PointCardRW.obj
 0001:000054a0       ??0?$CComPtrBase@UITypeInfo@@@ATL@@IAE@XZ 100064a0 f i PointCardRW.obj
 0001:000054c0       ??0?$CComPtrBase@UITypeLib@@@ATL@@IAE@XZ 100064c0 f i PointCardRW.obj
 0001:000054e0       ??0?$CComPtrBase@UIUnknown@@@ATL@@IAE@PAUIUnknown@@@Z 100064e0 f i PointCardRW.obj
 0001:00005530       ??0?$CComPtrBase@UIUnknown@@@ATL@@IAE@XZ 10006530 f i PointCardRW.obj
 0001:00005550       ??0?$CComPtrBase@UIViewObjectEx@@@ATL@@IAE@XZ 10006550 f i PointCardRW.obj
 0001:00005570       ??0?$CComQIPtr@UIOleControlSite@@$1?_GUID_b196b289_bab4_101a_b69c_00aa00341d07@@3U__s_GUID@@B@ATL@@QAE@PAUIUnknown@@@Z 10006570 f i PointCardRW.obj
 0001:000055d0       ??0?$CComQIPtr@UIOleObject@@$1?_GUID_00000112_0000_0000_c000_000000000046@@3U__s_GUID@@B@ATL@@QAE@XZ 100065d0 f i PointCardRW.obj
 0001:00005600       ??0?$CComQIPtr@UISpecifyPropertyPages@@$1?_GUID_b196b28b_bab4_101a_b69c_00aa00341d07@@3U__s_GUID@@B@ATL@@QAE@XZ 10006600 f i PointCardRW.obj
 0001:00005630       ??0?$CSimpleMap@PA_WPA_WVCExpansionVectorEqualHelper@ATL@@@ATL@@QAE@XZ 10006630 f i PointCardRW.obj
 0001:00005660       ??0?$CTempBuffer@E$0BAA@VCCRTAllocator@ATL@@@ATL@@QAE@XZ 10006660 f i PointCardRW.obj
 0001:00005680       ??0?$CTempBuffer@_W$0BAA@VCCRTAllocator@ATL@@@ATL@@QAE@XZ 10006680 f i PointCardRW.obj
 0001:000056a0       ??0?$CTempBuffer@_W$0EAA@VCCRTAllocator@ATL@@@ATL@@QAE@XZ 100066a0 f i PointCardRW.obj
 0001:000056c0       ??0?$Wrapper@PA_W@?$CSimpleMap@PA_WPA_WVCExpansionVectorEqualHelper@ATL@@@ATL@@QAE@ABQA_W@Z 100066c0 f i PointCardRW.obj
 0001:000056e0       ??0CAtlModule@ATL@@QAE@XZ  100066e0 f i PointCardRW.obj
 0001:00005800       ??0CComAutoDeleteCriticalSection@ATL@@QAE@XZ 10006800 f i PointCardRW.obj
 0001:00005830       ??0CComBSTR@ATL@@QAE@XZ    10006830 f i PointCardRW.obj
 0001:00005850       ??0CComClassFactory@ATL@@QAE@XZ 10006850 f i PointCardRW.obj
 0001:00005890       ??0CComModule@ATL@@QAE@XZ  10006890 f i PointCardRW.obj
 0001:00005900       ??0CComObjectRootBase@ATL@@QAE@XZ 10006900 f i PointCardRW.obj
 0001:00005920       ??0CComSafeDeleteCriticalSection@ATL@@QAE@XZ 10006920 f i PointCardRW.obj
 0001:00005950       ??0CComVariant@ATL@@QAE@XZ 10006950 f i PointCardRW.obj
 0001:000059a0       ??0CExpansionVector@ATL@@QAE@XZ 100069a0 f i PointCardRW.obj
 0001:000059d0       ??0CParseBuffer@CRegParser@ATL@@QAE@H@Z 100069d0 f i PointCardRW.obj
 0001:00005a40       ??0CRegKey@ATL@@QAE@PAUHKEY__@@@Z 10006a40 f i PointCardRW.obj
 0001:00005a70       ??0CRegKey@ATL@@QAE@PAVCAtlTransactionManager@1@@Z 10006a70 f i PointCardRW.obj
 0001:00005aa0       ??0CRegObject@ATL@@QAE@XZ  10006aa0 f i PointCardRW.obj
 0001:00005ae0       ??0CRegParser@ATL@@QAE@PAVCRegObject@1@@Z 10006ae0 f i PointCardRW.obj
 0001:00005b10       ??0IClassFactory@@QAE@XZ   10006b10 f i PointCardRW.obj
 0001:00005b40       ??0IEnumConnectionPoints@@QAE@XZ 10006b40 f i PointCardRW.obj
 0001:00005b70       ??0IEnumConnections@@QAE@XZ 10006b70 f i PointCardRW.obj
 0001:00005ba0       ??0IRegistrarBase@@QAE@XZ  10006ba0 f i PointCardRW.obj
 0001:00005bd0       ??0IUnknown@@QAE@XZ        10006bd0 f i PointCardRW.obj
 0001:00005be0       ??0ModuleLockHelper@ATL@@QAE@XZ 10006be0 f i PointCardRW.obj
 0001:00005c20       ??0OposVariant@@QAE@XZ     10006c20 f i PointCardRW.obj
 0001:00005c40       ??0Wrapper@?$CSimpleArray@GV?$CSimpleArrayEqualHelper@G@ATL@@@ATL@@QAE@ABG@Z 10006c40 f i PointCardRW.obj
 0001:00005c60       ??0_ATL_MODULE70@ATL@@QAE@XZ 10006c60 f i PointCardRW.obj
 0001:00005c90       ??0_ATL_MSG@ATL@@QAE@PAUHWND__@@IIJH@Z 10006c90 f i PointCardRW.obj
 0001:00005d00       ??0_U_MENUorID@ATL@@QAE@I@Z 10006d00 f i PointCardRW.obj
 0001:00005d20       ??0_U_RECT@ATL@@QAE@AAUtagRECT@@@Z 10006d20 f i PointCardRW.obj
 0001:00005d40       ??0stringdispid@CComTypeInfoHolder@ATL@@QAE@XZ 10006d40 f i PointCardRW.obj
 0001:00005d80       ??1?$CAtlModuleT@VCComModule@ATL@@@ATL@@UAE@XZ 10006d80 f i PointCardRW.obj
 0001:00005db0       ??1?$CAtlSafeAllocBufferManager@VCCRTAllocator@ATL@@@_ATL_SAFE_ALLOCA_IMPL@ATL@@QAE@XZ 10006db0 f i PointCardRW.obj
 0001:00005e00       ??1?$CAutoVectorPtr@_W@ATL@@QAE@XZ 10006e00 f i PointCardRW.obj
 0001:00005e30       ??1?$CComAggObject@VCOPOSPointCardRW@@@ATL@@UAE@XZ 10006e30 f i PointCardRW.obj
 0001:00005ea0       ??1?$CComContainedObject@VCOPOSPointCardRW@@@ATL@@UAE@XZ 10006ea0 f i PointCardRW.obj
 0001:00005ed0       ??1?$CComCritSecLock@VCComCriticalSection@ATL@@@ATL@@QAE@XZ 10006ed0 f i PointCardRW.obj
 0001:00005f00       ??1?$CComEnum@UIEnumConnectionPoints@@$1?_GUID_b196b285_bab4_101a_b69c_00aa00341d07@@3U__s_GUID@@BPAUIConnectionPoint@@V?$_CopyInterface@UIConnectionPoint@@@ATL@@VCComSingleThreadModel@6@@ATL@@UAE@XZ 10006f00 f i PointCardRW.obj
 0001:00005f30       ??1?$CComEnum@UIEnumConnections@@$1?_GUID_b196b287_bab4_101a_b69c_00aa00341d07@@3U__s_GUID@@BUtagCONNECTDATA@@V?$_Copy@UtagCONNECTDATA@@@ATL@@VCComSingleThreadModel@6@@ATL@@UAE@XZ 10006f30 f i PointCardRW.obj
 0001:00005f60       ??1?$CComEnumImpl@UIEnumConnectionPoints@@$1?_GUID_b196b285_bab4_101a_b69c_00aa00341d07@@3U__s_GUID@@BPAUIConnectionPoint@@V?$_CopyInterface@UIConnectionPoint@@@ATL@@@ATL@@UAE@XZ 10006f60 f i PointCardRW.obj
 0001:00005ff0       ??1?$CComEnumImpl@UIEnumConnections@@$1?_GUID_b196b287_bab4_101a_b69c_00aa00341d07@@3U__s_GUID@@BUtagCONNECTDATA@@V?$_Copy@UtagCONNECTDATA@@@ATL@@@ATL@@UAE@XZ 10006ff0 f i PointCardRW.obj
 0001:00006080       ??1?$CComObject@V?$CComEnum@UIEnumConnectionPoints@@$1?_GUID_b196b285_bab4_101a_b69c_00aa00341d07@@3U__s_GUID@@BPAUIConnectionPoint@@V?$_CopyInterface@UIConnectionPoint@@@ATL@@VCComSingleThreadModel@6@@ATL@@@ATL@@UAE@XZ 10007080 f i PointCardRW.obj
 0001:000060e0       ??1?$CComObject@V?$CComEnum@UIEnumConnections@@$1?_GUID_b196b287_bab4_101a_b69c_00aa00341d07@@3U__s_GUID@@BUtagCONNECTDATA@@V?$_Copy@UtagCONNECTDATA@@@ATL@@VCComSingleThreadModel@6@@ATL@@@ATL@@UAE@XZ 100070e0 f i PointCardRW.obj
 0001:00006140       ??1?$CComObject@VCOPOSPointCardRW@@@ATL@@UAE@XZ 10007140 f i PointCardRW.obj
 0001:00006280       ??1?$CComObjectCached@VCComClassFactory@ATL@@@ATL@@UAE@XZ 10007280 f i PointCardRW.obj
 0001:000062d0       ??1?$CComObjectRootEx@VCComMultiThreadModel@ATL@@@ATL@@QAE@XZ 100072d0 f i PointCardRW.obj
 0001:00006300       ??1?$CComObjectRootEx@VCComSingleThreadModel@ATL@@@ATL@@QAE@XZ 10007300 f i PointCardRW.obj
 0001:00006330       ??1?$CComPtr@UIAdviseSink@@@ATL@@QAE@XZ 10007330 f i PointCardRW.obj
 0001:00006360       ??1?$CComPtr@UICatRegister@@@ATL@@QAE@XZ 10007360 f i PointCardRW.obj
 0001:00006390       ??1?$CComPtr@UIConnectionPoint@@@ATL@@QAE@XZ 10007390 f i PointCardRW.obj
 0001:000063c0       ??1?$CComPtr@UIConnectionPointContainer@@@ATL@@QAE@XZ 100073c0 f i PointCardRW.obj
 0001:000063f0       ??1?$CComPtr@UIDataObject@@@ATL@@QAE@XZ 100073f0 f i PointCardRW.obj
 0001:00006420       ??1?$CComPtr@UIDispatch@@@ATL@@QAE@XZ 10007420 f i PointCardRW.obj
 0001:00006450       ??1?$CComPtr@UIOleClientSite@@@ATL@@QAE@XZ 10007450 f i PointCardRW.obj
 0001:00006480       ??1?$CComPtr@UIOleControlSite@@@ATL@@QAE@XZ 10007480 f i PointCardRW.obj
 0001:000064b0       ??1?$CComPtr@UIOleInPlaceActiveObject@@@ATL@@QAE@XZ 100074b0 f i PointCardRW.obj
 0001:000064e0       ??1?$CComPtr@UIOleInPlaceFrame@@@ATL@@QAE@XZ 100074e0 f i PointCardRW.obj
 0001:00006510       ??1?$CComPtr@UIOleInPlaceObject@@@ATL@@QAE@XZ 10007510 f i PointCardRW.obj
 0001:00006540       ??1?$CComPtr@UIOleInPlaceUIWindow@@@ATL@@QAE@XZ 10007540 f i PointCardRW.obj
 0001:00006570       ??1?$CComPtr@UIOleObject@@@ATL@@QAE@XZ 10007570 f i PointCardRW.obj
 0001:000065a0       ??1?$CComPtr@UIPersistStream@@@ATL@@QAE@XZ 100075a0 f i PointCardRW.obj
 0001:000065d0       ??1?$CComPtr@UIPersistStreamInit@@@ATL@@QAE@XZ 100075d0 f i PointCardRW.obj
 0001:00006600       ??1?$CComPtr@UIPointerInactive@@@ATL@@QAE@XZ 10007600 f i PointCardRW.obj
 0001:00006630       ??1?$CComPtr@UIProvideClassInfo2@@@ATL@@QAE@XZ 10007630 f i PointCardRW.obj
 0001:00006660       ??1?$CComPtr@UISpecifyPropertyPages@@@ATL@@QAE@XZ 10007660 f i PointCardRW.obj
 0001:00006690       ??1?$CComPtr@UIStream@@@ATL@@QAE@XZ 10007690 f i PointCardRW.obj
 0001:000066c0       ??1?$CComPtr@UITypeInfo2@@@ATL@@QAE@XZ 100076c0 f i PointCardRW.obj
 0001:000066f0       ??1?$CComPtr@UITypeInfo@@@ATL@@QAE@XZ 100076f0 f i PointCardRW.obj
 0001:00006720       ??1?$CComPtr@UITypeLib@@@ATL@@QAE@XZ 10007720 f i PointCardRW.obj
 0001:00006750       ??1?$CComPtr@UIUnknown@@@ATL@@QAE@XZ 10007750 f i PointCardRW.obj
 0001:00006780       ??1?$CComPtr@UIViewObjectEx@@@ATL@@QAE@XZ 10007780 f i PointCardRW.obj
 0001:000067b0       ??1?$CComPtrBase@UIAdviseSink@@@ATL@@QAE@XZ 100077b0 f i PointCardRW.obj
 0001:00006800       ??1?$CComPtrBase@UICatRegister@@@ATL@@QAE@XZ 10007800 f i PointCardRW.obj
 0001:00006850       ??1?$CComPtrBase@UIConnectionPoint@@@ATL@@QAE@XZ 10007850 f i PointCardRW.obj
 0001:000068a0       ??1?$CComPtrBase@UIConnectionPointContainer@@@ATL@@QAE@XZ 100078a0 f i PointCardRW.obj
 0001:000068f0       ??1?$CComPtrBase@UIDataObject@@@ATL@@QAE@XZ 100078f0 f i PointCardRW.obj
 0001:00006940       ??1?$CComPtrBase@UIDispatch@@@ATL@@QAE@XZ 10007940 f i PointCardRW.obj
 0001:00006990       ??1?$CComPtrBase@UIOleClientSite@@@ATL@@QAE@XZ 10007990 f i PointCardRW.obj
 0001:000069e0       ??1?$CComPtrBase@UIOleControlSite@@@ATL@@QAE@XZ 100079e0 f i PointCardRW.obj
 0001:00006a30       ??1?$CComPtrBase@UIOleInPlaceActiveObject@@@ATL@@QAE@XZ 10007a30 f i PointCardRW.obj
 0001:00006a80       ??1?$CComPtrBase@UIOleInPlaceFrame@@@ATL@@QAE@XZ 10007a80 f i PointCardRW.obj
 0001:00006ad0       ??1?$CComPtrBase@UIOleInPlaceObject@@@ATL@@QAE@XZ 10007ad0 f i PointCardRW.obj
 0001:00006b20       ??1?$CComPtrBase@UIOleInPlaceUIWindow@@@ATL@@QAE@XZ 10007b20 f i PointCardRW.obj
 0001:00006b70       ??1?$CComPtrBase@UIOleObject@@@ATL@@QAE@XZ 10007b70 f i PointCardRW.obj
 0001:00006bc0       ??1?$CComPtrBase@UIPersistStream@@@ATL@@QAE@XZ 10007bc0 f i PointCardRW.obj
 0001:00006c10       ??1?$CComPtrBase@UIPersistStreamInit@@@ATL@@QAE@XZ 10007c10 f i PointCardRW.obj
 0001:00006c60       ??1?$CComPtrBase@UIPointerInactive@@@ATL@@QAE@XZ 10007c60 f i PointCardRW.obj
 0001:00006cb0       ??1?$CComPtrBase@UIProvideClassInfo2@@@ATL@@QAE@XZ 10007cb0 f i PointCardRW.obj
 0001:00006d00       ??1?$CComPtrBase@UISpecifyPropertyPages@@@ATL@@QAE@XZ 10007d00 f i PointCardRW.obj
 0001:00006d50       ??1?$CComPtrBase@UIStream@@@ATL@@QAE@XZ 10007d50 f i PointCardRW.obj
 0001:00006da0       ??1?$CComPtrBase@UITypeInfo2@@@ATL@@QAE@XZ 10007da0 f i PointCardRW.obj
 0001:00006df0       ??1?$CComPtrBase@UITypeInfo@@@ATL@@QAE@XZ 10007df0 f i PointCardRW.obj
 0001:00006e40       ??1?$CComPtrBase@UITypeLib@@@ATL@@QAE@XZ 10007e40 f i PointCardRW.obj
 0001:00006e90       ??1?$CComPtrBase@UIUnknown@@@ATL@@QAE@XZ 10007e90 f i PointCardRW.obj
 0001:00006ee0       ??1?$CComPtrBase@UIViewObjectEx@@@ATL@@QAE@XZ 10007ee0 f i PointCardRW.obj
 0001:00006f30       ??1?$CComQIPtr@UIOleControlSite@@$1?_GUID_b196b289_bab4_101a_b69c_00aa00341d07@@3U__s_GUID@@B@ATL@@QAE@XZ 10007f30 f i PointCardRW.obj
 0001:00006f60       ??1?$CComQIPtr@UIOleObject@@$1?_GUID_00000112_0000_0000_c000_000000000046@@3U__s_GUID@@B@ATL@@QAE@XZ 10007f60 f i PointCardRW.obj
 0001:00006f90       ??1?$CComQIPtr@UISpecifyPropertyPages@@$1?_GUID_b196b28b_bab4_101a_b69c_00aa00341d07@@3U__s_GUID@@B@ATL@@QAE@XZ 10007f90 f i PointCardRW.obj
 0001:00006fc0       ??1?$CSimpleMap@PA_WPA_WVCExpansionVectorEqualHelper@ATL@@@ATL@@QAE@XZ 10007fc0 f i PointCardRW.obj
 0001:00006ff0       ??1?$CTempBuffer@E$0BAA@VCCRTAllocator@ATL@@@ATL@@QAE@XZ 10007ff0 f i PointCardRW.obj
 0001:00007030       ??1?$CTempBuffer@_W$0BAA@VCCRTAllocator@ATL@@@ATL@@QAE@XZ 10008030 f i PointCardRW.obj
 0001:00007070       ??1?$CTempBuffer@_W$0EAA@VCCRTAllocator@ATL@@@ATL@@QAE@XZ 10008070 f i PointCardRW.obj
 0001:000070b0       ??1CAtlModule@ATL@@UAE@XZ  100080b0 f i PointCardRW.obj
 0001:000070e0       ??1CComAutoDeleteCriticalSection@ATL@@QAE@XZ 100080e0 f i PointCardRW.obj
 0001:00007110       ??1CComClassFactory@ATL@@UAE@XZ 10008110 f i PointCardRW.obj
 0001:00007140       ??1CComModule@ATL@@UAE@XZ  10008140 f i PointCardRW.obj
 0001:00007170       ??1CComObjectRootBase@ATL@@QAE@XZ 10008170 f i PointCardRW.obj
 0001:00007180       ??1CComSafeDeleteCriticalSection@ATL@@QAE@XZ 10008180 f i PointCardRW.obj
 0001:000071c0       ??1CComVariant@ATL@@QAE@XZ 100081c0 f i PointCardRW.obj
 0001:00007220       ??1CExpansionVector@ATL@@QAE@XZ 10008220 f i PointCardRW.obj
 0001:00007250       ??1CParseBuffer@CRegParser@ATL@@QAE@XZ 10008250 f i PointCardRW.obj
 0001:00007290       ??1CRegKey@ATL@@QAE@XZ     10008290 f i PointCardRW.obj
 0001:000072c0       ??1CRegObject@ATL@@UAE@XZ  100082c0 f i PointCardRW.obj
 0001:00007300       ??1ModuleLockHelper@ATL@@QAE@XZ 10008300 f i PointCardRW.obj
 0001:00007340       ??1OposVariant@@QAE@XZ     10008340 f i PointCardRW.obj
 0001:00007370       ??1_ATL_MODULE70@ATL@@QAE@XZ 10008370 f i PointCardRW.obj
 0001:000073a0       ??4?$CComPtr@UIAdviseSink@@@ATL@@QAEPAUIAdviseSink@@PAU2@@Z 100083a0 f i PointCardRW.obj
 0001:00007400       ??4?$CComPtr@UIOleClientSite@@@ATL@@QAEPAUIOleClientSite@@PAU2@@Z 10008400 f i PointCardRW.obj
 0001:00007460       ??4?$CComPtr@UIUnknown@@@ATL@@QAEPAUIUnknown@@PAU2@@Z 10008460 f i PointCardRW.obj
 0001:000074c0       ??4?$CComQIPtr@UIOleObject@@$1?_GUID_00000112_0000_0000_c000_000000000046@@3U__s_GUID@@B@ATL@@QAEPAUIOleObject@@PAUIUnknown@@@Z 100084c0 f i PointCardRW.obj
 0001:00007510       ??4?$CComQIPtr@UISpecifyPropertyPages@@$1?_GUID_b196b28b_bab4_101a_b69c_00aa00341d07@@3U__s_GUID@@B@ATL@@QAEPAUISpecifyPropertyPages@@PAUIUnknown@@@Z 10008510 f i PointCardRW.obj
 0001:00007560       ??7?$CComPtrBase@UIOleClientSite@@@ATL@@QBE_NXZ 10008560 f i PointCardRW.obj
 0001:00007590       ??7?$CComPtrBase@UIOleInPlaceSiteWindowless@@@ATL@@QBE_NXZ 10008590 f i PointCardRW.obj
 0001:000075c0       ??7CComBSTR@ATL@@QBE_NXZ   100085c0 f i PointCardRW.obj
 0001:000075f0       ??8?$CComPtrBase@UIConnectionPointContainer@@@ATL@@QBE_NPAUIConnectionPointContainer@@@Z 100085f0 f i PointCardRW.obj
 0001:00007620       ??8?$CComPtrBase@UIDataAdviseHolder@@@ATL@@QBE_NPAUIDataAdviseHolder@@@Z 10008620 f i PointCardRW.obj
 0001:00007650       ??8?$CComPtrBase@UIOleAdviseHolder@@@ATL@@QBE_NPAUIOleAdviseHolder@@@Z 10008650 f i PointCardRW.obj
 0001:00007680       ??8?$CComPtrBase@UIOleClientSite@@@ATL@@QBE_NPAUIOleClientSite@@@Z 10008680 f i PointCardRW.obj
 0001:000076b0       ??8?$CComPtrBase@UIOleControlSite@@@ATL@@QBE_NPAUIOleControlSite@@@Z 100086b0 f i PointCardRW.obj
 0001:000076e0       ??8?$CComPtrBase@UIOleInPlaceObject@@@ATL@@QBE_NPAUIOleInPlaceObject@@@Z 100086e0 f i PointCardRW.obj
 0001:00007710       ??8?$CComPtrBase@UIOleInPlaceSiteWindowless@@@ATL@@QBE_NPAUIOleInPlaceSiteWindowless@@@Z 10008710 f i PointCardRW.obj
 0001:00007740       ??8?$CComPtrBase@UIOleObject@@@ATL@@QBE_NPAUIOleObject@@@Z 10008740 f i PointCardRW.obj
 0001:00007770       ??8?$CComPtrBase@UIPersistStream@@@ATL@@QBE_NPAUIPersistStream@@@Z 10008770 f i PointCardRW.obj
 0001:000077a0       ??8?$CComPtrBase@UIPersistStreamInit@@@ATL@@QBE_NPAUIPersistStreamInit@@@Z 100087a0 f i PointCardRW.obj
 0001:000077d0       ??8?$CComPtrBase@UIPointerInactive@@@ATL@@QBE_NPAUIPointerInactive@@@Z 100087d0 f i PointCardRW.obj
 0001:00007800       ??8?$CComPtrBase@UIUnknown@@@ATL@@QBE_NPAUIUnknown@@@Z 10008800 f i PointCardRW.obj
 0001:00007830       ??8?$CComPtrBase@UIViewObjectEx@@@ATL@@QBE_NPAUIViewObjectEx@@@Z 10008830 f i PointCardRW.obj
 0001:00007860       ??8CComBSTR@ATL@@QBE_NH@Z  10008860 f i PointCardRW.obj
 0001:000078c0       ??9?$CComPtrBase@UIConnectionPointContainer@@@ATL@@QBE_NPAUIConnectionPointContainer@@@Z 100088c0 f i PointCardRW.obj
 0001:00007910       ??9?$CComPtrBase@UIDataAdviseHolder@@@ATL@@QBE_NPAUIDataAdviseHolder@@@Z 10008910 f i PointCardRW.obj
 0001:00007960       ??9?$CComPtrBase@UIOleAdviseHolder@@@ATL@@QBE_NPAUIOleAdviseHolder@@@Z 10008960 f i PointCardRW.obj
 0001:000079b0       ??9?$CComPtrBase@UIOleClientSite@@@ATL@@QBE_NPAUIOleClientSite@@@Z 100089b0 f i PointCardRW.obj
 0001:00007a00       ??9?$CComPtrBase@UIOleControlSite@@@ATL@@QBE_NPAUIOleControlSite@@@Z 10008a00 f i PointCardRW.obj
 0001:00007a50       ??9?$CComPtrBase@UIOleInPlaceObject@@@ATL@@QBE_NPAUIOleInPlaceObject@@@Z 10008a50 f i PointCardRW.obj
 0001:00007aa0       ??9?$CComPtrBase@UIOleInPlaceSiteWindowless@@@ATL@@QBE_NPAUIOleInPlaceSiteWindowless@@@Z 10008aa0 f i PointCardRW.obj
 0001:00007af0       ??9?$CComPtrBase@UIOleObject@@@ATL@@QBE_NPAUIOleObject@@@Z 10008af0 f i PointCardRW.obj
 0001:00007b40       ??9?$CComPtrBase@UIPersistStream@@@ATL@@QBE_NPAUIPersistStream@@@Z 10008b40 f i PointCardRW.obj
 0001:00007b90       ??9?$CComPtrBase@UIPersistStreamInit@@@ATL@@QBE_NPAUIPersistStreamInit@@@Z 10008b90 f i PointCardRW.obj
 0001:00007be0       ??9?$CComPtrBase@UIPointerInactive@@@ATL@@QBE_NPAUIPointerInactive@@@Z 10008be0 f i PointCardRW.obj
 0001:00007c30       ??9?$CComPtrBase@UIUnknown@@@ATL@@QBE_NPAUIUnknown@@@Z 10008c30 f i PointCardRW.obj
 0001:00007c80       ??9?$CComPtrBase@UIViewObjectEx@@@ATL@@QBE_NPAUIViewObjectEx@@@Z 10008c80 f i PointCardRW.obj
 0001:00007cd0       ??9CComBSTR@ATL@@QBE_NH@Z  10008cd0 f i PointCardRW.obj
 0001:00007d20       ??B?$CComPtrBase@UIAdviseSink@@@ATL@@QBEPAUIAdviseSink@@XZ 10008d20 f i PointCardRW.obj
 0001:00007d30       ??B?$CComPtrBase@UIDataAdviseHolder@@@ATL@@QBEPAUIDataAdviseHolder@@XZ 10008d30 f i PointCardRW.obj
 0001:00007d40       ??B?$CComPtrBase@UIDataObject@@@ATL@@QBEPAUIDataObject@@XZ 10008d40 f i PointCardRW.obj
 0001:00007d50       ??B?$CComPtrBase@UIOleAdviseHolder@@@ATL@@QBEPAUIOleAdviseHolder@@XZ 10008d50 f i PointCardRW.obj
 0001:00007d60       ??B?$CComPtrBase@UIOleClientSite@@@ATL@@QBEPAUIOleClientSite@@XZ 10008d60 f i PointCardRW.obj
 0001:00007d70       ??B?$CComPtrBase@UIOleControlSite@@@ATL@@QBEPAUIOleControlSite@@XZ 10008d70 f i PointCardRW.obj
 0001:00007d80       ??B?$CComPtrBase@UIOleInPlaceActiveObject@@@ATL@@QBEPAUIOleInPlaceActiveObject@@XZ 10008d80 f i PointCardRW.obj
 0001:00007d90       ??B?$CComPtrBase@UIOleInPlaceFrame@@@ATL@@QBEPAUIOleInPlaceFrame@@XZ 10008d90 f i PointCardRW.obj
 0001:00007da0       ??B?$CComPtrBase@UIOleInPlaceSiteWindowless@@@ATL@@QBEPAUIOleInPlaceSiteWindowless@@XZ 10008da0 f i PointCardRW.obj
 0001:00007db0       ??B?$CComPtrBase@UIOleInPlaceUIWindow@@@ATL@@QBEPAUIOleInPlaceUIWindow@@XZ 10008db0 f i PointCardRW.obj
 0001:00007dc0       ??B?$CComPtrBase@UIOleObject@@@ATL@@QBEPAUIOleObject@@XZ 10008dc0 f i PointCardRW.obj
 0001:00007dd0       ??B?$CComPtrBase@UIPersistStream@@@ATL@@QBEPAUIPersistStream@@XZ 10008dd0 f i PointCardRW.obj
 0001:00007de0       ??B?$CComPtrBase@UIProvideClassInfo2@@@ATL@@QBEPAUIProvideClassInfo2@@XZ 10008de0 f i PointCardRW.obj
 0001:00007df0       ??B?$CComPtrBase@UISpecifyPropertyPages@@@ATL@@QBEPAUISpecifyPropertyPages@@XZ 10008df0 f i PointCardRW.obj
 0001:00007e00       ??B?$CComPtrBase@UIStream@@@ATL@@QBEPAUIStream@@XZ 10008e00 f i PointCardRW.obj
 0001:00007e10       ??B?$CComPtrBase@UITypeInfo2@@@ATL@@QBEPAUITypeInfo2@@XZ 10008e10 f i PointCardRW.obj
 0001:00007e20       ??B?$CComPtrBase@UITypeInfo@@@ATL@@QBEPAUITypeInfo@@XZ 10008e20 f i PointCardRW.obj
 0001:00007e30       ??B?$CComPtrBase@UITypeLib@@@ATL@@QBEPAUITypeLib@@XZ 10008e30 f i PointCardRW.obj
 0001:00007e40       ??B?$CComPtrBase@UIUnknown@@@ATL@@QBEPAUIUnknown@@XZ 10008e40 f i PointCardRW.obj
 0001:00007e50       ??B?$CTempBuffer@E$0BAA@VCCRTAllocator@ATL@@@ATL@@QBEPAEXZ 10008e50 f i PointCardRW.obj
 0001:00007e60       ??B?$CTempBuffer@_W$0BAA@VCCRTAllocator@ATL@@@ATL@@QBEPA_WXZ 10008e60 f i PointCardRW.obj
 0001:00007e70       ??B?$CTempBuffer@_W$0EAA@VCCRTAllocator@ATL@@@ATL@@QBEPA_WXZ 10008e70 f i PointCardRW.obj
 0001:00007e80       ??B?$CTraceCategoryEx@$00$0A@@ATL@@QAEIXZ 10008e80 f i PointCardRW.obj
 0001:00007e90       ??B?$CTraceCategoryEx@$07$0A@@ATL@@QAEIXZ 10008e90 f i PointCardRW.obj
 0001:00007ea0       ??B?$CTraceCategoryEx@$0CAAA@$0A@@ATL@@QAEIXZ 10008ea0 f i PointCardRW.obj
 0001:00007eb0       ??B?$CTraceCategoryEx@$0EA@$0A@@ATL@@QAEIXZ 10008eb0 f i PointCardRW.obj
 0001:00007ec0       ??B?$CTraceCategoryEx@$0IAA@$0A@@ATL@@QAEIXZ 10008ec0 f i PointCardRW.obj
 0001:00007ed0       ??BCComBSTR@ATL@@QBEPA_WXZ 10008ed0 f i PointCardRW.obj
 0001:00007ee0       ??BCRegKey@ATL@@QBEPAUHKEY__@@XZ 10008ee0 f i PointCardRW.obj
 0001:00007ef0       ??C?$CComPtrBase@UIAdviseSink@@@ATL@@QBEPAV?$_NoAddRefReleaseOnCComPtr@UIAdviseSink@@@1@XZ 10008ef0 f i PointCardRW.obj
 0001:00007f40       ??C?$CComPtrBase@UICatRegister@@@ATL@@QBEPAV?$_NoAddRefReleaseOnCComPtr@UICatRegister@@@1@XZ 10008f40 f i PointCardRW.obj
 0001:00007f90       ??C?$CComPtrBase@UIConnectionPoint@@@ATL@@QBEPAV?$_NoAddRefReleaseOnCComPtr@UIConnectionPoint@@@1@XZ 10008f90 f i PointCardRW.obj
 0001:00007fe0       ??C?$CComPtrBase@UIConnectionPointContainer@@@ATL@@QBEPAV?$_NoAddRefReleaseOnCComPtr@UIConnectionPointContainer@@@1@XZ 10008fe0 f i PointCardRW.obj
 0001:00008030       ??C?$CComPtrBase@UIDataAdviseHolder@@@ATL@@QBEPAV?$_NoAddRefReleaseOnCComPtr@UIDataAdviseHolder@@@1@XZ 10009030 f i PointCardRW.obj
 0001:00008080       ??C?$CComPtrBase@UIOleAdviseHolder@@@ATL@@QBEPAV?$_NoAddRefReleaseOnCComPtr@UIOleAdviseHolder@@@1@XZ 10009080 f i PointCardRW.obj
 0001:000080d0       ??C?$CComPtrBase@UIOleClientSite@@@ATL@@QBEPAV?$_NoAddRefReleaseOnCComPtr@UIOleClientSite@@@1@XZ 100090d0 f i PointCardRW.obj
 0001:00008120       ??C?$CComPtrBase@UIOleControlSite@@@ATL@@QBEPAV?$_NoAddRefReleaseOnCComPtr@UIOleControlSite@@@1@XZ 10009120 f i PointCardRW.obj
 0001:00008170       ??C?$CComPtrBase@UIOleInPlaceFrame@@@ATL@@QBEPAV?$_NoAddRefReleaseOnCComPtr@UIOleInPlaceFrame@@@1@XZ 10009170 f i PointCardRW.obj
 0001:000081c0       ??C?$CComPtrBase@UIOleInPlaceObject@@@ATL@@QBEPAV?$_NoAddRefReleaseOnCComPtr@UIOleInPlaceObject@@@1@XZ 100091c0 f i PointCardRW.obj
 0001:00008210       ??C?$CComPtrBase@UIOleInPlaceSiteWindowless@@@ATL@@QBEPAV?$_NoAddRefReleaseOnCComPtr@UIOleInPlaceSiteWindowless@@@1@XZ 10009210 f i PointCardRW.obj
 0001:00008260       ??C?$CComPtrBase@UIOleInPlaceUIWindow@@@ATL@@QBEPAV?$_NoAddRefReleaseOnCComPtr@UIOleInPlaceUIWindow@@@1@XZ 10009260 f i PointCardRW.obj
 0001:000082b0       ??C?$CComPtrBase@UIOleObject@@@ATL@@QBEPAV?$_NoAddRefReleaseOnCComPtr@UIOleObject@@@1@XZ 100092b0 f i PointCardRW.obj
 0001:00008300       ??C?$CComPtrBase@UIPersistStream@@@ATL@@QBEPAV?$_NoAddRefReleaseOnCComPtr@UIPersistStream@@@1@XZ 10009300 f i PointCardRW.obj
 0001:00008350       ??C?$CComPtrBase@UIPersistStreamInit@@@ATL@@QBEPAV?$_NoAddRefReleaseOnCComPtr@UIPersistStreamInit@@@1@XZ 10009350 f i PointCardRW.obj
 0001:000083a0       ??C?$CComPtrBase@UIPointerInactive@@@ATL@@QBEPAV?$_NoAddRefReleaseOnCComPtr@UIPointerInactive@@@1@XZ 100093a0 f i PointCardRW.obj
 0001:000083f0       ??C?$CComPtrBase@UIProvideClassInfo2@@@ATL@@QBEPAV?$_NoAddRefReleaseOnCComPtr@UIProvideClassInfo2@@@1@XZ 100093f0 f i PointCardRW.obj
 0001:00008440       ??C?$CComPtrBase@UISpecifyPropertyPages@@@ATL@@QBEPAV?$_NoAddRefReleaseOnCComPtr@UISpecifyPropertyPages@@@1@XZ 10009440 f i PointCardRW.obj
 0001:00008490       ??C?$CComPtrBase@UITypeInfo@@@ATL@@QBEPAV?$_NoAddRefReleaseOnCComPtr@UITypeInfo@@@1@XZ 10009490 f i PointCardRW.obj
 0001:000084e0       ??C?$CComPtrBase@UITypeLib@@@ATL@@QBEPAV?$_NoAddRefReleaseOnCComPtr@UITypeLib@@@1@XZ 100094e0 f i PointCardRW.obj
 0001:00008530       ??C?$CComPtrBase@UIUnknown@@@ATL@@QBEPAV?$_NoAddRefReleaseOnCComPtr@UIUnknown@@@1@XZ 10009530 f i PointCardRW.obj
 0001:00008580       ??C?$CComPtrBase@UIViewObjectEx@@@ATL@@QBEPAV?$_NoAddRefReleaseOnCComPtr@UIViewObjectEx@@@1@XZ 10009580 f i PointCardRW.obj
 0001:000085d0       ??I?$CComPtrBase@UICatRegister@@@ATL@@QAEPAPAUICatRegister@@XZ 100095d0 f i PointCardRW.obj
 0001:00008620       ??I?$CComPtrBase@UIConnectionPoint@@@ATL@@QAEPAPAUIConnectionPoint@@XZ 10009620 f i PointCardRW.obj
 0001:00008670       ??I?$CComPtrBase@UIConnectionPointContainer@@@ATL@@QAEPAPAUIConnectionPointContainer@@XZ 10009670 f i PointCardRW.obj
 0001:000086c0       ??I?$CComPtrBase@UIDataAdviseHolder@@@ATL@@QAEPAPAUIDataAdviseHolder@@XZ 100096c0 f i PointCardRW.obj
 0001:00008710       ??I?$CComPtrBase@UIDataObject@@@ATL@@QAEPAPAUIDataObject@@XZ 10009710 f i PointCardRW.obj
 0001:00008760       ??I?$CComPtrBase@UIDispatch@@@ATL@@QAEPAPAUIDispatch@@XZ 10009760 f i PointCardRW.obj
 0001:000087b0       ??I?$CComPtrBase@UIOleAdviseHolder@@@ATL@@QAEPAPAUIOleAdviseHolder@@XZ 100097b0 f i PointCardRW.obj
 0001:00008800       ??I?$CComPtrBase@UIOleControlSite@@@ATL@@QAEPAPAUIOleControlSite@@XZ 10009800 f i PointCardRW.obj
 0001:00008850       ??I?$CComPtrBase@UIOleInPlaceActiveObject@@@ATL@@QAEPAPAUIOleInPlaceActiveObject@@XZ 10009850 f i PointCardRW.obj
 0001:000088a0       ??I?$CComPtrBase@UIOleInPlaceFrame@@@ATL@@QAEPAPAUIOleInPlaceFrame@@XZ 100098a0 f i PointCardRW.obj
 0001:000088f0       ??I?$CComPtrBase@UIOleInPlaceObject@@@ATL@@QAEPAPAUIOleInPlaceObject@@XZ 100098f0 f i PointCardRW.obj
 0001:00008940       ??I?$CComPtrBase@UIOleInPlaceSiteWindowless@@@ATL@@QAEPAPAUIOleInPlaceSiteWindowless@@XZ 10009940 f i PointCardRW.obj
 0001:00008990       ??I?$CComPtrBase@UIOleInPlaceUIWindow@@@ATL@@QAEPAPAUIOleInPlaceUIWindow@@XZ 10009990 f i PointCardRW.obj
 0001:000089e0       ??I?$CComPtrBase@UIOleObject@@@ATL@@QAEPAPAUIOleObject@@XZ 100099e0 f i PointCardRW.obj
 0001:00008a30       ??I?$CComPtrBase@UIPersistStream@@@ATL@@QAEPAPAUIPersistStream@@XZ 10009a30 f i PointCardRW.obj
 0001:00008a80       ??I?$CComPtrBase@UIPointerInactive@@@ATL@@QAEPAPAUIPointerInactive@@XZ 10009a80 f i PointCardRW.obj
 0001:00008ad0       ??I?$CComPtrBase@UIProvideClassInfo2@@@ATL@@QAEPAPAUIProvideClassInfo2@@XZ 10009ad0 f i PointCardRW.obj
 0001:00008b20       ??I?$CComPtrBase@UIStream@@@ATL@@QAEPAPAUIStream@@XZ 10009b20 f i PointCardRW.obj
 0001:00008b70       ??I?$CComPtrBase@UITypeInfo2@@@ATL@@QAEPAPAUITypeInfo2@@XZ 10009b70 f i PointCardRW.obj
 0001:00008bc0       ??I?$CComPtrBase@UITypeInfo@@@ATL@@QAEPAPAUITypeInfo@@XZ 10009bc0 f i PointCardRW.obj
 0001:00008c10       ??I?$CComPtrBase@UITypeLib@@@ATL@@QAEPAPAUITypeLib@@XZ 10009c10 f i PointCardRW.obj
 0001:00008c60       ??I?$CComPtrBase@UIUnknown@@@ATL@@QAEPAPAUIUnknown@@XZ 10009c60 f i PointCardRW.obj
 0001:00008cb0       ??I?$CComPtrBase@UIViewObjectEx@@@ATL@@QAEPAPAUIViewObjectEx@@XZ 10009cb0 f i PointCardRW.obj
 0001:00008d00       ??ICComBSTR@ATL@@QAEPAPA_WXZ 10009d00 f i PointCardRW.obj
 0001:00008d0e       ??_E?$CComContainedObject@VCOPOSPointCardRW@@@ATL@@W3AEPAXI@Z 10009d0e f i PointCardRW.obj
 0001:00008d16       ??_E?$CComContainedObject@VCOPOSPointCardRW@@@ATL@@WEM@AEPAXI@Z 10009d16 f i PointCardRW.obj
 0001:00008d1e       ??_E?$CComObject@VCOPOSPointCardRW@@@ATL@@W3AEPAXI@Z 10009d1e f i PointCardRW.obj
 0001:00008d26       ??_E?$CComObject@VCOPOSPointCardRW@@@ATL@@WEM@AEPAXI@Z 10009d26 f i PointCardRW.obj
 0001:00008d30       ??_E?$CComAggObject@VCOPOSPointCardRW@@@ATL@@UAEPAXI@Z 10009d30 f i PointCardRW.obj
 0001:00008d30       ??_G?$CComAggObject@VCOPOSPointCardRW@@@ATL@@UAEPAXI@Z 10009d30 f i PointCardRW.obj
 0001:00008d80       ??_G?$CComContainedObject@VCOPOSPointCardRW@@@ATL@@UAEPAXI@Z 10009d80 f i PointCardRW.obj
 0001:00008d80       ??_E?$CComContainedObject@VCOPOSPointCardRW@@@ATL@@UAEPAXI@Z 10009d80 f i PointCardRW.obj
 0001:00008dd0       ??_G?$CComObject@V?$CComEnum@UIEnumConnectionPoints@@$1?_GUID_b196b285_bab4_101a_b69c_00aa00341d07@@3U__s_GUID@@BPAUIConnectionPoint@@V?$_CopyInterface@UIConnectionPoint@@@ATL@@VCComSingleThreadModel@6@@ATL@@@ATL@@UAEPAXI@Z 10009dd0 f i PointCardRW.obj
 0001:00008dd0       ??_E?$CComObject@V?$CComEnum@UIEnumConnectionPoints@@$1?_GUID_b196b285_bab4_101a_b69c_00aa00341d07@@3U__s_GUID@@BPAUIConnectionPoint@@V?$_CopyInterface@UIConnectionPoint@@@ATL@@VCComSingleThreadModel@6@@ATL@@@ATL@@UAEPAXI@Z 10009dd0 f i PointCardRW.obj
 0001:00008e10       ??_E?$CComObject@V?$CComEnum@UIEnumConnections@@$1?_GUID_b196b287_bab4_101a_b69c_00aa00341d07@@3U__s_GUID@@BUtagCONNECTDATA@@V?$_Copy@UtagCONNECTDATA@@@ATL@@VCComSingleThreadModel@6@@ATL@@@ATL@@UAEPAXI@Z 10009e10 f i PointCardRW.obj
 0001:00008e10       ??_G?$CComObject@V?$CComEnum@UIEnumConnections@@$1?_GUID_b196b287_bab4_101a_b69c_00aa00341d07@@3U__s_GUID@@BUtagCONNECTDATA@@V?$_Copy@UtagCONNECTDATA@@@ATL@@VCComSingleThreadModel@6@@ATL@@@ATL@@UAEPAXI@Z 10009e10 f i PointCardRW.obj
 0001:00008e50       ??_E?$CComObject@VCOPOSPointCardRW@@@ATL@@UAEPAXI@Z 10009e50 f i PointCardRW.obj
 0001:00008e50       ??_G?$CComObject@VCOPOSPointCardRW@@@ATL@@UAEPAXI@Z 10009e50 f i PointCardRW.obj
 0001:00008ea0       ??_G?$CComObjectCached@VCComClassFactory@ATL@@@ATL@@UAEPAXI@Z 10009ea0 f i PointCardRW.obj
 0001:00008ea0       ??_E?$CComObjectCached@VCComClassFactory@ATL@@@ATL@@UAEPAXI@Z 10009ea0 f i PointCardRW.obj
 0001:00008ee0       ??_GCComClassFactory@ATL@@UAEPAXI@Z 10009ee0 f i PointCardRW.obj
 0001:00008ee0       ??_ECComClassFactory@ATL@@UAEPAXI@Z 10009ee0 f i PointCardRW.obj
 0001:00008f20       ??_ECComModule@ATL@@UAEPAXI@Z 10009f20 f i PointCardRW.obj
 0001:00008f20       ??_GCComModule@ATL@@UAEPAXI@Z 10009f20 f i PointCardRW.obj
 0001:00008f60       ??_GCRegObject@ATL@@UAEPAXI@Z 10009f60 f i PointCardRW.obj
 0001:00008f60       ??_ECRegObject@ATL@@UAEPAXI@Z 10009f60 f i PointCardRW.obj
 0001:00008fa0       ?Add@?$CSimpleArray@GV?$CSimpleArrayEqualHelper@G@ATL@@@ATL@@QAEHABG@Z 10009fa0 f i PointCardRW.obj
 0001:000090f0       ?Add@?$CSimpleMap@PA_WPA_WVCExpansionVectorEqualHelper@ATL@@@ATL@@QAEHABQA_W0@Z 1000a0f0 f i PointCardRW.obj
 0001:000091b0       ?Add@CComDynamicUnkArray@ATL@@QAEKPAUIUnknown@@@Z 1000a1b0 f i PointCardRW.obj
 0001:00009350       ?Add@CExpansionVector@ATL@@QAEHPB_W0@Z 1000a350 f i PointCardRW.obj
 0001:000095e0       ?AddChar@CParseBuffer@CRegParser@ATL@@QAEHPB_W@Z 1000a5e0 f i PointCardRW.obj
 0001:00009620       ?AddCommonRGSReplacements@?$CAtlModuleT@VCComModule@ATL@@@ATL@@UAEJPAUIRegistrarBase@@@Z 1000a620 f i PointCardRW.obj
 0001:00009670       ?AddCreateWndData@CAtlWinModule@ATL@@QAEXPAU_AtlCreateWndData@2@PAX@Z 1000a670 f i PointCardRW.obj
 0001:000096a0       ?AddRef@?$CComAggObject@VCOPOSPointCardRW@@@ATL@@UAGKXZ 1000a6a0 f i PointCardRW.obj
 0001:000096c0       ?AddRef@?$CComContainedObject@VCOPOSPointCardRW@@@ATL@@UAGKXZ 1000a6c0 f i PointCardRW.obj
 0001:000096dc       ?AddRef@?$CComContainedObject@VCOPOSPointCardRW@@@ATL@@WHA@AGKXZ 1000a6dc f i PointCardRW.obj
 0001:000096e6       ?AddRef@?$CComContainedObject@VCOPOSPointCardRW@@@ATL@@WHE@AGKXZ 1000a6e6 f i PointCardRW.obj
 0001:000096f0       ?AddRef@?$CComContainedObject@VCOPOSPointCardRW@@@ATL@@WHI@AGKXZ 1000a6f0 f i PointCardRW.obj
 0001:000096fa       ?AddRef@?$CComContainedObject@VCOPOSPointCardRW@@@ATL@@WHM@AGKXZ 1000a6fa f i PointCardRW.obj
 0001:00009704       ?AddRef@?$CComContainedObject@VCOPOSPointCardRW@@@ATL@@WIA@AGKXZ 1000a704 f i PointCardRW.obj
 0001:00009711       ?AddRef@?$CComContainedObject@VCOPOSPointCardRW@@@ATL@@WIE@AGKXZ 1000a711 f i PointCardRW.obj
 0001:0000971e       ?AddRef@?$CComContainedObject@VCOPOSPointCardRW@@@ATL@@WII@AGKXZ 1000a71e f i PointCardRW.obj
 0001:0000972b       ?AddRef@?$CComContainedObject@VCOPOSPointCardRW@@@ATL@@WIM@AGKXZ 1000a72b f i PointCardRW.obj
 0001:00009738       ?AddRef@?$CComContainedObject@VCOPOSPointCardRW@@@ATL@@WJA@AGKXZ 1000a738 f i PointCardRW.obj
 0001:00009745       ?AddRef@?$CComContainedObject@VCOPOSPointCardRW@@@ATL@@WJE@AGKXZ 1000a745 f i PointCardRW.obj
 0001:00009752       ?AddRef@?$CComContainedObject@VCOPOSPointCardRW@@@ATL@@WJI@AGKXZ 1000a752 f i PointCardRW.obj
 0001:0000975f       ?AddRef@?$CComContainedObject@VCOPOSPointCardRW@@@ATL@@WJM@AGKXZ 1000a75f f i PointCardRW.obj
 0001:0000976c       ?AddRef@?$CComContainedObject@VCOPOSPointCardRW@@@ATL@@WKA@AGKXZ 1000a76c f i PointCardRW.obj
 0001:00009779       ?AddRef@?$CComContainedObject@VCOPOSPointCardRW@@@ATL@@WKI@AGKXZ 1000a779 f i PointCardRW.obj
 0001:00009786       ?AddRef@?$CComContainedObject@VCOPOSPointCardRW@@@ATL@@WLE@AGKXZ 1000a786 f i PointCardRW.obj
 0001:000097a0       ?AddRef@?$CComObject@V?$CComEnum@UIEnumConnectionPoints@@$1?_GUID_b196b285_bab4_101a_b69c_00aa00341d07@@3U__s_GUID@@BPAUIConnectionPoint@@V?$_CopyInterface@UIConnectionPoint@@@ATL@@VCComSingleThreadModel@6@@ATL@@@ATL@@UAGKXZ 1000a7a0 f i PointCardRW.obj
 0001:000097c0       ?AddRef@?$CComObject@V?$CComEnum@UIEnumConnections@@$1?_GUID_b196b287_bab4_101a_b69c_00aa00341d07@@3U__s_GUID@@BUtagCONNECTDATA@@V?$_Copy@UtagCONNECTDATA@@@ATL@@VCComSingleThreadModel@6@@ATL@@@ATL@@UAGKXZ 1000a7c0 f i PointCardRW.obj
 0001:000097e0       ?AddRef@?$CComObject@VCOPOSPointCardRW@@@ATL@@UAGKXZ 1000a7e0 f i PointCardRW.obj
 0001:000097fc       ?AddRef@?$CComObject@VCOPOSPointCardRW@@@ATL@@WHA@AGKXZ 1000a7fc f i PointCardRW.obj
 0001:00009806       ?AddRef@?$CComObject@VCOPOSPointCardRW@@@ATL@@WHE@AGKXZ 1000a806 f i PointCardRW.obj
 0001:00009810       ?AddRef@?$CComObject@VCOPOSPointCardRW@@@ATL@@WHI@AGKXZ 1000a810 f i PointCardRW.obj
 0001:0000981a       ?AddRef@?$CComObject@VCOPOSPointCardRW@@@ATL@@WHM@AGKXZ 1000a81a f i PointCardRW.obj
 0001:00009824       ?AddRef@?$CComObject@VCOPOSPointCardRW@@@ATL@@WIA@AGKXZ 1000a824 f i PointCardRW.obj
 0001:00009831       ?AddRef@?$CComObject@VCOPOSPointCardRW@@@ATL@@WIE@AGKXZ 1000a831 f i PointCardRW.obj
 0001:0000983e       ?AddRef@?$CComObject@VCOPOSPointCardRW@@@ATL@@WII@AGKXZ 1000a83e f i PointCardRW.obj
 0001:0000984b       ?AddRef@?$CComObject@VCOPOSPointCardRW@@@ATL@@WIM@AGKXZ 1000a84b f i PointCardRW.obj
 0001:00009858       ?AddRef@?$CComObject@VCOPOSPointCardRW@@@ATL@@WJA@AGKXZ 1000a858 f i PointCardRW.obj
 0001:00009865       ?AddRef@?$CComObject@VCOPOSPointCardRW@@@ATL@@WJE@AGKXZ 1000a865 f i PointCardRW.obj
 0001:00009872       ?AddRef@?$CComObject@VCOPOSPointCardRW@@@ATL@@WJI@AGKXZ 1000a872 f i PointCardRW.obj
 0001:0000987f       ?AddRef@?$CComObject@VCOPOSPointCardRW@@@ATL@@WJM@AGKXZ 1000a87f f i PointCardRW.obj
 0001:0000988c       ?AddRef@?$CComObject@VCOPOSPointCardRW@@@ATL@@WKA@AGKXZ 1000a88c f i PointCardRW.obj
 0001:00009899       ?AddRef@?$CComObject@VCOPOSPointCardRW@@@ATL@@WKI@AGKXZ 1000a899 f i PointCardRW.obj
 0001:000098a6       ?AddRef@?$CComObject@VCOPOSPointCardRW@@@ATL@@WLE@AGKXZ 1000a8a6 f i PointCardRW.obj
 0001:000098c0       ?AddRef@?$CComObjectCached@VCComClassFactory@ATL@@@ATL@@UAGKXZ 1000a8c0 f i PointCardRW.obj
 0001:00009910       ?AddRef@CRegObject@ATL@@UAGKXZ 1000a910 f i PointCardRW.obj
 0001:00009960       ?AddReplacement@CRegObject@ATL@@UAGJPB_W0@Z 1000a960 f i PointCardRW.obj
 0001:00009a70       ?AddString@CParseBuffer@CRegParser@ATL@@QAEHPB_W@Z 1000aa70 f i PointCardRW.obj
 0001:00009b60       ?AddTermFunc@CAtlModule@ATL@@QAEJP6GXK@ZK@Z 1000ab60 f i PointCardRW.obj
 0001:00009bb0       ?AddValue@CRegParser@ATL@@IAEJAAVCRegKey@2@PB_WPA_W@Z 1000abb0 f i PointCardRW.obj
 0001:0000a340       ?Advise@?$CProxy_IOPOSEvents@VCOPOSPointCardRW@@@@UAGJPAUIUnknown@@PAK@Z 1000b340 f i PointCardRW.obj
 0001:0000a390       ?Advise@?$IConnectionPointImpl@VCOPOSPointCardRW@@$1?DIID__IOPOSPointCardRWEvents@@3U_GUID@@BVCComDynamicUnkArray@ATL@@@ATL@@UAGJPAUIUnknown@@PAK@Z 1000b390 f i PointCardRW.obj
 0001:0000a530       ?Advise@?$IConnectionPointImpl@VCOPOSPointCardRW@@$1?IID_IPropertyNotifySink@@3U_GUID@@BVCComDynamicUnkArray@ATL@@@ATL@@UAGJPAUIUnknown@@PAK@Z 1000b530 f i PointCardRW.obj
 0001:0000a6d0       ?Advise@?$IOleObjectImpl@VCOPOSPointCardRW@@@ATL@@UAGJPAUIAdviseSink@@PAK@Z 1000b6d0 f i PointCardRW.obj
 0001:0000a760       ?Allocate@?$CAtlSafeAllocBufferManager@VCCRTAllocator@ATL@@@_ATL_SAFE_ALLOCA_IMPL@ATL@@QAEPAXK@Z 1000b760 f i PointCardRW.obj
 0001:0000a7d0       ?Allocate@?$CTempBuffer@E$0BAA@VCCRTAllocator@ATL@@@ATL@@QAEPAEI@Z 1000b7d0 f i PointCardRW.obj
 0001:0000a810       ?Allocate@?$CTempBuffer@_W$0BAA@VCCRTAllocator@ATL@@@ATL@@QAEPA_WI@Z 1000b810 f i PointCardRW.obj
 0001:0000a850       ?Allocate@?$CTempBuffer@_W$0EAA@VCCRTAllocator@ATL@@@ATL@@QAEPA_WI@Z 1000b850 f i PointCardRW.obj
 0001:0000a890       ?AllocateBytes@?$CTempBuffer@E$0BAA@VCCRTAllocator@ATL@@@ATL@@QAEPAEI@Z 1000b890 f i PointCardRW.obj
 0001:0000a910       ?AllocateBytes@?$CTempBuffer@_W$0BAA@VCCRTAllocator@ATL@@@ATL@@QAEPA_WI@Z 1000b910 f i PointCardRW.obj
 0001:0000a990       ?AllocateBytes@?$CTempBuffer@_W$0EAA@VCCRTAllocator@ATL@@@ATL@@QAEPA_WI@Z 1000b990 f i PointCardRW.obj
 0001:0000aa10       ?AllocateHeap@?$CTempBuffer@E$0BAA@VCCRTAllocator@ATL@@@ATL@@AAEXI@Z 1000ba10 f i PointCardRW.obj
 0001:0000aa60       ?AllocateHeap@?$CTempBuffer@_W$0BAA@VCCRTAllocator@ATL@@@ATL@@AAEXI@Z 1000ba60 f i PointCardRW.obj
 0001:0000aab0       ?AllocateHeap@?$CTempBuffer@_W$0EAA@VCCRTAllocator@ATL@@@ATL@@AAEXI@Z 1000bab0 f i PointCardRW.obj
 0001:0000ab00       ?Append@CParseBuffer@CRegParser@ATL@@QAEHPB_WH@Z 1000bb00 f i PointCardRW.obj
 0001:0000aca0       ?AtlCallTermFunc@ATL@@YGXPAU_ATL_MODULE70@1@@Z 1000bca0 f i PointCardRW.obj
 0001:0000ad40       ?AtlCoTaskMemCAlloc@ATL@@YAPAXKK@Z 1000bd40 f i PointCardRW.obj
 0001:0000add0       ?AtlCoTaskMemRecalloc@ATL@@YAPAXPAXKK@Z 1000bdd0 f i PointCardRW.obj
 0001:0000ae70       ?AtlComModuleGetClassObject@ATL@@YGJPAU_ATL_COM_MODULE70@1@ABU_GUID@@1PAPAX@Z 1000be70 f i PointCardRW.obj
 0001:0000b100       ?AtlComModuleRegisterServer@ATL@@YGJPAU_ATL_COM_MODULE70@1@HPBU_GUID@@@Z 1000c100 f i PointCardRW.obj
 0001:0000b290       ?AtlComModuleUnregisterServer@ATL@@YGJPAU_ATL_COM_MODULE70@1@HPBU_GUID@@@Z 1000c290 f i PointCardRW.obj
 0001:0000b3c0       ?AtlComQIPtrAssign2@ATL@@YAXPAPAUIUnknown@@PAU2@ABU_GUID@@@Z 1000c3c0 f i PointCardRW.obj
 0001:0000b440       ?AtlCreateTargetDC@ATL@@YGPAUHDC__@@PAU2@PAUtagDVTARGETDEVICE@@@Z 1000c440 f i PointCardRW.obj
 0001:0000b5e0       ?AtlCrtErrorCheck@ATL@@YAHH@Z 1000c5e0 f i PointCardRW.obj
 0001:0000b6b0       ?AtlGetPerUserRegistration@ATL@@YGJPA_N@Z 1000c6b0 f i PointCardRW.obj
 0001:0000b6e0       ?AtlHiMetricToPixel@ATL@@YGXPBUtagSIZE@@PAU2@@Z 1000c6e0 f i PointCardRW.obj
 0001:0000b8b0       ?AtlHresultFromLastError@ATL@@YAJXZ 1000c8b0 f i PointCardRW.obj
 0001:0000b8f0       ?AtlHresultFromWin32@ATL@@YAJK@Z 1000c8f0 f i PointCardRW.obj
 0001:0000b910       ?AtlIPersistStreamInit_Load@ATL@@YGJPAUIStream@@PBUATL_PROPMAP_ENTRY@1@PAXPAUIUnknown@@@Z 1000c910 f i PointCardRW.obj
 0001:0000bd70       ?AtlIPersistStreamInit_Save@ATL@@YGJPAUIStream@@HPBUATL_PROPMAP_ENTRY@1@PAXPAUIUnknown@@@Z 1000cd70 f i PointCardRW.obj
 0001:0000c150       ?AtlInternalOleLoadFromStream@ATL@@YAJPAUIStream@@ABU_GUID@@PAPAXTClassesAllowedInStream@1@K@Z 1000d150 f i PointCardRW.obj
 0001:0000c3f0       ?AtlInternalQueryInterface@ATL@@YGJPAXPBU_ATL_INTMAP_ENTRY@1@ABU_GUID@@PAPAX@Z 1000d3f0 f i PointCardRW.obj
 0001:0000c620       ?AtlLoadTypeLib@ATL@@YGJPAUHINSTANCE__@@PB_WPAPA_WPAPAUITypeLib@@@Z 1000d620 f i PointCardRW.obj
 0001:0000ca80       ?AtlModuleAddTermFunc@ATL@@YGJPAU_ATL_MODULE70@1@P6GXK@ZK@Z 1000da80 f i PointCardRW.obj
 0001:0000cbe0       ?AtlRegisterClassCategoriesHelper@ATL@@YGJABU_GUID@@PBU_ATL_CATMAP_ENTRY@1@H@Z 1000dbe0 f i PointCardRW.obj
 0001:0000d2c0       ?AtlRegisterTypeLib@ATL@@YGJPAUHINSTANCE__@@PB_W@Z 1000e2c0 f i PointCardRW.obj
 0001:0000d600       ?AtlThrowImpl@ATL@@YGXJ@Z  1000e600 f i PointCardRW.obj
 0001:0000d6b0       ?AtlUnRegisterTypeLib@ATL@@YGJPAUHINSTANCE__@@PB_W@Z 1000e6b0 f i PointCardRW.obj
 0001:0000d8c0       ?AtlWinModuleAddCreateWndData@ATL@@YGXPAU_ATL_WIN_MODULE70@1@PAU_AtlCreateWndData@1@PAX@Z 1000e8c0 f i PointCardRW.obj
 0001:0000da30       ?AtlWinModuleExtractCreateWndData@ATL@@YGPAXPAU_ATL_WIN_MODULE70@1@@Z 1000ea30 f i PointCardRW.obj
 0001:0000dbb0       ?AtlWinModuleRegisterClassExW@ATL@@YGGPAU_ATL_WIN_MODULE70@1@PBUtagWNDCLASSEXW@@@Z 1000ebb0 f i PointCardRW.obj
 0001:0000dc80       ?AtlWinModuleRegisterWndClassInfoW@ATL@@YGGPAU_ATL_WIN_MODULE70@1@PAU_ATL_BASE_MODULE70@1@PAU_ATL_WNDCLASSINFOW@1@PAP6GJPAUHWND__@@IIJ@Z@Z 1000ec80 f i PointCardRW.obj
 0001:0000dd10       ?Attach@?$CAutoVectorPtr@_W@ATL@@QAEXPA_W@Z 1000ed10 f i PointCardRW.obj
 0001:0000dd70       ?Attach@CComBSTR@ATL@@QAEXPA_W@Z 1000ed70 f i PointCardRW.obj
 0001:0000ddc0       ?Attach@CRegKey@ATL@@QAEXPAUHKEY__@@@Z 1000edc0 f i PointCardRW.obj
 0001:0000de30       ?CanForceRemoveKey@CRegParser@ATL@@IAEHPB_W@Z 1000ee30 f i PointCardRW.obj
 0001:0000dea0       ?ChToByte@CRegParser@ATL@@KAE_W@Z 1000eea0 f i PointCardRW.obj
 0001:0000dfc0       ?ChangeType@CComVariant@ATL@@QAEJGPBUtagVARIANT@@@Z 1000efc0 f i PointCardRW.obj
 0001:0000e020       ?Cleanup@CComTypeInfoHolder@ATL@@SGXK@Z 1000f020 f i PointCardRW.obj
 0001:0000e0f0       ?Clear@CComVariant@ATL@@QAEJXZ 1000f0f0 f i PointCardRW.obj
 0001:0000e130       ?ClearReplacements@CExpansionVector@ATL@@QAEJXZ 1000f130 f i PointCardRW.obj
 0001:0000e1c0       ?ClearReplacements@CRegObject@ATL@@UAGJXZ 1000f1c0 f i PointCardRW.obj
 0001:0000e210       ?Clone@?$CComEnumImpl@UIEnumConnectionPoints@@$1?_GUID_b196b285_bab4_101a_b69c_00aa00341d07@@3U__s_GUID@@BPAUIConnectionPoint@@V?$_CopyInterface@UIConnectionPoint@@@ATL@@@ATL@@UAGJPAPAUIEnumConnectionPoints@@@Z 1000f210 f i PointCardRW.obj
 0001:0000e380       ?Clone@?$CComEnumImpl@UIEnumConnections@@$1?_GUID_b196b287_bab4_101a_b69c_00aa00341d07@@3U__s_GUID@@BUtagCONNECTDATA@@V?$_Copy@UtagCONNECTDATA@@@ATL@@@ATL@@UAGJPAPAUIEnumConnections@@@Z 1000f380 f i PointCardRW.obj
 0001:0000e4f0       ?Close@?$IOleObjectImpl@VCOPOSPointCardRW@@@ATL@@UAGJK@Z 1000f4f0 f i PointCardRW.obj
 0001:0000e580       ?Close@CRegKey@ATL@@QAEJXZ 1000f580 f i PointCardRW.obj
 0001:0000e5f0       ?ContextSensitiveHelp@?$IOleInPlaceActiveObjectImpl@VCOPOSPointCardRW@@@ATL@@UAGJH@Z 1000f5f0 f i PointCardRW.obj
 0001:0000e660       ?ContextSensitiveHelp@?$IOleInPlaceObjectWindowlessImpl@VCOPOSPointCardRW@@@ATL@@UAGJH@Z 1000f660 f i PointCardRW.obj
 0001:0000e6d0       ?ControlQueryInterface@?$CComControl@VCOPOSPointCardRW@@V?$CWindowImpl@VCOPOSPointCardRW@@VCWindow@ATL@@V?$CWinTraits@$0FGAAAAAA@$0A@@3@@ATL@@@ATL@@UAEJABU_GUID@@PAPAX@Z 1000f6d0 f i PointCardRW.obj
 0001:0000e750       ?CreateControlWindow@?$CComControl@VCOPOSPointCardRW@@V?$CWindowImpl@VCOPOSPointCardRW@@VCWindow@ATL@@V?$CWinTraits@$0FGAAAAAA@$0A@@3@@ATL@@@ATL@@UAEPAUHWND__@@PAU3@AAUtagRECT@@@Z 1000f750 f i PointCardRW.obj
 0001:0000e7d0       ?CreateInstance@?$CComCreator@V?$CComAggObject@VCOPOSPointCardRW@@@ATL@@@ATL@@SGJPAXABU_GUID@@PAPAX@Z 1000f7d0 f i PointCardRW.obj
 0001:0000e950       ?CreateInstance@?$CComCreator@V?$CComObject@VCOPOSPointCardRW@@@ATL@@@ATL@@SGJPAXABU_GUID@@PAPAX@Z 1000f950 f i PointCardRW.obj
 0001:0000eae0       ?CreateInstance@?$CComObject@V?$CComEnum@UIEnumConnectionPoints@@$1?_GUID_b196b285_bab4_101a_b69c_00aa00341d07@@3U__s_GUID@@BPAUIConnectionPoint@@V?$_CopyInterface@UIConnectionPoint@@@ATL@@VCComSingleThreadModel@6@@ATL@@@ATL@@SGJPAPAV12@@Z 1000fae0 f i PointCardRW.obj
 0001:0000ec50       ?CreateInstance@?$CComObject@V?$CComEnum@UIEnumConnections@@$1?_GUID_b196b287_bab4_101a_b69c_00aa00341d07@@3U__s_GUID@@BUtagCONNECTDATA@@V?$_Copy@UtagCONNECTDATA@@@ATL@@VCComSingleThreadModel@6@@ATL@@@ATL@@SGJPAPAV12@@Z 1000fc50 f i PointCardRW.obj
 0001:0000edc0       ?CreateInstance@CComClassFactory@ATL@@UAGJPAUIUnknown@@ABU_GUID@@PAPAX@Z 1000fdc0 f i PointCardRW.obj
 0001:0000eeb0       ?DAdvise@?$IDataObjectImpl@VCOPOSPointCardRW@@@ATL@@UAGJPAUtagFORMATETC@@KPAUIAdviseSink@@PAK@Z 1000feb0 f i PointCardRW.obj
 0001:0000efb0       ?DEVMODEOLE2T_EX@@YAPAU_devicemodeW@@PAU1@@Z 1000ffb0 f i PointCardRW.obj
 0001:0000efc0       ?DUnadvise@?$IDataObjectImpl@VCOPOSPointCardRW@@@ATL@@UAGJK@Z 1000ffc0 f i PointCardRW.obj
 0001:0000f090       ?Decrement@CComMultiThreadModel@ATL@@SGKPAJ@Z 10010090 f i PointCardRW.obj
 0001:0000f0b0       ?Decrement@CComSingleThreadModel@ATL@@SGKPAJ@Z 100100b0 f i PointCardRW.obj
 0001:0000f0d0       ?DefWindowProcW@?$CWindowImplBaseT@VCWindow@ATL@@V?$CWinTraits@$0FGAAAAAA@$0A@@2@@ATL@@QAEJIIJ@Z 100100d0 f i PointCardRW.obj
 0001:0000f120       ?DefaultReflectionHandler@?$CWindowImplRoot@VCWindow@ATL@@@ATL@@SAHPAUHWND__@@IIJAAJ@Z 10010120 f i PointCardRW.obj
 0001:0000f3b0       ?DeleteSubKey@CRegKey@ATL@@QAEJPB_W@Z 100103b0 f i PointCardRW.obj
 0001:0000f4c0       ?DeleteValue@CRegKey@ATL@@QAEJPB_W@Z 100104c0 f i PointCardRW.obj
 0001:0000f530       ?Detach@?$CAutoVectorPtr@_W@ATL@@QAEPA_WXZ 10010530 f i PointCardRW.obj
 0001:0000f560       ?Detach@?$CComPtrBase@UIPersistStream@@@ATL@@QAEPAUIPersistStream@@XZ 10010560 f i PointCardRW.obj
 0001:0000f590       ?Detach@?$CComPtrBase@UITypeInfo@@@ATL@@QAEPAUITypeInfo@@XZ 10010590 f i PointCardRW.obj
 0001:0000f5c0       ?Detach@?$CComPtrBase@UIUnknown@@@ATL@@QAEPAUIUnknown@@XZ 100105c0 f i PointCardRW.obj
 0001:0000f5f0       ?Detach@CComBSTR@ATL@@QAEPA_WXZ 100105f0 f i PointCardRW.obj
 0001:0000f620       ?Detach@CParseBuffer@CRegParser@ATL@@QAEPA_WXZ 10010620 f i PointCardRW.obj
 0001:0000f660       ?Detach@CRegKey@ATL@@QAEPAUHKEY__@@XZ 10010660 f i PointCardRW.obj
 0001:0000f6a0       ?DoEvent@COPOSPointCardRW@@IAEXIIJ@Z 100106a0 f i PointCardRW.obj
 0001:0000f7e0       ?DoVerb@?$IOleObjectImpl@VCOPOSPointCardRW@@@ATL@@UAGJJPAUtagMSG@@PAUIOleClientSite@@JPAUHWND__@@PBUtagRECT@@@Z 100107e0 f i PointCardRW.obj
 0001:0000f9f0       ?DoVerbDiscardUndo@?$IOleObjectImpl@VCOPOSPointCardRW@@@ATL@@QAEJPBUtagRECT@@PAUHWND__@@@Z 100109f0 f i PointCardRW.obj
 0001:0000fa60       ?DoVerbHide@?$IOleObjectImpl@VCOPOSPointCardRW@@@ATL@@QAEJPBUtagRECT@@PAUHWND__@@@Z 10010a60 f i PointCardRW.obj
 0001:0000fb10       ?DoVerbInPlaceActivate@?$IOleObjectImpl@VCOPOSPointCardRW@@@ATL@@QAEJPBUtagRECT@@PAUHWND__@@@Z 10010b10 f i PointCardRW.obj
 0001:0000fbb0       ?DoVerbOpen@?$IOleObjectImpl@VCOPOSPointCardRW@@@ATL@@QAEJPBUtagRECT@@PAUHWND__@@@Z 10010bb0 f i PointCardRW.obj
 0001:0000fc20       ?DoVerbPrimary@?$IOleObjectImpl@VCOPOSPointCardRW@@@ATL@@QAEJPBUtagRECT@@PAUHWND__@@@Z 10010c20 f i PointCardRW.obj
 0001:0000fd30       ?DoVerbProperties@CComControlBase@ATL@@QAEJPBUtagRECT@@PAUHWND__@@@Z 10010d30 f i PointCardRW.obj
 0001:00010050       ?DoVerbShow@?$IOleObjectImpl@VCOPOSPointCardRW@@@ATL@@QAEJPBUtagRECT@@PAUHWND__@@@Z 10011050 f i PointCardRW.obj
 0001:000100e0       ?DoVerbUIActivate@?$IOleObjectImpl@VCOPOSPointCardRW@@@ATL@@QAEJPBUtagRECT@@PAUHWND__@@@Z 100110e0 f i PointCardRW.obj
 0001:00010180       ?DoesVerbActivate@CComControlBase@ATL@@QAEHJ@Z 10011180 f i PointCardRW.obj
 0001:000101e0       ?DoesVerbUIActivate@CComControlBase@ATL@@QAEHJ@Z 100111e0 f i PointCardRW.obj
 0001:00010260       ?Draw@?$IViewObjectExImpl@VCOPOSPointCardRW@@@ATL@@UAGJKJPAXPAUtagDVTARGETDEVICE@@PAUHDC__@@2PBU_RECTL@@3P6GHK@ZK@Z 10011260 f i PointCardRW.obj
 0001:00010300       ?Empty@CComBSTR@ATL@@QAEXXZ 10011300 f i PointCardRW.obj
 0001:00010340       ?EnableModeless@?$IOleInPlaceActiveObjectImpl@VCOPOSPointCardRW@@@ATL@@UAGJH@Z 10011340 f i PointCardRW.obj
 0001:000103a0       ?EndOfVar@CRegParser@ATL@@IAEHXZ 100113a0 f i PointCardRW.obj
 0001:00010410       ?EnsureTI@CComTypeInfoHolder@ATL@@QAEJK@Z 10011410 f i PointCardRW.obj
 0001:00010470       ?EnumAdvise@?$IOleObjectImpl@VCOPOSPointCardRW@@@ATL@@UAGJPAPAUIEnumSTATDATA@@@Z 10011470 f i PointCardRW.obj
 0001:00010580       ?EnumConnectionPoints@?$IConnectionPointContainerImpl@VCOPOSPointCardRW@@@ATL@@UAGJPAPAUIEnumConnectionPoints@@@Z 10011580 f i PointCardRW.obj
 0001:000109b0       ?EnumConnections@?$IConnectionPointImpl@VCOPOSPointCardRW@@$1?DIID__IOPOSPointCardRWEvents@@3U_GUID@@BVCComDynamicUnkArray@ATL@@@ATL@@UAGJPAPAUIEnumConnections@@@Z 100119b0 f i PointCardRW.obj
 0001:00010c00       ?EnumConnections@?$IConnectionPointImpl@VCOPOSPointCardRW@@$1?IID_IPropertyNotifySink@@3U_GUID@@BVCComDynamicUnkArray@ATL@@@ATL@@UAGJPAPAUIEnumConnections@@@Z 10011c00 f i PointCardRW.obj
 0001:00010e50       ?EnumDAdvise@?$IDataObjectImpl@VCOPOSPointCardRW@@@ATL@@UAGJPAPAUIEnumSTATDATA@@@Z 10011e50 f i PointCardRW.obj
 0001:00010f50       ?EnumFormatEtc@?$IDataObjectImpl@VCOPOSPointCardRW@@@ATL@@UAGJKPAPAUIEnumFORMATETC@@@Z 10011f50 f i PointCardRW.obj
 0001:00010fc0       ?EnumVerbs@?$IOleObjectImpl@VCOPOSPointCardRW@@@ATL@@UAGJPAPAUIEnumOLEVERB@@@Z 10011fc0 f i PointCardRW.obj
 0001:00011070       ?EscapeSingleQuote@CAtlModule@ATL@@SAXPA_WIPB_W@Z 10012070 f i PointCardRW.obj
 0001:00011110       ?ExtractCreateWndData@CAtlWinModule@ATL@@QAEPAXXZ 10012110 f i PointCardRW.obj
 0001:00011140       ?FAccessAllowed@?$IObjectSafetyImpl@VCOPOSPointCardRW@@$02@ATL@@MAEHXZ 10012140 f i PointCardRW.obj
 0001:00011150       ?FinalConstruct@?$CComAggObject@VCOPOSPointCardRW@@@ATL@@QAEJXZ 10012150 f i PointCardRW.obj
 0001:00011190       ?FinalConstruct@CComObjectRootBase@ATL@@QAEJXZ 10012190 f i PointCardRW.obj
 0001:000111a0       ?FinalConstruct@CRegObject@ATL@@QAEJXZ 100121a0 f i PointCardRW.obj
 0001:000111d0       ?FinalRelease@?$CComAggObject@VCOPOSPointCardRW@@@ATL@@QAEXXZ 100121d0 f i PointCardRW.obj
 0001:00011210       ?FinalRelease@CComObjectRootBase@ATL@@QAEXXZ 10012210 f i PointCardRW.obj
 0001:00011220       ?FindConnectionPoint@?$IConnectionPointContainerImpl@VCOPOSPointCardRW@@@ATL@@UAGJABU_GUID@@PAPAUIConnectionPoint@@@Z 10012220 f i PointCardRW.obj
 0001:00011370       ?FindKey@?$CSimpleMap@PA_WPA_WVCExpansionVectorEqualHelper@ATL@@@ATL@@QBEHABQA_W@Z 10012370 f i PointCardRW.obj
 0001:000113e0       ?FireTheEvent@?$CProxy_IOPOSEvents@VCOPOSPointCardRW@@@@IAEXPAUIUnknown@@PAVOposVariant@@IAAJPB_WJ@Z 100123e0 f i PointCardRW.obj
 0001:00011550       ?FireViewChange@CComControlBase@ATL@@QAEJXZ 10012550 f i PointCardRW.obj
 0001:00011610       ?Fire_DataEvent@?$CProxy_IOPOSEvents@VCOPOSPointCardRW@@@@QAEXJ@Z 10012610 f i PointCardRW.obj
 0001:00011770       ?Fire_DirectIOEvent@?$CProxy_IOPOSEvents@VCOPOSPointCardRW@@@@QAEXJPAJPAPA_W@Z 10012770 f i PointCardRW.obj
 0001:00011940       ?Fire_ErrorEvent@?$CProxy_IOPOSEvents@VCOPOSPointCardRW@@@@QAEXJJJPAJ@Z 10012940 f i PointCardRW.obj
 0001:00011b30       ?Fire_OutputCompleteEvent@?$CProxy_IOPOSEvents@VCOPOSPointCardRW@@@@QAEXJ@Z 10012b30 f i PointCardRW.obj
 0001:00011c90       ?Fire_StatusUpdateEvent@?$CProxy_IOPOSEvents@VCOPOSPointCardRW@@@@QAEXJ@Z 10012c90 f i PointCardRW.obj
 0001:00011df0       ?FormatWindowClassName@AtlModuleRegisterWndClassInfoParamW@ATL@@SAXPA_WKPAX@Z 10012df0 f i PointCardRW.obj
 0001:00011e20       ?Free@?$CAutoVectorPtr@_W@ATL@@QAEXXZ 10012e20 f i PointCardRW.obj
 0001:00011e70       ?FreeHeap@?$CTempBuffer@E$0BAA@VCCRTAllocator@ATL@@@ATL@@AAEXXZ 10012e70 f i PointCardRW.obj
 0001:00011ea0       ?FreeHeap@?$CTempBuffer@_W$0BAA@VCCRTAllocator@ATL@@@ATL@@AAEXXZ 10012ea0 f i PointCardRW.obj
 0001:00011ed0       ?FreeHeap@?$CTempBuffer@_W$0EAA@VCCRTAllocator@ATL@@@ATL@@AAEXXZ 10012ed0 f i PointCardRW.obj
 0001:00011f00       ?Freeze@?$IViewObjectExImpl@VCOPOSPointCardRW@@@ATL@@UAGJKJPAXPAK@Z 10012f00 f i PointCardRW.obj
 0001:00011f70       ?GenerateError@CRegParser@ATL@@IAEJI@Z 10012f70 f i PointCardRW.obj
 0001:00011f90       ?GetAdvise@?$IViewObjectExImpl@VCOPOSPointCardRW@@@ATL@@UAGJPAK0PAPAUIAdviseSink@@@Z 10012f90 f i PointCardRW.obj
 0001:00012090       ?GetAmbientLocaleID@CComControlBase@ATL@@QAEJAAK@Z 10013090 f i PointCardRW.obj
 0001:00012170       ?GetAmbientProperty@CComControlBase@ATL@@QAEJJAAUtagVARIANT@@@Z 10013170 f i PointCardRW.obj
 0001:000121c0       ?GetAmbientUserMode@CComControlBase@ATL@@QAEJAAH@Z 100131c0 f i PointCardRW.obj
 0001:000122c0       ?GetAppId@?$CAtlModuleT@VCComModule@ATL@@@ATL@@SAPB_WXZ 100132c0 f i PointCardRW.obj
 0001:000122d0       ?GetAt@CComDynamicUnkArray@ATL@@QAEPAUIUnknown@@H@Z 100132d0 f i PointCardRW.obj
 0001:00012350       ?GetCanonicalFormatEtc@?$IDataObjectImpl@VCOPOSPointCardRW@@@ATL@@UAGJPAUtagFORMATETC@@0@Z 10013350 f i PointCardRW.obj
 0001:000123c0       ?GetClassID@?$IPersistStorageImpl@VCOPOSPointCardRW@@@ATL@@UAGJPAU_GUID@@@Z 100133c0 f i PointCardRW.obj
 0001:00012440       ?GetClassID@?$IPersistStreamInitImpl@VCOPOSPointCardRW@@@ATL@@UAGJPAU_GUID@@@Z 10013440 f i PointCardRW.obj
 0001:000124c0       ?GetClassInfoExW@AtlModuleRegisterWndClassInfoParamW@ATL@@SAHPAUHINSTANCE__@@PB_WPAUtagWNDCLASSEXW@@@Z 100134c0 f i PointCardRW.obj
 0001:000124f0       ?GetClassInfoW@?$IProvideClassInfo2Impl@$1?CLSID_OPOSPointCardRW@@3U_GUID@@B$1?DIID__IOPOSPointCardRWEvents@@3U2@B$1?LIBID_OposPointCardRW_CCO@@3U2@B$00$0A@VCComTypeInfoHolder@ATL@@@ATL@@UAGJPAPAUITypeInfo@@@Z 100134f0 f i PointCardRW.obj
 0001:00012510       ?GetClassObject@CComModule@ATL@@QAEJABU_GUID@@0PAPAX@Z 10013510 f i PointCardRW.obj
 0001:00012710       ?GetClientSite@?$IOleObjectImpl@VCOPOSPointCardRW@@@ATL@@UAGJPAPAUIOleClientSite@@@Z 10013710 f i PointCardRW.obj
 0001:000127a0       ?GetClipboardData@?$IOleObjectImpl@VCOPOSPointCardRW@@@ATL@@UAGJKPAPAUIDataObject@@@Z 100137a0 f i PointCardRW.obj
 0001:00012810       ?GetCodeAddress@CDynamicStdCallThunk2@ATL@@QAEPAXXZ 10013810 f i PointCardRW.obj
 0001:00012840       ?GetColorSet@?$IViewObjectExImpl@VCOPOSPointCardRW@@@ATL@@UAGJKJPAXPAUtagDVTARGETDEVICE@@PAUHDC__@@PAPAUtagLOGPALETTE@@@Z 10013840 f i PointCardRW.obj
 0001:000128b0       ?GetConnMap@COPOSPointCardRW@@SAPBU_ATL_CONNMAP_ENTRY@ATL@@PAH@Z 100138b0 f i PointCardRW.obj
 0001:000129f0       ?GetConnectionInterface@?$IConnectionPointImpl@VCOPOSPointCardRW@@$1?DIID__IOPOSPointCardRWEvents@@3U_GUID@@BVCComDynamicUnkArray@ATL@@@ATL@@UAGJPAU_GUID@@@Z 100139f0 f i PointCardRW.obj
 0001:00012a30       ?GetConnectionInterface@?$IConnectionPointImpl@VCOPOSPointCardRW@@$1?IID_IPropertyNotifySink@@3U_GUID@@BVCComDynamicUnkArray@ATL@@@ATL@@UAGJPAU_GUID@@@Z 10013a30 f i PointCardRW.obj
 0001:00012a70       ?GetConnectionPointContainer@?$IConnectionPointImpl@VCOPOSPointCardRW@@$1?DIID__IOPOSPointCardRWEvents@@3U_GUID@@BVCComDynamicUnkArray@ATL@@@ATL@@UAGJPAPAUIConnectionPointContainer@@@Z 10013a70 f i PointCardRW.obj
 0001:00012ae0       ?GetConnectionPointContainer@?$IConnectionPointImpl@VCOPOSPointCardRW@@$1?IID_IPropertyNotifySink@@3U_GUID@@BVCComDynamicUnkArray@ATL@@@ATL@@UAGJPAPAUIConnectionPointContainer@@@Z 10013ae0 f i PointCardRW.obj
 0001:00012b50       ?GetContentExtent@?$IQuickActivateImpl@VCOPOSPointCardRW@@@ATL@@UAGJPAUtagSIZE@@@Z 10013b50 f i PointCardRW.obj
 0001:00012be0       ?GetControlInfo@?$IOleControlImpl@VCOPOSPointCardRW@@@ATL@@UAGJPAUtagCONTROLINFO@@@Z 10013be0 f i PointCardRW.obj
 0001:00012c50       ?GetCookie@CComDynamicUnkArray@ATL@@QAGKPAPAUIUnknown@@@Z 10013c50 f i PointCardRW.obj
 0001:00012d10       ?GetData@?$IDataObjectImpl@VCOPOSPointCardRW@@@ATL@@UAGJPAUtagFORMATETC@@PAUtagSTGMEDIUM@@@Z 10013d10 f i PointCardRW.obj
 0001:00012da0       ?GetData@CAtlSafeAllocBufferNode@?$CAtlSafeAllocBufferManager@VCCRTAllocator@ATL@@@_ATL_SAFE_ALLOCA_IMPL@ATL@@QAEPAXXZ 10013da0 f i PointCardRW.obj
 0001:00012dc0       ?GetDataHere@?$IDataObjectImpl@VCOPOSPointCardRW@@@ATL@@UAGJPAUtagFORMATETC@@PAUtagSTGMEDIUM@@@Z 10013dc0 f i PointCardRW.obj
 0001:00012e30       ?GetDropTarget@?$IOleInPlaceObjectWindowlessImpl@VCOPOSPointCardRW@@@ATL@@UAGJPAPAUIDropTarget@@@Z 10013e30 f i PointCardRW.obj
 0001:00012ea0       ?GetExtent@?$IOleObjectImpl@VCOPOSPointCardRW@@@ATL@@UAGJKPAUtagSIZE@@@Z 10013ea0 f i PointCardRW.obj
 0001:00012f40       ?GetExtent@?$IViewObjectExImpl@VCOPOSPointCardRW@@@ATL@@UAGJKJPAUtagDVTARGETDEVICE@@PAUtagSIZE@@@Z 10013f40 f i PointCardRW.obj
 0001:00013010       ?GetGITPtr@CAtlModule@ATL@@UAEJPAPAUIGlobalInterfaceTable@@@Z 10014010 f i PointCardRW.obj
 0001:00013110       ?GetGUID@?$IProvideClassInfo2Impl@$1?CLSID_OPOSPointCardRW@@3U_GUID@@B$1?DIID__IOPOSPointCardRWEvents@@3U2@B$1?LIBID_OposPointCardRW_CCO@@3U2@B$00$0A@VCComTypeInfoHolder@ATL@@@ATL@@UAGJKPAU_GUID@@@Z 10014110 f i PointCardRW.obj
 0001:00013190       ?GetIDsOfNames@?$IDispatchImpl@UIOPOSPointCardRW@@$1?IID_IOPOSPointCardRW@@3U_GUID@@B$1?LIBID_OposPointCardRW_CCO@@3U3@B$00$0A@VCComTypeInfoHolder@ATL@@@ATL@@UAGJABU_GUID@@PAPA_WIKPAJ@Z 10014190 f i PointCardRW.obj
 0001:000131c0       ?GetIDsOfNames@CComTypeInfoHolder@ATL@@QAEJABU_GUID@@PAPA_WIKPAJ@Z 100141c0 f i PointCardRW.obj
 0001:00013370       ?GetInterfaceSafetyOptions@?$IObjectSafetyImpl@VCOPOSPointCardRW@@$02@ATL@@UAGJABU_GUID@@PAK1@Z 10014370 f i PointCardRW.obj
 0001:000134e0       ?GetKeyAt@?$CSimpleMap@PA_WPA_WVCExpansionVectorEqualHelper@ATL@@@ATL@@QBEAAPA_WH@Z 100144e0 f i PointCardRW.obj
 0001:00013560       ?GetLockCount@CAtlModule@ATL@@UAEJXZ 10014560 f i PointCardRW.obj
 0001:00013580       ?GetMiscStatus@?$IOleObjectImpl@VCOPOSPointCardRW@@@ATL@@UAGJKPAK@Z 10014580 f i PointCardRW.obj
 0001:000135f0       ?GetMoniker@?$IOleObjectImpl@VCOPOSPointCardRW@@@ATL@@UAGJKKPAPAUIMoniker@@@Z 100145f0 f i PointCardRW.obj
 0001:00013660       ?GetNaturalExtent@?$IViewObjectExImpl@VCOPOSPointCardRW@@@ATL@@UAGJKJPAUtagDVTARGETDEVICE@@PAUHDC__@@PAUtagExtentInfo@@PAUtagSIZE@@@Z 10014660 f i PointCardRW.obj
 0001:00013780       ?GetObjectCLSID@?$CComCoClass@VCOPOSPointCardRW@@$1?CLSID_OPOSPointCardRW@@3U_GUID@@B@ATL@@SGABU_GUID@@XZ 10014780 f i PointCardRW.obj
 0001:00013790       ?GetPages@?$ISpecifyPropertyPagesImpl@VCOPOSPointCardRW@@@ATL@@UAGJPAUtagCAUUID@@@Z 10014790 f i PointCardRW.obj
 0001:00013800       ?GetPagesHelper@?$ISpecifyPropertyPagesImpl@VCOPOSPointCardRW@@@ATL@@IAEJPAUtagCAUUID@@PBUATL_PROPMAP_ENTRY@2@@Z 10014800 f i PointCardRW.obj
 0001:00013a00       ?GetProperty@?$CComPtr@UIDispatch@@@ATL@@QAEJJPAUtagVARIANT@@@Z 10014a00 f i PointCardRW.obj
 0001:00013a40       ?GetProperty@?$CComPtr@UIDispatch@@@ATL@@SAJPAUIDispatch@@JPAUtagVARIANT@@@Z 10014a40 f i PointCardRW.obj
 0001:00013ba0       ?GetPropertyMap@COPOSPointCardRW@@SAPBUATL_PROPMAP_ENTRY@ATL@@XZ 10014ba0 f i PointCardRW.obj
 0001:00013bb0       ?GetRect@?$IViewObjectExImpl@VCOPOSPointCardRW@@@ATL@@UAGJKPAU_RECTL@@@Z 10014bb0 f i PointCardRW.obj
 0001:00013c20       ?GetSize@?$CSimpleMap@PA_WPA_WVCExpansionVectorEqualHelper@ATL@@@ATL@@QBEHXZ 10014c20 f i PointCardRW.obj
 0001:00013c40       ?GetSize@CComDynamicUnkArray@ATL@@QBEHXZ 10014c40 f i PointCardRW.obj
 0001:00013c60       ?GetSizeMax@?$IPersistStreamInitImpl@VCOPOSPointCardRW@@@ATL@@UAGJPAT_ULARGE_INTEGER@@@Z 10014c60 f i PointCardRW.obj
 0001:000141d0       ?GetSizeMax@CComVariant@ATL@@QBEJPAT_ULARGE_INTEGER@@@Z 100151d0 f i PointCardRW.obj
 0001:00014550       ?GetStreamSize@CComBSTR@ATL@@SAKPA_W@Z 10015550 f i PointCardRW.obj
 0001:000145a0       ?GetTI@CComTypeInfoHolder@ATL@@QAEJK@Z 100155a0 f i PointCardRW.obj
 0001:00014db0       ?GetTI@CComTypeInfoHolder@ATL@@QAEJKPAPAUITypeInfo@@@Z 10015db0 f i PointCardRW.obj
 0001:00014e70       ?GetTypeInfo@?$IDispatchImpl@UIOPOSPointCardRW@@$1?IID_IOPOSPointCardRW@@3U_GUID@@B$1?LIBID_OposPointCardRW_CCO@@3U3@B$00$0A@VCComTypeInfoHolder@ATL@@@ATL@@UAGJIKPAPAUITypeInfo@@@Z 10015e70 f i PointCardRW.obj
 0001:00014ea0       ?GetTypeInfo@CComTypeInfoHolder@ATL@@QAEJIKPAPAUITypeInfo@@@Z 10015ea0 f i PointCardRW.obj
 0001:00014ee0       ?GetTypeInfoCount@?$IDispatchImpl@UIOPOSPointCardRW@@$1?IID_IOPOSPointCardRW@@3U_GUID@@B$1?LIBID_OposPointCardRW_CCO@@3U3@B$00$0A@VCComTypeInfoHolder@ATL@@@ATL@@UAGJPAI@Z 10015ee0 f i PointCardRW.obj
 0001:00014f00       ?GetUnknown@CComDynamicUnkArray@ATL@@QAGPAUIUnknown@@K@Z 10015f00 f i PointCardRW.obj
 0001:00014f70       ?GetUnknown@COPOSPointCardRW@@QAEPAUIUnknown@@XZ 10015f70 f i PointCardRW.obj
 0001:00014fa0       ?GetUserClassID@?$IOleObjectImpl@VCOPOSPointCardRW@@@ATL@@UAGJPAU_GUID@@@Z 10015fa0 f i PointCardRW.obj
 0001:00015050       ?GetUserType@?$IOleObjectImpl@VCOPOSPointCardRW@@@ATL@@UAGJKPAPA_W@Z 10016050 f i PointCardRW.obj
 0001:000150c0       ?GetValueAt@?$CSimpleMap@PA_WPA_WVCExpansionVectorEqualHelper@ATL@@@ATL@@QBEAAPA_WH@Z 100160c0 f i PointCardRW.obj
 0001:00015140       ?GetViewStatus@?$IViewObjectExImpl@VCOPOSPointCardRW@@@ATL@@UAGJPAK@Z 10016140 f i PointCardRW.obj
 0001:00015200       ?GetWNDPROC@CWndProcThunk@ATL@@QAEP6GJPAUHWND__@@IIJ@ZXZ 10016200 f i PointCardRW.obj
 0001:00015230       ?GetWindow@?$IOleInPlaceActiveObjectImpl@VCOPOSPointCardRW@@@ATL@@UAGJPAPAUHWND__@@@Z 10016230 f i PointCardRW.obj
 0001:00015300       ?GetWindow@?$IOleInPlaceObjectWindowlessImpl@VCOPOSPointCardRW@@@ATL@@UAGJPAPAUHWND__@@@Z 10016300 f i PointCardRW.obj
 0001:000153d0       ?GetWindowLongPtrW@@YAJPAUHWND__@@H@Z 100163d0 f i PointCardRW.obj
 0001:00015400       ?GetWindowProc@?$CWindowImplBaseT@VCWindow@ATL@@V?$CWinTraits@$0FGAAAAAA@$0A@@2@@ATL@@UAEP6GJPAUHWND__@@IIJ@ZXZ 10016400 f i PointCardRW.obj
 0001:00015410       ?GetWndCaption@?$CWindowImpl@VCOPOSPointCardRW@@VCWindow@ATL@@V?$CWinTraits@$0FGAAAAAA@$0A@@3@@ATL@@SAPB_WXZ 10016410 f i PointCardRW.obj
 0001:00015420       ?GetWndClassInfo@?$CWindowImpl@VCOPOSPointCardRW@@VCWindow@ATL@@V?$CWinTraits@$0FGAAAAAA@$0A@@3@@ATL@@SAAAU_ATL_WNDCLASSINFOW@2@XZ 10016420 f i PointCardRW.obj
 0001:00015430       ?GetWndClassName@CWindow@ATL@@SAPB_WXZ 10016430 f i PointCardRW.obj
 0001:00015440       ?GetWndExStyle@?$CWinTraits@$0FGAAAAAA@$0A@@ATL@@SAKK@Z 10016440 f i PointCardRW.obj
 0001:00015460       ?GetWndExStyle@?$CWindowImplBaseT@VCWindow@ATL@@V?$CWinTraits@$0FGAAAAAA@$0A@@2@@ATL@@SAKK@Z 10016460 f i PointCardRW.obj
 0001:00015480       ?GetWndStyle@?$CWinTraits@$0FGAAAAAA@$0A@@ATL@@SAKK@Z 10016480 f i PointCardRW.obj
 0001:000154a0       ?GetWndStyle@?$CWindowImplBaseT@VCWindow@ATL@@V?$CWinTraits@$0FGAAAAAA@$0A@@2@@ATL@@SAKK@Z 100164a0 f i PointCardRW.obj
 0001:000154c0       ?GetZoomInfo@CComControlBase@ATL@@QAEXAAUATL_DRAWINFO@@@Z 100164c0 f i PointCardRW.obj
 0001:00015630       ?HKeyFromString@CRegParser@ATL@@KAPAUHKEY__@@PA_W@Z 10016630 f i PointCardRW.obj
 0001:000156a0       ?HandsOffStorage@?$IPersistStorageImpl@VCOPOSPointCardRW@@@ATL@@UAGJXZ 100166a0 f i PointCardRW.obj
 0001:00015700       ?HasSubKeys@CRegParser@ATL@@IAEHPAUHKEY__@@@Z 10016700 f i PointCardRW.obj
 0001:00015810       ?IDataObject_GetData@CComControlBase@ATL@@QAEJPAUtagFORMATETC@@PAUtagSTGMEDIUM@@@Z 10016810 f i PointCardRW.obj
 0001:00015c30       ?IOleInPlaceObject_InPlaceDeactivate@CComControlBase@ATL@@QAEJXZ 10016c30 f i PointCardRW.obj
 0001:00015e30       ?IOleInPlaceObject_SetObjectRects@CComControlBase@ATL@@QAEJPBUtagRECT@@0@Z 10016e30 f i PointCardRW.obj
 0001:00015ff0       ?IOleInPlaceObject_UIDeactivate@CComControlBase@ATL@@QAEJXZ 10016ff0 f i PointCardRW.obj
 0001:00016260       ?IOleObject_Advise@CComControlBase@ATL@@QAEJPAUIAdviseSink@@PAK@Z 10017260 f i PointCardRW.obj
 0001:00016310       ?IOleObject_Close@CComControlBase@ATL@@QAEJK@Z 10017310 f i PointCardRW.obj
 0001:000165c0       ?IOleObject_GetClientSite@CComControlBase@ATL@@QAEJPAPAUIOleClientSite@@@Z 100175c0 f i PointCardRW.obj
 0001:00016660       ?IOleObject_SetClientSite@CComControlBase@ATL@@QAEJPAUIOleClientSite@@@Z 10017660 f i PointCardRW.obj
 0001:00016730       ?IOleObject_SetExtent@CComControlBase@ATL@@QAEJKPAUtagSIZE@@@Z 10017730 f i PointCardRW.obj
 0001:00016870       ?IPSI_GetIPersistStreamInit@?$IPersistStorageImpl@VCOPOSPointCardRW@@@ATL@@AAEPAUIPersistStreamInit@@XZ 10017870 f i PointCardRW.obj
 0001:00016940       ?IPersistStreamInit_Load@?$IPersistStreamInitImpl@VCOPOSPointCardRW@@@ATL@@QAEJPAUIStream@@PBUATL_PROPMAP_ENTRY@2@@Z 10017940 f i PointCardRW.obj
 0001:000169c0       ?IPersistStreamInit_Save@?$IPersistStreamInitImpl@VCOPOSPointCardRW@@@ATL@@QAEJPAUIStream@@HPBUATL_PROPMAP_ENTRY@2@@Z 100179c0 f i PointCardRW.obj
 0001:00016a50       ?IQuickActivate_QuickActivate@CComControlBase@ATL@@QAEJPAUtagQACONTAINER@@PAUtagQACONTROL@@@Z 10017a50 f i PointCardRW.obj
 0001:000170a0       ?IViewObject_Draw@CComControlBase@ATL@@QAEJKJPAXPAUtagDVTARGETDEVICE@@PAUHDC__@@2PBU_RECTL@@3@Z 100180a0 f i PointCardRW.obj
 0001:00017340       ?InPlaceActivate@CComControlBase@ATL@@QAEJJPBUtagRECT@@@Z 10018340 f i PointCardRW.obj
 0001:00017cd0       ?InPlaceDeactivate@?$IOleInPlaceObjectWindowlessImpl@VCOPOSPointCardRW@@@ATL@@UAGJXZ 10018cd0 f i PointCardRW.obj
 0001:00017d50       ?Increment@CComMultiThreadModel@ATL@@SGKPAJ@Z 10018d50 f i PointCardRW.obj
 0001:00017d70       ?Increment@CComSingleThreadModel@ATL@@SGKPAJ@Z 10018d70 f i PointCardRW.obj
 0001:00017d90       ?Init@?$CComEnumImpl@UIEnumConnectionPoints@@$1?_GUID_b196b285_bab4_101a_b69c_00aa00341d07@@3U__s_GUID@@BPAUIConnectionPoint@@V?$_CopyInterface@UIConnectionPoint@@@ATL@@@ATL@@QAEJPAPAUIConnectionPoint@@0PAUIUnknown@@W4CComEnumFlags@2@@Z 10018d90 f i PointCardRW.obj
 0001:00017f70       ?Init@?$CComEnumImpl@UIEnumConnections@@$1?_GUID_b196b287_bab4_101a_b69c_00aa00341d07@@3U__s_GUID@@BUtagCONNECTDATA@@V?$_Copy@UtagCONNECTDATA@@@ATL@@@ATL@@QAEJPAUtagCONNECTDATA@@0PAUIUnknown@@W4CComEnumFlags@2@@Z 10018f70 f i PointCardRW.obj
 0001:00018150       ?Init@CComFakeCriticalSection@ATL@@QAEJXZ 10019150 f i PointCardRW.obj
 0001:00018160       ?Init@CComModule@ATL@@QAEJPAU_ATL_OBJMAP_ENTRY30@2@PAUHINSTANCE__@@PBU_GUID@@@Z 10019160 f i PointCardRW.obj
 0001:00018250       ?Init@CComSafeDeleteCriticalSection@ATL@@QAEJXZ 10019250 f i PointCardRW.obj
 0001:000182d0       ?Init@CDynamicStdCallThunk2@ATL@@QAEHKPAX@Z 100192d0 f i PointCardRW.obj
 0001:00018330       ?Init@CWndProcThunk@ATL@@QAEHP6GJPAUHWND__@@IIJ@ZPAX@Z 10019330 f i PointCardRW.obj
 0001:00018370       ?InitFromData@?$IOleObjectImpl@VCOPOSPointCardRW@@@ATL@@UAGJPAUIDataObject@@HK@Z 10019370 f i PointCardRW.obj
 0001:000183e0       ?InitLibId@?$CAtlModuleT@VCComModule@ATL@@@ATL@@SAXXZ 100193e0 f i PointCardRW.obj
 0001:000183f0       ?InitNew@?$IPersistStorageImpl@VCOPOSPointCardRW@@@ATL@@UAGJPAUIStorage@@@Z 100193f0 f i PointCardRW.obj
 0001:000184e0       ?InitNew@?$IPersistStreamInitImpl@VCOPOSPointCardRW@@@ATL@@UAGJXZ 100194e0 f i PointCardRW.obj
 0001:00018570       ?InlineIsEqualUnknown@ATL@@YGHABU_GUID@@@Z 10019570 f i PointCardRW.obj
 0001:000185e0       ?InternalAddRef@?$CComObjectRootEx@VCComMultiThreadModel@ATL@@@ATL@@QAEKXZ 100195e0 f i PointCardRW.obj
 0001:00018640       ?InternalAddRef@?$CComObjectRootEx@VCComSingleThreadModel@ATL@@@ATL@@QAEKXZ 10019640 f i PointCardRW.obj
 0001:000186a0       ?InternalFinalConstructAddRef@CComObjectRootBase@ATL@@QAEXXZ 100196a0 f i PointCardRW.obj
 0001:000186b0       ?InternalFinalConstructAddRef@COPOSPointCardRW@@QAEXXZ 100196b0 f i PointCardRW.obj
 0001:000186e0       ?InternalFinalConstructRelease@CComObjectRootBase@ATL@@QAEXXZ 100196e0 f i PointCardRW.obj
 0001:00018730       ?InternalFinalConstructRelease@COPOSPointCardRW@@QAEXXZ 10019730 f i PointCardRW.obj
 0001:00018760       ?InternalGetSite@CComControlBase@ATL@@QAEJABU_GUID@@PAPAX@Z 10019760 f i PointCardRW.obj
 0001:00018820       ?InternalQueryInterface@CComObjectRootBase@ATL@@SGJPAXPBU_ATL_INTMAP_ENTRY@2@ABU_GUID@@PAPAX@Z 10019820 f i PointCardRW.obj
 0001:000188e0       ?InternalRelease@?$CComObjectRootEx@VCComMultiThreadModel@ATL@@@ATL@@QAEKXZ 100198e0 f i PointCardRW.obj
 0001:00018950       ?InternalRelease@?$CComObjectRootEx@VCComSingleThreadModel@ATL@@@ATL@@QAEKXZ 10019950 f i PointCardRW.obj
 0001:000189c0       ?InternalSetAtIndex@?$CSimpleArray@GV?$CSimpleArrayEqualHelper@G@ATL@@@ATL@@QAEXHABG@Z 100199c0 f i PointCardRW.obj
 0001:00018a30       ?InternalSetAtIndex@?$CSimpleMap@PA_WPA_WVCExpansionVectorEqualHelper@ATL@@@ATL@@QAEXHABQA_W0@Z 10019a30 f i PointCardRW.obj
 0001:00018ad0       ?Invoke@?$IDispatchImpl@UIOPOSPointCardRW@@$1?IID_IOPOSPointCardRW@@3U_GUID@@B$1?LIBID_OposPointCardRW_CCO@@3U3@B$00$0A@VCComTypeInfoHolder@ATL@@@ATL@@UAGJJABU_GUID@@KGPAUtagDISPPARAMS@@PAUtagVARIANT@@PAUtagEXCEPINFO@@PAI@Z 10019ad0 f i PointCardRW.obj
 0001:00018b10       ?Invoke@CComTypeInfoHolder@ATL@@QAEJPAUIDispatch@@JABU_GUID@@KGPAUtagDISPPARAMS@@PAUtagVARIANT@@PAUtagEXCEPINFO@@PAI@Z 10019b10 f i PointCardRW.obj
 0001:00018ba0       ?IsDirty@?$IPersistStorageImpl@VCOPOSPointCardRW@@@ATL@@UAGJXZ 10019ba0 f i PointCardRW.obj
 0001:00018c90       ?IsDirty@?$IPersistStreamInitImpl@VCOPOSPointCardRW@@@ATL@@UAGJXZ 10019c90 f i PointCardRW.obj
 0001:00018d30       ?IsEqualKey@CExpansionVectorEqualHelper@ATL@@SA_NQA_W0@Z 10019d30 f i PointCardRW.obj
 0001:00018d60       ?IsEqualObject@?$CComPtrBase@UIOleClientSite@@@ATL@@QAE_NPAUIUnknown@@@Z 10019d60 f i PointCardRW.obj
 0001:00018e90       ?IsEqualObject@?$CComPtrBase@UITypeInfo@@@ATL@@QAE_NPAUIUnknown@@@Z 10019e90 f i PointCardRW.obj
 0001:00018fc0       ?IsSpace@CRegParser@ATL@@IAEH_W@Z 10019fc0 f i PointCardRW.obj
 0001:00019020       ?IsUpToDate@?$IOleObjectImpl@VCOPOSPointCardRW@@@ATL@@UAGJXZ 1001a020 f i PointCardRW.obj
 0001:00019080       ?Length@CComBSTR@ATL@@QBEIXZ 1001a080 f i PointCardRW.obj
 0001:000190c0       ?Load@?$IPersistStorageImpl@VCOPOSPointCardRW@@@ATL@@UAGJPAUIStorage@@@Z 1001a0c0 f i PointCardRW.obj
 0001:00019220       ?Load@?$IPersistStreamInitImpl@VCOPOSPointCardRW@@@ATL@@UAGJPAUIStream@@@Z 1001a220 f i PointCardRW.obj
 0001:000192b0       ?LoadCursorW@AtlModuleRegisterWndClassInfoParamW@ATL@@SAPAUHICON__@@PAUHINSTANCE__@@PB_W@Z 1001a2b0 f i PointCardRW.obj
 0001:000192e0       ?LoadNameCache@CComTypeInfoHolder@ATL@@QAEJPAUITypeInfo@@@Z 1001a2e0 f i PointCardRW.obj
 0001:00019570       ?Lock@?$CComCritSecLock@VCComCriticalSection@ATL@@@ATL@@QAEJXZ 1001a570 f i PointCardRW.obj
 0001:00019620       ?Lock@?$CComObjectRootEx@VCComSingleThreadModel@ATL@@@ATL@@QAEXXZ 1001a620 f i PointCardRW.obj
 0001:00019630       ?Lock@CAtlModule@ATL@@UAEJXZ 1001a630 f i PointCardRW.obj
 0001:00019660       ?Lock@CComCriticalSection@ATL@@QAEJXZ 1001a660 f i PointCardRW.obj
 0001:000196a0       ?Lock@CComFakeCriticalSection@ATL@@QAEJXZ 1001a6a0 f i PointCardRW.obj
 0001:000196b0       ?LockServer@CComClassFactory@ATL@@UAGJH@Z 1001a6b0 f i PointCardRW.obj
 0001:00019710       ?Lookup@?$CSimpleMap@PA_WPA_WVCExpansionVectorEqualHelper@ATL@@@ATL@@QBEPA_WABQA_W@Z 1001a710 f i PointCardRW.obj
 0001:00019760       ?Next@?$CComEnumImpl@UIEnumConnectionPoints@@$1?_GUID_b196b285_bab4_101a_b69c_00aa00341d07@@3U__s_GUID@@BPAUIConnectionPoint@@V?$_CopyInterface@UIConnectionPoint@@@ATL@@@ATL@@UAGJKPAPAUIConnectionPoint@@PAK@Z 1001a760 f i PointCardRW.obj
 0001:000198d0       ?Next@?$CComEnumImpl@UIEnumConnections@@$1?_GUID_b196b287_bab4_101a_b69c_00aa00341d07@@3U__s_GUID@@BUtagCONNECTDATA@@V?$_Copy@UtagCONNECTDATA@@@ATL@@@ATL@@UAGJKPAUtagCONNECTDATA@@PAK@Z 1001a8d0 f i PointCardRW.obj
 0001:00019a40       ?NextToken@CRegParser@ATL@@IAEJPA_W@Z 1001aa40 f i PointCardRW.obj
 0001:00019ce0       ?OLE2CT_EX@@YAPB_WPB_WI@Z  1001ace0 f i PointCardRW.obj
 0001:00019cf0       ?OLE2CT_EX_DEF@@YAPB_WPB_W@Z 1001acf0 f i PointCardRW.obj
 0001:00019d00       ?OLE2T_EX@@YAPA_WPA_WI@Z   1001ad00 f i PointCardRW.obj
 0001:00019d10       ?OnAmbientPropertyChange@?$IOleControlImpl@VCOPOSPointCardRW@@@ATL@@UAGJJ@Z 1001ad10 f i PointCardRW.obj
 0001:00019da0       ?OnDocWindowActivate@?$IOleInPlaceActiveObjectImpl@VCOPOSPointCardRW@@@ATL@@UAGJH@Z 1001ada0 f i PointCardRW.obj
 0001:00019e30       ?OnDrawAdvanced@CComControlBase@ATL@@UAEJAAUATL_DRAWINFO@@@Z 1001ae30 f i PointCardRW.obj
 0001:0001a050       ?OnFinalMessage@?$CWindowImplBaseT@VCWindow@ATL@@V?$CWinTraits@$0FGAAAAAA@$0A@@2@@ATL@@UAEXPAUHWND__@@@Z 1001b050 f i PointCardRW.obj
 0001:0001a060       ?OnFrameWindowActivate@?$IOleInPlaceActiveObjectImpl@VCOPOSPointCardRW@@@ATL@@UAGJH@Z 1001b060 f i PointCardRW.obj
 0001:0001a0c0       ?OnKillFocus@CComControlBase@ATL@@QAEJIIJAAH@Z 1001b0c0 f i PointCardRW.obj
 0001:0001a1c0       ?OnMnemonic@?$IOleControlImpl@VCOPOSPointCardRW@@@ATL@@UAGJPAUtagMSG@@@Z 1001b1c0 f i PointCardRW.obj
 0001:0001a230       ?OnMouseActivate@CComControlBase@ATL@@QAEJIIJAAH@Z 1001b230 f i PointCardRW.obj
 0001:0001a380       ?OnPaint@CComControlBase@ATL@@QAEJIIJAAH@Z 1001b380 f i PointCardRW.obj
 0001:0001a500       ?OnPostVerbDiscardUndo@?$IOleObjectImpl@VCOPOSPointCardRW@@@ATL@@QAEJXZ 1001b500 f i PointCardRW.obj
 0001:0001a510       ?OnPostVerbHide@?$IOleObjectImpl@VCOPOSPointCardRW@@@ATL@@QAEJXZ 1001b510 f i PointCardRW.obj
 0001:0001a520       ?OnPostVerbInPlaceActivate@?$IOleObjectImpl@VCOPOSPointCardRW@@@ATL@@QAEJXZ 1001b520 f i PointCardRW.obj
 0001:0001a530       ?OnPostVerbOpen@?$IOleObjectImpl@VCOPOSPointCardRW@@@ATL@@QAEJXZ 1001b530 f i PointCardRW.obj
 0001:0001a540       ?OnPostVerbShow@?$IOleObjectImpl@VCOPOSPointCardRW@@@ATL@@QAEJXZ 1001b540 f i PointCardRW.obj
 0001:0001a550       ?OnPostVerbUIActivate@?$IOleObjectImpl@VCOPOSPointCardRW@@@ATL@@QAEJXZ 1001b550 f i PointCardRW.obj
 0001:0001a560       ?OnPreVerbDiscardUndo@?$IOleObjectImpl@VCOPOSPointCardRW@@@ATL@@QAEJXZ 1001b560 f i PointCardRW.obj
 0001:0001a570       ?OnPreVerbHide@?$IOleObjectImpl@VCOPOSPointCardRW@@@ATL@@QAEJXZ 1001b570 f i PointCardRW.obj
 0001:0001a580       ?OnPreVerbInPlaceActivate@?$IOleObjectImpl@VCOPOSPointCardRW@@@ATL@@QAEJXZ 1001b580 f i PointCardRW.obj
 0001:0001a590       ?OnPreVerbOpen@?$IOleObjectImpl@VCOPOSPointCardRW@@@ATL@@QAEJXZ 1001b590 f i PointCardRW.obj
 0001:0001a5a0       ?OnPreVerbShow@?$IOleObjectImpl@VCOPOSPointCardRW@@@ATL@@QAEJXZ 1001b5a0 f i PointCardRW.obj
 0001:0001a5b0       ?OnPreVerbUIActivate@?$IOleObjectImpl@VCOPOSPointCardRW@@@ATL@@QAEJXZ 1001b5b0 f i PointCardRW.obj
 0001:0001a5c0       ?OnSetFocus@CComControlBase@ATL@@QAEJIIJAAH@Z 1001b5c0 f i PointCardRW.obj
 0001:0001a750       ?OnWindowMessage@?$IOleInPlaceObjectWindowlessImpl@VCOPOSPointCardRW@@@ATL@@UAGJIIJPAJ@Z 1001b750 f i PointCardRW.obj
 0001:0001a8b0       ?Open@CRegKey@ATL@@QAEJPAUHKEY__@@PB_WK@Z 1001b8b0 f i PointCardRW.obj
 0001:0001aa00       ?OuterAddRef@CComObjectRootBase@ATL@@QAEKXZ 1001ba00 f i PointCardRW.obj
 0001:0001aa40       ?OuterQueryInterface@CComObjectRootBase@ATL@@QAEJABU_GUID@@PAPAX@Z 1001ba40 f i PointCardRW.obj
 0001:0001aa90       ?OuterRelease@CComObjectRootBase@ATL@@QAEKXZ 1001ba90 f i PointCardRW.obj
 0001:0001aad0       ?PreProcessBuffer@CRegParser@ATL@@QAEJPA_WPAPA_W@Z 1001bad0 f i PointCardRW.obj
 0001:0001b010       ?PreTranslateAccelerator@CComControlBase@ATL@@QAEHPAUtagMSG@@AAJ@Z 1001c010 f i PointCardRW.obj
 0001:0001b020       ?ProcessWindowMessage@?$CComControl@VCOPOSPointCardRW@@V?$CWindowImpl@VCOPOSPointCardRW@@VCWindow@ATL@@V?$CWinTraits@$0FGAAAAAA@$0A@@3@@ATL@@@ATL@@UAEHPAUHWND__@@IIJAAJK@Z 1001c020 f i PointCardRW.obj
 0001:0001b1f0       ?ProcessWindowMessage@COPOSPointCardRW@@UAEHPAUHWND__@@IIJAAJK@Z 1001c1f0 f i PointCardRW.obj
 0001:0001b2f0       ?PutProperty@?$CComPtr@UIDispatch@@@ATL@@QAEJJPAUtagVARIANT@@@Z 1001c2f0 f i PointCardRW.obj
 0001:0001b330       ?PutProperty@?$CComPtr@UIDispatch@@@ATL@@SAJPAUIDispatch@@JPAUtagVARIANT@@@Z 1001c330 f i PointCardRW.obj
 0001:0001b520       ?QueryGetData@?$IDataObjectImpl@VCOPOSPointCardRW@@@ATL@@UAGJPAUtagFORMATETC@@@Z 1001c520 f i PointCardRW.obj
 0001:0001b590       ?QueryHitPoint@?$IViewObjectExImpl@VCOPOSPointCardRW@@@ATL@@UAGJKPBUtagRECT@@UtagPOINT@@JPAK@Z 1001c590 f i PointCardRW.obj
 0001:0001b6a0       ?QueryHitRect@?$IViewObjectExImpl@VCOPOSPointCardRW@@@ATL@@UAGJKPBUtagRECT@@0JPAK@Z 1001c6a0 f i PointCardRW.obj
 0001:0001b7f0       ?QueryInterface@?$CComAggObject@VCOPOSPointCardRW@@@ATL@@UAGJABU_GUID@@PAPAX@Z 1001c7f0 f i PointCardRW.obj
 0001:0001b8a0       ?QueryInterface@?$CComContainedObject@VCOPOSPointCardRW@@@ATL@@UAGJABU_GUID@@PAPAX@Z 1001c8a0 f i PointCardRW.obj
 0001:0001b8c4       ?QueryInterface@?$CComContainedObject@VCOPOSPointCardRW@@@ATL@@WHA@AGJABU_GUID@@PAPAX@Z 1001c8c4 f i PointCardRW.obj
 0001:0001b8ce       ?QueryInterface@?$CComContainedObject@VCOPOSPointCardRW@@@ATL@@WHE@AGJABU_GUID@@PAPAX@Z 1001c8ce f i PointCardRW.obj
 0001:0001b8d8       ?QueryInterface@?$CComContainedObject@VCOPOSPointCardRW@@@ATL@@WHI@AGJABU_GUID@@PAPAX@Z 1001c8d8 f i PointCardRW.obj
 0001:0001b8e2       ?QueryInterface@?$CComContainedObject@VCOPOSPointCardRW@@@ATL@@WHM@AGJABU_GUID@@PAPAX@Z 1001c8e2 f i PointCardRW.obj
 0001:0001b8ec       ?QueryInterface@?$CComContainedObject@VCOPOSPointCardRW@@@ATL@@WIA@AGJABU_GUID@@PAPAX@Z 1001c8ec f i PointCardRW.obj
 0001:0001b8f9       ?QueryInterface@?$CComContainedObject@VCOPOSPointCardRW@@@ATL@@WIE@AGJABU_GUID@@PAPAX@Z 1001c8f9 f i PointCardRW.obj
 0001:0001b906       ?QueryInterface@?$CComContainedObject@VCOPOSPointCardRW@@@ATL@@WII@AGJABU_GUID@@PAPAX@Z 1001c906 f i PointCardRW.obj
 0001:0001b913       ?QueryInterface@?$CComContainedObject@VCOPOSPointCardRW@@@ATL@@WIM@AGJABU_GUID@@PAPAX@Z 1001c913 f i PointCardRW.obj
 0001:0001b920       ?QueryInterface@?$CComContainedObject@VCOPOSPointCardRW@@@ATL@@WJA@AGJABU_GUID@@PAPAX@Z 1001c920 f i PointCardRW.obj
 0001:0001b92d       ?QueryInterface@?$CComContainedObject@VCOPOSPointCardRW@@@ATL@@WJE@AGJABU_GUID@@PAPAX@Z 1001c92d f i PointCardRW.obj
 0001:0001b93a       ?QueryInterface@?$CComContainedObject@VCOPOSPointCardRW@@@ATL@@WJI@AGJABU_GUID@@PAPAX@Z 1001c93a f i PointCardRW.obj
 0001:0001b947       ?QueryInterface@?$CComContainedObject@VCOPOSPointCardRW@@@ATL@@WJM@AGJABU_GUID@@PAPAX@Z 1001c947 f i PointCardRW.obj
 0001:0001b954       ?QueryInterface@?$CComContainedObject@VCOPOSPointCardRW@@@ATL@@WKA@AGJABU_GUID@@PAPAX@Z 1001c954 f i PointCardRW.obj
 0001:0001b970       ?QueryInterface@?$CComObject@V?$CComEnum@UIEnumConnectionPoints@@$1?_GUID_b196b285_bab4_101a_b69c_00aa00341d07@@3U__s_GUID@@BPAUIConnectionPoint@@V?$_CopyInterface@UIConnectionPoint@@@ATL@@VCComSingleThreadModel@6@@ATL@@@ATL@@UAGJABU_GUID@@PAPAX@Z 1001c970 f i PointCardRW.obj
 0001:0001b990       ?QueryInterface@?$CComObject@V?$CComEnum@UIEnumConnections@@$1?_GUID_b196b287_bab4_101a_b69c_00aa00341d07@@3U__s_GUID@@BUtagCONNECTDATA@@V?$_Copy@UtagCONNECTDATA@@@ATL@@VCComSingleThreadModel@6@@ATL@@@ATL@@UAGJABU_GUID@@PAPAX@Z 1001c990 f i PointCardRW.obj
 0001:0001b9b0       ?QueryInterface@?$CComObject@VCOPOSPointCardRW@@@ATL@@UAGJABU_GUID@@PAPAX@Z 1001c9b0 f i PointCardRW.obj
 0001:0001b9ce       ?QueryInterface@?$CComObject@VCOPOSPointCardRW@@@ATL@@WHA@AGJABU_GUID@@PAPAX@Z 1001c9ce f i PointCardRW.obj
 0001:0001b9d8       ?QueryInterface@?$CComObject@VCOPOSPointCardRW@@@ATL@@WHE@AGJABU_GUID@@PAPAX@Z 1001c9d8 f i PointCardRW.obj
 0001:0001b9e2       ?QueryInterface@?$CComObject@VCOPOSPointCardRW@@@ATL@@WHI@AGJABU_GUID@@PAPAX@Z 1001c9e2 f i PointCardRW.obj
 0001:0001b9ec       ?QueryInterface@?$CComObject@VCOPOSPointCardRW@@@ATL@@WHM@AGJABU_GUID@@PAPAX@Z 1001c9ec f i PointCardRW.obj
 0001:0001b9f6       ?QueryInterface@?$CComObject@VCOPOSPointCardRW@@@ATL@@WIA@AGJABU_GUID@@PAPAX@Z 1001c9f6 f i PointCardRW.obj
 0001:0001ba03       ?QueryInterface@?$CComObject@VCOPOSPointCardRW@@@ATL@@WIE@AGJABU_GUID@@PAPAX@Z 1001ca03 f i PointCardRW.obj
 0001:0001ba10       ?QueryInterface@?$CComObject@VCOPOSPointCardRW@@@ATL@@WII@AGJABU_GUID@@PAPAX@Z 1001ca10 f i PointCardRW.obj
 0001:0001ba1d       ?QueryInterface@?$CComObject@VCOPOSPointCardRW@@@ATL@@WIM@AGJABU_GUID@@PAPAX@Z 1001ca1d f i PointCardRW.obj
 0001:0001ba2a       ?QueryInterface@?$CComObject@VCOPOSPointCardRW@@@ATL@@WJA@AGJABU_GUID@@PAPAX@Z 1001ca2a f i PointCardRW.obj
 0001:0001ba37       ?QueryInterface@?$CComObject@VCOPOSPointCardRW@@@ATL@@WJE@AGJABU_GUID@@PAPAX@Z 1001ca37 f i PointCardRW.obj
 0001:0001ba44       ?QueryInterface@?$CComObject@VCOPOSPointCardRW@@@ATL@@WJI@AGJABU_GUID@@PAPAX@Z 1001ca44 f i PointCardRW.obj
 0001:0001ba51       ?QueryInterface@?$CComObject@VCOPOSPointCardRW@@@ATL@@WJM@AGJABU_GUID@@PAPAX@Z 1001ca51 f i PointCardRW.obj
 0001:0001ba5e       ?QueryInterface@?$CComObject@VCOPOSPointCardRW@@@ATL@@WKA@AGJABU_GUID@@PAPAX@Z 1001ca5e f i PointCardRW.obj
 0001:0001ba70       ?QueryInterface@?$CComObjectCached@VCComClassFactory@ATL@@@ATL@@UAGJABU_GUID@@PAPAX@Z 1001ca70 f i PointCardRW.obj
 0001:0001ba90       ?QueryInterface@CRegObject@ATL@@UAGJABU_GUID@@PAPAX@Z 1001ca90 f i PointCardRW.obj
 0001:0001bae0       ?QuickActivate@?$IQuickActivateImpl@VCOPOSPointCardRW@@@ATL@@UAGJPAUtagQACONTAINER@@PAUtagQACONTROL@@@Z 1001cae0 f i PointCardRW.obj
 0001:0001bb70       ?ReactivateAndUndo@?$IOleInPlaceObjectWindowlessImpl@VCOPOSPointCardRW@@@ATL@@UAGJXZ 1001cb70 f i PointCardRW.obj
 0001:0001bbe0       ?ReadFromStream@CComBSTR@ATL@@QAEJPAUIStream@@@Z 1001cbe0 f i PointCardRW.obj
 0001:0001bfe0       ?ReadFromStream@CComVariant@ATL@@QAEJPAUIStream@@GTClassesAllowedInStream@2@K@Z 1001cfe0 f i PointCardRW.obj
 0001:0001c360       ?RecurseDeleteKey@CRegKey@ATL@@QAEJPB_W@Z 1001d360 f i PointCardRW.obj
 0001:0001c540       ?RegCreateKeyExW@CAtlTransactionManager@ATL@@QAEJPAUHKEY__@@PB_WKPA_WKKQAU_SECURITY_ATTRIBUTES@@PAPAU3@PAK@Z 1001d540 f i PointCardRW.obj
 0001:0001c670       ?RegDeleteKeyW@CAtlTransactionManager@ATL@@QAEJPAUHKEY__@@PB_W@Z 1001d670 f i PointCardRW.obj
 0001:0001c770       ?RegOpenKeyExW@CAtlTransactionManager@ATL@@QAEJPAUHKEY__@@PB_WKKPAPAU3@@Z 1001d770 f i PointCardRW.obj
 0001:0001c880       ?Register@_ATL_WNDCLASSINFOW@ATL@@QAEGPAP6GJPAUHWND__@@IIJ@Z@Z 1001d880 f i PointCardRW.obj
 0001:0001c8c0       ?RegisterBuffer@CRegParser@ATL@@QAEJPA_WH@Z 1001d8c0 f i PointCardRW.obj
 0001:0001cbf0       ?RegisterClassExW@AtlModuleRegisterWndClassInfoParamW@ATL@@SAGPAU_ATL_WIN_MODULE70@2@PBUtagWNDCLASSEXW@@@Z 1001dbf0 f i PointCardRW.obj
 0001:0001cc10       ?RegisterFromResource@CRegObject@ATL@@IAEJPB_W00H@Z 1001dc10 f i PointCardRW.obj
 0001:0001cfa0       ?RegisterServer@?$CAtlModuleT@VCComModule@ATL@@@ATL@@QAEJHPBU_GUID@@@Z 1001dfa0 f i PointCardRW.obj
 0001:0001d020       ?RegisterServer@CAtlComModule@ATL@@QAEJHPBU_GUID@@@Z 1001e020 f i PointCardRW.obj
 0001:0001d050       ?RegisterServer@CComModule@ATL@@QAEJHPBU_GUID@@@Z 1001e050 f i PointCardRW.obj
 0001:0001d130       ?RegisterSubkeys@CRegParser@ATL@@IAEJPA_WPAUHKEY__@@HH@Z 1001e130 f i PointCardRW.obj
 0001:0001dc50       ?Release@?$CComAggObject@VCOPOSPointCardRW@@@ATL@@UAGKXZ 1001ec50 f i PointCardRW.obj
 0001:0001dd10       ?Release@?$CComContainedObject@VCOPOSPointCardRW@@@ATL@@UAGKXZ 1001ed10 f i PointCardRW.obj
 0001:0001dd2c       ?Release@?$CComContainedObject@VCOPOSPointCardRW@@@ATL@@WHA@AGKXZ 1001ed2c f i PointCardRW.obj
 0001:0001dd36       ?Release@?$CComContainedObject@VCOPOSPointCardRW@@@ATL@@WHE@AGKXZ 1001ed36 f i PointCardRW.obj
 0001:0001dd40       ?Release@?$CComContainedObject@VCOPOSPointCardRW@@@ATL@@WHI@AGKXZ 1001ed40 f i PointCardRW.obj
 0001:0001dd4a       ?Release@?$CComContainedObject@VCOPOSPointCardRW@@@ATL@@WHM@AGKXZ 1001ed4a f i PointCardRW.obj
 0001:0001dd54       ?Release@?$CComContainedObject@VCOPOSPointCardRW@@@ATL@@WIA@AGKXZ 1001ed54 f i PointCardRW.obj
 0001:0001dd61       ?Release@?$CComContainedObject@VCOPOSPointCardRW@@@ATL@@WIE@AGKXZ 1001ed61 f i PointCardRW.obj
 0001:0001dd6e       ?Release@?$CComContainedObject@VCOPOSPointCardRW@@@ATL@@WII@AGKXZ 1001ed6e f i PointCardRW.obj
 0001:0001dd7b       ?Release@?$CComContainedObject@VCOPOSPointCardRW@@@ATL@@WIM@AGKXZ 1001ed7b f i PointCardRW.obj
 0001:0001dd88       ?Release@?$CComContainedObject@VCOPOSPointCardRW@@@ATL@@WJA@AGKXZ 1001ed88 f i PointCardRW.obj
 0001:0001dd95       ?Release@?$CComContainedObject@VCOPOSPointCardRW@@@ATL@@WJE@AGKXZ 1001ed95 f i PointCardRW.obj
 0001:0001dda2       ?Release@?$CComContainedObject@VCOPOSPointCardRW@@@ATL@@WJI@AGKXZ 1001eda2 f i PointCardRW.obj
 0001:0001ddaf       ?Release@?$CComContainedObject@VCOPOSPointCardRW@@@ATL@@WJM@AGKXZ 1001edaf f i PointCardRW.obj
 0001:0001ddbc       ?Release@?$CComContainedObject@VCOPOSPointCardRW@@@ATL@@WKA@AGKXZ 1001edbc f i PointCardRW.obj
 0001:0001ddc9       ?Release@?$CComContainedObject@VCOPOSPointCardRW@@@ATL@@WKI@AGKXZ 1001edc9 f i PointCardRW.obj
 0001:0001ddd6       ?Release@?$CComContainedObject@VCOPOSPointCardRW@@@ATL@@WLE@AGKXZ 1001edd6 f i PointCardRW.obj
 0001:0001ddf0       ?Release@?$CComObject@V?$CComEnum@UIEnumConnectionPoints@@$1?_GUID_b196b285_bab4_101a_b69c_00aa00341d07@@3U__s_GUID@@BPAUIConnectionPoint@@V?$_CopyInterface@UIConnectionPoint@@@ATL@@VCComSingleThreadModel@6@@ATL@@@ATL@@UAGKXZ 1001edf0 f i PointCardRW.obj
 0001:0001deb0       ?Release@?$CComObject@V?$CComEnum@UIEnumConnections@@$1?_GUID_b196b287_bab4_101a_b69c_00aa00341d07@@3U__s_GUID@@BUtagCONNECTDATA@@V?$_Copy@UtagCONNECTDATA@@@ATL@@VCComSingleThreadModel@6@@ATL@@@ATL@@UAGKXZ 1001eeb0 f i PointCardRW.obj
 0001:0001df70       ?Release@?$CComObject@VCOPOSPointCardRW@@@ATL@@UAGKXZ 1001ef70 f i PointCardRW.obj
 0001:0001e029       ?Release@?$CComObject@VCOPOSPointCardRW@@@ATL@@WHA@AGKXZ 1001f029 f i PointCardRW.obj
 0001:0001e033       ?Release@?$CComObject@VCOPOSPointCardRW@@@ATL@@WHE@AGKXZ 1001f033 f i PointCardRW.obj
 0001:0001e03d       ?Release@?$CComObject@VCOPOSPointCardRW@@@ATL@@WHI@AGKXZ 1001f03d f i PointCardRW.obj
 0001:0001e047       ?Release@?$CComObject@VCOPOSPointCardRW@@@ATL@@WHM@AGKXZ 1001f047 f i PointCardRW.obj
 0001:0001e051       ?Release@?$CComObject@VCOPOSPointCardRW@@@ATL@@WIA@AGKXZ 1001f051 f i PointCardRW.obj
 0001:0001e05e       ?Release@?$CComObject@VCOPOSPointCardRW@@@ATL@@WIE@AGKXZ 1001f05e f i PointCardRW.obj
 0001:0001e06b       ?Release@?$CComObject@VCOPOSPointCardRW@@@ATL@@WII@AGKXZ 1001f06b f i PointCardRW.obj
 0001:0001e078       ?Release@?$CComObject@VCOPOSPointCardRW@@@ATL@@WIM@AGKXZ 1001f078 f i PointCardRW.obj
 0001:0001e085       ?Release@?$CComObject@VCOPOSPointCardRW@@@ATL@@WJA@AGKXZ 1001f085 f i PointCardRW.obj
 0001:0001e092       ?Release@?$CComObject@VCOPOSPointCardRW@@@ATL@@WJE@AGKXZ 1001f092 f i PointCardRW.obj
 0001:0001e09f       ?Release@?$CComObject@VCOPOSPointCardRW@@@ATL@@WJI@AGKXZ 1001f09f f i PointCardRW.obj
 0001:0001e0ac       ?Release@?$CComObject@VCOPOSPointCardRW@@@ATL@@WJM@AGKXZ 1001f0ac f i PointCardRW.obj
 0001:0001e0b9       ?Release@?$CComObject@VCOPOSPointCardRW@@@ATL@@WKA@AGKXZ 1001f0b9 f i PointCardRW.obj
 0001:0001e0c6       ?Release@?$CComObject@VCOPOSPointCardRW@@@ATL@@WKI@AGKXZ 1001f0c6 f i PointCardRW.obj
 0001:0001e0d3       ?Release@?$CComObject@VCOPOSPointCardRW@@@ATL@@WLE@AGKXZ 1001f0d3 f i PointCardRW.obj
 0001:0001e0e0       ?Release@?$CComObjectCached@VCComClassFactory@ATL@@@ATL@@UAGKXZ 1001f0e0 f i PointCardRW.obj
 0001:0001e180       ?Release@?$CComPtrBase@UIAdviseSink@@@ATL@@QAEXXZ 1001f180 f i PointCardRW.obj
 0001:0001e1e0       ?Release@?$CComPtrBase@UIDispatch@@@ATL@@QAEXXZ 1001f1e0 f i PointCardRW.obj
 0001:0001e240       ?Release@?$CComPtrBase@UIOleInPlaceSiteWindowless@@@ATL@@QAEXXZ 1001f240 f i PointCardRW.obj
 0001:0001e2a0       ?Release@CRegObject@ATL@@UAGKXZ 1001f2a0 f i PointCardRW.obj
 0001:0001e2e0       ?Remove@CComDynamicUnkArray@ATL@@QAEHK@Z 1001f2e0 f i PointCardRW.obj
 0001:0001e390       ?RemoveAll@?$CSimpleMap@PA_WPA_WVCExpansionVectorEqualHelper@ATL@@@ATL@@QAEXXZ 1001f390 f i PointCardRW.obj
 0001:0001e420       ?Reset@?$CComEnumImpl@UIEnumConnectionPoints@@$1?_GUID_b196b285_bab4_101a_b69c_00aa00341d07@@3U__s_GUID@@BPAUIConnectionPoint@@V?$_CopyInterface@UIConnectionPoint@@@ATL@@@ATL@@UAGJXZ 1001f420 f i PointCardRW.obj
 0001:0001e440       ?Reset@?$CComEnumImpl@UIEnumConnections@@$1?_GUID_b196b287_bab4_101a_b69c_00aa00341d07@@3U__s_GUID@@BUtagCONNECTDATA@@V?$_Copy@UtagCONNECTDATA@@@ATL@@@ATL@@UAGJXZ 1001f440 f i PointCardRW.obj
 0001:0001e460       ?ResizeBorder@?$IOleInPlaceActiveObjectImpl@VCOPOSPointCardRW@@@ATL@@UAGJPBUtagRECT@@PAUIOleInPlaceUIWindow@@H@Z 1001f460 f i PointCardRW.obj
 0001:0001e4c0       ?ResourceRegister@CRegObject@ATL@@QAGJPB_WI0@Z 1001f4c0 f i PointCardRW.obj
 0001:0001e5a0       ?ResourceRegisterSz@CRegObject@ATL@@QAGJPB_W00@Z 1001f5a0 f i PointCardRW.obj
 0001:0001e6a0       ?ResourceUnregister@CRegObject@ATL@@QAGJPB_WI0@Z 1001f6a0 f i PointCardRW.obj
 0001:0001e780       ?ResourceUnregisterSz@CRegObject@ATL@@QAGJPB_W00@Z 1001f780 f i PointCardRW.obj
 0001:0001e880       ?SOData@COPOSPointCardRW@@MAGJJ@Z 1001f880 f i PointCardRW.obj
 0001:0001e900       ?SODirectIO@COPOSPointCardRW@@MAGJJPAJPAPA_W@Z 1001f900 f i PointCardRW.obj
 0001:0001eac0       ?SOError@COPOSPointCardRW@@MAGJJJJPAJ@Z 1001fac0 f i PointCardRW.obj
 0001:0001eb80       ?SOOutputComplete@COPOSPointCardRW@@MAGJJ@Z 1001fb80 f i PointCardRW.obj
 0001:0001ec00       ?SOStatusUpdate@COPOSPointCardRW@@MAGJJ@Z 1001fc00 f i PointCardRW.obj
 0001:0001ec80       ?Save@?$IPersistStorageImpl@VCOPOSPointCardRW@@@ATL@@UAGJPAUIStorage@@H@Z 1001fc80 f i PointCardRW.obj
 0001:0001ede0       ?Save@?$IPersistStreamInitImpl@VCOPOSPointCardRW@@@ATL@@UAGJPAUIStream@@H@Z 1001fde0 f i PointCardRW.obj
 0001:0001ee70       ?SaveCompleted@?$IPersistStorageImpl@VCOPOSPointCardRW@@@ATL@@UAGJPAUIStorage@@@Z 1001fe70 f i PointCardRW.obj
 0001:0001eed0       ?SendOnDataChange@CComControlBase@ATL@@QAEJK@Z 1001fed0 f i PointCardRW.obj
 0001:0001efc0       ?SendOnSave@CComControlBase@ATL@@QAEJXZ 1001ffc0 f i PointCardRW.obj
 0001:0001f030       ?SendOnViewChange@CComControlBase@ATL@@QAEJKJ@Z 10020030 f i PointCardRW.obj
 0001:0001f0a0       ?SetAdvise@?$IViewObjectExImpl@VCOPOSPointCardRW@@@ATL@@UAGJKKPAUIAdviseSink@@@Z 100200a0 f i PointCardRW.obj
 0001:0001f130       ?SetClientSite@?$IOleObjectImpl@VCOPOSPointCardRW@@@ATL@@UAGJPAUIOleClientSite@@@Z 10020130 f i PointCardRW.obj
 0001:0001f1c0       ?SetColorScheme@?$IOleObjectImpl@VCOPOSPointCardRW@@@ATL@@UAGJPAUtagLOGPALETTE@@@Z 100201c0 f i PointCardRW.obj
 0001:0001f230       ?SetContentExtent@?$IQuickActivateImpl@VCOPOSPointCardRW@@@ATL@@UAGJPAUtagSIZE@@@Z 10020230 f i PointCardRW.obj
 0001:0001f2c0       ?SetControlFocus@CComControlBase@ATL@@QAEHH@Z 100202c0 f i PointCardRW.obj
 0001:0001f440       ?SetDWORDValue@CRegKey@ATL@@QAEJPB_WK@Z 10020440 f i PointCardRW.obj
 0001:0001f4c0       ?SetData@?$IDataObjectImpl@VCOPOSPointCardRW@@@ATL@@UAGJPAUtagFORMATETC@@PAUtagSTGMEDIUM@@H@Z 100204c0 f i PointCardRW.obj
 0001:0001f530       ?SetExtent@?$IOleObjectImpl@VCOPOSPointCardRW@@@ATL@@UAGJKPAUtagSIZE@@@Z 10020530 f i PointCardRW.obj
 0001:0001f5c0       ?SetHostNames@?$IOleObjectImpl@VCOPOSPointCardRW@@@ATL@@UAGJPB_W0@Z 100205c0 f i PointCardRW.obj
 0001:0001f620       ?SetInterfaceSafetyOptions@?$IObjectSafetyImpl@VCOPOSPointCardRW@@$02@ATL@@UAGJABU_GUID@@KK@Z 10020620 f i PointCardRW.obj
 0001:0001f790       ?SetMoniker@?$IOleObjectImpl@VCOPOSPointCardRW@@@ATL@@UAGJKPAUIMoniker@@@Z 10020790 f i PointCardRW.obj
 0001:0001f800       ?SetMultiStringValue@CRegKey@ATL@@QAEJPB_W0@Z 10020800 f i PointCardRW.obj
 0001:0001f920       ?SetObjectRects@?$IOleInPlaceObjectWindowlessImpl@VCOPOSPointCardRW@@@ATL@@UAGJPBUtagRECT@@0@Z 10020920 f i PointCardRW.obj
 0001:0001f9b0       ?SetStringValue@CRegKey@ATL@@QAEJPB_W0K@Z 100209b0 f i PointCardRW.obj
 0001:0001fae0       ?SetVoid@CComClassFactory@ATL@@QAEXPAX@Z 10020ae0 f i PointCardRW.obj
 0001:0001fb00       ?SetVoid@CComObjectRootBase@ATL@@QAEXPAX@Z 10020b00 f i PointCardRW.obj
 0001:0001fb10       ?SetWindowLongPtrW@@YAJPAUHWND__@@HJ@Z 10020b10 f i PointCardRW.obj
 0001:0001fb40       ?ShowWindow@CWindow@ATL@@QAEHH@Z 10020b40 f i PointCardRW.obj
 0001:0001fbc0       ?Skip@?$CComEnumImpl@UIEnumConnectionPoints@@$1?_GUID_b196b285_bab4_101a_b69c_00aa00341d07@@3U__s_GUID@@BPAUIConnectionPoint@@V?$_CopyInterface@UIConnectionPoint@@@ATL@@@ATL@@UAGJK@Z 10020bc0 f i PointCardRW.obj
 0001:0001fc30       ?Skip@?$CComEnumImpl@UIEnumConnections@@$1?_GUID_b196b287_bab4_101a_b69c_00aa00341d07@@3U__s_GUID@@BUtagCONNECTDATA@@V?$_Copy@UtagCONNECTDATA@@@ATL@@@ATL@@UAGJK@Z 10020c30 f i PointCardRW.obj
 0001:0001fca0       ?SkipAssignment@CRegParser@ATL@@IAEJPA_W@Z 10020ca0 f i PointCardRW.obj
 0001:0001fd80       ?SkipWhiteSpace@CRegParser@ATL@@IAEXXZ 10020d80 f i PointCardRW.obj
 0001:0001fdd0       ?StartWindowProc@?$CWindowImplBaseT@VCWindow@ATL@@V?$CWinTraits@$0FGAAAAAA@$0A@@2@@ATL@@SGJPAUHWND__@@IIJ@Z 10020dd0 f i PointCardRW.obj
 0001:0001fef0       ?StrChrW@CRegParser@ATL@@KAPA_WPA_W_W@Z 10020ef0 f i PointCardRW.obj
 0001:0001ff60       ?StrFromMap@CRegObject@ATL@@QAEPB_WPA_W@Z 10020f60 f i PointCardRW.obj
 0001:0001fff0       ?Swap@?$CComPtrBase@UIAdviseSink@@@ATL@@IAEXAAV12@@Z 10020ff0 f i PointCardRW.obj
 0001:00020020       ?Swap@?$CComPtrBase@UIOleClientSite@@@ATL@@IAEXAAV12@@Z 10021020 f i PointCardRW.obj
 0001:00020050       ?Swap@?$CComPtrBase@UIUnknown@@@ATL@@IAEXAAV12@@Z 10021050 f i PointCardRW.obj
 0001:00020080       ?T2COLE_EX@@YAPB_WPB_WI@Z  10021080 f i PointCardRW.obj
 0001:00020090       ?T2OLE_EX@@YAPA_WPA_WI@Z   10021090 f i PointCardRW.obj
 0001:000200a0       ?Term@CAtlModule@ATL@@QAEXXZ 100210a0 f i PointCardRW.obj
 0001:00020150       ?Term@CComModule@ATL@@QAEXXZ 10021150 f i PointCardRW.obj
 0001:00020240       ?TranslateAcceleratorW@?$IOleInPlaceActiveObjectImpl@VCOPOSPointCardRW@@@ATL@@UAGJPAUtagMSG@@@Z 10021240 f i PointCardRW.obj
 0001:00020440       ?UIDeactivate@?$IOleInPlaceObjectWindowlessImpl@VCOPOSPointCardRW@@@ATL@@UAGJXZ 10021440 f i PointCardRW.obj
 0001:000204c0       ?Unadvise@?$CProxy_IOPOSEvents@VCOPOSPointCardRW@@@@UAGJK@Z 100214c0 f i PointCardRW.obj
 0001:00020500       ?Unadvise@?$IConnectionPointImpl@VCOPOSPointCardRW@@$1?DIID__IOPOSPointCardRWEvents@@3U_GUID@@BVCComDynamicUnkArray@ATL@@@ATL@@UAGJK@Z 10021500 f i PointCardRW.obj
 0001:000205d0       ?Unadvise@?$IConnectionPointImpl@VCOPOSPointCardRW@@$1?IID_IPropertyNotifySink@@3U_GUID@@BVCComDynamicUnkArray@ATL@@@ATL@@UAGJK@Z 100215d0 f i PointCardRW.obj
 0001:000206a0       ?Unadvise@?$IOleObjectImpl@VCOPOSPointCardRW@@@ATL@@UAGJK@Z 100216a0 f i PointCardRW.obj
 0001:00020770       ?Unfreeze@?$IViewObjectExImpl@VCOPOSPointCardRW@@@ATL@@UAGJK@Z 10021770 f i PointCardRW.obj
 0001:000207e0       ?Unlock@?$CComCritSecLock@VCComCriticalSection@ATL@@@ATL@@QAEXXZ 100217e0 f i PointCardRW.obj
 0001:00020850       ?Unlock@?$CComObjectRootEx@VCComSingleThreadModel@ATL@@@ATL@@QAEXXZ 10021850 f i PointCardRW.obj
 0001:00020860       ?Unlock@CAtlModule@ATL@@UAEJXZ 10021860 f i PointCardRW.obj
 0001:00020890       ?Unlock@CComCriticalSection@ATL@@QAEJXZ 10021890 f i PointCardRW.obj
 0001:000208d0       ?Unlock@CComFakeCriticalSection@ATL@@QAEJXZ 100218d0 f i PointCardRW.obj
 0001:000208e0       ?UnregisterServer@?$CAtlModuleT@VCComModule@ATL@@@ATL@@QAEJHPBU_GUID@@@Z 100218e0 f i PointCardRW.obj
 0001:00020950       ?UnregisterServer@CAtlComModule@ATL@@QAEJHPBU_GUID@@@Z 10021950 f i PointCardRW.obj
 0001:00020980       ?UnregisterServer@CComModule@ATL@@QAEJHPBU_GUID@@@Z 10021980 f i PointCardRW.obj
 0001:00020a60       ?Update@?$IOleObjectImpl@VCOPOSPointCardRW@@@ATL@@UAGJXZ 10021a60 f i PointCardRW.obj
 0001:00020ac0       ?UpdateRegistryFromResource@CAtlModule@ATL@@QAGJIHPAU_ATL_REGMAP_ENTRY@2@@Z 10021ac0 f i PointCardRW.obj
 0001:00020f90       ?UpdateRegistryFromResource@CAtlModule@ATL@@QAGJPB_WHPAU_ATL_REGMAP_ENTRY@2@@Z 10021f90 f i PointCardRW.obj
 0001:00021480       ?UpdateRegistryFromResource@CComModule@ATL@@UAGJIHPAU_ATL_REGMAP_ENTRY@2@@Z 10022480 f i PointCardRW.obj
 0001:000214b0       ?UpdateRegistryFromResource@CComModule@ATL@@UAGJPB_WHPAU_ATL_REGMAP_ENTRY@2@@Z 100224b0 f i PointCardRW.obj
 0001:000214e0       ?UpdateRegistryFromResourceD@CComModule@ATL@@UAGJIHPAU_ATL_REGMAP_ENTRY@2@@Z 100224e0 f i PointCardRW.obj
 0001:000214f0       ?UpdateRegistryFromResourceD@CComModule@ATL@@UAGJPB_WHPAU_ATL_REGMAP_ENTRY@2@@Z 100224f0 f i PointCardRW.obj
 0001:00021500       ?VTFromRegType@CRegParser@ATL@@KAHPB_WAAG@Z 10022500 f i PointCardRW.obj
 0001:000215e0       ?WindowProc@?$CWindowImplBaseT@VCWindow@ATL@@V?$CWinTraits@$0FGAAAAAA@$0A@@2@@ATL@@SGJPAUHWND__@@IIJ@Z 100225e0 f i PointCardRW.obj
 0001:000217f0       ?WriteToStream@CComBSTR@ATL@@QAEJPAUIStream@@@Z 100227f0 f i PointCardRW.obj
 0001:00021950       ?WriteToStream@CComVariant@ATL@@QAEJPAUIStream@@@Z 10022950 f i PointCardRW.obj
 0001:00021cb0       ?WriteToStream@CComVariant@ATL@@QAEJPAUIStream@@G@Z 10022cb0 f i PointCardRW.obj
 0001:00021d80       ?_AtlFinalConstruct@CComObjectRootBase@ATL@@QAEJXZ 10022d80 f i PointCardRW.obj
 0001:00021d90       ?_AtlGetConversionACP@ATL@@YGIXZ 10022d90 f i PointCardRW.obj
 0001:00021da0       ?_AtlInitialConstruct@?$CComAggObject@VCOPOSPointCardRW@@@ATL@@QAEJXZ 10022da0 f i PointCardRW.obj
 0001:00021df0       ?_AtlInitialConstruct@?$CComObjectRootEx@VCComMultiThreadModel@ATL@@@ATL@@QAEJXZ 10022df0 f i PointCardRW.obj
 0001:00021e20       ?_AtlInitialConstruct@?$CComObjectRootEx@VCComSingleThreadModel@ATL@@@ATL@@QAEJXZ 10022e20 f i PointCardRW.obj
 0001:00021e30       ?_AtlVerifyStackAvailable@_ATL_SAFE_ALLOCA_IMPL@ATL@@YA_NK@Z 10022e30 f i PointCardRW.obj
 0001:00021fe0       ?_GetEntries@?$CComEnum@UIEnumConnectionPoints@@$1?_GUID_b196b285_bab4_101a_b69c_00aa00341d07@@3U__s_GUID@@BPAUIConnectionPoint@@V?$_CopyInterface@UIConnectionPoint@@@ATL@@VCComSingleThreadModel@6@@ATL@@SGPBU_ATL_INTMAP_ENTRY@2@XZ 10022fe0 f i PointCardRW.obj
 0001:00022000       ?_GetEntries@?$CComEnum@UIEnumConnections@@$1?_GUID_b196b287_bab4_101a_b69c_00aa00341d07@@3U__s_GUID@@BUtagCONNECTDATA@@V?$_Copy@UtagCONNECTDATA@@@ATL@@VCComSingleThreadModel@6@@ATL@@SGPBU_ATL_INTMAP_ENTRY@2@XZ 10023000 f i PointCardRW.obj
 0001:00022020       ?_GetEntries@CComClassFactory@ATL@@SGPBU_ATL_INTMAP_ENTRY@2@XZ 10023020 f i PointCardRW.obj
 0001:00022040       ?_GetEntries@COPOSPointCardRW@@SGPBU_ATL_INTMAP_ENTRY@ATL@@XZ 10023040 f i PointCardRW.obj
 0001:00022060       ?_GetRawUnknown@COPOSPointCardRW@@QAEPAUIUnknown@@XZ 10023060 f i PointCardRW.obj
 0001:000220d0       ?_GetViewStatus@COPOSPointCardRW@@QAEKXZ 100230d0 f i PointCardRW.obj
 0001:000220e0       ?_InternalQueryInterface@?$CComEnum@UIEnumConnectionPoints@@$1?_GUID_b196b285_bab4_101a_b69c_00aa00341d07@@3U__s_GUID@@BPAUIConnectionPoint@@V?$_CopyInterface@UIConnectionPoint@@@ATL@@VCComSingleThreadModel@6@@ATL@@QAEJABU_GUID@@PAPAX@Z 100230e0 f i PointCardRW.obj
 0001:00022120       ?_InternalQueryInterface@?$CComEnum@UIEnumConnections@@$1?_GUID_b196b287_bab4_101a_b69c_00aa00341d07@@3U__s_GUID@@BUtagCONNECTDATA@@V?$_Copy@UtagCONNECTDATA@@@ATL@@VCComSingleThreadModel@6@@ATL@@QAEJABU_GUID@@PAPAX@Z 10023120 f i PointCardRW.obj
 0001:00022160       ?_InternalQueryInterface@CComClassFactory@ATL@@QAEJABU_GUID@@PAPAX@Z 10023160 f i PointCardRW.obj
 0001:000221a0       ?_InternalQueryInterface@COPOSPointCardRW@@QAEJABU_GUID@@PAPAX@Z 100231a0 f i PointCardRW.obj
 0001:000221e0       ?_LocCPQueryInterface@?$IConnectionPointImpl@VCOPOSPointCardRW@@$1?DIID__IOPOSPointCardRWEvents@@3U_GUID@@BVCComDynamicUnkArray@ATL@@@ATL@@UAGJABU_GUID@@PAPAX@Z 100231e0 f i PointCardRW.obj
 0001:00022280       ?_LocCPQueryInterface@?$IConnectionPointImpl@VCOPOSPointCardRW@@$1?IID_IPropertyNotifySink@@3U_GUID@@BVCComDynamicUnkArray@ATL@@@ATL@@UAGJABU_GUID@@PAPAX@Z 10023280 f i PointCardRW.obj
 0001:00022320       ?atlCreate@?$CWindowImpl@VCOPOSPointCardRW@@VCWindow@ATL@@V?$CWinTraits@$0FGAAAAAA@$0A@@3@@ATL@@QAEPAUHWND__@@PAU3@V_U_RECT@2@PB_WKKV_U_MENUorID@2@PAX@Z 10023320 f i PointCardRW.obj
 0001:000223d0       ?atlCreate@?$CWindowImplBaseT@VCWindow@ATL@@V?$CWinTraits@$0FGAAAAAA@$0A@@2@@ATL@@QAEPAUHWND__@@PAU3@V_U_RECT@2@PB_WKKV_U_MENUorID@2@GPAX@Z 100233d0 f i PointCardRW.obj
 0001:00022550       ?atlCreate@CRegKey@ATL@@QAEJPAUHKEY__@@PB_WPA_WKKPAU_SECURITY_ATTRIBUTES@@PAK@Z 10023550 f i PointCardRW.obj
 0001:000226b0       ?begin@CComDynamicUnkArray@ATL@@QAEPAPAUIUnknown@@XZ 100236b0 f i PointCardRW.obj
 0001:000226c0       ?copy@?$_Copy@UtagCONNECTDATA@@@ATL@@SAJPAUtagCONNECTDATA@@PBU3@@Z 100236c0 f i PointCardRW.obj
 0001:00022780       ?copy@?$_CopyInterface@UIConnectionPoint@@@ATL@@SAJPAPAUIConnectionPoint@@PBQAU3@@Z 10023780 f i PointCardRW.obj
 0001:00022840       ?destroy@?$_Copy@UtagCONNECTDATA@@@ATL@@SAXPAUtagCONNECTDATA@@@Z 10023840 f i PointCardRW.obj
 0001:00022880       ?destroy@?$_CopyInterface@UIConnectionPoint@@@ATL@@SAXPAPAUIConnectionPoint@@@Z 10023880 f i PointCardRW.obj
 0001:000228c0       ?end@CComDynamicUnkArray@ATL@@QAEPAPAUIUnknown@@XZ 100238c0 f i PointCardRW.obj
 0001:000228e0       ?init@?$_Copy@UtagCONNECTDATA@@@ATL@@SAXPAUtagCONNECTDATA@@@Z 100238e0 f i PointCardRW.obj
 0001:000228f0       ?init@?$_CopyInterface@UIConnectionPoint@@@ATL@@SAXPAPAUIConnectionPoint@@@Z 100238f0 f i PointCardRW.obj
 0001:00022900       ?memcpy_s@Checked@ATL@@YAXPAXIPBXI@Z 10023900 f i PointCardRW.obj
 0001:00022930       ?ocscpy_s@@YA_NPA_WIPB_W@Z 10023930 f i PointCardRW.obj
 0001:00022990       ?ocslen@@YAHPB_W@Z         10023990 f i PointCardRW.obj
 0001:000229c0       ?tcsncpy_s@Checked@ATL@@YAHPA_WIPB_WI@Z 100239c0 f i PointCardRW.obj
 0001:000229f0       ?wcscat_s@Checked@ATL@@YAXPA_WIPB_W@Z 100239f0 f i PointCardRW.obj
 0001:00022a20       ?wcscpy_s@Checked@ATL@@YAXPA_WIPB_W@Z 10023a20 f i PointCardRW.obj
 0001:00022a50       ?wcsncpy_s@Checked@ATL@@YAHPA_WIPB_WI@Z 10023a50 f i PointCardRW.obj
 0001:00022a80       ?wcsstr@@YAPA_WPA_WPB_W@Z  10023a80 f i PointCardRW.obj
 0001:00022aa0       _InlineIsEqualGUID         10023aa0 f i PointCardRW.obj
 0001:00022b40       _IsEqualGUID               10023b40 f i PointCardRW.obj
 0001:00022b90       ??0COPOSPointCardRW@@QAE@XZ 10023b90 f   PointCardRWImpl.obj
 0001:00022ca0       ?FinalConstruct@COPOSPointCardRW@@QAEJXZ 10023ca0 f   PointCardRWImpl.obj
 0001:00022d70       ??1COPOSPointCardRW@@UAE@XZ 10023d70 f   PointCardRWImpl.obj
 0001:00022e50       ?WriteTrace@COPOSPointCardRW@@QAAXPB_WZZ 10023e50 f   PointCardRWImpl.obj
 0001:00022f00       ?WriteTraceString@COPOSPointCardRW@@QAEXPB_WPA_W@Z 10023f00 f   PointCardRWImpl.obj
 0001:00023270       ?WriteTraceString@COPOSPointCardRW@@QAAXPAXHHHPB_WZZ 10024270 f   PointCardRWImpl.obj
 0001:000234a0       ?WriteTraceError@COPOSPointCardRW@@QAEXPB_WK@Z 100244a0 f   PointCardRWImpl.obj
 0001:00023590       ?WriteTraceMethods@COPOSPointCardRW@@QAEXPAJH@Z 10024590 f   PointCardRWImpl.obj
 0001:00023600       ?GetOposProp@COPOSPointCardRW@@IAEJPBDJPAJJ@Z 10024600 f   PointCardRWImpl.obj
 0001:00023870       ?SetOposProp@COPOSPointCardRW@@IAEJPBDJJJ@Z 10024870 f   PointCardRWImpl.obj
 0001:00023b00       ?GetOposProp@COPOSPointCardRW@@IAEJPBDJPAFJ@Z 10024b00 f   PointCardRWImpl.obj
 0001:00023ba0       ?SetOposProp@COPOSPointCardRW@@IAEJPBDJFJ@Z 10024ba0 f   PointCardRWImpl.obj
 0001:00023c00       ?GetOposProp@COPOSPointCardRW@@IAEJPBDJPAPA_WJ@Z 10024c00 f   PointCardRWImpl.obj
 0001:00023e80       ?SetOposProp@COPOSPointCardRW@@IAEJPBDJPA_WJ@Z 10024e80 f   PointCardRWImpl.obj
 0001:000241c0       ?DoInvoke@COPOSPointCardRW@@IAEJPBDJPAVOposVariant@@IHPAJ_N@Z 100251c0 f   PointCardRWImpl.obj
 0001:00024af0       ?SetCOFreezeEvents@COPOSPointCardRW@@IAEXF@Z 10025af0 f   PointCardRWImpl.obj
 0001:00024c30       ?FreezeEvents@COPOSPointCardRW@@MAGJH@Z 10025c30 f   PointCardRWImpl.obj
 0001:00024d10       ?OnDraw@COPOSPointCardRW@@MAEJAAUATL_DRAWINFO@@@Z 10025d10 f   PointCardRWImpl.obj
 0001:00024eb0       ?SOProcessID@COPOSPointCardRW@@UAGJPAJ@Z 10025eb0 f   PointCardRWImpl.obj
 0001:00024ef0       ?get_OpenResult@COPOSPointCardRW@@UAGJPAJ@Z 10025ef0 f   PointCardRWImpl.obj
 0001:00024f30       ?get_BinaryConversion@COPOSPointCardRW@@UAGJPAJ@Z 10025f30 f   PointCardRWImpl.obj
 0001:00024f60       ?put_BinaryConversion@COPOSPointCardRW@@UAGJJ@Z 10025f60 f   PointCardRWImpl.obj
 0001:00024f90       ?get_CapPowerReporting@COPOSPointCardRW@@UAGJPAJ@Z 10025f90 f   PointCardRWImpl.obj
 0001:00024fc0       ?get_CheckHealthText@COPOSPointCardRW@@UAGJPAPA_W@Z 10025fc0 f   PointCardRWImpl.obj
 0001:00024ff0       ?get_Claimed@COPOSPointCardRW@@UAGJPAF@Z 10025ff0 f   PointCardRWImpl.obj
 0001:00025020       ?get_DataCount@COPOSPointCardRW@@UAGJPAJ@Z 10026020 f   PointCardRWImpl.obj
 0001:00025050       ?get_DataEventEnabled@COPOSPointCardRW@@UAGJPAF@Z 10026050 f   PointCardRWImpl.obj
 0001:00025080       ?put_DataEventEnabled@COPOSPointCardRW@@UAGJF@Z 10026080 f   PointCardRWImpl.obj
 0001:000250b0       ?get_DeviceEnabled@COPOSPointCardRW@@UAGJPAF@Z 100260b0 f   PointCardRWImpl.obj
 0001:000250e0       ?put_DeviceEnabled@COPOSPointCardRW@@UAGJF@Z 100260e0 f   PointCardRWImpl.obj
 0001:00025110       ?get_FreezeEvents@COPOSPointCardRW@@UAGJPAF@Z 10026110 f   PointCardRWImpl.obj
 0001:00025140       ?put_FreezeEvents@COPOSPointCardRW@@UAGJF@Z 10026140 f   PointCardRWImpl.obj
 0001:000251d0       ?get_OutputID@COPOSPointCardRW@@UAGJPAJ@Z 100261d0 f   PointCardRWImpl.obj
 0001:00025200       ?get_PowerNotify@COPOSPointCardRW@@UAGJPAJ@Z 10026200 f   PointCardRWImpl.obj
 0001:00025230       ?put_PowerNotify@COPOSPointCardRW@@UAGJJ@Z 10026230 f   PointCardRWImpl.obj
 0001:00025260       ?get_PowerState@COPOSPointCardRW@@UAGJPAJ@Z 10026260 f   PointCardRWImpl.obj
 0001:00025290       ?get_ResultCode@COPOSPointCardRW@@UAGJPAJ@Z 10026290 f   PointCardRWImpl.obj
 0001:00025320       ?get_ResultCodeExtended@COPOSPointCardRW@@UAGJPAJ@Z 10026320 f   PointCardRWImpl.obj
 0001:00025350       ?get_State@COPOSPointCardRW@@UAGJPAJ@Z 10026350 f   PointCardRWImpl.obj
 0001:000253a0       ?get_ControlObjectDescription@COPOSPointCardRW@@UAGJPAPA_W@Z 100263a0 f   PointCardRWImpl.obj
 0001:00025420       ?get_ControlObjectVersion@COPOSPointCardRW@@UAGJPAJ@Z 10026420 f   PointCardRWImpl.obj
 0001:00025460       ?get_ServiceObjectDescription@COPOSPointCardRW@@UAGJPAPA_W@Z 10026460 f   PointCardRWImpl.obj
 0001:00025490       ?get_ServiceObjectVersion@COPOSPointCardRW@@UAGJPAJ@Z 10026490 f   PointCardRWImpl.obj
 0001:000254c0       ?get_DeviceDescription@COPOSPointCardRW@@UAGJPAPA_W@Z 100264c0 f   PointCardRWImpl.obj
 0001:000254f0       ?get_DeviceName@COPOSPointCardRW@@UAGJPAPA_W@Z 100264f0 f   PointCardRWImpl.obj
 0001:00025520       ?CheckHealth@COPOSPointCardRW@@UAGJJPAJ@Z 10026520 f   PointCardRWImpl.obj
 0001:000255c0       ?ClaimDevice@COPOSPointCardRW@@UAGJJPAJ@Z 100265c0 f   PointCardRWImpl.obj
 0001:000256a0       ?ClearInput@COPOSPointCardRW@@UAGJPAJ@Z 100266a0 f   PointCardRWImpl.obj
 0001:000256d0       ?ClearOutput@COPOSPointCardRW@@UAGJPAJ@Z 100266d0 f   PointCardRWImpl.obj
 0001:00025700       ?Close@COPOSPointCardRW@@UAGJPAJ@Z 10026700 f   PointCardRWImpl.obj
 0001:000257d0       ?DirectIO@COPOSPointCardRW@@UAGJJPAJPAPA_W0@Z 100267d0 f   PointCardRWImpl.obj
 0001:000258e0       ?Open@COPOSPointCardRW@@UAGJPA_WPAJ@Z 100268e0 f   PointCardRWImpl.obj
 0001:00026ad0       ?ReleaseDevice@COPOSPointCardRW@@UAGJPAJ@Z 10027ad0 f   PointCardRWImpl.obj
 0001:00026b40       ?get_CapBold@COPOSPointCardRW@@UAGJPAF@Z 10027b40 f   PointCardRWImpl.obj
 0001:00026b70       ?get_CapCardEntranceSensor@COPOSPointCardRW@@UAGJPAF@Z 10027b70 f   PointCardRWImpl.obj
 0001:00026ba0       ?get_CapCharacterSet@COPOSPointCardRW@@UAGJPAJ@Z 10027ba0 f   PointCardRWImpl.obj
 0001:00026bd0       ?get_CapCleanCard@COPOSPointCardRW@@UAGJPAF@Z 10027bd0 f   PointCardRWImpl.obj
 0001:00026c00       ?get_CapClearPrint@COPOSPointCardRW@@UAGJPAF@Z 10027c00 f   PointCardRWImpl.obj
 0001:00026c30       ?get_CapDhigh@COPOSPointCardRW@@UAGJPAF@Z 10027c30 f   PointCardRWImpl.obj
 0001:00026c60       ?get_CapDwide@COPOSPointCardRW@@UAGJPAF@Z 10027c60 f   PointCardRWImpl.obj
 0001:00026c90       ?get_CapDwideDhigh@COPOSPointCardRW@@UAGJPAF@Z 10027c90 f   PointCardRWImpl.obj
 0001:00026cc0       ?get_CapItalic@COPOSPointCardRW@@UAGJPAF@Z 10027cc0 f   PointCardRWImpl.obj
 0001:00026cf0       ?get_CapLeft90@COPOSPointCardRW@@UAGJPAF@Z 10027cf0 f   PointCardRWImpl.obj
 0001:00026d20       ?get_CapPrint@COPOSPointCardRW@@UAGJPAF@Z 10027d20 f   PointCardRWImpl.obj
 0001:00026d50       ?get_CapPrintMode@COPOSPointCardRW@@UAGJPAF@Z 10027d50 f   PointCardRWImpl.obj
 0001:00026d80       ?get_CapRight90@COPOSPointCardRW@@UAGJPAF@Z 10027d80 f   PointCardRWImpl.obj
 0001:00026db0       ?get_CapRotate180@COPOSPointCardRW@@UAGJPAF@Z 10027db0 f   PointCardRWImpl.obj
 0001:00026de0       ?get_CapTracksToRead@COPOSPointCardRW@@UAGJPAJ@Z 10027de0 f   PointCardRWImpl.obj
 0001:00026e10       ?get_CapTracksToWrite@COPOSPointCardRW@@UAGJPAJ@Z 10027e10 f   PointCardRWImpl.obj
 0001:00026e40       ?get_CardState@COPOSPointCardRW@@UAGJPAJ@Z 10027e40 f   PointCardRWImpl.obj
 0001:00026e70       ?get_CharacterSet@COPOSPointCardRW@@UAGJPAJ@Z 10027e70 f   PointCardRWImpl.obj
 0001:00026ea0       ?put_CharacterSet@COPOSPointCardRW@@UAGJJ@Z 10027ea0 f   PointCardRWImpl.obj
 0001:00026ed0       ?get_CharacterSetList@COPOSPointCardRW@@UAGJPAPA_W@Z 10027ed0 f   PointCardRWImpl.obj
 0001:00026f00       ?get_FontTypeFaceList@COPOSPointCardRW@@UAGJPAPA_W@Z 10027f00 f   PointCardRWImpl.obj
 0001:00026f30       ?get_LineChars@COPOSPointCardRW@@UAGJPAJ@Z 10027f30 f   PointCardRWImpl.obj
 0001:00026f60       ?put_LineChars@COPOSPointCardRW@@UAGJJ@Z 10027f60 f   PointCardRWImpl.obj
 0001:00026f90       ?get_LineCharsList@COPOSPointCardRW@@UAGJPAPA_W@Z 10027f90 f   PointCardRWImpl.obj
 0001:00026fc0       ?get_LineHeight@COPOSPointCardRW@@UAGJPAJ@Z 10027fc0 f   PointCardRWImpl.obj
 0001:00026ff0       ?put_LineHeight@COPOSPointCardRW@@UAGJJ@Z 10027ff0 f   PointCardRWImpl.obj
 0001:00027020       ?get_LineSpacing@COPOSPointCardRW@@UAGJPAJ@Z 10028020 f   PointCardRWImpl.obj
 0001:00027050       ?put_LineSpacing@COPOSPointCardRW@@UAGJJ@Z 10028050 f   PointCardRWImpl.obj
 0001:00027080       ?get_LineWidth@COPOSPointCardRW@@UAGJPAJ@Z 10028080 f   PointCardRWImpl.obj
 0001:000270b0       ?get_MapMode@COPOSPointCardRW@@UAGJPAJ@Z 100280b0 f   PointCardRWImpl.obj
 0001:000270e0       ?put_MapMode@COPOSPointCardRW@@UAGJJ@Z 100280e0 f   PointCardRWImpl.obj
 0001:00027110       ?get_MaxLine@COPOSPointCardRW@@UAGJPAJ@Z 10028110 f   PointCardRWImpl.obj
 0001:00027140       ?get_PrintHeight@COPOSPointCardRW@@UAGJPAJ@Z 10028140 f   PointCardRWImpl.obj
 0001:00027170       ?get_ReadState1@COPOSPointCardRW@@UAGJPAJ@Z 10028170 f   PointCardRWImpl.obj
 0001:000271a0       ?get_ReadState2@COPOSPointCardRW@@UAGJPAJ@Z 100281a0 f   PointCardRWImpl.obj
 0001:000271d0       ?get_RecvLength1@COPOSPointCardRW@@UAGJPAJ@Z 100281d0 f   PointCardRWImpl.obj
 0001:00027200       ?get_RecvLength2@COPOSPointCardRW@@UAGJPAJ@Z 10028200 f   PointCardRWImpl.obj
 0001:00027230       ?get_SidewaysMaxChars@COPOSPointCardRW@@UAGJPAJ@Z 10028230 f   PointCardRWImpl.obj
 0001:00027260       ?get_SidewaysMaxLines@COPOSPointCardRW@@UAGJPAJ@Z 10028260 f   PointCardRWImpl.obj
 0001:00027290       ?get_Track1Data@COPOSPointCardRW@@UAGJPAPA_W@Z 10028290 f   PointCardRWImpl.obj
 0001:000272c0       ?get_Track2Data@COPOSPointCardRW@@UAGJPAPA_W@Z 100282c0 f   PointCardRWImpl.obj
 0001:000272f0       ?get_Track3Data@COPOSPointCardRW@@UAGJPAPA_W@Z 100282f0 f   PointCardRWImpl.obj
 0001:00027320       ?get_Track4Data@COPOSPointCardRW@@UAGJPAPA_W@Z 10028320 f   PointCardRWImpl.obj
 0001:00027350       ?get_Track5Data@COPOSPointCardRW@@UAGJPAPA_W@Z 10028350 f   PointCardRWImpl.obj
 0001:00027380       ?get_Track6Data@COPOSPointCardRW@@UAGJPAPA_W@Z 10028380 f   PointCardRWImpl.obj
 0001:000273b0       ?get_TracksToRead@COPOSPointCardRW@@UAGJPAJ@Z 100283b0 f   PointCardRWImpl.obj
 0001:000273e0       ?put_TracksToRead@COPOSPointCardRW@@UAGJJ@Z 100283e0 f   PointCardRWImpl.obj
 0001:00027410       ?get_TracksToWrite@COPOSPointCardRW@@UAGJPAJ@Z 10028410 f   PointCardRWImpl.obj
 0001:00027440       ?put_TracksToWrite@COPOSPointCardRW@@UAGJJ@Z 10028440 f   PointCardRWImpl.obj
 0001:00027470       ?get_Write1Data@COPOSPointCardRW@@UAGJPAPA_W@Z 10028470 f   PointCardRWImpl.obj
 0001:000274a0       ?put_Write1Data@COPOSPointCardRW@@UAGJPA_W@Z 100284a0 f   PointCardRWImpl.obj
 0001:000274d0       ?get_Write2Data@COPOSPointCardRW@@UAGJPAPA_W@Z 100284d0 f   PointCardRWImpl.obj
 0001:00027500       ?put_Write2Data@COPOSPointCardRW@@UAGJPA_W@Z 10028500 f   PointCardRWImpl.obj
 0001:00027530       ?get_Write3Data@COPOSPointCardRW@@UAGJPAPA_W@Z 10028530 f   PointCardRWImpl.obj
 0001:00027560       ?put_Write3Data@COPOSPointCardRW@@UAGJPA_W@Z 10028560 f   PointCardRWImpl.obj
 0001:00027590       ?get_Write4Data@COPOSPointCardRW@@UAGJPAPA_W@Z 10028590 f   PointCardRWImpl.obj
 0001:000275c0       ?put_Write4Data@COPOSPointCardRW@@UAGJPA_W@Z 100285c0 f   PointCardRWImpl.obj
 0001:000275f0       ?get_Write5Data@COPOSPointCardRW@@UAGJPAPA_W@Z 100285f0 f   PointCardRWImpl.obj
 0001:00027620       ?put_Write5Data@COPOSPointCardRW@@UAGJPA_W@Z 10028620 f   PointCardRWImpl.obj
 0001:00027650       ?get_Write6Data@COPOSPointCardRW@@UAGJPAPA_W@Z 10028650 f   PointCardRWImpl.obj
 0001:00027680       ?put_Write6Data@COPOSPointCardRW@@UAGJPA_W@Z 10028680 f   PointCardRWImpl.obj
 0001:000276b0       ?get_WriteState1@COPOSPointCardRW@@UAGJPAJ@Z 100286b0 f   PointCardRWImpl.obj
 0001:000276e0       ?get_WriteState2@COPOSPointCardRW@@UAGJPAJ@Z 100286e0 f   PointCardRWImpl.obj
 0001:00027710       ?BeginInsertion@COPOSPointCardRW@@UAGJJPAJ@Z 10028710 f   PointCardRWImpl.obj
 0001:000277b0       ?BeginRemoval@COPOSPointCardRW@@UAGJJPAJ@Z 100287b0 f   PointCardRWImpl.obj
 0001:00027850       ?CleanCard@COPOSPointCardRW@@UAGJPAJ@Z 10028850 f   PointCardRWImpl.obj
 0001:00027880       ?ClearPrintWrite@COPOSPointCardRW@@UAGJJJJJJPAJ@Z 10028880 f   PointCardRWImpl.obj
 0001:000279b0       ?EndInsertion@COPOSPointCardRW@@UAGJPAJ@Z 100289b0 f   PointCardRWImpl.obj
 0001:000279e0       ?EndRemoval@COPOSPointCardRW@@UAGJPAJ@Z 100289e0 f   PointCardRWImpl.obj
 0001:00027a10       ?PrintWrite@COPOSPointCardRW@@UAGJJJJPA_WPAJ@Z 10028a10 f   PointCardRWImpl.obj
 0001:00027b30       ?RotatePrint@COPOSPointCardRW@@UAGJJPAJ@Z 10028b30 f   PointCardRWImpl.obj
 0001:00027bd0       ?ValidateData@COPOSPointCardRW@@UAGJPA_WPAJ@Z 10028bd0 f   PointCardRWImpl.obj
 0001:00027c80       ?get_CapMapCharacterSet@COPOSPointCardRW@@UAGJPAF@Z 10028c80 f   PointCardRWImpl.obj
 0001:00027cb0       ?get_MapCharacterSet@COPOSPointCardRW@@UAGJPAF@Z 10028cb0 f   PointCardRWImpl.obj
 0001:00027ce0       ?put_MapCharacterSet@COPOSPointCardRW@@UAGJF@Z 10028ce0 f   PointCardRWImpl.obj
 0001:00027d10       ?get_CapStatisticsReporting@COPOSPointCardRW@@UAGJPAF@Z 10028d10 f   PointCardRWImpl.obj
 0001:00027d40       ?get_CapUpdateStatistics@COPOSPointCardRW@@UAGJPAF@Z 10028d40 f   PointCardRWImpl.obj
 0001:00027d70       ?ResetStatistics@COPOSPointCardRW@@UAGJPA_WPAJ@Z 10028d70 f   PointCardRWImpl.obj
 0001:00027e20       ?RetrieveStatistics@COPOSPointCardRW@@UAGJPAPA_WPAJ@Z 10028e20 f   PointCardRWImpl.obj
 0001:00027ed0       ?UpdateStatistics@COPOSPointCardRW@@UAGJPA_WPAJ@Z 10028ed0 f   PointCardRWImpl.obj
 0001:00027f80       ?get_CapCompareFirmwareVersion@COPOSPointCardRW@@UAGJPAF@Z 10028f80 f   PointCardRWImpl.obj
 0001:00027fb0       ?get_CapUpdateFirmware@COPOSPointCardRW@@UAGJPAF@Z 10028fb0 f   PointCardRWImpl.obj
 0001:00027fe0       ?CompareFirmwareVersion@COPOSPointCardRW@@UAGJPA_WPAJ1@Z 10028fe0 f   PointCardRWImpl.obj
 0001:000280d0       ?UpdateFirmware@COPOSPointCardRW@@UAGJPA_WPAJ@Z 100290d0 f   PointCardRWImpl.obj
 0001:00028180       ?ClearInputProperties@COPOSPointCardRW@@UAGJPAJ@Z 10029180 f   PointCardRWImpl.obj
 0001:000281b0       ??0?$CComControl@VCOPOSPointCardRW@@V?$CWindowImpl@VCOPOSPointCardRW@@VCWindow@ATL@@V?$CWinTraits@$0FGAAAAAA@$0A@@3@@ATL@@@ATL@@QAE@XZ 100291b0 f i PointCardRWImpl.obj
 0001:000281f0       ??0?$CComPtr@UIAdviseSink@@@ATL@@QAE@XZ 100291f0 f i PointCardRWImpl.obj
 0001:00028220       ??0?$CComPtr@UIDataAdviseHolder@@@ATL@@QAE@XZ 10029220 f i PointCardRWImpl.obj
 0001:00028250       ??0?$CComPtr@UIOleAdviseHolder@@@ATL@@QAE@XZ 10029250 f i PointCardRWImpl.obj
 0001:00028280       ??0?$CComPtr@UIOleClientSite@@@ATL@@QAE@XZ 10029280 f i PointCardRWImpl.obj
 0001:000282b0       ??0?$CComPtr@UIOleInPlaceSiteWindowless@@@ATL@@QAE@XZ 100292b0 f i PointCardRWImpl.obj
 0001:000282e0       ??0?$CComPtrBase@UIAdviseSink@@@ATL@@IAE@XZ 100292e0 f i PointCardRWImpl.obj
 0001:00028300       ??0?$CComPtrBase@UIDataAdviseHolder@@@ATL@@IAE@XZ 10029300 f i PointCardRWImpl.obj
 0001:00028320       ??0?$CComPtrBase@UIOleAdviseHolder@@@ATL@@IAE@XZ 10029320 f i PointCardRWImpl.obj
 0001:00028340       ??0?$CComPtrBase@UIOleClientSite@@@ATL@@IAE@XZ 10029340 f i PointCardRWImpl.obj
 0001:00028360       ??0?$CComPtrBase@UIOleInPlaceSiteWindowless@@@ATL@@IAE@XZ 10029360 f i PointCardRWImpl.obj
 0001:00028380       ??0?$CComQIPtr@UIDispatch@@$1?_GUID_00020400_0000_0000_c000_000000000046@@3U__s_GUID@@B@ATL@@QAE@XZ 10029380 f i PointCardRWImpl.obj
 0001:000283b0       ??0?$CProxy_IOPOSEvents@VCOPOSPointCardRW@@@@QAE@PAVCOPOSPointCardRW@@@Z 100293b0 f i PointCardRWImpl.obj
 0001:00028420       ??0?$CWindowImpl@VCOPOSPointCardRW@@VCWindow@ATL@@V?$CWinTraits@$0FGAAAAAA@$0A@@3@@ATL@@QAE@XZ 10029420 f i PointCardRWImpl.obj
 0001:00028450       ??0?$CWindowImplBaseT@VCWindow@ATL@@V?$CWinTraits@$0FGAAAAAA@$0A@@2@@ATL@@QAE@XZ 10029450 f i PointCardRWImpl.obj
 0001:00028490       ??0?$CWindowImplRoot@VCWindow@ATL@@@ATL@@QAE@XZ 10029490 f i PointCardRWImpl.obj
 0001:000284f0       ??0?$IConnectionPointContainerImpl@VCOPOSPointCardRW@@@ATL@@QAE@XZ 100294f0 f i PointCardRWImpl.obj
 0001:00028520       ??0?$IConnectionPointImpl@VCOPOSPointCardRW@@$1?DIID__IOPOSPointCardRWEvents@@3U_GUID@@BVCComDynamicUnkArray@ATL@@@ATL@@QAE@XZ 10029520 f i PointCardRWImpl.obj
 0001:00028560       ??0?$IConnectionPointImpl@VCOPOSPointCardRW@@$1?IID_IPropertyNotifySink@@3U_GUID@@BVCComDynamicUnkArray@ATL@@@ATL@@QAE@XZ 10029560 f i PointCardRWImpl.obj
 0001:000285a0       ??0?$IDataObjectImpl@VCOPOSPointCardRW@@@ATL@@QAE@XZ 100295a0 f i PointCardRWImpl.obj
 0001:000285d0       ??0?$IDispatchImpl@UIOPOSPointCardRW@@$1?IID_IOPOSPointCardRW@@3U_GUID@@B$1?LIBID_OposPointCardRW_CCO@@3U3@B$00$0A@VCComTypeInfoHolder@ATL@@@ATL@@QAE@XZ 100295d0 f i PointCardRWImpl.obj
 0001:00028600       ??0?$IObjectSafetyImpl@VCOPOSPointCardRW@@$02@ATL@@QAE@XZ 10029600 f i PointCardRWImpl.obj
 0001:00028640       ??0?$IOleControlImpl@VCOPOSPointCardRW@@@ATL@@QAE@XZ 10029640 f i PointCardRWImpl.obj
 0001:00028670       ??0?$IOleInPlaceActiveObjectImpl@VCOPOSPointCardRW@@@ATL@@QAE@XZ 10029670 f i PointCardRWImpl.obj
 0001:000286a0       ??0?$IOleInPlaceObjectWindowlessImpl@VCOPOSPointCardRW@@@ATL@@QAE@XZ 100296a0 f i PointCardRWImpl.obj
 0001:000286d0       ??0?$IOleObjectImpl@VCOPOSPointCardRW@@@ATL@@QAE@XZ 100296d0 f i PointCardRWImpl.obj
 0001:00028700       ??0?$IPersistStorageImpl@VCOPOSPointCardRW@@@ATL@@QAE@XZ 10029700 f i PointCardRWImpl.obj
 0001:00028730       ??0?$IPersistStreamInitImpl@VCOPOSPointCardRW@@@ATL@@QAE@XZ 10029730 f i PointCardRWImpl.obj
 0001:00028760       ??0?$IPropertyNotifySinkCP@VCOPOSPointCardRW@@VCComDynamicUnkArray@ATL@@@ATL@@QAE@XZ 10029760 f i PointCardRWImpl.obj
 0001:00028790       ??0?$IProvideClassInfo2Impl@$1?CLSID_OPOSPointCardRW@@3U_GUID@@B$1?DIID__IOPOSPointCardRWEvents@@3U2@B$1?LIBID_OposPointCardRW_CCO@@3U2@B$00$0A@VCComTypeInfoHolder@ATL@@@ATL@@QAE@XZ 10029790 f i PointCardRWImpl.obj
 0001:000287c0       ??0?$IQuickActivateImpl@VCOPOSPointCardRW@@@ATL@@QAE@XZ 100297c0 f i PointCardRWImpl.obj
 0001:000287f0       ??0?$ISpecifyPropertyPagesImpl@VCOPOSPointCardRW@@@ATL@@QAE@XZ 100297f0 f i PointCardRWImpl.obj
 0001:00028820       ??0?$IViewObjectExImpl@VCOPOSPointCardRW@@@ATL@@QAE@XZ 10029820 f i PointCardRWImpl.obj
 0001:00028850       ??0?$_ICPLocator@$1?DIID__IOPOSPointCardRWEvents@@3U_GUID@@B@ATL@@QAE@XZ 10029850 f i PointCardRWImpl.obj
 0001:00028860       ??0?$_ICPLocator@$1?IID_IPropertyNotifySink@@3U_GUID@@B@ATL@@QAE@XZ 10029860 f i PointCardRWImpl.obj
 0001:00028870       ??0CComControlBase@ATL@@QAE@AAPAUHWND__@@@Z 10029870 f i PointCardRWImpl.obj
 0001:00028a20       ??0CComDynamicUnkArray@ATL@@QAE@XZ 10029a20 f i PointCardRWImpl.obj
 0001:00028a50       ??0CDynamicStdCallThunk2@ATL@@QAE@XZ 10029a50 f i PointCardRWImpl.obj
 0001:00028a70       ??0CMessageMap@ATL@@QAE@XZ 10029a70 f i PointCardRWImpl.obj
 0001:00028a80       ??0CWindow@ATL@@QAE@PAUHWND__@@@Z 10029a80 f i PointCardRWImpl.obj
 0001:00028aa0       ??0CWndProcThunk@ATL@@QAE@XZ 10029aa0 f i PointCardRWImpl.obj
 0001:00028ad0       ??0IConnectionPointContainer@@QAE@XZ 10029ad0 f i PointCardRWImpl.obj
 0001:00028b00       ??0IDataObject@@QAE@XZ     10029b00 f i PointCardRWImpl.obj
 0001:00028b30       ??0IDispatch@@QAE@XZ       10029b30 f i PointCardRWImpl.obj
 0001:00028b60       ??0IOPOSPointCardRW@@QAE@XZ 10029b60 f i PointCardRWImpl.obj
 0001:00028b90       ??0IOPOSPointCardRW_1_10@@QAE@XZ 10029b90 f i PointCardRWImpl.obj
 0001:00028bc0       ??0IOPOSPointCardRW_1_5@@QAE@XZ 10029bc0 f i PointCardRWImpl.obj
 0001:00028bf0       ??0IOPOSPointCardRW_1_7@@QAE@XZ 10029bf0 f i PointCardRWImpl.obj
 0001:00028c20       ??0IOPOSPointCardRW_1_8@@QAE@XZ 10029c20 f i PointCardRWImpl.obj
 0001:00028c50       ??0IOPOSPointCardRW_1_9@@QAE@XZ 10029c50 f i PointCardRWImpl.obj
 0001:00028c80       ??0IObjectSafety@@QAE@XZ   10029c80 f i PointCardRWImpl.obj
 0001:00028cb0       ??0IOleControl@@QAE@XZ     10029cb0 f i PointCardRWImpl.obj
 0001:00028ce0       ??0IOleInPlaceActiveObject@@QAE@XZ 10029ce0 f i PointCardRWImpl.obj
 0001:00028d10       ??0IOleInPlaceObject@@QAE@XZ 10029d10 f i PointCardRWImpl.obj
 0001:00028d40       ??0IOleInPlaceObjectWindowless@@QAE@XZ 10029d40 f i PointCardRWImpl.obj
 0001:00028d70       ??0IOleObject@@QAE@XZ      10029d70 f i PointCardRWImpl.obj
 0001:00028da0       ??0IOleWindow@@QAE@XZ      10029da0 f i PointCardRWImpl.obj
 0001:00028dd0       ??0IPersist@@QAE@XZ        10029dd0 f i PointCardRWImpl.obj
 0001:00028e00       ??0IPersistStorage@@QAE@XZ 10029e00 f i PointCardRWImpl.obj
 0001:00028e30       ??0IPersistStreamInit@@QAE@XZ 10029e30 f i PointCardRWImpl.obj
 0001:00028e60       ??0IProvideClassInfo2@@QAE@XZ 10029e60 f i PointCardRWImpl.obj
 0001:00028e90       ??0IProvideClassInfo@@QAE@XZ 10029e90 f i PointCardRWImpl.obj
 0001:00028ec0       ??0IQuickActivate@@QAE@XZ  10029ec0 f i PointCardRWImpl.obj
 0001:00028ef0       ??0ISpecifyPropertyPages@@QAE@XZ 10029ef0 f i PointCardRWImpl.obj
 0001:00028f20       ??0IViewObject2@@QAE@XZ    10029f20 f i PointCardRWImpl.obj
 0001:00028f50       ??0IViewObject@@QAE@XZ     10029f50 f i PointCardRWImpl.obj
 0001:00028f80       ??0IViewObjectEx@@QAE@XZ   10029f80 f i PointCardRWImpl.obj
 0001:00028fb0       ??0OposVariantResult@@QAE@XZ 10029fb0 f i PointCardRWImpl.obj
 0001:00028fe0       ??0_CW@@QAE@PBD@Z          10029fe0 f i PointCardRWImpl.obj
 0001:00029020       ??0_CW@@QAE@PB_W@Z         1002a020 f i PointCardRWImpl.obj
 0001:00029060       ??0_CWNCC@@QAE@PBD@Z       1002a060 f i PointCardRWImpl.obj
 0001:00029090       ??1?$CComControl@VCOPOSPointCardRW@@V?$CWindowImpl@VCOPOSPointCardRW@@VCWindow@ATL@@V?$CWinTraits@$0FGAAAAAA@$0A@@3@@ATL@@@ATL@@UAE@XZ 1002a090 f i PointCardRWImpl.obj
 0001:000290c0       ??1?$CComPtr@UIDataAdviseHolder@@@ATL@@QAE@XZ 1002a0c0 f i PointCardRWImpl.obj
 0001:000290f0       ??1?$CComPtr@UIOleAdviseHolder@@@ATL@@QAE@XZ 1002a0f0 f i PointCardRWImpl.obj
 0001:00029120       ??1?$CComPtr@UIOleInPlaceSiteWindowless@@@ATL@@QAE@XZ 1002a120 f i PointCardRWImpl.obj
 0001:00029150       ??1?$CComPtrBase@UIDataAdviseHolder@@@ATL@@QAE@XZ 1002a150 f i PointCardRWImpl.obj
 0001:000291a0       ??1?$CComPtrBase@UIOleAdviseHolder@@@ATL@@QAE@XZ 1002a1a0 f i PointCardRWImpl.obj
 0001:000291f0       ??1?$CComPtrBase@UIOleInPlaceSiteWindowless@@@ATL@@QAE@XZ 1002a1f0 f i PointCardRWImpl.obj
 0001:00029240       ??1?$CComQIPtr@UIDispatch@@$1?_GUID_00020400_0000_0000_c000_000000000046@@3U__s_GUID@@B@ATL@@QAE@XZ 1002a240 f i PointCardRWImpl.obj
 0001:00029270       ??1?$CProxy_IOPOSEvents@VCOPOSPointCardRW@@@@QAE@XZ 1002a270 f i PointCardRWImpl.obj
 0001:000292a0       ??1?$CWindowImpl@VCOPOSPointCardRW@@VCWindow@ATL@@V?$CWinTraits@$0FGAAAAAA@$0A@@3@@ATL@@UAE@XZ 1002a2a0 f i PointCardRWImpl.obj
 0001:000292d0       ??1?$CWindowImplBaseT@VCWindow@ATL@@V?$CWinTraits@$0FGAAAAAA@$0A@@2@@ATL@@UAE@XZ 1002a2d0 f i PointCardRWImpl.obj
 0001:00029300       ??1?$CWindowImplRoot@VCWindow@ATL@@@ATL@@UAE@XZ 1002a300 f i PointCardRWImpl.obj
 0001:000293a0       ??1?$IConnectionPointImpl@VCOPOSPointCardRW@@$1?DIID__IOPOSPointCardRWEvents@@3U_GUID@@BVCComDynamicUnkArray@ATL@@@ATL@@QAE@XZ 1002a3a0 f i PointCardRWImpl.obj
 0001:00029420       ??1?$IConnectionPointImpl@VCOPOSPointCardRW@@$1?IID_IPropertyNotifySink@@3U_GUID@@BVCComDynamicUnkArray@ATL@@@ATL@@QAE@XZ 1002a420 f i PointCardRWImpl.obj
 0001:000294a0       ??1?$IPropertyNotifySinkCP@VCOPOSPointCardRW@@VCComDynamicUnkArray@ATL@@@ATL@@QAE@XZ 1002a4a0 f i PointCardRWImpl.obj
 0001:000294d0       ??1CComControlBase@ATL@@UAE@XZ 1002a4d0 f i PointCardRWImpl.obj
 0001:00029590       ??1CComDynamicUnkArray@ATL@@QAE@XZ 1002a590 f i PointCardRWImpl.obj
 0001:000295d0       ??1CDynamicStdCallThunk2@ATL@@QAE@XZ 1002a5d0 f i PointCardRWImpl.obj
 0001:00029600       ??1CWndProcThunk@ATL@@QAE@XZ 1002a600 f i PointCardRWImpl.obj
 0001:00029630       ??1OposVariantResult@@QAE@XZ 1002a630 f i PointCardRWImpl.obj
 0001:00029660       ??1_CW@@QAE@XZ             1002a660 f i PointCardRWImpl.obj
 0001:000296d0       ??1_CWNCC@@QAE@XZ          1002a6d0 f i PointCardRWImpl.obj
 0001:00029700       ??B_CW@@QAEPB_WXZ          1002a700 f i PointCardRWImpl.obj
 0001:00029740       ??B_CWNCC@@QAEPA_WXZ       1002a740 f i PointCardRWImpl.obj
 0001:00029770       ??_EOposVariant@@QAEPAXI@Z 1002a770 f i PointCardRWImpl.obj
 0001:00029800       ?EventClaim@COPOSPointCardRW@@IAEXXZ 1002a800 f i PointCardRWImpl.obj
 0001:00029840       ?EventClose@COPOSPointCardRW@@IAEXXZ 1002a840 f i PointCardRWImpl.obj
 0001:000298e0       ?EventInit@COPOSPointCardRW@@IAEJXZ 1002a8e0 f i PointCardRWImpl.obj
 0001:00029b10       ?EventOpen@COPOSPointCardRW@@IAEXXZ 1002ab10 f i PointCardRWImpl.obj
 0001:00029b50       ?EventPreCloseRelease@COPOSPointCardRW@@IAEXXZ 1002ab50 f i PointCardRWImpl.obj
 0001:00029bd0       ?EventUninit@COPOSPointCardRW@@IAEXXZ 1002abd0 f i PointCardRWImpl.obj
 0001:00029d00       ?EventWindowProc@COPOSPointCardRW@@IAGJIIJ@Z 1002ad00 f i PointCardRWImpl.obj
 0001:00029ed0       ?FireEventCleanup@COPOSPointCardRW@@IAEXXZ 1002aed0 f i PointCardRWImpl.obj
 0001:00029f20       ?FireEventSetup@COPOSPointCardRW@@IAE_NXZ 1002af20 f i PointCardRWImpl.obj
 0001:00029f90       ?GetModuleInstance@CComModule@ATL@@QAEPAUHINSTANCE__@@XZ 1002af90 f i PointCardRWImpl.obj
 0001:00029fa0       ?SetRC@COPOSPointCardRW@@IAEJJ@Z 1002afa0 f i PointCardRWImpl.obj
 0001:00029fc0       ?s_EventWindowProc@COPOSPointCardRW@@KGJPAUHWND__@@IIJ@Z 1002afc0 f i PointCardRWImpl.obj
 0001:0002a060       __snwprintf                1002b060 f i PointCardRWImpl.obj
 0001:0002a0c0       __vfwprintf_l              1002b0c0 f i PointCardRWImpl.obj
 0001:0002a0f0       __vsnwprintf               1002b0f0 f i PointCardRWImpl.obj
 0001:0002a120       __vsnwprintf_l             1002b120 f i PointCardRWImpl.obj
 0001:0002a190       _vfwprintf                 1002b190 f i PointCardRWImpl.obj
 0001:0002a1b2       _DebugBreak@0              1002b1b2 f   kernel32:KERNEL32.dll
 0001:0002a1b8       _Sleep@4                   1002b1b8 f   kernel32:KERNEL32.dll
 0001:0002a1be       _GetCurrentProcess@0       1002b1be f   kernel32:KERNEL32.dll
 0001:0002a1c4       _TerminateProcess@8        1002b1c4 f   kernel32:KERNEL32.dll
 0001:0002a1ca       _MultiByteToWideChar@24    1002b1ca f   kernel32:KERNEL32.dll
 0001:0002a1d0       _WideCharToMultiByte@32    1002b1d0 f   kernel32:KERNEL32.dll
 0001:0002a1d6       _DecodePointer@4           1002b1d6 f   kernel32:KERNEL32.dll
 0001:0002a1dc       _RaiseException@16         1002b1dc f   kernel32:KERNEL32.dll
 0001:0002a1e2       _GetLastError@0            1002b1e2 f   kernel32:KERNEL32.dll
 0001:0002a1e8       _SetLastError@4            1002b1e8 f   kernel32:KERNEL32.dll
 0001:0002a1ee       _InitializeCriticalSectionEx@12 1002b1ee f   kernel32:KERNEL32.dll
 0001:0002a1f4       _DeleteCriticalSection@4   1002b1f4 f   kernel32:KERNEL32.dll
 0001:0002a1fa       _EncodePointer@4           1002b1fa f   kernel32:KERNEL32.dll
 0001:0002a200       _EnterCriticalSection@4    1002b200 f   kernel32:KERNEL32.dll
 0001:0002a206       _LeaveCriticalSection@4    1002b206 f   kernel32:KERNEL32.dll
 0001:0002a20c       _ResetEvent@4              1002b20c f   kernel32:KERNEL32.dll
 0001:0002a212       _ReleaseMutex@4            1002b212 f   kernel32:KERNEL32.dll
 0001:0002a218       _WaitForSingleObject@8     1002b218 f   kernel32:KERNEL32.dll
 0001:0002a21e       _GetCurrentThreadId@0      1002b21e f   kernel32:KERNEL32.dll
 0001:0002a224       _DisableThreadLibraryCalls@4 1002b224 f   kernel32:KERNEL32.dll
 0001:0002a22a       _FreeLibrary@4             1002b22a f   kernel32:KERNEL32.dll
 0001:0002a230       _GetModuleFileNameW@12     1002b230 f   kernel32:KERNEL32.dll
 0001:0002a236       _GetModuleHandleW@4        1002b236 f   kernel32:KERNEL32.dll
 0001:0002a23c       _GetProcAddress@8          1002b23c f   kernel32:KERNEL32.dll
 0001:0002a242       _LoadLibraryExW@12         1002b242 f   kernel32:KERNEL32.dll
 0001:0002a248       _LoadResource@8            1002b248 f   kernel32:KERNEL32.dll
 0001:0002a24e       _SizeofResource@8          1002b24e f   kernel32:KERNEL32.dll
 0001:0002a254       _FindResourceW@12          1002b254 f   kernel32:KERNEL32.dll
 0001:0002a25a       _GlobalAlloc@8             1002b25a f   kernel32:KERNEL32.dll
 0001:0002a260       _GlobalUnlock@4            1002b260 f   kernel32:KERNEL32.dll
 0001:0002a266       _GlobalLock@4              1002b266 f   kernel32:KERNEL32.dll
 0001:0002a26c       _MulDiv@12                 1002b26c f   kernel32:KERNEL32.dll
 0001:0002a272       _lstrcmpiW@8               1002b272 f   kernel32:KERNEL32.dll
 0001:0002a278       _DeleteFileW@4             1002b278 f   kernel32:KERNEL32.dll
 0001:0002a27e       _CloseHandle@4             1002b27e f   kernel32:KERNEL32.dll
 0001:0002a284       _SetEvent@4                1002b284 f   kernel32:KERNEL32.dll
 0001:0002a28a       _CreateMutexW@12           1002b28a f   kernel32:KERNEL32.dll
 0001:0002a290       _CreateEventW@16           1002b290 f   kernel32:KERNEL32.dll
 0001:0002a296       _GetCurrentProcessId@0     1002b296 f   kernel32:KERNEL32.dll
 0001:0002a29c       _LocalFree@4               1002b29c f   kernel32:KERNEL32.dll
 0001:0002a2a2       _FormatMessageW@28         1002b2a2 f   kernel32:KERNEL32.dll
 0001:0002a2a8       _GetActiveWindow@0         1002b2a8 f   user32:USER32.dll
 0001:0002a2ae       _MessageBoxW@16            1002b2ae f   user32:USER32.dll
 0001:0002a2b4       _UnregisterClassW@8        1002b2b4 f   user32:USER32.dll
 0001:0002a2ba       _PostMessageW@16           1002b2ba f   user32:USER32.dll
 0001:0002a2c0       _DefWindowProcW@16         1002b2c0 f   user32:USER32.dll
 0001:0002a2c6       _CallWindowProcW@20        1002b2c6 f   user32:USER32.dll
 0001:0002a2cc       _RegisterClassExW@4        1002b2cc f   user32:USER32.dll
 0001:0002a2d2       _GetClassInfoExW@12        1002b2d2 f   user32:USER32.dll
 0001:0002a2d8       _CreateWindowExW@48        1002b2d8 f   user32:USER32.dll
 0001:0002a2de       _IsWindow@4                1002b2de f   user32:USER32.dll
 0001:0002a2e4       _IsChild@8                 1002b2e4 f   user32:USER32.dll
 0001:0002a2ea       _DestroyWindow@4           1002b2ea f   user32:USER32.dll
 0001:0002a2f0       _ShowWindow@8              1002b2f0 f   user32:USER32.dll
 0001:0002a2f6       _SetWindowPos@28           1002b2f6 f   user32:USER32.dll
 0001:0002a2fc       _CharNextW@4               1002b2fc f   user32:USER32.dll
 0001:0002a302       _SetFocus@4                1002b302 f   user32:USER32.dll
 0001:0002a308       _GetFocus@0                1002b308 f   user32:USER32.dll
 0001:0002a30e       _GetKeyState@4             1002b30e f   user32:USER32.dll
 0001:0002a314       _GetDC@4                   1002b314 f   user32:USER32.dll
 0001:0002a31a       _ReleaseDC@8               1002b31a f   user32:USER32.dll
 0001:0002a320       _BeginPaint@8              1002b320 f   user32:USER32.dll
 0001:0002a326       _EndPaint@8                1002b326 f   user32:USER32.dll
 0001:0002a32c       _SetWindowRgn@12           1002b32c f   user32:USER32.dll
 0001:0002a332       _InvalidateRect@12         1002b332 f   user32:USER32.dll
 0001:0002a338       _GetClientRect@8           1002b338 f   user32:USER32.dll
 0001:0002a33e       _IntersectRect@12          1002b33e f   user32:USER32.dll
 0001:0002a344       _UnionRect@12              1002b344 f   user32:USER32.dll
 0001:0002a34a       _OffsetRect@12             1002b34a f   user32:USER32.dll
 0001:0002a350       _EqualRect@8               1002b350 f   user32:USER32.dll
 0001:0002a356       _PtInRect@12               1002b356 f   user32:USER32.dll
 0001:0002a35c       _GetWindowLongW@8          1002b35c f   user32:USER32.dll
 0001:0002a362       _SetWindowLongW@12         1002b362 f   user32:USER32.dll
 0001:0002a368       _GetParent@4               1002b368 f   user32:USER32.dll
 0001:0002a36e       _LoadCursorW@8             1002b36e f   user32:USER32.dll
 0001:0002a374       _PeekMessageW@20           1002b374 f   user32:USER32.dll
 0001:0002a37a       _RegisterClassW@4          1002b37a f   user32:USER32.dll
 0001:0002a380       _LoadBitmapW@8             1002b380 f   user32:USER32.dll
 0001:0002a386       _CloseMetaFile@4           1002b386 f   gdi32:GDI32.dll
 0001:0002a38c       _CreateDCW@16              1002b38c f   gdi32:GDI32.dll
 0001:0002a392       _CreateMetaFileW@4         1002b392 f   gdi32:GDI32.dll
 0001:0002a398       _CreateRectRgnIndirect@4   1002b398 f   gdi32:GDI32.dll
 0001:0002a39e       _DeleteDC@4                1002b39e f   gdi32:GDI32.dll
 0001:0002a3a4       _DeleteMetaFile@4          1002b3a4 f   gdi32:GDI32.dll
 0001:0002a3aa       _GetDeviceCaps@8           1002b3aa f   gdi32:GDI32.dll
 0001:0002a3b0       _RestoreDC@8               1002b3b0 f   gdi32:GDI32.dll
 0001:0002a3b6       _SaveDC@4                  1002b3b6 f   gdi32:GDI32.dll
 0001:0002a3bc       _SetMapMode@8              1002b3bc f   gdi32:GDI32.dll
 0001:0002a3c2       _LPtoDP@12                 1002b3c2 f   gdi32:GDI32.dll
 0001:0002a3c8       _SetViewportOrgEx@16       1002b3c8 f   gdi32:GDI32.dll
 0001:0002a3ce       _SetWindowExtEx@16         1002b3ce f   gdi32:GDI32.dll
 0001:0002a3d4       _SetWindowOrgEx@16         1002b3d4 f   gdi32:GDI32.dll
 0001:0002a3da       _BitBlt@36                 1002b3da f   gdi32:GDI32.dll
 0001:0002a3e0       _CreateCompatibleDC@4      1002b3e0 f   gdi32:GDI32.dll
 0001:0002a3e6       _DeleteObject@4            1002b3e6 f   gdi32:GDI32.dll
 0001:0002a3ec       _SelectObject@8            1002b3ec f   gdi32:GDI32.dll
 0001:0002a3f2       _GetObjectW@12             1002b3f2 f   gdi32:GDI32.dll
 0001:0002a3f8       _RegCloseKey@4             1002b3f8 f   advapi32:ADVAPI32.dll
 0001:0002a3fe       _RegCreateKeyExW@36        1002b3fe f   advapi32:ADVAPI32.dll
 0001:0002a404       _RegDeleteKeyW@8           1002b404 f   advapi32:ADVAPI32.dll
 0001:0002a40a       _RegDeleteValueW@8         1002b40a f   advapi32:ADVAPI32.dll
 0001:0002a410       _RegEnumKeyExW@32          1002b410 f   advapi32:ADVAPI32.dll
 0001:0002a416       _RegOpenKeyExW@20          1002b416 f   advapi32:ADVAPI32.dll
 0001:0002a41c       _RegQueryInfoKeyW@48       1002b41c f   advapi32:ADVAPI32.dll
 0001:0002a422       _RegSetValueExW@24         1002b422 f   advapi32:ADVAPI32.dll
 0001:0002a428       _RegQueryValueExW@24       1002b428 f   advapi32:ADVAPI32.dll
 0001:0002a42e       _CoCreateInstance@20       1002b42e f   ole32:ole32.dll
 0001:0002a434       _StringFromGUID2@12        1002b434 f   ole32:ole32.dll
 0001:0002a43a       _CoTaskMemAlloc@4          1002b43a f   ole32:ole32.dll
 0001:0002a440       _CoTaskMemRealloc@8        1002b440 f   ole32:ole32.dll
 0001:0002a446       _CoTaskMemFree@4           1002b446 f   ole32:ole32.dll
 0001:0002a44c       _ReadClassStm@8            1002b44c f   ole32:ole32.dll
 0001:0002a452       _WriteClassStm@8           1002b452 f   ole32:ole32.dll
 0001:0002a458       _CreateDataAdviseHolder@4  1002b458 f   ole32:ole32.dll
 0001:0002a45e       _OleSaveToStream@8         1002b45e f   ole32:ole32.dll
 0001:0002a464       _CreateOleAdviseHolder@4   1002b464 f   ole32:ole32.dll
 0001:0002a46a       _OleRegGetUserType@12      1002b46a f   ole32:ole32.dll
 0001:0002a470       _OleRegGetMiscStatus@12    1002b470 f   ole32:ole32.dll
 0001:0002a476       _OleRegEnumVerbs@8         1002b476 f   ole32:ole32.dll
 0001:0002a47c       _CLSIDFromProgID@8         1002b47c f   ole32:ole32.dll
 0001:0002a482       _SysAllocString@4          1002b482 f   oleaut32:OLEAUT32.dll
 0001:0002a488       _SysAllocStringLen@8       1002b488 f   oleaut32:OLEAUT32.dll
 0001:0002a48e       _SysFreeString@4           1002b48e f   oleaut32:OLEAUT32.dll
 0001:0002a494       _SysStringLen@4            1002b494 f   oleaut32:OLEAUT32.dll
 0001:0002a49a       _VariantClear@4            1002b49a f   oleaut32:OLEAUT32.dll
 0001:0002a4a0       _VariantCopyInd@8          1002b4a0 f   oleaut32:OLEAUT32.dll
 0001:0002a4a6       _VariantChangeType@16      1002b4a6 f   oleaut32:OLEAUT32.dll
 0001:0002a4ac       _SysStringByteLen@4        1002b4ac f   oleaut32:OLEAUT32.dll
 0001:0002a4b2       _SysAllocStringByteLen@8   1002b4b2 f   oleaut32:OLEAUT32.dll
 0001:0002a4b8       _VariantInit@4             1002b4b8 f   oleaut32:OLEAUT32.dll
 0001:0002a4be       _VarUI4FromStr@16          1002b4be f   oleaut32:OLEAUT32.dll
 0001:0002a4c4       _LoadTypeLib@8             1002b4c4 f   oleaut32:OLEAUT32.dll
 0001:0002a4ca       _LoadRegTypeLib@20         1002b4ca f   oleaut32:OLEAUT32.dll
 0001:0002a4d0       _RegisterTypeLib@12        1002b4d0 f   oleaut32:OLEAUT32.dll
 0001:0002a4d6       _UnRegisterTypeLib@20      1002b4d6 f   oleaut32:OLEAUT32.dll
 0001:0002a4dc       _OleCreatePropertyFrame@44 1002b4dc f   oleaut32:OLEAUT32.dll
 0001:0002a4f0       @_RTC_AllocaHelper@12      1002b4f0 f   LIBCMTD:stack.obj
 0001:0002a530       @_RTC_CheckStackVars2@12   1002b530 f   LIBCMTD:stack.obj
 0001:0002a610       @_RTC_CheckStackVars@8     1002b610 f   LIBCMTD:stack.obj
 0001:0002a670       __RTC_CheckEsp             1002b670 f   LIBCMTD:stack.obj
 0001:0002a6a0       @__security_check_cookie@4 1002b6a0 f   LIBCMTD:secchk.obj
 0001:0002a6b0       __CRT_RTC_INIT             1002b6b0 f   LIBCMTD:init.obj
 0001:0002a6c0       __CRT_RTC_INITW            1002b6c0 f   LIBCMTD:init.obj
 0001:0002a6d0       __RTC_InitBase             1002b6d0 f   LIBCMTD:init.obj
 0001:0002a700       __RTC_Shutdown             1002b700 f   LIBCMTD:init.obj
 0001:0002a720       ??_U@YAPAXI@Z              1002b720 f   LIBCMTD:new_array.obj
 0001:0002a740       ??3@YAXPAXI@Z              1002b740 f   LIBCMTD:delete_scalar_size.obj
 0001:0002a760       ??_V@YAXPAX@Z              1002b760 f   LIBCMTD:delete_array.obj
 0001:0002a780       ??_V@YAXPAXI@Z             1002b780 f   LIBCMTD:delete_array_size.obj
 0001:0002a7a0       ?configure_argv@__scrt_narrow_argv_policy@@SAHXZ 1002b7a0 f i LIBCMTD:utility.obj
 0001:0002a850       ?initialize_environment@__scrt_narrow_environment_policy@@SAHXZ 1002b850 f i LIBCMTD:utility.obj
 0001:0002a8d0       _NtCurrentTeb              1002b8d0 f i LIBCMTD:utility.obj
 0001:0002a8e0       ___scrt_acquire_startup_lock 1002b8e0 f   LIBCMTD:utility.obj
 0001:0002a930       ___scrt_dllmain_after_initialize_c 1002b930 f   LIBCMTD:utility.obj
 0001:0002a960       ___scrt_dllmain_before_initialize_c 1002b960 f   LIBCMTD:utility.obj
 0001:0002a980       ___scrt_dllmain_crt_thread_attach 1002b980 f   LIBCMTD:utility.obj
 0001:0002a9b0       ___scrt_dllmain_crt_thread_detach 1002b9b0 f   LIBCMTD:utility.obj
 0001:0002a9d0       ___scrt_dllmain_exception_filter 1002b9d0 f   LIBCMTD:utility.obj
 0001:0002aa20       ___scrt_dllmain_uninitialize_c 1002ba20 f   LIBCMTD:utility.obj
 0001:0002aa50       ___scrt_dllmain_uninitialize_critical 1002ba50 f   LIBCMTD:utility.obj
 0001:0002aa70       ___scrt_initialize_crt     1002ba70 f   LIBCMTD:utility.obj
 0001:0002aac0       ___scrt_initialize_onexit_tables 1002bac0 f   LIBCMTD:utility.obj
 0001:0002aba0       ___scrt_is_nonwritable_in_current_image 1002bba0 f   LIBCMTD:utility.obj
 0001:0002acd0       ___scrt_release_startup_lock 1002bcd0 f   LIBCMTD:utility.obj
 0001:0002ad00       ___scrt_uninitialize_crt   1002bd00 f   LIBCMTD:utility.obj
 0001:0002ad40       __onexit                   1002bd40 f   LIBCMTD:utility.obj
 0001:0002adb0       _at_quick_exit             1002bdb0 f   LIBCMTD:utility.obj
 0001:0002adf0       _atexit                    1002bdf0 f   LIBCMTD:utility.obj
 0001:0002ae20       ??3@YAXPAX@Z               1002be20 f   LIBCMTD:delete_scalar.obj
 0001:0002ae40       ___raise_securityfailure   1002be40 f   LIBCMTD:gs_report.obj
 0001:0002ae70       ___report_gsfailure        1002be70 f   LIBCMTD:gs_report.obj
 0001:0002af80       ___report_rangecheckfailure 1002bf80 f   LIBCMTD:gs_report.obj
 0001:0002af90       ___report_securityfailure  1002bf90 f   LIBCMTD:gs_report.obj
 0001:0002b070       ___report_securityfailureEx 1002c070 f   LIBCMTD:gs_report.obj
 0001:0002b2c0       __Init_thread_abort        1002c2c0 f   LIBCMTD:thread_safe_statics.obj
 0001:0002b2e0       __Init_thread_footer       1002c2e0 f   LIBCMTD:thread_safe_statics.obj
 0001:0002b330       __Init_thread_header       1002c330 f   LIBCMTD:thread_safe_statics.obj
 0001:0002b3a0       __Init_thread_lock         1002c3a0 f   LIBCMTD:thread_safe_statics.obj
 0001:0002b3b0       __Init_thread_notify       1002c3b0 f   LIBCMTD:thread_safe_statics.obj
 0001:0002b400       __Init_thread_unlock       1002c400 f   LIBCMTD:thread_safe_statics.obj
 0001:0002b410       __Init_thread_wait         1002c410 f   LIBCMTD:thread_safe_statics.obj
 0001:0002b4a0       ??2@YAPAXIABUnothrow_t@std@@@Z 1002c4a0 f   LIBCMTD:new_scalar_nothrow.obj
 0001:0002b530       ??_U@YAPAXIABUnothrow_t@std@@@Z 1002c530 f   LIBCMTD:new_array_nothrow.obj
 0001:0002b550       __allmul                   1002c550 f   LIBCMTD:llmul.obj
 0001:0002b590       __alloca_probe_16          1002c590 f   LIBCMTD:alloca16.obj
 0001:0002b5a6       __alloca_probe_8           1002c5a6     LIBCMTD:alloca16.obj
 0001:0002b5c0       __alloca_probe             1002c5c0 f   LIBCMTD:chkstk.obj
 0001:0002b5c0       __chkstk                   1002c5c0 f   LIBCMTD:chkstk.obj
 0001:0002bac0       __CRT_INIT@12              1002cac0 f   LIBCMTD:dll_dllmain.obj
 0001:0002bae0       __DllMainCRTStartup@12     1002cae0 f   LIBCMTD:dll_dllmain.obj
 0001:0002bba0       ?_RTC_AllocaFailure@@YAXPAXPAU_RTC_ALLOCA_NODE@@H@Z 1002cba0 f   LIBCMTD:error.obj
 0001:0002bc90       ?_RTC_Failure@@YAXPAXH@Z   1002cc90 f   LIBCMTD:error.obj
 0001:0002bce0       ?_RTC_StackFailure@@YAXPAXPBD@Z 1002cce0 f   LIBCMTD:error.obj
 0001:0002c0a0       __RTC_UninitUse            1002d0a0 f   LIBCMTD:error.obj
 0001:0002c150       __vsprintf_s_l             1002d150 f i LIBCMTD:error.obj
 0001:0002c180       _sprintf_s                 1002d180 f i LIBCMTD:error.obj
 0001:0002c1a0       ?_RTC_GetErrorFunc@@YAP6AHHPBDH00ZZPBX@Z 1002d1a0 f   LIBCMTD:userapi.obj
 0001:0002c1b0       ?_RTC_GetErrorFuncW@@YAP6AHHPB_WH00ZZPBX@Z 1002d1b0 f   LIBCMTD:userapi.obj
 0001:0002c1c0       __RTC_GetErrDesc           1002d1c0 f   LIBCMTD:userapi.obj
 0001:0002c1e0       __RTC_NumErrors            1002d1e0 f   LIBCMTD:userapi.obj
 0001:0002c1f0       __RTC_SetErrorFunc         1002d1f0 f   LIBCMTD:userapi.obj
 0001:0002c210       __RTC_SetErrorFuncW        1002d210 f   LIBCMTD:userapi.obj
 0001:0002c230       __RTC_SetErrorType         1002d230 f   LIBCMTD:userapi.obj
 0001:0002c260       ??2@YAPAXI@Z               1002d260 f   LIBCMTD:new_scalar.obj
 0001:0002c2b0       ___isa_available_init      1002d2b0 f   LIBCMTD:cpu_disp.obj
 0001:0002c5f0       __get_startup_argv_mode    1002d5f0 f   LIBCMTD:argv_mode.obj
 0001:0002c600       ___scrt_is_ucrt_dll_in_use 1002d600 f   LIBCMTD:ucrt_detection.obj
 0001:0002c630       ___scrt_fastfail           1002d630 f   LIBCMTD:utility_desktop.obj
 0001:0002c770       ___scrt_get_show_window_mode 1002d770 f   LIBCMTD:utility_desktop.obj
 0001:0002c7b0       ___scrt_initialize_mta     1002d7b0 f   LIBCMTD:utility_desktop.obj
 0001:0002c7c0       ___scrt_initialize_winrt   1002d7c0 f   LIBCMTD:utility_desktop.obj
 0001:0002c7d0       ___scrt_is_managed_app     1002d7d0 f   LIBCMTD:utility_desktop.obj
 0001:0002c860       ___scrt_set_unhandled_exception_filter 1002d860 f   LIBCMTD:utility_desktop.obj
 0001:0002c870       ___scrt_exe_initialize_mta 1002d870 f   LIBCMTD:utility_desktop.obj
 0001:0002c870       ___scrt_stub_for_initialize_mta 1002d870 f   LIBCMTD:utility_desktop.obj
 0001:0002c880       ___scrt_unhandled_exception_filter@4 1002d880 f   LIBCMTD:utility_desktop.obj
 0001:0002c900       __crt_debugger_hook        1002d900 f   LIBCMTD:utility_desktop.obj
 0001:0002c910       @_guard_check_icall_nop@4  1002d910 f i LIBCMTD:guard_support.obj
 0001:0002c920       _ReadNoFence               1002d920 f i LIBCMTD:guard_support.obj
 0001:0002c940       _ReadPointerNoFence        1002d940 f i LIBCMTD:guard_support.obj
 0001:0002c960       ___castguard_check_failure_debugbreak 1002d960 f i LIBCMTD:guard_support.obj
 0001:0002c980       ___castguard_check_failure_fastfail 1002d980 f i LIBCMTD:guard_support.obj
 0001:0002c9a0       ___castguard_check_failure_nop 1002d9a0 f i LIBCMTD:guard_support.obj
 0001:0002c9b0       ___castguard_check_failure_os_handled 1002d9b0 f i LIBCMTD:guard_support.obj
 0001:0002ca40       ___castguard_slow_path_check_debugbreak 1002da40 f i LIBCMTD:guard_support.obj
 0001:0002ca70       ___castguard_slow_path_check_fastfail 1002da70 f i LIBCMTD:guard_support.obj
 0001:0002cab0       ___castguard_slow_path_check_nop 1002dab0 f i LIBCMTD:guard_support.obj
 0001:0002cac0       ___castguard_slow_path_check_os_handled 1002dac0 f i LIBCMTD:guard_support.obj
 0001:0002cb40       __guard_icall_checks_enforced 1002db40 f i LIBCMTD:guard_support.obj
 0001:0002cbe0       ___security_init_cookie    1002dbe0 f   LIBCMTD:gs_support.obj
 0001:0002cc60       ?__scrt_initialize_type_info@@YAXXZ 1002dc60 f   LIBCMTD:tncleanup.obj
 0001:0002cc70       ?__scrt_uninitialize_type_info@@YAXXZ 1002dc70 f   LIBCMTD:tncleanup.obj
 0001:0002cc90       ___local_stdio_scanf_options 1002dc90 f i LIBCMTD:default_local_stdio_options.obj
 0001:0002cca0       ___scrt_initialize_default_local_stdio_options 1002dca0 f   LIBCMTD:default_local_stdio_options.obj
 0001:0002cce0       ___scrt_get_dyn_tls_init_callback 1002dce0 f   LIBCMTD:dyn_tls_init.obj
 0001:0002ccf0       __RTC_Initialize           1002dcf0 f   LIBCMTD:initsect.obj
 0001:0002cd20       __RTC_Terminate            1002dd20 f   LIBCMTD:initsect.obj
 0001:0002d1d0       ?_RTC_GetSrcLine@@YAHPAEPA_WKPAH1K@Z 1002e1d0 f   LIBCMTD:pdblkup.obj
 0001:0002d550       __except_handler4_noexcept 1002e550 f   LIBCMTD:chandler4_noexcept.obj
 0001:0002d5b0       ??0bad_alloc@std@@AAE@QBD@Z 1002e5b0 f i LIBCMTD:throw_bad_alloc.obj
 0001:0002d5e0       ??0bad_alloc@std@@QAE@ABV01@@Z 1002e5e0 f i LIBCMTD:throw_bad_alloc.obj
 0001:0002d610       ??0bad_alloc@std@@QAE@XZ   1002e610 f i LIBCMTD:throw_bad_alloc.obj
 0001:0002d640       ??0bad_array_new_length@std@@QAE@ABV01@@Z 1002e640 f i LIBCMTD:throw_bad_alloc.obj
 0001:0002d670       ??0bad_array_new_length@std@@QAE@XZ 1002e670 f i LIBCMTD:throw_bad_alloc.obj
 0001:0002d6a0       ??0exception@std@@QAE@ABV01@@Z 1002e6a0 f i LIBCMTD:throw_bad_alloc.obj
 0001:0002d6e0       ??0exception@std@@QAE@QBDH@Z 1002e6e0 f i LIBCMTD:throw_bad_alloc.obj
 0001:0002d710       ??1bad_alloc@std@@UAE@XZ   1002e710 f i LIBCMTD:throw_bad_alloc.obj
 0001:0002d730       ??1bad_array_new_length@std@@UAE@XZ 1002e730 f i LIBCMTD:throw_bad_alloc.obj
 0001:0002d750       ??1exception@std@@UAE@XZ   1002e750 f i LIBCMTD:throw_bad_alloc.obj
 0001:0002d780       ??_Gbad_alloc@std@@UAEPAXI@Z 1002e780 f i LIBCMTD:throw_bad_alloc.obj
 0001:0002d780       ??_Ebad_alloc@std@@UAEPAXI@Z 1002e780 f i LIBCMTD:throw_bad_alloc.obj
 0001:0002d7b0       ??_Gbad_array_new_length@std@@UAEPAXI@Z 1002e7b0 f i LIBCMTD:throw_bad_alloc.obj
 0001:0002d7b0       ??_Ebad_array_new_length@std@@UAEPAXI@Z 1002e7b0 f i LIBCMTD:throw_bad_alloc.obj
 0001:0002d7e0       ??_Gexception@std@@UAEPAXI@Z 1002e7e0 f i LIBCMTD:throw_bad_alloc.obj
 0001:0002d7e0       ??_Eexception@std@@UAEPAXI@Z 1002e7e0 f i LIBCMTD:throw_bad_alloc.obj
 0001:0002d810       ?__scrt_throw_std_bad_alloc@@YAXXZ 1002e810 f   LIBCMTD:throw_bad_alloc.obj
 0001:0002d830       ?__scrt_throw_std_bad_array_new_length@@YAXXZ 1002e830 f   LIBCMTD:throw_bad_alloc.obj
 0001:0002d850       ?what@exception@std@@UBEPBDXZ 1002e850 f i LIBCMTD:throw_bad_alloc.obj
 0001:0002d880       ??1type_info@@UAE@XZ       1002e880 f   LIBCMTD:std_type_info_static.obj
 0001:0002d8a0       ??_Gtype_info@@UAEPAXI@Z   1002e8a0 f i LIBCMTD:std_type_info_static.obj
 0001:0002d8a0       ??_Etype_info@@UAEPAXI@Z   1002e8a0 f i LIBCMTD:std_type_info_static.obj
 0001:0002d8ce       ??$?2PAUHINSTANCE__@@@Wrapper@?$CSimpleArray@PAUHINSTANCE__@@V?$CSimpleArrayEqualHelper@PAUHINSTANCE__@@@ATL@@@ATL@@SAPAXIPAPAUHINSTANCE__@@@Z 1002e8ce f i atls:atlbase.obj
 0001:0002d8d6       ??0?$CSimpleArray@PAUHINSTANCE__@@V?$CSimpleArrayEqualHelper@PAUHINSTANCE__@@@ATL@@@ATL@@QAE@XZ 1002e8d6 f i atls:atlbase.obj
 0001:0002d8e3       ??0CAtlBaseModule@ATL@@QAE@XZ 1002e8e3 f   atls:atlbase.obj
 0001:0002d936       ??0Wrapper@?$CSimpleArray@PAUHINSTANCE__@@V?$CSimpleArrayEqualHelper@PAUHINSTANCE__@@@ATL@@@ATL@@QAE@ABQAUHINSTANCE__@@@Z 1002e936 f i atls:atlbase.obj
 0001:0002d946       ??0_ATL_BASE_MODULE70@ATL@@QAE@XZ 1002e946 f i atls:atlbase.obj
 0001:0002d969       ??1?$CSimpleArray@PAUHINSTANCE__@@V?$CSimpleArrayEqualHelper@PAUHINSTANCE__@@@ATL@@@ATL@@QAE@XZ 1002e969 f i atls:atlbase.obj
 0001:0002d96e       ??1CAtlBaseModule@ATL@@QAE@XZ 1002e96e f   atls:atlbase.obj
 0001:0002d984       ??1_ATL_BASE_MODULE70@ATL@@QAE@XZ 1002e984 f i atls:atlbase.obj
 0001:0002d98c       ??A?$CSimpleArray@PAUHINSTANCE__@@V?$CSimpleArrayEqualHelper@PAUHINSTANCE__@@@ATL@@@ATL@@QAEAAPAUHINSTANCE__@@H@Z 1002e98c f i atls:atlbase.obj
 0001:0002d9b1       ?Add@?$CSimpleArray@PAUHINSTANCE__@@V?$CSimpleArrayEqualHelper@PAUHINSTANCE__@@@ATL@@@ATL@@QAEHABQAUHINSTANCE__@@@Z 1002e9b1 f i atls:atlbase.obj
 0001:0002da29       ?AddResourceInstance@CAtlBaseModule@ATL@@QAE_NPAUHINSTANCE__@@@Z 1002ea29 f   atls:atlbase.obj
 0001:0002da5c       ?GetHInstanceAt@CAtlBaseModule@ATL@@QAEPAUHINSTANCE__@@H@Z 1002ea5c f   atls:atlbase.obj
 0001:0002daa1       ?GetSize@?$CSimpleArray@PAUHINSTANCE__@@V?$CSimpleArrayEqualHelper@PAUHINSTANCE__@@@ATL@@@ATL@@QBEHXZ 1002eaa1 f i atls:atlbase.obj
 0001:0002daa5       ?InternalSetAtIndex@?$CSimpleArray@PAUHINSTANCE__@@V?$CSimpleArrayEqualHelper@PAUHINSTANCE__@@@ATL@@@ATL@@QAEXHABQAUHINSTANCE__@@@Z 1002eaa5 f i atls:atlbase.obj
 0001:0002dabf       ?RemoveAll@?$CSimpleArray@PAUHINSTANCE__@@V?$CSimpleArrayEqualHelper@PAUHINSTANCE__@@@ATL@@@ATL@@QAEXXZ 1002eabf f i atls:atlbase.obj
 0001:0002dadc       ?RemoveAt@?$CSimpleArray@PAUHINSTANCE__@@V?$CSimpleArrayEqualHelper@PAUHINSTANCE__@@@ATL@@@ATL@@QAEHH@Z 1002eadc f i atls:atlbase.obj
 0001:0002db24       ?RemoveResourceInstance@CAtlBaseModule@ATL@@QAE_NPAUHINSTANCE__@@@Z 1002eb24 f   atls:atlbase.obj
 0001:0002db81       ?memmove_s@Checked@ATL@@YAXPAXIPBXI@Z 1002eb81 f i atls:atlbase.obj
 0001:0002dede       ?GetCodeAddress@_stdcallthunk@ATL@@QAEPAXXZ 1002eede f i atls:atlthunk.obj
 0001:0002df08       ?Init@_stdcallthunk@ATL@@QAEHKPAX@Z 1002ef08 f i atls:atlthunk.obj
 0001:0002df3d       ?__AllocStdCallThunk@@YGPAXXZ 1002ef3d f   atls:atlthunk.obj
 0001:0002df42       ?__AllocStdCallThunk@ATL@@YGPAXXZ 1002ef42 f   atls:atlthunk.obj
 0001:0002df47       ?__AllocStdCallThunk_cmn@@YAPAXXZ 1002ef47 f   atls:atlthunk.obj
 0001:0002e00d       ?__FreeStdCallThunk@@YGXPAX@Z 1002f00d f   atls:atlthunk.obj
 0001:0002e01d       ?__FreeStdCallThunk@ATL@@YGXPAX@Z 1002f01d f   atls:atlthunk.obj
 0001:0002e02d       ?__FreeStdCallThunk_cmn@@YAXPAX@Z 1002f02d f   atls:atlthunk.obj
 0001:0002e0c9       _AtlThunk_AllocateData@0   1002f0c9 f   atls:atlthunk.obj
 0001:0002e12e       _AtlThunk_DataToCode@4     1002f12e f   atls:atlthunk.obj
 0001:0002e175       _AtlThunk_FreeData@4       1002f175 f   atls:atlthunk.obj
 0001:0002e1cb       _AtlThunk_InitData@12      1002f1cb f   atls:atlthunk.obj
 0001:0002e21a       _MemoryBarrier             1002f21a f i atls:atlthunk.obj
 0001:0002e228       __InlineInterlockedCompareExchangePointer 1002f228 f i atls:atlthunk.obj
 0001:0002e240       _memset                    1002f240 f   libvcruntimed:memset.obj
 0001:0002e3a0       ??$__crt_interlocked_exchange_pointer@$$A6AXXZP6AXXZ@@YAP6AXXZPDS6AXXZQ6AXXZ@Z 1002f3a0 f i libvcruntimed:purevirt.obj
 0001:0002e3b0       ??$__crt_interlocked_read_pointer@$$A6AXXZ@@YAP6AXXZPDS6AXXZ@Z 1002f3b0 f i libvcruntimed:purevirt.obj
 0001:0002e3d0       ?__crt_interlocked_read_32@@YAHPDH@Z 1002f3d0 f i libvcruntimed:purevirt.obj
 0001:0002e3f0       __get_purecall_handler     1002f3f0 f   libvcruntimed:purevirt.obj
 0001:0002e410       __purecall                 1002f410 f   libvcruntimed:purevirt.obj
 0001:0002e440       __set_purecall_handler     1002f440 f   libvcruntimed:purevirt.obj
 0001:0002e610       _memcmp                    1002f610 f   libvcruntimed:memcmp.obj
 0001:0002eee0       _memcpy                    1002fee0 f   libvcruntimed:memcpy.obj
 0001:0002f460       _wcsstr                    10030460 f   libvcruntimed:wcsstr.obj
 0001:0002f990       __except_handler4          10030990 f   libvcruntimed:chandler4.obj
 0001:0002fb80       ___vcrt_initialize         10030b80 f   libvcruntimed:initialization.obj
 0001:0002fbc0       ___vcrt_thread_attach      10030bc0 f   libvcruntimed:initialization.obj
 0001:0002fbe0       ___vcrt_thread_detach      10030be0 f   libvcruntimed:initialization.obj
 0001:0002fc00       ___vcrt_uninitialize       10030c00 f   libvcruntimed:initialization.obj
 0001:0002fc20       ___vcrt_uninitialize_critical 10030c20 f   libvcruntimed:initialization.obj
 0001:0002fc40       ??$?0AAViterator@TryBlockMap@__FrameHandler3@@AAV012@$0A@@?$pair@Viterator@TryBlockMap@__FrameHandler3@@V123@@std@@QAE@AAViterator@TryBlockMap@__FrameHandler3@@0@Z 10030c40 f i libvcruntimed:trnsctrl.obj
 0001:0002fc90       ??$forward@AAViterator@TryBlockMap@__FrameHandler3@@@std@@YAAAViterator@TryBlockMap@__FrameHandler3@@AAV123@@Z 10030c90 f i libvcruntimed:trnsctrl.obj
 0001:0002fca0       ??0iterator@TryBlockMap@__FrameHandler3@@QAE@AAV12@I@Z 10030ca0 f i libvcruntimed:trnsctrl.obj
 0001:0002fcd0       ?GetRangeOfTrysToCheck@__FrameHandler3@@SA?AU?$pair@Viterator@TryBlockMap@__FrameHandler3@@V123@@std@@AAVTryBlockMap@1@HPAXPBU_s_FuncInfo@@H@Z 10030cd0 f   libvcruntimed:trnsctrl.obj
 0001:0002fdb0       ?_CallCatchBlock2@@YAPAXPAUEHRegistrationNode@@PBU_s_FuncInfo@@PAXHK@Z 10030db0 f   libvcruntimed:trnsctrl.obj
 0001:0002fe20       ?_CallSETranslator@@YAHPAUEHExceptionRecord@@PAUEHRegistrationNode@@PAX2PBU_s_FuncInfo@@H1@Z 10030e20 f   libvcruntimed:trnsctrl.obj
 0001:0002ff30       ?_JumpToContinuation@@YGXPAXPAUEHRegistrationNode@@@Z 10030f30 f   libvcruntimed:trnsctrl.obj
 0001:0002ff70       ?_UnwindNestedFrames@@YGXPAUEHRegistrationNode@@PAUEHExceptionRecord@@@Z 10030f70 f   libvcruntimed:trnsctrl.obj
 0001:0002ffd0       __CatchGuardHandler        10030fd0 f   libvcruntimed:trnsctrl.obj
 0001:00030020       __CreateFrameInfo          10031020 f   libvcruntimed:trnsctrl.obj
 0001:00030050       __FindAndUnlinkFrame       10031050 f   libvcruntimed:trnsctrl.obj
 0001:000300c0       __TranslatorGuardHandler   100310c0 f   libvcruntimed:trnsctrl.obj
 0001:00030170       ___CxxFrameHandler         10031170 f   libvcruntimed:trnsctrl.obj
 0001:000301b0       ___CxxFrameHandler2        100311b0 f   libvcruntimed:trnsctrl.obj
 0001:000301f0       ___CxxFrameHandler3        100311f0 f   libvcruntimed:trnsctrl.obj
 0001:00030230       ___CxxLongjmpUnwind@4      10031230 f   libvcruntimed:trnsctrl.obj
 0001:00030270       ___DestructExceptionObject 10031270 f   libvcruntimed:ehhelpers.obj
 0001:00030390       ?_CallMemberFunction0@@YGXQAX0@Z 10031390 f i libvcruntimed:ehhelpers.obj
 0001:00030430       ?raw_name@type_info@@QBEPBDXZ 10031430 f i libvcruntimed:ehhelpers.obj
 0001:00030450       __IsExceptionObjectToBeDestroyed 10031450 f   libvcruntimed:ehhelpers.obj
 0001:00030490       __SetWinRTOutOfMemoryExceptionCallback 10031490 f   libvcruntimed:ehhelpers.obj
 0001:000304a0       ___AdjustPointer           100314a0 f   libvcruntimed:ehhelpers.obj
 0001:000304f0       ___FrameUnwindFilter       100314f0 f   libvcruntimed:ehhelpers.obj
 0001:00030580       ___GetPlatformExceptionInfo 10031580 f   libvcruntimed:ehhelpers.obj
 0001:00030600       ___current_exception       10031600 f   libvcruntimed:ehhelpers.obj
 0001:00030610       ___current_exception_context 10031610 f   libvcruntimed:ehhelpers.obj
 0001:00030620       ___processing_throw        10031620 f   libvcruntimed:ehhelpers.obj
 0001:00030630       ___std_terminate           10031630 f   libvcruntimed:ehhelpers.obj
 0001:00030640       __is_exception_typeof      10031640 f   libvcruntimed:ehhelpers.obj
 0001:00030740       ??$?RD@__crt_internal_free_policy@@QBEXQBD@Z 10031740 f i libvcruntimed:std_type_info.obj
 0001:00030760       ??$?RX@__crt_internal_free_policy@@QBEXQBX@Z 10031760 f i libvcruntimed:std_type_info.obj
 0001:00030780       ??$__crt_interlocked_compare_exchange_pointer@$$CBDPAD$$T@@YAPBDPDSBDQAD$$T@Z 10031780 f i libvcruntimed:std_type_info.obj
 0001:000307a0       ??$__crt_interlocked_read_pointer@$$CBD@@YAPBDPDSBD@Z 100317a0 f i libvcruntimed:std_type_info.obj
 0001:000307c0       ??0?$__crt_unique_heap_ptr@DU__crt_internal_free_policy@@@@QAE@QAD@Z 100317c0 f i libvcruntimed:std_type_info.obj
 0001:000307e0       ??0?$__crt_unique_heap_ptr@XU__crt_internal_free_policy@@@@QAE@QAX@Z 100317e0 f i libvcruntimed:std_type_info.obj
 0001:00030800       ??1?$__crt_unique_heap_ptr@DU__crt_internal_free_policy@@@@QAE@XZ 10031800 f i libvcruntimed:std_type_info.obj
 0001:00030820       ??1?$__crt_unique_heap_ptr@XU__crt_internal_free_policy@@@@QAE@XZ 10031820 f i libvcruntimed:std_type_info.obj
 0001:00030840       ??B?$__crt_unique_heap_ptr@DU__crt_internal_free_policy@@@@QBE_NXZ 10031840 f i libvcruntimed:std_type_info.obj
 0001:00030860       ??B?$__crt_unique_heap_ptr@XU__crt_internal_free_policy@@@@QBE_NXZ 10031860 f i libvcruntimed:std_type_info.obj
 0001:000308f0       ?detach@?$__crt_unique_heap_ptr@XU__crt_internal_free_policy@@@@QAEPAXXZ 100318f0 f i libvcruntimed:std_type_info.obj
 0001:00030920       ?get@?$__crt_unique_heap_ptr@DU__crt_internal_free_policy@@@@QBEPADXZ 10031920 f i libvcruntimed:std_type_info.obj
 0001:00030930       ?get@?$__crt_unique_heap_ptr@XU__crt_internal_free_policy@@@@QBEPAXXZ 10031930 f i libvcruntimed:std_type_info.obj
 0001:00030940       ?is_valid@?$__crt_unique_heap_ptr@DU__crt_internal_free_policy@@@@QBE_NXZ 10031940 f i libvcruntimed:std_type_info.obj
 0001:00030970       ?is_valid@?$__crt_unique_heap_ptr@XU__crt_internal_free_policy@@@@QBE_NXZ 10031970 f i libvcruntimed:std_type_info.obj
 0001:000309a0       ?release@?$__crt_unique_heap_ptr@DU__crt_internal_free_policy@@@@QAEXXZ 100319a0 f i libvcruntimed:std_type_info.obj
 0001:000309d0       ?release@?$__crt_unique_heap_ptr@XU__crt_internal_free_policy@@@@QAEXXZ 100319d0 f i libvcruntimed:std_type_info.obj
 0001:00030a00       ___std_type_info_compare   10031a00 f   libvcruntimed:std_type_info.obj
 0001:00030a30       ___std_type_info_destroy_list 10031a30 f   libvcruntimed:std_type_info.obj
 0001:00030a70       ___std_type_info_hash      10031a70 f   libvcruntimed:std_type_info.obj
 0001:00030ad0       ___std_type_info_name      10031ad0 f   libvcruntimed:std_type_info.obj
 0001:00030cb0       ___vcrt_GetModuleFileNameW 10031cb0 f   libvcruntimed:winapi_thunks.obj
 0001:00030cd0       ___vcrt_GetModuleHandleW   10031cd0 f   libvcruntimed:winapi_thunks.obj
 0001:00030ce0       ___vcrt_LoadLibraryExW     10031ce0 f   libvcruntimed:winapi_thunks.obj
 0001:00030d00       ??$?RD@__crt_public_free_policy@@QBEXQBD@Z 10031d00 f i libvcruntimed:std_exception.obj
 0001:00030d20       ??0?$__crt_unique_heap_ptr@DU__crt_public_free_policy@@@@QAE@QAD@Z 10031d20 f i libvcruntimed:std_exception.obj
 0001:00030d40       ??1?$__crt_unique_heap_ptr@DU__crt_public_free_policy@@@@QAE@XZ 10031d40 f i libvcruntimed:std_exception.obj
 0001:00030d60       ??B?$__crt_unique_heap_ptr@DU__crt_public_free_policy@@@@QBE_NXZ 10031d60 f i libvcruntimed:std_exception.obj
 0001:00030d80       ?detach@?$__crt_unique_heap_ptr@DU__crt_public_free_policy@@@@QAEPADXZ 10031d80 f i libvcruntimed:std_exception.obj
 0001:00030db0       ?get@?$__crt_unique_heap_ptr@DU__crt_public_free_policy@@@@QBEPADXZ 10031db0 f i libvcruntimed:std_exception.obj
 0001:00030dc0       ?is_valid@?$__crt_unique_heap_ptr@DU__crt_public_free_policy@@@@QBE_NXZ 10031dc0 f i libvcruntimed:std_exception.obj
 0001:00030df0       ?release@?$__crt_unique_heap_ptr@DU__crt_public_free_policy@@@@QAEXXZ 10031df0 f i libvcruntimed:std_exception.obj
 0001:00030e20       ___std_exception_copy      10031e20 f   libvcruntimed:std_exception.obj
 0001:00030f10       ___std_exception_destroy   10031f10 f   libvcruntimed:std_exception.obj
 0001:00030f40       __CxxThrowException@8      10031f40 f   libvcruntimed:throw.obj
 0001:00030ff0       _memmove                   10031ff0 f   libvcruntimed:memmove.obj
 0001:00031570       __local_unwind4            10032570 f   libvcruntimed:exsup4.obj
 0001:00031660       __seh_longjmp_unwind4@4    10032660 f   libvcruntimed:exsup4.obj
 0001:00031690       @_EH4_CallFilterFunc@8     10032690 f   libvcruntimed:exsup4.obj
 0001:000316b0       @_EH4_TransferToHandler@8  100326b0 f   libvcruntimed:exsup4.obj
 0001:000316d0       @_EH4_GlobalUnwind2@8      100326d0 f   libvcruntimed:exsup4.obj
 0001:000316f0       @_EH4_LocalUnwind@16       100326f0 f   libvcruntimed:exsup4.obj
 0001:00031720       ___except_validate_context_record 10032720 f   libvcruntimed:jbcxrval.obj
 0001:00031770       ___except_validate_jump_buffer 10032770 f   libvcruntimed:jbcxrval.obj
 0001:00031790       ___except_validate_jump_buffer_common 10032790 f i libvcruntimed:jbcxrval.obj
 0001:000317f0       ??$?RU__vcrt_ptd@@@__crt_internal_free_policy@@QBEXQBU__vcrt_ptd@@@Z 100327f0 f i libvcruntimed:per_thread_data.obj
 0001:00031810       ??0?$__crt_unique_heap_ptr@U__vcrt_ptd@@U__crt_internal_free_policy@@@@QAE@QAU__vcrt_ptd@@@Z 10032810 f i libvcruntimed:per_thread_data.obj
 0001:00031850       ??1?$__crt_unique_heap_ptr@U__vcrt_ptd@@U__crt_internal_free_policy@@@@QAE@XZ 10032850 f i libvcruntimed:per_thread_data.obj
 0001:00031890       ??B?$__crt_unique_heap_ptr@U__vcrt_ptd@@U__crt_internal_free_policy@@@@QBE_NXZ 10032890 f i libvcruntimed:per_thread_data.obj
 0001:000318b0       ?detach@?$__crt_unique_heap_ptr@U__vcrt_ptd@@U__crt_internal_free_policy@@@@QAEPAU__vcrt_ptd@@XZ 100328b0 f i libvcruntimed:per_thread_data.obj
 0001:000318e0       ?get@?$__crt_unique_heap_ptr@U__vcrt_ptd@@U__crt_internal_free_policy@@@@QBEPAU__vcrt_ptd@@XZ 100328e0 f i libvcruntimed:per_thread_data.obj
 0001:000318f0       ?is_valid@?$__crt_unique_heap_ptr@U__vcrt_ptd@@U__crt_internal_free_policy@@@@QBE_NXZ 100328f0 f i libvcruntimed:per_thread_data.obj
 0001:00031920       ?release@?$__crt_unique_heap_ptr@U__vcrt_ptd@@U__crt_internal_free_policy@@@@QAEXXZ 10032920 f i libvcruntimed:per_thread_data.obj
 0001:00031980       ___vcrt_freefls@4          10032980 f   libvcruntimed:per_thread_data.obj
 0001:000319b0       ___vcrt_freeptd            100329b0 f   libvcruntimed:per_thread_data.obj
 0001:00031a10       ___vcrt_getptd             10032a10 f   libvcruntimed:per_thread_data.obj
 0001:00031a30       ___vcrt_getptd_noexit      10032a30 f   libvcruntimed:per_thread_data.obj
 0001:00031b90       ___vcrt_getptd_noinit      10032b90 f   libvcruntimed:per_thread_data.obj
 0001:00031bf0       ___vcrt_initialize_ptd     10032bf0 f   libvcruntimed:per_thread_data.obj
 0001:00031c40       ___vcrt_uninitialize_ptd   10032c40 f   libvcruntimed:per_thread_data.obj
 0001:00031c70       ___vcrt_initialize_locks   10032c70 f   libvcruntimed:locks.obj
 0001:00031cd0       ___vcrt_lock               10032cd0 f   libvcruntimed:locks.obj
 0001:00031cf0       ___vcrt_uninitialize_locks 10032cf0 f   libvcruntimed:locks.obj
 0001:00031d40       ___vcrt_unlock             10032d40 f   libvcruntimed:locks.obj
 0001:000328b0       ??$TypeMatchHelper@V__FrameHandler3@@@@YAHPBU_s_HandlerType@@PBU_s_CatchableType@@PBU_s_ThrowInfo@@@Z 100338b0 f i libvcruntimed:frame.obj
 0001:00032990       ??$__InternalCxxFrameHandler@V__FrameHandler3@@@@YA?AW4_EXCEPTION_DISPOSITION@@PAUEHExceptionRecord@@PAUEHRegistrationNode@@PAU_CONTEXT@@PAXPBU_s_FuncInfo@@H1E@Z 10033990 f i libvcruntimed:frame.obj
 0001:00032b50       ??0HandlerMap@__FrameHandler3@@QAE@PBU_s_TryBlockMapEntry@@II@Z 10033b50 f i libvcruntimed:frame.obj
 0001:00032b80       ??0TryBlockMap@__FrameHandler3@@QAE@PBU_s_FuncInfo@@I@Z 10033b80 f i libvcruntimed:frame.obj
 0001:00032bb0       ??0bad_exception@std@@QAE@ABV01@@Z 10033bb0 f i libvcruntimed:frame.obj
 0001:00032be0       ??0bad_exception@std@@QAE@XZ 10033be0 f i libvcruntimed:frame.obj
 0001:00032c10       ??0iterator@HandlerMap@__FrameHandler3@@QAE@AAV12@I@Z 10033c10 f i libvcruntimed:frame.obj
 0001:00032c40       ??1bad_exception@std@@UAE@XZ 10033c40 f i libvcruntimed:frame.obj
 0001:00032c60       ??8iterator@HandlerMap@__FrameHandler3@@QBE_NABV012@@Z 10033c60 f i libvcruntimed:frame.obj
 0001:00032c90       ??8type_info@@QBE_NABV0@@Z 10033c90 f i libvcruntimed:frame.obj
 0001:00032cd0       ??9iterator@HandlerMap@__FrameHandler3@@QBE_NABV012@@Z 10033cd0 f i libvcruntimed:frame.obj
 0001:00032d10       ??Diterator@HandlerMap@__FrameHandler3@@QAE?BU_s_HandlerType@@XZ 10033d10 f i libvcruntimed:frame.obj
 0001:00032d50       ??Diterator@TryBlockMap@__FrameHandler3@@QAE?BU_s_TryBlockMapEntry@@XZ 10033d50 f i libvcruntimed:frame.obj
 0001:00032da0       ??Eiterator@HandlerMap@__FrameHandler3@@QAEAAV012@XZ 10033da0 f i libvcruntimed:frame.obj
 0001:00032dc0       ??Eiterator@TryBlockMap@__FrameHandler3@@QAEAAV012@XZ 10033dc0 f i libvcruntimed:frame.obj
 0001:00032de0       ??Miterator@TryBlockMap@__FrameHandler3@@QBE_NABV012@@Z 10033de0 f i libvcruntimed:frame.obj
 0001:00032e10       ??_Gbad_exception@std@@UAEPAXI@Z 10033e10 f i libvcruntimed:frame.obj
 0001:00032e10       ??_Ebad_exception@std@@UAEPAXI@Z 10033e10 f i libvcruntimed:frame.obj
 0001:00032e40       ?BuildCatchObject@__FrameHandler3@@SAXPAUEHExceptionRecord@@PAXPBU_s_HandlerType@@PBU_s_CatchableType@@@Z 10033e40 f   libvcruntimed:frame.obj
 0001:00032e60       ?BuildCatchObjectHelper@__FrameHandler3@@SAHPAUEHExceptionRecord@@PAXPBU_s_HandlerType@@PBU_s_CatchableType@@@Z 10033e60 f   libvcruntimed:frame.obj
 0001:00033200       ?FrameUnwindToEmptyState@__FrameHandler3@@SAXPAUEHRegistrationNode@@PAXPBU_s_FuncInfo@@@Z 10034200 f   libvcruntimed:frame.obj
 0001:00033220       ?FrameUnwindToState@__FrameHandler3@@SAXPAUEHRegistrationNode@@PAXPBU_s_FuncInfo@@H@Z 10034220 f   libvcruntimed:frame.obj
 0001:000333a0       ?GetMaxState@__FrameHandler3@@SAHPAXPBU_s_FuncInfo@@@Z 100343a0 f i libvcruntimed:frame.obj
 0001:000334c0       ?TypeMatch@__FrameHandler3@@SAHPBU_s_HandlerType@@PBU_s_CatchableType@@PBU_s_ThrowInfo@@@Z 100344c0 f   libvcruntimed:frame.obj
 0001:000334e0       ?_CallMemberFunction1@@YGXQAX00@Z 100344e0 f i libvcruntimed:frame.obj
 0001:00033510       ?_CallMemberFunction2@@YGXQAX00H@Z 10034510 f i libvcruntimed:frame.obj
 0001:00033540       ?begin@HandlerMap@__FrameHandler3@@QAE?AViterator@12@XZ 10034540 f i libvcruntimed:frame.obj
 0001:00033560       ?end@HandlerMap@__FrameHandler3@@QAE?AViterator@12@XZ 10034560 f i libvcruntimed:frame.obj
 0001:00033590       ?getESTypes@__FrameHandler3@@SAPBU_s_ESTypeList@@PBU_s_FuncInfo@@@Z 10034590 f i libvcruntimed:frame.obj
 0001:000335a0       ?getLastEntry@HandlerMap@__FrameHandler3@@QAEPBU_s_HandlerType@@XZ 100345a0 f i libvcruntimed:frame.obj
 0001:000335c0       ?getMagicNum@__FrameHandler3@@SAIPBU_s_FuncInfo@@@Z 100345c0 f i libvcruntimed:frame.obj
 0001:000335d0       ?getNumTryBlocks@TryBlockMap@__FrameHandler3@@QAEIXZ 100345d0 f i libvcruntimed:frame.obj
 0001:000335f0       ?isEHs@__FrameHandler3@@SA_NPBU_s_FuncInfo@@@Z 100345f0 f i libvcruntimed:frame.obj
 0001:00033620       ?isNoExcept@__FrameHandler3@@SA_NPBU_s_FuncInfo@@@Z 10034620 f i libvcruntimed:frame.obj
 0001:00033650       ___BuildCatchObject        10034650 f   libvcruntimed:frame.obj
 0001:00033670       ___BuildCatchObjectHelper  10034670 f   libvcruntimed:frame.obj
 0001:00033690       ___TypeMatch               10034690 f   libvcruntimed:frame.obj
 0001:000336b0       ___vcrt_EncodePointer      100346b0 f i libvcruntimed:frame.obj
 0001:000336c0       __CallSettingFrame@12      100346c0 f   libvcruntimed:lowhelpr.obj
 0001:000336e7       __NLG_Return               100346e7     libvcruntimed:lowhelpr.obj
 0001:00033710       ??$?0$00@DName@@QAE@PBDU?$StringLifeSelector@$00@@@Z 10034710 f i libvcruntimed:undname.obj
 0001:00033760       ??$?0$00@pcharNode@@QAE@PBDHU?$StringLifeSelector@$00@@@Z 10034760 f i libvcruntimed:undname.obj
 0001:000337a0       ??$?0$01@DName@@QAE@PBDU?$StringLifeSelector@$01@@@Z 100347a0 f i libvcruntimed:undname.obj
 0001:000337f0       ??$?0$01@pcharNode@@QAE@PBDHU?$StringLifeSelector@$01@@@Z 100347f0 f i libvcruntimed:undname.obj
 0001:00033870       ??$?0$0A@@DName@@QAE@PBDU?$StringLifeSelector@$0A@@@@Z 10034870 f i libvcruntimed:undname.obj
 0001:000338c0       ??$?0$0A@@pcharNode@@QAE@PBDHU?$StringLifeSelector@$0A@@@@Z 100348c0 f i libvcruntimed:undname.obj
 0001:00033940       ??$?0_K$0A@@?$optional@_K@std@@QAE@$$QA_K@Z 10034940 f i libvcruntimed:undname.obj
 0001:00033980       ??$?0_K@?$_Optional_construct_base@_K@std@@QAE@Uin_place_t@1@$$QA_K@Z 10034980 f i libvcruntimed:undname.obj
 0001:000339b0       ??$?0_K@?$_Optional_destruct_base@_K$00@std@@QAE@Uin_place_t@1@$$QA_K@Z 100349b0 f i libvcruntimed:undname.obj
 0001:000339e0       ??$append@VDNameNode@@@DName@@AAEXPBVDNameNode@@@Z 100349e0 f i libvcruntimed:undname.obj
 0001:00033a70       ??$append@VDNameStatusNode@@@DName@@AAEXPBVDNameStatusNode@@@Z 10034a70 f i libvcruntimed:undname.obj
 0001:00033b00       ??$append@VcharNode@@@DName@@AAEXPBVcharNode@@@Z 10034b00 f i libvcruntimed:undname.obj
 0001:00033b90       ??$append@VpDNameNode@@@DName@@AAEXPBVpDNameNode@@@Z 10034b90 f i libvcruntimed:undname.obj
 0001:00033c20       ??$append@VpcharNode@@@DName@@AAEXPBVpcharNode@@@Z 10034c20 f i libvcruntimed:undname.obj
 0001:00033cb0       ??$doPchar@$00@DName@@AAEXPBDH@Z 10034cb0 f i libvcruntimed:undname.obj
 0001:00033dc0       ??$doPchar@$01@DName@@AAEXPBDH@Z 10034dc0 f i libvcruntimed:undname.obj
 0001:00033ed0       ??$doPchar@$0A@@DName@@AAEXPBDH@Z 10034ed0 f i libvcruntimed:undname.obj
 0001:00033fe0       ??$forward@_K@std@@YA$$QA_KAA_K@Z 10034fe0 f i libvcruntimed:undname.obj
 0001:00033ff0       ??$size@D$04@std@@YAIAAY04$$CBD@Z 10034ff0 f i libvcruntimed:undname.obj
 0001:00034000       ??$size@D$0EB@@std@@YAIAAY0EB@$$CBD@Z 10035000 f i libvcruntimed:undname.obj
 0001:00034010       ??0?$_Optional_construct_base@_K@std@@QAE@XZ 10035010 f i libvcruntimed:undname.obj
 0001:00034030       ??0?$_Optional_destruct_base@_K$00@std@@QAE@XZ 10035030 f i libvcruntimed:undname.obj
 0001:00034050       ??0?$optional@_K@std@@QAE@XZ 10035050 f i libvcruntimed:undname.obj
 0001:00034070       ??0Block@_HeapManager@@QAE@XZ 10035070 f i libvcruntimed:undname.obj
 0001:00034090       ??0DName@@QAE@AAPBDD@Z     10035090 f   libvcruntimed:undname.obj
 0001:00034200       ??0DName@@QAE@ABUStringLiteral@@@Z 10035200 f   libvcruntimed:undname.obj
 0001:00034250       ??0DName@@QAE@ABV0@@Z      10035250 f i libvcruntimed:undname.obj
 0001:00034280       ??0DName@@QAE@D@Z          10035280 f   libvcruntimed:undname.obj
 0001:000342b0       ??0DName@@QAE@PAV0@@Z      100352b0 f   libvcruntimed:undname.obj
 0001:00034360       ??0DName@@QAE@W4DNameStatus@@@Z 10035360 f   libvcruntimed:undname.obj
 0001:00034400       ??0DName@@QAE@XZ           10035400 f i libvcruntimed:undname.obj
 0001:00034430       ??0DName@@QAE@_J@Z         10035430 f   libvcruntimed:undname.obj
 0001:00034520       ??0DName@@QAE@_K@Z         10035520 f   libvcruntimed:undname.obj
 0001:000345d0       ??0DNameNode@@IAE@XZ       100355d0 f i libvcruntimed:undname.obj
 0001:000345f0       ??0Replicator@@QAE@XZ      100355f0 f i libvcruntimed:undname.obj
 0001:00034630       ??0UnDecorator@@QAE@PBDP6APADJ@ZK@Z 10035630 f i libvcruntimed:undname.obj
 0001:000346b0       ??0_Nontrivial_dummy_type@std@@QAE@XZ 100356b0 f i libvcruntimed:undname.obj
 0001:000346c0       ??0charNode@@QAE@D@Z       100356c0 f i libvcruntimed:undname.obj
 0001:000346f0       ??0pDNameNode@@QAE@PAVDName@@@Z 100356f0 f   libvcruntimed:undname.obj
 0001:00034750       ??0pairNode@@QAE@PBVDNameNode@@0@Z 10035750 f i libvcruntimed:undname.obj
 0001:000347b0       ??2@YAPAXIAAV_HeapManager@@H@Z 100357b0 f   libvcruntimed:undname.obj
 0001:000347f0       ??4DName@@QAEAAV0@ABUStringLiteral@@@Z 100357f0 f   libvcruntimed:undname.obj
 0001:00034830       ??4DName@@QAEAAV0@ABV0@@Z  10035830 f   libvcruntimed:undname.obj
 0001:00034860       ??4DName@@QAEAAV0@D@Z      10035860 f i libvcruntimed:undname.obj
 0001:00034890       ??4DName@@QAEAAV0@PAV0@@Z  10035890 f   libvcruntimed:undname.obj
 0001:00034930       ??4DName@@QAEAAV0@W4DNameStatus@@@Z 10035930 f   libvcruntimed:undname.obj
 0001:000349b0       ??AReplicator@@QBE?AVDName@@H@Z 100359b0 f   libvcruntimed:undname.obj
 0001:00034a20       ??B?$optional@_K@std@@QBE_NXZ 10035a20 f i libvcruntimed:undname.obj
 0001:00034a40       ??D?$optional@_K@std@@QGAEAA_KXZ 10035a40 f i libvcruntimed:undname.obj
 0001:00034ab0       ??H@YA?AVDName@@ABUStringLiteral@@ABV0@@Z 10035ab0 f i libvcruntimed:undname.obj
 0001:00034ae0       ??H@YA?AVDName@@DABV0@@Z   10035ae0 f i libvcruntimed:undname.obj
 0001:00034b10       ??H@YA?AVDName@@W4DNameStatus@@ABV0@@Z 10035b10 f i libvcruntimed:undname.obj
 0001:00034b40       ??HDName@@QBE?AV0@ABUStringLiteral@@@Z 10035b40 f   libvcruntimed:undname.obj
 0001:00034b80       ??HDName@@QBE?AV0@ABV0@@Z  10035b80 f   libvcruntimed:undname.obj
 0001:00034bc0       ??HDName@@QBE?AV0@D@Z      10035bc0 f   libvcruntimed:undname.obj
 0001:00034c00       ??HDName@@QBE?AV0@PAV0@@Z  10035c00 f   libvcruntimed:undname.obj
 0001:00034c40       ??HDName@@QBE?AV0@W4DNameStatus@@@Z 10035c40 f   libvcruntimed:undname.obj
 0001:00034c80       ??HStringLiteral@@QBE?AU0@H@Z 10035c80 f i libvcruntimed:undname.obj
 0001:00034cb0       ??YDName@@QAEAAV0@ABUStringLiteral@@@Z 10035cb0 f   libvcruntimed:undname.obj
 0001:00034d50       ??YDName@@QAEAAV0@ABV0@@Z  10035d50 f   libvcruntimed:undname.obj
 0001:00034df0       ??YDName@@QAEAAV0@D@Z      10035df0 f   libvcruntimed:undname.obj
 0001:00034e70       ??YDName@@QAEAAV0@PAV0@@Z  10035e70 f   libvcruntimed:undname.obj
 0001:00034f20       ??YDName@@QAEAAV0@W4DNameStatus@@@Z 10035f20 f   libvcruntimed:undname.obj
 0001:00034f80       ??YReplicator@@QAEAAV0@ABVDName@@@Z 10035f80 f   libvcruntimed:undname.obj
 0001:00035010       ??_5DName@@QAEAAV0@ABV0@@Z 10036010 f   libvcruntimed:undname.obj
 0001:00035070       ??__K_l@@YA?AUStringLiteral@@PBDI@Z 10036070 f i libvcruntimed:undname.obj
 0001:00035090       ?Constructor@_HeapManager@@QAEXP6APAXI@ZP6AXPAX@Z@Z 10036090 f i libvcruntimed:undname.obj
 0001:000350d0       ?Destructor@_HeapManager@@QAEXXZ 100360d0 f i libvcruntimed:undname.obj
 0001:00035140       ?UScore@UnDecorator@@SA?AUStringLiteral@@W4Tokens@@@Z 10036140 f   libvcruntimed:undname.obj
 0001:00035190       ?composeDeclaration@UnDecorator@@CA?AVDName@@ABV2@@Z 10036190 f i libvcruntimed:undname.obj
 0001:00037100       ?dbGetString@DName@@QBEPADXZ 10038100 f   libvcruntimed:undname.obj
 0001:00037120       ?doAccessSpecifiers@UnDecorator@@SAHXZ 10038120 f i libvcruntimed:undname.obj
 0001:00037150       ?doAllocationLanguage@UnDecorator@@SAHXZ 10038150 f i libvcruntimed:undname.obj
 0001:00037180       ?doAllocationModel@UnDecorator@@SAHXZ 10038180 f i libvcruntimed:undname.obj
 0001:000371b0       ?doEcsu@UnDecorator@@SAHXZ 100381b0 f i libvcruntimed:undname.obj
 0001:000371e0       ?doEllipsis@UnDecorator@@SAHXZ 100381e0 f i libvcruntimed:undname.obj
 0001:00037210       ?doFunctionReturns@UnDecorator@@SAHXZ 10038210 f i libvcruntimed:undname.obj
 0001:00037240       ?doMSKeywords@UnDecorator@@SAHXZ 10038240 f i libvcruntimed:undname.obj
 0001:00037270       ?doMemberTypes@UnDecorator@@SAHXZ 10038270 f i libvcruntimed:undname.obj
 0001:000372a0       ?doNameOnly@UnDecorator@@SAHXZ 100382a0 f i libvcruntimed:undname.obj
 0001:000372b0       ?doNoIdentCharCheck@UnDecorator@@SAHXZ 100382b0 f i libvcruntimed:undname.obj
 0001:000372c0       ?doPchar@DName@@AAEXD@Z    100382c0 f   libvcruntimed:undname.obj
 0001:00037330       ?doPtr64@UnDecorator@@SAHXZ 10038330 f i libvcruntimed:undname.obj
 0001:00037360       ?doRestrictionSpec@UnDecorator@@SAHXZ 10038360 f i libvcruntimed:undname.obj
 0001:00037390       ?doThisTypes@UnDecorator@@SAHXZ 10038390 f i libvcruntimed:undname.obj
 0001:000373c0       ?doThrowTypes@UnDecorator@@SAHXZ 100383c0 f i libvcruntimed:undname.obj
 0001:000373f0       ?doTypeOnly@UnDecorator@@SAHXZ 100383f0 f i libvcruntimed:undname.obj
 0001:00037400       ?doUnderScore@UnDecorator@@SAHXZ 10038400 f i libvcruntimed:undname.obj
 0001:00037430       ?getAddressOf@UnDecorator@@CA?AVDName@@XZ 10038430 f   libvcruntimed:undname.obj
 0001:000374b0       ?getArgumentList@UnDecorator@@CA?AVDName@@XZ 100384b0 f   libvcruntimed:undname.obj
 0001:00037600       ?getArgumentTypes@UnDecorator@@CA?AVDName@@XZ 10038600 f   libvcruntimed:undname.obj
 0001:000377d0       ?getArrayAccess@UnDecorator@@CA?AVDName@@XZ 100387d0 f   libvcruntimed:undname.obj
 0001:00037870       ?getArrayObject@UnDecorator@@CA?AVDName@@XZ 10038870 f   libvcruntimed:undname.obj
 0001:00037950       ?getArrayType@UnDecorator@@CA?AVDName@@ABV2@@Z 10038950 f i libvcruntimed:undname.obj
 0001:00037bf0       ?getBasedType@UnDecorator@@CA?AVDName@@XZ 10038bf0 f   libvcruntimed:undname.obj
 0001:00037ce0       ?getBasicDataType@UnDecorator@@CA?AVDName@@ABV2@@Z 10038ce0 f   libvcruntimed:undname.obj
 0001:00038650       ?getCHPEName@UnDecorator@@QAEPADPADH@Z 10039650 f i libvcruntimed:undname.obj
 0001:000387b0       ?getCallIndex@UnDecorator@@CA?AVDName@@XZ 100397b0 f i libvcruntimed:undname.obj
 0001:000387d0       ?getCallingConvention@UnDecorator@@CA?AVDName@@XZ 100397d0 f   libvcruntimed:undname.obj
 0001:00038a30       ?getDataIndirectType@UnDecorator@@CA?AVDName@@ABV2@W4IndirectionKind@@0H@Z 10039a30 f   libvcruntimed:undname.obj
 0001:00039350       ?getDataIndirectType@UnDecorator@@CA?AVDName@@XZ 1003a350 f i libvcruntimed:undname.obj
 0001:00039390       ?getDataType@UnDecorator@@CA?AVDName@@PAV2@@Z 1003a390 f   libvcruntimed:undname.obj
 0001:000394d0       ?getDecoratedName@UnDecorator@@CA?AVDName@@XZ 1003a4d0 f   libvcruntimed:undname.obj
 0001:00039910       ?getDimension@UnDecorator@@CA?AVDName@@_N@Z 1003a910 f   libvcruntimed:undname.obj
 0001:00039b70       ?getDispatchTarget@UnDecorator@@CA?AVDName@@XZ 1003ab70 f   libvcruntimed:undname.obj
 0001:00039c10       ?getDisplacement@UnDecorator@@CA?AVDName@@XZ 1003ac10 f i libvcruntimed:undname.obj
 0001:00039c30       ?getECSUDataType@UnDecorator@@CA?AVDName@@XZ 1003ac30 f   libvcruntimed:undname.obj
 0001:00039e90       ?getECSUName@UnDecorator@@CA?AVDName@@XZ 1003ae90 f i libvcruntimed:undname.obj
 0001:00039eb0       ?getEnumType@UnDecorator@@CA?AVDName@@XZ 1003aeb0 f i libvcruntimed:undname.obj
 0001:0003a070       ?getExtendedDataIndirectType@UnDecorator@@CA?AVDName@@AAW4IndirectionKind@@AA_NH@Z 1003b070 f   libvcruntimed:undname.obj
 0001:0003a2c0       ?getExternalDataType@UnDecorator@@CA?AVDName@@ABV2@@Z 1003b2c0 f i libvcruntimed:undname.obj
 0001:0003a360       ?getFloatingPoint@UnDecorator@@CA?AVDName@@H@Z 1003b360 f   libvcruntimed:undname.obj
 0001:0003a520       ?getFunctionIndirectType@UnDecorator@@CA?AVDName@@ABV2@@Z 1003b520 f   libvcruntimed:undname.obj
 0001:0003aa00       ?getGuardNumber@UnDecorator@@CA?AVDName@@XZ 1003ba00 f i libvcruntimed:undname.obj
 0001:0003aa20       ?getLastChar@DName@@QBEDXZ 1003ba20 f i libvcruntimed:undname.obj
 0001:0003aa60       ?getLastChar@DNameStatusNode@@UBEDXZ 1003ba60 f i libvcruntimed:undname.obj
 0001:0003aa90       ?getLastChar@charNode@@UBEDXZ 1003ba90 f i libvcruntimed:undname.obj
 0001:0003aab0       ?getLastChar@pDNameNode@@UBEDXZ 1003bab0 f i libvcruntimed:undname.obj
 0001:0003aae0       ?getLastChar@pairNode@@UBEDXZ 1003bae0 f i libvcruntimed:undname.obj
 0001:0003ab50       ?getLastChar@pcharNode@@UBEDXZ 1003bb50 f i libvcruntimed:undname.obj
 0001:0003ab90       ?getLexicalFrame@UnDecorator@@CA?AVDName@@XZ 1003bb90 f i libvcruntimed:undname.obj
 0001:0003abd0       ?getMemberAccess@UnDecorator@@CA?AVDName@@XZ 1003bbd0 f   libvcruntimed:undname.obj
 0001:0003ac60       ?getMemoryWithBuffer@_HeapManager@@QAEPAXI@Z 1003bc60 f   libvcruntimed:undname.obj
 0001:0003ad50       ?getMemoryWithoutBuffer@_HeapManager@@QAEPAXI@Z 1003bd50 f   libvcruntimed:undname.obj
 0001:0003ad90       ?getNoexcept@UnDecorator@@CA?AVDName@@XZ 1003bd90 f   libvcruntimed:undname.obj
 0001:0003ae10       ?getNumberOfDimensions@UnDecorator@@CAHXZ 1003be10 f   libvcruntimed:undname.obj
 0001:0003af10       ?getOperatorName@UnDecorator@@CA?AVDName@@_NPA_N@Z 1003bf10 f i libvcruntimed:undname.obj
 0001:0003ba10       ?getPointerToMember@UnDecorator@@CA?AVDName@@XZ 1003ca10 f   libvcruntimed:undname.obj
 0001:0003bb00       ?getPointerType@UnDecorator@@CA?AVDName@@ABV2@0@Z 1003cb00 f i libvcruntimed:undname.obj
 0001:0003bb20       ?getPointerTypeArray@UnDecorator@@CA?AVDName@@ABV2@0@Z 1003cb20 f i libvcruntimed:undname.obj
 0001:0003bb40       ?getPrimaryDataType@UnDecorator@@CA?AVDName@@ABV2@@Z 1003cb40 f   libvcruntimed:undname.obj
 0001:0003bfd0       ?getPtrRefDataType@UnDecorator@@CA?AVDName@@ABV2@H@Z 1003cfd0 f   libvcruntimed:undname.obj
 0001:0003c280       ?getPtrRefType@UnDecorator@@CA?AVDName@@ABV2@0W4IndirectionKind@@@Z 1003d280 f   libvcruntimed:undname.obj
 0001:0003c400       ?getReferenceType@UnDecorator@@CA?AVDName@@ABV2@0W4IndirectionKind@@@Z 1003d400 f i libvcruntimed:undname.obj
 0001:0003c420       ?getRestrictionSpec@UnDecorator@@CA?AVDName@@XZ 1003d420 f   libvcruntimed:undname.obj
 0001:0003c5e0       ?getReturnType@UnDecorator@@CA?AVDName@@PAV2@@Z 1003d5e0 f   libvcruntimed:undname.obj
 0001:0003c630       ?getScope@UnDecorator@@CA?AVDName@@XZ 1003d630 f   libvcruntimed:undname.obj
 0001:0003cbc0       ?getScopedName@UnDecorator@@CA?AVDName@@XZ 1003dbc0 f   libvcruntimed:undname.obj
 0001:0003cd10       ?getSignedDimension@UnDecorator@@CA?AVDName@@XZ 1003dd10 f   libvcruntimed:undname.obj
 0001:0003cd90       ?getStorageConvention@UnDecorator@@CA?AVDName@@XZ 1003dd90 f i libvcruntimed:undname.obj
 0001:0003cdb0       ?getString@DName@@QBEPADPAD0@Z 1003ddb0 f i libvcruntimed:undname.obj
 0001:0003ce10       ?getString@DName@@QBEPADPADH@Z 1003de10 f i libvcruntimed:undname.obj
 0001:0003cea0       ?getString@DNameStatusNode@@UBEPADPAD0@Z 1003dea0 f i libvcruntimed:undname.obj
 0001:0003cee0       ?getString@charNode@@UBEPADPAD0@Z 1003dee0 f i libvcruntimed:undname.obj
 0001:0003cf10       ?getString@pDNameNode@@UBEPADPAD0@Z 1003df10 f i libvcruntimed:undname.obj
 0001:0003cf50       ?getString@pairNode@@UBEPADPAD0@Z 1003df50 f i libvcruntimed:undname.obj
 0001:0003cfe0       ?getString@pcharNode@@UBEPADPAD0@Z 1003dfe0 f i libvcruntimed:undname.obj
 0001:0003d010       ?getStringEncoding@UnDecorator@@CA?AVDName@@W4PrefixKind@@H@Z 1003e010 f   libvcruntimed:undname.obj
 0001:0003d120       ?getStringHelper@@YAPADPADPBD1H@Z 1003e120 f i libvcruntimed:undname.obj
 0001:0003d160       ?getStringObject@UnDecorator@@CA?AVDName@@XZ 1003e160 f   libvcruntimed:undname.obj
 0001:0003d210       ?getSymbolName@UnDecorator@@CA?AVDName@@XZ 1003e210 f i libvcruntimed:undname.obj
 0001:0003d2a0       ?getTemplateArgumentList@UnDecorator@@CA?AVDName@@XZ 1003e2a0 f   libvcruntimed:undname.obj
 0001:0003d590       ?getTemplateName@UnDecorator@@CA?AVDName@@_N@Z 1003e590 f   libvcruntimed:undname.obj
 0001:0003d750       ?getTemplateNonTypeArgument@UnDecorator@@CA?AVDName@@XZ 1003e750 f   libvcruntimed:undname.obj
 0001:0003dd90       ?getTemplateTypeArgument@UnDecorator@@CA?AVDName@@XZ 1003ed90 f   libvcruntimed:undname.obj
 0001:0003df30       ?getThisType@UnDecorator@@CA?AVDName@@XZ 1003ef30 f i libvcruntimed:undname.obj
 0001:0003df70       ?getThrowTypes@UnDecorator@@CA?AVDName@@XZ 1003ef70 f   libvcruntimed:undname.obj
 0001:0003dfb0       ?getTypeEncoding@UnDecorator@@CAHXZ 1003efb0 f i libvcruntimed:undname.obj
 0001:0003ea70       ?getUndecoratedName@UnDecorator@@QAEPADPADH@Z 1003fa70 f i libvcruntimed:undname.obj
 0001:0003ebd0       ?getUnionObject@UnDecorator@@CA?AVDName@@XZ 1003fbd0 f   libvcruntimed:undname.obj
 0001:0003eca0       ?getVCallThunkType@UnDecorator@@CA?AVDName@@XZ 1003fca0 f i libvcruntimed:undname.obj
 0001:0003ed20       ?getValue@UnDecorator@@CA?AV?$optional@_K@std@@XZ 1003fd20 f   libvcruntimed:undname.obj
 0001:0003ede0       ?getValueObject@UnDecorator@@CA?AVDName@@XZ 1003fde0 f   libvcruntimed:undname.obj
 0001:0003efc0       ?getVbTableType@UnDecorator@@CA?AVDName@@ABV2@@Z 1003ffc0 f i libvcruntimed:undname.obj
 0001:0003efe0       ?getVdispMapType@UnDecorator@@CA?AVDName@@ABV2@@Z 1003ffe0 f i libvcruntimed:undname.obj
 0001:0003f070       ?getVfTableType@UnDecorator@@CA?AVDName@@ABV2@@Z 10040070 f i libvcruntimed:undname.obj
 0001:0003f270       ?getZName@UnDecorator@@CA?AVDName@@_N0@Z 10040270 f   libvcruntimed:undname.obj
 0001:0003f5a0       ?haveTemplateParameters@UnDecorator@@SAHXZ 100405a0 f i libvcruntimed:undname.obj
 0001:0003f5b0       ?isArray@DName@@QBEHXZ     100405b0 f i libvcruntimed:undname.obj
 0001:0003f5d0       ?isComArray@DName@@QBEHXZ  100405d0 f i libvcruntimed:undname.obj
 0001:0003f5f0       ?isEmpty@DName@@QBEHXZ     100405f0 f i libvcruntimed:undname.obj
 0001:0003f620       ?isFull@Replicator@@QBEHXZ 10040620 f i libvcruntimed:undname.obj
 0001:0003f650       ?isNoTE@DName@@QBEHXZ      10040650 f i libvcruntimed:undname.obj
 0001:0003f670       ?isPinPtr@DName@@QBEHXZ    10040670 f i libvcruntimed:undname.obj
 0001:0003f690       ?isPtrRef@DName@@QBEHXZ    10040690 f i libvcruntimed:undname.obj
 0001:0003f6b0       ?isUDC@DName@@QBEHXZ       100406b0 f i libvcruntimed:undname.obj
 0001:0003f6f0       ?isUDTThunk@DName@@QBEHXZ  100406f0 f i libvcruntimed:undname.obj
 0001:0003f730       ?isVCallThunk@DName@@QBEHXZ 10040730 f i libvcruntimed:undname.obj
 0001:0003f750       ?isValid@DName@@QBEHXZ     10040750 f i libvcruntimed:undname.obj
 0001:0003f790       ?length@DName@@QBEHXZ      10040790 f i libvcruntimed:undname.obj
 0001:0003f7d0       ?length@DNameStatusNode@@UBEHXZ 100407d0 f i libvcruntimed:undname.obj
 0001:0003f7f0       ?length@charNode@@UBEHXZ   100407f0 f i libvcruntimed:undname.obj
 0001:0003f800       ?length@pDNameNode@@UBEHXZ 10040800 f i libvcruntimed:undname.obj
 0001:0003f830       ?length@pairNode@@UBEHXZ   10040830 f i libvcruntimed:undname.obj
 0001:0003f8a0       ?length@pcharNode@@UBEHXZ  100408a0 f i libvcruntimed:undname.obj
 0001:0003f8c0       ?make@DNameStatusNode@@SAPBV1@W4DNameStatus@@@Z 100408c0 f i libvcruntimed:undname.obj
 0001:0003f8f0       ?parseDecoratedName@UnDecorator@@CA?AVDName@@XZ 100408f0 f   libvcruntimed:undname.obj
 0001:0003fa80       ?raw_length@DNameStatusNode@@UBEHXZ 10040a80 f i libvcruntimed:undname.obj
 0001:0003faa0       ?raw_length@charNode@@UBEHXZ 10040aa0 f i libvcruntimed:undname.obj
 0001:0003fac0       ?raw_length@pDNameNode@@UBEHXZ 10040ac0 f i libvcruntimed:undname.obj
 0001:0003fad0       ?raw_length@pairNode@@UBEHXZ 10040ad0 f i libvcruntimed:undname.obj
 0001:0003faf0       ?raw_length@pcharNode@@UBEHXZ 10040af0 f i libvcruntimed:undname.obj
 0001:0003fb10       ?setIsArray@DName@@QAEXXZ  10040b10 f i libvcruntimed:undname.obj
 0001:0003fb30       ?setIsComArray@DName@@QAEXXZ 10040b30 f i libvcruntimed:undname.obj
 0001:0003fb50       ?setIsNoTE@DName@@QAEXXZ   10040b50 f i libvcruntimed:undname.obj
 0001:0003fb70       ?setIsPinPtr@DName@@QAEXXZ 10040b70 f i libvcruntimed:undname.obj
 0001:0003fb90       ?setIsUDC@DName@@QAEXXZ    10040b90 f i libvcruntimed:undname.obj
 0001:0003fbc0       ?setIsVCallThunk@DName@@QAEXXZ 10040bc0 f i libvcruntimed:undname.obj
 0001:0003fbe0       ?setPtrRef@DName@@QAEAAV1@XZ 10040be0 f i libvcruntimed:undname.obj
 0001:0003fc00       ?status@DName@@QBE?AW4DNameStatus@@XZ 10040c00 f i libvcruntimed:undname.obj
 0001:0003fd00       ___unDName                 10040d00 f   libvcruntimed:undname.obj
 0001:0003fd30       ___unDNameEx               10040d30 f   libvcruntimed:undname.obj
 0001:0003fe00       _unDNameGenerateCHPE       10040e00 f   libvcruntimed:undname.obj
 0001:0003fe60       __global_unwind2           10040e60 f   libvcruntimed:exsup.obj
 0001:0003fee0       __local_unwind2            10040ee0 f   libvcruntimed:exsup.obj
 0001:0003ff80       __abnormal_termination     10040f80 f   libvcruntimed:exsup.obj
 0001:0003ffb0       __NLG_Notify1              10040fb0 f   libvcruntimed:exsup.obj
 0001:0003ffc0       __NLG_Notify               10040fc0 f   libvcruntimed:exsup.obj
 0001:0003ffd7       __NLG_Dispatch2            10040fd7     libvcruntimed:exsup.obj
 0001:0003ffd7       __NLG_Dispatch             10040fd7     libvcruntimed:exsup.obj
 0001:0003ffe0       __NLG_Call                 10040fe0 f   libvcruntimed:exsup.obj
 0001:0003ffe2       __NLG_Return2              10040fe2     libvcruntimed:exsup.obj
 0001:0003fff0       ??$__crt_interlocked_exchange_pointer@UHINSTANCE__@@PAU1@@@YAPAUHINSTANCE__@@PDSAU0@QAU0@@Z 10040ff0 f i libvcruntimed:winapi_downlevel.obj
 0001:00040000       ??$__crt_interlocked_exchange_pointer@UHINSTANCE__@@PAX@@YAPAUHINSTANCE__@@PDSAU0@QAX@Z 10041000 f i libvcruntimed:winapi_downlevel.obj
 0001:00040010       ??$__crt_interlocked_exchange_pointer@XPAX@@YAPAXPDSAXQAX@Z 10041010 f i libvcruntimed:winapi_downlevel.obj
 0001:00040020       ??$__crt_interlocked_read_pointer@UHINSTANCE__@@@@YAPAUHINSTANCE__@@PDSAU0@@Z 10041020 f i libvcruntimed:winapi_downlevel.obj
 0001:00040040       ??$__crt_interlocked_read_pointer@X@@YAPAXPDSAX@Z 10041040 f i libvcruntimed:winapi_downlevel.obj
 0001:00040410       ___vcrt_FlsAlloc           10041410 f   libvcruntimed:winapi_downlevel.obj
 0001:00040450       ___vcrt_FlsFree            10041450 f   libvcruntimed:winapi_downlevel.obj
 0001:00040490       ___vcrt_FlsGetValue        10041490 f   libvcruntimed:winapi_downlevel.obj
 0001:000404d0       ___vcrt_FlsSetValue        100414d0 f   libvcruntimed:winapi_downlevel.obj
 0001:00040520       ___vcrt_InitializeCriticalSectionEx 10041520 f   libvcruntimed:winapi_downlevel.obj
 0001:000405a0       __get_unexpected           100415a0 f   libvcruntimed:unexpected.obj
 0001:000405c0       _set_unexpected            100415c0 f   libvcruntimed:unexpected.obj
 0001:000405f0       _unexpected                100415f0 f   libvcruntimed:unexpected.obj
 0001:00040630       ?GetCurrentState@__FrameHandler3@@SAHPAUEHRegistrationNode@@PAXPBU_s_FuncInfo@@@Z 10041630 f   libvcruntimed:ehstate.obj
 0001:00040660       ?SetState@__FrameHandler3@@SAXPAUEHRegistrationNode@@PBU_s_FuncInfo@@H@Z 10041660 f   libvcruntimed:ehstate.obj
 0001:00040670       ??$?0ABV?$stream_output_adapter@D@__crt_stdio_output@@AB_KABQBDAAV__crt_cached_ptd_host@@ABQAD@?$format_validation_base@DV?$stream_output_adapter@D@__crt_stdio_output@@@__crt_stdio_output@@IAE@ABV?$stream_output_adapter@D@1@AB_KABQBDAAV__crt_cached_ptd_host@@ABQAD@Z 10041670 f i libucrtd:output.obj
 0001:000406a0       ??$?0ABV?$stream_output_adapter@D@__crt_stdio_output@@AB_KABQBDAAV__crt_cached_ptd_host@@ABQAD@?$positional_parameter_base@DV?$stream_output_adapter@D@__crt_stdio_output@@@__crt_stdio_output@@IAE@ABV?$stream_output_adapter@D@1@AB_KABQBDAAV__crt_cached_ptd_host@@ABQAD@Z 100416a0 f i libucrtd:output.obj
 0001:00040720       ??$?0ABV?$stream_output_adapter@D@__crt_stdio_output@@AB_KABQBDAAV__crt_cached_ptd_host@@ABQAD@?$standard_base@DV?$stream_output_adapter@D@__crt_stdio_output@@@__crt_stdio_output@@IAE@ABV?$stream_output_adapter@D@1@AB_KABQBDAAV__crt_cached_ptd_host@@ABQAD@Z 10041720 f i libucrtd:output.obj
 0001:00040770       ??$?0ABV?$stream_output_adapter@_W@__crt_stdio_output@@AB_KABQB_WAAV__crt_cached_ptd_host@@ABQAD@?$format_validation_base@_WV?$stream_output_adapter@_W@__crt_stdio_output@@@__crt_stdio_output@@IAE@ABV?$stream_output_adapter@_W@1@AB_KABQB_WAAV__crt_cached_ptd_host@@ABQAD@Z 10041770 f i libucrtd:output.obj
 0001:000407a0       ??$?0ABV?$stream_output_adapter@_W@__crt_stdio_output@@AB_KABQB_WAAV__crt_cached_ptd_host@@ABQAD@?$positional_parameter_base@_WV?$stream_output_adapter@_W@__crt_stdio_output@@@__crt_stdio_output@@IAE@ABV?$stream_output_adapter@_W@1@AB_KABQB_WAAV__crt_cached_ptd_host@@ABQAD@Z 100417a0 f i libucrtd:output.obj
 0001:00040820       ??$?0ABV?$stream_output_adapter@_W@__crt_stdio_output@@AB_KABQB_WAAV__crt_cached_ptd_host@@ABQAD@?$standard_base@_WV?$stream_output_adapter@_W@__crt_stdio_output@@@__crt_stdio_output@@IAE@ABV?$stream_output_adapter@_W@1@AB_KABQB_WAAV__crt_cached_ptd_host@@ABQAD@Z 10041820 f i libucrtd:output.obj
 0001:00040870       ??$?0ABV?$string_output_adapter@D@__crt_stdio_output@@AB_KABQBDAAV__crt_cached_ptd_host@@ABQAD@?$format_validation_base@DV?$string_output_adapter@D@__crt_stdio_output@@@__crt_stdio_output@@IAE@ABV?$string_output_adapter@D@1@AB_KABQBDAAV__crt_cached_ptd_host@@ABQAD@Z 10041870 f i libucrtd:output.obj
 0001:000408a0       ??$?0ABV?$string_output_adapter@D@__crt_stdio_output@@AB_KABQBDAAV__crt_cached_ptd_host@@ABQAD@?$positional_parameter_base@DV?$string_output_adapter@D@__crt_stdio_output@@@__crt_stdio_output@@IAE@ABV?$string_output_adapter@D@1@AB_KABQBDAAV__crt_cached_ptd_host@@ABQAD@Z 100418a0 f i libucrtd:output.obj
 0001:00040920       ??$?0ABV?$string_output_adapter@D@__crt_stdio_output@@AB_KABQBDAAV__crt_cached_ptd_host@@ABQAD@?$standard_base@DV?$string_output_adapter@D@__crt_stdio_output@@@__crt_stdio_output@@IAE@ABV?$string_output_adapter@D@1@AB_KABQBDAAV__crt_cached_ptd_host@@ABQAD@Z 10041920 f i libucrtd:output.obj
 0001:00040970       ??$?0ABV?$string_output_adapter@_W@__crt_stdio_output@@AB_KABQB_WAAV__crt_cached_ptd_host@@ABQAD@?$format_validation_base@_WV?$string_output_adapter@_W@__crt_stdio_output@@@__crt_stdio_output@@IAE@ABV?$string_output_adapter@_W@1@AB_KABQB_WAAV__crt_cached_ptd_host@@ABQAD@Z 10041970 f i libucrtd:output.obj
 0001:000409a0       ??$?0ABV?$string_output_adapter@_W@__crt_stdio_output@@AB_KABQB_WAAV__crt_cached_ptd_host@@ABQAD@?$positional_parameter_base@_WV?$string_output_adapter@_W@__crt_stdio_output@@@__crt_stdio_output@@IAE@ABV?$string_output_adapter@_W@1@AB_KABQB_WAAV__crt_cached_ptd_host@@ABQAD@Z 100419a0 f i libucrtd:output.obj
 0001:00040a20       ??$?0ABV?$string_output_adapter@_W@__crt_stdio_output@@AB_KABQB_WAAV__crt_cached_ptd_host@@ABQAD@?$standard_base@_WV?$string_output_adapter@_W@__crt_stdio_output@@@__crt_stdio_output@@IAE@ABV?$string_output_adapter@_W@1@AB_KABQB_WAAV__crt_cached_ptd_host@@ABQAD@Z 10041a20 f i libucrtd:output.obj
 0001:00041070       ??$__crt_interlocked_read@J@@YAJPDJ@Z 10042070 f i libucrtd:output.obj
 0001:00041090       ??$_tcstol_internal@DPAPAD$0A@@@YAJAAV__crt_cached_ptd_host@@QBDQAPADH@Z 10042090 f i libucrtd:output.obj
 0001:000410d0       ??$_tcstol_internal@_WPAPA_W$0A@@@YAJAAV__crt_cached_ptd_host@@QB_WQAPA_WH@Z 100420d0 f i libucrtd:output.obj
 0001:00044070       ??$count@D@formatting_buffer@__crt_stdio_output@@QBEIXZ 10045070 f i libucrtd:output.obj
 0001:000440b0       ??$count@_W@formatting_buffer@__crt_stdio_output@@QBEIXZ 100450b0 f i libucrtd:output.obj
 0001:000440f0       ??$data@D@formatting_buffer@__crt_stdio_output@@QAEPADXZ 100450f0 f i libucrtd:output.obj
 0001:00044130       ??$data@_W@formatting_buffer@__crt_stdio_output@@QAEPA_WXZ 10045130 f i libucrtd:output.obj
 0001:00044170       ??$ensure_buffer_is_big_enough@D@formatting_buffer@__crt_stdio_output@@QAE_NIAAV__crt_cached_ptd_host@@@Z 10045170 f i libucrtd:output.obj
 0001:00044260       ??$ensure_buffer_is_big_enough@_W@formatting_buffer@__crt_stdio_output@@QAE_NIAAV__crt_cached_ptd_host@@@Z 10045260 f i libucrtd:output.obj
 0001:00044350       ??$extract_argument_from_va_list@C_J@?$positional_parameter_base@DV?$stream_output_adapter@D@__crt_stdio_output@@@__crt_stdio_output@@IAE_NAA_J@Z 10045350 f i libucrtd:output.obj
 0001:000444b0       ??$extract_argument_from_va_list@C_J@?$positional_parameter_base@DV?$string_output_adapter@D@__crt_stdio_output@@@__crt_stdio_output@@IAE_NAA_J@Z 100454b0 f i libucrtd:output.obj
 0001:00044610       ??$extract_argument_from_va_list@C_J@?$positional_parameter_base@_WV?$stream_output_adapter@_W@__crt_stdio_output@@@__crt_stdio_output@@IAE_NAA_J@Z 10045610 f i libucrtd:output.obj
 0001:00044780       ??$extract_argument_from_va_list@C_J@?$positional_parameter_base@_WV?$string_output_adapter@_W@__crt_stdio_output@@@__crt_stdio_output@@IAE_NAA_J@Z 10045780 f i libucrtd:output.obj
 0001:000448f0       ??$extract_argument_from_va_list@C_J@?$standard_base@DV?$stream_output_adapter@D@__crt_stdio_output@@@__crt_stdio_output@@IAE_NAA_J@Z 100458f0 f i libucrtd:output.obj
 0001:00044920       ??$extract_argument_from_va_list@C_J@?$standard_base@DV?$string_output_adapter@D@__crt_stdio_output@@@__crt_stdio_output@@IAE_NAA_J@Z 10045920 f i libucrtd:output.obj
 0001:00044950       ??$extract_argument_from_va_list@C_J@?$standard_base@_WV?$stream_output_adapter@_W@__crt_stdio_output@@@__crt_stdio_output@@IAE_NAA_J@Z 10045950 f i libucrtd:output.obj
 0001:00044980       ??$extract_argument_from_va_list@C_J@?$standard_base@_WV?$string_output_adapter@_W@__crt_stdio_output@@@__crt_stdio_output@@IAE_NAA_J@Z 10045980 f i libucrtd:output.obj
 0001:000449b0       ??$extract_argument_from_va_list@E_J@?$positional_parameter_base@DV?$stream_output_adapter@D@__crt_stdio_output@@@__crt_stdio_output@@IAE_NAA_J@Z 100459b0 f i libucrtd:output.obj
 0001:00044b10       ??$extract_argument_from_va_list@E_J@?$positional_parameter_base@DV?$string_output_adapter@D@__crt_stdio_output@@@__crt_stdio_output@@IAE_NAA_J@Z 10045b10 f i libucrtd:output.obj
 0001:00044c70       ??$extract_argument_from_va_list@E_J@?$positional_parameter_base@_WV?$stream_output_adapter@_W@__crt_stdio_output@@@__crt_stdio_output@@IAE_NAA_J@Z 10045c70 f i libucrtd:output.obj
 0001:00044de0       ??$extract_argument_from_va_list@E_J@?$positional_parameter_base@_WV?$string_output_adapter@_W@__crt_stdio_output@@@__crt_stdio_output@@IAE_NAA_J@Z 10045de0 f i libucrtd:output.obj
 0001:00044f50       ??$extract_argument_from_va_list@E_J@?$standard_base@DV?$stream_output_adapter@D@__crt_stdio_output@@@__crt_stdio_output@@IAE_NAA_J@Z 10045f50 f i libucrtd:output.obj
 0001:00044f80       ??$extract_argument_from_va_list@E_J@?$standard_base@DV?$string_output_adapter@D@__crt_stdio_output@@@__crt_stdio_output@@IAE_NAA_J@Z 10045f80 f i libucrtd:output.obj
 0001:00044fb0       ??$extract_argument_from_va_list@E_J@?$standard_base@_WV?$stream_output_adapter@_W@__crt_stdio_output@@@__crt_stdio_output@@IAE_NAA_J@Z 10045fb0 f i libucrtd:output.obj
 0001:00044fe0       ??$extract_argument_from_va_list@E_J@?$standard_base@_WV?$string_output_adapter@_W@__crt_stdio_output@@@__crt_stdio_output@@IAE_NAA_J@Z 10045fe0 f i libucrtd:output.obj
 0001:00045010       ??$extract_argument_from_va_list@F_J@?$positional_parameter_base@DV?$stream_output_adapter@D@__crt_stdio_output@@@__crt_stdio_output@@IAE_NAA_J@Z 10046010 f i libucrtd:output.obj
 0001:00045170       ??$extract_argument_from_va_list@F_J@?$positional_parameter_base@DV?$string_output_adapter@D@__crt_stdio_output@@@__crt_stdio_output@@IAE_NAA_J@Z 10046170 f i libucrtd:output.obj
 0001:000452d0       ??$extract_argument_from_va_list@F_J@?$positional_parameter_base@_WV?$stream_output_adapter@_W@__crt_stdio_output@@@__crt_stdio_output@@IAE_NAA_J@Z 100462d0 f i libucrtd:output.obj
 0001:00045430       ??$extract_argument_from_va_list@F_J@?$positional_parameter_base@_WV?$string_output_adapter@_W@__crt_stdio_output@@@__crt_stdio_output@@IAE_NAA_J@Z 10046430 f i libucrtd:output.obj
 0001:00045590       ??$extract_argument_from_va_list@F_J@?$standard_base@DV?$stream_output_adapter@D@__crt_stdio_output@@@__crt_stdio_output@@IAE_NAA_J@Z 10046590 f i libucrtd:output.obj
 0001:000455c0       ??$extract_argument_from_va_list@F_J@?$standard_base@DV?$string_output_adapter@D@__crt_stdio_output@@@__crt_stdio_output@@IAE_NAA_J@Z 100465c0 f i libucrtd:output.obj
 0001:000455f0       ??$extract_argument_from_va_list@F_J@?$standard_base@_WV?$stream_output_adapter@_W@__crt_stdio_output@@@__crt_stdio_output@@IAE_NAA_J@Z 100465f0 f i libucrtd:output.obj
 0001:00045620       ??$extract_argument_from_va_list@F_J@?$standard_base@_WV?$string_output_adapter@_W@__crt_stdio_output@@@__crt_stdio_output@@IAE_NAA_J@Z 10046620 f i libucrtd:output.obj
 0001:00045650       ??$extract_argument_from_va_list@GD@?$positional_parameter_base@DV?$stream_output_adapter@D@__crt_stdio_output@@@__crt_stdio_output@@IAE_NAAD@Z 10046650 f i libucrtd:output.obj
 0001:000457b0       ??$extract_argument_from_va_list@GD@?$positional_parameter_base@DV?$string_output_adapter@D@__crt_stdio_output@@@__crt_stdio_output@@IAE_NAAD@Z 100467b0 f i libucrtd:output.obj
 0001:00045910       ??$extract_argument_from_va_list@GD@?$standard_base@DV?$stream_output_adapter@D@__crt_stdio_output@@@__crt_stdio_output@@IAE_NAAD@Z 10046910 f i libucrtd:output.obj
 0001:00045940       ??$extract_argument_from_va_list@GD@?$standard_base@DV?$string_output_adapter@D@__crt_stdio_output@@@__crt_stdio_output@@IAE_NAAD@Z 10046940 f i libucrtd:output.obj
 0001:00045970       ??$extract_argument_from_va_list@G_J@?$positional_parameter_base@DV?$stream_output_adapter@D@__crt_stdio_output@@@__crt_stdio_output@@IAE_NAA_J@Z 10046970 f i libucrtd:output.obj
 0001:00045ad0       ??$extract_argument_from_va_list@G_J@?$positional_parameter_base@DV?$string_output_adapter@D@__crt_stdio_output@@@__crt_stdio_output@@IAE_NAA_J@Z 10046ad0 f i libucrtd:output.obj
 0001:00045c30       ??$extract_argument_from_va_list@G_J@?$positional_parameter_base@_WV?$stream_output_adapter@_W@__crt_stdio_output@@@__crt_stdio_output@@IAE_NAA_J@Z 10046c30 f i libucrtd:output.obj
 0001:00045da0       ??$extract_argument_from_va_list@G_J@?$positional_parameter_base@_WV?$string_output_adapter@_W@__crt_stdio_output@@@__crt_stdio_output@@IAE_NAA_J@Z 10046da0 f i libucrtd:output.obj
 0001:00045f10       ??$extract_argument_from_va_list@G_J@?$standard_base@DV?$stream_output_adapter@D@__crt_stdio_output@@@__crt_stdio_output@@IAE_NAA_J@Z 10046f10 f i libucrtd:output.obj
 0001:00045f40       ??$extract_argument_from_va_list@G_J@?$standard_base@DV?$string_output_adapter@D@__crt_stdio_output@@@__crt_stdio_output@@IAE_NAA_J@Z 10046f40 f i libucrtd:output.obj
 0001:00045f70       ??$extract_argument_from_va_list@G_J@?$standard_base@_WV?$stream_output_adapter@_W@__crt_stdio_output@@@__crt_stdio_output@@IAE_NAA_J@Z 10046f70 f i libucrtd:output.obj
 0001:00045fa0       ??$extract_argument_from_va_list@G_J@?$standard_base@_WV?$string_output_adapter@_W@__crt_stdio_output@@@__crt_stdio_output@@IAE_NAA_J@Z 10046fa0 f i libucrtd:output.obj
 0001:00045fd0       ??$extract_argument_from_va_list@H_J@?$positional_parameter_base@DV?$stream_output_adapter@D@__crt_stdio_output@@@__crt_stdio_output@@IAE_NAA_J@Z 10046fd0 f i libucrtd:output.obj
 0001:00046130       ??$extract_argument_from_va_list@H_J@?$positional_parameter_base@DV?$string_output_adapter@D@__crt_stdio_output@@@__crt_stdio_output@@IAE_NAA_J@Z 10047130 f i libucrtd:output.obj
 0001:00046290       ??$extract_argument_from_va_list@H_J@?$positional_parameter_base@_WV?$stream_output_adapter@_W@__crt_stdio_output@@@__crt_stdio_output@@IAE_NAA_J@Z 10047290 f i libucrtd:output.obj
 0001:000463f0       ??$extract_argument_from_va_list@H_J@?$positional_parameter_base@_WV?$string_output_adapter@_W@__crt_stdio_output@@@__crt_stdio_output@@IAE_NAA_J@Z 100473f0 f i libucrtd:output.obj
 0001:00046550       ??$extract_argument_from_va_list@H_J@?$standard_base@DV?$stream_output_adapter@D@__crt_stdio_output@@@__crt_stdio_output@@IAE_NAA_J@Z 10047550 f i libucrtd:output.obj
 0001:00046580       ??$extract_argument_from_va_list@H_J@?$standard_base@DV?$string_output_adapter@D@__crt_stdio_output@@@__crt_stdio_output@@IAE_NAA_J@Z 10047580 f i libucrtd:output.obj
 0001:000465b0       ??$extract_argument_from_va_list@H_J@?$standard_base@_WV?$stream_output_adapter@_W@__crt_stdio_output@@@__crt_stdio_output@@IAE_NAA_J@Z 100475b0 f i libucrtd:output.obj
 0001:000465e0       ??$extract_argument_from_va_list@H_J@?$standard_base@_WV?$string_output_adapter@_W@__crt_stdio_output@@@__crt_stdio_output@@IAE_NAA_J@Z 100475e0 f i libucrtd:output.obj
 0001:00046610       ??$extract_argument_from_va_list@I_J@?$positional_parameter_base@DV?$stream_output_adapter@D@__crt_stdio_output@@@__crt_stdio_output@@IAE_NAA_J@Z 10047610 f i libucrtd:output.obj
 0001:00046770       ??$extract_argument_from_va_list@I_J@?$positional_parameter_base@DV?$string_output_adapter@D@__crt_stdio_output@@@__crt_stdio_output@@IAE_NAA_J@Z 10047770 f i libucrtd:output.obj
 0001:000468d0       ??$extract_argument_from_va_list@I_J@?$positional_parameter_base@_WV?$stream_output_adapter@_W@__crt_stdio_output@@@__crt_stdio_output@@IAE_NAA_J@Z 100478d0 f i libucrtd:output.obj
 0001:00046a30       ??$extract_argument_from_va_list@I_J@?$positional_parameter_base@_WV?$string_output_adapter@_W@__crt_stdio_output@@@__crt_stdio_output@@IAE_NAA_J@Z 10047a30 f i libucrtd:output.obj
 0001:00046b90       ??$extract_argument_from_va_list@I_J@?$standard_base@DV?$stream_output_adapter@D@__crt_stdio_output@@@__crt_stdio_output@@IAE_NAA_J@Z 10047b90 f i libucrtd:output.obj
 0001:00046bc0       ??$extract_argument_from_va_list@I_J@?$standard_base@DV?$string_output_adapter@D@__crt_stdio_output@@@__crt_stdio_output@@IAE_NAA_J@Z 10047bc0 f i libucrtd:output.obj
 0001:00046bf0       ??$extract_argument_from_va_list@I_J@?$standard_base@_WV?$stream_output_adapter@_W@__crt_stdio_output@@@__crt_stdio_output@@IAE_NAA_J@Z 10047bf0 f i libucrtd:output.obj
 0001:00046c20       ??$extract_argument_from_va_list@I_J@?$standard_base@_WV?$string_output_adapter@_W@__crt_stdio_output@@@__crt_stdio_output@@IAE_NAA_J@Z 10047c20 f i libucrtd:output.obj
 0001:00046c50       ??$extract_argument_from_va_list@PADPAD@?$positional_parameter_base@DV?$stream_output_adapter@D@__crt_stdio_output@@@__crt_stdio_output@@IAE_NAAPAD@Z 10047c50 f i libucrtd:output.obj
 0001:00046db0       ??$extract_argument_from_va_list@PADPAD@?$positional_parameter_base@DV?$string_output_adapter@D@__crt_stdio_output@@@__crt_stdio_output@@IAE_NAAPAD@Z 10047db0 f i libucrtd:output.obj
 0001:00046f10       ??$extract_argument_from_va_list@PADPAD@?$positional_parameter_base@_WV?$stream_output_adapter@_W@__crt_stdio_output@@@__crt_stdio_output@@IAE_NAAPAD@Z 10047f10 f i libucrtd:output.obj
 0001:00047070       ??$extract_argument_from_va_list@PADPAD@?$positional_parameter_base@_WV?$string_output_adapter@_W@__crt_stdio_output@@@__crt_stdio_output@@IAE_NAAPAD@Z 10048070 f i libucrtd:output.obj
 0001:000471d0       ??$extract_argument_from_va_list@PADPAD@?$standard_base@DV?$stream_output_adapter@D@__crt_stdio_output@@@__crt_stdio_output@@IAE_NAAPAD@Z 100481d0 f i libucrtd:output.obj
 0001:00047200       ??$extract_argument_from_va_list@PADPAD@?$standard_base@DV?$string_output_adapter@D@__crt_stdio_output@@@__crt_stdio_output@@IAE_NAAPAD@Z 10048200 f i libucrtd:output.obj
 0001:00047230       ??$extract_argument_from_va_list@PADPAD@?$standard_base@_WV?$stream_output_adapter@_W@__crt_stdio_output@@@__crt_stdio_output@@IAE_NAAPAD@Z 10048230 f i libucrtd:output.obj
 0001:00047260       ??$extract_argument_from_va_list@PADPAD@?$standard_base@_WV?$string_output_adapter@_W@__crt_stdio_output@@@__crt_stdio_output@@IAE_NAAPAD@Z 10048260 f i libucrtd:output.obj
 0001:00047290       ??$extract_argument_from_va_list@PAUansi_string@?1??type_case_Z@?$output_processor@DV?$stream_output_adapter@D@__crt_stdio_output@@V?$format_validation_base@DV?$stream_output_adapter@D@__crt_stdio_output@@@2@@__crt_stdio_output@@AAE_NXZ@PAU1?1??234@AAE_NXZ@@?$standard_base@DV?$stream_output_adapter@D@__crt_stdio_output@@@__crt_stdio_output@@IAE_NAAPAUansi_string@?1??type_case_Z@?$output_processor@DV?$stream_output_adapter@D@__crt_stdio_output@@V?$format_validation_base@DV?$stream_output_adapter@D@__crt_stdio_output@@@2@@1@AAE_NXZ@@Z 10048290 f i libucrtd:output.obj
 0001:000472c0       ??$extract_argument_from_va_list@PAUansi_string@?1??type_case_Z@?$output_processor@DV?$stream_output_adapter@D@__crt_stdio_output@@V?$positional_parameter_base@DV?$stream_output_adapter@D@__crt_stdio_output@@@2@@__crt_stdio_output@@AAE_NXZ@PAU1?1??234@AAE_NXZ@@?$positional_parameter_base@DV?$stream_output_adapter@D@__crt_stdio_output@@@__crt_stdio_output@@IAE_NAAPAUansi_string@?1??type_case_Z@?$output_processor@DV?$stream_output_adapter@D@__crt_stdio_output@@V?$positional_parameter_base@DV?$stream_output_adapter@D@__crt_stdio_output@@@2@@1@AAE_NXZ@@Z 100482c0 f i libucrtd:output.obj
 0001:00047420       ??$extract_argument_from_va_list@PAUansi_string@?1??type_case_Z@?$output_processor@DV?$stream_output_adapter@D@__crt_stdio_output@@V?$positional_parameter_base@DV?$stream_output_adapter@D@__crt_stdio_output@@@2@@__crt_stdio_output@@AAE_NXZ@PAU1?1??234@AAE_NXZ@@?$standard_base@DV?$stream_output_adapter@D@__crt_stdio_output@@@__crt_stdio_output@@IAE_NAAPAUansi_string@?1??type_case_Z@?$output_processor@DV?$stream_output_adapter@D@__crt_stdio_output@@V?$positional_parameter_base@DV?$stream_output_adapter@D@__crt_stdio_output@@@2@@1@AAE_NXZ@@Z 10048420 f i libucrtd:output.obj
 0001:00047450       ??$extract_argument_from_va_list@PAUansi_string@?1??type_case_Z@?$output_processor@DV?$stream_output_adapter@D@__crt_stdio_output@@V?$standard_base@DV?$stream_output_adapter@D@__crt_stdio_output@@@2@@__crt_stdio_output@@AAE_NXZ@PAU1?1??234@AAE_NXZ@@?$standard_base@DV?$stream_output_adapter@D@__crt_stdio_output@@@__crt_stdio_output@@IAE_NAAPAUansi_string@?1??type_case_Z@?$output_processor@DV?$stream_output_adapter@D@__crt_stdio_output@@V?$standard_base@DV?$stream_output_adapter@D@__crt_stdio_output@@@2@@1@AAE_NXZ@@Z 10048450 f i libucrtd:output.obj
 0001:00047480       ??$extract_argument_from_va_list@PAUansi_string@?1??type_case_Z@?$output_processor@DV?$string_output_adapter@D@__crt_stdio_output@@V?$format_validation_base@DV?$string_output_adapter@D@__crt_stdio_output@@@2@@__crt_stdio_output@@AAE_NXZ@PAU1?1??234@AAE_NXZ@@?$standard_base@DV?$string_output_adapter@D@__crt_stdio_output@@@__crt_stdio_output@@IAE_NAAPAUansi_string@?1??type_case_Z@?$output_processor@DV?$string_output_adapter@D@__crt_stdio_output@@V?$format_validation_base@DV?$string_output_adapter@D@__crt_stdio_output@@@2@@1@AAE_NXZ@@Z 10048480 f i libucrtd:output.obj
 0001:000474b0       ??$extract_argument_from_va_list@PAUansi_string@?1??type_case_Z@?$output_processor@DV?$string_output_adapter@D@__crt_stdio_output@@V?$positional_parameter_base@DV?$string_output_adapter@D@__crt_stdio_output@@@2@@__crt_stdio_output@@AAE_NXZ@PAU1?1??234@AAE_NXZ@@?$positional_parameter_base@DV?$string_output_adapter@D@__crt_stdio_output@@@__crt_stdio_output@@IAE_NAAPAUansi_string@?1??type_case_Z@?$output_processor@DV?$string_output_adapter@D@__crt_stdio_output@@V?$positional_parameter_base@DV?$string_output_adapter@D@__crt_stdio_output@@@2@@1@AAE_NXZ@@Z 100484b0 f i libucrtd:output.obj
 0001:00047610       ??$extract_argument_from_va_list@PAUansi_string@?1??type_case_Z@?$output_processor@DV?$string_output_adapter@D@__crt_stdio_output@@V?$positional_parameter_base@DV?$string_output_adapter@D@__crt_stdio_output@@@2@@__crt_stdio_output@@AAE_NXZ@PAU1?1??234@AAE_NXZ@@?$standard_base@DV?$string_output_adapter@D@__crt_stdio_output@@@__crt_stdio_output@@IAE_NAAPAUansi_string@?1??type_case_Z@?$output_processor@DV?$string_output_adapter@D@__crt_stdio_output@@V?$positional_parameter_base@DV?$string_output_adapter@D@__crt_stdio_output@@@2@@1@AAE_NXZ@@Z 10048610 f i libucrtd:output.obj
 0001:00047640       ??$extract_argument_from_va_list@PAUansi_string@?1??type_case_Z@?$output_processor@DV?$string_output_adapter@D@__crt_stdio_output@@V?$standard_base@DV?$string_output_adapter@D@__crt_stdio_output@@@2@@__crt_stdio_output@@AAE_NXZ@PAU1?1??234@AAE_NXZ@@?$standard_base@DV?$string_output_adapter@D@__crt_stdio_output@@@__crt_stdio_output@@IAE_NAAPAUansi_string@?1??type_case_Z@?$output_processor@DV?$string_output_adapter@D@__crt_stdio_output@@V?$standard_base@DV?$string_output_adapter@D@__crt_stdio_output@@@2@@1@AAE_NXZ@@Z 10048640 f i libucrtd:output.obj
 0001:00047670       ??$extract_argument_from_va_list@PAUansi_string@?1??type_case_Z@?$output_processor@_WV?$stream_output_adapter@_W@__crt_stdio_output@@V?$format_validation_base@_WV?$stream_output_adapter@_W@__crt_stdio_output@@@2@@__crt_stdio_output@@AAE_NXZ@PAU1?1??234@AAE_NXZ@@?$standard_base@_WV?$stream_output_adapter@_W@__crt_stdio_output@@@__crt_stdio_output@@IAE_NAAPAUansi_string@?1??type_case_Z@?$output_processor@_WV?$stream_output_adapter@_W@__crt_stdio_output@@V?$format_validation_base@_WV?$stream_output_adapter@_W@__crt_stdio_output@@@2@@1@AAE_NXZ@@Z 10048670 f i libucrtd:output.obj
 0001:000476a0       ??$extract_argument_from_va_list@PAUansi_string@?1??type_case_Z@?$output_processor@_WV?$stream_output_adapter@_W@__crt_stdio_output@@V?$positional_parameter_base@_WV?$stream_output_adapter@_W@__crt_stdio_output@@@2@@__crt_stdio_output@@AAE_NXZ@PAU1?1??234@AAE_NXZ@@?$positional_parameter_base@_WV?$stream_output_adapter@_W@__crt_stdio_output@@@__crt_stdio_output@@IAE_NAAPAUansi_string@?1??type_case_Z@?$output_processor@_WV?$stream_output_adapter@_W@__crt_stdio_output@@V?$positional_parameter_base@_WV?$stream_output_adapter@_W@__crt_stdio_output@@@2@@1@AAE_NXZ@@Z 100486a0 f i libucrtd:output.obj
 0001:00047800       ??$extract_argument_from_va_list@PAUansi_string@?1??type_case_Z@?$output_processor@_WV?$stream_output_adapter@_W@__crt_stdio_output@@V?$positional_parameter_base@_WV?$stream_output_adapter@_W@__crt_stdio_output@@@2@@__crt_stdio_output@@AAE_NXZ@PAU1?1??234@AAE_NXZ@@?$standard_base@_WV?$stream_output_adapter@_W@__crt_stdio_output@@@__crt_stdio_output@@IAE_NAAPAUansi_string@?1??type_case_Z@?$output_processor@_WV?$stream_output_adapter@_W@__crt_stdio_output@@V?$positional_parameter_base@_WV?$stream_output_adapter@_W@__crt_stdio_output@@@2@@1@AAE_NXZ@@Z 10048800 f i libucrtd:output.obj
 0001:00047830       ??$extract_argument_from_va_list@PAUansi_string@?1??type_case_Z@?$output_processor@_WV?$stream_output_adapter@_W@__crt_stdio_output@@V?$standard_base@_WV?$stream_output_adapter@_W@__crt_stdio_output@@@2@@__crt_stdio_output@@AAE_NXZ@PAU1?1??234@AAE_NXZ@@?$standard_base@_WV?$stream_output_adapter@_W@__crt_stdio_output@@@__crt_stdio_output@@IAE_NAAPAUansi_string@?1??type_case_Z@?$output_processor@_WV?$stream_output_adapter@_W@__crt_stdio_output@@V?$standard_base@_WV?$stream_output_adapter@_W@__crt_stdio_output@@@2@@1@AAE_NXZ@@Z 10048830 f i libucrtd:output.obj
 0001:00047860       ??$extract_argument_from_va_list@PAUansi_string@?1??type_case_Z@?$output_processor@_WV?$string_output_adapter@_W@__crt_stdio_output@@V?$format_validation_base@_WV?$string_output_adapter@_W@__crt_stdio_output@@@2@@__crt_stdio_output@@AAE_NXZ@PAU1?1??234@AAE_NXZ@@?$standard_base@_WV?$string_output_adapter@_W@__crt_stdio_output@@@__crt_stdio_output@@IAE_NAAPAUansi_string@?1??type_case_Z@?$output_processor@_WV?$string_output_adapter@_W@__crt_stdio_output@@V?$format_validation_base@_WV?$string_output_adapter@_W@__crt_stdio_output@@@2@@1@AAE_NXZ@@Z 10048860 f i libucrtd:output.obj
 0001:00047890       ??$extract_argument_from_va_list@PAUansi_string@?1??type_case_Z@?$output_processor@_WV?$string_output_adapter@_W@__crt_stdio_output@@V?$positional_parameter_base@_WV?$string_output_adapter@_W@__crt_stdio_output@@@2@@__crt_stdio_output@@AAE_NXZ@PAU1?1??234@AAE_NXZ@@?$positional_parameter_base@_WV?$string_output_adapter@_W@__crt_stdio_output@@@__crt_stdio_output@@IAE_NAAPAUansi_string@?1??type_case_Z@?$output_processor@_WV?$string_output_adapter@_W@__crt_stdio_output@@V?$positional_parameter_base@_WV?$string_output_adapter@_W@__crt_stdio_output@@@2@@1@AAE_NXZ@@Z 10048890 f i libucrtd:output.obj
 0001:000479f0       ??$extract_argument_from_va_list@PAUansi_string@?1??type_case_Z@?$output_processor@_WV?$string_output_adapter@_W@__crt_stdio_output@@V?$positional_parameter_base@_WV?$string_output_adapter@_W@__crt_stdio_output@@@2@@__crt_stdio_output@@AAE_NXZ@PAU1?1??234@AAE_NXZ@@?$standard_base@_WV?$string_output_adapter@_W@__crt_stdio_output@@@__crt_stdio_output@@IAE_NAAPAUansi_string@?1??type_case_Z@?$output_processor@_WV?$string_output_adapter@_W@__crt_stdio_output@@V?$positional_parameter_base@_WV?$string_output_adapter@_W@__crt_stdio_output@@@2@@1@AAE_NXZ@@Z 100489f0 f i libucrtd:output.obj
 0001:00047a20       ??$extract_argument_from_va_list@PAUansi_string@?1??type_case_Z@?$output_processor@_WV?$string_output_adapter@_W@__crt_stdio_output@@V?$standard_base@_WV?$string_output_adapter@_W@__crt_stdio_output@@@2@@__crt_stdio_output@@AAE_NXZ@PAU1?1??234@AAE_NXZ@@?$standard_base@_WV?$string_output_adapter@_W@__crt_stdio_output@@@__crt_stdio_output@@IAE_NAAPAUansi_string@?1??type_case_Z@?$output_processor@_WV?$string_output_adapter@_W@__crt_stdio_output@@V?$standard_base@_WV?$string_output_adapter@_W@__crt_stdio_output@@@2@@1@AAE_NXZ@@Z 10048a20 f i libucrtd:output.obj
 0001:00047a50       ??$extract_argument_from_va_list@PAXPAX@?$positional_parameter_base@DV?$stream_output_adapter@D@__crt_stdio_output@@@__crt_stdio_output@@IAE_NAAPAX@Z 10048a50 f i libucrtd:output.obj
 0001:00047bb0       ??$extract_argument_from_va_list@PAXPAX@?$positional_parameter_base@DV?$string_output_adapter@D@__crt_stdio_output@@@__crt_stdio_output@@IAE_NAAPAX@Z 10048bb0 f i libucrtd:output.obj
 0001:00047d10       ??$extract_argument_from_va_list@PAXPAX@?$positional_parameter_base@_WV?$stream_output_adapter@_W@__crt_stdio_output@@@__crt_stdio_output@@IAE_NAAPAX@Z 10048d10 f i libucrtd:output.obj
 0001:00047e70       ??$extract_argument_from_va_list@PAXPAX@?$positional_parameter_base@_WV?$string_output_adapter@_W@__crt_stdio_output@@@__crt_stdio_output@@IAE_NAAPAX@Z 10048e70 f i libucrtd:output.obj
 0001:00047fd0       ??$extract_argument_from_va_list@PAXPAX@?$standard_base@DV?$stream_output_adapter@D@__crt_stdio_output@@@__crt_stdio_output@@IAE_NAAPAX@Z 10048fd0 f i libucrtd:output.obj
 0001:00048000       ??$extract_argument_from_va_list@PAXPAX@?$standard_base@DV?$string_output_adapter@D@__crt_stdio_output@@@__crt_stdio_output@@IAE_NAAPAX@Z 10049000 f i libucrtd:output.obj
 0001:00048030       ??$extract_argument_from_va_list@PAXPAX@?$standard_base@_WV?$stream_output_adapter@_W@__crt_stdio_output@@@__crt_stdio_output@@IAE_NAAPAX@Z 10049030 f i libucrtd:output.obj
 0001:00048060       ??$extract_argument_from_va_list@PAXPAX@?$standard_base@_WV?$string_output_adapter@_W@__crt_stdio_output@@@__crt_stdio_output@@IAE_NAAPAX@Z 10049060 f i libucrtd:output.obj
 0001:00048090       ??$extract_argument_from_va_list@U_CRT_DOUBLE@@U1@@?$positional_parameter_base@DV?$stream_output_adapter@D@__crt_stdio_output@@@__crt_stdio_output@@IAE_NAAU_CRT_DOUBLE@@@Z 10049090 f i libucrtd:output.obj
 0001:00048220       ??$extract_argument_from_va_list@U_CRT_DOUBLE@@U1@@?$positional_parameter_base@DV?$string_output_adapter@D@__crt_stdio_output@@@__crt_stdio_output@@IAE_NAAU_CRT_DOUBLE@@@Z 10049220 f i libucrtd:output.obj
 0001:000483b0       ??$extract_argument_from_va_list@U_CRT_DOUBLE@@U1@@?$positional_parameter_base@_WV?$stream_output_adapter@_W@__crt_stdio_output@@@__crt_stdio_output@@IAE_NAAU_CRT_DOUBLE@@@Z 100493b0 f i libucrtd:output.obj
 0001:00048540       ??$extract_argument_from_va_list@U_CRT_DOUBLE@@U1@@?$positional_parameter_base@_WV?$string_output_adapter@_W@__crt_stdio_output@@@__crt_stdio_output@@IAE_NAAU_CRT_DOUBLE@@@Z 10049540 f i libucrtd:output.obj
 0001:000486d0       ??$extract_argument_from_va_list@U_CRT_DOUBLE@@U1@@?$standard_base@DV?$stream_output_adapter@D@__crt_stdio_output@@@__crt_stdio_output@@IAE_NAAU_CRT_DOUBLE@@@Z 100496d0 f i libucrtd:output.obj
 0001:00048720       ??$extract_argument_from_va_list@U_CRT_DOUBLE@@U1@@?$standard_base@DV?$string_output_adapter@D@__crt_stdio_output@@@__crt_stdio_output@@IAE_NAAU_CRT_DOUBLE@@@Z 10049720 f i libucrtd:output.obj
 0001:00048770       ??$extract_argument_from_va_list@U_CRT_DOUBLE@@U1@@?$standard_base@_WV?$stream_output_adapter@_W@__crt_stdio_output@@@__crt_stdio_output@@IAE_NAAU_CRT_DOUBLE@@@Z 10049770 f i libucrtd:output.obj
 0001:000487c0       ??$extract_argument_from_va_list@U_CRT_DOUBLE@@U1@@?$standard_base@_WV?$string_output_adapter@_W@__crt_stdio_output@@@__crt_stdio_output@@IAE_NAAU_CRT_DOUBLE@@@Z 100497c0 f i libucrtd:output.obj
 0001:00048810       ??$extract_argument_from_va_list@_J_J@?$positional_parameter_base@DV?$stream_output_adapter@D@__crt_stdio_output@@@__crt_stdio_output@@IAE_NAA_J@Z 10049810 f i libucrtd:output.obj
 0001:00048970       ??$extract_argument_from_va_list@_J_J@?$positional_parameter_base@DV?$string_output_adapter@D@__crt_stdio_output@@@__crt_stdio_output@@IAE_NAA_J@Z 10049970 f i libucrtd:output.obj
 0001:00048ad0       ??$extract_argument_from_va_list@_J_J@?$positional_parameter_base@_WV?$stream_output_adapter@_W@__crt_stdio_output@@@__crt_stdio_output@@IAE_NAA_J@Z 10049ad0 f i libucrtd:output.obj
 0001:00048c30       ??$extract_argument_from_va_list@_J_J@?$positional_parameter_base@_WV?$string_output_adapter@_W@__crt_stdio_output@@@__crt_stdio_output@@IAE_NAA_J@Z 10049c30 f i libucrtd:output.obj
 0001:00048d90       ??$extract_argument_from_va_list@_J_J@?$standard_base@DV?$stream_output_adapter@D@__crt_stdio_output@@@__crt_stdio_output@@IAE_NAA_J@Z 10049d90 f i libucrtd:output.obj
 0001:00048dc0       ??$extract_argument_from_va_list@_J_J@?$standard_base@DV?$string_output_adapter@D@__crt_stdio_output@@@__crt_stdio_output@@IAE_NAA_J@Z 10049dc0 f i libucrtd:output.obj
 0001:00048df0       ??$extract_argument_from_va_list@_J_J@?$standard_base@_WV?$stream_output_adapter@_W@__crt_stdio_output@@@__crt_stdio_output@@IAE_NAA_J@Z 10049df0 f i libucrtd:output.obj
 0001:00048e20       ??$extract_argument_from_va_list@_J_J@?$standard_base@_WV?$string_output_adapter@_W@__crt_stdio_output@@@__crt_stdio_output@@IAE_NAA_J@Z 10049e20 f i libucrtd:output.obj
 0001:00048e50       ??$extract_argument_from_va_list@_K_J@?$positional_parameter_base@DV?$stream_output_adapter@D@__crt_stdio_output@@@__crt_stdio_output@@IAE_NAA_J@Z 10049e50 f i libucrtd:output.obj
 0001:00048fb0       ??$extract_argument_from_va_list@_K_J@?$positional_parameter_base@DV?$string_output_adapter@D@__crt_stdio_output@@@__crt_stdio_output@@IAE_NAA_J@Z 10049fb0 f i libucrtd:output.obj
 0001:00049110       ??$extract_argument_from_va_list@_K_J@?$positional_parameter_base@_WV?$stream_output_adapter@_W@__crt_stdio_output@@@__crt_stdio_output@@IAE_NAA_J@Z 1004a110 f i libucrtd:output.obj
 0001:00049270       ??$extract_argument_from_va_list@_K_J@?$positional_parameter_base@_WV?$string_output_adapter@_W@__crt_stdio_output@@@__crt_stdio_output@@IAE_NAA_J@Z 1004a270 f i libucrtd:output.obj
 0001:000493d0       ??$extract_argument_from_va_list@_K_J@?$standard_base@DV?$stream_output_adapter@D@__crt_stdio_output@@@__crt_stdio_output@@IAE_NAA_J@Z 1004a3d0 f i libucrtd:output.obj
 0001:00049400       ??$extract_argument_from_va_list@_K_J@?$standard_base@DV?$string_output_adapter@D@__crt_stdio_output@@@__crt_stdio_output@@IAE_NAA_J@Z 1004a400 f i libucrtd:output.obj
 0001:00049430       ??$extract_argument_from_va_list@_K_J@?$standard_base@_WV?$stream_output_adapter@_W@__crt_stdio_output@@@__crt_stdio_output@@IAE_NAA_J@Z 1004a430 f i libucrtd:output.obj
 0001:00049460       ??$extract_argument_from_va_list@_K_J@?$standard_base@_WV?$string_output_adapter@_W@__crt_stdio_output@@@__crt_stdio_output@@IAE_NAA_J@Z 1004a460 f i libucrtd:output.obj
 0001:00049490       ??$extract_argument_from_va_list@_W_W@?$positional_parameter_base@DV?$stream_output_adapter@D@__crt_stdio_output@@@__crt_stdio_output@@IAE_NAA_W@Z 1004a490 f i libucrtd:output.obj
 0001:000495f0       ??$extract_argument_from_va_list@_W_W@?$positional_parameter_base@DV?$string_output_adapter@D@__crt_stdio_output@@@__crt_stdio_output@@IAE_NAA_W@Z 1004a5f0 f i libucrtd:output.obj
 0001:00049750       ??$extract_argument_from_va_list@_W_W@?$positional_parameter_base@_WV?$stream_output_adapter@_W@__crt_stdio_output@@@__crt_stdio_output@@IAE_NAA_W@Z 1004a750 f i libucrtd:output.obj
 0001:000498b0       ??$extract_argument_from_va_list@_W_W@?$positional_parameter_base@_WV?$string_output_adapter@_W@__crt_stdio_output@@@__crt_stdio_output@@IAE_NAA_W@Z 1004a8b0 f i libucrtd:output.obj
 0001:00049a10       ??$extract_argument_from_va_list@_W_W@?$standard_base@DV?$stream_output_adapter@D@__crt_stdio_output@@@__crt_stdio_output@@IAE_NAA_W@Z 1004aa10 f i libucrtd:output.obj
 0001:00049a40       ??$extract_argument_from_va_list@_W_W@?$standard_base@DV?$string_output_adapter@D@__crt_stdio_output@@@__crt_stdio_output@@IAE_NAA_W@Z 1004aa40 f i libucrtd:output.obj
 0001:00049a70       ??$extract_argument_from_va_list@_W_W@?$standard_base@_WV?$stream_output_adapter@_W@__crt_stdio_output@@@__crt_stdio_output@@IAE_NAA_W@Z 1004aa70 f i libucrtd:output.obj
 0001:00049aa0       ??$extract_argument_from_va_list@_W_W@?$standard_base@_WV?$string_output_adapter@_W@__crt_stdio_output@@@__crt_stdio_output@@IAE_NAA_W@Z 1004aaa0 f i libucrtd:output.obj
 0001:00049ad0       ??$get_parameter_type@D@?$positional_parameter_base@DV?$stream_output_adapter@D@__crt_stdio_output@@@__crt_stdio_output@@CA?AW4parameter_type@01@PAD@Z 1004aad0 f i libucrtd:output.obj
 0001:00049ae0       ??$get_parameter_type@D@?$positional_parameter_base@DV?$string_output_adapter@D@__crt_stdio_output@@@__crt_stdio_output@@CA?AW4parameter_type@01@PAD@Z 1004aae0 f i libucrtd:output.obj
 0001:00049af0       ??$get_parameter_type@D@?$positional_parameter_base@_WV?$stream_output_adapter@_W@__crt_stdio_output@@@__crt_stdio_output@@CA?AW4parameter_type@01@PAD@Z 1004aaf0 f i libucrtd:output.obj
 0001:00049b00       ??$get_parameter_type@D@?$positional_parameter_base@_WV?$string_output_adapter@_W@__crt_stdio_output@@@__crt_stdio_output@@CA?AW4parameter_type@01@PAD@Z 1004ab00 f i libucrtd:output.obj
 0001:00049b10       ??$get_parameter_type@Uansi_string@?1??type_case_Z@?$output_processor@DV?$stream_output_adapter@D@__crt_stdio_output@@V?$positional_parameter_base@DV?$stream_output_adapter@D@__crt_stdio_output@@@2@@__crt_stdio_output@@AAE_NXZ@@?$positional_parameter_base@DV?$stream_output_adapter@D@__crt_stdio_output@@@__crt_stdio_output@@CA?AW4parameter_type@01@PAUansi_string@?1??type_case_Z@?$output_processor@DV?$stream_output_adapter@D@__crt_stdio_output@@V?$positional_parameter_base@DV?$stream_output_adapter@D@__crt_stdio_output@@@2@@1@AAE_NXZ@@Z 1004ab10 f i libucrtd:output.obj
 0001:00049b20       ??$get_parameter_type@Uansi_string@?1??type_case_Z@?$output_processor@DV?$string_output_adapter@D@__crt_stdio_output@@V?$positional_parameter_base@DV?$string_output_adapter@D@__crt_stdio_output@@@2@@__crt_stdio_output@@AAE_NXZ@@?$positional_parameter_base@DV?$string_output_adapter@D@__crt_stdio_output@@@__crt_stdio_output@@CA?AW4parameter_type@01@PAUansi_string@?1??type_case_Z@?$output_processor@DV?$string_output_adapter@D@__crt_stdio_output@@V?$positional_parameter_base@DV?$string_output_adapter@D@__crt_stdio_output@@@2@@1@AAE_NXZ@@Z 1004ab20 f i libucrtd:output.obj
 0001:00049b30       ??$get_parameter_type@Uansi_string@?1??type_case_Z@?$output_processor@_WV?$stream_output_adapter@_W@__crt_stdio_output@@V?$positional_parameter_base@_WV?$stream_output_adapter@_W@__crt_stdio_output@@@2@@__crt_stdio_output@@AAE_NXZ@@?$positional_parameter_base@_WV?$stream_output_adapter@_W@__crt_stdio_output@@@__crt_stdio_output@@CA?AW4parameter_type@01@PAUansi_string@?1??type_case_Z@?$output_processor@_WV?$stream_output_adapter@_W@__crt_stdio_output@@V?$positional_parameter_base@_WV?$stream_output_adapter@_W@__crt_stdio_output@@@2@@1@AAE_NXZ@@Z 1004ab30 f i libucrtd:output.obj
 0001:00049b40       ??$get_parameter_type@Uansi_string@?1??type_case_Z@?$output_processor@_WV?$string_output_adapter@_W@__crt_stdio_output@@V?$positional_parameter_base@_WV?$string_output_adapter@_W@__crt_stdio_output@@@2@@__crt_stdio_output@@AAE_NXZ@@?$positional_parameter_base@_WV?$string_output_adapter@_W@__crt_stdio_output@@@__crt_stdio_output@@CA?AW4parameter_type@01@PAUansi_string@?1??type_case_Z@?$output_processor@_WV?$string_output_adapter@_W@__crt_stdio_output@@V?$positional_parameter_base@_WV?$string_output_adapter@_W@__crt_stdio_output@@@2@@1@AAE_NXZ@@Z 1004ab40 f i libucrtd:output.obj
 0001:00049b50       ??$get_parameter_type@X@?$positional_parameter_base@DV?$stream_output_adapter@D@__crt_stdio_output@@@__crt_stdio_output@@CA?AW4parameter_type@01@PAX@Z 1004ab50 f i libucrtd:output.obj
 0001:00049b60       ??$get_parameter_type@X@?$positional_parameter_base@DV?$string_output_adapter@D@__crt_stdio_output@@@__crt_stdio_output@@CA?AW4parameter_type@01@PAX@Z 1004ab60 f i libucrtd:output.obj
 0001:00049b70       ??$get_parameter_type@X@?$positional_parameter_base@_WV?$stream_output_adapter@_W@__crt_stdio_output@@@__crt_stdio_output@@CA?AW4parameter_type@01@PAX@Z 1004ab70 f i libucrtd:output.obj
 0001:00049b80       ??$get_parameter_type@X@?$positional_parameter_base@_WV?$string_output_adapter@_W@__crt_stdio_output@@@__crt_stdio_output@@CA?AW4parameter_type@01@PAX@Z 1004ab80 f i libucrtd:output.obj
 0001:00049b90       ??$is_character_specifier@D@?$positional_parameter_base@DV?$stream_output_adapter@D@__crt_stdio_output@@@__crt_stdio_output@@CA_ND@Z 1004ab90 f i libucrtd:output.obj
 0001:00049bc0       ??$is_character_specifier@D@?$positional_parameter_base@DV?$string_output_adapter@D@__crt_stdio_output@@@__crt_stdio_output@@CA_ND@Z 1004abc0 f i libucrtd:output.obj
 0001:00049bf0       ??$is_character_specifier@_W@?$positional_parameter_base@_WV?$stream_output_adapter@_W@__crt_stdio_output@@@__crt_stdio_output@@CA_N_W@Z 1004abf0 f i libucrtd:output.obj
 0001:00049c20       ??$is_character_specifier@_W@?$positional_parameter_base@_WV?$string_output_adapter@_W@__crt_stdio_output@@@__crt_stdio_output@@CA_N_W@Z 1004ac20 f i libucrtd:output.obj
 0001:00049c50       ??$is_integral_specifier@D@?$positional_parameter_base@DV?$stream_output_adapter@D@__crt_stdio_output@@@__crt_stdio_output@@CA_ND@Z 1004ac50 f i libucrtd:output.obj
 0001:00049cb0       ??$is_integral_specifier@D@?$positional_parameter_base@DV?$string_output_adapter@D@__crt_stdio_output@@@__crt_stdio_output@@CA_ND@Z 1004acb0 f i libucrtd:output.obj
 0001:00049d10       ??$is_integral_specifier@_W@?$positional_parameter_base@_WV?$stream_output_adapter@_W@__crt_stdio_output@@@__crt_stdio_output@@CA_N_W@Z 1004ad10 f i libucrtd:output.obj
 0001:00049d70       ??$is_integral_specifier@_W@?$positional_parameter_base@_WV?$string_output_adapter@_W@__crt_stdio_output@@@__crt_stdio_output@@CA_N_W@Z 1004ad70 f i libucrtd:output.obj
 0001:00049dd0       ??$is_overflow_condition@K@__crt_strtox@@YA_NIK@Z 1004add0 f i libucrtd:output.obj
 0001:00049e30       ??$is_pointer_specifier@D@?$positional_parameter_base@DV?$stream_output_adapter@D@__crt_stdio_output@@@__crt_stdio_output@@CA_ND@Z 1004ae30 f i libucrtd:output.obj
 0001:00049e60       ??$is_pointer_specifier@D@?$positional_parameter_base@DV?$string_output_adapter@D@__crt_stdio_output@@@__crt_stdio_output@@CA_ND@Z 1004ae60 f i libucrtd:output.obj
 0001:00049e90       ??$is_pointer_specifier@_W@?$positional_parameter_base@_WV?$stream_output_adapter@_W@__crt_stdio_output@@@__crt_stdio_output@@CA_N_W@Z 1004ae90 f i libucrtd:output.obj
 0001:00049ec0       ??$is_pointer_specifier@_W@?$positional_parameter_base@_WV?$string_output_adapter@_W@__crt_stdio_output@@@__crt_stdio_output@@CA_N_W@Z 1004aec0 f i libucrtd:output.obj
 0001:00049ef0       ??$is_string_specifier@D@?$positional_parameter_base@DV?$stream_output_adapter@D@__crt_stdio_output@@@__crt_stdio_output@@CA_ND@Z 1004aef0 f i libucrtd:output.obj
 0001:00049f20       ??$is_string_specifier@D@?$positional_parameter_base@DV?$string_output_adapter@D@__crt_stdio_output@@@__crt_stdio_output@@CA_ND@Z 1004af20 f i libucrtd:output.obj
 0001:00049f50       ??$is_string_specifier@_W@?$positional_parameter_base@_WV?$stream_output_adapter@_W@__crt_stdio_output@@@__crt_stdio_output@@CA_N_W@Z 1004af50 f i libucrtd:output.obj
 0001:00049f80       ??$is_string_specifier@_W@?$positional_parameter_base@_WV?$string_output_adapter@_W@__crt_stdio_output@@@__crt_stdio_output@@CA_N_W@Z 1004af80 f i libucrtd:output.obj
 0001:00049fb0       ??$is_wide_character_specifier@D@__crt_stdio_output@@YA_N_KDW4length_modifier@0@@Z 1004afb0 f i libucrtd:output.obj
 0001:0004a030       ??$is_wide_character_specifier@_W@__crt_stdio_output@@YA_N_K_WW4length_modifier@0@@Z 1004b030 f i libucrtd:output.obj
 0001:0004a0f0       ??$make_c_string_character_source@DPAPAD@__crt_strtox@@YA?AV?$c_string_character_source@D@0@QBDQAPAD@Z 1004b0f0 f i libucrtd:output.obj
 0001:0004a110       ??$make_c_string_character_source@_WPAPA_W@__crt_strtox@@YA?AV?$c_string_character_source@_W@0@QB_WQAPA_W@Z 1004b110 f i libucrtd:output.obj
 0001:0004a130       ??$parse_integer@KV?$c_string_character_source@D@__crt_strtox@@$0A@@__crt_strtox@@YAKAAV__crt_cached_ptd_host@@V?$c_string_character_source@D@0@H_N@Z 1004b130 f i libucrtd:output.obj
 0001:0004a460       ??$parse_integer@KV?$c_string_character_source@_W@__crt_strtox@@$0A@@__crt_strtox@@YAKAAV__crt_cached_ptd_host@@V?$c_string_character_source@_W@0@H_N@Z 1004b460 f i libucrtd:output.obj
 0001:0004a7a0       ??$peek_va_arg@C@__crt_stdio_output@@YACPAD@Z 1004b7a0 f i libucrtd:output.obj
 0001:0004a7c0       ??$peek_va_arg@E@__crt_stdio_output@@YAEPAD@Z 1004b7c0 f i libucrtd:output.obj
 0001:0004a7e0       ??$peek_va_arg@F@__crt_stdio_output@@YAFPAD@Z 1004b7e0 f i libucrtd:output.obj
 0001:0004a800       ??$peek_va_arg@G@__crt_stdio_output@@YAGPAD@Z 1004b800 f i libucrtd:output.obj
 0001:0004a820       ??$peek_va_arg@H@__crt_stdio_output@@YAHPAD@Z 1004b820 f i libucrtd:output.obj
 0001:0004a840       ??$peek_va_arg@I@__crt_stdio_output@@YAIPAD@Z 1004b840 f i libucrtd:output.obj
 0001:0004a860       ??$peek_va_arg@PAD@__crt_stdio_output@@YAPADPAD@Z 1004b860 f i libucrtd:output.obj
 0001:0004a880       ??$peek_va_arg@PAUansi_string@?1??type_case_Z@?$output_processor@DV?$stream_output_adapter@D@__crt_stdio_output@@V?$positional_parameter_base@DV?$stream_output_adapter@D@__crt_stdio_output@@@2@@__crt_stdio_output@@AAE_NXZ@@__crt_stdio_output@@YAPAUansi_string@?1??type_case_Z@?$output_processor@DV?$stream_output_adapter@D@__crt_stdio_output@@V?$positional_parameter_base@DV?$stream_output_adapter@D@__crt_stdio_output@@@2@@0@AAE_NXZ@PAD@Z 1004b880 f i libucrtd:output.obj
 0001:0004a8a0       ??$peek_va_arg@PAUansi_string@?1??type_case_Z@?$output_processor@DV?$string_output_adapter@D@__crt_stdio_output@@V?$positional_parameter_base@DV?$string_output_adapter@D@__crt_stdio_output@@@2@@__crt_stdio_output@@AAE_NXZ@@__crt_stdio_output@@YAPAUansi_string@?1??type_case_Z@?$output_processor@DV?$string_output_adapter@D@__crt_stdio_output@@V?$positional_parameter_base@DV?$string_output_adapter@D@__crt_stdio_output@@@2@@0@AAE_NXZ@PAD@Z 1004b8a0 f i libucrtd:output.obj
 0001:0004a8c0       ??$peek_va_arg@PAUansi_string@?1??type_case_Z@?$output_processor@_WV?$stream_output_adapter@_W@__crt_stdio_output@@V?$positional_parameter_base@_WV?$stream_output_adapter@_W@__crt_stdio_output@@@2@@__crt_stdio_output@@AAE_NXZ@@__crt_stdio_output@@YAPAUansi_string@?1??type_case_Z@?$output_processor@_WV?$stream_output_adapter@_W@__crt_stdio_output@@V?$positional_parameter_base@_WV?$stream_output_adapter@_W@__crt_stdio_output@@@2@@0@AAE_NXZ@PAD@Z 1004b8c0 f i libucrtd:output.obj
 0001:0004a8e0       ??$peek_va_arg@PAUansi_string@?1??type_case_Z@?$output_processor@_WV?$string_output_adapter@_W@__crt_stdio_output@@V?$positional_parameter_base@_WV?$string_output_adapter@_W@__crt_stdio_output@@@2@@__crt_stdio_output@@AAE_NXZ@@__crt_stdio_output@@YAPAUansi_string@?1??type_case_Z@?$output_processor@_WV?$string_output_adapter@_W@__crt_stdio_output@@V?$positional_parameter_base@_WV?$string_output_adapter@_W@__crt_stdio_output@@@2@@0@AAE_NXZ@PAD@Z 1004b8e0 f i libucrtd:output.obj
 0001:0004a900       ??$peek_va_arg@PAX@__crt_stdio_output@@YAPAXPAD@Z 1004b900 f i libucrtd:output.obj
 0001:0004a920       ??$peek_va_arg@U_CRT_DOUBLE@@@__crt_stdio_output@@YA?AU_CRT_DOUBLE@@PAD@Z 1004b920 f i libucrtd:output.obj
 0001:0004a940       ??$peek_va_arg@_J@__crt_stdio_output@@YA_JPAD@Z 1004b940 f i libucrtd:output.obj
 0001:0004a960       ??$peek_va_arg@_K@__crt_stdio_output@@YA_KPAD@Z 1004b960 f i libucrtd:output.obj
 0001:0004a980       ??$peek_va_arg@_W@__crt_stdio_output@@YA_WPAD@Z 1004b980 f i libucrtd:output.obj
 0001:0004a9a0       ??$puttc_nolock_internal@ABDPAU_iobuf@@AAV__crt_cached_ptd_host@@@?$__crt_char_traits@D@@SAHABD$$QAPAU_iobuf@@AAV__crt_cached_ptd_host@@@Z 1004b9a0 f i libucrtd:output.obj
 0001:0004a9c0       ??$puttc_nolock_internal@AB_WPAU_iobuf@@AAV__crt_cached_ptd_host@@@?$__crt_char_traits@_W@@SAGAB_W$$QAPAU_iobuf@@AAV__crt_cached_ptd_host@@@Z 1004b9c0 f i libucrtd:output.obj
 0001:0004a9e0       ??$read_va_arg@C@__crt_stdio_output@@YACAAPAD@Z 1004b9e0 f i libucrtd:output.obj
 0001:0004aa00       ??$read_va_arg@E@__crt_stdio_output@@YAEAAPAD@Z 1004ba00 f i libucrtd:output.obj
 0001:0004aa20       ??$read_va_arg@F@__crt_stdio_output@@YAFAAPAD@Z 1004ba20 f i libucrtd:output.obj
 0001:0004aa40       ??$read_va_arg@G@__crt_stdio_output@@YAGAAPAD@Z 1004ba40 f i libucrtd:output.obj
 0001:0004aa60       ??$read_va_arg@H@__crt_stdio_output@@YAHAAPAD@Z 1004ba60 f i libucrtd:output.obj
 0001:0004aa80       ??$read_va_arg@I@__crt_stdio_output@@YAIAAPAD@Z 1004ba80 f i libucrtd:output.obj
 0001:0004aaa0       ??$read_va_arg@PAD@__crt_stdio_output@@YAPADAAPAD@Z 1004baa0 f i libucrtd:output.obj
 0001:0004aac0       ??$read_va_arg@PAUansi_string@?1??type_case_Z@?$output_processor@DV?$stream_output_adapter@D@__crt_stdio_output@@V?$format_validation_base@DV?$stream_output_adapter@D@__crt_stdio_output@@@2@@__crt_stdio_output@@AAE_NXZ@@__crt_stdio_output@@YAPAUansi_string@?1??type_case_Z@?$output_processor@DV?$stream_output_adapter@D@__crt_stdio_output@@V?$format_validation_base@DV?$stream_output_adapter@D@__crt_stdio_output@@@2@@0@AAE_NXZ@AAPAD@Z 1004bac0 f i libucrtd:output.obj
 0001:0004aae0       ??$read_va_arg@PAUansi_string@?1??type_case_Z@?$output_processor@DV?$stream_output_adapter@D@__crt_stdio_output@@V?$positional_parameter_base@DV?$stream_output_adapter@D@__crt_stdio_output@@@2@@__crt_stdio_output@@AAE_NXZ@@__crt_stdio_output@@YAPAUansi_string@?1??type_case_Z@?$output_processor@DV?$stream_output_adapter@D@__crt_stdio_output@@V?$positional_parameter_base@DV?$stream_output_adapter@D@__crt_stdio_output@@@2@@0@AAE_NXZ@AAPAD@Z 1004bae0 f i libucrtd:output.obj
 0001:0004ab00       ??$read_va_arg@PAUansi_string@?1??type_case_Z@?$output_processor@DV?$stream_output_adapter@D@__crt_stdio_output@@V?$standard_base@DV?$stream_output_adapter@D@__crt_stdio_output@@@2@@__crt_stdio_output@@AAE_NXZ@@__crt_stdio_output@@YAPAUansi_string@?1??type_case_Z@?$output_processor@DV?$stream_output_adapter@D@__crt_stdio_output@@V?$standard_base@DV?$stream_output_adapter@D@__crt_stdio_output@@@2@@0@AAE_NXZ@AAPAD@Z 1004bb00 f i libucrtd:output.obj
 0001:0004ab20       ??$read_va_arg@PAUansi_string@?1??type_case_Z@?$output_processor@DV?$string_output_adapter@D@__crt_stdio_output@@V?$format_validation_base@DV?$string_output_adapter@D@__crt_stdio_output@@@2@@__crt_stdio_output@@AAE_NXZ@@__crt_stdio_output@@YAPAUansi_string@?1??type_case_Z@?$output_processor@DV?$string_output_adapter@D@__crt_stdio_output@@V?$format_validation_base@DV?$string_output_adapter@D@__crt_stdio_output@@@2@@0@AAE_NXZ@AAPAD@Z 1004bb20 f i libucrtd:output.obj
 0001:0004ab40       ??$read_va_arg@PAUansi_string@?1??type_case_Z@?$output_processor@DV?$string_output_adapter@D@__crt_stdio_output@@V?$positional_parameter_base@DV?$string_output_adapter@D@__crt_stdio_output@@@2@@__crt_stdio_output@@AAE_NXZ@@__crt_stdio_output@@YAPAUansi_string@?1??type_case_Z@?$output_processor@DV?$string_output_adapter@D@__crt_stdio_output@@V?$positional_parameter_base@DV?$string_output_adapter@D@__crt_stdio_output@@@2@@0@AAE_NXZ@AAPAD@Z 1004bb40 f i libucrtd:output.obj
 0001:0004ab60       ??$read_va_arg@PAUansi_string@?1??type_case_Z@?$output_processor@DV?$string_output_adapter@D@__crt_stdio_output@@V?$standard_base@DV?$string_output_adapter@D@__crt_stdio_output@@@2@@__crt_stdio_output@@AAE_NXZ@@__crt_stdio_output@@YAPAUansi_string@?1??type_case_Z@?$output_processor@DV?$string_output_adapter@D@__crt_stdio_output@@V?$standard_base@DV?$string_output_adapter@D@__crt_stdio_output@@@2@@0@AAE_NXZ@AAPAD@Z 1004bb60 f i libucrtd:output.obj
 0001:0004ab80       ??$read_va_arg@PAUansi_string@?1??type_case_Z@?$output_processor@_WV?$stream_output_adapter@_W@__crt_stdio_output@@V?$format_validation_base@_WV?$stream_output_adapter@_W@__crt_stdio_output@@@2@@__crt_stdio_output@@AAE_NXZ@@__crt_stdio_output@@YAPAUansi_string@?1??type_case_Z@?$output_processor@_WV?$stream_output_adapter@_W@__crt_stdio_output@@V?$format_validation_base@_WV?$stream_output_adapter@_W@__crt_stdio_output@@@2@@0@AAE_NXZ@AAPAD@Z 1004bb80 f i libucrtd:output.obj
 0001:0004aba0       ??$read_va_arg@PAUansi_string@?1??type_case_Z@?$output_processor@_WV?$stream_output_adapter@_W@__crt_stdio_output@@V?$positional_parameter_base@_WV?$stream_output_adapter@_W@__crt_stdio_output@@@2@@__crt_stdio_output@@AAE_NXZ@@__crt_stdio_output@@YAPAUansi_string@?1??type_case_Z@?$output_processor@_WV?$stream_output_adapter@_W@__crt_stdio_output@@V?$positional_parameter_base@_WV?$stream_output_adapter@_W@__crt_stdio_output@@@2@@0@AAE_NXZ@AAPAD@Z 1004bba0 f i libucrtd:output.obj
 0001:0004abc0       ??$read_va_arg@PAUansi_string@?1??type_case_Z@?$output_processor@_WV?$stream_output_adapter@_W@__crt_stdio_output@@V?$standard_base@_WV?$stream_output_adapter@_W@__crt_stdio_output@@@2@@__crt_stdio_output@@AAE_NXZ@@__crt_stdio_output@@YAPAUansi_string@?1??type_case_Z@?$output_processor@_WV?$stream_output_adapter@_W@__crt_stdio_output@@V?$standard_base@_WV?$stream_output_adapter@_W@__crt_stdio_output@@@2@@0@AAE_NXZ@AAPAD@Z 1004bbc0 f i libucrtd:output.obj
 0001:0004abe0       ??$read_va_arg@PAUansi_string@?1??type_case_Z@?$output_processor@_WV?$string_output_adapter@_W@__crt_stdio_output@@V?$format_validation_base@_WV?$string_output_adapter@_W@__crt_stdio_output@@@2@@__crt_stdio_output@@AAE_NXZ@@__crt_stdio_output@@YAPAUansi_string@?1??type_case_Z@?$output_processor@_WV?$string_output_adapter@_W@__crt_stdio_output@@V?$format_validation_base@_WV?$string_output_adapter@_W@__crt_stdio_output@@@2@@0@AAE_NXZ@AAPAD@Z 1004bbe0 f i libucrtd:output.obj
 0001:0004ac00       ??$read_va_arg@PAUansi_string@?1??type_case_Z@?$output_processor@_WV?$string_output_adapter@_W@__crt_stdio_output@@V?$positional_parameter_base@_WV?$string_output_adapter@_W@__crt_stdio_output@@@2@@__crt_stdio_output@@AAE_NXZ@@__crt_stdio_output@@YAPAUansi_string@?1??type_case_Z@?$output_processor@_WV?$string_output_adapter@_W@__crt_stdio_output@@V?$positional_parameter_base@_WV?$string_output_adapter@_W@__crt_stdio_output@@@2@@0@AAE_NXZ@AAPAD@Z 1004bc00 f i libucrtd:output.obj
 0001:0004ac20       ??$read_va_arg@PAUansi_string@?1??type_case_Z@?$output_processor@_WV?$string_output_adapter@_W@__crt_stdio_output@@V?$standard_base@_WV?$string_output_adapter@_W@__crt_stdio_output@@@2@@__crt_stdio_output@@AAE_NXZ@@__crt_stdio_output@@YAPAUansi_string@?1??type_case_Z@?$output_processor@_WV?$string_output_adapter@_W@__crt_stdio_output@@V?$standard_base@_WV?$string_output_adapter@_W@__crt_stdio_output@@@2@@0@AAE_NXZ@AAPAD@Z 1004bc20 f i libucrtd:output.obj
 0001:0004ac40       ??$read_va_arg@PAX@__crt_stdio_output@@YAPAXAAPAD@Z 1004bc40 f i libucrtd:output.obj
 0001:0004ac60       ??$read_va_arg@U_CRT_DOUBLE@@@__crt_stdio_output@@YA?AU_CRT_DOUBLE@@AAPAD@Z 1004bc60 f i libucrtd:output.obj
 0001:0004ac80       ??$read_va_arg@_J@__crt_stdio_output@@YA_JAAPAD@Z 1004bc80 f i libucrtd:output.obj
 0001:0004aca0       ??$read_va_arg@_K@__crt_stdio_output@@YA_KAAPAD@Z 1004bca0 f i libucrtd:output.obj
 0001:0004acc0       ??$read_va_arg@_W@__crt_stdio_output@@YA_WAAPAD@Z 1004bcc0 f i libucrtd:output.obj
 0001:0004ace0       ??$scratch_count@D@formatting_buffer@__crt_stdio_output@@QBEIXZ 1004bce0 f i libucrtd:output.obj
 0001:0004ad00       ??$scratch_data@D@formatting_buffer@__crt_stdio_output@@QAEPADXZ 1004bd00 f i libucrtd:output.obj
 0001:0004ad50       ??$type_case_integer@$07@?$output_processor@DV?$stream_output_adapter@D@__crt_stdio_output@@V?$format_validation_base@DV?$stream_output_adapter@D@__crt_stdio_output@@@2@@__crt_stdio_output@@AAE_N_N@Z 1004bd50 f i libucrtd:output.obj
 0001:0004b0b0       ??$type_case_integer@$07@?$output_processor@DV?$stream_output_adapter@D@__crt_stdio_output@@V?$positional_parameter_base@DV?$stream_output_adapter@D@__crt_stdio_output@@@2@@__crt_stdio_output@@AAE_N_N@Z 1004c0b0 f i libucrtd:output.obj
 0001:0004b410       ??$type_case_integer@$07@?$output_processor@DV?$stream_output_adapter@D@__crt_stdio_output@@V?$standard_base@DV?$stream_output_adapter@D@__crt_stdio_output@@@2@@__crt_stdio_output@@AAE_N_N@Z 1004c410 f i libucrtd:output.obj
 0001:0004b770       ??$type_case_integer@$07@?$output_processor@DV?$string_output_adapter@D@__crt_stdio_output@@V?$format_validation_base@DV?$string_output_adapter@D@__crt_stdio_output@@@2@@__crt_stdio_output@@AAE_N_N@Z 1004c770 f i libucrtd:output.obj
 0001:0004bad0       ??$type_case_integer@$07@?$output_processor@DV?$string_output_adapter@D@__crt_stdio_output@@V?$positional_parameter_base@DV?$string_output_adapter@D@__crt_stdio_output@@@2@@__crt_stdio_output@@AAE_N_N@Z 1004cad0 f i libucrtd:output.obj
 0001:0004be30       ??$type_case_integer@$07@?$output_processor@DV?$string_output_adapter@D@__crt_stdio_output@@V?$standard_base@DV?$string_output_adapter@D@__crt_stdio_output@@@2@@__crt_stdio_output@@AAE_N_N@Z 1004ce30 f i libucrtd:output.obj
 0001:0004c190       ??$type_case_integer@$07@?$output_processor@_WV?$stream_output_adapter@_W@__crt_stdio_output@@V?$format_validation_base@_WV?$stream_output_adapter@_W@__crt_stdio_output@@@2@@__crt_stdio_output@@AAE_N_N@Z 1004d190 f i libucrtd:output.obj
 0001:0004c4f0       ??$type_case_integer@$07@?$output_processor@_WV?$stream_output_adapter@_W@__crt_stdio_output@@V?$positional_parameter_base@_WV?$stream_output_adapter@_W@__crt_stdio_output@@@2@@__crt_stdio_output@@AAE_N_N@Z 1004d4f0 f i libucrtd:output.obj
 0001:0004c850       ??$type_case_integer@$07@?$output_processor@_WV?$stream_output_adapter@_W@__crt_stdio_output@@V?$standard_base@_WV?$stream_output_adapter@_W@__crt_stdio_output@@@2@@__crt_stdio_output@@AAE_N_N@Z 1004d850 f i libucrtd:output.obj
 0001:0004cbb0       ??$type_case_integer@$07@?$output_processor@_WV?$string_output_adapter@_W@__crt_stdio_output@@V?$format_validation_base@_WV?$string_output_adapter@_W@__crt_stdio_output@@@2@@__crt_stdio_output@@AAE_N_N@Z 1004dbb0 f i libucrtd:output.obj
 0001:0004cf10       ??$type_case_integer@$07@?$output_processor@_WV?$string_output_adapter@_W@__crt_stdio_output@@V?$positional_parameter_base@_WV?$string_output_adapter@_W@__crt_stdio_output@@@2@@__crt_stdio_output@@AAE_N_N@Z 1004df10 f i libucrtd:output.obj
 0001:0004d270       ??$type_case_integer@$07@?$output_processor@_WV?$string_output_adapter@_W@__crt_stdio_output@@V?$standard_base@_WV?$string_output_adapter@_W@__crt_stdio_output@@@2@@__crt_stdio_output@@AAE_N_N@Z 1004e270 f i libucrtd:output.obj
 0001:0004d5d0       ??$type_case_integer@$09@?$output_processor@DV?$stream_output_adapter@D@__crt_stdio_output@@V?$format_validation_base@DV?$stream_output_adapter@D@__crt_stdio_output@@@2@@__crt_stdio_output@@AAE_N_N@Z 1004e5d0 f i libucrtd:output.obj
 0001:0004d930       ??$type_case_integer@$09@?$output_processor@DV?$stream_output_adapter@D@__crt_stdio_output@@V?$positional_parameter_base@DV?$stream_output_adapter@D@__crt_stdio_output@@@2@@__crt_stdio_output@@AAE_N_N@Z 1004e930 f i libucrtd:output.obj
 0001:0004dc90       ??$type_case_integer@$09@?$output_processor@DV?$stream_output_adapter@D@__crt_stdio_output@@V?$standard_base@DV?$stream_output_adapter@D@__crt_stdio_output@@@2@@__crt_stdio_output@@AAE_N_N@Z 1004ec90 f i libucrtd:output.obj
 0001:0004dff0       ??$type_case_integer@$09@?$output_processor@DV?$string_output_adapter@D@__crt_stdio_output@@V?$format_validation_base@DV?$string_output_adapter@D@__crt_stdio_output@@@2@@__crt_stdio_output@@AAE_N_N@Z 1004eff0 f i libucrtd:output.obj
 0001:0004e350       ??$type_case_integer@$09@?$output_processor@DV?$string_output_adapter@D@__crt_stdio_output@@V?$positional_parameter_base@DV?$string_output_adapter@D@__crt_stdio_output@@@2@@__crt_stdio_output@@AAE_N_N@Z 1004f350 f i libucrtd:output.obj
 0001:0004e6b0       ??$type_case_integer@$09@?$output_processor@DV?$string_output_adapter@D@__crt_stdio_output@@V?$standard_base@DV?$string_output_adapter@D@__crt_stdio_output@@@2@@__crt_stdio_output@@AAE_N_N@Z 1004f6b0 f i libucrtd:output.obj
 0001:0004ea10       ??$type_case_integer@$09@?$output_processor@_WV?$stream_output_adapter@_W@__crt_stdio_output@@V?$format_validation_base@_WV?$stream_output_adapter@_W@__crt_stdio_output@@@2@@__crt_stdio_output@@AAE_N_N@Z 1004fa10 f i libucrtd:output.obj
 0001:0004ed70       ??$type_case_integer@$09@?$output_processor@_WV?$stream_output_adapter@_W@__crt_stdio_output@@V?$positional_parameter_base@_WV?$stream_output_adapter@_W@__crt_stdio_output@@@2@@__crt_stdio_output@@AAE_N_N@Z 1004fd70 f i libucrtd:output.obj
 0001:0004f0d0       ??$type_case_integer@$09@?$output_processor@_WV?$stream_output_adapter@_W@__crt_stdio_output@@V?$standard_base@_WV?$stream_output_adapter@_W@__crt_stdio_output@@@2@@__crt_stdio_output@@AAE_N_N@Z 100500d0 f i libucrtd:output.obj
 0001:0004f430       ??$type_case_integer@$09@?$output_processor@_WV?$string_output_adapter@_W@__crt_stdio_output@@V?$format_validation_base@_WV?$string_output_adapter@_W@__crt_stdio_output@@@2@@__crt_stdio_output@@AAE_N_N@Z 10050430 f i libucrtd:output.obj
 0001:0004f790       ??$type_case_integer@$09@?$output_processor@_WV?$string_output_adapter@_W@__crt_stdio_output@@V?$positional_parameter_base@_WV?$string_output_adapter@_W@__crt_stdio_output@@@2@@__crt_stdio_output@@AAE_N_N@Z 10050790 f i libucrtd:output.obj
 0001:0004faf0       ??$type_case_integer@$09@?$output_processor@_WV?$string_output_adapter@_W@__crt_stdio_output@@V?$standard_base@_WV?$string_output_adapter@_W@__crt_stdio_output@@@2@@__crt_stdio_output@@AAE_N_N@Z 10050af0 f i libucrtd:output.obj
 0001:0004fe50       ??$type_case_integer@$0BA@@?$output_processor@DV?$stream_output_adapter@D@__crt_stdio_output@@V?$format_validation_base@DV?$stream_output_adapter@D@__crt_stdio_output@@@2@@__crt_stdio_output@@AAE_N_N@Z 10050e50 f i libucrtd:output.obj
 0001:000501b0       ??$type_case_integer@$0BA@@?$output_processor@DV?$stream_output_adapter@D@__crt_stdio_output@@V?$positional_parameter_base@DV?$stream_output_adapter@D@__crt_stdio_output@@@2@@__crt_stdio_output@@AAE_N_N@Z 100511b0 f i libucrtd:output.obj
 0001:00050510       ??$type_case_integer@$0BA@@?$output_processor@DV?$stream_output_adapter@D@__crt_stdio_output@@V?$standard_base@DV?$stream_output_adapter@D@__crt_stdio_output@@@2@@__crt_stdio_output@@AAE_N_N@Z 10051510 f i libucrtd:output.obj
 0001:00050870       ??$type_case_integer@$0BA@@?$output_processor@DV?$string_output_adapter@D@__crt_stdio_output@@V?$format_validation_base@DV?$string_output_adapter@D@__crt_stdio_output@@@2@@__crt_stdio_output@@AAE_N_N@Z 10051870 f i libucrtd:output.obj
 0001:00050bd0       ??$type_case_integer@$0BA@@?$output_processor@DV?$string_output_adapter@D@__crt_stdio_output@@V?$positional_parameter_base@DV?$string_output_adapter@D@__crt_stdio_output@@@2@@__crt_stdio_output@@AAE_N_N@Z 10051bd0 f i libucrtd:output.obj
 0001:00050f30       ??$type_case_integer@$0BA@@?$output_processor@DV?$string_output_adapter@D@__crt_stdio_output@@V?$standard_base@DV?$string_output_adapter@D@__crt_stdio_output@@@2@@__crt_stdio_output@@AAE_N_N@Z 10051f30 f i libucrtd:output.obj
 0001:00051290       ??$type_case_integer@$0BA@@?$output_processor@_WV?$stream_output_adapter@_W@__crt_stdio_output@@V?$format_validation_base@_WV?$stream_output_adapter@_W@__crt_stdio_output@@@2@@__crt_stdio_output@@AAE_N_N@Z 10052290 f i libucrtd:output.obj
 0001:000515f0       ??$type_case_integer@$0BA@@?$output_processor@_WV?$stream_output_adapter@_W@__crt_stdio_output@@V?$positional_parameter_base@_WV?$stream_output_adapter@_W@__crt_stdio_output@@@2@@__crt_stdio_output@@AAE_N_N@Z 100525f0 f i libucrtd:output.obj
 0001:00051950       ??$type_case_integer@$0BA@@?$output_processor@_WV?$stream_output_adapter@_W@__crt_stdio_output@@V?$standard_base@_WV?$stream_output_adapter@_W@__crt_stdio_output@@@2@@__crt_stdio_output@@AAE_N_N@Z 10052950 f i libucrtd:output.obj
 0001:00051cb0       ??$type_case_integer@$0BA@@?$output_processor@_WV?$string_output_adapter@_W@__crt_stdio_output@@V?$format_validation_base@_WV?$string_output_adapter@_W@__crt_stdio_output@@@2@@__crt_stdio_output@@AAE_N_N@Z 10052cb0 f i libucrtd:output.obj
 0001:00052010       ??$type_case_integer@$0BA@@?$output_processor@_WV?$string_output_adapter@_W@__crt_stdio_output@@V?$positional_parameter_base@_WV?$string_output_adapter@_W@__crt_stdio_output@@@2@@__crt_stdio_output@@AAE_N_N@Z 10053010 f i libucrtd:output.obj
 0001:00052370       ??$type_case_integer@$0BA@@?$output_processor@_WV?$string_output_adapter@_W@__crt_stdio_output@@V?$standard_base@_WV?$string_output_adapter@_W@__crt_stdio_output@@@2@@__crt_stdio_output@@AAE_N_N@Z 10053370 f i libucrtd:output.obj
 0001:000526d0       ??$type_case_integer_parse_into_buffer@I$07@?$output_processor@DV?$stream_output_adapter@D@__crt_stdio_output@@V?$format_validation_base@DV?$stream_output_adapter@D@__crt_stdio_output@@@2@@__crt_stdio_output@@AAEXI_N@Z 100536d0 f i libucrtd:output.obj
 0001:000527a0       ??$type_case_integer_parse_into_buffer@I$07@?$output_processor@DV?$stream_output_adapter@D@__crt_stdio_output@@V?$positional_parameter_base@DV?$stream_output_adapter@D@__crt_stdio_output@@@2@@__crt_stdio_output@@AAEXI_N@Z 100537a0 f i libucrtd:output.obj
 0001:00052870       ??$type_case_integer_parse_into_buffer@I$07@?$output_processor@DV?$stream_output_adapter@D@__crt_stdio_output@@V?$standard_base@DV?$stream_output_adapter@D@__crt_stdio_output@@@2@@__crt_stdio_output@@AAEXI_N@Z 10053870 f i libucrtd:output.obj
 0001:00052940       ??$type_case_integer_parse_into_buffer@I$07@?$output_processor@DV?$string_output_adapter@D@__crt_stdio_output@@V?$format_validation_base@DV?$string_output_adapter@D@__crt_stdio_output@@@2@@__crt_stdio_output@@AAEXI_N@Z 10053940 f i libucrtd:output.obj
 0001:00052a10       ??$type_case_integer_parse_into_buffer@I$07@?$output_processor@DV?$string_output_adapter@D@__crt_stdio_output@@V?$positional_parameter_base@DV?$string_output_adapter@D@__crt_stdio_output@@@2@@__crt_stdio_output@@AAEXI_N@Z 10053a10 f i libucrtd:output.obj
 0001:00052ae0       ??$type_case_integer_parse_into_buffer@I$07@?$output_processor@DV?$string_output_adapter@D@__crt_stdio_output@@V?$standard_base@DV?$string_output_adapter@D@__crt_stdio_output@@@2@@__crt_stdio_output@@AAEXI_N@Z 10053ae0 f i libucrtd:output.obj
 0001:00052bb0       ??$type_case_integer_parse_into_buffer@I$07@?$output_processor@_WV?$stream_output_adapter@_W@__crt_stdio_output@@V?$format_validation_base@_WV?$stream_output_adapter@_W@__crt_stdio_output@@@2@@__crt_stdio_output@@AAEXI_N@Z 10053bb0 f i libucrtd:output.obj
 0001:00052c90       ??$type_case_integer_parse_into_buffer@I$07@?$output_processor@_WV?$stream_output_adapter@_W@__crt_stdio_output@@V?$positional_parameter_base@_WV?$stream_output_adapter@_W@__crt_stdio_output@@@2@@__crt_stdio_output@@AAEXI_N@Z 10053c90 f i libucrtd:output.obj
 0001:00052d70       ??$type_case_integer_parse_into_buffer@I$07@?$output_processor@_WV?$stream_output_adapter@_W@__crt_stdio_output@@V?$standard_base@_WV?$stream_output_adapter@_W@__crt_stdio_output@@@2@@__crt_stdio_output@@AAEXI_N@Z 10053d70 f i libucrtd:output.obj
 0001:00052e50       ??$type_case_integer_parse_into_buffer@I$07@?$output_processor@_WV?$string_output_adapter@_W@__crt_stdio_output@@V?$format_validation_base@_WV?$string_output_adapter@_W@__crt_stdio_output@@@2@@__crt_stdio_output@@AAEXI_N@Z 10053e50 f i libucrtd:output.obj
 0001:00052f30       ??$type_case_integer_parse_into_buffer@I$07@?$output_processor@_WV?$string_output_adapter@_W@__crt_stdio_output@@V?$positional_parameter_base@_WV?$string_output_adapter@_W@__crt_stdio_output@@@2@@__crt_stdio_output@@AAEXI_N@Z 10053f30 f i libucrtd:output.obj
 0001:00053010       ??$type_case_integer_parse_into_buffer@I$07@?$output_processor@_WV?$string_output_adapter@_W@__crt_stdio_output@@V?$standard_base@_WV?$string_output_adapter@_W@__crt_stdio_output@@@2@@__crt_stdio_output@@AAEXI_N@Z 10054010 f i libucrtd:output.obj
 0001:000530f0       ??$type_case_integer_parse_into_buffer@I$09@?$output_processor@DV?$stream_output_adapter@D@__crt_stdio_output@@V?$format_validation_base@DV?$stream_output_adapter@D@__crt_stdio_output@@@2@@__crt_stdio_output@@AAEXI_N@Z 100540f0 f i libucrtd:output.obj
 0001:000531d0       ??$type_case_integer_parse_into_buffer@I$09@?$output_processor@DV?$stream_output_adapter@D@__crt_stdio_output@@V?$positional_parameter_base@DV?$stream_output_adapter@D@__crt_stdio_output@@@2@@__crt_stdio_output@@AAEXI_N@Z 100541d0 f i libucrtd:output.obj
 0001:000532b0       ??$type_case_integer_parse_into_buffer@I$09@?$output_processor@DV?$stream_output_adapter@D@__crt_stdio_output@@V?$standard_base@DV?$stream_output_adapter@D@__crt_stdio_output@@@2@@__crt_stdio_output@@AAEXI_N@Z 100542b0 f i libucrtd:output.obj
 0001:00053390       ??$type_case_integer_parse_into_buffer@I$09@?$output_processor@DV?$string_output_adapter@D@__crt_stdio_output@@V?$format_validation_base@DV?$string_output_adapter@D@__crt_stdio_output@@@2@@__crt_stdio_output@@AAEXI_N@Z 10054390 f i libucrtd:output.obj
 0001:00053470       ??$type_case_integer_parse_into_buffer@I$09@?$output_processor@DV?$string_output_adapter@D@__crt_stdio_output@@V?$positional_parameter_base@DV?$string_output_adapter@D@__crt_stdio_output@@@2@@__crt_stdio_output@@AAEXI_N@Z 10054470 f i libucrtd:output.obj
 0001:00053550       ??$type_case_integer_parse_into_buffer@I$09@?$output_processor@DV?$string_output_adapter@D@__crt_stdio_output@@V?$standard_base@DV?$string_output_adapter@D@__crt_stdio_output@@@2@@__crt_stdio_output@@AAEXI_N@Z 10054550 f i libucrtd:output.obj
 0001:00053630       ??$type_case_integer_parse_into_buffer@I$09@?$output_processor@_WV?$stream_output_adapter@_W@__crt_stdio_output@@V?$format_validation_base@_WV?$stream_output_adapter@_W@__crt_stdio_output@@@2@@__crt_stdio_output@@AAEXI_N@Z 10054630 f i libucrtd:output.obj
 0001:00053720       ??$type_case_integer_parse_into_buffer@I$09@?$output_processor@_WV?$stream_output_adapter@_W@__crt_stdio_output@@V?$positional_parameter_base@_WV?$stream_output_adapter@_W@__crt_stdio_output@@@2@@__crt_stdio_output@@AAEXI_N@Z 10054720 f i libucrtd:output.obj
 0001:00053810       ??$type_case_integer_parse_into_buffer@I$09@?$output_processor@_WV?$stream_output_adapter@_W@__crt_stdio_output@@V?$standard_base@_WV?$stream_output_adapter@_W@__crt_stdio_output@@@2@@__crt_stdio_output@@AAEXI_N@Z 10054810 f i libucrtd:output.obj
 0001:00053900       ??$type_case_integer_parse_into_buffer@I$09@?$output_processor@_WV?$string_output_adapter@_W@__crt_stdio_output@@V?$format_validation_base@_WV?$string_output_adapter@_W@__crt_stdio_output@@@2@@__crt_stdio_output@@AAEXI_N@Z 10054900 f i libucrtd:output.obj
 0001:000539f0       ??$type_case_integer_parse_into_buffer@I$09@?$output_processor@_WV?$string_output_adapter@_W@__crt_stdio_output@@V?$positional_parameter_base@_WV?$string_output_adapter@_W@__crt_stdio_output@@@2@@__crt_stdio_output@@AAEXI_N@Z 100549f0 f i libucrtd:output.obj
 0001:00053ae0       ??$type_case_integer_parse_into_buffer@I$09@?$output_processor@_WV?$string_output_adapter@_W@__crt_stdio_output@@V?$standard_base@_WV?$string_output_adapter@_W@__crt_stdio_output@@@2@@__crt_stdio_output@@AAEXI_N@Z 10054ae0 f i libucrtd:output.obj
 0001:00053bd0       ??$type_case_integer_parse_into_buffer@I$0BA@@?$output_processor@DV?$stream_output_adapter@D@__crt_stdio_output@@V?$format_validation_base@DV?$stream_output_adapter@D@__crt_stdio_output@@@2@@__crt_stdio_output@@AAEXI_N@Z 10054bd0 f i libucrtd:output.obj
 0001:00053ca0       ??$type_case_integer_parse_into_buffer@I$0BA@@?$output_processor@DV?$stream_output_adapter@D@__crt_stdio_output@@V?$positional_parameter_base@DV?$stream_output_adapter@D@__crt_stdio_output@@@2@@__crt_stdio_output@@AAEXI_N@Z 10054ca0 f i libucrtd:output.obj
 0001:00053d70       ??$type_case_integer_parse_into_buffer@I$0BA@@?$output_processor@DV?$stream_output_adapter@D@__crt_stdio_output@@V?$standard_base@DV?$stream_output_adapter@D@__crt_stdio_output@@@2@@__crt_stdio_output@@AAEXI_N@Z 10054d70 f i libucrtd:output.obj
 0001:00053e40       ??$type_case_integer_parse_into_buffer@I$0BA@@?$output_processor@DV?$string_output_adapter@D@__crt_stdio_output@@V?$format_validation_base@DV?$string_output_adapter@D@__crt_stdio_output@@@2@@__crt_stdio_output@@AAEXI_N@Z 10054e40 f i libucrtd:output.obj
 0001:00053f10       ??$type_case_integer_parse_into_buffer@I$0BA@@?$output_processor@DV?$string_output_adapter@D@__crt_stdio_output@@V?$positional_parameter_base@DV?$string_output_adapter@D@__crt_stdio_output@@@2@@__crt_stdio_output@@AAEXI_N@Z 10054f10 f i libucrtd:output.obj
 0001:00053fe0       ??$type_case_integer_parse_into_buffer@I$0BA@@?$output_processor@DV?$string_output_adapter@D@__crt_stdio_output@@V?$standard_base@DV?$string_output_adapter@D@__crt_stdio_output@@@2@@__crt_stdio_output@@AAEXI_N@Z 10054fe0 f i libucrtd:output.obj
 0001:000540b0       ??$type_case_integer_parse_into_buffer@I$0BA@@?$output_processor@_WV?$stream_output_adapter@_W@__crt_stdio_output@@V?$format_validation_base@_WV?$stream_output_adapter@_W@__crt_stdio_output@@@2@@__crt_stdio_output@@AAEXI_N@Z 100550b0 f i libucrtd:output.obj
 0001:00054190       ??$type_case_integer_parse_into_buffer@I$0BA@@?$output_processor@_WV?$stream_output_adapter@_W@__crt_stdio_output@@V?$positional_parameter_base@_WV?$stream_output_adapter@_W@__crt_stdio_output@@@2@@__crt_stdio_output@@AAEXI_N@Z 10055190 f i libucrtd:output.obj
 0001:00054270       ??$type_case_integer_parse_into_buffer@I$0BA@@?$output_processor@_WV?$stream_output_adapter@_W@__crt_stdio_output@@V?$standard_base@_WV?$stream_output_adapter@_W@__crt_stdio_output@@@2@@__crt_stdio_output@@AAEXI_N@Z 10055270 f i libucrtd:output.obj
 0001:00054350       ??$type_case_integer_parse_into_buffer@I$0BA@@?$output_processor@_WV?$string_output_adapter@_W@__crt_stdio_output@@V?$format_validation_base@_WV?$string_output_adapter@_W@__crt_stdio_output@@@2@@__crt_stdio_output@@AAEXI_N@Z 10055350 f i libucrtd:output.obj
 0001:00054430       ??$type_case_integer_parse_into_buffer@I$0BA@@?$output_processor@_WV?$string_output_adapter@_W@__crt_stdio_output@@V?$positional_parameter_base@_WV?$string_output_adapter@_W@__crt_stdio_output@@@2@@__crt_stdio_output@@AAEXI_N@Z 10055430 f i libucrtd:output.obj
 0001:00054510       ??$type_case_integer_parse_into_buffer@I$0BA@@?$output_processor@_WV?$string_output_adapter@_W@__crt_stdio_output@@V?$standard_base@_WV?$string_output_adapter@_W@__crt_stdio_output@@@2@@__crt_stdio_output@@AAEXI_N@Z 10055510 f i libucrtd:output.obj
 0001:000545f0       ??$type_case_integer_parse_into_buffer@_K$07@?$output_processor@DV?$stream_output_adapter@D@__crt_stdio_output@@V?$format_validation_base@DV?$stream_output_adapter@D@__crt_stdio_output@@@2@@__crt_stdio_output@@AAEX_K_N@Z 100555f0 f i libucrtd:output.obj
 0001:000546e0       ??$type_case_integer_parse_into_buffer@_K$07@?$output_processor@DV?$stream_output_adapter@D@__crt_stdio_output@@V?$positional_parameter_base@DV?$stream_output_adapter@D@__crt_stdio_output@@@2@@__crt_stdio_output@@AAEX_K_N@Z 100556e0 f i libucrtd:output.obj
 0001:000547d0       ??$type_case_integer_parse_into_buffer@_K$07@?$output_processor@DV?$stream_output_adapter@D@__crt_stdio_output@@V?$standard_base@DV?$stream_output_adapter@D@__crt_stdio_output@@@2@@__crt_stdio_output@@AAEX_K_N@Z 100557d0 f i libucrtd:output.obj
 0001:000548c0       ??$type_case_integer_parse_into_buffer@_K$07@?$output_processor@DV?$string_output_adapter@D@__crt_stdio_output@@V?$format_validation_base@DV?$string_output_adapter@D@__crt_stdio_output@@@2@@__crt_stdio_output@@AAEX_K_N@Z 100558c0 f i libucrtd:output.obj
 0001:000549b0       ??$type_case_integer_parse_into_buffer@_K$07@?$output_processor@DV?$string_output_adapter@D@__crt_stdio_output@@V?$positional_parameter_base@DV?$string_output_adapter@D@__crt_stdio_output@@@2@@__crt_stdio_output@@AAEX_K_N@Z 100559b0 f i libucrtd:output.obj
 0001:00054aa0       ??$type_case_integer_parse_into_buffer@_K$07@?$output_processor@DV?$string_output_adapter@D@__crt_stdio_output@@V?$standard_base@DV?$string_output_adapter@D@__crt_stdio_output@@@2@@__crt_stdio_output@@AAEX_K_N@Z 10055aa0 f i libucrtd:output.obj
 0001:00054b90       ??$type_case_integer_parse_into_buffer@_K$07@?$output_processor@_WV?$stream_output_adapter@_W@__crt_stdio_output@@V?$format_validation_base@_WV?$stream_output_adapter@_W@__crt_stdio_output@@@2@@__crt_stdio_output@@AAEX_K_N@Z 10055b90 f i libucrtd:output.obj
 0001:00054c90       ??$type_case_integer_parse_into_buffer@_K$07@?$output_processor@_WV?$stream_output_adapter@_W@__crt_stdio_output@@V?$positional_parameter_base@_WV?$stream_output_adapter@_W@__crt_stdio_output@@@2@@__crt_stdio_output@@AAEX_K_N@Z 10055c90 f i libucrtd:output.obj
 0001:00054d90       ??$type_case_integer_parse_into_buffer@_K$07@?$output_processor@_WV?$stream_output_adapter@_W@__crt_stdio_output@@V?$standard_base@_WV?$stream_output_adapter@_W@__crt_stdio_output@@@2@@__crt_stdio_output@@AAEX_K_N@Z 10055d90 f i libucrtd:output.obj
 0001:00054e90       ??$type_case_integer_parse_into_buffer@_K$07@?$output_processor@_WV?$string_output_adapter@_W@__crt_stdio_output@@V?$format_validation_base@_WV?$string_output_adapter@_W@__crt_stdio_output@@@2@@__crt_stdio_output@@AAEX_K_N@Z 10055e90 f i libucrtd:output.obj
 0001:00054f90       ??$type_case_integer_parse_into_buffer@_K$07@?$output_processor@_WV?$string_output_adapter@_W@__crt_stdio_output@@V?$positional_parameter_base@_WV?$string_output_adapter@_W@__crt_stdio_output@@@2@@__crt_stdio_output@@AAEX_K_N@Z 10055f90 f i libucrtd:output.obj
 0001:00055090       ??$type_case_integer_parse_into_buffer@_K$07@?$output_processor@_WV?$string_output_adapter@_W@__crt_stdio_output@@V?$standard_base@_WV?$string_output_adapter@_W@__crt_stdio_output@@@2@@__crt_stdio_output@@AAEX_K_N@Z 10056090 f i libucrtd:output.obj
 0001:00055190       ??$type_case_integer_parse_into_buffer@_K$09@?$output_processor@DV?$stream_output_adapter@D@__crt_stdio_output@@V?$format_validation_base@DV?$stream_output_adapter@D@__crt_stdio_output@@@2@@__crt_stdio_output@@AAEX_K_N@Z 10056190 f i libucrtd:output.obj
 0001:00055280       ??$type_case_integer_parse_into_buffer@_K$09@?$output_processor@DV?$stream_output_adapter@D@__crt_stdio_output@@V?$positional_parameter_base@DV?$stream_output_adapter@D@__crt_stdio_output@@@2@@__crt_stdio_output@@AAEX_K_N@Z 10056280 f i libucrtd:output.obj
 0001:00055370       ??$type_case_integer_parse_into_buffer@_K$09@?$output_processor@DV?$stream_output_adapter@D@__crt_stdio_output@@V?$standard_base@DV?$stream_output_adapter@D@__crt_stdio_output@@@2@@__crt_stdio_output@@AAEX_K_N@Z 10056370 f i libucrtd:output.obj
 0001:00055460       ??$type_case_integer_parse_into_buffer@_K$09@?$output_processor@DV?$string_output_adapter@D@__crt_stdio_output@@V?$format_validation_base@DV?$string_output_adapter@D@__crt_stdio_output@@@2@@__crt_stdio_output@@AAEX_K_N@Z 10056460 f i libucrtd:output.obj
 0001:00055550       ??$type_case_integer_parse_into_buffer@_K$09@?$output_processor@DV?$string_output_adapter@D@__crt_stdio_output@@V?$positional_parameter_base@DV?$string_output_adapter@D@__crt_stdio_output@@@2@@__crt_stdio_output@@AAEX_K_N@Z 10056550 f i libucrtd:output.obj
 0001:00055640       ??$type_case_integer_parse_into_buffer@_K$09@?$output_processor@DV?$string_output_adapter@D@__crt_stdio_output@@V?$standard_base@DV?$string_output_adapter@D@__crt_stdio_output@@@2@@__crt_stdio_output@@AAEX_K_N@Z 10056640 f i libucrtd:output.obj
 0001:00055730       ??$type_case_integer_parse_into_buffer@_K$09@?$output_processor@_WV?$stream_output_adapter@_W@__crt_stdio_output@@V?$format_validation_base@_WV?$stream_output_adapter@_W@__crt_stdio_output@@@2@@__crt_stdio_output@@AAEX_K_N@Z 10056730 f i libucrtd:output.obj
 0001:00055830       ??$type_case_integer_parse_into_buffer@_K$09@?$output_processor@_WV?$stream_output_adapter@_W@__crt_stdio_output@@V?$positional_parameter_base@_WV?$stream_output_adapter@_W@__crt_stdio_output@@@2@@__crt_stdio_output@@AAEX_K_N@Z 10056830 f i libucrtd:output.obj
 0001:00055930       ??$type_case_integer_parse_into_buffer@_K$09@?$output_processor@_WV?$stream_output_adapter@_W@__crt_stdio_output@@V?$standard_base@_WV?$stream_output_adapter@_W@__crt_stdio_output@@@2@@__crt_stdio_output@@AAEX_K_N@Z 10056930 f i libucrtd:output.obj
 0001:00055a30       ??$type_case_integer_parse_into_buffer@_K$09@?$output_processor@_WV?$string_output_adapter@_W@__crt_stdio_output@@V?$format_validation_base@_WV?$string_output_adapter@_W@__crt_stdio_output@@@2@@__crt_stdio_output@@AAEX_K_N@Z 10056a30 f i libucrtd:output.obj
 0001:00055b30       ??$type_case_integer_parse_into_buffer@_K$09@?$output_processor@_WV?$string_output_adapter@_W@__crt_stdio_output@@V?$positional_parameter_base@_WV?$string_output_adapter@_W@__crt_stdio_output@@@2@@__crt_stdio_output@@AAEX_K_N@Z 10056b30 f i libucrtd:output.obj
 0001:00055c30       ??$type_case_integer_parse_into_buffer@_K$09@?$output_processor@_WV?$string_output_adapter@_W@__crt_stdio_output@@V?$standard_base@_WV?$string_output_adapter@_W@__crt_stdio_output@@@2@@__crt_stdio_output@@AAEX_K_N@Z 10056c30 f i libucrtd:output.obj
 0001:00055d30       ??$type_case_integer_parse_into_buffer@_K$0BA@@?$output_processor@DV?$stream_output_adapter@D@__crt_stdio_output@@V?$format_validation_base@DV?$stream_output_adapter@D@__crt_stdio_output@@@2@@__crt_stdio_output@@AAEX_K_N@Z 10056d30 f i libucrtd:output.obj
 0001:00055e20       ??$type_case_integer_parse_into_buffer@_K$0BA@@?$output_processor@DV?$stream_output_adapter@D@__crt_stdio_output@@V?$positional_parameter_base@DV?$stream_output_adapter@D@__crt_stdio_output@@@2@@__crt_stdio_output@@AAEX_K_N@Z 10056e20 f i libucrtd:output.obj
 0001:00055f10       ??$type_case_integer_parse_into_buffer@_K$0BA@@?$output_processor@DV?$stream_output_adapter@D@__crt_stdio_output@@V?$standard_base@DV?$stream_output_adapter@D@__crt_stdio_output@@@2@@__crt_stdio_output@@AAEX_K_N@Z 10056f10 f i libucrtd:output.obj
 0001:00056000       ??$type_case_integer_parse_into_buffer@_K$0BA@@?$output_processor@DV?$string_output_adapter@D@__crt_stdio_output@@V?$format_validation_base@DV?$string_output_adapter@D@__crt_stdio_output@@@2@@__crt_stdio_output@@AAEX_K_N@Z 10057000 f i libucrtd:output.obj
 0001:000560f0       ??$type_case_integer_parse_into_buffer@_K$0BA@@?$output_processor@DV?$string_output_adapter@D@__crt_stdio_output@@V?$positional_parameter_base@DV?$string_output_adapter@D@__crt_stdio_output@@@2@@__crt_stdio_output@@AAEX_K_N@Z 100570f0 f i libucrtd:output.obj
 0001:000561e0       ??$type_case_integer_parse_into_buffer@_K$0BA@@?$output_processor@DV?$string_output_adapter@D@__crt_stdio_output@@V?$standard_base@DV?$string_output_adapter@D@__crt_stdio_output@@@2@@__crt_stdio_output@@AAEX_K_N@Z 100571e0 f i libucrtd:output.obj
 0001:000562d0       ??$type_case_integer_parse_into_buffer@_K$0BA@@?$output_processor@_WV?$stream_output_adapter@_W@__crt_stdio_output@@V?$format_validation_base@_WV?$stream_output_adapter@_W@__crt_stdio_output@@@2@@__crt_stdio_output@@AAEX_K_N@Z 100572d0 f i libucrtd:output.obj
 0001:000563d0       ??$type_case_integer_parse_into_buffer@_K$0BA@@?$output_processor@_WV?$stream_output_adapter@_W@__crt_stdio_output@@V?$positional_parameter_base@_WV?$stream_output_adapter@_W@__crt_stdio_output@@@2@@__crt_stdio_output@@AAEX_K_N@Z 100573d0 f i libucrtd:output.obj
 0001:000564d0       ??$type_case_integer_parse_into_buffer@_K$0BA@@?$output_processor@_WV?$stream_output_adapter@_W@__crt_stdio_output@@V?$standard_base@_WV?$stream_output_adapter@_W@__crt_stdio_output@@@2@@__crt_stdio_output@@AAEX_K_N@Z 100574d0 f i libucrtd:output.obj
 0001:000565d0       ??$type_case_integer_parse_into_buffer@_K$0BA@@?$output_processor@_WV?$string_output_adapter@_W@__crt_stdio_output@@V?$format_validation_base@_WV?$string_output_adapter@_W@__crt_stdio_output@@@2@@__crt_stdio_output@@AAEX_K_N@Z 100575d0 f i libucrtd:output.obj
 0001:000566d0       ??$type_case_integer_parse_into_buffer@_K$0BA@@?$output_processor@_WV?$string_output_adapter@_W@__crt_stdio_output@@V?$positional_parameter_base@_WV?$string_output_adapter@_W@__crt_stdio_output@@@2@@__crt_stdio_output@@AAEX_K_N@Z 100576d0 f i libucrtd:output.obj
 0001:000567d0       ??$type_case_integer_parse_into_buffer@_K$0BA@@?$output_processor@_WV?$string_output_adapter@_W@__crt_stdio_output@@V?$standard_base@_WV?$string_output_adapter@_W@__crt_stdio_output@@@2@@__crt_stdio_output@@AAEX_K_N@Z 100577d0 f i libucrtd:output.obj
 0001:000568d0       ??$write_multiple_characters@V?$stream_output_adapter@D@__crt_stdio_output@@D@__crt_stdio_output@@YAXABV?$stream_output_adapter@D@0@DHQAHAAV__crt_cached_ptd_host@@@Z 100578d0 f i libucrtd:output.obj
 0001:00056920       ??$write_multiple_characters@V?$stream_output_adapter@_W@__crt_stdio_output@@D@__crt_stdio_output@@YAXABV?$stream_output_adapter@_W@0@DHQAHAAV__crt_cached_ptd_host@@@Z 10057920 f i libucrtd:output.obj
 0001:00056970       ??$write_multiple_characters@V?$string_output_adapter@D@__crt_stdio_output@@D@__crt_stdio_output@@YAXABV?$string_output_adapter@D@0@DHQAHAAV__crt_cached_ptd_host@@@Z 10057970 f i libucrtd:output.obj
 0001:000569c0       ??$write_multiple_characters@V?$string_output_adapter@_W@__crt_stdio_output@@D@__crt_stdio_output@@YAXABV?$string_output_adapter@_W@0@DHQAHAAV__crt_cached_ptd_host@@@Z 100579c0 f i libucrtd:output.obj
 0001:00056d10       ??0?$c_string_character_source@D@__crt_strtox@@QAE@QBDQAPBD@Z 10057d10 f i libucrtd:output.obj
 0001:00056d50       ??0?$c_string_character_source@_W@__crt_strtox@@QAE@QB_WQAPB_W@Z 10057d50 f i libucrtd:output.obj
 0001:00056d90       ??0?$cached@H@__crt_cached_ptd_host@@QAE@XZ 10057d90 f i libucrtd:output.obj
 0001:00056db0       ??0?$cached@K@__crt_cached_ptd_host@@QAE@XZ 10057db0 f i libucrtd:output.obj
 0001:00056dd0       ??0?$common_data@D@__crt_stdio_output@@IAE@AAV__crt_cached_ptd_host@@@Z 10057dd0 f i libucrtd:output.obj
 0001:00056e70       ??0?$common_data@_W@__crt_stdio_output@@IAE@AAV__crt_cached_ptd_host@@@Z 10057e70 f i libucrtd:output.obj
 0001:00056f10       ??0?$output_adapter_data@DV?$stream_output_adapter@D@__crt_stdio_output@@@__crt_stdio_output@@IAE@ABV?$stream_output_adapter@D@1@_KQBDAAV__crt_cached_ptd_host@@QAD@Z 10057f10 f i libucrtd:output.obj
 0001:00056f90       ??0?$output_adapter_data@DV?$string_output_adapter@D@__crt_stdio_output@@@__crt_stdio_output@@IAE@ABV?$string_output_adapter@D@1@_KQBDAAV__crt_cached_ptd_host@@QAD@Z 10057f90 f i libucrtd:output.obj
 0001:00057010       ??0?$output_adapter_data@_WV?$stream_output_adapter@_W@__crt_stdio_output@@@__crt_stdio_output@@IAE@ABV?$stream_output_adapter@_W@1@_KQB_WAAV__crt_cached_ptd_host@@QAD@Z 10058010 f i libucrtd:output.obj
 0001:00057090       ??0?$output_adapter_data@_WV?$string_output_adapter@_W@__crt_stdio_output@@@__crt_stdio_output@@IAE@ABV?$string_output_adapter@_W@1@_KQB_WAAV__crt_cached_ptd_host@@QAD@Z 10058090 f i libucrtd:output.obj
 0001:00057110       ??0?$output_processor@DV?$stream_output_adapter@D@__crt_stdio_output@@V?$format_validation_base@DV?$stream_output_adapter@D@__crt_stdio_output@@@2@@__crt_stdio_output@@QAE@ABV?$stream_output_adapter@D@1@_KQBDAAV__crt_cached_ptd_host@@QAD@Z 10058110 f i libucrtd:output.obj
 0001:00057140       ??0?$output_processor@DV?$stream_output_adapter@D@__crt_stdio_output@@V?$positional_parameter_base@DV?$stream_output_adapter@D@__crt_stdio_output@@@2@@__crt_stdio_output@@QAE@ABV?$stream_output_adapter@D@1@_KQBDAAV__crt_cached_ptd_host@@QAD@Z 10058140 f i libucrtd:output.obj
 0001:00057170       ??0?$output_processor@DV?$stream_output_adapter@D@__crt_stdio_output@@V?$standard_base@DV?$stream_output_adapter@D@__crt_stdio_output@@@2@@__crt_stdio_output@@QAE@ABV?$stream_output_adapter@D@1@_KQBDAAV__crt_cached_ptd_host@@QAD@Z 10058170 f i libucrtd:output.obj
 0001:000571a0       ??0?$output_processor@DV?$string_output_adapter@D@__crt_stdio_output@@V?$format_validation_base@DV?$string_output_adapter@D@__crt_stdio_output@@@2@@__crt_stdio_output@@QAE@ABV?$string_output_adapter@D@1@_KQBDAAV__crt_cached_ptd_host@@QAD@Z 100581a0 f i libucrtd:output.obj
 0001:000571d0       ??0?$output_processor@DV?$string_output_adapter@D@__crt_stdio_output@@V?$positional_parameter_base@DV?$string_output_adapter@D@__crt_stdio_output@@@2@@__crt_stdio_output@@QAE@ABV?$string_output_adapter@D@1@_KQBDAAV__crt_cached_ptd_host@@QAD@Z 100581d0 f i libucrtd:output.obj
 0001:00057200       ??0?$output_processor@DV?$string_output_adapter@D@__crt_stdio_output@@V?$standard_base@DV?$string_output_adapter@D@__crt_stdio_output@@@2@@__crt_stdio_output@@QAE@ABV?$string_output_adapter@D@1@_KQBDAAV__crt_cached_ptd_host@@QAD@Z 10058200 f i libucrtd:output.obj
 0001:00057230       ??0?$output_processor@_WV?$stream_output_adapter@_W@__crt_stdio_output@@V?$format_validation_base@_WV?$stream_output_adapter@_W@__crt_stdio_output@@@2@@__crt_stdio_output@@QAE@ABV?$stream_output_adapter@_W@1@_KQB_WAAV__crt_cached_ptd_host@@QAD@Z 10058230 f i libucrtd:output.obj
 0001:00057260       ??0?$output_processor@_WV?$stream_output_adapter@_W@__crt_stdio_output@@V?$positional_parameter_base@_WV?$stream_output_adapter@_W@__crt_stdio_output@@@2@@__crt_stdio_output@@QAE@ABV?$stream_output_adapter@_W@1@_KQB_WAAV__crt_cached_ptd_host@@QAD@Z 10058260 f i libucrtd:output.obj
 0001:00057290       ??0?$output_processor@_WV?$stream_output_adapter@_W@__crt_stdio_output@@V?$standard_base@_WV?$stream_output_adapter@_W@__crt_stdio_output@@@2@@__crt_stdio_output@@QAE@ABV?$stream_output_adapter@_W@1@_KQB_WAAV__crt_cached_ptd_host@@QAD@Z 10058290 f i libucrtd:output.obj
 0001:000572c0       ??0?$output_processor@_WV?$string_output_adapter@_W@__crt_stdio_output@@V?$format_validation_base@_WV?$string_output_adapter@_W@__crt_stdio_output@@@2@@__crt_stdio_output@@QAE@ABV?$string_output_adapter@_W@1@_KQB_WAAV__crt_cached_ptd_host@@QAD@Z 100582c0 f i libucrtd:output.obj
 0001:000572f0       ??0?$output_processor@_WV?$string_output_adapter@_W@__crt_stdio_output@@V?$positional_parameter_base@_WV?$string_output_adapter@_W@__crt_stdio_output@@@2@@__crt_stdio_output@@QAE@ABV?$string_output_adapter@_W@1@_KQB_WAAV__crt_cached_ptd_host@@QAD@Z 100582f0 f i libucrtd:output.obj
 0001:00057320       ??0?$output_processor@_WV?$string_output_adapter@_W@__crt_stdio_output@@V?$standard_base@_WV?$string_output_adapter@_W@__crt_stdio_output@@@2@@__crt_stdio_output@@QAE@ABV?$string_output_adapter@_W@1@_KQB_WAAV__crt_cached_ptd_host@@QAD@Z 10058320 f i libucrtd:output.obj
 0001:00057350       ??0?$stream_output_adapter@D@__crt_stdio_output@@QAE@QAU_iobuf@@@Z 10058350 f i libucrtd:output.obj
 0001:00057380       ??0?$stream_output_adapter@_W@__crt_stdio_output@@QAE@QAU_iobuf@@@Z 10058380 f i libucrtd:output.obj
 0001:000573b0       ??0?$string_output_adapter@D@__crt_stdio_output@@QAE@QAU?$string_output_adapter_context@D@1@@Z 100583b0 f i libucrtd:output.obj
 0001:000573d0       ??0?$string_output_adapter@_W@__crt_stdio_output@@QAE@QAU?$string_output_adapter_context@_W@1@@Z 100583d0 f i libucrtd:output.obj
 0001:000573f0       ??0__acrt_stdio_temporary_buffering_guard@@QAE@QAU_iobuf@@AAV__crt_cached_ptd_host@@@Z 100583f0 f i libucrtd:output.obj
 0001:00057430       ??0__crt_cached_ptd_host@@QAE@QAU__crt_locale_pointers@@@Z 10058430 f i libucrtd:output.obj
 0001:000574c0       ??0__crt_scoped_get_last_error_reset@@QAE@XZ 100584c0 f i libucrtd:output.obj
 0001:000574e0       ??0__crt_stdio_stream@@QAE@QAU_iobuf@@@Z 100584e0 f i libucrtd:output.obj
 0001:00057500       ??0formatting_buffer@__crt_stdio_output@@QAE@XZ 10058500 f i libucrtd:output.obj
 0001:00057540       ??0guard@?$cached@H@__crt_cached_ptd_host@@QAE@AAU12@@Z 10058540 f i libucrtd:output.obj
 0001:00057580       ??1?$c_string_character_source@D@__crt_strtox@@QAE@XZ 10058580 f i libucrtd:output.obj
 0001:000575b0       ??1?$c_string_character_source@_W@__crt_strtox@@QAE@XZ 100585b0 f i libucrtd:output.obj
 0001:000575e0       ??1?$common_data@D@__crt_stdio_output@@QAE@XZ 100585e0 f i libucrtd:output.obj
 0001:00057600       ??1?$common_data@_W@__crt_stdio_output@@QAE@XZ 10058600 f i libucrtd:output.obj
 0001:00057620       ??1?$format_validation_base@DV?$stream_output_adapter@D@__crt_stdio_output@@@__crt_stdio_output@@QAE@XZ 10058620 f i libucrtd:output.obj
 0001:00057640       ??1?$format_validation_base@DV?$string_output_adapter@D@__crt_stdio_output@@@__crt_stdio_output@@QAE@XZ 10058640 f i libucrtd:output.obj
 0001:00057660       ??1?$format_validation_base@_WV?$stream_output_adapter@_W@__crt_stdio_output@@@__crt_stdio_output@@QAE@XZ 10058660 f i libucrtd:output.obj
 0001:00057680       ??1?$format_validation_base@_WV?$string_output_adapter@_W@__crt_stdio_output@@@__crt_stdio_output@@QAE@XZ 10058680 f i libucrtd:output.obj
 0001:000576a0       ??1?$output_adapter_data@DV?$stream_output_adapter@D@__crt_stdio_output@@@__crt_stdio_output@@QAE@XZ 100586a0 f i libucrtd:output.obj
 0001:000576c0       ??1?$output_adapter_data@DV?$string_output_adapter@D@__crt_stdio_output@@@__crt_stdio_output@@QAE@XZ 100586c0 f i libucrtd:output.obj
 0001:000576e0       ??1?$output_adapter_data@_WV?$stream_output_adapter@_W@__crt_stdio_output@@@__crt_stdio_output@@QAE@XZ 100586e0 f i libucrtd:output.obj
 0001:00057700       ??1?$output_adapter_data@_WV?$string_output_adapter@_W@__crt_stdio_output@@@__crt_stdio_output@@QAE@XZ 10058700 f i libucrtd:output.obj
 0001:00057720       ??1?$output_processor@DV?$stream_output_adapter@D@__crt_stdio_output@@V?$format_validation_base@DV?$stream_output_adapter@D@__crt_stdio_output@@@2@@__crt_stdio_output@@QAE@XZ 10058720 f i libucrtd:output.obj
 0001:00057740       ??1?$output_processor@DV?$stream_output_adapter@D@__crt_stdio_output@@V?$positional_parameter_base@DV?$stream_output_adapter@D@__crt_stdio_output@@@2@@__crt_stdio_output@@QAE@XZ 10058740 f i libucrtd:output.obj
 0001:00057760       ??1?$output_processor@DV?$stream_output_adapter@D@__crt_stdio_output@@V?$standard_base@DV?$stream_output_adapter@D@__crt_stdio_output@@@2@@__crt_stdio_output@@QAE@XZ 10058760 f i libucrtd:output.obj
 0001:00057780       ??1?$output_processor@DV?$string_output_adapter@D@__crt_stdio_output@@V?$format_validation_base@DV?$string_output_adapter@D@__crt_stdio_output@@@2@@__crt_stdio_output@@QAE@XZ 10058780 f i libucrtd:output.obj
 0001:000577a0       ??1?$output_processor@DV?$string_output_adapter@D@__crt_stdio_output@@V?$positional_parameter_base@DV?$string_output_adapter@D@__crt_stdio_output@@@2@@__crt_stdio_output@@QAE@XZ 100587a0 f i libucrtd:output.obj
 0001:000577c0       ??1?$output_processor@DV?$string_output_adapter@D@__crt_stdio_output@@V?$standard_base@DV?$string_output_adapter@D@__crt_stdio_output@@@2@@__crt_stdio_output@@QAE@XZ 100587c0 f i libucrtd:output.obj
 0001:000577e0       ??1?$output_processor@_WV?$stream_output_adapter@_W@__crt_stdio_output@@V?$format_validation_base@_WV?$stream_output_adapter@_W@__crt_stdio_output@@@2@@__crt_stdio_output@@QAE@XZ 100587e0 f i libucrtd:output.obj
 0001:00057800       ??1?$output_processor@_WV?$stream_output_adapter@_W@__crt_stdio_output@@V?$positional_parameter_base@_WV?$stream_output_adapter@_W@__crt_stdio_output@@@2@@__crt_stdio_output@@QAE@XZ 10058800 f i libucrtd:output.obj
 0001:00057820       ??1?$output_processor@_WV?$stream_output_adapter@_W@__crt_stdio_output@@V?$standard_base@_WV?$stream_output_adapter@_W@__crt_stdio_output@@@2@@__crt_stdio_output@@QAE@XZ 10058820 f i libucrtd:output.obj
 0001:00057840       ??1?$output_processor@_WV?$string_output_adapter@_W@__crt_stdio_output@@V?$format_validation_base@_WV?$string_output_adapter@_W@__crt_stdio_output@@@2@@__crt_stdio_output@@QAE@XZ 10058840 f i libucrtd:output.obj
 0001:00057860       ??1?$output_processor@_WV?$string_output_adapter@_W@__crt_stdio_output@@V?$positional_parameter_base@_WV?$string_output_adapter@_W@__crt_stdio_output@@@2@@__crt_stdio_output@@QAE@XZ 10058860 f i libucrtd:output.obj
 0001:00057880       ??1?$output_processor@_WV?$string_output_adapter@_W@__crt_stdio_output@@V?$standard_base@_WV?$string_output_adapter@_W@__crt_stdio_output@@@2@@__crt_stdio_output@@QAE@XZ 10058880 f i libucrtd:output.obj
 0001:000578a0       ??1?$positional_parameter_base@DV?$stream_output_adapter@D@__crt_stdio_output@@@__crt_stdio_output@@QAE@XZ 100588a0 f i libucrtd:output.obj
 0001:000578c0       ??1?$positional_parameter_base@DV?$string_output_adapter@D@__crt_stdio_output@@@__crt_stdio_output@@QAE@XZ 100588c0 f i libucrtd:output.obj
 0001:000578e0       ??1?$positional_parameter_base@_WV?$stream_output_adapter@_W@__crt_stdio_output@@@__crt_stdio_output@@QAE@XZ 100588e0 f i libucrtd:output.obj
 0001:00057900       ??1?$positional_parameter_base@_WV?$string_output_adapter@_W@__crt_stdio_output@@@__crt_stdio_output@@QAE@XZ 10058900 f i libucrtd:output.obj
 0001:00057920       ??1?$standard_base@DV?$stream_output_adapter@D@__crt_stdio_output@@@__crt_stdio_output@@QAE@XZ 10058920 f i libucrtd:output.obj
 0001:00057940       ??1?$standard_base@DV?$string_output_adapter@D@__crt_stdio_output@@@__crt_stdio_output@@QAE@XZ 10058940 f i libucrtd:output.obj
 0001:00057960       ??1?$standard_base@_WV?$stream_output_adapter@_W@__crt_stdio_output@@@__crt_stdio_output@@QAE@XZ 10058960 f i libucrtd:output.obj
 0001:00057980       ??1?$standard_base@_WV?$string_output_adapter@_W@__crt_stdio_output@@@__crt_stdio_output@@QAE@XZ 10058980 f i libucrtd:output.obj
 0001:000579a0       ??1__acrt_stdio_temporary_buffering_guard@@QAE@XZ 100589a0 f i libucrtd:output.obj
 0001:000579d0       ??1__crt_cached_ptd_host@@QAE@XZ 100589d0 f i libucrtd:output.obj
 0001:00057a60       ??1__crt_scoped_get_last_error_reset@@QAE@XZ 10058a60 f i libucrtd:output.obj
 0001:00057a80       ??1formatting_buffer@__crt_stdio_output@@QAE@XZ 10058a80 f i libucrtd:output.obj
 0001:00057aa0       ??1guard@?$cached@H@__crt_cached_ptd_host@@QAE@XZ 10058aa0 f i libucrtd:output.obj
 0001:00057ad0       ??4?$__crt_unique_heap_ptr@DU__crt_internal_free_policy@@@@QAEAAV0@$$QAV0@@Z 10058ad0 f i libucrtd:output.obj
 0001:00057b00       ??A?$spectre_mitigated_lookup_table@Ustate_transition_pair@__crt_stdio_output@@$0IA@@__crt_stdio_output@@QBEABUstate_transition_pair@1@I@Z 10058b00 f i libucrtd:output.obj
 0001:00057b20       ??C__crt_stdio_stream@@QBEPAU__crt_stdio_stream_data@@XZ 10058b20 f i libucrtd:output.obj
 0001:00058380       ?adjust_hexit@?$output_processor@DV?$stream_output_adapter@D@__crt_stdio_output@@V?$format_validation_base@DV?$stream_output_adapter@D@__crt_stdio_output@@@2@@__crt_stdio_output@@CADH_N@Z 10059380 f i libucrtd:output.obj
 0001:000583c0       ?adjust_hexit@?$output_processor@DV?$stream_output_adapter@D@__crt_stdio_output@@V?$positional_parameter_base@DV?$stream_output_adapter@D@__crt_stdio_output@@@2@@__crt_stdio_output@@CADH_N@Z 100593c0 f i libucrtd:output.obj
 0001:00058400       ?adjust_hexit@?$output_processor@DV?$stream_output_adapter@D@__crt_stdio_output@@V?$standard_base@DV?$stream_output_adapter@D@__crt_stdio_output@@@2@@__crt_stdio_output@@CADH_N@Z 10059400 f i libucrtd:output.obj
 0001:00058440       ?adjust_hexit@?$output_processor@DV?$string_output_adapter@D@__crt_stdio_output@@V?$format_validation_base@DV?$string_output_adapter@D@__crt_stdio_output@@@2@@__crt_stdio_output@@CADH_N@Z 10059440 f i libucrtd:output.obj
 0001:00058480       ?adjust_hexit@?$output_processor@DV?$string_output_adapter@D@__crt_stdio_output@@V?$positional_parameter_base@DV?$string_output_adapter@D@__crt_stdio_output@@@2@@__crt_stdio_output@@CADH_N@Z 10059480 f i libucrtd:output.obj
 0001:000584c0       ?adjust_hexit@?$output_processor@DV?$string_output_adapter@D@__crt_stdio_output@@V?$standard_base@DV?$string_output_adapter@D@__crt_stdio_output@@@2@@__crt_stdio_output@@CADH_N@Z 100594c0 f i libucrtd:output.obj
 0001:00058500       ?adjust_hexit@?$output_processor@_WV?$stream_output_adapter@_W@__crt_stdio_output@@V?$format_validation_base@_WV?$stream_output_adapter@_W@__crt_stdio_output@@@2@@__crt_stdio_output@@CADH_N@Z 10059500 f i libucrtd:output.obj
 0001:00058540       ?adjust_hexit@?$output_processor@_WV?$stream_output_adapter@_W@__crt_stdio_output@@V?$positional_parameter_base@_WV?$stream_output_adapter@_W@__crt_stdio_output@@@2@@__crt_stdio_output@@CADH_N@Z 10059540 f i libucrtd:output.obj
 0001:00058580       ?adjust_hexit@?$output_processor@_WV?$stream_output_adapter@_W@__crt_stdio_output@@V?$standard_base@_WV?$stream_output_adapter@_W@__crt_stdio_output@@@2@@__crt_stdio_output@@CADH_N@Z 10059580 f i libucrtd:output.obj
 0001:000585c0       ?adjust_hexit@?$output_processor@_WV?$string_output_adapter@_W@__crt_stdio_output@@V?$format_validation_base@_WV?$string_output_adapter@_W@__crt_stdio_output@@@2@@__crt_stdio_output@@CADH_N@Z 100595c0 f i libucrtd:output.obj
 0001:00058600       ?adjust_hexit@?$output_processor@_WV?$string_output_adapter@_W@__crt_stdio_output@@V?$positional_parameter_base@_WV?$string_output_adapter@_W@__crt_stdio_output@@@2@@__crt_stdio_output@@CADH_N@Z 10059600 f i libucrtd:output.obj
 0001:00058640       ?adjust_hexit@?$output_processor@_WV?$string_output_adapter@_W@__crt_stdio_output@@V?$standard_base@_WV?$string_output_adapter@_W@__crt_stdio_output@@@2@@__crt_stdio_output@@CADH_N@Z 10059640 f i libucrtd:output.obj
 0001:00058680       ?advance_to_next_pass@?$positional_parameter_base@DV?$stream_output_adapter@D@__crt_stdio_output@@@__crt_stdio_output@@IAE_NXZ 10059680 f i libucrtd:output.obj
 0001:00058720       ?advance_to_next_pass@?$positional_parameter_base@DV?$string_output_adapter@D@__crt_stdio_output@@@__crt_stdio_output@@IAE_NXZ 10059720 f i libucrtd:output.obj
 0001:000587c0       ?advance_to_next_pass@?$positional_parameter_base@_WV?$stream_output_adapter@_W@__crt_stdio_output@@@__crt_stdio_output@@IAE_NXZ 100597c0 f i libucrtd:output.obj
 0001:00058860       ?advance_to_next_pass@?$positional_parameter_base@_WV?$string_output_adapter@_W@__crt_stdio_output@@@__crt_stdio_output@@IAE_NXZ 10059860 f i libucrtd:output.obj
 0001:00058900       ?advance_to_next_pass@?$standard_base@DV?$stream_output_adapter@D@__crt_stdio_output@@@__crt_stdio_output@@IAE_NXZ 10059900 f i libucrtd:output.obj
 0001:00058950       ?advance_to_next_pass@?$standard_base@DV?$string_output_adapter@D@__crt_stdio_output@@@__crt_stdio_output@@IAE_NXZ 10059950 f i libucrtd:output.obj
 0001:000589a0       ?advance_to_next_pass@?$standard_base@_WV?$stream_output_adapter@_W@__crt_stdio_output@@@__crt_stdio_output@@IAE_NXZ 100599a0 f i libucrtd:output.obj
 0001:000589f0       ?advance_to_next_pass@?$standard_base@_WV?$string_output_adapter@_W@__crt_stdio_output@@@__crt_stdio_output@@IAE_NXZ 100599f0 f i libucrtd:output.obj
 0001:00058a40       ?check@?$cached@H@__crt_cached_ptd_host@@QBE_NH@Z 10059a40 f i libucrtd:output.obj
 0001:00058a80       ?check_synchronize_global_state_index@__crt_cached_ptd_host@@AAEIABV__crt_scoped_get_last_error_reset@@@Z 10059a80 f i libucrtd:output.obj
 0001:00058ab0       ?check_synchronize_per_thread_data@__crt_cached_ptd_host@@AAEPAU__acrt_ptd@@XZ 10059ab0 f i libucrtd:output.obj
 0001:00058ae0       ?create_guard@?$cached@H@__crt_cached_ptd_host@@QAE?AVguard@12@XZ 10059ae0 f i libucrtd:output.obj
 0001:00058b00       ?crop_zeroes@__crt_stdio_output@@YAXPADQAU__crt_locale_pointers@@@Z 10059b00 f i libucrtd:output.obj
 0001:00058c00       ?disable@guard@?$cached@H@__crt_cached_ptd_host@@QAEXXZ 10059c00 f i libucrtd:output.obj
 0001:00058c20       ?enable@guard@?$cached@H@__crt_cached_ptd_host@@QAEXXZ 10059c20 f i libucrtd:output.obj
 0001:00058c40       ?find_next_state@?$output_processor@DV?$stream_output_adapter@D@__crt_stdio_output@@V?$format_validation_base@DV?$stream_output_adapter@D@__crt_stdio_output@@@2@@__crt_stdio_output@@ABE?AW4state@2@DW432@@Z 10059c40 f i libucrtd:output.obj
 0001:00058ce0       ?find_next_state@?$output_processor@DV?$stream_output_adapter@D@__crt_stdio_output@@V?$positional_parameter_base@DV?$stream_output_adapter@D@__crt_stdio_output@@@2@@__crt_stdio_output@@ABE?AW4state@2@DW432@@Z 10059ce0 f i libucrtd:output.obj
 0001:00058d80       ?find_next_state@?$output_processor@DV?$stream_output_adapter@D@__crt_stdio_output@@V?$standard_base@DV?$stream_output_adapter@D@__crt_stdio_output@@@2@@__crt_stdio_output@@ABE?AW4state@2@DW432@@Z 10059d80 f i libucrtd:output.obj
 0001:00058e20       ?find_next_state@?$output_processor@DV?$string_output_adapter@D@__crt_stdio_output@@V?$format_validation_base@DV?$string_output_adapter@D@__crt_stdio_output@@@2@@__crt_stdio_output@@ABE?AW4state@2@DW432@@Z 10059e20 f i libucrtd:output.obj
 0001:00058ec0       ?find_next_state@?$output_processor@DV?$string_output_adapter@D@__crt_stdio_output@@V?$positional_parameter_base@DV?$string_output_adapter@D@__crt_stdio_output@@@2@@__crt_stdio_output@@ABE?AW4state@2@DW432@@Z 10059ec0 f i libucrtd:output.obj
 0001:00058f60       ?find_next_state@?$output_processor@DV?$string_output_adapter@D@__crt_stdio_output@@V?$standard_base@DV?$string_output_adapter@D@__crt_stdio_output@@@2@@__crt_stdio_output@@ABE?AW4state@2@DW432@@Z 10059f60 f i libucrtd:output.obj
 0001:00059000       ?find_next_state@?$output_processor@_WV?$stream_output_adapter@_W@__crt_stdio_output@@V?$format_validation_base@_WV?$stream_output_adapter@_W@__crt_stdio_output@@@2@@__crt_stdio_output@@ABE?AW4state@2@_WW432@@Z 1005a000 f i libucrtd:output.obj
 0001:000590a0       ?find_next_state@?$output_processor@_WV?$stream_output_adapter@_W@__crt_stdio_output@@V?$positional_parameter_base@_WV?$stream_output_adapter@_W@__crt_stdio_output@@@2@@__crt_stdio_output@@ABE?AW4state@2@_WW432@@Z 1005a0a0 f i libucrtd:output.obj
 0001:00059140       ?find_next_state@?$output_processor@_WV?$stream_output_adapter@_W@__crt_stdio_output@@V?$standard_base@_WV?$stream_output_adapter@_W@__crt_stdio_output@@@2@@__crt_stdio_output@@ABE?AW4state@2@_WW432@@Z 1005a140 f i libucrtd:output.obj
 0001:000591e0       ?find_next_state@?$output_processor@_WV?$string_output_adapter@_W@__crt_stdio_output@@V?$format_validation_base@_WV?$string_output_adapter@_W@__crt_stdio_output@@@2@@__crt_stdio_output@@ABE?AW4state@2@_WW432@@Z 1005a1e0 f i libucrtd:output.obj
 0001:00059280       ?find_next_state@?$output_processor@_WV?$string_output_adapter@_W@__crt_stdio_output@@V?$positional_parameter_base@_WV?$string_output_adapter@_W@__crt_stdio_output@@@2@@__crt_stdio_output@@ABE?AW4state@2@_WW432@@Z 1005a280 f i libucrtd:output.obj
 0001:00059320       ?find_next_state@?$output_processor@_WV?$string_output_adapter@_W@__crt_stdio_output@@V?$standard_base@_WV?$string_output_adapter@_W@__crt_stdio_output@@@2@@__crt_stdio_output@@ABE?AW4state@2@_WW432@@Z 1005a320 f i libucrtd:output.obj
 0001:000593c0       ?force_decimal_point@__crt_stdio_output@@YAXPADQAU__crt_locale_pointers@@@Z 1005a3c0 f i libucrtd:output.obj
 0001:00059490       ?force_synchronize_global_state_index@__crt_cached_ptd_host@@AAEIABV__crt_scoped_get_last_error_reset@@@Z 1005a490 f i libucrtd:output.obj
 0001:000594c0       ?force_synchronize_per_thread_data@__crt_cached_ptd_host@@AAEPAU__acrt_ptd@@XZ 1005a4c0 f i libucrtd:output.obj
 0001:00059510       ?get@?$c_string_character_source@D@__crt_strtox@@QAEDXZ 1005a510 f i libucrtd:output.obj
 0001:00059540       ?get@?$c_string_character_source@_W@__crt_strtox@@QAE_WXZ 1005a540 f i libucrtd:output.obj
 0001:00059570       ?get_current_state_index@__crt_state_management@@YAIABV__crt_scoped_get_last_error_reset@@@Z 1005a570 f i libucrtd:output.obj
 0001:00059580       ?get_errno@__crt_cached_ptd_host@@QAEAAU?$cached@H@1@XZ 1005a580 f i libucrtd:output.obj
 0001:000595a0       ?get_flags@__crt_stdio_stream@@QBEJXZ 1005a5a0 f i libucrtd:output.obj
 0001:000595c0       ?get_locale@__crt_cached_ptd_host@@QAEPAU__crt_locale_pointers@@XZ 1005a5c0 f i libucrtd:output.obj
 0001:000595e0       ?get_parameter_type@?$positional_parameter_base@DV?$stream_output_adapter@D@__crt_stdio_output@@@__crt_stdio_output@@CA?AW4parameter_type@12@F@Z 1005a5e0 f i libucrtd:output.obj
 0001:000595f0       ?get_parameter_type@?$positional_parameter_base@DV?$stream_output_adapter@D@__crt_stdio_output@@@__crt_stdio_output@@CA?AW4parameter_type@12@G@Z 1005a5f0 f i libucrtd:output.obj
 0001:00059600       ?get_parameter_type@?$positional_parameter_base@DV?$stream_output_adapter@D@__crt_stdio_output@@@__crt_stdio_output@@CA?AW4parameter_type@12@H@Z 1005a600 f i libucrtd:output.obj
 0001:00059610       ?get_parameter_type@?$positional_parameter_base@DV?$stream_output_adapter@D@__crt_stdio_output@@@__crt_stdio_output@@CA?AW4parameter_type@12@I@Z 1005a610 f i libucrtd:output.obj
 0001:00059620       ?get_parameter_type@?$positional_parameter_base@DV?$stream_output_adapter@D@__crt_stdio_output@@@__crt_stdio_output@@CA?AW4parameter_type@12@U_CRT_DOUBLE@@@Z 1005a620 f i libucrtd:output.obj
 0001:00059630       ?get_parameter_type@?$positional_parameter_base@DV?$stream_output_adapter@D@__crt_stdio_output@@@__crt_stdio_output@@CA?AW4parameter_type@12@_J@Z 1005a630 f i libucrtd:output.obj
 0001:00059640       ?get_parameter_type@?$positional_parameter_base@DV?$stream_output_adapter@D@__crt_stdio_output@@@__crt_stdio_output@@CA?AW4parameter_type@12@_K@Z 1005a640 f i libucrtd:output.obj
 0001:00059650       ?get_parameter_type@?$positional_parameter_base@DV?$stream_output_adapter@D@__crt_stdio_output@@@__crt_stdio_output@@CA?AW4parameter_type@12@_W@Z 1005a650 f i libucrtd:output.obj
 0001:00059660       ?get_parameter_type@?$positional_parameter_base@DV?$string_output_adapter@D@__crt_stdio_output@@@__crt_stdio_output@@CA?AW4parameter_type@12@F@Z 1005a660 f i libucrtd:output.obj
 0001:00059670       ?get_parameter_type@?$positional_parameter_base@DV?$string_output_adapter@D@__crt_stdio_output@@@__crt_stdio_output@@CA?AW4parameter_type@12@G@Z 1005a670 f i libucrtd:output.obj
 0001:00059680       ?get_parameter_type@?$positional_parameter_base@DV?$string_output_adapter@D@__crt_stdio_output@@@__crt_stdio_output@@CA?AW4parameter_type@12@H@Z 1005a680 f i libucrtd:output.obj
 0001:00059690       ?get_parameter_type@?$positional_parameter_base@DV?$string_output_adapter@D@__crt_stdio_output@@@__crt_stdio_output@@CA?AW4parameter_type@12@I@Z 1005a690 f i libucrtd:output.obj
 0001:000596a0       ?get_parameter_type@?$positional_parameter_base@DV?$string_output_adapter@D@__crt_stdio_output@@@__crt_stdio_output@@CA?AW4parameter_type@12@U_CRT_DOUBLE@@@Z 1005a6a0 f i libucrtd:output.obj
 0001:000596b0       ?get_parameter_type@?$positional_parameter_base@DV?$string_output_adapter@D@__crt_stdio_output@@@__crt_stdio_output@@CA?AW4parameter_type@12@_J@Z 1005a6b0 f i libucrtd:output.obj
 0001:000596c0       ?get_parameter_type@?$positional_parameter_base@DV?$string_output_adapter@D@__crt_stdio_output@@@__crt_stdio_output@@CA?AW4parameter_type@12@_K@Z 1005a6c0 f i libucrtd:output.obj
 0001:000596d0       ?get_parameter_type@?$positional_parameter_base@DV?$string_output_adapter@D@__crt_stdio_output@@@__crt_stdio_output@@CA?AW4parameter_type@12@_W@Z 1005a6d0 f i libucrtd:output.obj
 0001:000596e0       ?get_parameter_type@?$positional_parameter_base@_WV?$stream_output_adapter@_W@__crt_stdio_output@@@__crt_stdio_output@@CA?AW4parameter_type@12@F@Z 1005a6e0 f i libucrtd:output.obj
 0001:000596f0       ?get_parameter_type@?$positional_parameter_base@_WV?$stream_output_adapter@_W@__crt_stdio_output@@@__crt_stdio_output@@CA?AW4parameter_type@12@G@Z 1005a6f0 f i libucrtd:output.obj
 0001:00059700       ?get_parameter_type@?$positional_parameter_base@_WV?$stream_output_adapter@_W@__crt_stdio_output@@@__crt_stdio_output@@CA?AW4parameter_type@12@H@Z 1005a700 f i libucrtd:output.obj
 0001:00059710       ?get_parameter_type@?$positional_parameter_base@_WV?$stream_output_adapter@_W@__crt_stdio_output@@@__crt_stdio_output@@CA?AW4parameter_type@12@I@Z 1005a710 f i libucrtd:output.obj
 0001:00059720       ?get_parameter_type@?$positional_parameter_base@_WV?$stream_output_adapter@_W@__crt_stdio_output@@@__crt_stdio_output@@CA?AW4parameter_type@12@U_CRT_DOUBLE@@@Z 1005a720 f i libucrtd:output.obj
 0001:00059730       ?get_parameter_type@?$positional_parameter_base@_WV?$stream_output_adapter@_W@__crt_stdio_output@@@__crt_stdio_output@@CA?AW4parameter_type@12@_J@Z 1005a730 f i libucrtd:output.obj
 0001:00059740       ?get_parameter_type@?$positional_parameter_base@_WV?$stream_output_adapter@_W@__crt_stdio_output@@@__crt_stdio_output@@CA?AW4parameter_type@12@_K@Z 1005a740 f i libucrtd:output.obj
 0001:00059750       ?get_parameter_type@?$positional_parameter_base@_WV?$stream_output_adapter@_W@__crt_stdio_output@@@__crt_stdio_output@@CA?AW4parameter_type@12@_W@Z 1005a750 f i libucrtd:output.obj
 0001:00059760       ?get_parameter_type@?$positional_parameter_base@_WV?$string_output_adapter@_W@__crt_stdio_output@@@__crt_stdio_output@@CA?AW4parameter_type@12@F@Z 1005a760 f i libucrtd:output.obj
 0001:00059770       ?get_parameter_type@?$positional_parameter_base@_WV?$string_output_adapter@_W@__crt_stdio_output@@@__crt_stdio_output@@CA?AW4parameter_type@12@G@Z 1005a770 f i libucrtd:output.obj
 0001:00059780       ?get_parameter_type@?$positional_parameter_base@_WV?$string_output_adapter@_W@__crt_stdio_output@@@__crt_stdio_output@@CA?AW4parameter_type@12@H@Z 1005a780 f i libucrtd:output.obj
 0001:00059790       ?get_parameter_type@?$positional_parameter_base@_WV?$string_output_adapter@_W@__crt_stdio_output@@@__crt_stdio_output@@CA?AW4parameter_type@12@I@Z 1005a790 f i libucrtd:output.obj
 0001:000597a0       ?get_parameter_type@?$positional_parameter_base@_WV?$string_output_adapter@_W@__crt_stdio_output@@@__crt_stdio_output@@CA?AW4parameter_type@12@U_CRT_DOUBLE@@@Z 1005a7a0 f i libucrtd:output.obj
 0001:000597b0       ?get_parameter_type@?$positional_parameter_base@_WV?$string_output_adapter@_W@__crt_stdio_output@@@__crt_stdio_output@@CA?AW4parameter_type@12@_J@Z 1005a7b0 f i libucrtd:output.obj
 0001:000597c0       ?get_parameter_type@?$positional_parameter_base@_WV?$string_output_adapter@_W@__crt_stdio_output@@@__crt_stdio_output@@CA?AW4parameter_type@12@_K@Z 1005a7c0 f i libucrtd:output.obj
 0001:000597d0       ?get_parameter_type@?$positional_parameter_base@_WV?$string_output_adapter@_W@__crt_stdio_output@@@__crt_stdio_output@@CA?AW4parameter_type@12@_W@Z 1005a7d0 f i libucrtd:output.obj
 0001:000597e0       ?get_raw_ptd@__crt_cached_ptd_host@@QAEPAU__acrt_ptd@@XZ 1005a7e0 f i libucrtd:output.obj
 0001:00059800       ?has_flag@?$output_processor@DV?$stream_output_adapter@D@__crt_stdio_output@@V?$format_validation_base@DV?$stream_output_adapter@D@__crt_stdio_output@@@2@@__crt_stdio_output@@ABE_NI@Z 1005a800 f i libucrtd:output.obj
 0001:00059830       ?has_flag@?$output_processor@DV?$stream_output_adapter@D@__crt_stdio_output@@V?$positional_parameter_base@DV?$stream_output_adapter@D@__crt_stdio_output@@@2@@__crt_stdio_output@@ABE_NI@Z 1005a830 f i libucrtd:output.obj
 0001:00059860       ?has_flag@?$output_processor@DV?$stream_output_adapter@D@__crt_stdio_output@@V?$standard_base@DV?$stream_output_adapter@D@__crt_stdio_output@@@2@@__crt_stdio_output@@ABE_NI@Z 1005a860 f i libucrtd:output.obj
 0001:00059890       ?has_flag@?$output_processor@DV?$string_output_adapter@D@__crt_stdio_output@@V?$format_validation_base@DV?$string_output_adapter@D@__crt_stdio_output@@@2@@__crt_stdio_output@@ABE_NI@Z 1005a890 f i libucrtd:output.obj
 0001:000598c0       ?has_flag@?$output_processor@DV?$string_output_adapter@D@__crt_stdio_output@@V?$positional_parameter_base@DV?$string_output_adapter@D@__crt_stdio_output@@@2@@__crt_stdio_output@@ABE_NI@Z 1005a8c0 f i libucrtd:output.obj
 0001:000598f0       ?has_flag@?$output_processor@DV?$string_output_adapter@D@__crt_stdio_output@@V?$standard_base@DV?$string_output_adapter@D@__crt_stdio_output@@@2@@__crt_stdio_output@@ABE_NI@Z 1005a8f0 f i libucrtd:output.obj
 0001:00059920       ?has_flag@?$output_processor@_WV?$stream_output_adapter@_W@__crt_stdio_output@@V?$format_validation_base@_WV?$stream_output_adapter@_W@__crt_stdio_output@@@2@@__crt_stdio_output@@ABE_NI@Z 1005a920 f i libucrtd:output.obj
 0001:00059950       ?has_flag@?$output_processor@_WV?$stream_output_adapter@_W@__crt_stdio_output@@V?$positional_parameter_base@_WV?$stream_output_adapter@_W@__crt_stdio_output@@@2@@__crt_stdio_output@@ABE_NI@Z 1005a950 f i libucrtd:output.obj
 0001:00059980       ?has_flag@?$output_processor@_WV?$stream_output_adapter@_W@__crt_stdio_output@@V?$standard_base@_WV?$stream_output_adapter@_W@__crt_stdio_output@@@2@@__crt_stdio_output@@ABE_NI@Z 1005a980 f i libucrtd:output.obj
 0001:000599b0       ?has_flag@?$output_processor@_WV?$string_output_adapter@_W@__crt_stdio_output@@V?$format_validation_base@_WV?$string_output_adapter@_W@__crt_stdio_output@@@2@@__crt_stdio_output@@ABE_NI@Z 1005a9b0 f i libucrtd:output.obj
 0001:000599e0       ?has_flag@?$output_processor@_WV?$string_output_adapter@_W@__crt_stdio_output@@V?$positional_parameter_base@_WV?$string_output_adapter@_W@__crt_stdio_output@@@2@@__crt_stdio_output@@ABE_NI@Z 1005a9e0 f i libucrtd:output.obj
 0001:00059a10       ?has_flag@?$output_processor@_WV?$string_output_adapter@_W@__crt_stdio_output@@V?$standard_base@_WV?$string_output_adapter@_W@__crt_stdio_output@@@2@@__crt_stdio_output@@ABE_NI@Z 1005aa10 f i libucrtd:output.obj
 0001:00059a40       ?is_positional_parameter_reappearance_consistent@?$positional_parameter_base@DV?$stream_output_adapter@D@__crt_stdio_output@@@__crt_stdio_output@@AAE_NABUparameter_data@12@W4parameter_type@12@DW4length_modifier@2@@Z 1005aa40 f i libucrtd:output.obj
 0001:00059c70       ?is_positional_parameter_reappearance_consistent@?$positional_parameter_base@DV?$string_output_adapter@D@__crt_stdio_output@@@__crt_stdio_output@@AAE_NABUparameter_data@12@W4parameter_type@12@DW4length_modifier@2@@Z 1005ac70 f i libucrtd:output.obj
 0001:00059ea0       ?is_positional_parameter_reappearance_consistent@?$positional_parameter_base@_WV?$stream_output_adapter@_W@__crt_stdio_output@@@__crt_stdio_output@@AAE_NABUparameter_data@12@W4parameter_type@12@_WW4length_modifier@2@@Z 1005aea0 f i libucrtd:output.obj
 0001:0005a0d0       ?is_positional_parameter_reappearance_consistent@?$positional_parameter_base@_WV?$string_output_adapter@_W@__crt_stdio_output@@@__crt_stdio_output@@AAE_NABUparameter_data@12@W4parameter_type@12@_WW4length_modifier@2@@Z 1005b0d0 f i libucrtd:output.obj
 0001:0005a300       ?is_string_backed@__crt_stdio_stream@@QBE_NXZ 1005b300 f i libucrtd:output.obj
 0001:0005a340       ?maximum_signed_value@__crt_strtox@@YAJK@Z 1005b340 f i libucrtd:output.obj
 0001:0005a350       ?minimum_signed_value@__crt_strtox@@YAJK@Z 1005b350 f i libucrtd:output.obj
 0001:0005a360       ?narrow_null_string@?$output_processor@DV?$stream_output_adapter@D@__crt_stdio_output@@V?$format_validation_base@DV?$stream_output_adapter@D@__crt_stdio_output@@@2@@__crt_stdio_output@@CAPADXZ 1005b360 f i libucrtd:output.obj
 0001:0005a370       ?narrow_null_string@?$output_processor@DV?$stream_output_adapter@D@__crt_stdio_output@@V?$positional_parameter_base@DV?$stream_output_adapter@D@__crt_stdio_output@@@2@@__crt_stdio_output@@CAPADXZ 1005b370 f i libucrtd:output.obj
 0001:0005a380       ?narrow_null_string@?$output_processor@DV?$stream_output_adapter@D@__crt_stdio_output@@V?$standard_base@DV?$stream_output_adapter@D@__crt_stdio_output@@@2@@__crt_stdio_output@@CAPADXZ 1005b380 f i libucrtd:output.obj
 0001:0005a390       ?narrow_null_string@?$output_processor@DV?$string_output_adapter@D@__crt_stdio_output@@V?$format_validation_base@DV?$string_output_adapter@D@__crt_stdio_output@@@2@@__crt_stdio_output@@CAPADXZ 1005b390 f i libucrtd:output.obj
 0001:0005a3a0       ?narrow_null_string@?$output_processor@DV?$string_output_adapter@D@__crt_stdio_output@@V?$positional_parameter_base@DV?$string_output_adapter@D@__crt_stdio_output@@@2@@__crt_stdio_output@@CAPADXZ 1005b3a0 f i libucrtd:output.obj
 0001:0005a3b0       ?narrow_null_string@?$output_processor@DV?$string_output_adapter@D@__crt_stdio_output@@V?$standard_base@DV?$string_output_adapter@D@__crt_stdio_output@@@2@@__crt_stdio_output@@CAPADXZ 1005b3b0 f i libucrtd:output.obj
 0001:0005a3c0       ?narrow_null_string@?$output_processor@_WV?$stream_output_adapter@_W@__crt_stdio_output@@V?$format_validation_base@_WV?$stream_output_adapter@_W@__crt_stdio_output@@@2@@__crt_stdio_output@@CAPADXZ 1005b3c0 f i libucrtd:output.obj
 0001:0005a3d0       ?narrow_null_string@?$output_processor@_WV?$stream_output_adapter@_W@__crt_stdio_output@@V?$positional_parameter_base@_WV?$stream_output_adapter@_W@__crt_stdio_output@@@2@@__crt_stdio_output@@CAPADXZ 1005b3d0 f i libucrtd:output.obj
 0001:0005a3e0       ?narrow_null_string@?$output_processor@_WV?$stream_output_adapter@_W@__crt_stdio_output@@V?$standard_base@_WV?$stream_output_adapter@_W@__crt_stdio_output@@@2@@__crt_stdio_output@@CAPADXZ 1005b3e0 f i libucrtd:output.obj
 0001:0005a3f0       ?narrow_null_string@?$output_processor@_WV?$string_output_adapter@_W@__crt_stdio_output@@V?$format_validation_base@_WV?$string_output_adapter@_W@__crt_stdio_output@@@2@@__crt_stdio_output@@CAPADXZ 1005b3f0 f i libucrtd:output.obj
 0001:0005a400       ?narrow_null_string@?$output_processor@_WV?$string_output_adapter@_W@__crt_stdio_output@@V?$positional_parameter_base@_WV?$string_output_adapter@_W@__crt_stdio_output@@@2@@__crt_stdio_output@@CAPADXZ 1005b400 f i libucrtd:output.obj
 0001:0005a410       ?narrow_null_string@?$output_processor@_WV?$string_output_adapter@_W@__crt_stdio_output@@V?$standard_base@_WV?$string_output_adapter@_W@__crt_stdio_output@@@2@@__crt_stdio_output@@CAPADXZ 1005b410 f i libucrtd:output.obj
 0001:0005a420       ?parse_digit@__crt_strtox@@YAID@Z 1005b420 f i libucrtd:output.obj
 0001:0005a480       ?parse_digit@__crt_strtox@@YAI_W@Z 1005b480 f i libucrtd:output.obj
 0001:0005a4d0       ?parse_int_from_format_string@?$output_processor@DV?$stream_output_adapter@D@__crt_stdio_output@@V?$format_validation_base@DV?$stream_output_adapter@D@__crt_stdio_output@@@2@@__crt_stdio_output@@AAE_NQAH@Z 1005b4d0 f i libucrtd:output.obj
 0001:0005a590       ?parse_int_from_format_string@?$output_processor@DV?$stream_output_adapter@D@__crt_stdio_output@@V?$positional_parameter_base@DV?$stream_output_adapter@D@__crt_stdio_output@@@2@@__crt_stdio_output@@AAE_NQAH@Z 1005b590 f i libucrtd:output.obj
 0001:0005a650       ?parse_int_from_format_string@?$output_processor@DV?$stream_output_adapter@D@__crt_stdio_output@@V?$standard_base@DV?$stream_output_adapter@D@__crt_stdio_output@@@2@@__crt_stdio_output@@AAE_NQAH@Z 1005b650 f i libucrtd:output.obj
 0001:0005a710       ?parse_int_from_format_string@?$output_processor@DV?$string_output_adapter@D@__crt_stdio_output@@V?$format_validation_base@DV?$string_output_adapter@D@__crt_stdio_output@@@2@@__crt_stdio_output@@AAE_NQAH@Z 1005b710 f i libucrtd:output.obj
 0001:0005a7d0       ?parse_int_from_format_string@?$output_processor@DV?$string_output_adapter@D@__crt_stdio_output@@V?$positional_parameter_base@DV?$string_output_adapter@D@__crt_stdio_output@@@2@@__crt_stdio_output@@AAE_NQAH@Z 1005b7d0 f i libucrtd:output.obj
 0001:0005a890       ?parse_int_from_format_string@?$output_processor@DV?$string_output_adapter@D@__crt_stdio_output@@V?$standard_base@DV?$string_output_adapter@D@__crt_stdio_output@@@2@@__crt_stdio_output@@AAE_NQAH@Z 1005b890 f i libucrtd:output.obj
 0001:0005a950       ?parse_int_from_format_string@?$output_processor@_WV?$stream_output_adapter@_W@__crt_stdio_output@@V?$format_validation_base@_WV?$stream_output_adapter@_W@__crt_stdio_output@@@2@@__crt_stdio_output@@AAE_NQAH@Z 1005b950 f i libucrtd:output.obj
 0001:0005aa10       ?parse_int_from_format_string@?$output_processor@_WV?$stream_output_adapter@_W@__crt_stdio_output@@V?$positional_parameter_base@_WV?$stream_output_adapter@_W@__crt_stdio_output@@@2@@__crt_stdio_output@@AAE_NQAH@Z 1005ba10 f i libucrtd:output.obj
 0001:0005aad0       ?parse_int_from_format_string@?$output_processor@_WV?$stream_output_adapter@_W@__crt_stdio_output@@V?$standard_base@_WV?$stream_output_adapter@_W@__crt_stdio_output@@@2@@__crt_stdio_output@@AAE_NQAH@Z 1005bad0 f i libucrtd:output.obj
 0001:0005ab90       ?parse_int_from_format_string@?$output_processor@_WV?$string_output_adapter@_W@__crt_stdio_output@@V?$format_validation_base@_WV?$string_output_adapter@_W@__crt_stdio_output@@@2@@__crt_stdio_output@@AAE_NQAH@Z 1005bb90 f i libucrtd:output.obj
 0001:0005ac50       ?parse_int_from_format_string@?$output_processor@_WV?$string_output_adapter@_W@__crt_stdio_output@@V?$positional_parameter_base@_WV?$string_output_adapter@_W@__crt_stdio_output@@@2@@__crt_stdio_output@@AAE_NQAH@Z 1005bc50 f i libucrtd:output.obj
 0001:0005ad10       ?parse_int_from_format_string@?$output_processor@_WV?$string_output_adapter@_W@__crt_stdio_output@@V?$standard_base@_WV?$string_output_adapter@_W@__crt_stdio_output@@@2@@__crt_stdio_output@@AAE_NQAH@Z 1005bd10 f i libucrtd:output.obj
 0001:0005add0       ?process@?$output_processor@DV?$stream_output_adapter@D@__crt_stdio_output@@V?$format_validation_base@DV?$stream_output_adapter@D@__crt_stdio_output@@@2@@__crt_stdio_output@@QAEHXZ 1005bdd0 f i libucrtd:output.obj
 0001:0005b0b0       ?process@?$output_processor@DV?$stream_output_adapter@D@__crt_stdio_output@@V?$positional_parameter_base@DV?$stream_output_adapter@D@__crt_stdio_output@@@2@@__crt_stdio_output@@QAEHXZ 1005c0b0 f i libucrtd:output.obj
 0001:0005b390       ?process@?$output_processor@DV?$stream_output_adapter@D@__crt_stdio_output@@V?$standard_base@DV?$stream_output_adapter@D@__crt_stdio_output@@@2@@__crt_stdio_output@@QAEHXZ 1005c390 f i libucrtd:output.obj
 0001:0005b670       ?process@?$output_processor@DV?$string_output_adapter@D@__crt_stdio_output@@V?$format_validation_base@DV?$string_output_adapter@D@__crt_stdio_output@@@2@@__crt_stdio_output@@QAEHXZ 1005c670 f i libucrtd:output.obj
 0001:0005b950       ?process@?$output_processor@DV?$string_output_adapter@D@__crt_stdio_output@@V?$positional_parameter_base@DV?$string_output_adapter@D@__crt_stdio_output@@@2@@__crt_stdio_output@@QAEHXZ 1005c950 f i libucrtd:output.obj
 0001:0005bc30       ?process@?$output_processor@DV?$string_output_adapter@D@__crt_stdio_output@@V?$standard_base@DV?$string_output_adapter@D@__crt_stdio_output@@@2@@__crt_stdio_output@@QAEHXZ 1005cc30 f i libucrtd:output.obj
 0001:0005bf10       ?process@?$output_processor@_WV?$stream_output_adapter@_W@__crt_stdio_output@@V?$format_validation_base@_WV?$stream_output_adapter@_W@__crt_stdio_output@@@2@@__crt_stdio_output@@QAEHXZ 1005cf10 f i libucrtd:output.obj
 0001:0005c1f0       ?process@?$output_processor@_WV?$stream_output_adapter@_W@__crt_stdio_output@@V?$positional_parameter_base@_WV?$stream_output_adapter@_W@__crt_stdio_output@@@2@@__crt_stdio_output@@QAEHXZ 1005d1f0 f i libucrtd:output.obj
 0001:0005c4d0       ?process@?$output_processor@_WV?$stream_output_adapter@_W@__crt_stdio_output@@V?$standard_base@_WV?$stream_output_adapter@_W@__crt_stdio_output@@@2@@__crt_stdio_output@@QAEHXZ 1005d4d0 f i libucrtd:output.obj
 0001:0005c7b0       ?process@?$output_processor@_WV?$string_output_adapter@_W@__crt_stdio_output@@V?$format_validation_base@_WV?$string_output_adapter@_W@__crt_stdio_output@@@2@@__crt_stdio_output@@QAEHXZ 1005d7b0 f i libucrtd:output.obj
 0001:0005ca90       ?process@?$output_processor@_WV?$string_output_adapter@_W@__crt_stdio_output@@V?$positional_parameter_base@_WV?$string_output_adapter@_W@__crt_stdio_output@@@2@@__crt_stdio_output@@QAEHXZ 1005da90 f i libucrtd:output.obj
 0001:0005cd70       ?process@?$output_processor@_WV?$string_output_adapter@_W@__crt_stdio_output@@V?$standard_base@_WV?$string_output_adapter@_W@__crt_stdio_output@@@2@@__crt_stdio_output@@QAEHXZ 1005dd70 f i libucrtd:output.obj
 0001:0005d050       ?public_stream@__crt_stdio_stream@@QBEPAU_iobuf@@XZ 1005e050 f i libucrtd:output.obj
 0001:0005d070       ?restore_state@?$c_string_character_source@D@__crt_strtox@@QAE_NQBD@Z 1005e070 f i libucrtd:output.obj
 0001:0005d090       ?restore_state@?$c_string_character_source@_W@__crt_strtox@@QAE_NQB_W@Z 1005e090 f i libucrtd:output.obj
 0001:0005d0b0       ?save_state@?$c_string_character_source@D@__crt_strtox@@QBEPBDXZ 1005e0b0 f i libucrtd:output.obj
 0001:0005d0d0       ?save_state@?$c_string_character_source@_W@__crt_strtox@@QBEPB_WXZ 1005e0d0 f i libucrtd:output.obj
 0001:0005d0f0       ?set@?$cached@H@__crt_cached_ptd_host@@QAEHH@Z 1005e0f0 f i libucrtd:output.obj
 0001:0005d120       ?set_flag@?$output_processor@DV?$stream_output_adapter@D@__crt_stdio_output@@V?$format_validation_base@DV?$stream_output_adapter@D@__crt_stdio_output@@@2@@__crt_stdio_output@@AAEXI@Z 1005e120 f i libucrtd:output.obj
 0001:0005d140       ?set_flag@?$output_processor@DV?$stream_output_adapter@D@__crt_stdio_output@@V?$positional_parameter_base@DV?$stream_output_adapter@D@__crt_stdio_output@@@2@@__crt_stdio_output@@AAEXI@Z 1005e140 f i libucrtd:output.obj
 0001:0005d160       ?set_flag@?$output_processor@DV?$stream_output_adapter@D@__crt_stdio_output@@V?$standard_base@DV?$stream_output_adapter@D@__crt_stdio_output@@@2@@__crt_stdio_output@@AAEXI@Z 1005e160 f i libucrtd:output.obj
 0001:0005d180       ?set_flag@?$output_processor@DV?$string_output_adapter@D@__crt_stdio_output@@V?$format_validation_base@DV?$string_output_adapter@D@__crt_stdio_output@@@2@@__crt_stdio_output@@AAEXI@Z 1005e180 f i libucrtd:output.obj
 0001:0005d1a0       ?set_flag@?$output_processor@DV?$string_output_adapter@D@__crt_stdio_output@@V?$positional_parameter_base@DV?$string_output_adapter@D@__crt_stdio_output@@@2@@__crt_stdio_output@@AAEXI@Z 1005e1a0 f i libucrtd:output.obj
 0001:0005d1c0       ?set_flag@?$output_processor@DV?$string_output_adapter@D@__crt_stdio_output@@V?$standard_base@DV?$string_output_adapter@D@__crt_stdio_output@@@2@@__crt_stdio_output@@AAEXI@Z 1005e1c0 f i libucrtd:output.obj
 0001:0005d1e0       ?set_flag@?$output_processor@_WV?$stream_output_adapter@_W@__crt_stdio_output@@V?$format_validation_base@_WV?$stream_output_adapter@_W@__crt_stdio_output@@@2@@__crt_stdio_output@@AAEXI@Z 1005e1e0 f i libucrtd:output.obj
 0001:0005d200       ?set_flag@?$output_processor@_WV?$stream_output_adapter@_W@__crt_stdio_output@@V?$positional_parameter_base@_WV?$stream_output_adapter@_W@__crt_stdio_output@@@2@@__crt_stdio_output@@AAEXI@Z 1005e200 f i libucrtd:output.obj
 0001:0005d220       ?set_flag@?$output_processor@_WV?$stream_output_adapter@_W@__crt_stdio_output@@V?$standard_base@_WV?$stream_output_adapter@_W@__crt_stdio_output@@@2@@__crt_stdio_output@@AAEXI@Z 1005e220 f i libucrtd:output.obj
 0001:0005d240       ?set_flag@?$output_processor@_WV?$string_output_adapter@_W@__crt_stdio_output@@V?$format_validation_base@_WV?$string_output_adapter@_W@__crt_stdio_output@@@2@@__crt_stdio_output@@AAEXI@Z 1005e240 f i libucrtd:output.obj
 0001:0005d260       ?set_flag@?$output_processor@_WV?$string_output_adapter@_W@__crt_stdio_output@@V?$positional_parameter_base@_WV?$string_output_adapter@_W@__crt_stdio_output@@@2@@__crt_stdio_output@@AAEXI@Z 1005e260 f i libucrtd:output.obj
 0001:0005d280       ?set_flag@?$output_processor@_WV?$string_output_adapter@_W@__crt_stdio_output@@V?$standard_base@_WV?$string_output_adapter@_W@__crt_stdio_output@@@2@@__crt_stdio_output@@AAEXI@Z 1005e280 f i libucrtd:output.obj
 0001:0005d2a0       ?should_format@?$positional_parameter_base@DV?$stream_output_adapter@D@__crt_stdio_output@@@__crt_stdio_output@@IAE_NXZ 1005e2a0 f i libucrtd:output.obj
 0001:0005d2e0       ?should_format@?$positional_parameter_base@DV?$string_output_adapter@D@__crt_stdio_output@@@__crt_stdio_output@@IAE_NXZ 1005e2e0 f i libucrtd:output.obj
 0001:0005d320       ?should_format@?$positional_parameter_base@_WV?$stream_output_adapter@_W@__crt_stdio_output@@@__crt_stdio_output@@IAE_NXZ 1005e320 f i libucrtd:output.obj
 0001:0005d360       ?should_format@?$positional_parameter_base@_WV?$string_output_adapter@_W@__crt_stdio_output@@@__crt_stdio_output@@IAE_NXZ 1005e360 f i libucrtd:output.obj
 0001:0005d3a0       ?should_format@?$standard_base@DV?$stream_output_adapter@D@__crt_stdio_output@@@__crt_stdio_output@@IAE_NXZ 1005e3a0 f i libucrtd:output.obj
 0001:0005d3b0       ?should_format@?$standard_base@DV?$string_output_adapter@D@__crt_stdio_output@@@__crt_stdio_output@@IAE_NXZ 1005e3b0 f i libucrtd:output.obj
 0001:0005d3c0       ?should_format@?$standard_base@_WV?$stream_output_adapter@_W@__crt_stdio_output@@@__crt_stdio_output@@IAE_NXZ 1005e3c0 f i libucrtd:output.obj
 0001:0005d3d0       ?should_format@?$standard_base@_WV?$string_output_adapter@_W@__crt_stdio_output@@@__crt_stdio_output@@IAE_NXZ 1005e3d0 f i libucrtd:output.obj
 0001:0005d3e0       ?should_skip_normal_state_processing@?$positional_parameter_base@DV?$stream_output_adapter@D@__crt_stdio_output@@@__crt_stdio_output@@IAE_NXZ 1005e3e0 f i libucrtd:output.obj
 0001:0005d430       ?should_skip_normal_state_processing@?$positional_parameter_base@DV?$string_output_adapter@D@__crt_stdio_output@@@__crt_stdio_output@@IAE_NXZ 1005e430 f i libucrtd:output.obj
 0001:0005d480       ?should_skip_normal_state_processing@?$positional_parameter_base@_WV?$stream_output_adapter@_W@__crt_stdio_output@@@__crt_stdio_output@@IAE_NXZ 1005e480 f i libucrtd:output.obj
 0001:0005d4d0       ?should_skip_normal_state_processing@?$positional_parameter_base@_WV?$string_output_adapter@_W@__crt_stdio_output@@@__crt_stdio_output@@IAE_NXZ 1005e4d0 f i libucrtd:output.obj
 0001:0005d520       ?should_skip_normal_state_processing@?$standard_base@DV?$stream_output_adapter@D@__crt_stdio_output@@@__crt_stdio_output@@IAE_NXZ 1005e520 f i libucrtd:output.obj
 0001:0005d530       ?should_skip_normal_state_processing@?$standard_base@DV?$string_output_adapter@D@__crt_stdio_output@@@__crt_stdio_output@@IAE_NXZ 1005e530 f i libucrtd:output.obj
 0001:0005d540       ?should_skip_normal_state_processing@?$standard_base@_WV?$stream_output_adapter@_W@__crt_stdio_output@@@__crt_stdio_output@@IAE_NXZ 1005e540 f i libucrtd:output.obj
 0001:0005d550       ?should_skip_normal_state_processing@?$standard_base@_WV?$string_output_adapter@_W@__crt_stdio_output@@@__crt_stdio_output@@IAE_NXZ 1005e550 f i libucrtd:output.obj
 0001:0005d560       ?should_skip_type_state_output@?$positional_parameter_base@DV?$stream_output_adapter@D@__crt_stdio_output@@@__crt_stdio_output@@IBE_NXZ 1005e560 f i libucrtd:output.obj
 0001:0005d5a0       ?should_skip_type_state_output@?$positional_parameter_base@DV?$string_output_adapter@D@__crt_stdio_output@@@__crt_stdio_output@@IBE_NXZ 1005e5a0 f i libucrtd:output.obj
 0001:0005d5e0       ?should_skip_type_state_output@?$positional_parameter_base@_WV?$stream_output_adapter@_W@__crt_stdio_output@@@__crt_stdio_output@@IBE_NXZ 1005e5e0 f i libucrtd:output.obj
 0001:0005d620       ?should_skip_type_state_output@?$positional_parameter_base@_WV?$string_output_adapter@_W@__crt_stdio_output@@@__crt_stdio_output@@IBE_NXZ 1005e620 f i libucrtd:output.obj
 0001:0005d660       ?should_skip_type_state_output@?$standard_base@DV?$stream_output_adapter@D@__crt_stdio_output@@@__crt_stdio_output@@IBE_NXZ 1005e660 f i libucrtd:output.obj
 0001:0005d670       ?should_skip_type_state_output@?$standard_base@DV?$string_output_adapter@D@__crt_stdio_output@@@__crt_stdio_output@@IBE_NXZ 1005e670 f i libucrtd:output.obj
 0001:0005d680       ?should_skip_type_state_output@?$standard_base@_WV?$stream_output_adapter@_W@__crt_stdio_output@@@__crt_stdio_output@@IBE_NXZ 1005e680 f i libucrtd:output.obj
 0001:0005d690       ?should_skip_type_state_output@?$standard_base@_WV?$string_output_adapter@_W@__crt_stdio_output@@@__crt_stdio_output@@IBE_NXZ 1005e690 f i libucrtd:output.obj
 0001:0005d6a0       ?state_case_dot@?$output_processor@DV?$stream_output_adapter@D@__crt_stdio_output@@V?$format_validation_base@DV?$stream_output_adapter@D@__crt_stdio_output@@@2@@__crt_stdio_output@@AAE_NXZ 1005e6a0 f i libucrtd:output.obj
 0001:0005d6c0       ?state_case_dot@?$output_processor@DV?$stream_output_adapter@D@__crt_stdio_output@@V?$positional_parameter_base@DV?$stream_output_adapter@D@__crt_stdio_output@@@2@@__crt_stdio_output@@AAE_NXZ 1005e6c0 f i libucrtd:output.obj
 0001:0005d6e0       ?state_case_dot@?$output_processor@DV?$stream_output_adapter@D@__crt_stdio_output@@V?$standard_base@DV?$stream_output_adapter@D@__crt_stdio_output@@@2@@__crt_stdio_output@@AAE_NXZ 1005e6e0 f i libucrtd:output.obj
 0001:0005d700       ?state_case_dot@?$output_processor@DV?$string_output_adapter@D@__crt_stdio_output@@V?$format_validation_base@DV?$string_output_adapter@D@__crt_stdio_output@@@2@@__crt_stdio_output@@AAE_NXZ 1005e700 f i libucrtd:output.obj
 0001:0005d720       ?state_case_dot@?$output_processor@DV?$string_output_adapter@D@__crt_stdio_output@@V?$positional_parameter_base@DV?$string_output_adapter@D@__crt_stdio_output@@@2@@__crt_stdio_output@@AAE_NXZ 1005e720 f i libucrtd:output.obj
 0001:0005d740       ?state_case_dot@?$output_processor@DV?$string_output_adapter@D@__crt_stdio_output@@V?$standard_base@DV?$string_output_adapter@D@__crt_stdio_output@@@2@@__crt_stdio_output@@AAE_NXZ 1005e740 f i libucrtd:output.obj
 0001:0005d760       ?state_case_dot@?$output_processor@_WV?$stream_output_adapter@_W@__crt_stdio_output@@V?$format_validation_base@_WV?$stream_output_adapter@_W@__crt_stdio_output@@@2@@__crt_stdio_output@@AAE_NXZ 1005e760 f i libucrtd:output.obj
 0001:0005d780       ?state_case_dot@?$output_processor@_WV?$stream_output_adapter@_W@__crt_stdio_output@@V?$positional_parameter_base@_WV?$stream_output_adapter@_W@__crt_stdio_output@@@2@@__crt_stdio_output@@AAE_NXZ 1005e780 f i libucrtd:output.obj
 0001:0005d7a0       ?state_case_dot@?$output_processor@_WV?$stream_output_adapter@_W@__crt_stdio_output@@V?$standard_base@_WV?$stream_output_adapter@_W@__crt_stdio_output@@@2@@__crt_stdio_output@@AAE_NXZ 1005e7a0 f i libucrtd:output.obj
 0001:0005d7c0       ?state_case_dot@?$output_processor@_WV?$string_output_adapter@_W@__crt_stdio_output@@V?$format_validation_base@_WV?$string_output_adapter@_W@__crt_stdio_output@@@2@@__crt_stdio_output@@AAE_NXZ 1005e7c0 f i libucrtd:output.obj
 0001:0005d7e0       ?state_case_dot@?$output_processor@_WV?$string_output_adapter@_W@__crt_stdio_output@@V?$positional_parameter_base@_WV?$string_output_adapter@_W@__crt_stdio_output@@@2@@__crt_stdio_output@@AAE_NXZ 1005e7e0 f i libucrtd:output.obj
 0001:0005d800       ?state_case_dot@?$output_processor@_WV?$string_output_adapter@_W@__crt_stdio_output@@V?$standard_base@_WV?$string_output_adapter@_W@__crt_stdio_output@@@2@@__crt_stdio_output@@AAE_NXZ 1005e800 f i libucrtd:output.obj
 0001:0005d820       ?state_case_flag@?$output_processor@DV?$stream_output_adapter@D@__crt_stdio_output@@V?$format_validation_base@DV?$stream_output_adapter@D@__crt_stdio_output@@@2@@__crt_stdio_output@@AAE_NXZ 1005e820 f i libucrtd:output.obj
 0001:0005d8d0       ?state_case_flag@?$output_processor@DV?$stream_output_adapter@D@__crt_stdio_output@@V?$positional_parameter_base@DV?$stream_output_adapter@D@__crt_stdio_output@@@2@@__crt_stdio_output@@AAE_NXZ 1005e8d0 f i libucrtd:output.obj
 0001:0005d980       ?state_case_flag@?$output_processor@DV?$stream_output_adapter@D@__crt_stdio_output@@V?$standard_base@DV?$stream_output_adapter@D@__crt_stdio_output@@@2@@__crt_stdio_output@@AAE_NXZ 1005e980 f i libucrtd:output.obj
 0001:0005da30       ?state_case_flag@?$output_processor@DV?$string_output_adapter@D@__crt_stdio_output@@V?$format_validation_base@DV?$string_output_adapter@D@__crt_stdio_output@@@2@@__crt_stdio_output@@AAE_NXZ 1005ea30 f i libucrtd:output.obj
 0001:0005dae0       ?state_case_flag@?$output_processor@DV?$string_output_adapter@D@__crt_stdio_output@@V?$positional_parameter_base@DV?$string_output_adapter@D@__crt_stdio_output@@@2@@__crt_stdio_output@@AAE_NXZ 1005eae0 f i libucrtd:output.obj
 0001:0005db90       ?state_case_flag@?$output_processor@DV?$string_output_adapter@D@__crt_stdio_output@@V?$standard_base@DV?$string_output_adapter@D@__crt_stdio_output@@@2@@__crt_stdio_output@@AAE_NXZ 1005eb90 f i libucrtd:output.obj
 0001:0005dc40       ?state_case_flag@?$output_processor@_WV?$stream_output_adapter@_W@__crt_stdio_output@@V?$format_validation_base@_WV?$stream_output_adapter@_W@__crt_stdio_output@@@2@@__crt_stdio_output@@AAE_NXZ 1005ec40 f i libucrtd:output.obj
 0001:0005dcf0       ?state_case_flag@?$output_processor@_WV?$stream_output_adapter@_W@__crt_stdio_output@@V?$positional_parameter_base@_WV?$stream_output_adapter@_W@__crt_stdio_output@@@2@@__crt_stdio_output@@AAE_NXZ 1005ecf0 f i libucrtd:output.obj
 0001:0005dda0       ?state_case_flag@?$output_processor@_WV?$stream_output_adapter@_W@__crt_stdio_output@@V?$standard_base@_WV?$stream_output_adapter@_W@__crt_stdio_output@@@2@@__crt_stdio_output@@AAE_NXZ 1005eda0 f i libucrtd:output.obj
 0001:0005de50       ?state_case_flag@?$output_processor@_WV?$string_output_adapter@_W@__crt_stdio_output@@V?$format_validation_base@_WV?$string_output_adapter@_W@__crt_stdio_output@@@2@@__crt_stdio_output@@AAE_NXZ 1005ee50 f i libucrtd:output.obj
 0001:0005df00       ?state_case_flag@?$output_processor@_WV?$string_output_adapter@_W@__crt_stdio_output@@V?$positional_parameter_base@_WV?$string_output_adapter@_W@__crt_stdio_output@@@2@@__crt_stdio_output@@AAE_NXZ 1005ef00 f i libucrtd:output.obj
 0001:0005dfb0       ?state_case_flag@?$output_processor@_WV?$string_output_adapter@_W@__crt_stdio_output@@V?$standard_base@_WV?$string_output_adapter@_W@__crt_stdio_output@@@2@@__crt_stdio_output@@AAE_NXZ 1005efb0 f i libucrtd:output.obj
 0001:0005e060       ?state_case_normal@?$output_processor@DV?$stream_output_adapter@D@__crt_stdio_output@@V?$format_validation_base@DV?$stream_output_adapter@D@__crt_stdio_output@@@2@@__crt_stdio_output@@AAE_NXZ 1005f060 f i libucrtd:output.obj
 0001:0005e120       ?state_case_normal@?$output_processor@DV?$stream_output_adapter@D@__crt_stdio_output@@V?$positional_parameter_base@DV?$stream_output_adapter@D@__crt_stdio_output@@@2@@__crt_stdio_output@@AAE_NXZ 1005f120 f i libucrtd:output.obj
 0001:0005e1e0       ?state_case_normal@?$output_processor@DV?$stream_output_adapter@D@__crt_stdio_output@@V?$standard_base@DV?$stream_output_adapter@D@__crt_stdio_output@@@2@@__crt_stdio_output@@AAE_NXZ 1005f1e0 f i libucrtd:output.obj
 0001:0005e2a0       ?state_case_normal@?$output_processor@DV?$string_output_adapter@D@__crt_stdio_output@@V?$format_validation_base@DV?$string_output_adapter@D@__crt_stdio_output@@@2@@__crt_stdio_output@@AAE_NXZ 1005f2a0 f i libucrtd:output.obj
 0001:0005e360       ?state_case_normal@?$output_processor@DV?$string_output_adapter@D@__crt_stdio_output@@V?$positional_parameter_base@DV?$string_output_adapter@D@__crt_stdio_output@@@2@@__crt_stdio_output@@AAE_NXZ 1005f360 f i libucrtd:output.obj
 0001:0005e420       ?state_case_normal@?$output_processor@DV?$string_output_adapter@D@__crt_stdio_output@@V?$standard_base@DV?$string_output_adapter@D@__crt_stdio_output@@@2@@__crt_stdio_output@@AAE_NXZ 1005f420 f i libucrtd:output.obj
 0001:0005e4e0       ?state_case_normal@?$output_processor@_WV?$stream_output_adapter@_W@__crt_stdio_output@@V?$format_validation_base@_WV?$stream_output_adapter@_W@__crt_stdio_output@@@2@@__crt_stdio_output@@AAE_NXZ 1005f4e0 f i libucrtd:output.obj
 0001:0005e5a0       ?state_case_normal@?$output_processor@_WV?$stream_output_adapter@_W@__crt_stdio_output@@V?$positional_parameter_base@_WV?$stream_output_adapter@_W@__crt_stdio_output@@@2@@__crt_stdio_output@@AAE_NXZ 1005f5a0 f i libucrtd:output.obj
 0001:0005e660       ?state_case_normal@?$output_processor@_WV?$stream_output_adapter@_W@__crt_stdio_output@@V?$standard_base@_WV?$stream_output_adapter@_W@__crt_stdio_output@@@2@@__crt_stdio_output@@AAE_NXZ 1005f660 f i libucrtd:output.obj
 0001:0005e720       ?state_case_normal@?$output_processor@_WV?$string_output_adapter@_W@__crt_stdio_output@@V?$format_validation_base@_WV?$string_output_adapter@_W@__crt_stdio_output@@@2@@__crt_stdio_output@@AAE_NXZ 1005f720 f i libucrtd:output.obj
 0001:0005e7e0       ?state_case_normal@?$output_processor@_WV?$string_output_adapter@_W@__crt_stdio_output@@V?$positional_parameter_base@_WV?$string_output_adapter@_W@__crt_stdio_output@@@2@@__crt_stdio_output@@AAE_NXZ 1005f7e0 f i libucrtd:output.obj
 0001:0005e8a0       ?state_case_normal@?$output_processor@_WV?$string_output_adapter@_W@__crt_stdio_output@@V?$standard_base@_WV?$string_output_adapter@_W@__crt_stdio_output@@@2@@__crt_stdio_output@@AAE_NXZ 1005f8a0 f i libucrtd:output.obj
 0001:0005e960       ?state_case_normal_common@?$output_processor@DV?$stream_output_adapter@D@__crt_stdio_output@@V?$format_validation_base@DV?$stream_output_adapter@D@__crt_stdio_output@@@2@@__crt_stdio_output@@AAE_NXZ 1005f960 f i libucrtd:output.obj
 0001:0005e9b0       ?state_case_normal_common@?$output_processor@DV?$stream_output_adapter@D@__crt_stdio_output@@V?$positional_parameter_base@DV?$stream_output_adapter@D@__crt_stdio_output@@@2@@__crt_stdio_output@@AAE_NXZ 1005f9b0 f i libucrtd:output.obj
 0001:0005ea00       ?state_case_normal_common@?$output_processor@DV?$stream_output_adapter@D@__crt_stdio_output@@V?$standard_base@DV?$stream_output_adapter@D@__crt_stdio_output@@@2@@__crt_stdio_output@@AAE_NXZ 1005fa00 f i libucrtd:output.obj
 0001:0005ea50       ?state_case_normal_common@?$output_processor@DV?$string_output_adapter@D@__crt_stdio_output@@V?$format_validation_base@DV?$string_output_adapter@D@__crt_stdio_output@@@2@@__crt_stdio_output@@AAE_NXZ 1005fa50 f i libucrtd:output.obj
 0001:0005eaa0       ?state_case_normal_common@?$output_processor@DV?$string_output_adapter@D@__crt_stdio_output@@V?$positional_parameter_base@DV?$string_output_adapter@D@__crt_stdio_output@@@2@@__crt_stdio_output@@AAE_NXZ 1005faa0 f i libucrtd:output.obj
 0001:0005eaf0       ?state_case_normal_common@?$output_processor@DV?$string_output_adapter@D@__crt_stdio_output@@V?$standard_base@DV?$string_output_adapter@D@__crt_stdio_output@@@2@@__crt_stdio_output@@AAE_NXZ 1005faf0 f i libucrtd:output.obj
 0001:0005eb40       ?state_case_normal_common@?$output_processor@_WV?$stream_output_adapter@_W@__crt_stdio_output@@V?$format_validation_base@_WV?$stream_output_adapter@_W@__crt_stdio_output@@@2@@__crt_stdio_output@@AAE_NXZ 1005fb40 f i libucrtd:output.obj
 0001:0005eb90       ?state_case_normal_common@?$output_processor@_WV?$stream_output_adapter@_W@__crt_stdio_output@@V?$positional_parameter_base@_WV?$stream_output_adapter@_W@__crt_stdio_output@@@2@@__crt_stdio_output@@AAE_NXZ 1005fb90 f i libucrtd:output.obj
 0001:0005ebe0       ?state_case_normal_common@?$output_processor@_WV?$stream_output_adapter@_W@__crt_stdio_output@@V?$standard_base@_WV?$stream_output_adapter@_W@__crt_stdio_output@@@2@@__crt_stdio_output@@AAE_NXZ 1005fbe0 f i libucrtd:output.obj
 0001:0005ec30       ?state_case_normal_common@?$output_processor@_WV?$string_output_adapter@_W@__crt_stdio_output@@V?$format_validation_base@_WV?$string_output_adapter@_W@__crt_stdio_output@@@2@@__crt_stdio_output@@AAE_NXZ 1005fc30 f i libucrtd:output.obj
 0001:0005ec80       ?state_case_normal_common@?$output_processor@_WV?$string_output_adapter@_W@__crt_stdio_output@@V?$positional_parameter_base@_WV?$string_output_adapter@_W@__crt_stdio_output@@@2@@__crt_stdio_output@@AAE_NXZ 1005fc80 f i libucrtd:output.obj
 0001:0005ecd0       ?state_case_normal_common@?$output_processor@_WV?$string_output_adapter@_W@__crt_stdio_output@@V?$standard_base@_WV?$string_output_adapter@_W@__crt_stdio_output@@@2@@__crt_stdio_output@@AAE_NXZ 1005fcd0 f i libucrtd:output.obj
 0001:0005ed20       ?state_case_normal_tchar@?$output_processor@DV?$stream_output_adapter@D@__crt_stdio_output@@V?$format_validation_base@DV?$stream_output_adapter@D@__crt_stdio_output@@@2@@__crt_stdio_output@@AAE_ND@Z 1005fd20 f i libucrtd:output.obj
 0001:0005ee50       ?state_case_normal_tchar@?$output_processor@DV?$stream_output_adapter@D@__crt_stdio_output@@V?$positional_parameter_base@DV?$stream_output_adapter@D@__crt_stdio_output@@@2@@__crt_stdio_output@@AAE_ND@Z 1005fe50 f i libucrtd:output.obj
 0001:0005ef80       ?state_case_normal_tchar@?$output_processor@DV?$stream_output_adapter@D@__crt_stdio_output@@V?$standard_base@DV?$stream_output_adapter@D@__crt_stdio_output@@@2@@__crt_stdio_output@@AAE_ND@Z 1005ff80 f i libucrtd:output.obj
 0001:0005f0b0       ?state_case_normal_tchar@?$output_processor@DV?$string_output_adapter@D@__crt_stdio_output@@V?$format_validation_base@DV?$string_output_adapter@D@__crt_stdio_output@@@2@@__crt_stdio_output@@AAE_ND@Z 100600b0 f i libucrtd:output.obj
 0001:0005f1e0       ?state_case_normal_tchar@?$output_processor@DV?$string_output_adapter@D@__crt_stdio_output@@V?$positional_parameter_base@DV?$string_output_adapter@D@__crt_stdio_output@@@2@@__crt_stdio_output@@AAE_ND@Z 100601e0 f i libucrtd:output.obj
 0001:0005f310       ?state_case_normal_tchar@?$output_processor@DV?$string_output_adapter@D@__crt_stdio_output@@V?$standard_base@DV?$string_output_adapter@D@__crt_stdio_output@@@2@@__crt_stdio_output@@AAE_ND@Z 10060310 f i libucrtd:output.obj
 0001:0005f440       ?state_case_normal_tchar@?$output_processor@_WV?$stream_output_adapter@_W@__crt_stdio_output@@V?$format_validation_base@_WV?$stream_output_adapter@_W@__crt_stdio_output@@@2@@__crt_stdio_output@@AAE_N_W@Z 10060440 f i libucrtd:output.obj
 0001:0005f460       ?state_case_normal_tchar@?$output_processor@_WV?$stream_output_adapter@_W@__crt_stdio_output@@V?$positional_parameter_base@_WV?$stream_output_adapter@_W@__crt_stdio_output@@@2@@__crt_stdio_output@@AAE_N_W@Z 10060460 f i libucrtd:output.obj
 0001:0005f480       ?state_case_normal_tchar@?$output_processor@_WV?$stream_output_adapter@_W@__crt_stdio_output@@V?$standard_base@_WV?$stream_output_adapter@_W@__crt_stdio_output@@@2@@__crt_stdio_output@@AAE_N_W@Z 10060480 f i libucrtd:output.obj
 0001:0005f4a0       ?state_case_normal_tchar@?$output_processor@_WV?$string_output_adapter@_W@__crt_stdio_output@@V?$format_validation_base@_WV?$string_output_adapter@_W@__crt_stdio_output@@@2@@__crt_stdio_output@@AAE_N_W@Z 100604a0 f i libucrtd:output.obj
 0001:0005f4c0       ?state_case_normal_tchar@?$output_processor@_WV?$string_output_adapter@_W@__crt_stdio_output@@V?$positional_parameter_base@_WV?$string_output_adapter@_W@__crt_stdio_output@@@2@@__crt_stdio_output@@AAE_N_W@Z 100604c0 f i libucrtd:output.obj
 0001:0005f4e0       ?state_case_normal_tchar@?$output_processor@_WV?$string_output_adapter@_W@__crt_stdio_output@@V?$standard_base@_WV?$string_output_adapter@_W@__crt_stdio_output@@@2@@__crt_stdio_output@@AAE_N_W@Z 100604e0 f i libucrtd:output.obj
 0001:0005f500       ?state_case_percent@?$output_processor@DV?$stream_output_adapter@D@__crt_stdio_output@@V?$format_validation_base@DV?$stream_output_adapter@D@__crt_stdio_output@@@2@@__crt_stdio_output@@AAE_NXZ 10060500 f i libucrtd:output.obj
 0001:0005f550       ?state_case_percent@?$output_processor@DV?$stream_output_adapter@D@__crt_stdio_output@@V?$positional_parameter_base@DV?$stream_output_adapter@D@__crt_stdio_output@@@2@@__crt_stdio_output@@AAE_NXZ 10060550 f i libucrtd:output.obj
 0001:0005f5a0       ?state_case_percent@?$output_processor@DV?$stream_output_adapter@D@__crt_stdio_output@@V?$standard_base@DV?$stream_output_adapter@D@__crt_stdio_output@@@2@@__crt_stdio_output@@AAE_NXZ 100605a0 f i libucrtd:output.obj
 0001:0005f5f0       ?state_case_percent@?$output_processor@DV?$string_output_adapter@D@__crt_stdio_output@@V?$format_validation_base@DV?$string_output_adapter@D@__crt_stdio_output@@@2@@__crt_stdio_output@@AAE_NXZ 100605f0 f i libucrtd:output.obj
 0001:0005f640       ?state_case_percent@?$output_processor@DV?$string_output_adapter@D@__crt_stdio_output@@V?$positional_parameter_base@DV?$string_output_adapter@D@__crt_stdio_output@@@2@@__crt_stdio_output@@AAE_NXZ 10060640 f i libucrtd:output.obj
 0001:0005f690       ?state_case_percent@?$output_processor@DV?$string_output_adapter@D@__crt_stdio_output@@V?$standard_base@DV?$string_output_adapter@D@__crt_stdio_output@@@2@@__crt_stdio_output@@AAE_NXZ 10060690 f i libucrtd:output.obj
 0001:0005f6e0       ?state_case_percent@?$output_processor@_WV?$stream_output_adapter@_W@__crt_stdio_output@@V?$format_validation_base@_WV?$stream_output_adapter@_W@__crt_stdio_output@@@2@@__crt_stdio_output@@AAE_NXZ 100606e0 f i libucrtd:output.obj
 0001:0005f730       ?state_case_percent@?$output_processor@_WV?$stream_output_adapter@_W@__crt_stdio_output@@V?$positional_parameter_base@_WV?$stream_output_adapter@_W@__crt_stdio_output@@@2@@__crt_stdio_output@@AAE_NXZ 10060730 f i libucrtd:output.obj
 0001:0005f780       ?state_case_percent@?$output_processor@_WV?$stream_output_adapter@_W@__crt_stdio_output@@V?$standard_base@_WV?$stream_output_adapter@_W@__crt_stdio_output@@@2@@__crt_stdio_output@@AAE_NXZ 10060780 f i libucrtd:output.obj
 0001:0005f7d0       ?state_case_percent@?$output_processor@_WV?$string_output_adapter@_W@__crt_stdio_output@@V?$format_validation_base@_WV?$string_output_adapter@_W@__crt_stdio_output@@@2@@__crt_stdio_output@@AAE_NXZ 100607d0 f i libucrtd:output.obj
 0001:0005f820       ?state_case_percent@?$output_processor@_WV?$string_output_adapter@_W@__crt_stdio_output@@V?$positional_parameter_base@_WV?$string_output_adapter@_W@__crt_stdio_output@@@2@@__crt_stdio_output@@AAE_NXZ 10060820 f i libucrtd:output.obj
 0001:0005f870       ?state_case_percent@?$output_processor@_WV?$string_output_adapter@_W@__crt_stdio_output@@V?$standard_base@_WV?$string_output_adapter@_W@__crt_stdio_output@@@2@@__crt_stdio_output@@AAE_NXZ 10060870 f i libucrtd:output.obj
 0001:0005f8c0       ?state_case_precision@?$output_processor@DV?$stream_output_adapter@D@__crt_stdio_output@@V?$format_validation_base@DV?$stream_output_adapter@D@__crt_stdio_output@@@2@@__crt_stdio_output@@AAE_NXZ 100608c0 f i libucrtd:output.obj
 0001:0005f930       ?state_case_precision@?$output_processor@DV?$stream_output_adapter@D@__crt_stdio_output@@V?$positional_parameter_base@DV?$stream_output_adapter@D@__crt_stdio_output@@@2@@__crt_stdio_output@@AAE_NXZ 10060930 f i libucrtd:output.obj
 0001:0005f9a0       ?state_case_precision@?$output_processor@DV?$stream_output_adapter@D@__crt_stdio_output@@V?$standard_base@DV?$stream_output_adapter@D@__crt_stdio_output@@@2@@__crt_stdio_output@@AAE_NXZ 100609a0 f i libucrtd:output.obj
 0001:0005fa10       ?state_case_precision@?$output_processor@DV?$string_output_adapter@D@__crt_stdio_output@@V?$format_validation_base@DV?$string_output_adapter@D@__crt_stdio_output@@@2@@__crt_stdio_output@@AAE_NXZ 10060a10 f i libucrtd:output.obj
 0001:0005fa80       ?state_case_precision@?$output_processor@DV?$string_output_adapter@D@__crt_stdio_output@@V?$positional_parameter_base@DV?$string_output_adapter@D@__crt_stdio_output@@@2@@__crt_stdio_output@@AAE_NXZ 10060a80 f i libucrtd:output.obj
 0001:0005faf0       ?state_case_precision@?$output_processor@DV?$string_output_adapter@D@__crt_stdio_output@@V?$standard_base@DV?$string_output_adapter@D@__crt_stdio_output@@@2@@__crt_stdio_output@@AAE_NXZ 10060af0 f i libucrtd:output.obj
 0001:0005fb60       ?state_case_precision@?$output_processor@_WV?$stream_output_adapter@_W@__crt_stdio_output@@V?$format_validation_base@_WV?$stream_output_adapter@_W@__crt_stdio_output@@@2@@__crt_stdio_output@@AAE_NXZ 10060b60 f i libucrtd:output.obj
 0001:0005fbd0       ?state_case_precision@?$output_processor@_WV?$stream_output_adapter@_W@__crt_stdio_output@@V?$positional_parameter_base@_WV?$stream_output_adapter@_W@__crt_stdio_output@@@2@@__crt_stdio_output@@AAE_NXZ 10060bd0 f i libucrtd:output.obj
 0001:0005fc40       ?state_case_precision@?$output_processor@_WV?$stream_output_adapter@_W@__crt_stdio_output@@V?$standard_base@_WV?$stream_output_adapter@_W@__crt_stdio_output@@@2@@__crt_stdio_output@@AAE_NXZ 10060c40 f i libucrtd:output.obj
 0001:0005fcb0       ?state_case_precision@?$output_processor@_WV?$string_output_adapter@_W@__crt_stdio_output@@V?$format_validation_base@_WV?$string_output_adapter@_W@__crt_stdio_output@@@2@@__crt_stdio_output@@AAE_NXZ 10060cb0 f i libucrtd:output.obj
 0001:0005fd20       ?state_case_precision@?$output_processor@_WV?$string_output_adapter@_W@__crt_stdio_output@@V?$positional_parameter_base@_WV?$string_output_adapter@_W@__crt_stdio_output@@@2@@__crt_stdio_output@@AAE_NXZ 10060d20 f i libucrtd:output.obj
 0001:0005fd90       ?state_case_precision@?$output_processor@_WV?$string_output_adapter@_W@__crt_stdio_output@@V?$standard_base@_WV?$string_output_adapter@_W@__crt_stdio_output@@@2@@__crt_stdio_output@@AAE_NXZ 10060d90 f i libucrtd:output.obj
 0001:0005fe00       ?state_case_size@?$output_processor@DV?$stream_output_adapter@D@__crt_stdio_output@@V?$format_validation_base@DV?$stream_output_adapter@D@__crt_stdio_output@@@2@@__crt_stdio_output@@AAE_NXZ 10060e00 f i libucrtd:output.obj
 0001:000601f0       ?state_case_size@?$output_processor@DV?$stream_output_adapter@D@__crt_stdio_output@@V?$positional_parameter_base@DV?$stream_output_adapter@D@__crt_stdio_output@@@2@@__crt_stdio_output@@AAE_NXZ 100611f0 f i libucrtd:output.obj
 0001:000605e0       ?state_case_size@?$output_processor@DV?$stream_output_adapter@D@__crt_stdio_output@@V?$standard_base@DV?$stream_output_adapter@D@__crt_stdio_output@@@2@@__crt_stdio_output@@AAE_NXZ 100615e0 f i libucrtd:output.obj
 0001:000609d0       ?state_case_size@?$output_processor@DV?$string_output_adapter@D@__crt_stdio_output@@V?$format_validation_base@DV?$string_output_adapter@D@__crt_stdio_output@@@2@@__crt_stdio_output@@AAE_NXZ 100619d0 f i libucrtd:output.obj
 0001:00060dc0       ?state_case_size@?$output_processor@DV?$string_output_adapter@D@__crt_stdio_output@@V?$positional_parameter_base@DV?$string_output_adapter@D@__crt_stdio_output@@@2@@__crt_stdio_output@@AAE_NXZ 10061dc0 f i libucrtd:output.obj
 0001:000611b0       ?state_case_size@?$output_processor@DV?$string_output_adapter@D@__crt_stdio_output@@V?$standard_base@DV?$string_output_adapter@D@__crt_stdio_output@@@2@@__crt_stdio_output@@AAE_NXZ 100621b0 f i libucrtd:output.obj
 0001:000615a0       ?state_case_size@?$output_processor@_WV?$stream_output_adapter@_W@__crt_stdio_output@@V?$format_validation_base@_WV?$stream_output_adapter@_W@__crt_stdio_output@@@2@@__crt_stdio_output@@AAE_NXZ 100625a0 f i libucrtd:output.obj
 0001:00061990       ?state_case_size@?$output_processor@_WV?$stream_output_adapter@_W@__crt_stdio_output@@V?$positional_parameter_base@_WV?$stream_output_adapter@_W@__crt_stdio_output@@@2@@__crt_stdio_output@@AAE_NXZ 10062990 f i libucrtd:output.obj
 0001:00061d80       ?state_case_size@?$output_processor@_WV?$stream_output_adapter@_W@__crt_stdio_output@@V?$standard_base@_WV?$stream_output_adapter@_W@__crt_stdio_output@@@2@@__crt_stdio_output@@AAE_NXZ 10062d80 f i libucrtd:output.obj
 0001:00062170       ?state_case_size@?$output_processor@_WV?$string_output_adapter@_W@__crt_stdio_output@@V?$format_validation_base@_WV?$string_output_adapter@_W@__crt_stdio_output@@@2@@__crt_stdio_output@@AAE_NXZ 10063170 f i libucrtd:output.obj
 0001:00062560       ?state_case_size@?$output_processor@_WV?$string_output_adapter@_W@__crt_stdio_output@@V?$positional_parameter_base@_WV?$string_output_adapter@_W@__crt_stdio_output@@@2@@__crt_stdio_output@@AAE_NXZ 10063560 f i libucrtd:output.obj
 0001:00062950       ?state_case_size@?$output_processor@_WV?$string_output_adapter@_W@__crt_stdio_output@@V?$standard_base@_WV?$string_output_adapter@_W@__crt_stdio_output@@@2@@__crt_stdio_output@@AAE_NXZ 10063950 f i libucrtd:output.obj
 0001:00062d40       ?state_case_type@?$output_processor@DV?$stream_output_adapter@D@__crt_stdio_output@@V?$format_validation_base@DV?$stream_output_adapter@D@__crt_stdio_output@@@2@@__crt_stdio_output@@AAE_NXZ 10063d40 f i libucrtd:output.obj
 0001:00063110       ?state_case_type@?$output_processor@DV?$stream_output_adapter@D@__crt_stdio_output@@V?$positional_parameter_base@DV?$stream_output_adapter@D@__crt_stdio_output@@@2@@__crt_stdio_output@@AAE_NXZ 10064110 f i libucrtd:output.obj
 0001:000634e0       ?state_case_type@?$output_processor@DV?$stream_output_adapter@D@__crt_stdio_output@@V?$standard_base@DV?$stream_output_adapter@D@__crt_stdio_output@@@2@@__crt_stdio_output@@AAE_NXZ 100644e0 f i libucrtd:output.obj
 0001:000638b0       ?state_case_type@?$output_processor@DV?$string_output_adapter@D@__crt_stdio_output@@V?$format_validation_base@DV?$string_output_adapter@D@__crt_stdio_output@@@2@@__crt_stdio_output@@AAE_NXZ 100648b0 f i libucrtd:output.obj
 0001:00063c80       ?state_case_type@?$output_processor@DV?$string_output_adapter@D@__crt_stdio_output@@V?$positional_parameter_base@DV?$string_output_adapter@D@__crt_stdio_output@@@2@@__crt_stdio_output@@AAE_NXZ 10064c80 f i libucrtd:output.obj
 0001:00064050       ?state_case_type@?$output_processor@DV?$string_output_adapter@D@__crt_stdio_output@@V?$standard_base@DV?$string_output_adapter@D@__crt_stdio_output@@@2@@__crt_stdio_output@@AAE_NXZ 10065050 f i libucrtd:output.obj
 0001:00064420       ?state_case_type@?$output_processor@_WV?$stream_output_adapter@_W@__crt_stdio_output@@V?$format_validation_base@_WV?$stream_output_adapter@_W@__crt_stdio_output@@@2@@__crt_stdio_output@@AAE_NXZ 10065420 f i libucrtd:output.obj
 0001:00064820       ?state_case_type@?$output_processor@_WV?$stream_output_adapter@_W@__crt_stdio_output@@V?$positional_parameter_base@_WV?$stream_output_adapter@_W@__crt_stdio_output@@@2@@__crt_stdio_output@@AAE_NXZ 10065820 f i libucrtd:output.obj
 0001:00064c20       ?state_case_type@?$output_processor@_WV?$stream_output_adapter@_W@__crt_stdio_output@@V?$standard_base@_WV?$stream_output_adapter@_W@__crt_stdio_output@@@2@@__crt_stdio_output@@AAE_NXZ 10065c20 f i libucrtd:output.obj
 0001:00065020       ?state_case_type@?$output_processor@_WV?$string_output_adapter@_W@__crt_stdio_output@@V?$format_validation_base@_WV?$string_output_adapter@_W@__crt_stdio_output@@@2@@__crt_stdio_output@@AAE_NXZ 10066020 f i libucrtd:output.obj
 0001:00065420       ?state_case_type@?$output_processor@_WV?$string_output_adapter@_W@__crt_stdio_output@@V?$positional_parameter_base@_WV?$string_output_adapter@_W@__crt_stdio_output@@@2@@__crt_stdio_output@@AAE_NXZ 10066420 f i libucrtd:output.obj
 0001:00065820       ?state_case_type@?$output_processor@_WV?$string_output_adapter@_W@__crt_stdio_output@@V?$standard_base@_WV?$string_output_adapter@_W@__crt_stdio_output@@@2@@__crt_stdio_output@@AAE_NXZ 10066820 f i libucrtd:output.obj
 0001:00065c20       ?state_case_width@?$output_processor@DV?$stream_output_adapter@D@__crt_stdio_output@@V?$format_validation_base@DV?$stream_output_adapter@D@__crt_stdio_output@@@2@@__crt_stdio_output@@AAE_NXZ 10066c20 f i libucrtd:output.obj
 0001:00065ca0       ?state_case_width@?$output_processor@DV?$stream_output_adapter@D@__crt_stdio_output@@V?$positional_parameter_base@DV?$stream_output_adapter@D@__crt_stdio_output@@@2@@__crt_stdio_output@@AAE_NXZ 10066ca0 f i libucrtd:output.obj
 0001:00065d20       ?state_case_width@?$output_processor@DV?$stream_output_adapter@D@__crt_stdio_output@@V?$standard_base@DV?$stream_output_adapter@D@__crt_stdio_output@@@2@@__crt_stdio_output@@AAE_NXZ 10066d20 f i libucrtd:output.obj
 0001:00065da0       ?state_case_width@?$output_processor@DV?$string_output_adapter@D@__crt_stdio_output@@V?$format_validation_base@DV?$string_output_adapter@D@__crt_stdio_output@@@2@@__crt_stdio_output@@AAE_NXZ 10066da0 f i libucrtd:output.obj
 0001:00065e20       ?state_case_width@?$output_processor@DV?$string_output_adapter@D@__crt_stdio_output@@V?$positional_parameter_base@DV?$string_output_adapter@D@__crt_stdio_output@@@2@@__crt_stdio_output@@AAE_NXZ 10066e20 f i libucrtd:output.obj
 0001:00065ea0       ?state_case_width@?$output_processor@DV?$string_output_adapter@D@__crt_stdio_output@@V?$standard_base@DV?$string_output_adapter@D@__crt_stdio_output@@@2@@__crt_stdio_output@@AAE_NXZ 10066ea0 f i libucrtd:output.obj
 0001:00065f20       ?state_case_width@?$output_processor@_WV?$stream_output_adapter@_W@__crt_stdio_output@@V?$format_validation_base@_WV?$stream_output_adapter@_W@__crt_stdio_output@@@2@@__crt_stdio_output@@AAE_NXZ 10066f20 f i libucrtd:output.obj
 0001:00065fa0       ?state_case_width@?$output_processor@_WV?$stream_output_adapter@_W@__crt_stdio_output@@V?$positional_parameter_base@_WV?$stream_output_adapter@_W@__crt_stdio_output@@@2@@__crt_stdio_output@@AAE_NXZ 10066fa0 f i libucrtd:output.obj
 0001:00066020       ?state_case_width@?$output_processor@_WV?$stream_output_adapter@_W@__crt_stdio_output@@V?$standard_base@_WV?$stream_output_adapter@_W@__crt_stdio_output@@@2@@__crt_stdio_output@@AAE_NXZ 10067020 f i libucrtd:output.obj
 0001:000660a0       ?state_case_width@?$output_processor@_WV?$string_output_adapter@_W@__crt_stdio_output@@V?$format_validation_base@_WV?$string_output_adapter@_W@__crt_stdio_output@@@2@@__crt_stdio_output@@AAE_NXZ 100670a0 f i libucrtd:output.obj
 0001:00066120       ?state_case_width@?$output_processor@_WV?$string_output_adapter@_W@__crt_stdio_output@@V?$positional_parameter_base@_WV?$string_output_adapter@_W@__crt_stdio_output@@@2@@__crt_stdio_output@@AAE_NXZ 10067120 f i libucrtd:output.obj
 0001:000661a0       ?state_case_width@?$output_processor@_WV?$string_output_adapter@_W@__crt_stdio_output@@V?$standard_base@_WV?$string_output_adapter@_W@__crt_stdio_output@@@2@@__crt_stdio_output@@AAE_NXZ 100671a0 f i libucrtd:output.obj
 0001:00066220       ?state_count@?$format_validation_base@DV?$stream_output_adapter@D@__crt_stdio_output@@@__crt_stdio_output@@KAIXZ 10067220 f i libucrtd:output.obj
 0001:00066230       ?state_count@?$format_validation_base@DV?$string_output_adapter@D@__crt_stdio_output@@@__crt_stdio_output@@KAIXZ 10067230 f i libucrtd:output.obj
 0001:00066240       ?state_count@?$format_validation_base@_WV?$stream_output_adapter@_W@__crt_stdio_output@@@__crt_stdio_output@@KAIXZ 10067240 f i libucrtd:output.obj
 0001:00066250       ?state_count@?$format_validation_base@_WV?$string_output_adapter@_W@__crt_stdio_output@@@__crt_stdio_output@@KAIXZ 10067250 f i libucrtd:output.obj
 0001:00066260       ?state_count@?$standard_base@DV?$stream_output_adapter@D@__crt_stdio_output@@@__crt_stdio_output@@KAIXZ 10067260 f i libucrtd:output.obj
 0001:00066270       ?state_count@?$standard_base@DV?$string_output_adapter@D@__crt_stdio_output@@@__crt_stdio_output@@KAIXZ 10067270 f i libucrtd:output.obj
 0001:00066280       ?state_count@?$standard_base@_WV?$stream_output_adapter@_W@__crt_stdio_output@@@__crt_stdio_output@@KAIXZ 10067280 f i libucrtd:output.obj
 0001:00066290       ?state_count@?$standard_base@_WV?$string_output_adapter@_W@__crt_stdio_output@@@__crt_stdio_output@@KAIXZ 10067290 f i libucrtd:output.obj
 0001:000662a0       ?state_transition_table@?$format_validation_base@DV?$stream_output_adapter@D@__crt_stdio_output@@@__crt_stdio_output@@KAABV?$spectre_mitigated_lookup_table@Ustate_transition_pair@__crt_stdio_output@@$0IA@@2@XZ 100672a0 f i libucrtd:output.obj
 0001:000662b0       ?state_transition_table@?$format_validation_base@DV?$string_output_adapter@D@__crt_stdio_output@@@__crt_stdio_output@@KAABV?$spectre_mitigated_lookup_table@Ustate_transition_pair@__crt_stdio_output@@$0IA@@2@XZ 100672b0 f i libucrtd:output.obj
 0001:000662c0       ?state_transition_table@?$format_validation_base@_WV?$stream_output_adapter@_W@__crt_stdio_output@@@__crt_stdio_output@@KAABV?$spectre_mitigated_lookup_table@Ustate_transition_pair@__crt_stdio_output@@$0IA@@2@XZ 100672c0 f i libucrtd:output.obj
 0001:000662d0       ?state_transition_table@?$format_validation_base@_WV?$string_output_adapter@_W@__crt_stdio_output@@@__crt_stdio_output@@KAABV?$spectre_mitigated_lookup_table@Ustate_transition_pair@__crt_stdio_output@@$0IA@@2@XZ 100672d0 f i libucrtd:output.obj
 0001:000662e0       ?state_transition_table@?$standard_base@DV?$stream_output_adapter@D@__crt_stdio_output@@@__crt_stdio_output@@KAABV?$spectre_mitigated_lookup_table@Ustate_transition_pair@__crt_stdio_output@@$0IA@@2@XZ 100672e0 f i libucrtd:output.obj
 0001:000662f0       ?state_transition_table@?$standard_base@DV?$string_output_adapter@D@__crt_stdio_output@@@__crt_stdio_output@@KAABV?$spectre_mitigated_lookup_table@Ustate_transition_pair@__crt_stdio_output@@$0IA@@2@XZ 100672f0 f i libucrtd:output.obj
 0001:00066300       ?state_transition_table@?$standard_base@_WV?$stream_output_adapter@_W@__crt_stdio_output@@@__crt_stdio_output@@KAABV?$spectre_mitigated_lookup_table@Ustate_transition_pair@__crt_stdio_output@@$0IA@@2@XZ 10067300 f i libucrtd:output.obj
 0001:00066310       ?state_transition_table@?$standard_base@_WV?$string_output_adapter@_W@__crt_stdio_output@@@__crt_stdio_output@@KAABV?$spectre_mitigated_lookup_table@Ustate_transition_pair@__crt_stdio_output@@$0IA@@2@XZ 10067310 f i libucrtd:output.obj
 0001:00066320       ?tchar_string@?$common_data@D@__crt_stdio_output@@IAEAAPADD@Z 10067320 f i libucrtd:output.obj
 0001:00066340       ?tchar_string@?$common_data@D@__crt_stdio_output@@IAEAAPADXZ 10067340 f i libucrtd:output.obj
 0001:00066360       ?tchar_string@?$common_data@_W@__crt_stdio_output@@IAEAAPA_WXZ 10067360 f i libucrtd:output.obj
 0001:00066380       ?tchar_string@?$common_data@_W@__crt_stdio_output@@IAEAAPA_W_W@Z 10067380 f i libucrtd:output.obj
 0001:000663a0       ?to_integer_size@__crt_stdio_output@@YAIW4length_modifier@1@@Z 100673a0 f i libucrtd:output.obj
 0001:00066440       ?type_case_X@?$output_processor@DV?$stream_output_adapter@D@__crt_stdio_output@@V?$format_validation_base@DV?$stream_output_adapter@D@__crt_stdio_output@@@2@@__crt_stdio_output@@AAE_NXZ 10067440 f i libucrtd:output.obj
 0001:00066460       ?type_case_X@?$output_processor@DV?$stream_output_adapter@D@__crt_stdio_output@@V?$positional_parameter_base@DV?$stream_output_adapter@D@__crt_stdio_output@@@2@@__crt_stdio_output@@AAE_NXZ 10067460 f i libucrtd:output.obj
 0001:00066480       ?type_case_X@?$output_processor@DV?$stream_output_adapter@D@__crt_stdio_output@@V?$standard_base@DV?$stream_output_adapter@D@__crt_stdio_output@@@2@@__crt_stdio_output@@AAE_NXZ 10067480 f i libucrtd:output.obj
 0001:000664a0       ?type_case_X@?$output_processor@DV?$string_output_adapter@D@__crt_stdio_output@@V?$format_validation_base@DV?$string_output_adapter@D@__crt_stdio_output@@@2@@__crt_stdio_output@@AAE_NXZ 100674a0 f i libucrtd:output.obj
 0001:000664c0       ?type_case_X@?$output_processor@DV?$string_output_adapter@D@__crt_stdio_output@@V?$positional_parameter_base@DV?$string_output_adapter@D@__crt_stdio_output@@@2@@__crt_stdio_output@@AAE_NXZ 100674c0 f i libucrtd:output.obj
 0001:000664e0       ?type_case_X@?$output_processor@DV?$string_output_adapter@D@__crt_stdio_output@@V?$standard_base@DV?$string_output_adapter@D@__crt_stdio_output@@@2@@__crt_stdio_output@@AAE_NXZ 100674e0 f i libucrtd:output.obj
 0001:00066500       ?type_case_X@?$output_processor@_WV?$stream_output_adapter@_W@__crt_stdio_output@@V?$format_validation_base@_WV?$stream_output_adapter@_W@__crt_stdio_output@@@2@@__crt_stdio_output@@AAE_NXZ 10067500 f i libucrtd:output.obj
 0001:00066520       ?type_case_X@?$output_processor@_WV?$stream_output_adapter@_W@__crt_stdio_output@@V?$positional_parameter_base@_WV?$stream_output_adapter@_W@__crt_stdio_output@@@2@@__crt_stdio_output@@AAE_NXZ 10067520 f i libucrtd:output.obj
 0001:00066540       ?type_case_X@?$output_processor@_WV?$stream_output_adapter@_W@__crt_stdio_output@@V?$standard_base@_WV?$stream_output_adapter@_W@__crt_stdio_output@@@2@@__crt_stdio_output@@AAE_NXZ 10067540 f i libucrtd:output.obj
 0001:00066560       ?type_case_X@?$output_processor@_WV?$string_output_adapter@_W@__crt_stdio_output@@V?$format_validation_base@_WV?$string_output_adapter@_W@__crt_stdio_output@@@2@@__crt_stdio_output@@AAE_NXZ 10067560 f i libucrtd:output.obj
 0001:00066580       ?type_case_X@?$output_processor@_WV?$string_output_adapter@_W@__crt_stdio_output@@V?$positional_parameter_base@_WV?$string_output_adapter@_W@__crt_stdio_output@@@2@@__crt_stdio_output@@AAE_NXZ 10067580 f i libucrtd:output.obj
 0001:000665a0       ?type_case_X@?$output_processor@_WV?$string_output_adapter@_W@__crt_stdio_output@@V?$standard_base@_WV?$string_output_adapter@_W@__crt_stdio_output@@@2@@__crt_stdio_output@@AAE_NXZ 100675a0 f i libucrtd:output.obj
 0001:000665c0       ?type_case_Z@?$output_processor@DV?$stream_output_adapter@D@__crt_stdio_output@@V?$format_validation_base@DV?$stream_output_adapter@D@__crt_stdio_output@@@2@@__crt_stdio_output@@AAE_NXZ 100675c0 f i libucrtd:output.obj
 0001:000666b0       ?type_case_Z@?$output_processor@DV?$stream_output_adapter@D@__crt_stdio_output@@V?$positional_parameter_base@DV?$stream_output_adapter@D@__crt_stdio_output@@@2@@__crt_stdio_output@@AAE_NXZ 100676b0 f i libucrtd:output.obj
 0001:000667a0       ?type_case_Z@?$output_processor@DV?$stream_output_adapter@D@__crt_stdio_output@@V?$standard_base@DV?$stream_output_adapter@D@__crt_stdio_output@@@2@@__crt_stdio_output@@AAE_NXZ 100677a0 f i libucrtd:output.obj
 0001:00066890       ?type_case_Z@?$output_processor@DV?$string_output_adapter@D@__crt_stdio_output@@V?$format_validation_base@DV?$string_output_adapter@D@__crt_stdio_output@@@2@@__crt_stdio_output@@AAE_NXZ 10067890 f i libucrtd:output.obj
 0001:00066980       ?type_case_Z@?$output_processor@DV?$string_output_adapter@D@__crt_stdio_output@@V?$positional_parameter_base@DV?$string_output_adapter@D@__crt_stdio_output@@@2@@__crt_stdio_output@@AAE_NXZ 10067980 f i libucrtd:output.obj
 0001:00066a70       ?type_case_Z@?$output_processor@DV?$string_output_adapter@D@__crt_stdio_output@@V?$standard_base@DV?$string_output_adapter@D@__crt_stdio_output@@@2@@__crt_stdio_output@@AAE_NXZ 10067a70 f i libucrtd:output.obj
 0001:00066b60       ?type_case_Z@?$output_processor@_WV?$stream_output_adapter@_W@__crt_stdio_output@@V?$format_validation_base@_WV?$stream_output_adapter@_W@__crt_stdio_output@@@2@@__crt_stdio_output@@AAE_NXZ 10067b60 f i libucrtd:output.obj
 0001:00066c50       ?type_case_Z@?$output_processor@_WV?$stream_output_adapter@_W@__crt_stdio_output@@V?$positional_parameter_base@_WV?$stream_output_adapter@_W@__crt_stdio_output@@@2@@__crt_stdio_output@@AAE_NXZ 10067c50 f i libucrtd:output.obj
 0001:00066d40       ?type_case_Z@?$output_processor@_WV?$stream_output_adapter@_W@__crt_stdio_output@@V?$standard_base@_WV?$stream_output_adapter@_W@__crt_stdio_output@@@2@@__crt_stdio_output@@AAE_NXZ 10067d40 f i libucrtd:output.obj
 0001:00066e30       ?type_case_Z@?$output_processor@_WV?$string_output_adapter@_W@__crt_stdio_output@@V?$format_validation_base@_WV?$string_output_adapter@_W@__crt_stdio_output@@@2@@__crt_stdio_output@@AAE_NXZ 10067e30 f i libucrtd:output.obj
 0001:00066f20       ?type_case_Z@?$output_processor@_WV?$string_output_adapter@_W@__crt_stdio_output@@V?$positional_parameter_base@_WV?$string_output_adapter@_W@__crt_stdio_output@@@2@@__crt_stdio_output@@AAE_NXZ 10067f20 f i libucrtd:output.obj
 0001:00067010       ?type_case_Z@?$output_processor@_WV?$string_output_adapter@_W@__crt_stdio_output@@V?$standard_base@_WV?$string_output_adapter@_W@__crt_stdio_output@@@2@@__crt_stdio_output@@AAE_NXZ 10068010 f i libucrtd:output.obj
 0001:00067100       ?type_case_a@?$output_processor@DV?$stream_output_adapter@D@__crt_stdio_output@@V?$format_validation_base@DV?$stream_output_adapter@D@__crt_stdio_output@@@2@@__crt_stdio_output@@AAE_NXZ 10068100 f i libucrtd:output.obj
 0001:000673d0       ?type_case_a@?$output_processor@DV?$stream_output_adapter@D@__crt_stdio_output@@V?$positional_parameter_base@DV?$stream_output_adapter@D@__crt_stdio_output@@@2@@__crt_stdio_output@@AAE_NXZ 100683d0 f i libucrtd:output.obj
 0001:000676a0       ?type_case_a@?$output_processor@DV?$stream_output_adapter@D@__crt_stdio_output@@V?$standard_base@DV?$stream_output_adapter@D@__crt_stdio_output@@@2@@__crt_stdio_output@@AAE_NXZ 100686a0 f i libucrtd:output.obj
 0001:00067970       ?type_case_a@?$output_processor@DV?$string_output_adapter@D@__crt_stdio_output@@V?$format_validation_base@DV?$string_output_adapter@D@__crt_stdio_output@@@2@@__crt_stdio_output@@AAE_NXZ 10068970 f i libucrtd:output.obj
 0001:00067c40       ?type_case_a@?$output_processor@DV?$string_output_adapter@D@__crt_stdio_output@@V?$positional_parameter_base@DV?$string_output_adapter@D@__crt_stdio_output@@@2@@__crt_stdio_output@@AAE_NXZ 10068c40 f i libucrtd:output.obj
 0001:00067f10       ?type_case_a@?$output_processor@DV?$string_output_adapter@D@__crt_stdio_output@@V?$standard_base@DV?$string_output_adapter@D@__crt_stdio_output@@@2@@__crt_stdio_output@@AAE_NXZ 10068f10 f i libucrtd:output.obj
 0001:000681e0       ?type_case_a@?$output_processor@_WV?$stream_output_adapter@_W@__crt_stdio_output@@V?$format_validation_base@_WV?$stream_output_adapter@_W@__crt_stdio_output@@@2@@__crt_stdio_output@@AAE_NXZ 100691e0 f i libucrtd:output.obj
 0001:000684b0       ?type_case_a@?$output_processor@_WV?$stream_output_adapter@_W@__crt_stdio_output@@V?$positional_parameter_base@_WV?$stream_output_adapter@_W@__crt_stdio_output@@@2@@__crt_stdio_output@@AAE_NXZ 100694b0 f i libucrtd:output.obj
 0001:00068780       ?type_case_a@?$output_processor@_WV?$stream_output_adapter@_W@__crt_stdio_output@@V?$standard_base@_WV?$stream_output_adapter@_W@__crt_stdio_output@@@2@@__crt_stdio_output@@AAE_NXZ 10069780 f i libucrtd:output.obj
 0001:00068a50       ?type_case_a@?$output_processor@_WV?$string_output_adapter@_W@__crt_stdio_output@@V?$format_validation_base@_WV?$string_output_adapter@_W@__crt_stdio_output@@@2@@__crt_stdio_output@@AAE_NXZ 10069a50 f i libucrtd:output.obj
 0001:00068d20       ?type_case_a@?$output_processor@_WV?$string_output_adapter@_W@__crt_stdio_output@@V?$positional_parameter_base@_WV?$string_output_adapter@_W@__crt_stdio_output@@@2@@__crt_stdio_output@@AAE_NXZ 10069d20 f i libucrtd:output.obj
 0001:00068ff0       ?type_case_a@?$output_processor@_WV?$string_output_adapter@_W@__crt_stdio_output@@V?$standard_base@_WV?$string_output_adapter@_W@__crt_stdio_output@@@2@@__crt_stdio_output@@AAE_NXZ 10069ff0 f i libucrtd:output.obj
 0001:000692c0       ?type_case_c@?$output_processor@DV?$stream_output_adapter@D@__crt_stdio_output@@V?$format_validation_base@DV?$stream_output_adapter@D@__crt_stdio_output@@@2@@__crt_stdio_output@@AAE_NXZ 1006a2c0 f i libucrtd:output.obj
 0001:000692e0       ?type_case_c@?$output_processor@DV?$stream_output_adapter@D@__crt_stdio_output@@V?$positional_parameter_base@DV?$stream_output_adapter@D@__crt_stdio_output@@@2@@__crt_stdio_output@@AAE_NXZ 1006a2e0 f i libucrtd:output.obj
 0001:00069300       ?type_case_c@?$output_processor@DV?$stream_output_adapter@D@__crt_stdio_output@@V?$standard_base@DV?$stream_output_adapter@D@__crt_stdio_output@@@2@@__crt_stdio_output@@AAE_NXZ 1006a300 f i libucrtd:output.obj
 0001:00069320       ?type_case_c@?$output_processor@DV?$string_output_adapter@D@__crt_stdio_output@@V?$format_validation_base@DV?$string_output_adapter@D@__crt_stdio_output@@@2@@__crt_stdio_output@@AAE_NXZ 1006a320 f i libucrtd:output.obj
 0001:00069340       ?type_case_c@?$output_processor@DV?$string_output_adapter@D@__crt_stdio_output@@V?$positional_parameter_base@DV?$string_output_adapter@D@__crt_stdio_output@@@2@@__crt_stdio_output@@AAE_NXZ 1006a340 f i libucrtd:output.obj
 0001:00069360       ?type_case_c@?$output_processor@DV?$string_output_adapter@D@__crt_stdio_output@@V?$standard_base@DV?$string_output_adapter@D@__crt_stdio_output@@@2@@__crt_stdio_output@@AAE_NXZ 1006a360 f i libucrtd:output.obj
 0001:00069380       ?type_case_c@?$output_processor@_WV?$stream_output_adapter@_W@__crt_stdio_output@@V?$format_validation_base@_WV?$stream_output_adapter@_W@__crt_stdio_output@@@2@@__crt_stdio_output@@AAE_NXZ 1006a380 f i libucrtd:output.obj
 0001:000693a0       ?type_case_c@?$output_processor@_WV?$stream_output_adapter@_W@__crt_stdio_output@@V?$positional_parameter_base@_WV?$stream_output_adapter@_W@__crt_stdio_output@@@2@@__crt_stdio_output@@AAE_NXZ 1006a3a0 f i libucrtd:output.obj
 0001:000693c0       ?type_case_c@?$output_processor@_WV?$stream_output_adapter@_W@__crt_stdio_output@@V?$standard_base@_WV?$stream_output_adapter@_W@__crt_stdio_output@@@2@@__crt_stdio_output@@AAE_NXZ 1006a3c0 f i libucrtd:output.obj
 0001:000693e0       ?type_case_c@?$output_processor@_WV?$string_output_adapter@_W@__crt_stdio_output@@V?$format_validation_base@_WV?$string_output_adapter@_W@__crt_stdio_output@@@2@@__crt_stdio_output@@AAE_NXZ 1006a3e0 f i libucrtd:output.obj
 0001:00069400       ?type_case_c@?$output_processor@_WV?$string_output_adapter@_W@__crt_stdio_output@@V?$positional_parameter_base@_WV?$string_output_adapter@_W@__crt_stdio_output@@@2@@__crt_stdio_output@@AAE_NXZ 1006a400 f i libucrtd:output.obj
 0001:00069420       ?type_case_c@?$output_processor@_WV?$string_output_adapter@_W@__crt_stdio_output@@V?$standard_base@_WV?$string_output_adapter@_W@__crt_stdio_output@@@2@@__crt_stdio_output@@AAE_NXZ 1006a420 f i libucrtd:output.obj
 0001:00069440       ?type_case_c_tchar@?$output_processor@DV?$stream_output_adapter@D@__crt_stdio_output@@V?$format_validation_base@DV?$stream_output_adapter@D@__crt_stdio_output@@@2@@__crt_stdio_output@@AAE_ND@Z 1006a440 f i libucrtd:output.obj
 0001:00069570       ?type_case_c_tchar@?$output_processor@DV?$stream_output_adapter@D@__crt_stdio_output@@V?$positional_parameter_base@DV?$stream_output_adapter@D@__crt_stdio_output@@@2@@__crt_stdio_output@@AAE_ND@Z 1006a570 f i libucrtd:output.obj
 0001:000696a0       ?type_case_c_tchar@?$output_processor@DV?$stream_output_adapter@D@__crt_stdio_output@@V?$standard_base@DV?$stream_output_adapter@D@__crt_stdio_output@@@2@@__crt_stdio_output@@AAE_ND@Z 1006a6a0 f i libucrtd:output.obj
 0001:000697d0       ?type_case_c_tchar@?$output_processor@DV?$string_output_adapter@D@__crt_stdio_output@@V?$format_validation_base@DV?$string_output_adapter@D@__crt_stdio_output@@@2@@__crt_stdio_output@@AAE_ND@Z 1006a7d0 f i libucrtd:output.obj
 0001:00069900       ?type_case_c_tchar@?$output_processor@DV?$string_output_adapter@D@__crt_stdio_output@@V?$positional_parameter_base@DV?$string_output_adapter@D@__crt_stdio_output@@@2@@__crt_stdio_output@@AAE_ND@Z 1006a900 f i libucrtd:output.obj
 0001:00069a30       ?type_case_c_tchar@?$output_processor@DV?$string_output_adapter@D@__crt_stdio_output@@V?$standard_base@DV?$string_output_adapter@D@__crt_stdio_output@@@2@@__crt_stdio_output@@AAE_ND@Z 1006aa30 f i libucrtd:output.obj
 0001:00069b60       ?type_case_c_tchar@?$output_processor@_WV?$stream_output_adapter@_W@__crt_stdio_output@@V?$format_validation_base@_WV?$stream_output_adapter@_W@__crt_stdio_output@@@2@@__crt_stdio_output@@AAE_N_W@Z 1006ab60 f i libucrtd:output.obj
 0001:00069c80       ?type_case_c_tchar@?$output_processor@_WV?$stream_output_adapter@_W@__crt_stdio_output@@V?$positional_parameter_base@_WV?$stream_output_adapter@_W@__crt_stdio_output@@@2@@__crt_stdio_output@@AAE_N_W@Z 1006ac80 f i libucrtd:output.obj
 0001:00069da0       ?type_case_c_tchar@?$output_processor@_WV?$stream_output_adapter@_W@__crt_stdio_output@@V?$standard_base@_WV?$stream_output_adapter@_W@__crt_stdio_output@@@2@@__crt_stdio_output@@AAE_N_W@Z 1006ada0 f i libucrtd:output.obj
 0001:00069ec0       ?type_case_c_tchar@?$output_processor@_WV?$string_output_adapter@_W@__crt_stdio_output@@V?$format_validation_base@_WV?$string_output_adapter@_W@__crt_stdio_output@@@2@@__crt_stdio_output@@AAE_N_W@Z 1006aec0 f i libucrtd:output.obj
 0001:00069fe0       ?type_case_c_tchar@?$output_processor@_WV?$string_output_adapter@_W@__crt_stdio_output@@V?$positional_parameter_base@_WV?$string_output_adapter@_W@__crt_stdio_output@@@2@@__crt_stdio_output@@AAE_N_W@Z 1006afe0 f i libucrtd:output.obj
 0001:0006a100       ?type_case_c_tchar@?$output_processor@_WV?$string_output_adapter@_W@__crt_stdio_output@@V?$standard_base@_WV?$string_output_adapter@_W@__crt_stdio_output@@@2@@__crt_stdio_output@@AAE_N_W@Z 1006b100 f i libucrtd:output.obj
 0001:0006a220       ?type_case_d@?$output_processor@DV?$stream_output_adapter@D@__crt_stdio_output@@V?$format_validation_base@DV?$stream_output_adapter@D@__crt_stdio_output@@@2@@__crt_stdio_output@@AAE_NXZ 1006b220 f i libucrtd:output.obj
 0001:0006a250       ?type_case_d@?$output_processor@DV?$stream_output_adapter@D@__crt_stdio_output@@V?$positional_parameter_base@DV?$stream_output_adapter@D@__crt_stdio_output@@@2@@__crt_stdio_output@@AAE_NXZ 1006b250 f i libucrtd:output.obj
 0001:0006a280       ?type_case_d@?$output_processor@DV?$stream_output_adapter@D@__crt_stdio_output@@V?$standard_base@DV?$stream_output_adapter@D@__crt_stdio_output@@@2@@__crt_stdio_output@@AAE_NXZ 1006b280 f i libucrtd:output.obj
 0001:0006a2b0       ?type_case_d@?$output_processor@DV?$string_output_adapter@D@__crt_stdio_output@@V?$format_validation_base@DV?$string_output_adapter@D@__crt_stdio_output@@@2@@__crt_stdio_output@@AAE_NXZ 1006b2b0 f i libucrtd:output.obj
 0001:0006a2e0       ?type_case_d@?$output_processor@DV?$string_output_adapter@D@__crt_stdio_output@@V?$positional_parameter_base@DV?$string_output_adapter@D@__crt_stdio_output@@@2@@__crt_stdio_output@@AAE_NXZ 1006b2e0 f i libucrtd:output.obj
 0001:0006a310       ?type_case_d@?$output_processor@DV?$string_output_adapter@D@__crt_stdio_output@@V?$standard_base@DV?$string_output_adapter@D@__crt_stdio_output@@@2@@__crt_stdio_output@@AAE_NXZ 1006b310 f i libucrtd:output.obj
 0001:0006a340       ?type_case_d@?$output_processor@_WV?$stream_output_adapter@_W@__crt_stdio_output@@V?$format_validation_base@_WV?$stream_output_adapter@_W@__crt_stdio_output@@@2@@__crt_stdio_output@@AAE_NXZ 1006b340 f i libucrtd:output.obj
 0001:0006a370       ?type_case_d@?$output_processor@_WV?$stream_output_adapter@_W@__crt_stdio_output@@V?$positional_parameter_base@_WV?$stream_output_adapter@_W@__crt_stdio_output@@@2@@__crt_stdio_output@@AAE_NXZ 1006b370 f i libucrtd:output.obj
 0001:0006a3a0       ?type_case_d@?$output_processor@_WV?$stream_output_adapter@_W@__crt_stdio_output@@V?$standard_base@_WV?$stream_output_adapter@_W@__crt_stdio_output@@@2@@__crt_stdio_output@@AAE_NXZ 1006b3a0 f i libucrtd:output.obj
 0001:0006a3d0       ?type_case_d@?$output_processor@_WV?$string_output_adapter@_W@__crt_stdio_output@@V?$format_validation_base@_WV?$string_output_adapter@_W@__crt_stdio_output@@@2@@__crt_stdio_output@@AAE_NXZ 1006b3d0 f i libucrtd:output.obj
 0001:0006a400       ?type_case_d@?$output_processor@_WV?$string_output_adapter@_W@__crt_stdio_output@@V?$positional_parameter_base@_WV?$string_output_adapter@_W@__crt_stdio_output@@@2@@__crt_stdio_output@@AAE_NXZ 1006b400 f i libucrtd:output.obj
 0001:0006a430       ?type_case_d@?$output_processor@_WV?$string_output_adapter@_W@__crt_stdio_output@@V?$standard_base@_WV?$string_output_adapter@_W@__crt_stdio_output@@@2@@__crt_stdio_output@@AAE_NXZ 1006b430 f i libucrtd:output.obj
 0001:0006a460       ?type_case_n@?$output_processor@DV?$stream_output_adapter@D@__crt_stdio_output@@V?$format_validation_base@DV?$stream_output_adapter@D@__crt_stdio_output@@@2@@__crt_stdio_output@@AAE_NXZ 1006b460 f i libucrtd:output.obj
 0001:0006a680       ?type_case_n@?$output_processor@DV?$stream_output_adapter@D@__crt_stdio_output@@V?$positional_parameter_base@DV?$stream_output_adapter@D@__crt_stdio_output@@@2@@__crt_stdio_output@@AAE_NXZ 1006b680 f i libucrtd:output.obj
 0001:0006a8a0       ?type_case_n@?$output_processor@DV?$stream_output_adapter@D@__crt_stdio_output@@V?$standard_base@DV?$stream_output_adapter@D@__crt_stdio_output@@@2@@__crt_stdio_output@@AAE_NXZ 1006b8a0 f i libucrtd:output.obj
 0001:0006aac0       ?type_case_n@?$output_processor@DV?$string_output_adapter@D@__crt_stdio_output@@V?$format_validation_base@DV?$string_output_adapter@D@__crt_stdio_output@@@2@@__crt_stdio_output@@AAE_NXZ 1006bac0 f i libucrtd:output.obj
 0001:0006ace0       ?type_case_n@?$output_processor@DV?$string_output_adapter@D@__crt_stdio_output@@V?$positional_parameter_base@DV?$string_output_adapter@D@__crt_stdio_output@@@2@@__crt_stdio_output@@AAE_NXZ 1006bce0 f i libucrtd:output.obj
 0001:0006af00       ?type_case_n@?$output_processor@DV?$string_output_adapter@D@__crt_stdio_output@@V?$standard_base@DV?$string_output_adapter@D@__crt_stdio_output@@@2@@__crt_stdio_output@@AAE_NXZ 1006bf00 f i libucrtd:output.obj
 0001:0006b120       ?type_case_n@?$output_processor@_WV?$stream_output_adapter@_W@__crt_stdio_output@@V?$format_validation_base@_WV?$stream_output_adapter@_W@__crt_stdio_output@@@2@@__crt_stdio_output@@AAE_NXZ 1006c120 f i libucrtd:output.obj
 0001:0006b340       ?type_case_n@?$output_processor@_WV?$stream_output_adapter@_W@__crt_stdio_output@@V?$positional_parameter_base@_WV?$stream_output_adapter@_W@__crt_stdio_output@@@2@@__crt_stdio_output@@AAE_NXZ 1006c340 f i libucrtd:output.obj
 0001:0006b560       ?type_case_n@?$output_processor@_WV?$stream_output_adapter@_W@__crt_stdio_output@@V?$standard_base@_WV?$stream_output_adapter@_W@__crt_stdio_output@@@2@@__crt_stdio_output@@AAE_NXZ 1006c560 f i libucrtd:output.obj
 0001:0006b780       ?type_case_n@?$output_processor@_WV?$string_output_adapter@_W@__crt_stdio_output@@V?$format_validation_base@_WV?$string_output_adapter@_W@__crt_stdio_output@@@2@@__crt_stdio_output@@AAE_NXZ 1006c780 f i libucrtd:output.obj
 0001:0006b9a0       ?type_case_n@?$output_processor@_WV?$string_output_adapter@_W@__crt_stdio_output@@V?$positional_parameter_base@_WV?$string_output_adapter@_W@__crt_stdio_output@@@2@@__crt_stdio_output@@AAE_NXZ 1006c9a0 f i libucrtd:output.obj
 0001:0006bbc0       ?type_case_n@?$output_processor@_WV?$string_output_adapter@_W@__crt_stdio_output@@V?$standard_base@_WV?$string_output_adapter@_W@__crt_stdio_output@@@2@@__crt_stdio_output@@AAE_NXZ 1006cbc0 f i libucrtd:output.obj
 0001:0006bde0       ?type_case_o@?$output_processor@DV?$stream_output_adapter@D@__crt_stdio_output@@V?$format_validation_base@DV?$stream_output_adapter@D@__crt_stdio_output@@@2@@__crt_stdio_output@@AAE_NXZ 1006cde0 f i libucrtd:output.obj
 0001:0006be20       ?type_case_o@?$output_processor@DV?$stream_output_adapter@D@__crt_stdio_output@@V?$positional_parameter_base@DV?$stream_output_adapter@D@__crt_stdio_output@@@2@@__crt_stdio_output@@AAE_NXZ 1006ce20 f i libucrtd:output.obj
 0001:0006be60       ?type_case_o@?$output_processor@DV?$stream_output_adapter@D@__crt_stdio_output@@V?$standard_base@DV?$stream_output_adapter@D@__crt_stdio_output@@@2@@__crt_stdio_output@@AAE_NXZ 1006ce60 f i libucrtd:output.obj
 0001:0006bea0       ?type_case_o@?$output_processor@DV?$string_output_adapter@D@__crt_stdio_output@@V?$format_validation_base@DV?$string_output_adapter@D@__crt_stdio_output@@@2@@__crt_stdio_output@@AAE_NXZ 1006cea0 f i libucrtd:output.obj
 0001:0006bee0       ?type_case_o@?$output_processor@DV?$string_output_adapter@D@__crt_stdio_output@@V?$positional_parameter_base@DV?$string_output_adapter@D@__crt_stdio_output@@@2@@__crt_stdio_output@@AAE_NXZ 1006cee0 f i libucrtd:output.obj
 0001:0006bf20       ?type_case_o@?$output_processor@DV?$string_output_adapter@D@__crt_stdio_output@@V?$standard_base@DV?$string_output_adapter@D@__crt_stdio_output@@@2@@__crt_stdio_output@@AAE_NXZ 1006cf20 f i libucrtd:output.obj
 0001:0006bf60       ?type_case_o@?$output_processor@_WV?$stream_output_adapter@_W@__crt_stdio_output@@V?$format_validation_base@_WV?$stream_output_adapter@_W@__crt_stdio_output@@@2@@__crt_stdio_output@@AAE_NXZ 1006cf60 f i libucrtd:output.obj
 0001:0006bfa0       ?type_case_o@?$output_processor@_WV?$stream_output_adapter@_W@__crt_stdio_output@@V?$positional_parameter_base@_WV?$stream_output_adapter@_W@__crt_stdio_output@@@2@@__crt_stdio_output@@AAE_NXZ 1006cfa0 f i libucrtd:output.obj
 0001:0006bfe0       ?type_case_o@?$output_processor@_WV?$stream_output_adapter@_W@__crt_stdio_output@@V?$standard_base@_WV?$stream_output_adapter@_W@__crt_stdio_output@@@2@@__crt_stdio_output@@AAE_NXZ 1006cfe0 f i libucrtd:output.obj
 0001:0006c020       ?type_case_o@?$output_processor@_WV?$string_output_adapter@_W@__crt_stdio_output@@V?$format_validation_base@_WV?$string_output_adapter@_W@__crt_stdio_output@@@2@@__crt_stdio_output@@AAE_NXZ 1006d020 f i libucrtd:output.obj
 0001:0006c060       ?type_case_o@?$output_processor@_WV?$string_output_adapter@_W@__crt_stdio_output@@V?$positional_parameter_base@_WV?$string_output_adapter@_W@__crt_stdio_output@@@2@@__crt_stdio_output@@AAE_NXZ 1006d060 f i libucrtd:output.obj
 0001:0006c0a0       ?type_case_o@?$output_processor@_WV?$string_output_adapter@_W@__crt_stdio_output@@V?$standard_base@_WV?$string_output_adapter@_W@__crt_stdio_output@@@2@@__crt_stdio_output@@AAE_NXZ 1006d0a0 f i libucrtd:output.obj
 0001:0006c0e0       ?type_case_p@?$output_processor@DV?$stream_output_adapter@D@__crt_stdio_output@@V?$format_validation_base@DV?$stream_output_adapter@D@__crt_stdio_output@@@2@@__crt_stdio_output@@AAE_NXZ 1006d0e0 f i libucrtd:output.obj
 0001:0006c110       ?type_case_p@?$output_processor@DV?$stream_output_adapter@D@__crt_stdio_output@@V?$positional_parameter_base@DV?$stream_output_adapter@D@__crt_stdio_output@@@2@@__crt_stdio_output@@AAE_NXZ 1006d110 f i libucrtd:output.obj
 0001:0006c140       ?type_case_p@?$output_processor@DV?$stream_output_adapter@D@__crt_stdio_output@@V?$standard_base@DV?$stream_output_adapter@D@__crt_stdio_output@@@2@@__crt_stdio_output@@AAE_NXZ 1006d140 f i libucrtd:output.obj
 0001:0006c170       ?type_case_p@?$output_processor@DV?$string_output_adapter@D@__crt_stdio_output@@V?$format_validation_base@DV?$string_output_adapter@D@__crt_stdio_output@@@2@@__crt_stdio_output@@AAE_NXZ 1006d170 f i libucrtd:output.obj
 0001:0006c1a0       ?type_case_p@?$output_processor@DV?$string_output_adapter@D@__crt_stdio_output@@V?$positional_parameter_base@DV?$string_output_adapter@D@__crt_stdio_output@@@2@@__crt_stdio_output@@AAE_NXZ 1006d1a0 f i libucrtd:output.obj
 0001:0006c1d0       ?type_case_p@?$output_processor@DV?$string_output_adapter@D@__crt_stdio_output@@V?$standard_base@DV?$string_output_adapter@D@__crt_stdio_output@@@2@@__crt_stdio_output@@AAE_NXZ 1006d1d0 f i libucrtd:output.obj
 0001:0006c200       ?type_case_p@?$output_processor@_WV?$stream_output_adapter@_W@__crt_stdio_output@@V?$format_validation_base@_WV?$stream_output_adapter@_W@__crt_stdio_output@@@2@@__crt_stdio_output@@AAE_NXZ 1006d200 f i libucrtd:output.obj
 0001:0006c230       ?type_case_p@?$output_processor@_WV?$stream_output_adapter@_W@__crt_stdio_output@@V?$positional_parameter_base@_WV?$stream_output_adapter@_W@__crt_stdio_output@@@2@@__crt_stdio_output@@AAE_NXZ 1006d230 f i libucrtd:output.obj
 0001:0006c260       ?type_case_p@?$output_processor@_WV?$stream_output_adapter@_W@__crt_stdio_output@@V?$standard_base@_WV?$stream_output_adapter@_W@__crt_stdio_output@@@2@@__crt_stdio_output@@AAE_NXZ 1006d260 f i libucrtd:output.obj
 0001:0006c290       ?type_case_p@?$output_processor@_WV?$string_output_adapter@_W@__crt_stdio_output@@V?$format_validation_base@_WV?$string_output_adapter@_W@__crt_stdio_output@@@2@@__crt_stdio_output@@AAE_NXZ 1006d290 f i libucrtd:output.obj
 0001:0006c2c0       ?type_case_p@?$output_processor@_WV?$string_output_adapter@_W@__crt_stdio_output@@V?$positional_parameter_base@_WV?$string_output_adapter@_W@__crt_stdio_output@@@2@@__crt_stdio_output@@AAE_NXZ 1006d2c0 f i libucrtd:output.obj
 0001:0006c2f0       ?type_case_p@?$output_processor@_WV?$string_output_adapter@_W@__crt_stdio_output@@V?$standard_base@_WV?$string_output_adapter@_W@__crt_stdio_output@@@2@@__crt_stdio_output@@AAE_NXZ 1006d2f0 f i libucrtd:output.obj
 0001:0006c320       ?type_case_s@?$output_processor@DV?$stream_output_adapter@D@__crt_stdio_output@@V?$format_validation_base@DV?$stream_output_adapter@D@__crt_stdio_output@@@2@@__crt_stdio_output@@AAE_NXZ 1006d320 f i libucrtd:output.obj
 0001:0006c410       ?type_case_s@?$output_processor@DV?$stream_output_adapter@D@__crt_stdio_output@@V?$positional_parameter_base@DV?$stream_output_adapter@D@__crt_stdio_output@@@2@@__crt_stdio_output@@AAE_NXZ 1006d410 f i libucrtd:output.obj
 0001:0006c500       ?type_case_s@?$output_processor@DV?$stream_output_adapter@D@__crt_stdio_output@@V?$standard_base@DV?$stream_output_adapter@D@__crt_stdio_output@@@2@@__crt_stdio_output@@AAE_NXZ 1006d500 f i libucrtd:output.obj
 0001:0006c5f0       ?type_case_s@?$output_processor@DV?$string_output_adapter@D@__crt_stdio_output@@V?$format_validation_base@DV?$string_output_adapter@D@__crt_stdio_output@@@2@@__crt_stdio_output@@AAE_NXZ 1006d5f0 f i libucrtd:output.obj
 0001:0006c6e0       ?type_case_s@?$output_processor@DV?$string_output_adapter@D@__crt_stdio_output@@V?$positional_parameter_base@DV?$string_output_adapter@D@__crt_stdio_output@@@2@@__crt_stdio_output@@AAE_NXZ 1006d6e0 f i libucrtd:output.obj
 0001:0006c7d0       ?type_case_s@?$output_processor@DV?$string_output_adapter@D@__crt_stdio_output@@V?$standard_base@DV?$string_output_adapter@D@__crt_stdio_output@@@2@@__crt_stdio_output@@AAE_NXZ 1006d7d0 f i libucrtd:output.obj
 0001:0006c8c0       ?type_case_s@?$output_processor@_WV?$stream_output_adapter@_W@__crt_stdio_output@@V?$format_validation_base@_WV?$stream_output_adapter@_W@__crt_stdio_output@@@2@@__crt_stdio_output@@AAE_NXZ 1006d8c0 f i libucrtd:output.obj
 0001:0006c9b0       ?type_case_s@?$output_processor@_WV?$stream_output_adapter@_W@__crt_stdio_output@@V?$positional_parameter_base@_WV?$stream_output_adapter@_W@__crt_stdio_output@@@2@@__crt_stdio_output@@AAE_NXZ 1006d9b0 f i libucrtd:output.obj
 0001:0006caa0       ?type_case_s@?$output_processor@_WV?$stream_output_adapter@_W@__crt_stdio_output@@V?$standard_base@_WV?$stream_output_adapter@_W@__crt_stdio_output@@@2@@__crt_stdio_output@@AAE_NXZ 1006daa0 f i libucrtd:output.obj
 0001:0006cb90       ?type_case_s@?$output_processor@_WV?$string_output_adapter@_W@__crt_stdio_output@@V?$format_validation_base@_WV?$string_output_adapter@_W@__crt_stdio_output@@@2@@__crt_stdio_output@@AAE_NXZ 1006db90 f i libucrtd:output.obj
 0001:0006cc80       ?type_case_s@?$output_processor@_WV?$string_output_adapter@_W@__crt_stdio_output@@V?$positional_parameter_base@_WV?$string_output_adapter@_W@__crt_stdio_output@@@2@@__crt_stdio_output@@AAE_NXZ 1006dc80 f i libucrtd:output.obj
 0001:0006cd70       ?type_case_s@?$output_processor@_WV?$string_output_adapter@_W@__crt_stdio_output@@V?$standard_base@_WV?$string_output_adapter@_W@__crt_stdio_output@@@2@@__crt_stdio_output@@AAE_NXZ 1006dd70 f i libucrtd:output.obj
 0001:0006ce60       ?type_case_s_compute_narrow_string_length@?$output_processor@DV?$stream_output_adapter@D@__crt_stdio_output@@V?$format_validation_base@DV?$stream_output_adapter@D@__crt_stdio_output@@@2@@__crt_stdio_output@@AAEHHD@Z 1006de60 f i libucrtd:output.obj
 0001:0006ce90       ?type_case_s_compute_narrow_string_length@?$output_processor@DV?$stream_output_adapter@D@__crt_stdio_output@@V?$positional_parameter_base@DV?$stream_output_adapter@D@__crt_stdio_output@@@2@@__crt_stdio_output@@AAEHHD@Z 1006de90 f i libucrtd:output.obj
 0001:0006cec0       ?type_case_s_compute_narrow_string_length@?$output_processor@DV?$stream_output_adapter@D@__crt_stdio_output@@V?$standard_base@DV?$stream_output_adapter@D@__crt_stdio_output@@@2@@__crt_stdio_output@@AAEHHD@Z 1006dec0 f i libucrtd:output.obj
 0001:0006cef0       ?type_case_s_compute_narrow_string_length@?$output_processor@DV?$string_output_adapter@D@__crt_stdio_output@@V?$format_validation_base@DV?$string_output_adapter@D@__crt_stdio_output@@@2@@__crt_stdio_output@@AAEHHD@Z 1006def0 f i libucrtd:output.obj
 0001:0006cf20       ?type_case_s_compute_narrow_string_length@?$output_processor@DV?$string_output_adapter@D@__crt_stdio_output@@V?$positional_parameter_base@DV?$string_output_adapter@D@__crt_stdio_output@@@2@@__crt_stdio_output@@AAEHHD@Z 1006df20 f i libucrtd:output.obj
 0001:0006cf50       ?type_case_s_compute_narrow_string_length@?$output_processor@DV?$string_output_adapter@D@__crt_stdio_output@@V?$standard_base@DV?$string_output_adapter@D@__crt_stdio_output@@@2@@__crt_stdio_output@@AAEHHD@Z 1006df50 f i libucrtd:output.obj
 0001:0006cf80       ?type_case_s_compute_narrow_string_length@?$output_processor@_WV?$stream_output_adapter@_W@__crt_stdio_output@@V?$format_validation_base@_WV?$stream_output_adapter@_W@__crt_stdio_output@@@2@@__crt_stdio_output@@AAEHH_W@Z 1006df80 f i libucrtd:output.obj
 0001:0006d000       ?type_case_s_compute_narrow_string_length@?$output_processor@_WV?$stream_output_adapter@_W@__crt_stdio_output@@V?$positional_parameter_base@_WV?$stream_output_adapter@_W@__crt_stdio_output@@@2@@__crt_stdio_output@@AAEHH_W@Z 1006e000 f i libucrtd:output.obj
 0001:0006d080       ?type_case_s_compute_narrow_string_length@?$output_processor@_WV?$stream_output_adapter@_W@__crt_stdio_output@@V?$standard_base@_WV?$stream_output_adapter@_W@__crt_stdio_output@@@2@@__crt_stdio_output@@AAEHH_W@Z 1006e080 f i libucrtd:output.obj
 0001:0006d100       ?type_case_s_compute_narrow_string_length@?$output_processor@_WV?$string_output_adapter@_W@__crt_stdio_output@@V?$format_validation_base@_WV?$string_output_adapter@_W@__crt_stdio_output@@@2@@__crt_stdio_output@@AAEHH_W@Z 1006e100 f i libucrtd:output.obj
 0001:0006d180       ?type_case_s_compute_narrow_string_length@?$output_processor@_WV?$string_output_adapter@_W@__crt_stdio_output@@V?$positional_parameter_base@_WV?$string_output_adapter@_W@__crt_stdio_output@@@2@@__crt_stdio_output@@AAEHH_W@Z 1006e180 f i libucrtd:output.obj
 0001:0006d200       ?type_case_s_compute_narrow_string_length@?$output_processor@_WV?$string_output_adapter@_W@__crt_stdio_output@@V?$standard_base@_WV?$string_output_adapter@_W@__crt_stdio_output@@@2@@__crt_stdio_output@@AAEHH_W@Z 1006e200 f i libucrtd:output.obj
 0001:0006d280       ?type_case_u@?$output_processor@DV?$stream_output_adapter@D@__crt_stdio_output@@V?$format_validation_base@DV?$stream_output_adapter@D@__crt_stdio_output@@@2@@__crt_stdio_output@@AAE_NXZ 1006e280 f i libucrtd:output.obj
 0001:0006d2a0       ?type_case_u@?$output_processor@DV?$stream_output_adapter@D@__crt_stdio_output@@V?$positional_parameter_base@DV?$stream_output_adapter@D@__crt_stdio_output@@@2@@__crt_stdio_output@@AAE_NXZ 1006e2a0 f i libucrtd:output.obj
 0001:0006d2c0       ?type_case_u@?$output_processor@DV?$stream_output_adapter@D@__crt_stdio_output@@V?$standard_base@DV?$stream_output_adapter@D@__crt_stdio_output@@@2@@__crt_stdio_output@@AAE_NXZ 1006e2c0 f i libucrtd:output.obj
 0001:0006d2e0       ?type_case_u@?$output_processor@DV?$string_output_adapter@D@__crt_stdio_output@@V?$format_validation_base@DV?$string_output_adapter@D@__crt_stdio_output@@@2@@__crt_stdio_output@@AAE_NXZ 1006e2e0 f i libucrtd:output.obj
 0001:0006d300       ?type_case_u@?$output_processor@DV?$string_output_adapter@D@__crt_stdio_output@@V?$positional_parameter_base@DV?$string_output_adapter@D@__crt_stdio_output@@@2@@__crt_stdio_output@@AAE_NXZ 1006e300 f i libucrtd:output.obj
 0001:0006d320       ?type_case_u@?$output_processor@DV?$string_output_adapter@D@__crt_stdio_output@@V?$standard_base@DV?$string_output_adapter@D@__crt_stdio_output@@@2@@__crt_stdio_output@@AAE_NXZ 1006e320 f i libucrtd:output.obj
 0001:0006d340       ?type_case_u@?$output_processor@_WV?$stream_output_adapter@_W@__crt_stdio_output@@V?$format_validation_base@_WV?$stream_output_adapter@_W@__crt_stdio_output@@@2@@__crt_stdio_output@@AAE_NXZ 1006e340 f i libucrtd:output.obj
 0001:0006d360       ?type_case_u@?$output_processor@_WV?$stream_output_adapter@_W@__crt_stdio_output@@V?$positional_parameter_base@_WV?$stream_output_adapter@_W@__crt_stdio_output@@@2@@__crt_stdio_output@@AAE_NXZ 1006e360 f i libucrtd:output.obj
 0001:0006d380       ?type_case_u@?$output_processor@_WV?$stream_output_adapter@_W@__crt_stdio_output@@V?$standard_base@_WV?$stream_output_adapter@_W@__crt_stdio_output@@@2@@__crt_stdio_output@@AAE_NXZ 1006e380 f i libucrtd:output.obj
 0001:0006d3a0       ?type_case_u@?$output_processor@_WV?$string_output_adapter@_W@__crt_stdio_output@@V?$format_validation_base@_WV?$string_output_adapter@_W@__crt_stdio_output@@@2@@__crt_stdio_output@@AAE_NXZ 1006e3a0 f i libucrtd:output.obj
 0001:0006d3c0       ?type_case_u@?$output_processor@_WV?$string_output_adapter@_W@__crt_stdio_output@@V?$positional_parameter_base@_WV?$string_output_adapter@_W@__crt_stdio_output@@@2@@__crt_stdio_output@@AAE_NXZ 1006e3c0 f i libucrtd:output.obj
 0001:0006d3e0       ?type_case_u@?$output_processor@_WV?$string_output_adapter@_W@__crt_stdio_output@@V?$standard_base@_WV?$string_output_adapter@_W@__crt_stdio_output@@@2@@__crt_stdio_output@@AAE_NXZ 1006e3e0 f i libucrtd:output.obj
 0001:0006d400       ?type_case_x@?$output_processor@DV?$stream_output_adapter@D@__crt_stdio_output@@V?$format_validation_base@DV?$stream_output_adapter@D@__crt_stdio_output@@@2@@__crt_stdio_output@@AAE_NXZ 1006e400 f i libucrtd:output.obj
 0001:0006d420       ?type_case_x@?$output_processor@DV?$stream_output_adapter@D@__crt_stdio_output@@V?$positional_parameter_base@DV?$stream_output_adapter@D@__crt_stdio_output@@@2@@__crt_stdio_output@@AAE_NXZ 1006e420 f i libucrtd:output.obj
 0001:0006d440       ?type_case_x@?$output_processor@DV?$stream_output_adapter@D@__crt_stdio_output@@V?$standard_base@DV?$stream_output_adapter@D@__crt_stdio_output@@@2@@__crt_stdio_output@@AAE_NXZ 1006e440 f i libucrtd:output.obj
 0001:0006d460       ?type_case_x@?$output_processor@DV?$string_output_adapter@D@__crt_stdio_output@@V?$format_validation_base@DV?$string_output_adapter@D@__crt_stdio_output@@@2@@__crt_stdio_output@@AAE_NXZ 1006e460 f i libucrtd:output.obj
 0001:0006d480       ?type_case_x@?$output_processor@DV?$string_output_adapter@D@__crt_stdio_output@@V?$positional_parameter_base@DV?$string_output_adapter@D@__crt_stdio_output@@@2@@__crt_stdio_output@@AAE_NXZ 1006e480 f i libucrtd:output.obj
 0001:0006d4a0       ?type_case_x@?$output_processor@DV?$string_output_adapter@D@__crt_stdio_output@@V?$standard_base@DV?$string_output_adapter@D@__crt_stdio_output@@@2@@__crt_stdio_output@@AAE_NXZ 1006e4a0 f i libucrtd:output.obj
 0001:0006d4c0       ?type_case_x@?$output_processor@_WV?$stream_output_adapter@_W@__crt_stdio_output@@V?$format_validation_base@_WV?$stream_output_adapter@_W@__crt_stdio_output@@@2@@__crt_stdio_output@@AAE_NXZ 1006e4c0 f i libucrtd:output.obj
 0001:0006d4e0       ?type_case_x@?$output_processor@_WV?$stream_output_adapter@_W@__crt_stdio_output@@V?$positional_parameter_base@_WV?$stream_output_adapter@_W@__crt_stdio_output@@@2@@__crt_stdio_output@@AAE_NXZ 1006e4e0 f i libucrtd:output.obj
 0001:0006d500       ?type_case_x@?$output_processor@_WV?$stream_output_adapter@_W@__crt_stdio_output@@V?$standard_base@_WV?$stream_output_adapter@_W@__crt_stdio_output@@@2@@__crt_stdio_output@@AAE_NXZ 1006e500 f i libucrtd:output.obj
 0001:0006d520       ?type_case_x@?$output_processor@_WV?$string_output_adapter@_W@__crt_stdio_output@@V?$format_validation_base@_WV?$string_output_adapter@_W@__crt_stdio_output@@@2@@__crt_stdio_output@@AAE_NXZ 1006e520 f i libucrtd:output.obj
 0001:0006d540       ?type_case_x@?$output_processor@_WV?$string_output_adapter@_W@__crt_stdio_output@@V?$positional_parameter_base@_WV?$string_output_adapter@_W@__crt_stdio_output@@@2@@__crt_stdio_output@@AAE_NXZ 1006e540 f i libucrtd:output.obj
 0001:0006d560       ?type_case_x@?$output_processor@_WV?$string_output_adapter@_W@__crt_stdio_output@@V?$standard_base@_WV?$string_output_adapter@_W@__crt_stdio_output@@@2@@__crt_stdio_output@@AAE_NXZ 1006e560 f i libucrtd:output.obj
 0001:0006d580       ?unget@?$c_string_character_source@D@__crt_strtox@@QAEXD@Z 1006e580 f i libucrtd:output.obj
 0001:0006d630       ?unget@?$c_string_character_source@_W@__crt_strtox@@QAEX_W@Z 1006e630 f i libucrtd:output.obj
 0001:0006d6e0       ?unsafe_value@?$cached@H@__crt_cached_ptd_host@@QAEHXZ 1006e6e0 f i libucrtd:output.obj
 0001:0006d700       ?unsafe_value@?$cached@K@__crt_cached_ptd_host@@QAEKXZ 1006e700 f i libucrtd:output.obj
 0001:0006d720       ?unset_flag@?$output_processor@DV?$stream_output_adapter@D@__crt_stdio_output@@V?$format_validation_base@DV?$stream_output_adapter@D@__crt_stdio_output@@@2@@__crt_stdio_output@@AAEXI@Z 1006e720 f i libucrtd:output.obj
 0001:0006d740       ?unset_flag@?$output_processor@DV?$stream_output_adapter@D@__crt_stdio_output@@V?$positional_parameter_base@DV?$stream_output_adapter@D@__crt_stdio_output@@@2@@__crt_stdio_output@@AAEXI@Z 1006e740 f i libucrtd:output.obj
 0001:0006d760       ?unset_flag@?$output_processor@DV?$stream_output_adapter@D@__crt_stdio_output@@V?$standard_base@DV?$stream_output_adapter@D@__crt_stdio_output@@@2@@__crt_stdio_output@@AAEXI@Z 1006e760 f i libucrtd:output.obj
 0001:0006d780       ?unset_flag@?$output_processor@DV?$string_output_adapter@D@__crt_stdio_output@@V?$format_validation_base@DV?$string_output_adapter@D@__crt_stdio_output@@@2@@__crt_stdio_output@@AAEXI@Z 1006e780 f i libucrtd:output.obj
 0001:0006d7a0       ?unset_flag@?$output_processor@DV?$string_output_adapter@D@__crt_stdio_output@@V?$positional_parameter_base@DV?$string_output_adapter@D@__crt_stdio_output@@@2@@__crt_stdio_output@@AAEXI@Z 1006e7a0 f i libucrtd:output.obj
 0001:0006d7c0       ?unset_flag@?$output_processor@DV?$string_output_adapter@D@__crt_stdio_output@@V?$standard_base@DV?$string_output_adapter@D@__crt_stdio_output@@@2@@__crt_stdio_output@@AAEXI@Z 1006e7c0 f i libucrtd:output.obj
 0001:0006d7e0       ?unset_flag@?$output_processor@_WV?$stream_output_adapter@_W@__crt_stdio_output@@V?$format_validation_base@_WV?$stream_output_adapter@_W@__crt_stdio_output@@@2@@__crt_stdio_output@@AAEXI@Z 1006e7e0 f i libucrtd:output.obj
 0001:0006d800       ?unset_flag@?$output_processor@_WV?$stream_output_adapter@_W@__crt_stdio_output@@V?$positional_parameter_base@_WV?$stream_output_adapter@_W@__crt_stdio_output@@@2@@__crt_stdio_output@@AAEXI@Z 1006e800 f i libucrtd:output.obj
 0001:0006d820       ?unset_flag@?$output_processor@_WV?$stream_output_adapter@_W@__crt_stdio_output@@V?$standard_base@_WV?$stream_output_adapter@_W@__crt_stdio_output@@@2@@__crt_stdio_output@@AAEXI@Z 1006e820 f i libucrtd:output.obj
 0001:0006d840       ?unset_flag@?$output_processor@_WV?$string_output_adapter@_W@__crt_stdio_output@@V?$format_validation_base@_WV?$string_output_adapter@_W@__crt_stdio_output@@@2@@__crt_stdio_output@@AAEXI@Z 1006e840 f i libucrtd:output.obj
 0001:0006d860       ?unset_flag@?$output_processor@_WV?$string_output_adapter@_W@__crt_stdio_output@@V?$positional_parameter_base@_WV?$string_output_adapter@_W@__crt_stdio_output@@@2@@__crt_stdio_output@@AAEXI@Z 1006e860 f i libucrtd:output.obj
 0001:0006d880       ?unset_flag@?$output_processor@_WV?$string_output_adapter@_W@__crt_stdio_output@@V?$standard_base@_WV?$string_output_adapter@_W@__crt_stdio_output@@@2@@__crt_stdio_output@@AAEXI@Z 1006e880 f i libucrtd:output.obj
 0001:0006d8a0       ?update_field_width@?$positional_parameter_base@DV?$stream_output_adapter@D@__crt_stdio_output@@@__crt_stdio_output@@IAE_NXZ 1006e8a0 f i libucrtd:output.obj
 0001:0006da30       ?update_field_width@?$positional_parameter_base@DV?$string_output_adapter@D@__crt_stdio_output@@@__crt_stdio_output@@IAE_NXZ 1006ea30 f i libucrtd:output.obj
 0001:0006dbc0       ?update_field_width@?$positional_parameter_base@_WV?$stream_output_adapter@_W@__crt_stdio_output@@@__crt_stdio_output@@IAE_NXZ 1006ebc0 f i libucrtd:output.obj
 0001:0006dd50       ?update_field_width@?$positional_parameter_base@_WV?$string_output_adapter@_W@__crt_stdio_output@@@__crt_stdio_output@@IAE_NXZ 1006ed50 f i libucrtd:output.obj
 0001:0006dee0       ?update_field_width@?$standard_base@DV?$stream_output_adapter@D@__crt_stdio_output@@@__crt_stdio_output@@IAE_NXZ 1006eee0 f i libucrtd:output.obj
 0001:0006df10       ?update_field_width@?$standard_base@DV?$string_output_adapter@D@__crt_stdio_output@@@__crt_stdio_output@@IAE_NXZ 1006ef10 f i libucrtd:output.obj
 0001:0006df40       ?update_field_width@?$standard_base@_WV?$stream_output_adapter@_W@__crt_stdio_output@@@__crt_stdio_output@@IAE_NXZ 1006ef40 f i libucrtd:output.obj
 0001:0006df70       ?update_field_width@?$standard_base@_WV?$string_output_adapter@_W@__crt_stdio_output@@@__crt_stdio_output@@IAE_NXZ 1006ef70 f i libucrtd:output.obj
 0001:0006dfa0       ?update_locale@__crt_cached_ptd_host@@AAEXXZ 1006efa0 f i libucrtd:output.obj
 0001:0006dfc0       ?update_locale_slow@__crt_cached_ptd_host@@AAEXXZ 1006efc0 f i libucrtd:output.obj
 0001:0006e050       ?update_precision@?$positional_parameter_base@DV?$stream_output_adapter@D@__crt_stdio_output@@@__crt_stdio_output@@IAE_NXZ 1006f050 f i libucrtd:output.obj
 0001:0006e1e0       ?update_precision@?$positional_parameter_base@DV?$string_output_adapter@D@__crt_stdio_output@@@__crt_stdio_output@@IAE_NXZ 1006f1e0 f i libucrtd:output.obj
 0001:0006e370       ?update_precision@?$positional_parameter_base@_WV?$stream_output_adapter@_W@__crt_stdio_output@@@__crt_stdio_output@@IAE_NXZ 1006f370 f i libucrtd:output.obj
 0001:0006e500       ?update_precision@?$positional_parameter_base@_WV?$string_output_adapter@_W@__crt_stdio_output@@@__crt_stdio_output@@IAE_NXZ 1006f500 f i libucrtd:output.obj
 0001:0006e690       ?update_precision@?$standard_base@DV?$stream_output_adapter@D@__crt_stdio_output@@@__crt_stdio_output@@IAE_NXZ 1006f690 f i libucrtd:output.obj
 0001:0006e6c0       ?update_precision@?$standard_base@DV?$string_output_adapter@D@__crt_stdio_output@@@__crt_stdio_output@@IAE_NXZ 1006f6c0 f i libucrtd:output.obj
 0001:0006e6f0       ?update_precision@?$standard_base@_WV?$stream_output_adapter@_W@__crt_stdio_output@@@__crt_stdio_output@@IAE_NXZ 1006f6f0 f i libucrtd:output.obj
 0001:0006e720       ?update_precision@?$standard_base@_WV?$string_output_adapter@_W@__crt_stdio_output@@@__crt_stdio_output@@IAE_NXZ 1006f720 f i libucrtd:output.obj
 0001:0006e750       ?valid@?$cached@H@__crt_cached_ptd_host@@QBE_NXZ 1006f750 f i libucrtd:output.obj
 0001:0006e770       ?valid@?$cached@K@__crt_cached_ptd_host@@QBE_NXZ 1006f770 f i libucrtd:output.obj
 0001:0006e790       ?valid@__crt_stdio_stream@@QBE_NXZ 1006f790 f i libucrtd:output.obj
 0001:0006e7c0       ?validate@?$c_string_character_source@D@__crt_strtox@@QBE_NXZ 1006f7c0 f i libucrtd:output.obj
 0001:0006e850       ?validate@?$c_string_character_source@_W@__crt_strtox@@QBE_NXZ 1006f850 f i libucrtd:output.obj
 0001:0006e8e0       ?validate@?$stream_output_adapter@D@__crt_stdio_output@@QBE_NAAV__crt_cached_ptd_host@@@Z 1006f8e0 f i libucrtd:output.obj
 0001:0006e9a0       ?validate@?$stream_output_adapter@_W@__crt_stdio_output@@QBE_NAAV__crt_cached_ptd_host@@@Z 1006f9a0 f i libucrtd:output.obj
 0001:0006ea60       ?validate@?$string_output_adapter@D@__crt_stdio_output@@QBE_NAAV__crt_cached_ptd_host@@@Z 1006fa60 f i libucrtd:output.obj
 0001:0006eb00       ?validate@?$string_output_adapter@_W@__crt_stdio_output@@QBE_NAAV__crt_cached_ptd_host@@@Z 1006fb00 f i libucrtd:output.obj
 0001:0006eba0       ?validate_and_store_parameter_data@?$positional_parameter_base@DV?$stream_output_adapter@D@__crt_stdio_output@@@__crt_stdio_output@@AAE_NAAUparameter_data@12@W4parameter_type@12@DW4length_modifier@2@@Z 1006fba0 f i libucrtd:output.obj
 0001:0006ec90       ?validate_and_store_parameter_data@?$positional_parameter_base@DV?$string_output_adapter@D@__crt_stdio_output@@@__crt_stdio_output@@AAE_NAAUparameter_data@12@W4parameter_type@12@DW4length_modifier@2@@Z 1006fc90 f i libucrtd:output.obj
 0001:0006ed80       ?validate_and_store_parameter_data@?$positional_parameter_base@_WV?$stream_output_adapter@_W@__crt_stdio_output@@@__crt_stdio_output@@AAE_NAAUparameter_data@12@W4parameter_type@12@_WW4length_modifier@2@@Z 1006fd80 f i libucrtd:output.obj
 0001:0006ee70       ?validate_and_store_parameter_data@?$positional_parameter_base@_WV?$string_output_adapter@_W@__crt_stdio_output@@@__crt_stdio_output@@AAE_NAAUparameter_data@12@W4parameter_type@12@_WW4length_modifier@2@@Z 1006fe70 f i libucrtd:output.obj
 0001:0006ef60       ?validate_and_update_state_at_beginning_of_format_character@?$positional_parameter_base@DV?$stream_output_adapter@D@__crt_stdio_output@@@__crt_stdio_output@@IAE_NXZ 1006ff60 f i libucrtd:output.obj
 0001:0006f190       ?validate_and_update_state_at_beginning_of_format_character@?$positional_parameter_base@DV?$string_output_adapter@D@__crt_stdio_output@@@__crt_stdio_output@@IAE_NXZ 10070190 f i libucrtd:output.obj
 0001:0006f3c0       ?validate_and_update_state_at_beginning_of_format_character@?$positional_parameter_base@_WV?$stream_output_adapter@_W@__crt_stdio_output@@@__crt_stdio_output@@IAE_NXZ 100703c0 f i libucrtd:output.obj
 0001:0006f5f0       ?validate_and_update_state_at_beginning_of_format_character@?$positional_parameter_base@_WV?$string_output_adapter@_W@__crt_stdio_output@@@__crt_stdio_output@@IAE_NXZ 100705f0 f i libucrtd:output.obj
 0001:0006f820       ?validate_and_update_state_at_beginning_of_format_character@?$standard_base@DV?$stream_output_adapter@D@__crt_stdio_output@@@__crt_stdio_output@@IAE_NXZ 10070820 f i libucrtd:output.obj
 0001:0006f830       ?validate_and_update_state_at_beginning_of_format_character@?$standard_base@DV?$string_output_adapter@D@__crt_stdio_output@@@__crt_stdio_output@@IAE_NXZ 10070830 f i libucrtd:output.obj
 0001:0006f840       ?validate_and_update_state_at_beginning_of_format_character@?$standard_base@_WV?$stream_output_adapter@_W@__crt_stdio_output@@@__crt_stdio_output@@IAE_NXZ 10070840 f i libucrtd:output.obj
 0001:0006f850       ?validate_and_update_state_at_beginning_of_format_character@?$standard_base@_WV?$string_output_adapter@_W@__crt_stdio_output@@@__crt_stdio_output@@IAE_NXZ 10070850 f i libucrtd:output.obj
 0001:0006f860       ?validate_and_update_state_at_end_of_format_string@?$format_validation_base@DV?$stream_output_adapter@D@__crt_stdio_output@@@__crt_stdio_output@@IAE_NXZ 10070860 f i libucrtd:output.obj
 0001:0006f910       ?validate_and_update_state_at_end_of_format_string@?$format_validation_base@DV?$string_output_adapter@D@__crt_stdio_output@@@__crt_stdio_output@@IAE_NXZ 10070910 f i libucrtd:output.obj
 0001:0006f9c0       ?validate_and_update_state_at_end_of_format_string@?$format_validation_base@_WV?$stream_output_adapter@_W@__crt_stdio_output@@@__crt_stdio_output@@IAE_NXZ 100709c0 f i libucrtd:output.obj
 0001:0006fa70       ?validate_and_update_state_at_end_of_format_string@?$format_validation_base@_WV?$string_output_adapter@_W@__crt_stdio_output@@@__crt_stdio_output@@IAE_NXZ 10070a70 f i libucrtd:output.obj
 0001:0006fb20       ?validate_and_update_state_at_end_of_format_string@?$positional_parameter_base@DV?$stream_output_adapter@D@__crt_stdio_output@@@__crt_stdio_output@@IAE_NXZ 10070b20 f i libucrtd:output.obj
 0001:0006fcd0       ?validate_and_update_state_at_end_of_format_string@?$positional_parameter_base@DV?$string_output_adapter@D@__crt_stdio_output@@@__crt_stdio_output@@IAE_NXZ 10070cd0 f i libucrtd:output.obj
 0001:0006fe80       ?validate_and_update_state_at_end_of_format_string@?$positional_parameter_base@_WV?$stream_output_adapter@_W@__crt_stdio_output@@@__crt_stdio_output@@IAE_NXZ 10070e80 f i libucrtd:output.obj
 0001:00070030       ?validate_and_update_state_at_end_of_format_string@?$positional_parameter_base@_WV?$string_output_adapter@_W@__crt_stdio_output@@@__crt_stdio_output@@IAE_NXZ 10071030 f i libucrtd:output.obj
 0001:000701e0       ?validate_and_update_state_at_end_of_format_string@?$standard_base@DV?$stream_output_adapter@D@__crt_stdio_output@@@__crt_stdio_output@@IBE_NXZ 100711e0 f i libucrtd:output.obj
 0001:000701f0       ?validate_and_update_state_at_end_of_format_string@?$standard_base@DV?$string_output_adapter@D@__crt_stdio_output@@@__crt_stdio_output@@IBE_NXZ 100711f0 f i libucrtd:output.obj
 0001:00070200       ?validate_and_update_state_at_end_of_format_string@?$standard_base@_WV?$stream_output_adapter@_W@__crt_stdio_output@@@__crt_stdio_output@@IBE_NXZ 10071200 f i libucrtd:output.obj
 0001:00070210       ?validate_and_update_state_at_end_of_format_string@?$standard_base@_WV?$string_output_adapter@_W@__crt_stdio_output@@@__crt_stdio_output@@IBE_NXZ 10071210 f i libucrtd:output.obj
 0001:00070220       ?validate_state_for_type_case_a@?$positional_parameter_base@DV?$stream_output_adapter@D@__crt_stdio_output@@@__crt_stdio_output@@IAE_NXZ 10071220 f i libucrtd:output.obj
 0001:00070330       ?validate_state_for_type_case_a@?$positional_parameter_base@DV?$string_output_adapter@D@__crt_stdio_output@@@__crt_stdio_output@@IAE_NXZ 10071330 f i libucrtd:output.obj
 0001:00070440       ?validate_state_for_type_case_a@?$positional_parameter_base@_WV?$stream_output_adapter@_W@__crt_stdio_output@@@__crt_stdio_output@@IAE_NXZ 10071440 f i libucrtd:output.obj
 0001:00070550       ?validate_state_for_type_case_a@?$positional_parameter_base@_WV?$string_output_adapter@_W@__crt_stdio_output@@@__crt_stdio_output@@IAE_NXZ 10071550 f i libucrtd:output.obj
 0001:00070660       ?validate_state_for_type_case_a@?$standard_base@DV?$stream_output_adapter@D@__crt_stdio_output@@@__crt_stdio_output@@IBE_NXZ 10071660 f i libucrtd:output.obj
 0001:00070670       ?validate_state_for_type_case_a@?$standard_base@DV?$string_output_adapter@D@__crt_stdio_output@@@__crt_stdio_output@@IBE_NXZ 10071670 f i libucrtd:output.obj
 0001:00070680       ?validate_state_for_type_case_a@?$standard_base@_WV?$stream_output_adapter@_W@__crt_stdio_output@@@__crt_stdio_output@@IBE_NXZ 10071680 f i libucrtd:output.obj
 0001:00070690       ?validate_state_for_type_case_a@?$standard_base@_WV?$string_output_adapter@_W@__crt_stdio_output@@@__crt_stdio_output@@IBE_NXZ 10071690 f i libucrtd:output.obj
 0001:000706a0       ?validate_stream_is_ansi_if_required@?$__acrt_stdio_char_traits@D@@SA_NQAU_iobuf@@@Z 100716a0 f i libucrtd:output.obj
 0001:000707d0       ?validate_stream_is_ansi_if_required@?$__acrt_stdio_char_traits@_W@@SA_NQAU_iobuf@@@Z 100717d0 f i libucrtd:output.obj
 0001:000707e0       ?wide_character_to_digit@__crt_strtox@@YAH_W@Z 100717e0 f i libucrtd:output.obj
 0001:00070b10       ?wide_null_string@?$output_processor@DV?$stream_output_adapter@D@__crt_stdio_output@@V?$format_validation_base@DV?$stream_output_adapter@D@__crt_stdio_output@@@2@@__crt_stdio_output@@CAPA_WXZ 10071b10 f i libucrtd:output.obj
 0001:00070b20       ?wide_null_string@?$output_processor@DV?$stream_output_adapter@D@__crt_stdio_output@@V?$positional_parameter_base@DV?$stream_output_adapter@D@__crt_stdio_output@@@2@@__crt_stdio_output@@CAPA_WXZ 10071b20 f i libucrtd:output.obj
 0001:00070b30       ?wide_null_string@?$output_processor@DV?$stream_output_adapter@D@__crt_stdio_output@@V?$standard_base@DV?$stream_output_adapter@D@__crt_stdio_output@@@2@@__crt_stdio_output@@CAPA_WXZ 10071b30 f i libucrtd:output.obj
 0001:00070b40       ?wide_null_string@?$output_processor@DV?$string_output_adapter@D@__crt_stdio_output@@V?$format_validation_base@DV?$string_output_adapter@D@__crt_stdio_output@@@2@@__crt_stdio_output@@CAPA_WXZ 10071b40 f i libucrtd:output.obj
 0001:00070b50       ?wide_null_string@?$output_processor@DV?$string_output_adapter@D@__crt_stdio_output@@V?$positional_parameter_base@DV?$string_output_adapter@D@__crt_stdio_output@@@2@@__crt_stdio_output@@CAPA_WXZ 10071b50 f i libucrtd:output.obj
 0001:00070b60       ?wide_null_string@?$output_processor@DV?$string_output_adapter@D@__crt_stdio_output@@V?$standard_base@DV?$string_output_adapter@D@__crt_stdio_output@@@2@@__crt_stdio_output@@CAPA_WXZ 10071b60 f i libucrtd:output.obj
 0001:00070b70       ?wide_null_string@?$output_processor@_WV?$stream_output_adapter@_W@__crt_stdio_output@@V?$format_validation_base@_WV?$stream_output_adapter@_W@__crt_stdio_output@@@2@@__crt_stdio_output@@CAPA_WXZ 10071b70 f i libucrtd:output.obj
 0001:00070b80       ?wide_null_string@?$output_processor@_WV?$stream_output_adapter@_W@__crt_stdio_output@@V?$positional_parameter_base@_WV?$stream_output_adapter@_W@__crt_stdio_output@@@2@@__crt_stdio_output@@CAPA_WXZ 10071b80 f i libucrtd:output.obj
 0001:00070b90       ?wide_null_string@?$output_processor@_WV?$stream_output_adapter@_W@__crt_stdio_output@@V?$standard_base@_WV?$stream_output_adapter@_W@__crt_stdio_output@@@2@@__crt_stdio_output@@CAPA_WXZ 10071b90 f i libucrtd:output.obj
 0001:00070ba0       ?wide_null_string@?$output_processor@_WV?$string_output_adapter@_W@__crt_stdio_output@@V?$format_validation_base@_WV?$string_output_adapter@_W@__crt_stdio_output@@@2@@__crt_stdio_output@@CAPA_WXZ 10071ba0 f i libucrtd:output.obj
 0001:00070bb0       ?wide_null_string@?$output_processor@_WV?$string_output_adapter@_W@__crt_stdio_output@@V?$positional_parameter_base@_WV?$string_output_adapter@_W@__crt_stdio_output@@@2@@__crt_stdio_output@@CAPA_WXZ 10071bb0 f i libucrtd:output.obj
 0001:00070bc0       ?wide_null_string@?$output_processor@_WV?$string_output_adapter@_W@__crt_stdio_output@@V?$standard_base@_WV?$string_output_adapter@_W@__crt_stdio_output@@@2@@__crt_stdio_output@@CAPA_WXZ 10071bc0 f i libucrtd:output.obj
 0001:00070bd0       ?write_character@?$output_adapter_common@DV?$stream_output_adapter@D@__crt_stdio_output@@@__crt_stdio_output@@QBEXDQAHAAV__crt_cached_ptd_host@@@Z 10071bd0 f i libucrtd:output.obj
 0001:00070c10       ?write_character@?$output_adapter_common@_WV?$stream_output_adapter@_W@__crt_stdio_output@@@__crt_stdio_output@@QBEX_WQAHAAV__crt_cached_ptd_host@@@Z 10071c10 f i libucrtd:output.obj
 0001:00070c50       ?write_character@?$string_output_adapter@D@__crt_stdio_output@@QBE_NDQAHAAV__crt_cached_ptd_host@@@Z 10071c50 f i libucrtd:output.obj
 0001:00070ce0       ?write_character@?$string_output_adapter@_W@__crt_stdio_output@@QBE_N_WQAHAAV__crt_cached_ptd_host@@@Z 10071ce0 f i libucrtd:output.obj
 0001:00070d80       ?write_character_without_count_update@?$stream_output_adapter@D@__crt_stdio_output@@QBE_NDAAV__crt_cached_ptd_host@@@Z 10071d80 f i libucrtd:output.obj
 0001:00070df0       ?write_character_without_count_update@?$stream_output_adapter@_W@__crt_stdio_output@@QBE_N_WAAV__crt_cached_ptd_host@@@Z 10071df0 f i libucrtd:output.obj
 0001:00070e60       ?write_stored_string_tchar@?$output_processor@DV?$stream_output_adapter@D@__crt_stdio_output@@V?$format_validation_base@DV?$stream_output_adapter@D@__crt_stdio_output@@@2@@__crt_stdio_output@@AAE_ND@Z 10071e60 f i libucrtd:output.obj
 0001:00070f80       ?write_stored_string_tchar@?$output_processor@DV?$stream_output_adapter@D@__crt_stdio_output@@V?$positional_parameter_base@DV?$stream_output_adapter@D@__crt_stdio_output@@@2@@__crt_stdio_output@@AAE_ND@Z 10071f80 f i libucrtd:output.obj
 0001:000710a0       ?write_stored_string_tchar@?$output_processor@DV?$stream_output_adapter@D@__crt_stdio_output@@V?$standard_base@DV?$stream_output_adapter@D@__crt_stdio_output@@@2@@__crt_stdio_output@@AAE_ND@Z 100720a0 f i libucrtd:output.obj
 0001:000711c0       ?write_stored_string_tchar@?$output_processor@DV?$string_output_adapter@D@__crt_stdio_output@@V?$format_validation_base@DV?$string_output_adapter@D@__crt_stdio_output@@@2@@__crt_stdio_output@@AAE_ND@Z 100721c0 f i libucrtd:output.obj
 0001:000712e0       ?write_stored_string_tchar@?$output_processor@DV?$string_output_adapter@D@__crt_stdio_output@@V?$positional_parameter_base@DV?$string_output_adapter@D@__crt_stdio_output@@@2@@__crt_stdio_output@@AAE_ND@Z 100722e0 f i libucrtd:output.obj
 0001:00071400       ?write_stored_string_tchar@?$output_processor@DV?$string_output_adapter@D@__crt_stdio_output@@V?$standard_base@DV?$string_output_adapter@D@__crt_stdio_output@@@2@@__crt_stdio_output@@AAE_ND@Z 10072400 f i libucrtd:output.obj
 0001:00071520       ?write_stored_string_tchar@?$output_processor@_WV?$stream_output_adapter@_W@__crt_stdio_output@@V?$format_validation_base@_WV?$stream_output_adapter@_W@__crt_stdio_output@@@2@@__crt_stdio_output@@AAE_N_W@Z 10072520 f i libucrtd:output.obj
 0001:00071630       ?write_stored_string_tchar@?$output_processor@_WV?$stream_output_adapter@_W@__crt_stdio_output@@V?$positional_parameter_base@_WV?$stream_output_adapter@_W@__crt_stdio_output@@@2@@__crt_stdio_output@@AAE_N_W@Z 10072630 f i libucrtd:output.obj
 0001:00071740       ?write_stored_string_tchar@?$output_processor@_WV?$stream_output_adapter@_W@__crt_stdio_output@@V?$standard_base@_WV?$stream_output_adapter@_W@__crt_stdio_output@@@2@@__crt_stdio_output@@AAE_N_W@Z 10072740 f i libucrtd:output.obj
 0001:00071850       ?write_stored_string_tchar@?$output_processor@_WV?$string_output_adapter@_W@__crt_stdio_output@@V?$format_validation_base@_WV?$string_output_adapter@_W@__crt_stdio_output@@@2@@__crt_stdio_output@@AAE_N_W@Z 10072850 f i libucrtd:output.obj
 0001:00071960       ?write_stored_string_tchar@?$output_processor@_WV?$string_output_adapter@_W@__crt_stdio_output@@V?$positional_parameter_base@_WV?$string_output_adapter@_W@__crt_stdio_output@@@2@@__crt_stdio_output@@AAE_N_W@Z 10072960 f i libucrtd:output.obj
 0001:00071a70       ?write_stored_string_tchar@?$output_processor@_WV?$string_output_adapter@_W@__crt_stdio_output@@V?$standard_base@_WV?$string_output_adapter@_W@__crt_stdio_output@@@2@@__crt_stdio_output@@AAE_N_W@Z 10072a70 f i libucrtd:output.obj
 0001:00071b80       ?write_string@?$stream_output_adapter@D@__crt_stdio_output@@QBEXQBDHQAHAAV__crt_cached_ptd_host@@@Z 10072b80 f i libucrtd:output.obj
 0001:00071be0       ?write_string@?$stream_output_adapter@_W@__crt_stdio_output@@QBEXQB_WHQAHAAV__crt_cached_ptd_host@@@Z 10072be0 f i libucrtd:output.obj
 0001:00071c40       ?write_string@?$string_output_adapter@D@__crt_stdio_output@@QBEXQBDHQAHAAV__crt_cached_ptd_host@@@Z 10072c40 f i libucrtd:output.obj
 0001:00071d40       ?write_string@?$string_output_adapter@_W@__crt_stdio_output@@QBEXQB_WHQAHAAV__crt_cached_ptd_host@@@Z 10072d40 f i libucrtd:output.obj
 0001:00071e50       ?write_string_impl@?$output_adapter_common@DV?$stream_output_adapter@D@__crt_stdio_output@@@__crt_stdio_output@@IBEXQBDHQAHAAV__crt_cached_ptd_host@@@Z 10072e50 f i libucrtd:output.obj
 0001:00071f10       ?write_string_impl@?$output_adapter_common@_WV?$stream_output_adapter@_W@__crt_stdio_output@@@__crt_stdio_output@@IBEXQB_WHQAHAAV__crt_cached_ptd_host@@@Z 10072f10 f i libucrtd:output.obj
 0001:00071fd0       ___acrt_disable_global_locale_sync 10072fd0 f i libucrtd:output.obj
 0001:00071ff0       ___acrt_enable_global_locale_sync 10072ff0 f i libucrtd:output.obj
 0001:00072010       ___acrt_isleadbyte_l_noupdate 10073010 f i libucrtd:output.obj
 0001:00072030       ___acrt_locale_changed     10073030 f i libucrtd:output.obj
 0001:00072060       ___acrt_locale_get_ctype_array_value 10073060 f i libucrtd:output.obj
 0001:00072090       ___ascii_iswalpha          10073090 f i libucrtd:output.obj
 0001:000720d0       ___ascii_toupper           100730d0 f i libucrtd:output.obj
 0001:000720f0       ___ascii_towupper          100730f0 f i libucrtd:output.obj
 0001:00072110       ___stdio_common_vfprintf   10073110 f   libucrtd:output.obj
 0001:00072160       ___stdio_common_vfprintf_p 10073160 f   libucrtd:output.obj
 0001:000721b0       ___stdio_common_vfprintf_s 100731b0 f   libucrtd:output.obj
 0001:00072200       ___stdio_common_vfwprintf  10073200 f   libucrtd:output.obj
 0001:00072250       ___stdio_common_vfwprintf_p 10073250 f   libucrtd:output.obj
 0001:000722a0       ___stdio_common_vfwprintf_s 100732a0 f   libucrtd:output.obj
 0001:000722f0       ___stdio_common_vsnprintf_s 100732f0 f   libucrtd:output.obj
 0001:00072340       ___stdio_common_vsnwprintf_s 10073340 f   libucrtd:output.obj
 0001:00072390       ___stdio_common_vsprintf   10073390 f   libucrtd:output.obj
 0001:000723e0       ___stdio_common_vsprintf_p 100733e0 f   libucrtd:output.obj
 0001:00072430       ___stdio_common_vsprintf_s 10073430 f   libucrtd:output.obj
 0001:00072480       ___stdio_common_vswprintf  10073480 f   libucrtd:output.obj
 0001:000724d0       ___stdio_common_vswprintf_p 100734d0 f   libucrtd:output.obj
 0001:00072520       ___stdio_common_vswprintf_s 10073520 f   libucrtd:output.obj
 0001:00072570       __ctype_fast_check_internal 10073570 f i libucrtd:output.obj
 0001:00072590       __isdigit_fast_internal    10073590 f i libucrtd:output.obj
 0001:000725b0       __tolower_fast_internal    100735b0 f i libucrtd:output.obj
 0001:000725d0       _free                      100735d0 f   libucrtd:free.obj
 0001:00072600       _malloc                    10073600 f   libucrtd:malloc.obj
 0001:00072620       ??$?RU?$__crt_report_hook_node@D@@@__crt_internal_free_policy@@QBEXQBU?$__crt_report_hook_node@D@@@Z 10073620 f i libucrtd:dbgrpt.obj
 0001:00072640       ??$?RU?$__crt_report_hook_node@_W@@@__crt_internal_free_policy@@QBEXQBU?$__crt_report_hook_node@_W@@@Z 10073640 f i libucrtd:dbgrpt.obj
 0001:00073510       ??$get_module_file_name@AAPAUHINSTANCE__@@AAY0BAF@DK@?$__crt_char_traits@D@@SAKAAPAUHINSTANCE__@@AAY0BAF@D$$QAK@Z 10074510 f i libucrtd:dbgrpt.obj
 0001:00073530       ??$get_module_file_name@AAPAUHINSTANCE__@@AAY0BAF@_WK@?$__crt_char_traits@_W@@SAKAAPAUHINSTANCE__@@AAY0BAF@_W$$QAK@Z 10074530 f i libucrtd:dbgrpt.obj
 0001:00073550       ??$tcscpy_s@AAY0BAF@DIPBD@?$__crt_char_traits@D@@SAHAAY0BAF@D$$QAI$$QAPBD@Z 10074550 f i libucrtd:dbgrpt.obj
 0001:00073570       ??$tcscpy_s@AAY0BAF@_WIPB_W@?$__crt_char_traits@_W@@SAHAAY0BAF@_W$$QAI$$QAPB_W@Z 10074570 f i libucrtd:dbgrpt.obj
 0001:00073590       ??$tcslen@AAY0BAF@D@?$__crt_char_traits@D@@SAIAAY0BAF@D@Z 10074590 f i libucrtd:dbgrpt.obj
 0001:000735b0       ??$tcslen@AAY0BAF@_W@?$__crt_char_traits@_W@@SAIAAY0BAF@_W@Z 100745b0 f i libucrtd:dbgrpt.obj
 0001:000735d0       ??$tcslen@ABQBD@?$__crt_char_traits@D@@SAIABQBD@Z 100745d0 f i libucrtd:dbgrpt.obj
 0001:000735f0       ??$tcslen@ABQB_W@?$__crt_char_traits@_W@@SAIABQB_W@Z 100745f0 f i libucrtd:dbgrpt.obj
 0001:000736f0       ??0?$__crt_unique_heap_ptr@U?$__crt_report_hook_node@D@@U__crt_internal_free_policy@@@@QAE@QAU?$__crt_report_hook_node@D@@@Z 100746f0 f i libucrtd:dbgrpt.obj
 0001:00073710       ??0?$__crt_unique_heap_ptr@U?$__crt_report_hook_node@_W@@U__crt_internal_free_policy@@@@QAE@QAU?$__crt_report_hook_node@_W@@@Z 10074710 f i libucrtd:dbgrpt.obj
 0001:00073730       ??1?$__crt_unique_heap_ptr@U?$__crt_report_hook_node@D@@U__crt_internal_free_policy@@@@QAE@XZ 10074730 f i libucrtd:dbgrpt.obj
 0001:00073750       ??1?$__crt_unique_heap_ptr@U?$__crt_report_hook_node@_W@@U__crt_internal_free_policy@@@@QAE@XZ 10074750 f i libucrtd:dbgrpt.obj
 0001:00073770       ??B?$__crt_unique_heap_ptr@U?$__crt_report_hook_node@D@@U__crt_internal_free_policy@@@@QBE_NXZ 10074770 f i libucrtd:dbgrpt.obj
 0001:00073790       ??B?$__crt_unique_heap_ptr@U?$__crt_report_hook_node@_W@@U__crt_internal_free_policy@@@@QBE_NXZ 10074790 f i libucrtd:dbgrpt.obj
 0001:00073cf0       ?detach@?$__crt_unique_heap_ptr@U?$__crt_report_hook_node@D@@U__crt_internal_free_policy@@@@QAEPAU?$__crt_report_hook_node@D@@XZ 10074cf0 f i libucrtd:dbgrpt.obj
 0001:00073d20       ?detach@?$__crt_unique_heap_ptr@U?$__crt_report_hook_node@_W@@U__crt_internal_free_policy@@@@QAEPAU?$__crt_report_hook_node@_W@@XZ 10074d20 f i libucrtd:dbgrpt.obj
 0001:00073d50       ?get@?$__crt_unique_heap_ptr@U?$__crt_report_hook_node@D@@U__crt_internal_free_policy@@@@QBEPAU?$__crt_report_hook_node@D@@XZ 10074d50 f i libucrtd:dbgrpt.obj
 0001:00073d70       ?get@?$__crt_unique_heap_ptr@U?$__crt_report_hook_node@_W@@U__crt_internal_free_policy@@@@QBEPAU?$__crt_report_hook_node@_W@@XZ 10074d70 f i libucrtd:dbgrpt.obj
 0001:00073df0       ?is_valid@?$__crt_unique_heap_ptr@U?$__crt_report_hook_node@D@@U__crt_internal_free_policy@@@@QBE_NXZ 10074df0 f i libucrtd:dbgrpt.obj
 0001:00073e20       ?is_valid@?$__crt_unique_heap_ptr@U?$__crt_report_hook_node@_W@@U__crt_internal_free_policy@@@@QBE_NXZ 10074e20 f i libucrtd:dbgrpt.obj
 0001:00073e50       ?release@?$__crt_unique_heap_ptr@U?$__crt_report_hook_node@D@@U__crt_internal_free_policy@@@@QAEXXZ 10074e50 f i libucrtd:dbgrpt.obj
 0001:00073e80       ?release@?$__crt_unique_heap_ptr@U?$__crt_report_hook_node@_W@@U__crt_internal_free_policy@@@@QAEXXZ 10074e80 f i libucrtd:dbgrpt.obj
 0001:00073eb0       __CrtDbgReport             10074eb0 f   libucrtd:dbgrpt.obj
 0001:00073f00       __CrtDbgReportW            10074f00 f   libucrtd:dbgrpt.obj
 0001:00073f50       __CrtSetReportHook2        10074f50 f   libucrtd:dbgrpt.obj
 0001:00073f70       __CrtSetReportHookW2       10074f70 f   libucrtd:dbgrpt.obj
 0001:00073f90       ___acrt_MessageWindowA     10074f90 f   libucrtd:dbgrpt.obj
 0001:00073fc0       ___acrt_MessageWindowW     10074fc0 f   libucrtd:dbgrpt.obj
 0001:00073ff0       __invoke_watson_if_error   10074ff0 f i libucrtd:dbgrpt.obj
 0001:00074020       __invoke_watson_if_oneof   10075020 f i libucrtd:dbgrpt.obj
 0001:00074060       __snwprintf_s              10075060 f i libucrtd:dbgrpt.obj
 0001:000740a0       __vsnwprintf_s_l           100750a0 f i libucrtd:dbgrpt.obj
 0001:00074420       _wcscpy_s                  10075420 f   libucrtd:wcscpy_s.obj
 0001:00075140       ??1?$__crt_simd_cleanup_guard@$00@@QAE@XZ 10076140 f i libucrtd:strnlen.obj
 0001:00075150       ??1?$__crt_simd_cleanup_guard@$0A@@@QAE@XZ 10076150 f i libucrtd:strnlen.obj
 0001:00075160       ?compare_equals@?$__crt_simd_traits@$00E@@SA?AT__m256i@@T2@0@Z 10076160 f i libucrtd:strnlen.obj
 0001:000751a0       ?compare_equals@?$__crt_simd_traits@$00G@@SA?AT__m256i@@T2@0@Z 100761a0 f i libucrtd:strnlen.obj
 0001:000751e0       ?compare_equals@?$__crt_simd_traits@$0A@E@@SA?AT__m128i@@T2@0@Z 100761e0 f i libucrtd:strnlen.obj
 0001:00075220       ?compare_equals@?$__crt_simd_traits@$0A@G@@SA?AT__m128i@@T2@0@Z 10076220 f i libucrtd:strnlen.obj
 0001:00075260       ?compute_byte_mask@?$__crt_simd_pack_traits@$00@@SAHT__m256i@@@Z 10076260 f i libucrtd:strnlen.obj
 0001:00075290       ?compute_byte_mask@?$__crt_simd_pack_traits@$0A@@@SAHT__m128i@@@Z 10076290 f i libucrtd:strnlen.obj
 0001:000752c0       ?get_zero_pack@?$__crt_simd_pack_traits@$00@@SA?AT__m256i@@XZ 100762c0 f i libucrtd:strnlen.obj
 0001:000752f0       ?get_zero_pack@?$__crt_simd_pack_traits@$0A@@@SA?AT__m128i@@XZ 100762f0 f i libucrtd:strnlen.obj
 0001:00075320       _strnlen                   10076320 f   libucrtd:strnlen.obj
 0001:00075340       _wcslen                    10076340 f   libucrtd:strnlen.obj
 0001:00075360       _wcsnlen                   10076360 f   libucrtd:strnlen.obj
 0001:00075380       ??$__crt_fast_decode_pointer@P6AXPB_W00II@Z@@YAP6AXPB_W00II@ZQ6AX000II@Z@Z 10076380 f i libucrtd:invalid_parameter.obj
 0001:000753b0       ??$__crt_fast_encode_pointer@P6AXPB_W00II@Z@@YAP6AXPB_W00II@ZQ6AX000II@Z@Z 100763b0 f i libucrtd:invalid_parameter.obj
 0001:000753e0       ??$initialize_from_array@$$BY00Q6AXPB_W00II@Z@?$dual_state_global@P6AXPB_W00II@Z@__crt_state_management@@QAAXAAY00Q6AXPB_W00II@Z@Z 100763e0 f i libucrtd:invalid_parameter.obj
 0001:00075430       ?__crt_rotate_pointer_value@@YAIIH@Z 10076430 f i libucrtd:invalid_parameter.obj
 0001:00075440       ?check_synchronize_global_state_index@__crt_cached_ptd_host@@AAEIXZ 10076440 f i libucrtd:invalid_parameter.obj
 0001:00075490       ?dangerous_get_state_array@?$dual_state_global@P6AXPB_W00II@Z@__crt_state_management@@QAEPAP6AXPB_W00II@ZXZ 10076490 f i libucrtd:invalid_parameter.obj
 0001:000754a0       ?get_current_global_state_index@__crt_cached_ptd_host@@QAEIXZ 100764a0 f i libucrtd:invalid_parameter.obj
 0001:000754c0       ?get_current_state_index@__crt_state_management@@YAIXZ 100764c0 f i libucrtd:invalid_parameter.obj
 0001:000754d0       ?get_raw_ptd_noexit@__crt_cached_ptd_host@@QAEPAU__acrt_ptd@@XZ 100764d0 f i libucrtd:invalid_parameter.obj
 0001:000754f0       ?try_synchronize_per_thread_data@__crt_cached_ptd_host@@AAEPAU__acrt_ptd@@XZ 100764f0 f i libucrtd:invalid_parameter.obj
 0001:00075520       ?value@?$dual_state_global@P6AXPB_W00II@Z@__crt_state_management@@QAEAAP6AXPB_W00II@ZAAV__crt_cached_ptd_host@@@Z 10076520 f i libucrtd:invalid_parameter.obj
 0001:00075540       ?value@?$dual_state_global@P6AXPB_W00II@Z@__crt_state_management@@QAEAAP6AXPB_W00II@ZXZ 10076540 f i libucrtd:invalid_parameter.obj
 0001:00075560       ___acrt_call_reportfault   10076560 f   libucrtd:invalid_parameter.obj
 0001:000756c0       ___acrt_initialize_invalid_parameter_handler 100766c0 f   libucrtd:invalid_parameter.obj
 0001:000756f0       __get_invalid_parameter_handler 100766f0 f   libucrtd:invalid_parameter.obj
 0001:00075710       __get_thread_local_invalid_parameter_handler 10076710 f   libucrtd:invalid_parameter.obj
 0001:00075740       __invalid_parameter        10076740 f   libucrtd:invalid_parameter.obj
 0001:00075780       __invalid_parameter_internal 10076780 f   libucrtd:invalid_parameter.obj
 0001:00075850       __invalid_parameter_noinfo 10076850 f   libucrtd:invalid_parameter.obj
 0001:00075870       __invalid_parameter_noinfo_noreturn 10076870 f   libucrtd:invalid_parameter.obj
 0001:000758a0       __invoke_watson            100768a0 f   libucrtd:invalid_parameter.obj
 0001:000758e0       __set_invalid_parameter_handler 100768e0 f   libucrtd:invalid_parameter.obj
 0001:00075930       __set_thread_local_invalid_parameter_handler 10076930 f   libucrtd:invalid_parameter.obj
 0001:00075960       ?get_doserrno@__crt_cached_ptd_host@@QAEAAU?$cached@K@1@XZ 10076960 f i libucrtd:errno.obj
 0001:00075980       ?set@?$cached@K@__crt_cached_ptd_host@@QAEKK@Z 10076980 f i libucrtd:errno.obj
 0001:000759b0       ___acrt_errno_from_os_error 100769b0 f   libucrtd:errno.obj
 0001:00075a30       ___acrt_errno_map_os_error 10076a30 f   libucrtd:errno.obj
 0001:00075a60       ___acrt_errno_map_os_error_ptd 10076a60 f   libucrtd:errno.obj
 0001:00075ab0       ___doserrno                10076ab0 f   libucrtd:errno.obj
 0001:00075ae0       __errno                    10076ae0 f   libucrtd:errno.obj
 0001:00075b10       __get_doserrno             10076b10 f   libucrtd:errno.obj
 0001:00075ba0       __get_errno                10076ba0 f   libucrtd:errno.obj
 0001:00075c30       __set_doserrno             10076c30 f   libucrtd:errno.obj
 0001:00075c60       __set_errno                10076c60 f   libucrtd:errno.obj
 0001:00075c90       _calloc                    10076c90 f   libucrtd:calloc.obj
 0001:00075cb0       __recalloc                 10076cb0 f   libucrtd:recalloc.obj
 0001:00075ce0       __recalloc_base            10076ce0 f   libucrtd:recalloc.obj
 0001:00075d80       __resetstkoflw             10076d80 f   libucrtd:resetstk.obj
 0001:000762e0       _wcscat_s                  100772e0 f   libucrtd:wcscat_s.obj
 0001:00076730       _wcsncpy_s                 10077730 f   libucrtd:wcsncpy_s.obj
 0001:00076870       ___isascii                 10077870 f   libucrtd:_ctype.obj
 0001:000768a0       ___iscsym                  100778a0 f   libucrtd:_ctype.obj
 0001:000768e0       ___iscsymf                 100778e0 f   libucrtd:_ctype.obj
 0001:00076920       ___toascii                 10077920 f   libucrtd:_ctype.obj
 0001:00076930       __isalnum_l                10077930 f   libucrtd:_ctype.obj
 0001:00076950       __isalpha_l                10077950 f   libucrtd:_ctype.obj
 0001:00076970       __isblank_l                10077970 f   libucrtd:_ctype.obj
 0001:00076990       __iscntrl_l                10077990 f   libucrtd:_ctype.obj
 0001:000769b0       __iscsym_l                 100779b0 f   libucrtd:_ctype.obj
 0001:000769f0       __iscsymf_l                100779f0 f   libucrtd:_ctype.obj
 0001:00076a30       __isdigit_l                10077a30 f   libucrtd:_ctype.obj
 0001:00076a50       __isgraph_l                10077a50 f   libucrtd:_ctype.obj
 0001:00076a70       __islower_l                10077a70 f   libucrtd:_ctype.obj
 0001:00076a90       __isprint_l                10077a90 f   libucrtd:_ctype.obj
 0001:00076ab0       __ispunct_l                10077ab0 f   libucrtd:_ctype.obj
 0001:00076ad0       __isspace_l                10077ad0 f   libucrtd:_ctype.obj
 0001:00076af0       __isupper_l                10077af0 f   libucrtd:_ctype.obj
 0001:00076b10       __isxdigit_l               10077b10 f   libucrtd:_ctype.obj
 0001:00076b30       _isalnum                   10077b30 f   libucrtd:_ctype.obj
 0001:00076b50       _isalpha                   10077b50 f   libucrtd:_ctype.obj
 0001:00076b70       _isblank                   10077b70 f   libucrtd:_ctype.obj
 0001:00076ba0       _iscntrl                   10077ba0 f   libucrtd:_ctype.obj
 0001:00076bc0       _isdigit                   10077bc0 f   libucrtd:_ctype.obj
 0001:00076be0       _isgraph                   10077be0 f   libucrtd:_ctype.obj
 0001:00076c00       _islower                   10077c00 f   libucrtd:_ctype.obj
 0001:00076c20       _isprint                   10077c20 f   libucrtd:_ctype.obj
 0001:00076c40       _ispunct                   10077c40 f   libucrtd:_ctype.obj
 0001:00076c60       _isspace                   10077c60 f   libucrtd:_ctype.obj
 0001:00076c80       _isupper                   10077c80 f   libucrtd:_ctype.obj
 0001:00076ca0       _isxdigit                  10077ca0 f   libucrtd:_ctype.obj
 0001:00076cc0       _wcscat                    10077cc0 f   libucrtd:wcscat.obj
 0001:00076d20       _wcscpy                    10077d20 f   libucrtd:wcscpy.obj
 0001:000773b0       ??$open_file@ABQBDABQBDABHPAU_iobuf@@@?$__crt_char_traits@D@@SAPAU_iobuf@@ABQBD0ABH$$QAPAU1@@Z 100783b0 f i libucrtd:fopen.obj
 0001:000773e0       ??$open_file@ABQB_WABQB_WABHPAU_iobuf@@@?$__crt_char_traits@_W@@SAPAU_iobuf@@ABQB_W0ABH$$QAPAU1@@Z 100783e0 f i libucrtd:fopen.obj
 0001:00077410       ?unlock@__crt_stdio_stream@@QBEXXZ 10078410 f i libucrtd:fopen.obj
 0001:00077430       __fsopen                   10078430 f   libucrtd:fopen.obj
 0001:00077450       __wfopen                   10078450 f   libucrtd:fopen.obj
 0001:00077470       __wfopen_s                 10078470 f   libucrtd:fopen.obj
 0001:00077490       __wfsopen                  10078490 f   libucrtd:fopen.obj
 0001:000774b0       _fopen                     100784b0 f   libucrtd:fopen.obj
 0001:000774d0       _fopen_s                   100784d0 f   libucrtd:fopen.obj
 0001:000777b0       ?is_in_use@__crt_stdio_stream@@QBE_NXZ 100787b0 f i libucrtd:fclose.obj
 0001:000777f0       __fclose_nolock            100787f0 f   libucrtd:fclose.obj
 0001:00077830       _fclose                    10078830 f   libucrtd:fclose.obj
 0001:00077ad0       __fputc_nolock             10078ad0 f   libucrtd:fputc.obj
 0001:00077b10       __fputc_nolock_internal    10078b10 f   libucrtd:fputc.obj
 0001:00077ba0       __fputchar                 10078ba0 f   libucrtd:fputc.obj
 0001:00077bc0       __putc_nolock              10078bc0 f   libucrtd:fputc.obj
 0001:00077be0       _fputc                     10078be0 f   libucrtd:fputc.obj
 0001:00077c20       _putc                      10078c20 f   libucrtd:fputc.obj
 0001:00077c40       _putchar                   10078c40 f   libucrtd:fputc.obj
 0001:00077cb0       __seh_filter_dll           10078cb0 f   libucrtd:exception_filter.obj
 0001:00077ce0       __seh_filter_exe           10078ce0 f   libucrtd:exception_filter.obj
 0001:00077f00       ??$?B$$A6GXPAXK0@Z@__crt_fast_encoded_nullptr_t@@QBEP6GXPAXK0@ZXZ 10078f00 f i libucrtd:exit.obj
 0001:00078010       ??$__crt_fast_decode_pointer@P6GXPAXK0@Z@@YAP6GXPAXK0@ZQ6GX0K0@Z@Z 10079010 f i libucrtd:exit.obj
 0001:00078040       ??$__crt_fast_encode_pointer@P6GXPAXK0@Z@@YAP6GXPAXK0@ZQ6GX0K0@Z@Z 10079040 f i libucrtd:exit.obj
 0001:00078070       ??$__crt_get_proc_address@P6GXI@Z@@YAP6GXI@ZQAUHINSTANCE__@@QBD@Z 10079070 f i libucrtd:exit.obj
 0001:00078100       ??0?$__crt_unique_handle_t@U__crt_hmodule_traits@@@@QAE@QAUHINSTANCE__@@@Z 10079100 f i libucrtd:exit.obj
 0001:00078120       ??1?$__crt_unique_handle_t@U__crt_hmodule_traits@@@@QAE@XZ 10079120 f i libucrtd:exit.obj
 0001:000782e0       ?__acrt_select_exit_lock@@YA?AW4__acrt_lock_id@@XZ 100792e0 f i libucrtd:exit.obj
 0001:000782f0       ?__crt_fast_encode_pointer@@YA?AU__crt_fast_encoded_nullptr_t@@$$T@Z 100792f0 f i libucrtd:exit.obj
 0001:00078320       ?close@?$__crt_unique_handle_t@U__crt_hmodule_traits@@@@QAEXXZ 10079320 f i libucrtd:exit.obj
 0001:00078360       ?close@__crt_hmodule_traits@@SA_NPAUHINSTANCE__@@@Z 10079360 f i libucrtd:exit.obj
 0001:00078490       ?get@?$__crt_unique_handle_t@U__crt_hmodule_traits@@@@QBEPAUHINSTANCE__@@XZ 10079490 f i libucrtd:exit.obj
 0001:000784b0       ?get_address_of@?$__crt_unique_handle_t@U__crt_hmodule_traits@@@@QAEPAPAUHINSTANCE__@@XZ 100794b0 f i libucrtd:exit.obj
 0001:000784c0       ?get_invalid_value@__crt_hmodule_traits@@SAPAUHINSTANCE__@@XZ 100794c0 f i libucrtd:exit.obj
 0001:00078670       __Exit                     10079670 f   libucrtd:exit.obj
 0001:00078690       ___acrt_initialize_thread_local_exit_callback 10079690 f   libucrtd:exit.obj
 0001:000786a0       __c_exit                   100796a0 f   libucrtd:exit.obj
 0001:000786c0       __cexit                    100796c0 f   libucrtd:exit.obj
 0001:000786e0       __exit                     100796e0 f   libucrtd:exit.obj
 0001:00078700       __is_c_termination_complete 10079700 f   libucrtd:exit.obj
 0001:00078720       __register_thread_local_exe_atexit_callback 10079720 f   libucrtd:exit.obj
 0001:00078760       _exit                      10079760 f   libucrtd:exit.obj
 0001:00078780       _quick_exit                10079780 f   libucrtd:exit.obj
 0001:000787a0       ??$?RE@__crt_internal_free_policy@@QBEXQBE@Z 100797a0 f i libucrtd:argv_parsing.obj
 0001:000787c0       ??$?RPAD@__crt_internal_free_policy@@QBEXQBQAD@Z 100797c0 f i libucrtd:argv_parsing.obj
 0001:000787e0       ??$?RPA_W@__crt_internal_free_policy@@QBEXQBQA_W@Z 100797e0 f i libucrtd:argv_parsing.obj
 0001:00078da0       ??$get_module_file_name@$$TAAY0BAF@DH@?$__crt_char_traits@D@@SAK$$QA$$TAAY0BAF@D$$QAH@Z 10079da0 f i libucrtd:argv_parsing.obj
 0001:00078dc0       ??$get_module_file_name@$$TAAY0BAF@_WH@?$__crt_char_traits@_W@@SAK$$QA$$TAAY0BAF@_W$$QAH@Z 10079dc0 f i libucrtd:argv_parsing.obj
 0001:00079500       ??$set_program_name@PAD@?$__crt_char_traits@D@@SAX$$QAPAD@Z 1007a500 f i libucrtd:argv_parsing.obj
 0001:00079520       ??$set_program_name@PA_W@?$__crt_char_traits@_W@@SAX$$QAPA_W@Z 1007a520 f i libucrtd:argv_parsing.obj
 0001:00079580       ??0?$__crt_unique_heap_ptr@EU__crt_internal_free_policy@@@@QAE@QAE@Z 1007a580 f i libucrtd:argv_parsing.obj
 0001:000795a0       ??0?$__crt_unique_heap_ptr@PADU__crt_internal_free_policy@@@@QAE@QAPAD@Z 1007a5a0 f i libucrtd:argv_parsing.obj
 0001:000795c0       ??0?$__crt_unique_heap_ptr@PA_WU__crt_internal_free_policy@@@@QAE@QAPA_W@Z 1007a5c0 f i libucrtd:argv_parsing.obj
 0001:000795e0       ??1?$__crt_unique_heap_ptr@EU__crt_internal_free_policy@@@@QAE@XZ 1007a5e0 f i libucrtd:argv_parsing.obj
 0001:00079600       ??1?$__crt_unique_heap_ptr@PADU__crt_internal_free_policy@@@@QAE@XZ 1007a600 f i libucrtd:argv_parsing.obj
 0001:00079620       ??1?$__crt_unique_heap_ptr@PA_WU__crt_internal_free_policy@@@@QAE@XZ 1007a620 f i libucrtd:argv_parsing.obj
 0001:00079640       ??B?$__crt_unique_heap_ptr@EU__crt_internal_free_policy@@@@QBE_NXZ 1007a640 f i libucrtd:argv_parsing.obj
 0001:00079700       ?detach@?$__crt_unique_heap_ptr@EU__crt_internal_free_policy@@@@QAEPAEXZ 1007a700 f i libucrtd:argv_parsing.obj
 0001:00079730       ?detach@?$__crt_unique_heap_ptr@PADU__crt_internal_free_policy@@@@QAEPAPADXZ 1007a730 f i libucrtd:argv_parsing.obj
 0001:00079760       ?detach@?$__crt_unique_heap_ptr@PA_WU__crt_internal_free_policy@@@@QAEPAPA_WXZ 1007a760 f i libucrtd:argv_parsing.obj
 0001:000797f0       ?get@?$__crt_unique_heap_ptr@EU__crt_internal_free_policy@@@@QBEPAEXZ 1007a7f0 f i libucrtd:argv_parsing.obj
 0001:00079810       ?get@?$__crt_unique_heap_ptr@PADU__crt_internal_free_policy@@@@QBEPAPADXZ 1007a810 f i libucrtd:argv_parsing.obj
 0001:00079830       ?get@?$__crt_unique_heap_ptr@PA_WU__crt_internal_free_policy@@@@QBEPAPA_WXZ 1007a830 f i libucrtd:argv_parsing.obj
 0001:00079850       ?get_address_of@?$__crt_unique_heap_ptr@PADU__crt_internal_free_policy@@@@QAEPAPAPADXZ 1007a850 f i libucrtd:argv_parsing.obj
 0001:00079860       ?get_address_of@?$__crt_unique_heap_ptr@PA_WU__crt_internal_free_policy@@@@QAEPAPAPA_WXZ 1007a860 f i libucrtd:argv_parsing.obj
 0001:000798b0       ?is_valid@?$__crt_unique_heap_ptr@EU__crt_internal_free_policy@@@@QBE_NXZ 1007a8b0 f i libucrtd:argv_parsing.obj
 0001:000798e0       ?release@?$__crt_unique_heap_ptr@EU__crt_internal_free_policy@@@@QAEXXZ 1007a8e0 f i libucrtd:argv_parsing.obj
 0001:00079910       ?release@?$__crt_unique_heap_ptr@PADU__crt_internal_free_policy@@@@QAEXXZ 1007a910 f i libucrtd:argv_parsing.obj
 0001:00079940       ?release@?$__crt_unique_heap_ptr@PA_WU__crt_internal_free_policy@@@@QAEXXZ 1007a940 f i libucrtd:argv_parsing.obj
 0001:000799b0       ___acrt_allocate_buffer_for_argv 1007a9b0 f   libucrtd:argv_parsing.obj
 0001:00079a70       __configure_narrow_argv    1007aa70 f   libucrtd:argv_parsing.obj
 0001:00079a90       __configure_wide_argv      1007aa90 f   libucrtd:argv_parsing.obj
 0001:00079ab0       __set_pgmptr               1007aab0 f i libucrtd:argv_parsing.obj
 0001:00079ac0       __set_wpgmptr              1007aac0 f i libucrtd:argv_parsing.obj
 0001:00079ad0       ??$?R_W@__crt_internal_free_policy@@QBEXQB_W@Z 1007aad0 f i libucrtd:environment_initialization.obj
 0001:0007a2b0       ??$get_environment_from_os@$$V@?$__crt_char_traits@D@@SAPADXZ 1007b2b0 f i libucrtd:environment_initialization.obj
 0001:0007a2c0       ??$get_environment_from_os@$$V@?$__crt_char_traits@_W@@SAPA_WXZ 1007b2c0 f i libucrtd:environment_initialization.obj
 0001:0007a590       ??$set_variable_in_environment_nolock@PADH@?$__crt_char_traits@D@@SAH$$QAPAD$$QAH@Z 1007b590 f i libucrtd:environment_initialization.obj
 0001:0007a5b0       ??$set_variable_in_environment_nolock@PA_WH@?$__crt_char_traits@_W@@SAH$$QAPA_W$$QAH@Z 1007b5b0 f i libucrtd:environment_initialization.obj
 0001:0007a5d0       ??$tcscpy_s@PADABIAAPAD@?$__crt_char_traits@D@@SAH$$QAPADABIAAPAD@Z 1007b5d0 f i libucrtd:environment_initialization.obj
 0001:0007a600       ??$tcscpy_s@PA_WABIAAPA_W@?$__crt_char_traits@_W@@SAH$$QAPA_WABIAAPA_W@Z 1007b600 f i libucrtd:environment_initialization.obj
 0001:0007a630       ??$tcslen@AAPAD@?$__crt_char_traits@D@@SAIAAPAD@Z 1007b630 f i libucrtd:environment_initialization.obj
 0001:0007a650       ??$tcslen@AAPA_W@?$__crt_char_traits@_W@@SAIAAPA_W@Z 1007b650 f i libucrtd:environment_initialization.obj
 0001:0007a670       ??$uninitialize@A6AXAAPAPAD@_E@?$dual_state_global@PAPAD@__crt_state_management@@QAEXA6AXAAPAPAD@_E@Z 1007b670 f i libucrtd:environment_initialization.obj
 0001:0007a6f0       ??$uninitialize@A6AXAAPAPA_W@_E@?$dual_state_global@PAPA_W@__crt_state_management@@QAEXA6AXAAPAPA_W@_E@Z 1007b6f0 f i libucrtd:environment_initialization.obj
 0001:0007a7d0       ??0?$__crt_unique_heap_ptr@_WU__crt_internal_free_policy@@@@QAE@QA_W@Z 1007b7d0 f i libucrtd:environment_initialization.obj
 0001:0007a7f0       ??1?$__crt_unique_heap_ptr@_WU__crt_internal_free_policy@@@@QAE@XZ 1007b7f0 f i libucrtd:environment_initialization.obj
 0001:0007a810       ??B?$__crt_unique_heap_ptr@PADU__crt_internal_free_policy@@@@QBE_NXZ 1007b810 f i libucrtd:environment_initialization.obj
 0001:0007a830       ??B?$__crt_unique_heap_ptr@PA_WU__crt_internal_free_policy@@@@QBE_NXZ 1007b830 f i libucrtd:environment_initialization.obj
 0001:0007a850       ??B?$__crt_unique_heap_ptr@_WU__crt_internal_free_policy@@@@QBE_NXZ 1007b850 f i libucrtd:environment_initialization.obj
 0001:0007a870       ?__crt_compute_required_transform_buffer_count@@YAIIQBD@Z 1007b870 f i libucrtd:environment_initialization.obj
 0001:0007a890       ?__crt_compute_required_transform_buffer_count@@YAIIQB_W@Z 1007b890 f i libucrtd:environment_initialization.obj
 0001:0007a8c0       ?__crt_transform_string@@YAIIQBDQA_WI@Z 1007b8c0 f i libucrtd:environment_initialization.obj
 0001:0007a8f0       ?__crt_transform_string@@YAIIQB_WQADI@Z 1007b8f0 f i libucrtd:environment_initialization.obj
 0001:0007a920       ?detach@?$__crt_unique_heap_ptr@DU__crt_internal_free_policy@@@@QAEPADXZ 1007b920 f i libucrtd:environment_initialization.obj
 0001:0007a950       ?detach@?$__crt_unique_heap_ptr@_WU__crt_internal_free_policy@@@@QAEPA_WXZ 1007b950 f i libucrtd:environment_initialization.obj
 0001:0007a980       ?get@?$__crt_unique_heap_ptr@_WU__crt_internal_free_policy@@@@QBEPA_WXZ 1007b980 f i libucrtd:environment_initialization.obj
 0001:0007aa20       ?initialize@?$dual_state_global@PAPAD@__crt_state_management@@QAEXQAPAD@Z 1007ba20 f i libucrtd:environment_initialization.obj
 0001:0007aa60       ?initialize@?$dual_state_global@PAPA_W@__crt_state_management@@QAEXQAPA_W@Z 1007ba60 f i libucrtd:environment_initialization.obj
 0001:0007aaa0       ?is_valid@?$__crt_unique_heap_ptr@PADU__crt_internal_free_policy@@@@QBE_NXZ 1007baa0 f i libucrtd:environment_initialization.obj
 0001:0007aad0       ?is_valid@?$__crt_unique_heap_ptr@PA_WU__crt_internal_free_policy@@@@QBE_NXZ 1007bad0 f i libucrtd:environment_initialization.obj
 0001:0007ab00       ?is_valid@?$__crt_unique_heap_ptr@_WU__crt_internal_free_policy@@@@QBE_NXZ 1007bb00 f i libucrtd:environment_initialization.obj
 0001:0007ab50       ?release@?$__crt_unique_heap_ptr@_WU__crt_internal_free_policy@@@@QAEXXZ 1007bb50 f i libucrtd:environment_initialization.obj
 0001:0007ab80       ?value@?$dual_state_global@PAPAD@__crt_state_management@@QAEAAPAPADXZ 1007bb80 f i libucrtd:environment_initialization.obj
 0001:0007aba0       ?value@?$dual_state_global@PAPA_W@__crt_state_management@@QAEAAPAPA_WXZ 1007bba0 f i libucrtd:environment_initialization.obj
 0001:0007abc0       ___dcrt_get_or_create_narrow_environment_nolock 1007bbc0 f   libucrtd:environment_initialization.obj
 0001:0007abd0       ___dcrt_get_or_create_wide_environment_nolock 1007bbd0 f   libucrtd:environment_initialization.obj
 0001:0007abe0       ___dcrt_uninitialize_environments_nolock 1007bbe0 f   libucrtd:environment_initialization.obj
 0001:0007ac30       ___p__environ              1007bc30 f   libucrtd:environment_initialization.obj
 0001:0007ac50       ___p__wenviron             1007bc50 f   libucrtd:environment_initialization.obj
 0001:0007ac70       __get_initial_narrow_environment 1007bc70 f   libucrtd:environment_initialization.obj
 0001:0007ac80       __get_initial_wide_environment 1007bc80 f   libucrtd:environment_initialization.obj
 0001:0007ac90       __initialize_narrow_environment 1007bc90 f   libucrtd:environment_initialization.obj
 0001:0007aca0       __initialize_wide_environment 1007bca0 f   libucrtd:environment_initialization.obj
 0001:0007acb0       ??$?B$$A6AXXZ@__crt_fast_encoded_nullptr_t@@QBEP6AXXZXZ 1007bcb0 f i libucrtd:onexit.obj
 0001:0007acd0       ??$?BP6AXXZ@__crt_fast_encoded_nullptr_t@@QBEPAP6AXXZXZ 1007bcd0 f i libucrtd:onexit.obj
 0001:0007acf0       ??$?RP6AXXZ@__crt_internal_free_policy@@QBEXQBQ6AXXZ@Z 1007bcf0 f i libucrtd:onexit.obj
 0001:0007af10       ??$__crt_fast_decode_pointer@P6AXXZ@@YAP6AXXZQ6AXXZ@Z 1007bf10 f i libucrtd:onexit.obj
 0001:0007af40       ??$__crt_fast_decode_pointer@PAP6AXXZ@@YAPAP6AXXZQAP6AXXZ@Z 1007bf40 f i libucrtd:onexit.obj
 0001:0007af70       ??$__crt_fast_encode_pointer@P6AHXZ@@YAP6AHXZQ6AHXZ@Z 1007bf70 f i libucrtd:onexit.obj
 0001:0007afa0       ??$__crt_fast_encode_pointer@P6AXXZ@@YAP6AXXZQ6AXXZ@Z 1007bfa0 f i libucrtd:onexit.obj
 0001:0007afd0       ??$__crt_fast_encode_pointer@PAP6AXXZ@@YAPAP6AXXZQAP6AXXZ@Z 1007bfd0 f i libucrtd:onexit.obj
 0001:0007b0d0       ??0?$__crt_unique_heap_ptr@P6AXXZU__crt_internal_free_policy@@@@QAE@QAP6AXXZ@Z 1007c0d0 f i libucrtd:onexit.obj
 0001:0007b0f0       ??1?$__crt_unique_heap_ptr@P6AXXZU__crt_internal_free_policy@@@@QAE@XZ 1007c0f0 f i libucrtd:onexit.obj
 0001:0007b110       ??1scoped_global_state_reset@__crt_state_management@@QAE@XZ 1007c110 f i libucrtd:onexit.obj
 0001:0007b590       ?detach@?$__crt_unique_heap_ptr@P6AXXZU__crt_internal_free_policy@@@@QAEPAP6AXXZXZ 1007c590 f i libucrtd:onexit.obj
 0001:0007b5c0       ?release@?$__crt_unique_heap_ptr@P6AXXZU__crt_internal_free_policy@@@@QAEXXZ 1007c5c0 f i libucrtd:onexit.obj
 0001:0007b5f0       __crt_at_quick_exit        1007c5f0 f   libucrtd:onexit.obj
 0001:0007b610       __crt_atexit               1007c610 f   libucrtd:onexit.obj
 0001:0007b630       __execute_onexit_table     1007c630 f   libucrtd:onexit.obj
 0001:0007b670       __initialize_onexit_table  1007c670 f   libucrtd:onexit.obj
 0001:0007b6d0       __register_onexit_function 1007c6d0 f   libucrtd:onexit.obj
 0001:0007b920       ??$?BX@__crt_fast_encoded_nullptr_t@@QBEPAXXZ 1007c920 f i libucrtd:initialization.obj
 0001:0007b940       ??$__crt_fast_encode_pointer@PAX@@YAPAXQAX@Z 1007c940 f i libucrtd:initialization.obj
 0001:0007ba30       ?initialize@?$dual_state_global@PAU__crt_locale_data@@@__crt_state_management@@QAEXQAU__crt_locale_data@@@Z 1007ca30 f i libucrtd:initialization.obj
 0001:0007ba70       ___acrt_initialize         1007ca70 f   libucrtd:initialization.obj
 0001:0007ba90       ___acrt_thread_attach      1007ca90 f   libucrtd:initialization.obj
 0001:0007bab0       ___acrt_thread_detach      1007cab0 f   libucrtd:initialization.obj
 0001:0007bac0       ___acrt_uninitialize       1007cac0 f   libucrtd:initialization.obj
 0001:0007bae0       ___acrt_uninitialize_critical 1007cae0 f   libucrtd:initialization.obj
 0001:0007bb00       ??0_LocaleUpdate@@QAE@QAU__crt_locale_pointers@@@Z 1007cb00 f i libucrtd:debug_heap.obj
 0001:0007bbd0       ??1_LocaleUpdate@@QAE@XZ   1007cbd0 f i libucrtd:debug_heap.obj
 0001:0007bc00       ?GetLocaleT@_LocaleUpdate@@QAEPAU__crt_locale_pointers@@XZ 1007cc00 f i libucrtd:debug_heap.obj
 0001:0007d650       __CrtCheckMemory           1007e650 f   libucrtd:debug_heap.obj
 0001:0007d7e0       __CrtDoForAllClientObjects 1007e7e0 f   libucrtd:debug_heap.obj
 0001:0007d940       __CrtDumpMemoryLeaks       1007e940 f   libucrtd:debug_heap.obj
 0001:0007d9e0       __CrtGetAllocHook          1007e9e0 f   libucrtd:debug_heap.obj
 0001:0007d9f0       __CrtGetDumpClient         1007e9f0 f   libucrtd:debug_heap.obj
 0001:0007da00       __CrtIsMemoryBlock         1007ea00 f   libucrtd:debug_heap.obj
 0001:0007db50       __CrtIsValidHeapPointer    1007eb50 f   libucrtd:debug_heap.obj
 0001:0007db90       __CrtIsValidPointer        1007eb90 f   libucrtd:debug_heap.obj
 0001:0007dbc0       __CrtMemCheckpoint         1007ebc0 f   libucrtd:debug_heap.obj
 0001:0007ddf0       __CrtMemDifference         1007edf0 f   libucrtd:debug_heap.obj
 0001:0007e060       __CrtMemDumpAllObjectsSince 1007f060 f   libucrtd:debug_heap.obj
 0001:0007e100       __CrtMemDumpStatistics     1007f100 f   libucrtd:debug_heap.obj
 0001:0007e230       __CrtReportBlockType       1007f230 f   libucrtd:debug_heap.obj
 0001:0007e260       __CrtSetAllocHook          1007f260 f   libucrtd:debug_heap.obj
 0001:0007e280       __CrtSetBreakAlloc         1007f280 f   libucrtd:debug_heap.obj
 0001:0007e2a0       __CrtSetDbgBlockType       1007f2a0 f   libucrtd:debug_heap.obj
 0001:0007e380       __CrtSetDbgFlag            1007f380 f   libucrtd:debug_heap.obj
 0001:0007e4f0       __CrtSetDumpClient         1007f4f0 f   libucrtd:debug_heap.obj
 0001:0007e510       ___acrt_get_locale_data_prefix 1007f510 f i libucrtd:debug_heap.obj
 0001:0007e530       ___p__crtBreakAlloc        1007f530 f   libucrtd:debug_heap.obj
 0001:0007e540       ___p__crtDbgFlag           1007f540 f   libucrtd:debug_heap.obj
 0001:0007e550       __aligned_free_dbg         1007f550 f   libucrtd:debug_heap.obj
 0001:0007e600       __aligned_malloc_dbg       1007f600 f   libucrtd:debug_heap.obj
 0001:0007e630       __aligned_msize_dbg        1007f630 f   libucrtd:debug_heap.obj
 0001:0007e760       __aligned_offset_malloc_dbg 1007f760 f   libucrtd:debug_heap.obj
 0001:0007e940       __aligned_offset_realloc_dbg 1007f940 f   libucrtd:debug_heap.obj
 0001:0007ec50       __aligned_offset_recalloc_dbg 1007fc50 f   libucrtd:debug_heap.obj
 0001:0007ed10       __aligned_realloc_dbg      1007fd10 f   libucrtd:debug_heap.obj
 0001:0007ed40       __aligned_recalloc_dbg     1007fd40 f   libucrtd:debug_heap.obj
 0001:0007ed70       __calloc_dbg               1007fd70 f   libucrtd:debug_heap.obj
 0001:0007ede0       __chvalidchk_l             1007fde0 f i libucrtd:debug_heap.obj
 0001:0007ee00       __expand_dbg               1007fe00 f   libucrtd:debug_heap.obj
 0001:0007ef30       __free_dbg                 1007ff30 f   libucrtd:debug_heap.obj
 0001:0007efe0       __ischartype_l             1007ffe0 f i libucrtd:debug_heap.obj
 0001:0007f060       __malloc_dbg               10080060 f   libucrtd:debug_heap.obj
 0001:0007f080       __msize_dbg                10080080 f   libucrtd:debug_heap.obj
 0001:0007f210       __realloc_dbg              10080210 f   libucrtd:debug_heap.obj
 0001:0007f2b0       __recalloc_dbg             100802b0 f   libucrtd:debug_heap.obj
 0001:0007f360       __initterm                 10080360 f   libucrtd:initterm.obj
 0001:0007f3b0       __initterm_e               100803b0 f   libucrtd:initterm.obj
 0001:0007f720       _strcpy_s                  10080720 f   libucrtd:strcpy_s.obj
 0001:0007fb50       _strcat_s                  10080b50 f   libucrtd:strcat_s.obj
 0001:0007fb70       ??$?B$$A6AHI@Z@__crt_fast_encoded_nullptr_t@@QBEP6AHI@ZXZ 10080b70 f i libucrtd:new_handler.obj
 0001:0007fb90       ??$__crt_fast_decode_pointer@P6AHI@Z@@YAP6AHI@ZQ6AHI@Z@Z 10080b90 f i libucrtd:new_handler.obj
 0001:0007fbc0       ??$__crt_fast_encode_pointer@P6AHI@Z@@YAP6AHI@ZQ6AHI@Z@Z 10080bc0 f i libucrtd:new_handler.obj
 0001:0007fbf0       ?_set_new_handler@@YAP6AHI@ZH@Z 10080bf0 f   libucrtd:new_handler.obj
 0001:0007fc50       ?initialize@?$dual_state_global@P6AHI@Z@__crt_state_management@@QAEXQ6AHI@Z@Z 10080c50 f i libucrtd:new_handler.obj
 0001:0007fc90       ?value@?$dual_state_global@P6AHI@Z@__crt_state_management@@QAEAAP6AHI@ZXZ 10080c90 f i libucrtd:new_handler.obj
 0001:0007fcb0       ___acrt_initialize_new_handler 10080cb0 f   libucrtd:new_handler.obj
 0001:0007fcd0       __callnewh                 10080cd0 f   libucrtd:new_handler.obj
 0001:0007fd20       __query_new_handler        10080d20 f   libucrtd:new_handler.obj
 0001:0007fdb0       __set_new_handler          10080db0 f   libucrtd:new_handler.obj
 0001:0007fe90       __get_terminate            10080e90 f   libucrtd:terminate.obj
 0001:0007feb0       _set_terminate             10080eb0 f   libucrtd:terminate.obj
 0001:0007fee0       _terminate                 10080ee0 f   libucrtd:terminate.obj
 0001:000808e0       __makepath                 100818e0 f   libucrtd:makepath.obj
 0001:00080910       __makepath_s               10081910 f   libucrtd:makepath.obj
 0001:00080940       __wmakepath                10081940 f   libucrtd:makepath.obj
 0001:00080970       __wmakepath_s              10081970 f   libucrtd:makepath.obj
 0001:00082440       ??$tcsncpy_s@AAPADIAAPBDABI@?$__crt_char_traits@D@@SAHAAPAD$$QAIAAPBDABI@Z 10083440 f i libucrtd:splitpath.obj
 0001:00082470       ??$tcsncpy_s@AAPADIAAPBDH@?$__crt_char_traits@D@@SAHAAPAD$$QAIAAPBD$$QAH@Z 10083470 f i libucrtd:splitpath.obj
 0001:000824a0       ??$tcsncpy_s@AAPA_WIAAPB_WABI@?$__crt_char_traits@_W@@SAHAAPA_W$$QAIAAPB_WABI@Z 100834a0 f i libucrtd:splitpath.obj
 0001:000824d0       ??$tcsncpy_s@AAPA_WIAAPB_WH@?$__crt_char_traits@_W@@SAHAAPA_W$$QAIAAPB_W$$QAH@Z 100834d0 f i libucrtd:splitpath.obj
 0001:00082710       __splitpath                10083710 f   libucrtd:splitpath.obj
 0001:00082740       __splitpath_s              10083740 f   libucrtd:splitpath.obj
 0001:00082790       __wsplitpath               10083790 f   libucrtd:splitpath.obj
 0001:000827c0       __wsplitpath_s             100837c0 f   libucrtd:splitpath.obj
 0001:00082810       __set_abort_behavior       10083810 f   libucrtd:abort.obj
 0001:00082840       _abort                     10083840 f   libucrtd:abort.obj
 0001:000828b0       _strcmp                    100838b0 f   libucrtd:strcmp.obj
 0001:00082940       _strlen                    10083940 f   libucrtd:strlen.obj
 0001:000829d0       ??$is_overflow_condition@_K@__crt_strtox@@YA_NI_K@Z 100839d0 f i libucrtd:atox.obj
 0001:00082a60       ??$make_c_string_character_source@D$$T@__crt_strtox@@YA?AV?$c_string_character_source@D@0@QBD$$T@Z 10083a60 f i libucrtd:atox.obj
 0001:00082a80       ??$make_c_string_character_source@_W$$T@__crt_strtox@@YA?AV?$c_string_character_source@_W@0@QB_W$$T@Z 10083a80 f i libucrtd:atox.obj
 0001:00082aa0       ??$parse_integer@KV?$c_string_character_source@D@__crt_strtox@@$00@__crt_strtox@@YAKAAV__crt_cached_ptd_host@@V?$c_string_character_source@D@0@H_N@Z 10083aa0 f i libucrtd:atox.obj
 0001:00082e00       ??$parse_integer@KV?$c_string_character_source@_W@__crt_strtox@@$00@__crt_strtox@@YAKAAV__crt_cached_ptd_host@@V?$c_string_character_source@_W@0@H_N@Z 10083e00 f i libucrtd:atox.obj
 0001:00083170       ??$parse_integer@_KV?$c_string_character_source@D@__crt_strtox@@$00@__crt_strtox@@YA_KAAV__crt_cached_ptd_host@@V?$c_string_character_source@D@0@H_N@Z 10084170 f i libucrtd:atox.obj
 0001:00083560       ??$parse_integer@_KV?$c_string_character_source@_W@__crt_strtox@@$00@__crt_strtox@@YA_KAAV__crt_cached_ptd_host@@V?$c_string_character_source@_W@0@H_N@Z 10084560 f i libucrtd:atox.obj
 0001:00083950       ??$parse_integer_from_string@JD$$T@__crt_strtox@@YAJQBD$$THQAU__crt_locale_pointers@@@Z 10084950 f i libucrtd:atox.obj
 0001:000839b0       ??$parse_integer_from_string@J_W$$T@__crt_strtox@@YAJQB_W$$THQAU__crt_locale_pointers@@@Z 100849b0 f i libucrtd:atox.obj
 0001:00083a10       ??$parse_integer_from_string@_JD$$T@__crt_strtox@@YA_JQBD$$THQAU__crt_locale_pointers@@@Z 10084a10 f i libucrtd:atox.obj
 0001:00083a70       ??$parse_integer_from_string@_J_W$$T@__crt_strtox@@YA_JQB_W$$THQAU__crt_locale_pointers@@@Z 10084a70 f i libucrtd:atox.obj
 0001:00083ad0       ?is_space@__crt_strtox@@YA_NDQAU__crt_locale_pointers@@@Z 10084ad0 f i libucrtd:atox.obj
 0001:00083b10       ?is_space@__crt_strtox@@YA_N_WPAU__crt_locale_pointers@@@Z 10084b10 f i libucrtd:atox.obj
 0001:00083b40       ?maximum_signed_value@__crt_strtox@@YA_J_K@Z 10084b40 f i libucrtd:atox.obj
 0001:00083b50       ?minimum_signed_value@__crt_strtox@@YA_J_K@Z 10084b50 f i libucrtd:atox.obj
 0001:00083b60       __atoi64                   10084b60 f   libucrtd:atox.obj
 0001:00083b80       __atoi64_l                 10084b80 f   libucrtd:atox.obj
 0001:00083ba0       __atoi_l                   10084ba0 f   libucrtd:atox.obj
 0001:00083bc0       __atol_l                   10084bc0 f   libucrtd:atox.obj
 0001:00083be0       __atoll_l                  10084be0 f   libucrtd:atox.obj
 0001:00083c00       __wtoi                     10084c00 f   libucrtd:atox.obj
 0001:00083c20       __wtoi64                   10084c20 f   libucrtd:atox.obj
 0001:00083c40       __wtoi64_l                 10084c40 f   libucrtd:atox.obj
 0001:00083c60       __wtoi_l                   10084c60 f   libucrtd:atox.obj
 0001:00083c80       __wtol                     10084c80 f   libucrtd:atox.obj
 0001:00083ca0       __wtol_l                   10084ca0 f   libucrtd:atox.obj
 0001:00083cc0       __wtoll                    10084cc0 f   libucrtd:atox.obj
 0001:00083ce0       __wtoll_l                  10084ce0 f   libucrtd:atox.obj
 0001:00083d00       _atoi                      10084d00 f   libucrtd:atox.obj
 0001:00083d20       _atol                      10084d20 f   libucrtd:atox.obj
 0001:00083d40       _atoll                     10084d40 f   libucrtd:atox.obj
 0001:00083d60       _strncmp                   10084d60 f   libucrtd:strncmp.obj
 0001:00083de0       _wcsncmp                   10084de0 f   libucrtd:wcsncmp.obj
 0001:00083e40       __CrtGetDebugFillThreshold 10084e40 f   libucrtd:debug_fill_threshold.obj
 0001:00083e50       __CrtSetDebugFillThreshold 10084e50 f   libucrtd:debug_fill_threshold.obj
 0001:00083e70       ?value@?$dual_state_global@PAU__crt_locale_data@@@__crt_state_management@@QAEAAPAU__crt_locale_data@@XZ 10084e70 f i libucrtd:locale_update.obj
 0001:00083e90       ?value@?$dual_state_global@PAU__crt_multibyte_data@@@__crt_state_management@@QAEAAPAU__crt_multibyte_data@@XZ 10084e90 f i libucrtd:locale_update.obj
 0001:00083eb0       ?value_explicit@?$dual_state_global@PAU__crt_locale_data@@@__crt_state_management@@QAEAAPAU__crt_locale_data@@I@Z 10084eb0 f i libucrtd:locale_update.obj
 0001:00083ed0       ?value_explicit@?$dual_state_global@PAU__crt_multibyte_data@@@__crt_state_management@@QAEAAPAU__crt_multibyte_data@@I@Z 10084ed0 f i libucrtd:locale_update.obj
 0001:00083ef0       ___acrt_should_sync_with_global_locale 10084ef0 f i libucrtd:locale_update.obj
 0001:00083f20       ___acrt_update_locale_info 10084f20 f   libucrtd:locale_update.obj
 0001:00083f60       ___acrt_update_locale_info_explicit 10084f60 f   libucrtd:locale_update.obj
 0001:00083fa0       ___acrt_update_multibyte_info 10084fa0 f   libucrtd:locale_update.obj
 0001:00083fe0       ___acrt_update_multibyte_info_explicit 10084fe0 f   libucrtd:locale_update.obj
 0001:00084020       ?__acrt_fp_classify@@YA?AW4__acrt_fp_class@@ABN@Z 10085020 f i libucrtd:cvt.obj
 0001:00084140       ?__acrt_fp_is_negative@@YA_NABN@Z 10085140 f i libucrtd:cvt.obj
 0001:00085350       ?strrchr@@YAPADQADH@Z      10086350 f i libucrtd:cvt.obj
 0001:00085370       ___acrt_fp_format          10086370 f   libucrtd:cvt.obj
 0001:000857f0       ?value_or@?$cached@H@__crt_cached_ptd_host@@QBEHH@Z 100867f0 f i libucrtd:wctomb.obj
 0001:00085820       __wctomb_internal          10086820 f   libucrtd:wctomb.obj
 0001:00085ba0       __wctomb_l                 10086ba0 f   libucrtd:wctomb.obj
 0001:00085c20       __wctomb_s_l               10086c20 f   libucrtd:wctomb.obj
 0001:00085c70       _wctomb                    10086c70 f   libucrtd:wctomb.obj
 0001:00085ce0       _wctomb_s                  10086ce0 f   libucrtd:wctomb.obj
 0001:00085d30       __isleadbyte_fast_internal 10086d30 f i libucrtd:mbtowc.obj
 0001:00085d50       __mbtowc_internal          10086d50 f   libucrtd:mbtowc.obj
 0001:00085fe0       __mbtowc_l                 10086fe0 f   libucrtd:mbtowc.obj
 0001:00086020       _mbtowc                    10087020 f   libucrtd:mbtowc.obj
 0001:00086060       ?lowio_handle@__crt_stdio_stream@@QBEHXZ 10087060 f i libucrtd:fileno.obj
 0001:00086080       __fileno                   10087080 f   libucrtd:fileno.obj
 0001:00086120       ??$?RPAU__crt_stdio_stream_data@@@__crt_internal_free_policy@@QBEXQBQAU__crt_stdio_stream_data@@@Z 10087120 f i libucrtd:_file.obj
 0001:00086140       ??0?$__crt_unique_heap_ptr@PAU__crt_stdio_stream_data@@U__crt_internal_free_policy@@@@QAE@QAPAU__crt_stdio_stream_data@@@Z 10087140 f i libucrtd:_file.obj
 0001:00086160       ??1?$__crt_unique_heap_ptr@PAU__crt_stdio_stream_data@@U__crt_internal_free_policy@@@@QAE@XZ 10087160 f i libucrtd:_file.obj
 0001:00086180       ?detach@?$__crt_unique_heap_ptr@PAU__crt_stdio_stream_data@@U__crt_internal_free_policy@@@@QAEPAPAU__crt_stdio_stream_data@@XZ 10087180 f i libucrtd:_file.obj
 0001:000861b0       ?release@?$__crt_unique_heap_ptr@PAU__crt_stdio_stream_data@@U__crt_internal_free_policy@@@@QAEXXZ 100871b0 f i libucrtd:_file.obj
 0001:000861e0       ___acrt_initialize_stdio   100871e0 f   libucrtd:_file.obj
 0001:00086350       ___acrt_iob_func           10087350 f   libucrtd:_file.obj
 0001:00086360       ___acrt_uninitialize_stdio 10087360 f   libucrtd:_file.obj
 0001:000863e0       __get_stream_buffer_pointers 100873e0 f   libucrtd:_file.obj
 0001:000864c0       __lock_file                100874c0 f   libucrtd:_file.obj
 0001:000864f0       __unlock_file              100874f0 f   libucrtd:_file.obj
 0001:00086520       __get_printf_count_output  10087520 f   libucrtd:printf_count_output.obj
 0001:00086550       __set_printf_count_output  10087550 f   libucrtd:printf_count_output.obj
 0001:00086750       __fputwc_nolock            10087750 f   libucrtd:fputwc.obj
 0001:00086790       __fputwc_nolock_internal   10087790 f   libucrtd:fputwc.obj
 0001:000869a0       __fputwchar                100879a0 f   libucrtd:fputwc.obj
 0001:000869c0       __putwc_nolock             100879c0 f   libucrtd:fputwc.obj
 0001:000869e0       _fputwc                    100879e0 f   libucrtd:fputwc.obj
 0001:00086a20       _putwc                     10087a20 f   libucrtd:fputwc.obj
 0001:00086a40       _putwchar                  10087a40 f   libucrtd:fputwc.obj
 0001:00086a60       ?has_any_buffer@__crt_stdio_stream@@QBE_NXZ 10087a60 f i libucrtd:_sftbuf.obj
 0001:00086a80       ?has_any_of@__crt_stdio_stream@@QBE_NJ@Z 10087a80 f i libucrtd:_sftbuf.obj
 0001:00086ac0       ?has_temporary_buffer@__crt_stdio_stream@@QBE_NXZ 10087ac0 f i libucrtd:_sftbuf.obj
 0001:00086ae0       ?set_flags@__crt_stdio_stream@@QBE_NJ@Z 10087ae0 f i libucrtd:_sftbuf.obj
 0001:00086b30       ?unset_flags@__crt_stdio_stream@@QBE_NJ@Z 10087b30 f i libucrtd:_sftbuf.obj
 0001:00086b80       ___acrt_should_use_temporary_buffer 10087b80 f   libucrtd:_sftbuf.obj
 0001:00086bd0       ___acrt_stdio_begin_temporary_buffering_nolock 10087bd0 f   libucrtd:_sftbuf.obj
 0001:00086da0       ___acrt_stdio_end_temporary_buffering_nolock 10087da0 f   libucrtd:_sftbuf.obj
 0001:00086e20       ??$?RU__acrt_ptd@@@__crt_internal_free_policy@@QBEXQBU__acrt_ptd@@@Z 10087e20 f i libucrtd:per_thread_data.obj
 0001:00087390       ??0?$__crt_unique_heap_ptr@U__acrt_ptd@@U__crt_internal_free_policy@@@@QAE@QAU__acrt_ptd@@@Z 10088390 f i libucrtd:per_thread_data.obj
 0001:000873b0       ??1?$__crt_unique_heap_ptr@U__acrt_ptd@@U__crt_internal_free_policy@@@@QAE@XZ 100883b0 f i libucrtd:per_thread_data.obj
 0001:000873d0       ??B?$__crt_unique_heap_ptr@U__acrt_ptd@@U__crt_internal_free_policy@@@@QBE_NXZ 100883d0 f i libucrtd:per_thread_data.obj
 0001:000876e0       ?dangerous_get_state_array@?$dual_state_global@PAU__crt_locale_data@@@__crt_state_management@@QAEPAPAU__crt_locale_data@@XZ 100886e0 f i libucrtd:per_thread_data.obj
 0001:00087880       ?detach@?$__crt_unique_heap_ptr@U__acrt_ptd@@U__crt_internal_free_policy@@@@QAEPAU__acrt_ptd@@XZ 10088880 f i libucrtd:per_thread_data.obj
 0001:000878b0       ?get@?$__crt_unique_heap_ptr@U__acrt_ptd@@U__crt_internal_free_policy@@@@QBEPAU__acrt_ptd@@XZ 100888b0 f i libucrtd:per_thread_data.obj
 0001:00087a50       ?is_valid@?$__crt_unique_heap_ptr@U__acrt_ptd@@U__crt_internal_free_policy@@@@QBE_NXZ 10088a50 f i libucrtd:per_thread_data.obj
 0001:00087a80       ?release@?$__crt_unique_heap_ptr@U__acrt_ptd@@U__crt_internal_free_policy@@@@QAEXXZ 10088a80 f i libucrtd:per_thread_data.obj
 0001:00087b70       ___acrt_freeptd            10088b70 f   libucrtd:per_thread_data.obj
 0001:00087ba0       ___acrt_getptd             10088ba0 f   libucrtd:per_thread_data.obj
 0001:00087bc0       ___acrt_getptd_head        10088bc0 f   libucrtd:per_thread_data.obj
 0001:00087be0       ___acrt_getptd_noexit      10088be0 f   libucrtd:per_thread_data.obj
 0001:00087bf0       ___acrt_getptd_noexit_explicit 10088bf0 f   libucrtd:per_thread_data.obj
 0001:00087c10       ___acrt_initialize_ptd     10088c10 f   libucrtd:per_thread_data.obj
 0001:00087c50       ___acrt_uninitialize_ptd   10088c50 f   libucrtd:per_thread_data.obj
 0001:00087c80       ___threadhandle            10088c80 f   libucrtd:per_thread_data.obj
 0001:00087c90       ___threadid                10088c90 f   libucrtd:per_thread_data.obj
 0001:00087cb0       ??$?RU__crt_locale_data@@@__crt_internal_free_policy@@QBEXQBU__crt_locale_data@@@Z 10088cb0 f i libucrtd:wsetlocale.obj
 0001:00087cd0       ??$?RU__crt_locale_pointers@@@__crt_internal_free_policy@@QBEXQBU__crt_locale_pointers@@@Z 10088cd0 f i libucrtd:wsetlocale.obj
 0001:00087cf0       ??$?RU__crt_multibyte_data@@@__crt_internal_free_policy@@QBEXQBU__crt_multibyte_data@@@Z 10088cf0 f i libucrtd:wsetlocale.obj
 0001:000883d0       ??0?$__crt_unique_heap_ptr@U__crt_locale_data@@U__crt_internal_free_policy@@@@QAE@QAU__crt_locale_data@@@Z 100893d0 f i libucrtd:wsetlocale.obj
 0001:000883f0       ??0?$__crt_unique_heap_ptr@U__crt_locale_pointers@@U__crt_internal_free_policy@@@@QAE@QAU__crt_locale_pointers@@@Z 100893f0 f i libucrtd:wsetlocale.obj
 0001:00088410       ??0?$__crt_unique_heap_ptr@U__crt_multibyte_data@@U__crt_internal_free_policy@@@@QAE@QAU__crt_multibyte_data@@@Z 10089410 f i libucrtd:wsetlocale.obj
 0001:00088430       ??0_expandlocale_locale_name_cache@@QAE@QA_WIQAU__crt_qualified_locale_data@@@Z 10089430 f i libucrtd:wsetlocale.obj
 0001:000884a0       ??1?$__crt_unique_heap_ptr@U__crt_locale_data@@U__crt_internal_free_policy@@@@QAE@XZ 100894a0 f i libucrtd:wsetlocale.obj
 0001:000884c0       ??1?$__crt_unique_heap_ptr@U__crt_locale_pointers@@U__crt_internal_free_policy@@@@QAE@XZ 100894c0 f i libucrtd:wsetlocale.obj
 0001:000884e0       ??1?$__crt_unique_heap_ptr@U__crt_multibyte_data@@U__crt_internal_free_policy@@@@QAE@XZ 100894e0 f i libucrtd:wsetlocale.obj
 0001:00088500       ??1_expandlocale_locale_name_cache@@QAE@XZ 10089500 f i libucrtd:wsetlocale.obj
 0001:00088560       ??B?$__crt_unique_heap_ptr@U__crt_locale_data@@U__crt_internal_free_policy@@@@QBE_NXZ 10089560 f i libucrtd:wsetlocale.obj
 0001:00088580       ??B?$__crt_unique_heap_ptr@U__crt_locale_pointers@@U__crt_internal_free_policy@@@@QBE_NXZ 10089580 f i libucrtd:wsetlocale.obj
 0001:000885a0       ??B?$__crt_unique_heap_ptr@U__crt_multibyte_data@@U__crt_internal_free_policy@@@@QBE_NXZ 100895a0 f i libucrtd:wsetlocale.obj
 0001:00088990       ?commit_locale_name@_expandlocale_locale_name_cache@@QAEXQB_WI@Z 10089990 f i libucrtd:wsetlocale.obj
 0001:000889f0       ?commit_locale_name_cache_already_updated@_expandlocale_locale_name_cache@@QAEXQB_WI@Z 100899f0 f i libucrtd:wsetlocale.obj
 0001:00088a50       ?detach@?$__crt_unique_heap_ptr@U__crt_locale_data@@U__crt_internal_free_policy@@@@QAEPAU__crt_locale_data@@XZ 10089a50 f i libucrtd:wsetlocale.obj
 0001:00088a80       ?detach@?$__crt_unique_heap_ptr@U__crt_locale_pointers@@U__crt_internal_free_policy@@@@QAEPAU__crt_locale_pointers@@XZ 10089a80 f i libucrtd:wsetlocale.obj
 0001:00088ab0       ?detach@?$__crt_unique_heap_ptr@U__crt_multibyte_data@@U__crt_internal_free_policy@@@@QAEPAU__crt_multibyte_data@@XZ 10089ab0 f i libucrtd:wsetlocale.obj
 0001:00088ae0       ?get@?$__crt_unique_heap_ptr@U__crt_locale_data@@U__crt_internal_free_policy@@@@QBEPAU__crt_locale_data@@XZ 10089ae0 f i libucrtd:wsetlocale.obj
 0001:00088b00       ?get@?$__crt_unique_heap_ptr@U__crt_locale_pointers@@U__crt_internal_free_policy@@@@QBEPAU__crt_locale_pointers@@XZ 10089b00 f i libucrtd:wsetlocale.obj
 0001:00088b20       ?get@?$__crt_unique_heap_ptr@U__crt_multibyte_data@@U__crt_internal_free_policy@@@@QBEPAU__crt_multibyte_data@@XZ 10089b20 f i libucrtd:wsetlocale.obj
 0001:00088b40       ?is_valid@?$__crt_unique_heap_ptr@U__crt_locale_data@@U__crt_internal_free_policy@@@@QBE_NXZ 10089b40 f i libucrtd:wsetlocale.obj
 0001:00088b70       ?is_valid@?$__crt_unique_heap_ptr@U__crt_locale_pointers@@U__crt_internal_free_policy@@@@QBE_NXZ 10089b70 f i libucrtd:wsetlocale.obj
 0001:00088ba0       ?is_valid@?$__crt_unique_heap_ptr@U__crt_multibyte_data@@U__crt_internal_free_policy@@@@QBE_NXZ 10089ba0 f i libucrtd:wsetlocale.obj
 0001:00088bd0       ?release@?$__crt_unique_heap_ptr@U__crt_locale_data@@U__crt_internal_free_policy@@@@QAEXXZ 10089bd0 f i libucrtd:wsetlocale.obj
 0001:00088c00       ?release@?$__crt_unique_heap_ptr@U__crt_locale_pointers@@U__crt_internal_free_policy@@@@QAEXXZ 10089c00 f i libucrtd:wsetlocale.obj
 0001:00088c30       ?release@?$__crt_unique_heap_ptr@U__crt_multibyte_data@@U__crt_internal_free_policy@@@@QAEXXZ 10089c30 f i libucrtd:wsetlocale.obj
 0001:00088c60       ___acrt_copy_locale_name   10089c60 f   libucrtd:wsetlocale.obj
 0001:00088d00       ___acrt_set_locale_changed 10089d00 f   libucrtd:wsetlocale.obj
 0001:00088d20       ___acrt_uninitialize_locale 10089d20 f   libucrtd:wsetlocale.obj
 0001:00088d40       ___ascii_tolower           10089d40 f i libucrtd:wsetlocale.obj
 0001:00088d60       ___ascii_towlower          10089d60 f i libucrtd:wsetlocale.obj
 0001:00088d80       ___lc_lctowcs              10089d80 f   libucrtd:wsetlocale.obj
 0001:00088e30       ___lc_wcstolc              10089e30 f   libucrtd:wsetlocale.obj
 0001:00089060       __configthreadlocale       1008a060 f   libucrtd:wsetlocale.obj
 0001:000891e0       __create_locale            1008a1e0 f   libucrtd:wsetlocale.obj
 0001:00089820       __free_locale              1008a820 f   libucrtd:wsetlocale.obj
 0001:00089950       __get_current_locale       1008a950 f   libucrtd:wsetlocale.obj
 0001:00089a30       __wcreate_locale           1008aa30 f   libucrtd:wsetlocale.obj
 0001:00089c80       __wcscats                  1008ac80 f   libucrtd:wsetlocale.obj
 0001:00089d00       __wsetlocale               1008ad00 f   libucrtd:wsetlocale.obj
 0001:0008b410       ___p___mb_cur_max          1008c410 f   libucrtd:nlsdata.obj
 0001:0008b710       ___acrt_initialize_lowio   1008c710 f   libucrtd:ioinit.obj
 0001:0008b7b0       ___acrt_uninitialize_lowio 1008c7b0 f   libucrtd:ioinit.obj
 0001:0008b810       __CrtGetReportHook         1008c810 f   libucrtd:dbgrptt.obj
 0001:0008b820       __CrtSetReportFile         1008c820 f   libucrtd:dbgrptt.obj
