 OPOSPOSPower

 Timestamp is 61a75c40 (Wed Dec  1 20:28:00 2021)

 Preferred load address is 10000000

 Start         Length     Name                   Class
 0001:00000000 00000d90H .text$di                CODE
 0001:00000d90 000b6930H .text$mn                CODE
 0001:000b76c0 00000cb0H .text$x                 CODE
 0001:000b8370 00000120H .text$yd                CODE
 0002:00000000 00000358H .idata$5                DATA
 0002:00000358 0000000cH .00cfg                  DATA
 0002:00000364 00000004H .CRT$XCA                DATA
 0002:00000368 00000004H .CRT$XCL                DATA
 0002:0000036c 0000006cH .CRT$XCU                DATA
 0002:000003d8 00000004H .CRT$XCZ                DATA
 0002:000003dc 00000004H .CRT$XIA                DATA
 0002:000003e0 00000014H .CRT$XIC                DATA
 0002:000003f4 00000004H .CRT$XIZ                DATA
 0002:000003f8 00000004H .CRT$XLA                DATA
 0002:000003fc 00000004H .CRT$XLZ                DATA
 0002:00000400 00000004H .CRT$XPA                DATA
 0002:00000404 00000008H .CRT$XPX                DATA
 0002:0000040c 00000004H .CRT$XPXA               DATA
 0002:00000410 00000004H .CRT$XPZ                DATA
 0002:00000414 00000004H .CRT$XTA                DATA
 0002:00000418 00000008H .CRT$XTZ                DATA
 0002:0000041c 00000000H .gfids$y                DATA
 0002:00000420 0002f460H .rdata                  DATA
 0002:0002f880 00000040H .rdata$CastGuardVftablesA DATA
 0002:0002f8c0 00000040H .rdata$CastGuardVftablesC DATA
 0002:0002f900 00000018H .rdata$T                DATA
 0002:0002f918 0000033cH .rdata$r                DATA
 0002:0002fc54 000001a0H .rdata$sxdata           DATA
 0002:0002fdf4 00000160H .rdata$voltmd           DATA
 0002:0002ff54 00000478H .rdata$zzzdbg           DATA
 0002:000303cc 00000004H .rtc$IAA                DATA
 0002:000303d0 00000018H .rtc$IMZ                DATA
 0002:000303e8 00000004H .rtc$IZZ                DATA
 0002:000303ec 00000004H .rtc$TAA                DATA
 0002:000303f0 00000018H .rtc$TMZ                DATA
 0002:00030408 00000004H .rtc$TZZ                DATA
 0002:0003040c 00000004H .tls                    DATA
 0002:00030410 00000004H .tls$                   DATA
 0002:00030414 00000004H .tls$ZZZ                DATA
 0002:00030418 00001a4cH .xdata$x                DATA
 0002:00031e64 00000004H ATL$__a                 DATA
 0002:00031e68 00000008H ATL$__z                 DATA
 0002:00031e70 000000acH .edata                  DATA
 0002:00031f1c 00000078H .idata$2                DATA
 0002:00031f94 00000014H .idata$3                DATA
 0002:00031fa8 00000358H .idata$4                DATA
 0002:00032300 00000d56H .idata$6                DATA
 0003:00000000 00000ba0H .data                   DATA
 0003:00000ba0 00000080H .data$r                 DATA
 0003:00000c20 000000b8H .data$rs                DATA
 0003:00000cd8 00003580H .bss                    DATA
 0004:00000000 00000220H .rsrc$01                DATA
 0004:00000220 000043e0H .rsrc$02                DATA

  Address         Publics by Value              Rva+Base       Lib:Object

 0000:00000000       ___guard_check_icall_a64n_fptr 00000000     <absolute>
 0000:00000000       ___guard_eh_cont_table     00000000     <absolute>
 0000:00000000       ___x64_code_ranges_to_entry_points 00000000     <absolute>
 0000:00000000       ___arm64x_redirection_metadata 00000000     <absolute>
 0000:00000000       ___guard_eh_cont_count     00000000     <absolute>
 0000:00000000       ___guard_iat_table         00000000     <absolute>
 0000:00000000       ___guard_longjmp_table     00000000     <absolute>
 0000:00000000       ___guard_fids_count        00000000     <absolute>
 0000:00000000       ___arm64x_extra_rfe_table_size 00000000     <absolute>
 0000:00000000       ___arm64x_native_entrypoint 00000000     <absolute>
 0000:00000000       ___guard_longjmp_count     00000000     <absolute>
 0000:00000000       ___arm64x_extra_rfe_table  00000000     <absolute>
 0000:00000000       ___guard_fids_table        00000000     <absolute>
 0000:00000000       ___AbsoluteZero            00000000     <absolute>
 0000:00000000       __except_list              00000000     <absolute>
 0000:00000000       ___hybrid_auxiliary_iat_copy 00000000     <absolute>
 0000:00000000       ___enclave_config          00000000     <absolute>
 0000:00000000       ___x64_code_ranges_to_entry_points_count 00000000     <absolute>
 0000:00000000       ___dynamic_value_reloc_table 00000000     <absolute>
 0000:00000000       ___hybrid_code_map_count   00000000     <absolute>
 0000:00000000       ___hybrid_auxiliary_iat    00000000     <absolute>
 0000:00000000       ___arm64x_redirection_metadata_count 00000000     <absolute>
 0000:00000000       ___hybrid_code_map         00000000     <absolute>
 0000:00000000       ___guard_iat_count         00000000     <absolute>
 0000:0000002c       __tls_array                0000002c     <absolute>
 0000:00000068       ___safe_se_handler_count   00000068     <absolute>
 0000:00000100       ___guard_flags             00000100     <absolute>
 0000:00000000       ___ImageBase               10000000     <linker-defined>
 0001:00000d90       ?_assert@@YAXPB_W0I@Z      10001d90 f   Assert.obj
 0001:00000ec0       ___local_stdio_printf_options 10001ec0 f i Assert.obj
 0001:00000ed0       ___vswprintf_l             10001ed0 f i Assert.obj
 0001:00000f00       __swprintf                 10001f00 f i Assert.obj
 0001:00000f60       __vswprintf_c_l            10001f60 f i Assert.obj
 0001:00000fd0       __vswprintf_l              10001fd0 f i Assert.obj
 0001:00001000       ?cw_memcpy@@YGHPADPB_WH@Z  10002000 f   CWString.obj
 0001:00001060       ?cw_memcpy@@YGHPA_WPBDH@Z  10002060 f   CWString.obj
 0001:000010c0       ?cw_memcpy@@YGHPADPBDH@Z   100020c0 f   CWString.obj
 0001:00001110       ?cw_memcpy@@YGHPA_WPB_WH@Z 10002110 f   CWString.obj
 0001:00001150       ?cw_memset@@YAXPADDH@Z     10002150 f   CWString.obj
 0001:00001170       ?cw_memset@@YAXPA_W_WH@Z   10002170 f   CWString.obj
 0001:00001190       ?cw_strlen@@YAHPBD@Z       10002190 f   CWString.obj
 0001:000011d0       ?cw_strlen@@YAHPB_W@Z      100021d0 f   CWString.obj
 0001:00001210       ?cw_strcpy@@YAHPADPB_W@Z   10002210 f   CWString.obj
 0001:00001230       ?cw_strcpy@@YAHPA_WPBD@Z   10002230 f   CWString.obj
 0001:00001250       ?cw_strcpy@@YAHPADPBD@Z    10002250 f   CWString.obj
 0001:00001270       ?cw_strcpy@@YAHPA_WPB_W@Z  10002270 f   CWString.obj
 0001:00001290       ?cw_strcat@@YAHPADPB_W@Z   10002290 f   CWString.obj
 0001:000012c0       ?cw_strcat@@YAHPA_WPBD@Z   100022c0 f   CWString.obj
 0001:000012f0       ?cw_strcat@@YAHPADPBD@Z    100022f0 f   CWString.obj
 0001:00001320       ?cw_strcat@@YAHPA_WPB_W@Z  10002320 f   CWString.obj
 0001:00001350       ?cw_dup@@YGXPBDAAHAAPA_W1@Z 10002350 f   CWString.obj
 0001:00001410       ?cw_dup@@YGXPB_WAAHAAPAD1@Z 10002410 f   CWString.obj
 0001:000014c0       ?DupChar@_CW@@AAEXXZ       100024c0 f   CWString.obj
 0001:00001510       ?DupWide@_CW@@AAEXXZ       10002510 f   CWString.obj
 0001:00001560       ?GetCharsMbcs@_CW@@QAEHXZ  10002560 f   CWString.obj
 0001:000015c0       ?GetCharsWide@_CW@@QAEHXZ  100025c0 f   CWString.obj
 0001:00001620       ?SetVARIANT_BOOL@OposVariant@@QAEXF@Z 10002620 f   OposVariant.obj
 0001:00001680       ?SetVARIANT_BOOL_Ptr@OposVariant@@QAEXPAFAAJ@Z 10002680 f   OposVariant.obj
 0001:000016d0       ?GetLONG@OposVariant@@QAEJXZ 100026d0 f   OposVariant.obj
 0001:00001760       ?ChangeLONG@OposVariant@@QAEXPAJAAJ@Z 10002760 f   OposVariant.obj
 0001:00001820       ?SetLONG@OposVariant@@QAEXJ@Z 10002820 f   OposVariant.obj
 0001:00001860       ?SetLONG_Ptr@OposVariant@@QAEXPAJAAJ@Z 10002860 f   OposVariant.obj
 0001:000018b0       ?ChangeCURRENCY@OposVariant@@QAEXPATtagCY@@AAJ@Z 100028b0 f   OposVariant.obj
 0001:00001970       ?SetCURRENCY@OposVariant@@QAEXTtagCY@@@Z 10002970 f   OposVariant.obj
 0001:000019b0       ?SetCURRENCY_Ptr@OposVariant@@QAEXPATtagCY@@AAJ@Z 100029b0 f   OposVariant.obj
 0001:00001a00       ?ChangeBSTR@OposVariant@@QAEXPAPA_WAAJ@Z 10002a00 f   OposVariant.obj
 0001:00001ac0       ?SetBSTR@OposVariant@@QAEXPA_WAAJ@Z 10002ac0 f   OposVariant.obj
 0001:00001b10       ?SetBSTR_Copy@OposVariant@@QAEXPA_WAAJ@Z 10002b10 f   OposVariant.obj
 0001:00001bb0       ?SetBSTR_OutPtr@OposVariant@@QAE_NPAPA_WAAJ@Z 10002bb0 f   OposVariant.obj
 0001:00001c00       ?SetBSTR_InOutPtr@OposVariant@@QAE_NPAPA_WAAJ@Z 10002c00 f   OposVariant.obj
 0001:00001c50       ?SetVARIANT@OposVariant@@QAEXAAUtagVARIANT@@GAAJ@Z 10002c50 f   OposVariant.obj
 0001:00001cd0       ?SetVARIANT_Ptr@OposVariant@@QAEXAAPAUtagVARIANT@@GAAJ@Z 10002cd0 f   OposVariant.obj
 0001:00001d70       ?SetString@OposVariant@@QAEXPB_WAAJ@Z 10002d70 f   OposVariant.obj
 0001:00001e00       ?SetDispatch_Ptr@OposVariant@@QAEXPAUIDispatch@@AAJ@Z 10002e00 f   OposVariant.obj
 0001:00001e70       ??0OposDispParms@@QAE@PAVOposVariant@@H@Z 10002e70 f   OposVariant.obj
 0001:00001f40       ??1OposDispParms@@QAE@XZ   10002f40 f   OposVariant.obj
 0001:00001f90       ??$AtlMultiply@I@ATL@@YAJPAIII@Z 10002f90 f i OposVariant.obj
 0001:00001ff0       ??0?$CHeapPtr@_WVCCRTAllocator@ATL@@@ATL@@QAE@XZ 10002ff0 f i OposVariant.obj
 0001:00002020       ??0?$CHeapPtrBase@_WVCCRTAllocator@ATL@@@ATL@@IAE@XZ 10003020 f i OposVariant.obj
 0001:00002040       ??0?$CSimpleArray@GV?$CSimpleArrayEqualHelper@G@ATL@@@ATL@@QAE@XZ 10003040 f i OposVariant.obj
 0001:00002070       ??0?$CTraceCategoryEx@$00$0A@@ATL@@QAE@PB_W@Z 10003070 f i OposVariant.obj
 0001:000020a0       ??0?$CTraceCategoryEx@$01$0A@@ATL@@QAE@PB_W@Z 100030a0 f i OposVariant.obj
 0001:000020d0       ??0?$CTraceCategoryEx@$03$0A@@ATL@@QAE@PB_W@Z 100030d0 f i OposVariant.obj
 0001:00002100       ??0?$CTraceCategoryEx@$07$0A@@ATL@@QAE@PB_W@Z 10003100 f i OposVariant.obj
 0001:00002130       ??0?$CTraceCategoryEx@$0BA@$0A@@ATL@@QAE@PB_W@Z 10003130 f i OposVariant.obj
 0001:00002160       ??0?$CTraceCategoryEx@$0BAA@$0A@@ATL@@QAE@PB_W@Z 10003160 f i OposVariant.obj
 0001:000021a0       ??0?$CTraceCategoryEx@$0BAAA@$0A@@ATL@@QAE@PB_W@Z 100031a0 f i OposVariant.obj
 0001:000021e0       ??0?$CTraceCategoryEx@$0BAAAA@$0A@@ATL@@QAE@PB_W@Z 100031e0 f i OposVariant.obj
 0001:00002220       ??0?$CTraceCategoryEx@$0BAAAAA@$0A@@ATL@@QAE@PB_W@Z 10003220 f i OposVariant.obj
 0001:00002260       ??0?$CTraceCategoryEx@$0CA@$0A@@ATL@@QAE@PB_W@Z 10003260 f i OposVariant.obj
 0001:00002290       ??0?$CTraceCategoryEx@$0CAA@$0A@@ATL@@QAE@PB_W@Z 10003290 f i OposVariant.obj
 0001:000022d0       ??0?$CTraceCategoryEx@$0CAAA@$0A@@ATL@@QAE@PB_W@Z 100032d0 f i OposVariant.obj
 0001:00002310       ??0?$CTraceCategoryEx@$0CAAAA@$0A@@ATL@@QAE@PB_W@Z 10003310 f i OposVariant.obj
 0001:00002350       ??0?$CTraceCategoryEx@$0CAAAAA@$0A@@ATL@@QAE@PB_W@Z 10003350 f i OposVariant.obj
 0001:00002390       ??0?$CTraceCategoryEx@$0EA@$0A@@ATL@@QAE@PB_W@Z 10003390 f i OposVariant.obj
 0001:000023c0       ??0?$CTraceCategoryEx@$0EAA@$0A@@ATL@@QAE@PB_W@Z 100033c0 f i OposVariant.obj
 0001:00002400       ??0?$CTraceCategoryEx@$0EAAA@$0A@@ATL@@QAE@PB_W@Z 10003400 f i OposVariant.obj
 0001:00002440       ??0?$CTraceCategoryEx@$0EAAAA@$0A@@ATL@@QAE@PB_W@Z 10003440 f i OposVariant.obj
 0001:00002480       ??0?$CTraceCategoryEx@$0EAAAAA@$0A@@ATL@@QAE@PB_W@Z 10003480 f i OposVariant.obj
 0001:000024c0       ??0?$CTraceCategoryEx@$0IA@$0A@@ATL@@QAE@PB_W@Z 100034c0 f i OposVariant.obj
 0001:00002500       ??0?$CTraceCategoryEx@$0IAA@$0A@@ATL@@QAE@PB_W@Z 10003500 f i OposVariant.obj
 0001:00002540       ??0?$CTraceCategoryEx@$0IAAA@$0A@@ATL@@QAE@PB_W@Z 10003540 f i OposVariant.obj
 0001:00002580       ??0?$CTraceCategoryEx@$0IAAAA@$0A@@ATL@@QAE@PB_W@Z 10003580 f i OposVariant.obj
 0001:000025c0       ??0CAtlComModule@ATL@@QAE@XZ 100035c0 f i OposVariant.obj
 0001:000026a0       ??0CAtlWinModule@ATL@@QAE@XZ 100036a0 f i OposVariant.obj
 0001:00002730       ??0CComCriticalSection@ATL@@QAE@XZ 10003730 f i OposVariant.obj
 0001:00002760       ??0CPreserveLastError@ATL@@QAE@XZ 10003760 f i OposVariant.obj
 0001:000027a0       ??0CTraceFileAndLineInfo@ATL@@QAE@PBDH@Z 100037a0 f i OposVariant.obj
 0001:000027d0       ??0_ATL_COM_MODULE70@ATL@@QAE@XZ 100037d0 f i OposVariant.obj
 0001:00002800       ??0_ATL_WIN_MODULE70@ATL@@QAE@XZ 10003800 f i OposVariant.obj
 0001:00002840       ??1?$CHeapPtr@_WVCCRTAllocator@ATL@@@ATL@@QAE@XZ 10003840 f i OposVariant.obj
 0001:00002870       ??1?$CHeapPtrBase@_WVCCRTAllocator@ATL@@@ATL@@QAE@XZ 10003870 f i OposVariant.obj
 0001:000028a0       ??1?$CSimpleArray@GV?$CSimpleArrayEqualHelper@G@ATL@@@ATL@@QAE@XZ 100038a0 f i OposVariant.obj
 0001:000028d0       ??1CAtlComModule@ATL@@QAE@XZ 100038d0 f i OposVariant.obj
 0001:00002900       ??1CAtlWinModule@ATL@@QAE@XZ 10003900 f i OposVariant.obj
 0001:00002930       ??1CComBSTR@ATL@@QAE@XZ    10003930 f i OposVariant.obj
 0001:00002970       ??1CComCriticalSection@ATL@@QAE@XZ 10003970 f i OposVariant.obj
 0001:00002980       ??1CPreserveLastError@ATL@@QAE@XZ 10003980 f i OposVariant.obj
 0001:000029c0       ??1_ATL_COM_MODULE70@ATL@@QAE@XZ 100039c0 f i OposVariant.obj
 0001:000029f0       ??1_ATL_WIN_MODULE70@ATL@@QAE@XZ 100039f0 f i OposVariant.obj
 0001:00002a30       ??1stringdispid@CComTypeInfoHolder@ATL@@QAE@XZ 10003a30 f i OposVariant.obj
 0001:00002a60       ??A?$CSimpleArray@GV?$CSimpleArrayEqualHelper@G@ATL@@@ATL@@QAEAAGH@Z 10003a60 f i OposVariant.obj
 0001:00002ae0       ??B?$CHeapPtrBase@_WVCCRTAllocator@ATL@@@ATL@@QBEPA_WXZ 10003ae0 f i OposVariant.obj
 0001:00002af0       ??B?$CTraceCategoryEx@$01$0A@@ATL@@QAEIXZ 10003af0 f i OposVariant.obj
 0001:00002b00       ??B?$CTraceCategoryEx@$0CA@$0A@@ATL@@QAEIXZ 10003b00 f i OposVariant.obj
 0001:00002b10       ??RCTraceFileAndLineInfo@ATL@@QBAXHIPB_WZZ 10003b10 f i OposVariant.obj
 0001:00002bb0       ??_Estringdispid@CComTypeInfoHolder@ATL@@QAEPAXI@Z 10003bb0 f i OposVariant.obj
 0001:00002c40       ??_H@YGXPAXIIP6EPAX0@Z@Z   10003c40 f i OposVariant.obj
 0001:00002cb0       ??_I@YGXPAXIIP6EX0@Z@Z     10003cb0 f i OposVariant.obj
 0001:00002d30       ?Allocate@?$CHeapPtr@_WVCCRTAllocator@ATL@@@ATL@@QAE_NI@Z 10003d30 f i OposVariant.obj
 0001:00002dc0       ?Allocate@CCRTAllocator@ATL@@SAPAXI@Z 10003dc0 f i OposVariant.obj
 0001:00002de0       ?AllocateBytes@?$CHeapPtrBase@_WVCCRTAllocator@ATL@@@ATL@@QAE_NI@Z 10003de0 f i OposVariant.obj
 0001:00002e50       ?AtlWinModuleInit@ATL@@YGJPAU_ATL_WIN_MODULE70@1@@Z 10003e50 f i OposVariant.obj
 0001:00002f20       ?AtlWinModuleTerm@ATL@@YGJPAU_ATL_WIN_MODULE70@1@PAUHINSTANCE__@@@Z 10003f20 f i OposVariant.obj
 0001:00002fe0       ?Clear@OposVariant@@QAEJXZ 10003fe0 f i OposVariant.obj
 0001:00003020       ?Free@?$CHeapPtrBase@_WVCCRTAllocator@ATL@@@ATL@@QAEXXZ 10004020 f i OposVariant.obj
 0001:00003060       ?Free@CCRTAllocator@ATL@@SAXPAX@Z 10004060 f i OposVariant.obj
 0001:00003080       ?GetCategoryName@CTrace@ATL@@CAPA_WI@Z 10004080 f i OposVariant.obj
 0001:000030d0       ?GetModuleInstance@CAtlBaseModule@ATL@@QAEPAUHINSTANCE__@@XZ 100040d0 f i OposVariant.obj
 0001:000030f0       ?GetSize@?$CSimpleArray@GV?$CSimpleArrayEqualHelper@G@ATL@@@ATL@@QBEHXZ 100040f0 f i OposVariant.obj
 0001:00003110       ?Init@CComCriticalSection@ATL@@QAEJXZ 10004110 f i OposVariant.obj
 0001:00003170       ?RegisterCategory@CTrace@ATL@@SAXPB_WI@Z 10004170 f i OposVariant.obj
 0001:00003200       ?RemoveAll@?$CSimpleArray@GV?$CSimpleArrayEqualHelper@G@ATL@@@ATL@@QAEXXZ 10004200 f i OposVariant.obj
 0001:00003280       ?Term@CAtlComModule@ATL@@QAEXXZ 10004280 f i OposVariant.obj
 0001:00003340       ?Term@CAtlWinModule@ATL@@QAEXXZ 10004340 f i OposVariant.obj
 0001:00003370       ?Term@CComCriticalSection@ATL@@QAEJXZ 10004370 f i OposVariant.obj
 0001:000033b0       ?TraceV@CTrace@ATL@@CAXPBDHIIPB_W@Z 100043b0 f i OposVariant.obj
 0001:00003630       ?TraceV@CTrace@ATL@@SAXPBDHIIPB_WPAD@Z 10004630 f i OposVariant.obj
 0001:00003770       ?_AtlInitializeCriticalSectionEx@ATL@@YAHPAU_RTL_CRITICAL_SECTION@@KK@Z 10004770 f i OposVariant.obj
 0001:000037a0       ?_AtlRaiseException@ATL@@YAXKK@Z 100047a0 f i OposVariant.obj
 0001:000037d0       _HRESULT_FROM_WIN32        100047d0 f i OposVariant.obj
 0001:00003810       __vswprintf_s_l            10004810 f i OposVariant.obj
 0001:00003880       _swprintf_s                10004880 f i OposVariant.obj
 0001:000038e0       ?ObjectMain@CComObjectRootBase@ATL@@SGX_N@Z 100048e0 f i POSPower.obj
 0001:000038f0       ?GetCategoryMap@CComObjectRootBase@ATL@@SAPBU_ATL_CATMAP_ENTRY@2@XZ 100048f0 f i POSPower.obj
 0001:00003900       ?GetObjectDescription@?$CComCoClass@VCOPOSPOSPower@@$1?CLSID_OPOSPOSPower@@3U_GUID@@B@ATL@@SGPB_WXZ 10004900 f i POSPower.obj
 0001:00003910       ?UpdateRegistry@COPOSPOSPower@@SGJH@Z 10004910 f i POSPower.obj
 0001:00003930       ?CreateInstance@?$CComCreator@V?$CComObjectCached@VCComClassFactory@ATL@@@ATL@@@ATL@@SGJPAXABU_GUID@@PAPAX@Z 10004930 f i POSPower.obj
 0001:00003ab0       ?CreateInstance@?$CComCreator2@V?$CComCreator@V?$CComObject@VCOPOSPOSPower@@@ATL@@@ATL@@V?$CComCreator@V?$CComAggObject@VCOPOSPOSPower@@@ATL@@@2@@ATL@@SGJPAXABU_GUID@@PAPAX@Z 10004ab0 f i POSPower.obj
 0001:00003c60       _DllGetClassObject@12      10004c60 f   POSPower.obj
 0001:00003c90       _DllCanUnloadNow@0         10004c90 f   POSPower.obj
 0001:00003cd0       _DllRegisterServer@0       10004cd0 f   POSPower.obj
 0001:00003cf0       _DllUnregisterServer@0     10004cf0 f   POSPower.obj
 0001:00003e80       _DllMain@12                10004e80 f   POSPower.obj
 0001:00003ee0       ??$?2G@Wrapper@?$CSimpleArray@GV?$CSimpleArrayEqualHelper@G@ATL@@@ATL@@SAPAXIPAG@Z 10004ee0 f i POSPower.obj
 0001:00003ef0       ??$?2PA_W@?$Wrapper@PA_W@?$CSimpleMap@PA_WPA_WVCExpansionVectorEqualHelper@ATL@@@ATL@@SAPAXIPAPA_W@Z 10004ef0 f i POSPower.obj
 0001:00003f00       ??$?4UITypeInfo2@@@?$CComPtr@UITypeInfo@@@ATL@@QAEPAUITypeInfo@@ABV?$CComPtr@UITypeInfo2@@@1@@Z 10004f00 f i POSPower.obj
 0001:00003f60       ??$AtlAdd@K@ATL@@YAJPAKKK@Z 10004f60 f i POSPower.obj
 0001:00003fa0       ??$AtlAdd@_K@ATL@@YAJPA_K_K1@Z 10004fa0 f i POSPower.obj
 0001:00004010       ??$AtlAddThrow@K@ATL@@YAKKK@Z 10005010 f i POSPower.obj
 0001:00004090       ??$AtlModuleRegisterWndClassInfoT@VAtlModuleRegisterWndClassInfoParamW@ATL@@@ATL@@YAGPAU_ATL_BASE_MODULE70@0@PAU_ATL_WIN_MODULE70@0@PAU_ATL_WNDCLASSINFOW@0@PAP6GJPAUHWND__@@IIJ@ZVAtlModuleRegisterWndClassInfoParamW@0@@Z 10005090 f i POSPower.obj
 0001:000044a0       ??$AtlMultiply@H@ATL@@YAJPAHHH@Z 100054a0 f i POSPower.obj
 0001:00004520       ??$AtlMultiply@K@ATL@@YAJPAKKK@Z 10005520 f i POSPower.obj
 0001:00004580       ??$AtlMultiplyThrow@I@ATL@@YAIII@Z 10005580 f i POSPower.obj
 0001:00004600       ??$QueryInterface@UIPersistStream@@@IUnknown@@QAGJPAPAUIPersistStream@@@Z 10005600 f i POSPower.obj
 0001:00004630       ??$QueryInterface@UITypeInfo2@@@IUnknown@@QAGJPAPAUITypeInfo2@@@Z 10005630 f i POSPower.obj
 0001:00004660       ??0?$CAtlModuleT@VCComModule@ATL@@@ATL@@QAE@XZ 10005660 f i POSPower.obj
 0001:00004690       ??0?$CAtlSafeAllocBufferManager@VCCRTAllocator@ATL@@@_ATL_SAFE_ALLOCA_IMPL@ATL@@QAE@XZ 10005690 f i POSPower.obj
 0001:000046b0       ??0?$CAutoVectorPtr@_W@ATL@@QAE@XZ 100056b0 f i POSPower.obj
 0001:000046d0       ??0?$CComAggObject@VCOPOSPOSPower@@@ATL@@QAE@PAX@Z 100056d0 f i POSPower.obj
 0001:00004740       ??0?$CComContainedObject@VCOPOSPOSPower@@@ATL@@QAE@PAX@Z 10005740 f i POSPower.obj
 0001:00004850       ??0?$CComCritSecLock@VCComCriticalSection@ATL@@@ATL@@QAE@AAVCComCriticalSection@1@_N@Z 10005850 f i POSPower.obj
 0001:000048b0       ??0?$CComEnum@UIEnumConnectionPoints@@$1?_GUID_b196b285_bab4_101a_b69c_00aa00341d07@@3U__s_GUID@@BPAUIConnectionPoint@@V?$_CopyInterface@UIConnectionPoint@@@ATL@@VCComSingleThreadModel@6@@ATL@@QAE@XZ 100058b0 f i POSPower.obj
 0001:000048f0       ??0?$CComEnum@UIEnumConnections@@$1?_GUID_b196b287_bab4_101a_b69c_00aa00341d07@@3U__s_GUID@@BUtagCONNECTDATA@@V?$_Copy@UtagCONNECTDATA@@@ATL@@VCComSingleThreadModel@6@@ATL@@QAE@XZ 100058f0 f i POSPower.obj
 0001:00004930       ??0?$CComEnumImpl@UIEnumConnectionPoints@@$1?_GUID_b196b285_bab4_101a_b69c_00aa00341d07@@3U__s_GUID@@BPAUIConnectionPoint@@V?$_CopyInterface@UIConnectionPoint@@@ATL@@@ATL@@QAE@XZ 10005930 f i POSPower.obj
 0001:00004990       ??0?$CComEnumImpl@UIEnumConnections@@$1?_GUID_b196b287_bab4_101a_b69c_00aa00341d07@@3U__s_GUID@@BUtagCONNECTDATA@@V?$_Copy@UtagCONNECTDATA@@@ATL@@@ATL@@QAE@XZ 10005990 f i POSPower.obj
 0001:000049f0       ??0?$CComObject@V?$CComEnum@UIEnumConnectionPoints@@$1?_GUID_b196b285_bab4_101a_b69c_00aa00341d07@@3U__s_GUID@@BPAUIConnectionPoint@@V?$_CopyInterface@UIConnectionPoint@@@ATL@@VCComSingleThreadModel@6@@ATL@@@ATL@@QAE@PAX@Z 100059f0 f i POSPower.obj
 0001:00004a40       ??0?$CComObject@V?$CComEnum@UIEnumConnections@@$1?_GUID_b196b287_bab4_101a_b69c_00aa00341d07@@3U__s_GUID@@BUtagCONNECTDATA@@V?$_Copy@UtagCONNECTDATA@@@ATL@@VCComSingleThreadModel@6@@ATL@@@ATL@@QAE@PAX@Z 10005a40 f i POSPower.obj
 0001:00004a90       ??0?$CComObject@VCOPOSPOSPower@@@ATL@@QAE@PAX@Z 10005a90 f i POSPower.obj
 0001:00004bb0       ??0?$CComObjectCached@VCComClassFactory@ATL@@@ATL@@QAE@PAX@Z 10005bb0 f i POSPower.obj
 0001:00004bf0       ??0?$CComObjectRootEx@VCComMultiThreadModel@ATL@@@ATL@@QAE@XZ 10005bf0 f i POSPower.obj
 0001:00004c30       ??0?$CComObjectRootEx@VCComSingleThreadModel@ATL@@@ATL@@QAE@XZ 10005c30 f i POSPower.obj
 0001:00004c60       ??0?$CComPtr@UIAdviseSink@@@ATL@@QAE@PAUIAdviseSink@@@Z 10005c60 f i POSPower.obj
 0001:00004c90       ??0?$CComPtr@UICatRegister@@@ATL@@QAE@XZ 10005c90 f i POSPower.obj
 0001:00004cc0       ??0?$CComPtr@UIConnectionPoint@@@ATL@@QAE@XZ 10005cc0 f i POSPower.obj
 0001:00004cf0       ??0?$CComPtr@UIConnectionPointContainer@@@ATL@@QAE@XZ 10005cf0 f i POSPower.obj
 0001:00004d20       ??0?$CComPtr@UIDataObject@@@ATL@@QAE@XZ 10005d20 f i POSPower.obj
 0001:00004d50       ??0?$CComPtr@UIDispatch@@@ATL@@QAE@XZ 10005d50 f i POSPower.obj
 0001:00004d80       ??0?$CComPtr@UIOleClientSite@@@ATL@@QAE@PAUIOleClientSite@@@Z 10005d80 f i POSPower.obj
 0001:00004db0       ??0?$CComPtr@UIOleControlSite@@@ATL@@QAE@XZ 10005db0 f i POSPower.obj
 0001:00004de0       ??0?$CComPtr@UIOleInPlaceActiveObject@@@ATL@@QAE@XZ 10005de0 f i POSPower.obj
 0001:00004e10       ??0?$CComPtr@UIOleInPlaceFrame@@@ATL@@QAE@XZ 10005e10 f i POSPower.obj
 0001:00004e40       ??0?$CComPtr@UIOleInPlaceObject@@@ATL@@QAE@XZ 10005e40 f i POSPower.obj
 0001:00004e70       ??0?$CComPtr@UIOleInPlaceUIWindow@@@ATL@@QAE@XZ 10005e70 f i POSPower.obj
 0001:00004ea0       ??0?$CComPtr@UIOleObject@@@ATL@@QAE@XZ 10005ea0 f i POSPower.obj
 0001:00004ed0       ??0?$CComPtr@UIPersistStream@@@ATL@@QAE@XZ 10005ed0 f i POSPower.obj
 0001:00004f00       ??0?$CComPtr@UIPersistStreamInit@@@ATL@@QAE@XZ 10005f00 f i POSPower.obj
 0001:00004f30       ??0?$CComPtr@UIPointerInactive@@@ATL@@QAE@XZ 10005f30 f i POSPower.obj
 0001:00004f60       ??0?$CComPtr@UIProvideClassInfo2@@@ATL@@QAE@XZ 10005f60 f i POSPower.obj
 0001:00004f90       ??0?$CComPtr@UISpecifyPropertyPages@@@ATL@@QAE@XZ 10005f90 f i POSPower.obj
 0001:00004fc0       ??0?$CComPtr@UIStream@@@ATL@@QAE@XZ 10005fc0 f i POSPower.obj
 0001:00004ff0       ??0?$CComPtr@UITypeInfo2@@@ATL@@QAE@XZ 10005ff0 f i POSPower.obj
 0001:00005020       ??0?$CComPtr@UITypeInfo@@@ATL@@QAE@ABV01@@Z 10006020 f i POSPower.obj
 0001:00005050       ??0?$CComPtr@UITypeInfo@@@ATL@@QAE@XZ 10006050 f i POSPower.obj
 0001:00005080       ??0?$CComPtr@UITypeLib@@@ATL@@QAE@XZ 10006080 f i POSPower.obj
 0001:000050b0       ??0?$CComPtr@UIUnknown@@@ATL@@QAE@ABV01@@Z 100060b0 f i POSPower.obj
 0001:000050e0       ??0?$CComPtr@UIUnknown@@@ATL@@QAE@PAUIUnknown@@@Z 100060e0 f i POSPower.obj
 0001:00005110       ??0?$CComPtr@UIUnknown@@@ATL@@QAE@XZ 10006110 f i POSPower.obj
 0001:00005140       ??0?$CComPtr@UIViewObjectEx@@@ATL@@QAE@XZ 10006140 f i POSPower.obj
 0001:00005170       ??0?$CComPtrBase@UIAdviseSink@@@ATL@@IAE@PAUIAdviseSink@@@Z 10006170 f i POSPower.obj
 0001:000051c0       ??0?$CComPtrBase@UICatRegister@@@ATL@@IAE@XZ 100061c0 f i POSPower.obj
 0001:000051e0       ??0?$CComPtrBase@UIConnectionPoint@@@ATL@@IAE@XZ 100061e0 f i POSPower.obj
 0001:00005200       ??0?$CComPtrBase@UIConnectionPointContainer@@@ATL@@IAE@XZ 10006200 f i POSPower.obj
 0001:00005220       ??0?$CComPtrBase@UIDataObject@@@ATL@@IAE@XZ 10006220 f i POSPower.obj
 0001:00005240       ??0?$CComPtrBase@UIDispatch@@@ATL@@IAE@XZ 10006240 f i POSPower.obj
 0001:00005260       ??0?$CComPtrBase@UIOleClientSite@@@ATL@@IAE@PAUIOleClientSite@@@Z 10006260 f i POSPower.obj
 0001:000052b0       ??0?$CComPtrBase@UIOleControlSite@@@ATL@@IAE@XZ 100062b0 f i POSPower.obj
 0001:000052d0       ??0?$CComPtrBase@UIOleInPlaceActiveObject@@@ATL@@IAE@XZ 100062d0 f i POSPower.obj
 0001:000052f0       ??0?$CComPtrBase@UIOleInPlaceFrame@@@ATL@@IAE@XZ 100062f0 f i POSPower.obj
 0001:00005310       ??0?$CComPtrBase@UIOleInPlaceObject@@@ATL@@IAE@XZ 10006310 f i POSPower.obj
 0001:00005330       ??0?$CComPtrBase@UIOleInPlaceUIWindow@@@ATL@@IAE@XZ 10006330 f i POSPower.obj
 0001:00005350       ??0?$CComPtrBase@UIOleObject@@@ATL@@IAE@XZ 10006350 f i POSPower.obj
 0001:00005370       ??0?$CComPtrBase@UIPersistStream@@@ATL@@IAE@XZ 10006370 f i POSPower.obj
 0001:00005390       ??0?$CComPtrBase@UIPersistStreamInit@@@ATL@@IAE@XZ 10006390 f i POSPower.obj
 0001:000053b0       ??0?$CComPtrBase@UIPointerInactive@@@ATL@@IAE@XZ 100063b0 f i POSPower.obj
 0001:000053d0       ??0?$CComPtrBase@UIProvideClassInfo2@@@ATL@@IAE@XZ 100063d0 f i POSPower.obj
 0001:000053f0       ??0?$CComPtrBase@UISpecifyPropertyPages@@@ATL@@IAE@XZ 100063f0 f i POSPower.obj
 0001:00005410       ??0?$CComPtrBase@UIStream@@@ATL@@IAE@XZ 10006410 f i POSPower.obj
 0001:00005430       ??0?$CComPtrBase@UITypeInfo2@@@ATL@@IAE@XZ 10006430 f i POSPower.obj
 0001:00005450       ??0?$CComPtrBase@UITypeInfo@@@ATL@@IAE@PAUITypeInfo@@@Z 10006450 f i POSPower.obj
 0001:000054a0       ??0?$CComPtrBase@UITypeInfo@@@ATL@@IAE@XZ 100064a0 f i POSPower.obj
 0001:000054c0       ??0?$CComPtrBase@UITypeLib@@@ATL@@IAE@XZ 100064c0 f i POSPower.obj
 0001:000054e0       ??0?$CComPtrBase@UIUnknown@@@ATL@@IAE@PAUIUnknown@@@Z 100064e0 f i POSPower.obj
 0001:00005530       ??0?$CComPtrBase@UIUnknown@@@ATL@@IAE@XZ 10006530 f i POSPower.obj
 0001:00005550       ??0?$CComPtrBase@UIViewObjectEx@@@ATL@@IAE@XZ 10006550 f i POSPower.obj
 0001:00005570       ??0?$CComQIPtr@UIOleControlSite@@$1?_GUID_b196b289_bab4_101a_b69c_00aa00341d07@@3U__s_GUID@@B@ATL@@QAE@PAUIUnknown@@@Z 10006570 f i POSPower.obj
 0001:000055d0       ??0?$CComQIPtr@UIOleObject@@$1?_GUID_00000112_0000_0000_c000_000000000046@@3U__s_GUID@@B@ATL@@QAE@XZ 100065d0 f i POSPower.obj
 0001:00005600       ??0?$CComQIPtr@UISpecifyPropertyPages@@$1?_GUID_b196b28b_bab4_101a_b69c_00aa00341d07@@3U__s_GUID@@B@ATL@@QAE@XZ 10006600 f i POSPower.obj
 0001:00005630       ??0?$CSimpleMap@PA_WPA_WVCExpansionVectorEqualHelper@ATL@@@ATL@@QAE@XZ 10006630 f i POSPower.obj
 0001:00005660       ??0?$CTempBuffer@E$0BAA@VCCRTAllocator@ATL@@@ATL@@QAE@XZ 10006660 f i POSPower.obj
 0001:00005680       ??0?$CTempBuffer@_W$0BAA@VCCRTAllocator@ATL@@@ATL@@QAE@XZ 10006680 f i POSPower.obj
 0001:000056a0       ??0?$CTempBuffer@_W$0EAA@VCCRTAllocator@ATL@@@ATL@@QAE@XZ 100066a0 f i POSPower.obj
 0001:000056c0       ??0?$Wrapper@PA_W@?$CSimpleMap@PA_WPA_WVCExpansionVectorEqualHelper@ATL@@@ATL@@QAE@ABQA_W@Z 100066c0 f i POSPower.obj
 0001:000056e0       ??0CAtlModule@ATL@@QAE@XZ  100066e0 f i POSPower.obj
 0001:00005800       ??0CComAutoDeleteCriticalSection@ATL@@QAE@XZ 10006800 f i POSPower.obj
 0001:00005830       ??0CComBSTR@ATL@@QAE@XZ    10006830 f i POSPower.obj
 0001:00005850       ??0CComClassFactory@ATL@@QAE@XZ 10006850 f i POSPower.obj
 0001:00005890       ??0CComModule@ATL@@QAE@XZ  10006890 f i POSPower.obj
 0001:00005900       ??0CComObjectRootBase@ATL@@QAE@XZ 10006900 f i POSPower.obj
 0001:00005920       ??0CComSafeDeleteCriticalSection@ATL@@QAE@XZ 10006920 f i POSPower.obj
 0001:00005950       ??0CComVariant@ATL@@QAE@XZ 10006950 f i POSPower.obj
 0001:000059a0       ??0CExpansionVector@ATL@@QAE@XZ 100069a0 f i POSPower.obj
 0001:000059d0       ??0CParseBuffer@CRegParser@ATL@@QAE@H@Z 100069d0 f i POSPower.obj
 0001:00005a40       ??0CRegKey@ATL@@QAE@PAUHKEY__@@@Z 10006a40 f i POSPower.obj
 0001:00005a70       ??0CRegKey@ATL@@QAE@PAVCAtlTransactionManager@1@@Z 10006a70 f i POSPower.obj
 0001:00005aa0       ??0CRegObject@ATL@@QAE@XZ  10006aa0 f i POSPower.obj
 0001:00005ae0       ??0CRegParser@ATL@@QAE@PAVCRegObject@1@@Z 10006ae0 f i POSPower.obj
 0001:00005b10       ??0IClassFactory@@QAE@XZ   10006b10 f i POSPower.obj
 0001:00005b40       ??0IEnumConnectionPoints@@QAE@XZ 10006b40 f i POSPower.obj
 0001:00005b70       ??0IEnumConnections@@QAE@XZ 10006b70 f i POSPower.obj
 0001:00005ba0       ??0IRegistrarBase@@QAE@XZ  10006ba0 f i POSPower.obj
 0001:00005bd0       ??0IUnknown@@QAE@XZ        10006bd0 f i POSPower.obj
 0001:00005be0       ??0ModuleLockHelper@ATL@@QAE@XZ 10006be0 f i POSPower.obj
 0001:00005c20       ??0OposVariant@@QAE@XZ     10006c20 f i POSPower.obj
 0001:00005c40       ??0Wrapper@?$CSimpleArray@GV?$CSimpleArrayEqualHelper@G@ATL@@@ATL@@QAE@ABG@Z 10006c40 f i POSPower.obj
 0001:00005c60       ??0_ATL_MODULE70@ATL@@QAE@XZ 10006c60 f i POSPower.obj
 0001:00005c90       ??0_ATL_MSG@ATL@@QAE@PAUHWND__@@IIJH@Z 10006c90 f i POSPower.obj
 0001:00005d00       ??0_U_MENUorID@ATL@@QAE@I@Z 10006d00 f i POSPower.obj
 0001:00005d20       ??0_U_RECT@ATL@@QAE@AAUtagRECT@@@Z 10006d20 f i POSPower.obj
 0001:00005d40       ??0stringdispid@CComTypeInfoHolder@ATL@@QAE@XZ 10006d40 f i POSPower.obj
 0001:00005d80       ??1?$CAtlModuleT@VCComModule@ATL@@@ATL@@UAE@XZ 10006d80 f i POSPower.obj
 0001:00005db0       ??1?$CAtlSafeAllocBufferManager@VCCRTAllocator@ATL@@@_ATL_SAFE_ALLOCA_IMPL@ATL@@QAE@XZ 10006db0 f i POSPower.obj
 0001:00005e00       ??1?$CAutoVectorPtr@_W@ATL@@QAE@XZ 10006e00 f i POSPower.obj
 0001:00005e30       ??1?$CComAggObject@VCOPOSPOSPower@@@ATL@@UAE@XZ 10006e30 f i POSPower.obj
 0001:00005ea0       ??1?$CComContainedObject@VCOPOSPOSPower@@@ATL@@UAE@XZ 10006ea0 f i POSPower.obj
 0001:00005ed0       ??1?$CComCritSecLock@VCComCriticalSection@ATL@@@ATL@@QAE@XZ 10006ed0 f i POSPower.obj
 0001:00005f00       ??1?$CComEnum@UIEnumConnectionPoints@@$1?_GUID_b196b285_bab4_101a_b69c_00aa00341d07@@3U__s_GUID@@BPAUIConnectionPoint@@V?$_CopyInterface@UIConnectionPoint@@@ATL@@VCComSingleThreadModel@6@@ATL@@UAE@XZ 10006f00 f i POSPower.obj
 0001:00005f30       ??1?$CComEnum@UIEnumConnections@@$1?_GUID_b196b287_bab4_101a_b69c_00aa00341d07@@3U__s_GUID@@BUtagCONNECTDATA@@V?$_Copy@UtagCONNECTDATA@@@ATL@@VCComSingleThreadModel@6@@ATL@@UAE@XZ 10006f30 f i POSPower.obj
 0001:00005f60       ??1?$CComEnumImpl@UIEnumConnectionPoints@@$1?_GUID_b196b285_bab4_101a_b69c_00aa00341d07@@3U__s_GUID@@BPAUIConnectionPoint@@V?$_CopyInterface@UIConnectionPoint@@@ATL@@@ATL@@UAE@XZ 10006f60 f i POSPower.obj
 0001:00005ff0       ??1?$CComEnumImpl@UIEnumConnections@@$1?_GUID_b196b287_bab4_101a_b69c_00aa00341d07@@3U__s_GUID@@BUtagCONNECTDATA@@V?$_Copy@UtagCONNECTDATA@@@ATL@@@ATL@@UAE@XZ 10006ff0 f i POSPower.obj
 0001:00006080       ??1?$CComObject@V?$CComEnum@UIEnumConnectionPoints@@$1?_GUID_b196b285_bab4_101a_b69c_00aa00341d07@@3U__s_GUID@@BPAUIConnectionPoint@@V?$_CopyInterface@UIConnectionPoint@@@ATL@@VCComSingleThreadModel@6@@ATL@@@ATL@@UAE@XZ 10007080 f i POSPower.obj
 0001:000060e0       ??1?$CComObject@V?$CComEnum@UIEnumConnections@@$1?_GUID_b196b287_bab4_101a_b69c_00aa00341d07@@3U__s_GUID@@BUtagCONNECTDATA@@V?$_Copy@UtagCONNECTDATA@@@ATL@@VCComSingleThreadModel@6@@ATL@@@ATL@@UAE@XZ 100070e0 f i POSPower.obj
 0001:00006140       ??1?$CComObject@VCOPOSPOSPower@@@ATL@@UAE@XZ 10007140 f i POSPower.obj
 0001:00006280       ??1?$CComObjectCached@VCComClassFactory@ATL@@@ATL@@UAE@XZ 10007280 f i POSPower.obj
 0001:000062d0       ??1?$CComObjectRootEx@VCComMultiThreadModel@ATL@@@ATL@@QAE@XZ 100072d0 f i POSPower.obj
 0001:00006300       ??1?$CComObjectRootEx@VCComSingleThreadModel@ATL@@@ATL@@QAE@XZ 10007300 f i POSPower.obj
 0001:00006330       ??1?$CComPtr@UIAdviseSink@@@ATL@@QAE@XZ 10007330 f i POSPower.obj
 0001:00006360       ??1?$CComPtr@UICatRegister@@@ATL@@QAE@XZ 10007360 f i POSPower.obj
 0001:00006390       ??1?$CComPtr@UIConnectionPoint@@@ATL@@QAE@XZ 10007390 f i POSPower.obj
 0001:000063c0       ??1?$CComPtr@UIConnectionPointContainer@@@ATL@@QAE@XZ 100073c0 f i POSPower.obj
 0001:000063f0       ??1?$CComPtr@UIDataObject@@@ATL@@QAE@XZ 100073f0 f i POSPower.obj
 0001:00006420       ??1?$CComPtr@UIDispatch@@@ATL@@QAE@XZ 10007420 f i POSPower.obj
 0001:00006450       ??1?$CComPtr@UIOleClientSite@@@ATL@@QAE@XZ 10007450 f i POSPower.obj
 0001:00006480       ??1?$CComPtr@UIOleControlSite@@@ATL@@QAE@XZ 10007480 f i POSPower.obj
 0001:000064b0       ??1?$CComPtr@UIOleInPlaceActiveObject@@@ATL@@QAE@XZ 100074b0 f i POSPower.obj
 0001:000064e0       ??1?$CComPtr@UIOleInPlaceFrame@@@ATL@@QAE@XZ 100074e0 f i POSPower.obj
 0001:00006510       ??1?$CComPtr@UIOleInPlaceObject@@@ATL@@QAE@XZ 10007510 f i POSPower.obj
 0001:00006540       ??1?$CComPtr@UIOleInPlaceUIWindow@@@ATL@@QAE@XZ 10007540 f i POSPower.obj
 0001:00006570       ??1?$CComPtr@UIOleObject@@@ATL@@QAE@XZ 10007570 f i POSPower.obj
 0001:000065a0       ??1?$CComPtr@UIPersistStream@@@ATL@@QAE@XZ 100075a0 f i POSPower.obj
 0001:000065d0       ??1?$CComPtr@UIPersistStreamInit@@@ATL@@QAE@XZ 100075d0 f i POSPower.obj
 0001:00006600       ??1?$CComPtr@UIPointerInactive@@@ATL@@QAE@XZ 10007600 f i POSPower.obj
 0001:00006630       ??1?$CComPtr@UIProvideClassInfo2@@@ATL@@QAE@XZ 10007630 f i POSPower.obj
 0001:00006660       ??1?$CComPtr@UISpecifyPropertyPages@@@ATL@@QAE@XZ 10007660 f i POSPower.obj
 0001:00006690       ??1?$CComPtr@UIStream@@@ATL@@QAE@XZ 10007690 f i POSPower.obj
 0001:000066c0       ??1?$CComPtr@UITypeInfo2@@@ATL@@QAE@XZ 100076c0 f i POSPower.obj
 0001:000066f0       ??1?$CComPtr@UITypeInfo@@@ATL@@QAE@XZ 100076f0 f i POSPower.obj
 0001:00006720       ??1?$CComPtr@UITypeLib@@@ATL@@QAE@XZ 10007720 f i POSPower.obj
 0001:00006750       ??1?$CComPtr@UIUnknown@@@ATL@@QAE@XZ 10007750 f i POSPower.obj
 0001:00006780       ??1?$CComPtr@UIViewObjectEx@@@ATL@@QAE@XZ 10007780 f i POSPower.obj
 0001:000067b0       ??1?$CComPtrBase@UIAdviseSink@@@ATL@@QAE@XZ 100077b0 f i POSPower.obj
 0001:00006800       ??1?$CComPtrBase@UICatRegister@@@ATL@@QAE@XZ 10007800 f i POSPower.obj
 0001:00006850       ??1?$CComPtrBase@UIConnectionPoint@@@ATL@@QAE@XZ 10007850 f i POSPower.obj
 0001:000068a0       ??1?$CComPtrBase@UIConnectionPointContainer@@@ATL@@QAE@XZ 100078a0 f i POSPower.obj
 0001:000068f0       ??1?$CComPtrBase@UIDataObject@@@ATL@@QAE@XZ 100078f0 f i POSPower.obj
 0001:00006940       ??1?$CComPtrBase@UIDispatch@@@ATL@@QAE@XZ 10007940 f i POSPower.obj
 0001:00006990       ??1?$CComPtrBase@UIOleClientSite@@@ATL@@QAE@XZ 10007990 f i POSPower.obj
 0001:000069e0       ??1?$CComPtrBase@UIOleControlSite@@@ATL@@QAE@XZ 100079e0 f i POSPower.obj
 0001:00006a30       ??1?$CComPtrBase@UIOleInPlaceActiveObject@@@ATL@@QAE@XZ 10007a30 f i POSPower.obj
 0001:00006a80       ??1?$CComPtrBase@UIOleInPlaceFrame@@@ATL@@QAE@XZ 10007a80 f i POSPower.obj
 0001:00006ad0       ??1?$CComPtrBase@UIOleInPlaceObject@@@ATL@@QAE@XZ 10007ad0 f i POSPower.obj
 0001:00006b20       ??1?$CComPtrBase@UIOleInPlaceUIWindow@@@ATL@@QAE@XZ 10007b20 f i POSPower.obj
 0001:00006b70       ??1?$CComPtrBase@UIOleObject@@@ATL@@QAE@XZ 10007b70 f i POSPower.obj
 0001:00006bc0       ??1?$CComPtrBase@UIPersistStream@@@ATL@@QAE@XZ 10007bc0 f i POSPower.obj
 0001:00006c10       ??1?$CComPtrBase@UIPersistStreamInit@@@ATL@@QAE@XZ 10007c10 f i POSPower.obj
 0001:00006c60       ??1?$CComPtrBase@UIPointerInactive@@@ATL@@QAE@XZ 10007c60 f i POSPower.obj
 0001:00006cb0       ??1?$CComPtrBase@UIProvideClassInfo2@@@ATL@@QAE@XZ 10007cb0 f i POSPower.obj
 0001:00006d00       ??1?$CComPtrBase@UISpecifyPropertyPages@@@ATL@@QAE@XZ 10007d00 f i POSPower.obj
 0001:00006d50       ??1?$CComPtrBase@UIStream@@@ATL@@QAE@XZ 10007d50 f i POSPower.obj
 0001:00006da0       ??1?$CComPtrBase@UITypeInfo2@@@ATL@@QAE@XZ 10007da0 f i POSPower.obj
 0001:00006df0       ??1?$CComPtrBase@UITypeInfo@@@ATL@@QAE@XZ 10007df0 f i POSPower.obj
 0001:00006e40       ??1?$CComPtrBase@UITypeLib@@@ATL@@QAE@XZ 10007e40 f i POSPower.obj
 0001:00006e90       ??1?$CComPtrBase@UIUnknown@@@ATL@@QAE@XZ 10007e90 f i POSPower.obj
 0001:00006ee0       ??1?$CComPtrBase@UIViewObjectEx@@@ATL@@QAE@XZ 10007ee0 f i POSPower.obj
 0001:00006f30       ??1?$CComQIPtr@UIOleControlSite@@$1?_GUID_b196b289_bab4_101a_b69c_00aa00341d07@@3U__s_GUID@@B@ATL@@QAE@XZ 10007f30 f i POSPower.obj
 0001:00006f60       ??1?$CComQIPtr@UIOleObject@@$1?_GUID_00000112_0000_0000_c000_000000000046@@3U__s_GUID@@B@ATL@@QAE@XZ 10007f60 f i POSPower.obj
 0001:00006f90       ??1?$CComQIPtr@UISpecifyPropertyPages@@$1?_GUID_b196b28b_bab4_101a_b69c_00aa00341d07@@3U__s_GUID@@B@ATL@@QAE@XZ 10007f90 f i POSPower.obj
 0001:00006fc0       ??1?$CSimpleMap@PA_WPA_WVCExpansionVectorEqualHelper@ATL@@@ATL@@QAE@XZ 10007fc0 f i POSPower.obj
 0001:00006ff0       ??1?$CTempBuffer@E$0BAA@VCCRTAllocator@ATL@@@ATL@@QAE@XZ 10007ff0 f i POSPower.obj
 0001:00007030       ??1?$CTempBuffer@_W$0BAA@VCCRTAllocator@ATL@@@ATL@@QAE@XZ 10008030 f i POSPower.obj
 0001:00007070       ??1?$CTempBuffer@_W$0EAA@VCCRTAllocator@ATL@@@ATL@@QAE@XZ 10008070 f i POSPower.obj
 0001:000070b0       ??1CAtlModule@ATL@@UAE@XZ  100080b0 f i POSPower.obj
 0001:000070e0       ??1CComAutoDeleteCriticalSection@ATL@@QAE@XZ 100080e0 f i POSPower.obj
 0001:00007110       ??1CComClassFactory@ATL@@UAE@XZ 10008110 f i POSPower.obj
 0001:00007140       ??1CComModule@ATL@@UAE@XZ  10008140 f i POSPower.obj
 0001:00007170       ??1CComObjectRootBase@ATL@@QAE@XZ 10008170 f i POSPower.obj
 0001:00007180       ??1CComSafeDeleteCriticalSection@ATL@@QAE@XZ 10008180 f i POSPower.obj
 0001:000071c0       ??1CComVariant@ATL@@QAE@XZ 100081c0 f i POSPower.obj
 0001:00007220       ??1CExpansionVector@ATL@@QAE@XZ 10008220 f i POSPower.obj
 0001:00007250       ??1CParseBuffer@CRegParser@ATL@@QAE@XZ 10008250 f i POSPower.obj
 0001:00007290       ??1CRegKey@ATL@@QAE@XZ     10008290 f i POSPower.obj
 0001:000072c0       ??1CRegObject@ATL@@UAE@XZ  100082c0 f i POSPower.obj
 0001:00007300       ??1ModuleLockHelper@ATL@@QAE@XZ 10008300 f i POSPower.obj
 0001:00007340       ??1OposVariant@@QAE@XZ     10008340 f i POSPower.obj
 0001:00007370       ??1_ATL_MODULE70@ATL@@QAE@XZ 10008370 f i POSPower.obj
 0001:000073a0       ??4?$CComPtr@UIAdviseSink@@@ATL@@QAEPAUIAdviseSink@@PAU2@@Z 100083a0 f i POSPower.obj
 0001:00007400       ??4?$CComPtr@UIOleClientSite@@@ATL@@QAEPAUIOleClientSite@@PAU2@@Z 10008400 f i POSPower.obj
 0001:00007460       ??4?$CComPtr@UIUnknown@@@ATL@@QAEPAUIUnknown@@PAU2@@Z 10008460 f i POSPower.obj
 0001:000074c0       ??4?$CComQIPtr@UIOleObject@@$1?_GUID_00000112_0000_0000_c000_000000000046@@3U__s_GUID@@B@ATL@@QAEPAUIOleObject@@PAUIUnknown@@@Z 100084c0 f i POSPower.obj
 0001:00007510       ??4?$CComQIPtr@UISpecifyPropertyPages@@$1?_GUID_b196b28b_bab4_101a_b69c_00aa00341d07@@3U__s_GUID@@B@ATL@@QAEPAUISpecifyPropertyPages@@PAUIUnknown@@@Z 10008510 f i POSPower.obj
 0001:00007560       ??7?$CComPtrBase@UIOleClientSite@@@ATL@@QBE_NXZ 10008560 f i POSPower.obj
 0001:00007590       ??7?$CComPtrBase@UIOleInPlaceSiteWindowless@@@ATL@@QBE_NXZ 10008590 f i POSPower.obj
 0001:000075c0       ??7CComBSTR@ATL@@QBE_NXZ   100085c0 f i POSPower.obj
 0001:000075f0       ??8?$CComPtrBase@UIConnectionPointContainer@@@ATL@@QBE_NPAUIConnectionPointContainer@@@Z 100085f0 f i POSPower.obj
 0001:00007620       ??8?$CComPtrBase@UIDataAdviseHolder@@@ATL@@QBE_NPAUIDataAdviseHolder@@@Z 10008620 f i POSPower.obj
 0001:00007650       ??8?$CComPtrBase@UIOleAdviseHolder@@@ATL@@QBE_NPAUIOleAdviseHolder@@@Z 10008650 f i POSPower.obj
 0001:00007680       ??8?$CComPtrBase@UIOleClientSite@@@ATL@@QBE_NPAUIOleClientSite@@@Z 10008680 f i POSPower.obj
 0001:000076b0       ??8?$CComPtrBase@UIOleControlSite@@@ATL@@QBE_NPAUIOleControlSite@@@Z 100086b0 f i POSPower.obj
 0001:000076e0       ??8?$CComPtrBase@UIOleInPlaceObject@@@ATL@@QBE_NPAUIOleInPlaceObject@@@Z 100086e0 f i POSPower.obj
 0001:00007710       ??8?$CComPtrBase@UIOleInPlaceSiteWindowless@@@ATL@@QBE_NPAUIOleInPlaceSiteWindowless@@@Z 10008710 f i POSPower.obj
 0001:00007740       ??8?$CComPtrBase@UIOleObject@@@ATL@@QBE_NPAUIOleObject@@@Z 10008740 f i POSPower.obj
 0001:00007770       ??8?$CComPtrBase@UIPersistStream@@@ATL@@QBE_NPAUIPersistStream@@@Z 10008770 f i POSPower.obj
 0001:000077a0       ??8?$CComPtrBase@UIPersistStreamInit@@@ATL@@QBE_NPAUIPersistStreamInit@@@Z 100087a0 f i POSPower.obj
 0001:000077d0       ??8?$CComPtrBase@UIPointerInactive@@@ATL@@QBE_NPAUIPointerInactive@@@Z 100087d0 f i POSPower.obj
 0001:00007800       ??8?$CComPtrBase@UIUnknown@@@ATL@@QBE_NPAUIUnknown@@@Z 10008800 f i POSPower.obj
 0001:00007830       ??8?$CComPtrBase@UIViewObjectEx@@@ATL@@QBE_NPAUIViewObjectEx@@@Z 10008830 f i POSPower.obj
 0001:00007860       ??8CComBSTR@ATL@@QBE_NH@Z  10008860 f i POSPower.obj
 0001:000078c0       ??9?$CComPtrBase@UIConnectionPointContainer@@@ATL@@QBE_NPAUIConnectionPointContainer@@@Z 100088c0 f i POSPower.obj
 0001:00007910       ??9?$CComPtrBase@UIDataAdviseHolder@@@ATL@@QBE_NPAUIDataAdviseHolder@@@Z 10008910 f i POSPower.obj
 0001:00007960       ??9?$CComPtrBase@UIOleAdviseHolder@@@ATL@@QBE_NPAUIOleAdviseHolder@@@Z 10008960 f i POSPower.obj
 0001:000079b0       ??9?$CComPtrBase@UIOleClientSite@@@ATL@@QBE_NPAUIOleClientSite@@@Z 100089b0 f i POSPower.obj
 0001:00007a00       ??9?$CComPtrBase@UIOleControlSite@@@ATL@@QBE_NPAUIOleControlSite@@@Z 10008a00 f i POSPower.obj
 0001:00007a50       ??9?$CComPtrBase@UIOleInPlaceObject@@@ATL@@QBE_NPAUIOleInPlaceObject@@@Z 10008a50 f i POSPower.obj
 0001:00007aa0       ??9?$CComPtrBase@UIOleInPlaceSiteWindowless@@@ATL@@QBE_NPAUIOleInPlaceSiteWindowless@@@Z 10008aa0 f i POSPower.obj
 0001:00007af0       ??9?$CComPtrBase@UIOleObject@@@ATL@@QBE_NPAUIOleObject@@@Z 10008af0 f i POSPower.obj
 0001:00007b40       ??9?$CComPtrBase@UIPersistStream@@@ATL@@QBE_NPAUIPersistStream@@@Z 10008b40 f i POSPower.obj
 0001:00007b90       ??9?$CComPtrBase@UIPersistStreamInit@@@ATL@@QBE_NPAUIPersistStreamInit@@@Z 10008b90 f i POSPower.obj
 0001:00007be0       ??9?$CComPtrBase@UIPointerInactive@@@ATL@@QBE_NPAUIPointerInactive@@@Z 10008be0 f i POSPower.obj
 0001:00007c30       ??9?$CComPtrBase@UIUnknown@@@ATL@@QBE_NPAUIUnknown@@@Z 10008c30 f i POSPower.obj
 0001:00007c80       ??9?$CComPtrBase@UIViewObjectEx@@@ATL@@QBE_NPAUIViewObjectEx@@@Z 10008c80 f i POSPower.obj
 0001:00007cd0       ??9CComBSTR@ATL@@QBE_NH@Z  10008cd0 f i POSPower.obj
 0001:00007d20       ??B?$CComPtrBase@UIAdviseSink@@@ATL@@QBEPAUIAdviseSink@@XZ 10008d20 f i POSPower.obj
 0001:00007d30       ??B?$CComPtrBase@UIDataAdviseHolder@@@ATL@@QBEPAUIDataAdviseHolder@@XZ 10008d30 f i POSPower.obj
 0001:00007d40       ??B?$CComPtrBase@UIDataObject@@@ATL@@QBEPAUIDataObject@@XZ 10008d40 f i POSPower.obj
 0001:00007d50       ??B?$CComPtrBase@UIOleAdviseHolder@@@ATL@@QBEPAUIOleAdviseHolder@@XZ 10008d50 f i POSPower.obj
 0001:00007d60       ??B?$CComPtrBase@UIOleClientSite@@@ATL@@QBEPAUIOleClientSite@@XZ 10008d60 f i POSPower.obj
 0001:00007d70       ??B?$CComPtrBase@UIOleControlSite@@@ATL@@QBEPAUIOleControlSite@@XZ 10008d70 f i POSPower.obj
 0001:00007d80       ??B?$CComPtrBase@UIOleInPlaceActiveObject@@@ATL@@QBEPAUIOleInPlaceActiveObject@@XZ 10008d80 f i POSPower.obj
 0001:00007d90       ??B?$CComPtrBase@UIOleInPlaceFrame@@@ATL@@QBEPAUIOleInPlaceFrame@@XZ 10008d90 f i POSPower.obj
 0001:00007da0       ??B?$CComPtrBase@UIOleInPlaceSiteWindowless@@@ATL@@QBEPAUIOleInPlaceSiteWindowless@@XZ 10008da0 f i POSPower.obj
 0001:00007db0       ??B?$CComPtrBase@UIOleInPlaceUIWindow@@@ATL@@QBEPAUIOleInPlaceUIWindow@@XZ 10008db0 f i POSPower.obj
 0001:00007dc0       ??B?$CComPtrBase@UIOleObject@@@ATL@@QBEPAUIOleObject@@XZ 10008dc0 f i POSPower.obj
 0001:00007dd0       ??B?$CComPtrBase@UIPersistStream@@@ATL@@QBEPAUIPersistStream@@XZ 10008dd0 f i POSPower.obj
 0001:00007de0       ??B?$CComPtrBase@UIProvideClassInfo2@@@ATL@@QBEPAUIProvideClassInfo2@@XZ 10008de0 f i POSPower.obj
 0001:00007df0       ??B?$CComPtrBase@UISpecifyPropertyPages@@@ATL@@QBEPAUISpecifyPropertyPages@@XZ 10008df0 f i POSPower.obj
 0001:00007e00       ??B?$CComPtrBase@UIStream@@@ATL@@QBEPAUIStream@@XZ 10008e00 f i POSPower.obj
 0001:00007e10       ??B?$CComPtrBase@UITypeInfo2@@@ATL@@QBEPAUITypeInfo2@@XZ 10008e10 f i POSPower.obj
 0001:00007e20       ??B?$CComPtrBase@UITypeInfo@@@ATL@@QBEPAUITypeInfo@@XZ 10008e20 f i POSPower.obj
 0001:00007e30       ??B?$CComPtrBase@UITypeLib@@@ATL@@QBEPAUITypeLib@@XZ 10008e30 f i POSPower.obj
 0001:00007e40       ??B?$CComPtrBase@UIUnknown@@@ATL@@QBEPAUIUnknown@@XZ 10008e40 f i POSPower.obj
 0001:00007e50       ??B?$CTempBuffer@E$0BAA@VCCRTAllocator@ATL@@@ATL@@QBEPAEXZ 10008e50 f i POSPower.obj
 0001:00007e60       ??B?$CTempBuffer@_W$0BAA@VCCRTAllocator@ATL@@@ATL@@QBEPA_WXZ 10008e60 f i POSPower.obj
 0001:00007e70       ??B?$CTempBuffer@_W$0EAA@VCCRTAllocator@ATL@@@ATL@@QBEPA_WXZ 10008e70 f i POSPower.obj
 0001:00007e80       ??B?$CTraceCategoryEx@$00$0A@@ATL@@QAEIXZ 10008e80 f i POSPower.obj
 0001:00007e90       ??B?$CTraceCategoryEx@$07$0A@@ATL@@QAEIXZ 10008e90 f i POSPower.obj
 0001:00007ea0       ??B?$CTraceCategoryEx@$0CAAA@$0A@@ATL@@QAEIXZ 10008ea0 f i POSPower.obj
 0001:00007eb0       ??B?$CTraceCategoryEx@$0EA@$0A@@ATL@@QAEIXZ 10008eb0 f i POSPower.obj
 0001:00007ec0       ??B?$CTraceCategoryEx@$0IAA@$0A@@ATL@@QAEIXZ 10008ec0 f i POSPower.obj
 0001:00007ed0       ??BCComBSTR@ATL@@QBEPA_WXZ 10008ed0 f i POSPower.obj
 0001:00007ee0       ??BCRegKey@ATL@@QBEPAUHKEY__@@XZ 10008ee0 f i POSPower.obj
 0001:00007ef0       ??C?$CComPtrBase@UIAdviseSink@@@ATL@@QBEPAV?$_NoAddRefReleaseOnCComPtr@UIAdviseSink@@@1@XZ 10008ef0 f i POSPower.obj
 0001:00007f40       ??C?$CComPtrBase@UICatRegister@@@ATL@@QBEPAV?$_NoAddRefReleaseOnCComPtr@UICatRegister@@@1@XZ 10008f40 f i POSPower.obj
 0001:00007f90       ??C?$CComPtrBase@UIConnectionPoint@@@ATL@@QBEPAV?$_NoAddRefReleaseOnCComPtr@UIConnectionPoint@@@1@XZ 10008f90 f i POSPower.obj
 0001:00007fe0       ??C?$CComPtrBase@UIConnectionPointContainer@@@ATL@@QBEPAV?$_NoAddRefReleaseOnCComPtr@UIConnectionPointContainer@@@1@XZ 10008fe0 f i POSPower.obj
 0001:00008030       ??C?$CComPtrBase@UIDataAdviseHolder@@@ATL@@QBEPAV?$_NoAddRefReleaseOnCComPtr@UIDataAdviseHolder@@@1@XZ 10009030 f i POSPower.obj
 0001:00008080       ??C?$CComPtrBase@UIOleAdviseHolder@@@ATL@@QBEPAV?$_NoAddRefReleaseOnCComPtr@UIOleAdviseHolder@@@1@XZ 10009080 f i POSPower.obj
 0001:000080d0       ??C?$CComPtrBase@UIOleClientSite@@@ATL@@QBEPAV?$_NoAddRefReleaseOnCComPtr@UIOleClientSite@@@1@XZ 100090d0 f i POSPower.obj
 0001:00008120       ??C?$CComPtrBase@UIOleControlSite@@@ATL@@QBEPAV?$_NoAddRefReleaseOnCComPtr@UIOleControlSite@@@1@XZ 10009120 f i POSPower.obj
 0001:00008170       ??C?$CComPtrBase@UIOleInPlaceFrame@@@ATL@@QBEPAV?$_NoAddRefReleaseOnCComPtr@UIOleInPlaceFrame@@@1@XZ 10009170 f i POSPower.obj
 0001:000081c0       ??C?$CComPtrBase@UIOleInPlaceObject@@@ATL@@QBEPAV?$_NoAddRefReleaseOnCComPtr@UIOleInPlaceObject@@@1@XZ 100091c0 f i POSPower.obj
 0001:00008210       ??C?$CComPtrBase@UIOleInPlaceSiteWindowless@@@ATL@@QBEPAV?$_NoAddRefReleaseOnCComPtr@UIOleInPlaceSiteWindowless@@@1@XZ 10009210 f i POSPower.obj
 0001:00008260       ??C?$CComPtrBase@UIOleInPlaceUIWindow@@@ATL@@QBEPAV?$_NoAddRefReleaseOnCComPtr@UIOleInPlaceUIWindow@@@1@XZ 10009260 f i POSPower.obj
 0001:000082b0       ??C?$CComPtrBase@UIOleObject@@@ATL@@QBEPAV?$_NoAddRefReleaseOnCComPtr@UIOleObject@@@1@XZ 100092b0 f i POSPower.obj
 0001:00008300       ??C?$CComPtrBase@UIPersistStream@@@ATL@@QBEPAV?$_NoAddRefReleaseOnCComPtr@UIPersistStream@@@1@XZ 10009300 f i POSPower.obj
 0001:00008350       ??C?$CComPtrBase@UIPersistStreamInit@@@ATL@@QBEPAV?$_NoAddRefReleaseOnCComPtr@UIPersistStreamInit@@@1@XZ 10009350 f i POSPower.obj
 0001:000083a0       ??C?$CComPtrBase@UIPointerInactive@@@ATL@@QBEPAV?$_NoAddRefReleaseOnCComPtr@UIPointerInactive@@@1@XZ 100093a0 f i POSPower.obj
 0001:000083f0       ??C?$CComPtrBase@UIProvideClassInfo2@@@ATL@@QBEPAV?$_NoAddRefReleaseOnCComPtr@UIProvideClassInfo2@@@1@XZ 100093f0 f i POSPower.obj
 0001:00008440       ??C?$CComPtrBase@UISpecifyPropertyPages@@@ATL@@QBEPAV?$_NoAddRefReleaseOnCComPtr@UISpecifyPropertyPages@@@1@XZ 10009440 f i POSPower.obj
 0001:00008490       ??C?$CComPtrBase@UITypeInfo@@@ATL@@QBEPAV?$_NoAddRefReleaseOnCComPtr@UITypeInfo@@@1@XZ 10009490 f i POSPower.obj
 0001:000084e0       ??C?$CComPtrBase@UITypeLib@@@ATL@@QBEPAV?$_NoAddRefReleaseOnCComPtr@UITypeLib@@@1@XZ 100094e0 f i POSPower.obj
 0001:00008530       ??C?$CComPtrBase@UIUnknown@@@ATL@@QBEPAV?$_NoAddRefReleaseOnCComPtr@UIUnknown@@@1@XZ 10009530 f i POSPower.obj
 0001:00008580       ??C?$CComPtrBase@UIViewObjectEx@@@ATL@@QBEPAV?$_NoAddRefReleaseOnCComPtr@UIViewObjectEx@@@1@XZ 10009580 f i POSPower.obj
 0001:000085d0       ??I?$CComPtrBase@UICatRegister@@@ATL@@QAEPAPAUICatRegister@@XZ 100095d0 f i POSPower.obj
 0001:00008620       ??I?$CComPtrBase@UIConnectionPoint@@@ATL@@QAEPAPAUIConnectionPoint@@XZ 10009620 f i POSPower.obj
 0001:00008670       ??I?$CComPtrBase@UIConnectionPointContainer@@@ATL@@QAEPAPAUIConnectionPointContainer@@XZ 10009670 f i POSPower.obj
 0001:000086c0       ??I?$CComPtrBase@UIDataAdviseHolder@@@ATL@@QAEPAPAUIDataAdviseHolder@@XZ 100096c0 f i POSPower.obj
 0001:00008710       ??I?$CComPtrBase@UIDataObject@@@ATL@@QAEPAPAUIDataObject@@XZ 10009710 f i POSPower.obj
 0001:00008760       ??I?$CComPtrBase@UIDispatch@@@ATL@@QAEPAPAUIDispatch@@XZ 10009760 f i POSPower.obj
 0001:000087b0       ??I?$CComPtrBase@UIOleAdviseHolder@@@ATL@@QAEPAPAUIOleAdviseHolder@@XZ 100097b0 f i POSPower.obj
 0001:00008800       ??I?$CComPtrBase@UIOleControlSite@@@ATL@@QAEPAPAUIOleControlSite@@XZ 10009800 f i POSPower.obj
 0001:00008850       ??I?$CComPtrBase@UIOleInPlaceActiveObject@@@ATL@@QAEPAPAUIOleInPlaceActiveObject@@XZ 10009850 f i POSPower.obj
 0001:000088a0       ??I?$CComPtrBase@UIOleInPlaceFrame@@@ATL@@QAEPAPAUIOleInPlaceFrame@@XZ 100098a0 f i POSPower.obj
 0001:000088f0       ??I?$CComPtrBase@UIOleInPlaceObject@@@ATL@@QAEPAPAUIOleInPlaceObject@@XZ 100098f0 f i POSPower.obj
 0001:00008940       ??I?$CComPtrBase@UIOleInPlaceSiteWindowless@@@ATL@@QAEPAPAUIOleInPlaceSiteWindowless@@XZ 10009940 f i POSPower.obj
 0001:00008990       ??I?$CComPtrBase@UIOleInPlaceUIWindow@@@ATL@@QAEPAPAUIOleInPlaceUIWindow@@XZ 10009990 f i POSPower.obj
 0001:000089e0       ??I?$CComPtrBase@UIOleObject@@@ATL@@QAEPAPAUIOleObject@@XZ 100099e0 f i POSPower.obj
 0001:00008a30       ??I?$CComPtrBase@UIPersistStream@@@ATL@@QAEPAPAUIPersistStream@@XZ 10009a30 f i POSPower.obj
 0001:00008a80       ??I?$CComPtrBase@UIPointerInactive@@@ATL@@QAEPAPAUIPointerInactive@@XZ 10009a80 f i POSPower.obj
 0001:00008ad0       ??I?$CComPtrBase@UIProvideClassInfo2@@@ATL@@QAEPAPAUIProvideClassInfo2@@XZ 10009ad0 f i POSPower.obj
 0001:00008b20       ??I?$CComPtrBase@UIStream@@@ATL@@QAEPAPAUIStream@@XZ 10009b20 f i POSPower.obj
 0001:00008b70       ??I?$CComPtrBase@UITypeInfo2@@@ATL@@QAEPAPAUITypeInfo2@@XZ 10009b70 f i POSPower.obj
 0001:00008bc0       ??I?$CComPtrBase@UITypeInfo@@@ATL@@QAEPAPAUITypeInfo@@XZ 10009bc0 f i POSPower.obj
 0001:00008c10       ??I?$CComPtrBase@UITypeLib@@@ATL@@QAEPAPAUITypeLib@@XZ 10009c10 f i POSPower.obj
 0001:00008c60       ??I?$CComPtrBase@UIUnknown@@@ATL@@QAEPAPAUIUnknown@@XZ 10009c60 f i POSPower.obj
 0001:00008cb0       ??I?$CComPtrBase@UIViewObjectEx@@@ATL@@QAEPAPAUIViewObjectEx@@XZ 10009cb0 f i POSPower.obj
 0001:00008d00       ??ICComBSTR@ATL@@QAEPAPA_WXZ 10009d00 f i POSPower.obj
 0001:00008d0e       ??_E?$CComContainedObject@VCOPOSPOSPower@@@ATL@@W3AEPAXI@Z 10009d0e f i POSPower.obj
 0001:00008d16       ??_E?$CComContainedObject@VCOPOSPOSPower@@@ATL@@WEM@AEPAXI@Z 10009d16 f i POSPower.obj
 0001:00008d1e       ??_E?$CComObject@VCOPOSPOSPower@@@ATL@@W3AEPAXI@Z 10009d1e f i POSPower.obj
 0001:00008d26       ??_E?$CComObject@VCOPOSPOSPower@@@ATL@@WEM@AEPAXI@Z 10009d26 f i POSPower.obj
 0001:00008d30       ??_E?$CComAggObject@VCOPOSPOSPower@@@ATL@@UAEPAXI@Z 10009d30 f i POSPower.obj
 0001:00008d30       ??_G?$CComAggObject@VCOPOSPOSPower@@@ATL@@UAEPAXI@Z 10009d30 f i POSPower.obj
 0001:00008d80       ??_G?$CComContainedObject@VCOPOSPOSPower@@@ATL@@UAEPAXI@Z 10009d80 f i POSPower.obj
 0001:00008d80       ??_E?$CComContainedObject@VCOPOSPOSPower@@@ATL@@UAEPAXI@Z 10009d80 f i POSPower.obj
 0001:00008dd0       ??_G?$CComObject@V?$CComEnum@UIEnumConnectionPoints@@$1?_GUID_b196b285_bab4_101a_b69c_00aa00341d07@@3U__s_GUID@@BPAUIConnectionPoint@@V?$_CopyInterface@UIConnectionPoint@@@ATL@@VCComSingleThreadModel@6@@ATL@@@ATL@@UAEPAXI@Z 10009dd0 f i POSPower.obj
 0001:00008dd0       ??_E?$CComObject@V?$CComEnum@UIEnumConnectionPoints@@$1?_GUID_b196b285_bab4_101a_b69c_00aa00341d07@@3U__s_GUID@@BPAUIConnectionPoint@@V?$_CopyInterface@UIConnectionPoint@@@ATL@@VCComSingleThreadModel@6@@ATL@@@ATL@@UAEPAXI@Z 10009dd0 f i POSPower.obj
 0001:00008e10       ??_E?$CComObject@V?$CComEnum@UIEnumConnections@@$1?_GUID_b196b287_bab4_101a_b69c_00aa00341d07@@3U__s_GUID@@BUtagCONNECTDATA@@V?$_Copy@UtagCONNECTDATA@@@ATL@@VCComSingleThreadModel@6@@ATL@@@ATL@@UAEPAXI@Z 10009e10 f i POSPower.obj
 0001:00008e10       ??_G?$CComObject@V?$CComEnum@UIEnumConnections@@$1?_GUID_b196b287_bab4_101a_b69c_00aa00341d07@@3U__s_GUID@@BUtagCONNECTDATA@@V?$_Copy@UtagCONNECTDATA@@@ATL@@VCComSingleThreadModel@6@@ATL@@@ATL@@UAEPAXI@Z 10009e10 f i POSPower.obj
 0001:00008e50       ??_G?$CComObject@VCOPOSPOSPower@@@ATL@@UAEPAXI@Z 10009e50 f i POSPower.obj
 0001:00008e50       ??_E?$CComObject@VCOPOSPOSPower@@@ATL@@UAEPAXI@Z 10009e50 f i POSPower.obj
 0001:00008ea0       ??_G?$CComObjectCached@VCComClassFactory@ATL@@@ATL@@UAEPAXI@Z 10009ea0 f i POSPower.obj
 0001:00008ea0       ??_E?$CComObjectCached@VCComClassFactory@ATL@@@ATL@@UAEPAXI@Z 10009ea0 f i POSPower.obj
 0001:00008ee0       ??_ECComClassFactory@ATL@@UAEPAXI@Z 10009ee0 f i POSPower.obj
 0001:00008ee0       ??_GCComClassFactory@ATL@@UAEPAXI@Z 10009ee0 f i POSPower.obj
 0001:00008f20       ??_ECComModule@ATL@@UAEPAXI@Z 10009f20 f i POSPower.obj
 0001:00008f20       ??_GCComModule@ATL@@UAEPAXI@Z 10009f20 f i POSPower.obj
 0001:00008f60       ??_ECRegObject@ATL@@UAEPAXI@Z 10009f60 f i POSPower.obj
 0001:00008f60       ??_GCRegObject@ATL@@UAEPAXI@Z 10009f60 f i POSPower.obj
 0001:00008fa0       ?Add@?$CSimpleArray@GV?$CSimpleArrayEqualHelper@G@ATL@@@ATL@@QAEHABG@Z 10009fa0 f i POSPower.obj
 0001:000090f0       ?Add@?$CSimpleMap@PA_WPA_WVCExpansionVectorEqualHelper@ATL@@@ATL@@QAEHABQA_W0@Z 1000a0f0 f i POSPower.obj
 0001:000091b0       ?Add@CComDynamicUnkArray@ATL@@QAEKPAUIUnknown@@@Z 1000a1b0 f i POSPower.obj
 0001:00009350       ?Add@CExpansionVector@ATL@@QAEHPB_W0@Z 1000a350 f i POSPower.obj
 0001:000095e0       ?AddChar@CParseBuffer@CRegParser@ATL@@QAEHPB_W@Z 1000a5e0 f i POSPower.obj
 0001:00009620       ?AddCommonRGSReplacements@?$CAtlModuleT@VCComModule@ATL@@@ATL@@UAEJPAUIRegistrarBase@@@Z 1000a620 f i POSPower.obj
 0001:00009670       ?AddCreateWndData@CAtlWinModule@ATL@@QAEXPAU_AtlCreateWndData@2@PAX@Z 1000a670 f i POSPower.obj
 0001:000096a0       ?AddRef@?$CComAggObject@VCOPOSPOSPower@@@ATL@@UAGKXZ 1000a6a0 f i POSPower.obj
 0001:000096c0       ?AddRef@?$CComContainedObject@VCOPOSPOSPower@@@ATL@@UAGKXZ 1000a6c0 f i POSPower.obj
 0001:000096dc       ?AddRef@?$CComContainedObject@VCOPOSPOSPower@@@ATL@@WHA@AGKXZ 1000a6dc f i POSPower.obj
 0001:000096e6       ?AddRef@?$CComContainedObject@VCOPOSPOSPower@@@ATL@@WHE@AGKXZ 1000a6e6 f i POSPower.obj
 0001:000096f0       ?AddRef@?$CComContainedObject@VCOPOSPOSPower@@@ATL@@WHI@AGKXZ 1000a6f0 f i POSPower.obj
 0001:000096fa       ?AddRef@?$CComContainedObject@VCOPOSPOSPower@@@ATL@@WHM@AGKXZ 1000a6fa f i POSPower.obj
 0001:00009704       ?AddRef@?$CComContainedObject@VCOPOSPOSPower@@@ATL@@WIA@AGKXZ 1000a704 f i POSPower.obj
 0001:00009711       ?AddRef@?$CComContainedObject@VCOPOSPOSPower@@@ATL@@WIE@AGKXZ 1000a711 f i POSPower.obj
 0001:0000971e       ?AddRef@?$CComContainedObject@VCOPOSPOSPower@@@ATL@@WII@AGKXZ 1000a71e f i POSPower.obj
 0001:0000972b       ?AddRef@?$CComContainedObject@VCOPOSPOSPower@@@ATL@@WIM@AGKXZ 1000a72b f i POSPower.obj
 0001:00009738       ?AddRef@?$CComContainedObject@VCOPOSPOSPower@@@ATL@@WJA@AGKXZ 1000a738 f i POSPower.obj
 0001:00009745       ?AddRef@?$CComContainedObject@VCOPOSPOSPower@@@ATL@@WJE@AGKXZ 1000a745 f i POSPower.obj
 0001:00009752       ?AddRef@?$CComContainedObject@VCOPOSPOSPower@@@ATL@@WJI@AGKXZ 1000a752 f i POSPower.obj
 0001:0000975f       ?AddRef@?$CComContainedObject@VCOPOSPOSPower@@@ATL@@WJM@AGKXZ 1000a75f f i POSPower.obj
 0001:0000976c       ?AddRef@?$CComContainedObject@VCOPOSPOSPower@@@ATL@@WKA@AGKXZ 1000a76c f i POSPower.obj
 0001:00009779       ?AddRef@?$CComContainedObject@VCOPOSPOSPower@@@ATL@@WKI@AGKXZ 1000a779 f i POSPower.obj
 0001:00009786       ?AddRef@?$CComContainedObject@VCOPOSPOSPower@@@ATL@@WLE@AGKXZ 1000a786 f i POSPower.obj
 0001:000097a0       ?AddRef@?$CComObject@V?$CComEnum@UIEnumConnectionPoints@@$1?_GUID_b196b285_bab4_101a_b69c_00aa00341d07@@3U__s_GUID@@BPAUIConnectionPoint@@V?$_CopyInterface@UIConnectionPoint@@@ATL@@VCComSingleThreadModel@6@@ATL@@@ATL@@UAGKXZ 1000a7a0 f i POSPower.obj
 0001:000097c0       ?AddRef@?$CComObject@V?$CComEnum@UIEnumConnections@@$1?_GUID_b196b287_bab4_101a_b69c_00aa00341d07@@3U__s_GUID@@BUtagCONNECTDATA@@V?$_Copy@UtagCONNECTDATA@@@ATL@@VCComSingleThreadModel@6@@ATL@@@ATL@@UAGKXZ 1000a7c0 f i POSPower.obj
 0001:000097e0       ?AddRef@?$CComObject@VCOPOSPOSPower@@@ATL@@UAGKXZ 1000a7e0 f i POSPower.obj
 0001:000097fc       ?AddRef@?$CComObject@VCOPOSPOSPower@@@ATL@@WHA@AGKXZ 1000a7fc f i POSPower.obj
 0001:00009806       ?AddRef@?$CComObject@VCOPOSPOSPower@@@ATL@@WHE@AGKXZ 1000a806 f i POSPower.obj
 0001:00009810       ?AddRef@?$CComObject@VCOPOSPOSPower@@@ATL@@WHI@AGKXZ 1000a810 f i POSPower.obj
 0001:0000981a       ?AddRef@?$CComObject@VCOPOSPOSPower@@@ATL@@WHM@AGKXZ 1000a81a f i POSPower.obj
 0001:00009824       ?AddRef@?$CComObject@VCOPOSPOSPower@@@ATL@@WIA@AGKXZ 1000a824 f i POSPower.obj
 0001:00009831       ?AddRef@?$CComObject@VCOPOSPOSPower@@@ATL@@WIE@AGKXZ 1000a831 f i POSPower.obj
 0001:0000983e       ?AddRef@?$CComObject@VCOPOSPOSPower@@@ATL@@WII@AGKXZ 1000a83e f i POSPower.obj
 0001:0000984b       ?AddRef@?$CComObject@VCOPOSPOSPower@@@ATL@@WIM@AGKXZ 1000a84b f i POSPower.obj
 0001:00009858       ?AddRef@?$CComObject@VCOPOSPOSPower@@@ATL@@WJA@AGKXZ 1000a858 f i POSPower.obj
 0001:00009865       ?AddRef@?$CComObject@VCOPOSPOSPower@@@ATL@@WJE@AGKXZ 1000a865 f i POSPower.obj
 0001:00009872       ?AddRef@?$CComObject@VCOPOSPOSPower@@@ATL@@WJI@AGKXZ 1000a872 f i POSPower.obj
 0001:0000987f       ?AddRef@?$CComObject@VCOPOSPOSPower@@@ATL@@WJM@AGKXZ 1000a87f f i POSPower.obj
 0001:0000988c       ?AddRef@?$CComObject@VCOPOSPOSPower@@@ATL@@WKA@AGKXZ 1000a88c f i POSPower.obj
 0001:00009899       ?AddRef@?$CComObject@VCOPOSPOSPower@@@ATL@@WKI@AGKXZ 1000a899 f i POSPower.obj
 0001:000098a6       ?AddRef@?$CComObject@VCOPOSPOSPower@@@ATL@@WLE@AGKXZ 1000a8a6 f i POSPower.obj
 0001:000098c0       ?AddRef@?$CComObjectCached@VCComClassFactory@ATL@@@ATL@@UAGKXZ 1000a8c0 f i POSPower.obj
 0001:00009910       ?AddRef@CRegObject@ATL@@UAGKXZ 1000a910 f i POSPower.obj
 0001:00009960       ?AddReplacement@CRegObject@ATL@@UAGJPB_W0@Z 1000a960 f i POSPower.obj
 0001:00009a70       ?AddString@CParseBuffer@CRegParser@ATL@@QAEHPB_W@Z 1000aa70 f i POSPower.obj
 0001:00009b60       ?AddTermFunc@CAtlModule@ATL@@QAEJP6GXK@ZK@Z 1000ab60 f i POSPower.obj
 0001:00009bb0       ?AddValue@CRegParser@ATL@@IAEJAAVCRegKey@2@PB_WPA_W@Z 1000abb0 f i POSPower.obj
 0001:0000a340       ?Advise@?$CProxy_IOPOSEvents@VCOPOSPOSPower@@@@UAGJPAUIUnknown@@PAK@Z 1000b340 f i POSPower.obj
 0001:0000a390       ?Advise@?$IConnectionPointImpl@VCOPOSPOSPower@@$1?DIID__IOPOSPOSPowerEvents@@3U_GUID@@BVCComDynamicUnkArray@ATL@@@ATL@@UAGJPAUIUnknown@@PAK@Z 1000b390 f i POSPower.obj
 0001:0000a530       ?Advise@?$IConnectionPointImpl@VCOPOSPOSPower@@$1?IID_IPropertyNotifySink@@3U_GUID@@BVCComDynamicUnkArray@ATL@@@ATL@@UAGJPAUIUnknown@@PAK@Z 1000b530 f i POSPower.obj
 0001:0000a6d0       ?Advise@?$IOleObjectImpl@VCOPOSPOSPower@@@ATL@@UAGJPAUIAdviseSink@@PAK@Z 1000b6d0 f i POSPower.obj
 0001:0000a760       ?Allocate@?$CAtlSafeAllocBufferManager@VCCRTAllocator@ATL@@@_ATL_SAFE_ALLOCA_IMPL@ATL@@QAEPAXK@Z 1000b760 f i POSPower.obj
 0001:0000a7d0       ?Allocate@?$CTempBuffer@E$0BAA@VCCRTAllocator@ATL@@@ATL@@QAEPAEI@Z 1000b7d0 f i POSPower.obj
 0001:0000a810       ?Allocate@?$CTempBuffer@_W$0BAA@VCCRTAllocator@ATL@@@ATL@@QAEPA_WI@Z 1000b810 f i POSPower.obj
 0001:0000a850       ?Allocate@?$CTempBuffer@_W$0EAA@VCCRTAllocator@ATL@@@ATL@@QAEPA_WI@Z 1000b850 f i POSPower.obj
 0001:0000a890       ?AllocateBytes@?$CTempBuffer@E$0BAA@VCCRTAllocator@ATL@@@ATL@@QAEPAEI@Z 1000b890 f i POSPower.obj
 0001:0000a910       ?AllocateBytes@?$CTempBuffer@_W$0BAA@VCCRTAllocator@ATL@@@ATL@@QAEPA_WI@Z 1000b910 f i POSPower.obj
 0001:0000a990       ?AllocateBytes@?$CTempBuffer@_W$0EAA@VCCRTAllocator@ATL@@@ATL@@QAEPA_WI@Z 1000b990 f i POSPower.obj
 0001:0000aa10       ?AllocateHeap@?$CTempBuffer@E$0BAA@VCCRTAllocator@ATL@@@ATL@@AAEXI@Z 1000ba10 f i POSPower.obj
 0001:0000aa60       ?AllocateHeap@?$CTempBuffer@_W$0BAA@VCCRTAllocator@ATL@@@ATL@@AAEXI@Z 1000ba60 f i POSPower.obj
 0001:0000aab0       ?AllocateHeap@?$CTempBuffer@_W$0EAA@VCCRTAllocator@ATL@@@ATL@@AAEXI@Z 1000bab0 f i POSPower.obj
 0001:0000ab00       ?Append@CParseBuffer@CRegParser@ATL@@QAEHPB_WH@Z 1000bb00 f i POSPower.obj
 0001:0000aca0       ?AtlCallTermFunc@ATL@@YGXPAU_ATL_MODULE70@1@@Z 1000bca0 f i POSPower.obj
 0001:0000ad40       ?AtlCoTaskMemCAlloc@ATL@@YAPAXKK@Z 1000bd40 f i POSPower.obj
 0001:0000add0       ?AtlCoTaskMemRecalloc@ATL@@YAPAXPAXKK@Z 1000bdd0 f i POSPower.obj
 0001:0000ae70       ?AtlComModuleGetClassObject@ATL@@YGJPAU_ATL_COM_MODULE70@1@ABU_GUID@@1PAPAX@Z 1000be70 f i POSPower.obj
 0001:0000b100       ?AtlComModuleRegisterServer@ATL@@YGJPAU_ATL_COM_MODULE70@1@HPBU_GUID@@@Z 1000c100 f i POSPower.obj
 0001:0000b290       ?AtlComModuleUnregisterServer@ATL@@YGJPAU_ATL_COM_MODULE70@1@HPBU_GUID@@@Z 1000c290 f i POSPower.obj
 0001:0000b3c0       ?AtlComQIPtrAssign2@ATL@@YAXPAPAUIUnknown@@PAU2@ABU_GUID@@@Z 1000c3c0 f i POSPower.obj
 0001:0000b440       ?AtlCreateTargetDC@ATL@@YGPAUHDC__@@PAU2@PAUtagDVTARGETDEVICE@@@Z 1000c440 f i POSPower.obj
 0001:0000b5e0       ?AtlCrtErrorCheck@ATL@@YAHH@Z 1000c5e0 f i POSPower.obj
 0001:0000b6b0       ?AtlGetPerUserRegistration@ATL@@YGJPA_N@Z 1000c6b0 f i POSPower.obj
 0001:0000b6e0       ?AtlHiMetricToPixel@ATL@@YGXPBUtagSIZE@@PAU2@@Z 1000c6e0 f i POSPower.obj
 0001:0000b8b0       ?AtlHresultFromLastError@ATL@@YAJXZ 1000c8b0 f i POSPower.obj
 0001:0000b8f0       ?AtlHresultFromWin32@ATL@@YAJK@Z 1000c8f0 f i POSPower.obj
 0001:0000b910       ?AtlIPersistStreamInit_Load@ATL@@YGJPAUIStream@@PBUATL_PROPMAP_ENTRY@1@PAXPAUIUnknown@@@Z 1000c910 f i POSPower.obj
 0001:0000bd70       ?AtlIPersistStreamInit_Save@ATL@@YGJPAUIStream@@HPBUATL_PROPMAP_ENTRY@1@PAXPAUIUnknown@@@Z 1000cd70 f i POSPower.obj
 0001:0000c150       ?AtlInternalOleLoadFromStream@ATL@@YAJPAUIStream@@ABU_GUID@@PAPAXTClassesAllowedInStream@1@K@Z 1000d150 f i POSPower.obj
 0001:0000c3f0       ?AtlInternalQueryInterface@ATL@@YGJPAXPBU_ATL_INTMAP_ENTRY@1@ABU_GUID@@PAPAX@Z 1000d3f0 f i POSPower.obj
 0001:0000c620       ?AtlLoadTypeLib@ATL@@YGJPAUHINSTANCE__@@PB_WPAPA_WPAPAUITypeLib@@@Z 1000d620 f i POSPower.obj
 0001:0000ca80       ?AtlModuleAddTermFunc@ATL@@YGJPAU_ATL_MODULE70@1@P6GXK@ZK@Z 1000da80 f i POSPower.obj
 0001:0000cbe0       ?AtlRegisterClassCategoriesHelper@ATL@@YGJABU_GUID@@PBU_ATL_CATMAP_ENTRY@1@H@Z 1000dbe0 f i POSPower.obj
 0001:0000d2c0       ?AtlRegisterTypeLib@ATL@@YGJPAUHINSTANCE__@@PB_W@Z 1000e2c0 f i POSPower.obj
 0001:0000d600       ?AtlThrowImpl@ATL@@YGXJ@Z  1000e600 f i POSPower.obj
 0001:0000d6b0       ?AtlUnRegisterTypeLib@ATL@@YGJPAUHINSTANCE__@@PB_W@Z 1000e6b0 f i POSPower.obj
 0001:0000d8c0       ?AtlWinModuleAddCreateWndData@ATL@@YGXPAU_ATL_WIN_MODULE70@1@PAU_AtlCreateWndData@1@PAX@Z 1000e8c0 f i POSPower.obj
 0001:0000da30       ?AtlWinModuleExtractCreateWndData@ATL@@YGPAXPAU_ATL_WIN_MODULE70@1@@Z 1000ea30 f i POSPower.obj
 0001:0000dbb0       ?AtlWinModuleRegisterClassExW@ATL@@YGGPAU_ATL_WIN_MODULE70@1@PBUtagWNDCLASSEXW@@@Z 1000ebb0 f i POSPower.obj
 0001:0000dc80       ?AtlWinModuleRegisterWndClassInfoW@ATL@@YGGPAU_ATL_WIN_MODULE70@1@PAU_ATL_BASE_MODULE70@1@PAU_ATL_WNDCLASSINFOW@1@PAP6GJPAUHWND__@@IIJ@Z@Z 1000ec80 f i POSPower.obj
 0001:0000dd10       ?Attach@?$CAutoVectorPtr@_W@ATL@@QAEXPA_W@Z 1000ed10 f i POSPower.obj
 0001:0000dd70       ?Attach@CComBSTR@ATL@@QAEXPA_W@Z 1000ed70 f i POSPower.obj
 0001:0000ddc0       ?Attach@CRegKey@ATL@@QAEXPAUHKEY__@@@Z 1000edc0 f i POSPower.obj
 0001:0000de30       ?CanForceRemoveKey@CRegParser@ATL@@IAEHPB_W@Z 1000ee30 f i POSPower.obj
 0001:0000dea0       ?ChToByte@CRegParser@ATL@@KAE_W@Z 1000eea0 f i POSPower.obj
 0001:0000dfc0       ?ChangeType@CComVariant@ATL@@QAEJGPBUtagVARIANT@@@Z 1000efc0 f i POSPower.obj
 0001:0000e020       ?Cleanup@CComTypeInfoHolder@ATL@@SGXK@Z 1000f020 f i POSPower.obj
 0001:0000e0f0       ?Clear@CComVariant@ATL@@QAEJXZ 1000f0f0 f i POSPower.obj
 0001:0000e130       ?ClearReplacements@CExpansionVector@ATL@@QAEJXZ 1000f130 f i POSPower.obj
 0001:0000e1c0       ?ClearReplacements@CRegObject@ATL@@UAGJXZ 1000f1c0 f i POSPower.obj
 0001:0000e210       ?Clone@?$CComEnumImpl@UIEnumConnectionPoints@@$1?_GUID_b196b285_bab4_101a_b69c_00aa00341d07@@3U__s_GUID@@BPAUIConnectionPoint@@V?$_CopyInterface@UIConnectionPoint@@@ATL@@@ATL@@UAGJPAPAUIEnumConnectionPoints@@@Z 1000f210 f i POSPower.obj
 0001:0000e380       ?Clone@?$CComEnumImpl@UIEnumConnections@@$1?_GUID_b196b287_bab4_101a_b69c_00aa00341d07@@3U__s_GUID@@BUtagCONNECTDATA@@V?$_Copy@UtagCONNECTDATA@@@ATL@@@ATL@@UAGJPAPAUIEnumConnections@@@Z 1000f380 f i POSPower.obj
 0001:0000e4f0       ?Close@?$IOleObjectImpl@VCOPOSPOSPower@@@ATL@@UAGJK@Z 1000f4f0 f i POSPower.obj
 0001:0000e580       ?Close@CRegKey@ATL@@QAEJXZ 1000f580 f i POSPower.obj
 0001:0000e5f0       ?ContextSensitiveHelp@?$IOleInPlaceActiveObjectImpl@VCOPOSPOSPower@@@ATL@@UAGJH@Z 1000f5f0 f i POSPower.obj
 0001:0000e660       ?ContextSensitiveHelp@?$IOleInPlaceObjectWindowlessImpl@VCOPOSPOSPower@@@ATL@@UAGJH@Z 1000f660 f i POSPower.obj
 0001:0000e6d0       ?ControlQueryInterface@?$CComControl@VCOPOSPOSPower@@V?$CWindowImpl@VCOPOSPOSPower@@VCWindow@ATL@@V?$CWinTraits@$0FGAAAAAA@$0A@@3@@ATL@@@ATL@@UAEJABU_GUID@@PAPAX@Z 1000f6d0 f i POSPower.obj
 0001:0000e750       ?CreateControlWindow@?$CComControl@VCOPOSPOSPower@@V?$CWindowImpl@VCOPOSPOSPower@@VCWindow@ATL@@V?$CWinTraits@$0FGAAAAAA@$0A@@3@@ATL@@@ATL@@UAEPAUHWND__@@PAU3@AAUtagRECT@@@Z 1000f750 f i POSPower.obj
 0001:0000e7d0       ?CreateInstance@?$CComCreator@V?$CComAggObject@VCOPOSPOSPower@@@ATL@@@ATL@@SGJPAXABU_GUID@@PAPAX@Z 1000f7d0 f i POSPower.obj
 0001:0000e950       ?CreateInstance@?$CComCreator@V?$CComObject@VCOPOSPOSPower@@@ATL@@@ATL@@SGJPAXABU_GUID@@PAPAX@Z 1000f950 f i POSPower.obj
 0001:0000eae0       ?CreateInstance@?$CComObject@V?$CComEnum@UIEnumConnectionPoints@@$1?_GUID_b196b285_bab4_101a_b69c_00aa00341d07@@3U__s_GUID@@BPAUIConnectionPoint@@V?$_CopyInterface@UIConnectionPoint@@@ATL@@VCComSingleThreadModel@6@@ATL@@@ATL@@SGJPAPAV12@@Z 1000fae0 f i POSPower.obj
 0001:0000ec50       ?CreateInstance@?$CComObject@V?$CComEnum@UIEnumConnections@@$1?_GUID_b196b287_bab4_101a_b69c_00aa00341d07@@3U__s_GUID@@BUtagCONNECTDATA@@V?$_Copy@UtagCONNECTDATA@@@ATL@@VCComSingleThreadModel@6@@ATL@@@ATL@@SGJPAPAV12@@Z 1000fc50 f i POSPower.obj
 0001:0000edc0       ?CreateInstance@CComClassFactory@ATL@@UAGJPAUIUnknown@@ABU_GUID@@PAPAX@Z 1000fdc0 f i POSPower.obj
 0001:0000eeb0       ?DAdvise@?$IDataObjectImpl@VCOPOSPOSPower@@@ATL@@UAGJPAUtagFORMATETC@@KPAUIAdviseSink@@PAK@Z 1000feb0 f i POSPower.obj
 0001:0000efb0       ?DEVMODEOLE2T_EX@@YAPAU_devicemodeW@@PAU1@@Z 1000ffb0 f i POSPower.obj
 0001:0000efc0       ?DUnadvise@?$IDataObjectImpl@VCOPOSPOSPower@@@ATL@@UAGJK@Z 1000ffc0 f i POSPower.obj
 0001:0000f090       ?Decrement@CComMultiThreadModel@ATL@@SGKPAJ@Z 10010090 f i POSPower.obj
 0001:0000f0b0       ?Decrement@CComSingleThreadModel@ATL@@SGKPAJ@Z 100100b0 f i POSPower.obj
 0001:0000f0d0       ?DefWindowProcW@?$CWindowImplBaseT@VCWindow@ATL@@V?$CWinTraits@$0FGAAAAAA@$0A@@2@@ATL@@QAEJIIJ@Z 100100d0 f i POSPower.obj
 0001:0000f120       ?DefaultReflectionHandler@?$CWindowImplRoot@VCWindow@ATL@@@ATL@@SAHPAUHWND__@@IIJAAJ@Z 10010120 f i POSPower.obj
 0001:0000f3b0       ?DeleteSubKey@CRegKey@ATL@@QAEJPB_W@Z 100103b0 f i POSPower.obj
 0001:0000f4c0       ?DeleteValue@CRegKey@ATL@@QAEJPB_W@Z 100104c0 f i POSPower.obj
 0001:0000f530       ?Detach@?$CAutoVectorPtr@_W@ATL@@QAEPA_WXZ 10010530 f i POSPower.obj
 0001:0000f560       ?Detach@?$CComPtrBase@UIPersistStream@@@ATL@@QAEPAUIPersistStream@@XZ 10010560 f i POSPower.obj
 0001:0000f590       ?Detach@?$CComPtrBase@UITypeInfo@@@ATL@@QAEPAUITypeInfo@@XZ 10010590 f i POSPower.obj
 0001:0000f5c0       ?Detach@?$CComPtrBase@UIUnknown@@@ATL@@QAEPAUIUnknown@@XZ 100105c0 f i POSPower.obj
 0001:0000f5f0       ?Detach@CComBSTR@ATL@@QAEPA_WXZ 100105f0 f i POSPower.obj
 0001:0000f620       ?Detach@CParseBuffer@CRegParser@ATL@@QAEPA_WXZ 10010620 f i POSPower.obj
 0001:0000f660       ?Detach@CRegKey@ATL@@QAEPAUHKEY__@@XZ 10010660 f i POSPower.obj
 0001:0000f6a0       ?DoEvent@COPOSPOSPower@@IAEXIIJ@Z 100106a0 f i POSPower.obj
 0001:0000f7e0       ?DoVerb@?$IOleObjectImpl@VCOPOSPOSPower@@@ATL@@UAGJJPAUtagMSG@@PAUIOleClientSite@@JPAUHWND__@@PBUtagRECT@@@Z 100107e0 f i POSPower.obj
 0001:0000f9f0       ?DoVerbDiscardUndo@?$IOleObjectImpl@VCOPOSPOSPower@@@ATL@@QAEJPBUtagRECT@@PAUHWND__@@@Z 100109f0 f i POSPower.obj
 0001:0000fa60       ?DoVerbHide@?$IOleObjectImpl@VCOPOSPOSPower@@@ATL@@QAEJPBUtagRECT@@PAUHWND__@@@Z 10010a60 f i POSPower.obj
 0001:0000fb10       ?DoVerbInPlaceActivate@?$IOleObjectImpl@VCOPOSPOSPower@@@ATL@@QAEJPBUtagRECT@@PAUHWND__@@@Z 10010b10 f i POSPower.obj
 0001:0000fbb0       ?DoVerbOpen@?$IOleObjectImpl@VCOPOSPOSPower@@@ATL@@QAEJPBUtagRECT@@PAUHWND__@@@Z 10010bb0 f i POSPower.obj
 0001:0000fc20       ?DoVerbPrimary@?$IOleObjectImpl@VCOPOSPOSPower@@@ATL@@QAEJPBUtagRECT@@PAUHWND__@@@Z 10010c20 f i POSPower.obj
 0001:0000fd30       ?DoVerbProperties@CComControlBase@ATL@@QAEJPBUtagRECT@@PAUHWND__@@@Z 10010d30 f i POSPower.obj
 0001:00010050       ?DoVerbShow@?$IOleObjectImpl@VCOPOSPOSPower@@@ATL@@QAEJPBUtagRECT@@PAUHWND__@@@Z 10011050 f i POSPower.obj
 0001:000100e0       ?DoVerbUIActivate@?$IOleObjectImpl@VCOPOSPOSPower@@@ATL@@QAEJPBUtagRECT@@PAUHWND__@@@Z 100110e0 f i POSPower.obj
 0001:00010180       ?DoesVerbActivate@CComControlBase@ATL@@QAEHJ@Z 10011180 f i POSPower.obj
 0001:000101e0       ?DoesVerbUIActivate@CComControlBase@ATL@@QAEHJ@Z 100111e0 f i POSPower.obj
 0001:00010260       ?Draw@?$IViewObjectExImpl@VCOPOSPOSPower@@@ATL@@UAGJKJPAXPAUtagDVTARGETDEVICE@@PAUHDC__@@2PBU_RECTL@@3P6GHK@ZK@Z 10011260 f i POSPower.obj
 0001:00010300       ?Empty@CComBSTR@ATL@@QAEXXZ 10011300 f i POSPower.obj
 0001:00010340       ?EnableModeless@?$IOleInPlaceActiveObjectImpl@VCOPOSPOSPower@@@ATL@@UAGJH@Z 10011340 f i POSPower.obj
 0001:000103a0       ?EndOfVar@CRegParser@ATL@@IAEHXZ 100113a0 f i POSPower.obj
 0001:00010410       ?EnsureTI@CComTypeInfoHolder@ATL@@QAEJK@Z 10011410 f i POSPower.obj
 0001:00010470       ?EnumAdvise@?$IOleObjectImpl@VCOPOSPOSPower@@@ATL@@UAGJPAPAUIEnumSTATDATA@@@Z 10011470 f i POSPower.obj
 0001:00010580       ?EnumConnectionPoints@?$IConnectionPointContainerImpl@VCOPOSPOSPower@@@ATL@@UAGJPAPAUIEnumConnectionPoints@@@Z 10011580 f i POSPower.obj
 0001:000109b0       ?EnumConnections@?$IConnectionPointImpl@VCOPOSPOSPower@@$1?DIID__IOPOSPOSPowerEvents@@3U_GUID@@BVCComDynamicUnkArray@ATL@@@ATL@@UAGJPAPAUIEnumConnections@@@Z 100119b0 f i POSPower.obj
 0001:00010c00       ?EnumConnections@?$IConnectionPointImpl@VCOPOSPOSPower@@$1?IID_IPropertyNotifySink@@3U_GUID@@BVCComDynamicUnkArray@ATL@@@ATL@@UAGJPAPAUIEnumConnections@@@Z 10011c00 f i POSPower.obj
 0001:00010e50       ?EnumDAdvise@?$IDataObjectImpl@VCOPOSPOSPower@@@ATL@@UAGJPAPAUIEnumSTATDATA@@@Z 10011e50 f i POSPower.obj
 0001:00010f50       ?EnumFormatEtc@?$IDataObjectImpl@VCOPOSPOSPower@@@ATL@@UAGJKPAPAUIEnumFORMATETC@@@Z 10011f50 f i POSPower.obj
 0001:00010fc0       ?EnumVerbs@?$IOleObjectImpl@VCOPOSPOSPower@@@ATL@@UAGJPAPAUIEnumOLEVERB@@@Z 10011fc0 f i POSPower.obj
 0001:00011070       ?EscapeSingleQuote@CAtlModule@ATL@@SAXPA_WIPB_W@Z 10012070 f i POSPower.obj
 0001:00011110       ?ExtractCreateWndData@CAtlWinModule@ATL@@QAEPAXXZ 10012110 f i POSPower.obj
 0001:00011140       ?FAccessAllowed@?$IObjectSafetyImpl@VCOPOSPOSPower@@$02@ATL@@MAEHXZ 10012140 f i POSPower.obj
 0001:00011150       ?FinalConstruct@?$CComAggObject@VCOPOSPOSPower@@@ATL@@QAEJXZ 10012150 f i POSPower.obj
 0001:00011190       ?FinalConstruct@CComObjectRootBase@ATL@@QAEJXZ 10012190 f i POSPower.obj
 0001:000111a0       ?FinalConstruct@CRegObject@ATL@@QAEJXZ 100121a0 f i POSPower.obj
 0001:000111d0       ?FinalRelease@?$CComAggObject@VCOPOSPOSPower@@@ATL@@QAEXXZ 100121d0 f i POSPower.obj
 0001:00011210       ?FinalRelease@CComObjectRootBase@ATL@@QAEXXZ 10012210 f i POSPower.obj
 0001:00011220       ?FindConnectionPoint@?$IConnectionPointContainerImpl@VCOPOSPOSPower@@@ATL@@UAGJABU_GUID@@PAPAUIConnectionPoint@@@Z 10012220 f i POSPower.obj
 0001:00011370       ?FindKey@?$CSimpleMap@PA_WPA_WVCExpansionVectorEqualHelper@ATL@@@ATL@@QBEHABQA_W@Z 10012370 f i POSPower.obj
 0001:000113e0       ?FireTheEvent@?$CProxy_IOPOSEvents@VCOPOSPOSPower@@@@IAEXPAUIUnknown@@PAVOposVariant@@IAAJPB_WJ@Z 100123e0 f i POSPower.obj
 0001:00011550       ?FireViewChange@CComControlBase@ATL@@QAEJXZ 10012550 f i POSPower.obj
 0001:00011610       ?Fire_DirectIOEvent@?$CProxy_IOPOSEvents@VCOPOSPOSPower@@@@QAEXJPAJPAPA_W@Z 10012610 f i POSPower.obj
 0001:000117e0       ?Fire_StatusUpdateEvent@?$CProxy_IOPOSEvents@VCOPOSPOSPower@@@@QAEXJ@Z 100127e0 f i POSPower.obj
 0001:00011940       ?FormatWindowClassName@AtlModuleRegisterWndClassInfoParamW@ATL@@SAXPA_WKPAX@Z 10012940 f i POSPower.obj
 0001:00011970       ?Free@?$CAutoVectorPtr@_W@ATL@@QAEXXZ 10012970 f i POSPower.obj
 0001:000119c0       ?FreeHeap@?$CTempBuffer@E$0BAA@VCCRTAllocator@ATL@@@ATL@@AAEXXZ 100129c0 f i POSPower.obj
 0001:000119f0       ?FreeHeap@?$CTempBuffer@_W$0BAA@VCCRTAllocator@ATL@@@ATL@@AAEXXZ 100129f0 f i POSPower.obj
 0001:00011a20       ?FreeHeap@?$CTempBuffer@_W$0EAA@VCCRTAllocator@ATL@@@ATL@@AAEXXZ 10012a20 f i POSPower.obj
 0001:00011a50       ?Freeze@?$IViewObjectExImpl@VCOPOSPOSPower@@@ATL@@UAGJKJPAXPAK@Z 10012a50 f i POSPower.obj
 0001:00011ac0       ?GenerateError@CRegParser@ATL@@IAEJI@Z 10012ac0 f i POSPower.obj
 0001:00011ae0       ?GetAdvise@?$IViewObjectExImpl@VCOPOSPOSPower@@@ATL@@UAGJPAK0PAPAUIAdviseSink@@@Z 10012ae0 f i POSPower.obj
 0001:00011be0       ?GetAmbientLocaleID@CComControlBase@ATL@@QAEJAAK@Z 10012be0 f i POSPower.obj
 0001:00011cc0       ?GetAmbientProperty@CComControlBase@ATL@@QAEJJAAUtagVARIANT@@@Z 10012cc0 f i POSPower.obj
 0001:00011d10       ?GetAmbientUserMode@CComControlBase@ATL@@QAEJAAH@Z 10012d10 f i POSPower.obj
 0001:00011e10       ?GetAppId@?$CAtlModuleT@VCComModule@ATL@@@ATL@@SAPB_WXZ 10012e10 f i POSPower.obj
 0001:00011e20       ?GetAt@CComDynamicUnkArray@ATL@@QAEPAUIUnknown@@H@Z 10012e20 f i POSPower.obj
 0001:00011ea0       ?GetCanonicalFormatEtc@?$IDataObjectImpl@VCOPOSPOSPower@@@ATL@@UAGJPAUtagFORMATETC@@0@Z 10012ea0 f i POSPower.obj
 0001:00011f10       ?GetClassID@?$IPersistStorageImpl@VCOPOSPOSPower@@@ATL@@UAGJPAU_GUID@@@Z 10012f10 f i POSPower.obj
 0001:00011f90       ?GetClassID@?$IPersistStreamInitImpl@VCOPOSPOSPower@@@ATL@@UAGJPAU_GUID@@@Z 10012f90 f i POSPower.obj
 0001:00012010       ?GetClassInfoExW@AtlModuleRegisterWndClassInfoParamW@ATL@@SAHPAUHINSTANCE__@@PB_WPAUtagWNDCLASSEXW@@@Z 10013010 f i POSPower.obj
 0001:00012040       ?GetClassInfoW@?$IProvideClassInfo2Impl@$1?CLSID_OPOSPOSPower@@3U_GUID@@B$1?DIID__IOPOSPOSPowerEvents@@3U2@B$1?LIBID_OposPOSPower_CCO@@3U2@B$00$0A@VCComTypeInfoHolder@ATL@@@ATL@@UAGJPAPAUITypeInfo@@@Z 10013040 f i POSPower.obj
 0001:00012060       ?GetClassObject@CComModule@ATL@@QAEJABU_GUID@@0PAPAX@Z 10013060 f i POSPower.obj
 0001:00012260       ?GetClientSite@?$IOleObjectImpl@VCOPOSPOSPower@@@ATL@@UAGJPAPAUIOleClientSite@@@Z 10013260 f i POSPower.obj
 0001:000122f0       ?GetClipboardData@?$IOleObjectImpl@VCOPOSPOSPower@@@ATL@@UAGJKPAPAUIDataObject@@@Z 100132f0 f i POSPower.obj
 0001:00012360       ?GetCodeAddress@CDynamicStdCallThunk2@ATL@@QAEPAXXZ 10013360 f i POSPower.obj
 0001:00012390       ?GetColorSet@?$IViewObjectExImpl@VCOPOSPOSPower@@@ATL@@UAGJKJPAXPAUtagDVTARGETDEVICE@@PAUHDC__@@PAPAUtagLOGPALETTE@@@Z 10013390 f i POSPower.obj
 0001:00012400       ?GetConnMap@COPOSPOSPower@@SAPBU_ATL_CONNMAP_ENTRY@ATL@@PAH@Z 10013400 f i POSPower.obj
 0001:00012540       ?GetConnectionInterface@?$IConnectionPointImpl@VCOPOSPOSPower@@$1?DIID__IOPOSPOSPowerEvents@@3U_GUID@@BVCComDynamicUnkArray@ATL@@@ATL@@UAGJPAU_GUID@@@Z 10013540 f i POSPower.obj
 0001:00012580       ?GetConnectionInterface@?$IConnectionPointImpl@VCOPOSPOSPower@@$1?IID_IPropertyNotifySink@@3U_GUID@@BVCComDynamicUnkArray@ATL@@@ATL@@UAGJPAU_GUID@@@Z 10013580 f i POSPower.obj
 0001:000125c0       ?GetConnectionPointContainer@?$IConnectionPointImpl@VCOPOSPOSPower@@$1?DIID__IOPOSPOSPowerEvents@@3U_GUID@@BVCComDynamicUnkArray@ATL@@@ATL@@UAGJPAPAUIConnectionPointContainer@@@Z 100135c0 f i POSPower.obj
 0001:00012630       ?GetConnectionPointContainer@?$IConnectionPointImpl@VCOPOSPOSPower@@$1?IID_IPropertyNotifySink@@3U_GUID@@BVCComDynamicUnkArray@ATL@@@ATL@@UAGJPAPAUIConnectionPointContainer@@@Z 10013630 f i POSPower.obj
 0001:000126a0       ?GetContentExtent@?$IQuickActivateImpl@VCOPOSPOSPower@@@ATL@@UAGJPAUtagSIZE@@@Z 100136a0 f i POSPower.obj
 0001:00012730       ?GetControlInfo@?$IOleControlImpl@VCOPOSPOSPower@@@ATL@@UAGJPAUtagCONTROLINFO@@@Z 10013730 f i POSPower.obj
 0001:000127a0       ?GetCookie@CComDynamicUnkArray@ATL@@QAGKPAPAUIUnknown@@@Z 100137a0 f i POSPower.obj
 0001:00012860       ?GetData@?$IDataObjectImpl@VCOPOSPOSPower@@@ATL@@UAGJPAUtagFORMATETC@@PAUtagSTGMEDIUM@@@Z 10013860 f i POSPower.obj
 0001:000128f0       ?GetData@CAtlSafeAllocBufferNode@?$CAtlSafeAllocBufferManager@VCCRTAllocator@ATL@@@_ATL_SAFE_ALLOCA_IMPL@ATL@@QAEPAXXZ 100138f0 f i POSPower.obj
 0001:00012910       ?GetDataHere@?$IDataObjectImpl@VCOPOSPOSPower@@@ATL@@UAGJPAUtagFORMATETC@@PAUtagSTGMEDIUM@@@Z 10013910 f i POSPower.obj
 0001:00012980       ?GetDropTarget@?$IOleInPlaceObjectWindowlessImpl@VCOPOSPOSPower@@@ATL@@UAGJPAPAUIDropTarget@@@Z 10013980 f i POSPower.obj
 0001:000129f0       ?GetExtent@?$IOleObjectImpl@VCOPOSPOSPower@@@ATL@@UAGJKPAUtagSIZE@@@Z 100139f0 f i POSPower.obj
 0001:00012a90       ?GetExtent@?$IViewObjectExImpl@VCOPOSPOSPower@@@ATL@@UAGJKJPAUtagDVTARGETDEVICE@@PAUtagSIZE@@@Z 10013a90 f i POSPower.obj
 0001:00012b60       ?GetGITPtr@CAtlModule@ATL@@UAEJPAPAUIGlobalInterfaceTable@@@Z 10013b60 f i POSPower.obj
 0001:00012c60       ?GetGUID@?$IProvideClassInfo2Impl@$1?CLSID_OPOSPOSPower@@3U_GUID@@B$1?DIID__IOPOSPOSPowerEvents@@3U2@B$1?LIBID_OposPOSPower_CCO@@3U2@B$00$0A@VCComTypeInfoHolder@ATL@@@ATL@@UAGJKPAU_GUID@@@Z 10013c60 f i POSPower.obj
 0001:00012ce0       ?GetIDsOfNames@?$IDispatchImpl@UIOPOSPOSPower@@$1?IID_IOPOSPOSPower@@3U_GUID@@B$1?LIBID_OposPOSPower_CCO@@3U3@B$00$0A@VCComTypeInfoHolder@ATL@@@ATL@@UAGJABU_GUID@@PAPA_WIKPAJ@Z 10013ce0 f i POSPower.obj
 0001:00012d10       ?GetIDsOfNames@CComTypeInfoHolder@ATL@@QAEJABU_GUID@@PAPA_WIKPAJ@Z 10013d10 f i POSPower.obj
 0001:00012ec0       ?GetInterfaceSafetyOptions@?$IObjectSafetyImpl@VCOPOSPOSPower@@$02@ATL@@UAGJABU_GUID@@PAK1@Z 10013ec0 f i POSPower.obj
 0001:00013030       ?GetKeyAt@?$CSimpleMap@PA_WPA_WVCExpansionVectorEqualHelper@ATL@@@ATL@@QBEAAPA_WH@Z 10014030 f i POSPower.obj
 0001:000130b0       ?GetLockCount@CAtlModule@ATL@@UAEJXZ 100140b0 f i POSPower.obj
 0001:000130d0       ?GetMiscStatus@?$IOleObjectImpl@VCOPOSPOSPower@@@ATL@@UAGJKPAK@Z 100140d0 f i POSPower.obj
 0001:00013140       ?GetMoniker@?$IOleObjectImpl@VCOPOSPOSPower@@@ATL@@UAGJKKPAPAUIMoniker@@@Z 10014140 f i POSPower.obj
 0001:000131b0       ?GetNaturalExtent@?$IViewObjectExImpl@VCOPOSPOSPower@@@ATL@@UAGJKJPAUtagDVTARGETDEVICE@@PAUHDC__@@PAUtagExtentInfo@@PAUtagSIZE@@@Z 100141b0 f i POSPower.obj
 0001:000132d0       ?GetObjectCLSID@?$CComCoClass@VCOPOSPOSPower@@$1?CLSID_OPOSPOSPower@@3U_GUID@@B@ATL@@SGABU_GUID@@XZ 100142d0 f i POSPower.obj
 0001:000132e0       ?GetPages@?$ISpecifyPropertyPagesImpl@VCOPOSPOSPower@@@ATL@@UAGJPAUtagCAUUID@@@Z 100142e0 f i POSPower.obj
 0001:00013350       ?GetPagesHelper@?$ISpecifyPropertyPagesImpl@VCOPOSPOSPower@@@ATL@@IAEJPAUtagCAUUID@@PBUATL_PROPMAP_ENTRY@2@@Z 10014350 f i POSPower.obj
 0001:00013550       ?GetProperty@?$CComPtr@UIDispatch@@@ATL@@QAEJJPAUtagVARIANT@@@Z 10014550 f i POSPower.obj
 0001:00013590       ?GetProperty@?$CComPtr@UIDispatch@@@ATL@@SAJPAUIDispatch@@JPAUtagVARIANT@@@Z 10014590 f i POSPower.obj
 0001:000136f0       ?GetPropertyMap@COPOSPOSPower@@SAPBUATL_PROPMAP_ENTRY@ATL@@XZ 100146f0 f i POSPower.obj
 0001:00013700       ?GetRect@?$IViewObjectExImpl@VCOPOSPOSPower@@@ATL@@UAGJKPAU_RECTL@@@Z 10014700 f i POSPower.obj
 0001:00013770       ?GetSize@?$CSimpleMap@PA_WPA_WVCExpansionVectorEqualHelper@ATL@@@ATL@@QBEHXZ 10014770 f i POSPower.obj
 0001:00013790       ?GetSize@CComDynamicUnkArray@ATL@@QBEHXZ 10014790 f i POSPower.obj
 0001:000137b0       ?GetSizeMax@?$IPersistStreamInitImpl@VCOPOSPOSPower@@@ATL@@UAGJPAT_ULARGE_INTEGER@@@Z 100147b0 f i POSPower.obj
 0001:00013d20       ?GetSizeMax@CComVariant@ATL@@QBEJPAT_ULARGE_INTEGER@@@Z 10014d20 f i POSPower.obj
 0001:000140a0       ?GetStreamSize@CComBSTR@ATL@@SAKPA_W@Z 100150a0 f i POSPower.obj
 0001:000140f0       ?GetTI@CComTypeInfoHolder@ATL@@QAEJK@Z 100150f0 f i POSPower.obj
 0001:00014900       ?GetTI@CComTypeInfoHolder@ATL@@QAEJKPAPAUITypeInfo@@@Z 10015900 f i POSPower.obj
 0001:000149c0       ?GetTypeInfo@?$IDispatchImpl@UIOPOSPOSPower@@$1?IID_IOPOSPOSPower@@3U_GUID@@B$1?LIBID_OposPOSPower_CCO@@3U3@B$00$0A@VCComTypeInfoHolder@ATL@@@ATL@@UAGJIKPAPAUITypeInfo@@@Z 100159c0 f i POSPower.obj
 0001:000149f0       ?GetTypeInfo@CComTypeInfoHolder@ATL@@QAEJIKPAPAUITypeInfo@@@Z 100159f0 f i POSPower.obj
 0001:00014a30       ?GetTypeInfoCount@?$IDispatchImpl@UIOPOSPOSPower@@$1?IID_IOPOSPOSPower@@3U_GUID@@B$1?LIBID_OposPOSPower_CCO@@3U3@B$00$0A@VCComTypeInfoHolder@ATL@@@ATL@@UAGJPAI@Z 10015a30 f i POSPower.obj
 0001:00014a50       ?GetUnknown@CComDynamicUnkArray@ATL@@QAGPAUIUnknown@@K@Z 10015a50 f i POSPower.obj
 0001:00014ac0       ?GetUnknown@COPOSPOSPower@@QAEPAUIUnknown@@XZ 10015ac0 f i POSPower.obj
 0001:00014af0       ?GetUserClassID@?$IOleObjectImpl@VCOPOSPOSPower@@@ATL@@UAGJPAU_GUID@@@Z 10015af0 f i POSPower.obj
 0001:00014ba0       ?GetUserType@?$IOleObjectImpl@VCOPOSPOSPower@@@ATL@@UAGJKPAPA_W@Z 10015ba0 f i POSPower.obj
 0001:00014c10       ?GetValueAt@?$CSimpleMap@PA_WPA_WVCExpansionVectorEqualHelper@ATL@@@ATL@@QBEAAPA_WH@Z 10015c10 f i POSPower.obj
 0001:00014c90       ?GetViewStatus@?$IViewObjectExImpl@VCOPOSPOSPower@@@ATL@@UAGJPAK@Z 10015c90 f i POSPower.obj
 0001:00014d50       ?GetWNDPROC@CWndProcThunk@ATL@@QAEP6GJPAUHWND__@@IIJ@ZXZ 10015d50 f i POSPower.obj
 0001:00014d80       ?GetWindow@?$IOleInPlaceActiveObjectImpl@VCOPOSPOSPower@@@ATL@@UAGJPAPAUHWND__@@@Z 10015d80 f i POSPower.obj
 0001:00014e50       ?GetWindow@?$IOleInPlaceObjectWindowlessImpl@VCOPOSPOSPower@@@ATL@@UAGJPAPAUHWND__@@@Z 10015e50 f i POSPower.obj
 0001:00014f20       ?GetWindowLongPtrW@@YAJPAUHWND__@@H@Z 10015f20 f i POSPower.obj
 0001:00014f50       ?GetWindowProc@?$CWindowImplBaseT@VCWindow@ATL@@V?$CWinTraits@$0FGAAAAAA@$0A@@2@@ATL@@UAEP6GJPAUHWND__@@IIJ@ZXZ 10015f50 f i POSPower.obj
 0001:00014f60       ?GetWndCaption@?$CWindowImpl@VCOPOSPOSPower@@VCWindow@ATL@@V?$CWinTraits@$0FGAAAAAA@$0A@@3@@ATL@@SAPB_WXZ 10015f60 f i POSPower.obj
 0001:00014f70       ?GetWndClassInfo@?$CWindowImpl@VCOPOSPOSPower@@VCWindow@ATL@@V?$CWinTraits@$0FGAAAAAA@$0A@@3@@ATL@@SAAAU_ATL_WNDCLASSINFOW@2@XZ 10015f70 f i POSPower.obj
 0001:00014f80       ?GetWndClassName@CWindow@ATL@@SAPB_WXZ 10015f80 f i POSPower.obj
 0001:00014f90       ?GetWndExStyle@?$CWinTraits@$0FGAAAAAA@$0A@@ATL@@SAKK@Z 10015f90 f i POSPower.obj
 0001:00014fb0       ?GetWndExStyle@?$CWindowImplBaseT@VCWindow@ATL@@V?$CWinTraits@$0FGAAAAAA@$0A@@2@@ATL@@SAKK@Z 10015fb0 f i POSPower.obj
 0001:00014fd0       ?GetWndStyle@?$CWinTraits@$0FGAAAAAA@$0A@@ATL@@SAKK@Z 10015fd0 f i POSPower.obj
 0001:00014ff0       ?GetWndStyle@?$CWindowImplBaseT@VCWindow@ATL@@V?$CWinTraits@$0FGAAAAAA@$0A@@2@@ATL@@SAKK@Z 10015ff0 f i POSPower.obj
 0001:00015010       ?GetZoomInfo@CComControlBase@ATL@@QAEXAAUATL_DRAWINFO@@@Z 10016010 f i POSPower.obj
 0001:00015180       ?HKeyFromString@CRegParser@ATL@@KAPAUHKEY__@@PA_W@Z 10016180 f i POSPower.obj
 0001:000151f0       ?HandsOffStorage@?$IPersistStorageImpl@VCOPOSPOSPower@@@ATL@@UAGJXZ 100161f0 f i POSPower.obj
 0001:00015250       ?HasSubKeys@CRegParser@ATL@@IAEHPAUHKEY__@@@Z 10016250 f i POSPower.obj
 0001:00015360       ?IDataObject_GetData@CComControlBase@ATL@@QAEJPAUtagFORMATETC@@PAUtagSTGMEDIUM@@@Z 10016360 f i POSPower.obj
 0001:00015780       ?IOleInPlaceObject_InPlaceDeactivate@CComControlBase@ATL@@QAEJXZ 10016780 f i POSPower.obj
 0001:00015980       ?IOleInPlaceObject_SetObjectRects@CComControlBase@ATL@@QAEJPBUtagRECT@@0@Z 10016980 f i POSPower.obj
 0001:00015b40       ?IOleInPlaceObject_UIDeactivate@CComControlBase@ATL@@QAEJXZ 10016b40 f i POSPower.obj
 0001:00015db0       ?IOleObject_Advise@CComControlBase@ATL@@QAEJPAUIAdviseSink@@PAK@Z 10016db0 f i POSPower.obj
 0001:00015e60       ?IOleObject_Close@CComControlBase@ATL@@QAEJK@Z 10016e60 f i POSPower.obj
 0001:00016110       ?IOleObject_GetClientSite@CComControlBase@ATL@@QAEJPAPAUIOleClientSite@@@Z 10017110 f i POSPower.obj
 0001:000161b0       ?IOleObject_SetClientSite@CComControlBase@ATL@@QAEJPAUIOleClientSite@@@Z 100171b0 f i POSPower.obj
 0001:00016280       ?IOleObject_SetExtent@CComControlBase@ATL@@QAEJKPAUtagSIZE@@@Z 10017280 f i POSPower.obj
 0001:000163c0       ?IPSI_GetIPersistStreamInit@?$IPersistStorageImpl@VCOPOSPOSPower@@@ATL@@AAEPAUIPersistStreamInit@@XZ 100173c0 f i POSPower.obj
 0001:00016490       ?IPersistStreamInit_Load@?$IPersistStreamInitImpl@VCOPOSPOSPower@@@ATL@@QAEJPAUIStream@@PBUATL_PROPMAP_ENTRY@2@@Z 10017490 f i POSPower.obj
 0001:00016510       ?IPersistStreamInit_Save@?$IPersistStreamInitImpl@VCOPOSPOSPower@@@ATL@@QAEJPAUIStream@@HPBUATL_PROPMAP_ENTRY@2@@Z 10017510 f i POSPower.obj
 0001:000165a0       ?IQuickActivate_QuickActivate@CComControlBase@ATL@@QAEJPAUtagQACONTAINER@@PAUtagQACONTROL@@@Z 100175a0 f i POSPower.obj
 0001:00016bf0       ?IViewObject_Draw@CComControlBase@ATL@@QAEJKJPAXPAUtagDVTARGETDEVICE@@PAUHDC__@@2PBU_RECTL@@3@Z 10017bf0 f i POSPower.obj
 0001:00016e90       ?InPlaceActivate@CComControlBase@ATL@@QAEJJPBUtagRECT@@@Z 10017e90 f i POSPower.obj
 0001:00017820       ?InPlaceDeactivate@?$IOleInPlaceObjectWindowlessImpl@VCOPOSPOSPower@@@ATL@@UAGJXZ 10018820 f i POSPower.obj
 0001:000178a0       ?Increment@CComMultiThreadModel@ATL@@SGKPAJ@Z 100188a0 f i POSPower.obj
 0001:000178c0       ?Increment@CComSingleThreadModel@ATL@@SGKPAJ@Z 100188c0 f i POSPower.obj
 0001:000178e0       ?Init@?$CComEnumImpl@UIEnumConnectionPoints@@$1?_GUID_b196b285_bab4_101a_b69c_00aa00341d07@@3U__s_GUID@@BPAUIConnectionPoint@@V?$_CopyInterface@UIConnectionPoint@@@ATL@@@ATL@@QAEJPAPAUIConnectionPoint@@0PAUIUnknown@@W4CComEnumFlags@2@@Z 100188e0 f i POSPower.obj
 0001:00017ac0       ?Init@?$CComEnumImpl@UIEnumConnections@@$1?_GUID_b196b287_bab4_101a_b69c_00aa00341d07@@3U__s_GUID@@BUtagCONNECTDATA@@V?$_Copy@UtagCONNECTDATA@@@ATL@@@ATL@@QAEJPAUtagCONNECTDATA@@0PAUIUnknown@@W4CComEnumFlags@2@@Z 10018ac0 f i POSPower.obj
 0001:00017ca0       ?Init@CComFakeCriticalSection@ATL@@QAEJXZ 10018ca0 f i POSPower.obj
 0001:00017cb0       ?Init@CComModule@ATL@@QAEJPAU_ATL_OBJMAP_ENTRY30@2@PAUHINSTANCE__@@PBU_GUID@@@Z 10018cb0 f i POSPower.obj
 0001:00017da0       ?Init@CComSafeDeleteCriticalSection@ATL@@QAEJXZ 10018da0 f i POSPower.obj
 0001:00017e20       ?Init@CDynamicStdCallThunk2@ATL@@QAEHKPAX@Z 10018e20 f i POSPower.obj
 0001:00017e80       ?Init@CWndProcThunk@ATL@@QAEHP6GJPAUHWND__@@IIJ@ZPAX@Z 10018e80 f i POSPower.obj
 0001:00017ec0       ?InitFromData@?$IOleObjectImpl@VCOPOSPOSPower@@@ATL@@UAGJPAUIDataObject@@HK@Z 10018ec0 f i POSPower.obj
 0001:00017f30       ?InitLibId@?$CAtlModuleT@VCComModule@ATL@@@ATL@@SAXXZ 10018f30 f i POSPower.obj
 0001:00017f40       ?InitNew@?$IPersistStorageImpl@VCOPOSPOSPower@@@ATL@@UAGJPAUIStorage@@@Z 10018f40 f i POSPower.obj
 0001:00018030       ?InitNew@?$IPersistStreamInitImpl@VCOPOSPOSPower@@@ATL@@UAGJXZ 10019030 f i POSPower.obj
 0001:000180c0       ?InlineIsEqualUnknown@ATL@@YGHABU_GUID@@@Z 100190c0 f i POSPower.obj
 0001:00018130       ?InternalAddRef@?$CComObjectRootEx@VCComMultiThreadModel@ATL@@@ATL@@QAEKXZ 10019130 f i POSPower.obj
 0001:00018190       ?InternalAddRef@?$CComObjectRootEx@VCComSingleThreadModel@ATL@@@ATL@@QAEKXZ 10019190 f i POSPower.obj
 0001:000181f0       ?InternalFinalConstructAddRef@CComObjectRootBase@ATL@@QAEXXZ 100191f0 f i POSPower.obj
 0001:00018200       ?InternalFinalConstructAddRef@COPOSPOSPower@@QAEXXZ 10019200 f i POSPower.obj
 0001:00018230       ?InternalFinalConstructRelease@CComObjectRootBase@ATL@@QAEXXZ 10019230 f i POSPower.obj
 0001:00018280       ?InternalFinalConstructRelease@COPOSPOSPower@@QAEXXZ 10019280 f i POSPower.obj
 0001:000182b0       ?InternalGetSite@CComControlBase@ATL@@QAEJABU_GUID@@PAPAX@Z 100192b0 f i POSPower.obj
 0001:00018370       ?InternalQueryInterface@CComObjectRootBase@ATL@@SGJPAXPBU_ATL_INTMAP_ENTRY@2@ABU_GUID@@PAPAX@Z 10019370 f i POSPower.obj
 0001:00018430       ?InternalRelease@?$CComObjectRootEx@VCComMultiThreadModel@ATL@@@ATL@@QAEKXZ 10019430 f i POSPower.obj
 0001:000184a0       ?InternalRelease@?$CComObjectRootEx@VCComSingleThreadModel@ATL@@@ATL@@QAEKXZ 100194a0 f i POSPower.obj
 0001:00018510       ?InternalSetAtIndex@?$CSimpleArray@GV?$CSimpleArrayEqualHelper@G@ATL@@@ATL@@QAEXHABG@Z 10019510 f i POSPower.obj
 0001:00018580       ?InternalSetAtIndex@?$CSimpleMap@PA_WPA_WVCExpansionVectorEqualHelper@ATL@@@ATL@@QAEXHABQA_W0@Z 10019580 f i POSPower.obj
 0001:00018620       ?Invoke@?$IDispatchImpl@UIOPOSPOSPower@@$1?IID_IOPOSPOSPower@@3U_GUID@@B$1?LIBID_OposPOSPower_CCO@@3U3@B$00$0A@VCComTypeInfoHolder@ATL@@@ATL@@UAGJJABU_GUID@@KGPAUtagDISPPARAMS@@PAUtagVARIANT@@PAUtagEXCEPINFO@@PAI@Z 10019620 f i POSPower.obj
 0001:00018660       ?Invoke@CComTypeInfoHolder@ATL@@QAEJPAUIDispatch@@JABU_GUID@@KGPAUtagDISPPARAMS@@PAUtagVARIANT@@PAUtagEXCEPINFO@@PAI@Z 10019660 f i POSPower.obj
 0001:000186f0       ?IsDirty@?$IPersistStorageImpl@VCOPOSPOSPower@@@ATL@@UAGJXZ 100196f0 f i POSPower.obj
 0001:000187e0       ?IsDirty@?$IPersistStreamInitImpl@VCOPOSPOSPower@@@ATL@@UAGJXZ 100197e0 f i POSPower.obj
 0001:00018880       ?IsEqualKey@CExpansionVectorEqualHelper@ATL@@SA_NQA_W0@Z 10019880 f i POSPower.obj
 0001:000188b0       ?IsEqualObject@?$CComPtrBase@UIOleClientSite@@@ATL@@QAE_NPAUIUnknown@@@Z 100198b0 f i POSPower.obj
 0001:000189e0       ?IsEqualObject@?$CComPtrBase@UITypeInfo@@@ATL@@QAE_NPAUIUnknown@@@Z 100199e0 f i POSPower.obj
 0001:00018b10       ?IsSpace@CRegParser@ATL@@IAEH_W@Z 10019b10 f i POSPower.obj
 0001:00018b70       ?IsUpToDate@?$IOleObjectImpl@VCOPOSPOSPower@@@ATL@@UAGJXZ 10019b70 f i POSPower.obj
 0001:00018bd0       ?Length@CComBSTR@ATL@@QBEIXZ 10019bd0 f i POSPower.obj
 0001:00018c10       ?Load@?$IPersistStorageImpl@VCOPOSPOSPower@@@ATL@@UAGJPAUIStorage@@@Z 10019c10 f i POSPower.obj
 0001:00018d70       ?Load@?$IPersistStreamInitImpl@VCOPOSPOSPower@@@ATL@@UAGJPAUIStream@@@Z 10019d70 f i POSPower.obj
 0001:00018e00       ?LoadCursorW@AtlModuleRegisterWndClassInfoParamW@ATL@@SAPAUHICON__@@PAUHINSTANCE__@@PB_W@Z 10019e00 f i POSPower.obj
 0001:00018e30       ?LoadNameCache@CComTypeInfoHolder@ATL@@QAEJPAUITypeInfo@@@Z 10019e30 f i POSPower.obj
 0001:000190c0       ?Lock@?$CComCritSecLock@VCComCriticalSection@ATL@@@ATL@@QAEJXZ 1001a0c0 f i POSPower.obj
 0001:00019170       ?Lock@?$CComObjectRootEx@VCComSingleThreadModel@ATL@@@ATL@@QAEXXZ 1001a170 f i POSPower.obj
 0001:00019180       ?Lock@CAtlModule@ATL@@UAEJXZ 1001a180 f i POSPower.obj
 0001:000191b0       ?Lock@CComCriticalSection@ATL@@QAEJXZ 1001a1b0 f i POSPower.obj
 0001:000191f0       ?Lock@CComFakeCriticalSection@ATL@@QAEJXZ 1001a1f0 f i POSPower.obj
 0001:00019200       ?LockServer@CComClassFactory@ATL@@UAGJH@Z 1001a200 f i POSPower.obj
 0001:00019260       ?Lookup@?$CSimpleMap@PA_WPA_WVCExpansionVectorEqualHelper@ATL@@@ATL@@QBEPA_WABQA_W@Z 1001a260 f i POSPower.obj
 0001:000192b0       ?Next@?$CComEnumImpl@UIEnumConnectionPoints@@$1?_GUID_b196b285_bab4_101a_b69c_00aa00341d07@@3U__s_GUID@@BPAUIConnectionPoint@@V?$_CopyInterface@UIConnectionPoint@@@ATL@@@ATL@@UAGJKPAPAUIConnectionPoint@@PAK@Z 1001a2b0 f i POSPower.obj
 0001:00019420       ?Next@?$CComEnumImpl@UIEnumConnections@@$1?_GUID_b196b287_bab4_101a_b69c_00aa00341d07@@3U__s_GUID@@BUtagCONNECTDATA@@V?$_Copy@UtagCONNECTDATA@@@ATL@@@ATL@@UAGJKPAUtagCONNECTDATA@@PAK@Z 1001a420 f i POSPower.obj
 0001:00019590       ?NextToken@CRegParser@ATL@@IAEJPA_W@Z 1001a590 f i POSPower.obj
 0001:00019830       ?OLE2CT_EX@@YAPB_WPB_WI@Z  1001a830 f i POSPower.obj
 0001:00019840       ?OLE2CT_EX_DEF@@YAPB_WPB_W@Z 1001a840 f i POSPower.obj
 0001:00019850       ?OLE2T_EX@@YAPA_WPA_WI@Z   1001a850 f i POSPower.obj
 0001:00019860       ?OnAmbientPropertyChange@?$IOleControlImpl@VCOPOSPOSPower@@@ATL@@UAGJJ@Z 1001a860 f i POSPower.obj
 0001:000198f0       ?OnDocWindowActivate@?$IOleInPlaceActiveObjectImpl@VCOPOSPOSPower@@@ATL@@UAGJH@Z 1001a8f0 f i POSPower.obj
 0001:00019980       ?OnDrawAdvanced@CComControlBase@ATL@@UAEJAAUATL_DRAWINFO@@@Z 1001a980 f i POSPower.obj
 0001:00019ba0       ?OnFinalMessage@?$CWindowImplBaseT@VCWindow@ATL@@V?$CWinTraits@$0FGAAAAAA@$0A@@2@@ATL@@UAEXPAUHWND__@@@Z 1001aba0 f i POSPower.obj
 0001:00019bb0       ?OnFrameWindowActivate@?$IOleInPlaceActiveObjectImpl@VCOPOSPOSPower@@@ATL@@UAGJH@Z 1001abb0 f i POSPower.obj
 0001:00019c10       ?OnKillFocus@CComControlBase@ATL@@QAEJIIJAAH@Z 1001ac10 f i POSPower.obj
 0001:00019d10       ?OnMnemonic@?$IOleControlImpl@VCOPOSPOSPower@@@ATL@@UAGJPAUtagMSG@@@Z 1001ad10 f i POSPower.obj
 0001:00019d80       ?OnMouseActivate@CComControlBase@ATL@@QAEJIIJAAH@Z 1001ad80 f i POSPower.obj
 0001:00019ed0       ?OnPaint@CComControlBase@ATL@@QAEJIIJAAH@Z 1001aed0 f i POSPower.obj
 0001:0001a050       ?OnPostVerbDiscardUndo@?$IOleObjectImpl@VCOPOSPOSPower@@@ATL@@QAEJXZ 1001b050 f i POSPower.obj
 0001:0001a060       ?OnPostVerbHide@?$IOleObjectImpl@VCOPOSPOSPower@@@ATL@@QAEJXZ 1001b060 f i POSPower.obj
 0001:0001a070       ?OnPostVerbInPlaceActivate@?$IOleObjectImpl@VCOPOSPOSPower@@@ATL@@QAEJXZ 1001b070 f i POSPower.obj
 0001:0001a080       ?OnPostVerbOpen@?$IOleObjectImpl@VCOPOSPOSPower@@@ATL@@QAEJXZ 1001b080 f i POSPower.obj
 0001:0001a090       ?OnPostVerbShow@?$IOleObjectImpl@VCOPOSPOSPower@@@ATL@@QAEJXZ 1001b090 f i POSPower.obj
 0001:0001a0a0       ?OnPostVerbUIActivate@?$IOleObjectImpl@VCOPOSPOSPower@@@ATL@@QAEJXZ 1001b0a0 f i POSPower.obj
 0001:0001a0b0       ?OnPreVerbDiscardUndo@?$IOleObjectImpl@VCOPOSPOSPower@@@ATL@@QAEJXZ 1001b0b0 f i POSPower.obj
 0001:0001a0c0       ?OnPreVerbHide@?$IOleObjectImpl@VCOPOSPOSPower@@@ATL@@QAEJXZ 1001b0c0 f i POSPower.obj
 0001:0001a0d0       ?OnPreVerbInPlaceActivate@?$IOleObjectImpl@VCOPOSPOSPower@@@ATL@@QAEJXZ 1001b0d0 f i POSPower.obj
 0001:0001a0e0       ?OnPreVerbOpen@?$IOleObjectImpl@VCOPOSPOSPower@@@ATL@@QAEJXZ 1001b0e0 f i POSPower.obj
 0001:0001a0f0       ?OnPreVerbShow@?$IOleObjectImpl@VCOPOSPOSPower@@@ATL@@QAEJXZ 1001b0f0 f i POSPower.obj
 0001:0001a100       ?OnPreVerbUIActivate@?$IOleObjectImpl@VCOPOSPOSPower@@@ATL@@QAEJXZ 1001b100 f i POSPower.obj
 0001:0001a110       ?OnSetFocus@CComControlBase@ATL@@QAEJIIJAAH@Z 1001b110 f i POSPower.obj
 0001:0001a2a0       ?OnWindowMessage@?$IOleInPlaceObjectWindowlessImpl@VCOPOSPOSPower@@@ATL@@UAGJIIJPAJ@Z 1001b2a0 f i POSPower.obj
 0001:0001a400       ?Open@CRegKey@ATL@@QAEJPAUHKEY__@@PB_WK@Z 1001b400 f i POSPower.obj
 0001:0001a550       ?OuterAddRef@CComObjectRootBase@ATL@@QAEKXZ 1001b550 f i POSPower.obj
 0001:0001a590       ?OuterQueryInterface@CComObjectRootBase@ATL@@QAEJABU_GUID@@PAPAX@Z 1001b590 f i POSPower.obj
 0001:0001a5e0       ?OuterRelease@CComObjectRootBase@ATL@@QAEKXZ 1001b5e0 f i POSPower.obj
 0001:0001a620       ?PreProcessBuffer@CRegParser@ATL@@QAEJPA_WPAPA_W@Z 1001b620 f i POSPower.obj
 0001:0001ab60       ?PreTranslateAccelerator@CComControlBase@ATL@@QAEHPAUtagMSG@@AAJ@Z 1001bb60 f i POSPower.obj
 0001:0001ab70       ?ProcessWindowMessage@?$CComControl@VCOPOSPOSPower@@V?$CWindowImpl@VCOPOSPOSPower@@VCWindow@ATL@@V?$CWinTraits@$0FGAAAAAA@$0A@@3@@ATL@@@ATL@@UAEHPAUHWND__@@IIJAAJK@Z 1001bb70 f i POSPower.obj
 0001:0001ad40       ?ProcessWindowMessage@COPOSPOSPower@@UAEHPAUHWND__@@IIJAAJK@Z 1001bd40 f i POSPower.obj
 0001:0001ae40       ?PutProperty@?$CComPtr@UIDispatch@@@ATL@@QAEJJPAUtagVARIANT@@@Z 1001be40 f i POSPower.obj
 0001:0001ae80       ?PutProperty@?$CComPtr@UIDispatch@@@ATL@@SAJPAUIDispatch@@JPAUtagVARIANT@@@Z 1001be80 f i POSPower.obj
 0001:0001b070       ?QueryGetData@?$IDataObjectImpl@VCOPOSPOSPower@@@ATL@@UAGJPAUtagFORMATETC@@@Z 1001c070 f i POSPower.obj
 0001:0001b0e0       ?QueryHitPoint@?$IViewObjectExImpl@VCOPOSPOSPower@@@ATL@@UAGJKPBUtagRECT@@UtagPOINT@@JPAK@Z 1001c0e0 f i POSPower.obj
 0001:0001b1f0       ?QueryHitRect@?$IViewObjectExImpl@VCOPOSPOSPower@@@ATL@@UAGJKPBUtagRECT@@0JPAK@Z 1001c1f0 f i POSPower.obj
 0001:0001b340       ?QueryInterface@?$CComAggObject@VCOPOSPOSPower@@@ATL@@UAGJABU_GUID@@PAPAX@Z 1001c340 f i POSPower.obj
 0001:0001b3f0       ?QueryInterface@?$CComContainedObject@VCOPOSPOSPower@@@ATL@@UAGJABU_GUID@@PAPAX@Z 1001c3f0 f i POSPower.obj
 0001:0001b414       ?QueryInterface@?$CComContainedObject@VCOPOSPOSPower@@@ATL@@WHA@AGJABU_GUID@@PAPAX@Z 1001c414 f i POSPower.obj
 0001:0001b41e       ?QueryInterface@?$CComContainedObject@VCOPOSPOSPower@@@ATL@@WHE@AGJABU_GUID@@PAPAX@Z 1001c41e f i POSPower.obj
 0001:0001b428       ?QueryInterface@?$CComContainedObject@VCOPOSPOSPower@@@ATL@@WHI@AGJABU_GUID@@PAPAX@Z 1001c428 f i POSPower.obj
 0001:0001b432       ?QueryInterface@?$CComContainedObject@VCOPOSPOSPower@@@ATL@@WHM@AGJABU_GUID@@PAPAX@Z 1001c432 f i POSPower.obj
 0001:0001b43c       ?QueryInterface@?$CComContainedObject@VCOPOSPOSPower@@@ATL@@WIA@AGJABU_GUID@@PAPAX@Z 1001c43c f i POSPower.obj
 0001:0001b449       ?QueryInterface@?$CComContainedObject@VCOPOSPOSPower@@@ATL@@WIE@AGJABU_GUID@@PAPAX@Z 1001c449 f i POSPower.obj
 0001:0001b456       ?QueryInterface@?$CComContainedObject@VCOPOSPOSPower@@@ATL@@WII@AGJABU_GUID@@PAPAX@Z 1001c456 f i POSPower.obj
 0001:0001b463       ?QueryInterface@?$CComContainedObject@VCOPOSPOSPower@@@ATL@@WIM@AGJABU_GUID@@PAPAX@Z 1001c463 f i POSPower.obj
 0001:0001b470       ?QueryInterface@?$CComContainedObject@VCOPOSPOSPower@@@ATL@@WJA@AGJABU_GUID@@PAPAX@Z 1001c470 f i POSPower.obj
 0001:0001b47d       ?QueryInterface@?$CComContainedObject@VCOPOSPOSPower@@@ATL@@WJE@AGJABU_GUID@@PAPAX@Z 1001c47d f i POSPower.obj
 0001:0001b48a       ?QueryInterface@?$CComContainedObject@VCOPOSPOSPower@@@ATL@@WJI@AGJABU_GUID@@PAPAX@Z 1001c48a f i POSPower.obj
 0001:0001b497       ?QueryInterface@?$CComContainedObject@VCOPOSPOSPower@@@ATL@@WJM@AGJABU_GUID@@PAPAX@Z 1001c497 f i POSPower.obj
 0001:0001b4a4       ?QueryInterface@?$CComContainedObject@VCOPOSPOSPower@@@ATL@@WKA@AGJABU_GUID@@PAPAX@Z 1001c4a4 f i POSPower.obj
 0001:0001b4c0       ?QueryInterface@?$CComObject@V?$CComEnum@UIEnumConnectionPoints@@$1?_GUID_b196b285_bab4_101a_b69c_00aa00341d07@@3U__s_GUID@@BPAUIConnectionPoint@@V?$_CopyInterface@UIConnectionPoint@@@ATL@@VCComSingleThreadModel@6@@ATL@@@ATL@@UAGJABU_GUID@@PAPAX@Z 1001c4c0 f i POSPower.obj
 0001:0001b4e0       ?QueryInterface@?$CComObject@V?$CComEnum@UIEnumConnections@@$1?_GUID_b196b287_bab4_101a_b69c_00aa00341d07@@3U__s_GUID@@BUtagCONNECTDATA@@V?$_Copy@UtagCONNECTDATA@@@ATL@@VCComSingleThreadModel@6@@ATL@@@ATL@@UAGJABU_GUID@@PAPAX@Z 1001c4e0 f i POSPower.obj
 0001:0001b500       ?QueryInterface@?$CComObject@VCOPOSPOSPower@@@ATL@@UAGJABU_GUID@@PAPAX@Z 1001c500 f i POSPower.obj
 0001:0001b51e       ?QueryInterface@?$CComObject@VCOPOSPOSPower@@@ATL@@WHA@AGJABU_GUID@@PAPAX@Z 1001c51e f i POSPower.obj
 0001:0001b528       ?QueryInterface@?$CComObject@VCOPOSPOSPower@@@ATL@@WHE@AGJABU_GUID@@PAPAX@Z 1001c528 f i POSPower.obj
 0001:0001b532       ?QueryInterface@?$CComObject@VCOPOSPOSPower@@@ATL@@WHI@AGJABU_GUID@@PAPAX@Z 1001c532 f i POSPower.obj
 0001:0001b53c       ?QueryInterface@?$CComObject@VCOPOSPOSPower@@@ATL@@WHM@AGJABU_GUID@@PAPAX@Z 1001c53c f i POSPower.obj
 0001:0001b546       ?QueryInterface@?$CComObject@VCOPOSPOSPower@@@ATL@@WIA@AGJABU_GUID@@PAPAX@Z 1001c546 f i POSPower.obj
 0001:0001b553       ?QueryInterface@?$CComObject@VCOPOSPOSPower@@@ATL@@WIE@AGJABU_GUID@@PAPAX@Z 1001c553 f i POSPower.obj
 0001:0001b560       ?QueryInterface@?$CComObject@VCOPOSPOSPower@@@ATL@@WII@AGJABU_GUID@@PAPAX@Z 1001c560 f i POSPower.obj
 0001:0001b56d       ?QueryInterface@?$CComObject@VCOPOSPOSPower@@@ATL@@WIM@AGJABU_GUID@@PAPAX@Z 1001c56d f i POSPower.obj
 0001:0001b57a       ?QueryInterface@?$CComObject@VCOPOSPOSPower@@@ATL@@WJA@AGJABU_GUID@@PAPAX@Z 1001c57a f i POSPower.obj
 0001:0001b587       ?QueryInterface@?$CComObject@VCOPOSPOSPower@@@ATL@@WJE@AGJABU_GUID@@PAPAX@Z 1001c587 f i POSPower.obj
 0001:0001b594       ?QueryInterface@?$CComObject@VCOPOSPOSPower@@@ATL@@WJI@AGJABU_GUID@@PAPAX@Z 1001c594 f i POSPower.obj
 0001:0001b5a1       ?QueryInterface@?$CComObject@VCOPOSPOSPower@@@ATL@@WJM@AGJABU_GUID@@PAPAX@Z 1001c5a1 f i POSPower.obj
 0001:0001b5ae       ?QueryInterface@?$CComObject@VCOPOSPOSPower@@@ATL@@WKA@AGJABU_GUID@@PAPAX@Z 1001c5ae f i POSPower.obj
 0001:0001b5c0       ?QueryInterface@?$CComObjectCached@VCComClassFactory@ATL@@@ATL@@UAGJABU_GUID@@PAPAX@Z 1001c5c0 f i POSPower.obj
 0001:0001b5e0       ?QueryInterface@CRegObject@ATL@@UAGJABU_GUID@@PAPAX@Z 1001c5e0 f i POSPower.obj
 0001:0001b630       ?QuickActivate@?$IQuickActivateImpl@VCOPOSPOSPower@@@ATL@@UAGJPAUtagQACONTAINER@@PAUtagQACONTROL@@@Z 1001c630 f i POSPower.obj
 0001:0001b6c0       ?ReactivateAndUndo@?$IOleInPlaceObjectWindowlessImpl@VCOPOSPOSPower@@@ATL@@UAGJXZ 1001c6c0 f i POSPower.obj
 0001:0001b730       ?ReadFromStream@CComBSTR@ATL@@QAEJPAUIStream@@@Z 1001c730 f i POSPower.obj
 0001:0001bb30       ?ReadFromStream@CComVariant@ATL@@QAEJPAUIStream@@GTClassesAllowedInStream@2@K@Z 1001cb30 f i POSPower.obj
 0001:0001beb0       ?RecurseDeleteKey@CRegKey@ATL@@QAEJPB_W@Z 1001ceb0 f i POSPower.obj
 0001:0001c090       ?RegCreateKeyExW@CAtlTransactionManager@ATL@@QAEJPAUHKEY__@@PB_WKPA_WKKQAU_SECURITY_ATTRIBUTES@@PAPAU3@PAK@Z 1001d090 f i POSPower.obj
 0001:0001c1c0       ?RegDeleteKeyW@CAtlTransactionManager@ATL@@QAEJPAUHKEY__@@PB_W@Z 1001d1c0 f i POSPower.obj
 0001:0001c2c0       ?RegOpenKeyExW@CAtlTransactionManager@ATL@@QAEJPAUHKEY__@@PB_WKKPAPAU3@@Z 1001d2c0 f i POSPower.obj
 0001:0001c3d0       ?Register@_ATL_WNDCLASSINFOW@ATL@@QAEGPAP6GJPAUHWND__@@IIJ@Z@Z 1001d3d0 f i POSPower.obj
 0001:0001c410       ?RegisterBuffer@CRegParser@ATL@@QAEJPA_WH@Z 1001d410 f i POSPower.obj
 0001:0001c740       ?RegisterClassExW@AtlModuleRegisterWndClassInfoParamW@ATL@@SAGPAU_ATL_WIN_MODULE70@2@PBUtagWNDCLASSEXW@@@Z 1001d740 f i POSPower.obj
 0001:0001c760       ?RegisterFromResource@CRegObject@ATL@@IAEJPB_W00H@Z 1001d760 f i POSPower.obj
 0001:0001caf0       ?RegisterServer@?$CAtlModuleT@VCComModule@ATL@@@ATL@@QAEJHPBU_GUID@@@Z 1001daf0 f i POSPower.obj
 0001:0001cb70       ?RegisterServer@CAtlComModule@ATL@@QAEJHPBU_GUID@@@Z 1001db70 f i POSPower.obj
 0001:0001cba0       ?RegisterServer@CComModule@ATL@@QAEJHPBU_GUID@@@Z 1001dba0 f i POSPower.obj
 0001:0001cc80       ?RegisterSubkeys@CRegParser@ATL@@IAEJPA_WPAUHKEY__@@HH@Z 1001dc80 f i POSPower.obj
 0001:0001d7a0       ?Release@?$CComAggObject@VCOPOSPOSPower@@@ATL@@UAGKXZ 1001e7a0 f i POSPower.obj
 0001:0001d860       ?Release@?$CComContainedObject@VCOPOSPOSPower@@@ATL@@UAGKXZ 1001e860 f i POSPower.obj
 0001:0001d87c       ?Release@?$CComContainedObject@VCOPOSPOSPower@@@ATL@@WHA@AGKXZ 1001e87c f i POSPower.obj
 0001:0001d886       ?Release@?$CComContainedObject@VCOPOSPOSPower@@@ATL@@WHE@AGKXZ 1001e886 f i POSPower.obj
 0001:0001d890       ?Release@?$CComContainedObject@VCOPOSPOSPower@@@ATL@@WHI@AGKXZ 1001e890 f i POSPower.obj
 0001:0001d89a       ?Release@?$CComContainedObject@VCOPOSPOSPower@@@ATL@@WHM@AGKXZ 1001e89a f i POSPower.obj
 0001:0001d8a4       ?Release@?$CComContainedObject@VCOPOSPOSPower@@@ATL@@WIA@AGKXZ 1001e8a4 f i POSPower.obj
 0001:0001d8b1       ?Release@?$CComContainedObject@VCOPOSPOSPower@@@ATL@@WIE@AGKXZ 1001e8b1 f i POSPower.obj
 0001:0001d8be       ?Release@?$CComContainedObject@VCOPOSPOSPower@@@ATL@@WII@AGKXZ 1001e8be f i POSPower.obj
 0001:0001d8cb       ?Release@?$CComContainedObject@VCOPOSPOSPower@@@ATL@@WIM@AGKXZ 1001e8cb f i POSPower.obj
 0001:0001d8d8       ?Release@?$CComContainedObject@VCOPOSPOSPower@@@ATL@@WJA@AGKXZ 1001e8d8 f i POSPower.obj
 0001:0001d8e5       ?Release@?$CComContainedObject@VCOPOSPOSPower@@@ATL@@WJE@AGKXZ 1001e8e5 f i POSPower.obj
 0001:0001d8f2       ?Release@?$CComContainedObject@VCOPOSPOSPower@@@ATL@@WJI@AGKXZ 1001e8f2 f i POSPower.obj
 0001:0001d8ff       ?Release@?$CComContainedObject@VCOPOSPOSPower@@@ATL@@WJM@AGKXZ 1001e8ff f i POSPower.obj
 0001:0001d90c       ?Release@?$CComContainedObject@VCOPOSPOSPower@@@ATL@@WKA@AGKXZ 1001e90c f i POSPower.obj
 0001:0001d919       ?Release@?$CComContainedObject@VCOPOSPOSPower@@@ATL@@WKI@AGKXZ 1001e919 f i POSPower.obj
 0001:0001d926       ?Release@?$CComContainedObject@VCOPOSPOSPower@@@ATL@@WLE@AGKXZ 1001e926 f i POSPower.obj
 0001:0001d940       ?Release@?$CComObject@V?$CComEnum@UIEnumConnectionPoints@@$1?_GUID_b196b285_bab4_101a_b69c_00aa00341d07@@3U__s_GUID@@BPAUIConnectionPoint@@V?$_CopyInterface@UIConnectionPoint@@@ATL@@VCComSingleThreadModel@6@@ATL@@@ATL@@UAGKXZ 1001e940 f i POSPower.obj
 0001:0001da00       ?Release@?$CComObject@V?$CComEnum@UIEnumConnections@@$1?_GUID_b196b287_bab4_101a_b69c_00aa00341d07@@3U__s_GUID@@BUtagCONNECTDATA@@V?$_Copy@UtagCONNECTDATA@@@ATL@@VCComSingleThreadModel@6@@ATL@@@ATL@@UAGKXZ 1001ea00 f i POSPower.obj
 0001:0001dac0       ?Release@?$CComObject@VCOPOSPOSPower@@@ATL@@UAGKXZ 1001eac0 f i POSPower.obj
 0001:0001db79       ?Release@?$CComObject@VCOPOSPOSPower@@@ATL@@WHA@AGKXZ 1001eb79 f i POSPower.obj
 0001:0001db83       ?Release@?$CComObject@VCOPOSPOSPower@@@ATL@@WHE@AGKXZ 1001eb83 f i POSPower.obj
 0001:0001db8d       ?Release@?$CComObject@VCOPOSPOSPower@@@ATL@@WHI@AGKXZ 1001eb8d f i POSPower.obj
 0001:0001db97       ?Release@?$CComObject@VCOPOSPOSPower@@@ATL@@WHM@AGKXZ 1001eb97 f i POSPower.obj
 0001:0001dba1       ?Release@?$CComObject@VCOPOSPOSPower@@@ATL@@WIA@AGKXZ 1001eba1 f i POSPower.obj
 0001:0001dbae       ?Release@?$CComObject@VCOPOSPOSPower@@@ATL@@WIE@AGKXZ 1001ebae f i POSPower.obj
 0001:0001dbbb       ?Release@?$CComObject@VCOPOSPOSPower@@@ATL@@WII@AGKXZ 1001ebbb f i POSPower.obj
 0001:0001dbc8       ?Release@?$CComObject@VCOPOSPOSPower@@@ATL@@WIM@AGKXZ 1001ebc8 f i POSPower.obj
 0001:0001dbd5       ?Release@?$CComObject@VCOPOSPOSPower@@@ATL@@WJA@AGKXZ 1001ebd5 f i POSPower.obj
 0001:0001dbe2       ?Release@?$CComObject@VCOPOSPOSPower@@@ATL@@WJE@AGKXZ 1001ebe2 f i POSPower.obj
 0001:0001dbef       ?Release@?$CComObject@VCOPOSPOSPower@@@ATL@@WJI@AGKXZ 1001ebef f i POSPower.obj
 0001:0001dbfc       ?Release@?$CComObject@VCOPOSPOSPower@@@ATL@@WJM@AGKXZ 1001ebfc f i POSPower.obj
 0001:0001dc09       ?Release@?$CComObject@VCOPOSPOSPower@@@ATL@@WKA@AGKXZ 1001ec09 f i POSPower.obj
 0001:0001dc16       ?Release@?$CComObject@VCOPOSPOSPower@@@ATL@@WKI@AGKXZ 1001ec16 f i POSPower.obj
 0001:0001dc23       ?Release@?$CComObject@VCOPOSPOSPower@@@ATL@@WLE@AGKXZ 1001ec23 f i POSPower.obj
 0001:0001dc30       ?Release@?$CComObjectCached@VCComClassFactory@ATL@@@ATL@@UAGKXZ 1001ec30 f i POSPower.obj
 0001:0001dcd0       ?Release@?$CComPtrBase@UIAdviseSink@@@ATL@@QAEXXZ 1001ecd0 f i POSPower.obj
 0001:0001dd30       ?Release@?$CComPtrBase@UIDispatch@@@ATL@@QAEXXZ 1001ed30 f i POSPower.obj
 0001:0001dd90       ?Release@?$CComPtrBase@UIOleInPlaceSiteWindowless@@@ATL@@QAEXXZ 1001ed90 f i POSPower.obj
 0001:0001ddf0       ?Release@CRegObject@ATL@@UAGKXZ 1001edf0 f i POSPower.obj
 0001:0001de30       ?Remove@CComDynamicUnkArray@ATL@@QAEHK@Z 1001ee30 f i POSPower.obj
 0001:0001dee0       ?RemoveAll@?$CSimpleMap@PA_WPA_WVCExpansionVectorEqualHelper@ATL@@@ATL@@QAEXXZ 1001eee0 f i POSPower.obj
 0001:0001df70       ?Reset@?$CComEnumImpl@UIEnumConnectionPoints@@$1?_GUID_b196b285_bab4_101a_b69c_00aa00341d07@@3U__s_GUID@@BPAUIConnectionPoint@@V?$_CopyInterface@UIConnectionPoint@@@ATL@@@ATL@@UAGJXZ 1001ef70 f i POSPower.obj
 0001:0001df90       ?Reset@?$CComEnumImpl@UIEnumConnections@@$1?_GUID_b196b287_bab4_101a_b69c_00aa00341d07@@3U__s_GUID@@BUtagCONNECTDATA@@V?$_Copy@UtagCONNECTDATA@@@ATL@@@ATL@@UAGJXZ 1001ef90 f i POSPower.obj
 0001:0001dfb0       ?ResizeBorder@?$IOleInPlaceActiveObjectImpl@VCOPOSPOSPower@@@ATL@@UAGJPBUtagRECT@@PAUIOleInPlaceUIWindow@@H@Z 1001efb0 f i POSPower.obj
 0001:0001e010       ?ResourceRegister@CRegObject@ATL@@QAGJPB_WI0@Z 1001f010 f i POSPower.obj
 0001:0001e0f0       ?ResourceRegisterSz@CRegObject@ATL@@QAGJPB_W00@Z 1001f0f0 f i POSPower.obj
 0001:0001e1f0       ?ResourceUnregister@CRegObject@ATL@@QAGJPB_WI0@Z 1001f1f0 f i POSPower.obj
 0001:0001e2d0       ?ResourceUnregisterSz@CRegObject@ATL@@QAGJPB_W00@Z 1001f2d0 f i POSPower.obj
 0001:0001e3d0       ?SODataDummy@COPOSPOSPower@@MAGJJ@Z 1001f3d0 f i POSPower.obj
 0001:0001e3e0       ?SODirectIO@COPOSPOSPower@@MAGJJPAJPAPA_W@Z 1001f3e0 f i POSPower.obj
 0001:0001e5a0       ?SOErrorDummy@COPOSPOSPower@@MAGJJJJPAJ@Z 1001f5a0 f i POSPower.obj
 0001:0001e5b0       ?SOOutputCompleteDummy@COPOSPOSPower@@MAGJJ@Z 1001f5b0 f i POSPower.obj
 0001:0001e5c0       ?SOStatusUpdate@COPOSPOSPower@@MAGJJ@Z 1001f5c0 f i POSPower.obj
 0001:0001e640       ?Save@?$IPersistStorageImpl@VCOPOSPOSPower@@@ATL@@UAGJPAUIStorage@@H@Z 1001f640 f i POSPower.obj
 0001:0001e7a0       ?Save@?$IPersistStreamInitImpl@VCOPOSPOSPower@@@ATL@@UAGJPAUIStream@@H@Z 1001f7a0 f i POSPower.obj
 0001:0001e830       ?SaveCompleted@?$IPersistStorageImpl@VCOPOSPOSPower@@@ATL@@UAGJPAUIStorage@@@Z 1001f830 f i POSPower.obj
 0001:0001e890       ?SendOnDataChange@CComControlBase@ATL@@QAEJK@Z 1001f890 f i POSPower.obj
 0001:0001e980       ?SendOnSave@CComControlBase@ATL@@QAEJXZ 1001f980 f i POSPower.obj
 0001:0001e9f0       ?SendOnViewChange@CComControlBase@ATL@@QAEJKJ@Z 1001f9f0 f i POSPower.obj
 0001:0001ea60       ?SetAdvise@?$IViewObjectExImpl@VCOPOSPOSPower@@@ATL@@UAGJKKPAUIAdviseSink@@@Z 1001fa60 f i POSPower.obj
 0001:0001eaf0       ?SetClientSite@?$IOleObjectImpl@VCOPOSPOSPower@@@ATL@@UAGJPAUIOleClientSite@@@Z 1001faf0 f i POSPower.obj
 0001:0001eb80       ?SetColorScheme@?$IOleObjectImpl@VCOPOSPOSPower@@@ATL@@UAGJPAUtagLOGPALETTE@@@Z 1001fb80 f i POSPower.obj
 0001:0001ebf0       ?SetContentExtent@?$IQuickActivateImpl@VCOPOSPOSPower@@@ATL@@UAGJPAUtagSIZE@@@Z 1001fbf0 f i POSPower.obj
 0001:0001ec80       ?SetControlFocus@CComControlBase@ATL@@QAEHH@Z 1001fc80 f i POSPower.obj
 0001:0001ee00       ?SetDWORDValue@CRegKey@ATL@@QAEJPB_WK@Z 1001fe00 f i POSPower.obj
 0001:0001ee80       ?SetData@?$IDataObjectImpl@VCOPOSPOSPower@@@ATL@@UAGJPAUtagFORMATETC@@PAUtagSTGMEDIUM@@H@Z 1001fe80 f i POSPower.obj
 0001:0001eef0       ?SetExtent@?$IOleObjectImpl@VCOPOSPOSPower@@@ATL@@UAGJKPAUtagSIZE@@@Z 1001fef0 f i POSPower.obj
 0001:0001ef80       ?SetHostNames@?$IOleObjectImpl@VCOPOSPOSPower@@@ATL@@UAGJPB_W0@Z 1001ff80 f i POSPower.obj
 0001:0001efe0       ?SetInterfaceSafetyOptions@?$IObjectSafetyImpl@VCOPOSPOSPower@@$02@ATL@@UAGJABU_GUID@@KK@Z 1001ffe0 f i POSPower.obj
 0001:0001f150       ?SetMoniker@?$IOleObjectImpl@VCOPOSPOSPower@@@ATL@@UAGJKPAUIMoniker@@@Z 10020150 f i POSPower.obj
 0001:0001f1c0       ?SetMultiStringValue@CRegKey@ATL@@QAEJPB_W0@Z 100201c0 f i POSPower.obj
 0001:0001f2e0       ?SetObjectRects@?$IOleInPlaceObjectWindowlessImpl@VCOPOSPOSPower@@@ATL@@UAGJPBUtagRECT@@0@Z 100202e0 f i POSPower.obj
 0001:0001f370       ?SetStringValue@CRegKey@ATL@@QAEJPB_W0K@Z 10020370 f i POSPower.obj
 0001:0001f4a0       ?SetVoid@CComClassFactory@ATL@@QAEXPAX@Z 100204a0 f i POSPower.obj
 0001:0001f4c0       ?SetVoid@CComObjectRootBase@ATL@@QAEXPAX@Z 100204c0 f i POSPower.obj
 0001:0001f4d0       ?SetWindowLongPtrW@@YAJPAUHWND__@@HJ@Z 100204d0 f i POSPower.obj
 0001:0001f500       ?ShowWindow@CWindow@ATL@@QAEHH@Z 10020500 f i POSPower.obj
 0001:0001f580       ?Skip@?$CComEnumImpl@UIEnumConnectionPoints@@$1?_GUID_b196b285_bab4_101a_b69c_00aa00341d07@@3U__s_GUID@@BPAUIConnectionPoint@@V?$_CopyInterface@UIConnectionPoint@@@ATL@@@ATL@@UAGJK@Z 10020580 f i POSPower.obj
 0001:0001f5f0       ?Skip@?$CComEnumImpl@UIEnumConnections@@$1?_GUID_b196b287_bab4_101a_b69c_00aa00341d07@@3U__s_GUID@@BUtagCONNECTDATA@@V?$_Copy@UtagCONNECTDATA@@@ATL@@@ATL@@UAGJK@Z 100205f0 f i POSPower.obj
 0001:0001f660       ?SkipAssignment@CRegParser@ATL@@IAEJPA_W@Z 10020660 f i POSPower.obj
 0001:0001f740       ?SkipWhiteSpace@CRegParser@ATL@@IAEXXZ 10020740 f i POSPower.obj
 0001:0001f790       ?StartWindowProc@?$CWindowImplBaseT@VCWindow@ATL@@V?$CWinTraits@$0FGAAAAAA@$0A@@2@@ATL@@SGJPAUHWND__@@IIJ@Z 10020790 f i POSPower.obj
 0001:0001f8b0       ?StrChrW@CRegParser@ATL@@KAPA_WPA_W_W@Z 100208b0 f i POSPower.obj
 0001:0001f920       ?StrFromMap@CRegObject@ATL@@QAEPB_WPA_W@Z 10020920 f i POSPower.obj
 0001:0001f9b0       ?Swap@?$CComPtrBase@UIAdviseSink@@@ATL@@IAEXAAV12@@Z 100209b0 f i POSPower.obj
 0001:0001f9e0       ?Swap@?$CComPtrBase@UIOleClientSite@@@ATL@@IAEXAAV12@@Z 100209e0 f i POSPower.obj
 0001:0001fa10       ?Swap@?$CComPtrBase@UIUnknown@@@ATL@@IAEXAAV12@@Z 10020a10 f i POSPower.obj
 0001:0001fa40       ?T2COLE_EX@@YAPB_WPB_WI@Z  10020a40 f i POSPower.obj
 0001:0001fa50       ?T2OLE_EX@@YAPA_WPA_WI@Z   10020a50 f i POSPower.obj
 0001:0001fa60       ?Term@CAtlModule@ATL@@QAEXXZ 10020a60 f i POSPower.obj
 0001:0001fb10       ?Term@CComModule@ATL@@QAEXXZ 10020b10 f i POSPower.obj
 0001:0001fc00       ?TranslateAcceleratorW@?$IOleInPlaceActiveObjectImpl@VCOPOSPOSPower@@@ATL@@UAGJPAUtagMSG@@@Z 10020c00 f i POSPower.obj
 0001:0001fe00       ?UIDeactivate@?$IOleInPlaceObjectWindowlessImpl@VCOPOSPOSPower@@@ATL@@UAGJXZ 10020e00 f i POSPower.obj
 0001:0001fe80       ?Unadvise@?$CProxy_IOPOSEvents@VCOPOSPOSPower@@@@UAGJK@Z 10020e80 f i POSPower.obj
 0001:0001fec0       ?Unadvise@?$IConnectionPointImpl@VCOPOSPOSPower@@$1?DIID__IOPOSPOSPowerEvents@@3U_GUID@@BVCComDynamicUnkArray@ATL@@@ATL@@UAGJK@Z 10020ec0 f i POSPower.obj
 0001:0001ff90       ?Unadvise@?$IConnectionPointImpl@VCOPOSPOSPower@@$1?IID_IPropertyNotifySink@@3U_GUID@@BVCComDynamicUnkArray@ATL@@@ATL@@UAGJK@Z 10020f90 f i POSPower.obj
 0001:00020060       ?Unadvise@?$IOleObjectImpl@VCOPOSPOSPower@@@ATL@@UAGJK@Z 10021060 f i POSPower.obj
 0001:00020130       ?Unfreeze@?$IViewObjectExImpl@VCOPOSPOSPower@@@ATL@@UAGJK@Z 10021130 f i POSPower.obj
 0001:000201a0       ?Unlock@?$CComCritSecLock@VCComCriticalSection@ATL@@@ATL@@QAEXXZ 100211a0 f i POSPower.obj
 0001:00020210       ?Unlock@?$CComObjectRootEx@VCComSingleThreadModel@ATL@@@ATL@@QAEXXZ 10021210 f i POSPower.obj
 0001:00020220       ?Unlock@CAtlModule@ATL@@UAEJXZ 10021220 f i POSPower.obj
 0001:00020250       ?Unlock@CComCriticalSection@ATL@@QAEJXZ 10021250 f i POSPower.obj
 0001:00020290       ?Unlock@CComFakeCriticalSection@ATL@@QAEJXZ 10021290 f i POSPower.obj
 0001:000202a0       ?UnregisterServer@?$CAtlModuleT@VCComModule@ATL@@@ATL@@QAEJHPBU_GUID@@@Z 100212a0 f i POSPower.obj
 0001:00020310       ?UnregisterServer@CAtlComModule@ATL@@QAEJHPBU_GUID@@@Z 10021310 f i POSPower.obj
 0001:00020340       ?UnregisterServer@CComModule@ATL@@QAEJHPBU_GUID@@@Z 10021340 f i POSPower.obj
 0001:00020420       ?Update@?$IOleObjectImpl@VCOPOSPOSPower@@@ATL@@UAGJXZ 10021420 f i POSPower.obj
 0001:00020480       ?UpdateRegistryFromResource@CAtlModule@ATL@@QAGJIHPAU_ATL_REGMAP_ENTRY@2@@Z 10021480 f i POSPower.obj
 0001:00020950       ?UpdateRegistryFromResource@CAtlModule@ATL@@QAGJPB_WHPAU_ATL_REGMAP_ENTRY@2@@Z 10021950 f i POSPower.obj
 0001:00020e40       ?UpdateRegistryFromResource@CComModule@ATL@@UAGJIHPAU_ATL_REGMAP_ENTRY@2@@Z 10021e40 f i POSPower.obj
 0001:00020e70       ?UpdateRegistryFromResource@CComModule@ATL@@UAGJPB_WHPAU_ATL_REGMAP_ENTRY@2@@Z 10021e70 f i POSPower.obj
 0001:00020ea0       ?UpdateRegistryFromResourceD@CComModule@ATL@@UAGJIHPAU_ATL_REGMAP_ENTRY@2@@Z 10021ea0 f i POSPower.obj
 0001:00020eb0       ?UpdateRegistryFromResourceD@CComModule@ATL@@UAGJPB_WHPAU_ATL_REGMAP_ENTRY@2@@Z 10021eb0 f i POSPower.obj
 0001:00020ec0       ?VTFromRegType@CRegParser@ATL@@KAHPB_WAAG@Z 10021ec0 f i POSPower.obj
 0001:00020fa0       ?WindowProc@?$CWindowImplBaseT@VCWindow@ATL@@V?$CWinTraits@$0FGAAAAAA@$0A@@2@@ATL@@SGJPAUHWND__@@IIJ@Z 10021fa0 f i POSPower.obj
 0001:000211b0       ?WriteToStream@CComBSTR@ATL@@QAEJPAUIStream@@@Z 100221b0 f i POSPower.obj
 0001:00021310       ?WriteToStream@CComVariant@ATL@@QAEJPAUIStream@@@Z 10022310 f i POSPower.obj
 0001:00021670       ?WriteToStream@CComVariant@ATL@@QAEJPAUIStream@@G@Z 10022670 f i POSPower.obj
 0001:00021740       ?_AtlFinalConstruct@CComObjectRootBase@ATL@@QAEJXZ 10022740 f i POSPower.obj
 0001:00021750       ?_AtlGetConversionACP@ATL@@YGIXZ 10022750 f i POSPower.obj
 0001:00021760       ?_AtlInitialConstruct@?$CComAggObject@VCOPOSPOSPower@@@ATL@@QAEJXZ 10022760 f i POSPower.obj
 0001:000217b0       ?_AtlInitialConstruct@?$CComObjectRootEx@VCComMultiThreadModel@ATL@@@ATL@@QAEJXZ 100227b0 f i POSPower.obj
 0001:000217e0       ?_AtlInitialConstruct@?$CComObjectRootEx@VCComSingleThreadModel@ATL@@@ATL@@QAEJXZ 100227e0 f i POSPower.obj
 0001:000217f0       ?_AtlVerifyStackAvailable@_ATL_SAFE_ALLOCA_IMPL@ATL@@YA_NK@Z 100227f0 f i POSPower.obj
 0001:000219a0       ?_GetEntries@?$CComEnum@UIEnumConnectionPoints@@$1?_GUID_b196b285_bab4_101a_b69c_00aa00341d07@@3U__s_GUID@@BPAUIConnectionPoint@@V?$_CopyInterface@UIConnectionPoint@@@ATL@@VCComSingleThreadModel@6@@ATL@@SGPBU_ATL_INTMAP_ENTRY@2@XZ 100229a0 f i POSPower.obj
 0001:000219c0       ?_GetEntries@?$CComEnum@UIEnumConnections@@$1?_GUID_b196b287_bab4_101a_b69c_00aa00341d07@@3U__s_GUID@@BUtagCONNECTDATA@@V?$_Copy@UtagCONNECTDATA@@@ATL@@VCComSingleThreadModel@6@@ATL@@SGPBU_ATL_INTMAP_ENTRY@2@XZ 100229c0 f i POSPower.obj
 0001:000219e0       ?_GetEntries@CComClassFactory@ATL@@SGPBU_ATL_INTMAP_ENTRY@2@XZ 100229e0 f i POSPower.obj
 0001:00021a00       ?_GetEntries@COPOSPOSPower@@SGPBU_ATL_INTMAP_ENTRY@ATL@@XZ 10022a00 f i POSPower.obj
 0001:00021a20       ?_GetRawUnknown@COPOSPOSPower@@QAEPAUIUnknown@@XZ 10022a20 f i POSPower.obj
 0001:00021a90       ?_GetViewStatus@COPOSPOSPower@@QAEKXZ 10022a90 f i POSPower.obj
 0001:00021aa0       ?_InternalQueryInterface@?$CComEnum@UIEnumConnectionPoints@@$1?_GUID_b196b285_bab4_101a_b69c_00aa00341d07@@3U__s_GUID@@BPAUIConnectionPoint@@V?$_CopyInterface@UIConnectionPoint@@@ATL@@VCComSingleThreadModel@6@@ATL@@QAEJABU_GUID@@PAPAX@Z 10022aa0 f i POSPower.obj
 0001:00021ae0       ?_InternalQueryInterface@?$CComEnum@UIEnumConnections@@$1?_GUID_b196b287_bab4_101a_b69c_00aa00341d07@@3U__s_GUID@@BUtagCONNECTDATA@@V?$_Copy@UtagCONNECTDATA@@@ATL@@VCComSingleThreadModel@6@@ATL@@QAEJABU_GUID@@PAPAX@Z 10022ae0 f i POSPower.obj
 0001:00021b20       ?_InternalQueryInterface@CComClassFactory@ATL@@QAEJABU_GUID@@PAPAX@Z 10022b20 f i POSPower.obj
 0001:00021b60       ?_InternalQueryInterface@COPOSPOSPower@@QAEJABU_GUID@@PAPAX@Z 10022b60 f i POSPower.obj
 0001:00021ba0       ?_LocCPQueryInterface@?$IConnectionPointImpl@VCOPOSPOSPower@@$1?DIID__IOPOSPOSPowerEvents@@3U_GUID@@BVCComDynamicUnkArray@ATL@@@ATL@@UAGJABU_GUID@@PAPAX@Z 10022ba0 f i POSPower.obj
 0001:00021c40       ?_LocCPQueryInterface@?$IConnectionPointImpl@VCOPOSPOSPower@@$1?IID_IPropertyNotifySink@@3U_GUID@@BVCComDynamicUnkArray@ATL@@@ATL@@UAGJABU_GUID@@PAPAX@Z 10022c40 f i POSPower.obj
 0001:00021ce0       ?atlCreate@?$CWindowImpl@VCOPOSPOSPower@@VCWindow@ATL@@V?$CWinTraits@$0FGAAAAAA@$0A@@3@@ATL@@QAEPAUHWND__@@PAU3@V_U_RECT@2@PB_WKKV_U_MENUorID@2@PAX@Z 10022ce0 f i POSPower.obj
 0001:00021d90       ?atlCreate@?$CWindowImplBaseT@VCWindow@ATL@@V?$CWinTraits@$0FGAAAAAA@$0A@@2@@ATL@@QAEPAUHWND__@@PAU3@V_U_RECT@2@PB_WKKV_U_MENUorID@2@GPAX@Z 10022d90 f i POSPower.obj
 0001:00021f10       ?atlCreate@CRegKey@ATL@@QAEJPAUHKEY__@@PB_WPA_WKKPAU_SECURITY_ATTRIBUTES@@PAK@Z 10022f10 f i POSPower.obj
 0001:00022070       ?begin@CComDynamicUnkArray@ATL@@QAEPAPAUIUnknown@@XZ 10023070 f i POSPower.obj
 0001:00022080       ?copy@?$_Copy@UtagCONNECTDATA@@@ATL@@SAJPAUtagCONNECTDATA@@PBU3@@Z 10023080 f i POSPower.obj
 0001:00022140       ?copy@?$_CopyInterface@UIConnectionPoint@@@ATL@@SAJPAPAUIConnectionPoint@@PBQAU3@@Z 10023140 f i POSPower.obj
 0001:00022200       ?destroy@?$_Copy@UtagCONNECTDATA@@@ATL@@SAXPAUtagCONNECTDATA@@@Z 10023200 f i POSPower.obj
 0001:00022240       ?destroy@?$_CopyInterface@UIConnectionPoint@@@ATL@@SAXPAPAUIConnectionPoint@@@Z 10023240 f i POSPower.obj
 0001:00022280       ?end@CComDynamicUnkArray@ATL@@QAEPAPAUIUnknown@@XZ 10023280 f i POSPower.obj
 0001:000222a0       ?init@?$_Copy@UtagCONNECTDATA@@@ATL@@SAXPAUtagCONNECTDATA@@@Z 100232a0 f i POSPower.obj
 0001:000222b0       ?init@?$_CopyInterface@UIConnectionPoint@@@ATL@@SAXPAPAUIConnectionPoint@@@Z 100232b0 f i POSPower.obj
 0001:000222c0       ?memcpy_s@Checked@ATL@@YAXPAXIPBXI@Z 100232c0 f i POSPower.obj
 0001:000222f0       ?ocscpy_s@@YA_NPA_WIPB_W@Z 100232f0 f i POSPower.obj
 0001:00022350       ?ocslen@@YAHPB_W@Z         10023350 f i POSPower.obj
 0001:00022380       ?tcsncpy_s@Checked@ATL@@YAHPA_WIPB_WI@Z 10023380 f i POSPower.obj
 0001:000223b0       ?wcscat_s@Checked@ATL@@YAXPA_WIPB_W@Z 100233b0 f i POSPower.obj
 0001:000223e0       ?wcscpy_s@Checked@ATL@@YAXPA_WIPB_W@Z 100233e0 f i POSPower.obj
 0001:00022410       ?wcsncpy_s@Checked@ATL@@YAHPA_WIPB_WI@Z 10023410 f i POSPower.obj
 0001:00022440       ?wcsstr@@YAPA_WPA_WPB_W@Z  10023440 f i POSPower.obj
 0001:00022460       _InlineIsEqualGUID         10023460 f i POSPower.obj
 0001:00022500       _IsEqualGUID               10023500 f i POSPower.obj
 0001:00022550       ??0COPOSPOSPower@@QAE@XZ   10023550 f   POSPowerImpl.obj
 0001:00022660       ?FinalConstruct@COPOSPOSPower@@QAEJXZ 10023660 f   POSPowerImpl.obj
 0001:00022730       ??1COPOSPOSPower@@UAE@XZ   10023730 f   POSPowerImpl.obj
 0001:00022810       ?WriteTrace@COPOSPOSPower@@QAAXPB_WZZ 10023810 f   POSPowerImpl.obj
 0001:000228c0       ?WriteTraceString@COPOSPOSPower@@QAEXPB_WPA_W@Z 100238c0 f   POSPowerImpl.obj
 0001:00022c30       ?WriteTraceString@COPOSPOSPower@@QAAXPAXHHHPB_WZZ 10023c30 f   POSPowerImpl.obj
 0001:00022e60       ?WriteTraceError@COPOSPOSPower@@QAEXPB_WK@Z 10023e60 f   POSPowerImpl.obj
 0001:00022f50       ?WriteTraceMethods@COPOSPOSPower@@QAEXPAJH@Z 10023f50 f   POSPowerImpl.obj
 0001:00022fc0       ?GetOposProp@COPOSPOSPower@@IAEJPBDJPAJJ@Z 10023fc0 f   POSPowerImpl.obj
 0001:00023230       ?SetOposProp@COPOSPOSPower@@IAEJPBDJJJ@Z 10024230 f   POSPowerImpl.obj
 0001:000234c0       ?GetOposProp@COPOSPOSPower@@IAEJPBDJPAFJ@Z 100244c0 f   POSPowerImpl.obj
 0001:00023560       ?SetOposProp@COPOSPOSPower@@IAEJPBDJFJ@Z 10024560 f   POSPowerImpl.obj
 0001:000235c0       ?GetOposProp@COPOSPOSPower@@IAEJPBDJPAPA_WJ@Z 100245c0 f   POSPowerImpl.obj
 0001:00023840       ?SetOposProp@COPOSPOSPower@@IAEJPBDJPA_WJ@Z 10024840 f   POSPowerImpl.obj
 0001:00023b80       ?DoInvoke@COPOSPOSPower@@IAEJPBDJPAVOposVariant@@IHPAJ_N@Z 10024b80 f   POSPowerImpl.obj
 0001:000244b0       ?SetCOFreezeEvents@COPOSPOSPower@@IAEXF@Z 100254b0 f   POSPowerImpl.obj
 0001:000245f0       ?FreezeEvents@COPOSPOSPower@@MAGJH@Z 100255f0 f   POSPowerImpl.obj
 0001:000246b0       ?OnDraw@COPOSPOSPower@@MAEJAAUATL_DRAWINFO@@@Z 100256b0 f   POSPowerImpl.obj
 0001:00024850       ?SOProcessID@COPOSPOSPower@@UAGJPAJ@Z 10025850 f   POSPowerImpl.obj
 0001:00024890       ?get_OpenResult@COPOSPOSPower@@UAGJPAJ@Z 10025890 f   POSPowerImpl.obj
 0001:000248d0       ?get_BinaryConversion@COPOSPOSPower@@UAGJPAJ@Z 100258d0 f   POSPowerImpl.obj
 0001:00024900       ?put_BinaryConversion@COPOSPOSPower@@UAGJJ@Z 10025900 f   POSPowerImpl.obj
 0001:00024930       ?get_CapPowerReporting@COPOSPOSPower@@UAGJPAJ@Z 10025930 f   POSPowerImpl.obj
 0001:00024960       ?get_CheckHealthText@COPOSPOSPower@@UAGJPAPA_W@Z 10025960 f   POSPowerImpl.obj
 0001:00024990       ?get_Claimed@COPOSPOSPower@@UAGJPAF@Z 10025990 f   POSPowerImpl.obj
 0001:000249c0       ?get_DeviceEnabled@COPOSPOSPower@@UAGJPAF@Z 100259c0 f   POSPowerImpl.obj
 0001:000249f0       ?put_DeviceEnabled@COPOSPOSPower@@UAGJF@Z 100259f0 f   POSPowerImpl.obj
 0001:00024a20       ?get_FreezeEvents@COPOSPOSPower@@UAGJPAF@Z 10025a20 f   POSPowerImpl.obj
 0001:00024a50       ?put_FreezeEvents@COPOSPOSPower@@UAGJF@Z 10025a50 f   POSPowerImpl.obj
 0001:00024ae0       ?get_PowerNotify@COPOSPOSPower@@UAGJPAJ@Z 10025ae0 f   POSPowerImpl.obj
 0001:00024b10       ?put_PowerNotify@COPOSPOSPower@@UAGJJ@Z 10025b10 f   POSPowerImpl.obj
 0001:00024b40       ?get_PowerState@COPOSPOSPower@@UAGJPAJ@Z 10025b40 f   POSPowerImpl.obj
 0001:00024b70       ?get_ResultCode@COPOSPOSPower@@UAGJPAJ@Z 10025b70 f   POSPowerImpl.obj
 0001:00024c00       ?get_ResultCodeExtended@COPOSPOSPower@@UAGJPAJ@Z 10025c00 f   POSPowerImpl.obj
 0001:00024c30       ?get_State@COPOSPOSPower@@UAGJPAJ@Z 10025c30 f   POSPowerImpl.obj
 0001:00024c80       ?get_ControlObjectDescription@COPOSPOSPower@@UAGJPAPA_W@Z 10025c80 f   POSPowerImpl.obj
 0001:00024d00       ?get_ControlObjectVersion@COPOSPOSPower@@UAGJPAJ@Z 10025d00 f   POSPowerImpl.obj
 0001:00024d40       ?get_ServiceObjectDescription@COPOSPOSPower@@UAGJPAPA_W@Z 10025d40 f   POSPowerImpl.obj
 0001:00024d70       ?get_ServiceObjectVersion@COPOSPOSPower@@UAGJPAJ@Z 10025d70 f   POSPowerImpl.obj
 0001:00024da0       ?get_DeviceDescription@COPOSPOSPower@@UAGJPAPA_W@Z 10025da0 f   POSPowerImpl.obj
 0001:00024dd0       ?get_DeviceName@COPOSPOSPower@@UAGJPAPA_W@Z 10025dd0 f   POSPowerImpl.obj
 0001:00024e00       ?CheckHealth@COPOSPOSPower@@UAGJJPAJ@Z 10025e00 f   POSPowerImpl.obj
 0001:00024ea0       ?ClaimDevice@COPOSPOSPower@@UAGJJPAJ@Z 10025ea0 f   POSPowerImpl.obj
 0001:00024f80       ?Close@COPOSPOSPower@@UAGJPAJ@Z 10025f80 f   POSPowerImpl.obj
 0001:00025050       ?DirectIO@COPOSPOSPower@@UAGJJPAJPAPA_W0@Z 10026050 f   POSPowerImpl.obj
 0001:00025160       ?Open@COPOSPOSPower@@UAGJPA_WPAJ@Z 10026160 f   POSPowerImpl.obj
 0001:00026350       ?ReleaseDevice@COPOSPOSPower@@UAGJPAJ@Z 10027350 f   POSPowerImpl.obj
 0001:000263b0       ?get_CapFanAlarm@COPOSPOSPower@@UAGJPAF@Z 100273b0 f   POSPowerImpl.obj
 0001:000263e0       ?get_CapHeatAlarm@COPOSPOSPower@@UAGJPAF@Z 100273e0 f   POSPowerImpl.obj
 0001:00026410       ?get_CapQuickCharge@COPOSPOSPower@@UAGJPAF@Z 10027410 f   POSPowerImpl.obj
 0001:00026440       ?get_CapShutdownPOS@COPOSPOSPower@@UAGJPAF@Z 10027440 f   POSPowerImpl.obj
 0001:00026470       ?get_CapUPSChargeState@COPOSPOSPower@@UAGJPAJ@Z 10027470 f   POSPowerImpl.obj
 0001:000264a0       ?get_EnforcedShutdownDelayTime@COPOSPOSPower@@UAGJPAJ@Z 100274a0 f   POSPowerImpl.obj
 0001:000264d0       ?put_EnforcedShutdownDelayTime@COPOSPOSPower@@UAGJJ@Z 100274d0 f   POSPowerImpl.obj
 0001:00026500       ?get_PowerFailDelayTime@COPOSPOSPower@@UAGJPAJ@Z 10027500 f   POSPowerImpl.obj
 0001:00026530       ?get_QuickChargeMode@COPOSPOSPower@@UAGJPAF@Z 10027530 f   POSPowerImpl.obj
 0001:00026560       ?get_QuickChargeTime@COPOSPOSPower@@UAGJPAJ@Z 10027560 f   POSPowerImpl.obj
 0001:00026590       ?get_UPSChargeState@COPOSPOSPower@@UAGJPAJ@Z 10027590 f   POSPowerImpl.obj
 0001:000265c0       ?ShutdownPOS@COPOSPOSPower@@UAGJPAJ@Z 100275c0 f   POSPowerImpl.obj
 0001:000265f0       ?get_CapStatisticsReporting@COPOSPOSPower@@UAGJPAF@Z 100275f0 f   POSPowerImpl.obj
 0001:00026620       ?get_CapUpdateStatistics@COPOSPOSPower@@UAGJPAF@Z 10027620 f   POSPowerImpl.obj
 0001:00026650       ?ResetStatistics@COPOSPOSPower@@UAGJPA_WPAJ@Z 10027650 f   POSPowerImpl.obj
 0001:00026700       ?RetrieveStatistics@COPOSPOSPower@@UAGJPAPA_WPAJ@Z 10027700 f   POSPowerImpl.obj
 0001:000267b0       ?UpdateStatistics@COPOSPOSPower@@UAGJPA_WPAJ@Z 100277b0 f   POSPowerImpl.obj
 0001:00026860       ?get_CapCompareFirmwareVersion@COPOSPOSPower@@UAGJPAF@Z 10027860 f   POSPowerImpl.obj
 0001:00026890       ?get_CapUpdateFirmware@COPOSPOSPower@@UAGJPAF@Z 10027890 f   POSPowerImpl.obj
 0001:000268c0       ?CompareFirmwareVersion@COPOSPOSPower@@UAGJPA_WPAJ1@Z 100278c0 f   POSPowerImpl.obj
 0001:000269b0       ?UpdateFirmware@COPOSPOSPower@@UAGJPA_WPAJ@Z 100279b0 f   POSPowerImpl.obj
 0001:00026a60       ?get_BatteryCapacityRemaining@COPOSPOSPower@@UAGJPAJ@Z 10027a60 f   POSPowerImpl.obj
 0001:00026a90       ?get_BatteryCriticallyLowThreshold@COPOSPOSPower@@UAGJPAJ@Z 10027a90 f   POSPowerImpl.obj
 0001:00026ac0       ?put_BatteryCriticallyLowThreshold@COPOSPOSPower@@UAGJJ@Z 10027ac0 f   POSPowerImpl.obj
 0001:00026af0       ?get_BatteryLowThreshold@COPOSPOSPower@@UAGJPAJ@Z 10027af0 f   POSPowerImpl.obj
 0001:00026b20       ?put_BatteryLowThreshold@COPOSPOSPower@@UAGJJ@Z 10027b20 f   POSPowerImpl.obj
 0001:00026b50       ?get_CapBatteryCapacityRemaining@COPOSPOSPower@@UAGJPAF@Z 10027b50 f   POSPowerImpl.obj
 0001:00026b80       ?get_CapRestartPOS@COPOSPOSPower@@UAGJPAF@Z 10027b80 f   POSPowerImpl.obj
 0001:00026bb0       ?get_CapStandbyPOS@COPOSPOSPower@@UAGJPAF@Z 10027bb0 f   POSPowerImpl.obj
 0001:00026be0       ?get_CapSuspendPOS@COPOSPOSPower@@UAGJPAF@Z 10027be0 f   POSPowerImpl.obj
 0001:00026c10       ?get_CapVariableBatteryCriticallyLowThreshold@COPOSPOSPower@@UAGJPAF@Z 10027c10 f   POSPowerImpl.obj
 0001:00026c40       ?get_CapVariableBatteryLowThreshold@COPOSPOSPower@@UAGJPAF@Z 10027c40 f   POSPowerImpl.obj
 0001:00026c70       ?get_PowerSource@COPOSPOSPower@@UAGJPAJ@Z 10027c70 f   POSPowerImpl.obj
 0001:00026ca0       ?RestartPOS@COPOSPOSPower@@UAGJPAJ@Z 10027ca0 f   POSPowerImpl.obj
 0001:00026cd0       ?StandbyPOS@COPOSPOSPower@@UAGJJPAJ@Z 10027cd0 f   POSPowerImpl.obj
 0001:00026d70       ?SuspendPOS@COPOSPOSPower@@UAGJJPAJ@Z 10027d70 f   POSPowerImpl.obj
 0001:00026e10       ??0?$CComControl@VCOPOSPOSPower@@V?$CWindowImpl@VCOPOSPOSPower@@VCWindow@ATL@@V?$CWinTraits@$0FGAAAAAA@$0A@@3@@ATL@@@ATL@@QAE@XZ 10027e10 f i POSPowerImpl.obj
 0001:00026e50       ??0?$CComPtr@UIAdviseSink@@@ATL@@QAE@XZ 10027e50 f i POSPowerImpl.obj
 0001:00026e80       ??0?$CComPtr@UIDataAdviseHolder@@@ATL@@QAE@XZ 10027e80 f i POSPowerImpl.obj
 0001:00026eb0       ??0?$CComPtr@UIOleAdviseHolder@@@ATL@@QAE@XZ 10027eb0 f i POSPowerImpl.obj
 0001:00026ee0       ??0?$CComPtr@UIOleClientSite@@@ATL@@QAE@XZ 10027ee0 f i POSPowerImpl.obj
 0001:00026f10       ??0?$CComPtr@UIOleInPlaceSiteWindowless@@@ATL@@QAE@XZ 10027f10 f i POSPowerImpl.obj
 0001:00026f40       ??0?$CComPtrBase@UIAdviseSink@@@ATL@@IAE@XZ 10027f40 f i POSPowerImpl.obj
 0001:00026f60       ??0?$CComPtrBase@UIDataAdviseHolder@@@ATL@@IAE@XZ 10027f60 f i POSPowerImpl.obj
 0001:00026f80       ??0?$CComPtrBase@UIOleAdviseHolder@@@ATL@@IAE@XZ 10027f80 f i POSPowerImpl.obj
 0001:00026fa0       ??0?$CComPtrBase@UIOleClientSite@@@ATL@@IAE@XZ 10027fa0 f i POSPowerImpl.obj
 0001:00026fc0       ??0?$CComPtrBase@UIOleInPlaceSiteWindowless@@@ATL@@IAE@XZ 10027fc0 f i POSPowerImpl.obj
 0001:00026fe0       ??0?$CComQIPtr@UIDispatch@@$1?_GUID_00020400_0000_0000_c000_000000000046@@3U__s_GUID@@B@ATL@@QAE@XZ 10027fe0 f i POSPowerImpl.obj
 0001:00027010       ??0?$CProxy_IOPOSEvents@VCOPOSPOSPower@@@@QAE@PAVCOPOSPOSPower@@@Z 10028010 f i POSPowerImpl.obj
 0001:00027060       ??0?$CWindowImpl@VCOPOSPOSPower@@VCWindow@ATL@@V?$CWinTraits@$0FGAAAAAA@$0A@@3@@ATL@@QAE@XZ 10028060 f i POSPowerImpl.obj
 0001:00027090       ??0?$CWindowImplBaseT@VCWindow@ATL@@V?$CWinTraits@$0FGAAAAAA@$0A@@2@@ATL@@QAE@XZ 10028090 f i POSPowerImpl.obj
 0001:000270d0       ??0?$CWindowImplRoot@VCWindow@ATL@@@ATL@@QAE@XZ 100280d0 f i POSPowerImpl.obj
 0001:00027130       ??0?$IConnectionPointContainerImpl@VCOPOSPOSPower@@@ATL@@QAE@XZ 10028130 f i POSPowerImpl.obj
 0001:00027160       ??0?$IConnectionPointImpl@VCOPOSPOSPower@@$1?DIID__IOPOSPOSPowerEvents@@3U_GUID@@BVCComDynamicUnkArray@ATL@@@ATL@@QAE@XZ 10028160 f i POSPowerImpl.obj
 0001:000271a0       ??0?$IConnectionPointImpl@VCOPOSPOSPower@@$1?IID_IPropertyNotifySink@@3U_GUID@@BVCComDynamicUnkArray@ATL@@@ATL@@QAE@XZ 100281a0 f i POSPowerImpl.obj
 0001:000271e0       ??0?$IDataObjectImpl@VCOPOSPOSPower@@@ATL@@QAE@XZ 100281e0 f i POSPowerImpl.obj
 0001:00027210       ??0?$IDispatchImpl@UIOPOSPOSPower@@$1?IID_IOPOSPOSPower@@3U_GUID@@B$1?LIBID_OposPOSPower_CCO@@3U3@B$00$0A@VCComTypeInfoHolder@ATL@@@ATL@@QAE@XZ 10028210 f i POSPowerImpl.obj
 0001:00027240       ??0?$IObjectSafetyImpl@VCOPOSPOSPower@@$02@ATL@@QAE@XZ 10028240 f i POSPowerImpl.obj
 0001:00027280       ??0?$IOleControlImpl@VCOPOSPOSPower@@@ATL@@QAE@XZ 10028280 f i POSPowerImpl.obj
 0001:000272b0       ??0?$IOleInPlaceActiveObjectImpl@VCOPOSPOSPower@@@ATL@@QAE@XZ 100282b0 f i POSPowerImpl.obj
 0001:000272e0       ??0?$IOleInPlaceObjectWindowlessImpl@VCOPOSPOSPower@@@ATL@@QAE@XZ 100282e0 f i POSPowerImpl.obj
 0001:00027310       ??0?$IOleObjectImpl@VCOPOSPOSPower@@@ATL@@QAE@XZ 10028310 f i POSPowerImpl.obj
 0001:00027340       ??0?$IPersistStorageImpl@VCOPOSPOSPower@@@ATL@@QAE@XZ 10028340 f i POSPowerImpl.obj
 0001:00027370       ??0?$IPersistStreamInitImpl@VCOPOSPOSPower@@@ATL@@QAE@XZ 10028370 f i POSPowerImpl.obj
 0001:000273a0       ??0?$IPropertyNotifySinkCP@VCOPOSPOSPower@@VCComDynamicUnkArray@ATL@@@ATL@@QAE@XZ 100283a0 f i POSPowerImpl.obj
 0001:000273d0       ??0?$IProvideClassInfo2Impl@$1?CLSID_OPOSPOSPower@@3U_GUID@@B$1?DIID__IOPOSPOSPowerEvents@@3U2@B$1?LIBID_OposPOSPower_CCO@@3U2@B$00$0A@VCComTypeInfoHolder@ATL@@@ATL@@QAE@XZ 100283d0 f i POSPowerImpl.obj
 0001:00027400       ??0?$IQuickActivateImpl@VCOPOSPOSPower@@@ATL@@QAE@XZ 10028400 f i POSPowerImpl.obj
 0001:00027430       ??0?$ISpecifyPropertyPagesImpl@VCOPOSPOSPower@@@ATL@@QAE@XZ 10028430 f i POSPowerImpl.obj
 0001:00027460       ??0?$IViewObjectExImpl@VCOPOSPOSPower@@@ATL@@QAE@XZ 10028460 f i POSPowerImpl.obj
 0001:00027490       ??0?$_ICPLocator@$1?DIID__IOPOSPOSPowerEvents@@3U_GUID@@B@ATL@@QAE@XZ 10028490 f i POSPowerImpl.obj
 0001:000274a0       ??0?$_ICPLocator@$1?IID_IPropertyNotifySink@@3U_GUID@@B@ATL@@QAE@XZ 100284a0 f i POSPowerImpl.obj
 0001:000274b0       ??0CComControlBase@ATL@@QAE@AAPAUHWND__@@@Z 100284b0 f i POSPowerImpl.obj
 0001:00027660       ??0CComDynamicUnkArray@ATL@@QAE@XZ 10028660 f i POSPowerImpl.obj
 0001:00027690       ??0CDynamicStdCallThunk2@ATL@@QAE@XZ 10028690 f i POSPowerImpl.obj
 0001:000276b0       ??0CMessageMap@ATL@@QAE@XZ 100286b0 f i POSPowerImpl.obj
 0001:000276c0       ??0CWindow@ATL@@QAE@PAUHWND__@@@Z 100286c0 f i POSPowerImpl.obj
 0001:000276e0       ??0CWndProcThunk@ATL@@QAE@XZ 100286e0 f i POSPowerImpl.obj
 0001:00027710       ??0IConnectionPointContainer@@QAE@XZ 10028710 f i POSPowerImpl.obj
 0001:00027740       ??0IDataObject@@QAE@XZ     10028740 f i POSPowerImpl.obj
 0001:00027770       ??0IDispatch@@QAE@XZ       10028770 f i POSPowerImpl.obj
 0001:000277a0       ??0IOPOSPOSPower@@QAE@XZ   100287a0 f i POSPowerImpl.obj
 0001:000277d0       ??0IOPOSPOSPower_1_5@@QAE@XZ 100287d0 f i POSPowerImpl.obj
 0001:00027800       ??0IOPOSPOSPower_1_8@@QAE@XZ 10028800 f i POSPowerImpl.obj
 0001:00027830       ??0IOPOSPOSPower_1_9@@QAE@XZ 10028830 f i POSPowerImpl.obj
 0001:00027860       ??0IObjectSafety@@QAE@XZ   10028860 f i POSPowerImpl.obj
 0001:00027890       ??0IOleControl@@QAE@XZ     10028890 f i POSPowerImpl.obj
 0001:000278c0       ??0IOleInPlaceActiveObject@@QAE@XZ 100288c0 f i POSPowerImpl.obj
 0001:000278f0       ??0IOleInPlaceObject@@QAE@XZ 100288f0 f i POSPowerImpl.obj
 0001:00027920       ??0IOleInPlaceObjectWindowless@@QAE@XZ 10028920 f i POSPowerImpl.obj
 0001:00027950       ??0IOleObject@@QAE@XZ      10028950 f i POSPowerImpl.obj
 0001:00027980       ??0IOleWindow@@QAE@XZ      10028980 f i POSPowerImpl.obj
 0001:000279b0       ??0IPersist@@QAE@XZ        100289b0 f i POSPowerImpl.obj
 0001:000279e0       ??0IPersistStorage@@QAE@XZ 100289e0 f i POSPowerImpl.obj
 0001:00027a10       ??0IPersistStreamInit@@QAE@XZ 10028a10 f i POSPowerImpl.obj
 0001:00027a40       ??0IProvideClassInfo2@@QAE@XZ 10028a40 f i POSPowerImpl.obj
 0001:00027a70       ??0IProvideClassInfo@@QAE@XZ 10028a70 f i POSPowerImpl.obj
 0001:00027aa0       ??0IQuickActivate@@QAE@XZ  10028aa0 f i POSPowerImpl.obj
 0001:00027ad0       ??0ISpecifyPropertyPages@@QAE@XZ 10028ad0 f i POSPowerImpl.obj
 0001:00027b00       ??0IViewObject2@@QAE@XZ    10028b00 f i POSPowerImpl.obj
 0001:00027b30       ??0IViewObject@@QAE@XZ     10028b30 f i POSPowerImpl.obj
 0001:00027b60       ??0IViewObjectEx@@QAE@XZ   10028b60 f i POSPowerImpl.obj
 0001:00027b90       ??0OposVariantResult@@QAE@XZ 10028b90 f i POSPowerImpl.obj
 0001:00027bc0       ??0_CW@@QAE@PBD@Z          10028bc0 f i POSPowerImpl.obj
 0001:00027c00       ??0_CW@@QAE@PB_W@Z         10028c00 f i POSPowerImpl.obj
 0001:00027c40       ??0_CWNCC@@QAE@PBD@Z       10028c40 f i POSPowerImpl.obj
 0001:00027c70       ??1?$CComControl@VCOPOSPOSPower@@V?$CWindowImpl@VCOPOSPOSPower@@VCWindow@ATL@@V?$CWinTraits@$0FGAAAAAA@$0A@@3@@ATL@@@ATL@@UAE@XZ 10028c70 f i POSPowerImpl.obj
 0001:00027ca0       ??1?$CComPtr@UIDataAdviseHolder@@@ATL@@QAE@XZ 10028ca0 f i POSPowerImpl.obj
 0001:00027cd0       ??1?$CComPtr@UIOleAdviseHolder@@@ATL@@QAE@XZ 10028cd0 f i POSPowerImpl.obj
 0001:00027d00       ??1?$CComPtr@UIOleInPlaceSiteWindowless@@@ATL@@QAE@XZ 10028d00 f i POSPowerImpl.obj
 0001:00027d30       ??1?$CComPtrBase@UIDataAdviseHolder@@@ATL@@QAE@XZ 10028d30 f i POSPowerImpl.obj
 0001:00027d80       ??1?$CComPtrBase@UIOleAdviseHolder@@@ATL@@QAE@XZ 10028d80 f i POSPowerImpl.obj
 0001:00027dd0       ??1?$CComPtrBase@UIOleInPlaceSiteWindowless@@@ATL@@QAE@XZ 10028dd0 f i POSPowerImpl.obj
 0001:00027e20       ??1?$CComQIPtr@UIDispatch@@$1?_GUID_00020400_0000_0000_c000_000000000046@@3U__s_GUID@@B@ATL@@QAE@XZ 10028e20 f i POSPowerImpl.obj
 0001:00027e50       ??1?$CProxy_IOPOSEvents@VCOPOSPOSPower@@@@QAE@XZ 10028e50 f i POSPowerImpl.obj
 0001:00027e80       ??1?$CWindowImpl@VCOPOSPOSPower@@VCWindow@ATL@@V?$CWinTraits@$0FGAAAAAA@$0A@@3@@ATL@@UAE@XZ 10028e80 f i POSPowerImpl.obj
 0001:00027eb0       ??1?$CWindowImplBaseT@VCWindow@ATL@@V?$CWinTraits@$0FGAAAAAA@$0A@@2@@ATL@@UAE@XZ 10028eb0 f i POSPowerImpl.obj
 0001:00027ee0       ??1?$CWindowImplRoot@VCWindow@ATL@@@ATL@@UAE@XZ 10028ee0 f i POSPowerImpl.obj
 0001:00027f80       ??1?$IConnectionPointImpl@VCOPOSPOSPower@@$1?DIID__IOPOSPOSPowerEvents@@3U_GUID@@BVCComDynamicUnkArray@ATL@@@ATL@@QAE@XZ 10028f80 f i POSPowerImpl.obj
 0001:00028000       ??1?$IConnectionPointImpl@VCOPOSPOSPower@@$1?IID_IPropertyNotifySink@@3U_GUID@@BVCComDynamicUnkArray@ATL@@@ATL@@QAE@XZ 10029000 f i POSPowerImpl.obj
 0001:00028080       ??1?$IPropertyNotifySinkCP@VCOPOSPOSPower@@VCComDynamicUnkArray@ATL@@@ATL@@QAE@XZ 10029080 f i POSPowerImpl.obj
 0001:000280b0       ??1CComControlBase@ATL@@UAE@XZ 100290b0 f i POSPowerImpl.obj
 0001:00028170       ??1CComDynamicUnkArray@ATL@@QAE@XZ 10029170 f i POSPowerImpl.obj
 0001:000281b0       ??1CDynamicStdCallThunk2@ATL@@QAE@XZ 100291b0 f i POSPowerImpl.obj
 0001:000281e0       ??1CWndProcThunk@ATL@@QAE@XZ 100291e0 f i POSPowerImpl.obj
 0001:00028210       ??1OposVariantResult@@QAE@XZ 10029210 f i POSPowerImpl.obj
 0001:00028240       ??1_CW@@QAE@XZ             10029240 f i POSPowerImpl.obj
 0001:000282b0       ??1_CWNCC@@QAE@XZ          100292b0 f i POSPowerImpl.obj
 0001:000282e0       ??B_CW@@QAEPB_WXZ          100292e0 f i POSPowerImpl.obj
 0001:00028320       ??B_CWNCC@@QAEPA_WXZ       10029320 f i POSPowerImpl.obj
 0001:00028350       ??_EOposVariant@@QAEPAXI@Z 10029350 f i POSPowerImpl.obj
 0001:000283e0       ?EventClose@COPOSPOSPower@@IAEXXZ 100293e0 f i POSPowerImpl.obj
 0001:00028480       ?EventInit@COPOSPOSPower@@IAEJXZ 10029480 f i POSPowerImpl.obj
 0001:000286b0       ?EventOpen@COPOSPOSPower@@IAEXXZ 100296b0 f i POSPowerImpl.obj
 0001:000286f0       ?EventPreClose@COPOSPOSPower@@IAEXXZ 100296f0 f i POSPowerImpl.obj
 0001:00028770       ?EventUninit@COPOSPOSPower@@IAEXXZ 10029770 f i POSPowerImpl.obj
 0001:000288a0       ?EventWindowProc@COPOSPOSPower@@IAGJIIJ@Z 100298a0 f i POSPowerImpl.obj
 0001:00028980       ?FireEventCleanup@COPOSPOSPower@@IAEXXZ 10029980 f i POSPowerImpl.obj
 0001:000289d0       ?FireEventSetup@COPOSPOSPower@@IAE_NXZ 100299d0 f i POSPowerImpl.obj
 0001:00028a40       ?GetModuleInstance@CComModule@ATL@@QAEPAUHINSTANCE__@@XZ 10029a40 f i POSPowerImpl.obj
 0001:00028a50       ?SetRC@COPOSPOSPower@@IAEJJ@Z 10029a50 f i POSPowerImpl.obj
 0001:00028a70       ?s_EventWindowProc@COPOSPOSPower@@KGJPAUHWND__@@IIJ@Z 10029a70 f i POSPowerImpl.obj
 0001:00028b10       __snwprintf                10029b10 f i POSPowerImpl.obj
 0001:00028b70       __vfwprintf_l              10029b70 f i POSPowerImpl.obj
 0001:00028ba0       __vsnwprintf               10029ba0 f i POSPowerImpl.obj
 0001:00028bd0       __vsnwprintf_l             10029bd0 f i POSPowerImpl.obj
 0001:00028c40       _vfwprintf                 10029c40 f i POSPowerImpl.obj
 0001:00028c62       _DebugBreak@0              10029c62 f   kernel32:KERNEL32.dll
 0001:00028c68       _Sleep@4                   10029c68 f   kernel32:KERNEL32.dll
 0001:00028c6e       _GetCurrentProcess@0       10029c6e f   kernel32:KERNEL32.dll
 0001:00028c74       _TerminateProcess@8        10029c74 f   kernel32:KERNEL32.dll
 0001:00028c7a       _MultiByteToWideChar@24    10029c7a f   kernel32:KERNEL32.dll
 0001:00028c80       _WideCharToMultiByte@32    10029c80 f   kernel32:KERNEL32.dll
 0001:00028c86       _DecodePointer@4           10029c86 f   kernel32:KERNEL32.dll
 0001:00028c8c       _RaiseException@16         10029c8c f   kernel32:KERNEL32.dll
 0001:00028c92       _GetLastError@0            10029c92 f   kernel32:KERNEL32.dll
 0001:00028c98       _SetLastError@4            10029c98 f   kernel32:KERNEL32.dll
 0001:00028c9e       _InitializeCriticalSectionEx@12 10029c9e f   kernel32:KERNEL32.dll
 0001:00028ca4       _DeleteCriticalSection@4   10029ca4 f   kernel32:KERNEL32.dll
 0001:00028caa       _EncodePointer@4           10029caa f   kernel32:KERNEL32.dll
 0001:00028cb0       _EnterCriticalSection@4    10029cb0 f   kernel32:KERNEL32.dll
 0001:00028cb6       _LeaveCriticalSection@4    10029cb6 f   kernel32:KERNEL32.dll
 0001:00028cbc       _ResetEvent@4              10029cbc f   kernel32:KERNEL32.dll
 0001:00028cc2       _ReleaseMutex@4            10029cc2 f   kernel32:KERNEL32.dll
 0001:00028cc8       _WaitForSingleObject@8     10029cc8 f   kernel32:KERNEL32.dll
 0001:00028cce       _GetCurrentThreadId@0      10029cce f   kernel32:KERNEL32.dll
 0001:00028cd4       _DisableThreadLibraryCalls@4 10029cd4 f   kernel32:KERNEL32.dll
 0001:00028cda       _FreeLibrary@4             10029cda f   kernel32:KERNEL32.dll
 0001:00028ce0       _GetModuleFileNameW@12     10029ce0 f   kernel32:KERNEL32.dll
 0001:00028ce6       _GetModuleHandleW@4        10029ce6 f   kernel32:KERNEL32.dll
 0001:00028cec       _GetProcAddress@8          10029cec f   kernel32:KERNEL32.dll
 0001:00028cf2       _LoadLibraryExW@12         10029cf2 f   kernel32:KERNEL32.dll
 0001:00028cf8       _LoadResource@8            10029cf8 f   kernel32:KERNEL32.dll
 0001:00028cfe       _SizeofResource@8          10029cfe f   kernel32:KERNEL32.dll
 0001:00028d04       _FindResourceW@12          10029d04 f   kernel32:KERNEL32.dll
 0001:00028d0a       _GlobalAlloc@8             10029d0a f   kernel32:KERNEL32.dll
 0001:00028d10       _GlobalUnlock@4            10029d10 f   kernel32:KERNEL32.dll
 0001:00028d16       _GlobalLock@4              10029d16 f   kernel32:KERNEL32.dll
 0001:00028d1c       _MulDiv@12                 10029d1c f   kernel32:KERNEL32.dll
 0001:00028d22       _lstrcmpiW@8               10029d22 f   kernel32:KERNEL32.dll
 0001:00028d28       _DeleteFileW@4             10029d28 f   kernel32:KERNEL32.dll
 0001:00028d2e       _CloseHandle@4             10029d2e f   kernel32:KERNEL32.dll
 0001:00028d34       _SetEvent@4                10029d34 f   kernel32:KERNEL32.dll
 0001:00028d3a       _CreateMutexW@12           10029d3a f   kernel32:KERNEL32.dll
 0001:00028d40       _CreateEventW@16           10029d40 f   kernel32:KERNEL32.dll
 0001:00028d46       _GetCurrentProcessId@0     10029d46 f   kernel32:KERNEL32.dll
 0001:00028d4c       _LocalFree@4               10029d4c f   kernel32:KERNEL32.dll
 0001:00028d52       _FormatMessageW@28         10029d52 f   kernel32:KERNEL32.dll
 0001:00028d58       _GetActiveWindow@0         10029d58 f   user32:USER32.dll
 0001:00028d5e       _MessageBoxW@16            10029d5e f   user32:USER32.dll
 0001:00028d64       _UnregisterClassW@8        10029d64 f   user32:USER32.dll
 0001:00028d6a       _PostMessageW@16           10029d6a f   user32:USER32.dll
 0001:00028d70       _DefWindowProcW@16         10029d70 f   user32:USER32.dll
 0001:00028d76       _CallWindowProcW@20        10029d76 f   user32:USER32.dll
 0001:00028d7c       _RegisterClassExW@4        10029d7c f   user32:USER32.dll
 0001:00028d82       _GetClassInfoExW@12        10029d82 f   user32:USER32.dll
 0001:00028d88       _CreateWindowExW@48        10029d88 f   user32:USER32.dll
 0001:00028d8e       _IsWindow@4                10029d8e f   user32:USER32.dll
 0001:00028d94       _IsChild@8                 10029d94 f   user32:USER32.dll
 0001:00028d9a       _DestroyWindow@4           10029d9a f   user32:USER32.dll
 0001:00028da0       _ShowWindow@8              10029da0 f   user32:USER32.dll
 0001:00028da6       _SetWindowPos@28           10029da6 f   user32:USER32.dll
 0001:00028dac       _CharNextW@4               10029dac f   user32:USER32.dll
 0001:00028db2       _SetFocus@4                10029db2 f   user32:USER32.dll
 0001:00028db8       _GetFocus@0                10029db8 f   user32:USER32.dll
 0001:00028dbe       _GetKeyState@4             10029dbe f   user32:USER32.dll
 0001:00028dc4       _GetDC@4                   10029dc4 f   user32:USER32.dll
 0001:00028dca       _ReleaseDC@8               10029dca f   user32:USER32.dll
 0001:00028dd0       _BeginPaint@8              10029dd0 f   user32:USER32.dll
 0001:00028dd6       _EndPaint@8                10029dd6 f   user32:USER32.dll
 0001:00028ddc       _SetWindowRgn@12           10029ddc f   user32:USER32.dll
 0001:00028de2       _InvalidateRect@12         10029de2 f   user32:USER32.dll
 0001:00028de8       _GetClientRect@8           10029de8 f   user32:USER32.dll
 0001:00028dee       _IntersectRect@12          10029dee f   user32:USER32.dll
 0001:00028df4       _UnionRect@12              10029df4 f   user32:USER32.dll
 0001:00028dfa       _OffsetRect@12             10029dfa f   user32:USER32.dll
 0001:00028e00       _EqualRect@8               10029e00 f   user32:USER32.dll
 0001:00028e06       _PtInRect@12               10029e06 f   user32:USER32.dll
 0001:00028e0c       _GetWindowLongW@8          10029e0c f   user32:USER32.dll
 0001:00028e12       _SetWindowLongW@12         10029e12 f   user32:USER32.dll
 0001:00028e18       _GetParent@4               10029e18 f   user32:USER32.dll
 0001:00028e1e       _LoadCursorW@8             10029e1e f   user32:USER32.dll
 0001:00028e24       _PeekMessageW@20           10029e24 f   user32:USER32.dll
 0001:00028e2a       _RegisterClassW@4          10029e2a f   user32:USER32.dll
 0001:00028e30       _LoadBitmapW@8             10029e30 f   user32:USER32.dll
 0001:00028e36       _CloseMetaFile@4           10029e36 f   gdi32:GDI32.dll
 0001:00028e3c       _CreateDCW@16              10029e3c f   gdi32:GDI32.dll
 0001:00028e42       _CreateMetaFileW@4         10029e42 f   gdi32:GDI32.dll
 0001:00028e48       _CreateRectRgnIndirect@4   10029e48 f   gdi32:GDI32.dll
 0001:00028e4e       _DeleteDC@4                10029e4e f   gdi32:GDI32.dll
 0001:00028e54       _DeleteMetaFile@4          10029e54 f   gdi32:GDI32.dll
 0001:00028e5a       _GetDeviceCaps@8           10029e5a f   gdi32:GDI32.dll
 0001:00028e60       _RestoreDC@8               10029e60 f   gdi32:GDI32.dll
 0001:00028e66       _SaveDC@4                  10029e66 f   gdi32:GDI32.dll
 0001:00028e6c       _SetMapMode@8              10029e6c f   gdi32:GDI32.dll
 0001:00028e72       _LPtoDP@12                 10029e72 f   gdi32:GDI32.dll
 0001:00028e78       _SetViewportOrgEx@16       10029e78 f   gdi32:GDI32.dll
 0001:00028e7e       _SetWindowExtEx@16         10029e7e f   gdi32:GDI32.dll
 0001:00028e84       _SetWindowOrgEx@16         10029e84 f   gdi32:GDI32.dll
 0001:00028e8a       _BitBlt@36                 10029e8a f   gdi32:GDI32.dll
 0001:00028e90       _CreateCompatibleDC@4      10029e90 f   gdi32:GDI32.dll
 0001:00028e96       _DeleteObject@4            10029e96 f   gdi32:GDI32.dll
 0001:00028e9c       _SelectObject@8            10029e9c f   gdi32:GDI32.dll
 0001:00028ea2       _GetObjectW@12             10029ea2 f   gdi32:GDI32.dll
 0001:00028ea8       _RegCloseKey@4             10029ea8 f   advapi32:ADVAPI32.dll
 0001:00028eae       _RegCreateKeyExW@36        10029eae f   advapi32:ADVAPI32.dll
 0001:00028eb4       _RegDeleteKeyW@8           10029eb4 f   advapi32:ADVAPI32.dll
 0001:00028eba       _RegDeleteValueW@8         10029eba f   advapi32:ADVAPI32.dll
 0001:00028ec0       _RegEnumKeyExW@32          10029ec0 f   advapi32:ADVAPI32.dll
 0001:00028ec6       _RegOpenKeyExW@20          10029ec6 f   advapi32:ADVAPI32.dll
 0001:00028ecc       _RegQueryInfoKeyW@48       10029ecc f   advapi32:ADVAPI32.dll
 0001:00028ed2       _RegSetValueExW@24         10029ed2 f   advapi32:ADVAPI32.dll
 0001:00028ed8       _RegQueryValueExW@24       10029ed8 f   advapi32:ADVAPI32.dll
 0001:00028ede       _CoCreateInstance@20       10029ede f   ole32:ole32.dll
 0001:00028ee4       _StringFromGUID2@12        10029ee4 f   ole32:ole32.dll
 0001:00028eea       _CoTaskMemAlloc@4          10029eea f   ole32:ole32.dll
 0001:00028ef0       _CoTaskMemRealloc@8        10029ef0 f   ole32:ole32.dll
 0001:00028ef6       _CoTaskMemFree@4           10029ef6 f   ole32:ole32.dll
 0001:00028efc       _ReadClassStm@8            10029efc f   ole32:ole32.dll
 0001:00028f02       _WriteClassStm@8           10029f02 f   ole32:ole32.dll
 0001:00028f08       _CreateDataAdviseHolder@4  10029f08 f   ole32:ole32.dll
 0001:00028f0e       _OleSaveToStream@8         10029f0e f   ole32:ole32.dll
 0001:00028f14       _CreateOleAdviseHolder@4   10029f14 f   ole32:ole32.dll
 0001:00028f1a       _OleRegGetUserType@12      10029f1a f   ole32:ole32.dll
 0001:00028f20       _OleRegGetMiscStatus@12    10029f20 f   ole32:ole32.dll
 0001:00028f26       _OleRegEnumVerbs@8         10029f26 f   ole32:ole32.dll
 0001:00028f2c       _CLSIDFromProgID@8         10029f2c f   ole32:ole32.dll
 0001:00028f32       _SysAllocString@4          10029f32 f   oleaut32:OLEAUT32.dll
 0001:00028f38       _SysAllocStringLen@8       10029f38 f   oleaut32:OLEAUT32.dll
 0001:00028f3e       _SysFreeString@4           10029f3e f   oleaut32:OLEAUT32.dll
 0001:00028f44       _SysStringLen@4            10029f44 f   oleaut32:OLEAUT32.dll
 0001:00028f4a       _VariantClear@4            10029f4a f   oleaut32:OLEAUT32.dll
 0001:00028f50       _VariantCopyInd@8          10029f50 f   oleaut32:OLEAUT32.dll
 0001:00028f56       _VariantChangeType@16      10029f56 f   oleaut32:OLEAUT32.dll
 0001:00028f5c       _SysStringByteLen@4        10029f5c f   oleaut32:OLEAUT32.dll
 0001:00028f62       _SysAllocStringByteLen@8   10029f62 f   oleaut32:OLEAUT32.dll
 0001:00028f68       _VariantInit@4             10029f68 f   oleaut32:OLEAUT32.dll
 0001:00028f6e       _VarUI4FromStr@16          10029f6e f   oleaut32:OLEAUT32.dll
 0001:00028f74       _LoadTypeLib@8             10029f74 f   oleaut32:OLEAUT32.dll
 0001:00028f7a       _LoadRegTypeLib@20         10029f7a f   oleaut32:OLEAUT32.dll
 0001:00028f80       _RegisterTypeLib@12        10029f80 f   oleaut32:OLEAUT32.dll
 0001:00028f86       _UnRegisterTypeLib@20      10029f86 f   oleaut32:OLEAUT32.dll
 0001:00028f8c       _OleCreatePropertyFrame@44 10029f8c f   oleaut32:OLEAUT32.dll
 0001:00028fa0       @_RTC_AllocaHelper@12      10029fa0 f   LIBCMTD:stack.obj
 0001:00028fe0       @_RTC_CheckStackVars2@12   10029fe0 f   LIBCMTD:stack.obj
 0001:000290c0       @_RTC_CheckStackVars@8     1002a0c0 f   LIBCMTD:stack.obj
 0001:00029120       __RTC_CheckEsp             1002a120 f   LIBCMTD:stack.obj
 0001:00029150       @__security_check_cookie@4 1002a150 f   LIBCMTD:secchk.obj
 0001:00029160       __CRT_RTC_INIT             1002a160 f   LIBCMTD:init.obj
 0001:00029170       __CRT_RTC_INITW            1002a170 f   LIBCMTD:init.obj
 0001:00029180       __RTC_InitBase             1002a180 f   LIBCMTD:init.obj
 0001:000291b0       __RTC_Shutdown             1002a1b0 f   LIBCMTD:init.obj
 0001:000291d0       ??_U@YAPAXI@Z              1002a1d0 f   LIBCMTD:new_array.obj
 0001:000291f0       ??3@YAXPAXI@Z              1002a1f0 f   LIBCMTD:delete_scalar_size.obj
 0001:00029210       ??_V@YAXPAX@Z              1002a210 f   LIBCMTD:delete_array.obj
 0001:00029230       ??_V@YAXPAXI@Z             1002a230 f   LIBCMTD:delete_array_size.obj
 0001:00029250       ?configure_argv@__scrt_narrow_argv_policy@@SAHXZ 1002a250 f i LIBCMTD:utility.obj
 0001:00029300       ?initialize_environment@__scrt_narrow_environment_policy@@SAHXZ 1002a300 f i LIBCMTD:utility.obj
 0001:00029380       _NtCurrentTeb              1002a380 f i LIBCMTD:utility.obj
 0001:00029390       ___scrt_acquire_startup_lock 1002a390 f   LIBCMTD:utility.obj
 0001:000293e0       ___scrt_dllmain_after_initialize_c 1002a3e0 f   LIBCMTD:utility.obj
 0001:00029410       ___scrt_dllmain_before_initialize_c 1002a410 f   LIBCMTD:utility.obj
 0001:00029430       ___scrt_dllmain_crt_thread_attach 1002a430 f   LIBCMTD:utility.obj
 0001:00029460       ___scrt_dllmain_crt_thread_detach 1002a460 f   LIBCMTD:utility.obj
 0001:00029480       ___scrt_dllmain_exception_filter 1002a480 f   LIBCMTD:utility.obj
 0001:000294d0       ___scrt_dllmain_uninitialize_c 1002a4d0 f   LIBCMTD:utility.obj
 0001:00029500       ___scrt_dllmain_uninitialize_critical 1002a500 f   LIBCMTD:utility.obj
 0001:00029520       ___scrt_initialize_crt     1002a520 f   LIBCMTD:utility.obj
 0001:00029570       ___scrt_initialize_onexit_tables 1002a570 f   LIBCMTD:utility.obj
 0001:00029650       ___scrt_is_nonwritable_in_current_image 1002a650 f   LIBCMTD:utility.obj
 0001:00029780       ___scrt_release_startup_lock 1002a780 f   LIBCMTD:utility.obj
 0001:000297b0       ___scrt_uninitialize_crt   1002a7b0 f   LIBCMTD:utility.obj
 0001:000297f0       __onexit                   1002a7f0 f   LIBCMTD:utility.obj
 0001:00029860       _at_quick_exit             1002a860 f   LIBCMTD:utility.obj
 0001:000298a0       _atexit                    1002a8a0 f   LIBCMTD:utility.obj
 0001:000298d0       ??3@YAXPAX@Z               1002a8d0 f   LIBCMTD:delete_scalar.obj
 0001:000298f0       ___raise_securityfailure   1002a8f0 f   LIBCMTD:gs_report.obj
 0001:00029920       ___report_gsfailure        1002a920 f   LIBCMTD:gs_report.obj
 0001:00029a30       ___report_rangecheckfailure 1002aa30 f   LIBCMTD:gs_report.obj
 0001:00029a40       ___report_securityfailure  1002aa40 f   LIBCMTD:gs_report.obj
 0001:00029b20       ___report_securityfailureEx 1002ab20 f   LIBCMTD:gs_report.obj
 0001:00029d70       __Init_thread_abort        1002ad70 f   LIBCMTD:thread_safe_statics.obj
 0001:00029d90       __Init_thread_footer       1002ad90 f   LIBCMTD:thread_safe_statics.obj
 0001:00029de0       __Init_thread_header       1002ade0 f   LIBCMTD:thread_safe_statics.obj
 0001:00029e50       __Init_thread_lock         1002ae50 f   LIBCMTD:thread_safe_statics.obj
 0001:00029e60       __Init_thread_notify       1002ae60 f   LIBCMTD:thread_safe_statics.obj
 0001:00029eb0       __Init_thread_unlock       1002aeb0 f   LIBCMTD:thread_safe_statics.obj
 0001:00029ec0       __Init_thread_wait         1002aec0 f   LIBCMTD:thread_safe_statics.obj
 0001:00029f50       ??2@YAPAXIABUnothrow_t@std@@@Z 1002af50 f   LIBCMTD:new_scalar_nothrow.obj
 0001:00029fe0       ??_U@YAPAXIABUnothrow_t@std@@@Z 1002afe0 f   LIBCMTD:new_array_nothrow.obj
 0001:0002a000       __allmul                   1002b000 f   LIBCMTD:llmul.obj
 0001:0002a040       __alloca_probe_16          1002b040 f   LIBCMTD:alloca16.obj
 0001:0002a056       __alloca_probe_8           1002b056     LIBCMTD:alloca16.obj
 0001:0002a070       __alloca_probe             1002b070 f   LIBCMTD:chkstk.obj
 0001:0002a070       __chkstk                   1002b070 f   LIBCMTD:chkstk.obj
 0001:0002a570       __CRT_INIT@12              1002b570 f   LIBCMTD:dll_dllmain.obj
 0001:0002a590       __DllMainCRTStartup@12     1002b590 f   LIBCMTD:dll_dllmain.obj
 0001:0002a650       ?_RTC_AllocaFailure@@YAXPAXPAU_RTC_ALLOCA_NODE@@H@Z 1002b650 f   LIBCMTD:error.obj
 0001:0002a740       ?_RTC_Failure@@YAXPAXH@Z   1002b740 f   LIBCMTD:error.obj
 0001:0002a790       ?_RTC_StackFailure@@YAXPAXPBD@Z 1002b790 f   LIBCMTD:error.obj
 0001:0002ab50       __RTC_UninitUse            1002bb50 f   LIBCMTD:error.obj
 0001:0002ac00       __vsprintf_s_l             1002bc00 f i LIBCMTD:error.obj
 0001:0002ac30       _sprintf_s                 1002bc30 f i LIBCMTD:error.obj
 0001:0002ac50       ?_RTC_GetErrorFunc@@YAP6AHHPBDH00ZZPBX@Z 1002bc50 f   LIBCMTD:userapi.obj
 0001:0002ac60       ?_RTC_GetErrorFuncW@@YAP6AHHPB_WH00ZZPBX@Z 1002bc60 f   LIBCMTD:userapi.obj
 0001:0002ac70       __RTC_GetErrDesc           1002bc70 f   LIBCMTD:userapi.obj
 0001:0002ac90       __RTC_NumErrors            1002bc90 f   LIBCMTD:userapi.obj
 0001:0002aca0       __RTC_SetErrorFunc         1002bca0 f   LIBCMTD:userapi.obj
 0001:0002acc0       __RTC_SetErrorFuncW        1002bcc0 f   LIBCMTD:userapi.obj
 0001:0002ace0       __RTC_SetErrorType         1002bce0 f   LIBCMTD:userapi.obj
 0001:0002ad10       ??2@YAPAXI@Z               1002bd10 f   LIBCMTD:new_scalar.obj
 0001:0002ad60       ___isa_available_init      1002bd60 f   LIBCMTD:cpu_disp.obj
 0001:0002b0a0       __get_startup_argv_mode    1002c0a0 f   LIBCMTD:argv_mode.obj
 0001:0002b0b0       ___scrt_is_ucrt_dll_in_use 1002c0b0 f   LIBCMTD:ucrt_detection.obj
 0001:0002b0e0       ___scrt_fastfail           1002c0e0 f   LIBCMTD:utility_desktop.obj
 0001:0002b220       ___scrt_get_show_window_mode 1002c220 f   LIBCMTD:utility_desktop.obj
 0001:0002b260       ___scrt_initialize_mta     1002c260 f   LIBCMTD:utility_desktop.obj
 0001:0002b270       ___scrt_initialize_winrt   1002c270 f   LIBCMTD:utility_desktop.obj
 0001:0002b280       ___scrt_is_managed_app     1002c280 f   LIBCMTD:utility_desktop.obj
 0001:0002b310       ___scrt_set_unhandled_exception_filter 1002c310 f   LIBCMTD:utility_desktop.obj
 0001:0002b320       ___scrt_exe_initialize_mta 1002c320 f   LIBCMTD:utility_desktop.obj
 0001:0002b320       ___scrt_stub_for_initialize_mta 1002c320 f   LIBCMTD:utility_desktop.obj
 0001:0002b330       ___scrt_unhandled_exception_filter@4 1002c330 f   LIBCMTD:utility_desktop.obj
 0001:0002b3b0       __crt_debugger_hook        1002c3b0 f   LIBCMTD:utility_desktop.obj
 0001:0002b3c0       @_guard_check_icall_nop@4  1002c3c0 f i LIBCMTD:guard_support.obj
 0001:0002b3d0       _ReadNoFence               1002c3d0 f i LIBCMTD:guard_support.obj
 0001:0002b3f0       _ReadPointerNoFence        1002c3f0 f i LIBCMTD:guard_support.obj
 0001:0002b410       ___castguard_check_failure_debugbreak 1002c410 f i LIBCMTD:guard_support.obj
 0001:0002b430       ___castguard_check_failure_fastfail 1002c430 f i LIBCMTD:guard_support.obj
 0001:0002b450       ___castguard_check_failure_nop 1002c450 f i LIBCMTD:guard_support.obj
 0001:0002b460       ___castguard_check_failure_os_handled 1002c460 f i LIBCMTD:guard_support.obj
 0001:0002b4f0       ___castguard_slow_path_check_debugbreak 1002c4f0 f i LIBCMTD:guard_support.obj
 0001:0002b520       ___castguard_slow_path_check_fastfail 1002c520 f i LIBCMTD:guard_support.obj
 0001:0002b560       ___castguard_slow_path_check_nop 1002c560 f i LIBCMTD:guard_support.obj
 0001:0002b570       ___castguard_slow_path_check_os_handled 1002c570 f i LIBCMTD:guard_support.obj
 0001:0002b5f0       __guard_icall_checks_enforced 1002c5f0 f i LIBCMTD:guard_support.obj
 0001:0002b690       ___security_init_cookie    1002c690 f   LIBCMTD:gs_support.obj
 0001:0002b710       ?__scrt_initialize_type_info@@YAXXZ 1002c710 f   LIBCMTD:tncleanup.obj
 0001:0002b720       ?__scrt_uninitialize_type_info@@YAXXZ 1002c720 f   LIBCMTD:tncleanup.obj
 0001:0002b740       ___local_stdio_scanf_options 1002c740 f i LIBCMTD:default_local_stdio_options.obj
 0001:0002b750       ___scrt_initialize_default_local_stdio_options 1002c750 f   LIBCMTD:default_local_stdio_options.obj
 0001:0002b790       ___scrt_get_dyn_tls_init_callback 1002c790 f   LIBCMTD:dyn_tls_init.obj
 0001:0002b7a0       __RTC_Initialize           1002c7a0 f   LIBCMTD:initsect.obj
 0001:0002b7d0       __RTC_Terminate            1002c7d0 f   LIBCMTD:initsect.obj
 0001:0002bc80       ?_RTC_GetSrcLine@@YAHPAEPA_WKPAH1K@Z 1002cc80 f   LIBCMTD:pdblkup.obj
 0001:0002c000       __except_handler4_noexcept 1002d000 f   LIBCMTD:chandler4_noexcept.obj
 0001:0002c060       ??0bad_alloc@std@@AAE@QBD@Z 1002d060 f i LIBCMTD:throw_bad_alloc.obj
 0001:0002c090       ??0bad_alloc@std@@QAE@ABV01@@Z 1002d090 f i LIBCMTD:throw_bad_alloc.obj
 0001:0002c0c0       ??0bad_alloc@std@@QAE@XZ   1002d0c0 f i LIBCMTD:throw_bad_alloc.obj
 0001:0002c0f0       ??0bad_array_new_length@std@@QAE@ABV01@@Z 1002d0f0 f i LIBCMTD:throw_bad_alloc.obj
 0001:0002c120       ??0bad_array_new_length@std@@QAE@XZ 1002d120 f i LIBCMTD:throw_bad_alloc.obj
 0001:0002c150       ??0exception@std@@QAE@ABV01@@Z 1002d150 f i LIBCMTD:throw_bad_alloc.obj
 0001:0002c190       ??0exception@std@@QAE@QBDH@Z 1002d190 f i LIBCMTD:throw_bad_alloc.obj
 0001:0002c1c0       ??1bad_alloc@std@@UAE@XZ   1002d1c0 f i LIBCMTD:throw_bad_alloc.obj
 0001:0002c1e0       ??1bad_array_new_length@std@@UAE@XZ 1002d1e0 f i LIBCMTD:throw_bad_alloc.obj
 0001:0002c200       ??1exception@std@@UAE@XZ   1002d200 f i LIBCMTD:throw_bad_alloc.obj
 0001:0002c230       ??_Gbad_alloc@std@@UAEPAXI@Z 1002d230 f i LIBCMTD:throw_bad_alloc.obj
 0001:0002c230       ??_Ebad_alloc@std@@UAEPAXI@Z 1002d230 f i LIBCMTD:throw_bad_alloc.obj
 0001:0002c260       ??_Gbad_array_new_length@std@@UAEPAXI@Z 1002d260 f i LIBCMTD:throw_bad_alloc.obj
 0001:0002c260       ??_Ebad_array_new_length@std@@UAEPAXI@Z 1002d260 f i LIBCMTD:throw_bad_alloc.obj
 0001:0002c290       ??_Eexception@std@@UAEPAXI@Z 1002d290 f i LIBCMTD:throw_bad_alloc.obj
 0001:0002c290       ??_Gexception@std@@UAEPAXI@Z 1002d290 f i LIBCMTD:throw_bad_alloc.obj
 0001:0002c2c0       ?__scrt_throw_std_bad_alloc@@YAXXZ 1002d2c0 f   LIBCMTD:throw_bad_alloc.obj
 0001:0002c2e0       ?__scrt_throw_std_bad_array_new_length@@YAXXZ 1002d2e0 f   LIBCMTD:throw_bad_alloc.obj
 0001:0002c300       ?what@exception@std@@UBEPBDXZ 1002d300 f i LIBCMTD:throw_bad_alloc.obj
 0001:0002c330       ??1type_info@@UAE@XZ       1002d330 f   LIBCMTD:std_type_info_static.obj
 0001:0002c350       ??_Gtype_info@@UAEPAXI@Z   1002d350 f i LIBCMTD:std_type_info_static.obj
 0001:0002c350       ??_Etype_info@@UAEPAXI@Z   1002d350 f i LIBCMTD:std_type_info_static.obj
 0001:0002c37e       ??$?2PAUHINSTANCE__@@@Wrapper@?$CSimpleArray@PAUHINSTANCE__@@V?$CSimpleArrayEqualHelper@PAUHINSTANCE__@@@ATL@@@ATL@@SAPAXIPAPAUHINSTANCE__@@@Z 1002d37e f i atls:atlbase.obj
 0001:0002c386       ??0?$CSimpleArray@PAUHINSTANCE__@@V?$CSimpleArrayEqualHelper@PAUHINSTANCE__@@@ATL@@@ATL@@QAE@XZ 1002d386 f i atls:atlbase.obj
 0001:0002c393       ??0CAtlBaseModule@ATL@@QAE@XZ 1002d393 f   atls:atlbase.obj
 0001:0002c3e6       ??0Wrapper@?$CSimpleArray@PAUHINSTANCE__@@V?$CSimpleArrayEqualHelper@PAUHINSTANCE__@@@ATL@@@ATL@@QAE@ABQAUHINSTANCE__@@@Z 1002d3e6 f i atls:atlbase.obj
 0001:0002c3f6       ??0_ATL_BASE_MODULE70@ATL@@QAE@XZ 1002d3f6 f i atls:atlbase.obj
 0001:0002c419       ??1?$CSimpleArray@PAUHINSTANCE__@@V?$CSimpleArrayEqualHelper@PAUHINSTANCE__@@@ATL@@@ATL@@QAE@XZ 1002d419 f i atls:atlbase.obj
 0001:0002c41e       ??1CAtlBaseModule@ATL@@QAE@XZ 1002d41e f   atls:atlbase.obj
 0001:0002c434       ??1_ATL_BASE_MODULE70@ATL@@QAE@XZ 1002d434 f i atls:atlbase.obj
 0001:0002c43c       ??A?$CSimpleArray@PAUHINSTANCE__@@V?$CSimpleArrayEqualHelper@PAUHINSTANCE__@@@ATL@@@ATL@@QAEAAPAUHINSTANCE__@@H@Z 1002d43c f i atls:atlbase.obj
 0001:0002c461       ?Add@?$CSimpleArray@PAUHINSTANCE__@@V?$CSimpleArrayEqualHelper@PAUHINSTANCE__@@@ATL@@@ATL@@QAEHABQAUHINSTANCE__@@@Z 1002d461 f i atls:atlbase.obj
 0001:0002c4d9       ?AddResourceInstance@CAtlBaseModule@ATL@@QAE_NPAUHINSTANCE__@@@Z 1002d4d9 f   atls:atlbase.obj
 0001:0002c50c       ?GetHInstanceAt@CAtlBaseModule@ATL@@QAEPAUHINSTANCE__@@H@Z 1002d50c f   atls:atlbase.obj
 0001:0002c551       ?GetSize@?$CSimpleArray@PAUHINSTANCE__@@V?$CSimpleArrayEqualHelper@PAUHINSTANCE__@@@ATL@@@ATL@@QBEHXZ 1002d551 f i atls:atlbase.obj
 0001:0002c555       ?InternalSetAtIndex@?$CSimpleArray@PAUHINSTANCE__@@V?$CSimpleArrayEqualHelper@PAUHINSTANCE__@@@ATL@@@ATL@@QAEXHABQAUHINSTANCE__@@@Z 1002d555 f i atls:atlbase.obj
 0001:0002c56f       ?RemoveAll@?$CSimpleArray@PAUHINSTANCE__@@V?$CSimpleArrayEqualHelper@PAUHINSTANCE__@@@ATL@@@ATL@@QAEXXZ 1002d56f f i atls:atlbase.obj
 0001:0002c58c       ?RemoveAt@?$CSimpleArray@PAUHINSTANCE__@@V?$CSimpleArrayEqualHelper@PAUHINSTANCE__@@@ATL@@@ATL@@QAEHH@Z 1002d58c f i atls:atlbase.obj
 0001:0002c5d4       ?RemoveResourceInstance@CAtlBaseModule@ATL@@QAE_NPAUHINSTANCE__@@@Z 1002d5d4 f   atls:atlbase.obj
 0001:0002c631       ?memmove_s@Checked@ATL@@YAXPAXIPBXI@Z 1002d631 f i atls:atlbase.obj
 0001:0002c98e       ?GetCodeAddress@_stdcallthunk@ATL@@QAEPAXXZ 1002d98e f i atls:atlthunk.obj
 0001:0002c9b8       ?Init@_stdcallthunk@ATL@@QAEHKPAX@Z 1002d9b8 f i atls:atlthunk.obj
 0001:0002c9ed       ?__AllocStdCallThunk@@YGPAXXZ 1002d9ed f   atls:atlthunk.obj
 0001:0002c9f2       ?__AllocStdCallThunk@ATL@@YGPAXXZ 1002d9f2 f   atls:atlthunk.obj
 0001:0002c9f7       ?__AllocStdCallThunk_cmn@@YAPAXXZ 1002d9f7 f   atls:atlthunk.obj
 0001:0002cabd       ?__FreeStdCallThunk@@YGXPAX@Z 1002dabd f   atls:atlthunk.obj
 0001:0002cacd       ?__FreeStdCallThunk@ATL@@YGXPAX@Z 1002dacd f   atls:atlthunk.obj
 0001:0002cadd       ?__FreeStdCallThunk_cmn@@YAXPAX@Z 1002dadd f   atls:atlthunk.obj
 0001:0002cb79       _AtlThunk_AllocateData@0   1002db79 f   atls:atlthunk.obj
 0001:0002cbde       _AtlThunk_DataToCode@4     1002dbde f   atls:atlthunk.obj
 0001:0002cc25       _AtlThunk_FreeData@4       1002dc25 f   atls:atlthunk.obj
 0001:0002cc7b       _AtlThunk_InitData@12      1002dc7b f   atls:atlthunk.obj
 0001:0002ccca       _MemoryBarrier             1002dcca f i atls:atlthunk.obj
 0001:0002ccd8       __InlineInterlockedCompareExchangePointer 1002dcd8 f i atls:atlthunk.obj
 0001:0002ccf0       _memset                    1002dcf0 f   libvcruntimed:memset.obj
 0001:0002ce50       ??$__crt_interlocked_exchange_pointer@$$A6AXXZP6AXXZ@@YAP6AXXZPDS6AXXZQ6AXXZ@Z 1002de50 f i libvcruntimed:purevirt.obj
 0001:0002ce60       ??$__crt_interlocked_read_pointer@$$A6AXXZ@@YAP6AXXZPDS6AXXZ@Z 1002de60 f i libvcruntimed:purevirt.obj
 0001:0002ce80       ?__crt_interlocked_read_32@@YAHPDH@Z 1002de80 f i libvcruntimed:purevirt.obj
 0001:0002cea0       __get_purecall_handler     1002dea0 f   libvcruntimed:purevirt.obj
 0001:0002cec0       __purecall                 1002dec0 f   libvcruntimed:purevirt.obj
 0001:0002cef0       __set_purecall_handler     1002def0 f   libvcruntimed:purevirt.obj
 0001:0002d0c0       _memcmp                    1002e0c0 f   libvcruntimed:memcmp.obj
 0001:0002d990       _memcpy                    1002e990 f   libvcruntimed:memcpy.obj
 0001:0002df10       _wcsstr                    1002ef10 f   libvcruntimed:wcsstr.obj
 0001:0002e440       __except_handler4          1002f440 f   libvcruntimed:chandler4.obj
 0001:0002e630       ___vcrt_initialize         1002f630 f   libvcruntimed:initialization.obj
 0001:0002e670       ___vcrt_thread_attach      1002f670 f   libvcruntimed:initialization.obj
 0001:0002e690       ___vcrt_thread_detach      1002f690 f   libvcruntimed:initialization.obj
 0001:0002e6b0       ___vcrt_uninitialize       1002f6b0 f   libvcruntimed:initialization.obj
 0001:0002e6d0       ___vcrt_uninitialize_critical 1002f6d0 f   libvcruntimed:initialization.obj
 0001:0002e6f0       ??$?0AAViterator@TryBlockMap@__FrameHandler3@@AAV012@$0A@@?$pair@Viterator@TryBlockMap@__FrameHandler3@@V123@@std@@QAE@AAViterator@TryBlockMap@__FrameHandler3@@0@Z 1002f6f0 f i libvcruntimed:trnsctrl.obj
 0001:0002e740       ??$forward@AAViterator@TryBlockMap@__FrameHandler3@@@std@@YAAAViterator@TryBlockMap@__FrameHandler3@@AAV123@@Z 1002f740 f i libvcruntimed:trnsctrl.obj
 0001:0002e750       ??0iterator@TryBlockMap@__FrameHandler3@@QAE@AAV12@I@Z 1002f750 f i libvcruntimed:trnsctrl.obj
 0001:0002e780       ?GetRangeOfTrysToCheck@__FrameHandler3@@SA?AU?$pair@Viterator@TryBlockMap@__FrameHandler3@@V123@@std@@AAVTryBlockMap@1@HPAXPBU_s_FuncInfo@@H@Z 1002f780 f   libvcruntimed:trnsctrl.obj
 0001:0002e860       ?_CallCatchBlock2@@YAPAXPAUEHRegistrationNode@@PBU_s_FuncInfo@@PAXHK@Z 1002f860 f   libvcruntimed:trnsctrl.obj
 0001:0002e8d0       ?_CallSETranslator@@YAHPAUEHExceptionRecord@@PAUEHRegistrationNode@@PAX2PBU_s_FuncInfo@@H1@Z 1002f8d0 f   libvcruntimed:trnsctrl.obj
 0001:0002e9e0       ?_JumpToContinuation@@YGXPAXPAUEHRegistrationNode@@@Z 1002f9e0 f   libvcruntimed:trnsctrl.obj
 0001:0002ea20       ?_UnwindNestedFrames@@YGXPAUEHRegistrationNode@@PAUEHExceptionRecord@@@Z 1002fa20 f   libvcruntimed:trnsctrl.obj
 0001:0002ea80       __CatchGuardHandler        1002fa80 f   libvcruntimed:trnsctrl.obj
 0001:0002ead0       __CreateFrameInfo          1002fad0 f   libvcruntimed:trnsctrl.obj
 0001:0002eb00       __FindAndUnlinkFrame       1002fb00 f   libvcruntimed:trnsctrl.obj
 0001:0002eb70       __TranslatorGuardHandler   1002fb70 f   libvcruntimed:trnsctrl.obj
 0001:0002ec20       ___CxxFrameHandler         1002fc20 f   libvcruntimed:trnsctrl.obj
 0001:0002ec60       ___CxxFrameHandler2        1002fc60 f   libvcruntimed:trnsctrl.obj
 0001:0002eca0       ___CxxFrameHandler3        1002fca0 f   libvcruntimed:trnsctrl.obj
 0001:0002ece0       ___CxxLongjmpUnwind@4      1002fce0 f   libvcruntimed:trnsctrl.obj
 0001:0002ed20       ___DestructExceptionObject 1002fd20 f   libvcruntimed:ehhelpers.obj
 0001:0002ee40       ?_CallMemberFunction0@@YGXQAX0@Z 1002fe40 f i libvcruntimed:ehhelpers.obj
 0001:0002eee0       ?raw_name@type_info@@QBEPBDXZ 1002fee0 f i libvcruntimed:ehhelpers.obj
 0001:0002ef00       __IsExceptionObjectToBeDestroyed 1002ff00 f   libvcruntimed:ehhelpers.obj
 0001:0002ef40       __SetWinRTOutOfMemoryExceptionCallback 1002ff40 f   libvcruntimed:ehhelpers.obj
 0001:0002ef50       ___AdjustPointer           1002ff50 f   libvcruntimed:ehhelpers.obj
 0001:0002efa0       ___FrameUnwindFilter       1002ffa0 f   libvcruntimed:ehhelpers.obj
 0001:0002f030       ___GetPlatformExceptionInfo 10030030 f   libvcruntimed:ehhelpers.obj
 0001:0002f0b0       ___current_exception       100300b0 f   libvcruntimed:ehhelpers.obj
 0001:0002f0c0       ___current_exception_context 100300c0 f   libvcruntimed:ehhelpers.obj
 0001:0002f0d0       ___processing_throw        100300d0 f   libvcruntimed:ehhelpers.obj
 0001:0002f0e0       ___std_terminate           100300e0 f   libvcruntimed:ehhelpers.obj
 0001:0002f0f0       __is_exception_typeof      100300f0 f   libvcruntimed:ehhelpers.obj
 0001:0002f1f0       ??$?RD@__crt_internal_free_policy@@QBEXQBD@Z 100301f0 f i libvcruntimed:std_type_info.obj
 0001:0002f210       ??$?RX@__crt_internal_free_policy@@QBEXQBX@Z 10030210 f i libvcruntimed:std_type_info.obj
 0001:0002f230       ??$__crt_interlocked_compare_exchange_pointer@$$CBDPAD$$T@@YAPBDPDSBDQAD$$T@Z 10030230 f i libvcruntimed:std_type_info.obj
 0001:0002f250       ??$__crt_interlocked_read_pointer@$$CBD@@YAPBDPDSBD@Z 10030250 f i libvcruntimed:std_type_info.obj
 0001:0002f270       ??0?$__crt_unique_heap_ptr@DU__crt_internal_free_policy@@@@QAE@QAD@Z 10030270 f i libvcruntimed:std_type_info.obj
 0001:0002f290       ??0?$__crt_unique_heap_ptr@XU__crt_internal_free_policy@@@@QAE@QAX@Z 10030290 f i libvcruntimed:std_type_info.obj
 0001:0002f2b0       ??1?$__crt_unique_heap_ptr@DU__crt_internal_free_policy@@@@QAE@XZ 100302b0 f i libvcruntimed:std_type_info.obj
 0001:0002f2d0       ??1?$__crt_unique_heap_ptr@XU__crt_internal_free_policy@@@@QAE@XZ 100302d0 f i libvcruntimed:std_type_info.obj
 0001:0002f2f0       ??B?$__crt_unique_heap_ptr@DU__crt_internal_free_policy@@@@QBE_NXZ 100302f0 f i libvcruntimed:std_type_info.obj
 0001:0002f310       ??B?$__crt_unique_heap_ptr@XU__crt_internal_free_policy@@@@QBE_NXZ 10030310 f i libvcruntimed:std_type_info.obj
 0001:0002f3a0       ?detach@?$__crt_unique_heap_ptr@XU__crt_internal_free_policy@@@@QAEPAXXZ 100303a0 f i libvcruntimed:std_type_info.obj
 0001:0002f3d0       ?get@?$__crt_unique_heap_ptr@DU__crt_internal_free_policy@@@@QBEPADXZ 100303d0 f i libvcruntimed:std_type_info.obj
 0001:0002f3e0       ?get@?$__crt_unique_heap_ptr@XU__crt_internal_free_policy@@@@QBEPAXXZ 100303e0 f i libvcruntimed:std_type_info.obj
 0001:0002f3f0       ?is_valid@?$__crt_unique_heap_ptr@DU__crt_internal_free_policy@@@@QBE_NXZ 100303f0 f i libvcruntimed:std_type_info.obj
 0001:0002f420       ?is_valid@?$__crt_unique_heap_ptr@XU__crt_internal_free_policy@@@@QBE_NXZ 10030420 f i libvcruntimed:std_type_info.obj
 0001:0002f450       ?release@?$__crt_unique_heap_ptr@DU__crt_internal_free_policy@@@@QAEXXZ 10030450 f i libvcruntimed:std_type_info.obj
 0001:0002f480       ?release@?$__crt_unique_heap_ptr@XU__crt_internal_free_policy@@@@QAEXXZ 10030480 f i libvcruntimed:std_type_info.obj
 0001:0002f4b0       ___std_type_info_compare   100304b0 f   libvcruntimed:std_type_info.obj
 0001:0002f4e0       ___std_type_info_destroy_list 100304e0 f   libvcruntimed:std_type_info.obj
 0001:0002f520       ___std_type_info_hash      10030520 f   libvcruntimed:std_type_info.obj
 0001:0002f580       ___std_type_info_name      10030580 f   libvcruntimed:std_type_info.obj
 0001:0002f760       ___vcrt_GetModuleFileNameW 10030760 f   libvcruntimed:winapi_thunks.obj
 0001:0002f780       ___vcrt_GetModuleHandleW   10030780 f   libvcruntimed:winapi_thunks.obj
 0001:0002f790       ___vcrt_LoadLibraryExW     10030790 f   libvcruntimed:winapi_thunks.obj
 0001:0002f7b0       ??$?RD@__crt_public_free_policy@@QBEXQBD@Z 100307b0 f i libvcruntimed:std_exception.obj
 0001:0002f7d0       ??0?$__crt_unique_heap_ptr@DU__crt_public_free_policy@@@@QAE@QAD@Z 100307d0 f i libvcruntimed:std_exception.obj
 0001:0002f7f0       ??1?$__crt_unique_heap_ptr@DU__crt_public_free_policy@@@@QAE@XZ 100307f0 f i libvcruntimed:std_exception.obj
 0001:0002f810       ??B?$__crt_unique_heap_ptr@DU__crt_public_free_policy@@@@QBE_NXZ 10030810 f i libvcruntimed:std_exception.obj
 0001:0002f830       ?detach@?$__crt_unique_heap_ptr@DU__crt_public_free_policy@@@@QAEPADXZ 10030830 f i libvcruntimed:std_exception.obj
 0001:0002f860       ?get@?$__crt_unique_heap_ptr@DU__crt_public_free_policy@@@@QBEPADXZ 10030860 f i libvcruntimed:std_exception.obj
 0001:0002f870       ?is_valid@?$__crt_unique_heap_ptr@DU__crt_public_free_policy@@@@QBE_NXZ 10030870 f i libvcruntimed:std_exception.obj
 0001:0002f8a0       ?release@?$__crt_unique_heap_ptr@DU__crt_public_free_policy@@@@QAEXXZ 100308a0 f i libvcruntimed:std_exception.obj
 0001:0002f8d0       ___std_exception_copy      100308d0 f   libvcruntimed:std_exception.obj
 0001:0002f9c0       ___std_exception_destroy   100309c0 f   libvcruntimed:std_exception.obj
 0001:0002f9f0       __CxxThrowException@8      100309f0 f   libvcruntimed:throw.obj
 0001:0002faa0       _memmove                   10030aa0 f   libvcruntimed:memmove.obj
 0001:00030020       __local_unwind4            10031020 f   libvcruntimed:exsup4.obj
 0001:00030110       __seh_longjmp_unwind4@4    10031110 f   libvcruntimed:exsup4.obj
 0001:00030140       @_EH4_CallFilterFunc@8     10031140 f   libvcruntimed:exsup4.obj
 0001:00030160       @_EH4_TransferToHandler@8  10031160 f   libvcruntimed:exsup4.obj
 0001:00030180       @_EH4_GlobalUnwind2@8      10031180 f   libvcruntimed:exsup4.obj
 0001:000301a0       @_EH4_LocalUnwind@16       100311a0 f   libvcruntimed:exsup4.obj
 0001:000301d0       ___except_validate_context_record 100311d0 f   libvcruntimed:jbcxrval.obj
 0001:00030220       ___except_validate_jump_buffer 10031220 f   libvcruntimed:jbcxrval.obj
 0001:00030240       ___except_validate_jump_buffer_common 10031240 f i libvcruntimed:jbcxrval.obj
 0001:000302a0       ??$?RU__vcrt_ptd@@@__crt_internal_free_policy@@QBEXQBU__vcrt_ptd@@@Z 100312a0 f i libvcruntimed:per_thread_data.obj
 0001:000302c0       ??0?$__crt_unique_heap_ptr@U__vcrt_ptd@@U__crt_internal_free_policy@@@@QAE@QAU__vcrt_ptd@@@Z 100312c0 f i libvcruntimed:per_thread_data.obj
 0001:00030300       ??1?$__crt_unique_heap_ptr@U__vcrt_ptd@@U__crt_internal_free_policy@@@@QAE@XZ 10031300 f i libvcruntimed:per_thread_data.obj
 0001:00030340       ??B?$__crt_unique_heap_ptr@U__vcrt_ptd@@U__crt_internal_free_policy@@@@QBE_NXZ 10031340 f i libvcruntimed:per_thread_data.obj
 0001:00030360       ?detach@?$__crt_unique_heap_ptr@U__vcrt_ptd@@U__crt_internal_free_policy@@@@QAEPAU__vcrt_ptd@@XZ 10031360 f i libvcruntimed:per_thread_data.obj
 0001:00030390       ?get@?$__crt_unique_heap_ptr@U__vcrt_ptd@@U__crt_internal_free_policy@@@@QBEPAU__vcrt_ptd@@XZ 10031390 f i libvcruntimed:per_thread_data.obj
 0001:000303a0       ?is_valid@?$__crt_unique_heap_ptr@U__vcrt_ptd@@U__crt_internal_free_policy@@@@QBE_NXZ 100313a0 f i libvcruntimed:per_thread_data.obj
 0001:000303d0       ?release@?$__crt_unique_heap_ptr@U__vcrt_ptd@@U__crt_internal_free_policy@@@@QAEXXZ 100313d0 f i libvcruntimed:per_thread_data.obj
 0001:00030430       ___vcrt_freefls@4          10031430 f   libvcruntimed:per_thread_data.obj
 0001:00030460       ___vcrt_freeptd            10031460 f   libvcruntimed:per_thread_data.obj
 0001:000304c0       ___vcrt_getptd             100314c0 f   libvcruntimed:per_thread_data.obj
 0001:000304e0       ___vcrt_getptd_noexit      100314e0 f   libvcruntimed:per_thread_data.obj
 0001:00030640       ___vcrt_getptd_noinit      10031640 f   libvcruntimed:per_thread_data.obj
 0001:000306a0       ___vcrt_initialize_ptd     100316a0 f   libvcruntimed:per_thread_data.obj
 0001:000306f0       ___vcrt_uninitialize_ptd   100316f0 f   libvcruntimed:per_thread_data.obj
 0001:00030720       ___vcrt_initialize_locks   10031720 f   libvcruntimed:locks.obj
 0001:00030780       ___vcrt_lock               10031780 f   libvcruntimed:locks.obj
 0001:000307a0       ___vcrt_uninitialize_locks 100317a0 f   libvcruntimed:locks.obj
 0001:000307f0       ___vcrt_unlock             100317f0 f   libvcruntimed:locks.obj
 0001:00031360       ??$TypeMatchHelper@V__FrameHandler3@@@@YAHPBU_s_HandlerType@@PBU_s_CatchableType@@PBU_s_ThrowInfo@@@Z 10032360 f i libvcruntimed:frame.obj
 0001:00031440       ??$__InternalCxxFrameHandler@V__FrameHandler3@@@@YA?AW4_EXCEPTION_DISPOSITION@@PAUEHExceptionRecord@@PAUEHRegistrationNode@@PAU_CONTEXT@@PAXPBU_s_FuncInfo@@H1E@Z 10032440 f i libvcruntimed:frame.obj
 0001:00031600       ??0HandlerMap@__FrameHandler3@@QAE@PBU_s_TryBlockMapEntry@@II@Z 10032600 f i libvcruntimed:frame.obj
 0001:00031630       ??0TryBlockMap@__FrameHandler3@@QAE@PBU_s_FuncInfo@@I@Z 10032630 f i libvcruntimed:frame.obj
 0001:00031660       ??0bad_exception@std@@QAE@ABV01@@Z 10032660 f i libvcruntimed:frame.obj
 0001:00031690       ??0bad_exception@std@@QAE@XZ 10032690 f i libvcruntimed:frame.obj
 0001:000316c0       ??0iterator@HandlerMap@__FrameHandler3@@QAE@AAV12@I@Z 100326c0 f i libvcruntimed:frame.obj
 0001:000316f0       ??1bad_exception@std@@UAE@XZ 100326f0 f i libvcruntimed:frame.obj
 0001:00031710       ??8iterator@HandlerMap@__FrameHandler3@@QBE_NABV012@@Z 10032710 f i libvcruntimed:frame.obj
 0001:00031740       ??8type_info@@QBE_NABV0@@Z 10032740 f i libvcruntimed:frame.obj
 0001:00031780       ??9iterator@HandlerMap@__FrameHandler3@@QBE_NABV012@@Z 10032780 f i libvcruntimed:frame.obj
 0001:000317c0       ??Diterator@HandlerMap@__FrameHandler3@@QAE?BU_s_HandlerType@@XZ 100327c0 f i libvcruntimed:frame.obj
 0001:00031800       ??Diterator@TryBlockMap@__FrameHandler3@@QAE?BU_s_TryBlockMapEntry@@XZ 10032800 f i libvcruntimed:frame.obj
 0001:00031850       ??Eiterator@HandlerMap@__FrameHandler3@@QAEAAV012@XZ 10032850 f i libvcruntimed:frame.obj
 0001:00031870       ??Eiterator@TryBlockMap@__FrameHandler3@@QAEAAV012@XZ 10032870 f i libvcruntimed:frame.obj
 0001:00031890       ??Miterator@TryBlockMap@__FrameHandler3@@QBE_NABV012@@Z 10032890 f i libvcruntimed:frame.obj
 0001:000318c0       ??_Ebad_exception@std@@UAEPAXI@Z 100328c0 f i libvcruntimed:frame.obj
 0001:000318c0       ??_Gbad_exception@std@@UAEPAXI@Z 100328c0 f i libvcruntimed:frame.obj
 0001:000318f0       ?BuildCatchObject@__FrameHandler3@@SAXPAUEHExceptionRecord@@PAXPBU_s_HandlerType@@PBU_s_CatchableType@@@Z 100328f0 f   libvcruntimed:frame.obj
 0001:00031910       ?BuildCatchObjectHelper@__FrameHandler3@@SAHPAUEHExceptionRecord@@PAXPBU_s_HandlerType@@PBU_s_CatchableType@@@Z 10032910 f   libvcruntimed:frame.obj
 0001:00031cb0       ?FrameUnwindToEmptyState@__FrameHandler3@@SAXPAUEHRegistrationNode@@PAXPBU_s_FuncInfo@@@Z 10032cb0 f   libvcruntimed:frame.obj
 0001:00031cd0       ?FrameUnwindToState@__FrameHandler3@@SAXPAUEHRegistrationNode@@PAXPBU_s_FuncInfo@@H@Z 10032cd0 f   libvcruntimed:frame.obj
 0001:00031e50       ?GetMaxState@__FrameHandler3@@SAHPAXPBU_s_FuncInfo@@@Z 10032e50 f i libvcruntimed:frame.obj
 0001:00031f70       ?TypeMatch@__FrameHandler3@@SAHPBU_s_HandlerType@@PBU_s_CatchableType@@PBU_s_ThrowInfo@@@Z 10032f70 f   libvcruntimed:frame.obj
 0001:00031f90       ?_CallMemberFunction1@@YGXQAX00@Z 10032f90 f i libvcruntimed:frame.obj
 0001:00031fc0       ?_CallMemberFunction2@@YGXQAX00H@Z 10032fc0 f i libvcruntimed:frame.obj
 0001:00031ff0       ?begin@HandlerMap@__FrameHandler3@@QAE?AViterator@12@XZ 10032ff0 f i libvcruntimed:frame.obj
 0001:00032010       ?end@HandlerMap@__FrameHandler3@@QAE?AViterator@12@XZ 10033010 f i libvcruntimed:frame.obj
 0001:00032040       ?getESTypes@__FrameHandler3@@SAPBU_s_ESTypeList@@PBU_s_FuncInfo@@@Z 10033040 f i libvcruntimed:frame.obj
 0001:00032050       ?getLastEntry@HandlerMap@__FrameHandler3@@QAEPBU_s_HandlerType@@XZ 10033050 f i libvcruntimed:frame.obj
 0001:00032070       ?getMagicNum@__FrameHandler3@@SAIPBU_s_FuncInfo@@@Z 10033070 f i libvcruntimed:frame.obj
 0001:00032080       ?getNumTryBlocks@TryBlockMap@__FrameHandler3@@QAEIXZ 10033080 f i libvcruntimed:frame.obj
 0001:000320a0       ?isEHs@__FrameHandler3@@SA_NPBU_s_FuncInfo@@@Z 100330a0 f i libvcruntimed:frame.obj
 0001:000320d0       ?isNoExcept@__FrameHandler3@@SA_NPBU_s_FuncInfo@@@Z 100330d0 f i libvcruntimed:frame.obj
 0001:00032100       ___BuildCatchObject        10033100 f   libvcruntimed:frame.obj
 0001:00032120       ___BuildCatchObjectHelper  10033120 f   libvcruntimed:frame.obj
 0001:00032140       ___TypeMatch               10033140 f   libvcruntimed:frame.obj
 0001:00032160       ___vcrt_EncodePointer      10033160 f i libvcruntimed:frame.obj
 0001:00032170       __CallSettingFrame@12      10033170 f   libvcruntimed:lowhelpr.obj
 0001:00032197       __NLG_Return               10033197     libvcruntimed:lowhelpr.obj
 0001:000321c0       ??$?0$00@DName@@QAE@PBDU?$StringLifeSelector@$00@@@Z 100331c0 f i libvcruntimed:undname.obj
 0001:00032210       ??$?0$00@pcharNode@@QAE@PBDHU?$StringLifeSelector@$00@@@Z 10033210 f i libvcruntimed:undname.obj
 0001:00032250       ??$?0$01@DName@@QAE@PBDU?$StringLifeSelector@$01@@@Z 10033250 f i libvcruntimed:undname.obj
 0001:000322a0       ??$?0$01@pcharNode@@QAE@PBDHU?$StringLifeSelector@$01@@@Z 100332a0 f i libvcruntimed:undname.obj
 0001:00032320       ??$?0$0A@@DName@@QAE@PBDU?$StringLifeSelector@$0A@@@@Z 10033320 f i libvcruntimed:undname.obj
 0001:00032370       ??$?0$0A@@pcharNode@@QAE@PBDHU?$StringLifeSelector@$0A@@@@Z 10033370 f i libvcruntimed:undname.obj
 0001:000323f0       ??$?0_K$0A@@?$optional@_K@std@@QAE@$$QA_K@Z 100333f0 f i libvcruntimed:undname.obj
 0001:00032430       ??$?0_K@?$_Optional_construct_base@_K@std@@QAE@Uin_place_t@1@$$QA_K@Z 10033430 f i libvcruntimed:undname.obj
 0001:00032460       ??$?0_K@?$_Optional_destruct_base@_K$00@std@@QAE@Uin_place_t@1@$$QA_K@Z 10033460 f i libvcruntimed:undname.obj
 0001:00032490       ??$append@VDNameNode@@@DName@@AAEXPBVDNameNode@@@Z 10033490 f i libvcruntimed:undname.obj
 0001:00032520       ??$append@VDNameStatusNode@@@DName@@AAEXPBVDNameStatusNode@@@Z 10033520 f i libvcruntimed:undname.obj
 0001:000325b0       ??$append@VcharNode@@@DName@@AAEXPBVcharNode@@@Z 100335b0 f i libvcruntimed:undname.obj
 0001:00032640       ??$append@VpDNameNode@@@DName@@AAEXPBVpDNameNode@@@Z 10033640 f i libvcruntimed:undname.obj
 0001:000326d0       ??$append@VpcharNode@@@DName@@AAEXPBVpcharNode@@@Z 100336d0 f i libvcruntimed:undname.obj
 0001:00032760       ??$doPchar@$00@DName@@AAEXPBDH@Z 10033760 f i libvcruntimed:undname.obj
 0001:00032870       ??$doPchar@$01@DName@@AAEXPBDH@Z 10033870 f i libvcruntimed:undname.obj
 0001:00032980       ??$doPchar@$0A@@DName@@AAEXPBDH@Z 10033980 f i libvcruntimed:undname.obj
 0001:00032a90       ??$forward@_K@std@@YA$$QA_KAA_K@Z 10033a90 f i libvcruntimed:undname.obj
 0001:00032aa0       ??$size@D$04@std@@YAIAAY04$$CBD@Z 10033aa0 f i libvcruntimed:undname.obj
 0001:00032ab0       ??$size@D$0EB@@std@@YAIAAY0EB@$$CBD@Z 10033ab0 f i libvcruntimed:undname.obj
 0001:00032ac0       ??0?$_Optional_construct_base@_K@std@@QAE@XZ 10033ac0 f i libvcruntimed:undname.obj
 0001:00032ae0       ??0?$_Optional_destruct_base@_K$00@std@@QAE@XZ 10033ae0 f i libvcruntimed:undname.obj
 0001:00032b00       ??0?$optional@_K@std@@QAE@XZ 10033b00 f i libvcruntimed:undname.obj
 0001:00032b20       ??0Block@_HeapManager@@QAE@XZ 10033b20 f i libvcruntimed:undname.obj
 0001:00032b40       ??0DName@@QAE@AAPBDD@Z     10033b40 f   libvcruntimed:undname.obj
 0001:00032cb0       ??0DName@@QAE@ABUStringLiteral@@@Z 10033cb0 f   libvcruntimed:undname.obj
 0001:00032d00       ??0DName@@QAE@ABV0@@Z      10033d00 f i libvcruntimed:undname.obj
 0001:00032d30       ??0DName@@QAE@D@Z          10033d30 f   libvcruntimed:undname.obj
 0001:00032d60       ??0DName@@QAE@PAV0@@Z      10033d60 f   libvcruntimed:undname.obj
 0001:00032e10       ??0DName@@QAE@W4DNameStatus@@@Z 10033e10 f   libvcruntimed:undname.obj
 0001:00032eb0       ??0DName@@QAE@XZ           10033eb0 f i libvcruntimed:undname.obj
 0001:00032ee0       ??0DName@@QAE@_J@Z         10033ee0 f   libvcruntimed:undname.obj
 0001:00032fd0       ??0DName@@QAE@_K@Z         10033fd0 f   libvcruntimed:undname.obj
 0001:00033080       ??0DNameNode@@IAE@XZ       10034080 f i libvcruntimed:undname.obj
 0001:000330a0       ??0Replicator@@QAE@XZ      100340a0 f i libvcruntimed:undname.obj
 0001:000330e0       ??0UnDecorator@@QAE@PBDP6APADJ@ZK@Z 100340e0 f i libvcruntimed:undname.obj
 0001:00033160       ??0_Nontrivial_dummy_type@std@@QAE@XZ 10034160 f i libvcruntimed:undname.obj
 0001:00033170       ??0charNode@@QAE@D@Z       10034170 f i libvcruntimed:undname.obj
 0001:000331a0       ??0pDNameNode@@QAE@PAVDName@@@Z 100341a0 f   libvcruntimed:undname.obj
 0001:00033200       ??0pairNode@@QAE@PBVDNameNode@@0@Z 10034200 f i libvcruntimed:undname.obj
 0001:00033260       ??2@YAPAXIAAV_HeapManager@@H@Z 10034260 f   libvcruntimed:undname.obj
 0001:000332a0       ??4DName@@QAEAAV0@ABUStringLiteral@@@Z 100342a0 f   libvcruntimed:undname.obj
 0001:000332e0       ??4DName@@QAEAAV0@ABV0@@Z  100342e0 f   libvcruntimed:undname.obj
 0001:00033310       ??4DName@@QAEAAV0@D@Z      10034310 f i libvcruntimed:undname.obj
 0001:00033340       ??4DName@@QAEAAV0@PAV0@@Z  10034340 f   libvcruntimed:undname.obj
 0001:000333e0       ??4DName@@QAEAAV0@W4DNameStatus@@@Z 100343e0 f   libvcruntimed:undname.obj
 0001:00033460       ??AReplicator@@QBE?AVDName@@H@Z 10034460 f   libvcruntimed:undname.obj
 0001:000334d0       ??B?$optional@_K@std@@QBE_NXZ 100344d0 f i libvcruntimed:undname.obj
 0001:000334f0       ??D?$optional@_K@std@@QGAEAA_KXZ 100344f0 f i libvcruntimed:undname.obj
 0001:00033560       ??H@YA?AVDName@@ABUStringLiteral@@ABV0@@Z 10034560 f i libvcruntimed:undname.obj
 0001:00033590       ??H@YA?AVDName@@DABV0@@Z   10034590 f i libvcruntimed:undname.obj
 0001:000335c0       ??H@YA?AVDName@@W4DNameStatus@@ABV0@@Z 100345c0 f i libvcruntimed:undname.obj
 0001:000335f0       ??HDName@@QBE?AV0@ABUStringLiteral@@@Z 100345f0 f   libvcruntimed:undname.obj
 0001:00033630       ??HDName@@QBE?AV0@ABV0@@Z  10034630 f   libvcruntimed:undname.obj
 0001:00033670       ??HDName@@QBE?AV0@D@Z      10034670 f   libvcruntimed:undname.obj
 0001:000336b0       ??HDName@@QBE?AV0@PAV0@@Z  100346b0 f   libvcruntimed:undname.obj
 0001:000336f0       ??HDName@@QBE?AV0@W4DNameStatus@@@Z 100346f0 f   libvcruntimed:undname.obj
 0001:00033730       ??HStringLiteral@@QBE?AU0@H@Z 10034730 f i libvcruntimed:undname.obj
 0001:00033760       ??YDName@@QAEAAV0@ABUStringLiteral@@@Z 10034760 f   libvcruntimed:undname.obj
 0001:00033800       ??YDName@@QAEAAV0@ABV0@@Z  10034800 f   libvcruntimed:undname.obj
 0001:000338a0       ??YDName@@QAEAAV0@D@Z      100348a0 f   libvcruntimed:undname.obj
 0001:00033920       ??YDName@@QAEAAV0@PAV0@@Z  10034920 f   libvcruntimed:undname.obj
 0001:000339d0       ??YDName@@QAEAAV0@W4DNameStatus@@@Z 100349d0 f   libvcruntimed:undname.obj
 0001:00033a30       ??YReplicator@@QAEAAV0@ABVDName@@@Z 10034a30 f   libvcruntimed:undname.obj
 0001:00033ac0       ??_5DName@@QAEAAV0@ABV0@@Z 10034ac0 f   libvcruntimed:undname.obj
 0001:00033b20       ??__K_l@@YA?AUStringLiteral@@PBDI@Z 10034b20 f i libvcruntimed:undname.obj
 0001:00033b40       ?Constructor@_HeapManager@@QAEXP6APAXI@ZP6AXPAX@Z@Z 10034b40 f i libvcruntimed:undname.obj
 0001:00033b80       ?Destructor@_HeapManager@@QAEXXZ 10034b80 f i libvcruntimed:undname.obj
 0001:00033bf0       ?UScore@UnDecorator@@SA?AUStringLiteral@@W4Tokens@@@Z 10034bf0 f   libvcruntimed:undname.obj
 0001:00033c40       ?composeDeclaration@UnDecorator@@CA?AVDName@@ABV2@@Z 10034c40 f i libvcruntimed:undname.obj
 0001:00035bb0       ?dbGetString@DName@@QBEPADXZ 10036bb0 f   libvcruntimed:undname.obj
 0001:00035bd0       ?doAccessSpecifiers@UnDecorator@@SAHXZ 10036bd0 f i libvcruntimed:undname.obj
 0001:00035c00       ?doAllocationLanguage@UnDecorator@@SAHXZ 10036c00 f i libvcruntimed:undname.obj
 0001:00035c30       ?doAllocationModel@UnDecorator@@SAHXZ 10036c30 f i libvcruntimed:undname.obj
 0001:00035c60       ?doEcsu@UnDecorator@@SAHXZ 10036c60 f i libvcruntimed:undname.obj
 0001:00035c90       ?doEllipsis@UnDecorator@@SAHXZ 10036c90 f i libvcruntimed:undname.obj
 0001:00035cc0       ?doFunctionReturns@UnDecorator@@SAHXZ 10036cc0 f i libvcruntimed:undname.obj
 0001:00035cf0       ?doMSKeywords@UnDecorator@@SAHXZ 10036cf0 f i libvcruntimed:undname.obj
 0001:00035d20       ?doMemberTypes@UnDecorator@@SAHXZ 10036d20 f i libvcruntimed:undname.obj
 0001:00035d50       ?doNameOnly@UnDecorator@@SAHXZ 10036d50 f i libvcruntimed:undname.obj
 0001:00035d60       ?doNoIdentCharCheck@UnDecorator@@SAHXZ 10036d60 f i libvcruntimed:undname.obj
 0001:00035d70       ?doPchar@DName@@AAEXD@Z    10036d70 f   libvcruntimed:undname.obj
 0001:00035de0       ?doPtr64@UnDecorator@@SAHXZ 10036de0 f i libvcruntimed:undname.obj
 0001:00035e10       ?doRestrictionSpec@UnDecorator@@SAHXZ 10036e10 f i libvcruntimed:undname.obj
 0001:00035e40       ?doThisTypes@UnDecorator@@SAHXZ 10036e40 f i libvcruntimed:undname.obj
 0001:00035e70       ?doThrowTypes@UnDecorator@@SAHXZ 10036e70 f i libvcruntimed:undname.obj
 0001:00035ea0       ?doTypeOnly@UnDecorator@@SAHXZ 10036ea0 f i libvcruntimed:undname.obj
 0001:00035eb0       ?doUnderScore@UnDecorator@@SAHXZ 10036eb0 f i libvcruntimed:undname.obj
 0001:00035ee0       ?getAddressOf@UnDecorator@@CA?AVDName@@XZ 10036ee0 f   libvcruntimed:undname.obj
 0001:00035f60       ?getArgumentList@UnDecorator@@CA?AVDName@@XZ 10036f60 f   libvcruntimed:undname.obj
 0001:000360b0       ?getArgumentTypes@UnDecorator@@CA?AVDName@@XZ 100370b0 f   libvcruntimed:undname.obj
 0001:00036280       ?getArrayAccess@UnDecorator@@CA?AVDName@@XZ 10037280 f   libvcruntimed:undname.obj
 0001:00036320       ?getArrayObject@UnDecorator@@CA?AVDName@@XZ 10037320 f   libvcruntimed:undname.obj
 0001:00036400       ?getArrayType@UnDecorator@@CA?AVDName@@ABV2@@Z 10037400 f i libvcruntimed:undname.obj
 0001:000366a0       ?getBasedType@UnDecorator@@CA?AVDName@@XZ 100376a0 f   libvcruntimed:undname.obj
 0001:00036790       ?getBasicDataType@UnDecorator@@CA?AVDName@@ABV2@@Z 10037790 f   libvcruntimed:undname.obj
 0001:00037100       ?getCHPEName@UnDecorator@@QAEPADPADH@Z 10038100 f i libvcruntimed:undname.obj
 0001:00037260       ?getCallIndex@UnDecorator@@CA?AVDName@@XZ 10038260 f i libvcruntimed:undname.obj
 0001:00037280       ?getCallingConvention@UnDecorator@@CA?AVDName@@XZ 10038280 f   libvcruntimed:undname.obj
 0001:000374e0       ?getDataIndirectType@UnDecorator@@CA?AVDName@@ABV2@W4IndirectionKind@@0H@Z 100384e0 f   libvcruntimed:undname.obj
 0001:00037e00       ?getDataIndirectType@UnDecorator@@CA?AVDName@@XZ 10038e00 f i libvcruntimed:undname.obj
 0001:00037e40       ?getDataType@UnDecorator@@CA?AVDName@@PAV2@@Z 10038e40 f   libvcruntimed:undname.obj
 0001:00037f80       ?getDecoratedName@UnDecorator@@CA?AVDName@@XZ 10038f80 f   libvcruntimed:undname.obj
 0001:000383c0       ?getDimension@UnDecorator@@CA?AVDName@@_N@Z 100393c0 f   libvcruntimed:undname.obj
 0001:00038620       ?getDispatchTarget@UnDecorator@@CA?AVDName@@XZ 10039620 f   libvcruntimed:undname.obj
 0001:000386c0       ?getDisplacement@UnDecorator@@CA?AVDName@@XZ 100396c0 f i libvcruntimed:undname.obj
 0001:000386e0       ?getECSUDataType@UnDecorator@@CA?AVDName@@XZ 100396e0 f   libvcruntimed:undname.obj
 0001:00038940       ?getECSUName@UnDecorator@@CA?AVDName@@XZ 10039940 f i libvcruntimed:undname.obj
 0001:00038960       ?getEnumType@UnDecorator@@CA?AVDName@@XZ 10039960 f i libvcruntimed:undname.obj
 0001:00038b20       ?getExtendedDataIndirectType@UnDecorator@@CA?AVDName@@AAW4IndirectionKind@@AA_NH@Z 10039b20 f   libvcruntimed:undname.obj
 0001:00038d70       ?getExternalDataType@UnDecorator@@CA?AVDName@@ABV2@@Z 10039d70 f i libvcruntimed:undname.obj
 0001:00038e10       ?getFloatingPoint@UnDecorator@@CA?AVDName@@H@Z 10039e10 f   libvcruntimed:undname.obj
 0001:00038fd0       ?getFunctionIndirectType@UnDecorator@@CA?AVDName@@ABV2@@Z 10039fd0 f   libvcruntimed:undname.obj
 0001:000394b0       ?getGuardNumber@UnDecorator@@CA?AVDName@@XZ 1003a4b0 f i libvcruntimed:undname.obj
 0001:000394d0       ?getLastChar@DName@@QBEDXZ 1003a4d0 f i libvcruntimed:undname.obj
 0001:00039510       ?getLastChar@DNameStatusNode@@UBEDXZ 1003a510 f i libvcruntimed:undname.obj
 0001:00039540       ?getLastChar@charNode@@UBEDXZ 1003a540 f i libvcruntimed:undname.obj
 0001:00039560       ?getLastChar@pDNameNode@@UBEDXZ 1003a560 f i libvcruntimed:undname.obj
 0001:00039590       ?getLastChar@pairNode@@UBEDXZ 1003a590 f i libvcruntimed:undname.obj
 0001:00039600       ?getLastChar@pcharNode@@UBEDXZ 1003a600 f i libvcruntimed:undname.obj
 0001:00039640       ?getLexicalFrame@UnDecorator@@CA?AVDName@@XZ 1003a640 f i libvcruntimed:undname.obj
 0001:00039680       ?getMemberAccess@UnDecorator@@CA?AVDName@@XZ 1003a680 f   libvcruntimed:undname.obj
 0001:00039710       ?getMemoryWithBuffer@_HeapManager@@QAEPAXI@Z 1003a710 f   libvcruntimed:undname.obj
 0001:00039800       ?getMemoryWithoutBuffer@_HeapManager@@QAEPAXI@Z 1003a800 f   libvcruntimed:undname.obj
 0001:00039840       ?getNoexcept@UnDecorator@@CA?AVDName@@XZ 1003a840 f   libvcruntimed:undname.obj
 0001:000398c0       ?getNumberOfDimensions@UnDecorator@@CAHXZ 1003a8c0 f   libvcruntimed:undname.obj
 0001:000399c0       ?getOperatorName@UnDecorator@@CA?AVDName@@_NPA_N@Z 1003a9c0 f i libvcruntimed:undname.obj
 0001:0003a4c0       ?getPointerToMember@UnDecorator@@CA?AVDName@@XZ 1003b4c0 f   libvcruntimed:undname.obj
 0001:0003a5b0       ?getPointerType@UnDecorator@@CA?AVDName@@ABV2@0@Z 1003b5b0 f i libvcruntimed:undname.obj
 0001:0003a5d0       ?getPointerTypeArray@UnDecorator@@CA?AVDName@@ABV2@0@Z 1003b5d0 f i libvcruntimed:undname.obj
 0001:0003a5f0       ?getPrimaryDataType@UnDecorator@@CA?AVDName@@ABV2@@Z 1003b5f0 f   libvcruntimed:undname.obj
 0001:0003aa80       ?getPtrRefDataType@UnDecorator@@CA?AVDName@@ABV2@H@Z 1003ba80 f   libvcruntimed:undname.obj
 0001:0003ad30       ?getPtrRefType@UnDecorator@@CA?AVDName@@ABV2@0W4IndirectionKind@@@Z 1003bd30 f   libvcruntimed:undname.obj
 0001:0003aeb0       ?getReferenceType@UnDecorator@@CA?AVDName@@ABV2@0W4IndirectionKind@@@Z 1003beb0 f i libvcruntimed:undname.obj
 0001:0003aed0       ?getRestrictionSpec@UnDecorator@@CA?AVDName@@XZ 1003bed0 f   libvcruntimed:undname.obj
 0001:0003b090       ?getReturnType@UnDecorator@@CA?AVDName@@PAV2@@Z 1003c090 f   libvcruntimed:undname.obj
 0001:0003b0e0       ?getScope@UnDecorator@@CA?AVDName@@XZ 1003c0e0 f   libvcruntimed:undname.obj
 0001:0003b670       ?getScopedName@UnDecorator@@CA?AVDName@@XZ 1003c670 f   libvcruntimed:undname.obj
 0001:0003b7c0       ?getSignedDimension@UnDecorator@@CA?AVDName@@XZ 1003c7c0 f   libvcruntimed:undname.obj
 0001:0003b840       ?getStorageConvention@UnDecorator@@CA?AVDName@@XZ 1003c840 f i libvcruntimed:undname.obj
 0001:0003b860       ?getString@DName@@QBEPADPAD0@Z 1003c860 f i libvcruntimed:undname.obj
 0001:0003b8c0       ?getString@DName@@QBEPADPADH@Z 1003c8c0 f i libvcruntimed:undname.obj
 0001:0003b950       ?getString@DNameStatusNode@@UBEPADPAD0@Z 1003c950 f i libvcruntimed:undname.obj
 0001:0003b990       ?getString@charNode@@UBEPADPAD0@Z 1003c990 f i libvcruntimed:undname.obj
 0001:0003b9c0       ?getString@pDNameNode@@UBEPADPAD0@Z 1003c9c0 f i libvcruntimed:undname.obj
 0001:0003ba00       ?getString@pairNode@@UBEPADPAD0@Z 1003ca00 f i libvcruntimed:undname.obj
 0001:0003ba90       ?getString@pcharNode@@UBEPADPAD0@Z 1003ca90 f i libvcruntimed:undname.obj
 0001:0003bac0       ?getStringEncoding@UnDecorator@@CA?AVDName@@W4PrefixKind@@H@Z 1003cac0 f   libvcruntimed:undname.obj
 0001:0003bbd0       ?getStringHelper@@YAPADPADPBD1H@Z 1003cbd0 f i libvcruntimed:undname.obj
 0001:0003bc10       ?getStringObject@UnDecorator@@CA?AVDName@@XZ 1003cc10 f   libvcruntimed:undname.obj
 0001:0003bcc0       ?getSymbolName@UnDecorator@@CA?AVDName@@XZ 1003ccc0 f i libvcruntimed:undname.obj
 0001:0003bd50       ?getTemplateArgumentList@UnDecorator@@CA?AVDName@@XZ 1003cd50 f   libvcruntimed:undname.obj
 0001:0003c040       ?getTemplateName@UnDecorator@@CA?AVDName@@_N@Z 1003d040 f   libvcruntimed:undname.obj
 0001:0003c200       ?getTemplateNonTypeArgument@UnDecorator@@CA?AVDName@@XZ 1003d200 f   libvcruntimed:undname.obj
 0001:0003c840       ?getTemplateTypeArgument@UnDecorator@@CA?AVDName@@XZ 1003d840 f   libvcruntimed:undname.obj
 0001:0003c9e0       ?getThisType@UnDecorator@@CA?AVDName@@XZ 1003d9e0 f i libvcruntimed:undname.obj
 0001:0003ca20       ?getThrowTypes@UnDecorator@@CA?AVDName@@XZ 1003da20 f   libvcruntimed:undname.obj
 0001:0003ca60       ?getTypeEncoding@UnDecorator@@CAHXZ 1003da60 f i libvcruntimed:undname.obj
 0001:0003d520       ?getUndecoratedName@UnDecorator@@QAEPADPADH@Z 1003e520 f i libvcruntimed:undname.obj
 0001:0003d680       ?getUnionObject@UnDecorator@@CA?AVDName@@XZ 1003e680 f   libvcruntimed:undname.obj
 0001:0003d750       ?getVCallThunkType@UnDecorator@@CA?AVDName@@XZ 1003e750 f i libvcruntimed:undname.obj
 0001:0003d7d0       ?getValue@UnDecorator@@CA?AV?$optional@_K@std@@XZ 1003e7d0 f   libvcruntimed:undname.obj
 0001:0003d890       ?getValueObject@UnDecorator@@CA?AVDName@@XZ 1003e890 f   libvcruntimed:undname.obj
 0001:0003da70       ?getVbTableType@UnDecorator@@CA?AVDName@@ABV2@@Z 1003ea70 f i libvcruntimed:undname.obj
 0001:0003da90       ?getVdispMapType@UnDecorator@@CA?AVDName@@ABV2@@Z 1003ea90 f i libvcruntimed:undname.obj
 0001:0003db20       ?getVfTableType@UnDecorator@@CA?AVDName@@ABV2@@Z 1003eb20 f i libvcruntimed:undname.obj
 0001:0003dd20       ?getZName@UnDecorator@@CA?AVDName@@_N0@Z 1003ed20 f   libvcruntimed:undname.obj
 0001:0003e050       ?haveTemplateParameters@UnDecorator@@SAHXZ 1003f050 f i libvcruntimed:undname.obj
 0001:0003e060       ?isArray@DName@@QBEHXZ     1003f060 f i libvcruntimed:undname.obj
 0001:0003e080       ?isComArray@DName@@QBEHXZ  1003f080 f i libvcruntimed:undname.obj
 0001:0003e0a0       ?isEmpty@DName@@QBEHXZ     1003f0a0 f i libvcruntimed:undname.obj
 0001:0003e0d0       ?isFull@Replicator@@QBEHXZ 1003f0d0 f i libvcruntimed:undname.obj
 0001:0003e100       ?isNoTE@DName@@QBEHXZ      1003f100 f i libvcruntimed:undname.obj
 0001:0003e120       ?isPinPtr@DName@@QBEHXZ    1003f120 f i libvcruntimed:undname.obj
 0001:0003e140       ?isPtrRef@DName@@QBEHXZ    1003f140 f i libvcruntimed:undname.obj
 0001:0003e160       ?isUDC@DName@@QBEHXZ       1003f160 f i libvcruntimed:undname.obj
 0001:0003e1a0       ?isUDTThunk@DName@@QBEHXZ  1003f1a0 f i libvcruntimed:undname.obj
 0001:0003e1e0       ?isVCallThunk@DName@@QBEHXZ 1003f1e0 f i libvcruntimed:undname.obj
 0001:0003e200       ?isValid@DName@@QBEHXZ     1003f200 f i libvcruntimed:undname.obj
 0001:0003e240       ?length@DName@@QBEHXZ      1003f240 f i libvcruntimed:undname.obj
 0001:0003e280       ?length@DNameStatusNode@@UBEHXZ 1003f280 f i libvcruntimed:undname.obj
 0001:0003e2a0       ?length@charNode@@UBEHXZ   1003f2a0 f i libvcruntimed:undname.obj
 0001:0003e2b0       ?length@pDNameNode@@UBEHXZ 1003f2b0 f i libvcruntimed:undname.obj
 0001:0003e2e0       ?length@pairNode@@UBEHXZ   1003f2e0 f i libvcruntimed:undname.obj
 0001:0003e350       ?length@pcharNode@@UBEHXZ  1003f350 f i libvcruntimed:undname.obj
 0001:0003e370       ?make@DNameStatusNode@@SAPBV1@W4DNameStatus@@@Z 1003f370 f i libvcruntimed:undname.obj
 0001:0003e3a0       ?parseDecoratedName@UnDecorator@@CA?AVDName@@XZ 1003f3a0 f   libvcruntimed:undname.obj
 0001:0003e530       ?raw_length@DNameStatusNode@@UBEHXZ 1003f530 f i libvcruntimed:undname.obj
 0001:0003e550       ?raw_length@charNode@@UBEHXZ 1003f550 f i libvcruntimed:undname.obj
 0001:0003e570       ?raw_length@pDNameNode@@UBEHXZ 1003f570 f i libvcruntimed:undname.obj
 0001:0003e580       ?raw_length@pairNode@@UBEHXZ 1003f580 f i libvcruntimed:undname.obj
 0001:0003e5a0       ?raw_length@pcharNode@@UBEHXZ 1003f5a0 f i libvcruntimed:undname.obj
 0001:0003e5c0       ?setIsArray@DName@@QAEXXZ  1003f5c0 f i libvcruntimed:undname.obj
 0001:0003e5e0       ?setIsComArray@DName@@QAEXXZ 1003f5e0 f i libvcruntimed:undname.obj
 0001:0003e600       ?setIsNoTE@DName@@QAEXXZ   1003f600 f i libvcruntimed:undname.obj
 0001:0003e620       ?setIsPinPtr@DName@@QAEXXZ 1003f620 f i libvcruntimed:undname.obj
 0001:0003e640       ?setIsUDC@DName@@QAEXXZ    1003f640 f i libvcruntimed:undname.obj
 0001:0003e670       ?setIsVCallThunk@DName@@QAEXXZ 1003f670 f i libvcruntimed:undname.obj
 0001:0003e690       ?setPtrRef@DName@@QAEAAV1@XZ 1003f690 f i libvcruntimed:undname.obj
 0001:0003e6b0       ?status@DName@@QBE?AW4DNameStatus@@XZ 1003f6b0 f i libvcruntimed:undname.obj
 0001:0003e7b0       ___unDName                 1003f7b0 f   libvcruntimed:undname.obj
 0001:0003e7e0       ___unDNameEx               1003f7e0 f   libvcruntimed:undname.obj
 0001:0003e8b0       _unDNameGenerateCHPE       1003f8b0 f   libvcruntimed:undname.obj
 0001:0003e910       __global_unwind2           1003f910 f   libvcruntimed:exsup.obj
 0001:0003e990       __local_unwind2            1003f990 f   libvcruntimed:exsup.obj
 0001:0003ea30       __abnormal_termination     1003fa30 f   libvcruntimed:exsup.obj
 0001:0003ea60       __NLG_Notify1              1003fa60 f   libvcruntimed:exsup.obj
 0001:0003ea70       __NLG_Notify               1003fa70 f   libvcruntimed:exsup.obj
 0001:0003ea87       __NLG_Dispatch2            1003fa87     libvcruntimed:exsup.obj
 0001:0003ea87       __NLG_Dispatch             1003fa87     libvcruntimed:exsup.obj
 0001:0003ea90       __NLG_Call                 1003fa90 f   libvcruntimed:exsup.obj
 0001:0003ea92       __NLG_Return2              1003fa92     libvcruntimed:exsup.obj
 0001:0003eaa0       ??$__crt_interlocked_exchange_pointer@UHINSTANCE__@@PAU1@@@YAPAUHINSTANCE__@@PDSAU0@QAU0@@Z 1003faa0 f i libvcruntimed:winapi_downlevel.obj
 0001:0003eab0       ??$__crt_interlocked_exchange_pointer@UHINSTANCE__@@PAX@@YAPAUHINSTANCE__@@PDSAU0@QAX@Z 1003fab0 f i libvcruntimed:winapi_downlevel.obj
 0001:0003eac0       ??$__crt_interlocked_exchange_pointer@XPAX@@YAPAXPDSAXQAX@Z 1003fac0 f i libvcruntimed:winapi_downlevel.obj
 0001:0003ead0       ??$__crt_interlocked_read_pointer@UHINSTANCE__@@@@YAPAUHINSTANCE__@@PDSAU0@@Z 1003fad0 f i libvcruntimed:winapi_downlevel.obj
 0001:0003eaf0       ??$__crt_interlocked_read_pointer@X@@YAPAXPDSAX@Z 1003faf0 f i libvcruntimed:winapi_downlevel.obj
 0001:0003eec0       ___vcrt_FlsAlloc           1003fec0 f   libvcruntimed:winapi_downlevel.obj
 0001:0003ef00       ___vcrt_FlsFree            1003ff00 f   libvcruntimed:winapi_downlevel.obj
 0001:0003ef40       ___vcrt_FlsGetValue        1003ff40 f   libvcruntimed:winapi_downlevel.obj
 0001:0003ef80       ___vcrt_FlsSetValue        1003ff80 f   libvcruntimed:winapi_downlevel.obj
 0001:0003efd0       ___vcrt_InitializeCriticalSectionEx 1003ffd0 f   libvcruntimed:winapi_downlevel.obj
 0001:0003f050       __get_unexpected           10040050 f   libvcruntimed:unexpected.obj
 0001:0003f070       _set_unexpected            10040070 f   libvcruntimed:unexpected.obj
 0001:0003f0a0       _unexpected                100400a0 f   libvcruntimed:unexpected.obj
 0001:0003f0e0       ?GetCurrentState@__FrameHandler3@@SAHPAUEHRegistrationNode@@PAXPBU_s_FuncInfo@@@Z 100400e0 f   libvcruntimed:ehstate.obj
 0001:0003f110       ?SetState@__FrameHandler3@@SAXPAUEHRegistrationNode@@PBU_s_FuncInfo@@H@Z 10040110 f   libvcruntimed:ehstate.obj
 0001:0003f120       ??$?0ABV?$stream_output_adapter@D@__crt_stdio_output@@AB_KABQBDAAV__crt_cached_ptd_host@@ABQAD@?$format_validation_base@DV?$stream_output_adapter@D@__crt_stdio_output@@@__crt_stdio_output@@IAE@ABV?$stream_output_adapter@D@1@AB_KABQBDAAV__crt_cached_ptd_host@@ABQAD@Z 10040120 f i libucrtd:output.obj
 0001:0003f150       ??$?0ABV?$stream_output_adapter@D@__crt_stdio_output@@AB_KABQBDAAV__crt_cached_ptd_host@@ABQAD@?$positional_parameter_base@DV?$stream_output_adapter@D@__crt_stdio_output@@@__crt_stdio_output@@IAE@ABV?$stream_output_adapter@D@1@AB_KABQBDAAV__crt_cached_ptd_host@@ABQAD@Z 10040150 f i libucrtd:output.obj
 0001:0003f1d0       ??$?0ABV?$stream_output_adapter@D@__crt_stdio_output@@AB_KABQBDAAV__crt_cached_ptd_host@@ABQAD@?$standard_base@DV?$stream_output_adapter@D@__crt_stdio_output@@@__crt_stdio_output@@IAE@ABV?$stream_output_adapter@D@1@AB_KABQBDAAV__crt_cached_ptd_host@@ABQAD@Z 100401d0 f i libucrtd:output.obj
 0001:0003f220       ??$?0ABV?$stream_output_adapter@_W@__crt_stdio_output@@AB_KABQB_WAAV__crt_cached_ptd_host@@ABQAD@?$format_validation_base@_WV?$stream_output_adapter@_W@__crt_stdio_output@@@__crt_stdio_output@@IAE@ABV?$stream_output_adapter@_W@1@AB_KABQB_WAAV__crt_cached_ptd_host@@ABQAD@Z 10040220 f i libucrtd:output.obj
 0001:0003f250       ??$?0ABV?$stream_output_adapter@_W@__crt_stdio_output@@AB_KABQB_WAAV__crt_cached_ptd_host@@ABQAD@?$positional_parameter_base@_WV?$stream_output_adapter@_W@__crt_stdio_output@@@__crt_stdio_output@@IAE@ABV?$stream_output_adapter@_W@1@AB_KABQB_WAAV__crt_cached_ptd_host@@ABQAD@Z 10040250 f i libucrtd:output.obj
 0001:0003f2d0       ??$?0ABV?$stream_output_adapter@_W@__crt_stdio_output@@AB_KABQB_WAAV__crt_cached_ptd_host@@ABQAD@?$standard_base@_WV?$stream_output_adapter@_W@__crt_stdio_output@@@__crt_stdio_output@@IAE@ABV?$stream_output_adapter@_W@1@AB_KABQB_WAAV__crt_cached_ptd_host@@ABQAD@Z 100402d0 f i libucrtd:output.obj
 0001:0003f320       ??$?0ABV?$string_output_adapter@D@__crt_stdio_output@@AB_KABQBDAAV__crt_cached_ptd_host@@ABQAD@?$format_validation_base@DV?$string_output_adapter@D@__crt_stdio_output@@@__crt_stdio_output@@IAE@ABV?$string_output_adapter@D@1@AB_KABQBDAAV__crt_cached_ptd_host@@ABQAD@Z 10040320 f i libucrtd:output.obj
 0001:0003f350       ??$?0ABV?$string_output_adapter@D@__crt_stdio_output@@AB_KABQBDAAV__crt_cached_ptd_host@@ABQAD@?$positional_parameter_base@DV?$string_output_adapter@D@__crt_stdio_output@@@__crt_stdio_output@@IAE@ABV?$string_output_adapter@D@1@AB_KABQBDAAV__crt_cached_ptd_host@@ABQAD@Z 10040350 f i libucrtd:output.obj
 0001:0003f3d0       ??$?0ABV?$string_output_adapter@D@__crt_stdio_output@@AB_KABQBDAAV__crt_cached_ptd_host@@ABQAD@?$standard_base@DV?$string_output_adapter@D@__crt_stdio_output@@@__crt_stdio_output@@IAE@ABV?$string_output_adapter@D@1@AB_KABQBDAAV__crt_cached_ptd_host@@ABQAD@Z 100403d0 f i libucrtd:output.obj
 0001:0003f420       ??$?0ABV?$string_output_adapter@_W@__crt_stdio_output@@AB_KABQB_WAAV__crt_cached_ptd_host@@ABQAD@?$format_validation_base@_WV?$string_output_adapter@_W@__crt_stdio_output@@@__crt_stdio_output@@IAE@ABV?$string_output_adapter@_W@1@AB_KABQB_WAAV__crt_cached_ptd_host@@ABQAD@Z 10040420 f i libucrtd:output.obj
 0001:0003f450       ??$?0ABV?$string_output_adapter@_W@__crt_stdio_output@@AB_KABQB_WAAV__crt_cached_ptd_host@@ABQAD@?$positional_parameter_base@_WV?$string_output_adapter@_W@__crt_stdio_output@@@__crt_stdio_output@@IAE@ABV?$string_output_adapter@_W@1@AB_KABQB_WAAV__crt_cached_ptd_host@@ABQAD@Z 10040450 f i libucrtd:output.obj
 0001:0003f4d0       ??$?0ABV?$string_output_adapter@_W@__crt_stdio_output@@AB_KABQB_WAAV__crt_cached_ptd_host@@ABQAD@?$standard_base@_WV?$string_output_adapter@_W@__crt_stdio_output@@@__crt_stdio_output@@IAE@ABV?$string_output_adapter@_W@1@AB_KABQB_WAAV__crt_cached_ptd_host@@ABQAD@Z 100404d0 f i libucrtd:output.obj
 0001:0003fb20       ??$__crt_interlocked_read@J@@YAJPDJ@Z 10040b20 f i libucrtd:output.obj
 0001:0003fb40       ??$_tcstol_internal@DPAPAD$0A@@@YAJAAV__crt_cached_ptd_host@@QBDQAPADH@Z 10040b40 f i libucrtd:output.obj
 0001:0003fb80       ??$_tcstol_internal@_WPAPA_W$0A@@@YAJAAV__crt_cached_ptd_host@@QB_WQAPA_WH@Z 10040b80 f i libucrtd:output.obj
 0001:00042b20       ??$count@D@formatting_buffer@__crt_stdio_output@@QBEIXZ 10043b20 f i libucrtd:output.obj
 0001:00042b60       ??$count@_W@formatting_buffer@__crt_stdio_output@@QBEIXZ 10043b60 f i libucrtd:output.obj
 0001:00042ba0       ??$data@D@formatting_buffer@__crt_stdio_output@@QAEPADXZ 10043ba0 f i libucrtd:output.obj
 0001:00042be0       ??$data@_W@formatting_buffer@__crt_stdio_output@@QAEPA_WXZ 10043be0 f i libucrtd:output.obj
 0001:00042c20       ??$ensure_buffer_is_big_enough@D@formatting_buffer@__crt_stdio_output@@QAE_NIAAV__crt_cached_ptd_host@@@Z 10043c20 f i libucrtd:output.obj
 0001:00042d10       ??$ensure_buffer_is_big_enough@_W@formatting_buffer@__crt_stdio_output@@QAE_NIAAV__crt_cached_ptd_host@@@Z 10043d10 f i libucrtd:output.obj
 0001:00042e00       ??$extract_argument_from_va_list@C_J@?$positional_parameter_base@DV?$stream_output_adapter@D@__crt_stdio_output@@@__crt_stdio_output@@IAE_NAA_J@Z 10043e00 f i libucrtd:output.obj
 0001:00042f60       ??$extract_argument_from_va_list@C_J@?$positional_parameter_base@DV?$string_output_adapter@D@__crt_stdio_output@@@__crt_stdio_output@@IAE_NAA_J@Z 10043f60 f i libucrtd:output.obj
 0001:000430c0       ??$extract_argument_from_va_list@C_J@?$positional_parameter_base@_WV?$stream_output_adapter@_W@__crt_stdio_output@@@__crt_stdio_output@@IAE_NAA_J@Z 100440c0 f i libucrtd:output.obj
 0001:00043230       ??$extract_argument_from_va_list@C_J@?$positional_parameter_base@_WV?$string_output_adapter@_W@__crt_stdio_output@@@__crt_stdio_output@@IAE_NAA_J@Z 10044230 f i libucrtd:output.obj
 0001:000433a0       ??$extract_argument_from_va_list@C_J@?$standard_base@DV?$stream_output_adapter@D@__crt_stdio_output@@@__crt_stdio_output@@IAE_NAA_J@Z 100443a0 f i libucrtd:output.obj
 0001:000433d0       ??$extract_argument_from_va_list@C_J@?$standard_base@DV?$string_output_adapter@D@__crt_stdio_output@@@__crt_stdio_output@@IAE_NAA_J@Z 100443d0 f i libucrtd:output.obj
 0001:00043400       ??$extract_argument_from_va_list@C_J@?$standard_base@_WV?$stream_output_adapter@_W@__crt_stdio_output@@@__crt_stdio_output@@IAE_NAA_J@Z 10044400 f i libucrtd:output.obj
 0001:00043430       ??$extract_argument_from_va_list@C_J@?$standard_base@_WV?$string_output_adapter@_W@__crt_stdio_output@@@__crt_stdio_output@@IAE_NAA_J@Z 10044430 f i libucrtd:output.obj
 0001:00043460       ??$extract_argument_from_va_list@E_J@?$positional_parameter_base@DV?$stream_output_adapter@D@__crt_stdio_output@@@__crt_stdio_output@@IAE_NAA_J@Z 10044460 f i libucrtd:output.obj
 0001:000435c0       ??$extract_argument_from_va_list@E_J@?$positional_parameter_base@DV?$string_output_adapter@D@__crt_stdio_output@@@__crt_stdio_output@@IAE_NAA_J@Z 100445c0 f i libucrtd:output.obj
 0001:00043720       ??$extract_argument_from_va_list@E_J@?$positional_parameter_base@_WV?$stream_output_adapter@_W@__crt_stdio_output@@@__crt_stdio_output@@IAE_NAA_J@Z 10044720 f i libucrtd:output.obj
 0001:00043890       ??$extract_argument_from_va_list@E_J@?$positional_parameter_base@_WV?$string_output_adapter@_W@__crt_stdio_output@@@__crt_stdio_output@@IAE_NAA_J@Z 10044890 f i libucrtd:output.obj
 0001:00043a00       ??$extract_argument_from_va_list@E_J@?$standard_base@DV?$stream_output_adapter@D@__crt_stdio_output@@@__crt_stdio_output@@IAE_NAA_J@Z 10044a00 f i libucrtd:output.obj
 0001:00043a30       ??$extract_argument_from_va_list@E_J@?$standard_base@DV?$string_output_adapter@D@__crt_stdio_output@@@__crt_stdio_output@@IAE_NAA_J@Z 10044a30 f i libucrtd:output.obj
 0001:00043a60       ??$extract_argument_from_va_list@E_J@?$standard_base@_WV?$stream_output_adapter@_W@__crt_stdio_output@@@__crt_stdio_output@@IAE_NAA_J@Z 10044a60 f i libucrtd:output.obj
 0001:00043a90       ??$extract_argument_from_va_list@E_J@?$standard_base@_WV?$string_output_adapter@_W@__crt_stdio_output@@@__crt_stdio_output@@IAE_NAA_J@Z 10044a90 f i libucrtd:output.obj
 0001:00043ac0       ??$extract_argument_from_va_list@F_J@?$positional_parameter_base@DV?$stream_output_adapter@D@__crt_stdio_output@@@__crt_stdio_output@@IAE_NAA_J@Z 10044ac0 f i libucrtd:output.obj
 0001:00043c20       ??$extract_argument_from_va_list@F_J@?$positional_parameter_base@DV?$string_output_adapter@D@__crt_stdio_output@@@__crt_stdio_output@@IAE_NAA_J@Z 10044c20 f i libucrtd:output.obj
 0001:00043d80       ??$extract_argument_from_va_list@F_J@?$positional_parameter_base@_WV?$stream_output_adapter@_W@__crt_stdio_output@@@__crt_stdio_output@@IAE_NAA_J@Z 10044d80 f i libucrtd:output.obj
 0001:00043ee0       ??$extract_argument_from_va_list@F_J@?$positional_parameter_base@_WV?$string_output_adapter@_W@__crt_stdio_output@@@__crt_stdio_output@@IAE_NAA_J@Z 10044ee0 f i libucrtd:output.obj
 0001:00044040       ??$extract_argument_from_va_list@F_J@?$standard_base@DV?$stream_output_adapter@D@__crt_stdio_output@@@__crt_stdio_output@@IAE_NAA_J@Z 10045040 f i libucrtd:output.obj
 0001:00044070       ??$extract_argument_from_va_list@F_J@?$standard_base@DV?$string_output_adapter@D@__crt_stdio_output@@@__crt_stdio_output@@IAE_NAA_J@Z 10045070 f i libucrtd:output.obj
 0001:000440a0       ??$extract_argument_from_va_list@F_J@?$standard_base@_WV?$stream_output_adapter@_W@__crt_stdio_output@@@__crt_stdio_output@@IAE_NAA_J@Z 100450a0 f i libucrtd:output.obj
 0001:000440d0       ??$extract_argument_from_va_list@F_J@?$standard_base@_WV?$string_output_adapter@_W@__crt_stdio_output@@@__crt_stdio_output@@IAE_NAA_J@Z 100450d0 f i libucrtd:output.obj
 0001:00044100       ??$extract_argument_from_va_list@GD@?$positional_parameter_base@DV?$stream_output_adapter@D@__crt_stdio_output@@@__crt_stdio_output@@IAE_NAAD@Z 10045100 f i libucrtd:output.obj
 0001:00044260       ??$extract_argument_from_va_list@GD@?$positional_parameter_base@DV?$string_output_adapter@D@__crt_stdio_output@@@__crt_stdio_output@@IAE_NAAD@Z 10045260 f i libucrtd:output.obj
 0001:000443c0       ??$extract_argument_from_va_list@GD@?$standard_base@DV?$stream_output_adapter@D@__crt_stdio_output@@@__crt_stdio_output@@IAE_NAAD@Z 100453c0 f i libucrtd:output.obj
 0001:000443f0       ??$extract_argument_from_va_list@GD@?$standard_base@DV?$string_output_adapter@D@__crt_stdio_output@@@__crt_stdio_output@@IAE_NAAD@Z 100453f0 f i libucrtd:output.obj
 0001:00044420       ??$extract_argument_from_va_list@G_J@?$positional_parameter_base@DV?$stream_output_adapter@D@__crt_stdio_output@@@__crt_stdio_output@@IAE_NAA_J@Z 10045420 f i libucrtd:output.obj
 0001:00044580       ??$extract_argument_from_va_list@G_J@?$positional_parameter_base@DV?$string_output_adapter@D@__crt_stdio_output@@@__crt_stdio_output@@IAE_NAA_J@Z 10045580 f i libucrtd:output.obj
 0001:000446e0       ??$extract_argument_from_va_list@G_J@?$positional_parameter_base@_WV?$stream_output_adapter@_W@__crt_stdio_output@@@__crt_stdio_output@@IAE_NAA_J@Z 100456e0 f i libucrtd:output.obj
 0001:00044850       ??$extract_argument_from_va_list@G_J@?$positional_parameter_base@_WV?$string_output_adapter@_W@__crt_stdio_output@@@__crt_stdio_output@@IAE_NAA_J@Z 10045850 f i libucrtd:output.obj
 0001:000449c0       ??$extract_argument_from_va_list@G_J@?$standard_base@DV?$stream_output_adapter@D@__crt_stdio_output@@@__crt_stdio_output@@IAE_NAA_J@Z 100459c0 f i libucrtd:output.obj
 0001:000449f0       ??$extract_argument_from_va_list@G_J@?$standard_base@DV?$string_output_adapter@D@__crt_stdio_output@@@__crt_stdio_output@@IAE_NAA_J@Z 100459f0 f i libucrtd:output.obj
 0001:00044a20       ??$extract_argument_from_va_list@G_J@?$standard_base@_WV?$stream_output_adapter@_W@__crt_stdio_output@@@__crt_stdio_output@@IAE_NAA_J@Z 10045a20 f i libucrtd:output.obj
 0001:00044a50       ??$extract_argument_from_va_list@G_J@?$standard_base@_WV?$string_output_adapter@_W@__crt_stdio_output@@@__crt_stdio_output@@IAE_NAA_J@Z 10045a50 f i libucrtd:output.obj
 0001:00044a80       ??$extract_argument_from_va_list@H_J@?$positional_parameter_base@DV?$stream_output_adapter@D@__crt_stdio_output@@@__crt_stdio_output@@IAE_NAA_J@Z 10045a80 f i libucrtd:output.obj
 0001:00044be0       ??$extract_argument_from_va_list@H_J@?$positional_parameter_base@DV?$string_output_adapter@D@__crt_stdio_output@@@__crt_stdio_output@@IAE_NAA_J@Z 10045be0 f i libucrtd:output.obj
 0001:00044d40       ??$extract_argument_from_va_list@H_J@?$positional_parameter_base@_WV?$stream_output_adapter@_W@__crt_stdio_output@@@__crt_stdio_output@@IAE_NAA_J@Z 10045d40 f i libucrtd:output.obj
 0001:00044ea0       ??$extract_argument_from_va_list@H_J@?$positional_parameter_base@_WV?$string_output_adapter@_W@__crt_stdio_output@@@__crt_stdio_output@@IAE_NAA_J@Z 10045ea0 f i libucrtd:output.obj
 0001:00045000       ??$extract_argument_from_va_list@H_J@?$standard_base@DV?$stream_output_adapter@D@__crt_stdio_output@@@__crt_stdio_output@@IAE_NAA_J@Z 10046000 f i libucrtd:output.obj
 0001:00045030       ??$extract_argument_from_va_list@H_J@?$standard_base@DV?$string_output_adapter@D@__crt_stdio_output@@@__crt_stdio_output@@IAE_NAA_J@Z 10046030 f i libucrtd:output.obj
 0001:00045060       ??$extract_argument_from_va_list@H_J@?$standard_base@_WV?$stream_output_adapter@_W@__crt_stdio_output@@@__crt_stdio_output@@IAE_NAA_J@Z 10046060 f i libucrtd:output.obj
 0001:00045090       ??$extract_argument_from_va_list@H_J@?$standard_base@_WV?$string_output_adapter@_W@__crt_stdio_output@@@__crt_stdio_output@@IAE_NAA_J@Z 10046090 f i libucrtd:output.obj
 0001:000450c0       ??$extract_argument_from_va_list@I_J@?$positional_parameter_base@DV?$stream_output_adapter@D@__crt_stdio_output@@@__crt_stdio_output@@IAE_NAA_J@Z 100460c0 f i libucrtd:output.obj
 0001:00045220       ??$extract_argument_from_va_list@I_J@?$positional_parameter_base@DV?$string_output_adapter@D@__crt_stdio_output@@@__crt_stdio_output@@IAE_NAA_J@Z 10046220 f i libucrtd:output.obj
 0001:00045380       ??$extract_argument_from_va_list@I_J@?$positional_parameter_base@_WV?$stream_output_adapter@_W@__crt_stdio_output@@@__crt_stdio_output@@IAE_NAA_J@Z 10046380 f i libucrtd:output.obj
 0001:000454e0       ??$extract_argument_from_va_list@I_J@?$positional_parameter_base@_WV?$string_output_adapter@_W@__crt_stdio_output@@@__crt_stdio_output@@IAE_NAA_J@Z 100464e0 f i libucrtd:output.obj
 0001:00045640       ??$extract_argument_from_va_list@I_J@?$standard_base@DV?$stream_output_adapter@D@__crt_stdio_output@@@__crt_stdio_output@@IAE_NAA_J@Z 10046640 f i libucrtd:output.obj
 0001:00045670       ??$extract_argument_from_va_list@I_J@?$standard_base@DV?$string_output_adapter@D@__crt_stdio_output@@@__crt_stdio_output@@IAE_NAA_J@Z 10046670 f i libucrtd:output.obj
 0001:000456a0       ??$extract_argument_from_va_list@I_J@?$standard_base@_WV?$stream_output_adapter@_W@__crt_stdio_output@@@__crt_stdio_output@@IAE_NAA_J@Z 100466a0 f i libucrtd:output.obj
 0001:000456d0       ??$extract_argument_from_va_list@I_J@?$standard_base@_WV?$string_output_adapter@_W@__crt_stdio_output@@@__crt_stdio_output@@IAE_NAA_J@Z 100466d0 f i libucrtd:output.obj
 0001:00045700       ??$extract_argument_from_va_list@PADPAD@?$positional_parameter_base@DV?$stream_output_adapter@D@__crt_stdio_output@@@__crt_stdio_output@@IAE_NAAPAD@Z 10046700 f i libucrtd:output.obj
 0001:00045860       ??$extract_argument_from_va_list@PADPAD@?$positional_parameter_base@DV?$string_output_adapter@D@__crt_stdio_output@@@__crt_stdio_output@@IAE_NAAPAD@Z 10046860 f i libucrtd:output.obj
 0001:000459c0       ??$extract_argument_from_va_list@PADPAD@?$positional_parameter_base@_WV?$stream_output_adapter@_W@__crt_stdio_output@@@__crt_stdio_output@@IAE_NAAPAD@Z 100469c0 f i libucrtd:output.obj
 0001:00045b20       ??$extract_argument_from_va_list@PADPAD@?$positional_parameter_base@_WV?$string_output_adapter@_W@__crt_stdio_output@@@__crt_stdio_output@@IAE_NAAPAD@Z 10046b20 f i libucrtd:output.obj
 0001:00045c80       ??$extract_argument_from_va_list@PADPAD@?$standard_base@DV?$stream_output_adapter@D@__crt_stdio_output@@@__crt_stdio_output@@IAE_NAAPAD@Z 10046c80 f i libucrtd:output.obj
 0001:00045cb0       ??$extract_argument_from_va_list@PADPAD@?$standard_base@DV?$string_output_adapter@D@__crt_stdio_output@@@__crt_stdio_output@@IAE_NAAPAD@Z 10046cb0 f i libucrtd:output.obj
 0001:00045ce0       ??$extract_argument_from_va_list@PADPAD@?$standard_base@_WV?$stream_output_adapter@_W@__crt_stdio_output@@@__crt_stdio_output@@IAE_NAAPAD@Z 10046ce0 f i libucrtd:output.obj
 0001:00045d10       ??$extract_argument_from_va_list@PADPAD@?$standard_base@_WV?$string_output_adapter@_W@__crt_stdio_output@@@__crt_stdio_output@@IAE_NAAPAD@Z 10046d10 f i libucrtd:output.obj
 0001:00045d40       ??$extract_argument_from_va_list@PAUansi_string@?1??type_case_Z@?$output_processor@DV?$stream_output_adapter@D@__crt_stdio_output@@V?$format_validation_base@DV?$stream_output_adapter@D@__crt_stdio_output@@@2@@__crt_stdio_output@@AAE_NXZ@PAU1?1??234@AAE_NXZ@@?$standard_base@DV?$stream_output_adapter@D@__crt_stdio_output@@@__crt_stdio_output@@IAE_NAAPAUansi_string@?1??type_case_Z@?$output_processor@DV?$stream_output_adapter@D@__crt_stdio_output@@V?$format_validation_base@DV?$stream_output_adapter@D@__crt_stdio_output@@@2@@1@AAE_NXZ@@Z 10046d40 f i libucrtd:output.obj
 0001:00045d70       ??$extract_argument_from_va_list@PAUansi_string@?1??type_case_Z@?$output_processor@DV?$stream_output_adapter@D@__crt_stdio_output@@V?$positional_parameter_base@DV?$stream_output_adapter@D@__crt_stdio_output@@@2@@__crt_stdio_output@@AAE_NXZ@PAU1?1??234@AAE_NXZ@@?$positional_parameter_base@DV?$stream_output_adapter@D@__crt_stdio_output@@@__crt_stdio_output@@IAE_NAAPAUansi_string@?1??type_case_Z@?$output_processor@DV?$stream_output_adapter@D@__crt_stdio_output@@V?$positional_parameter_base@DV?$stream_output_adapter@D@__crt_stdio_output@@@2@@1@AAE_NXZ@@Z 10046d70 f i libucrtd:output.obj
 0001:00045ed0       ??$extract_argument_from_va_list@PAUansi_string@?1??type_case_Z@?$output_processor@DV?$stream_output_adapter@D@__crt_stdio_output@@V?$positional_parameter_base@DV?$stream_output_adapter@D@__crt_stdio_output@@@2@@__crt_stdio_output@@AAE_NXZ@PAU1?1??234@AAE_NXZ@@?$standard_base@DV?$stream_output_adapter@D@__crt_stdio_output@@@__crt_stdio_output@@IAE_NAAPAUansi_string@?1??type_case_Z@?$output_processor@DV?$stream_output_adapter@D@__crt_stdio_output@@V?$positional_parameter_base@DV?$stream_output_adapter@D@__crt_stdio_output@@@2@@1@AAE_NXZ@@Z 10046ed0 f i libucrtd:output.obj
 0001:00045f00       ??$extract_argument_from_va_list@PAUansi_string@?1??type_case_Z@?$output_processor@DV?$stream_output_adapter@D@__crt_stdio_output@@V?$standard_base@DV?$stream_output_adapter@D@__crt_stdio_output@@@2@@__crt_stdio_output@@AAE_NXZ@PAU1?1??234@AAE_NXZ@@?$standard_base@DV?$stream_output_adapter@D@__crt_stdio_output@@@__crt_stdio_output@@IAE_NAAPAUansi_string@?1??type_case_Z@?$output_processor@DV?$stream_output_adapter@D@__crt_stdio_output@@V?$standard_base@DV?$stream_output_adapter@D@__crt_stdio_output@@@2@@1@AAE_NXZ@@Z 10046f00 f i libucrtd:output.obj
 0001:00045f30       ??$extract_argument_from_va_list@PAUansi_string@?1??type_case_Z@?$output_processor@DV?$string_output_adapter@D@__crt_stdio_output@@V?$format_validation_base@DV?$string_output_adapter@D@__crt_stdio_output@@@2@@__crt_stdio_output@@AAE_NXZ@PAU1?1??234@AAE_NXZ@@?$standard_base@DV?$string_output_adapter@D@__crt_stdio_output@@@__crt_stdio_output@@IAE_NAAPAUansi_string@?1??type_case_Z@?$output_processor@DV?$string_output_adapter@D@__crt_stdio_output@@V?$format_validation_base@DV?$string_output_adapter@D@__crt_stdio_output@@@2@@1@AAE_NXZ@@Z 10046f30 f i libucrtd:output.obj
 0001:00045f60       ??$extract_argument_from_va_list@PAUansi_string@?1??type_case_Z@?$output_processor@DV?$string_output_adapter@D@__crt_stdio_output@@V?$positional_parameter_base@DV?$string_output_adapter@D@__crt_stdio_output@@@2@@__crt_stdio_output@@AAE_NXZ@PAU1?1??234@AAE_NXZ@@?$positional_parameter_base@DV?$string_output_adapter@D@__crt_stdio_output@@@__crt_stdio_output@@IAE_NAAPAUansi_string@?1??type_case_Z@?$output_processor@DV?$string_output_adapter@D@__crt_stdio_output@@V?$positional_parameter_base@DV?$string_output_adapter@D@__crt_stdio_output@@@2@@1@AAE_NXZ@@Z 10046f60 f i libucrtd:output.obj
 0001:000460c0       ??$extract_argument_from_va_list@PAUansi_string@?1??type_case_Z@?$output_processor@DV?$string_output_adapter@D@__crt_stdio_output@@V?$positional_parameter_base@DV?$string_output_adapter@D@__crt_stdio_output@@@2@@__crt_stdio_output@@AAE_NXZ@PAU1?1??234@AAE_NXZ@@?$standard_base@DV?$string_output_adapter@D@__crt_stdio_output@@@__crt_stdio_output@@IAE_NAAPAUansi_string@?1??type_case_Z@?$output_processor@DV?$string_output_adapter@D@__crt_stdio_output@@V?$positional_parameter_base@DV?$string_output_adapter@D@__crt_stdio_output@@@2@@1@AAE_NXZ@@Z 100470c0 f i libucrtd:output.obj
 0001:000460f0       ??$extract_argument_from_va_list@PAUansi_string@?1??type_case_Z@?$output_processor@DV?$string_output_adapter@D@__crt_stdio_output@@V?$standard_base@DV?$string_output_adapter@D@__crt_stdio_output@@@2@@__crt_stdio_output@@AAE_NXZ@PAU1?1??234@AAE_NXZ@@?$standard_base@DV?$string_output_adapter@D@__crt_stdio_output@@@__crt_stdio_output@@IAE_NAAPAUansi_string@?1??type_case_Z@?$output_processor@DV?$string_output_adapter@D@__crt_stdio_output@@V?$standard_base@DV?$string_output_adapter@D@__crt_stdio_output@@@2@@1@AAE_NXZ@@Z 100470f0 f i libucrtd:output.obj
 0001:00046120       ??$extract_argument_from_va_list@PAUansi_string@?1??type_case_Z@?$output_processor@_WV?$stream_output_adapter@_W@__crt_stdio_output@@V?$format_validation_base@_WV?$stream_output_adapter@_W@__crt_stdio_output@@@2@@__crt_stdio_output@@AAE_NXZ@PAU1?1??234@AAE_NXZ@@?$standard_base@_WV?$stream_output_adapter@_W@__crt_stdio_output@@@__crt_stdio_output@@IAE_NAAPAUansi_string@?1??type_case_Z@?$output_processor@_WV?$stream_output_adapter@_W@__crt_stdio_output@@V?$format_validation_base@_WV?$stream_output_adapter@_W@__crt_stdio_output@@@2@@1@AAE_NXZ@@Z 10047120 f i libucrtd:output.obj
 0001:00046150       ??$extract_argument_from_va_list@PAUansi_string@?1??type_case_Z@?$output_processor@_WV?$stream_output_adapter@_W@__crt_stdio_output@@V?$positional_parameter_base@_WV?$stream_output_adapter@_W@__crt_stdio_output@@@2@@__crt_stdio_output@@AAE_NXZ@PAU1?1??234@AAE_NXZ@@?$positional_parameter_base@_WV?$stream_output_adapter@_W@__crt_stdio_output@@@__crt_stdio_output@@IAE_NAAPAUansi_string@?1??type_case_Z@?$output_processor@_WV?$stream_output_adapter@_W@__crt_stdio_output@@V?$positional_parameter_base@_WV?$stream_output_adapter@_W@__crt_stdio_output@@@2@@1@AAE_NXZ@@Z 10047150 f i libucrtd:output.obj
 0001:000462b0       ??$extract_argument_from_va_list@PAUansi_string@?1??type_case_Z@?$output_processor@_WV?$stream_output_adapter@_W@__crt_stdio_output@@V?$positional_parameter_base@_WV?$stream_output_adapter@_W@__crt_stdio_output@@@2@@__crt_stdio_output@@AAE_NXZ@PAU1?1??234@AAE_NXZ@@?$standard_base@_WV?$stream_output_adapter@_W@__crt_stdio_output@@@__crt_stdio_output@@IAE_NAAPAUansi_string@?1??type_case_Z@?$output_processor@_WV?$stream_output_adapter@_W@__crt_stdio_output@@V?$positional_parameter_base@_WV?$stream_output_adapter@_W@__crt_stdio_output@@@2@@1@AAE_NXZ@@Z 100472b0 f i libucrtd:output.obj
 0001:000462e0       ??$extract_argument_from_va_list@PAUansi_string@?1??type_case_Z@?$output_processor@_WV?$stream_output_adapter@_W@__crt_stdio_output@@V?$standard_base@_WV?$stream_output_adapter@_W@__crt_stdio_output@@@2@@__crt_stdio_output@@AAE_NXZ@PAU1?1??234@AAE_NXZ@@?$standard_base@_WV?$stream_output_adapter@_W@__crt_stdio_output@@@__crt_stdio_output@@IAE_NAAPAUansi_string@?1??type_case_Z@?$output_processor@_WV?$stream_output_adapter@_W@__crt_stdio_output@@V?$standard_base@_WV?$stream_output_adapter@_W@__crt_stdio_output@@@2@@1@AAE_NXZ@@Z 100472e0 f i libucrtd:output.obj
 0001:00046310       ??$extract_argument_from_va_list@PAUansi_string@?1??type_case_Z@?$output_processor@_WV?$string_output_adapter@_W@__crt_stdio_output@@V?$format_validation_base@_WV?$string_output_adapter@_W@__crt_stdio_output@@@2@@__crt_stdio_output@@AAE_NXZ@PAU1?1??234@AAE_NXZ@@?$standard_base@_WV?$string_output_adapter@_W@__crt_stdio_output@@@__crt_stdio_output@@IAE_NAAPAUansi_string@?1??type_case_Z@?$output_processor@_WV?$string_output_adapter@_W@__crt_stdio_output@@V?$format_validation_base@_WV?$string_output_adapter@_W@__crt_stdio_output@@@2@@1@AAE_NXZ@@Z 10047310 f i libucrtd:output.obj
 0001:00046340       ??$extract_argument_from_va_list@PAUansi_string@?1??type_case_Z@?$output_processor@_WV?$string_output_adapter@_W@__crt_stdio_output@@V?$positional_parameter_base@_WV?$string_output_adapter@_W@__crt_stdio_output@@@2@@__crt_stdio_output@@AAE_NXZ@PAU1?1??234@AAE_NXZ@@?$positional_parameter_base@_WV?$string_output_adapter@_W@__crt_stdio_output@@@__crt_stdio_output@@IAE_NAAPAUansi_string@?1??type_case_Z@?$output_processor@_WV?$string_output_adapter@_W@__crt_stdio_output@@V?$positional_parameter_base@_WV?$string_output_adapter@_W@__crt_stdio_output@@@2@@1@AAE_NXZ@@Z 10047340 f i libucrtd:output.obj
 0001:000464a0       ??$extract_argument_from_va_list@PAUansi_string@?1??type_case_Z@?$output_processor@_WV?$string_output_adapter@_W@__crt_stdio_output@@V?$positional_parameter_base@_WV?$string_output_adapter@_W@__crt_stdio_output@@@2@@__crt_stdio_output@@AAE_NXZ@PAU1?1??234@AAE_NXZ@@?$standard_base@_WV?$string_output_adapter@_W@__crt_stdio_output@@@__crt_stdio_output@@IAE_NAAPAUansi_string@?1??type_case_Z@?$output_processor@_WV?$string_output_adapter@_W@__crt_stdio_output@@V?$positional_parameter_base@_WV?$string_output_adapter@_W@__crt_stdio_output@@@2@@1@AAE_NXZ@@Z 100474a0 f i libucrtd:output.obj
 0001:000464d0       ??$extract_argument_from_va_list@PAUansi_string@?1??type_case_Z@?$output_processor@_WV?$string_output_adapter@_W@__crt_stdio_output@@V?$standard_base@_WV?$string_output_adapter@_W@__crt_stdio_output@@@2@@__crt_stdio_output@@AAE_NXZ@PAU1?1??234@AAE_NXZ@@?$standard_base@_WV?$string_output_adapter@_W@__crt_stdio_output@@@__crt_stdio_output@@IAE_NAAPAUansi_string@?1??type_case_Z@?$output_processor@_WV?$string_output_adapter@_W@__crt_stdio_output@@V?$standard_base@_WV?$string_output_adapter@_W@__crt_stdio_output@@@2@@1@AAE_NXZ@@Z 100474d0 f i libucrtd:output.obj
 0001:00046500       ??$extract_argument_from_va_list@PAXPAX@?$positional_parameter_base@DV?$stream_output_adapter@D@__crt_stdio_output@@@__crt_stdio_output@@IAE_NAAPAX@Z 10047500 f i libucrtd:output.obj
 0001:00046660       ??$extract_argument_from_va_list@PAXPAX@?$positional_parameter_base@DV?$string_output_adapter@D@__crt_stdio_output@@@__crt_stdio_output@@IAE_NAAPAX@Z 10047660 f i libucrtd:output.obj
 0001:000467c0       ??$extract_argument_from_va_list@PAXPAX@?$positional_parameter_base@_WV?$stream_output_adapter@_W@__crt_stdio_output@@@__crt_stdio_output@@IAE_NAAPAX@Z 100477c0 f i libucrtd:output.obj
 0001:00046920       ??$extract_argument_from_va_list@PAXPAX@?$positional_parameter_base@_WV?$string_output_adapter@_W@__crt_stdio_output@@@__crt_stdio_output@@IAE_NAAPAX@Z 10047920 f i libucrtd:output.obj
 0001:00046a80       ??$extract_argument_from_va_list@PAXPAX@?$standard_base@DV?$stream_output_adapter@D@__crt_stdio_output@@@__crt_stdio_output@@IAE_NAAPAX@Z 10047a80 f i libucrtd:output.obj
 0001:00046ab0       ??$extract_argument_from_va_list@PAXPAX@?$standard_base@DV?$string_output_adapter@D@__crt_stdio_output@@@__crt_stdio_output@@IAE_NAAPAX@Z 10047ab0 f i libucrtd:output.obj
 0001:00046ae0       ??$extract_argument_from_va_list@PAXPAX@?$standard_base@_WV?$stream_output_adapter@_W@__crt_stdio_output@@@__crt_stdio_output@@IAE_NAAPAX@Z 10047ae0 f i libucrtd:output.obj
 0001:00046b10       ??$extract_argument_from_va_list@PAXPAX@?$standard_base@_WV?$string_output_adapter@_W@__crt_stdio_output@@@__crt_stdio_output@@IAE_NAAPAX@Z 10047b10 f i libucrtd:output.obj
 0001:00046b40       ??$extract_argument_from_va_list@U_CRT_DOUBLE@@U1@@?$positional_parameter_base@DV?$stream_output_adapter@D@__crt_stdio_output@@@__crt_stdio_output@@IAE_NAAU_CRT_DOUBLE@@@Z 10047b40 f i libucrtd:output.obj
 0001:00046cd0       ??$extract_argument_from_va_list@U_CRT_DOUBLE@@U1@@?$positional_parameter_base@DV?$string_output_adapter@D@__crt_stdio_output@@@__crt_stdio_output@@IAE_NAAU_CRT_DOUBLE@@@Z 10047cd0 f i libucrtd:output.obj
 0001:00046e60       ??$extract_argument_from_va_list@U_CRT_DOUBLE@@U1@@?$positional_parameter_base@_WV?$stream_output_adapter@_W@__crt_stdio_output@@@__crt_stdio_output@@IAE_NAAU_CRT_DOUBLE@@@Z 10047e60 f i libucrtd:output.obj
 0001:00046ff0       ??$extract_argument_from_va_list@U_CRT_DOUBLE@@U1@@?$positional_parameter_base@_WV?$string_output_adapter@_W@__crt_stdio_output@@@__crt_stdio_output@@IAE_NAAU_CRT_DOUBLE@@@Z 10047ff0 f i libucrtd:output.obj
 0001:00047180       ??$extract_argument_from_va_list@U_CRT_DOUBLE@@U1@@?$standard_base@DV?$stream_output_adapter@D@__crt_stdio_output@@@__crt_stdio_output@@IAE_NAAU_CRT_DOUBLE@@@Z 10048180 f i libucrtd:output.obj
 0001:000471d0       ??$extract_argument_from_va_list@U_CRT_DOUBLE@@U1@@?$standard_base@DV?$string_output_adapter@D@__crt_stdio_output@@@__crt_stdio_output@@IAE_NAAU_CRT_DOUBLE@@@Z 100481d0 f i libucrtd:output.obj
 0001:00047220       ??$extract_argument_from_va_list@U_CRT_DOUBLE@@U1@@?$standard_base@_WV?$stream_output_adapter@_W@__crt_stdio_output@@@__crt_stdio_output@@IAE_NAAU_CRT_DOUBLE@@@Z 10048220 f i libucrtd:output.obj
 0001:00047270       ??$extract_argument_from_va_list@U_CRT_DOUBLE@@U1@@?$standard_base@_WV?$string_output_adapter@_W@__crt_stdio_output@@@__crt_stdio_output@@IAE_NAAU_CRT_DOUBLE@@@Z 10048270 f i libucrtd:output.obj
 0001:000472c0       ??$extract_argument_from_va_list@_J_J@?$positional_parameter_base@DV?$stream_output_adapter@D@__crt_stdio_output@@@__crt_stdio_output@@IAE_NAA_J@Z 100482c0 f i libucrtd:output.obj
 0001:00047420       ??$extract_argument_from_va_list@_J_J@?$positional_parameter_base@DV?$string_output_adapter@D@__crt_stdio_output@@@__crt_stdio_output@@IAE_NAA_J@Z 10048420 f i libucrtd:output.obj
 0001:00047580       ??$extract_argument_from_va_list@_J_J@?$positional_parameter_base@_WV?$stream_output_adapter@_W@__crt_stdio_output@@@__crt_stdio_output@@IAE_NAA_J@Z 10048580 f i libucrtd:output.obj
 0001:000476e0       ??$extract_argument_from_va_list@_J_J@?$positional_parameter_base@_WV?$string_output_adapter@_W@__crt_stdio_output@@@__crt_stdio_output@@IAE_NAA_J@Z 100486e0 f i libucrtd:output.obj
 0001:00047840       ??$extract_argument_from_va_list@_J_J@?$standard_base@DV?$stream_output_adapter@D@__crt_stdio_output@@@__crt_stdio_output@@IAE_NAA_J@Z 10048840 f i libucrtd:output.obj
 0001:00047870       ??$extract_argument_from_va_list@_J_J@?$standard_base@DV?$string_output_adapter@D@__crt_stdio_output@@@__crt_stdio_output@@IAE_NAA_J@Z 10048870 f i libucrtd:output.obj
 0001:000478a0       ??$extract_argument_from_va_list@_J_J@?$standard_base@_WV?$stream_output_adapter@_W@__crt_stdio_output@@@__crt_stdio_output@@IAE_NAA_J@Z 100488a0 f i libucrtd:output.obj
 0001:000478d0       ??$extract_argument_from_va_list@_J_J@?$standard_base@_WV?$string_output_adapter@_W@__crt_stdio_output@@@__crt_stdio_output@@IAE_NAA_J@Z 100488d0 f i libucrtd:output.obj
 0001:00047900       ??$extract_argument_from_va_list@_K_J@?$positional_parameter_base@DV?$stream_output_adapter@D@__crt_stdio_output@@@__crt_stdio_output@@IAE_NAA_J@Z 10048900 f i libucrtd:output.obj
 0001:00047a60       ??$extract_argument_from_va_list@_K_J@?$positional_parameter_base@DV?$string_output_adapter@D@__crt_stdio_output@@@__crt_stdio_output@@IAE_NAA_J@Z 10048a60 f i libucrtd:output.obj
 0001:00047bc0       ??$extract_argument_from_va_list@_K_J@?$positional_parameter_base@_WV?$stream_output_adapter@_W@__crt_stdio_output@@@__crt_stdio_output@@IAE_NAA_J@Z 10048bc0 f i libucrtd:output.obj
 0001:00047d20       ??$extract_argument_from_va_list@_K_J@?$positional_parameter_base@_WV?$string_output_adapter@_W@__crt_stdio_output@@@__crt_stdio_output@@IAE_NAA_J@Z 10048d20 f i libucrtd:output.obj
 0001:00047e80       ??$extract_argument_from_va_list@_K_J@?$standard_base@DV?$stream_output_adapter@D@__crt_stdio_output@@@__crt_stdio_output@@IAE_NAA_J@Z 10048e80 f i libucrtd:output.obj
 0001:00047eb0       ??$extract_argument_from_va_list@_K_J@?$standard_base@DV?$string_output_adapter@D@__crt_stdio_output@@@__crt_stdio_output@@IAE_NAA_J@Z 10048eb0 f i libucrtd:output.obj
 0001:00047ee0       ??$extract_argument_from_va_list@_K_J@?$standard_base@_WV?$stream_output_adapter@_W@__crt_stdio_output@@@__crt_stdio_output@@IAE_NAA_J@Z 10048ee0 f i libucrtd:output.obj
 0001:00047f10       ??$extract_argument_from_va_list@_K_J@?$standard_base@_WV?$string_output_adapter@_W@__crt_stdio_output@@@__crt_stdio_output@@IAE_NAA_J@Z 10048f10 f i libucrtd:output.obj
 0001:00047f40       ??$extract_argument_from_va_list@_W_W@?$positional_parameter_base@DV?$stream_output_adapter@D@__crt_stdio_output@@@__crt_stdio_output@@IAE_NAA_W@Z 10048f40 f i libucrtd:output.obj
 0001:000480a0       ??$extract_argument_from_va_list@_W_W@?$positional_parameter_base@DV?$string_output_adapter@D@__crt_stdio_output@@@__crt_stdio_output@@IAE_NAA_W@Z 100490a0 f i libucrtd:output.obj
 0001:00048200       ??$extract_argument_from_va_list@_W_W@?$positional_parameter_base@_WV?$stream_output_adapter@_W@__crt_stdio_output@@@__crt_stdio_output@@IAE_NAA_W@Z 10049200 f i libucrtd:output.obj
 0001:00048360       ??$extract_argument_from_va_list@_W_W@?$positional_parameter_base@_WV?$string_output_adapter@_W@__crt_stdio_output@@@__crt_stdio_output@@IAE_NAA_W@Z 10049360 f i libucrtd:output.obj
 0001:000484c0       ??$extract_argument_from_va_list@_W_W@?$standard_base@DV?$stream_output_adapter@D@__crt_stdio_output@@@__crt_stdio_output@@IAE_NAA_W@Z 100494c0 f i libucrtd:output.obj
 0001:000484f0       ??$extract_argument_from_va_list@_W_W@?$standard_base@DV?$string_output_adapter@D@__crt_stdio_output@@@__crt_stdio_output@@IAE_NAA_W@Z 100494f0 f i libucrtd:output.obj
 0001:00048520       ??$extract_argument_from_va_list@_W_W@?$standard_base@_WV?$stream_output_adapter@_W@__crt_stdio_output@@@__crt_stdio_output@@IAE_NAA_W@Z 10049520 f i libucrtd:output.obj
 0001:00048550       ??$extract_argument_from_va_list@_W_W@?$standard_base@_WV?$string_output_adapter@_W@__crt_stdio_output@@@__crt_stdio_output@@IAE_NAA_W@Z 10049550 f i libucrtd:output.obj
 0001:00048580       ??$get_parameter_type@D@?$positional_parameter_base@DV?$stream_output_adapter@D@__crt_stdio_output@@@__crt_stdio_output@@CA?AW4parameter_type@01@PAD@Z 10049580 f i libucrtd:output.obj
 0001:00048590       ??$get_parameter_type@D@?$positional_parameter_base@DV?$string_output_adapter@D@__crt_stdio_output@@@__crt_stdio_output@@CA?AW4parameter_type@01@PAD@Z 10049590 f i libucrtd:output.obj
 0001:000485a0       ??$get_parameter_type@D@?$positional_parameter_base@_WV?$stream_output_adapter@_W@__crt_stdio_output@@@__crt_stdio_output@@CA?AW4parameter_type@01@PAD@Z 100495a0 f i libucrtd:output.obj
 0001:000485b0       ??$get_parameter_type@D@?$positional_parameter_base@_WV?$string_output_adapter@_W@__crt_stdio_output@@@__crt_stdio_output@@CA?AW4parameter_type@01@PAD@Z 100495b0 f i libucrtd:output.obj
 0001:000485c0       ??$get_parameter_type@Uansi_string@?1??type_case_Z@?$output_processor@DV?$stream_output_adapter@D@__crt_stdio_output@@V?$positional_parameter_base@DV?$stream_output_adapter@D@__crt_stdio_output@@@2@@__crt_stdio_output@@AAE_NXZ@@?$positional_parameter_base@DV?$stream_output_adapter@D@__crt_stdio_output@@@__crt_stdio_output@@CA?AW4parameter_type@01@PAUansi_string@?1??type_case_Z@?$output_processor@DV?$stream_output_adapter@D@__crt_stdio_output@@V?$positional_parameter_base@DV?$stream_output_adapter@D@__crt_stdio_output@@@2@@1@AAE_NXZ@@Z 100495c0 f i libucrtd:output.obj
 0001:000485d0       ??$get_parameter_type@Uansi_string@?1??type_case_Z@?$output_processor@DV?$string_output_adapter@D@__crt_stdio_output@@V?$positional_parameter_base@DV?$string_output_adapter@D@__crt_stdio_output@@@2@@__crt_stdio_output@@AAE_NXZ@@?$positional_parameter_base@DV?$string_output_adapter@D@__crt_stdio_output@@@__crt_stdio_output@@CA?AW4parameter_type@01@PAUansi_string@?1??type_case_Z@?$output_processor@DV?$string_output_adapter@D@__crt_stdio_output@@V?$positional_parameter_base@DV?$string_output_adapter@D@__crt_stdio_output@@@2@@1@AAE_NXZ@@Z 100495d0 f i libucrtd:output.obj
 0001:000485e0       ??$get_parameter_type@Uansi_string@?1??type_case_Z@?$output_processor@_WV?$stream_output_adapter@_W@__crt_stdio_output@@V?$positional_parameter_base@_WV?$stream_output_adapter@_W@__crt_stdio_output@@@2@@__crt_stdio_output@@AAE_NXZ@@?$positional_parameter_base@_WV?$stream_output_adapter@_W@__crt_stdio_output@@@__crt_stdio_output@@CA?AW4parameter_type@01@PAUansi_string@?1??type_case_Z@?$output_processor@_WV?$stream_output_adapter@_W@__crt_stdio_output@@V?$positional_parameter_base@_WV?$stream_output_adapter@_W@__crt_stdio_output@@@2@@1@AAE_NXZ@@Z 100495e0 f i libucrtd:output.obj
 0001:000485f0       ??$get_parameter_type@Uansi_string@?1??type_case_Z@?$output_processor@_WV?$string_output_adapter@_W@__crt_stdio_output@@V?$positional_parameter_base@_WV?$string_output_adapter@_W@__crt_stdio_output@@@2@@__crt_stdio_output@@AAE_NXZ@@?$positional_parameter_base@_WV?$string_output_adapter@_W@__crt_stdio_output@@@__crt_stdio_output@@CA?AW4parameter_type@01@PAUansi_string@?1??type_case_Z@?$output_processor@_WV?$string_output_adapter@_W@__crt_stdio_output@@V?$positional_parameter_base@_WV?$string_output_adapter@_W@__crt_stdio_output@@@2@@1@AAE_NXZ@@Z 100495f0 f i libucrtd:output.obj
 0001:00048600       ??$get_parameter_type@X@?$positional_parameter_base@DV?$stream_output_adapter@D@__crt_stdio_output@@@__crt_stdio_output@@CA?AW4parameter_type@01@PAX@Z 10049600 f i libucrtd:output.obj
 0001:00048610       ??$get_parameter_type@X@?$positional_parameter_base@DV?$string_output_adapter@D@__crt_stdio_output@@@__crt_stdio_output@@CA?AW4parameter_type@01@PAX@Z 10049610 f i libucrtd:output.obj
 0001:00048620       ??$get_parameter_type@X@?$positional_parameter_base@_WV?$stream_output_adapter@_W@__crt_stdio_output@@@__crt_stdio_output@@CA?AW4parameter_type@01@PAX@Z 10049620 f i libucrtd:output.obj
 0001:00048630       ??$get_parameter_type@X@?$positional_parameter_base@_WV?$string_output_adapter@_W@__crt_stdio_output@@@__crt_stdio_output@@CA?AW4parameter_type@01@PAX@Z 10049630 f i libucrtd:output.obj
 0001:00048640       ??$is_character_specifier@D@?$positional_parameter_base@DV?$stream_output_adapter@D@__crt_stdio_output@@@__crt_stdio_output@@CA_ND@Z 10049640 f i libucrtd:output.obj
 0001:00048670       ??$is_character_specifier@D@?$positional_parameter_base@DV?$string_output_adapter@D@__crt_stdio_output@@@__crt_stdio_output@@CA_ND@Z 10049670 f i libucrtd:output.obj
 0001:000486a0       ??$is_character_specifier@_W@?$positional_parameter_base@_WV?$stream_output_adapter@_W@__crt_stdio_output@@@__crt_stdio_output@@CA_N_W@Z 100496a0 f i libucrtd:output.obj
 0001:000486d0       ??$is_character_specifier@_W@?$positional_parameter_base@_WV?$string_output_adapter@_W@__crt_stdio_output@@@__crt_stdio_output@@CA_N_W@Z 100496d0 f i libucrtd:output.obj
 0001:00048700       ??$is_integral_specifier@D@?$positional_parameter_base@DV?$stream_output_adapter@D@__crt_stdio_output@@@__crt_stdio_output@@CA_ND@Z 10049700 f i libucrtd:output.obj
 0001:00048760       ??$is_integral_specifier@D@?$positional_parameter_base@DV?$string_output_adapter@D@__crt_stdio_output@@@__crt_stdio_output@@CA_ND@Z 10049760 f i libucrtd:output.obj
 0001:000487c0       ??$is_integral_specifier@_W@?$positional_parameter_base@_WV?$stream_output_adapter@_W@__crt_stdio_output@@@__crt_stdio_output@@CA_N_W@Z 100497c0 f i libucrtd:output.obj
 0001:00048820       ??$is_integral_specifier@_W@?$positional_parameter_base@_WV?$string_output_adapter@_W@__crt_stdio_output@@@__crt_stdio_output@@CA_N_W@Z 10049820 f i libucrtd:output.obj
 0001:00048880       ??$is_overflow_condition@K@__crt_strtox@@YA_NIK@Z 10049880 f i libucrtd:output.obj
 0001:000488e0       ??$is_pointer_specifier@D@?$positional_parameter_base@DV?$stream_output_adapter@D@__crt_stdio_output@@@__crt_stdio_output@@CA_ND@Z 100498e0 f i libucrtd:output.obj
 0001:00048910       ??$is_pointer_specifier@D@?$positional_parameter_base@DV?$string_output_adapter@D@__crt_stdio_output@@@__crt_stdio_output@@CA_ND@Z 10049910 f i libucrtd:output.obj
 0001:00048940       ??$is_pointer_specifier@_W@?$positional_parameter_base@_WV?$stream_output_adapter@_W@__crt_stdio_output@@@__crt_stdio_output@@CA_N_W@Z 10049940 f i libucrtd:output.obj
 0001:00048970       ??$is_pointer_specifier@_W@?$positional_parameter_base@_WV?$string_output_adapter@_W@__crt_stdio_output@@@__crt_stdio_output@@CA_N_W@Z 10049970 f i libucrtd:output.obj
 0001:000489a0       ??$is_string_specifier@D@?$positional_parameter_base@DV?$stream_output_adapter@D@__crt_stdio_output@@@__crt_stdio_output@@CA_ND@Z 100499a0 f i libucrtd:output.obj
 0001:000489d0       ??$is_string_specifier@D@?$positional_parameter_base@DV?$string_output_adapter@D@__crt_stdio_output@@@__crt_stdio_output@@CA_ND@Z 100499d0 f i libucrtd:output.obj
 0001:00048a00       ??$is_string_specifier@_W@?$positional_parameter_base@_WV?$stream_output_adapter@_W@__crt_stdio_output@@@__crt_stdio_output@@CA_N_W@Z 10049a00 f i libucrtd:output.obj
 0001:00048a30       ??$is_string_specifier@_W@?$positional_parameter_base@_WV?$string_output_adapter@_W@__crt_stdio_output@@@__crt_stdio_output@@CA_N_W@Z 10049a30 f i libucrtd:output.obj
 0001:00048a60       ??$is_wide_character_specifier@D@__crt_stdio_output@@YA_N_KDW4length_modifier@0@@Z 10049a60 f i libucrtd:output.obj
 0001:00048ae0       ??$is_wide_character_specifier@_W@__crt_stdio_output@@YA_N_K_WW4length_modifier@0@@Z 10049ae0 f i libucrtd:output.obj
 0001:00048ba0       ??$make_c_string_character_source@DPAPAD@__crt_strtox@@YA?AV?$c_string_character_source@D@0@QBDQAPAD@Z 10049ba0 f i libucrtd:output.obj
 0001:00048bc0       ??$make_c_string_character_source@_WPAPA_W@__crt_strtox@@YA?AV?$c_string_character_source@_W@0@QB_WQAPA_W@Z 10049bc0 f i libucrtd:output.obj
 0001:00048be0       ??$parse_integer@KV?$c_string_character_source@D@__crt_strtox@@$0A@@__crt_strtox@@YAKAAV__crt_cached_ptd_host@@V?$c_string_character_source@D@0@H_N@Z 10049be0 f i libucrtd:output.obj
 0001:00048f10       ??$parse_integer@KV?$c_string_character_source@_W@__crt_strtox@@$0A@@__crt_strtox@@YAKAAV__crt_cached_ptd_host@@V?$c_string_character_source@_W@0@H_N@Z 10049f10 f i libucrtd:output.obj
 0001:00049250       ??$peek_va_arg@C@__crt_stdio_output@@YACPAD@Z 1004a250 f i libucrtd:output.obj
 0001:00049270       ??$peek_va_arg@E@__crt_stdio_output@@YAEPAD@Z 1004a270 f i libucrtd:output.obj
 0001:00049290       ??$peek_va_arg@F@__crt_stdio_output@@YAFPAD@Z 1004a290 f i libucrtd:output.obj
 0001:000492b0       ??$peek_va_arg@G@__crt_stdio_output@@YAGPAD@Z 1004a2b0 f i libucrtd:output.obj
 0001:000492d0       ??$peek_va_arg@H@__crt_stdio_output@@YAHPAD@Z 1004a2d0 f i libucrtd:output.obj
 0001:000492f0       ??$peek_va_arg@I@__crt_stdio_output@@YAIPAD@Z 1004a2f0 f i libucrtd:output.obj
 0001:00049310       ??$peek_va_arg@PAD@__crt_stdio_output@@YAPADPAD@Z 1004a310 f i libucrtd:output.obj
 0001:00049330       ??$peek_va_arg@PAUansi_string@?1??type_case_Z@?$output_processor@DV?$stream_output_adapter@D@__crt_stdio_output@@V?$positional_parameter_base@DV?$stream_output_adapter@D@__crt_stdio_output@@@2@@__crt_stdio_output@@AAE_NXZ@@__crt_stdio_output@@YAPAUansi_string@?1??type_case_Z@?$output_processor@DV?$stream_output_adapter@D@__crt_stdio_output@@V?$positional_parameter_base@DV?$stream_output_adapter@D@__crt_stdio_output@@@2@@0@AAE_NXZ@PAD@Z 1004a330 f i libucrtd:output.obj
 0001:00049350       ??$peek_va_arg@PAUansi_string@?1??type_case_Z@?$output_processor@DV?$string_output_adapter@D@__crt_stdio_output@@V?$positional_parameter_base@DV?$string_output_adapter@D@__crt_stdio_output@@@2@@__crt_stdio_output@@AAE_NXZ@@__crt_stdio_output@@YAPAUansi_string@?1??type_case_Z@?$output_processor@DV?$string_output_adapter@D@__crt_stdio_output@@V?$positional_parameter_base@DV?$string_output_adapter@D@__crt_stdio_output@@@2@@0@AAE_NXZ@PAD@Z 1004a350 f i libucrtd:output.obj
 0001:00049370       ??$peek_va_arg@PAUansi_string@?1??type_case_Z@?$output_processor@_WV?$stream_output_adapter@_W@__crt_stdio_output@@V?$positional_parameter_base@_WV?$stream_output_adapter@_W@__crt_stdio_output@@@2@@__crt_stdio_output@@AAE_NXZ@@__crt_stdio_output@@YAPAUansi_string@?1??type_case_Z@?$output_processor@_WV?$stream_output_adapter@_W@__crt_stdio_output@@V?$positional_parameter_base@_WV?$stream_output_adapter@_W@__crt_stdio_output@@@2@@0@AAE_NXZ@PAD@Z 1004a370 f i libucrtd:output.obj
 0001:00049390       ??$peek_va_arg@PAUansi_string@?1??type_case_Z@?$output_processor@_WV?$string_output_adapter@_W@__crt_stdio_output@@V?$positional_parameter_base@_WV?$string_output_adapter@_W@__crt_stdio_output@@@2@@__crt_stdio_output@@AAE_NXZ@@__crt_stdio_output@@YAPAUansi_string@?1??type_case_Z@?$output_processor@_WV?$string_output_adapter@_W@__crt_stdio_output@@V?$positional_parameter_base@_WV?$string_output_adapter@_W@__crt_stdio_output@@@2@@0@AAE_NXZ@PAD@Z 1004a390 f i libucrtd:output.obj
 0001:000493b0       ??$peek_va_arg@PAX@__crt_stdio_output@@YAPAXPAD@Z 1004a3b0 f i libucrtd:output.obj
 0001:000493d0       ??$peek_va_arg@U_CRT_DOUBLE@@@__crt_stdio_output@@YA?AU_CRT_DOUBLE@@PAD@Z 1004a3d0 f i libucrtd:output.obj
 0001:000493f0       ??$peek_va_arg@_J@__crt_stdio_output@@YA_JPAD@Z 1004a3f0 f i libucrtd:output.obj
 0001:00049410       ??$peek_va_arg@_K@__crt_stdio_output@@YA_KPAD@Z 1004a410 f i libucrtd:output.obj
 0001:00049430       ??$peek_va_arg@_W@__crt_stdio_output@@YA_WPAD@Z 1004a430 f i libucrtd:output.obj
 0001:00049450       ??$puttc_nolock_internal@ABDPAU_iobuf@@AAV__crt_cached_ptd_host@@@?$__crt_char_traits@D@@SAHABD$$QAPAU_iobuf@@AAV__crt_cached_ptd_host@@@Z 1004a450 f i libucrtd:output.obj
 0001:00049470       ??$puttc_nolock_internal@AB_WPAU_iobuf@@AAV__crt_cached_ptd_host@@@?$__crt_char_traits@_W@@SAGAB_W$$QAPAU_iobuf@@AAV__crt_cached_ptd_host@@@Z 1004a470 f i libucrtd:output.obj
 0001:00049490       ??$read_va_arg@C@__crt_stdio_output@@YACAAPAD@Z 1004a490 f i libucrtd:output.obj
 0001:000494b0       ??$read_va_arg@E@__crt_stdio_output@@YAEAAPAD@Z 1004a4b0 f i libucrtd:output.obj
 0001:000494d0       ??$read_va_arg@F@__crt_stdio_output@@YAFAAPAD@Z 1004a4d0 f i libucrtd:output.obj
 0001:000494f0       ??$read_va_arg@G@__crt_stdio_output@@YAGAAPAD@Z 1004a4f0 f i libucrtd:output.obj
 0001:00049510       ??$read_va_arg@H@__crt_stdio_output@@YAHAAPAD@Z 1004a510 f i libucrtd:output.obj
 0001:00049530       ??$read_va_arg@I@__crt_stdio_output@@YAIAAPAD@Z 1004a530 f i libucrtd:output.obj
 0001:00049550       ??$read_va_arg@PAD@__crt_stdio_output@@YAPADAAPAD@Z 1004a550 f i libucrtd:output.obj
 0001:00049570       ??$read_va_arg@PAUansi_string@?1??type_case_Z@?$output_processor@DV?$stream_output_adapter@D@__crt_stdio_output@@V?$format_validation_base@DV?$stream_output_adapter@D@__crt_stdio_output@@@2@@__crt_stdio_output@@AAE_NXZ@@__crt_stdio_output@@YAPAUansi_string@?1??type_case_Z@?$output_processor@DV?$stream_output_adapter@D@__crt_stdio_output@@V?$format_validation_base@DV?$stream_output_adapter@D@__crt_stdio_output@@@2@@0@AAE_NXZ@AAPAD@Z 1004a570 f i libucrtd:output.obj
 0001:00049590       ??$read_va_arg@PAUansi_string@?1??type_case_Z@?$output_processor@DV?$stream_output_adapter@D@__crt_stdio_output@@V?$positional_parameter_base@DV?$stream_output_adapter@D@__crt_stdio_output@@@2@@__crt_stdio_output@@AAE_NXZ@@__crt_stdio_output@@YAPAUansi_string@?1??type_case_Z@?$output_processor@DV?$stream_output_adapter@D@__crt_stdio_output@@V?$positional_parameter_base@DV?$stream_output_adapter@D@__crt_stdio_output@@@2@@0@AAE_NXZ@AAPAD@Z 1004a590 f i libucrtd:output.obj
 0001:000495b0       ??$read_va_arg@PAUansi_string@?1??type_case_Z@?$output_processor@DV?$stream_output_adapter@D@__crt_stdio_output@@V?$standard_base@DV?$stream_output_adapter@D@__crt_stdio_output@@@2@@__crt_stdio_output@@AAE_NXZ@@__crt_stdio_output@@YAPAUansi_string@?1??type_case_Z@?$output_processor@DV?$stream_output_adapter@D@__crt_stdio_output@@V?$standard_base@DV?$stream_output_adapter@D@__crt_stdio_output@@@2@@0@AAE_NXZ@AAPAD@Z 1004a5b0 f i libucrtd:output.obj
 0001:000495d0       ??$read_va_arg@PAUansi_string@?1??type_case_Z@?$output_processor@DV?$string_output_adapter@D@__crt_stdio_output@@V?$format_validation_base@DV?$string_output_adapter@D@__crt_stdio_output@@@2@@__crt_stdio_output@@AAE_NXZ@@__crt_stdio_output@@YAPAUansi_string@?1??type_case_Z@?$output_processor@DV?$string_output_adapter@D@__crt_stdio_output@@V?$format_validation_base@DV?$string_output_adapter@D@__crt_stdio_output@@@2@@0@AAE_NXZ@AAPAD@Z 1004a5d0 f i libucrtd:output.obj
 0001:000495f0       ??$read_va_arg@PAUansi_string@?1??type_case_Z@?$output_processor@DV?$string_output_adapter@D@__crt_stdio_output@@V?$positional_parameter_base@DV?$string_output_adapter@D@__crt_stdio_output@@@2@@__crt_stdio_output@@AAE_NXZ@@__crt_stdio_output@@YAPAUansi_string@?1??type_case_Z@?$output_processor@DV?$string_output_adapter@D@__crt_stdio_output@@V?$positional_parameter_base@DV?$string_output_adapter@D@__crt_stdio_output@@@2@@0@AAE_NXZ@AAPAD@Z 1004a5f0 f i libucrtd:output.obj
 0001:00049610       ??$read_va_arg@PAUansi_string@?1??type_case_Z@?$output_processor@DV?$string_output_adapter@D@__crt_stdio_output@@V?$standard_base@DV?$string_output_adapter@D@__crt_stdio_output@@@2@@__crt_stdio_output@@AAE_NXZ@@__crt_stdio_output@@YAPAUansi_string@?1??type_case_Z@?$output_processor@DV?$string_output_adapter@D@__crt_stdio_output@@V?$standard_base@DV?$string_output_adapter@D@__crt_stdio_output@@@2@@0@AAE_NXZ@AAPAD@Z 1004a610 f i libucrtd:output.obj
 0001:00049630       ??$read_va_arg@PAUansi_string@?1??type_case_Z@?$output_processor@_WV?$stream_output_adapter@_W@__crt_stdio_output@@V?$format_validation_base@_WV?$stream_output_adapter@_W@__crt_stdio_output@@@2@@__crt_stdio_output@@AAE_NXZ@@__crt_stdio_output@@YAPAUansi_string@?1??type_case_Z@?$output_processor@_WV?$stream_output_adapter@_W@__crt_stdio_output@@V?$format_validation_base@_WV?$stream_output_adapter@_W@__crt_stdio_output@@@2@@0@AAE_NXZ@AAPAD@Z 1004a630 f i libucrtd:output.obj
 0001:00049650       ??$read_va_arg@PAUansi_string@?1??type_case_Z@?$output_processor@_WV?$stream_output_adapter@_W@__crt_stdio_output@@V?$positional_parameter_base@_WV?$stream_output_adapter@_W@__crt_stdio_output@@@2@@__crt_stdio_output@@AAE_NXZ@@__crt_stdio_output@@YAPAUansi_string@?1??type_case_Z@?$output_processor@_WV?$stream_output_adapter@_W@__crt_stdio_output@@V?$positional_parameter_base@_WV?$stream_output_adapter@_W@__crt_stdio_output@@@2@@0@AAE_NXZ@AAPAD@Z 1004a650 f i libucrtd:output.obj
 0001:00049670       ??$read_va_arg@PAUansi_string@?1??type_case_Z@?$output_processor@_WV?$stream_output_adapter@_W@__crt_stdio_output@@V?$standard_base@_WV?$stream_output_adapter@_W@__crt_stdio_output@@@2@@__crt_stdio_output@@AAE_NXZ@@__crt_stdio_output@@YAPAUansi_string@?1??type_case_Z@?$output_processor@_WV?$stream_output_adapter@_W@__crt_stdio_output@@V?$standard_base@_WV?$stream_output_adapter@_W@__crt_stdio_output@@@2@@0@AAE_NXZ@AAPAD@Z 1004a670 f i libucrtd:output.obj
 0001:00049690       ??$read_va_arg@PAUansi_string@?1??type_case_Z@?$output_processor@_WV?$string_output_adapter@_W@__crt_stdio_output@@V?$format_validation_base@_WV?$string_output_adapter@_W@__crt_stdio_output@@@2@@__crt_stdio_output@@AAE_NXZ@@__crt_stdio_output@@YAPAUansi_string@?1??type_case_Z@?$output_processor@_WV?$string_output_adapter@_W@__crt_stdio_output@@V?$format_validation_base@_WV?$string_output_adapter@_W@__crt_stdio_output@@@2@@0@AAE_NXZ@AAPAD@Z 1004a690 f i libucrtd:output.obj
 0001:000496b0       ??$read_va_arg@PAUansi_string@?1??type_case_Z@?$output_processor@_WV?$string_output_adapter@_W@__crt_stdio_output@@V?$positional_parameter_base@_WV?$string_output_adapter@_W@__crt_stdio_output@@@2@@__crt_stdio_output@@AAE_NXZ@@__crt_stdio_output@@YAPAUansi_string@?1??type_case_Z@?$output_processor@_WV?$string_output_adapter@_W@__crt_stdio_output@@V?$positional_parameter_base@_WV?$string_output_adapter@_W@__crt_stdio_output@@@2@@0@AAE_NXZ@AAPAD@Z 1004a6b0 f i libucrtd:output.obj
 0001:000496d0       ??$read_va_arg@PAUansi_string@?1??type_case_Z@?$output_processor@_WV?$string_output_adapter@_W@__crt_stdio_output@@V?$standard_base@_WV?$string_output_adapter@_W@__crt_stdio_output@@@2@@__crt_stdio_output@@AAE_NXZ@@__crt_stdio_output@@YAPAUansi_string@?1??type_case_Z@?$output_processor@_WV?$string_output_adapter@_W@__crt_stdio_output@@V?$standard_base@_WV?$string_output_adapter@_W@__crt_stdio_output@@@2@@0@AAE_NXZ@AAPAD@Z 1004a6d0 f i libucrtd:output.obj
 0001:000496f0       ??$read_va_arg@PAX@__crt_stdio_output@@YAPAXAAPAD@Z 1004a6f0 f i libucrtd:output.obj
 0001:00049710       ??$read_va_arg@U_CRT_DOUBLE@@@__crt_stdio_output@@YA?AU_CRT_DOUBLE@@AAPAD@Z 1004a710 f i libucrtd:output.obj
 0001:00049730       ??$read_va_arg@_J@__crt_stdio_output@@YA_JAAPAD@Z 1004a730 f i libucrtd:output.obj
 0001:00049750       ??$read_va_arg@_K@__crt_stdio_output@@YA_KAAPAD@Z 1004a750 f i libucrtd:output.obj
 0001:00049770       ??$read_va_arg@_W@__crt_stdio_output@@YA_WAAPAD@Z 1004a770 f i libucrtd:output.obj
 0001:00049790       ??$scratch_count@D@formatting_buffer@__crt_stdio_output@@QBEIXZ 1004a790 f i libucrtd:output.obj
 0001:000497b0       ??$scratch_data@D@formatting_buffer@__crt_stdio_output@@QAEPADXZ 1004a7b0 f i libucrtd:output.obj
 0001:00049800       ??$type_case_integer@$07@?$output_processor@DV?$stream_output_adapter@D@__crt_stdio_output@@V?$format_validation_base@DV?$stream_output_adapter@D@__crt_stdio_output@@@2@@__crt_stdio_output@@AAE_N_N@Z 1004a800 f i libucrtd:output.obj
 0001:00049b60       ??$type_case_integer@$07@?$output_processor@DV?$stream_output_adapter@D@__crt_stdio_output@@V?$positional_parameter_base@DV?$stream_output_adapter@D@__crt_stdio_output@@@2@@__crt_stdio_output@@AAE_N_N@Z 1004ab60 f i libucrtd:output.obj
 0001:00049ec0       ??$type_case_integer@$07@?$output_processor@DV?$stream_output_adapter@D@__crt_stdio_output@@V?$standard_base@DV?$stream_output_adapter@D@__crt_stdio_output@@@2@@__crt_stdio_output@@AAE_N_N@Z 1004aec0 f i libucrtd:output.obj
 0001:0004a220       ??$type_case_integer@$07@?$output_processor@DV?$string_output_adapter@D@__crt_stdio_output@@V?$format_validation_base@DV?$string_output_adapter@D@__crt_stdio_output@@@2@@__crt_stdio_output@@AAE_N_N@Z 1004b220 f i libucrtd:output.obj
 0001:0004a580       ??$type_case_integer@$07@?$output_processor@DV?$string_output_adapter@D@__crt_stdio_output@@V?$positional_parameter_base@DV?$string_output_adapter@D@__crt_stdio_output@@@2@@__crt_stdio_output@@AAE_N_N@Z 1004b580 f i libucrtd:output.obj
 0001:0004a8e0       ??$type_case_integer@$07@?$output_processor@DV?$string_output_adapter@D@__crt_stdio_output@@V?$standard_base@DV?$string_output_adapter@D@__crt_stdio_output@@@2@@__crt_stdio_output@@AAE_N_N@Z 1004b8e0 f i libucrtd:output.obj
 0001:0004ac40       ??$type_case_integer@$07@?$output_processor@_WV?$stream_output_adapter@_W@__crt_stdio_output@@V?$format_validation_base@_WV?$stream_output_adapter@_W@__crt_stdio_output@@@2@@__crt_stdio_output@@AAE_N_N@Z 1004bc40 f i libucrtd:output.obj
 0001:0004afa0       ??$type_case_integer@$07@?$output_processor@_WV?$stream_output_adapter@_W@__crt_stdio_output@@V?$positional_parameter_base@_WV?$stream_output_adapter@_W@__crt_stdio_output@@@2@@__crt_stdio_output@@AAE_N_N@Z 1004bfa0 f i libucrtd:output.obj
 0001:0004b300       ??$type_case_integer@$07@?$output_processor@_WV?$stream_output_adapter@_W@__crt_stdio_output@@V?$standard_base@_WV?$stream_output_adapter@_W@__crt_stdio_output@@@2@@__crt_stdio_output@@AAE_N_N@Z 1004c300 f i libucrtd:output.obj
 0001:0004b660       ??$type_case_integer@$07@?$output_processor@_WV?$string_output_adapter@_W@__crt_stdio_output@@V?$format_validation_base@_WV?$string_output_adapter@_W@__crt_stdio_output@@@2@@__crt_stdio_output@@AAE_N_N@Z 1004c660 f i libucrtd:output.obj
 0001:0004b9c0       ??$type_case_integer@$07@?$output_processor@_WV?$string_output_adapter@_W@__crt_stdio_output@@V?$positional_parameter_base@_WV?$string_output_adapter@_W@__crt_stdio_output@@@2@@__crt_stdio_output@@AAE_N_N@Z 1004c9c0 f i libucrtd:output.obj
 0001:0004bd20       ??$type_case_integer@$07@?$output_processor@_WV?$string_output_adapter@_W@__crt_stdio_output@@V?$standard_base@_WV?$string_output_adapter@_W@__crt_stdio_output@@@2@@__crt_stdio_output@@AAE_N_N@Z 1004cd20 f i libucrtd:output.obj
 0001:0004c080       ??$type_case_integer@$09@?$output_processor@DV?$stream_output_adapter@D@__crt_stdio_output@@V?$format_validation_base@DV?$stream_output_adapter@D@__crt_stdio_output@@@2@@__crt_stdio_output@@AAE_N_N@Z 1004d080 f i libucrtd:output.obj
 0001:0004c3e0       ??$type_case_integer@$09@?$output_processor@DV?$stream_output_adapter@D@__crt_stdio_output@@V?$positional_parameter_base@DV?$stream_output_adapter@D@__crt_stdio_output@@@2@@__crt_stdio_output@@AAE_N_N@Z 1004d3e0 f i libucrtd:output.obj
 0001:0004c740       ??$type_case_integer@$09@?$output_processor@DV?$stream_output_adapter@D@__crt_stdio_output@@V?$standard_base@DV?$stream_output_adapter@D@__crt_stdio_output@@@2@@__crt_stdio_output@@AAE_N_N@Z 1004d740 f i libucrtd:output.obj
 0001:0004caa0       ??$type_case_integer@$09@?$output_processor@DV?$string_output_adapter@D@__crt_stdio_output@@V?$format_validation_base@DV?$string_output_adapter@D@__crt_stdio_output@@@2@@__crt_stdio_output@@AAE_N_N@Z 1004daa0 f i libucrtd:output.obj
 0001:0004ce00       ??$type_case_integer@$09@?$output_processor@DV?$string_output_adapter@D@__crt_stdio_output@@V?$positional_parameter_base@DV?$string_output_adapter@D@__crt_stdio_output@@@2@@__crt_stdio_output@@AAE_N_N@Z 1004de00 f i libucrtd:output.obj
 0001:0004d160       ??$type_case_integer@$09@?$output_processor@DV?$string_output_adapter@D@__crt_stdio_output@@V?$standard_base@DV?$string_output_adapter@D@__crt_stdio_output@@@2@@__crt_stdio_output@@AAE_N_N@Z 1004e160 f i libucrtd:output.obj
 0001:0004d4c0       ??$type_case_integer@$09@?$output_processor@_WV?$stream_output_adapter@_W@__crt_stdio_output@@V?$format_validation_base@_WV?$stream_output_adapter@_W@__crt_stdio_output@@@2@@__crt_stdio_output@@AAE_N_N@Z 1004e4c0 f i libucrtd:output.obj
 0001:0004d820       ??$type_case_integer@$09@?$output_processor@_WV?$stream_output_adapter@_W@__crt_stdio_output@@V?$positional_parameter_base@_WV?$stream_output_adapter@_W@__crt_stdio_output@@@2@@__crt_stdio_output@@AAE_N_N@Z 1004e820 f i libucrtd:output.obj
 0001:0004db80       ??$type_case_integer@$09@?$output_processor@_WV?$stream_output_adapter@_W@__crt_stdio_output@@V?$standard_base@_WV?$stream_output_adapter@_W@__crt_stdio_output@@@2@@__crt_stdio_output@@AAE_N_N@Z 1004eb80 f i libucrtd:output.obj
 0001:0004dee0       ??$type_case_integer@$09@?$output_processor@_WV?$string_output_adapter@_W@__crt_stdio_output@@V?$format_validation_base@_WV?$string_output_adapter@_W@__crt_stdio_output@@@2@@__crt_stdio_output@@AAE_N_N@Z 1004eee0 f i libucrtd:output.obj
 0001:0004e240       ??$type_case_integer@$09@?$output_processor@_WV?$string_output_adapter@_W@__crt_stdio_output@@V?$positional_parameter_base@_WV?$string_output_adapter@_W@__crt_stdio_output@@@2@@__crt_stdio_output@@AAE_N_N@Z 1004f240 f i libucrtd:output.obj
 0001:0004e5a0       ??$type_case_integer@$09@?$output_processor@_WV?$string_output_adapter@_W@__crt_stdio_output@@V?$standard_base@_WV?$string_output_adapter@_W@__crt_stdio_output@@@2@@__crt_stdio_output@@AAE_N_N@Z 1004f5a0 f i libucrtd:output.obj
 0001:0004e900       ??$type_case_integer@$0BA@@?$output_processor@DV?$stream_output_adapter@D@__crt_stdio_output@@V?$format_validation_base@DV?$stream_output_adapter@D@__crt_stdio_output@@@2@@__crt_stdio_output@@AAE_N_N@Z 1004f900 f i libucrtd:output.obj
 0001:0004ec60       ??$type_case_integer@$0BA@@?$output_processor@DV?$stream_output_adapter@D@__crt_stdio_output@@V?$positional_parameter_base@DV?$stream_output_adapter@D@__crt_stdio_output@@@2@@__crt_stdio_output@@AAE_N_N@Z 1004fc60 f i libucrtd:output.obj
 0001:0004efc0       ??$type_case_integer@$0BA@@?$output_processor@DV?$stream_output_adapter@D@__crt_stdio_output@@V?$standard_base@DV?$stream_output_adapter@D@__crt_stdio_output@@@2@@__crt_stdio_output@@AAE_N_N@Z 1004ffc0 f i libucrtd:output.obj
 0001:0004f320       ??$type_case_integer@$0BA@@?$output_processor@DV?$string_output_adapter@D@__crt_stdio_output@@V?$format_validation_base@DV?$string_output_adapter@D@__crt_stdio_output@@@2@@__crt_stdio_output@@AAE_N_N@Z 10050320 f i libucrtd:output.obj
 0001:0004f680       ??$type_case_integer@$0BA@@?$output_processor@DV?$string_output_adapter@D@__crt_stdio_output@@V?$positional_parameter_base@DV?$string_output_adapter@D@__crt_stdio_output@@@2@@__crt_stdio_output@@AAE_N_N@Z 10050680 f i libucrtd:output.obj
 0001:0004f9e0       ??$type_case_integer@$0BA@@?$output_processor@DV?$string_output_adapter@D@__crt_stdio_output@@V?$standard_base@DV?$string_output_adapter@D@__crt_stdio_output@@@2@@__crt_stdio_output@@AAE_N_N@Z 100509e0 f i libucrtd:output.obj
 0001:0004fd40       ??$type_case_integer@$0BA@@?$output_processor@_WV?$stream_output_adapter@_W@__crt_stdio_output@@V?$format_validation_base@_WV?$stream_output_adapter@_W@__crt_stdio_output@@@2@@__crt_stdio_output@@AAE_N_N@Z 10050d40 f i libucrtd:output.obj
 0001:000500a0       ??$type_case_integer@$0BA@@?$output_processor@_WV?$stream_output_adapter@_W@__crt_stdio_output@@V?$positional_parameter_base@_WV?$stream_output_adapter@_W@__crt_stdio_output@@@2@@__crt_stdio_output@@AAE_N_N@Z 100510a0 f i libucrtd:output.obj
 0001:00050400       ??$type_case_integer@$0BA@@?$output_processor@_WV?$stream_output_adapter@_W@__crt_stdio_output@@V?$standard_base@_WV?$stream_output_adapter@_W@__crt_stdio_output@@@2@@__crt_stdio_output@@AAE_N_N@Z 10051400 f i libucrtd:output.obj
 0001:00050760       ??$type_case_integer@$0BA@@?$output_processor@_WV?$string_output_adapter@_W@__crt_stdio_output@@V?$format_validation_base@_WV?$string_output_adapter@_W@__crt_stdio_output@@@2@@__crt_stdio_output@@AAE_N_N@Z 10051760 f i libucrtd:output.obj
 0001:00050ac0       ??$type_case_integer@$0BA@@?$output_processor@_WV?$string_output_adapter@_W@__crt_stdio_output@@V?$positional_parameter_base@_WV?$string_output_adapter@_W@__crt_stdio_output@@@2@@__crt_stdio_output@@AAE_N_N@Z 10051ac0 f i libucrtd:output.obj
 0001:00050e20       ??$type_case_integer@$0BA@@?$output_processor@_WV?$string_output_adapter@_W@__crt_stdio_output@@V?$standard_base@_WV?$string_output_adapter@_W@__crt_stdio_output@@@2@@__crt_stdio_output@@AAE_N_N@Z 10051e20 f i libucrtd:output.obj
 0001:00051180       ??$type_case_integer_parse_into_buffer@I$07@?$output_processor@DV?$stream_output_adapter@D@__crt_stdio_output@@V?$format_validation_base@DV?$stream_output_adapter@D@__crt_stdio_output@@@2@@__crt_stdio_output@@AAEXI_N@Z 10052180 f i libucrtd:output.obj
 0001:00051250       ??$type_case_integer_parse_into_buffer@I$07@?$output_processor@DV?$stream_output_adapter@D@__crt_stdio_output@@V?$positional_parameter_base@DV?$stream_output_adapter@D@__crt_stdio_output@@@2@@__crt_stdio_output@@AAEXI_N@Z 10052250 f i libucrtd:output.obj
 0001:00051320       ??$type_case_integer_parse_into_buffer@I$07@?$output_processor@DV?$stream_output_adapter@D@__crt_stdio_output@@V?$standard_base@DV?$stream_output_adapter@D@__crt_stdio_output@@@2@@__crt_stdio_output@@AAEXI_N@Z 10052320 f i libucrtd:output.obj
 0001:000513f0       ??$type_case_integer_parse_into_buffer@I$07@?$output_processor@DV?$string_output_adapter@D@__crt_stdio_output@@V?$format_validation_base@DV?$string_output_adapter@D@__crt_stdio_output@@@2@@__crt_stdio_output@@AAEXI_N@Z 100523f0 f i libucrtd:output.obj
 0001:000514c0       ??$type_case_integer_parse_into_buffer@I$07@?$output_processor@DV?$string_output_adapter@D@__crt_stdio_output@@V?$positional_parameter_base@DV?$string_output_adapter@D@__crt_stdio_output@@@2@@__crt_stdio_output@@AAEXI_N@Z 100524c0 f i libucrtd:output.obj
 0001:00051590       ??$type_case_integer_parse_into_buffer@I$07@?$output_processor@DV?$string_output_adapter@D@__crt_stdio_output@@V?$standard_base@DV?$string_output_adapter@D@__crt_stdio_output@@@2@@__crt_stdio_output@@AAEXI_N@Z 10052590 f i libucrtd:output.obj
 0001:00051660       ??$type_case_integer_parse_into_buffer@I$07@?$output_processor@_WV?$stream_output_adapter@_W@__crt_stdio_output@@V?$format_validation_base@_WV?$stream_output_adapter@_W@__crt_stdio_output@@@2@@__crt_stdio_output@@AAEXI_N@Z 10052660 f i libucrtd:output.obj
 0001:00051740       ??$type_case_integer_parse_into_buffer@I$07@?$output_processor@_WV?$stream_output_adapter@_W@__crt_stdio_output@@V?$positional_parameter_base@_WV?$stream_output_adapter@_W@__crt_stdio_output@@@2@@__crt_stdio_output@@AAEXI_N@Z 10052740 f i libucrtd:output.obj
 0001:00051820       ??$type_case_integer_parse_into_buffer@I$07@?$output_processor@_WV?$stream_output_adapter@_W@__crt_stdio_output@@V?$standard_base@_WV?$stream_output_adapter@_W@__crt_stdio_output@@@2@@__crt_stdio_output@@AAEXI_N@Z 10052820 f i libucrtd:output.obj
 0001:00051900       ??$type_case_integer_parse_into_buffer@I$07@?$output_processor@_WV?$string_output_adapter@_W@__crt_stdio_output@@V?$format_validation_base@_WV?$string_output_adapter@_W@__crt_stdio_output@@@2@@__crt_stdio_output@@AAEXI_N@Z 10052900 f i libucrtd:output.obj
 0001:000519e0       ??$type_case_integer_parse_into_buffer@I$07@?$output_processor@_WV?$string_output_adapter@_W@__crt_stdio_output@@V?$positional_parameter_base@_WV?$string_output_adapter@_W@__crt_stdio_output@@@2@@__crt_stdio_output@@AAEXI_N@Z 100529e0 f i libucrtd:output.obj
 0001:00051ac0       ??$type_case_integer_parse_into_buffer@I$07@?$output_processor@_WV?$string_output_adapter@_W@__crt_stdio_output@@V?$standard_base@_WV?$string_output_adapter@_W@__crt_stdio_output@@@2@@__crt_stdio_output@@AAEXI_N@Z 10052ac0 f i libucrtd:output.obj
 0001:00051ba0       ??$type_case_integer_parse_into_buffer@I$09@?$output_processor@DV?$stream_output_adapter@D@__crt_stdio_output@@V?$format_validation_base@DV?$stream_output_adapter@D@__crt_stdio_output@@@2@@__crt_stdio_output@@AAEXI_N@Z 10052ba0 f i libucrtd:output.obj
 0001:00051c80       ??$type_case_integer_parse_into_buffer@I$09@?$output_processor@DV?$stream_output_adapter@D@__crt_stdio_output@@V?$positional_parameter_base@DV?$stream_output_adapter@D@__crt_stdio_output@@@2@@__crt_stdio_output@@AAEXI_N@Z 10052c80 f i libucrtd:output.obj
 0001:00051d60       ??$type_case_integer_parse_into_buffer@I$09@?$output_processor@DV?$stream_output_adapter@D@__crt_stdio_output@@V?$standard_base@DV?$stream_output_adapter@D@__crt_stdio_output@@@2@@__crt_stdio_output@@AAEXI_N@Z 10052d60 f i libucrtd:output.obj
 0001:00051e40       ??$type_case_integer_parse_into_buffer@I$09@?$output_processor@DV?$string_output_adapter@D@__crt_stdio_output@@V?$format_validation_base@DV?$string_output_adapter@D@__crt_stdio_output@@@2@@__crt_stdio_output@@AAEXI_N@Z 10052e40 f i libucrtd:output.obj
 0001:00051f20       ??$type_case_integer_parse_into_buffer@I$09@?$output_processor@DV?$string_output_adapter@D@__crt_stdio_output@@V?$positional_parameter_base@DV?$string_output_adapter@D@__crt_stdio_output@@@2@@__crt_stdio_output@@AAEXI_N@Z 10052f20 f i libucrtd:output.obj
 0001:00052000       ??$type_case_integer_parse_into_buffer@I$09@?$output_processor@DV?$string_output_adapter@D@__crt_stdio_output@@V?$standard_base@DV?$string_output_adapter@D@__crt_stdio_output@@@2@@__crt_stdio_output@@AAEXI_N@Z 10053000 f i libucrtd:output.obj
 0001:000520e0       ??$type_case_integer_parse_into_buffer@I$09@?$output_processor@_WV?$stream_output_adapter@_W@__crt_stdio_output@@V?$format_validation_base@_WV?$stream_output_adapter@_W@__crt_stdio_output@@@2@@__crt_stdio_output@@AAEXI_N@Z 100530e0 f i libucrtd:output.obj
 0001:000521d0       ??$type_case_integer_parse_into_buffer@I$09@?$output_processor@_WV?$stream_output_adapter@_W@__crt_stdio_output@@V?$positional_parameter_base@_WV?$stream_output_adapter@_W@__crt_stdio_output@@@2@@__crt_stdio_output@@AAEXI_N@Z 100531d0 f i libucrtd:output.obj
 0001:000522c0       ??$type_case_integer_parse_into_buffer@I$09@?$output_processor@_WV?$stream_output_adapter@_W@__crt_stdio_output@@V?$standard_base@_WV?$stream_output_adapter@_W@__crt_stdio_output@@@2@@__crt_stdio_output@@AAEXI_N@Z 100532c0 f i libucrtd:output.obj
 0001:000523b0       ??$type_case_integer_parse_into_buffer@I$09@?$output_processor@_WV?$string_output_adapter@_W@__crt_stdio_output@@V?$format_validation_base@_WV?$string_output_adapter@_W@__crt_stdio_output@@@2@@__crt_stdio_output@@AAEXI_N@Z 100533b0 f i libucrtd:output.obj
 0001:000524a0       ??$type_case_integer_parse_into_buffer@I$09@?$output_processor@_WV?$string_output_adapter@_W@__crt_stdio_output@@V?$positional_parameter_base@_WV?$string_output_adapter@_W@__crt_stdio_output@@@2@@__crt_stdio_output@@AAEXI_N@Z 100534a0 f i libucrtd:output.obj
 0001:00052590       ??$type_case_integer_parse_into_buffer@I$09@?$output_processor@_WV?$string_output_adapter@_W@__crt_stdio_output@@V?$standard_base@_WV?$string_output_adapter@_W@__crt_stdio_output@@@2@@__crt_stdio_output@@AAEXI_N@Z 10053590 f i libucrtd:output.obj
 0001:00052680       ??$type_case_integer_parse_into_buffer@I$0BA@@?$output_processor@DV?$stream_output_adapter@D@__crt_stdio_output@@V?$format_validation_base@DV?$stream_output_adapter@D@__crt_stdio_output@@@2@@__crt_stdio_output@@AAEXI_N@Z 10053680 f i libucrtd:output.obj
 0001:00052750       ??$type_case_integer_parse_into_buffer@I$0BA@@?$output_processor@DV?$stream_output_adapter@D@__crt_stdio_output@@V?$positional_parameter_base@DV?$stream_output_adapter@D@__crt_stdio_output@@@2@@__crt_stdio_output@@AAEXI_N@Z 10053750 f i libucrtd:output.obj
 0001:00052820       ??$type_case_integer_parse_into_buffer@I$0BA@@?$output_processor@DV?$stream_output_adapter@D@__crt_stdio_output@@V?$standard_base@DV?$stream_output_adapter@D@__crt_stdio_output@@@2@@__crt_stdio_output@@AAEXI_N@Z 10053820 f i libucrtd:output.obj
 0001:000528f0       ??$type_case_integer_parse_into_buffer@I$0BA@@?$output_processor@DV?$string_output_adapter@D@__crt_stdio_output@@V?$format_validation_base@DV?$string_output_adapter@D@__crt_stdio_output@@@2@@__crt_stdio_output@@AAEXI_N@Z 100538f0 f i libucrtd:output.obj
 0001:000529c0       ??$type_case_integer_parse_into_buffer@I$0BA@@?$output_processor@DV?$string_output_adapter@D@__crt_stdio_output@@V?$positional_parameter_base@DV?$string_output_adapter@D@__crt_stdio_output@@@2@@__crt_stdio_output@@AAEXI_N@Z 100539c0 f i libucrtd:output.obj
 0001:00052a90       ??$type_case_integer_parse_into_buffer@I$0BA@@?$output_processor@DV?$string_output_adapter@D@__crt_stdio_output@@V?$standard_base@DV?$string_output_adapter@D@__crt_stdio_output@@@2@@__crt_stdio_output@@AAEXI_N@Z 10053a90 f i libucrtd:output.obj
 0001:00052b60       ??$type_case_integer_parse_into_buffer@I$0BA@@?$output_processor@_WV?$stream_output_adapter@_W@__crt_stdio_output@@V?$format_validation_base@_WV?$stream_output_adapter@_W@__crt_stdio_output@@@2@@__crt_stdio_output@@AAEXI_N@Z 10053b60 f i libucrtd:output.obj
 0001:00052c40       ??$type_case_integer_parse_into_buffer@I$0BA@@?$output_processor@_WV?$stream_output_adapter@_W@__crt_stdio_output@@V?$positional_parameter_base@_WV?$stream_output_adapter@_W@__crt_stdio_output@@@2@@__crt_stdio_output@@AAEXI_N@Z 10053c40 f i libucrtd:output.obj
 0001:00052d20       ??$type_case_integer_parse_into_buffer@I$0BA@@?$output_processor@_WV?$stream_output_adapter@_W@__crt_stdio_output@@V?$standard_base@_WV?$stream_output_adapter@_W@__crt_stdio_output@@@2@@__crt_stdio_output@@AAEXI_N@Z 10053d20 f i libucrtd:output.obj
 0001:00052e00       ??$type_case_integer_parse_into_buffer@I$0BA@@?$output_processor@_WV?$string_output_adapter@_W@__crt_stdio_output@@V?$format_validation_base@_WV?$string_output_adapter@_W@__crt_stdio_output@@@2@@__crt_stdio_output@@AAEXI_N@Z 10053e00 f i libucrtd:output.obj
 0001:00052ee0       ??$type_case_integer_parse_into_buffer@I$0BA@@?$output_processor@_WV?$string_output_adapter@_W@__crt_stdio_output@@V?$positional_parameter_base@_WV?$string_output_adapter@_W@__crt_stdio_output@@@2@@__crt_stdio_output@@AAEXI_N@Z 10053ee0 f i libucrtd:output.obj
 0001:00052fc0       ??$type_case_integer_parse_into_buffer@I$0BA@@?$output_processor@_WV?$string_output_adapter@_W@__crt_stdio_output@@V?$standard_base@_WV?$string_output_adapter@_W@__crt_stdio_output@@@2@@__crt_stdio_output@@AAEXI_N@Z 10053fc0 f i libucrtd:output.obj
 0001:000530a0       ??$type_case_integer_parse_into_buffer@_K$07@?$output_processor@DV?$stream_output_adapter@D@__crt_stdio_output@@V?$format_validation_base@DV?$stream_output_adapter@D@__crt_stdio_output@@@2@@__crt_stdio_output@@AAEX_K_N@Z 100540a0 f i libucrtd:output.obj
 0001:00053190       ??$type_case_integer_parse_into_buffer@_K$07@?$output_processor@DV?$stream_output_adapter@D@__crt_stdio_output@@V?$positional_parameter_base@DV?$stream_output_adapter@D@__crt_stdio_output@@@2@@__crt_stdio_output@@AAEX_K_N@Z 10054190 f i libucrtd:output.obj
 0001:00053280       ??$type_case_integer_parse_into_buffer@_K$07@?$output_processor@DV?$stream_output_adapter@D@__crt_stdio_output@@V?$standard_base@DV?$stream_output_adapter@D@__crt_stdio_output@@@2@@__crt_stdio_output@@AAEX_K_N@Z 10054280 f i libucrtd:output.obj
 0001:00053370       ??$type_case_integer_parse_into_buffer@_K$07@?$output_processor@DV?$string_output_adapter@D@__crt_stdio_output@@V?$format_validation_base@DV?$string_output_adapter@D@__crt_stdio_output@@@2@@__crt_stdio_output@@AAEX_K_N@Z 10054370 f i libucrtd:output.obj
 0001:00053460       ??$type_case_integer_parse_into_buffer@_K$07@?$output_processor@DV?$string_output_adapter@D@__crt_stdio_output@@V?$positional_parameter_base@DV?$string_output_adapter@D@__crt_stdio_output@@@2@@__crt_stdio_output@@AAEX_K_N@Z 10054460 f i libucrtd:output.obj
 0001:00053550       ??$type_case_integer_parse_into_buffer@_K$07@?$output_processor@DV?$string_output_adapter@D@__crt_stdio_output@@V?$standard_base@DV?$string_output_adapter@D@__crt_stdio_output@@@2@@__crt_stdio_output@@AAEX_K_N@Z 10054550 f i libucrtd:output.obj
 0001:00053640       ??$type_case_integer_parse_into_buffer@_K$07@?$output_processor@_WV?$stream_output_adapter@_W@__crt_stdio_output@@V?$format_validation_base@_WV?$stream_output_adapter@_W@__crt_stdio_output@@@2@@__crt_stdio_output@@AAEX_K_N@Z 10054640 f i libucrtd:output.obj
 0001:00053740       ??$type_case_integer_parse_into_buffer@_K$07@?$output_processor@_WV?$stream_output_adapter@_W@__crt_stdio_output@@V?$positional_parameter_base@_WV?$stream_output_adapter@_W@__crt_stdio_output@@@2@@__crt_stdio_output@@AAEX_K_N@Z 10054740 f i libucrtd:output.obj
 0001:00053840       ??$type_case_integer_parse_into_buffer@_K$07@?$output_processor@_WV?$stream_output_adapter@_W@__crt_stdio_output@@V?$standard_base@_WV?$stream_output_adapter@_W@__crt_stdio_output@@@2@@__crt_stdio_output@@AAEX_K_N@Z 10054840 f i libucrtd:output.obj
 0001:00053940       ??$type_case_integer_parse_into_buffer@_K$07@?$output_processor@_WV?$string_output_adapter@_W@__crt_stdio_output@@V?$format_validation_base@_WV?$string_output_adapter@_W@__crt_stdio_output@@@2@@__crt_stdio_output@@AAEX_K_N@Z 10054940 f i libucrtd:output.obj
 0001:00053a40       ??$type_case_integer_parse_into_buffer@_K$07@?$output_processor@_WV?$string_output_adapter@_W@__crt_stdio_output@@V?$positional_parameter_base@_WV?$string_output_adapter@_W@__crt_stdio_output@@@2@@__crt_stdio_output@@AAEX_K_N@Z 10054a40 f i libucrtd:output.obj
 0001:00053b40       ??$type_case_integer_parse_into_buffer@_K$07@?$output_processor@_WV?$string_output_adapter@_W@__crt_stdio_output@@V?$standard_base@_WV?$string_output_adapter@_W@__crt_stdio_output@@@2@@__crt_stdio_output@@AAEX_K_N@Z 10054b40 f i libucrtd:output.obj
 0001:00053c40       ??$type_case_integer_parse_into_buffer@_K$09@?$output_processor@DV?$stream_output_adapter@D@__crt_stdio_output@@V?$format_validation_base@DV?$stream_output_adapter@D@__crt_stdio_output@@@2@@__crt_stdio_output@@AAEX_K_N@Z 10054c40 f i libucrtd:output.obj
 0001:00053d30       ??$type_case_integer_parse_into_buffer@_K$09@?$output_processor@DV?$stream_output_adapter@D@__crt_stdio_output@@V?$positional_parameter_base@DV?$stream_output_adapter@D@__crt_stdio_output@@@2@@__crt_stdio_output@@AAEX_K_N@Z 10054d30 f i libucrtd:output.obj
 0001:00053e20       ??$type_case_integer_parse_into_buffer@_K$09@?$output_processor@DV?$stream_output_adapter@D@__crt_stdio_output@@V?$standard_base@DV?$stream_output_adapter@D@__crt_stdio_output@@@2@@__crt_stdio_output@@AAEX_K_N@Z 10054e20 f i libucrtd:output.obj
 0001:00053f10       ??$type_case_integer_parse_into_buffer@_K$09@?$output_processor@DV?$string_output_adapter@D@__crt_stdio_output@@V?$format_validation_base@DV?$string_output_adapter@D@__crt_stdio_output@@@2@@__crt_stdio_output@@AAEX_K_N@Z 10054f10 f i libucrtd:output.obj
 0001:00054000       ??$type_case_integer_parse_into_buffer@_K$09@?$output_processor@DV?$string_output_adapter@D@__crt_stdio_output@@V?$positional_parameter_base@DV?$string_output_adapter@D@__crt_stdio_output@@@2@@__crt_stdio_output@@AAEX_K_N@Z 10055000 f i libucrtd:output.obj
 0001:000540f0       ??$type_case_integer_parse_into_buffer@_K$09@?$output_processor@DV?$string_output_adapter@D@__crt_stdio_output@@V?$standard_base@DV?$string_output_adapter@D@__crt_stdio_output@@@2@@__crt_stdio_output@@AAEX_K_N@Z 100550f0 f i libucrtd:output.obj
 0001:000541e0       ??$type_case_integer_parse_into_buffer@_K$09@?$output_processor@_WV?$stream_output_adapter@_W@__crt_stdio_output@@V?$format_validation_base@_WV?$stream_output_adapter@_W@__crt_stdio_output@@@2@@__crt_stdio_output@@AAEX_K_N@Z 100551e0 f i libucrtd:output.obj
 0001:000542e0       ??$type_case_integer_parse_into_buffer@_K$09@?$output_processor@_WV?$stream_output_adapter@_W@__crt_stdio_output@@V?$positional_parameter_base@_WV?$stream_output_adapter@_W@__crt_stdio_output@@@2@@__crt_stdio_output@@AAEX_K_N@Z 100552e0 f i libucrtd:output.obj
 0001:000543e0       ??$type_case_integer_parse_into_buffer@_K$09@?$output_processor@_WV?$stream_output_adapter@_W@__crt_stdio_output@@V?$standard_base@_WV?$stream_output_adapter@_W@__crt_stdio_output@@@2@@__crt_stdio_output@@AAEX_K_N@Z 100553e0 f i libucrtd:output.obj
 0001:000544e0       ??$type_case_integer_parse_into_buffer@_K$09@?$output_processor@_WV?$string_output_adapter@_W@__crt_stdio_output@@V?$format_validation_base@_WV?$string_output_adapter@_W@__crt_stdio_output@@@2@@__crt_stdio_output@@AAEX_K_N@Z 100554e0 f i libucrtd:output.obj
 0001:000545e0       ??$type_case_integer_parse_into_buffer@_K$09@?$output_processor@_WV?$string_output_adapter@_W@__crt_stdio_output@@V?$positional_parameter_base@_WV?$string_output_adapter@_W@__crt_stdio_output@@@2@@__crt_stdio_output@@AAEX_K_N@Z 100555e0 f i libucrtd:output.obj
 0001:000546e0       ??$type_case_integer_parse_into_buffer@_K$09@?$output_processor@_WV?$string_output_adapter@_W@__crt_stdio_output@@V?$standard_base@_WV?$string_output_adapter@_W@__crt_stdio_output@@@2@@__crt_stdio_output@@AAEX_K_N@Z 100556e0 f i libucrtd:output.obj
 0001:000547e0       ??$type_case_integer_parse_into_buffer@_K$0BA@@?$output_processor@DV?$stream_output_adapter@D@__crt_stdio_output@@V?$format_validation_base@DV?$stream_output_adapter@D@__crt_stdio_output@@@2@@__crt_stdio_output@@AAEX_K_N@Z 100557e0 f i libucrtd:output.obj
 0001:000548d0       ??$type_case_integer_parse_into_buffer@_K$0BA@@?$output_processor@DV?$stream_output_adapter@D@__crt_stdio_output@@V?$positional_parameter_base@DV?$stream_output_adapter@D@__crt_stdio_output@@@2@@__crt_stdio_output@@AAEX_K_N@Z 100558d0 f i libucrtd:output.obj
 0001:000549c0       ??$type_case_integer_parse_into_buffer@_K$0BA@@?$output_processor@DV?$stream_output_adapter@D@__crt_stdio_output@@V?$standard_base@DV?$stream_output_adapter@D@__crt_stdio_output@@@2@@__crt_stdio_output@@AAEX_K_N@Z 100559c0 f i libucrtd:output.obj
 0001:00054ab0       ??$type_case_integer_parse_into_buffer@_K$0BA@@?$output_processor@DV?$string_output_adapter@D@__crt_stdio_output@@V?$format_validation_base@DV?$string_output_adapter@D@__crt_stdio_output@@@2@@__crt_stdio_output@@AAEX_K_N@Z 10055ab0 f i libucrtd:output.obj
 0001:00054ba0       ??$type_case_integer_parse_into_buffer@_K$0BA@@?$output_processor@DV?$string_output_adapter@D@__crt_stdio_output@@V?$positional_parameter_base@DV?$string_output_adapter@D@__crt_stdio_output@@@2@@__crt_stdio_output@@AAEX_K_N@Z 10055ba0 f i libucrtd:output.obj
 0001:00054c90       ??$type_case_integer_parse_into_buffer@_K$0BA@@?$output_processor@DV?$string_output_adapter@D@__crt_stdio_output@@V?$standard_base@DV?$string_output_adapter@D@__crt_stdio_output@@@2@@__crt_stdio_output@@AAEX_K_N@Z 10055c90 f i libucrtd:output.obj
 0001:00054d80       ??$type_case_integer_parse_into_buffer@_K$0BA@@?$output_processor@_WV?$stream_output_adapter@_W@__crt_stdio_output@@V?$format_validation_base@_WV?$stream_output_adapter@_W@__crt_stdio_output@@@2@@__crt_stdio_output@@AAEX_K_N@Z 10055d80 f i libucrtd:output.obj
 0001:00054e80       ??$type_case_integer_parse_into_buffer@_K$0BA@@?$output_processor@_WV?$stream_output_adapter@_W@__crt_stdio_output@@V?$positional_parameter_base@_WV?$stream_output_adapter@_W@__crt_stdio_output@@@2@@__crt_stdio_output@@AAEX_K_N@Z 10055e80 f i libucrtd:output.obj
 0001:00054f80       ??$type_case_integer_parse_into_buffer@_K$0BA@@?$output_processor@_WV?$stream_output_adapter@_W@__crt_stdio_output@@V?$standard_base@_WV?$stream_output_adapter@_W@__crt_stdio_output@@@2@@__crt_stdio_output@@AAEX_K_N@Z 10055f80 f i libucrtd:output.obj
 0001:00055080       ??$type_case_integer_parse_into_buffer@_K$0BA@@?$output_processor@_WV?$string_output_adapter@_W@__crt_stdio_output@@V?$format_validation_base@_WV?$string_output_adapter@_W@__crt_stdio_output@@@2@@__crt_stdio_output@@AAEX_K_N@Z 10056080 f i libucrtd:output.obj
 0001:00055180       ??$type_case_integer_parse_into_buffer@_K$0BA@@?$output_processor@_WV?$string_output_adapter@_W@__crt_stdio_output@@V?$positional_parameter_base@_WV?$string_output_adapter@_W@__crt_stdio_output@@@2@@__crt_stdio_output@@AAEX_K_N@Z 10056180 f i libucrtd:output.obj
 0001:00055280       ??$type_case_integer_parse_into_buffer@_K$0BA@@?$output_processor@_WV?$string_output_adapter@_W@__crt_stdio_output@@V?$standard_base@_WV?$string_output_adapter@_W@__crt_stdio_output@@@2@@__crt_stdio_output@@AAEX_K_N@Z 10056280 f i libucrtd:output.obj
 0001:00055380       ??$write_multiple_characters@V?$stream_output_adapter@D@__crt_stdio_output@@D@__crt_stdio_output@@YAXABV?$stream_output_adapter@D@0@DHQAHAAV__crt_cached_ptd_host@@@Z 10056380 f i libucrtd:output.obj
 0001:000553d0       ??$write_multiple_characters@V?$stream_output_adapter@_W@__crt_stdio_output@@D@__crt_stdio_output@@YAXABV?$stream_output_adapter@_W@0@DHQAHAAV__crt_cached_ptd_host@@@Z 100563d0 f i libucrtd:output.obj
 0001:00055420       ??$write_multiple_characters@V?$string_output_adapter@D@__crt_stdio_output@@D@__crt_stdio_output@@YAXABV?$string_output_adapter@D@0@DHQAHAAV__crt_cached_ptd_host@@@Z 10056420 f i libucrtd:output.obj
 0001:00055470       ??$write_multiple_characters@V?$string_output_adapter@_W@__crt_stdio_output@@D@__crt_stdio_output@@YAXABV?$string_output_adapter@_W@0@DHQAHAAV__crt_cached_ptd_host@@@Z 10056470 f i libucrtd:output.obj
 0001:000557c0       ??0?$c_string_character_source@D@__crt_strtox@@QAE@QBDQAPBD@Z 100567c0 f i libucrtd:output.obj
 0001:00055800       ??0?$c_string_character_source@_W@__crt_strtox@@QAE@QB_WQAPB_W@Z 10056800 f i libucrtd:output.obj
 0001:00055840       ??0?$cached@H@__crt_cached_ptd_host@@QAE@XZ 10056840 f i libucrtd:output.obj
 0001:00055860       ??0?$cached@K@__crt_cached_ptd_host@@QAE@XZ 10056860 f i libucrtd:output.obj
 0001:00055880       ??0?$common_data@D@__crt_stdio_output@@IAE@AAV__crt_cached_ptd_host@@@Z 10056880 f i libucrtd:output.obj
 0001:00055920       ??0?$common_data@_W@__crt_stdio_output@@IAE@AAV__crt_cached_ptd_host@@@Z 10056920 f i libucrtd:output.obj
 0001:000559c0       ??0?$output_adapter_data@DV?$stream_output_adapter@D@__crt_stdio_output@@@__crt_stdio_output@@IAE@ABV?$stream_output_adapter@D@1@_KQBDAAV__crt_cached_ptd_host@@QAD@Z 100569c0 f i libucrtd:output.obj
 0001:00055a40       ??0?$output_adapter_data@DV?$string_output_adapter@D@__crt_stdio_output@@@__crt_stdio_output@@IAE@ABV?$string_output_adapter@D@1@_KQBDAAV__crt_cached_ptd_host@@QAD@Z 10056a40 f i libucrtd:output.obj
 0001:00055ac0       ??0?$output_adapter_data@_WV?$stream_output_adapter@_W@__crt_stdio_output@@@__crt_stdio_output@@IAE@ABV?$stream_output_adapter@_W@1@_KQB_WAAV__crt_cached_ptd_host@@QAD@Z 10056ac0 f i libucrtd:output.obj
 0001:00055b40       ??0?$output_adapter_data@_WV?$string_output_adapter@_W@__crt_stdio_output@@@__crt_stdio_output@@IAE@ABV?$string_output_adapter@_W@1@_KQB_WAAV__crt_cached_ptd_host@@QAD@Z 10056b40 f i libucrtd:output.obj
 0001:00055bc0       ??0?$output_processor@DV?$stream_output_adapter@D@__crt_stdio_output@@V?$format_validation_base@DV?$stream_output_adapter@D@__crt_stdio_output@@@2@@__crt_stdio_output@@QAE@ABV?$stream_output_adapter@D@1@_KQBDAAV__crt_cached_ptd_host@@QAD@Z 10056bc0 f i libucrtd:output.obj
 0001:00055bf0       ??0?$output_processor@DV?$stream_output_adapter@D@__crt_stdio_output@@V?$positional_parameter_base@DV?$stream_output_adapter@D@__crt_stdio_output@@@2@@__crt_stdio_output@@QAE@ABV?$stream_output_adapter@D@1@_KQBDAAV__crt_cached_ptd_host@@QAD@Z 10056bf0 f i libucrtd:output.obj
 0001:00055c20       ??0?$output_processor@DV?$stream_output_adapter@D@__crt_stdio_output@@V?$standard_base@DV?$stream_output_adapter@D@__crt_stdio_output@@@2@@__crt_stdio_output@@QAE@ABV?$stream_output_adapter@D@1@_KQBDAAV__crt_cached_ptd_host@@QAD@Z 10056c20 f i libucrtd:output.obj
 0001:00055c50       ??0?$output_processor@DV?$string_output_adapter@D@__crt_stdio_output@@V?$format_validation_base@DV?$string_output_adapter@D@__crt_stdio_output@@@2@@__crt_stdio_output@@QAE@ABV?$string_output_adapter@D@1@_KQBDAAV__crt_cached_ptd_host@@QAD@Z 10056c50 f i libucrtd:output.obj
 0001:00055c80       ??0?$output_processor@DV?$string_output_adapter@D@__crt_stdio_output@@V?$positional_parameter_base@DV?$string_output_adapter@D@__crt_stdio_output@@@2@@__crt_stdio_output@@QAE@ABV?$string_output_adapter@D@1@_KQBDAAV__crt_cached_ptd_host@@QAD@Z 10056c80 f i libucrtd:output.obj
 0001:00055cb0       ??0?$output_processor@DV?$string_output_adapter@D@__crt_stdio_output@@V?$standard_base@DV?$string_output_adapter@D@__crt_stdio_output@@@2@@__crt_stdio_output@@QAE@ABV?$string_output_adapter@D@1@_KQBDAAV__crt_cached_ptd_host@@QAD@Z 10056cb0 f i libucrtd:output.obj
 0001:00055ce0       ??0?$output_processor@_WV?$stream_output_adapter@_W@__crt_stdio_output@@V?$format_validation_base@_WV?$stream_output_adapter@_W@__crt_stdio_output@@@2@@__crt_stdio_output@@QAE@ABV?$stream_output_adapter@_W@1@_KQB_WAAV__crt_cached_ptd_host@@QAD@Z 10056ce0 f i libucrtd:output.obj
 0001:00055d10       ??0?$output_processor@_WV?$stream_output_adapter@_W@__crt_stdio_output@@V?$positional_parameter_base@_WV?$stream_output_adapter@_W@__crt_stdio_output@@@2@@__crt_stdio_output@@QAE@ABV?$stream_output_adapter@_W@1@_KQB_WAAV__crt_cached_ptd_host@@QAD@Z 10056d10 f i libucrtd:output.obj
 0001:00055d40       ??0?$output_processor@_WV?$stream_output_adapter@_W@__crt_stdio_output@@V?$standard_base@_WV?$stream_output_adapter@_W@__crt_stdio_output@@@2@@__crt_stdio_output@@QAE@ABV?$stream_output_adapter@_W@1@_KQB_WAAV__crt_cached_ptd_host@@QAD@Z 10056d40 f i libucrtd:output.obj
 0001:00055d70       ??0?$output_processor@_WV?$string_output_adapter@_W@__crt_stdio_output@@V?$format_validation_base@_WV?$string_output_adapter@_W@__crt_stdio_output@@@2@@__crt_stdio_output@@QAE@ABV?$string_output_adapter@_W@1@_KQB_WAAV__crt_cached_ptd_host@@QAD@Z 10056d70 f i libucrtd:output.obj
 0001:00055da0       ??0?$output_processor@_WV?$string_output_adapter@_W@__crt_stdio_output@@V?$positional_parameter_base@_WV?$string_output_adapter@_W@__crt_stdio_output@@@2@@__crt_stdio_output@@QAE@ABV?$string_output_adapter@_W@1@_KQB_WAAV__crt_cached_ptd_host@@QAD@Z 10056da0 f i libucrtd:output.obj
 0001:00055dd0       ??0?$output_processor@_WV?$string_output_adapter@_W@__crt_stdio_output@@V?$standard_base@_WV?$string_output_adapter@_W@__crt_stdio_output@@@2@@__crt_stdio_output@@QAE@ABV?$string_output_adapter@_W@1@_KQB_WAAV__crt_cached_ptd_host@@QAD@Z 10056dd0 f i libucrtd:output.obj
 0001:00055e00       ??0?$stream_output_adapter@D@__crt_stdio_output@@QAE@QAU_iobuf@@@Z 10056e00 f i libucrtd:output.obj
 0001:00055e30       ??0?$stream_output_adapter@_W@__crt_stdio_output@@QAE@QAU_iobuf@@@Z 10056e30 f i libucrtd:output.obj
 0001:00055e60       ??0?$string_output_adapter@D@__crt_stdio_output@@QAE@QAU?$string_output_adapter_context@D@1@@Z 10056e60 f i libucrtd:output.obj
 0001:00055e80       ??0?$string_output_adapter@_W@__crt_stdio_output@@QAE@QAU?$string_output_adapter_context@_W@1@@Z 10056e80 f i libucrtd:output.obj
 0001:00055ea0       ??0__acrt_stdio_temporary_buffering_guard@@QAE@QAU_iobuf@@AAV__crt_cached_ptd_host@@@Z 10056ea0 f i libucrtd:output.obj
 0001:00055ee0       ??0__crt_cached_ptd_host@@QAE@QAU__crt_locale_pointers@@@Z 10056ee0 f i libucrtd:output.obj
 0001:00055f70       ??0__crt_scoped_get_last_error_reset@@QAE@XZ 10056f70 f i libucrtd:output.obj
 0001:00055f90       ??0__crt_stdio_stream@@QAE@QAU_iobuf@@@Z 10056f90 f i libucrtd:output.obj
 0001:00055fb0       ??0formatting_buffer@__crt_stdio_output@@QAE@XZ 10056fb0 f i libucrtd:output.obj
 0001:00055ff0       ??0guard@?$cached@H@__crt_cached_ptd_host@@QAE@AAU12@@Z 10056ff0 f i libucrtd:output.obj
 0001:00056030       ??1?$c_string_character_source@D@__crt_strtox@@QAE@XZ 10057030 f i libucrtd:output.obj
 0001:00056060       ??1?$c_string_character_source@_W@__crt_strtox@@QAE@XZ 10057060 f i libucrtd:output.obj
 0001:00056090       ??1?$common_data@D@__crt_stdio_output@@QAE@XZ 10057090 f i libucrtd:output.obj
 0001:000560b0       ??1?$common_data@_W@__crt_stdio_output@@QAE@XZ 100570b0 f i libucrtd:output.obj
 0001:000560d0       ??1?$format_validation_base@DV?$stream_output_adapter@D@__crt_stdio_output@@@__crt_stdio_output@@QAE@XZ 100570d0 f i libucrtd:output.obj
 0001:000560f0       ??1?$format_validation_base@DV?$string_output_adapter@D@__crt_stdio_output@@@__crt_stdio_output@@QAE@XZ 100570f0 f i libucrtd:output.obj
 0001:00056110       ??1?$format_validation_base@_WV?$stream_output_adapter@_W@__crt_stdio_output@@@__crt_stdio_output@@QAE@XZ 10057110 f i libucrtd:output.obj
 0001:00056130       ??1?$format_validation_base@_WV?$string_output_adapter@_W@__crt_stdio_output@@@__crt_stdio_output@@QAE@XZ 10057130 f i libucrtd:output.obj
 0001:00056150       ??1?$output_adapter_data@DV?$stream_output_adapter@D@__crt_stdio_output@@@__crt_stdio_output@@QAE@XZ 10057150 f i libucrtd:output.obj
 0001:00056170       ??1?$output_adapter_data@DV?$string_output_adapter@D@__crt_stdio_output@@@__crt_stdio_output@@QAE@XZ 10057170 f i libucrtd:output.obj
 0001:00056190       ??1?$output_adapter_data@_WV?$stream_output_adapter@_W@__crt_stdio_output@@@__crt_stdio_output@@QAE@XZ 10057190 f i libucrtd:output.obj
 0001:000561b0       ??1?$output_adapter_data@_WV?$string_output_adapter@_W@__crt_stdio_output@@@__crt_stdio_output@@QAE@XZ 100571b0 f i libucrtd:output.obj
 0001:000561d0       ??1?$output_processor@DV?$stream_output_adapter@D@__crt_stdio_output@@V?$format_validation_base@DV?$stream_output_adapter@D@__crt_stdio_output@@@2@@__crt_stdio_output@@QAE@XZ 100571d0 f i libucrtd:output.obj
 0001:000561f0       ??1?$output_processor@DV?$stream_output_adapter@D@__crt_stdio_output@@V?$positional_parameter_base@DV?$stream_output_adapter@D@__crt_stdio_output@@@2@@__crt_stdio_output@@QAE@XZ 100571f0 f i libucrtd:output.obj
 0001:00056210       ??1?$output_processor@DV?$stream_output_adapter@D@__crt_stdio_output@@V?$standard_base@DV?$stream_output_adapter@D@__crt_stdio_output@@@2@@__crt_stdio_output@@QAE@XZ 10057210 f i libucrtd:output.obj
 0001:00056230       ??1?$output_processor@DV?$string_output_adapter@D@__crt_stdio_output@@V?$format_validation_base@DV?$string_output_adapter@D@__crt_stdio_output@@@2@@__crt_stdio_output@@QAE@XZ 10057230 f i libucrtd:output.obj
 0001:00056250       ??1?$output_processor@DV?$string_output_adapter@D@__crt_stdio_output@@V?$positional_parameter_base@DV?$string_output_adapter@D@__crt_stdio_output@@@2@@__crt_stdio_output@@QAE@XZ 10057250 f i libucrtd:output.obj
 0001:00056270       ??1?$output_processor@DV?$string_output_adapter@D@__crt_stdio_output@@V?$standard_base@DV?$string_output_adapter@D@__crt_stdio_output@@@2@@__crt_stdio_output@@QAE@XZ 10057270 f i libucrtd:output.obj
 0001:00056290       ??1?$output_processor@_WV?$stream_output_adapter@_W@__crt_stdio_output@@V?$format_validation_base@_WV?$stream_output_adapter@_W@__crt_stdio_output@@@2@@__crt_stdio_output@@QAE@XZ 10057290 f i libucrtd:output.obj
 0001:000562b0       ??1?$output_processor@_WV?$stream_output_adapter@_W@__crt_stdio_output@@V?$positional_parameter_base@_WV?$stream_output_adapter@_W@__crt_stdio_output@@@2@@__crt_stdio_output@@QAE@XZ 100572b0 f i libucrtd:output.obj
 0001:000562d0       ??1?$output_processor@_WV?$stream_output_adapter@_W@__crt_stdio_output@@V?$standard_base@_WV?$stream_output_adapter@_W@__crt_stdio_output@@@2@@__crt_stdio_output@@QAE@XZ 100572d0 f i libucrtd:output.obj
 0001:000562f0       ??1?$output_processor@_WV?$string_output_adapter@_W@__crt_stdio_output@@V?$format_validation_base@_WV?$string_output_adapter@_W@__crt_stdio_output@@@2@@__crt_stdio_output@@QAE@XZ 100572f0 f i libucrtd:output.obj
 0001:00056310       ??1?$output_processor@_WV?$string_output_adapter@_W@__crt_stdio_output@@V?$positional_parameter_base@_WV?$string_output_adapter@_W@__crt_stdio_output@@@2@@__crt_stdio_output@@QAE@XZ 10057310 f i libucrtd:output.obj
 0001:00056330       ??1?$output_processor@_WV?$string_output_adapter@_W@__crt_stdio_output@@V?$standard_base@_WV?$string_output_adapter@_W@__crt_stdio_output@@@2@@__crt_stdio_output@@QAE@XZ 10057330 f i libucrtd:output.obj
 0001:00056350       ??1?$positional_parameter_base@DV?$stream_output_adapter@D@__crt_stdio_output@@@__crt_stdio_output@@QAE@XZ 10057350 f i libucrtd:output.obj
 0001:00056370       ??1?$positional_parameter_base@DV?$string_output_adapter@D@__crt_stdio_output@@@__crt_stdio_output@@QAE@XZ 10057370 f i libucrtd:output.obj
 0001:00056390       ??1?$positional_parameter_base@_WV?$stream_output_adapter@_W@__crt_stdio_output@@@__crt_stdio_output@@QAE@XZ 10057390 f i libucrtd:output.obj
 0001:000563b0       ??1?$positional_parameter_base@_WV?$string_output_adapter@_W@__crt_stdio_output@@@__crt_stdio_output@@QAE@XZ 100573b0 f i libucrtd:output.obj
 0001:000563d0       ??1?$standard_base@DV?$stream_output_adapter@D@__crt_stdio_output@@@__crt_stdio_output@@QAE@XZ 100573d0 f i libucrtd:output.obj
 0001:000563f0       ??1?$standard_base@DV?$string_output_adapter@D@__crt_stdio_output@@@__crt_stdio_output@@QAE@XZ 100573f0 f i libucrtd:output.obj
 0001:00056410       ??1?$standard_base@_WV?$stream_output_adapter@_W@__crt_stdio_output@@@__crt_stdio_output@@QAE@XZ 10057410 f i libucrtd:output.obj
 0001:00056430       ??1?$standard_base@_WV?$string_output_adapter@_W@__crt_stdio_output@@@__crt_stdio_output@@QAE@XZ 10057430 f i libucrtd:output.obj
 0001:00056450       ??1__acrt_stdio_temporary_buffering_guard@@QAE@XZ 10057450 f i libucrtd:output.obj
 0001:00056480       ??1__crt_cached_ptd_host@@QAE@XZ 10057480 f i libucrtd:output.obj
 0001:00056510       ??1__crt_scoped_get_last_error_reset@@QAE@XZ 10057510 f i libucrtd:output.obj
 0001:00056530       ??1formatting_buffer@__crt_stdio_output@@QAE@XZ 10057530 f i libucrtd:output.obj
 0001:00056550       ??1guard@?$cached@H@__crt_cached_ptd_host@@QAE@XZ 10057550 f i libucrtd:output.obj
 0001:00056580       ??4?$__crt_unique_heap_ptr@DU__crt_internal_free_policy@@@@QAEAAV0@$$QAV0@@Z 10057580 f i libucrtd:output.obj
 0001:000565b0       ??A?$spectre_mitigated_lookup_table@Ustate_transition_pair@__crt_stdio_output@@$0IA@@__crt_stdio_output@@QBEABUstate_transition_pair@1@I@Z 100575b0 f i libucrtd:output.obj
 0001:000565d0       ??C__crt_stdio_stream@@QBEPAU__crt_stdio_stream_data@@XZ 100575d0 f i libucrtd:output.obj
 0001:00056e30       ?adjust_hexit@?$output_processor@DV?$stream_output_adapter@D@__crt_stdio_output@@V?$format_validation_base@DV?$stream_output_adapter@D@__crt_stdio_output@@@2@@__crt_stdio_output@@CADH_N@Z 10057e30 f i libucrtd:output.obj
 0001:00056e70       ?adjust_hexit@?$output_processor@DV?$stream_output_adapter@D@__crt_stdio_output@@V?$positional_parameter_base@DV?$stream_output_adapter@D@__crt_stdio_output@@@2@@__crt_stdio_output@@CADH_N@Z 10057e70 f i libucrtd:output.obj
 0001:00056eb0       ?adjust_hexit@?$output_processor@DV?$stream_output_adapter@D@__crt_stdio_output@@V?$standard_base@DV?$stream_output_adapter@D@__crt_stdio_output@@@2@@__crt_stdio_output@@CADH_N@Z 10057eb0 f i libucrtd:output.obj
 0001:00056ef0       ?adjust_hexit@?$output_processor@DV?$string_output_adapter@D@__crt_stdio_output@@V?$format_validation_base@DV?$string_output_adapter@D@__crt_stdio_output@@@2@@__crt_stdio_output@@CADH_N@Z 10057ef0 f i libucrtd:output.obj
 0001:00056f30       ?adjust_hexit@?$output_processor@DV?$string_output_adapter@D@__crt_stdio_output@@V?$positional_parameter_base@DV?$string_output_adapter@D@__crt_stdio_output@@@2@@__crt_stdio_output@@CADH_N@Z 10057f30 f i libucrtd:output.obj
 0001:00056f70       ?adjust_hexit@?$output_processor@DV?$string_output_adapter@D@__crt_stdio_output@@V?$standard_base@DV?$string_output_adapter@D@__crt_stdio_output@@@2@@__crt_stdio_output@@CADH_N@Z 10057f70 f i libucrtd:output.obj
 0001:00056fb0       ?adjust_hexit@?$output_processor@_WV?$stream_output_adapter@_W@__crt_stdio_output@@V?$format_validation_base@_WV?$stream_output_adapter@_W@__crt_stdio_output@@@2@@__crt_stdio_output@@CADH_N@Z 10057fb0 f i libucrtd:output.obj
 0001:00056ff0       ?adjust_hexit@?$output_processor@_WV?$stream_output_adapter@_W@__crt_stdio_output@@V?$positional_parameter_base@_WV?$stream_output_adapter@_W@__crt_stdio_output@@@2@@__crt_stdio_output@@CADH_N@Z 10057ff0 f i libucrtd:output.obj
 0001:00057030       ?adjust_hexit@?$output_processor@_WV?$stream_output_adapter@_W@__crt_stdio_output@@V?$standard_base@_WV?$stream_output_adapter@_W@__crt_stdio_output@@@2@@__crt_stdio_output@@CADH_N@Z 10058030 f i libucrtd:output.obj
 0001:00057070       ?adjust_hexit@?$output_processor@_WV?$string_output_adapter@_W@__crt_stdio_output@@V?$format_validation_base@_WV?$string_output_adapter@_W@__crt_stdio_output@@@2@@__crt_stdio_output@@CADH_N@Z 10058070 f i libucrtd:output.obj
 0001:000570b0       ?adjust_hexit@?$output_processor@_WV?$string_output_adapter@_W@__crt_stdio_output@@V?$positional_parameter_base@_WV?$string_output_adapter@_W@__crt_stdio_output@@@2@@__crt_stdio_output@@CADH_N@Z 100580b0 f i libucrtd:output.obj
 0001:000570f0       ?adjust_hexit@?$output_processor@_WV?$string_output_adapter@_W@__crt_stdio_output@@V?$standard_base@_WV?$string_output_adapter@_W@__crt_stdio_output@@@2@@__crt_stdio_output@@CADH_N@Z 100580f0 f i libucrtd:output.obj
 0001:00057130       ?advance_to_next_pass@?$positional_parameter_base@DV?$stream_output_adapter@D@__crt_stdio_output@@@__crt_stdio_output@@IAE_NXZ 10058130 f i libucrtd:output.obj
 0001:000571d0       ?advance_to_next_pass@?$positional_parameter_base@DV?$string_output_adapter@D@__crt_stdio_output@@@__crt_stdio_output@@IAE_NXZ 100581d0 f i libucrtd:output.obj
 0001:00057270       ?advance_to_next_pass@?$positional_parameter_base@_WV?$stream_output_adapter@_W@__crt_stdio_output@@@__crt_stdio_output@@IAE_NXZ 10058270 f i libucrtd:output.obj
 0001:00057310       ?advance_to_next_pass@?$positional_parameter_base@_WV?$string_output_adapter@_W@__crt_stdio_output@@@__crt_stdio_output@@IAE_NXZ 10058310 f i libucrtd:output.obj
 0001:000573b0       ?advance_to_next_pass@?$standard_base@DV?$stream_output_adapter@D@__crt_stdio_output@@@__crt_stdio_output@@IAE_NXZ 100583b0 f i libucrtd:output.obj
 0001:00057400       ?advance_to_next_pass@?$standard_base@DV?$string_output_adapter@D@__crt_stdio_output@@@__crt_stdio_output@@IAE_NXZ 10058400 f i libucrtd:output.obj
 0001:00057450       ?advance_to_next_pass@?$standard_base@_WV?$stream_output_adapter@_W@__crt_stdio_output@@@__crt_stdio_output@@IAE_NXZ 10058450 f i libucrtd:output.obj
 0001:000574a0       ?advance_to_next_pass@?$standard_base@_WV?$string_output_adapter@_W@__crt_stdio_output@@@__crt_stdio_output@@IAE_NXZ 100584a0 f i libucrtd:output.obj
 0001:000574f0       ?check@?$cached@H@__crt_cached_ptd_host@@QBE_NH@Z 100584f0 f i libucrtd:output.obj
 0001:00057530       ?check_synchronize_global_state_index@__crt_cached_ptd_host@@AAEIABV__crt_scoped_get_last_error_reset@@@Z 10058530 f i libucrtd:output.obj
 0001:00057560       ?check_synchronize_per_thread_data@__crt_cached_ptd_host@@AAEPAU__acrt_ptd@@XZ 10058560 f i libucrtd:output.obj
 0001:00057590       ?create_guard@?$cached@H@__crt_cached_ptd_host@@QAE?AVguard@12@XZ 10058590 f i libucrtd:output.obj
 0001:000575b0       ?crop_zeroes@__crt_stdio_output@@YAXPADQAU__crt_locale_pointers@@@Z 100585b0 f i libucrtd:output.obj
 0001:000576b0       ?disable@guard@?$cached@H@__crt_cached_ptd_host@@QAEXXZ 100586b0 f i libucrtd:output.obj
 0001:000576d0       ?enable@guard@?$cached@H@__crt_cached_ptd_host@@QAEXXZ 100586d0 f i libucrtd:output.obj
 0001:000576f0       ?find_next_state@?$output_processor@DV?$stream_output_adapter@D@__crt_stdio_output@@V?$format_validation_base@DV?$stream_output_adapter@D@__crt_stdio_output@@@2@@__crt_stdio_output@@ABE?AW4state@2@DW432@@Z 100586f0 f i libucrtd:output.obj
 0001:00057790       ?find_next_state@?$output_processor@DV?$stream_output_adapter@D@__crt_stdio_output@@V?$positional_parameter_base@DV?$stream_output_adapter@D@__crt_stdio_output@@@2@@__crt_stdio_output@@ABE?AW4state@2@DW432@@Z 10058790 f i libucrtd:output.obj
 0001:00057830       ?find_next_state@?$output_processor@DV?$stream_output_adapter@D@__crt_stdio_output@@V?$standard_base@DV?$stream_output_adapter@D@__crt_stdio_output@@@2@@__crt_stdio_output@@ABE?AW4state@2@DW432@@Z 10058830 f i libucrtd:output.obj
 0001:000578d0       ?find_next_state@?$output_processor@DV?$string_output_adapter@D@__crt_stdio_output@@V?$format_validation_base@DV?$string_output_adapter@D@__crt_stdio_output@@@2@@__crt_stdio_output@@ABE?AW4state@2@DW432@@Z 100588d0 f i libucrtd:output.obj
 0001:00057970       ?find_next_state@?$output_processor@DV?$string_output_adapter@D@__crt_stdio_output@@V?$positional_parameter_base@DV?$string_output_adapter@D@__crt_stdio_output@@@2@@__crt_stdio_output@@ABE?AW4state@2@DW432@@Z 10058970 f i libucrtd:output.obj
 0001:00057a10       ?find_next_state@?$output_processor@DV?$string_output_adapter@D@__crt_stdio_output@@V?$standard_base@DV?$string_output_adapter@D@__crt_stdio_output@@@2@@__crt_stdio_output@@ABE?AW4state@2@DW432@@Z 10058a10 f i libucrtd:output.obj
 0001:00057ab0       ?find_next_state@?$output_processor@_WV?$stream_output_adapter@_W@__crt_stdio_output@@V?$format_validation_base@_WV?$stream_output_adapter@_W@__crt_stdio_output@@@2@@__crt_stdio_output@@ABE?AW4state@2@_WW432@@Z 10058ab0 f i libucrtd:output.obj
 0001:00057b50       ?find_next_state@?$output_processor@_WV?$stream_output_adapter@_W@__crt_stdio_output@@V?$positional_parameter_base@_WV?$stream_output_adapter@_W@__crt_stdio_output@@@2@@__crt_stdio_output@@ABE?AW4state@2@_WW432@@Z 10058b50 f i libucrtd:output.obj
 0001:00057bf0       ?find_next_state@?$output_processor@_WV?$stream_output_adapter@_W@__crt_stdio_output@@V?$standard_base@_WV?$stream_output_adapter@_W@__crt_stdio_output@@@2@@__crt_stdio_output@@ABE?AW4state@2@_WW432@@Z 10058bf0 f i libucrtd:output.obj
 0001:00057c90       ?find_next_state@?$output_processor@_WV?$string_output_adapter@_W@__crt_stdio_output@@V?$format_validation_base@_WV?$string_output_adapter@_W@__crt_stdio_output@@@2@@__crt_stdio_output@@ABE?AW4state@2@_WW432@@Z 10058c90 f i libucrtd:output.obj
 0001:00057d30       ?find_next_state@?$output_processor@_WV?$string_output_adapter@_W@__crt_stdio_output@@V?$positional_parameter_base@_WV?$string_output_adapter@_W@__crt_stdio_output@@@2@@__crt_stdio_output@@ABE?AW4state@2@_WW432@@Z 10058d30 f i libucrtd:output.obj
 0001:00057dd0       ?find_next_state@?$output_processor@_WV?$string_output_adapter@_W@__crt_stdio_output@@V?$standard_base@_WV?$string_output_adapter@_W@__crt_stdio_output@@@2@@__crt_stdio_output@@ABE?AW4state@2@_WW432@@Z 10058dd0 f i libucrtd:output.obj
 0001:00057e70       ?force_decimal_point@__crt_stdio_output@@YAXPADQAU__crt_locale_pointers@@@Z 10058e70 f i libucrtd:output.obj
 0001:00057f40       ?force_synchronize_global_state_index@__crt_cached_ptd_host@@AAEIABV__crt_scoped_get_last_error_reset@@@Z 10058f40 f i libucrtd:output.obj
 0001:00057f70       ?force_synchronize_per_thread_data@__crt_cached_ptd_host@@AAEPAU__acrt_ptd@@XZ 10058f70 f i libucrtd:output.obj
 0001:00057fc0       ?get@?$c_string_character_source@D@__crt_strtox@@QAEDXZ 10058fc0 f i libucrtd:output.obj
 0001:00057ff0       ?get@?$c_string_character_source@_W@__crt_strtox@@QAE_WXZ 10058ff0 f i libucrtd:output.obj
 0001:00058020       ?get_current_state_index@__crt_state_management@@YAIABV__crt_scoped_get_last_error_reset@@@Z 10059020 f i libucrtd:output.obj
 0001:00058030       ?get_errno@__crt_cached_ptd_host@@QAEAAU?$cached@H@1@XZ 10059030 f i libucrtd:output.obj
 0001:00058050       ?get_flags@__crt_stdio_stream@@QBEJXZ 10059050 f i libucrtd:output.obj
 0001:00058070       ?get_locale@__crt_cached_ptd_host@@QAEPAU__crt_locale_pointers@@XZ 10059070 f i libucrtd:output.obj
 0001:00058090       ?get_parameter_type@?$positional_parameter_base@DV?$stream_output_adapter@D@__crt_stdio_output@@@__crt_stdio_output@@CA?AW4parameter_type@12@F@Z 10059090 f i libucrtd:output.obj
 0001:000580a0       ?get_parameter_type@?$positional_parameter_base@DV?$stream_output_adapter@D@__crt_stdio_output@@@__crt_stdio_output@@CA?AW4parameter_type@12@G@Z 100590a0 f i libucrtd:output.obj
 0001:000580b0       ?get_parameter_type@?$positional_parameter_base@DV?$stream_output_adapter@D@__crt_stdio_output@@@__crt_stdio_output@@CA?AW4parameter_type@12@H@Z 100590b0 f i libucrtd:output.obj
 0001:000580c0       ?get_parameter_type@?$positional_parameter_base@DV?$stream_output_adapter@D@__crt_stdio_output@@@__crt_stdio_output@@CA?AW4parameter_type@12@I@Z 100590c0 f i libucrtd:output.obj
 0001:000580d0       ?get_parameter_type@?$positional_parameter_base@DV?$stream_output_adapter@D@__crt_stdio_output@@@__crt_stdio_output@@CA?AW4parameter_type@12@U_CRT_DOUBLE@@@Z 100590d0 f i libucrtd:output.obj
 0001:000580e0       ?get_parameter_type@?$positional_parameter_base@DV?$stream_output_adapter@D@__crt_stdio_output@@@__crt_stdio_output@@CA?AW4parameter_type@12@_J@Z 100590e0 f i libucrtd:output.obj
 0001:000580f0       ?get_parameter_type@?$positional_parameter_base@DV?$stream_output_adapter@D@__crt_stdio_output@@@__crt_stdio_output@@CA?AW4parameter_type@12@_K@Z 100590f0 f i libucrtd:output.obj
 0001:00058100       ?get_parameter_type@?$positional_parameter_base@DV?$stream_output_adapter@D@__crt_stdio_output@@@__crt_stdio_output@@CA?AW4parameter_type@12@_W@Z 10059100 f i libucrtd:output.obj
 0001:00058110       ?get_parameter_type@?$positional_parameter_base@DV?$string_output_adapter@D@__crt_stdio_output@@@__crt_stdio_output@@CA?AW4parameter_type@12@F@Z 10059110 f i libucrtd:output.obj
 0001:00058120       ?get_parameter_type@?$positional_parameter_base@DV?$string_output_adapter@D@__crt_stdio_output@@@__crt_stdio_output@@CA?AW4parameter_type@12@G@Z 10059120 f i libucrtd:output.obj
 0001:00058130       ?get_parameter_type@?$positional_parameter_base@DV?$string_output_adapter@D@__crt_stdio_output@@@__crt_stdio_output@@CA?AW4parameter_type@12@H@Z 10059130 f i libucrtd:output.obj
 0001:00058140       ?get_parameter_type@?$positional_parameter_base@DV?$string_output_adapter@D@__crt_stdio_output@@@__crt_stdio_output@@CA?AW4parameter_type@12@I@Z 10059140 f i libucrtd:output.obj
 0001:00058150       ?get_parameter_type@?$positional_parameter_base@DV?$string_output_adapter@D@__crt_stdio_output@@@__crt_stdio_output@@CA?AW4parameter_type@12@U_CRT_DOUBLE@@@Z 10059150 f i libucrtd:output.obj
 0001:00058160       ?get_parameter_type@?$positional_parameter_base@DV?$string_output_adapter@D@__crt_stdio_output@@@__crt_stdio_output@@CA?AW4parameter_type@12@_J@Z 10059160 f i libucrtd:output.obj
 0001:00058170       ?get_parameter_type@?$positional_parameter_base@DV?$string_output_adapter@D@__crt_stdio_output@@@__crt_stdio_output@@CA?AW4parameter_type@12@_K@Z 10059170 f i libucrtd:output.obj
 0001:00058180       ?get_parameter_type@?$positional_parameter_base@DV?$string_output_adapter@D@__crt_stdio_output@@@__crt_stdio_output@@CA?AW4parameter_type@12@_W@Z 10059180 f i libucrtd:output.obj
 0001:00058190       ?get_parameter_type@?$positional_parameter_base@_WV?$stream_output_adapter@_W@__crt_stdio_output@@@__crt_stdio_output@@CA?AW4parameter_type@12@F@Z 10059190 f i libucrtd:output.obj
 0001:000581a0       ?get_parameter_type@?$positional_parameter_base@_WV?$stream_output_adapter@_W@__crt_stdio_output@@@__crt_stdio_output@@CA?AW4parameter_type@12@G@Z 100591a0 f i libucrtd:output.obj
 0001:000581b0       ?get_parameter_type@?$positional_parameter_base@_WV?$stream_output_adapter@_W@__crt_stdio_output@@@__crt_stdio_output@@CA?AW4parameter_type@12@H@Z 100591b0 f i libucrtd:output.obj
 0001:000581c0       ?get_parameter_type@?$positional_parameter_base@_WV?$stream_output_adapter@_W@__crt_stdio_output@@@__crt_stdio_output@@CA?AW4parameter_type@12@I@Z 100591c0 f i libucrtd:output.obj
 0001:000581d0       ?get_parameter_type@?$positional_parameter_base@_WV?$stream_output_adapter@_W@__crt_stdio_output@@@__crt_stdio_output@@CA?AW4parameter_type@12@U_CRT_DOUBLE@@@Z 100591d0 f i libucrtd:output.obj
 0001:000581e0       ?get_parameter_type@?$positional_parameter_base@_WV?$stream_output_adapter@_W@__crt_stdio_output@@@__crt_stdio_output@@CA?AW4parameter_type@12@_J@Z 100591e0 f i libucrtd:output.obj
 0001:000581f0       ?get_parameter_type@?$positional_parameter_base@_WV?$stream_output_adapter@_W@__crt_stdio_output@@@__crt_stdio_output@@CA?AW4parameter_type@12@_K@Z 100591f0 f i libucrtd:output.obj
 0001:00058200       ?get_parameter_type@?$positional_parameter_base@_WV?$stream_output_adapter@_W@__crt_stdio_output@@@__crt_stdio_output@@CA?AW4parameter_type@12@_W@Z 10059200 f i libucrtd:output.obj
 0001:00058210       ?get_parameter_type@?$positional_parameter_base@_WV?$string_output_adapter@_W@__crt_stdio_output@@@__crt_stdio_output@@CA?AW4parameter_type@12@F@Z 10059210 f i libucrtd:output.obj
 0001:00058220       ?get_parameter_type@?$positional_parameter_base@_WV?$string_output_adapter@_W@__crt_stdio_output@@@__crt_stdio_output@@CA?AW4parameter_type@12@G@Z 10059220 f i libucrtd:output.obj
 0001:00058230       ?get_parameter_type@?$positional_parameter_base@_WV?$string_output_adapter@_W@__crt_stdio_output@@@__crt_stdio_output@@CA?AW4parameter_type@12@H@Z 10059230 f i libucrtd:output.obj
 0001:00058240       ?get_parameter_type@?$positional_parameter_base@_WV?$string_output_adapter@_W@__crt_stdio_output@@@__crt_stdio_output@@CA?AW4parameter_type@12@I@Z 10059240 f i libucrtd:output.obj
 0001:00058250       ?get_parameter_type@?$positional_parameter_base@_WV?$string_output_adapter@_W@__crt_stdio_output@@@__crt_stdio_output@@CA?AW4parameter_type@12@U_CRT_DOUBLE@@@Z 10059250 f i libucrtd:output.obj
 0001:00058260       ?get_parameter_type@?$positional_parameter_base@_WV?$string_output_adapter@_W@__crt_stdio_output@@@__crt_stdio_output@@CA?AW4parameter_type@12@_J@Z 10059260 f i libucrtd:output.obj
 0001:00058270       ?get_parameter_type@?$positional_parameter_base@_WV?$string_output_adapter@_W@__crt_stdio_output@@@__crt_stdio_output@@CA?AW4parameter_type@12@_K@Z 10059270 f i libucrtd:output.obj
 0001:00058280       ?get_parameter_type@?$positional_parameter_base@_WV?$string_output_adapter@_W@__crt_stdio_output@@@__crt_stdio_output@@CA?AW4parameter_type@12@_W@Z 10059280 f i libucrtd:output.obj
 0001:00058290       ?get_raw_ptd@__crt_cached_ptd_host@@QAEPAU__acrt_ptd@@XZ 10059290 f i libucrtd:output.obj
 0001:000582b0       ?has_flag@?$output_processor@DV?$stream_output_adapter@D@__crt_stdio_output@@V?$format_validation_base@DV?$stream_output_adapter@D@__crt_stdio_output@@@2@@__crt_stdio_output@@ABE_NI@Z 100592b0 f i libucrtd:output.obj
 0001:000582e0       ?has_flag@?$output_processor@DV?$stream_output_adapter@D@__crt_stdio_output@@V?$positional_parameter_base@DV?$stream_output_adapter@D@__crt_stdio_output@@@2@@__crt_stdio_output@@ABE_NI@Z 100592e0 f i libucrtd:output.obj
 0001:00058310       ?has_flag@?$output_processor@DV?$stream_output_adapter@D@__crt_stdio_output@@V?$standard_base@DV?$stream_output_adapter@D@__crt_stdio_output@@@2@@__crt_stdio_output@@ABE_NI@Z 10059310 f i libucrtd:output.obj
 0001:00058340       ?has_flag@?$output_processor@DV?$string_output_adapter@D@__crt_stdio_output@@V?$format_validation_base@DV?$string_output_adapter@D@__crt_stdio_output@@@2@@__crt_stdio_output@@ABE_NI@Z 10059340 f i libucrtd:output.obj
 0001:00058370       ?has_flag@?$output_processor@DV?$string_output_adapter@D@__crt_stdio_output@@V?$positional_parameter_base@DV?$string_output_adapter@D@__crt_stdio_output@@@2@@__crt_stdio_output@@ABE_NI@Z 10059370 f i libucrtd:output.obj
 0001:000583a0       ?has_flag@?$output_processor@DV?$string_output_adapter@D@__crt_stdio_output@@V?$standard_base@DV?$string_output_adapter@D@__crt_stdio_output@@@2@@__crt_stdio_output@@ABE_NI@Z 100593a0 f i libucrtd:output.obj
 0001:000583d0       ?has_flag@?$output_processor@_WV?$stream_output_adapter@_W@__crt_stdio_output@@V?$format_validation_base@_WV?$stream_output_adapter@_W@__crt_stdio_output@@@2@@__crt_stdio_output@@ABE_NI@Z 100593d0 f i libucrtd:output.obj
 0001:00058400       ?has_flag@?$output_processor@_WV?$stream_output_adapter@_W@__crt_stdio_output@@V?$positional_parameter_base@_WV?$stream_output_adapter@_W@__crt_stdio_output@@@2@@__crt_stdio_output@@ABE_NI@Z 10059400 f i libucrtd:output.obj
 0001:00058430       ?has_flag@?$output_processor@_WV?$stream_output_adapter@_W@__crt_stdio_output@@V?$standard_base@_WV?$stream_output_adapter@_W@__crt_stdio_output@@@2@@__crt_stdio_output@@ABE_NI@Z 10059430 f i libucrtd:output.obj
 0001:00058460       ?has_flag@?$output_processor@_WV?$string_output_adapter@_W@__crt_stdio_output@@V?$format_validation_base@_WV?$string_output_adapter@_W@__crt_stdio_output@@@2@@__crt_stdio_output@@ABE_NI@Z 10059460 f i libucrtd:output.obj
 0001:00058490       ?has_flag@?$output_processor@_WV?$string_output_adapter@_W@__crt_stdio_output@@V?$positional_parameter_base@_WV?$string_output_adapter@_W@__crt_stdio_output@@@2@@__crt_stdio_output@@ABE_NI@Z 10059490 f i libucrtd:output.obj
 0001:000584c0       ?has_flag@?$output_processor@_WV?$string_output_adapter@_W@__crt_stdio_output@@V?$standard_base@_WV?$string_output_adapter@_W@__crt_stdio_output@@@2@@__crt_stdio_output@@ABE_NI@Z 100594c0 f i libucrtd:output.obj
 0001:000584f0       ?is_positional_parameter_reappearance_consistent@?$positional_parameter_base@DV?$stream_output_adapter@D@__crt_stdio_output@@@__crt_stdio_output@@AAE_NABUparameter_data@12@W4parameter_type@12@DW4length_modifier@2@@Z 100594f0 f i libucrtd:output.obj
 0001:00058720       ?is_positional_parameter_reappearance_consistent@?$positional_parameter_base@DV?$string_output_adapter@D@__crt_stdio_output@@@__crt_stdio_output@@AAE_NABUparameter_data@12@W4parameter_type@12@DW4length_modifier@2@@Z 10059720 f i libucrtd:output.obj
 0001:00058950       ?is_positional_parameter_reappearance_consistent@?$positional_parameter_base@_WV?$stream_output_adapter@_W@__crt_stdio_output@@@__crt_stdio_output@@AAE_NABUparameter_data@12@W4parameter_type@12@_WW4length_modifier@2@@Z 10059950 f i libucrtd:output.obj
 0001:00058b80       ?is_positional_parameter_reappearance_consistent@?$positional_parameter_base@_WV?$string_output_adapter@_W@__crt_stdio_output@@@__crt_stdio_output@@AAE_NABUparameter_data@12@W4parameter_type@12@_WW4length_modifier@2@@Z 10059b80 f i libucrtd:output.obj
 0001:00058db0       ?is_string_backed@__crt_stdio_stream@@QBE_NXZ 10059db0 f i libucrtd:output.obj
 0001:00058df0       ?maximum_signed_value@__crt_strtox@@YAJK@Z 10059df0 f i libucrtd:output.obj
 0001:00058e00       ?minimum_signed_value@__crt_strtox@@YAJK@Z 10059e00 f i libucrtd:output.obj
 0001:00058e10       ?narrow_null_string@?$output_processor@DV?$stream_output_adapter@D@__crt_stdio_output@@V?$format_validation_base@DV?$stream_output_adapter@D@__crt_stdio_output@@@2@@__crt_stdio_output@@CAPADXZ 10059e10 f i libucrtd:output.obj
 0001:00058e20       ?narrow_null_string@?$output_processor@DV?$stream_output_adapter@D@__crt_stdio_output@@V?$positional_parameter_base@DV?$stream_output_adapter@D@__crt_stdio_output@@@2@@__crt_stdio_output@@CAPADXZ 10059e20 f i libucrtd:output.obj
 0001:00058e30       ?narrow_null_string@?$output_processor@DV?$stream_output_adapter@D@__crt_stdio_output@@V?$standard_base@DV?$stream_output_adapter@D@__crt_stdio_output@@@2@@__crt_stdio_output@@CAPADXZ 10059e30 f i libucrtd:output.obj
 0001:00058e40       ?narrow_null_string@?$output_processor@DV?$string_output_adapter@D@__crt_stdio_output@@V?$format_validation_base@DV?$string_output_adapter@D@__crt_stdio_output@@@2@@__crt_stdio_output@@CAPADXZ 10059e40 f i libucrtd:output.obj
 0001:00058e50       ?narrow_null_string@?$output_processor@DV?$string_output_adapter@D@__crt_stdio_output@@V?$positional_parameter_base@DV?$string_output_adapter@D@__crt_stdio_output@@@2@@__crt_stdio_output@@CAPADXZ 10059e50 f i libucrtd:output.obj
 0001:00058e60       ?narrow_null_string@?$output_processor@DV?$string_output_adapter@D@__crt_stdio_output@@V?$standard_base@DV?$string_output_adapter@D@__crt_stdio_output@@@2@@__crt_stdio_output@@CAPADXZ 10059e60 f i libucrtd:output.obj
 0001:00058e70       ?narrow_null_string@?$output_processor@_WV?$stream_output_adapter@_W@__crt_stdio_output@@V?$format_validation_base@_WV?$stream_output_adapter@_W@__crt_stdio_output@@@2@@__crt_stdio_output@@CAPADXZ 10059e70 f i libucrtd:output.obj
 0001:00058e80       ?narrow_null_string@?$output_processor@_WV?$stream_output_adapter@_W@__crt_stdio_output@@V?$positional_parameter_base@_WV?$stream_output_adapter@_W@__crt_stdio_output@@@2@@__crt_stdio_output@@CAPADXZ 10059e80 f i libucrtd:output.obj
 0001:00058e90       ?narrow_null_string@?$output_processor@_WV?$stream_output_adapter@_W@__crt_stdio_output@@V?$standard_base@_WV?$stream_output_adapter@_W@__crt_stdio_output@@@2@@__crt_stdio_output@@CAPADXZ 10059e90 f i libucrtd:output.obj
 0001:00058ea0       ?narrow_null_string@?$output_processor@_WV?$string_output_adapter@_W@__crt_stdio_output@@V?$format_validation_base@_WV?$string_output_adapter@_W@__crt_stdio_output@@@2@@__crt_stdio_output@@CAPADXZ 10059ea0 f i libucrtd:output.obj
 0001:00058eb0       ?narrow_null_string@?$output_processor@_WV?$string_output_adapter@_W@__crt_stdio_output@@V?$positional_parameter_base@_WV?$string_output_adapter@_W@__crt_stdio_output@@@2@@__crt_stdio_output@@CAPADXZ 10059eb0 f i libucrtd:output.obj
 0001:00058ec0       ?narrow_null_string@?$output_processor@_WV?$string_output_adapter@_W@__crt_stdio_output@@V?$standard_base@_WV?$string_output_adapter@_W@__crt_stdio_output@@@2@@__crt_stdio_output@@CAPADXZ 10059ec0 f i libucrtd:output.obj
 0001:00058ed0       ?parse_digit@__crt_strtox@@YAID@Z 10059ed0 f i libucrtd:output.obj
 0001:00058f30       ?parse_digit@__crt_strtox@@YAI_W@Z 10059f30 f i libucrtd:output.obj
 0001:00058f80       ?parse_int_from_format_string@?$output_processor@DV?$stream_output_adapter@D@__crt_stdio_output@@V?$format_validation_base@DV?$stream_output_adapter@D@__crt_stdio_output@@@2@@__crt_stdio_output@@AAE_NQAH@Z 10059f80 f i libucrtd:output.obj
 0001:00059040       ?parse_int_from_format_string@?$output_processor@DV?$stream_output_adapter@D@__crt_stdio_output@@V?$positional_parameter_base@DV?$stream_output_adapter@D@__crt_stdio_output@@@2@@__crt_stdio_output@@AAE_NQAH@Z 1005a040 f i libucrtd:output.obj
 0001:00059100       ?parse_int_from_format_string@?$output_processor@DV?$stream_output_adapter@D@__crt_stdio_output@@V?$standard_base@DV?$stream_output_adapter@D@__crt_stdio_output@@@2@@__crt_stdio_output@@AAE_NQAH@Z 1005a100 f i libucrtd:output.obj
 0001:000591c0       ?parse_int_from_format_string@?$output_processor@DV?$string_output_adapter@D@__crt_stdio_output@@V?$format_validation_base@DV?$string_output_adapter@D@__crt_stdio_output@@@2@@__crt_stdio_output@@AAE_NQAH@Z 1005a1c0 f i libucrtd:output.obj
 0001:00059280       ?parse_int_from_format_string@?$output_processor@DV?$string_output_adapter@D@__crt_stdio_output@@V?$positional_parameter_base@DV?$string_output_adapter@D@__crt_stdio_output@@@2@@__crt_stdio_output@@AAE_NQAH@Z 1005a280 f i libucrtd:output.obj
 0001:00059340       ?parse_int_from_format_string@?$output_processor@DV?$string_output_adapter@D@__crt_stdio_output@@V?$standard_base@DV?$string_output_adapter@D@__crt_stdio_output@@@2@@__crt_stdio_output@@AAE_NQAH@Z 1005a340 f i libucrtd:output.obj
 0001:00059400       ?parse_int_from_format_string@?$output_processor@_WV?$stream_output_adapter@_W@__crt_stdio_output@@V?$format_validation_base@_WV?$stream_output_adapter@_W@__crt_stdio_output@@@2@@__crt_stdio_output@@AAE_NQAH@Z 1005a400 f i libucrtd:output.obj
 0001:000594c0       ?parse_int_from_format_string@?$output_processor@_WV?$stream_output_adapter@_W@__crt_stdio_output@@V?$positional_parameter_base@_WV?$stream_output_adapter@_W@__crt_stdio_output@@@2@@__crt_stdio_output@@AAE_NQAH@Z 1005a4c0 f i libucrtd:output.obj
 0001:00059580       ?parse_int_from_format_string@?$output_processor@_WV?$stream_output_adapter@_W@__crt_stdio_output@@V?$standard_base@_WV?$stream_output_adapter@_W@__crt_stdio_output@@@2@@__crt_stdio_output@@AAE_NQAH@Z 1005a580 f i libucrtd:output.obj
 0001:00059640       ?parse_int_from_format_string@?$output_processor@_WV?$string_output_adapter@_W@__crt_stdio_output@@V?$format_validation_base@_WV?$string_output_adapter@_W@__crt_stdio_output@@@2@@__crt_stdio_output@@AAE_NQAH@Z 1005a640 f i libucrtd:output.obj
 0001:00059700       ?parse_int_from_format_string@?$output_processor@_WV?$string_output_adapter@_W@__crt_stdio_output@@V?$positional_parameter_base@_WV?$string_output_adapter@_W@__crt_stdio_output@@@2@@__crt_stdio_output@@AAE_NQAH@Z 1005a700 f i libucrtd:output.obj
 0001:000597c0       ?parse_int_from_format_string@?$output_processor@_WV?$string_output_adapter@_W@__crt_stdio_output@@V?$standard_base@_WV?$string_output_adapter@_W@__crt_stdio_output@@@2@@__crt_stdio_output@@AAE_NQAH@Z 1005a7c0 f i libucrtd:output.obj
 0001:00059880       ?process@?$output_processor@DV?$stream_output_adapter@D@__crt_stdio_output@@V?$format_validation_base@DV?$stream_output_adapter@D@__crt_stdio_output@@@2@@__crt_stdio_output@@QAEHXZ 1005a880 f i libucrtd:output.obj
 0001:00059b60       ?process@?$output_processor@DV?$stream_output_adapter@D@__crt_stdio_output@@V?$positional_parameter_base@DV?$stream_output_adapter@D@__crt_stdio_output@@@2@@__crt_stdio_output@@QAEHXZ 1005ab60 f i libucrtd:output.obj
 0001:00059e40       ?process@?$output_processor@DV?$stream_output_adapter@D@__crt_stdio_output@@V?$standard_base@DV?$stream_output_adapter@D@__crt_stdio_output@@@2@@__crt_stdio_output@@QAEHXZ 1005ae40 f i libucrtd:output.obj
 0001:0005a120       ?process@?$output_processor@DV?$string_output_adapter@D@__crt_stdio_output@@V?$format_validation_base@DV?$string_output_adapter@D@__crt_stdio_output@@@2@@__crt_stdio_output@@QAEHXZ 1005b120 f i libucrtd:output.obj
 0001:0005a400       ?process@?$output_processor@DV?$string_output_adapter@D@__crt_stdio_output@@V?$positional_parameter_base@DV?$string_output_adapter@D@__crt_stdio_output@@@2@@__crt_stdio_output@@QAEHXZ 1005b400 f i libucrtd:output.obj
 0001:0005a6e0       ?process@?$output_processor@DV?$string_output_adapter@D@__crt_stdio_output@@V?$standard_base@DV?$string_output_adapter@D@__crt_stdio_output@@@2@@__crt_stdio_output@@QAEHXZ 1005b6e0 f i libucrtd:output.obj
 0001:0005a9c0       ?process@?$output_processor@_WV?$stream_output_adapter@_W@__crt_stdio_output@@V?$format_validation_base@_WV?$stream_output_adapter@_W@__crt_stdio_output@@@2@@__crt_stdio_output@@QAEHXZ 1005b9c0 f i libucrtd:output.obj
 0001:0005aca0       ?process@?$output_processor@_WV?$stream_output_adapter@_W@__crt_stdio_output@@V?$positional_parameter_base@_WV?$stream_output_adapter@_W@__crt_stdio_output@@@2@@__crt_stdio_output@@QAEHXZ 1005bca0 f i libucrtd:output.obj
 0001:0005af80       ?process@?$output_processor@_WV?$stream_output_adapter@_W@__crt_stdio_output@@V?$standard_base@_WV?$stream_output_adapter@_W@__crt_stdio_output@@@2@@__crt_stdio_output@@QAEHXZ 1005bf80 f i libucrtd:output.obj
 0001:0005b260       ?process@?$output_processor@_WV?$string_output_adapter@_W@__crt_stdio_output@@V?$format_validation_base@_WV?$string_output_adapter@_W@__crt_stdio_output@@@2@@__crt_stdio_output@@QAEHXZ 1005c260 f i libucrtd:output.obj
 0001:0005b540       ?process@?$output_processor@_WV?$string_output_adapter@_W@__crt_stdio_output@@V?$positional_parameter_base@_WV?$string_output_adapter@_W@__crt_stdio_output@@@2@@__crt_stdio_output@@QAEHXZ 1005c540 f i libucrtd:output.obj
 0001:0005b820       ?process@?$output_processor@_WV?$string_output_adapter@_W@__crt_stdio_output@@V?$standard_base@_WV?$string_output_adapter@_W@__crt_stdio_output@@@2@@__crt_stdio_output@@QAEHXZ 1005c820 f i libucrtd:output.obj
 0001:0005bb00       ?public_stream@__crt_stdio_stream@@QBEPAU_iobuf@@XZ 1005cb00 f i libucrtd:output.obj
 0001:0005bb20       ?restore_state@?$c_string_character_source@D@__crt_strtox@@QAE_NQBD@Z 1005cb20 f i libucrtd:output.obj
 0001:0005bb40       ?restore_state@?$c_string_character_source@_W@__crt_strtox@@QAE_NQB_W@Z 1005cb40 f i libucrtd:output.obj
 0001:0005bb60       ?save_state@?$c_string_character_source@D@__crt_strtox@@QBEPBDXZ 1005cb60 f i libucrtd:output.obj
 0001:0005bb80       ?save_state@?$c_string_character_source@_W@__crt_strtox@@QBEPB_WXZ 1005cb80 f i libucrtd:output.obj
 0001:0005bba0       ?set@?$cached@H@__crt_cached_ptd_host@@QAEHH@Z 1005cba0 f i libucrtd:output.obj
 0001:0005bbd0       ?set_flag@?$output_processor@DV?$stream_output_adapter@D@__crt_stdio_output@@V?$format_validation_base@DV?$stream_output_adapter@D@__crt_stdio_output@@@2@@__crt_stdio_output@@AAEXI@Z 1005cbd0 f i libucrtd:output.obj
 0001:0005bbf0       ?set_flag@?$output_processor@DV?$stream_output_adapter@D@__crt_stdio_output@@V?$positional_parameter_base@DV?$stream_output_adapter@D@__crt_stdio_output@@@2@@__crt_stdio_output@@AAEXI@Z 1005cbf0 f i libucrtd:output.obj
 0001:0005bc10       ?set_flag@?$output_processor@DV?$stream_output_adapter@D@__crt_stdio_output@@V?$standard_base@DV?$stream_output_adapter@D@__crt_stdio_output@@@2@@__crt_stdio_output@@AAEXI@Z 1005cc10 f i libucrtd:output.obj
 0001:0005bc30       ?set_flag@?$output_processor@DV?$string_output_adapter@D@__crt_stdio_output@@V?$format_validation_base@DV?$string_output_adapter@D@__crt_stdio_output@@@2@@__crt_stdio_output@@AAEXI@Z 1005cc30 f i libucrtd:output.obj
 0001:0005bc50       ?set_flag@?$output_processor@DV?$string_output_adapter@D@__crt_stdio_output@@V?$positional_parameter_base@DV?$string_output_adapter@D@__crt_stdio_output@@@2@@__crt_stdio_output@@AAEXI@Z 1005cc50 f i libucrtd:output.obj
 0001:0005bc70       ?set_flag@?$output_processor@DV?$string_output_adapter@D@__crt_stdio_output@@V?$standard_base@DV?$string_output_adapter@D@__crt_stdio_output@@@2@@__crt_stdio_output@@AAEXI@Z 1005cc70 f i libucrtd:output.obj
 0001:0005bc90       ?set_flag@?$output_processor@_WV?$stream_output_adapter@_W@__crt_stdio_output@@V?$format_validation_base@_WV?$stream_output_adapter@_W@__crt_stdio_output@@@2@@__crt_stdio_output@@AAEXI@Z 1005cc90 f i libucrtd:output.obj
 0001:0005bcb0       ?set_flag@?$output_processor@_WV?$stream_output_adapter@_W@__crt_stdio_output@@V?$positional_parameter_base@_WV?$stream_output_adapter@_W@__crt_stdio_output@@@2@@__crt_stdio_output@@AAEXI@Z 1005ccb0 f i libucrtd:output.obj
 0001:0005bcd0       ?set_flag@?$output_processor@_WV?$stream_output_adapter@_W@__crt_stdio_output@@V?$standard_base@_WV?$stream_output_adapter@_W@__crt_stdio_output@@@2@@__crt_stdio_output@@AAEXI@Z 1005ccd0 f i libucrtd:output.obj
 0001:0005bcf0       ?set_flag@?$output_processor@_WV?$string_output_adapter@_W@__crt_stdio_output@@V?$format_validation_base@_WV?$string_output_adapter@_W@__crt_stdio_output@@@2@@__crt_stdio_output@@AAEXI@Z 1005ccf0 f i libucrtd:output.obj
 0001:0005bd10       ?set_flag@?$output_processor@_WV?$string_output_adapter@_W@__crt_stdio_output@@V?$positional_parameter_base@_WV?$string_output_adapter@_W@__crt_stdio_output@@@2@@__crt_stdio_output@@AAEXI@Z 1005cd10 f i libucrtd:output.obj
 0001:0005bd30       ?set_flag@?$output_processor@_WV?$string_output_adapter@_W@__crt_stdio_output@@V?$standard_base@_WV?$string_output_adapter@_W@__crt_stdio_output@@@2@@__crt_stdio_output@@AAEXI@Z 1005cd30 f i libucrtd:output.obj
 0001:0005bd50       ?should_format@?$positional_parameter_base@DV?$stream_output_adapter@D@__crt_stdio_output@@@__crt_stdio_output@@IAE_NXZ 1005cd50 f i libucrtd:output.obj
 0001:0005bd90       ?should_format@?$positional_parameter_base@DV?$string_output_adapter@D@__crt_stdio_output@@@__crt_stdio_output@@IAE_NXZ 1005cd90 f i libucrtd:output.obj
 0001:0005bdd0       ?should_format@?$positional_parameter_base@_WV?$stream_output_adapter@_W@__crt_stdio_output@@@__crt_stdio_output@@IAE_NXZ 1005cdd0 f i libucrtd:output.obj
 0001:0005be10       ?should_format@?$positional_parameter_base@_WV?$string_output_adapter@_W@__crt_stdio_output@@@__crt_stdio_output@@IAE_NXZ 1005ce10 f i libucrtd:output.obj
 0001:0005be50       ?should_format@?$standard_base@DV?$stream_output_adapter@D@__crt_stdio_output@@@__crt_stdio_output@@IAE_NXZ 1005ce50 f i libucrtd:output.obj
 0001:0005be60       ?should_format@?$standard_base@DV?$string_output_adapter@D@__crt_stdio_output@@@__crt_stdio_output@@IAE_NXZ 1005ce60 f i libucrtd:output.obj
 0001:0005be70       ?should_format@?$standard_base@_WV?$stream_output_adapter@_W@__crt_stdio_output@@@__crt_stdio_output@@IAE_NXZ 1005ce70 f i libucrtd:output.obj
 0001:0005be80       ?should_format@?$standard_base@_WV?$string_output_adapter@_W@__crt_stdio_output@@@__crt_stdio_output@@IAE_NXZ 1005ce80 f i libucrtd:output.obj
 0001:0005be90       ?should_skip_normal_state_processing@?$positional_parameter_base@DV?$stream_output_adapter@D@__crt_stdio_output@@@__crt_stdio_output@@IAE_NXZ 1005ce90 f i libucrtd:output.obj
 0001:0005bee0       ?should_skip_normal_state_processing@?$positional_parameter_base@DV?$string_output_adapter@D@__crt_stdio_output@@@__crt_stdio_output@@IAE_NXZ 1005cee0 f i libucrtd:output.obj
 0001:0005bf30       ?should_skip_normal_state_processing@?$positional_parameter_base@_WV?$stream_output_adapter@_W@__crt_stdio_output@@@__crt_stdio_output@@IAE_NXZ 1005cf30 f i libucrtd:output.obj
 0001:0005bf80       ?should_skip_normal_state_processing@?$positional_parameter_base@_WV?$string_output_adapter@_W@__crt_stdio_output@@@__crt_stdio_output@@IAE_NXZ 1005cf80 f i libucrtd:output.obj
 0001:0005bfd0       ?should_skip_normal_state_processing@?$standard_base@DV?$stream_output_adapter@D@__crt_stdio_output@@@__crt_stdio_output@@IAE_NXZ 1005cfd0 f i libucrtd:output.obj
 0001:0005bfe0       ?should_skip_normal_state_processing@?$standard_base@DV?$string_output_adapter@D@__crt_stdio_output@@@__crt_stdio_output@@IAE_NXZ 1005cfe0 f i libucrtd:output.obj
 0001:0005bff0       ?should_skip_normal_state_processing@?$standard_base@_WV?$stream_output_adapter@_W@__crt_stdio_output@@@__crt_stdio_output@@IAE_NXZ 1005cff0 f i libucrtd:output.obj
 0001:0005c000       ?should_skip_normal_state_processing@?$standard_base@_WV?$string_output_adapter@_W@__crt_stdio_output@@@__crt_stdio_output@@IAE_NXZ 1005d000 f i libucrtd:output.obj
 0001:0005c010       ?should_skip_type_state_output@?$positional_parameter_base@DV?$stream_output_adapter@D@__crt_stdio_output@@@__crt_stdio_output@@IBE_NXZ 1005d010 f i libucrtd:output.obj
 0001:0005c050       ?should_skip_type_state_output@?$positional_parameter_base@DV?$string_output_adapter@D@__crt_stdio_output@@@__crt_stdio_output@@IBE_NXZ 1005d050 f i libucrtd:output.obj
 0001:0005c090       ?should_skip_type_state_output@?$positional_parameter_base@_WV?$stream_output_adapter@_W@__crt_stdio_output@@@__crt_stdio_output@@IBE_NXZ 1005d090 f i libucrtd:output.obj
 0001:0005c0d0       ?should_skip_type_state_output@?$positional_parameter_base@_WV?$string_output_adapter@_W@__crt_stdio_output@@@__crt_stdio_output@@IBE_NXZ 1005d0d0 f i libucrtd:output.obj
 0001:0005c110       ?should_skip_type_state_output@?$standard_base@DV?$stream_output_adapter@D@__crt_stdio_output@@@__crt_stdio_output@@IBE_NXZ 1005d110 f i libucrtd:output.obj
 0001:0005c120       ?should_skip_type_state_output@?$standard_base@DV?$string_output_adapter@D@__crt_stdio_output@@@__crt_stdio_output@@IBE_NXZ 1005d120 f i libucrtd:output.obj
 0001:0005c130       ?should_skip_type_state_output@?$standard_base@_WV?$stream_output_adapter@_W@__crt_stdio_output@@@__crt_stdio_output@@IBE_NXZ 1005d130 f i libucrtd:output.obj
 0001:0005c140       ?should_skip_type_state_output@?$standard_base@_WV?$string_output_adapter@_W@__crt_stdio_output@@@__crt_stdio_output@@IBE_NXZ 1005d140 f i libucrtd:output.obj
 0001:0005c150       ?state_case_dot@?$output_processor@DV?$stream_output_adapter@D@__crt_stdio_output@@V?$format_validation_base@DV?$stream_output_adapter@D@__crt_stdio_output@@@2@@__crt_stdio_output@@AAE_NXZ 1005d150 f i libucrtd:output.obj
 0001:0005c170       ?state_case_dot@?$output_processor@DV?$stream_output_adapter@D@__crt_stdio_output@@V?$positional_parameter_base@DV?$stream_output_adapter@D@__crt_stdio_output@@@2@@__crt_stdio_output@@AAE_NXZ 1005d170 f i libucrtd:output.obj
 0001:0005c190       ?state_case_dot@?$output_processor@DV?$stream_output_adapter@D@__crt_stdio_output@@V?$standard_base@DV?$stream_output_adapter@D@__crt_stdio_output@@@2@@__crt_stdio_output@@AAE_NXZ 1005d190 f i libucrtd:output.obj
 0001:0005c1b0       ?state_case_dot@?$output_processor@DV?$string_output_adapter@D@__crt_stdio_output@@V?$format_validation_base@DV?$string_output_adapter@D@__crt_stdio_output@@@2@@__crt_stdio_output@@AAE_NXZ 1005d1b0 f i libucrtd:output.obj
 0001:0005c1d0       ?state_case_dot@?$output_processor@DV?$string_output_adapter@D@__crt_stdio_output@@V?$positional_parameter_base@DV?$string_output_adapter@D@__crt_stdio_output@@@2@@__crt_stdio_output@@AAE_NXZ 1005d1d0 f i libucrtd:output.obj
 0001:0005c1f0       ?state_case_dot@?$output_processor@DV?$string_output_adapter@D@__crt_stdio_output@@V?$standard_base@DV?$string_output_adapter@D@__crt_stdio_output@@@2@@__crt_stdio_output@@AAE_NXZ 1005d1f0 f i libucrtd:output.obj
 0001:0005c210       ?state_case_dot@?$output_processor@_WV?$stream_output_adapter@_W@__crt_stdio_output@@V?$format_validation_base@_WV?$stream_output_adapter@_W@__crt_stdio_output@@@2@@__crt_stdio_output@@AAE_NXZ 1005d210 f i libucrtd:output.obj
 0001:0005c230       ?state_case_dot@?$output_processor@_WV?$stream_output_adapter@_W@__crt_stdio_output@@V?$positional_parameter_base@_WV?$stream_output_adapter@_W@__crt_stdio_output@@@2@@__crt_stdio_output@@AAE_NXZ 1005d230 f i libucrtd:output.obj
 0001:0005c250       ?state_case_dot@?$output_processor@_WV?$stream_output_adapter@_W@__crt_stdio_output@@V?$standard_base@_WV?$stream_output_adapter@_W@__crt_stdio_output@@@2@@__crt_stdio_output@@AAE_NXZ 1005d250 f i libucrtd:output.obj
 0001:0005c270       ?state_case_dot@?$output_processor@_WV?$string_output_adapter@_W@__crt_stdio_output@@V?$format_validation_base@_WV?$string_output_adapter@_W@__crt_stdio_output@@@2@@__crt_stdio_output@@AAE_NXZ 1005d270 f i libucrtd:output.obj
 0001:0005c290       ?state_case_dot@?$output_processor@_WV?$string_output_adapter@_W@__crt_stdio_output@@V?$positional_parameter_base@_WV?$string_output_adapter@_W@__crt_stdio_output@@@2@@__crt_stdio_output@@AAE_NXZ 1005d290 f i libucrtd:output.obj
 0001:0005c2b0       ?state_case_dot@?$output_processor@_WV?$string_output_adapter@_W@__crt_stdio_output@@V?$standard_base@_WV?$string_output_adapter@_W@__crt_stdio_output@@@2@@__crt_stdio_output@@AAE_NXZ 1005d2b0 f i libucrtd:output.obj
 0001:0005c2d0       ?state_case_flag@?$output_processor@DV?$stream_output_adapter@D@__crt_stdio_output@@V?$format_validation_base@DV?$stream_output_adapter@D@__crt_stdio_output@@@2@@__crt_stdio_output@@AAE_NXZ 1005d2d0 f i libucrtd:output.obj
 0001:0005c380       ?state_case_flag@?$output_processor@DV?$stream_output_adapter@D@__crt_stdio_output@@V?$positional_parameter_base@DV?$stream_output_adapter@D@__crt_stdio_output@@@2@@__crt_stdio_output@@AAE_NXZ 1005d380 f i libucrtd:output.obj
 0001:0005c430       ?state_case_flag@?$output_processor@DV?$stream_output_adapter@D@__crt_stdio_output@@V?$standard_base@DV?$stream_output_adapter@D@__crt_stdio_output@@@2@@__crt_stdio_output@@AAE_NXZ 1005d430 f i libucrtd:output.obj
 0001:0005c4e0       ?state_case_flag@?$output_processor@DV?$string_output_adapter@D@__crt_stdio_output@@V?$format_validation_base@DV?$string_output_adapter@D@__crt_stdio_output@@@2@@__crt_stdio_output@@AAE_NXZ 1005d4e0 f i libucrtd:output.obj
 0001:0005c590       ?state_case_flag@?$output_processor@DV?$string_output_adapter@D@__crt_stdio_output@@V?$positional_parameter_base@DV?$string_output_adapter@D@__crt_stdio_output@@@2@@__crt_stdio_output@@AAE_NXZ 1005d590 f i libucrtd:output.obj
 0001:0005c640       ?state_case_flag@?$output_processor@DV?$string_output_adapter@D@__crt_stdio_output@@V?$standard_base@DV?$string_output_adapter@D@__crt_stdio_output@@@2@@__crt_stdio_output@@AAE_NXZ 1005d640 f i libucrtd:output.obj
 0001:0005c6f0       ?state_case_flag@?$output_processor@_WV?$stream_output_adapter@_W@__crt_stdio_output@@V?$format_validation_base@_WV?$stream_output_adapter@_W@__crt_stdio_output@@@2@@__crt_stdio_output@@AAE_NXZ 1005d6f0 f i libucrtd:output.obj
 0001:0005c7a0       ?state_case_flag@?$output_processor@_WV?$stream_output_adapter@_W@__crt_stdio_output@@V?$positional_parameter_base@_WV?$stream_output_adapter@_W@__crt_stdio_output@@@2@@__crt_stdio_output@@AAE_NXZ 1005d7a0 f i libucrtd:output.obj
 0001:0005c850       ?state_case_flag@?$output_processor@_WV?$stream_output_adapter@_W@__crt_stdio_output@@V?$standard_base@_WV?$stream_output_adapter@_W@__crt_stdio_output@@@2@@__crt_stdio_output@@AAE_NXZ 1005d850 f i libucrtd:output.obj
 0001:0005c900       ?state_case_flag@?$output_processor@_WV?$string_output_adapter@_W@__crt_stdio_output@@V?$format_validation_base@_WV?$string_output_adapter@_W@__crt_stdio_output@@@2@@__crt_stdio_output@@AAE_NXZ 1005d900 f i libucrtd:output.obj
 0001:0005c9b0       ?state_case_flag@?$output_processor@_WV?$string_output_adapter@_W@__crt_stdio_output@@V?$positional_parameter_base@_WV?$string_output_adapter@_W@__crt_stdio_output@@@2@@__crt_stdio_output@@AAE_NXZ 1005d9b0 f i libucrtd:output.obj
 0001:0005ca60       ?state_case_flag@?$output_processor@_WV?$string_output_adapter@_W@__crt_stdio_output@@V?$standard_base@_WV?$string_output_adapter@_W@__crt_stdio_output@@@2@@__crt_stdio_output@@AAE_NXZ 1005da60 f i libucrtd:output.obj
 0001:0005cb10       ?state_case_normal@?$output_processor@DV?$stream_output_adapter@D@__crt_stdio_output@@V?$format_validation_base@DV?$stream_output_adapter@D@__crt_stdio_output@@@2@@__crt_stdio_output@@AAE_NXZ 1005db10 f i libucrtd:output.obj
 0001:0005cbd0       ?state_case_normal@?$output_processor@DV?$stream_output_adapter@D@__crt_stdio_output@@V?$positional_parameter_base@DV?$stream_output_adapter@D@__crt_stdio_output@@@2@@__crt_stdio_output@@AAE_NXZ 1005dbd0 f i libucrtd:output.obj
 0001:0005cc90       ?state_case_normal@?$output_processor@DV?$stream_output_adapter@D@__crt_stdio_output@@V?$standard_base@DV?$stream_output_adapter@D@__crt_stdio_output@@@2@@__crt_stdio_output@@AAE_NXZ 1005dc90 f i libucrtd:output.obj
 0001:0005cd50       ?state_case_normal@?$output_processor@DV?$string_output_adapter@D@__crt_stdio_output@@V?$format_validation_base@DV?$string_output_adapter@D@__crt_stdio_output@@@2@@__crt_stdio_output@@AAE_NXZ 1005dd50 f i libucrtd:output.obj
 0001:0005ce10       ?state_case_normal@?$output_processor@DV?$string_output_adapter@D@__crt_stdio_output@@V?$positional_parameter_base@DV?$string_output_adapter@D@__crt_stdio_output@@@2@@__crt_stdio_output@@AAE_NXZ 1005de10 f i libucrtd:output.obj
 0001:0005ced0       ?state_case_normal@?$output_processor@DV?$string_output_adapter@D@__crt_stdio_output@@V?$standard_base@DV?$string_output_adapter@D@__crt_stdio_output@@@2@@__crt_stdio_output@@AAE_NXZ 1005ded0 f i libucrtd:output.obj
 0001:0005cf90       ?state_case_normal@?$output_processor@_WV?$stream_output_adapter@_W@__crt_stdio_output@@V?$format_validation_base@_WV?$stream_output_adapter@_W@__crt_stdio_output@@@2@@__crt_stdio_output@@AAE_NXZ 1005df90 f i libucrtd:output.obj
 0001:0005d050       ?state_case_normal@?$output_processor@_WV?$stream_output_adapter@_W@__crt_stdio_output@@V?$positional_parameter_base@_WV?$stream_output_adapter@_W@__crt_stdio_output@@@2@@__crt_stdio_output@@AAE_NXZ 1005e050 f i libucrtd:output.obj
 0001:0005d110       ?state_case_normal@?$output_processor@_WV?$stream_output_adapter@_W@__crt_stdio_output@@V?$standard_base@_WV?$stream_output_adapter@_W@__crt_stdio_output@@@2@@__crt_stdio_output@@AAE_NXZ 1005e110 f i libucrtd:output.obj
 0001:0005d1d0       ?state_case_normal@?$output_processor@_WV?$string_output_adapter@_W@__crt_stdio_output@@V?$format_validation_base@_WV?$string_output_adapter@_W@__crt_stdio_output@@@2@@__crt_stdio_output@@AAE_NXZ 1005e1d0 f i libucrtd:output.obj
 0001:0005d290       ?state_case_normal@?$output_processor@_WV?$string_output_adapter@_W@__crt_stdio_output@@V?$positional_parameter_base@_WV?$string_output_adapter@_W@__crt_stdio_output@@@2@@__crt_stdio_output@@AAE_NXZ 1005e290 f i libucrtd:output.obj
 0001:0005d350       ?state_case_normal@?$output_processor@_WV?$string_output_adapter@_W@__crt_stdio_output@@V?$standard_base@_WV?$string_output_adapter@_W@__crt_stdio_output@@@2@@__crt_stdio_output@@AAE_NXZ 1005e350 f i libucrtd:output.obj
 0001:0005d410       ?state_case_normal_common@?$output_processor@DV?$stream_output_adapter@D@__crt_stdio_output@@V?$format_validation_base@DV?$stream_output_adapter@D@__crt_stdio_output@@@2@@__crt_stdio_output@@AAE_NXZ 1005e410 f i libucrtd:output.obj
 0001:0005d460       ?state_case_normal_common@?$output_processor@DV?$stream_output_adapter@D@__crt_stdio_output@@V?$positional_parameter_base@DV?$stream_output_adapter@D@__crt_stdio_output@@@2@@__crt_stdio_output@@AAE_NXZ 1005e460 f i libucrtd:output.obj
 0001:0005d4b0       ?state_case_normal_common@?$output_processor@DV?$stream_output_adapter@D@__crt_stdio_output@@V?$standard_base@DV?$stream_output_adapter@D@__crt_stdio_output@@@2@@__crt_stdio_output@@AAE_NXZ 1005e4b0 f i libucrtd:output.obj
 0001:0005d500       ?state_case_normal_common@?$output_processor@DV?$string_output_adapter@D@__crt_stdio_output@@V?$format_validation_base@DV?$string_output_adapter@D@__crt_stdio_output@@@2@@__crt_stdio_output@@AAE_NXZ 1005e500 f i libucrtd:output.obj
 0001:0005d550       ?state_case_normal_common@?$output_processor@DV?$string_output_adapter@D@__crt_stdio_output@@V?$positional_parameter_base@DV?$string_output_adapter@D@__crt_stdio_output@@@2@@__crt_stdio_output@@AAE_NXZ 1005e550 f i libucrtd:output.obj
 0001:0005d5a0       ?state_case_normal_common@?$output_processor@DV?$string_output_adapter@D@__crt_stdio_output@@V?$standard_base@DV?$string_output_adapter@D@__crt_stdio_output@@@2@@__crt_stdio_output@@AAE_NXZ 1005e5a0 f i libucrtd:output.obj
 0001:0005d5f0       ?state_case_normal_common@?$output_processor@_WV?$stream_output_adapter@_W@__crt_stdio_output@@V?$format_validation_base@_WV?$stream_output_adapter@_W@__crt_stdio_output@@@2@@__crt_stdio_output@@AAE_NXZ 1005e5f0 f i libucrtd:output.obj
 0001:0005d640       ?state_case_normal_common@?$output_processor@_WV?$stream_output_adapter@_W@__crt_stdio_output@@V?$positional_parameter_base@_WV?$stream_output_adapter@_W@__crt_stdio_output@@@2@@__crt_stdio_output@@AAE_NXZ 1005e640 f i libucrtd:output.obj
 0001:0005d690       ?state_case_normal_common@?$output_processor@_WV?$stream_output_adapter@_W@__crt_stdio_output@@V?$standard_base@_WV?$stream_output_adapter@_W@__crt_stdio_output@@@2@@__crt_stdio_output@@AAE_NXZ 1005e690 f i libucrtd:output.obj
 0001:0005d6e0       ?state_case_normal_common@?$output_processor@_WV?$string_output_adapter@_W@__crt_stdio_output@@V?$format_validation_base@_WV?$string_output_adapter@_W@__crt_stdio_output@@@2@@__crt_stdio_output@@AAE_NXZ 1005e6e0 f i libucrtd:output.obj
 0001:0005d730       ?state_case_normal_common@?$output_processor@_WV?$string_output_adapter@_W@__crt_stdio_output@@V?$positional_parameter_base@_WV?$string_output_adapter@_W@__crt_stdio_output@@@2@@__crt_stdio_output@@AAE_NXZ 1005e730 f i libucrtd:output.obj
 0001:0005d780       ?state_case_normal_common@?$output_processor@_WV?$string_output_adapter@_W@__crt_stdio_output@@V?$standard_base@_WV?$string_output_adapter@_W@__crt_stdio_output@@@2@@__crt_stdio_output@@AAE_NXZ 1005e780 f i libucrtd:output.obj
 0001:0005d7d0       ?state_case_normal_tchar@?$output_processor@DV?$stream_output_adapter@D@__crt_stdio_output@@V?$format_validation_base@DV?$stream_output_adapter@D@__crt_stdio_output@@@2@@__crt_stdio_output@@AAE_ND@Z 1005e7d0 f i libucrtd:output.obj
 0001:0005d900       ?state_case_normal_tchar@?$output_processor@DV?$stream_output_adapter@D@__crt_stdio_output@@V?$positional_parameter_base@DV?$stream_output_adapter@D@__crt_stdio_output@@@2@@__crt_stdio_output@@AAE_ND@Z 1005e900 f i libucrtd:output.obj
 0001:0005da30       ?state_case_normal_tchar@?$output_processor@DV?$stream_output_adapter@D@__crt_stdio_output@@V?$standard_base@DV?$stream_output_adapter@D@__crt_stdio_output@@@2@@__crt_stdio_output@@AAE_ND@Z 1005ea30 f i libucrtd:output.obj
 0001:0005db60       ?state_case_normal_tchar@?$output_processor@DV?$string_output_adapter@D@__crt_stdio_output@@V?$format_validation_base@DV?$string_output_adapter@D@__crt_stdio_output@@@2@@__crt_stdio_output@@AAE_ND@Z 1005eb60 f i libucrtd:output.obj
 0001:0005dc90       ?state_case_normal_tchar@?$output_processor@DV?$string_output_adapter@D@__crt_stdio_output@@V?$positional_parameter_base@DV?$string_output_adapter@D@__crt_stdio_output@@@2@@__crt_stdio_output@@AAE_ND@Z 1005ec90 f i libucrtd:output.obj
 0001:0005ddc0       ?state_case_normal_tchar@?$output_processor@DV?$string_output_adapter@D@__crt_stdio_output@@V?$standard_base@DV?$string_output_adapter@D@__crt_stdio_output@@@2@@__crt_stdio_output@@AAE_ND@Z 1005edc0 f i libucrtd:output.obj
 0001:0005def0       ?state_case_normal_tchar@?$output_processor@_WV?$stream_output_adapter@_W@__crt_stdio_output@@V?$format_validation_base@_WV?$stream_output_adapter@_W@__crt_stdio_output@@@2@@__crt_stdio_output@@AAE_N_W@Z 1005eef0 f i libucrtd:output.obj
 0001:0005df10       ?state_case_normal_tchar@?$output_processor@_WV?$stream_output_adapter@_W@__crt_stdio_output@@V?$positional_parameter_base@_WV?$stream_output_adapter@_W@__crt_stdio_output@@@2@@__crt_stdio_output@@AAE_N_W@Z 1005ef10 f i libucrtd:output.obj
 0001:0005df30       ?state_case_normal_tchar@?$output_processor@_WV?$stream_output_adapter@_W@__crt_stdio_output@@V?$standard_base@_WV?$stream_output_adapter@_W@__crt_stdio_output@@@2@@__crt_stdio_output@@AAE_N_W@Z 1005ef30 f i libucrtd:output.obj
 0001:0005df50       ?state_case_normal_tchar@?$output_processor@_WV?$string_output_adapter@_W@__crt_stdio_output@@V?$format_validation_base@_WV?$string_output_adapter@_W@__crt_stdio_output@@@2@@__crt_stdio_output@@AAE_N_W@Z 1005ef50 f i libucrtd:output.obj
 0001:0005df70       ?state_case_normal_tchar@?$output_processor@_WV?$string_output_adapter@_W@__crt_stdio_output@@V?$positional_parameter_base@_WV?$string_output_adapter@_W@__crt_stdio_output@@@2@@__crt_stdio_output@@AAE_N_W@Z 1005ef70 f i libucrtd:output.obj
 0001:0005df90       ?state_case_normal_tchar@?$output_processor@_WV?$string_output_adapter@_W@__crt_stdio_output@@V?$standard_base@_WV?$string_output_adapter@_W@__crt_stdio_output@@@2@@__crt_stdio_output@@AAE_N_W@Z 1005ef90 f i libucrtd:output.obj
 0001:0005dfb0       ?state_case_percent@?$output_processor@DV?$stream_output_adapter@D@__crt_stdio_output@@V?$format_validation_base@DV?$stream_output_adapter@D@__crt_stdio_output@@@2@@__crt_stdio_output@@AAE_NXZ 1005efb0 f i libucrtd:output.obj
 0001:0005e000       ?state_case_percent@?$output_processor@DV?$stream_output_adapter@D@__crt_stdio_output@@V?$positional_parameter_base@DV?$stream_output_adapter@D@__crt_stdio_output@@@2@@__crt_stdio_output@@AAE_NXZ 1005f000 f i libucrtd:output.obj
 0001:0005e050       ?state_case_percent@?$output_processor@DV?$stream_output_adapter@D@__crt_stdio_output@@V?$standard_base@DV?$stream_output_adapter@D@__crt_stdio_output@@@2@@__crt_stdio_output@@AAE_NXZ 1005f050 f i libucrtd:output.obj
 0001:0005e0a0       ?state_case_percent@?$output_processor@DV?$string_output_adapter@D@__crt_stdio_output@@V?$format_validation_base@DV?$string_output_adapter@D@__crt_stdio_output@@@2@@__crt_stdio_output@@AAE_NXZ 1005f0a0 f i libucrtd:output.obj
 0001:0005e0f0       ?state_case_percent@?$output_processor@DV?$string_output_adapter@D@__crt_stdio_output@@V?$positional_parameter_base@DV?$string_output_adapter@D@__crt_stdio_output@@@2@@__crt_stdio_output@@AAE_NXZ 1005f0f0 f i libucrtd:output.obj
 0001:0005e140       ?state_case_percent@?$output_processor@DV?$string_output_adapter@D@__crt_stdio_output@@V?$standard_base@DV?$string_output_adapter@D@__crt_stdio_output@@@2@@__crt_stdio_output@@AAE_NXZ 1005f140 f i libucrtd:output.obj
 0001:0005e190       ?state_case_percent@?$output_processor@_WV?$stream_output_adapter@_W@__crt_stdio_output@@V?$format_validation_base@_WV?$stream_output_adapter@_W@__crt_stdio_output@@@2@@__crt_stdio_output@@AAE_NXZ 1005f190 f i libucrtd:output.obj
 0001:0005e1e0       ?state_case_percent@?$output_processor@_WV?$stream_output_adapter@_W@__crt_stdio_output@@V?$positional_parameter_base@_WV?$stream_output_adapter@_W@__crt_stdio_output@@@2@@__crt_stdio_output@@AAE_NXZ 1005f1e0 f i libucrtd:output.obj
 0001:0005e230       ?state_case_percent@?$output_processor@_WV?$stream_output_adapter@_W@__crt_stdio_output@@V?$standard_base@_WV?$stream_output_adapter@_W@__crt_stdio_output@@@2@@__crt_stdio_output@@AAE_NXZ 1005f230 f i libucrtd:output.obj
 0001:0005e280       ?state_case_percent@?$output_processor@_WV?$string_output_adapter@_W@__crt_stdio_output@@V?$format_validation_base@_WV?$string_output_adapter@_W@__crt_stdio_output@@@2@@__crt_stdio_output@@AAE_NXZ 1005f280 f i libucrtd:output.obj
 0001:0005e2d0       ?state_case_percent@?$output_processor@_WV?$string_output_adapter@_W@__crt_stdio_output@@V?$positional_parameter_base@_WV?$string_output_adapter@_W@__crt_stdio_output@@@2@@__crt_stdio_output@@AAE_NXZ 1005f2d0 f i libucrtd:output.obj
 0001:0005e320       ?state_case_percent@?$output_processor@_WV?$string_output_adapter@_W@__crt_stdio_output@@V?$standard_base@_WV?$string_output_adapter@_W@__crt_stdio_output@@@2@@__crt_stdio_output@@AAE_NXZ 1005f320 f i libucrtd:output.obj
 0001:0005e370       ?state_case_precision@?$output_processor@DV?$stream_output_adapter@D@__crt_stdio_output@@V?$format_validation_base@DV?$stream_output_adapter@D@__crt_stdio_output@@@2@@__crt_stdio_output@@AAE_NXZ 1005f370 f i libucrtd:output.obj
 0001:0005e3e0       ?state_case_precision@?$output_processor@DV?$stream_output_adapter@D@__crt_stdio_output@@V?$positional_parameter_base@DV?$stream_output_adapter@D@__crt_stdio_output@@@2@@__crt_stdio_output@@AAE_NXZ 1005f3e0 f i libucrtd:output.obj
 0001:0005e450       ?state_case_precision@?$output_processor@DV?$stream_output_adapter@D@__crt_stdio_output@@V?$standard_base@DV?$stream_output_adapter@D@__crt_stdio_output@@@2@@__crt_stdio_output@@AAE_NXZ 1005f450 f i libucrtd:output.obj
 0001:0005e4c0       ?state_case_precision@?$output_processor@DV?$string_output_adapter@D@__crt_stdio_output@@V?$format_validation_base@DV?$string_output_adapter@D@__crt_stdio_output@@@2@@__crt_stdio_output@@AAE_NXZ 1005f4c0 f i libucrtd:output.obj
 0001:0005e530       ?state_case_precision@?$output_processor@DV?$string_output_adapter@D@__crt_stdio_output@@V?$positional_parameter_base@DV?$string_output_adapter@D@__crt_stdio_output@@@2@@__crt_stdio_output@@AAE_NXZ 1005f530 f i libucrtd:output.obj
 0001:0005e5a0       ?state_case_precision@?$output_processor@DV?$string_output_adapter@D@__crt_stdio_output@@V?$standard_base@DV?$string_output_adapter@D@__crt_stdio_output@@@2@@__crt_stdio_output@@AAE_NXZ 1005f5a0 f i libucrtd:output.obj
 0001:0005e610       ?state_case_precision@?$output_processor@_WV?$stream_output_adapter@_W@__crt_stdio_output@@V?$format_validation_base@_WV?$stream_output_adapter@_W@__crt_stdio_output@@@2@@__crt_stdio_output@@AAE_NXZ 1005f610 f i libucrtd:output.obj
 0001:0005e680       ?state_case_precision@?$output_processor@_WV?$stream_output_adapter@_W@__crt_stdio_output@@V?$positional_parameter_base@_WV?$stream_output_adapter@_W@__crt_stdio_output@@@2@@__crt_stdio_output@@AAE_NXZ 1005f680 f i libucrtd:output.obj
 0001:0005e6f0       ?state_case_precision@?$output_processor@_WV?$stream_output_adapter@_W@__crt_stdio_output@@V?$standard_base@_WV?$stream_output_adapter@_W@__crt_stdio_output@@@2@@__crt_stdio_output@@AAE_NXZ 1005f6f0 f i libucrtd:output.obj
 0001:0005e760       ?state_case_precision@?$output_processor@_WV?$string_output_adapter@_W@__crt_stdio_output@@V?$format_validation_base@_WV?$string_output_adapter@_W@__crt_stdio_output@@@2@@__crt_stdio_output@@AAE_NXZ 1005f760 f i libucrtd:output.obj
 0001:0005e7d0       ?state_case_precision@?$output_processor@_WV?$string_output_adapter@_W@__crt_stdio_output@@V?$positional_parameter_base@_WV?$string_output_adapter@_W@__crt_stdio_output@@@2@@__crt_stdio_output@@AAE_NXZ 1005f7d0 f i libucrtd:output.obj
 0001:0005e840       ?state_case_precision@?$output_processor@_WV?$string_output_adapter@_W@__crt_stdio_output@@V?$standard_base@_WV?$string_output_adapter@_W@__crt_stdio_output@@@2@@__crt_stdio_output@@AAE_NXZ 1005f840 f i libucrtd:output.obj
 0001:0005e8b0       ?state_case_size@?$output_processor@DV?$stream_output_adapter@D@__crt_stdio_output@@V?$format_validation_base@DV?$stream_output_adapter@D@__crt_stdio_output@@@2@@__crt_stdio_output@@AAE_NXZ 1005f8b0 f i libucrtd:output.obj
 0001:0005eca0       ?state_case_size@?$output_processor@DV?$stream_output_adapter@D@__crt_stdio_output@@V?$positional_parameter_base@DV?$stream_output_adapter@D@__crt_stdio_output@@@2@@__crt_stdio_output@@AAE_NXZ 1005fca0 f i libucrtd:output.obj
 0001:0005f090       ?state_case_size@?$output_processor@DV?$stream_output_adapter@D@__crt_stdio_output@@V?$standard_base@DV?$stream_output_adapter@D@__crt_stdio_output@@@2@@__crt_stdio_output@@AAE_NXZ 10060090 f i libucrtd:output.obj
 0001:0005f480       ?state_case_size@?$output_processor@DV?$string_output_adapter@D@__crt_stdio_output@@V?$format_validation_base@DV?$string_output_adapter@D@__crt_stdio_output@@@2@@__crt_stdio_output@@AAE_NXZ 10060480 f i libucrtd:output.obj
 0001:0005f870       ?state_case_size@?$output_processor@DV?$string_output_adapter@D@__crt_stdio_output@@V?$positional_parameter_base@DV?$string_output_adapter@D@__crt_stdio_output@@@2@@__crt_stdio_output@@AAE_NXZ 10060870 f i libucrtd:output.obj
 0001:0005fc60       ?state_case_size@?$output_processor@DV?$string_output_adapter@D@__crt_stdio_output@@V?$standard_base@DV?$string_output_adapter@D@__crt_stdio_output@@@2@@__crt_stdio_output@@AAE_NXZ 10060c60 f i libucrtd:output.obj
 0001:00060050       ?state_case_size@?$output_processor@_WV?$stream_output_adapter@_W@__crt_stdio_output@@V?$format_validation_base@_WV?$stream_output_adapter@_W@__crt_stdio_output@@@2@@__crt_stdio_output@@AAE_NXZ 10061050 f i libucrtd:output.obj
 0001:00060440       ?state_case_size@?$output_processor@_WV?$stream_output_adapter@_W@__crt_stdio_output@@V?$positional_parameter_base@_WV?$stream_output_adapter@_W@__crt_stdio_output@@@2@@__crt_stdio_output@@AAE_NXZ 10061440 f i libucrtd:output.obj
 0001:00060830       ?state_case_size@?$output_processor@_WV?$stream_output_adapter@_W@__crt_stdio_output@@V?$standard_base@_WV?$stream_output_adapter@_W@__crt_stdio_output@@@2@@__crt_stdio_output@@AAE_NXZ 10061830 f i libucrtd:output.obj
 0001:00060c20       ?state_case_size@?$output_processor@_WV?$string_output_adapter@_W@__crt_stdio_output@@V?$format_validation_base@_WV?$string_output_adapter@_W@__crt_stdio_output@@@2@@__crt_stdio_output@@AAE_NXZ 10061c20 f i libucrtd:output.obj
 0001:00061010       ?state_case_size@?$output_processor@_WV?$string_output_adapter@_W@__crt_stdio_output@@V?$positional_parameter_base@_WV?$string_output_adapter@_W@__crt_stdio_output@@@2@@__crt_stdio_output@@AAE_NXZ 10062010 f i libucrtd:output.obj
 0001:00061400       ?state_case_size@?$output_processor@_WV?$string_output_adapter@_W@__crt_stdio_output@@V?$standard_base@_WV?$string_output_adapter@_W@__crt_stdio_output@@@2@@__crt_stdio_output@@AAE_NXZ 10062400 f i libucrtd:output.obj
 0001:000617f0       ?state_case_type@?$output_processor@DV?$stream_output_adapter@D@__crt_stdio_output@@V?$format_validation_base@DV?$stream_output_adapter@D@__crt_stdio_output@@@2@@__crt_stdio_output@@AAE_NXZ 100627f0 f i libucrtd:output.obj
 0001:00061bc0       ?state_case_type@?$output_processor@DV?$stream_output_adapter@D@__crt_stdio_output@@V?$positional_parameter_base@DV?$stream_output_adapter@D@__crt_stdio_output@@@2@@__crt_stdio_output@@AAE_NXZ 10062bc0 f i libucrtd:output.obj
 0001:00061f90       ?state_case_type@?$output_processor@DV?$stream_output_adapter@D@__crt_stdio_output@@V?$standard_base@DV?$stream_output_adapter@D@__crt_stdio_output@@@2@@__crt_stdio_output@@AAE_NXZ 10062f90 f i libucrtd:output.obj
 0001:00062360       ?state_case_type@?$output_processor@DV?$string_output_adapter@D@__crt_stdio_output@@V?$format_validation_base@DV?$string_output_adapter@D@__crt_stdio_output@@@2@@__crt_stdio_output@@AAE_NXZ 10063360 f i libucrtd:output.obj
 0001:00062730       ?state_case_type@?$output_processor@DV?$string_output_adapter@D@__crt_stdio_output@@V?$positional_parameter_base@DV?$string_output_adapter@D@__crt_stdio_output@@@2@@__crt_stdio_output@@AAE_NXZ 10063730 f i libucrtd:output.obj
 0001:00062b00       ?state_case_type@?$output_processor@DV?$string_output_adapter@D@__crt_stdio_output@@V?$standard_base@DV?$string_output_adapter@D@__crt_stdio_output@@@2@@__crt_stdio_output@@AAE_NXZ 10063b00 f i libucrtd:output.obj
 0001:00062ed0       ?state_case_type@?$output_processor@_WV?$stream_output_adapter@_W@__crt_stdio_output@@V?$format_validation_base@_WV?$stream_output_adapter@_W@__crt_stdio_output@@@2@@__crt_stdio_output@@AAE_NXZ 10063ed0 f i libucrtd:output.obj
 0001:000632d0       ?state_case_type@?$output_processor@_WV?$stream_output_adapter@_W@__crt_stdio_output@@V?$positional_parameter_base@_WV?$stream_output_adapter@_W@__crt_stdio_output@@@2@@__crt_stdio_output@@AAE_NXZ 100642d0 f i libucrtd:output.obj
 0001:000636d0       ?state_case_type@?$output_processor@_WV?$stream_output_adapter@_W@__crt_stdio_output@@V?$standard_base@_WV?$stream_output_adapter@_W@__crt_stdio_output@@@2@@__crt_stdio_output@@AAE_NXZ 100646d0 f i libucrtd:output.obj
 0001:00063ad0       ?state_case_type@?$output_processor@_WV?$string_output_adapter@_W@__crt_stdio_output@@V?$format_validation_base@_WV?$string_output_adapter@_W@__crt_stdio_output@@@2@@__crt_stdio_output@@AAE_NXZ 10064ad0 f i libucrtd:output.obj
 0001:00063ed0       ?state_case_type@?$output_processor@_WV?$string_output_adapter@_W@__crt_stdio_output@@V?$positional_parameter_base@_WV?$string_output_adapter@_W@__crt_stdio_output@@@2@@__crt_stdio_output@@AAE_NXZ 10064ed0 f i libucrtd:output.obj
 0001:000642d0       ?state_case_type@?$output_processor@_WV?$string_output_adapter@_W@__crt_stdio_output@@V?$standard_base@_WV?$string_output_adapter@_W@__crt_stdio_output@@@2@@__crt_stdio_output@@AAE_NXZ 100652d0 f i libucrtd:output.obj
 0001:000646d0       ?state_case_width@?$output_processor@DV?$stream_output_adapter@D@__crt_stdio_output@@V?$format_validation_base@DV?$stream_output_adapter@D@__crt_stdio_output@@@2@@__crt_stdio_output@@AAE_NXZ 100656d0 f i libucrtd:output.obj
 0001:00064750       ?state_case_width@?$output_processor@DV?$stream_output_adapter@D@__crt_stdio_output@@V?$positional_parameter_base@DV?$stream_output_adapter@D@__crt_stdio_output@@@2@@__crt_stdio_output@@AAE_NXZ 10065750 f i libucrtd:output.obj
 0001:000647d0       ?state_case_width@?$output_processor@DV?$stream_output_adapter@D@__crt_stdio_output@@V?$standard_base@DV?$stream_output_adapter@D@__crt_stdio_output@@@2@@__crt_stdio_output@@AAE_NXZ 100657d0 f i libucrtd:output.obj
 0001:00064850       ?state_case_width@?$output_processor@DV?$string_output_adapter@D@__crt_stdio_output@@V?$format_validation_base@DV?$string_output_adapter@D@__crt_stdio_output@@@2@@__crt_stdio_output@@AAE_NXZ 10065850 f i libucrtd:output.obj
 0001:000648d0       ?state_case_width@?$output_processor@DV?$string_output_adapter@D@__crt_stdio_output@@V?$positional_parameter_base@DV?$string_output_adapter@D@__crt_stdio_output@@@2@@__crt_stdio_output@@AAE_NXZ 100658d0 f i libucrtd:output.obj
 0001:00064950       ?state_case_width@?$output_processor@DV?$string_output_adapter@D@__crt_stdio_output@@V?$standard_base@DV?$string_output_adapter@D@__crt_stdio_output@@@2@@__crt_stdio_output@@AAE_NXZ 10065950 f i libucrtd:output.obj
 0001:000649d0       ?state_case_width@?$output_processor@_WV?$stream_output_adapter@_W@__crt_stdio_output@@V?$format_validation_base@_WV?$stream_output_adapter@_W@__crt_stdio_output@@@2@@__crt_stdio_output@@AAE_NXZ 100659d0 f i libucrtd:output.obj
 0001:00064a50       ?state_case_width@?$output_processor@_WV?$stream_output_adapter@_W@__crt_stdio_output@@V?$positional_parameter_base@_WV?$stream_output_adapter@_W@__crt_stdio_output@@@2@@__crt_stdio_output@@AAE_NXZ 10065a50 f i libucrtd:output.obj
 0001:00064ad0       ?state_case_width@?$output_processor@_WV?$stream_output_adapter@_W@__crt_stdio_output@@V?$standard_base@_WV?$stream_output_adapter@_W@__crt_stdio_output@@@2@@__crt_stdio_output@@AAE_NXZ 10065ad0 f i libucrtd:output.obj
 0001:00064b50       ?state_case_width@?$output_processor@_WV?$string_output_adapter@_W@__crt_stdio_output@@V?$format_validation_base@_WV?$string_output_adapter@_W@__crt_stdio_output@@@2@@__crt_stdio_output@@AAE_NXZ 10065b50 f i libucrtd:output.obj
 0001:00064bd0       ?state_case_width@?$output_processor@_WV?$string_output_adapter@_W@__crt_stdio_output@@V?$positional_parameter_base@_WV?$string_output_adapter@_W@__crt_stdio_output@@@2@@__crt_stdio_output@@AAE_NXZ 10065bd0 f i libucrtd:output.obj
 0001:00064c50       ?state_case_width@?$output_processor@_WV?$string_output_adapter@_W@__crt_stdio_output@@V?$standard_base@_WV?$string_output_adapter@_W@__crt_stdio_output@@@2@@__crt_stdio_output@@AAE_NXZ 10065c50 f i libucrtd:output.obj
 0001:00064cd0       ?state_count@?$format_validation_base@DV?$stream_output_adapter@D@__crt_stdio_output@@@__crt_stdio_output@@KAIXZ 10065cd0 f i libucrtd:output.obj
 0001:00064ce0       ?state_count@?$format_validation_base@DV?$string_output_adapter@D@__crt_stdio_output@@@__crt_stdio_output@@KAIXZ 10065ce0 f i libucrtd:output.obj
 0001:00064cf0       ?state_count@?$format_validation_base@_WV?$stream_output_adapter@_W@__crt_stdio_output@@@__crt_stdio_output@@KAIXZ 10065cf0 f i libucrtd:output.obj
 0001:00064d00       ?state_count@?$format_validation_base@_WV?$string_output_adapter@_W@__crt_stdio_output@@@__crt_stdio_output@@KAIXZ 10065d00 f i libucrtd:output.obj
 0001:00064d10       ?state_count@?$standard_base@DV?$stream_output_adapter@D@__crt_stdio_output@@@__crt_stdio_output@@KAIXZ 10065d10 f i libucrtd:output.obj
 0001:00064d20       ?state_count@?$standard_base@DV?$string_output_adapter@D@__crt_stdio_output@@@__crt_stdio_output@@KAIXZ 10065d20 f i libucrtd:output.obj
 0001:00064d30       ?state_count@?$standard_base@_WV?$stream_output_adapter@_W@__crt_stdio_output@@@__crt_stdio_output@@KAIXZ 10065d30 f i libucrtd:output.obj
 0001:00064d40       ?state_count@?$standard_base@_WV?$string_output_adapter@_W@__crt_stdio_output@@@__crt_stdio_output@@KAIXZ 10065d40 f i libucrtd:output.obj
 0001:00064d50       ?state_transition_table@?$format_validation_base@DV?$stream_output_adapter@D@__crt_stdio_output@@@__crt_stdio_output@@KAABV?$spectre_mitigated_lookup_table@Ustate_transition_pair@__crt_stdio_output@@$0IA@@2@XZ 10065d50 f i libucrtd:output.obj
 0001:00064d60       ?state_transition_table@?$format_validation_base@DV?$string_output_adapter@D@__crt_stdio_output@@@__crt_stdio_output@@KAABV?$spectre_mitigated_lookup_table@Ustate_transition_pair@__crt_stdio_output@@$0IA@@2@XZ 10065d60 f i libucrtd:output.obj
 0001:00064d70       ?state_transition_table@?$format_validation_base@_WV?$stream_output_adapter@_W@__crt_stdio_output@@@__crt_stdio_output@@KAABV?$spectre_mitigated_lookup_table@Ustate_transition_pair@__crt_stdio_output@@$0IA@@2@XZ 10065d70 f i libucrtd:output.obj
 0001:00064d80       ?state_transition_table@?$format_validation_base@_WV?$string_output_adapter@_W@__crt_stdio_output@@@__crt_stdio_output@@KAABV?$spectre_mitigated_lookup_table@Ustate_transition_pair@__crt_stdio_output@@$0IA@@2@XZ 10065d80 f i libucrtd:output.obj
 0001:00064d90       ?state_transition_table@?$standard_base@DV?$stream_output_adapter@D@__crt_stdio_output@@@__crt_stdio_output@@KAABV?$spectre_mitigated_lookup_table@Ustate_transition_pair@__crt_stdio_output@@$0IA@@2@XZ 10065d90 f i libucrtd:output.obj
 0001:00064da0       ?state_transition_table@?$standard_base@DV?$string_output_adapter@D@__crt_stdio_output@@@__crt_stdio_output@@KAABV?$spectre_mitigated_lookup_table@Ustate_transition_pair@__crt_stdio_output@@$0IA@@2@XZ 10065da0 f i libucrtd:output.obj
 0001:00064db0       ?state_transition_table@?$standard_base@_WV?$stream_output_adapter@_W@__crt_stdio_output@@@__crt_stdio_output@@KAABV?$spectre_mitigated_lookup_table@Ustate_transition_pair@__crt_stdio_output@@$0IA@@2@XZ 10065db0 f i libucrtd:output.obj
 0001:00064dc0       ?state_transition_table@?$standard_base@_WV?$string_output_adapter@_W@__crt_stdio_output@@@__crt_stdio_output@@KAABV?$spectre_mitigated_lookup_table@Ustate_transition_pair@__crt_stdio_output@@$0IA@@2@XZ 10065dc0 f i libucrtd:output.obj
 0001:00064dd0       ?tchar_string@?$common_data@D@__crt_stdio_output@@IAEAAPADD@Z 10065dd0 f i libucrtd:output.obj
 0001:00064df0       ?tchar_string@?$common_data@D@__crt_stdio_output@@IAEAAPADXZ 10065df0 f i libucrtd:output.obj
 0001:00064e10       ?tchar_string@?$common_data@_W@__crt_stdio_output@@IAEAAPA_WXZ 10065e10 f i libucrtd:output.obj
 0001:00064e30       ?tchar_string@?$common_data@_W@__crt_stdio_output@@IAEAAPA_W_W@Z 10065e30 f i libucrtd:output.obj
 0001:00064e50       ?to_integer_size@__crt_stdio_output@@YAIW4length_modifier@1@@Z 10065e50 f i libucrtd:output.obj
 0001:00064ef0       ?type_case_X@?$output_processor@DV?$stream_output_adapter@D@__crt_stdio_output@@V?$format_validation_base@DV?$stream_output_adapter@D@__crt_stdio_output@@@2@@__crt_stdio_output@@AAE_NXZ 10065ef0 f i libucrtd:output.obj
 0001:00064f10       ?type_case_X@?$output_processor@DV?$stream_output_adapter@D@__crt_stdio_output@@V?$positional_parameter_base@DV?$stream_output_adapter@D@__crt_stdio_output@@@2@@__crt_stdio_output@@AAE_NXZ 10065f10 f i libucrtd:output.obj
 0001:00064f30       ?type_case_X@?$output_processor@DV?$stream_output_adapter@D@__crt_stdio_output@@V?$standard_base@DV?$stream_output_adapter@D@__crt_stdio_output@@@2@@__crt_stdio_output@@AAE_NXZ 10065f30 f i libucrtd:output.obj
 0001:00064f50       ?type_case_X@?$output_processor@DV?$string_output_adapter@D@__crt_stdio_output@@V?$format_validation_base@DV?$string_output_adapter@D@__crt_stdio_output@@@2@@__crt_stdio_output@@AAE_NXZ 10065f50 f i libucrtd:output.obj
 0001:00064f70       ?type_case_X@?$output_processor@DV?$string_output_adapter@D@__crt_stdio_output@@V?$positional_parameter_base@DV?$string_output_adapter@D@__crt_stdio_output@@@2@@__crt_stdio_output@@AAE_NXZ 10065f70 f i libucrtd:output.obj
 0001:00064f90       ?type_case_X@?$output_processor@DV?$string_output_adapter@D@__crt_stdio_output@@V?$standard_base@DV?$string_output_adapter@D@__crt_stdio_output@@@2@@__crt_stdio_output@@AAE_NXZ 10065f90 f i libucrtd:output.obj
 0001:00064fb0       ?type_case_X@?$output_processor@_WV?$stream_output_adapter@_W@__crt_stdio_output@@V?$format_validation_base@_WV?$stream_output_adapter@_W@__crt_stdio_output@@@2@@__crt_stdio_output@@AAE_NXZ 10065fb0 f i libucrtd:output.obj
 0001:00064fd0       ?type_case_X@?$output_processor@_WV?$stream_output_adapter@_W@__crt_stdio_output@@V?$positional_parameter_base@_WV?$stream_output_adapter@_W@__crt_stdio_output@@@2@@__crt_stdio_output@@AAE_NXZ 10065fd0 f i libucrtd:output.obj
 0001:00064ff0       ?type_case_X@?$output_processor@_WV?$stream_output_adapter@_W@__crt_stdio_output@@V?$standard_base@_WV?$stream_output_adapter@_W@__crt_stdio_output@@@2@@__crt_stdio_output@@AAE_NXZ 10065ff0 f i libucrtd:output.obj
 0001:00065010       ?type_case_X@?$output_processor@_WV?$string_output_adapter@_W@__crt_stdio_output@@V?$format_validation_base@_WV?$string_output_adapter@_W@__crt_stdio_output@@@2@@__crt_stdio_output@@AAE_NXZ 10066010 f i libucrtd:output.obj
 0001:00065030       ?type_case_X@?$output_processor@_WV?$string_output_adapter@_W@__crt_stdio_output@@V?$positional_parameter_base@_WV?$string_output_adapter@_W@__crt_stdio_output@@@2@@__crt_stdio_output@@AAE_NXZ 10066030 f i libucrtd:output.obj
 0001:00065050       ?type_case_X@?$output_processor@_WV?$string_output_adapter@_W@__crt_stdio_output@@V?$standard_base@_WV?$string_output_adapter@_W@__crt_stdio_output@@@2@@__crt_stdio_output@@AAE_NXZ 10066050 f i libucrtd:output.obj
 0001:00065070       ?type_case_Z@?$output_processor@DV?$stream_output_adapter@D@__crt_stdio_output@@V?$format_validation_base@DV?$stream_output_adapter@D@__crt_stdio_output@@@2@@__crt_stdio_output@@AAE_NXZ 10066070 f i libucrtd:output.obj
 0001:00065160       ?type_case_Z@?$output_processor@DV?$stream_output_adapter@D@__crt_stdio_output@@V?$positional_parameter_base@DV?$stream_output_adapter@D@__crt_stdio_output@@@2@@__crt_stdio_output@@AAE_NXZ 10066160 f i libucrtd:output.obj
 0001:00065250       ?type_case_Z@?$output_processor@DV?$stream_output_adapter@D@__crt_stdio_output@@V?$standard_base@DV?$stream_output_adapter@D@__crt_stdio_output@@@2@@__crt_stdio_output@@AAE_NXZ 10066250 f i libucrtd:output.obj
 0001:00065340       ?type_case_Z@?$output_processor@DV?$string_output_adapter@D@__crt_stdio_output@@V?$format_validation_base@DV?$string_output_adapter@D@__crt_stdio_output@@@2@@__crt_stdio_output@@AAE_NXZ 10066340 f i libucrtd:output.obj
 0001:00065430       ?type_case_Z@?$output_processor@DV?$string_output_adapter@D@__crt_stdio_output@@V?$positional_parameter_base@DV?$string_output_adapter@D@__crt_stdio_output@@@2@@__crt_stdio_output@@AAE_NXZ 10066430 f i libucrtd:output.obj
 0001:00065520       ?type_case_Z@?$output_processor@DV?$string_output_adapter@D@__crt_stdio_output@@V?$standard_base@DV?$string_output_adapter@D@__crt_stdio_output@@@2@@__crt_stdio_output@@AAE_NXZ 10066520 f i libucrtd:output.obj
 0001:00065610       ?type_case_Z@?$output_processor@_WV?$stream_output_adapter@_W@__crt_stdio_output@@V?$format_validation_base@_WV?$stream_output_adapter@_W@__crt_stdio_output@@@2@@__crt_stdio_output@@AAE_NXZ 10066610 f i libucrtd:output.obj
 0001:00065700       ?type_case_Z@?$output_processor@_WV?$stream_output_adapter@_W@__crt_stdio_output@@V?$positional_parameter_base@_WV?$stream_output_adapter@_W@__crt_stdio_output@@@2@@__crt_stdio_output@@AAE_NXZ 10066700 f i libucrtd:output.obj
 0001:000657f0       ?type_case_Z@?$output_processor@_WV?$stream_output_adapter@_W@__crt_stdio_output@@V?$standard_base@_WV?$stream_output_adapter@_W@__crt_stdio_output@@@2@@__crt_stdio_output@@AAE_NXZ 100667f0 f i libucrtd:output.obj
 0001:000658e0       ?type_case_Z@?$output_processor@_WV?$string_output_adapter@_W@__crt_stdio_output@@V?$format_validation_base@_WV?$string_output_adapter@_W@__crt_stdio_output@@@2@@__crt_stdio_output@@AAE_NXZ 100668e0 f i libucrtd:output.obj
 0001:000659d0       ?type_case_Z@?$output_processor@_WV?$string_output_adapter@_W@__crt_stdio_output@@V?$positional_parameter_base@_WV?$string_output_adapter@_W@__crt_stdio_output@@@2@@__crt_stdio_output@@AAE_NXZ 100669d0 f i libucrtd:output.obj
 0001:00065ac0       ?type_case_Z@?$output_processor@_WV?$string_output_adapter@_W@__crt_stdio_output@@V?$standard_base@_WV?$string_output_adapter@_W@__crt_stdio_output@@@2@@__crt_stdio_output@@AAE_NXZ 10066ac0 f i libucrtd:output.obj
 0001:00065bb0       ?type_case_a@?$output_processor@DV?$stream_output_adapter@D@__crt_stdio_output@@V?$format_validation_base@DV?$stream_output_adapter@D@__crt_stdio_output@@@2@@__crt_stdio_output@@AAE_NXZ 10066bb0 f i libucrtd:output.obj
 0001:00065e80       ?type_case_a@?$output_processor@DV?$stream_output_adapter@D@__crt_stdio_output@@V?$positional_parameter_base@DV?$stream_output_adapter@D@__crt_stdio_output@@@2@@__crt_stdio_output@@AAE_NXZ 10066e80 f i libucrtd:output.obj
 0001:00066150       ?type_case_a@?$output_processor@DV?$stream_output_adapter@D@__crt_stdio_output@@V?$standard_base@DV?$stream_output_adapter@D@__crt_stdio_output@@@2@@__crt_stdio_output@@AAE_NXZ 10067150 f i libucrtd:output.obj
 0001:00066420       ?type_case_a@?$output_processor@DV?$string_output_adapter@D@__crt_stdio_output@@V?$format_validation_base@DV?$string_output_adapter@D@__crt_stdio_output@@@2@@__crt_stdio_output@@AAE_NXZ 10067420 f i libucrtd:output.obj
 0001:000666f0       ?type_case_a@?$output_processor@DV?$string_output_adapter@D@__crt_stdio_output@@V?$positional_parameter_base@DV?$string_output_adapter@D@__crt_stdio_output@@@2@@__crt_stdio_output@@AAE_NXZ 100676f0 f i libucrtd:output.obj
 0001:000669c0       ?type_case_a@?$output_processor@DV?$string_output_adapter@D@__crt_stdio_output@@V?$standard_base@DV?$string_output_adapter@D@__crt_stdio_output@@@2@@__crt_stdio_output@@AAE_NXZ 100679c0 f i libucrtd:output.obj
 0001:00066c90       ?type_case_a@?$output_processor@_WV?$stream_output_adapter@_W@__crt_stdio_output@@V?$format_validation_base@_WV?$stream_output_adapter@_W@__crt_stdio_output@@@2@@__crt_stdio_output@@AAE_NXZ 10067c90 f i libucrtd:output.obj
 0001:00066f60       ?type_case_a@?$output_processor@_WV?$stream_output_adapter@_W@__crt_stdio_output@@V?$positional_parameter_base@_WV?$stream_output_adapter@_W@__crt_stdio_output@@@2@@__crt_stdio_output@@AAE_NXZ 10067f60 f i libucrtd:output.obj
 0001:00067230       ?type_case_a@?$output_processor@_WV?$stream_output_adapter@_W@__crt_stdio_output@@V?$standard_base@_WV?$stream_output_adapter@_W@__crt_stdio_output@@@2@@__crt_stdio_output@@AAE_NXZ 10068230 f i libucrtd:output.obj
 0001:00067500       ?type_case_a@?$output_processor@_WV?$string_output_adapter@_W@__crt_stdio_output@@V?$format_validation_base@_WV?$string_output_adapter@_W@__crt_stdio_output@@@2@@__crt_stdio_output@@AAE_NXZ 10068500 f i libucrtd:output.obj
 0001:000677d0       ?type_case_a@?$output_processor@_WV?$string_output_adapter@_W@__crt_stdio_output@@V?$positional_parameter_base@_WV?$string_output_adapter@_W@__crt_stdio_output@@@2@@__crt_stdio_output@@AAE_NXZ 100687d0 f i libucrtd:output.obj
 0001:00067aa0       ?type_case_a@?$output_processor@_WV?$string_output_adapter@_W@__crt_stdio_output@@V?$standard_base@_WV?$string_output_adapter@_W@__crt_stdio_output@@@2@@__crt_stdio_output@@AAE_NXZ 10068aa0 f i libucrtd:output.obj
 0001:00067d70       ?type_case_c@?$output_processor@DV?$stream_output_adapter@D@__crt_stdio_output@@V?$format_validation_base@DV?$stream_output_adapter@D@__crt_stdio_output@@@2@@__crt_stdio_output@@AAE_NXZ 10068d70 f i libucrtd:output.obj
 0001:00067d90       ?type_case_c@?$output_processor@DV?$stream_output_adapter@D@__crt_stdio_output@@V?$positional_parameter_base@DV?$stream_output_adapter@D@__crt_stdio_output@@@2@@__crt_stdio_output@@AAE_NXZ 10068d90 f i libucrtd:output.obj
 0001:00067db0       ?type_case_c@?$output_processor@DV?$stream_output_adapter@D@__crt_stdio_output@@V?$standard_base@DV?$stream_output_adapter@D@__crt_stdio_output@@@2@@__crt_stdio_output@@AAE_NXZ 10068db0 f i libucrtd:output.obj
 0001:00067dd0       ?type_case_c@?$output_processor@DV?$string_output_adapter@D@__crt_stdio_output@@V?$format_validation_base@DV?$string_output_adapter@D@__crt_stdio_output@@@2@@__crt_stdio_output@@AAE_NXZ 10068dd0 f i libucrtd:output.obj
 0001:00067df0       ?type_case_c@?$output_processor@DV?$string_output_adapter@D@__crt_stdio_output@@V?$positional_parameter_base@DV?$string_output_adapter@D@__crt_stdio_output@@@2@@__crt_stdio_output@@AAE_NXZ 10068df0 f i libucrtd:output.obj
 0001:00067e10       ?type_case_c@?$output_processor@DV?$string_output_adapter@D@__crt_stdio_output@@V?$standard_base@DV?$string_output_adapter@D@__crt_stdio_output@@@2@@__crt_stdio_output@@AAE_NXZ 10068e10 f i libucrtd:output.obj
 0001:00067e30       ?type_case_c@?$output_processor@_WV?$stream_output_adapter@_W@__crt_stdio_output@@V?$format_validation_base@_WV?$stream_output_adapter@_W@__crt_stdio_output@@@2@@__crt_stdio_output@@AAE_NXZ 10068e30 f i libucrtd:output.obj
 0001:00067e50       ?type_case_c@?$output_processor@_WV?$stream_output_adapter@_W@__crt_stdio_output@@V?$positional_parameter_base@_WV?$stream_output_adapter@_W@__crt_stdio_output@@@2@@__crt_stdio_output@@AAE_NXZ 10068e50 f i libucrtd:output.obj
 0001:00067e70       ?type_case_c@?$output_processor@_WV?$stream_output_adapter@_W@__crt_stdio_output@@V?$standard_base@_WV?$stream_output_adapter@_W@__crt_stdio_output@@@2@@__crt_stdio_output@@AAE_NXZ 10068e70 f i libucrtd:output.obj
 0001:00067e90       ?type_case_c@?$output_processor@_WV?$string_output_adapter@_W@__crt_stdio_output@@V?$format_validation_base@_WV?$string_output_adapter@_W@__crt_stdio_output@@@2@@__crt_stdio_output@@AAE_NXZ 10068e90 f i libucrtd:output.obj
 0001:00067eb0       ?type_case_c@?$output_processor@_WV?$string_output_adapter@_W@__crt_stdio_output@@V?$positional_parameter_base@_WV?$string_output_adapter@_W@__crt_stdio_output@@@2@@__crt_stdio_output@@AAE_NXZ 10068eb0 f i libucrtd:output.obj
 0001:00067ed0       ?type_case_c@?$output_processor@_WV?$string_output_adapter@_W@__crt_stdio_output@@V?$standard_base@_WV?$string_output_adapter@_W@__crt_stdio_output@@@2@@__crt_stdio_output@@AAE_NXZ 10068ed0 f i libucrtd:output.obj
 0001:00067ef0       ?type_case_c_tchar@?$output_processor@DV?$stream_output_adapter@D@__crt_stdio_output@@V?$format_validation_base@DV?$stream_output_adapter@D@__crt_stdio_output@@@2@@__crt_stdio_output@@AAE_ND@Z 10068ef0 f i libucrtd:output.obj
 0001:00068020       ?type_case_c_tchar@?$output_processor@DV?$stream_output_adapter@D@__crt_stdio_output@@V?$positional_parameter_base@DV?$stream_output_adapter@D@__crt_stdio_output@@@2@@__crt_stdio_output@@AAE_ND@Z 10069020 f i libucrtd:output.obj
 0001:00068150       ?type_case_c_tchar@?$output_processor@DV?$stream_output_adapter@D@__crt_stdio_output@@V?$standard_base@DV?$stream_output_adapter@D@__crt_stdio_output@@@2@@__crt_stdio_output@@AAE_ND@Z 10069150 f i libucrtd:output.obj
 0001:00068280       ?type_case_c_tchar@?$output_processor@DV?$string_output_adapter@D@__crt_stdio_output@@V?$format_validation_base@DV?$string_output_adapter@D@__crt_stdio_output@@@2@@__crt_stdio_output@@AAE_ND@Z 10069280 f i libucrtd:output.obj
 0001:000683b0       ?type_case_c_tchar@?$output_processor@DV?$string_output_adapter@D@__crt_stdio_output@@V?$positional_parameter_base@DV?$string_output_adapter@D@__crt_stdio_output@@@2@@__crt_stdio_output@@AAE_ND@Z 100693b0 f i libucrtd:output.obj
 0001:000684e0       ?type_case_c_tchar@?$output_processor@DV?$string_output_adapter@D@__crt_stdio_output@@V?$standard_base@DV?$string_output_adapter@D@__crt_stdio_output@@@2@@__crt_stdio_output@@AAE_ND@Z 100694e0 f i libucrtd:output.obj
 0001:00068610       ?type_case_c_tchar@?$output_processor@_WV?$stream_output_adapter@_W@__crt_stdio_output@@V?$format_validation_base@_WV?$stream_output_adapter@_W@__crt_stdio_output@@@2@@__crt_stdio_output@@AAE_N_W@Z 10069610 f i libucrtd:output.obj
 0001:00068730       ?type_case_c_tchar@?$output_processor@_WV?$stream_output_adapter@_W@__crt_stdio_output@@V?$positional_parameter_base@_WV?$stream_output_adapter@_W@__crt_stdio_output@@@2@@__crt_stdio_output@@AAE_N_W@Z 10069730 f i libucrtd:output.obj
 0001:00068850       ?type_case_c_tchar@?$output_processor@_WV?$stream_output_adapter@_W@__crt_stdio_output@@V?$standard_base@_WV?$stream_output_adapter@_W@__crt_stdio_output@@@2@@__crt_stdio_output@@AAE_N_W@Z 10069850 f i libucrtd:output.obj
 0001:00068970       ?type_case_c_tchar@?$output_processor@_WV?$string_output_adapter@_W@__crt_stdio_output@@V?$format_validation_base@_WV?$string_output_adapter@_W@__crt_stdio_output@@@2@@__crt_stdio_output@@AAE_N_W@Z 10069970 f i libucrtd:output.obj
 0001:00068a90       ?type_case_c_tchar@?$output_processor@_WV?$string_output_adapter@_W@__crt_stdio_output@@V?$positional_parameter_base@_WV?$string_output_adapter@_W@__crt_stdio_output@@@2@@__crt_stdio_output@@AAE_N_W@Z 10069a90 f i libucrtd:output.obj
 0001:00068bb0       ?type_case_c_tchar@?$output_processor@_WV?$string_output_adapter@_W@__crt_stdio_output@@V?$standard_base@_WV?$string_output_adapter@_W@__crt_stdio_output@@@2@@__crt_stdio_output@@AAE_N_W@Z 10069bb0 f i libucrtd:output.obj
 0001:00068cd0       ?type_case_d@?$output_processor@DV?$stream_output_adapter@D@__crt_stdio_output@@V?$format_validation_base@DV?$stream_output_adapter@D@__crt_stdio_output@@@2@@__crt_stdio_output@@AAE_NXZ 10069cd0 f i libucrtd:output.obj
 0001:00068d00       ?type_case_d@?$output_processor@DV?$stream_output_adapter@D@__crt_stdio_output@@V?$positional_parameter_base@DV?$stream_output_adapter@D@__crt_stdio_output@@@2@@__crt_stdio_output@@AAE_NXZ 10069d00 f i libucrtd:output.obj
 0001:00068d30       ?type_case_d@?$output_processor@DV?$stream_output_adapter@D@__crt_stdio_output@@V?$standard_base@DV?$stream_output_adapter@D@__crt_stdio_output@@@2@@__crt_stdio_output@@AAE_NXZ 10069d30 f i libucrtd:output.obj
 0001:00068d60       ?type_case_d@?$output_processor@DV?$string_output_adapter@D@__crt_stdio_output@@V?$format_validation_base@DV?$string_output_adapter@D@__crt_stdio_output@@@2@@__crt_stdio_output@@AAE_NXZ 10069d60 f i libucrtd:output.obj
 0001:00068d90       ?type_case_d@?$output_processor@DV?$string_output_adapter@D@__crt_stdio_output@@V?$positional_parameter_base@DV?$string_output_adapter@D@__crt_stdio_output@@@2@@__crt_stdio_output@@AAE_NXZ 10069d90 f i libucrtd:output.obj
 0001:00068dc0       ?type_case_d@?$output_processor@DV?$string_output_adapter@D@__crt_stdio_output@@V?$standard_base@DV?$string_output_adapter@D@__crt_stdio_output@@@2@@__crt_stdio_output@@AAE_NXZ 10069dc0 f i libucrtd:output.obj
 0001:00068df0       ?type_case_d@?$output_processor@_WV?$stream_output_adapter@_W@__crt_stdio_output@@V?$format_validation_base@_WV?$stream_output_adapter@_W@__crt_stdio_output@@@2@@__crt_stdio_output@@AAE_NXZ 10069df0 f i libucrtd:output.obj
 0001:00068e20       ?type_case_d@?$output_processor@_WV?$stream_output_adapter@_W@__crt_stdio_output@@V?$positional_parameter_base@_WV?$stream_output_adapter@_W@__crt_stdio_output@@@2@@__crt_stdio_output@@AAE_NXZ 10069e20 f i libucrtd:output.obj
 0001:00068e50       ?type_case_d@?$output_processor@_WV?$stream_output_adapter@_W@__crt_stdio_output@@V?$standard_base@_WV?$stream_output_adapter@_W@__crt_stdio_output@@@2@@__crt_stdio_output@@AAE_NXZ 10069e50 f i libucrtd:output.obj
 0001:00068e80       ?type_case_d@?$output_processor@_WV?$string_output_adapter@_W@__crt_stdio_output@@V?$format_validation_base@_WV?$string_output_adapter@_W@__crt_stdio_output@@@2@@__crt_stdio_output@@AAE_NXZ 10069e80 f i libucrtd:output.obj
 0001:00068eb0       ?type_case_d@?$output_processor@_WV?$string_output_adapter@_W@__crt_stdio_output@@V?$positional_parameter_base@_WV?$string_output_adapter@_W@__crt_stdio_output@@@2@@__crt_stdio_output@@AAE_NXZ 10069eb0 f i libucrtd:output.obj
 0001:00068ee0       ?type_case_d@?$output_processor@_WV?$string_output_adapter@_W@__crt_stdio_output@@V?$standard_base@_WV?$string_output_adapter@_W@__crt_stdio_output@@@2@@__crt_stdio_output@@AAE_NXZ 10069ee0 f i libucrtd:output.obj
 0001:00068f10       ?type_case_n@?$output_processor@DV?$stream_output_adapter@D@__crt_stdio_output@@V?$format_validation_base@DV?$stream_output_adapter@D@__crt_stdio_output@@@2@@__crt_stdio_output@@AAE_NXZ 10069f10 f i libucrtd:output.obj
 0001:00069130       ?type_case_n@?$output_processor@DV?$stream_output_adapter@D@__crt_stdio_output@@V?$positional_parameter_base@DV?$stream_output_adapter@D@__crt_stdio_output@@@2@@__crt_stdio_output@@AAE_NXZ 1006a130 f i libucrtd:output.obj
 0001:00069350       ?type_case_n@?$output_processor@DV?$stream_output_adapter@D@__crt_stdio_output@@V?$standard_base@DV?$stream_output_adapter@D@__crt_stdio_output@@@2@@__crt_stdio_output@@AAE_NXZ 1006a350 f i libucrtd:output.obj
 0001:00069570       ?type_case_n@?$output_processor@DV?$string_output_adapter@D@__crt_stdio_output@@V?$format_validation_base@DV?$string_output_adapter@D@__crt_stdio_output@@@2@@__crt_stdio_output@@AAE_NXZ 1006a570 f i libucrtd:output.obj
 0001:00069790       ?type_case_n@?$output_processor@DV?$string_output_adapter@D@__crt_stdio_output@@V?$positional_parameter_base@DV?$string_output_adapter@D@__crt_stdio_output@@@2@@__crt_stdio_output@@AAE_NXZ 1006a790 f i libucrtd:output.obj
 0001:000699b0       ?type_case_n@?$output_processor@DV?$string_output_adapter@D@__crt_stdio_output@@V?$standard_base@DV?$string_output_adapter@D@__crt_stdio_output@@@2@@__crt_stdio_output@@AAE_NXZ 1006a9b0 f i libucrtd:output.obj
 0001:00069bd0       ?type_case_n@?$output_processor@_WV?$stream_output_adapter@_W@__crt_stdio_output@@V?$format_validation_base@_WV?$stream_output_adapter@_W@__crt_stdio_output@@@2@@__crt_stdio_output@@AAE_NXZ 1006abd0 f i libucrtd:output.obj
 0001:00069df0       ?type_case_n@?$output_processor@_WV?$stream_output_adapter@_W@__crt_stdio_output@@V?$positional_parameter_base@_WV?$stream_output_adapter@_W@__crt_stdio_output@@@2@@__crt_stdio_output@@AAE_NXZ 1006adf0 f i libucrtd:output.obj
 0001:0006a010       ?type_case_n@?$output_processor@_WV?$stream_output_adapter@_W@__crt_stdio_output@@V?$standard_base@_WV?$stream_output_adapter@_W@__crt_stdio_output@@@2@@__crt_stdio_output@@AAE_NXZ 1006b010 f i libucrtd:output.obj
 0001:0006a230       ?type_case_n@?$output_processor@_WV?$string_output_adapter@_W@__crt_stdio_output@@V?$format_validation_base@_WV?$string_output_adapter@_W@__crt_stdio_output@@@2@@__crt_stdio_output@@AAE_NXZ 1006b230 f i libucrtd:output.obj
 0001:0006a450       ?type_case_n@?$output_processor@_WV?$string_output_adapter@_W@__crt_stdio_output@@V?$positional_parameter_base@_WV?$string_output_adapter@_W@__crt_stdio_output@@@2@@__crt_stdio_output@@AAE_NXZ 1006b450 f i libucrtd:output.obj
 0001:0006a670       ?type_case_n@?$output_processor@_WV?$string_output_adapter@_W@__crt_stdio_output@@V?$standard_base@_WV?$string_output_adapter@_W@__crt_stdio_output@@@2@@__crt_stdio_output@@AAE_NXZ 1006b670 f i libucrtd:output.obj
 0001:0006a890       ?type_case_o@?$output_processor@DV?$stream_output_adapter@D@__crt_stdio_output@@V?$format_validation_base@DV?$stream_output_adapter@D@__crt_stdio_output@@@2@@__crt_stdio_output@@AAE_NXZ 1006b890 f i libucrtd:output.obj
 0001:0006a8d0       ?type_case_o@?$output_processor@DV?$stream_output_adapter@D@__crt_stdio_output@@V?$positional_parameter_base@DV?$stream_output_adapter@D@__crt_stdio_output@@@2@@__crt_stdio_output@@AAE_NXZ 1006b8d0 f i libucrtd:output.obj
 0001:0006a910       ?type_case_o@?$output_processor@DV?$stream_output_adapter@D@__crt_stdio_output@@V?$standard_base@DV?$stream_output_adapter@D@__crt_stdio_output@@@2@@__crt_stdio_output@@AAE_NXZ 1006b910 f i libucrtd:output.obj
 0001:0006a950       ?type_case_o@?$output_processor@DV?$string_output_adapter@D@__crt_stdio_output@@V?$format_validation_base@DV?$string_output_adapter@D@__crt_stdio_output@@@2@@__crt_stdio_output@@AAE_NXZ 1006b950 f i libucrtd:output.obj
 0001:0006a990       ?type_case_o@?$output_processor@DV?$string_output_adapter@D@__crt_stdio_output@@V?$positional_parameter_base@DV?$string_output_adapter@D@__crt_stdio_output@@@2@@__crt_stdio_output@@AAE_NXZ 1006b990 f i libucrtd:output.obj
 0001:0006a9d0       ?type_case_o@?$output_processor@DV?$string_output_adapter@D@__crt_stdio_output@@V?$standard_base@DV?$string_output_adapter@D@__crt_stdio_output@@@2@@__crt_stdio_output@@AAE_NXZ 1006b9d0 f i libucrtd:output.obj
 0001:0006aa10       ?type_case_o@?$output_processor@_WV?$stream_output_adapter@_W@__crt_stdio_output@@V?$format_validation_base@_WV?$stream_output_adapter@_W@__crt_stdio_output@@@2@@__crt_stdio_output@@AAE_NXZ 1006ba10 f i libucrtd:output.obj
 0001:0006aa50       ?type_case_o@?$output_processor@_WV?$stream_output_adapter@_W@__crt_stdio_output@@V?$positional_parameter_base@_WV?$stream_output_adapter@_W@__crt_stdio_output@@@2@@__crt_stdio_output@@AAE_NXZ 1006ba50 f i libucrtd:output.obj
 0001:0006aa90       ?type_case_o@?$output_processor@_WV?$stream_output_adapter@_W@__crt_stdio_output@@V?$standard_base@_WV?$stream_output_adapter@_W@__crt_stdio_output@@@2@@__crt_stdio_output@@AAE_NXZ 1006ba90 f i libucrtd:output.obj
 0001:0006aad0       ?type_case_o@?$output_processor@_WV?$string_output_adapter@_W@__crt_stdio_output@@V?$format_validation_base@_WV?$string_output_adapter@_W@__crt_stdio_output@@@2@@__crt_stdio_output@@AAE_NXZ 1006bad0 f i libucrtd:output.obj
 0001:0006ab10       ?type_case_o@?$output_processor@_WV?$string_output_adapter@_W@__crt_stdio_output@@V?$positional_parameter_base@_WV?$string_output_adapter@_W@__crt_stdio_output@@@2@@__crt_stdio_output@@AAE_NXZ 1006bb10 f i libucrtd:output.obj
 0001:0006ab50       ?type_case_o@?$output_processor@_WV?$string_output_adapter@_W@__crt_stdio_output@@V?$standard_base@_WV?$string_output_adapter@_W@__crt_stdio_output@@@2@@__crt_stdio_output@@AAE_NXZ 1006bb50 f i libucrtd:output.obj
 0001:0006ab90       ?type_case_p@?$output_processor@DV?$stream_output_adapter@D@__crt_stdio_output@@V?$format_validation_base@DV?$stream_output_adapter@D@__crt_stdio_output@@@2@@__crt_stdio_output@@AAE_NXZ 1006bb90 f i libucrtd:output.obj
 0001:0006abc0       ?type_case_p@?$output_processor@DV?$stream_output_adapter@D@__crt_stdio_output@@V?$positional_parameter_base@DV?$stream_output_adapter@D@__crt_stdio_output@@@2@@__crt_stdio_output@@AAE_NXZ 1006bbc0 f i libucrtd:output.obj
 0001:0006abf0       ?type_case_p@?$output_processor@DV?$stream_output_adapter@D@__crt_stdio_output@@V?$standard_base@DV?$stream_output_adapter@D@__crt_stdio_output@@@2@@__crt_stdio_output@@AAE_NXZ 1006bbf0 f i libucrtd:output.obj
 0001:0006ac20       ?type_case_p@?$output_processor@DV?$string_output_adapter@D@__crt_stdio_output@@V?$format_validation_base@DV?$string_output_adapter@D@__crt_stdio_output@@@2@@__crt_stdio_output@@AAE_NXZ 1006bc20 f i libucrtd:output.obj
 0001:0006ac50       ?type_case_p@?$output_processor@DV?$string_output_adapter@D@__crt_stdio_output@@V?$positional_parameter_base@DV?$string_output_adapter@D@__crt_stdio_output@@@2@@__crt_stdio_output@@AAE_NXZ 1006bc50 f i libucrtd:output.obj
 0001:0006ac80       ?type_case_p@?$output_processor@DV?$string_output_adapter@D@__crt_stdio_output@@V?$standard_base@DV?$string_output_adapter@D@__crt_stdio_output@@@2@@__crt_stdio_output@@AAE_NXZ 1006bc80 f i libucrtd:output.obj
 0001:0006acb0       ?type_case_p@?$output_processor@_WV?$stream_output_adapter@_W@__crt_stdio_output@@V?$format_validation_base@_WV?$stream_output_adapter@_W@__crt_stdio_output@@@2@@__crt_stdio_output@@AAE_NXZ 1006bcb0 f i libucrtd:output.obj
 0001:0006ace0       ?type_case_p@?$output_processor@_WV?$stream_output_adapter@_W@__crt_stdio_output@@V?$positional_parameter_base@_WV?$stream_output_adapter@_W@__crt_stdio_output@@@2@@__crt_stdio_output@@AAE_NXZ 1006bce0 f i libucrtd:output.obj
 0001:0006ad10       ?type_case_p@?$output_processor@_WV?$stream_output_adapter@_W@__crt_stdio_output@@V?$standard_base@_WV?$stream_output_adapter@_W@__crt_stdio_output@@@2@@__crt_stdio_output@@AAE_NXZ 1006bd10 f i libucrtd:output.obj
 0001:0006ad40       ?type_case_p@?$output_processor@_WV?$string_output_adapter@_W@__crt_stdio_output@@V?$format_validation_base@_WV?$string_output_adapter@_W@__crt_stdio_output@@@2@@__crt_stdio_output@@AAE_NXZ 1006bd40 f i libucrtd:output.obj
 0001:0006ad70       ?type_case_p@?$output_processor@_WV?$string_output_adapter@_W@__crt_stdio_output@@V?$positional_parameter_base@_WV?$string_output_adapter@_W@__crt_stdio_output@@@2@@__crt_stdio_output@@AAE_NXZ 1006bd70 f i libucrtd:output.obj
 0001:0006ada0       ?type_case_p@?$output_processor@_WV?$string_output_adapter@_W@__crt_stdio_output@@V?$standard_base@_WV?$string_output_adapter@_W@__crt_stdio_output@@@2@@__crt_stdio_output@@AAE_NXZ 1006bda0 f i libucrtd:output.obj
 0001:0006add0       ?type_case_s@?$output_processor@DV?$stream_output_adapter@D@__crt_stdio_output@@V?$format_validation_base@DV?$stream_output_adapter@D@__crt_stdio_output@@@2@@__crt_stdio_output@@AAE_NXZ 1006bdd0 f i libucrtd:output.obj
 0001:0006aec0       ?type_case_s@?$output_processor@DV?$stream_output_adapter@D@__crt_stdio_output@@V?$positional_parameter_base@DV?$stream_output_adapter@D@__crt_stdio_output@@@2@@__crt_stdio_output@@AAE_NXZ 1006bec0 f i libucrtd:output.obj
 0001:0006afb0       ?type_case_s@?$output_processor@DV?$stream_output_adapter@D@__crt_stdio_output@@V?$standard_base@DV?$stream_output_adapter@D@__crt_stdio_output@@@2@@__crt_stdio_output@@AAE_NXZ 1006bfb0 f i libucrtd:output.obj
 0001:0006b0a0       ?type_case_s@?$output_processor@DV?$string_output_adapter@D@__crt_stdio_output@@V?$format_validation_base@DV?$string_output_adapter@D@__crt_stdio_output@@@2@@__crt_stdio_output@@AAE_NXZ 1006c0a0 f i libucrtd:output.obj
 0001:0006b190       ?type_case_s@?$output_processor@DV?$string_output_adapter@D@__crt_stdio_output@@V?$positional_parameter_base@DV?$string_output_adapter@D@__crt_stdio_output@@@2@@__crt_stdio_output@@AAE_NXZ 1006c190 f i libucrtd:output.obj
 0001:0006b280       ?type_case_s@?$output_processor@DV?$string_output_adapter@D@__crt_stdio_output@@V?$standard_base@DV?$string_output_adapter@D@__crt_stdio_output@@@2@@__crt_stdio_output@@AAE_NXZ 1006c280 f i libucrtd:output.obj
 0001:0006b370       ?type_case_s@?$output_processor@_WV?$stream_output_adapter@_W@__crt_stdio_output@@V?$format_validation_base@_WV?$stream_output_adapter@_W@__crt_stdio_output@@@2@@__crt_stdio_output@@AAE_NXZ 1006c370 f i libucrtd:output.obj
 0001:0006b460       ?type_case_s@?$output_processor@_WV?$stream_output_adapter@_W@__crt_stdio_output@@V?$positional_parameter_base@_WV?$stream_output_adapter@_W@__crt_stdio_output@@@2@@__crt_stdio_output@@AAE_NXZ 1006c460 f i libucrtd:output.obj
 0001:0006b550       ?type_case_s@?$output_processor@_WV?$stream_output_adapter@_W@__crt_stdio_output@@V?$standard_base@_WV?$stream_output_adapter@_W@__crt_stdio_output@@@2@@__crt_stdio_output@@AAE_NXZ 1006c550 f i libucrtd:output.obj
 0001:0006b640       ?type_case_s@?$output_processor@_WV?$string_output_adapter@_W@__crt_stdio_output@@V?$format_validation_base@_WV?$string_output_adapter@_W@__crt_stdio_output@@@2@@__crt_stdio_output@@AAE_NXZ 1006c640 f i libucrtd:output.obj
 0001:0006b730       ?type_case_s@?$output_processor@_WV?$string_output_adapter@_W@__crt_stdio_output@@V?$positional_parameter_base@_WV?$string_output_adapter@_W@__crt_stdio_output@@@2@@__crt_stdio_output@@AAE_NXZ 1006c730 f i libucrtd:output.obj
 0001:0006b820       ?type_case_s@?$output_processor@_WV?$string_output_adapter@_W@__crt_stdio_output@@V?$standard_base@_WV?$string_output_adapter@_W@__crt_stdio_output@@@2@@__crt_stdio_output@@AAE_NXZ 1006c820 f i libucrtd:output.obj
 0001:0006b910       ?type_case_s_compute_narrow_string_length@?$output_processor@DV?$stream_output_adapter@D@__crt_stdio_output@@V?$format_validation_base@DV?$stream_output_adapter@D@__crt_stdio_output@@@2@@__crt_stdio_output@@AAEHHD@Z 1006c910 f i libucrtd:output.obj
 0001:0006b940       ?type_case_s_compute_narrow_string_length@?$output_processor@DV?$stream_output_adapter@D@__crt_stdio_output@@V?$positional_parameter_base@DV?$stream_output_adapter@D@__crt_stdio_output@@@2@@__crt_stdio_output@@AAEHHD@Z 1006c940 f i libucrtd:output.obj
 0001:0006b970       ?type_case_s_compute_narrow_string_length@?$output_processor@DV?$stream_output_adapter@D@__crt_stdio_output@@V?$standard_base@DV?$stream_output_adapter@D@__crt_stdio_output@@@2@@__crt_stdio_output@@AAEHHD@Z 1006c970 f i libucrtd:output.obj
 0001:0006b9a0       ?type_case_s_compute_narrow_string_length@?$output_processor@DV?$string_output_adapter@D@__crt_stdio_output@@V?$format_validation_base@DV?$string_output_adapter@D@__crt_stdio_output@@@2@@__crt_stdio_output@@AAEHHD@Z 1006c9a0 f i libucrtd:output.obj
 0001:0006b9d0       ?type_case_s_compute_narrow_string_length@?$output_processor@DV?$string_output_adapter@D@__crt_stdio_output@@V?$positional_parameter_base@DV?$string_output_adapter@D@__crt_stdio_output@@@2@@__crt_stdio_output@@AAEHHD@Z 1006c9d0 f i libucrtd:output.obj
 0001:0006ba00       ?type_case_s_compute_narrow_string_length@?$output_processor@DV?$string_output_adapter@D@__crt_stdio_output@@V?$standard_base@DV?$string_output_adapter@D@__crt_stdio_output@@@2@@__crt_stdio_output@@AAEHHD@Z 1006ca00 f i libucrtd:output.obj
 0001:0006ba30       ?type_case_s_compute_narrow_string_length@?$output_processor@_WV?$stream_output_adapter@_W@__crt_stdio_output@@V?$format_validation_base@_WV?$stream_output_adapter@_W@__crt_stdio_output@@@2@@__crt_stdio_output@@AAEHH_W@Z 1006ca30 f i libucrtd:output.obj
 0001:0006bab0       ?type_case_s_compute_narrow_string_length@?$output_processor@_WV?$stream_output_adapter@_W@__crt_stdio_output@@V?$positional_parameter_base@_WV?$stream_output_adapter@_W@__crt_stdio_output@@@2@@__crt_stdio_output@@AAEHH_W@Z 1006cab0 f i libucrtd:output.obj
 0001:0006bb30       ?type_case_s_compute_narrow_string_length@?$output_processor@_WV?$stream_output_adapter@_W@__crt_stdio_output@@V?$standard_base@_WV?$stream_output_adapter@_W@__crt_stdio_output@@@2@@__crt_stdio_output@@AAEHH_W@Z 1006cb30 f i libucrtd:output.obj
 0001:0006bbb0       ?type_case_s_compute_narrow_string_length@?$output_processor@_WV?$string_output_adapter@_W@__crt_stdio_output@@V?$format_validation_base@_WV?$string_output_adapter@_W@__crt_stdio_output@@@2@@__crt_stdio_output@@AAEHH_W@Z 1006cbb0 f i libucrtd:output.obj
 0001:0006bc30       ?type_case_s_compute_narrow_string_length@?$output_processor@_WV?$string_output_adapter@_W@__crt_stdio_output@@V?$positional_parameter_base@_WV?$string_output_adapter@_W@__crt_stdio_output@@@2@@__crt_stdio_output@@AAEHH_W@Z 1006cc30 f i libucrtd:output.obj
 0001:0006bcb0       ?type_case_s_compute_narrow_string_length@?$output_processor@_WV?$string_output_adapter@_W@__crt_stdio_output@@V?$standard_base@_WV?$string_output_adapter@_W@__crt_stdio_output@@@2@@__crt_stdio_output@@AAEHH_W@Z 1006ccb0 f i libucrtd:output.obj
 0001:0006bd30       ?type_case_u@?$output_processor@DV?$stream_output_adapter@D@__crt_stdio_output@@V?$format_validation_base@DV?$stream_output_adapter@D@__crt_stdio_output@@@2@@__crt_stdio_output@@AAE_NXZ 1006cd30 f i libucrtd:output.obj
 0001:0006bd50       ?type_case_u@?$output_processor@DV?$stream_output_adapter@D@__crt_stdio_output@@V?$positional_parameter_base@DV?$stream_output_adapter@D@__crt_stdio_output@@@2@@__crt_stdio_output@@AAE_NXZ 1006cd50 f i libucrtd:output.obj
 0001:0006bd70       ?type_case_u@?$output_processor@DV?$stream_output_adapter@D@__crt_stdio_output@@V?$standard_base@DV?$stream_output_adapter@D@__crt_stdio_output@@@2@@__crt_stdio_output@@AAE_NXZ 1006cd70 f i libucrtd:output.obj
 0001:0006bd90       ?type_case_u@?$output_processor@DV?$string_output_adapter@D@__crt_stdio_output@@V?$format_validation_base@DV?$string_output_adapter@D@__crt_stdio_output@@@2@@__crt_stdio_output@@AAE_NXZ 1006cd90 f i libucrtd:output.obj
 0001:0006bdb0       ?type_case_u@?$output_processor@DV?$string_output_adapter@D@__crt_stdio_output@@V?$positional_parameter_base@DV?$string_output_adapter@D@__crt_stdio_output@@@2@@__crt_stdio_output@@AAE_NXZ 1006cdb0 f i libucrtd:output.obj
 0001:0006bdd0       ?type_case_u@?$output_processor@DV?$string_output_adapter@D@__crt_stdio_output@@V?$standard_base@DV?$string_output_adapter@D@__crt_stdio_output@@@2@@__crt_stdio_output@@AAE_NXZ 1006cdd0 f i libucrtd:output.obj
 0001:0006bdf0       ?type_case_u@?$output_processor@_WV?$stream_output_adapter@_W@__crt_stdio_output@@V?$format_validation_base@_WV?$stream_output_adapter@_W@__crt_stdio_output@@@2@@__crt_stdio_output@@AAE_NXZ 1006cdf0 f i libucrtd:output.obj
 0001:0006be10       ?type_case_u@?$output_processor@_WV?$stream_output_adapter@_W@__crt_stdio_output@@V?$positional_parameter_base@_WV?$stream_output_adapter@_W@__crt_stdio_output@@@2@@__crt_stdio_output@@AAE_NXZ 1006ce10 f i libucrtd:output.obj
 0001:0006be30       ?type_case_u@?$output_processor@_WV?$stream_output_adapter@_W@__crt_stdio_output@@V?$standard_base@_WV?$stream_output_adapter@_W@__crt_stdio_output@@@2@@__crt_stdio_output@@AAE_NXZ 1006ce30 f i libucrtd:output.obj
 0001:0006be50       ?type_case_u@?$output_processor@_WV?$string_output_adapter@_W@__crt_stdio_output@@V?$format_validation_base@_WV?$string_output_adapter@_W@__crt_stdio_output@@@2@@__crt_stdio_output@@AAE_NXZ 1006ce50 f i libucrtd:output.obj
 0001:0006be70       ?type_case_u@?$output_processor@_WV?$string_output_adapter@_W@__crt_stdio_output@@V?$positional_parameter_base@_WV?$string_output_adapter@_W@__crt_stdio_output@@@2@@__crt_stdio_output@@AAE_NXZ 1006ce70 f i libucrtd:output.obj
 0001:0006be90       ?type_case_u@?$output_processor@_WV?$string_output_adapter@_W@__crt_stdio_output@@V?$standard_base@_WV?$string_output_adapter@_W@__crt_stdio_output@@@2@@__crt_stdio_output@@AAE_NXZ 1006ce90 f i libucrtd:output.obj
 0001:0006beb0       ?type_case_x@?$output_processor@DV?$stream_output_adapter@D@__crt_stdio_output@@V?$format_validation_base@DV?$stream_output_adapter@D@__crt_stdio_output@@@2@@__crt_stdio_output@@AAE_NXZ 1006ceb0 f i libucrtd:output.obj
 0001:0006bed0       ?type_case_x@?$output_processor@DV?$stream_output_adapter@D@__crt_stdio_output@@V?$positional_parameter_base@DV?$stream_output_adapter@D@__crt_stdio_output@@@2@@__crt_stdio_output@@AAE_NXZ 1006ced0 f i libucrtd:output.obj
 0001:0006bef0       ?type_case_x@?$output_processor@DV?$stream_output_adapter@D@__crt_stdio_output@@V?$standard_base@DV?$stream_output_adapter@D@__crt_stdio_output@@@2@@__crt_stdio_output@@AAE_NXZ 1006cef0 f i libucrtd:output.obj
 0001:0006bf10       ?type_case_x@?$output_processor@DV?$string_output_adapter@D@__crt_stdio_output@@V?$format_validation_base@DV?$string_output_adapter@D@__crt_stdio_output@@@2@@__crt_stdio_output@@AAE_NXZ 1006cf10 f i libucrtd:output.obj
 0001:0006bf30       ?type_case_x@?$output_processor@DV?$string_output_adapter@D@__crt_stdio_output@@V?$positional_parameter_base@DV?$string_output_adapter@D@__crt_stdio_output@@@2@@__crt_stdio_output@@AAE_NXZ 1006cf30 f i libucrtd:output.obj
 0001:0006bf50       ?type_case_x@?$output_processor@DV?$string_output_adapter@D@__crt_stdio_output@@V?$standard_base@DV?$string_output_adapter@D@__crt_stdio_output@@@2@@__crt_stdio_output@@AAE_NXZ 1006cf50 f i libucrtd:output.obj
 0001:0006bf70       ?type_case_x@?$output_processor@_WV?$stream_output_adapter@_W@__crt_stdio_output@@V?$format_validation_base@_WV?$stream_output_adapter@_W@__crt_stdio_output@@@2@@__crt_stdio_output@@AAE_NXZ 1006cf70 f i libucrtd:output.obj
 0001:0006bf90       ?type_case_x@?$output_processor@_WV?$stream_output_adapter@_W@__crt_stdio_output@@V?$positional_parameter_base@_WV?$stream_output_adapter@_W@__crt_stdio_output@@@2@@__crt_stdio_output@@AAE_NXZ 1006cf90 f i libucrtd:output.obj
 0001:0006bfb0       ?type_case_x@?$output_processor@_WV?$stream_output_adapter@_W@__crt_stdio_output@@V?$standard_base@_WV?$stream_output_adapter@_W@__crt_stdio_output@@@2@@__crt_stdio_output@@AAE_NXZ 1006cfb0 f i libucrtd:output.obj
 0001:0006bfd0       ?type_case_x@?$output_processor@_WV?$string_output_adapter@_W@__crt_stdio_output@@V?$format_validation_base@_WV?$string_output_adapter@_W@__crt_stdio_output@@@2@@__crt_stdio_output@@AAE_NXZ 1006cfd0 f i libucrtd:output.obj
 0001:0006bff0       ?type_case_x@?$output_processor@_WV?$string_output_adapter@_W@__crt_stdio_output@@V?$positional_parameter_base@_WV?$string_output_adapter@_W@__crt_stdio_output@@@2@@__crt_stdio_output@@AAE_NXZ 1006cff0 f i libucrtd:output.obj
 0001:0006c010       ?type_case_x@?$output_processor@_WV?$string_output_adapter@_W@__crt_stdio_output@@V?$standard_base@_WV?$string_output_adapter@_W@__crt_stdio_output@@@2@@__crt_stdio_output@@AAE_NXZ 1006d010 f i libucrtd:output.obj
 0001:0006c030       ?unget@?$c_string_character_source@D@__crt_strtox@@QAEXD@Z 1006d030 f i libucrtd:output.obj
 0001:0006c0e0       ?unget@?$c_string_character_source@_W@__crt_strtox@@QAEX_W@Z 1006d0e0 f i libucrtd:output.obj
 0001:0006c190       ?unsafe_value@?$cached@H@__crt_cached_ptd_host@@QAEHXZ 1006d190 f i libucrtd:output.obj
 0001:0006c1b0       ?unsafe_value@?$cached@K@__crt_cached_ptd_host@@QAEKXZ 1006d1b0 f i libucrtd:output.obj
 0001:0006c1d0       ?unset_flag@?$output_processor@DV?$stream_output_adapter@D@__crt_stdio_output@@V?$format_validation_base@DV?$stream_output_adapter@D@__crt_stdio_output@@@2@@__crt_stdio_output@@AAEXI@Z 1006d1d0 f i libucrtd:output.obj
 0001:0006c1f0       ?unset_flag@?$output_processor@DV?$stream_output_adapter@D@__crt_stdio_output@@V?$positional_parameter_base@DV?$stream_output_adapter@D@__crt_stdio_output@@@2@@__crt_stdio_output@@AAEXI@Z 1006d1f0 f i libucrtd:output.obj
 0001:0006c210       ?unset_flag@?$output_processor@DV?$stream_output_adapter@D@__crt_stdio_output@@V?$standard_base@DV?$stream_output_adapter@D@__crt_stdio_output@@@2@@__crt_stdio_output@@AAEXI@Z 1006d210 f i libucrtd:output.obj
 0001:0006c230       ?unset_flag@?$output_processor@DV?$string_output_adapter@D@__crt_stdio_output@@V?$format_validation_base@DV?$string_output_adapter@D@__crt_stdio_output@@@2@@__crt_stdio_output@@AAEXI@Z 1006d230 f i libucrtd:output.obj
 0001:0006c250       ?unset_flag@?$output_processor@DV?$string_output_adapter@D@__crt_stdio_output@@V?$positional_parameter_base@DV?$string_output_adapter@D@__crt_stdio_output@@@2@@__crt_stdio_output@@AAEXI@Z 1006d250 f i libucrtd:output.obj
 0001:0006c270       ?unset_flag@?$output_processor@DV?$string_output_adapter@D@__crt_stdio_output@@V?$standard_base@DV?$string_output_adapter@D@__crt_stdio_output@@@2@@__crt_stdio_output@@AAEXI@Z 1006d270 f i libucrtd:output.obj
 0001:0006c290       ?unset_flag@?$output_processor@_WV?$stream_output_adapter@_W@__crt_stdio_output@@V?$format_validation_base@_WV?$stream_output_adapter@_W@__crt_stdio_output@@@2@@__crt_stdio_output@@AAEXI@Z 1006d290 f i libucrtd:output.obj
 0001:0006c2b0       ?unset_flag@?$output_processor@_WV?$stream_output_adapter@_W@__crt_stdio_output@@V?$positional_parameter_base@_WV?$stream_output_adapter@_W@__crt_stdio_output@@@2@@__crt_stdio_output@@AAEXI@Z 1006d2b0 f i libucrtd:output.obj
 0001:0006c2d0       ?unset_flag@?$output_processor@_WV?$stream_output_adapter@_W@__crt_stdio_output@@V?$standard_base@_WV?$stream_output_adapter@_W@__crt_stdio_output@@@2@@__crt_stdio_output@@AAEXI@Z 1006d2d0 f i libucrtd:output.obj
 0001:0006c2f0       ?unset_flag@?$output_processor@_WV?$string_output_adapter@_W@__crt_stdio_output@@V?$format_validation_base@_WV?$string_output_adapter@_W@__crt_stdio_output@@@2@@__crt_stdio_output@@AAEXI@Z 1006d2f0 f i libucrtd:output.obj
 0001:0006c310       ?unset_flag@?$output_processor@_WV?$string_output_adapter@_W@__crt_stdio_output@@V?$positional_parameter_base@_WV?$string_output_adapter@_W@__crt_stdio_output@@@2@@__crt_stdio_output@@AAEXI@Z 1006d310 f i libucrtd:output.obj
 0001:0006c330       ?unset_flag@?$output_processor@_WV?$string_output_adapter@_W@__crt_stdio_output@@V?$standard_base@_WV?$string_output_adapter@_W@__crt_stdio_output@@@2@@__crt_stdio_output@@AAEXI@Z 1006d330 f i libucrtd:output.obj
 0001:0006c350       ?update_field_width@?$positional_parameter_base@DV?$stream_output_adapter@D@__crt_stdio_output@@@__crt_stdio_output@@IAE_NXZ 1006d350 f i libucrtd:output.obj
 0001:0006c4e0       ?update_field_width@?$positional_parameter_base@DV?$string_output_adapter@D@__crt_stdio_output@@@__crt_stdio_output@@IAE_NXZ 1006d4e0 f i libucrtd:output.obj
 0001:0006c670       ?update_field_width@?$positional_parameter_base@_WV?$stream_output_adapter@_W@__crt_stdio_output@@@__crt_stdio_output@@IAE_NXZ 1006d670 f i libucrtd:output.obj
 0001:0006c800       ?update_field_width@?$positional_parameter_base@_WV?$string_output_adapter@_W@__crt_stdio_output@@@__crt_stdio_output@@IAE_NXZ 1006d800 f i libucrtd:output.obj
 0001:0006c990       ?update_field_width@?$standard_base@DV?$stream_output_adapter@D@__crt_stdio_output@@@__crt_stdio_output@@IAE_NXZ 1006d990 f i libucrtd:output.obj
 0001:0006c9c0       ?update_field_width@?$standard_base@DV?$string_output_adapter@D@__crt_stdio_output@@@__crt_stdio_output@@IAE_NXZ 1006d9c0 f i libucrtd:output.obj
 0001:0006c9f0       ?update_field_width@?$standard_base@_WV?$stream_output_adapter@_W@__crt_stdio_output@@@__crt_stdio_output@@IAE_NXZ 1006d9f0 f i libucrtd:output.obj
 0001:0006ca20       ?update_field_width@?$standard_base@_WV?$string_output_adapter@_W@__crt_stdio_output@@@__crt_stdio_output@@IAE_NXZ 1006da20 f i libucrtd:output.obj
 0001:0006ca50       ?update_locale@__crt_cached_ptd_host@@AAEXXZ 1006da50 f i libucrtd:output.obj
 0001:0006ca70       ?update_locale_slow@__crt_cached_ptd_host@@AAEXXZ 1006da70 f i libucrtd:output.obj
 0001:0006cb00       ?update_precision@?$positional_parameter_base@DV?$stream_output_adapter@D@__crt_stdio_output@@@__crt_stdio_output@@IAE_NXZ 1006db00 f i libucrtd:output.obj
 0001:0006cc90       ?update_precision@?$positional_parameter_base@DV?$string_output_adapter@D@__crt_stdio_output@@@__crt_stdio_output@@IAE_NXZ 1006dc90 f i libucrtd:output.obj
 0001:0006ce20       ?update_precision@?$positional_parameter_base@_WV?$stream_output_adapter@_W@__crt_stdio_output@@@__crt_stdio_output@@IAE_NXZ 1006de20 f i libucrtd:output.obj
 0001:0006cfb0       ?update_precision@?$positional_parameter_base@_WV?$string_output_adapter@_W@__crt_stdio_output@@@__crt_stdio_output@@IAE_NXZ 1006dfb0 f i libucrtd:output.obj
 0001:0006d140       ?update_precision@?$standard_base@DV?$stream_output_adapter@D@__crt_stdio_output@@@__crt_stdio_output@@IAE_NXZ 1006e140 f i libucrtd:output.obj
 0001:0006d170       ?update_precision@?$standard_base@DV?$string_output_adapter@D@__crt_stdio_output@@@__crt_stdio_output@@IAE_NXZ 1006e170 f i libucrtd:output.obj
 0001:0006d1a0       ?update_precision@?$standard_base@_WV?$stream_output_adapter@_W@__crt_stdio_output@@@__crt_stdio_output@@IAE_NXZ 1006e1a0 f i libucrtd:output.obj
 0001:0006d1d0       ?update_precision@?$standard_base@_WV?$string_output_adapter@_W@__crt_stdio_output@@@__crt_stdio_output@@IAE_NXZ 1006e1d0 f i libucrtd:output.obj
 0001:0006d200       ?valid@?$cached@H@__crt_cached_ptd_host@@QBE_NXZ 1006e200 f i libucrtd:output.obj
 0001:0006d220       ?valid@?$cached@K@__crt_cached_ptd_host@@QBE_NXZ 1006e220 f i libucrtd:output.obj
 0001:0006d240       ?valid@__crt_stdio_stream@@QBE_NXZ 1006e240 f i libucrtd:output.obj
 0001:0006d270       ?validate@?$c_string_character_source@D@__crt_strtox@@QBE_NXZ 1006e270 f i libucrtd:output.obj
 0001:0006d300       ?validate@?$c_string_character_source@_W@__crt_strtox@@QBE_NXZ 1006e300 f i libucrtd:output.obj
 0001:0006d390       ?validate@?$stream_output_adapter@D@__crt_stdio_output@@QBE_NAAV__crt_cached_ptd_host@@@Z 1006e390 f i libucrtd:output.obj
 0001:0006d450       ?validate@?$stream_output_adapter@_W@__crt_stdio_output@@QBE_NAAV__crt_cached_ptd_host@@@Z 1006e450 f i libucrtd:output.obj
 0001:0006d510       ?validate@?$string_output_adapter@D@__crt_stdio_output@@QBE_NAAV__crt_cached_ptd_host@@@Z 1006e510 f i libucrtd:output.obj
 0001:0006d5b0       ?validate@?$string_output_adapter@_W@__crt_stdio_output@@QBE_NAAV__crt_cached_ptd_host@@@Z 1006e5b0 f i libucrtd:output.obj
 0001:0006d650       ?validate_and_store_parameter_data@?$positional_parameter_base@DV?$stream_output_adapter@D@__crt_stdio_output@@@__crt_stdio_output@@AAE_NAAUparameter_data@12@W4parameter_type@12@DW4length_modifier@2@@Z 1006e650 f i libucrtd:output.obj
 0001:0006d740       ?validate_and_store_parameter_data@?$positional_parameter_base@DV?$string_output_adapter@D@__crt_stdio_output@@@__crt_stdio_output@@AAE_NAAUparameter_data@12@W4parameter_type@12@DW4length_modifier@2@@Z 1006e740 f i libucrtd:output.obj
 0001:0006d830       ?validate_and_store_parameter_data@?$positional_parameter_base@_WV?$stream_output_adapter@_W@__crt_stdio_output@@@__crt_stdio_output@@AAE_NAAUparameter_data@12@W4parameter_type@12@_WW4length_modifier@2@@Z 1006e830 f i libucrtd:output.obj
 0001:0006d920       ?validate_and_store_parameter_data@?$positional_parameter_base@_WV?$string_output_adapter@_W@__crt_stdio_output@@@__crt_stdio_output@@AAE_NAAUparameter_data@12@W4parameter_type@12@_WW4length_modifier@2@@Z 1006e920 f i libucrtd:output.obj
 0001:0006da10       ?validate_and_update_state_at_beginning_of_format_character@?$positional_parameter_base@DV?$stream_output_adapter@D@__crt_stdio_output@@@__crt_stdio_output@@IAE_NXZ 1006ea10 f i libucrtd:output.obj
 0001:0006dc40       ?validate_and_update_state_at_beginning_of_format_character@?$positional_parameter_base@DV?$string_output_adapter@D@__crt_stdio_output@@@__crt_stdio_output@@IAE_NXZ 1006ec40 f i libucrtd:output.obj
 0001:0006de70       ?validate_and_update_state_at_beginning_of_format_character@?$positional_parameter_base@_WV?$stream_output_adapter@_W@__crt_stdio_output@@@__crt_stdio_output@@IAE_NXZ 1006ee70 f i libucrtd:output.obj
 0001:0006e0a0       ?validate_and_update_state_at_beginning_of_format_character@?$positional_parameter_base@_WV?$string_output_adapter@_W@__crt_stdio_output@@@__crt_stdio_output@@IAE_NXZ 1006f0a0 f i libucrtd:output.obj
 0001:0006e2d0       ?validate_and_update_state_at_beginning_of_format_character@?$standard_base@DV?$stream_output_adapter@D@__crt_stdio_output@@@__crt_stdio_output@@IAE_NXZ 1006f2d0 f i libucrtd:output.obj
 0001:0006e2e0       ?validate_and_update_state_at_beginning_of_format_character@?$standard_base@DV?$string_output_adapter@D@__crt_stdio_output@@@__crt_stdio_output@@IAE_NXZ 1006f2e0 f i libucrtd:output.obj
 0001:0006e2f0       ?validate_and_update_state_at_beginning_of_format_character@?$standard_base@_WV?$stream_output_adapter@_W@__crt_stdio_output@@@__crt_stdio_output@@IAE_NXZ 1006f2f0 f i libucrtd:output.obj
 0001:0006e300       ?validate_and_update_state_at_beginning_of_format_character@?$standard_base@_WV?$string_output_adapter@_W@__crt_stdio_output@@@__crt_stdio_output@@IAE_NXZ 1006f300 f i libucrtd:output.obj
 0001:0006e310       ?validate_and_update_state_at_end_of_format_string@?$format_validation_base@DV?$stream_output_adapter@D@__crt_stdio_output@@@__crt_stdio_output@@IAE_NXZ 1006f310 f i libucrtd:output.obj
 0001:0006e3c0       ?validate_and_update_state_at_end_of_format_string@?$format_validation_base@DV?$string_output_adapter@D@__crt_stdio_output@@@__crt_stdio_output@@IAE_NXZ 1006f3c0 f i libucrtd:output.obj
 0001:0006e470       ?validate_and_update_state_at_end_of_format_string@?$format_validation_base@_WV?$stream_output_adapter@_W@__crt_stdio_output@@@__crt_stdio_output@@IAE_NXZ 1006f470 f i libucrtd:output.obj
 0001:0006e520       ?validate_and_update_state_at_end_of_format_string@?$format_validation_base@_WV?$string_output_adapter@_W@__crt_stdio_output@@@__crt_stdio_output@@IAE_NXZ 1006f520 f i libucrtd:output.obj
 0001:0006e5d0       ?validate_and_update_state_at_end_of_format_string@?$positional_parameter_base@DV?$stream_output_adapter@D@__crt_stdio_output@@@__crt_stdio_output@@IAE_NXZ 1006f5d0 f i libucrtd:output.obj
 0001:0006e780       ?validate_and_update_state_at_end_of_format_string@?$positional_parameter_base@DV?$string_output_adapter@D@__crt_stdio_output@@@__crt_stdio_output@@IAE_NXZ 1006f780 f i libucrtd:output.obj
 0001:0006e930       ?validate_and_update_state_at_end_of_format_string@?$positional_parameter_base@_WV?$stream_output_adapter@_W@__crt_stdio_output@@@__crt_stdio_output@@IAE_NXZ 1006f930 f i libucrtd:output.obj
 0001:0006eae0       ?validate_and_update_state_at_end_of_format_string@?$positional_parameter_base@_WV?$string_output_adapter@_W@__crt_stdio_output@@@__crt_stdio_output@@IAE_NXZ 1006fae0 f i libucrtd:output.obj
 0001:0006ec90       ?validate_and_update_state_at_end_of_format_string@?$standard_base@DV?$stream_output_adapter@D@__crt_stdio_output@@@__crt_stdio_output@@IBE_NXZ 1006fc90 f i libucrtd:output.obj
 0001:0006eca0       ?validate_and_update_state_at_end_of_format_string@?$standard_base@DV?$string_output_adapter@D@__crt_stdio_output@@@__crt_stdio_output@@IBE_NXZ 1006fca0 f i libucrtd:output.obj
 0001:0006ecb0       ?validate_and_update_state_at_end_of_format_string@?$standard_base@_WV?$stream_output_adapter@_W@__crt_stdio_output@@@__crt_stdio_output@@IBE_NXZ 1006fcb0 f i libucrtd:output.obj
 0001:0006ecc0       ?validate_and_update_state_at_end_of_format_string@?$standard_base@_WV?$string_output_adapter@_W@__crt_stdio_output@@@__crt_stdio_output@@IBE_NXZ 1006fcc0 f i libucrtd:output.obj
 0001:0006ecd0       ?validate_state_for_type_case_a@?$positional_parameter_base@DV?$stream_output_adapter@D@__crt_stdio_output@@@__crt_stdio_output@@IAE_NXZ 1006fcd0 f i libucrtd:output.obj
 0001:0006ede0       ?validate_state_for_type_case_a@?$positional_parameter_base@DV?$string_output_adapter@D@__crt_stdio_output@@@__crt_stdio_output@@IAE_NXZ 1006fde0 f i libucrtd:output.obj
 0001:0006eef0       ?validate_state_for_type_case_a@?$positional_parameter_base@_WV?$stream_output_adapter@_W@__crt_stdio_output@@@__crt_stdio_output@@IAE_NXZ 1006fef0 f i libucrtd:output.obj
 0001:0006f000       ?validate_state_for_type_case_a@?$positional_parameter_base@_WV?$string_output_adapter@_W@__crt_stdio_output@@@__crt_stdio_output@@IAE_NXZ 10070000 f i libucrtd:output.obj
 0001:0006f110       ?validate_state_for_type_case_a@?$standard_base@DV?$stream_output_adapter@D@__crt_stdio_output@@@__crt_stdio_output@@IBE_NXZ 10070110 f i libucrtd:output.obj
 0001:0006f120       ?validate_state_for_type_case_a@?$standard_base@DV?$string_output_adapter@D@__crt_stdio_output@@@__crt_stdio_output@@IBE_NXZ 10070120 f i libucrtd:output.obj
 0001:0006f130       ?validate_state_for_type_case_a@?$standard_base@_WV?$stream_output_adapter@_W@__crt_stdio_output@@@__crt_stdio_output@@IBE_NXZ 10070130 f i libucrtd:output.obj
 0001:0006f140       ?validate_state_for_type_case_a@?$standard_base@_WV?$string_output_adapter@_W@__crt_stdio_output@@@__crt_stdio_output@@IBE_NXZ 10070140 f i libucrtd:output.obj
 0001:0006f150       ?validate_stream_is_ansi_if_required@?$__acrt_stdio_char_traits@D@@SA_NQAU_iobuf@@@Z 10070150 f i libucrtd:output.obj
 0001:0006f280       ?validate_stream_is_ansi_if_required@?$__acrt_stdio_char_traits@_W@@SA_NQAU_iobuf@@@Z 10070280 f i libucrtd:output.obj
 0001:0006f290       ?wide_character_to_digit@__crt_strtox@@YAH_W@Z 10070290 f i libucrtd:output.obj
 0001:0006f5c0       ?wide_null_string@?$output_processor@DV?$stream_output_adapter@D@__crt_stdio_output@@V?$format_validation_base@DV?$stream_output_adapter@D@__crt_stdio_output@@@2@@__crt_stdio_output@@CAPA_WXZ 100705c0 f i libucrtd:output.obj
 0001:0006f5d0       ?wide_null_string@?$output_processor@DV?$stream_output_adapter@D@__crt_stdio_output@@V?$positional_parameter_base@DV?$stream_output_adapter@D@__crt_stdio_output@@@2@@__crt_stdio_output@@CAPA_WXZ 100705d0 f i libucrtd:output.obj
 0001:0006f5e0       ?wide_null_string@?$output_processor@DV?$stream_output_adapter@D@__crt_stdio_output@@V?$standard_base@DV?$stream_output_adapter@D@__crt_stdio_output@@@2@@__crt_stdio_output@@CAPA_WXZ 100705e0 f i libucrtd:output.obj
 0001:0006f5f0       ?wide_null_string@?$output_processor@DV?$string_output_adapter@D@__crt_stdio_output@@V?$format_validation_base@DV?$string_output_adapter@D@__crt_stdio_output@@@2@@__crt_stdio_output@@CAPA_WXZ 100705f0 f i libucrtd:output.obj
 0001:0006f600       ?wide_null_string@?$output_processor@DV?$string_output_adapter@D@__crt_stdio_output@@V?$positional_parameter_base@DV?$string_output_adapter@D@__crt_stdio_output@@@2@@__crt_stdio_output@@CAPA_WXZ 10070600 f i libucrtd:output.obj
 0001:0006f610       ?wide_null_string@?$output_processor@DV?$string_output_adapter@D@__crt_stdio_output@@V?$standard_base@DV?$string_output_adapter@D@__crt_stdio_output@@@2@@__crt_stdio_output@@CAPA_WXZ 10070610 f i libucrtd:output.obj
 0001:0006f620       ?wide_null_string@?$output_processor@_WV?$stream_output_adapter@_W@__crt_stdio_output@@V?$format_validation_base@_WV?$stream_output_adapter@_W@__crt_stdio_output@@@2@@__crt_stdio_output@@CAPA_WXZ 10070620 f i libucrtd:output.obj
 0001:0006f630       ?wide_null_string@?$output_processor@_WV?$stream_output_adapter@_W@__crt_stdio_output@@V?$positional_parameter_base@_WV?$stream_output_adapter@_W@__crt_stdio_output@@@2@@__crt_stdio_output@@CAPA_WXZ 10070630 f i libucrtd:output.obj
 0001:0006f640       ?wide_null_string@?$output_processor@_WV?$stream_output_adapter@_W@__crt_stdio_output@@V?$standard_base@_WV?$stream_output_adapter@_W@__crt_stdio_output@@@2@@__crt_stdio_output@@CAPA_WXZ 10070640 f i libucrtd:output.obj
 0001:0006f650       ?wide_null_string@?$output_processor@_WV?$string_output_adapter@_W@__crt_stdio_output@@V?$format_validation_base@_WV?$string_output_adapter@_W@__crt_stdio_output@@@2@@__crt_stdio_output@@CAPA_WXZ 10070650 f i libucrtd:output.obj
 0001:0006f660       ?wide_null_string@?$output_processor@_WV?$string_output_adapter@_W@__crt_stdio_output@@V?$positional_parameter_base@_WV?$string_output_adapter@_W@__crt_stdio_output@@@2@@__crt_stdio_output@@CAPA_WXZ 10070660 f i libucrtd:output.obj
 0001:0006f670       ?wide_null_string@?$output_processor@_WV?$string_output_adapter@_W@__crt_stdio_output@@V?$standard_base@_WV?$string_output_adapter@_W@__crt_stdio_output@@@2@@__crt_stdio_output@@CAPA_WXZ 10070670 f i libucrtd:output.obj
 0001:0006f680       ?write_character@?$output_adapter_common@DV?$stream_output_adapter@D@__crt_stdio_output@@@__crt_stdio_output@@QBEXDQAHAAV__crt_cached_ptd_host@@@Z 10070680 f i libucrtd:output.obj
 0001:0006f6c0       ?write_character@?$output_adapter_common@_WV?$stream_output_adapter@_W@__crt_stdio_output@@@__crt_stdio_output@@QBEX_WQAHAAV__crt_cached_ptd_host@@@Z 100706c0 f i libucrtd:output.obj
 0001:0006f700       ?write_character@?$string_output_adapter@D@__crt_stdio_output@@QBE_NDQAHAAV__crt_cached_ptd_host@@@Z 10070700 f i libucrtd:output.obj
 0001:0006f790       ?write_character@?$string_output_adapter@_W@__crt_stdio_output@@QBE_N_WQAHAAV__crt_cached_ptd_host@@@Z 10070790 f i libucrtd:output.obj
 0001:0006f830       ?write_character_without_count_update@?$stream_output_adapter@D@__crt_stdio_output@@QBE_NDAAV__crt_cached_ptd_host@@@Z 10070830 f i libucrtd:output.obj
 0001:0006f8a0       ?write_character_without_count_update@?$stream_output_adapter@_W@__crt_stdio_output@@QBE_N_WAAV__crt_cached_ptd_host@@@Z 100708a0 f i libucrtd:output.obj
 0001:0006f910       ?write_stored_string_tchar@?$output_processor@DV?$stream_output_adapter@D@__crt_stdio_output@@V?$format_validation_base@DV?$stream_output_adapter@D@__crt_stdio_output@@@2@@__crt_stdio_output@@AAE_ND@Z 10070910 f i libucrtd:output.obj
 0001:0006fa30       ?write_stored_string_tchar@?$output_processor@DV?$stream_output_adapter@D@__crt_stdio_output@@V?$positional_parameter_base@DV?$stream_output_adapter@D@__crt_stdio_output@@@2@@__crt_stdio_output@@AAE_ND@Z 10070a30 f i libucrtd:output.obj
 0001:0006fb50       ?write_stored_string_tchar@?$output_processor@DV?$stream_output_adapter@D@__crt_stdio_output@@V?$standard_base@DV?$stream_output_adapter@D@__crt_stdio_output@@@2@@__crt_stdio_output@@AAE_ND@Z 10070b50 f i libucrtd:output.obj
 0001:0006fc70       ?write_stored_string_tchar@?$output_processor@DV?$string_output_adapter@D@__crt_stdio_output@@V?$format_validation_base@DV?$string_output_adapter@D@__crt_stdio_output@@@2@@__crt_stdio_output@@AAE_ND@Z 10070c70 f i libucrtd:output.obj
 0001:0006fd90       ?write_stored_string_tchar@?$output_processor@DV?$string_output_adapter@D@__crt_stdio_output@@V?$positional_parameter_base@DV?$string_output_adapter@D@__crt_stdio_output@@@2@@__crt_stdio_output@@AAE_ND@Z 10070d90 f i libucrtd:output.obj
 0001:0006feb0       ?write_stored_string_tchar@?$output_processor@DV?$string_output_adapter@D@__crt_stdio_output@@V?$standard_base@DV?$string_output_adapter@D@__crt_stdio_output@@@2@@__crt_stdio_output@@AAE_ND@Z 10070eb0 f i libucrtd:output.obj
 0001:0006ffd0       ?write_stored_string_tchar@?$output_processor@_WV?$stream_output_adapter@_W@__crt_stdio_output@@V?$format_validation_base@_WV?$stream_output_adapter@_W@__crt_stdio_output@@@2@@__crt_stdio_output@@AAE_N_W@Z 10070fd0 f i libucrtd:output.obj
 0001:000700e0       ?write_stored_string_tchar@?$output_processor@_WV?$stream_output_adapter@_W@__crt_stdio_output@@V?$positional_parameter_base@_WV?$stream_output_adapter@_W@__crt_stdio_output@@@2@@__crt_stdio_output@@AAE_N_W@Z 100710e0 f i libucrtd:output.obj
 0001:000701f0       ?write_stored_string_tchar@?$output_processor@_WV?$stream_output_adapter@_W@__crt_stdio_output@@V?$standard_base@_WV?$stream_output_adapter@_W@__crt_stdio_output@@@2@@__crt_stdio_output@@AAE_N_W@Z 100711f0 f i libucrtd:output.obj
 0001:00070300       ?write_stored_string_tchar@?$output_processor@_WV?$string_output_adapter@_W@__crt_stdio_output@@V?$format_validation_base@_WV?$string_output_adapter@_W@__crt_stdio_output@@@2@@__crt_stdio_output@@AAE_N_W@Z 10071300 f i libucrtd:output.obj
 0001:00070410       ?write_stored_string_tchar@?$output_processor@_WV?$string_output_adapter@_W@__crt_stdio_output@@V?$positional_parameter_base@_WV?$string_output_adapter@_W@__crt_stdio_output@@@2@@__crt_stdio_output@@AAE_N_W@Z 10071410 f i libucrtd:output.obj
 0001:00070520       ?write_stored_string_tchar@?$output_processor@_WV?$string_output_adapter@_W@__crt_stdio_output@@V?$standard_base@_WV?$string_output_adapter@_W@__crt_stdio_output@@@2@@__crt_stdio_output@@AAE_N_W@Z 10071520 f i libucrtd:output.obj
 0001:00070630       ?write_string@?$stream_output_adapter@D@__crt_stdio_output@@QBEXQBDHQAHAAV__crt_cached_ptd_host@@@Z 10071630 f i libucrtd:output.obj
 0001:00070690       ?write_string@?$stream_output_adapter@_W@__crt_stdio_output@@QBEXQB_WHQAHAAV__crt_cached_ptd_host@@@Z 10071690 f i libucrtd:output.obj
 0001:000706f0       ?write_string@?$string_output_adapter@D@__crt_stdio_output@@QBEXQBDHQAHAAV__crt_cached_ptd_host@@@Z 100716f0 f i libucrtd:output.obj
 0001:000707f0       ?write_string@?$string_output_adapter@_W@__crt_stdio_output@@QBEXQB_WHQAHAAV__crt_cached_ptd_host@@@Z 100717f0 f i libucrtd:output.obj
 0001:00070900       ?write_string_impl@?$output_adapter_common@DV?$stream_output_adapter@D@__crt_stdio_output@@@__crt_stdio_output@@IBEXQBDHQAHAAV__crt_cached_ptd_host@@@Z 10071900 f i libucrtd:output.obj
 0001:000709c0       ?write_string_impl@?$output_adapter_common@_WV?$stream_output_adapter@_W@__crt_stdio_output@@@__crt_stdio_output@@IBEXQB_WHQAHAAV__crt_cached_ptd_host@@@Z 100719c0 f i libucrtd:output.obj
 0001:00070a80       ___acrt_disable_global_locale_sync 10071a80 f i libucrtd:output.obj
 0001:00070aa0       ___acrt_enable_global_locale_sync 10071aa0 f i libucrtd:output.obj
 0001:00070ac0       ___acrt_isleadbyte_l_noupdate 10071ac0 f i libucrtd:output.obj
 0001:00070ae0       ___acrt_locale_changed     10071ae0 f i libucrtd:output.obj
 0001:00070b10       ___acrt_locale_get_ctype_array_value 10071b10 f i libucrtd:output.obj
 0001:00070b40       ___ascii_iswalpha          10071b40 f i libucrtd:output.obj
 0001:00070b80       ___ascii_toupper           10071b80 f i libucrtd:output.obj
 0001:00070ba0       ___ascii_towupper          10071ba0 f i libucrtd:output.obj
 0001:00070bc0       ___stdio_common_vfprintf   10071bc0 f   libucrtd:output.obj
 0001:00070c10       ___stdio_common_vfprintf_p 10071c10 f   libucrtd:output.obj
 0001:00070c60       ___stdio_common_vfprintf_s 10071c60 f   libucrtd:output.obj
 0001:00070cb0       ___stdio_common_vfwprintf  10071cb0 f   libucrtd:output.obj
 0001:00070d00       ___stdio_common_vfwprintf_p 10071d00 f   libucrtd:output.obj
 0001:00070d50       ___stdio_common_vfwprintf_s 10071d50 f   libucrtd:output.obj
 0001:00070da0       ___stdio_common_vsnprintf_s 10071da0 f   libucrtd:output.obj
 0001:00070df0       ___stdio_common_vsnwprintf_s 10071df0 f   libucrtd:output.obj
 0001:00070e40       ___stdio_common_vsprintf   10071e40 f   libucrtd:output.obj
 0001:00070e90       ___stdio_common_vsprintf_p 10071e90 f   libucrtd:output.obj
 0001:00070ee0       ___stdio_common_vsprintf_s 10071ee0 f   libucrtd:output.obj
 0001:00070f30       ___stdio_common_vswprintf  10071f30 f   libucrtd:output.obj
 0001:00070f80       ___stdio_common_vswprintf_p 10071f80 f   libucrtd:output.obj
 0001:00070fd0       ___stdio_common_vswprintf_s 10071fd0 f   libucrtd:output.obj
 0001:00071020       __ctype_fast_check_internal 10072020 f i libucrtd:output.obj
 0001:00071040       __isdigit_fast_internal    10072040 f i libucrtd:output.obj
 0001:00071060       __tolower_fast_internal    10072060 f i libucrtd:output.obj
 0001:00071080       _free                      10072080 f   libucrtd:free.obj
 0001:000710b0       _malloc                    100720b0 f   libucrtd:malloc.obj
 0001:000710d0       ??$?RU?$__crt_report_hook_node@D@@@__crt_internal_free_policy@@QBEXQBU?$__crt_report_hook_node@D@@@Z 100720d0 f i libucrtd:dbgrpt.obj
 0001:000710f0       ??$?RU?$__crt_report_hook_node@_W@@@__crt_internal_free_policy@@QBEXQBU?$__crt_report_hook_node@_W@@@Z 100720f0 f i libucrtd:dbgrpt.obj
 0001:00071fc0       ??$get_module_file_name@AAPAUHINSTANCE__@@AAY0BAF@DK@?$__crt_char_traits@D@@SAKAAPAUHINSTANCE__@@AAY0BAF@D$$QAK@Z 10072fc0 f i libucrtd:dbgrpt.obj
 0001:00071fe0       ??$get_module_file_name@AAPAUHINSTANCE__@@AAY0BAF@_WK@?$__crt_char_traits@_W@@SAKAAPAUHINSTANCE__@@AAY0BAF@_W$$QAK@Z 10072fe0 f i libucrtd:dbgrpt.obj
 0001:00072000       ??$tcscpy_s@AAY0BAF@DIPBD@?$__crt_char_traits@D@@SAHAAY0BAF@D$$QAI$$QAPBD@Z 10073000 f i libucrtd:dbgrpt.obj
 0001:00072020       ??$tcscpy_s@AAY0BAF@_WIPB_W@?$__crt_char_traits@_W@@SAHAAY0BAF@_W$$QAI$$QAPB_W@Z 10073020 f i libucrtd:dbgrpt.obj
 0001:00072040       ??$tcslen@AAY0BAF@D@?$__crt_char_traits@D@@SAIAAY0BAF@D@Z 10073040 f i libucrtd:dbgrpt.obj
 0001:00072060       ??$tcslen@AAY0BAF@_W@?$__crt_char_traits@_W@@SAIAAY0BAF@_W@Z 10073060 f i libucrtd:dbgrpt.obj
 0001:00072080       ??$tcslen@ABQBD@?$__crt_char_traits@D@@SAIABQBD@Z 10073080 f i libucrtd:dbgrpt.obj
 0001:000720a0       ??$tcslen@ABQB_W@?$__crt_char_traits@_W@@SAIABQB_W@Z 100730a0 f i libucrtd:dbgrpt.obj
 0001:000721a0       ??0?$__crt_unique_heap_ptr@U?$__crt_report_hook_node@D@@U__crt_internal_free_policy@@@@QAE@QAU?$__crt_report_hook_node@D@@@Z 100731a0 f i libucrtd:dbgrpt.obj
 0001:000721c0       ??0?$__crt_unique_heap_ptr@U?$__crt_report_hook_node@_W@@U__crt_internal_free_policy@@@@QAE@QAU?$__crt_report_hook_node@_W@@@Z 100731c0 f i libucrtd:dbgrpt.obj
 0001:000721e0       ??1?$__crt_unique_heap_ptr@U?$__crt_report_hook_node@D@@U__crt_internal_free_policy@@@@QAE@XZ 100731e0 f i libucrtd:dbgrpt.obj
 0001:00072200       ??1?$__crt_unique_heap_ptr@U?$__crt_report_hook_node@_W@@U__crt_internal_free_policy@@@@QAE@XZ 10073200 f i libucrtd:dbgrpt.obj
 0001:00072220       ??B?$__crt_unique_heap_ptr@U?$__crt_report_hook_node@D@@U__crt_internal_free_policy@@@@QBE_NXZ 10073220 f i libucrtd:dbgrpt.obj
 0001:00072240       ??B?$__crt_unique_heap_ptr@U?$__crt_report_hook_node@_W@@U__crt_internal_free_policy@@@@QBE_NXZ 10073240 f i libucrtd:dbgrpt.obj
 0001:000727a0       ?detach@?$__crt_unique_heap_ptr@U?$__crt_report_hook_node@D@@U__crt_internal_free_policy@@@@QAEPAU?$__crt_report_hook_node@D@@XZ 100737a0 f i libucrtd:dbgrpt.obj
 0001:000727d0       ?detach@?$__crt_unique_heap_ptr@U?$__crt_report_hook_node@_W@@U__crt_internal_free_policy@@@@QAEPAU?$__crt_report_hook_node@_W@@XZ 100737d0 f i libucrtd:dbgrpt.obj
 0001:00072800       ?get@?$__crt_unique_heap_ptr@U?$__crt_report_hook_node@D@@U__crt_internal_free_policy@@@@QBEPAU?$__crt_report_hook_node@D@@XZ 10073800 f i libucrtd:dbgrpt.obj
 0001:00072820       ?get@?$__crt_unique_heap_ptr@U?$__crt_report_hook_node@_W@@U__crt_internal_free_policy@@@@QBEPAU?$__crt_report_hook_node@_W@@XZ 10073820 f i libucrtd:dbgrpt.obj
 0001:000728a0       ?is_valid@?$__crt_unique_heap_ptr@U?$__crt_report_hook_node@D@@U__crt_internal_free_policy@@@@QBE_NXZ 100738a0 f i libucrtd:dbgrpt.obj
 0001:000728d0       ?is_valid@?$__crt_unique_heap_ptr@U?$__crt_report_hook_node@_W@@U__crt_internal_free_policy@@@@QBE_NXZ 100738d0 f i libucrtd:dbgrpt.obj
 0001:00072900       ?release@?$__crt_unique_heap_ptr@U?$__crt_report_hook_node@D@@U__crt_internal_free_policy@@@@QAEXXZ 10073900 f i libucrtd:dbgrpt.obj
 0001:00072930       ?release@?$__crt_unique_heap_ptr@U?$__crt_report_hook_node@_W@@U__crt_internal_free_policy@@@@QAEXXZ 10073930 f i libucrtd:dbgrpt.obj
 0001:00072960       __CrtDbgReport             10073960 f   libucrtd:dbgrpt.obj
 0001:000729b0       __CrtDbgReportW            100739b0 f   libucrtd:dbgrpt.obj
 0001:00072a00       __CrtSetReportHook2        10073a00 f   libucrtd:dbgrpt.obj
 0001:00072a20       __CrtSetReportHookW2       10073a20 f   libucrtd:dbgrpt.obj
 0001:00072a40       ___acrt_MessageWindowA     10073a40 f   libucrtd:dbgrpt.obj
 0001:00072a70       ___acrt_MessageWindowW     10073a70 f   libucrtd:dbgrpt.obj
 0001:00072aa0       __invoke_watson_if_error   10073aa0 f i libucrtd:dbgrpt.obj
 0001:00072ad0       __invoke_watson_if_oneof   10073ad0 f i libucrtd:dbgrpt.obj
 0001:00072b10       __snwprintf_s              10073b10 f i libucrtd:dbgrpt.obj
 0001:00072b50       __vsnwprintf_s_l           10073b50 f i libucrtd:dbgrpt.obj
 0001:00072ed0       _wcscpy_s                  10073ed0 f   libucrtd:wcscpy_s.obj
 0001:00073bf0       ??1?$__crt_simd_cleanup_guard@$00@@QAE@XZ 10074bf0 f i libucrtd:strnlen.obj
 0001:00073c00       ??1?$__crt_simd_cleanup_guard@$0A@@@QAE@XZ 10074c00 f i libucrtd:strnlen.obj
 0001:00073c10       ?compare_equals@?$__crt_simd_traits@$00E@@SA?AT__m256i@@T2@0@Z 10074c10 f i libucrtd:strnlen.obj
 0001:00073c50       ?compare_equals@?$__crt_simd_traits@$00G@@SA?AT__m256i@@T2@0@Z 10074c50 f i libucrtd:strnlen.obj
 0001:00073c90       ?compare_equals@?$__crt_simd_traits@$0A@E@@SA?AT__m128i@@T2@0@Z 10074c90 f i libucrtd:strnlen.obj
 0001:00073cd0       ?compare_equals@?$__crt_simd_traits@$0A@G@@SA?AT__m128i@@T2@0@Z 10074cd0 f i libucrtd:strnlen.obj
 0001:00073d10       ?compute_byte_mask@?$__crt_simd_pack_traits@$00@@SAHT__m256i@@@Z 10074d10 f i libucrtd:strnlen.obj
 0001:00073d40       ?compute_byte_mask@?$__crt_simd_pack_traits@$0A@@@SAHT__m128i@@@Z 10074d40 f i libucrtd:strnlen.obj
 0001:00073d70       ?get_zero_pack@?$__crt_simd_pack_traits@$00@@SA?AT__m256i@@XZ 10074d70 f i libucrtd:strnlen.obj
 0001:00073da0       ?get_zero_pack@?$__crt_simd_pack_traits@$0A@@@SA?AT__m128i@@XZ 10074da0 f i libucrtd:strnlen.obj
 0001:00073dd0       _strnlen                   10074dd0 f   libucrtd:strnlen.obj
 0001:00073df0       _wcslen                    10074df0 f   libucrtd:strnlen.obj
 0001:00073e10       _wcsnlen                   10074e10 f   libucrtd:strnlen.obj
 0001:00073e30       ??$__crt_fast_decode_pointer@P6AXPB_W00II@Z@@YAP6AXPB_W00II@ZQ6AX000II@Z@Z 10074e30 f i libucrtd:invalid_parameter.obj
 0001:00073e60       ??$__crt_fast_encode_pointer@P6AXPB_W00II@Z@@YAP6AXPB_W00II@ZQ6AX000II@Z@Z 10074e60 f i libucrtd:invalid_parameter.obj
 0001:00073e90       ??$initialize_from_array@$$BY00Q6AXPB_W00II@Z@?$dual_state_global@P6AXPB_W00II@Z@__crt_state_management@@QAAXAAY00Q6AXPB_W00II@Z@Z 10074e90 f i libucrtd:invalid_parameter.obj
 0001:00073ee0       ?__crt_rotate_pointer_value@@YAIIH@Z 10074ee0 f i libucrtd:invalid_parameter.obj
 0001:00073ef0       ?check_synchronize_global_state_index@__crt_cached_ptd_host@@AAEIXZ 10074ef0 f i libucrtd:invalid_parameter.obj
 0001:00073f40       ?dangerous_get_state_array@?$dual_state_global@P6AXPB_W00II@Z@__crt_state_management@@QAEPAP6AXPB_W00II@ZXZ 10074f40 f i libucrtd:invalid_parameter.obj
 0001:00073f50       ?get_current_global_state_index@__crt_cached_ptd_host@@QAEIXZ 10074f50 f i libucrtd:invalid_parameter.obj
 0001:00073f70       ?get_current_state_index@__crt_state_management@@YAIXZ 10074f70 f i libucrtd:invalid_parameter.obj
 0001:00073f80       ?get_raw_ptd_noexit@__crt_cached_ptd_host@@QAEPAU__acrt_ptd@@XZ 10074f80 f i libucrtd:invalid_parameter.obj
 0001:00073fa0       ?try_synchronize_per_thread_data@__crt_cached_ptd_host@@AAEPAU__acrt_ptd@@XZ 10074fa0 f i libucrtd:invalid_parameter.obj
 0001:00073fd0       ?value@?$dual_state_global@P6AXPB_W00II@Z@__crt_state_management@@QAEAAP6AXPB_W00II@ZAAV__crt_cached_ptd_host@@@Z 10074fd0 f i libucrtd:invalid_parameter.obj
 0001:00073ff0       ?value@?$dual_state_global@P6AXPB_W00II@Z@__crt_state_management@@QAEAAP6AXPB_W00II@ZXZ 10074ff0 f i libucrtd:invalid_parameter.obj
 0001:00074010       ___acrt_call_reportfault   10075010 f   libucrtd:invalid_parameter.obj
 0001:00074170       ___acrt_initialize_invalid_parameter_handler 10075170 f   libucrtd:invalid_parameter.obj
 0001:000741a0       __get_invalid_parameter_handler 100751a0 f   libucrtd:invalid_parameter.obj
 0001:000741c0       __get_thread_local_invalid_parameter_handler 100751c0 f   libucrtd:invalid_parameter.obj
 0001:000741f0       __invalid_parameter        100751f0 f   libucrtd:invalid_parameter.obj
 0001:00074230       __invalid_parameter_internal 10075230 f   libucrtd:invalid_parameter.obj
 0001:00074300       __invalid_parameter_noinfo 10075300 f   libucrtd:invalid_parameter.obj
 0001:00074320       __invalid_parameter_noinfo_noreturn 10075320 f   libucrtd:invalid_parameter.obj
 0001:00074350       __invoke_watson            10075350 f   libucrtd:invalid_parameter.obj
 0001:00074390       __set_invalid_parameter_handler 10075390 f   libucrtd:invalid_parameter.obj
 0001:000743e0       __set_thread_local_invalid_parameter_handler 100753e0 f   libucrtd:invalid_parameter.obj
 0001:00074410       ?get_doserrno@__crt_cached_ptd_host@@QAEAAU?$cached@K@1@XZ 10075410 f i libucrtd:errno.obj
 0001:00074430       ?set@?$cached@K@__crt_cached_ptd_host@@QAEKK@Z 10075430 f i libucrtd:errno.obj
 0001:00074460       ___acrt_errno_from_os_error 10075460 f   libucrtd:errno.obj
 0001:000744e0       ___acrt_errno_map_os_error 100754e0 f   libucrtd:errno.obj
 0001:00074510       ___acrt_errno_map_os_error_ptd 10075510 f   libucrtd:errno.obj
 0001:00074560       ___doserrno                10075560 f   libucrtd:errno.obj
 0001:00074590       __errno                    10075590 f   libucrtd:errno.obj
 0001:000745c0       __get_doserrno             100755c0 f   libucrtd:errno.obj
 0001:00074650       __get_errno                10075650 f   libucrtd:errno.obj
 0001:000746e0       __set_doserrno             100756e0 f   libucrtd:errno.obj
 0001:00074710       __set_errno                10075710 f   libucrtd:errno.obj
 0001:00074740       _calloc                    10075740 f   libucrtd:calloc.obj
 0001:00074760       __recalloc                 10075760 f   libucrtd:recalloc.obj
 0001:00074790       __recalloc_base            10075790 f   libucrtd:recalloc.obj
 0001:00074830       __resetstkoflw             10075830 f   libucrtd:resetstk.obj
 0001:00074d90       _wcscat_s                  10075d90 f   libucrtd:wcscat_s.obj
 0001:000751e0       _wcsncpy_s                 100761e0 f   libucrtd:wcsncpy_s.obj
 0001:00075320       ___isascii                 10076320 f   libucrtd:_ctype.obj
 0001:00075350       ___iscsym                  10076350 f   libucrtd:_ctype.obj
 0001:00075390       ___iscsymf                 10076390 f   libucrtd:_ctype.obj
 0001:000753d0       ___toascii                 100763d0 f   libucrtd:_ctype.obj
 0001:000753e0       __isalnum_l                100763e0 f   libucrtd:_ctype.obj
 0001:00075400       __isalpha_l                10076400 f   libucrtd:_ctype.obj
 0001:00075420       __isblank_l                10076420 f   libucrtd:_ctype.obj
 0001:00075440       __iscntrl_l                10076440 f   libucrtd:_ctype.obj
 0001:00075460       __iscsym_l                 10076460 f   libucrtd:_ctype.obj
 0001:000754a0       __iscsymf_l                100764a0 f   libucrtd:_ctype.obj
 0001:000754e0       __isdigit_l                100764e0 f   libucrtd:_ctype.obj
 0001:00075500       __isgraph_l                10076500 f   libucrtd:_ctype.obj
 0001:00075520       __islower_l                10076520 f   libucrtd:_ctype.obj
 0001:00075540       __isprint_l                10076540 f   libucrtd:_ctype.obj
 0001:00075560       __ispunct_l                10076560 f   libucrtd:_ctype.obj
 0001:00075580       __isspace_l                10076580 f   libucrtd:_ctype.obj
 0001:000755a0       __isupper_l                100765a0 f   libucrtd:_ctype.obj
 0001:000755c0       __isxdigit_l               100765c0 f   libucrtd:_ctype.obj
 0001:000755e0       _isalnum                   100765e0 f   libucrtd:_ctype.obj
 0001:00075600       _isalpha                   10076600 f   libucrtd:_ctype.obj
 0001:00075620       _isblank                   10076620 f   libucrtd:_ctype.obj
 0001:00075650       _iscntrl                   10076650 f   libucrtd:_ctype.obj
 0001:00075670       _isdigit                   10076670 f   libucrtd:_ctype.obj
 0001:00075690       _isgraph                   10076690 f   libucrtd:_ctype.obj
 0001:000756b0       _islower                   100766b0 f   libucrtd:_ctype.obj
 0001:000756d0       _isprint                   100766d0 f   libucrtd:_ctype.obj
 0001:000756f0       _ispunct                   100766f0 f   libucrtd:_ctype.obj
 0001:00075710       _isspace                   10076710 f   libucrtd:_ctype.obj
 0001:00075730       _isupper                   10076730 f   libucrtd:_ctype.obj
 0001:00075750       _isxdigit                  10076750 f   libucrtd:_ctype.obj
 0001:00075770       _wcscat                    10076770 f   libucrtd:wcscat.obj
 0001:000757d0       _wcscpy                    100767d0 f   libucrtd:wcscpy.obj
 0001:00075e60       ??$open_file@ABQBDABQBDABHPAU_iobuf@@@?$__crt_char_traits@D@@SAPAU_iobuf@@ABQBD0ABH$$QAPAU1@@Z 10076e60 f i libucrtd:fopen.obj
 0001:00075e90       ??$open_file@ABQB_WABQB_WABHPAU_iobuf@@@?$__crt_char_traits@_W@@SAPAU_iobuf@@ABQB_W0ABH$$QAPAU1@@Z 10076e90 f i libucrtd:fopen.obj
 0001:00075ec0       ?unlock@__crt_stdio_stream@@QBEXXZ 10076ec0 f i libucrtd:fopen.obj
 0001:00075ee0       __fsopen                   10076ee0 f   libucrtd:fopen.obj
 0001:00075f00       __wfopen                   10076f00 f   libucrtd:fopen.obj
 0001:00075f20       __wfopen_s                 10076f20 f   libucrtd:fopen.obj
 0001:00075f40       __wfsopen                  10076f40 f   libucrtd:fopen.obj
 0001:00075f60       _fopen                     10076f60 f   libucrtd:fopen.obj
 0001:00075f80       _fopen_s                   10076f80 f   libucrtd:fopen.obj
 0001:00076260       ?is_in_use@__crt_stdio_stream@@QBE_NXZ 10077260 f i libucrtd:fclose.obj
 0001:000762a0       __fclose_nolock            100772a0 f   libucrtd:fclose.obj
 0001:000762e0       _fclose                    100772e0 f   libucrtd:fclose.obj
 0001:00076580       __fputc_nolock             10077580 f   libucrtd:fputc.obj
 0001:000765c0       __fputc_nolock_internal    100775c0 f   libucrtd:fputc.obj
 0001:00076650       __fputchar                 10077650 f   libucrtd:fputc.obj
 0001:00076670       __putc_nolock              10077670 f   libucrtd:fputc.obj
 0001:00076690       _fputc                     10077690 f   libucrtd:fputc.obj
 0001:000766d0       _putc                      100776d0 f   libucrtd:fputc.obj
 0001:000766f0       _putchar                   100776f0 f   libucrtd:fputc.obj
 0001:00076760       __seh_filter_dll           10077760 f   libucrtd:exception_filter.obj
 0001:00076790       __seh_filter_exe           10077790 f   libucrtd:exception_filter.obj
 0001:000769b0       ??$?B$$A6GXPAXK0@Z@__crt_fast_encoded_nullptr_t@@QBEP6GXPAXK0@ZXZ 100779b0 f i libucrtd:exit.obj
 0001:00076ac0       ??$__crt_fast_decode_pointer@P6GXPAXK0@Z@@YAP6GXPAXK0@ZQ6GX0K0@Z@Z 10077ac0 f i libucrtd:exit.obj
 0001:00076af0       ??$__crt_fast_encode_pointer@P6GXPAXK0@Z@@YAP6GXPAXK0@ZQ6GX0K0@Z@Z 10077af0 f i libucrtd:exit.obj
 0001:00076b20       ??$__crt_get_proc_address@P6GXI@Z@@YAP6GXI@ZQAUHINSTANCE__@@QBD@Z 10077b20 f i libucrtd:exit.obj
 0001:00076bb0       ??0?$__crt_unique_handle_t@U__crt_hmodule_traits@@@@QAE@QAUHINSTANCE__@@@Z 10077bb0 f i libucrtd:exit.obj
 0001:00076bd0       ??1?$__crt_unique_handle_t@U__crt_hmodule_traits@@@@QAE@XZ 10077bd0 f i libucrtd:exit.obj
 0001:00076d90       ?__acrt_select_exit_lock@@YA?AW4__acrt_lock_id@@XZ 10077d90 f i libucrtd:exit.obj
 0001:00076da0       ?__crt_fast_encode_pointer@@YA?AU__crt_fast_encoded_nullptr_t@@$$T@Z 10077da0 f i libucrtd:exit.obj
 0001:00076dd0       ?close@?$__crt_unique_handle_t@U__crt_hmodule_traits@@@@QAEXXZ 10077dd0 f i libucrtd:exit.obj
 0001:00076e10       ?close@__crt_hmodule_traits@@SA_NPAUHINSTANCE__@@@Z 10077e10 f i libucrtd:exit.obj
 0001:00076f40       ?get@?$__crt_unique_handle_t@U__crt_hmodule_traits@@@@QBEPAUHINSTANCE__@@XZ 10077f40 f i libucrtd:exit.obj
 0001:00076f60       ?get_address_of@?$__crt_unique_handle_t@U__crt_hmodule_traits@@@@QAEPAPAUHINSTANCE__@@XZ 10077f60 f i libucrtd:exit.obj
 0001:00076f70       ?get_invalid_value@__crt_hmodule_traits@@SAPAUHINSTANCE__@@XZ 10077f70 f i libucrtd:exit.obj
 0001:00077120       __Exit                     10078120 f   libucrtd:exit.obj
 0001:00077140       ___acrt_initialize_thread_local_exit_callback 10078140 f   libucrtd:exit.obj
 0001:00077150       __c_exit                   10078150 f   libucrtd:exit.obj
 0001:00077170       __cexit                    10078170 f   libucrtd:exit.obj
 0001:00077190       __exit                     10078190 f   libucrtd:exit.obj
 0001:000771b0       __is_c_termination_complete 100781b0 f   libucrtd:exit.obj
 0001:000771d0       __register_thread_local_exe_atexit_callback 100781d0 f   libucrtd:exit.obj
 0001:00077210       _exit                      10078210 f   libucrtd:exit.obj
 0001:00077230       _quick_exit                10078230 f   libucrtd:exit.obj
 0001:00077250       ??$?RE@__crt_internal_free_policy@@QBEXQBE@Z 10078250 f i libucrtd:argv_parsing.obj
 0001:00077270       ??$?RPAD@__crt_internal_free_policy@@QBEXQBQAD@Z 10078270 f i libucrtd:argv_parsing.obj
 0001:00077290       ??$?RPA_W@__crt_internal_free_policy@@QBEXQBQA_W@Z 10078290 f i libucrtd:argv_parsing.obj
 0001:00077850       ??$get_module_file_name@$$TAAY0BAF@DH@?$__crt_char_traits@D@@SAK$$QA$$TAAY0BAF@D$$QAH@Z 10078850 f i libucrtd:argv_parsing.obj
 0001:00077870       ??$get_module_file_name@$$TAAY0BAF@_WH@?$__crt_char_traits@_W@@SAK$$QA$$TAAY0BAF@_W$$QAH@Z 10078870 f i libucrtd:argv_parsing.obj
 0001:00077fb0       ??$set_program_name@PAD@?$__crt_char_traits@D@@SAX$$QAPAD@Z 10078fb0 f i libucrtd:argv_parsing.obj
 0001:00077fd0       ??$set_program_name@PA_W@?$__crt_char_traits@_W@@SAX$$QAPA_W@Z 10078fd0 f i libucrtd:argv_parsing.obj
 0001:00078030       ??0?$__crt_unique_heap_ptr@EU__crt_internal_free_policy@@@@QAE@QAE@Z 10079030 f i libucrtd:argv_parsing.obj
 0001:00078050       ??0?$__crt_unique_heap_ptr@PADU__crt_internal_free_policy@@@@QAE@QAPAD@Z 10079050 f i libucrtd:argv_parsing.obj
 0001:00078070       ??0?$__crt_unique_heap_ptr@PA_WU__crt_internal_free_policy@@@@QAE@QAPA_W@Z 10079070 f i libucrtd:argv_parsing.obj
 0001:00078090       ??1?$__crt_unique_heap_ptr@EU__crt_internal_free_policy@@@@QAE@XZ 10079090 f i libucrtd:argv_parsing.obj
 0001:000780b0       ??1?$__crt_unique_heap_ptr@PADU__crt_internal_free_policy@@@@QAE@XZ 100790b0 f i libucrtd:argv_parsing.obj
 0001:000780d0       ??1?$__crt_unique_heap_ptr@PA_WU__crt_internal_free_policy@@@@QAE@XZ 100790d0 f i libucrtd:argv_parsing.obj
 0001:000780f0       ??B?$__crt_unique_heap_ptr@EU__crt_internal_free_policy@@@@QBE_NXZ 100790f0 f i libucrtd:argv_parsing.obj
 0001:000781b0       ?detach@?$__crt_unique_heap_ptr@EU__crt_internal_free_policy@@@@QAEPAEXZ 100791b0 f i libucrtd:argv_parsing.obj
 0001:000781e0       ?detach@?$__crt_unique_heap_ptr@PADU__crt_internal_free_policy@@@@QAEPAPADXZ 100791e0 f i libucrtd:argv_parsing.obj
 0001:00078210       ?detach@?$__crt_unique_heap_ptr@PA_WU__crt_internal_free_policy@@@@QAEPAPA_WXZ 10079210 f i libucrtd:argv_parsing.obj
 0001:000782a0       ?get@?$__crt_unique_heap_ptr@EU__crt_internal_free_policy@@@@QBEPAEXZ 100792a0 f i libucrtd:argv_parsing.obj
 0001:000782c0       ?get@?$__crt_unique_heap_ptr@PADU__crt_internal_free_policy@@@@QBEPAPADXZ 100792c0 f i libucrtd:argv_parsing.obj
 0001:000782e0       ?get@?$__crt_unique_heap_ptr@PA_WU__crt_internal_free_policy@@@@QBEPAPA_WXZ 100792e0 f i libucrtd:argv_parsing.obj
 0001:00078300       ?get_address_of@?$__crt_unique_heap_ptr@PADU__crt_internal_free_policy@@@@QAEPAPAPADXZ 10079300 f i libucrtd:argv_parsing.obj
 0001:00078310       ?get_address_of@?$__crt_unique_heap_ptr@PA_WU__crt_internal_free_policy@@@@QAEPAPAPA_WXZ 10079310 f i libucrtd:argv_parsing.obj
 0001:00078360       ?is_valid@?$__crt_unique_heap_ptr@EU__crt_internal_free_policy@@@@QBE_NXZ 10079360 f i libucrtd:argv_parsing.obj
 0001:00078390       ?release@?$__crt_unique_heap_ptr@EU__crt_internal_free_policy@@@@QAEXXZ 10079390 f i libucrtd:argv_parsing.obj
 0001:000783c0       ?release@?$__crt_unique_heap_ptr@PADU__crt_internal_free_policy@@@@QAEXXZ 100793c0 f i libucrtd:argv_parsing.obj
 0001:000783f0       ?release@?$__crt_unique_heap_ptr@PA_WU__crt_internal_free_policy@@@@QAEXXZ 100793f0 f i libucrtd:argv_parsing.obj
 0001:00078460       ___acrt_allocate_buffer_for_argv 10079460 f   libucrtd:argv_parsing.obj
 0001:00078520       __configure_narrow_argv    10079520 f   libucrtd:argv_parsing.obj
 0001:00078540       __configure_wide_argv      10079540 f   libucrtd:argv_parsing.obj
 0001:00078560       __set_pgmptr               10079560 f i libucrtd:argv_parsing.obj
 0001:00078570       __set_wpgmptr              10079570 f i libucrtd:argv_parsing.obj
 0001:00078580       ??$?R_W@__crt_internal_free_policy@@QBEXQB_W@Z 10079580 f i libucrtd:environment_initialization.obj
 0001:00078d60       ??$get_environment_from_os@$$V@?$__crt_char_traits@D@@SAPADXZ 10079d60 f i libucrtd:environment_initialization.obj
 0001:00078d70       ??$get_environment_from_os@$$V@?$__crt_char_traits@_W@@SAPA_WXZ 10079d70 f i libucrtd:environment_initialization.obj
 0001:00079040       ??$set_variable_in_environment_nolock@PADH@?$__crt_char_traits@D@@SAH$$QAPAD$$QAH@Z 1007a040 f i libucrtd:environment_initialization.obj
 0001:00079060       ??$set_variable_in_environment_nolock@PA_WH@?$__crt_char_traits@_W@@SAH$$QAPA_W$$QAH@Z 1007a060 f i libucrtd:environment_initialization.obj
 0001:00079080       ??$tcscpy_s@PADABIAAPAD@?$__crt_char_traits@D@@SAH$$QAPADABIAAPAD@Z 1007a080 f i libucrtd:environment_initialization.obj
 0001:000790b0       ??$tcscpy_s@PA_WABIAAPA_W@?$__crt_char_traits@_W@@SAH$$QAPA_WABIAAPA_W@Z 1007a0b0 f i libucrtd:environment_initialization.obj
 0001:000790e0       ??$tcslen@AAPAD@?$__crt_char_traits@D@@SAIAAPAD@Z 1007a0e0 f i libucrtd:environment_initialization.obj
 0001:00079100       ??$tcslen@AAPA_W@?$__crt_char_traits@_W@@SAIAAPA_W@Z 1007a100 f i libucrtd:environment_initialization.obj
 0001:00079120       ??$uninitialize@A6AXAAPAPAD@_E@?$dual_state_global@PAPAD@__crt_state_management@@QAEXA6AXAAPAPAD@_E@Z 1007a120 f i libucrtd:environment_initialization.obj
 0001:000791a0       ??$uninitialize@A6AXAAPAPA_W@_E@?$dual_state_global@PAPA_W@__crt_state_management@@QAEXA6AXAAPAPA_W@_E@Z 1007a1a0 f i libucrtd:environment_initialization.obj
 0001:00079280       ??0?$__crt_unique_heap_ptr@_WU__crt_internal_free_policy@@@@QAE@QA_W@Z 1007a280 f i libucrtd:environment_initialization.obj
 0001:000792a0       ??1?$__crt_unique_heap_ptr@_WU__crt_internal_free_policy@@@@QAE@XZ 1007a2a0 f i libucrtd:environment_initialization.obj
 0001:000792c0       ??B?$__crt_unique_heap_ptr@PADU__crt_internal_free_policy@@@@QBE_NXZ 1007a2c0 f i libucrtd:environment_initialization.obj
 0001:000792e0       ??B?$__crt_unique_heap_ptr@PA_WU__crt_internal_free_policy@@@@QBE_NXZ 1007a2e0 f i libucrtd:environment_initialization.obj
 0001:00079300       ??B?$__crt_unique_heap_ptr@_WU__crt_internal_free_policy@@@@QBE_NXZ 1007a300 f i libucrtd:environment_initialization.obj
 0001:00079320       ?__crt_compute_required_transform_buffer_count@@YAIIQBD@Z 1007a320 f i libucrtd:environment_initialization.obj
 0001:00079340       ?__crt_compute_required_transform_buffer_count@@YAIIQB_W@Z 1007a340 f i libucrtd:environment_initialization.obj
 0001:00079370       ?__crt_transform_string@@YAIIQBDQA_WI@Z 1007a370 f i libucrtd:environment_initialization.obj
 0001:000793a0       ?__crt_transform_string@@YAIIQB_WQADI@Z 1007a3a0 f i libucrtd:environment_initialization.obj
 0001:000793d0       ?detach@?$__crt_unique_heap_ptr@DU__crt_internal_free_policy@@@@QAEPADXZ 1007a3d0 f i libucrtd:environment_initialization.obj
 0001:00079400       ?detach@?$__crt_unique_heap_ptr@_WU__crt_internal_free_policy@@@@QAEPA_WXZ 1007a400 f i libucrtd:environment_initialization.obj
 0001:00079430       ?get@?$__crt_unique_heap_ptr@_WU__crt_internal_free_policy@@@@QBEPA_WXZ 1007a430 f i libucrtd:environment_initialization.obj
 0001:000794d0       ?initialize@?$dual_state_global@PAPAD@__crt_state_management@@QAEXQAPAD@Z 1007a4d0 f i libucrtd:environment_initialization.obj
 0001:00079510       ?initialize@?$dual_state_global@PAPA_W@__crt_state_management@@QAEXQAPA_W@Z 1007a510 f i libucrtd:environment_initialization.obj
 0001:00079550       ?is_valid@?$__crt_unique_heap_ptr@PADU__crt_internal_free_policy@@@@QBE_NXZ 1007a550 f i libucrtd:environment_initialization.obj
 0001:00079580       ?is_valid@?$__crt_unique_heap_ptr@PA_WU__crt_internal_free_policy@@@@QBE_NXZ 1007a580 f i libucrtd:environment_initialization.obj
 0001:000795b0       ?is_valid@?$__crt_unique_heap_ptr@_WU__crt_internal_free_policy@@@@QBE_NXZ 1007a5b0 f i libucrtd:environment_initialization.obj
 0001:00079600       ?release@?$__crt_unique_heap_ptr@_WU__crt_internal_free_policy@@@@QAEXXZ 1007a600 f i libucrtd:environment_initialization.obj
 0001:00079630       ?value@?$dual_state_global@PAPAD@__crt_state_management@@QAEAAPAPADXZ 1007a630 f i libucrtd:environment_initialization.obj
 0001:00079650       ?value@?$dual_state_global@PAPA_W@__crt_state_management@@QAEAAPAPA_WXZ 1007a650 f i libucrtd:environment_initialization.obj
 0001:00079670       ___dcrt_get_or_create_narrow_environment_nolock 1007a670 f   libucrtd:environment_initialization.obj
 0001:00079680       ___dcrt_get_or_create_wide_environment_nolock 1007a680 f   libucrtd:environment_initialization.obj
 0001:00079690       ___dcrt_uninitialize_environments_nolock 1007a690 f   libucrtd:environment_initialization.obj
 0001:000796e0       ___p__environ              1007a6e0 f   libucrtd:environment_initialization.obj
 0001:00079700       ___p__wenviron             1007a700 f   libucrtd:environment_initialization.obj
 0001:00079720       __get_initial_narrow_environment 1007a720 f   libucrtd:environment_initialization.obj
 0001:00079730       __get_initial_wide_environment 1007a730 f   libucrtd:environment_initialization.obj
 0001:00079740       __initialize_narrow_environment 1007a740 f   libucrtd:environment_initialization.obj
 0001:00079750       __initialize_wide_environment 1007a750 f   libucrtd:environment_initialization.obj
 0001:00079760       ??$?B$$A6AXXZ@__crt_fast_encoded_nullptr_t@@QBEP6AXXZXZ 1007a760 f i libucrtd:onexit.obj
 0001:00079780       ??$?BP6AXXZ@__crt_fast_encoded_nullptr_t@@QBEPAP6AXXZXZ 1007a780 f i libucrtd:onexit.obj
 0001:000797a0       ??$?RP6AXXZ@__crt_internal_free_policy@@QBEXQBQ6AXXZ@Z 1007a7a0 f i libucrtd:onexit.obj
 0001:000799c0       ??$__crt_fast_decode_pointer@P6AXXZ@@YAP6AXXZQ6AXXZ@Z 1007a9c0 f i libucrtd:onexit.obj
 0001:000799f0       ??$__crt_fast_decode_pointer@PAP6AXXZ@@YAPAP6AXXZQAP6AXXZ@Z 1007a9f0 f i libucrtd:onexit.obj
 0001:00079a20       ??$__crt_fast_encode_pointer@P6AHXZ@@YAP6AHXZQ6AHXZ@Z 1007aa20 f i libucrtd:onexit.obj
 0001:00079a50       ??$__crt_fast_encode_pointer@P6AXXZ@@YAP6AXXZQ6AXXZ@Z 1007aa50 f i libucrtd:onexit.obj
 0001:00079a80       ??$__crt_fast_encode_pointer@PAP6AXXZ@@YAPAP6AXXZQAP6AXXZ@Z 1007aa80 f i libucrtd:onexit.obj
 0001:00079b80       ??0?$__crt_unique_heap_ptr@P6AXXZU__crt_internal_free_policy@@@@QAE@QAP6AXXZ@Z 1007ab80 f i libucrtd:onexit.obj
 0001:00079ba0       ??1?$__crt_unique_heap_ptr@P6AXXZU__crt_internal_free_policy@@@@QAE@XZ 1007aba0 f i libucrtd:onexit.obj
 0001:00079bc0       ??1scoped_global_state_reset@__crt_state_management@@QAE@XZ 1007abc0 f i libucrtd:onexit.obj
 0001:0007a040       ?detach@?$__crt_unique_heap_ptr@P6AXXZU__crt_internal_free_policy@@@@QAEPAP6AXXZXZ 1007b040 f i libucrtd:onexit.obj
 0001:0007a070       ?release@?$__crt_unique_heap_ptr@P6AXXZU__crt_internal_free_policy@@@@QAEXXZ 1007b070 f i libucrtd:onexit.obj
 0001:0007a0a0       __crt_at_quick_exit        1007b0a0 f   libucrtd:onexit.obj
 0001:0007a0c0       __crt_atexit               1007b0c0 f   libucrtd:onexit.obj
 0001:0007a0e0       __execute_onexit_table     1007b0e0 f   libucrtd:onexit.obj
 0001:0007a120       __initialize_onexit_table  1007b120 f   libucrtd:onexit.obj
 0001:0007a180       __register_onexit_function 1007b180 f   libucrtd:onexit.obj
 0001:0007a3d0       ??$?BX@__crt_fast_encoded_nullptr_t@@QBEPAXXZ 1007b3d0 f i libucrtd:initialization.obj
 0001:0007a3f0       ??$__crt_fast_encode_pointer@PAX@@YAPAXQAX@Z 1007b3f0 f i libucrtd:initialization.obj
 0001:0007a4e0       ?initialize@?$dual_state_global@PAU__crt_locale_data@@@__crt_state_management@@QAEXQAU__crt_locale_data@@@Z 1007b4e0 f i libucrtd:initialization.obj
 0001:0007a520       ___acrt_initialize         1007b520 f   libucrtd:initialization.obj
 0001:0007a540       ___acrt_thread_attach      1007b540 f   libucrtd:initialization.obj
 0001:0007a560       ___acrt_thread_detach      1007b560 f   libucrtd:initialization.obj
 0001:0007a570       ___acrt_uninitialize       1007b570 f   libucrtd:initialization.obj
 0001:0007a590       ___acrt_uninitialize_critical 1007b590 f   libucrtd:initialization.obj
 0001:0007a5b0       ??0_LocaleUpdate@@QAE@QAU__crt_locale_pointers@@@Z 1007b5b0 f i libucrtd:debug_heap.obj
 0001:0007a680       ??1_LocaleUpdate@@QAE@XZ   1007b680 f i libucrtd:debug_heap.obj
 0001:0007a6b0       ?GetLocaleT@_LocaleUpdate@@QAEPAU__crt_locale_pointers@@XZ 1007b6b0 f i libucrtd:debug_heap.obj
 0001:0007c100       __CrtCheckMemory           1007d100 f   libucrtd:debug_heap.obj
 0001:0007c290       __CrtDoForAllClientObjects 1007d290 f   libucrtd:debug_heap.obj
 0001:0007c3f0       __CrtDumpMemoryLeaks       1007d3f0 f   libucrtd:debug_heap.obj
 0001:0007c490       __CrtGetAllocHook          1007d490 f   libucrtd:debug_heap.obj
 0001:0007c4a0       __CrtGetDumpClient         1007d4a0 f   libucrtd:debug_heap.obj
 0001:0007c4b0       __CrtIsMemoryBlock         1007d4b0 f   libucrtd:debug_heap.obj
 0001:0007c600       __CrtIsValidHeapPointer    1007d600 f   libucrtd:debug_heap.obj
 0001:0007c640       __CrtIsValidPointer        1007d640 f   libucrtd:debug_heap.obj
 0001:0007c670       __CrtMemCheckpoint         1007d670 f   libucrtd:debug_heap.obj
 0001:0007c8a0       __CrtMemDifference         1007d8a0 f   libucrtd:debug_heap.obj
 0001:0007cb10       __CrtMemDumpAllObjectsSince 1007db10 f   libucrtd:debug_heap.obj
 0001:0007cbb0       __CrtMemDumpStatistics     1007dbb0 f   libucrtd:debug_heap.obj
 0001:0007cce0       __CrtReportBlockType       1007dce0 f   libucrtd:debug_heap.obj
 0001:0007cd10       __CrtSetAllocHook          1007dd10 f   libucrtd:debug_heap.obj
 0001:0007cd30       __CrtSetBreakAlloc         1007dd30 f   libucrtd:debug_heap.obj
 0001:0007cd50       __CrtSetDbgBlockType       1007dd50 f   libucrtd:debug_heap.obj
 0001:0007ce30       __CrtSetDbgFlag            1007de30 f   libucrtd:debug_heap.obj
 0001:0007cfa0       __CrtSetDumpClient         1007dfa0 f   libucrtd:debug_heap.obj
 0001:0007cfc0       ___acrt_get_locale_data_prefix 1007dfc0 f i libucrtd:debug_heap.obj
 0001:0007cfe0       ___p__crtBreakAlloc        1007dfe0 f   libucrtd:debug_heap.obj
 0001:0007cff0       ___p__crtDbgFlag           1007dff0 f   libucrtd:debug_heap.obj
 0001:0007d000       __aligned_free_dbg         1007e000 f   libucrtd:debug_heap.obj
 0001:0007d0b0       __aligned_malloc_dbg       1007e0b0 f   libucrtd:debug_heap.obj
 0001:0007d0e0       __aligned_msize_dbg        1007e0e0 f   libucrtd:debug_heap.obj
 0001:0007d210       __aligned_offset_malloc_dbg 1007e210 f   libucrtd:debug_heap.obj
 0001:0007d3f0       __aligned_offset_realloc_dbg 1007e3f0 f   libucrtd:debug_heap.obj
 0001:0007d700       __aligned_offset_recalloc_dbg 1007e700 f   libucrtd:debug_heap.obj
 0001:0007d7c0       __aligned_realloc_dbg      1007e7c0 f   libucrtd:debug_heap.obj
 0001:0007d7f0       __aligned_recalloc_dbg     1007e7f0 f   libucrtd:debug_heap.obj
 0001:0007d820       __calloc_dbg               1007e820 f   libucrtd:debug_heap.obj
 0001:0007d890       __chvalidchk_l             1007e890 f i libucrtd:debug_heap.obj
 0001:0007d8b0       __expand_dbg               1007e8b0 f   libucrtd:debug_heap.obj
 0001:0007d9e0       __free_dbg                 1007e9e0 f   libucrtd:debug_heap.obj
 0001:0007da90       __ischartype_l             1007ea90 f i libucrtd:debug_heap.obj
 0001:0007db10       __malloc_dbg               1007eb10 f   libucrtd:debug_heap.obj
 0001:0007db30       __msize_dbg                1007eb30 f   libucrtd:debug_heap.obj
 0001:0007dcc0       __realloc_dbg              1007ecc0 f   libucrtd:debug_heap.obj
 0001:0007dd60       __recalloc_dbg             1007ed60 f   libucrtd:debug_heap.obj
 0001:0007de10       __initterm                 1007ee10 f   libucrtd:initterm.obj
 0001:0007de60       __initterm_e               1007ee60 f   libucrtd:initterm.obj
 0001:0007e1d0       _strcpy_s                  1007f1d0 f   libucrtd:strcpy_s.obj
 0001:0007e600       _strcat_s                  1007f600 f   libucrtd:strcat_s.obj
 0001:0007e620       ??$?B$$A6AHI@Z@__crt_fast_encoded_nullptr_t@@QBEP6AHI@ZXZ 1007f620 f i libucrtd:new_handler.obj
 0001:0007e640       ??$__crt_fast_decode_pointer@P6AHI@Z@@YAP6AHI@ZQ6AHI@Z@Z 1007f640 f i libucrtd:new_handler.obj
 0001:0007e670       ??$__crt_fast_encode_pointer@P6AHI@Z@@YAP6AHI@ZQ6AHI@Z@Z 1007f670 f i libucrtd:new_handler.obj
 0001:0007e6a0       ?_set_new_handler@@YAP6AHI@ZH@Z 1007f6a0 f   libucrtd:new_handler.obj
 0001:0007e700       ?initialize@?$dual_state_global@P6AHI@Z@__crt_state_management@@QAEXQ6AHI@Z@Z 1007f700 f i libucrtd:new_handler.obj
 0001:0007e740       ?value@?$dual_state_global@P6AHI@Z@__crt_state_management@@QAEAAP6AHI@ZXZ 1007f740 f i libucrtd:new_handler.obj
 0001:0007e760       ___acrt_initialize_new_handler 1007f760 f   libucrtd:new_handler.obj
 0001:0007e780       __callnewh                 1007f780 f   libucrtd:new_handler.obj
 0001:0007e7d0       __query_new_handler        1007f7d0 f   libucrtd:new_handler.obj
 0001:0007e860       __set_new_handler          1007f860 f   libucrtd:new_handler.obj
 0001:0007e940       __get_terminate            1007f940 f   libucrtd:terminate.obj
 0001:0007e960       _set_terminate             1007f960 f   libucrtd:terminate.obj
 0001:0007e990       _terminate                 1007f990 f   libucrtd:terminate.obj
 0001:0007f390       __makepath                 10080390 f   libucrtd:makepath.obj
 0001:0007f3c0       __makepath_s               100803c0 f   libucrtd:makepath.obj
 0001:0007f3f0       __wmakepath                100803f0 f   libucrtd:makepath.obj
 0001:0007f420       __wmakepath_s              10080420 f   libucrtd:makepath.obj
 0001:00080ef0       ??$tcsncpy_s@AAPADIAAPBDABI@?$__crt_char_traits@D@@SAHAAPAD$$QAIAAPBDABI@Z 10081ef0 f i libucrtd:splitpath.obj
 0001:00080f20       ??$tcsncpy_s@AAPADIAAPBDH@?$__crt_char_traits@D@@SAHAAPAD$$QAIAAPBD$$QAH@Z 10081f20 f i libucrtd:splitpath.obj
 0001:00080f50       ??$tcsncpy_s@AAPA_WIAAPB_WABI@?$__crt_char_traits@_W@@SAHAAPA_W$$QAIAAPB_WABI@Z 10081f50 f i libucrtd:splitpath.obj
 0001:00080f80       ??$tcsncpy_s@AAPA_WIAAPB_WH@?$__crt_char_traits@_W@@SAHAAPA_W$$QAIAAPB_W$$QAH@Z 10081f80 f i libucrtd:splitpath.obj
 0001:000811c0       __splitpath                100821c0 f   libucrtd:splitpath.obj
 0001:000811f0       __splitpath_s              100821f0 f   libucrtd:splitpath.obj
 0001:00081240       __wsplitpath               10082240 f   libucrtd:splitpath.obj
 0001:00081270       __wsplitpath_s             10082270 f   libucrtd:splitpath.obj
 0001:000812c0       __set_abort_behavior       100822c0 f   libucrtd:abort.obj
 0001:000812f0       _abort                     100822f0 f   libucrtd:abort.obj
 0001:00081360       _strcmp                    10082360 f   libucrtd:strcmp.obj
 0001:000813f0       _strlen                    100823f0 f   libucrtd:strlen.obj
 0001:00081480       ??$is_overflow_condition@_K@__crt_strtox@@YA_NI_K@Z 10082480 f i libucrtd:atox.obj
 0001:00081510       ??$make_c_string_character_source@D$$T@__crt_strtox@@YA?AV?$c_string_character_source@D@0@QBD$$T@Z 10082510 f i libucrtd:atox.obj
 0001:00081530       ??$make_c_string_character_source@_W$$T@__crt_strtox@@YA?AV?$c_string_character_source@_W@0@QB_W$$T@Z 10082530 f i libucrtd:atox.obj
 0001:00081550       ??$parse_integer@KV?$c_string_character_source@D@__crt_strtox@@$00@__crt_strtox@@YAKAAV__crt_cached_ptd_host@@V?$c_string_character_source@D@0@H_N@Z 10082550 f i libucrtd:atox.obj
 0001:000818b0       ??$parse_integer@KV?$c_string_character_source@_W@__crt_strtox@@$00@__crt_strtox@@YAKAAV__crt_cached_ptd_host@@V?$c_string_character_source@_W@0@H_N@Z 100828b0 f i libucrtd:atox.obj
 0001:00081c20       ??$parse_integer@_KV?$c_string_character_source@D@__crt_strtox@@$00@__crt_strtox@@YA_KAAV__crt_cached_ptd_host@@V?$c_string_character_source@D@0@H_N@Z 10082c20 f i libucrtd:atox.obj
 0001:00082010       ??$parse_integer@_KV?$c_string_character_source@_W@__crt_strtox@@$00@__crt_strtox@@YA_KAAV__crt_cached_ptd_host@@V?$c_string_character_source@_W@0@H_N@Z 10083010 f i libucrtd:atox.obj
 0001:00082400       ??$parse_integer_from_string@JD$$T@__crt_strtox@@YAJQBD$$THQAU__crt_locale_pointers@@@Z 10083400 f i libucrtd:atox.obj
 0001:00082460       ??$parse_integer_from_string@J_W$$T@__crt_strtox@@YAJQB_W$$THQAU__crt_locale_pointers@@@Z 10083460 f i libucrtd:atox.obj
 0001:000824c0       ??$parse_integer_from_string@_JD$$T@__crt_strtox@@YA_JQBD$$THQAU__crt_locale_pointers@@@Z 100834c0 f i libucrtd:atox.obj
 0001:00082520       ??$parse_integer_from_string@_J_W$$T@__crt_strtox@@YA_JQB_W$$THQAU__crt_locale_pointers@@@Z 10083520 f i libucrtd:atox.obj
 0001:00082580       ?is_space@__crt_strtox@@YA_NDQAU__crt_locale_pointers@@@Z 10083580 f i libucrtd:atox.obj
 0001:000825c0       ?is_space@__crt_strtox@@YA_N_WPAU__crt_locale_pointers@@@Z 100835c0 f i libucrtd:atox.obj
 0001:000825f0       ?maximum_signed_value@__crt_strtox@@YA_J_K@Z 100835f0 f i libucrtd:atox.obj
 0001:00082600       ?minimum_signed_value@__crt_strtox@@YA_J_K@Z 10083600 f i libucrtd:atox.obj
 0001:00082610       __atoi64                   10083610 f   libucrtd:atox.obj
 0001:00082630       __atoi64_l                 10083630 f   libucrtd:atox.obj
 0001:00082650       __atoi_l                   10083650 f   libucrtd:atox.obj
 0001:00082670       __atol_l                   10083670 f   libucrtd:atox.obj
 0001:00082690       __atoll_l                  10083690 f   libucrtd:atox.obj
 0001:000826b0       __wtoi                     100836b0 f   libucrtd:atox.obj
 0001:000826d0       __wtoi64                   100836d0 f   libucrtd:atox.obj
 0001:000826f0       __wtoi64_l                 100836f0 f   libucrtd:atox.obj
 0001:00082710       __wtoi_l                   10083710 f   libucrtd:atox.obj
 0001:00082730       __wtol                     10083730 f   libucrtd:atox.obj
 0001:00082750       __wtol_l                   10083750 f   libucrtd:atox.obj
 0001:00082770       __wtoll                    10083770 f   libucrtd:atox.obj
 0001:00082790       __wtoll_l                  10083790 f   libucrtd:atox.obj
 0001:000827b0       _atoi                      100837b0 f   libucrtd:atox.obj
 0001:000827d0       _atol                      100837d0 f   libucrtd:atox.obj
 0001:000827f0       _atoll                     100837f0 f   libucrtd:atox.obj
 0001:00082810       _strncmp                   10083810 f   libucrtd:strncmp.obj
 0001:00082890       _wcsncmp                   10083890 f   libucrtd:wcsncmp.obj
 0001:000828f0       __CrtGetDebugFillThreshold 100838f0 f   libucrtd:debug_fill_threshold.obj
 0001:00082900       __CrtSetDebugFillThreshold 10083900 f   libucrtd:debug_fill_threshold.obj
 0001:00082920       ?value@?$dual_state_global@PAU__crt_locale_data@@@__crt_state_management@@QAEAAPAU__crt_locale_data@@XZ 10083920 f i libucrtd:locale_update.obj
 0001:00082940       ?value@?$dual_state_global@PAU__crt_multibyte_data@@@__crt_state_management@@QAEAAPAU__crt_multibyte_data@@XZ 10083940 f i libucrtd:locale_update.obj
 0001:00082960       ?value_explicit@?$dual_state_global@PAU__crt_locale_data@@@__crt_state_management@@QAEAAPAU__crt_locale_data@@I@Z 10083960 f i libucrtd:locale_update.obj
 0001:00082980       ?value_explicit@?$dual_state_global@PAU__crt_multibyte_data@@@__crt_state_management@@QAEAAPAU__crt_multibyte_data@@I@Z 10083980 f i libucrtd:locale_update.obj
 0001:000829a0       ___acrt_should_sync_with_global_locale 100839a0 f i libucrtd:locale_update.obj
 0001:000829d0       ___acrt_update_locale_info 100839d0 f   libucrtd:locale_update.obj
 0001:00082a10       ___acrt_update_locale_info_explicit 10083a10 f   libucrtd:locale_update.obj
 0001:00082a50       ___acrt_update_multibyte_info 10083a50 f   libucrtd:locale_update.obj
 0001:00082a90       ___acrt_update_multibyte_info_explicit 10083a90 f   libucrtd:locale_update.obj
 0001:00082ad0       ?__acrt_fp_classify@@YA?AW4__acrt_fp_class@@ABN@Z 10083ad0 f i libucrtd:cvt.obj
 0001:00082bf0       ?__acrt_fp_is_negative@@YA_NABN@Z 10083bf0 f i libucrtd:cvt.obj
 0001:00083e00       ?strrchr@@YAPADQADH@Z      10084e00 f i libucrtd:cvt.obj
 0001:00083e20       ___acrt_fp_format          10084e20 f   libucrtd:cvt.obj
 0001:000842a0       ?value_or@?$cached@H@__crt_cached_ptd_host@@QBEHH@Z 100852a0 f i libucrtd:wctomb.obj
 0001:000842d0       __wctomb_internal          100852d0 f   libucrtd:wctomb.obj
 0001:00084650       __wctomb_l                 10085650 f   libucrtd:wctomb.obj
 0001:000846d0       __wctomb_s_l               100856d0 f   libucrtd:wctomb.obj
 0001:00084720       _wctomb                    10085720 f   libucrtd:wctomb.obj
 0001:00084790       _wctomb_s                  10085790 f   libucrtd:wctomb.obj
 0001:000847e0       __isleadbyte_fast_internal 100857e0 f i libucrtd:mbtowc.obj
 0001:00084800       __mbtowc_internal          10085800 f   libucrtd:mbtowc.obj
 0001:00084a90       __mbtowc_l                 10085a90 f   libucrtd:mbtowc.obj
 0001:00084ad0       _mbtowc                    10085ad0 f   libucrtd:mbtowc.obj
 0001:00084b10       ?lowio_handle@__crt_stdio_stream@@QBEHXZ 10085b10 f i libucrtd:fileno.obj
 0001:00084b30       __fileno                   10085b30 f   libucrtd:fileno.obj
 0001:00084bd0       ??$?RPAU__crt_stdio_stream_data@@@__crt_internal_free_policy@@QBEXQBQAU__crt_stdio_stream_data@@@Z 10085bd0 f i libucrtd:_file.obj
 0001:00084bf0       ??0?$__crt_unique_heap_ptr@PAU__crt_stdio_stream_data@@U__crt_internal_free_policy@@@@QAE@QAPAU__crt_stdio_stream_data@@@Z 10085bf0 f i libucrtd:_file.obj
 0001:00084c10       ??1?$__crt_unique_heap_ptr@PAU__crt_stdio_stream_data@@U__crt_internal_free_policy@@@@QAE@XZ 10085c10 f i libucrtd:_file.obj
 0001:00084c30       ?detach@?$__crt_unique_heap_ptr@PAU__crt_stdio_stream_data@@U__crt_internal_free_policy@@@@QAEPAPAU__crt_stdio_stream_data@@XZ 10085c30 f i libucrtd:_file.obj
 0001:00084c60       ?release@?$__crt_unique_heap_ptr@PAU__crt_stdio_stream_data@@U__crt_internal_free_policy@@@@QAEXXZ 10085c60 f i libucrtd:_file.obj
 0001:00084c90       ___acrt_initialize_stdio   10085c90 f   libucrtd:_file.obj
 0001:00084e00       ___acrt_iob_func           10085e00 f   libucrtd:_file.obj
 0001:00084e10       ___acrt_uninitialize_stdio 10085e10 f   libucrtd:_file.obj
 0001:00084e90       __get_stream_buffer_pointers 10085e90 f   libucrtd:_file.obj
 0001:00084f70       __lock_file                10085f70 f   libucrtd:_file.obj
 0001:00084fa0       __unlock_file              10085fa0 f   libucrtd:_file.obj
 0001:00084fd0       __get_printf_count_output  10085fd0 f   libucrtd:printf_count_output.obj
 0001:00085000       __set_printf_count_output  10086000 f   libucrtd:printf_count_output.obj
 0001:00085200       __fputwc_nolock            10086200 f   libucrtd:fputwc.obj
 0001:00085240       __fputwc_nolock_internal   10086240 f   libucrtd:fputwc.obj
 0001:00085450       __fputwchar                10086450 f   libucrtd:fputwc.obj
 0001:00085470       __putwc_nolock             10086470 f   libucrtd:fputwc.obj
 0001:00085490       _fputwc                    10086490 f   libucrtd:fputwc.obj
 0001:000854d0       _putwc                     100864d0 f   libucrtd:fputwc.obj
 0001:000854f0       _putwchar                  100864f0 f   libucrtd:fputwc.obj
 0001:00085510       ?has_any_buffer@__crt_stdio_stream@@QBE_NXZ 10086510 f i libucrtd:_sftbuf.obj
 0001:00085530       ?has_any_of@__crt_stdio_stream@@QBE_NJ@Z 10086530 f i libucrtd:_sftbuf.obj
 0001:00085570       ?has_temporary_buffer@__crt_stdio_stream@@QBE_NXZ 10086570 f i libucrtd:_sftbuf.obj
 0001:00085590       ?set_flags@__crt_stdio_stream@@QBE_NJ@Z 10086590 f i libucrtd:_sftbuf.obj
 0001:000855e0       ?unset_flags@__crt_stdio_stream@@QBE_NJ@Z 100865e0 f i libucrtd:_sftbuf.obj
 0001:00085630       ___acrt_should_use_temporary_buffer 10086630 f   libucrtd:_sftbuf.obj
 0001:00085680       ___acrt_stdio_begin_temporary_buffering_nolock 10086680 f   libucrtd:_sftbuf.obj
 0001:00085850       ___acrt_stdio_end_temporary_buffering_nolock 10086850 f   libucrtd:_sftbuf.obj
 0001:000858d0       ??$?RU__acrt_ptd@@@__crt_internal_free_policy@@QBEXQBU__acrt_ptd@@@Z 100868d0 f i libucrtd:per_thread_data.obj
 0001:00085e40       ??0?$__crt_unique_heap_ptr@U__acrt_ptd@@U__crt_internal_free_policy@@@@QAE@QAU__acrt_ptd@@@Z 10086e40 f i libucrtd:per_thread_data.obj
 0001:00085e60       ??1?$__crt_unique_heap_ptr@U__acrt_ptd@@U__crt_internal_free_policy@@@@QAE@XZ 10086e60 f i libucrtd:per_thread_data.obj
 0001:00085e80       ??B?$__crt_unique_heap_ptr@U__acrt_ptd@@U__crt_internal_free_policy@@@@QBE_NXZ 10086e80 f i libucrtd:per_thread_data.obj
 0001:00086190       ?dangerous_get_state_array@?$dual_state_global@PAU__crt_locale_data@@@__crt_state_management@@QAEPAPAU__crt_locale_data@@XZ 10087190 f i libucrtd:per_thread_data.obj
 0001:00086330       ?detach@?$__crt_unique_heap_ptr@U__acrt_ptd@@U__crt_internal_free_policy@@@@QAEPAU__acrt_ptd@@XZ 10087330 f i libucrtd:per_thread_data.obj
 0001:00086360       ?get@?$__crt_unique_heap_ptr@U__acrt_ptd@@U__crt_internal_free_policy@@@@QBEPAU__acrt_ptd@@XZ 10087360 f i libucrtd:per_thread_data.obj
 0001:00086500       ?is_valid@?$__crt_unique_heap_ptr@U__acrt_ptd@@U__crt_internal_free_policy@@@@QBE_NXZ 10087500 f i libucrtd:per_thread_data.obj
 0001:00086530       ?release@?$__crt_unique_heap_ptr@U__acrt_ptd@@U__crt_internal_free_policy@@@@QAEXXZ 10087530 f i libucrtd:per_thread_data.obj
 0001:00086620       ___acrt_freeptd            10087620 f   libucrtd:per_thread_data.obj
 0001:00086650       ___acrt_getptd             10087650 f   libucrtd:per_thread_data.obj
 0001:00086670       ___acrt_getptd_head        10087670 f   libucrtd:per_thread_data.obj
 0001:00086690       ___acrt_getptd_noexit      10087690 f   libucrtd:per_thread_data.obj
 0001:000866a0       ___acrt_getptd_noexit_explicit 100876a0 f   libucrtd:per_thread_data.obj
 0001:000866c0       ___acrt_initialize_ptd     100876c0 f   libucrtd:per_thread_data.obj
 0001:00086700       ___acrt_uninitialize_ptd   10087700 f   libucrtd:per_thread_data.obj
 0001:00086730       ___threadhandle            10087730 f   libucrtd:per_thread_data.obj
 0001:00086740       ___threadid                10087740 f   libucrtd:per_thread_data.obj
 0001:00086760       ??$?RU__crt_locale_data@@@__crt_internal_free_policy@@QBEXQBU__crt_locale_data@@@Z 10087760 f i libucrtd:wsetlocale.obj
 0001:00086780       ??$?RU__crt_locale_pointers@@@__crt_internal_free_policy@@QBEXQBU__crt_locale_pointers@@@Z 10087780 f i libucrtd:wsetlocale.obj
 0001:000867a0       ??$?RU__crt_multibyte_data@@@__crt_internal_free_policy@@QBEXQBU__crt_multibyte_data@@@Z 100877a0 f i libucrtd:wsetlocale.obj
 0001:00086e80       ??0?$__crt_unique_heap_ptr@U__crt_locale_data@@U__crt_internal_free_policy@@@@QAE@QAU__crt_locale_data@@@Z 10087e80 f i libucrtd:wsetlocale.obj
 0001:00086ea0       ??0?$__crt_unique_heap_ptr@U__crt_locale_pointers@@U__crt_internal_free_policy@@@@QAE@QAU__crt_locale_pointers@@@Z 10087ea0 f i libucrtd:wsetlocale.obj
 0001:00086ec0       ??0?$__crt_unique_heap_ptr@U__crt_multibyte_data@@U__crt_internal_free_policy@@@@QAE@QAU__crt_multibyte_data@@@Z 10087ec0 f i libucrtd:wsetlocale.obj
 0001:00086ee0       ??0_expandlocale_locale_name_cache@@QAE@QA_WIQAU__crt_qualified_locale_data@@@Z 10087ee0 f i libucrtd:wsetlocale.obj
 0001:00086f50       ??1?$__crt_unique_heap_ptr@U__crt_locale_data@@U__crt_internal_free_policy@@@@QAE@XZ 10087f50 f i libucrtd:wsetlocale.obj
 0001:00086f70       ??1?$__crt_unique_heap_ptr@U__crt_locale_pointers@@U__crt_internal_free_policy@@@@QAE@XZ 10087f70 f i libucrtd:wsetlocale.obj
 0001:00086f90       ??1?$__crt_unique_heap_ptr@U__crt_multibyte_data@@U__crt_internal_free_policy@@@@QAE@XZ 10087f90 f i libucrtd:wsetlocale.obj
 0001:00086fb0       ??1_expandlocale_locale_name_cache@@QAE@XZ 10087fb0 f i libucrtd:wsetlocale.obj
 0001:00087010       ??B?$__crt_unique_heap_ptr@U__crt_locale_data@@U__crt_internal_free_policy@@@@QBE_NXZ 10088010 f i libucrtd:wsetlocale.obj
 0001:00087030       ??B?$__crt_unique_heap_ptr@U__crt_locale_pointers@@U__crt_internal_free_policy@@@@QBE_NXZ 10088030 f i libucrtd:wsetlocale.obj
 0001:00087050       ??B?$__crt_unique_heap_ptr@U__crt_multibyte_data@@U__crt_internal_free_policy@@@@QBE_NXZ 10088050 f i libucrtd:wsetlocale.obj
 0001:00087440       ?commit_locale_name@_expandlocale_locale_name_cache@@QAEXQB_WI@Z 10088440 f i libucrtd:wsetlocale.obj
 0001:000874a0       ?commit_locale_name_cache_already_updated@_expandlocale_locale_name_cache@@QAEXQB_WI@Z 100884a0 f i libucrtd:wsetlocale.obj
 0001:00087500       ?detach@?$__crt_unique_heap_ptr@U__crt_locale_data@@U__crt_internal_free_policy@@@@QAEPAU__crt_locale_data@@XZ 10088500 f i libucrtd:wsetlocale.obj
 0001:00087530       ?detach@?$__crt_unique_heap_ptr@U__crt_locale_pointers@@U__crt_internal_free_policy@@@@QAEPAU__crt_locale_pointers@@XZ 10088530 f i libucrtd:wsetlocale.obj
 0001:00087560       ?detach@?$__crt_unique_heap_ptr@U__crt_multibyte_data@@U__crt_internal_free_policy@@@@QAEPAU__crt_multibyte_data@@XZ 10088560 f i libucrtd:wsetlocale.obj
 0001:00087590       ?get@?$__crt_unique_heap_ptr@U__crt_locale_data@@U__crt_internal_free_policy@@@@QBEPAU__crt_locale_data@@XZ 10088590 f i libucrtd:wsetlocale.obj
 0001:000875b0       ?get@?$__crt_unique_heap_ptr@U__crt_locale_pointers@@U__crt_internal_free_policy@@@@QBEPAU__crt_locale_pointers@@XZ 100885b0 f i libucrtd:wsetlocale.obj
 0001:000875d0       ?get@?$__crt_unique_heap_ptr@U__crt_multibyte_data@@U__crt_internal_free_policy@@@@QBEPAU__crt_multibyte_data@@XZ 100885d0 f i libucrtd:wsetlocale.obj
 0001:000875f0       ?is_valid@?$__crt_unique_heap_ptr@U__crt_locale_data@@U__crt_internal_free_policy@@@@QBE_NXZ 100885f0 f i libucrtd:wsetlocale.obj
 0001:00087620       ?is_valid@?$__crt_unique_heap_ptr@U__crt_locale_pointers@@U__crt_internal_free_policy@@@@QBE_NXZ 10088620 f i libucrtd:wsetlocale.obj
 0001:00087650       ?is_valid@?$__crt_unique_heap_ptr@U__crt_multibyte_data@@U__crt_internal_free_policy@@@@QBE_NXZ 10088650 f i libucrtd:wsetlocale.obj
 0001:00087680       ?release@?$__crt_unique_heap_ptr@U__crt_locale_data@@U__crt_internal_free_policy@@@@QAEXXZ 10088680 f i libucrtd:wsetlocale.obj
 0001:000876b0       ?release@?$__crt_unique_heap_ptr@U__crt_locale_pointers@@U__crt_internal_free_policy@@@@QAEXXZ 100886b0 f i libucrtd:wsetlocale.obj
 0001:000876e0       ?release@?$__crt_unique_heap_ptr@U__crt_multibyte_data@@U__crt_internal_free_policy@@@@QAEXXZ 100886e0 f i libucrtd:wsetlocale.obj
 0001:00087710       ___acrt_copy_locale_name   10088710 f   libucrtd:wsetlocale.obj
 0001:000877b0       ___acrt_set_locale_changed 100887b0 f   libucrtd:wsetlocale.obj
 0001:000877d0       ___acrt_uninitialize_locale 100887d0 f   libucrtd:wsetlocale.obj
 0001:000877f0       ___ascii_tolower           100887f0 f i libucrtd:wsetlocale.obj
 0001:00087810       ___ascii_towlower          10088810 f i libucrtd:wsetlocale.obj
 0001:00087830       ___lc_lctowcs              10088830 f   libucrtd:wsetlocale.obj
 0001:000878e0       ___lc_wcstolc              100888e0 f   libucrtd:wsetlocale.obj
 0001:00087b10       __configthreadlocale       10088b10 f   libucrtd:wsetlocale.obj
 0001:00087c90       __create_locale            10088c90 f   libucrtd:wsetlocale.obj
 0001:000882d0       __free_locale              100892d0 f   libucrtd:wsetlocale.obj
 0001:00088400       __get_current_locale       10089400 f   libucrtd:wsetlocale.obj
 0001:000884e0       __wcreate_locale           100894e0 f   libucrtd:wsetlocale.obj
 0001:00088730       __wcscats                  10089730 f   libucrtd:wsetlocale.obj
 0001:000887b0       __wsetlocale               100897b0 f   libucrtd:wsetlocale.obj
 0001:00089ec0       ___p___mb_cur_max          1008aec0 f   libucrtd:nlsdata.obj
 0001:0008a1c0       ___acrt_initialize_lowio   1008b1c0 f   libucrtd:ioinit.obj
 0001:0008a260       ___acrt_uninitialize_lowio 1008b260 f   libucrtd:ioinit.obj
 0001:0008a2c0       __CrtGetReportHook         1008b2c0 f   libucrtd:dbgrptt.obj
 0001:0008a2d0       __CrtSetReportFile         1008b2d0 f   libucrtd:dbgrptt.obj
 0001:0008a3d0       __CrtSetReportHook         1008b3d0 f   libucrtd:dbgrptt.obj
 0001:0008a3f0       __CrtSetReportMode         1008b3f0 f   libucrtd:dbgrptt.obj
 0001:0008a530       __VCrtDbgReportA           1008b530 f   libucrtd:dbgrptt.obj
 0001:0008ae00       __VCrtDbgReportW           1008be00 f   libucrtd:dbgrptt.obj
 0001:0008b820       __snprintf_s               1008c820 f i libucrtd:dbgrptt.obj
 0001:0008b860       __vsnprintf_s              1008c860 f i libucrtd:dbgrptt.obj
 0001:0008b890       __vsnprintf_s_l            1008c890 f i libucrtd:dbgrptt.obj
 0001:0008b8f0       ??$__acrt_convert_wcs_mbs_cp@_WDV<lambda_0fec1a7b3f42a53036604e18c2d5e07e>@@U__crt_win32_buffer_no_resizing@@@@YAHQB_WAAV?$__crt_win32_buffer@DU__crt_win32_buffer_no_resizing@@@@ABV<lambda_0fec1a7b3f42a53036604e18c2d5e07e>@@I@Z 1008c8f0 f i libucrtd:getmodulefilenamea.obj
 0001:0008ba30       ??$__acrt_wcs_to_mbs_cp@U__crt_win32_buffer_no_resizing@@@@YAHQB_WAAV?$__crt_win32_buffer@DU__crt_win32_buffer_no_resizing@@@@I@Z 1008ca30 f i libucrtd:getmodulefilenamea.obj
 0001:0008ba60       ??0?$__crt_win32_buffer@DU__crt_win32_buffer_no_resizing@@@@QAE@QADI@Z 1008ca60 f i libucrtd:getmodulefilenamea.obj
 0001:0008bab0       ??1?$__crt_win32_buffer@DU__crt_win32_buffer_no_resizing@@@@QAE@XZ 1008cab0 f i libucrtd:getmodulefilenamea.obj
 0001:0008bb00       ??R<lambda_0fec1a7b3f42a53036604e18c2d5e07e>@@QBEHIQB_WQADI@Z 1008cb00 f i libucrtd:getmodulefilenamea.obj
 0001:0008bb30       ?__acrt_get_utf8_acp_compatibility_codepage@@YAIXZ 1008cb30 f i libucrtd:getmodulefilenamea.obj
 0001:0008bbc0       ?_deallocate@?$__crt_win32_buffer@DU__crt_win32_buffer_no_resizing@@@@AAEXXZ 1008cbc0 f i libucrtd:getmodulefilenamea.obj
 0001:0008bc10       ?allocate@?$__crt_win32_buffer@DU__crt_win32_buffer_no_resizing@@@@QAEHI@Z 1008cc10 f i libucrtd:getmodulefilenamea.obj
 0001:0008bc80       ?allocate@__crt_win32_buffer_no_resizing@@SAHQAPAXIABV__crt_win32_buffer_empty_debug_info@@@Z 1008cc80 f i libucrtd:getmodulefilenamea.obj
 0001:0008bca0       ?capacity@?$__crt_win32_buffer@DU__crt_win32_buffer_no_resizing@@@@QBEIXZ 1008cca0 f i libucrtd:getmodulefilenamea.obj
 0001:0008bcc0       ?data@?$__crt_win32_buffer@DU__crt_win32_buffer_no_resizing@@@@QAEPADXZ 1008ccc0 f i libucrtd:getmodulefilenamea.obj
 0001:0008bce0       ?deallocate@__crt_win32_buffer_no_resizing@@SAXQAXABV__crt_win32_buffer_empty_debug_info@@@Z 1008cce0 f i libucrtd:getmodulefilenamea.obj
 0001:0008bcf0       ?debug_info@?$__crt_win32_buffer@DU__crt_win32_buffer_no_resizing@@@@QBEABV__crt_win32_buffer_empty_debug_info@@XZ 1008ccf0 f i libucrtd:getmodulefilenamea.obj
 0001:0008bd00       ?set_to_nullptr@?$__crt_win32_buffer@DU__crt_win32_buffer_no_resizing@@@@QAEXXZ 1008cd00 f i libucrtd:getmodulefilenamea.obj
 0001:0008bd40       ?size@?$__crt_win32_buffer@DU__crt_win32_buffer_no_resizing@@@@QAEXI@Z 1008cd40 f i libucrtd:getmodulefilenamea.obj
 0001:0008bd60       ?size@?$__crt_win32_buffer@DU__crt_win32_buffer_no_resizing@@@@QBEIXZ 1008cd60 f i libucrtd:getmodulefilenamea.obj
 0001:0008bd80       ___acrt_GetModuleFileNameA 1008cd80 f   libucrtd:getmodulefilenamea.obj
 0001:0008c060       ??$message_box@$$TABQBDABQBDK@?$__crt_char_traits@D@@SAH$$QA$$TABQBD1$$QAK@Z 1008d060 f i libucrtd:crtmbox.obj
 0001:0008c090       ??$message_box@$$TABQB_WABQB_WK@?$__crt_char_traits@_W@@SAH$$QA$$TABQB_W1$$QAK@Z 1008d090 f i libucrtd:crtmbox.obj
 0001:0008c0c0       ??$message_box@PAUHWND__@@ABQBDABQBDABI@?$__crt_char_traits@D@@SAH$$QAPAUHWND__@@ABQBD1ABI@Z 1008d0c0 f i libucrtd:crtmbox.obj
 0001:0008c0f0       ??$message_box@PAUHWND__@@ABQB_WABQB_WABI@?$__crt_char_traits@_W@@SAH$$QAPAUHWND__@@ABQB_W1ABI@Z 1008d0f0 f i libucrtd:crtmbox.obj
 0001:0008c120       ??$output_debug_string@ABQBD@?$__crt_char_traits@D@@SAXABQBD@Z 1008d120 f i libucrtd:crtmbox.obj
 0001:0008c140       ??$output_debug_string@ABQB_W@?$__crt_char_traits@_W@@SAXABQB_W@Z 1008d140 f i libucrtd:crtmbox.obj
 0001:0008c160       ___acrt_show_narrow_message_box 1008d160 f   libucrtd:crtmbox.obj
 0001:0008c180       ___acrt_show_wide_message_box 1008d180 f   libucrtd:crtmbox.obj
 0001:0008c1a0       ___acrt_initialize_locks   1008d1a0 f   libucrtd:locks.obj
 0001:0008c200       ___acrt_lock               1008d200 f   libucrtd:locks.obj
 0001:0008c220       ___acrt_uninitialize_locks 1008d220 f   libucrtd:locks.obj
 0001:0008c270       ___acrt_unlock             1008d270 f   libucrtd:locks.obj
 0001:0008c290       __lock_locales             1008d290 f   libucrtd:locks.obj
 0001:0008c2b0       __unlock_locales           1008d2b0 f   libucrtd:locks.obj
 0001:0008c2d0       ??$?B$$A6AXH@Z@__crt_fast_encoded_nullptr_t@@QBEP6AXH@ZXZ 1008d2d0 f i libucrtd:signal.obj
 0001:0008c3f0       ??$__crt_fast_decode_pointer@P6AXH@Z@@YAP6AXH@ZQ6AXH@Z@Z 1008d3f0 f i libucrtd:signal.obj
 0001:0008c420       ??$__crt_fast_encode_pointer@P6AXH@Z@@YAP6AXH@ZQ6AXH@Z@Z 1008d420 f i libucrtd:signal.obj
 0001:0008c6d0       ?initialize@?$dual_state_global@P6AXH@Z@__crt_state_management@@QAEXQ6AXH@Z@Z 1008d6d0 f i libucrtd:signal.obj
 0001:0008c810       ?value@?$dual_state_global@P6AXH@Z@__crt_state_management@@QAEAAP6AXH@ZXZ 1008d810 f i libucrtd:signal.obj
 0001:0008c830       ___acrt_get_sigabrt_handler 1008d830 f   libucrtd:signal.obj
 0001:0008c850       ___acrt_initialize_signal_handlers 1008d850 f   libucrtd:signal.obj
 0001:0008c890       ___fpecode                 1008d890 f   libucrtd:signal.obj
 0001:0008c8a0       ___pxcptinfoptrs           1008d8a0 f   libucrtd:signal.obj
 0001:0008c8b0       _raise                     1008d8b0 f   libucrtd:signal.obj
 0001:0008cc90       _signal                    1008dc90 f   libucrtd:signal.obj
 0001:0008cf20       __msize                    1008df20 f   libucrtd:msize.obj
 0001:0008cf40       __msize_base               1008df40 f   libucrtd:msize.obj
 0001:0008cfe0       __realloc_base             1008dfe0 f   libucrtd:realloc_base.obj
 0001:0008d0a0       ??$?B$$A6GHPA_WKJ@Z@__crt_fast_encoded_nullptr_t@@QBEP6GHPA_WKJ@ZXZ 1008e0a0 f i libucrtd:winapi_thunks.obj
 0001:0008d1c0       ??$__crt_fast_decode_pointer@P6GHPA_WKJ@Z@@YAP6GHPA_WKJ@ZQ6GH0KJ@Z@Z 1008e1c0 f i libucrtd:winapi_thunks.obj
 0001:0008d1f0       ??$__crt_fast_decode_pointer@PAX@@YAPAXQAX@Z 1008e1f0 f i libucrtd:winapi_thunks.obj
 0001:0008d220       ??$__crt_fast_encode_pointer@P6GHPA_WKJ@Z@@YAP6GHPA_WKJ@ZQ6GH0KJ@Z@Z 1008e220 f i libucrtd:winapi_thunks.obj
 0001:0008db80       _GetCurrentThreadEffectiveToken 1008eb80 f i libucrtd:winapi_thunks.obj
 0001:0008db90       ___acrt_AppPolicyGetProcessTerminationMethodInternal@4 1008eb90 f   libucrtd:winapi_thunks.obj
 0001:0008dbe0       ___acrt_AppPolicyGetShowDeveloperDiagnosticInternal@4 1008ebe0 f   libucrtd:winapi_thunks.obj
 0001:0008dc30       ___acrt_AppPolicyGetThreadInitializationTypeInternal@4 1008ec30 f   libucrtd:winapi_thunks.obj
 0001:0008dc80       ___acrt_AppPolicyGetWindowingModelInternal@4 1008ec80 f   libucrtd:winapi_thunks.obj
 0001:0008dcd0       ___acrt_AreFileApisANSI@0  1008ecd0 f   libucrtd:winapi_thunks.obj
 0001:0008dd10       ___acrt_CompareStringEx@36 1008ed10 f   libucrtd:winapi_thunks.obj
 0001:0008dda0       ___acrt_EnumSystemLocalesEx@16 1008eda0 f   libucrtd:winapi_thunks.obj
 0001:0008de00       ___acrt_FlsAlloc@4         1008ee00 f   libucrtd:winapi_thunks.obj
 0001:0008de40       ___acrt_FlsFree@4          1008ee40 f   libucrtd:winapi_thunks.obj
 0001:0008de90       ___acrt_FlsGetValue@4      1008ee90 f   libucrtd:winapi_thunks.obj
 0001:0008dee0       ___acrt_FlsSetValue@8      1008eee0 f   libucrtd:winapi_thunks.obj
 0001:0008df30       ___acrt_GetDateFormatEx@28 1008ef30 f   libucrtd:winapi_thunks.obj
 0001:0008dfb0       ___acrt_GetEnabledXStateFeatures@0 1008efb0 f   libucrtd:winapi_thunks.obj
 0001:0008dff0       ___acrt_GetLocaleInfoEx@16 1008eff0 f   libucrtd:winapi_thunks.obj
 0001:0008e060       ___acrt_GetSystemTimePreciseAsFileTime@4 1008f060 f   libucrtd:winapi_thunks.obj
 0001:0008e0b0       ___acrt_GetTimeFormatEx@24 1008f0b0 f   libucrtd:winapi_thunks.obj
 0001:0008e130       ___acrt_GetUserDefaultLocaleName@8 1008f130 f   libucrtd:winapi_thunks.obj
 0001:0008e190       ___acrt_GetXStateFeaturesMask@8 1008f190 f   libucrtd:winapi_thunks.obj
 0001:0008e1e0       ___acrt_InitializeCriticalSectionEx@12 1008f1e0 f   libucrtd:winapi_thunks.obj
 0001:0008e230       ___acrt_IsValidLocaleName@4 1008f230 f   libucrtd:winapi_thunks.obj
 0001:0008e280       ___acrt_LCIDToLocaleName@16 1008f280 f   libucrtd:winapi_thunks.obj
 0001:0008e2e0       ___acrt_LCMapStringEx@36   1008f2e0 f   libucrtd:winapi_thunks.obj
 0001:0008e360       ___acrt_LocaleNameToLCID@8 1008f360 f   libucrtd:winapi_thunks.obj
 0001:0008e3b0       ___acrt_LocateXStateFeature@12 1008f3b0 f   libucrtd:winapi_thunks.obj
 0001:0008e400       ___acrt_MessageBoxA@16     1008f400 f   libucrtd:winapi_thunks.obj
 0001:0008e450       ___acrt_MessageBoxW@16     1008f450 f   libucrtd:winapi_thunks.obj
 0001:0008e4a0       ___acrt_RoInitialize@4     1008f4a0 f   libucrtd:winapi_thunks.obj
 0001:0008e4e0       ___acrt_RoUninitialize@0   1008f4e0 f   libucrtd:winapi_thunks.obj
 0001:0008e510       ___acrt_RtlGenRandom@8     1008f510 f   libucrtd:winapi_thunks.obj
 0001:0008e560       ___acrt_SetThreadStackGuarantee@4 1008f560 f   libucrtd:winapi_thunks.obj
 0001:0008e5a0       ___acrt_can_show_message_box 1008f5a0 f   libucrtd:winapi_thunks.obj
 0001:0008e5e0       ___acrt_can_use_vista_locale_apis 1008f5e0 f   libucrtd:winapi_thunks.obj
 0001:0008e610       ___acrt_can_use_xstate_apis 1008f610 f   libucrtd:winapi_thunks.obj
 0001:0008e640       ___acrt_eagerly_load_locale_apis 1008f640 f   libucrtd:winapi_thunks.obj
 0001:0008e680       ___acrt_get_parent_window  1008f680 f   libucrtd:winapi_thunks.obj
 0001:0008e6f0       ___acrt_initialize_winapi_thunks 1008f6f0 f   libucrtd:winapi_thunks.obj
 0001:0008e760       ___acrt_is_interactive     1008f760 f   libucrtd:winapi_thunks.obj
 0001:0008e810       ___acrt_uninitialize_winapi_thunks 1008f810 f   libucrtd:winapi_thunks.obj
 0001:0008e880       __chvalidator              1008f880 f   libucrtd:isctype.obj
 0001:0008e8d0       __chvalidator_l            1008f8d0 f   libucrtd:isctype.obj
 0001:0008e950       __isctype                  1008f950 f   libucrtd:isctype.obj
 0001:0008e990       __isctype_l                1008f990 f   libucrtd:isctype.obj
 0001:0008eb20       ??$?RU__crt_stdio_stream_data@@@__crt_internal_free_policy@@QBEXQBU__crt_stdio_stream_data@@@Z 1008fb20 f i libucrtd:stream.obj
