 OPOSSpeechSynthesis

 Timestamp is 600f7bfc (Tue Jan 26 11:18:36 2021)

 Preferred load address is 10000000

 Start         Length     Name                   Class
 0001:00000000 00000d90H .text$di                CODE
 0001:00000d90 000a9810H .text$mn                CODE
 0001:000aa5a0 000001c0H .text$x                 CODE
 0001:000aa760 00000120H .text$yd                CODE
 0002:00000000 00000358H .idata$5                DATA
 0002:00000358 00000008H .00cfg                  DATA
 0002:00000360 00000004H .CRT$XCA                DATA
 0002:00000364 00000004H .CRT$XCL                DATA
 0002:00000368 0000006cH .CRT$XCU                DATA
 0002:000003d4 00000004H .CRT$XCZ                DATA
 0002:000003d8 00000004H .CRT$XIA                DATA
 0002:000003dc 00000014H .CRT$XIC                DATA
 0002:000003f0 00000004H .CRT$XIZ                DATA
 0002:000003f4 00000004H .CRT$XLA                DATA
 0002:000003f8 00000004H .CRT$XLZ                DATA
 0002:000003fc 00000004H .CRT$XPA                DATA
 0002:00000400 00000008H .CRT$XPX                DATA
 0002:00000408 00000004H .CRT$XPXA               DATA
 0002:0000040c 00000004H .CRT$XPZ                DATA
 0002:00000410 00000004H .CRT$XTA                DATA
 0002:00000414 0000000cH .CRT$XTZ                DATA
 0002:00000418 00000000H .gfids$y                DATA
 0002:00000420 0002fea0H .rdata                  DATA
 0002:000302c0 00000004H .rdata$CastGuardVftablesA DATA
 0002:000302c4 00000004H .rdata$CastGuardVftablesC DATA
 0002:000302c8 00000018H .rdata$T                DATA
 0002:000302e0 0000033cH .rdata$r                DATA
 0002:0003061c 00000044H .rdata$sxdata           DATA
 0002:00030660 00000450H .rdata$zzzdbg           DATA
 0002:00030ab0 00000004H .rtc$IAA                DATA
 0002:00030ab4 00000018H .rtc$IMZ                DATA
 0002:00030acc 00000004H .rtc$IZZ                DATA
 0002:00030ad0 00000004H .rtc$TAA                DATA
 0002:00030ad4 00000018H .rtc$TMZ                DATA
 0002:00030aec 00000004H .rtc$TZZ                DATA
 0002:00030af0 00000004H .tls                    DATA
 0002:00030af4 00000004H .tls$                   DATA
 0002:00030af8 00000008H .tls$ZZZ                DATA
 0002:00030b00 00000e4cH .xdata$x                DATA
 0002:0003194c 00000004H ATL$__a                 DATA
 0002:00031950 00000010H ATL$__z                 DATA
 0002:00031960 000000b0H .edata                  DATA
 0002:00031a10 00000078H .idata$2                DATA
 0002:00031a88 00000014H .idata$3                DATA
 0002:00031a9c 00000358H .idata$4                DATA
 0002:00031df4 00000d56H .idata$6                DATA
 0003:00000000 00000ba0H .data                   DATA
 0003:00000ba0 00000138H .data$r                 DATA
 0003:00000cd8 00003588H .bss                    DATA
 0004:00000000 00000220H .rsrc$01                DATA
 0004:00000220 00003e38H .rsrc$02                DATA

  Address         Publics by Value              Rva+Base       Lib:Object

 0000:00000000       ___dynamic_value_reloc_table 00000000     <absolute>
 0000:00000000       ___hybrid_auxiliary_iat    00000000     <absolute>
 0000:00000000       ___guard_eh_cont_count     00000000     <absolute>
 0000:00000000       ___arm64x_redirection_metadata_count 00000000     <absolute>
 0000:00000000       ___hybrid_code_map         00000000     <absolute>
 0000:00000000       ___enclave_config          00000000     <absolute>
 0000:00000000       ___hybrid_code_map_count   00000000     <absolute>
 0000:00000000       ___arm64x_redirection_metadata 00000000     <absolute>
 0000:00000000       __except_list              00000000     <absolute>
 0000:00000000       ___guard_iat_table         00000000     <absolute>
 0000:00000000       ___arm64x_native_entrypoint 00000000     <absolute>
 0000:00000000       ___volatile_metadata       00000000     <absolute>
 0000:00000000       ___arm64x_extra_rfe_table  00000000     <absolute>
 0000:00000000       ___x64_code_ranges_to_entry_points 00000000     <absolute>
 0000:00000000       ___arm64x_extra_rfe_table_size 00000000     <absolute>
 0000:00000000       ___x64_code_ranges_to_entry_points_count 00000000     <absolute>
 0000:00000000       ___guard_iat_count         00000000     <absolute>
 0000:00000000       ___guard_longjmp_count     00000000     <absolute>
 0000:00000000       ___guard_fids_table        00000000     <absolute>
 0000:00000000       ___guard_eh_cont_table     00000000     <absolute>
 0000:00000000       ___AbsoluteZero            00000000     <absolute>
 0000:00000000       ___guard_fids_count        00000000     <absolute>
 0000:00000000       ___guard_longjmp_table     00000000     <absolute>
 0000:00000011       ___safe_se_handler_count   00000011     <absolute>
 0000:0000002c       __tls_array                0000002c     <absolute>
 0000:00000100       ___guard_flags             00000100     <absolute>
 0000:00000000       ___ImageBase               10000000     <linker-defined>
 0001:00000d90       ?_assert@@YAXPB_W0I@Z      10001d90 f   Assert.obj
 0001:00000ec0       ___local_stdio_printf_options 10001ec0 f i Assert.obj
 0001:00000ed0       ___vswprintf_l             10001ed0 f i Assert.obj
 0001:00000f00       __swprintf                 10001f00 f i Assert.obj
 0001:00000f60       __vswprintf_c_l            10001f60 f i Assert.obj
 0001:00000fd0       __vswprintf_l              10001fd0 f i Assert.obj
 0001:00001000       ?cw_memcpy@@YGHPADPB_WH@Z  10002000 f   CWString.obj
 0001:00001060       ?cw_memcpy@@YGHPA_WPBDH@Z  10002060 f   CWString.obj
 0001:000010c0       ?cw_memcpy@@YGHPADPBDH@Z   100020c0 f   CWString.obj
 0001:00001110       ?cw_memcpy@@YGHPA_WPB_WH@Z 10002110 f   CWString.obj
 0001:00001150       ?cw_memset@@YAXPADDH@Z     10002150 f   CWString.obj
 0001:00001170       ?cw_memset@@YAXPA_W_WH@Z   10002170 f   CWString.obj
 0001:00001190       ?cw_strlen@@YAHPBD@Z       10002190 f   CWString.obj
 0001:000011e0       ?cw_strlen@@YAHPB_W@Z      100021e0 f   CWString.obj
 0001:00001230       ?cw_strcpy@@YAHPADPB_W@Z   10002230 f   CWString.obj
 0001:00001250       ?cw_strcpy@@YAHPA_WPBD@Z   10002250 f   CWString.obj
 0001:00001270       ?cw_strcpy@@YAHPADPBD@Z    10002270 f   CWString.obj
 0001:00001290       ?cw_strcpy@@YAHPA_WPB_W@Z  10002290 f   CWString.obj
 0001:000012b0       ?cw_strcat@@YAHPADPB_W@Z   100022b0 f   CWString.obj
 0001:000012e0       ?cw_strcat@@YAHPA_WPBD@Z   100022e0 f   CWString.obj
 0001:00001310       ?cw_strcat@@YAHPADPBD@Z    10002310 f   CWString.obj
 0001:00001340       ?cw_strcat@@YAHPA_WPB_W@Z  10002340 f   CWString.obj
 0001:00001370       ?cw_dup@@YGXPBDAAHAAPA_W1@Z 10002370 f   CWString.obj
 0001:00001430       ?cw_dup@@YGXPB_WAAHAAPAD1@Z 10002430 f   CWString.obj
 0001:000014e0       ?DupChar@_CW@@AAEXXZ       100024e0 f   CWString.obj
 0001:00001530       ?DupWide@_CW@@AAEXXZ       10002530 f   CWString.obj
 0001:00001580       ?GetCharsMbcs@_CW@@QAEHXZ  10002580 f   CWString.obj
 0001:000015e0       ?GetCharsWide@_CW@@QAEHXZ  100025e0 f   CWString.obj
 0001:00001640       ?SetVARIANT_BOOL@OposVariant@@QAEXF@Z 10002640 f   OposVariant.obj
 0001:000016a0       ?SetVARIANT_BOOL_Ptr@OposVariant@@QAEXPAFAAJ@Z 100026a0 f   OposVariant.obj
 0001:000016f0       ?GetLONG@OposVariant@@QAEJXZ 100026f0 f   OposVariant.obj
 0001:00001780       ?ChangeLONG@OposVariant@@QAEXPAJAAJ@Z 10002780 f   OposVariant.obj
 0001:00001840       ?SetLONG@OposVariant@@QAEXJ@Z 10002840 f   OposVariant.obj
 0001:00001880       ?SetLONG_Ptr@OposVariant@@QAEXPAJAAJ@Z 10002880 f   OposVariant.obj
 0001:000018d0       ?ChangeCURRENCY@OposVariant@@QAEXPATtagCY@@AAJ@Z 100028d0 f   OposVariant.obj
 0001:00001990       ?SetCURRENCY@OposVariant@@QAEXTtagCY@@@Z 10002990 f   OposVariant.obj
 0001:000019d0       ?SetCURRENCY_Ptr@OposVariant@@QAEXPATtagCY@@AAJ@Z 100029d0 f   OposVariant.obj
 0001:00001a20       ?ChangeBSTR@OposVariant@@QAEXPAPA_WAAJ@Z 10002a20 f   OposVariant.obj
 0001:00001ae0       ?SetBSTR@OposVariant@@QAEXPA_WAAJ@Z 10002ae0 f   OposVariant.obj
 0001:00001b30       ?SetBSTR_Copy@OposVariant@@QAEXPA_WAAJ@Z 10002b30 f   OposVariant.obj
 0001:00001bd0       ?SetBSTR_OutPtr@OposVariant@@QAE_NPAPA_WAAJ@Z 10002bd0 f   OposVariant.obj
 0001:00001c20       ?SetBSTR_InOutPtr@OposVariant@@QAE_NPAPA_WAAJ@Z 10002c20 f   OposVariant.obj
 0001:00001c70       ?SetVARIANT@OposVariant@@QAEXAAUtagVARIANT@@GAAJ@Z 10002c70 f   OposVariant.obj
 0001:00001cf0       ?SetVARIANT_Ptr@OposVariant@@QAEXAAPAUtagVARIANT@@GAAJ@Z 10002cf0 f   OposVariant.obj
 0001:00001d90       ?SetString@OposVariant@@QAEXPB_WAAJ@Z 10002d90 f   OposVariant.obj
 0001:00001e20       ?SetDispatch_Ptr@OposVariant@@QAEXPAUIDispatch@@AAJ@Z 10002e20 f   OposVariant.obj
 0001:00001e90       ??0OposDispParms@@QAE@PAVOposVariant@@H@Z 10002e90 f   OposVariant.obj
 0001:00001f60       ??1OposDispParms@@QAE@XZ   10002f60 f   OposVariant.obj
 0001:00001fb0       ??$AtlMultiply@I@ATL@@YAJPAIII@Z 10002fb0 f i OposVariant.obj
 0001:00002010       ??0?$CHeapPtr@_WVCCRTAllocator@ATL@@@ATL@@QAE@XZ 10003010 f i OposVariant.obj
 0001:00002040       ??0?$CHeapPtrBase@_WVCCRTAllocator@ATL@@@ATL@@IAE@XZ 10003040 f i OposVariant.obj
 0001:00002060       ??0?$CSimpleArray@GV?$CSimpleArrayEqualHelper@G@ATL@@@ATL@@QAE@XZ 10003060 f i OposVariant.obj
 0001:000020a0       ??0?$CTraceCategoryEx@$00$0A@@ATL@@QAE@PB_W@Z 100030a0 f i OposVariant.obj
 0001:000020d0       ??0?$CTraceCategoryEx@$01$0A@@ATL@@QAE@PB_W@Z 100030d0 f i OposVariant.obj
 0001:00002100       ??0?$CTraceCategoryEx@$03$0A@@ATL@@QAE@PB_W@Z 10003100 f i OposVariant.obj
 0001:00002130       ??0?$CTraceCategoryEx@$07$0A@@ATL@@QAE@PB_W@Z 10003130 f i OposVariant.obj
 0001:00002160       ??0?$CTraceCategoryEx@$0BA@$0A@@ATL@@QAE@PB_W@Z 10003160 f i OposVariant.obj
 0001:00002190       ??0?$CTraceCategoryEx@$0BAA@$0A@@ATL@@QAE@PB_W@Z 10003190 f i OposVariant.obj
 0001:000021d0       ??0?$CTraceCategoryEx@$0BAAA@$0A@@ATL@@QAE@PB_W@Z 100031d0 f i OposVariant.obj
 0001:00002210       ??0?$CTraceCategoryEx@$0BAAAA@$0A@@ATL@@QAE@PB_W@Z 10003210 f i OposVariant.obj
 0001:00002250       ??0?$CTraceCategoryEx@$0BAAAAA@$0A@@ATL@@QAE@PB_W@Z 10003250 f i OposVariant.obj
 0001:00002290       ??0?$CTraceCategoryEx@$0CA@$0A@@ATL@@QAE@PB_W@Z 10003290 f i OposVariant.obj
 0001:000022c0       ??0?$CTraceCategoryEx@$0CAA@$0A@@ATL@@QAE@PB_W@Z 100032c0 f i OposVariant.obj
 0001:00002300       ??0?$CTraceCategoryEx@$0CAAA@$0A@@ATL@@QAE@PB_W@Z 10003300 f i OposVariant.obj
 0001:00002340       ??0?$CTraceCategoryEx@$0CAAAA@$0A@@ATL@@QAE@PB_W@Z 10003340 f i OposVariant.obj
 0001:00002380       ??0?$CTraceCategoryEx@$0CAAAAA@$0A@@ATL@@QAE@PB_W@Z 10003380 f i OposVariant.obj
 0001:000023c0       ??0?$CTraceCategoryEx@$0EA@$0A@@ATL@@QAE@PB_W@Z 100033c0 f i OposVariant.obj
 0001:000023f0       ??0?$CTraceCategoryEx@$0EAA@$0A@@ATL@@QAE@PB_W@Z 100033f0 f i OposVariant.obj
 0001:00002430       ??0?$CTraceCategoryEx@$0EAAA@$0A@@ATL@@QAE@PB_W@Z 10003430 f i OposVariant.obj
 0001:00002470       ??0?$CTraceCategoryEx@$0EAAAA@$0A@@ATL@@QAE@PB_W@Z 10003470 f i OposVariant.obj
 0001:000024b0       ??0?$CTraceCategoryEx@$0EAAAAA@$0A@@ATL@@QAE@PB_W@Z 100034b0 f i OposVariant.obj
 0001:000024f0       ??0?$CTraceCategoryEx@$0IA@$0A@@ATL@@QAE@PB_W@Z 100034f0 f i OposVariant.obj
 0001:00002530       ??0?$CTraceCategoryEx@$0IAA@$0A@@ATL@@QAE@PB_W@Z 10003530 f i OposVariant.obj
 0001:00002570       ??0?$CTraceCategoryEx@$0IAAA@$0A@@ATL@@QAE@PB_W@Z 10003570 f i OposVariant.obj
 0001:000025b0       ??0?$CTraceCategoryEx@$0IAAAA@$0A@@ATL@@QAE@PB_W@Z 100035b0 f i OposVariant.obj
 0001:000025f0       ??0CAtlComModule@ATL@@QAE@XZ 100035f0 f i OposVariant.obj
 0001:000026d0       ??0CAtlWinModule@ATL@@QAE@XZ 100036d0 f i OposVariant.obj
 0001:00002760       ??0CComCriticalSection@ATL@@QAE@XZ 10003760 f i OposVariant.obj
 0001:00002790       ??0CPreserveLastError@ATL@@QAE@XZ 10003790 f i OposVariant.obj
 0001:000027d0       ??0CTraceFileAndLineInfo@ATL@@QAE@PBDH@Z 100037d0 f i OposVariant.obj
 0001:00002800       ??0_ATL_COM_MODULE70@ATL@@QAE@XZ 10003800 f i OposVariant.obj
 0001:00002830       ??0_ATL_WIN_MODULE70@ATL@@QAE@XZ 10003830 f i OposVariant.obj
 0001:00002870       ??1?$CHeapPtr@_WVCCRTAllocator@ATL@@@ATL@@QAE@XZ 10003870 f i OposVariant.obj
 0001:000028a0       ??1?$CHeapPtrBase@_WVCCRTAllocator@ATL@@@ATL@@QAE@XZ 100038a0 f i OposVariant.obj
 0001:000028d0       ??1?$CSimpleArray@GV?$CSimpleArrayEqualHelper@G@ATL@@@ATL@@QAE@XZ 100038d0 f i OposVariant.obj
 0001:00002900       ??1CAtlComModule@ATL@@QAE@XZ 10003900 f i OposVariant.obj
 0001:00002930       ??1CAtlWinModule@ATL@@QAE@XZ 10003930 f i OposVariant.obj
 0001:00002960       ??1CComBSTR@ATL@@QAE@XZ    10003960 f i OposVariant.obj
 0001:000029a0       ??1CComCriticalSection@ATL@@QAE@XZ 100039a0 f i OposVariant.obj
 0001:000029c0       ??1CPreserveLastError@ATL@@QAE@XZ 100039c0 f i OposVariant.obj
 0001:00002a00       ??1_ATL_COM_MODULE70@ATL@@QAE@XZ 10003a00 f i OposVariant.obj
 0001:00002a30       ??1_ATL_WIN_MODULE70@ATL@@QAE@XZ 10003a30 f i OposVariant.obj
 0001:00002a70       ??1stringdispid@CComTypeInfoHolder@ATL@@QAE@XZ 10003a70 f i OposVariant.obj
 0001:00002aa0       ??A?$CSimpleArray@GV?$CSimpleArrayEqualHelper@G@ATL@@@ATL@@QAEAAGH@Z 10003aa0 f i OposVariant.obj
 0001:00002b20       ??B?$CHeapPtrBase@_WVCCRTAllocator@ATL@@@ATL@@QBEPA_WXZ 10003b20 f i OposVariant.obj
 0001:00002b40       ??B?$CTraceCategoryEx@$01$0A@@ATL@@QAEIXZ 10003b40 f i OposVariant.obj
 0001:00002b60       ??B?$CTraceCategoryEx@$0CA@$0A@@ATL@@QAEIXZ 10003b60 f i OposVariant.obj
 0001:00002b80       ??RCTraceFileAndLineInfo@ATL@@QBAXHIPB_WZZ 10003b80 f i OposVariant.obj
 0001:00002c20       ??_Estringdispid@CComTypeInfoHolder@ATL@@QAEPAXI@Z 10003c20 f i OposVariant.obj
 0001:00002cb0       ??_H@YGXPAXIIP6EPAX0@Z@Z   10003cb0 f i OposVariant.obj
 0001:00002d20       ??_I@YGXPAXIIP6EX0@Z@Z     10003d20 f i OposVariant.obj
 0001:00002da0       ?Allocate@?$CHeapPtr@_WVCCRTAllocator@ATL@@@ATL@@QAE_NI@Z 10003da0 f i OposVariant.obj
 0001:00002e30       ?Allocate@CCRTAllocator@ATL@@SAPAXI@Z 10003e30 f i OposVariant.obj
 0001:00002e50       ?AllocateBytes@?$CHeapPtrBase@_WVCCRTAllocator@ATL@@@ATL@@QAE_NI@Z 10003e50 f i OposVariant.obj
 0001:00002ec0       ?AtlWinModuleInit@ATL@@YGJPAU_ATL_WIN_MODULE70@1@@Z 10003ec0 f i OposVariant.obj
 0001:00002f90       ?AtlWinModuleTerm@ATL@@YGJPAU_ATL_WIN_MODULE70@1@PAUHINSTANCE__@@@Z 10003f90 f i OposVariant.obj
 0001:00003050       ?Clear@OposVariant@@QAEJXZ 10004050 f i OposVariant.obj
 0001:00003090       ?Free@?$CHeapPtrBase@_WVCCRTAllocator@ATL@@@ATL@@QAEXXZ 10004090 f i OposVariant.obj
 0001:000030d0       ?Free@CCRTAllocator@ATL@@SAXPAX@Z 100040d0 f i OposVariant.obj
 0001:000030f0       ?GetCategoryName@CTrace@ATL@@CAPA_WI@Z 100040f0 f i OposVariant.obj
 0001:00003140       ?GetModuleInstance@CAtlBaseModule@ATL@@QAEPAUHINSTANCE__@@XZ 10004140 f i OposVariant.obj
 0001:00003160       ?GetSize@?$CSimpleArray@GV?$CSimpleArrayEqualHelper@G@ATL@@@ATL@@QBEHXZ 10004160 f i OposVariant.obj
 0001:00003180       ?Init@CComCriticalSection@ATL@@QAEJXZ 10004180 f i OposVariant.obj
 0001:000031e0       ?RegisterCategory@CTrace@ATL@@SAXPB_WI@Z 100041e0 f i OposVariant.obj
 0001:00003270       ?RemoveAll@?$CSimpleArray@GV?$CSimpleArrayEqualHelper@G@ATL@@@ATL@@QAEXXZ 10004270 f i OposVariant.obj
 0001:000032f0       ?Term@CAtlComModule@ATL@@QAEXXZ 100042f0 f i OposVariant.obj
 0001:000033b0       ?Term@CAtlWinModule@ATL@@QAEXXZ 100043b0 f i OposVariant.obj
 0001:000033e0       ?Term@CComCriticalSection@ATL@@QAEJXZ 100043e0 f i OposVariant.obj
 0001:00003420       ?TraceV@CTrace@ATL@@CAXPBDHIIPB_W@Z 10004420 f i OposVariant.obj
 0001:000036a0       ?TraceV@CTrace@ATL@@SAXPBDHIIPB_WPAD@Z 100046a0 f i OposVariant.obj
 0001:000037e0       ?_AtlInitializeCriticalSectionEx@ATL@@YAHPAU_RTL_CRITICAL_SECTION@@KK@Z 100047e0 f i OposVariant.obj
 0001:00003810       ?_AtlRaiseException@ATL@@YAXKK@Z 10004810 f i OposVariant.obj
 0001:00003840       _HRESULT_FROM_WIN32        10004840 f i OposVariant.obj
 0001:00003880       __vswprintf_s_l            10004880 f i OposVariant.obj
 0001:000038f0       _swprintf_s                100048f0 f i OposVariant.obj
 0001:00003950       ?ObjectMain@CComObjectRootBase@ATL@@SGX_N@Z 10004950 f i SpeechSynthesis.obj
 0001:00003960       ?GetCategoryMap@CComObjectRootBase@ATL@@SAPBU_ATL_CATMAP_ENTRY@2@XZ 10004960 f i SpeechSynthesis.obj
 0001:00003970       ?GetObjectDescription@?$CComCoClass@VCOPOSSpeechSynthesis@@$1?CLSID_OPOSSpeechSynthesis@@3U_GUID@@B@ATL@@SGPB_WXZ 10004970 f i SpeechSynthesis.obj
 0001:00003980       ?UpdateRegistry@COPOSSpeechSynthesis@@SGJH@Z 10004980 f i SpeechSynthesis.obj
 0001:000039a0       ?CreateInstance@?$CComCreator@V?$CComObjectCached@VCComClassFactory@ATL@@@ATL@@@ATL@@SGJPAXABU_GUID@@PAPAX@Z 100049a0 f i SpeechSynthesis.obj
 0001:00003b20       ?CreateInstance@?$CComCreator2@V?$CComCreator@V?$CComObject@VCOPOSSpeechSynthesis@@@ATL@@@ATL@@V?$CComCreator@V?$CComAggObject@VCOPOSSpeechSynthesis@@@ATL@@@2@@ATL@@SGJPAXABU_GUID@@PAPAX@Z 10004b20 f i SpeechSynthesis.obj
 0001:00003cd0       _DllGetClassObject@12      10004cd0 f   SpeechSynthesis.obj
 0001:00003d00       _DllCanUnloadNow@0         10004d00 f   SpeechSynthesis.obj
 0001:00003d40       _DllRegisterServer@0       10004d40 f   SpeechSynthesis.obj
 0001:00003d60       _DllUnregisterServer@0     10004d60 f   SpeechSynthesis.obj
 0001:00003ef0       _DllMain@12                10004ef0 f   SpeechSynthesis.obj
 0001:00003f50       ??$?2G@Wrapper@?$CSimpleArray@GV?$CSimpleArrayEqualHelper@G@ATL@@@ATL@@SAPAXIPAG@Z 10004f50 f i SpeechSynthesis.obj
 0001:00003f60       ??$?2PA_W@?$Wrapper@PA_W@?$CSimpleMap@PA_WPA_WVCExpansionVectorEqualHelper@ATL@@@ATL@@SAPAXIPAPA_W@Z 10004f60 f i SpeechSynthesis.obj
 0001:00003f70       ??$?4UITypeInfo2@@@?$CComPtr@UITypeInfo@@@ATL@@QAEPAUITypeInfo@@ABV?$CComPtr@UITypeInfo2@@@1@@Z 10004f70 f i SpeechSynthesis.obj
 0001:00003fd0       ??$AtlAdd@K@ATL@@YAJPAKKK@Z 10004fd0 f i SpeechSynthesis.obj
 0001:00004010       ??$AtlAdd@_K@ATL@@YAJPA_K_K1@Z 10005010 f i SpeechSynthesis.obj
 0001:00004080       ??$AtlAddThrow@K@ATL@@YAKKK@Z 10005080 f i SpeechSynthesis.obj
 0001:00004100       ??$AtlModuleRegisterWndClassInfoT@VAtlModuleRegisterWndClassInfoParamW@ATL@@@ATL@@YAGPAU_ATL_BASE_MODULE70@0@PAU_ATL_WIN_MODULE70@0@PAU_ATL_WNDCLASSINFOW@0@PAP6GJPAUHWND__@@IIJ@ZVAtlModuleRegisterWndClassInfoParamW@0@@Z 10005100 f i SpeechSynthesis.obj
 0001:00004510       ??$AtlMultiply@H@ATL@@YAJPAHHH@Z 10005510 f i SpeechSynthesis.obj
 0001:00004590       ??$AtlMultiply@K@ATL@@YAJPAKKK@Z 10005590 f i SpeechSynthesis.obj
 0001:000045f0       ??$AtlMultiplyThrow@I@ATL@@YAIII@Z 100055f0 f i SpeechSynthesis.obj
 0001:00004670       ??$QueryInterface@UIPersistStream@@@IUnknown@@QAGJPAPAUIPersistStream@@@Z 10005670 f i SpeechSynthesis.obj
 0001:000046a0       ??$QueryInterface@UITypeInfo2@@@IUnknown@@QAGJPAPAUITypeInfo2@@@Z 100056a0 f i SpeechSynthesis.obj
 0001:000046d0       ??0?$CAtlModuleT@VCComModule@ATL@@@ATL@@QAE@XZ 100056d0 f i SpeechSynthesis.obj
 0001:00004700       ??0?$CAtlSafeAllocBufferManager@VCCRTAllocator@ATL@@@_ATL_SAFE_ALLOCA_IMPL@ATL@@QAE@XZ 10005700 f i SpeechSynthesis.obj
 0001:00004720       ??0?$CAutoVectorPtr@_W@ATL@@QAE@XZ 10005720 f i SpeechSynthesis.obj
 0001:00004740       ??0?$CComAggObject@VCOPOSSpeechSynthesis@@@ATL@@QAE@PAX@Z 10005740 f i SpeechSynthesis.obj
 0001:000047b0       ??0?$CComContainedObject@VCOPOSSpeechSynthesis@@@ATL@@QAE@PAX@Z 100057b0 f i SpeechSynthesis.obj
 0001:000048c0       ??0?$CComCritSecLock@VCComCriticalSection@ATL@@@ATL@@QAE@AAVCComCriticalSection@1@_N@Z 100058c0 f i SpeechSynthesis.obj
 0001:00004920       ??0?$CComEnum@UIEnumConnectionPoints@@$1?_GUID_b196b285_bab4_101a_b69c_00aa00341d07@@3U__s_GUID@@BPAUIConnectionPoint@@V?$_CopyInterface@UIConnectionPoint@@@ATL@@VCComSingleThreadModel@6@@ATL@@QAE@XZ 10005920 f i SpeechSynthesis.obj
 0001:00004960       ??0?$CComEnum@UIEnumConnections@@$1?_GUID_b196b287_bab4_101a_b69c_00aa00341d07@@3U__s_GUID@@BUtagCONNECTDATA@@V?$_Copy@UtagCONNECTDATA@@@ATL@@VCComSingleThreadModel@6@@ATL@@QAE@XZ 10005960 f i SpeechSynthesis.obj
 0001:000049a0       ??0?$CComEnumImpl@UIEnumConnectionPoints@@$1?_GUID_b196b285_bab4_101a_b69c_00aa00341d07@@3U__s_GUID@@BPAUIConnectionPoint@@V?$_CopyInterface@UIConnectionPoint@@@ATL@@@ATL@@QAE@XZ 100059a0 f i SpeechSynthesis.obj
 0001:00004a00       ??0?$CComEnumImpl@UIEnumConnections@@$1?_GUID_b196b287_bab4_101a_b69c_00aa00341d07@@3U__s_GUID@@BUtagCONNECTDATA@@V?$_Copy@UtagCONNECTDATA@@@ATL@@@ATL@@QAE@XZ 10005a00 f i SpeechSynthesis.obj
 0001:00004a60       ??0?$CComObject@V?$CComEnum@UIEnumConnectionPoints@@$1?_GUID_b196b285_bab4_101a_b69c_00aa00341d07@@3U__s_GUID@@BPAUIConnectionPoint@@V?$_CopyInterface@UIConnectionPoint@@@ATL@@VCComSingleThreadModel@6@@ATL@@@ATL@@QAE@PAX@Z 10005a60 f i SpeechSynthesis.obj
 0001:00004ab0       ??0?$CComObject@V?$CComEnum@UIEnumConnections@@$1?_GUID_b196b287_bab4_101a_b69c_00aa00341d07@@3U__s_GUID@@BUtagCONNECTDATA@@V?$_Copy@UtagCONNECTDATA@@@ATL@@VCComSingleThreadModel@6@@ATL@@@ATL@@QAE@PAX@Z 10005ab0 f i SpeechSynthesis.obj
 0001:00004b00       ??0?$CComObject@VCOPOSSpeechSynthesis@@@ATL@@QAE@PAX@Z 10005b00 f i SpeechSynthesis.obj
 0001:00004c20       ??0?$CComObjectCached@VCComClassFactory@ATL@@@ATL@@QAE@PAX@Z 10005c20 f i SpeechSynthesis.obj
 0001:00004c60       ??0?$CComObjectRootEx@VCComMultiThreadModel@ATL@@@ATL@@QAE@XZ 10005c60 f i SpeechSynthesis.obj
 0001:00004ca0       ??0?$CComObjectRootEx@VCComSingleThreadModel@ATL@@@ATL@@QAE@XZ 10005ca0 f i SpeechSynthesis.obj
 0001:00004cd0       ??0?$CComPtr@UIAdviseSink@@@ATL@@QAE@PAUIAdviseSink@@@Z 10005cd0 f i SpeechSynthesis.obj
 0001:00004d00       ??0?$CComPtr@UICatRegister@@@ATL@@QAE@XZ 10005d00 f i SpeechSynthesis.obj
 0001:00004d30       ??0?$CComPtr@UIConnectionPoint@@@ATL@@QAE@XZ 10005d30 f i SpeechSynthesis.obj
 0001:00004d60       ??0?$CComPtr@UIConnectionPointContainer@@@ATL@@QAE@XZ 10005d60 f i SpeechSynthesis.obj
 0001:00004d90       ??0?$CComPtr@UIDataObject@@@ATL@@QAE@XZ 10005d90 f i SpeechSynthesis.obj
 0001:00004dc0       ??0?$CComPtr@UIDispatch@@@ATL@@QAE@XZ 10005dc0 f i SpeechSynthesis.obj
 0001:00004df0       ??0?$CComPtr@UIOleClientSite@@@ATL@@QAE@PAUIOleClientSite@@@Z 10005df0 f i SpeechSynthesis.obj
 0001:00004e20       ??0?$CComPtr@UIOleControlSite@@@ATL@@QAE@XZ 10005e20 f i SpeechSynthesis.obj
 0001:00004e50       ??0?$CComPtr@UIOleInPlaceActiveObject@@@ATL@@QAE@XZ 10005e50 f i SpeechSynthesis.obj
 0001:00004e80       ??0?$CComPtr@UIOleInPlaceFrame@@@ATL@@QAE@XZ 10005e80 f i SpeechSynthesis.obj
 0001:00004eb0       ??0?$CComPtr@UIOleInPlaceObject@@@ATL@@QAE@XZ 10005eb0 f i SpeechSynthesis.obj
 0001:00004ee0       ??0?$CComPtr@UIOleInPlaceUIWindow@@@ATL@@QAE@XZ 10005ee0 f i SpeechSynthesis.obj
 0001:00004f10       ??0?$CComPtr@UIOleObject@@@ATL@@QAE@XZ 10005f10 f i SpeechSynthesis.obj
 0001:00004f40       ??0?$CComPtr@UIPersistStream@@@ATL@@QAE@XZ 10005f40 f i SpeechSynthesis.obj
 0001:00004f70       ??0?$CComPtr@UIPersistStreamInit@@@ATL@@QAE@XZ 10005f70 f i SpeechSynthesis.obj
 0001:00004fa0       ??0?$CComPtr@UIPointerInactive@@@ATL@@QAE@XZ 10005fa0 f i SpeechSynthesis.obj
 0001:00004fd0       ??0?$CComPtr@UIProvideClassInfo2@@@ATL@@QAE@XZ 10005fd0 f i SpeechSynthesis.obj
 0001:00005000       ??0?$CComPtr@UISpecifyPropertyPages@@@ATL@@QAE@XZ 10006000 f i SpeechSynthesis.obj
 0001:00005030       ??0?$CComPtr@UIStream@@@ATL@@QAE@XZ 10006030 f i SpeechSynthesis.obj
 0001:00005060       ??0?$CComPtr@UITypeInfo2@@@ATL@@QAE@XZ 10006060 f i SpeechSynthesis.obj
 0001:00005090       ??0?$CComPtr@UITypeInfo@@@ATL@@QAE@ABV01@@Z 10006090 f i SpeechSynthesis.obj
 0001:000050c0       ??0?$CComPtr@UITypeInfo@@@ATL@@QAE@XZ 100060c0 f i SpeechSynthesis.obj
 0001:000050f0       ??0?$CComPtr@UITypeLib@@@ATL@@QAE@XZ 100060f0 f i SpeechSynthesis.obj
 0001:00005120       ??0?$CComPtr@UIUnknown@@@ATL@@QAE@ABV01@@Z 10006120 f i SpeechSynthesis.obj
 0001:00005150       ??0?$CComPtr@UIUnknown@@@ATL@@QAE@PAUIUnknown@@@Z 10006150 f i SpeechSynthesis.obj
 0001:00005180       ??0?$CComPtr@UIUnknown@@@ATL@@QAE@XZ 10006180 f i SpeechSynthesis.obj
 0001:000051b0       ??0?$CComPtr@UIViewObjectEx@@@ATL@@QAE@XZ 100061b0 f i SpeechSynthesis.obj
 0001:000051e0       ??0?$CComPtrBase@UIAdviseSink@@@ATL@@IAE@PAUIAdviseSink@@@Z 100061e0 f i SpeechSynthesis.obj
 0001:00005230       ??0?$CComPtrBase@UICatRegister@@@ATL@@IAE@XZ 10006230 f i SpeechSynthesis.obj
 0001:00005250       ??0?$CComPtrBase@UIConnectionPoint@@@ATL@@IAE@XZ 10006250 f i SpeechSynthesis.obj
 0001:00005270       ??0?$CComPtrBase@UIConnectionPointContainer@@@ATL@@IAE@XZ 10006270 f i SpeechSynthesis.obj
 0001:00005290       ??0?$CComPtrBase@UIDataObject@@@ATL@@IAE@XZ 10006290 f i SpeechSynthesis.obj
 0001:000052b0       ??0?$CComPtrBase@UIDispatch@@@ATL@@IAE@XZ 100062b0 f i SpeechSynthesis.obj
 0001:000052d0       ??0?$CComPtrBase@UIOleClientSite@@@ATL@@IAE@PAUIOleClientSite@@@Z 100062d0 f i SpeechSynthesis.obj
 0001:00005320       ??0?$CComPtrBase@UIOleControlSite@@@ATL@@IAE@XZ 10006320 f i SpeechSynthesis.obj
 0001:00005340       ??0?$CComPtrBase@UIOleInPlaceActiveObject@@@ATL@@IAE@XZ 10006340 f i SpeechSynthesis.obj
 0001:00005360       ??0?$CComPtrBase@UIOleInPlaceFrame@@@ATL@@IAE@XZ 10006360 f i SpeechSynthesis.obj
 0001:00005380       ??0?$CComPtrBase@UIOleInPlaceObject@@@ATL@@IAE@XZ 10006380 f i SpeechSynthesis.obj
 0001:000053a0       ??0?$CComPtrBase@UIOleInPlaceUIWindow@@@ATL@@IAE@XZ 100063a0 f i SpeechSynthesis.obj
 0001:000053c0       ??0?$CComPtrBase@UIOleObject@@@ATL@@IAE@XZ 100063c0 f i SpeechSynthesis.obj
 0001:000053e0       ??0?$CComPtrBase@UIPersistStream@@@ATL@@IAE@XZ 100063e0 f i SpeechSynthesis.obj
 0001:00005400       ??0?$CComPtrBase@UIPersistStreamInit@@@ATL@@IAE@XZ 10006400 f i SpeechSynthesis.obj
 0001:00005420       ??0?$CComPtrBase@UIPointerInactive@@@ATL@@IAE@XZ 10006420 f i SpeechSynthesis.obj
 0001:00005440       ??0?$CComPtrBase@UIProvideClassInfo2@@@ATL@@IAE@XZ 10006440 f i SpeechSynthesis.obj
 0001:00005460       ??0?$CComPtrBase@UISpecifyPropertyPages@@@ATL@@IAE@XZ 10006460 f i SpeechSynthesis.obj
 0001:00005480       ??0?$CComPtrBase@UIStream@@@ATL@@IAE@XZ 10006480 f i SpeechSynthesis.obj
 0001:000054a0       ??0?$CComPtrBase@UITypeInfo2@@@ATL@@IAE@XZ 100064a0 f i SpeechSynthesis.obj
 0001:000054c0       ??0?$CComPtrBase@UITypeInfo@@@ATL@@IAE@PAUITypeInfo@@@Z 100064c0 f i SpeechSynthesis.obj
 0001:00005510       ??0?$CComPtrBase@UITypeInfo@@@ATL@@IAE@XZ 10006510 f i SpeechSynthesis.obj
 0001:00005530       ??0?$CComPtrBase@UITypeLib@@@ATL@@IAE@XZ 10006530 f i SpeechSynthesis.obj
 0001:00005550       ??0?$CComPtrBase@UIUnknown@@@ATL@@IAE@PAUIUnknown@@@Z 10006550 f i SpeechSynthesis.obj
 0001:000055a0       ??0?$CComPtrBase@UIUnknown@@@ATL@@IAE@XZ 100065a0 f i SpeechSynthesis.obj
 0001:000055c0       ??0?$CComPtrBase@UIViewObjectEx@@@ATL@@IAE@XZ 100065c0 f i SpeechSynthesis.obj
 0001:000055e0       ??0?$CComQIPtr@UIOleControlSite@@$1?_GUID_b196b289_bab4_101a_b69c_00aa00341d07@@3U__s_GUID@@B@ATL@@QAE@PAUIUnknown@@@Z 100065e0 f i SpeechSynthesis.obj
 0001:00005640       ??0?$CComQIPtr@UIOleObject@@$1?_GUID_00000112_0000_0000_c000_000000000046@@3U__s_GUID@@B@ATL@@QAE@XZ 10006640 f i SpeechSynthesis.obj
 0001:00005670       ??0?$CComQIPtr@UISpecifyPropertyPages@@$1?_GUID_b196b28b_bab4_101a_b69c_00aa00341d07@@3U__s_GUID@@B@ATL@@QAE@XZ 10006670 f i SpeechSynthesis.obj
 0001:000056a0       ??0?$CSimpleMap@PA_WPA_WVCExpansionVectorEqualHelper@ATL@@@ATL@@QAE@XZ 100066a0 f i SpeechSynthesis.obj
 0001:000056e0       ??0?$CTempBuffer@E$0BAA@VCCRTAllocator@ATL@@@ATL@@QAE@XZ 100066e0 f i SpeechSynthesis.obj
 0001:00005700       ??0?$CTempBuffer@_W$0BAA@VCCRTAllocator@ATL@@@ATL@@QAE@XZ 10006700 f i SpeechSynthesis.obj
 0001:00005720       ??0?$CTempBuffer@_W$0EAA@VCCRTAllocator@ATL@@@ATL@@QAE@XZ 10006720 f i SpeechSynthesis.obj
 0001:00005740       ??0?$Wrapper@PA_W@?$CSimpleMap@PA_WPA_WVCExpansionVectorEqualHelper@ATL@@@ATL@@QAE@ABQA_W@Z 10006740 f i SpeechSynthesis.obj
 0001:00005770       ??0CAtlModule@ATL@@QAE@XZ  10006770 f i SpeechSynthesis.obj
 0001:00005890       ??0CComAutoDeleteCriticalSection@ATL@@QAE@XZ 10006890 f i SpeechSynthesis.obj
 0001:000058c0       ??0CComBSTR@ATL@@QAE@XZ    100068c0 f i SpeechSynthesis.obj
 0001:000058e0       ??0CComClassFactory@ATL@@QAE@XZ 100068e0 f i SpeechSynthesis.obj
 0001:00005920       ??0CComModule@ATL@@QAE@XZ  10006920 f i SpeechSynthesis.obj
 0001:00005990       ??0CComObjectRootBase@ATL@@QAE@XZ 10006990 f i SpeechSynthesis.obj
 0001:000059b0       ??0CComSafeDeleteCriticalSection@ATL@@QAE@XZ 100069b0 f i SpeechSynthesis.obj
 0001:000059e0       ??0CComVariant@ATL@@QAE@XZ 100069e0 f i SpeechSynthesis.obj
 0001:00005a30       ??0CExpansionVector@ATL@@QAE@XZ 10006a30 f i SpeechSynthesis.obj
 0001:00005a60       ??0CParseBuffer@CRegParser@ATL@@QAE@H@Z 10006a60 f i SpeechSynthesis.obj
 0001:00005ad0       ??0CRegKey@ATL@@QAE@PAUHKEY__@@@Z 10006ad0 f i SpeechSynthesis.obj
 0001:00005b10       ??0CRegKey@ATL@@QAE@PAVCAtlTransactionManager@1@@Z 10006b10 f i SpeechSynthesis.obj
 0001:00005b50       ??0CRegObject@ATL@@QAE@XZ  10006b50 f i SpeechSynthesis.obj
 0001:00005b90       ??0CRegParser@ATL@@QAE@PAVCRegObject@1@@Z 10006b90 f i SpeechSynthesis.obj
 0001:00005bc0       ??0IClassFactory@@QAE@XZ   10006bc0 f i SpeechSynthesis.obj
 0001:00005bf0       ??0IEnumConnectionPoints@@QAE@XZ 10006bf0 f i SpeechSynthesis.obj
 0001:00005c20       ??0IEnumConnections@@QAE@XZ 10006c20 f i SpeechSynthesis.obj
 0001:00005c50       ??0IRegistrarBase@@QAE@XZ  10006c50 f i SpeechSynthesis.obj
 0001:00005c80       ??0IUnknown@@QAE@XZ        10006c80 f i SpeechSynthesis.obj
 0001:00005ca0       ??0ModuleLockHelper@ATL@@QAE@XZ 10006ca0 f i SpeechSynthesis.obj
 0001:00005ce0       ??0OposVariant@@QAE@XZ     10006ce0 f i SpeechSynthesis.obj
 0001:00005d10       ??0Wrapper@?$CSimpleArray@GV?$CSimpleArrayEqualHelper@G@ATL@@@ATL@@QAE@ABG@Z 10006d10 f i SpeechSynthesis.obj
 0001:00005d40       ??0_ATL_MODULE70@ATL@@QAE@XZ 10006d40 f i SpeechSynthesis.obj
 0001:00005d70       ??0_ATL_MSG@ATL@@QAE@PAUHWND__@@IIJH@Z 10006d70 f i SpeechSynthesis.obj
 0001:00005de0       ??0_U_MENUorID@ATL@@QAE@I@Z 10006de0 f i SpeechSynthesis.obj
 0001:00005e00       ??0_U_RECT@ATL@@QAE@AAUtagRECT@@@Z 10006e00 f i SpeechSynthesis.obj
 0001:00005e20       ??0stringdispid@CComTypeInfoHolder@ATL@@QAE@XZ 10006e20 f i SpeechSynthesis.obj
 0001:00005e60       ??1?$CAtlModuleT@VCComModule@ATL@@@ATL@@UAE@XZ 10006e60 f i SpeechSynthesis.obj
 0001:00005e90       ??1?$CAtlSafeAllocBufferManager@VCCRTAllocator@ATL@@@_ATL_SAFE_ALLOCA_IMPL@ATL@@QAE@XZ 10006e90 f i SpeechSynthesis.obj
 0001:00005ee0       ??1?$CAutoVectorPtr@_W@ATL@@QAE@XZ 10006ee0 f i SpeechSynthesis.obj
 0001:00005f10       ??1?$CComAggObject@VCOPOSSpeechSynthesis@@@ATL@@UAE@XZ 10006f10 f i SpeechSynthesis.obj
 0001:00005f80       ??1?$CComContainedObject@VCOPOSSpeechSynthesis@@@ATL@@UAE@XZ 10006f80 f i SpeechSynthesis.obj
 0001:00005fb0       ??1?$CComCritSecLock@VCComCriticalSection@ATL@@@ATL@@QAE@XZ 10006fb0 f i SpeechSynthesis.obj
 0001:00005fe0       ??1?$CComEnum@UIEnumConnectionPoints@@$1?_GUID_b196b285_bab4_101a_b69c_00aa00341d07@@3U__s_GUID@@BPAUIConnectionPoint@@V?$_CopyInterface@UIConnectionPoint@@@ATL@@VCComSingleThreadModel@6@@ATL@@UAE@XZ 10006fe0 f i SpeechSynthesis.obj
 0001:00006010       ??1?$CComEnum@UIEnumConnections@@$1?_GUID_b196b287_bab4_101a_b69c_00aa00341d07@@3U__s_GUID@@BUtagCONNECTDATA@@V?$_Copy@UtagCONNECTDATA@@@ATL@@VCComSingleThreadModel@6@@ATL@@UAE@XZ 10007010 f i SpeechSynthesis.obj
 0001:00006040       ??1?$CComEnumImpl@UIEnumConnectionPoints@@$1?_GUID_b196b285_bab4_101a_b69c_00aa00341d07@@3U__s_GUID@@BPAUIConnectionPoint@@V?$_CopyInterface@UIConnectionPoint@@@ATL@@@ATL@@UAE@XZ 10007040 f i SpeechSynthesis.obj
 0001:000060d0       ??1?$CComEnumImpl@UIEnumConnections@@$1?_GUID_b196b287_bab4_101a_b69c_00aa00341d07@@3U__s_GUID@@BUtagCONNECTDATA@@V?$_Copy@UtagCONNECTDATA@@@ATL@@@ATL@@UAE@XZ 100070d0 f i SpeechSynthesis.obj
 0001:00006160       ??1?$CComObject@V?$CComEnum@UIEnumConnectionPoints@@$1?_GUID_b196b285_bab4_101a_b69c_00aa00341d07@@3U__s_GUID@@BPAUIConnectionPoint@@V?$_CopyInterface@UIConnectionPoint@@@ATL@@VCComSingleThreadModel@6@@ATL@@@ATL@@UAE@XZ 10007160 f i SpeechSynthesis.obj
 0001:000061c0       ??1?$CComObject@V?$CComEnum@UIEnumConnections@@$1?_GUID_b196b287_bab4_101a_b69c_00aa00341d07@@3U__s_GUID@@BUtagCONNECTDATA@@V?$_Copy@UtagCONNECTDATA@@@ATL@@VCComSingleThreadModel@6@@ATL@@@ATL@@UAE@XZ 100071c0 f i SpeechSynthesis.obj
 0001:00006220       ??1?$CComObject@VCOPOSSpeechSynthesis@@@ATL@@UAE@XZ 10007220 f i SpeechSynthesis.obj
 0001:00006360       ??1?$CComObjectCached@VCComClassFactory@ATL@@@ATL@@UAE@XZ 10007360 f i SpeechSynthesis.obj
 0001:000063b0       ??1?$CComObjectRootEx@VCComMultiThreadModel@ATL@@@ATL@@QAE@XZ 100073b0 f i SpeechSynthesis.obj
 0001:000063e0       ??1?$CComObjectRootEx@VCComSingleThreadModel@ATL@@@ATL@@QAE@XZ 100073e0 f i SpeechSynthesis.obj
 0001:00006410       ??1?$CComPtr@UIAdviseSink@@@ATL@@QAE@XZ 10007410 f i SpeechSynthesis.obj
 0001:00006440       ??1?$CComPtr@UICatRegister@@@ATL@@QAE@XZ 10007440 f i SpeechSynthesis.obj
 0001:00006470       ??1?$CComPtr@UIConnectionPoint@@@ATL@@QAE@XZ 10007470 f i SpeechSynthesis.obj
 0001:000064a0       ??1?$CComPtr@UIConnectionPointContainer@@@ATL@@QAE@XZ 100074a0 f i SpeechSynthesis.obj
 0001:000064d0       ??1?$CComPtr@UIDataObject@@@ATL@@QAE@XZ 100074d0 f i SpeechSynthesis.obj
 0001:00006500       ??1?$CComPtr@UIDispatch@@@ATL@@QAE@XZ 10007500 f i SpeechSynthesis.obj
 0001:00006530       ??1?$CComPtr@UIOleClientSite@@@ATL@@QAE@XZ 10007530 f i SpeechSynthesis.obj
 0001:00006560       ??1?$CComPtr@UIOleControlSite@@@ATL@@QAE@XZ 10007560 f i SpeechSynthesis.obj
 0001:00006590       ??1?$CComPtr@UIOleInPlaceActiveObject@@@ATL@@QAE@XZ 10007590 f i SpeechSynthesis.obj
 0001:000065c0       ??1?$CComPtr@UIOleInPlaceFrame@@@ATL@@QAE@XZ 100075c0 f i SpeechSynthesis.obj
 0001:000065f0       ??1?$CComPtr@UIOleInPlaceObject@@@ATL@@QAE@XZ 100075f0 f i SpeechSynthesis.obj
 0001:00006620       ??1?$CComPtr@UIOleInPlaceUIWindow@@@ATL@@QAE@XZ 10007620 f i SpeechSynthesis.obj
 0001:00006650       ??1?$CComPtr@UIOleObject@@@ATL@@QAE@XZ 10007650 f i SpeechSynthesis.obj
 0001:00006680       ??1?$CComPtr@UIPersistStream@@@ATL@@QAE@XZ 10007680 f i SpeechSynthesis.obj
 0001:000066b0       ??1?$CComPtr@UIPersistStreamInit@@@ATL@@QAE@XZ 100076b0 f i SpeechSynthesis.obj
 0001:000066e0       ??1?$CComPtr@UIPointerInactive@@@ATL@@QAE@XZ 100076e0 f i SpeechSynthesis.obj
 0001:00006710       ??1?$CComPtr@UIProvideClassInfo2@@@ATL@@QAE@XZ 10007710 f i SpeechSynthesis.obj
 0001:00006740       ??1?$CComPtr@UISpecifyPropertyPages@@@ATL@@QAE@XZ 10007740 f i SpeechSynthesis.obj
 0001:00006770       ??1?$CComPtr@UIStream@@@ATL@@QAE@XZ 10007770 f i SpeechSynthesis.obj
 0001:000067a0       ??1?$CComPtr@UITypeInfo2@@@ATL@@QAE@XZ 100077a0 f i SpeechSynthesis.obj
 0001:000067d0       ??1?$CComPtr@UITypeInfo@@@ATL@@QAE@XZ 100077d0 f i SpeechSynthesis.obj
 0001:00006800       ??1?$CComPtr@UITypeLib@@@ATL@@QAE@XZ 10007800 f i SpeechSynthesis.obj
 0001:00006830       ??1?$CComPtr@UIUnknown@@@ATL@@QAE@XZ 10007830 f i SpeechSynthesis.obj
 0001:00006860       ??1?$CComPtr@UIViewObjectEx@@@ATL@@QAE@XZ 10007860 f i SpeechSynthesis.obj
 0001:00006890       ??1?$CComPtrBase@UIAdviseSink@@@ATL@@QAE@XZ 10007890 f i SpeechSynthesis.obj
 0001:000068e0       ??1?$CComPtrBase@UICatRegister@@@ATL@@QAE@XZ 100078e0 f i SpeechSynthesis.obj
 0001:00006930       ??1?$CComPtrBase@UIConnectionPoint@@@ATL@@QAE@XZ 10007930 f i SpeechSynthesis.obj
 0001:00006980       ??1?$CComPtrBase@UIConnectionPointContainer@@@ATL@@QAE@XZ 10007980 f i SpeechSynthesis.obj
 0001:000069d0       ??1?$CComPtrBase@UIDataObject@@@ATL@@QAE@XZ 100079d0 f i SpeechSynthesis.obj
 0001:00006a20       ??1?$CComPtrBase@UIDispatch@@@ATL@@QAE@XZ 10007a20 f i SpeechSynthesis.obj
 0001:00006a70       ??1?$CComPtrBase@UIOleClientSite@@@ATL@@QAE@XZ 10007a70 f i SpeechSynthesis.obj
 0001:00006ac0       ??1?$CComPtrBase@UIOleControlSite@@@ATL@@QAE@XZ 10007ac0 f i SpeechSynthesis.obj
 0001:00006b10       ??1?$CComPtrBase@UIOleInPlaceActiveObject@@@ATL@@QAE@XZ 10007b10 f i SpeechSynthesis.obj
 0001:00006b60       ??1?$CComPtrBase@UIOleInPlaceFrame@@@ATL@@QAE@XZ 10007b60 f i SpeechSynthesis.obj
 0001:00006bb0       ??1?$CComPtrBase@UIOleInPlaceObject@@@ATL@@QAE@XZ 10007bb0 f i SpeechSynthesis.obj
 0001:00006c00       ??1?$CComPtrBase@UIOleInPlaceUIWindow@@@ATL@@QAE@XZ 10007c00 f i SpeechSynthesis.obj
 0001:00006c50       ??1?$CComPtrBase@UIOleObject@@@ATL@@QAE@XZ 10007c50 f i SpeechSynthesis.obj
 0001:00006ca0       ??1?$CComPtrBase@UIPersistStream@@@ATL@@QAE@XZ 10007ca0 f i SpeechSynthesis.obj
 0001:00006cf0       ??1?$CComPtrBase@UIPersistStreamInit@@@ATL@@QAE@XZ 10007cf0 f i SpeechSynthesis.obj
 0001:00006d40       ??1?$CComPtrBase@UIPointerInactive@@@ATL@@QAE@XZ 10007d40 f i SpeechSynthesis.obj
 0001:00006d90       ??1?$CComPtrBase@UIProvideClassInfo2@@@ATL@@QAE@XZ 10007d90 f i SpeechSynthesis.obj
 0001:00006de0       ??1?$CComPtrBase@UISpecifyPropertyPages@@@ATL@@QAE@XZ 10007de0 f i SpeechSynthesis.obj
 0001:00006e30       ??1?$CComPtrBase@UIStream@@@ATL@@QAE@XZ 10007e30 f i SpeechSynthesis.obj
 0001:00006e80       ??1?$CComPtrBase@UITypeInfo2@@@ATL@@QAE@XZ 10007e80 f i SpeechSynthesis.obj
 0001:00006ed0       ??1?$CComPtrBase@UITypeInfo@@@ATL@@QAE@XZ 10007ed0 f i SpeechSynthesis.obj
 0001:00006f20       ??1?$CComPtrBase@UITypeLib@@@ATL@@QAE@XZ 10007f20 f i SpeechSynthesis.obj
 0001:00006f70       ??1?$CComPtrBase@UIUnknown@@@ATL@@QAE@XZ 10007f70 f i SpeechSynthesis.obj
 0001:00006fc0       ??1?$CComPtrBase@UIViewObjectEx@@@ATL@@QAE@XZ 10007fc0 f i SpeechSynthesis.obj
 0001:00007010       ??1?$CComQIPtr@UIOleControlSite@@$1?_GUID_b196b289_bab4_101a_b69c_00aa00341d07@@3U__s_GUID@@B@ATL@@QAE@XZ 10008010 f i SpeechSynthesis.obj
 0001:00007040       ??1?$CComQIPtr@UIOleObject@@$1?_GUID_00000112_0000_0000_c000_000000000046@@3U__s_GUID@@B@ATL@@QAE@XZ 10008040 f i SpeechSynthesis.obj
 0001:00007070       ??1?$CComQIPtr@UISpecifyPropertyPages@@$1?_GUID_b196b28b_bab4_101a_b69c_00aa00341d07@@3U__s_GUID@@B@ATL@@QAE@XZ 10008070 f i SpeechSynthesis.obj
 0001:000070a0       ??1?$CSimpleMap@PA_WPA_WVCExpansionVectorEqualHelper@ATL@@@ATL@@QAE@XZ 100080a0 f i SpeechSynthesis.obj
 0001:000070d0       ??1?$CTempBuffer@E$0BAA@VCCRTAllocator@ATL@@@ATL@@QAE@XZ 100080d0 f i SpeechSynthesis.obj
 0001:00007110       ??1?$CTempBuffer@_W$0BAA@VCCRTAllocator@ATL@@@ATL@@QAE@XZ 10008110 f i SpeechSynthesis.obj
 0001:00007150       ??1?$CTempBuffer@_W$0EAA@VCCRTAllocator@ATL@@@ATL@@QAE@XZ 10008150 f i SpeechSynthesis.obj
 0001:00007190       ??1CAtlModule@ATL@@UAE@XZ  10008190 f i SpeechSynthesis.obj
 0001:000071c0       ??1CComAutoDeleteCriticalSection@ATL@@QAE@XZ 100081c0 f i SpeechSynthesis.obj
 0001:000071f0       ??1CComClassFactory@ATL@@UAE@XZ 100081f0 f i SpeechSynthesis.obj
 0001:00007220       ??1CComModule@ATL@@UAE@XZ  10008220 f i SpeechSynthesis.obj
 0001:00007250       ??1CComObjectRootBase@ATL@@QAE@XZ 10008250 f i SpeechSynthesis.obj
 0001:00007270       ??1CComSafeDeleteCriticalSection@ATL@@QAE@XZ 10008270 f i SpeechSynthesis.obj
 0001:000072b0       ??1CComVariant@ATL@@QAE@XZ 100082b0 f i SpeechSynthesis.obj
 0001:00007310       ??1CExpansionVector@ATL@@QAE@XZ 10008310 f i SpeechSynthesis.obj
 0001:00007340       ??1CParseBuffer@CRegParser@ATL@@QAE@XZ 10008340 f i SpeechSynthesis.obj
 0001:00007380       ??1CRegKey@ATL@@QAE@XZ     10008380 f i SpeechSynthesis.obj
 0001:000073b0       ??1CRegObject@ATL@@UAE@XZ  100083b0 f i SpeechSynthesis.obj
 0001:000073f0       ??1ModuleLockHelper@ATL@@QAE@XZ 100083f0 f i SpeechSynthesis.obj
 0001:00007430       ??1OposVariant@@QAE@XZ     10008430 f i SpeechSynthesis.obj
 0001:00007460       ??1_ATL_MODULE70@ATL@@QAE@XZ 10008460 f i SpeechSynthesis.obj
 0001:00007490       ??4?$CComPtr@UIAdviseSink@@@ATL@@QAEPAUIAdviseSink@@PAU2@@Z 10008490 f i SpeechSynthesis.obj
 0001:000074f0       ??4?$CComPtr@UIOleClientSite@@@ATL@@QAEPAUIOleClientSite@@PAU2@@Z 100084f0 f i SpeechSynthesis.obj
 0001:00007550       ??4?$CComPtr@UIUnknown@@@ATL@@QAEPAUIUnknown@@PAU2@@Z 10008550 f i SpeechSynthesis.obj
 0001:000075b0       ??4?$CComQIPtr@UIOleObject@@$1?_GUID_00000112_0000_0000_c000_000000000046@@3U__s_GUID@@B@ATL@@QAEPAUIOleObject@@PAUIUnknown@@@Z 100085b0 f i SpeechSynthesis.obj
 0001:00007600       ??4?$CComQIPtr@UISpecifyPropertyPages@@$1?_GUID_b196b28b_bab4_101a_b69c_00aa00341d07@@3U__s_GUID@@B@ATL@@QAEPAUISpecifyPropertyPages@@PAUIUnknown@@@Z 10008600 f i SpeechSynthesis.obj
 0001:00007650       ??7?$CComPtrBase@UIOleClientSite@@@ATL@@QBE_NXZ 10008650 f i SpeechSynthesis.obj
 0001:00007690       ??7?$CComPtrBase@UIOleInPlaceSiteWindowless@@@ATL@@QBE_NXZ 10008690 f i SpeechSynthesis.obj
 0001:000076d0       ??7CComBSTR@ATL@@QBE_NXZ   100086d0 f i SpeechSynthesis.obj
 0001:00007710       ??8?$CComPtrBase@UIConnectionPointContainer@@@ATL@@QBE_NPAUIConnectionPointContainer@@@Z 10008710 f i SpeechSynthesis.obj
 0001:00007750       ??8?$CComPtrBase@UIDataAdviseHolder@@@ATL@@QBE_NPAUIDataAdviseHolder@@@Z 10008750 f i SpeechSynthesis.obj
 0001:00007790       ??8?$CComPtrBase@UIOleAdviseHolder@@@ATL@@QBE_NPAUIOleAdviseHolder@@@Z 10008790 f i SpeechSynthesis.obj
 0001:000077d0       ??8?$CComPtrBase@UIOleClientSite@@@ATL@@QBE_NPAUIOleClientSite@@@Z 100087d0 f i SpeechSynthesis.obj
 0001:00007810       ??8?$CComPtrBase@UIOleControlSite@@@ATL@@QBE_NPAUIOleControlSite@@@Z 10008810 f i SpeechSynthesis.obj
 0001:00007850       ??8?$CComPtrBase@UIOleInPlaceObject@@@ATL@@QBE_NPAUIOleInPlaceObject@@@Z 10008850 f i SpeechSynthesis.obj
 0001:00007890       ??8?$CComPtrBase@UIOleInPlaceSiteWindowless@@@ATL@@QBE_NPAUIOleInPlaceSiteWindowless@@@Z 10008890 f i SpeechSynthesis.obj
 0001:000078d0       ??8?$CComPtrBase@UIOleObject@@@ATL@@QBE_NPAUIOleObject@@@Z 100088d0 f i SpeechSynthesis.obj
 0001:00007910       ??8?$CComPtrBase@UIPersistStream@@@ATL@@QBE_NPAUIPersistStream@@@Z 10008910 f i SpeechSynthesis.obj
 0001:00007950       ??8?$CComPtrBase@UIPersistStreamInit@@@ATL@@QBE_NPAUIPersistStreamInit@@@Z 10008950 f i SpeechSynthesis.obj
 0001:00007990       ??8?$CComPtrBase@UIPointerInactive@@@ATL@@QBE_NPAUIPointerInactive@@@Z 10008990 f i SpeechSynthesis.obj
 0001:000079d0       ??8?$CComPtrBase@UIUnknown@@@ATL@@QBE_NPAUIUnknown@@@Z 100089d0 f i SpeechSynthesis.obj
 0001:00007a10       ??8?$CComPtrBase@UIViewObjectEx@@@ATL@@QBE_NPAUIViewObjectEx@@@Z 10008a10 f i SpeechSynthesis.obj
 0001:00007a50       ??8CComBSTR@ATL@@QBE_NH@Z  10008a50 f i SpeechSynthesis.obj
 0001:00007ab0       ??9?$CComPtrBase@UIConnectionPointContainer@@@ATL@@QBE_NPAUIConnectionPointContainer@@@Z 10008ab0 f i SpeechSynthesis.obj
 0001:00007b00       ??9?$CComPtrBase@UIDataAdviseHolder@@@ATL@@QBE_NPAUIDataAdviseHolder@@@Z 10008b00 f i SpeechSynthesis.obj
 0001:00007b50       ??9?$CComPtrBase@UIOleAdviseHolder@@@ATL@@QBE_NPAUIOleAdviseHolder@@@Z 10008b50 f i SpeechSynthesis.obj
 0001:00007ba0       ??9?$CComPtrBase@UIOleClientSite@@@ATL@@QBE_NPAUIOleClientSite@@@Z 10008ba0 f i SpeechSynthesis.obj
 0001:00007bf0       ??9?$CComPtrBase@UIOleControlSite@@@ATL@@QBE_NPAUIOleControlSite@@@Z 10008bf0 f i SpeechSynthesis.obj
 0001:00007c40       ??9?$CComPtrBase@UIOleInPlaceObject@@@ATL@@QBE_NPAUIOleInPlaceObject@@@Z 10008c40 f i SpeechSynthesis.obj
 0001:00007c90       ??9?$CComPtrBase@UIOleInPlaceSiteWindowless@@@ATL@@QBE_NPAUIOleInPlaceSiteWindowless@@@Z 10008c90 f i SpeechSynthesis.obj
 0001:00007ce0       ??9?$CComPtrBase@UIOleObject@@@ATL@@QBE_NPAUIOleObject@@@Z 10008ce0 f i SpeechSynthesis.obj
 0001:00007d30       ??9?$CComPtrBase@UIPersistStream@@@ATL@@QBE_NPAUIPersistStream@@@Z 10008d30 f i SpeechSynthesis.obj
 0001:00007d80       ??9?$CComPtrBase@UIPersistStreamInit@@@ATL@@QBE_NPAUIPersistStreamInit@@@Z 10008d80 f i SpeechSynthesis.obj
 0001:00007dd0       ??9?$CComPtrBase@UIPointerInactive@@@ATL@@QBE_NPAUIPointerInactive@@@Z 10008dd0 f i SpeechSynthesis.obj
 0001:00007e20       ??9?$CComPtrBase@UIUnknown@@@ATL@@QBE_NPAUIUnknown@@@Z 10008e20 f i SpeechSynthesis.obj
 0001:00007e70       ??9?$CComPtrBase@UIViewObjectEx@@@ATL@@QBE_NPAUIViewObjectEx@@@Z 10008e70 f i SpeechSynthesis.obj
 0001:00007ec0       ??9CComBSTR@ATL@@QBE_NH@Z  10008ec0 f i SpeechSynthesis.obj
 0001:00007f10       ??B?$CComPtrBase@UIAdviseSink@@@ATL@@QBEPAUIAdviseSink@@XZ 10008f10 f i SpeechSynthesis.obj
 0001:00007f30       ??B?$CComPtrBase@UIDataAdviseHolder@@@ATL@@QBEPAUIDataAdviseHolder@@XZ 10008f30 f i SpeechSynthesis.obj
 0001:00007f50       ??B?$CComPtrBase@UIDataObject@@@ATL@@QBEPAUIDataObject@@XZ 10008f50 f i SpeechSynthesis.obj
 0001:00007f70       ??B?$CComPtrBase@UIOleAdviseHolder@@@ATL@@QBEPAUIOleAdviseHolder@@XZ 10008f70 f i SpeechSynthesis.obj
 0001:00007f90       ??B?$CComPtrBase@UIOleClientSite@@@ATL@@QBEPAUIOleClientSite@@XZ 10008f90 f i SpeechSynthesis.obj
 0001:00007fb0       ??B?$CComPtrBase@UIOleControlSite@@@ATL@@QBEPAUIOleControlSite@@XZ 10008fb0 f i SpeechSynthesis.obj
 0001:00007fd0       ??B?$CComPtrBase@UIOleInPlaceActiveObject@@@ATL@@QBEPAUIOleInPlaceActiveObject@@XZ 10008fd0 f i SpeechSynthesis.obj
 0001:00007ff0       ??B?$CComPtrBase@UIOleInPlaceFrame@@@ATL@@QBEPAUIOleInPlaceFrame@@XZ 10008ff0 f i SpeechSynthesis.obj
 0001:00008010       ??B?$CComPtrBase@UIOleInPlaceSiteWindowless@@@ATL@@QBEPAUIOleInPlaceSiteWindowless@@XZ 10009010 f i SpeechSynthesis.obj
 0001:00008030       ??B?$CComPtrBase@UIOleInPlaceUIWindow@@@ATL@@QBEPAUIOleInPlaceUIWindow@@XZ 10009030 f i SpeechSynthesis.obj
 0001:00008050       ??B?$CComPtrBase@UIOleObject@@@ATL@@QBEPAUIOleObject@@XZ 10009050 f i SpeechSynthesis.obj
 0001:00008070       ??B?$CComPtrBase@UIPersistStream@@@ATL@@QBEPAUIPersistStream@@XZ 10009070 f i SpeechSynthesis.obj
 0001:00008090       ??B?$CComPtrBase@UIProvideClassInfo2@@@ATL@@QBEPAUIProvideClassInfo2@@XZ 10009090 f i SpeechSynthesis.obj
 0001:000080b0       ??B?$CComPtrBase@UISpecifyPropertyPages@@@ATL@@QBEPAUISpecifyPropertyPages@@XZ 100090b0 f i SpeechSynthesis.obj
 0001:000080d0       ??B?$CComPtrBase@UIStream@@@ATL@@QBEPAUIStream@@XZ 100090d0 f i SpeechSynthesis.obj
 0001:000080f0       ??B?$CComPtrBase@UITypeInfo2@@@ATL@@QBEPAUITypeInfo2@@XZ 100090f0 f i SpeechSynthesis.obj
 0001:00008110       ??B?$CComPtrBase@UITypeInfo@@@ATL@@QBEPAUITypeInfo@@XZ 10009110 f i SpeechSynthesis.obj
 0001:00008130       ??B?$CComPtrBase@UITypeLib@@@ATL@@QBEPAUITypeLib@@XZ 10009130 f i SpeechSynthesis.obj
 0001:00008150       ??B?$CComPtrBase@UIUnknown@@@ATL@@QBEPAUIUnknown@@XZ 10009150 f i SpeechSynthesis.obj
 0001:00008170       ??B?$CTempBuffer@E$0BAA@VCCRTAllocator@ATL@@@ATL@@QBEPAEXZ 10009170 f i SpeechSynthesis.obj
 0001:00008190       ??B?$CTempBuffer@_W$0BAA@VCCRTAllocator@ATL@@@ATL@@QBEPA_WXZ 10009190 f i SpeechSynthesis.obj
 0001:000081b0       ??B?$CTempBuffer@_W$0EAA@VCCRTAllocator@ATL@@@ATL@@QBEPA_WXZ 100091b0 f i SpeechSynthesis.obj
 0001:000081d0       ??B?$CTraceCategoryEx@$00$0A@@ATL@@QAEIXZ 100091d0 f i SpeechSynthesis.obj
 0001:000081f0       ??B?$CTraceCategoryEx@$07$0A@@ATL@@QAEIXZ 100091f0 f i SpeechSynthesis.obj
 0001:00008210       ??B?$CTraceCategoryEx@$0CAAA@$0A@@ATL@@QAEIXZ 10009210 f i SpeechSynthesis.obj
 0001:00008230       ??B?$CTraceCategoryEx@$0EA@$0A@@ATL@@QAEIXZ 10009230 f i SpeechSynthesis.obj
 0001:00008250       ??B?$CTraceCategoryEx@$0IAA@$0A@@ATL@@QAEIXZ 10009250 f i SpeechSynthesis.obj
 0001:00008270       ??BCComBSTR@ATL@@QBEPA_WXZ 10009270 f i SpeechSynthesis.obj
 0001:00008290       ??BCRegKey@ATL@@QBEPAUHKEY__@@XZ 10009290 f i SpeechSynthesis.obj
 0001:000082b0       ??C?$CComPtrBase@UIAdviseSink@@@ATL@@QBEPAV?$_NoAddRefReleaseOnCComPtr@UIAdviseSink@@@1@XZ 100092b0 f i SpeechSynthesis.obj
 0001:00008300       ??C?$CComPtrBase@UICatRegister@@@ATL@@QBEPAV?$_NoAddRefReleaseOnCComPtr@UICatRegister@@@1@XZ 10009300 f i SpeechSynthesis.obj
 0001:00008350       ??C?$CComPtrBase@UIConnectionPoint@@@ATL@@QBEPAV?$_NoAddRefReleaseOnCComPtr@UIConnectionPoint@@@1@XZ 10009350 f i SpeechSynthesis.obj
 0001:000083a0       ??C?$CComPtrBase@UIConnectionPointContainer@@@ATL@@QBEPAV?$_NoAddRefReleaseOnCComPtr@UIConnectionPointContainer@@@1@XZ 100093a0 f i SpeechSynthesis.obj
 0001:000083f0       ??C?$CComPtrBase@UIDataAdviseHolder@@@ATL@@QBEPAV?$_NoAddRefReleaseOnCComPtr@UIDataAdviseHolder@@@1@XZ 100093f0 f i SpeechSynthesis.obj
 0001:00008440       ??C?$CComPtrBase@UIOleAdviseHolder@@@ATL@@QBEPAV?$_NoAddRefReleaseOnCComPtr@UIOleAdviseHolder@@@1@XZ 10009440 f i SpeechSynthesis.obj
 0001:00008490       ??C?$CComPtrBase@UIOleClientSite@@@ATL@@QBEPAV?$_NoAddRefReleaseOnCComPtr@UIOleClientSite@@@1@XZ 10009490 f i SpeechSynthesis.obj
 0001:000084e0       ??C?$CComPtrBase@UIOleControlSite@@@ATL@@QBEPAV?$_NoAddRefReleaseOnCComPtr@UIOleControlSite@@@1@XZ 100094e0 f i SpeechSynthesis.obj
 0001:00008530       ??C?$CComPtrBase@UIOleInPlaceFrame@@@ATL@@QBEPAV?$_NoAddRefReleaseOnCComPtr@UIOleInPlaceFrame@@@1@XZ 10009530 f i SpeechSynthesis.obj
 0001:00008580       ??C?$CComPtrBase@UIOleInPlaceObject@@@ATL@@QBEPAV?$_NoAddRefReleaseOnCComPtr@UIOleInPlaceObject@@@1@XZ 10009580 f i SpeechSynthesis.obj
 0001:000085d0       ??C?$CComPtrBase@UIOleInPlaceSiteWindowless@@@ATL@@QBEPAV?$_NoAddRefReleaseOnCComPtr@UIOleInPlaceSiteWindowless@@@1@XZ 100095d0 f i SpeechSynthesis.obj
 0001:00008620       ??C?$CComPtrBase@UIOleInPlaceUIWindow@@@ATL@@QBEPAV?$_NoAddRefReleaseOnCComPtr@UIOleInPlaceUIWindow@@@1@XZ 10009620 f i SpeechSynthesis.obj
 0001:00008670       ??C?$CComPtrBase@UIOleObject@@@ATL@@QBEPAV?$_NoAddRefReleaseOnCComPtr@UIOleObject@@@1@XZ 10009670 f i SpeechSynthesis.obj
 0001:000086c0       ??C?$CComPtrBase@UIPersistStream@@@ATL@@QBEPAV?$_NoAddRefReleaseOnCComPtr@UIPersistStream@@@1@XZ 100096c0 f i SpeechSynthesis.obj
 0001:00008710       ??C?$CComPtrBase@UIPersistStreamInit@@@ATL@@QBEPAV?$_NoAddRefReleaseOnCComPtr@UIPersistStreamInit@@@1@XZ 10009710 f i SpeechSynthesis.obj
 0001:00008760       ??C?$CComPtrBase@UIPointerInactive@@@ATL@@QBEPAV?$_NoAddRefReleaseOnCComPtr@UIPointerInactive@@@1@XZ 10009760 f i SpeechSynthesis.obj
 0001:000087b0       ??C?$CComPtrBase@UIProvideClassInfo2@@@ATL@@QBEPAV?$_NoAddRefReleaseOnCComPtr@UIProvideClassInfo2@@@1@XZ 100097b0 f i SpeechSynthesis.obj
 0001:00008800       ??C?$CComPtrBase@UISpecifyPropertyPages@@@ATL@@QBEPAV?$_NoAddRefReleaseOnCComPtr@UISpecifyPropertyPages@@@1@XZ 10009800 f i SpeechSynthesis.obj
 0001:00008850       ??C?$CComPtrBase@UITypeInfo@@@ATL@@QBEPAV?$_NoAddRefReleaseOnCComPtr@UITypeInfo@@@1@XZ 10009850 f i SpeechSynthesis.obj
 0001:000088a0       ??C?$CComPtrBase@UITypeLib@@@ATL@@QBEPAV?$_NoAddRefReleaseOnCComPtr@UITypeLib@@@1@XZ 100098a0 f i SpeechSynthesis.obj
 0001:000088f0       ??C?$CComPtrBase@UIUnknown@@@ATL@@QBEPAV?$_NoAddRefReleaseOnCComPtr@UIUnknown@@@1@XZ 100098f0 f i SpeechSynthesis.obj
 0001:00008940       ??C?$CComPtrBase@UIViewObjectEx@@@ATL@@QBEPAV?$_NoAddRefReleaseOnCComPtr@UIViewObjectEx@@@1@XZ 10009940 f i SpeechSynthesis.obj
 0001:00008990       ??I?$CComPtrBase@UICatRegister@@@ATL@@QAEPAPAUICatRegister@@XZ 10009990 f i SpeechSynthesis.obj
 0001:000089e0       ??I?$CComPtrBase@UIConnectionPoint@@@ATL@@QAEPAPAUIConnectionPoint@@XZ 100099e0 f i SpeechSynthesis.obj
 0001:00008a30       ??I?$CComPtrBase@UIConnectionPointContainer@@@ATL@@QAEPAPAUIConnectionPointContainer@@XZ 10009a30 f i SpeechSynthesis.obj
 0001:00008a80       ??I?$CComPtrBase@UIDataAdviseHolder@@@ATL@@QAEPAPAUIDataAdviseHolder@@XZ 10009a80 f i SpeechSynthesis.obj
 0001:00008ad0       ??I?$CComPtrBase@UIDataObject@@@ATL@@QAEPAPAUIDataObject@@XZ 10009ad0 f i SpeechSynthesis.obj
 0001:00008b20       ??I?$CComPtrBase@UIDispatch@@@ATL@@QAEPAPAUIDispatch@@XZ 10009b20 f i SpeechSynthesis.obj
 0001:00008b70       ??I?$CComPtrBase@UIOleAdviseHolder@@@ATL@@QAEPAPAUIOleAdviseHolder@@XZ 10009b70 f i SpeechSynthesis.obj
 0001:00008bc0       ??I?$CComPtrBase@UIOleControlSite@@@ATL@@QAEPAPAUIOleControlSite@@XZ 10009bc0 f i SpeechSynthesis.obj
 0001:00008c10       ??I?$CComPtrBase@UIOleInPlaceActiveObject@@@ATL@@QAEPAPAUIOleInPlaceActiveObject@@XZ 10009c10 f i SpeechSynthesis.obj
 0001:00008c60       ??I?$CComPtrBase@UIOleInPlaceFrame@@@ATL@@QAEPAPAUIOleInPlaceFrame@@XZ 10009c60 f i SpeechSynthesis.obj
 0001:00008cb0       ??I?$CComPtrBase@UIOleInPlaceObject@@@ATL@@QAEPAPAUIOleInPlaceObject@@XZ 10009cb0 f i SpeechSynthesis.obj
 0001:00008d00       ??I?$CComPtrBase@UIOleInPlaceSiteWindowless@@@ATL@@QAEPAPAUIOleInPlaceSiteWindowless@@XZ 10009d00 f i SpeechSynthesis.obj
 0001:00008d50       ??I?$CComPtrBase@UIOleInPlaceUIWindow@@@ATL@@QAEPAPAUIOleInPlaceUIWindow@@XZ 10009d50 f i SpeechSynthesis.obj
 0001:00008da0       ??I?$CComPtrBase@UIOleObject@@@ATL@@QAEPAPAUIOleObject@@XZ 10009da0 f i SpeechSynthesis.obj
 0001:00008df0       ??I?$CComPtrBase@UIPersistStream@@@ATL@@QAEPAPAUIPersistStream@@XZ 10009df0 f i SpeechSynthesis.obj
 0001:00008e40       ??I?$CComPtrBase@UIPointerInactive@@@ATL@@QAEPAPAUIPointerInactive@@XZ 10009e40 f i SpeechSynthesis.obj
 0001:00008e90       ??I?$CComPtrBase@UIProvideClassInfo2@@@ATL@@QAEPAPAUIProvideClassInfo2@@XZ 10009e90 f i SpeechSynthesis.obj
 0001:00008ee0       ??I?$CComPtrBase@UIStream@@@ATL@@QAEPAPAUIStream@@XZ 10009ee0 f i SpeechSynthesis.obj
 0001:00008f30       ??I?$CComPtrBase@UITypeInfo2@@@ATL@@QAEPAPAUITypeInfo2@@XZ 10009f30 f i SpeechSynthesis.obj
 0001:00008f80       ??I?$CComPtrBase@UITypeInfo@@@ATL@@QAEPAPAUITypeInfo@@XZ 10009f80 f i SpeechSynthesis.obj
 0001:00008fd0       ??I?$CComPtrBase@UITypeLib@@@ATL@@QAEPAPAUITypeLib@@XZ 10009fd0 f i SpeechSynthesis.obj
 0001:00009020       ??I?$CComPtrBase@UIUnknown@@@ATL@@QAEPAPAUIUnknown@@XZ 1000a020 f i SpeechSynthesis.obj
 0001:00009070       ??I?$CComPtrBase@UIViewObjectEx@@@ATL@@QAEPAPAUIViewObjectEx@@XZ 1000a070 f i SpeechSynthesis.obj
 0001:000090c0       ??ICComBSTR@ATL@@QAEPAPA_WXZ 1000a0c0 f i SpeechSynthesis.obj
 0001:000090d5       ??_E?$CComContainedObject@VCOPOSSpeechSynthesis@@@ATL@@W3AEPAXI@Z 1000a0d5 f i SpeechSynthesis.obj
 0001:000090dd       ??_E?$CComContainedObject@VCOPOSSpeechSynthesis@@@ATL@@WEM@AEPAXI@Z 1000a0dd f i SpeechSynthesis.obj
 0001:000090e5       ??_E?$CComObject@VCOPOSSpeechSynthesis@@@ATL@@W3AEPAXI@Z 1000a0e5 f i SpeechSynthesis.obj
 0001:000090ed       ??_E?$CComObject@VCOPOSSpeechSynthesis@@@ATL@@WEM@AEPAXI@Z 1000a0ed f i SpeechSynthesis.obj
 0001:00009100       ??_G?$CComAggObject@VCOPOSSpeechSynthesis@@@ATL@@UAEPAXI@Z 1000a100 f i SpeechSynthesis.obj
 0001:00009100       ??_E?$CComAggObject@VCOPOSSpeechSynthesis@@@ATL@@UAEPAXI@Z 1000a100 f i SpeechSynthesis.obj
 0001:00009150       ??_G?$CComContainedObject@VCOPOSSpeechSynthesis@@@ATL@@UAEPAXI@Z 1000a150 f i SpeechSynthesis.obj
 0001:00009150       ??_E?$CComContainedObject@VCOPOSSpeechSynthesis@@@ATL@@UAEPAXI@Z 1000a150 f i SpeechSynthesis.obj
 0001:000091a0       ??_E?$CComObject@V?$CComEnum@UIEnumConnectionPoints@@$1?_GUID_b196b285_bab4_101a_b69c_00aa00341d07@@3U__s_GUID@@BPAUIConnectionPoint@@V?$_CopyInterface@UIConnectionPoint@@@ATL@@VCComSingleThreadModel@6@@ATL@@@ATL@@UAEPAXI@Z 1000a1a0 f i SpeechSynthesis.obj
 0001:000091a0       ??_G?$CComObject@V?$CComEnum@UIEnumConnectionPoints@@$1?_GUID_b196b285_bab4_101a_b69c_00aa00341d07@@3U__s_GUID@@BPAUIConnectionPoint@@V?$_CopyInterface@UIConnectionPoint@@@ATL@@VCComSingleThreadModel@6@@ATL@@@ATL@@UAEPAXI@Z 1000a1a0 f i SpeechSynthesis.obj
 0001:000091e0       ??_G?$CComObject@V?$CComEnum@UIEnumConnections@@$1?_GUID_b196b287_bab4_101a_b69c_00aa00341d07@@3U__s_GUID@@BUtagCONNECTDATA@@V?$_Copy@UtagCONNECTDATA@@@ATL@@VCComSingleThreadModel@6@@ATL@@@ATL@@UAEPAXI@Z 1000a1e0 f i SpeechSynthesis.obj
 0001:000091e0       ??_E?$CComObject@V?$CComEnum@UIEnumConnections@@$1?_GUID_b196b287_bab4_101a_b69c_00aa00341d07@@3U__s_GUID@@BUtagCONNECTDATA@@V?$_Copy@UtagCONNECTDATA@@@ATL@@VCComSingleThreadModel@6@@ATL@@@ATL@@UAEPAXI@Z 1000a1e0 f i SpeechSynthesis.obj
 0001:00009220       ??_G?$CComObject@VCOPOSSpeechSynthesis@@@ATL@@UAEPAXI@Z 1000a220 f i SpeechSynthesis.obj
 0001:00009220       ??_E?$CComObject@VCOPOSSpeechSynthesis@@@ATL@@UAEPAXI@Z 1000a220 f i SpeechSynthesis.obj
 0001:00009270       ??_E?$CComObjectCached@VCComClassFactory@ATL@@@ATL@@UAEPAXI@Z 1000a270 f i SpeechSynthesis.obj
 0001:00009270       ??_G?$CComObjectCached@VCComClassFactory@ATL@@@ATL@@UAEPAXI@Z 1000a270 f i SpeechSynthesis.obj
 0001:000092b0       ??_ECComClassFactory@ATL@@UAEPAXI@Z 1000a2b0 f i SpeechSynthesis.obj
 0001:000092b0       ??_GCComClassFactory@ATL@@UAEPAXI@Z 1000a2b0 f i SpeechSynthesis.obj
 0001:000092f0       ??_GCComModule@ATL@@UAEPAXI@Z 1000a2f0 f i SpeechSynthesis.obj
 0001:000092f0       ??_ECComModule@ATL@@UAEPAXI@Z 1000a2f0 f i SpeechSynthesis.obj
 0001:00009330       ??_ECRegObject@ATL@@UAEPAXI@Z 1000a330 f i SpeechSynthesis.obj
 0001:00009330       ??_GCRegObject@ATL@@UAEPAXI@Z 1000a330 f i SpeechSynthesis.obj
 0001:00009370       ?Add@?$CSimpleArray@GV?$CSimpleArrayEqualHelper@G@ATL@@@ATL@@QAEHABG@Z 1000a370 f i SpeechSynthesis.obj
 0001:000094c0       ?Add@?$CSimpleMap@PA_WPA_WVCExpansionVectorEqualHelper@ATL@@@ATL@@QAEHABQA_W0@Z 1000a4c0 f i SpeechSynthesis.obj
 0001:00009580       ?Add@CComDynamicUnkArray@ATL@@QAEKPAUIUnknown@@@Z 1000a580 f i SpeechSynthesis.obj
 0001:00009720       ?Add@CExpansionVector@ATL@@QAEHPB_W0@Z 1000a720 f i SpeechSynthesis.obj
 0001:000099b0       ?AddChar@CParseBuffer@CRegParser@ATL@@QAEHPB_W@Z 1000a9b0 f i SpeechSynthesis.obj
 0001:000099f0       ?AddCommonRGSReplacements@?$CAtlModuleT@VCComModule@ATL@@@ATL@@UAEJPAUIRegistrarBase@@@Z 1000a9f0 f i SpeechSynthesis.obj
 0001:00009a40       ?AddCreateWndData@CAtlWinModule@ATL@@QAEXPAU_AtlCreateWndData@2@PAX@Z 1000aa40 f i SpeechSynthesis.obj
 0001:00009a70       ?AddRef@?$CComAggObject@VCOPOSSpeechSynthesis@@@ATL@@UAGKXZ 1000aa70 f i SpeechSynthesis.obj
 0001:00009a90       ?AddRef@?$CComContainedObject@VCOPOSSpeechSynthesis@@@ATL@@UAGKXZ 1000aa90 f i SpeechSynthesis.obj
 0001:00009aac       ?AddRef@?$CComContainedObject@VCOPOSSpeechSynthesis@@@ATL@@WHA@AGKXZ 1000aaac f i SpeechSynthesis.obj
 0001:00009ab6       ?AddRef@?$CComContainedObject@VCOPOSSpeechSynthesis@@@ATL@@WHE@AGKXZ 1000aab6 f i SpeechSynthesis.obj
 0001:00009ac0       ?AddRef@?$CComContainedObject@VCOPOSSpeechSynthesis@@@ATL@@WHI@AGKXZ 1000aac0 f i SpeechSynthesis.obj
 0001:00009aca       ?AddRef@?$CComContainedObject@VCOPOSSpeechSynthesis@@@ATL@@WHM@AGKXZ 1000aaca f i SpeechSynthesis.obj
 0001:00009ad4       ?AddRef@?$CComContainedObject@VCOPOSSpeechSynthesis@@@ATL@@WIA@AGKXZ 1000aad4 f i SpeechSynthesis.obj
 0001:00009ae1       ?AddRef@?$CComContainedObject@VCOPOSSpeechSynthesis@@@ATL@@WIE@AGKXZ 1000aae1 f i SpeechSynthesis.obj
 0001:00009aee       ?AddRef@?$CComContainedObject@VCOPOSSpeechSynthesis@@@ATL@@WII@AGKXZ 1000aaee f i SpeechSynthesis.obj
 0001:00009afb       ?AddRef@?$CComContainedObject@VCOPOSSpeechSynthesis@@@ATL@@WIM@AGKXZ 1000aafb f i SpeechSynthesis.obj
 0001:00009b08       ?AddRef@?$CComContainedObject@VCOPOSSpeechSynthesis@@@ATL@@WJA@AGKXZ 1000ab08 f i SpeechSynthesis.obj
 0001:00009b15       ?AddRef@?$CComContainedObject@VCOPOSSpeechSynthesis@@@ATL@@WJE@AGKXZ 1000ab15 f i SpeechSynthesis.obj
 0001:00009b22       ?AddRef@?$CComContainedObject@VCOPOSSpeechSynthesis@@@ATL@@WJI@AGKXZ 1000ab22 f i SpeechSynthesis.obj
 0001:00009b2f       ?AddRef@?$CComContainedObject@VCOPOSSpeechSynthesis@@@ATL@@WJM@AGKXZ 1000ab2f f i SpeechSynthesis.obj
 0001:00009b3c       ?AddRef@?$CComContainedObject@VCOPOSSpeechSynthesis@@@ATL@@WKA@AGKXZ 1000ab3c f i SpeechSynthesis.obj
 0001:00009b49       ?AddRef@?$CComContainedObject@VCOPOSSpeechSynthesis@@@ATL@@WKI@AGKXZ 1000ab49 f i SpeechSynthesis.obj
 0001:00009b56       ?AddRef@?$CComContainedObject@VCOPOSSpeechSynthesis@@@ATL@@WLE@AGKXZ 1000ab56 f i SpeechSynthesis.obj
 0001:00009b70       ?AddRef@?$CComObject@V?$CComEnum@UIEnumConnectionPoints@@$1?_GUID_b196b285_bab4_101a_b69c_00aa00341d07@@3U__s_GUID@@BPAUIConnectionPoint@@V?$_CopyInterface@UIConnectionPoint@@@ATL@@VCComSingleThreadModel@6@@ATL@@@ATL@@UAGKXZ 1000ab70 f i SpeechSynthesis.obj
 0001:00009b90       ?AddRef@?$CComObject@V?$CComEnum@UIEnumConnections@@$1?_GUID_b196b287_bab4_101a_b69c_00aa00341d07@@3U__s_GUID@@BUtagCONNECTDATA@@V?$_Copy@UtagCONNECTDATA@@@ATL@@VCComSingleThreadModel@6@@ATL@@@ATL@@UAGKXZ 1000ab90 f i SpeechSynthesis.obj
 0001:00009bb0       ?AddRef@?$CComObject@VCOPOSSpeechSynthesis@@@ATL@@UAGKXZ 1000abb0 f i SpeechSynthesis.obj
 0001:00009bcc       ?AddRef@?$CComObject@VCOPOSSpeechSynthesis@@@ATL@@WHA@AGKXZ 1000abcc f i SpeechSynthesis.obj
 0001:00009bd6       ?AddRef@?$CComObject@VCOPOSSpeechSynthesis@@@ATL@@WHE@AGKXZ 1000abd6 f i SpeechSynthesis.obj
 0001:00009be0       ?AddRef@?$CComObject@VCOPOSSpeechSynthesis@@@ATL@@WHI@AGKXZ 1000abe0 f i SpeechSynthesis.obj
 0001:00009bea       ?AddRef@?$CComObject@VCOPOSSpeechSynthesis@@@ATL@@WHM@AGKXZ 1000abea f i SpeechSynthesis.obj
 0001:00009bf4       ?AddRef@?$CComObject@VCOPOSSpeechSynthesis@@@ATL@@WIA@AGKXZ 1000abf4 f i SpeechSynthesis.obj
 0001:00009c01       ?AddRef@?$CComObject@VCOPOSSpeechSynthesis@@@ATL@@WIE@AGKXZ 1000ac01 f i SpeechSynthesis.obj
 0001:00009c0e       ?AddRef@?$CComObject@VCOPOSSpeechSynthesis@@@ATL@@WII@AGKXZ 1000ac0e f i SpeechSynthesis.obj
 0001:00009c1b       ?AddRef@?$CComObject@VCOPOSSpeechSynthesis@@@ATL@@WIM@AGKXZ 1000ac1b f i SpeechSynthesis.obj
 0001:00009c28       ?AddRef@?$CComObject@VCOPOSSpeechSynthesis@@@ATL@@WJA@AGKXZ 1000ac28 f i SpeechSynthesis.obj
 0001:00009c35       ?AddRef@?$CComObject@VCOPOSSpeechSynthesis@@@ATL@@WJE@AGKXZ 1000ac35 f i SpeechSynthesis.obj
 0001:00009c42       ?AddRef@?$CComObject@VCOPOSSpeechSynthesis@@@ATL@@WJI@AGKXZ 1000ac42 f i SpeechSynthesis.obj
 0001:00009c4f       ?AddRef@?$CComObject@VCOPOSSpeechSynthesis@@@ATL@@WJM@AGKXZ 1000ac4f f i SpeechSynthesis.obj
 0001:00009c5c       ?AddRef@?$CComObject@VCOPOSSpeechSynthesis@@@ATL@@WKA@AGKXZ 1000ac5c f i SpeechSynthesis.obj
 0001:00009c69       ?AddRef@?$CComObject@VCOPOSSpeechSynthesis@@@ATL@@WKI@AGKXZ 1000ac69 f i SpeechSynthesis.obj
 0001:00009c76       ?AddRef@?$CComObject@VCOPOSSpeechSynthesis@@@ATL@@WLE@AGKXZ 1000ac76 f i SpeechSynthesis.obj
 0001:00009c90       ?AddRef@?$CComObjectCached@VCComClassFactory@ATL@@@ATL@@UAGKXZ 1000ac90 f i SpeechSynthesis.obj
 0001:00009ce0       ?AddRef@CRegObject@ATL@@UAGKXZ 1000ace0 f i SpeechSynthesis.obj
 0001:00009d30       ?AddReplacement@CRegObject@ATL@@UAGJPB_W0@Z 1000ad30 f i SpeechSynthesis.obj
 0001:00009e40       ?AddString@CParseBuffer@CRegParser@ATL@@QAEHPB_W@Z 1000ae40 f i SpeechSynthesis.obj
 0001:00009f30       ?AddTermFunc@CAtlModule@ATL@@QAEJP6GXK@ZK@Z 1000af30 f i SpeechSynthesis.obj
 0001:00009f80       ?AddValue@CRegParser@ATL@@IAEJAAVCRegKey@2@PB_WPA_W@Z 1000af80 f i SpeechSynthesis.obj
 0001:0000a710       ?Advise@?$CProxy_IOPOSEvents@VCOPOSSpeechSynthesis@@@@UAGJPAUIUnknown@@PAK@Z 1000b710 f i SpeechSynthesis.obj
 0001:0000a760       ?Advise@?$IConnectionPointImpl@VCOPOSSpeechSynthesis@@$1?DIID__IOPOSSpeechSynthesisEvents@@3U_GUID@@BVCComDynamicUnkArray@ATL@@@ATL@@UAGJPAUIUnknown@@PAK@Z 1000b760 f i SpeechSynthesis.obj
 0001:0000a900       ?Advise@?$IConnectionPointImpl@VCOPOSSpeechSynthesis@@$1?IID_IPropertyNotifySink@@3U_GUID@@BVCComDynamicUnkArray@ATL@@@ATL@@UAGJPAUIUnknown@@PAK@Z 1000b900 f i SpeechSynthesis.obj
 0001:0000aaa0       ?Advise@?$IOleObjectImpl@VCOPOSSpeechSynthesis@@@ATL@@UAGJPAUIAdviseSink@@PAK@Z 1000baa0 f i SpeechSynthesis.obj
 0001:0000ab30       ?Allocate@?$CAtlSafeAllocBufferManager@VCCRTAllocator@ATL@@@_ATL_SAFE_ALLOCA_IMPL@ATL@@QAEPAXK@Z 1000bb30 f i SpeechSynthesis.obj
 0001:0000aba0       ?Allocate@?$CTempBuffer@E$0BAA@VCCRTAllocator@ATL@@@ATL@@QAEPAEI@Z 1000bba0 f i SpeechSynthesis.obj
 0001:0000abe0       ?Allocate@?$CTempBuffer@_W$0BAA@VCCRTAllocator@ATL@@@ATL@@QAEPA_WI@Z 1000bbe0 f i SpeechSynthesis.obj
 0001:0000ac20       ?Allocate@?$CTempBuffer@_W$0EAA@VCCRTAllocator@ATL@@@ATL@@QAEPA_WI@Z 1000bc20 f i SpeechSynthesis.obj
 0001:0000ac60       ?AllocateBytes@?$CTempBuffer@E$0BAA@VCCRTAllocator@ATL@@@ATL@@QAEPAEI@Z 1000bc60 f i SpeechSynthesis.obj
 0001:0000ace0       ?AllocateBytes@?$CTempBuffer@_W$0BAA@VCCRTAllocator@ATL@@@ATL@@QAEPA_WI@Z 1000bce0 f i SpeechSynthesis.obj
 0001:0000ad60       ?AllocateBytes@?$CTempBuffer@_W$0EAA@VCCRTAllocator@ATL@@@ATL@@QAEPA_WI@Z 1000bd60 f i SpeechSynthesis.obj
 0001:0000ade0       ?AllocateHeap@?$CTempBuffer@E$0BAA@VCCRTAllocator@ATL@@@ATL@@AAEXI@Z 1000bde0 f i SpeechSynthesis.obj
 0001:0000ae30       ?AllocateHeap@?$CTempBuffer@_W$0BAA@VCCRTAllocator@ATL@@@ATL@@AAEXI@Z 1000be30 f i SpeechSynthesis.obj
 0001:0000ae80       ?AllocateHeap@?$CTempBuffer@_W$0EAA@VCCRTAllocator@ATL@@@ATL@@AAEXI@Z 1000be80 f i SpeechSynthesis.obj
 0001:0000aed0       ?Append@CParseBuffer@CRegParser@ATL@@QAEHPB_WH@Z 1000bed0 f i SpeechSynthesis.obj
 0001:0000b070       ?AtlCallTermFunc@ATL@@YGXPAU_ATL_MODULE70@1@@Z 1000c070 f i SpeechSynthesis.obj
 0001:0000b110       ?AtlCoTaskMemCAlloc@ATL@@YAPAXKK@Z 1000c110 f i SpeechSynthesis.obj
 0001:0000b1a0       ?AtlCoTaskMemRecalloc@ATL@@YAPAXPAXKK@Z 1000c1a0 f i SpeechSynthesis.obj
 0001:0000b240       ?AtlComModuleGetClassObject@ATL@@YGJPAU_ATL_COM_MODULE70@1@ABU_GUID@@1PAPAX@Z 1000c240 f i SpeechSynthesis.obj
 0001:0000b4d0       ?AtlComModuleRegisterServer@ATL@@YGJPAU_ATL_COM_MODULE70@1@HPBU_GUID@@@Z 1000c4d0 f i SpeechSynthesis.obj
 0001:0000b660       ?AtlComModuleUnregisterServer@ATL@@YGJPAU_ATL_COM_MODULE70@1@HPBU_GUID@@@Z 1000c660 f i SpeechSynthesis.obj
 0001:0000b790       ?AtlComQIPtrAssign2@ATL@@YAXPAPAUIUnknown@@PAU2@ABU_GUID@@@Z 1000c790 f i SpeechSynthesis.obj
 0001:0000b810       ?AtlCreateTargetDC@ATL@@YGPAUHDC__@@PAU2@PAUtagDVTARGETDEVICE@@@Z 1000c810 f i SpeechSynthesis.obj
 0001:0000b9b0       ?AtlCrtErrorCheck@ATL@@YAHH@Z 1000c9b0 f i SpeechSynthesis.obj
 0001:0000ba80       ?AtlGetPerUserRegistration@ATL@@YGJPA_N@Z 1000ca80 f i SpeechSynthesis.obj
 0001:0000bab0       ?AtlHiMetricToPixel@ATL@@YGXPBUtagSIZE@@PAU2@@Z 1000cab0 f i SpeechSynthesis.obj
 0001:0000bc80       ?AtlHresultFromLastError@ATL@@YAJXZ 1000cc80 f i SpeechSynthesis.obj
 0001:0000bcc0       ?AtlHresultFromWin32@ATL@@YAJK@Z 1000ccc0 f i SpeechSynthesis.obj
 0001:0000bce0       ?AtlIPersistStreamInit_Load@ATL@@YGJPAUIStream@@PBUATL_PROPMAP_ENTRY@1@PAXPAUIUnknown@@@Z 1000cce0 f i SpeechSynthesis.obj
 0001:0000c140       ?AtlIPersistStreamInit_Save@ATL@@YGJPAUIStream@@HPBUATL_PROPMAP_ENTRY@1@PAXPAUIUnknown@@@Z 1000d140 f i SpeechSynthesis.obj
 0001:0000c520       ?AtlInternalOleLoadFromStream@ATL@@YAJPAUIStream@@ABU_GUID@@PAPAXTClassesAllowedInStream@1@K@Z 1000d520 f i SpeechSynthesis.obj
 0001:0000c7c0       ?AtlInternalQueryInterface@ATL@@YGJPAXPBU_ATL_INTMAP_ENTRY@1@ABU_GUID@@PAPAX@Z 1000d7c0 f i SpeechSynthesis.obj
 0001:0000c9f0       ?AtlLoadTypeLib@ATL@@YGJPAUHINSTANCE__@@PB_WPAPA_WPAPAUITypeLib@@@Z 1000d9f0 f i SpeechSynthesis.obj
 0001:0000ce50       ?AtlModuleAddTermFunc@ATL@@YGJPAU_ATL_MODULE70@1@P6GXK@ZK@Z 1000de50 f i SpeechSynthesis.obj
 0001:0000cfb0       ?AtlRegisterClassCategoriesHelper@ATL@@YGJABU_GUID@@PBU_ATL_CATMAP_ENTRY@1@H@Z 1000dfb0 f i SpeechSynthesis.obj
 0001:0000d690       ?AtlRegisterTypeLib@ATL@@YGJPAUHINSTANCE__@@PB_W@Z 1000e690 f i SpeechSynthesis.obj
 0001:0000d9d0       ?AtlThrowImpl@ATL@@YGXJ@Z  1000e9d0 f i SpeechSynthesis.obj
 0001:0000da80       ?AtlUnRegisterTypeLib@ATL@@YGJPAUHINSTANCE__@@PB_W@Z 1000ea80 f i SpeechSynthesis.obj
 0001:0000dc90       ?AtlWinModuleAddCreateWndData@ATL@@YGXPAU_ATL_WIN_MODULE70@1@PAU_AtlCreateWndData@1@PAX@Z 1000ec90 f i SpeechSynthesis.obj
 0001:0000de00       ?AtlWinModuleExtractCreateWndData@ATL@@YGPAXPAU_ATL_WIN_MODULE70@1@@Z 1000ee00 f i SpeechSynthesis.obj
 0001:0000df80       ?AtlWinModuleRegisterClassExW@ATL@@YGGPAU_ATL_WIN_MODULE70@1@PBUtagWNDCLASSEXW@@@Z 1000ef80 f i SpeechSynthesis.obj
 0001:0000e050       ?AtlWinModuleRegisterWndClassInfoW@ATL@@YGGPAU_ATL_WIN_MODULE70@1@PAU_ATL_BASE_MODULE70@1@PAU_ATL_WNDCLASSINFOW@1@PAP6GJPAUHWND__@@IIJ@Z@Z 1000f050 f i SpeechSynthesis.obj
 0001:0000e0e0       ?Attach@?$CAutoVectorPtr@_W@ATL@@QAEXPA_W@Z 1000f0e0 f i SpeechSynthesis.obj
 0001:0000e140       ?Attach@CComBSTR@ATL@@QAEXPA_W@Z 1000f140 f i SpeechSynthesis.obj
 0001:0000e190       ?Attach@CRegKey@ATL@@QAEXPAUHKEY__@@@Z 1000f190 f i SpeechSynthesis.obj
 0001:0000e200       ?CanForceRemoveKey@CRegParser@ATL@@IAEHPB_W@Z 1000f200 f i SpeechSynthesis.obj
 0001:0000e270       ?ChToByte@CRegParser@ATL@@KAE_W@Z 1000f270 f i SpeechSynthesis.obj
 0001:0000e390       ?ChangeType@CComVariant@ATL@@QAEJGPBUtagVARIANT@@@Z 1000f390 f i SpeechSynthesis.obj
 0001:0000e3f0       ?Cleanup@CComTypeInfoHolder@ATL@@SGXK@Z 1000f3f0 f i SpeechSynthesis.obj
 0001:0000e4c0       ?Clear@CComVariant@ATL@@QAEJXZ 1000f4c0 f i SpeechSynthesis.obj
 0001:0000e500       ?ClearReplacements@CExpansionVector@ATL@@QAEJXZ 1000f500 f i SpeechSynthesis.obj
 0001:0000e590       ?ClearReplacements@CRegObject@ATL@@UAGJXZ 1000f590 f i SpeechSynthesis.obj
 0001:0000e5e0       ?Clone@?$CComEnumImpl@UIEnumConnectionPoints@@$1?_GUID_b196b285_bab4_101a_b69c_00aa00341d07@@3U__s_GUID@@BPAUIConnectionPoint@@V?$_CopyInterface@UIConnectionPoint@@@ATL@@@ATL@@UAGJPAPAUIEnumConnectionPoints@@@Z 1000f5e0 f i SpeechSynthesis.obj
 0001:0000e750       ?Clone@?$CComEnumImpl@UIEnumConnections@@$1?_GUID_b196b287_bab4_101a_b69c_00aa00341d07@@3U__s_GUID@@BUtagCONNECTDATA@@V?$_Copy@UtagCONNECTDATA@@@ATL@@@ATL@@UAGJPAPAUIEnumConnections@@@Z 1000f750 f i SpeechSynthesis.obj
 0001:0000e8c0       ?Close@?$IOleObjectImpl@VCOPOSSpeechSynthesis@@@ATL@@UAGJK@Z 1000f8c0 f i SpeechSynthesis.obj
 0001:0000e950       ?Close@CRegKey@ATL@@QAEJXZ 1000f950 f i SpeechSynthesis.obj
 0001:0000e9c0       ?ContextSensitiveHelp@?$IOleInPlaceActiveObjectImpl@VCOPOSSpeechSynthesis@@@ATL@@UAGJH@Z 1000f9c0 f i SpeechSynthesis.obj
 0001:0000ea30       ?ContextSensitiveHelp@?$IOleInPlaceObjectWindowlessImpl@VCOPOSSpeechSynthesis@@@ATL@@UAGJH@Z 1000fa30 f i SpeechSynthesis.obj
 0001:0000eaa0       ?ControlQueryInterface@?$CComControl@VCOPOSSpeechSynthesis@@V?$CWindowImpl@VCOPOSSpeechSynthesis@@VCWindow@ATL@@V?$CWinTraits@$0FGAAAAAA@$0A@@3@@ATL@@@ATL@@UAEJABU_GUID@@PAPAX@Z 1000faa0 f i SpeechSynthesis.obj
 0001:0000eb20       ?CreateControlWindow@?$CComControl@VCOPOSSpeechSynthesis@@V?$CWindowImpl@VCOPOSSpeechSynthesis@@VCWindow@ATL@@V?$CWinTraits@$0FGAAAAAA@$0A@@3@@ATL@@@ATL@@UAEPAUHWND__@@PAU3@AAUtagRECT@@@Z 1000fb20 f i SpeechSynthesis.obj
 0001:0000eba0       ?CreateInstance@?$CComCreator@V?$CComAggObject@VCOPOSSpeechSynthesis@@@ATL@@@ATL@@SGJPAXABU_GUID@@PAPAX@Z 1000fba0 f i SpeechSynthesis.obj
 0001:0000ed20       ?CreateInstance@?$CComCreator@V?$CComObject@VCOPOSSpeechSynthesis@@@ATL@@@ATL@@SGJPAXABU_GUID@@PAPAX@Z 1000fd20 f i SpeechSynthesis.obj
 0001:0000eeb0       ?CreateInstance@?$CComObject@V?$CComEnum@UIEnumConnectionPoints@@$1?_GUID_b196b285_bab4_101a_b69c_00aa00341d07@@3U__s_GUID@@BPAUIConnectionPoint@@V?$_CopyInterface@UIConnectionPoint@@@ATL@@VCComSingleThreadModel@6@@ATL@@@ATL@@SGJPAPAV12@@Z 1000feb0 f i SpeechSynthesis.obj
 0001:0000f020       ?CreateInstance@?$CComObject@V?$CComEnum@UIEnumConnections@@$1?_GUID_b196b287_bab4_101a_b69c_00aa00341d07@@3U__s_GUID@@BUtagCONNECTDATA@@V?$_Copy@UtagCONNECTDATA@@@ATL@@VCComSingleThreadModel@6@@ATL@@@ATL@@SGJPAPAV12@@Z 10010020 f i SpeechSynthesis.obj
 0001:0000f190       ?CreateInstance@CComClassFactory@ATL@@UAGJPAUIUnknown@@ABU_GUID@@PAPAX@Z 10010190 f i SpeechSynthesis.obj
 0001:0000f280       ?DAdvise@?$IDataObjectImpl@VCOPOSSpeechSynthesis@@@ATL@@UAGJPAUtagFORMATETC@@KPAUIAdviseSink@@PAK@Z 10010280 f i SpeechSynthesis.obj
 0001:0000f380       ?DEVMODEOLE2T_EX@@YAPAU_devicemodeW@@PAU1@@Z 10010380 f i SpeechSynthesis.obj
 0001:0000f390       ?DUnadvise@?$IDataObjectImpl@VCOPOSSpeechSynthesis@@@ATL@@UAGJK@Z 10010390 f i SpeechSynthesis.obj
 0001:0000f460       ?Decrement@CComMultiThreadModel@ATL@@SGKPAJ@Z 10010460 f i SpeechSynthesis.obj
 0001:0000f480       ?Decrement@CComSingleThreadModel@ATL@@SGKPAJ@Z 10010480 f i SpeechSynthesis.obj
 0001:0000f4a0       ?DefWindowProcW@?$CWindowImplBaseT@VCWindow@ATL@@V?$CWinTraits@$0FGAAAAAA@$0A@@2@@ATL@@QAEJIIJ@Z 100104a0 f i SpeechSynthesis.obj
 0001:0000f4f0       ?DefaultReflectionHandler@?$CWindowImplRoot@VCWindow@ATL@@@ATL@@SAHPAUHWND__@@IIJAAJ@Z 100104f0 f i SpeechSynthesis.obj
 0001:0000f6e0       ?DeleteSubKey@CRegKey@ATL@@QAEJPB_W@Z 100106e0 f i SpeechSynthesis.obj
 0001:0000f7f0       ?DeleteValue@CRegKey@ATL@@QAEJPB_W@Z 100107f0 f i SpeechSynthesis.obj
 0001:0000f860       ?Detach@?$CAutoVectorPtr@_W@ATL@@QAEPA_WXZ 10010860 f i SpeechSynthesis.obj
 0001:0000f890       ?Detach@?$CComPtrBase@UIPersistStream@@@ATL@@QAEPAUIPersistStream@@XZ 10010890 f i SpeechSynthesis.obj
 0001:0000f8c0       ?Detach@?$CComPtrBase@UITypeInfo@@@ATL@@QAEPAUITypeInfo@@XZ 100108c0 f i SpeechSynthesis.obj
 0001:0000f8f0       ?Detach@?$CComPtrBase@UIUnknown@@@ATL@@QAEPAUIUnknown@@XZ 100108f0 f i SpeechSynthesis.obj
 0001:0000f920       ?Detach@CComBSTR@ATL@@QAEPA_WXZ 10010920 f i SpeechSynthesis.obj
 0001:0000f950       ?Detach@CParseBuffer@CRegParser@ATL@@QAEPA_WXZ 10010950 f i SpeechSynthesis.obj
 0001:0000f9a0       ?Detach@CRegKey@ATL@@QAEPAUHKEY__@@XZ 100109a0 f i SpeechSynthesis.obj
 0001:0000f9f0       ?DoEvent@COPOSSpeechSynthesis@@IAEXIIJ@Z 100109f0 f i SpeechSynthesis.obj
 0001:0000fb30       ?DoVerb@?$IOleObjectImpl@VCOPOSSpeechSynthesis@@@ATL@@UAGJJPAUtagMSG@@PAUIOleClientSite@@JPAUHWND__@@PBUtagRECT@@@Z 10010b30 f i SpeechSynthesis.obj
 0001:0000fd40       ?DoVerbDiscardUndo@?$IOleObjectImpl@VCOPOSSpeechSynthesis@@@ATL@@QAEJPBUtagRECT@@PAUHWND__@@@Z 10010d40 f i SpeechSynthesis.obj
 0001:0000fdb0       ?DoVerbHide@?$IOleObjectImpl@VCOPOSSpeechSynthesis@@@ATL@@QAEJPBUtagRECT@@PAUHWND__@@@Z 10010db0 f i SpeechSynthesis.obj
 0001:0000fe60       ?DoVerbInPlaceActivate@?$IOleObjectImpl@VCOPOSSpeechSynthesis@@@ATL@@QAEJPBUtagRECT@@PAUHWND__@@@Z 10010e60 f i SpeechSynthesis.obj
 0001:0000ff00       ?DoVerbOpen@?$IOleObjectImpl@VCOPOSSpeechSynthesis@@@ATL@@QAEJPBUtagRECT@@PAUHWND__@@@Z 10010f00 f i SpeechSynthesis.obj
 0001:0000ff70       ?DoVerbPrimary@?$IOleObjectImpl@VCOPOSSpeechSynthesis@@@ATL@@QAEJPBUtagRECT@@PAUHWND__@@@Z 10010f70 f i SpeechSynthesis.obj
 0001:00010080       ?DoVerbProperties@CComControlBase@ATL@@QAEJPBUtagRECT@@PAUHWND__@@@Z 10011080 f i SpeechSynthesis.obj
 0001:000103a0       ?DoVerbShow@?$IOleObjectImpl@VCOPOSSpeechSynthesis@@@ATL@@QAEJPBUtagRECT@@PAUHWND__@@@Z 100113a0 f i SpeechSynthesis.obj
 0001:00010430       ?DoVerbUIActivate@?$IOleObjectImpl@VCOPOSSpeechSynthesis@@@ATL@@QAEJPBUtagRECT@@PAUHWND__@@@Z 10011430 f i SpeechSynthesis.obj
 0001:000104d0       ?DoesVerbActivate@CComControlBase@ATL@@QAEHJ@Z 100114d0 f i SpeechSynthesis.obj
 0001:00010540       ?DoesVerbUIActivate@CComControlBase@ATL@@QAEHJ@Z 10011540 f i SpeechSynthesis.obj
 0001:000105c0       ?Draw@?$IViewObjectExImpl@VCOPOSSpeechSynthesis@@@ATL@@UAGJKJPAXPAUtagDVTARGETDEVICE@@PAUHDC__@@2PBU_RECTL@@3P6GHK@ZK@Z 100115c0 f i SpeechSynthesis.obj
 0001:00010660       ?Empty@CComBSTR@ATL@@QAEXXZ 10011660 f i SpeechSynthesis.obj
 0001:000106a0       ?EnableModeless@?$IOleInPlaceActiveObjectImpl@VCOPOSSpeechSynthesis@@@ATL@@UAGJH@Z 100116a0 f i SpeechSynthesis.obj
 0001:00010700       ?EndOfVar@CRegParser@ATL@@IAEHXZ 10011700 f i SpeechSynthesis.obj
 0001:00010770       ?EnsureTI@CComTypeInfoHolder@ATL@@QAEJK@Z 10011770 f i SpeechSynthesis.obj
 0001:000107d0       ?EnumAdvise@?$IOleObjectImpl@VCOPOSSpeechSynthesis@@@ATL@@UAGJPAPAUIEnumSTATDATA@@@Z 100117d0 f i SpeechSynthesis.obj
 0001:000108e0       ?EnumConnectionPoints@?$IConnectionPointContainerImpl@VCOPOSSpeechSynthesis@@@ATL@@UAGJPAPAUIEnumConnectionPoints@@@Z 100118e0 f i SpeechSynthesis.obj
 0001:00010d10       ?EnumConnections@?$IConnectionPointImpl@VCOPOSSpeechSynthesis@@$1?DIID__IOPOSSpeechSynthesisEvents@@3U_GUID@@BVCComDynamicUnkArray@ATL@@@ATL@@UAGJPAPAUIEnumConnections@@@Z 10011d10 f i SpeechSynthesis.obj
 0001:00010f60       ?EnumConnections@?$IConnectionPointImpl@VCOPOSSpeechSynthesis@@$1?IID_IPropertyNotifySink@@3U_GUID@@BVCComDynamicUnkArray@ATL@@@ATL@@UAGJPAPAUIEnumConnections@@@Z 10011f60 f i SpeechSynthesis.obj
 0001:000111b0       ?EnumDAdvise@?$IDataObjectImpl@VCOPOSSpeechSynthesis@@@ATL@@UAGJPAPAUIEnumSTATDATA@@@Z 100121b0 f i SpeechSynthesis.obj
 0001:000112b0       ?EnumFormatEtc@?$IDataObjectImpl@VCOPOSSpeechSynthesis@@@ATL@@UAGJKPAPAUIEnumFORMATETC@@@Z 100122b0 f i SpeechSynthesis.obj
 0001:00011320       ?EnumVerbs@?$IOleObjectImpl@VCOPOSSpeechSynthesis@@@ATL@@UAGJPAPAUIEnumOLEVERB@@@Z 10012320 f i SpeechSynthesis.obj
 0001:000113d0       ?EscapeSingleQuote@CAtlModule@ATL@@SAXPA_WIPB_W@Z 100123d0 f i SpeechSynthesis.obj
 0001:00011480       ?ExtractCreateWndData@CAtlWinModule@ATL@@QAEPAXXZ 10012480 f i SpeechSynthesis.obj
 0001:000114b0       ?FAccessAllowed@?$IObjectSafetyImpl@VCOPOSSpeechSynthesis@@$02@ATL@@MAEHXZ 100124b0 f i SpeechSynthesis.obj
 0001:000114d0       ?FinalConstruct@?$CComAggObject@VCOPOSSpeechSynthesis@@@ATL@@QAEJXZ 100124d0 f i SpeechSynthesis.obj
 0001:00011510       ?FinalConstruct@CComObjectRootBase@ATL@@QAEJXZ 10012510 f i SpeechSynthesis.obj
 0001:00011530       ?FinalConstruct@CRegObject@ATL@@QAEJXZ 10012530 f i SpeechSynthesis.obj
 0001:00011560       ?FinalRelease@?$CComAggObject@VCOPOSSpeechSynthesis@@@ATL@@QAEXXZ 10012560 f i SpeechSynthesis.obj
 0001:000115a0       ?FinalRelease@CComObjectRootBase@ATL@@QAEXXZ 100125a0 f i SpeechSynthesis.obj
 0001:000115c0       ?FindConnectionPoint@?$IConnectionPointContainerImpl@VCOPOSSpeechSynthesis@@@ATL@@UAGJABU_GUID@@PAPAUIConnectionPoint@@@Z 100125c0 f i SpeechSynthesis.obj
 0001:00011710       ?FindKey@?$CSimpleMap@PA_WPA_WVCExpansionVectorEqualHelper@ATL@@@ATL@@QBEHABQA_W@Z 10012710 f i SpeechSynthesis.obj
 0001:00011780       ?FireTheEvent@?$CProxy_IOPOSEvents@VCOPOSSpeechSynthesis@@@@IAEXPAUIUnknown@@PAVOposVariant@@IAAJPB_WJ@Z 10012780 f i SpeechSynthesis.obj
 0001:000118f0       ?FireViewChange@CComControlBase@ATL@@QAEJXZ 100128f0 f i SpeechSynthesis.obj
 0001:000119b0       ?Fire_DirectIOEvent@?$CProxy_IOPOSEvents@VCOPOSSpeechSynthesis@@@@QAEXJPAJPAPA_W@Z 100129b0 f i SpeechSynthesis.obj
 0001:00011b80       ?Fire_ErrorEvent@?$CProxy_IOPOSEvents@VCOPOSSpeechSynthesis@@@@QAEXJJJPAJ@Z 10012b80 f i SpeechSynthesis.obj
 0001:00011d70       ?Fire_OutputCompleteEvent@?$CProxy_IOPOSEvents@VCOPOSSpeechSynthesis@@@@QAEXJ@Z 10012d70 f i SpeechSynthesis.obj
 0001:00011ed0       ?Fire_StatusUpdateEvent@?$CProxy_IOPOSEvents@VCOPOSSpeechSynthesis@@@@QAEXJ@Z 10012ed0 f i SpeechSynthesis.obj
 0001:00012030       ?FormatWindowClassName@AtlModuleRegisterWndClassInfoParamW@ATL@@SAXPA_WKPAX@Z 10013030 f i SpeechSynthesis.obj
 0001:00012060       ?Free@?$CAutoVectorPtr@_W@ATL@@QAEXXZ 10013060 f i SpeechSynthesis.obj
 0001:000120b0       ?FreeHeap@?$CTempBuffer@E$0BAA@VCCRTAllocator@ATL@@@ATL@@AAEXXZ 100130b0 f i SpeechSynthesis.obj
 0001:000120e0       ?FreeHeap@?$CTempBuffer@_W$0BAA@VCCRTAllocator@ATL@@@ATL@@AAEXXZ 100130e0 f i SpeechSynthesis.obj
 0001:00012110       ?FreeHeap@?$CTempBuffer@_W$0EAA@VCCRTAllocator@ATL@@@ATL@@AAEXXZ 10013110 f i SpeechSynthesis.obj
 0001:00012140       ?Freeze@?$IViewObjectExImpl@VCOPOSSpeechSynthesis@@@ATL@@UAGJKJPAXPAK@Z 10013140 f i SpeechSynthesis.obj
 0001:000121b0       ?GenerateError@CRegParser@ATL@@IAEJI@Z 100131b0 f i SpeechSynthesis.obj
 0001:000121d0       ?GetAdvise@?$IViewObjectExImpl@VCOPOSSpeechSynthesis@@@ATL@@UAGJPAK0PAPAUIAdviseSink@@@Z 100131d0 f i SpeechSynthesis.obj
 0001:000122d0       ?GetAmbientLocaleID@CComControlBase@ATL@@QAEJAAK@Z 100132d0 f i SpeechSynthesis.obj
 0001:000123b0       ?GetAmbientProperty@CComControlBase@ATL@@QAEJJAAUtagVARIANT@@@Z 100133b0 f i SpeechSynthesis.obj
 0001:00012400       ?GetAmbientUserMode@CComControlBase@ATL@@QAEJAAH@Z 10013400 f i SpeechSynthesis.obj
 0001:00012500       ?GetAppId@?$CAtlModuleT@VCComModule@ATL@@@ATL@@SAPB_WXZ 10013500 f i SpeechSynthesis.obj
 0001:00012510       ?GetAt@CComDynamicUnkArray@ATL@@QAEPAUIUnknown@@H@Z 10013510 f i SpeechSynthesis.obj
 0001:00012590       ?GetCanonicalFormatEtc@?$IDataObjectImpl@VCOPOSSpeechSynthesis@@@ATL@@UAGJPAUtagFORMATETC@@0@Z 10013590 f i SpeechSynthesis.obj
 0001:00012600       ?GetClassID@?$IPersistStorageImpl@VCOPOSSpeechSynthesis@@@ATL@@UAGJPAU_GUID@@@Z 10013600 f i SpeechSynthesis.obj
 0001:00012680       ?GetClassID@?$IPersistStreamInitImpl@VCOPOSSpeechSynthesis@@@ATL@@UAGJPAU_GUID@@@Z 10013680 f i SpeechSynthesis.obj
 0001:00012700       ?GetClassInfoExW@AtlModuleRegisterWndClassInfoParamW@ATL@@SAHPAUHINSTANCE__@@PB_WPAUtagWNDCLASSEXW@@@Z 10013700 f i SpeechSynthesis.obj
 0001:00012730       ?GetClassInfoW@?$IProvideClassInfo2Impl@$1?CLSID_OPOSSpeechSynthesis@@3U_GUID@@B$1?DIID__IOPOSSpeechSynthesisEvents@@3U2@B$1?LIBID_OposSpeechSynthesis_CCO@@3U2@B$00$0A@VCComTypeInfoHolder@ATL@@@ATL@@UAGJPAPAUITypeInfo@@@Z 10013730 f i SpeechSynthesis.obj
 0001:00012750       ?GetClassObject@CComModule@ATL@@QAEJABU_GUID@@0PAPAX@Z 10013750 f i SpeechSynthesis.obj
 0001:00012950       ?GetClientSite@?$IOleObjectImpl@VCOPOSSpeechSynthesis@@@ATL@@UAGJPAPAUIOleClientSite@@@Z 10013950 f i SpeechSynthesis.obj
 0001:000129e0       ?GetClipboardData@?$IOleObjectImpl@VCOPOSSpeechSynthesis@@@ATL@@UAGJKPAPAUIDataObject@@@Z 100139e0 f i SpeechSynthesis.obj
 0001:00012a50       ?GetCodeAddress@CDynamicStdCallThunk2@ATL@@QAEPAXXZ 10013a50 f i SpeechSynthesis.obj
 0001:00012a80       ?GetColorSet@?$IViewObjectExImpl@VCOPOSSpeechSynthesis@@@ATL@@UAGJKJPAXPAUtagDVTARGETDEVICE@@PAUHDC__@@PAPAUtagLOGPALETTE@@@Z 10013a80 f i SpeechSynthesis.obj
 0001:00012af0       ?GetConnMap@COPOSSpeechSynthesis@@SAPBU_ATL_CONNMAP_ENTRY@ATL@@PAH@Z 10013af0 f i SpeechSynthesis.obj
 0001:00012c30       ?GetConnectionInterface@?$IConnectionPointImpl@VCOPOSSpeechSynthesis@@$1?DIID__IOPOSSpeechSynthesisEvents@@3U_GUID@@BVCComDynamicUnkArray@ATL@@@ATL@@UAGJPAU_GUID@@@Z 10013c30 f i SpeechSynthesis.obj
 0001:00012c70       ?GetConnectionInterface@?$IConnectionPointImpl@VCOPOSSpeechSynthesis@@$1?IID_IPropertyNotifySink@@3U_GUID@@BVCComDynamicUnkArray@ATL@@@ATL@@UAGJPAU_GUID@@@Z 10013c70 f i SpeechSynthesis.obj
 0001:00012cb0       ?GetConnectionPointContainer@?$IConnectionPointImpl@VCOPOSSpeechSynthesis@@$1?DIID__IOPOSSpeechSynthesisEvents@@3U_GUID@@BVCComDynamicUnkArray@ATL@@@ATL@@UAGJPAPAUIConnectionPointContainer@@@Z 10013cb0 f i SpeechSynthesis.obj
 0001:00012d20       ?GetConnectionPointContainer@?$IConnectionPointImpl@VCOPOSSpeechSynthesis@@$1?IID_IPropertyNotifySink@@3U_GUID@@BVCComDynamicUnkArray@ATL@@@ATL@@UAGJPAPAUIConnectionPointContainer@@@Z 10013d20 f i SpeechSynthesis.obj
 0001:00012d90       ?GetContentExtent@?$IQuickActivateImpl@VCOPOSSpeechSynthesis@@@ATL@@UAGJPAUtagSIZE@@@Z 10013d90 f i SpeechSynthesis.obj
 0001:00012e20       ?GetControlInfo@?$IOleControlImpl@VCOPOSSpeechSynthesis@@@ATL@@UAGJPAUtagCONTROLINFO@@@Z 10013e20 f i SpeechSynthesis.obj
 0001:00012e90       ?GetCookie@CComDynamicUnkArray@ATL@@QAGKPAPAUIUnknown@@@Z 10013e90 f i SpeechSynthesis.obj
 0001:00012f50       ?GetData@?$IDataObjectImpl@VCOPOSSpeechSynthesis@@@ATL@@UAGJPAUtagFORMATETC@@PAUtagSTGMEDIUM@@@Z 10013f50 f i SpeechSynthesis.obj
 0001:00012fe0       ?GetData@CAtlSafeAllocBufferNode@?$CAtlSafeAllocBufferManager@VCCRTAllocator@ATL@@@_ATL_SAFE_ALLOCA_IMPL@ATL@@QAEPAXXZ 10013fe0 f i SpeechSynthesis.obj
 0001:00013000       ?GetDataHere@?$IDataObjectImpl@VCOPOSSpeechSynthesis@@@ATL@@UAGJPAUtagFORMATETC@@PAUtagSTGMEDIUM@@@Z 10014000 f i SpeechSynthesis.obj
 0001:00013070       ?GetDropTarget@?$IOleInPlaceObjectWindowlessImpl@VCOPOSSpeechSynthesis@@@ATL@@UAGJPAPAUIDropTarget@@@Z 10014070 f i SpeechSynthesis.obj
 0001:000130e0       ?GetExtent@?$IOleObjectImpl@VCOPOSSpeechSynthesis@@@ATL@@UAGJKPAUtagSIZE@@@Z 100140e0 f i SpeechSynthesis.obj
 0001:00013180       ?GetExtent@?$IViewObjectExImpl@VCOPOSSpeechSynthesis@@@ATL@@UAGJKJPAUtagDVTARGETDEVICE@@PAUtagSIZE@@@Z 10014180 f i SpeechSynthesis.obj
 0001:00013250       ?GetGITPtr@CAtlModule@ATL@@UAEJPAPAUIGlobalInterfaceTable@@@Z 10014250 f i SpeechSynthesis.obj
 0001:00013350       ?GetGUID@?$IProvideClassInfo2Impl@$1?CLSID_OPOSSpeechSynthesis@@3U_GUID@@B$1?DIID__IOPOSSpeechSynthesisEvents@@3U2@B$1?LIBID_OposSpeechSynthesis_CCO@@3U2@B$00$0A@VCComTypeInfoHolder@ATL@@@ATL@@UAGJKPAU_GUID@@@Z 10014350 f i SpeechSynthesis.obj
 0001:000133d0       ?GetIDsOfNames@?$IDispatchImpl@UIOPOSSpeechSynthesis@@$1?IID_IOPOSSpeechSynthesis@@3U_GUID@@B$1?LIBID_OposSpeechSynthesis_CCO@@3U3@B$00$0A@VCComTypeInfoHolder@ATL@@@ATL@@UAGJABU_GUID@@PAPA_WIKPAJ@Z 100143d0 f i SpeechSynthesis.obj
 0001:00013400       ?GetIDsOfNames@CComTypeInfoHolder@ATL@@QAEJABU_GUID@@PAPA_WIKPAJ@Z 10014400 f i SpeechSynthesis.obj
 0001:000135b0       ?GetInterfaceSafetyOptions@?$IObjectSafetyImpl@VCOPOSSpeechSynthesis@@$02@ATL@@UAGJABU_GUID@@PAK1@Z 100145b0 f i SpeechSynthesis.obj
 0001:00013720       ?GetKeyAt@?$CSimpleMap@PA_WPA_WVCExpansionVectorEqualHelper@ATL@@@ATL@@QBEAAPA_WH@Z 10014720 f i SpeechSynthesis.obj
 0001:000137a0       ?GetLockCount@CAtlModule@ATL@@UAEJXZ 100147a0 f i SpeechSynthesis.obj
 0001:000137c0       ?GetMiscStatus@?$IOleObjectImpl@VCOPOSSpeechSynthesis@@@ATL@@UAGJKPAK@Z 100147c0 f i SpeechSynthesis.obj
 0001:00013830       ?GetMoniker@?$IOleObjectImpl@VCOPOSSpeechSynthesis@@@ATL@@UAGJKKPAPAUIMoniker@@@Z 10014830 f i SpeechSynthesis.obj
 0001:000138a0       ?GetNaturalExtent@?$IViewObjectExImpl@VCOPOSSpeechSynthesis@@@ATL@@UAGJKJPAUtagDVTARGETDEVICE@@PAUHDC__@@PAUtagExtentInfo@@PAUtagSIZE@@@Z 100148a0 f i SpeechSynthesis.obj
 0001:000139c0       ?GetObjectCLSID@?$CComCoClass@VCOPOSSpeechSynthesis@@$1?CLSID_OPOSSpeechSynthesis@@3U_GUID@@B@ATL@@SGABU_GUID@@XZ 100149c0 f i SpeechSynthesis.obj
 0001:000139d0       ?GetPages@?$ISpecifyPropertyPagesImpl@VCOPOSSpeechSynthesis@@@ATL@@UAGJPAUtagCAUUID@@@Z 100149d0 f i SpeechSynthesis.obj
 0001:00013a40       ?GetPagesHelper@?$ISpecifyPropertyPagesImpl@VCOPOSSpeechSynthesis@@@ATL@@IAEJPAUtagCAUUID@@PBUATL_PROPMAP_ENTRY@2@@Z 10014a40 f i SpeechSynthesis.obj
 0001:00013c40       ?GetProperty@?$CComPtr@UIDispatch@@@ATL@@QAEJJPAUtagVARIANT@@@Z 10014c40 f i SpeechSynthesis.obj
 0001:00013c80       ?GetProperty@?$CComPtr@UIDispatch@@@ATL@@SAJPAUIDispatch@@JPAUtagVARIANT@@@Z 10014c80 f i SpeechSynthesis.obj
 0001:00013de0       ?GetPropertyMap@COPOSSpeechSynthesis@@SAPBUATL_PROPMAP_ENTRY@ATL@@XZ 10014de0 f i SpeechSynthesis.obj
 0001:00013df0       ?GetRect@?$IViewObjectExImpl@VCOPOSSpeechSynthesis@@@ATL@@UAGJKPAU_RECTL@@@Z 10014df0 f i SpeechSynthesis.obj
 0001:00013e60       ?GetSize@?$CSimpleMap@PA_WPA_WVCExpansionVectorEqualHelper@ATL@@@ATL@@QBEHXZ 10014e60 f i SpeechSynthesis.obj
 0001:00013e80       ?GetSize@CComDynamicUnkArray@ATL@@QBEHXZ 10014e80 f i SpeechSynthesis.obj
 0001:00013ea0       ?GetSizeMax@?$IPersistStreamInitImpl@VCOPOSSpeechSynthesis@@@ATL@@UAGJPAT_ULARGE_INTEGER@@@Z 10014ea0 f i SpeechSynthesis.obj
 0001:00014410       ?GetSizeMax@CComVariant@ATL@@QBEJPAT_ULARGE_INTEGER@@@Z 10015410 f i SpeechSynthesis.obj
 0001:00014770       ?GetStreamSize@CComBSTR@ATL@@SAKPA_W@Z 10015770 f i SpeechSynthesis.obj
 0001:000147c0       ?GetTI@CComTypeInfoHolder@ATL@@QAEJK@Z 100157c0 f i SpeechSynthesis.obj
 0001:00014fd0       ?GetTI@CComTypeInfoHolder@ATL@@QAEJKPAPAUITypeInfo@@@Z 10015fd0 f i SpeechSynthesis.obj
 0001:00015090       ?GetTypeInfo@?$IDispatchImpl@UIOPOSSpeechSynthesis@@$1?IID_IOPOSSpeechSynthesis@@3U_GUID@@B$1?LIBID_OposSpeechSynthesis_CCO@@3U3@B$00$0A@VCComTypeInfoHolder@ATL@@@ATL@@UAGJIKPAPAUITypeInfo@@@Z 10016090 f i SpeechSynthesis.obj
 0001:000150c0       ?GetTypeInfo@CComTypeInfoHolder@ATL@@QAEJIKPAPAUITypeInfo@@@Z 100160c0 f i SpeechSynthesis.obj
 0001:00015100       ?GetTypeInfoCount@?$IDispatchImpl@UIOPOSSpeechSynthesis@@$1?IID_IOPOSSpeechSynthesis@@3U_GUID@@B$1?LIBID_OposSpeechSynthesis_CCO@@3U3@B$00$0A@VCComTypeInfoHolder@ATL@@@ATL@@UAGJPAI@Z 10016100 f i SpeechSynthesis.obj
 0001:00015120       ?GetUnknown@CComDynamicUnkArray@ATL@@QAGPAUIUnknown@@K@Z 10016120 f i SpeechSynthesis.obj
 0001:00015190       ?GetUnknown@COPOSSpeechSynthesis@@QAEPAUIUnknown@@XZ 10016190 f i SpeechSynthesis.obj
 0001:000151c0       ?GetUserClassID@?$IOleObjectImpl@VCOPOSSpeechSynthesis@@@ATL@@UAGJPAU_GUID@@@Z 100161c0 f i SpeechSynthesis.obj
 0001:00015270       ?GetUserType@?$IOleObjectImpl@VCOPOSSpeechSynthesis@@@ATL@@UAGJKPAPA_W@Z 10016270 f i SpeechSynthesis.obj
 0001:000152e0       ?GetValueAt@?$CSimpleMap@PA_WPA_WVCExpansionVectorEqualHelper@ATL@@@ATL@@QBEAAPA_WH@Z 100162e0 f i SpeechSynthesis.obj
 0001:00015360       ?GetViewStatus@?$IViewObjectExImpl@VCOPOSSpeechSynthesis@@@ATL@@UAGJPAK@Z 10016360 f i SpeechSynthesis.obj
 0001:00015420       ?GetWNDPROC@CWndProcThunk@ATL@@QAEP6GJPAUHWND__@@IIJ@ZXZ 10016420 f i SpeechSynthesis.obj
 0001:00015450       ?GetWindow@?$IOleInPlaceActiveObjectImpl@VCOPOSSpeechSynthesis@@@ATL@@UAGJPAPAUHWND__@@@Z 10016450 f i SpeechSynthesis.obj
 0001:00015520       ?GetWindow@?$IOleInPlaceObjectWindowlessImpl@VCOPOSSpeechSynthesis@@@ATL@@UAGJPAPAUHWND__@@@Z 10016520 f i SpeechSynthesis.obj
 0001:000155f0       ?GetWindowLongPtrW@@YAJPAUHWND__@@H@Z 100165f0 f i SpeechSynthesis.obj
 0001:00015620       ?GetWindowProc@?$CWindowImplBaseT@VCWindow@ATL@@V?$CWinTraits@$0FGAAAAAA@$0A@@2@@ATL@@UAEP6GJPAUHWND__@@IIJ@ZXZ 10016620 f i SpeechSynthesis.obj
 0001:00015640       ?GetWndCaption@?$CWindowImpl@VCOPOSSpeechSynthesis@@VCWindow@ATL@@V?$CWinTraits@$0FGAAAAAA@$0A@@3@@ATL@@SAPB_WXZ 10016640 f i SpeechSynthesis.obj
 0001:00015650       ?GetWndClassInfo@?$CWindowImpl@VCOPOSSpeechSynthesis@@VCWindow@ATL@@V?$CWinTraits@$0FGAAAAAA@$0A@@3@@ATL@@SAAAU_ATL_WNDCLASSINFOW@2@XZ 10016650 f i SpeechSynthesis.obj
 0001:00015660       ?GetWndClassName@CWindow@ATL@@SAPB_WXZ 10016660 f i SpeechSynthesis.obj
 0001:00015670       ?GetWndExStyle@?$CWinTraits@$0FGAAAAAA@$0A@@ATL@@SAKK@Z 10016670 f i SpeechSynthesis.obj
 0001:000156a0       ?GetWndExStyle@?$CWindowImplBaseT@VCWindow@ATL@@V?$CWinTraits@$0FGAAAAAA@$0A@@2@@ATL@@SAKK@Z 100166a0 f i SpeechSynthesis.obj
 0001:000156c0       ?GetWndStyle@?$CWinTraits@$0FGAAAAAA@$0A@@ATL@@SAKK@Z 100166c0 f i SpeechSynthesis.obj
 0001:000156f0       ?GetWndStyle@?$CWindowImplBaseT@VCWindow@ATL@@V?$CWinTraits@$0FGAAAAAA@$0A@@2@@ATL@@SAKK@Z 100166f0 f i SpeechSynthesis.obj
 0001:00015710       ?GetZoomInfo@CComControlBase@ATL@@QAEXAAUATL_DRAWINFO@@@Z 10016710 f i SpeechSynthesis.obj
 0001:00015880       ?HKeyFromString@CRegParser@ATL@@KAPAUHKEY__@@PA_W@Z 10016880 f i SpeechSynthesis.obj
 0001:000158f0       ?HandsOffStorage@?$IPersistStorageImpl@VCOPOSSpeechSynthesis@@@ATL@@UAGJXZ 100168f0 f i SpeechSynthesis.obj
 0001:00015950       ?HasSubKeys@CRegParser@ATL@@IAEHPAUHKEY__@@@Z 10016950 f i SpeechSynthesis.obj
 0001:00015a60       ?IDataObject_GetData@CComControlBase@ATL@@QAEJPAUtagFORMATETC@@PAUtagSTGMEDIUM@@@Z 10016a60 f i SpeechSynthesis.obj
 0001:00015e80       ?IOleInPlaceObject_InPlaceDeactivate@CComControlBase@ATL@@QAEJXZ 10016e80 f i SpeechSynthesis.obj
 0001:00016080       ?IOleInPlaceObject_SetObjectRects@CComControlBase@ATL@@QAEJPBUtagRECT@@0@Z 10017080 f i SpeechSynthesis.obj
 0001:00016240       ?IOleInPlaceObject_UIDeactivate@CComControlBase@ATL@@QAEJXZ 10017240 f i SpeechSynthesis.obj
 0001:000164b0       ?IOleObject_Advise@CComControlBase@ATL@@QAEJPAUIAdviseSink@@PAK@Z 100174b0 f i SpeechSynthesis.obj
 0001:00016560       ?IOleObject_Close@CComControlBase@ATL@@QAEJK@Z 10017560 f i SpeechSynthesis.obj
 0001:00016810       ?IOleObject_GetClientSite@CComControlBase@ATL@@QAEJPAPAUIOleClientSite@@@Z 10017810 f i SpeechSynthesis.obj
 0001:000168b0       ?IOleObject_SetClientSite@CComControlBase@ATL@@QAEJPAUIOleClientSite@@@Z 100178b0 f i SpeechSynthesis.obj
 0001:00016980       ?IOleObject_SetExtent@CComControlBase@ATL@@QAEJKPAUtagSIZE@@@Z 10017980 f i SpeechSynthesis.obj
 0001:00016ac0       ?IPSI_GetIPersistStreamInit@?$IPersistStorageImpl@VCOPOSSpeechSynthesis@@@ATL@@AAEPAUIPersistStreamInit@@XZ 10017ac0 f i SpeechSynthesis.obj
 0001:00016b90       ?IPersistStreamInit_Load@?$IPersistStreamInitImpl@VCOPOSSpeechSynthesis@@@ATL@@QAEJPAUIStream@@PBUATL_PROPMAP_ENTRY@2@@Z 10017b90 f i SpeechSynthesis.obj
 0001:00016c10       ?IPersistStreamInit_Save@?$IPersistStreamInitImpl@VCOPOSSpeechSynthesis@@@ATL@@QAEJPAUIStream@@HPBUATL_PROPMAP_ENTRY@2@@Z 10017c10 f i SpeechSynthesis.obj
 0001:00016ca0       ?IQuickActivate_QuickActivate@CComControlBase@ATL@@QAEJPAUtagQACONTAINER@@PAUtagQACONTROL@@@Z 10017ca0 f i SpeechSynthesis.obj
 0001:000172f0       ?IViewObject_Draw@CComControlBase@ATL@@QAEJKJPAXPAUtagDVTARGETDEVICE@@PAUHDC__@@2PBU_RECTL@@3@Z 100182f0 f i SpeechSynthesis.obj
 0001:00017590       ?InPlaceActivate@CComControlBase@ATL@@QAEJJPBUtagRECT@@@Z 10018590 f i SpeechSynthesis.obj
 0001:00017f20       ?InPlaceDeactivate@?$IOleInPlaceObjectWindowlessImpl@VCOPOSSpeechSynthesis@@@ATL@@UAGJXZ 10018f20 f i SpeechSynthesis.obj
 0001:00017fa0       ?Increment@CComMultiThreadModel@ATL@@SGKPAJ@Z 10018fa0 f i SpeechSynthesis.obj
 0001:00017fc0       ?Increment@CComSingleThreadModel@ATL@@SGKPAJ@Z 10018fc0 f i SpeechSynthesis.obj
 0001:00017fe0       ?Init@?$CComEnumImpl@UIEnumConnectionPoints@@$1?_GUID_b196b285_bab4_101a_b69c_00aa00341d07@@3U__s_GUID@@BPAUIConnectionPoint@@V?$_CopyInterface@UIConnectionPoint@@@ATL@@@ATL@@QAEJPAPAUIConnectionPoint@@0PAUIUnknown@@W4CComEnumFlags@2@@Z 10018fe0 f i SpeechSynthesis.obj
 0001:000181c0       ?Init@?$CComEnumImpl@UIEnumConnections@@$1?_GUID_b196b287_bab4_101a_b69c_00aa00341d07@@3U__s_GUID@@BUtagCONNECTDATA@@V?$_Copy@UtagCONNECTDATA@@@ATL@@@ATL@@QAEJPAUtagCONNECTDATA@@0PAUIUnknown@@W4CComEnumFlags@2@@Z 100191c0 f i SpeechSynthesis.obj
 0001:000183a0       ?Init@CComFakeCriticalSection@ATL@@QAEJXZ 100193a0 f i SpeechSynthesis.obj
 0001:000183c0       ?Init@CComModule@ATL@@QAEJPAU_ATL_OBJMAP_ENTRY30@2@PAUHINSTANCE__@@PBU_GUID@@@Z 100193c0 f i SpeechSynthesis.obj
 0001:000184b0       ?Init@CComSafeDeleteCriticalSection@ATL@@QAEJXZ 100194b0 f i SpeechSynthesis.obj
 0001:00018530       ?Init@CDynamicStdCallThunk2@ATL@@QAEHKPAX@Z 10019530 f i SpeechSynthesis.obj
 0001:00018590       ?Init@CWndProcThunk@ATL@@QAEHP6GJPAUHWND__@@IIJ@ZPAX@Z 10019590 f i SpeechSynthesis.obj
 0001:000185d0       ?InitFromData@?$IOleObjectImpl@VCOPOSSpeechSynthesis@@@ATL@@UAGJPAUIDataObject@@HK@Z 100195d0 f i SpeechSynthesis.obj
 0001:00018640       ?InitLibId@?$CAtlModuleT@VCComModule@ATL@@@ATL@@SAXXZ 10019640 f i SpeechSynthesis.obj
 0001:00018650       ?InitNew@?$IPersistStorageImpl@VCOPOSSpeechSynthesis@@@ATL@@UAGJPAUIStorage@@@Z 10019650 f i SpeechSynthesis.obj
 0001:00018740       ?InitNew@?$IPersistStreamInitImpl@VCOPOSSpeechSynthesis@@@ATL@@UAGJXZ 10019740 f i SpeechSynthesis.obj
 0001:000187d0       ?InlineIsEqualUnknown@ATL@@YGHABU_GUID@@@Z 100197d0 f i SpeechSynthesis.obj
 0001:00018840       ?InternalAddRef@?$CComObjectRootEx@VCComMultiThreadModel@ATL@@@ATL@@QAEKXZ 10019840 f i SpeechSynthesis.obj
 0001:000188a0       ?InternalAddRef@?$CComObjectRootEx@VCComSingleThreadModel@ATL@@@ATL@@QAEKXZ 100198a0 f i SpeechSynthesis.obj
 0001:00018900       ?InternalFinalConstructAddRef@CComObjectRootBase@ATL@@QAEXXZ 10019900 f i SpeechSynthesis.obj
 0001:00018920       ?InternalFinalConstructAddRef@COPOSSpeechSynthesis@@QAEXXZ 10019920 f i SpeechSynthesis.obj
 0001:00018950       ?InternalFinalConstructRelease@CComObjectRootBase@ATL@@QAEXXZ 10019950 f i SpeechSynthesis.obj
 0001:000189a0       ?InternalFinalConstructRelease@COPOSSpeechSynthesis@@QAEXXZ 100199a0 f i SpeechSynthesis.obj
 0001:000189d0       ?InternalGetSite@CComControlBase@ATL@@QAEJABU_GUID@@PAPAX@Z 100199d0 f i SpeechSynthesis.obj
 0001:00018a90       ?InternalQueryInterface@CComObjectRootBase@ATL@@SGJPAXPBU_ATL_INTMAP_ENTRY@2@ABU_GUID@@PAPAX@Z 10019a90 f i SpeechSynthesis.obj
 0001:00018b50       ?InternalRelease@?$CComObjectRootEx@VCComMultiThreadModel@ATL@@@ATL@@QAEKXZ 10019b50 f i SpeechSynthesis.obj
 0001:00018bc0       ?InternalRelease@?$CComObjectRootEx@VCComSingleThreadModel@ATL@@@ATL@@QAEKXZ 10019bc0 f i SpeechSynthesis.obj
 0001:00018c30       ?InternalSetAtIndex@?$CSimpleArray@GV?$CSimpleArrayEqualHelper@G@ATL@@@ATL@@QAEXHABG@Z 10019c30 f i SpeechSynthesis.obj
 0001:00018ca0       ?InternalSetAtIndex@?$CSimpleMap@PA_WPA_WVCExpansionVectorEqualHelper@ATL@@@ATL@@QAEXHABQA_W0@Z 10019ca0 f i SpeechSynthesis.obj
 0001:00018d40       ?Invoke@?$IDispatchImpl@UIOPOSSpeechSynthesis@@$1?IID_IOPOSSpeechSynthesis@@3U_GUID@@B$1?LIBID_OposSpeechSynthesis_CCO@@3U3@B$00$0A@VCComTypeInfoHolder@ATL@@@ATL@@UAGJJABU_GUID@@KGPAUtagDISPPARAMS@@PAUtagVARIANT@@PAUtagEXCEPINFO@@PAI@Z 10019d40 f i SpeechSynthesis.obj
 0001:00018d80       ?Invoke@CComTypeInfoHolder@ATL@@QAEJPAUIDispatch@@JABU_GUID@@KGPAUtagDISPPARAMS@@PAUtagVARIANT@@PAUtagEXCEPINFO@@PAI@Z 10019d80 f i SpeechSynthesis.obj
 0001:00018e10       ?IsDirty@?$IPersistStorageImpl@VCOPOSSpeechSynthesis@@@ATL@@UAGJXZ 10019e10 f i SpeechSynthesis.obj
 0001:00018f00       ?IsDirty@?$IPersistStreamInitImpl@VCOPOSSpeechSynthesis@@@ATL@@UAGJXZ 10019f00 f i SpeechSynthesis.obj
 0001:00018fa0       ?IsEqualKey@CExpansionVectorEqualHelper@ATL@@SA_NQA_W0@Z 10019fa0 f i SpeechSynthesis.obj
 0001:00018fd0       ?IsEqualObject@?$CComPtrBase@UIOleClientSite@@@ATL@@QAE_NPAUIUnknown@@@Z 10019fd0 f i SpeechSynthesis.obj
 0001:00019100       ?IsEqualObject@?$CComPtrBase@UITypeInfo@@@ATL@@QAE_NPAUIUnknown@@@Z 1001a100 f i SpeechSynthesis.obj
 0001:00019230       ?IsSpace@CRegParser@ATL@@IAEH_W@Z 1001a230 f i SpeechSynthesis.obj
 0001:000192a0       ?IsUpToDate@?$IOleObjectImpl@VCOPOSSpeechSynthesis@@@ATL@@UAGJXZ 1001a2a0 f i SpeechSynthesis.obj
 0001:00019300       ?Length@CComBSTR@ATL@@QBEIXZ 1001a300 f i SpeechSynthesis.obj
 0001:00019340       ?Load@?$IPersistStorageImpl@VCOPOSSpeechSynthesis@@@ATL@@UAGJPAUIStorage@@@Z 1001a340 f i SpeechSynthesis.obj
 0001:000194a0       ?Load@?$IPersistStreamInitImpl@VCOPOSSpeechSynthesis@@@ATL@@UAGJPAUIStream@@@Z 1001a4a0 f i SpeechSynthesis.obj
 0001:00019530       ?LoadCursorW@AtlModuleRegisterWndClassInfoParamW@ATL@@SAPAUHICON__@@PAUHINSTANCE__@@PB_W@Z 1001a530 f i SpeechSynthesis.obj
 0001:00019560       ?LoadNameCache@CComTypeInfoHolder@ATL@@QAEJPAUITypeInfo@@@Z 1001a560 f i SpeechSynthesis.obj
 0001:000197f0       ?Lock@?$CComCritSecLock@VCComCriticalSection@ATL@@@ATL@@QAEJXZ 1001a7f0 f i SpeechSynthesis.obj
 0001:000198a0       ?Lock@?$CComObjectRootEx@VCComSingleThreadModel@ATL@@@ATL@@QAEXXZ 1001a8a0 f i SpeechSynthesis.obj
 0001:000198c0       ?Lock@CAtlModule@ATL@@UAEJXZ 1001a8c0 f i SpeechSynthesis.obj
 0001:000198f0       ?Lock@CComCriticalSection@ATL@@QAEJXZ 1001a8f0 f i SpeechSynthesis.obj
 0001:00019930       ?Lock@CComFakeCriticalSection@ATL@@QAEJXZ 1001a930 f i SpeechSynthesis.obj
 0001:00019950       ?LockServer@CComClassFactory@ATL@@UAGJH@Z 1001a950 f i SpeechSynthesis.obj
 0001:000199b0       ?Lookup@?$CSimpleMap@PA_WPA_WVCExpansionVectorEqualHelper@ATL@@@ATL@@QBEPA_WABQA_W@Z 1001a9b0 f i SpeechSynthesis.obj
 0001:00019a00       ?Next@?$CComEnumImpl@UIEnumConnectionPoints@@$1?_GUID_b196b285_bab4_101a_b69c_00aa00341d07@@3U__s_GUID@@BPAUIConnectionPoint@@V?$_CopyInterface@UIConnectionPoint@@@ATL@@@ATL@@UAGJKPAPAUIConnectionPoint@@PAK@Z 1001aa00 f i SpeechSynthesis.obj
 0001:00019b70       ?Next@?$CComEnumImpl@UIEnumConnections@@$1?_GUID_b196b287_bab4_101a_b69c_00aa00341d07@@3U__s_GUID@@BUtagCONNECTDATA@@V?$_Copy@UtagCONNECTDATA@@@ATL@@@ATL@@UAGJKPAUtagCONNECTDATA@@PAK@Z 1001ab70 f i SpeechSynthesis.obj
 0001:00019ce0       ?NextToken@CRegParser@ATL@@IAEJPA_W@Z 1001ace0 f i SpeechSynthesis.obj
 0001:00019f80       ?OLE2CT_EX@@YAPB_WPB_WI@Z  1001af80 f i SpeechSynthesis.obj
 0001:00019f90       ?OLE2CT_EX_DEF@@YAPB_WPB_W@Z 1001af90 f i SpeechSynthesis.obj
 0001:00019fa0       ?OLE2T_EX@@YAPA_WPA_WI@Z   1001afa0 f i SpeechSynthesis.obj
 0001:00019fb0       ?OnAmbientPropertyChange@?$IOleControlImpl@VCOPOSSpeechSynthesis@@@ATL@@UAGJJ@Z 1001afb0 f i SpeechSynthesis.obj
 0001:0001a040       ?OnDocWindowActivate@?$IOleInPlaceActiveObjectImpl@VCOPOSSpeechSynthesis@@@ATL@@UAGJH@Z 1001b040 f i SpeechSynthesis.obj
 0001:0001a0d0       ?OnDrawAdvanced@CComControlBase@ATL@@UAEJAAUATL_DRAWINFO@@@Z 1001b0d0 f i SpeechSynthesis.obj
 0001:0001a2f0       ?OnFinalMessage@?$CWindowImplBaseT@VCWindow@ATL@@V?$CWinTraits@$0FGAAAAAA@$0A@@2@@ATL@@UAEXPAUHWND__@@@Z 1001b2f0 f i SpeechSynthesis.obj
 0001:0001a310       ?OnFrameWindowActivate@?$IOleInPlaceActiveObjectImpl@VCOPOSSpeechSynthesis@@@ATL@@UAGJH@Z 1001b310 f i SpeechSynthesis.obj
 0001:0001a370       ?OnKillFocus@CComControlBase@ATL@@QAEJIIJAAH@Z 1001b370 f i SpeechSynthesis.obj
 0001:0001a470       ?OnMnemonic@?$IOleControlImpl@VCOPOSSpeechSynthesis@@@ATL@@UAGJPAUtagMSG@@@Z 1001b470 f i SpeechSynthesis.obj
 0001:0001a4e0       ?OnMouseActivate@CComControlBase@ATL@@QAEJIIJAAH@Z 1001b4e0 f i SpeechSynthesis.obj
 0001:0001a630       ?OnPaint@CComControlBase@ATL@@QAEJIIJAAH@Z 1001b630 f i SpeechSynthesis.obj
 0001:0001a7b0       ?OnPostVerbDiscardUndo@?$IOleObjectImpl@VCOPOSSpeechSynthesis@@@ATL@@QAEJXZ 1001b7b0 f i SpeechSynthesis.obj
 0001:0001a7d0       ?OnPostVerbHide@?$IOleObjectImpl@VCOPOSSpeechSynthesis@@@ATL@@QAEJXZ 1001b7d0 f i SpeechSynthesis.obj
 0001:0001a7f0       ?OnPostVerbInPlaceActivate@?$IOleObjectImpl@VCOPOSSpeechSynthesis@@@ATL@@QAEJXZ 1001b7f0 f i SpeechSynthesis.obj
 0001:0001a810       ?OnPostVerbOpen@?$IOleObjectImpl@VCOPOSSpeechSynthesis@@@ATL@@QAEJXZ 1001b810 f i SpeechSynthesis.obj
 0001:0001a830       ?OnPostVerbShow@?$IOleObjectImpl@VCOPOSSpeechSynthesis@@@ATL@@QAEJXZ 1001b830 f i SpeechSynthesis.obj
 0001:0001a850       ?OnPostVerbUIActivate@?$IOleObjectImpl@VCOPOSSpeechSynthesis@@@ATL@@QAEJXZ 1001b850 f i SpeechSynthesis.obj
 0001:0001a870       ?OnPreVerbDiscardUndo@?$IOleObjectImpl@VCOPOSSpeechSynthesis@@@ATL@@QAEJXZ 1001b870 f i SpeechSynthesis.obj
 0001:0001a890       ?OnPreVerbHide@?$IOleObjectImpl@VCOPOSSpeechSynthesis@@@ATL@@QAEJXZ 1001b890 f i SpeechSynthesis.obj
 0001:0001a8b0       ?OnPreVerbInPlaceActivate@?$IOleObjectImpl@VCOPOSSpeechSynthesis@@@ATL@@QAEJXZ 1001b8b0 f i SpeechSynthesis.obj
 0001:0001a8d0       ?OnPreVerbOpen@?$IOleObjectImpl@VCOPOSSpeechSynthesis@@@ATL@@QAEJXZ 1001b8d0 f i SpeechSynthesis.obj
 0001:0001a8f0       ?OnPreVerbShow@?$IOleObjectImpl@VCOPOSSpeechSynthesis@@@ATL@@QAEJXZ 1001b8f0 f i SpeechSynthesis.obj
 0001:0001a910       ?OnPreVerbUIActivate@?$IOleObjectImpl@VCOPOSSpeechSynthesis@@@ATL@@QAEJXZ 1001b910 f i SpeechSynthesis.obj
 0001:0001a930       ?OnSetFocus@CComControlBase@ATL@@QAEJIIJAAH@Z 1001b930 f i SpeechSynthesis.obj
 0001:0001aac0       ?OnWindowMessage@?$IOleInPlaceObjectWindowlessImpl@VCOPOSSpeechSynthesis@@@ATL@@UAGJIIJPAJ@Z 1001bac0 f i SpeechSynthesis.obj
 0001:0001ac20       ?Open@CRegKey@ATL@@QAEJPAUHKEY__@@PB_WK@Z 1001bc20 f i SpeechSynthesis.obj
 0001:0001ad70       ?OuterAddRef@CComObjectRootBase@ATL@@QAEKXZ 1001bd70 f i SpeechSynthesis.obj
 0001:0001adb0       ?OuterQueryInterface@CComObjectRootBase@ATL@@QAEJABU_GUID@@PAPAX@Z 1001bdb0 f i SpeechSynthesis.obj
 0001:0001ae00       ?OuterRelease@CComObjectRootBase@ATL@@QAEKXZ 1001be00 f i SpeechSynthesis.obj
 0001:0001ae40       ?PreProcessBuffer@CRegParser@ATL@@QAEJPA_WPAPA_W@Z 1001be40 f i SpeechSynthesis.obj
 0001:0001b380       ?PreTranslateAccelerator@CComControlBase@ATL@@QAEHPAUtagMSG@@AAJ@Z 1001c380 f i SpeechSynthesis.obj
 0001:0001b3a0       ?ProcessWindowMessage@?$CComControl@VCOPOSSpeechSynthesis@@V?$CWindowImpl@VCOPOSSpeechSynthesis@@VCWindow@ATL@@V?$CWinTraits@$0FGAAAAAA@$0A@@3@@ATL@@@ATL@@UAEHPAUHWND__@@IIJAAJK@Z 1001c3a0 f i SpeechSynthesis.obj
 0001:0001b570       ?ProcessWindowMessage@COPOSSpeechSynthesis@@UAEHPAUHWND__@@IIJAAJK@Z 1001c570 f i SpeechSynthesis.obj
 0001:0001b670       ?PutProperty@?$CComPtr@UIDispatch@@@ATL@@QAEJJPAUtagVARIANT@@@Z 1001c670 f i SpeechSynthesis.obj
 0001:0001b6b0       ?PutProperty@?$CComPtr@UIDispatch@@@ATL@@SAJPAUIDispatch@@JPAUtagVARIANT@@@Z 1001c6b0 f i SpeechSynthesis.obj
 0001:0001b8a0       ?QueryGetData@?$IDataObjectImpl@VCOPOSSpeechSynthesis@@@ATL@@UAGJPAUtagFORMATETC@@@Z 1001c8a0 f i SpeechSynthesis.obj
 0001:0001b910       ?QueryHitPoint@?$IViewObjectExImpl@VCOPOSSpeechSynthesis@@@ATL@@UAGJKPBUtagRECT@@UtagPOINT@@JPAK@Z 1001c910 f i SpeechSynthesis.obj
 0001:0001ba20       ?QueryHitRect@?$IViewObjectExImpl@VCOPOSSpeechSynthesis@@@ATL@@UAGJKPBUtagRECT@@0JPAK@Z 1001ca20 f i SpeechSynthesis.obj
 0001:0001bb70       ?QueryInterface@?$CComAggObject@VCOPOSSpeechSynthesis@@@ATL@@UAGJABU_GUID@@PAPAX@Z 1001cb70 f i SpeechSynthesis.obj
 0001:0001bc20       ?QueryInterface@?$CComContainedObject@VCOPOSSpeechSynthesis@@@ATL@@UAGJABU_GUID@@PAPAX@Z 1001cc20 f i SpeechSynthesis.obj
 0001:0001bc44       ?QueryInterface@?$CComContainedObject@VCOPOSSpeechSynthesis@@@ATL@@WHA@AGJABU_GUID@@PAPAX@Z 1001cc44 f i SpeechSynthesis.obj
 0001:0001bc4e       ?QueryInterface@?$CComContainedObject@VCOPOSSpeechSynthesis@@@ATL@@WHE@AGJABU_GUID@@PAPAX@Z 1001cc4e f i SpeechSynthesis.obj
 0001:0001bc58       ?QueryInterface@?$CComContainedObject@VCOPOSSpeechSynthesis@@@ATL@@WHI@AGJABU_GUID@@PAPAX@Z 1001cc58 f i SpeechSynthesis.obj
 0001:0001bc62       ?QueryInterface@?$CComContainedObject@VCOPOSSpeechSynthesis@@@ATL@@WHM@AGJABU_GUID@@PAPAX@Z 1001cc62 f i SpeechSynthesis.obj
 0001:0001bc6c       ?QueryInterface@?$CComContainedObject@VCOPOSSpeechSynthesis@@@ATL@@WIA@AGJABU_GUID@@PAPAX@Z 1001cc6c f i SpeechSynthesis.obj
 0001:0001bc79       ?QueryInterface@?$CComContainedObject@VCOPOSSpeechSynthesis@@@ATL@@WIE@AGJABU_GUID@@PAPAX@Z 1001cc79 f i SpeechSynthesis.obj
 0001:0001bc86       ?QueryInterface@?$CComContainedObject@VCOPOSSpeechSynthesis@@@ATL@@WII@AGJABU_GUID@@PAPAX@Z 1001cc86 f i SpeechSynthesis.obj
 0001:0001bc93       ?QueryInterface@?$CComContainedObject@VCOPOSSpeechSynthesis@@@ATL@@WIM@AGJABU_GUID@@PAPAX@Z 1001cc93 f i SpeechSynthesis.obj
 0001:0001bca0       ?QueryInterface@?$CComContainedObject@VCOPOSSpeechSynthesis@@@ATL@@WJA@AGJABU_GUID@@PAPAX@Z 1001cca0 f i SpeechSynthesis.obj
 0001:0001bcad       ?QueryInterface@?$CComContainedObject@VCOPOSSpeechSynthesis@@@ATL@@WJE@AGJABU_GUID@@PAPAX@Z 1001ccad f i SpeechSynthesis.obj
 0001:0001bcba       ?QueryInterface@?$CComContainedObject@VCOPOSSpeechSynthesis@@@ATL@@WJI@AGJABU_GUID@@PAPAX@Z 1001ccba f i SpeechSynthesis.obj
 0001:0001bcc7       ?QueryInterface@?$CComContainedObject@VCOPOSSpeechSynthesis@@@ATL@@WJM@AGJABU_GUID@@PAPAX@Z 1001ccc7 f i SpeechSynthesis.obj
 0001:0001bcd4       ?QueryInterface@?$CComContainedObject@VCOPOSSpeechSynthesis@@@ATL@@WKA@AGJABU_GUID@@PAPAX@Z 1001ccd4 f i SpeechSynthesis.obj
 0001:0001bcf0       ?QueryInterface@?$CComObject@V?$CComEnum@UIEnumConnectionPoints@@$1?_GUID_b196b285_bab4_101a_b69c_00aa00341d07@@3U__s_GUID@@BPAUIConnectionPoint@@V?$_CopyInterface@UIConnectionPoint@@@ATL@@VCComSingleThreadModel@6@@ATL@@@ATL@@UAGJABU_GUID@@PAPAX@Z 1001ccf0 f i SpeechSynthesis.obj
 0001:0001bd10       ?QueryInterface@?$CComObject@V?$CComEnum@UIEnumConnections@@$1?_GUID_b196b287_bab4_101a_b69c_00aa00341d07@@3U__s_GUID@@BUtagCONNECTDATA@@V?$_Copy@UtagCONNECTDATA@@@ATL@@VCComSingleThreadModel@6@@ATL@@@ATL@@UAGJABU_GUID@@PAPAX@Z 1001cd10 f i SpeechSynthesis.obj
 0001:0001bd30       ?QueryInterface@?$CComObject@VCOPOSSpeechSynthesis@@@ATL@@UAGJABU_GUID@@PAPAX@Z 1001cd30 f i SpeechSynthesis.obj
 0001:0001bd4e       ?QueryInterface@?$CComObject@VCOPOSSpeechSynthesis@@@ATL@@WHA@AGJABU_GUID@@PAPAX@Z 1001cd4e f i SpeechSynthesis.obj
 0001:0001bd58       ?QueryInterface@?$CComObject@VCOPOSSpeechSynthesis@@@ATL@@WHE@AGJABU_GUID@@PAPAX@Z 1001cd58 f i SpeechSynthesis.obj
 0001:0001bd62       ?QueryInterface@?$CComObject@VCOPOSSpeechSynthesis@@@ATL@@WHI@AGJABU_GUID@@PAPAX@Z 1001cd62 f i SpeechSynthesis.obj
 0001:0001bd6c       ?QueryInterface@?$CComObject@VCOPOSSpeechSynthesis@@@ATL@@WHM@AGJABU_GUID@@PAPAX@Z 1001cd6c f i SpeechSynthesis.obj
 0001:0001bd76       ?QueryInterface@?$CComObject@VCOPOSSpeechSynthesis@@@ATL@@WIA@AGJABU_GUID@@PAPAX@Z 1001cd76 f i SpeechSynthesis.obj
 0001:0001bd83       ?QueryInterface@?$CComObject@VCOPOSSpeechSynthesis@@@ATL@@WIE@AGJABU_GUID@@PAPAX@Z 1001cd83 f i SpeechSynthesis.obj
 0001:0001bd90       ?QueryInterface@?$CComObject@VCOPOSSpeechSynthesis@@@ATL@@WII@AGJABU_GUID@@PAPAX@Z 1001cd90 f i SpeechSynthesis.obj
 0001:0001bd9d       ?QueryInterface@?$CComObject@VCOPOSSpeechSynthesis@@@ATL@@WIM@AGJABU_GUID@@PAPAX@Z 1001cd9d f i SpeechSynthesis.obj
 0001:0001bdaa       ?QueryInterface@?$CComObject@VCOPOSSpeechSynthesis@@@ATL@@WJA@AGJABU_GUID@@PAPAX@Z 1001cdaa f i SpeechSynthesis.obj
 0001:0001bdb7       ?QueryInterface@?$CComObject@VCOPOSSpeechSynthesis@@@ATL@@WJE@AGJABU_GUID@@PAPAX@Z 1001cdb7 f i SpeechSynthesis.obj
 0001:0001bdc4       ?QueryInterface@?$CComObject@VCOPOSSpeechSynthesis@@@ATL@@WJI@AGJABU_GUID@@PAPAX@Z 1001cdc4 f i SpeechSynthesis.obj
 0001:0001bdd1       ?QueryInterface@?$CComObject@VCOPOSSpeechSynthesis@@@ATL@@WJM@AGJABU_GUID@@PAPAX@Z 1001cdd1 f i SpeechSynthesis.obj
 0001:0001bdde       ?QueryInterface@?$CComObject@VCOPOSSpeechSynthesis@@@ATL@@WKA@AGJABU_GUID@@PAPAX@Z 1001cdde f i SpeechSynthesis.obj
 0001:0001bdf0       ?QueryInterface@?$CComObjectCached@VCComClassFactory@ATL@@@ATL@@UAGJABU_GUID@@PAPAX@Z 1001cdf0 f i SpeechSynthesis.obj
 0001:0001be10       ?QueryInterface@CRegObject@ATL@@UAGJABU_GUID@@PAPAX@Z 1001ce10 f i SpeechSynthesis.obj
 0001:0001be60       ?QuickActivate@?$IQuickActivateImpl@VCOPOSSpeechSynthesis@@@ATL@@UAGJPAUtagQACONTAINER@@PAUtagQACONTROL@@@Z 1001ce60 f i SpeechSynthesis.obj
 0001:0001bef0       ?ReactivateAndUndo@?$IOleInPlaceObjectWindowlessImpl@VCOPOSSpeechSynthesis@@@ATL@@UAGJXZ 1001cef0 f i SpeechSynthesis.obj
 0001:0001bf60       ?ReadFromStream@CComBSTR@ATL@@QAEJPAUIStream@@@Z 1001cf60 f i SpeechSynthesis.obj
 0001:0001c360       ?ReadFromStream@CComVariant@ATL@@QAEJPAUIStream@@GTClassesAllowedInStream@2@K@Z 1001d360 f i SpeechSynthesis.obj
 0001:0001c6c0       ?RecurseDeleteKey@CRegKey@ATL@@QAEJPB_W@Z 1001d6c0 f i SpeechSynthesis.obj
 0001:0001c8a0       ?RegCreateKeyExW@CAtlTransactionManager@ATL@@QAEJPAUHKEY__@@PB_WKPA_WKKQAU_SECURITY_ATTRIBUTES@@PAPAU3@PAK@Z 1001d8a0 f i SpeechSynthesis.obj
 0001:0001c9d0       ?RegDeleteKeyW@CAtlTransactionManager@ATL@@QAEJPAUHKEY__@@PB_W@Z 1001d9d0 f i SpeechSynthesis.obj
 0001:0001cad0       ?RegOpenKeyExW@CAtlTransactionManager@ATL@@QAEJPAUHKEY__@@PB_WKKPAPAU3@@Z 1001dad0 f i SpeechSynthesis.obj
 0001:0001cbe0       ?Register@_ATL_WNDCLASSINFOW@ATL@@QAEGPAP6GJPAUHWND__@@IIJ@Z@Z 1001dbe0 f i SpeechSynthesis.obj
 0001:0001cc20       ?RegisterBuffer@CRegParser@ATL@@QAEJPA_WH@Z 1001dc20 f i SpeechSynthesis.obj
 0001:0001cf50       ?RegisterClassExW@AtlModuleRegisterWndClassInfoParamW@ATL@@SAGPAU_ATL_WIN_MODULE70@2@PBUtagWNDCLASSEXW@@@Z 1001df50 f i SpeechSynthesis.obj
 0001:0001cf70       ?RegisterFromResource@CRegObject@ATL@@IAEJPB_W00H@Z 1001df70 f i SpeechSynthesis.obj
 0001:0001d300       ?RegisterServer@?$CAtlModuleT@VCComModule@ATL@@@ATL@@QAEJHPBU_GUID@@@Z 1001e300 f i SpeechSynthesis.obj
 0001:0001d380       ?RegisterServer@CAtlComModule@ATL@@QAEJHPBU_GUID@@@Z 1001e380 f i SpeechSynthesis.obj
 0001:0001d3b0       ?RegisterServer@CComModule@ATL@@QAEJHPBU_GUID@@@Z 1001e3b0 f i SpeechSynthesis.obj
 0001:0001d490       ?RegisterSubkeys@CRegParser@ATL@@IAEJPA_WPAUHKEY__@@HH@Z 1001e490 f i SpeechSynthesis.obj
 0001:0001dfb0       ?Release@?$CComAggObject@VCOPOSSpeechSynthesis@@@ATL@@UAGKXZ 1001efb0 f i SpeechSynthesis.obj
 0001:0001e070       ?Release@?$CComContainedObject@VCOPOSSpeechSynthesis@@@ATL@@UAGKXZ 1001f070 f i SpeechSynthesis.obj
 0001:0001e08c       ?Release@?$CComContainedObject@VCOPOSSpeechSynthesis@@@ATL@@WHA@AGKXZ 1001f08c f i SpeechSynthesis.obj
 0001:0001e096       ?Release@?$CComContainedObject@VCOPOSSpeechSynthesis@@@ATL@@WHE@AGKXZ 1001f096 f i SpeechSynthesis.obj
 0001:0001e0a0       ?Release@?$CComContainedObject@VCOPOSSpeechSynthesis@@@ATL@@WHI@AGKXZ 1001f0a0 f i SpeechSynthesis.obj
 0001:0001e0aa       ?Release@?$CComContainedObject@VCOPOSSpeechSynthesis@@@ATL@@WHM@AGKXZ 1001f0aa f i SpeechSynthesis.obj
 0001:0001e0b4       ?Release@?$CComContainedObject@VCOPOSSpeechSynthesis@@@ATL@@WIA@AGKXZ 1001f0b4 f i SpeechSynthesis.obj
 0001:0001e0c1       ?Release@?$CComContainedObject@VCOPOSSpeechSynthesis@@@ATL@@WIE@AGKXZ 1001f0c1 f i SpeechSynthesis.obj
 0001:0001e0ce       ?Release@?$CComContainedObject@VCOPOSSpeechSynthesis@@@ATL@@WII@AGKXZ 1001f0ce f i SpeechSynthesis.obj
 0001:0001e0db       ?Release@?$CComContainedObject@VCOPOSSpeechSynthesis@@@ATL@@WIM@AGKXZ 1001f0db f i SpeechSynthesis.obj
 0001:0001e0e8       ?Release@?$CComContainedObject@VCOPOSSpeechSynthesis@@@ATL@@WJA@AGKXZ 1001f0e8 f i SpeechSynthesis.obj
 0001:0001e0f5       ?Release@?$CComContainedObject@VCOPOSSpeechSynthesis@@@ATL@@WJE@AGKXZ 1001f0f5 f i SpeechSynthesis.obj
 0001:0001e102       ?Release@?$CComContainedObject@VCOPOSSpeechSynthesis@@@ATL@@WJI@AGKXZ 1001f102 f i SpeechSynthesis.obj
 0001:0001e10f       ?Release@?$CComContainedObject@VCOPOSSpeechSynthesis@@@ATL@@WJM@AGKXZ 1001f10f f i SpeechSynthesis.obj
 0001:0001e11c       ?Release@?$CComContainedObject@VCOPOSSpeechSynthesis@@@ATL@@WKA@AGKXZ 1001f11c f i SpeechSynthesis.obj
 0001:0001e129       ?Release@?$CComContainedObject@VCOPOSSpeechSynthesis@@@ATL@@WKI@AGKXZ 1001f129 f i SpeechSynthesis.obj
 0001:0001e136       ?Release@?$CComContainedObject@VCOPOSSpeechSynthesis@@@ATL@@WLE@AGKXZ 1001f136 f i SpeechSynthesis.obj
 0001:0001e150       ?Release@?$CComObject@V?$CComEnum@UIEnumConnectionPoints@@$1?_GUID_b196b285_bab4_101a_b69c_00aa00341d07@@3U__s_GUID@@BPAUIConnectionPoint@@V?$_CopyInterface@UIConnectionPoint@@@ATL@@VCComSingleThreadModel@6@@ATL@@@ATL@@UAGKXZ 1001f150 f i SpeechSynthesis.obj
 0001:0001e210       ?Release@?$CComObject@V?$CComEnum@UIEnumConnections@@$1?_GUID_b196b287_bab4_101a_b69c_00aa00341d07@@3U__s_GUID@@BUtagCONNECTDATA@@V?$_Copy@UtagCONNECTDATA@@@ATL@@VCComSingleThreadModel@6@@ATL@@@ATL@@UAGKXZ 1001f210 f i SpeechSynthesis.obj
 0001:0001e2d0       ?Release@?$CComObject@VCOPOSSpeechSynthesis@@@ATL@@UAGKXZ 1001f2d0 f i SpeechSynthesis.obj
 0001:0001e389       ?Release@?$CComObject@VCOPOSSpeechSynthesis@@@ATL@@WHA@AGKXZ 1001f389 f i SpeechSynthesis.obj
 0001:0001e393       ?Release@?$CComObject@VCOPOSSpeechSynthesis@@@ATL@@WHE@AGKXZ 1001f393 f i SpeechSynthesis.obj
 0001:0001e39d       ?Release@?$CComObject@VCOPOSSpeechSynthesis@@@ATL@@WHI@AGKXZ 1001f39d f i SpeechSynthesis.obj
 0001:0001e3a7       ?Release@?$CComObject@VCOPOSSpeechSynthesis@@@ATL@@WHM@AGKXZ 1001f3a7 f i SpeechSynthesis.obj
 0001:0001e3b1       ?Release@?$CComObject@VCOPOSSpeechSynthesis@@@ATL@@WIA@AGKXZ 1001f3b1 f i SpeechSynthesis.obj
 0001:0001e3be       ?Release@?$CComObject@VCOPOSSpeechSynthesis@@@ATL@@WIE@AGKXZ 1001f3be f i SpeechSynthesis.obj
 0001:0001e3cb       ?Release@?$CComObject@VCOPOSSpeechSynthesis@@@ATL@@WII@AGKXZ 1001f3cb f i SpeechSynthesis.obj
 0001:0001e3d8       ?Release@?$CComObject@VCOPOSSpeechSynthesis@@@ATL@@WIM@AGKXZ 1001f3d8 f i SpeechSynthesis.obj
 0001:0001e3e5       ?Release@?$CComObject@VCOPOSSpeechSynthesis@@@ATL@@WJA@AGKXZ 1001f3e5 f i SpeechSynthesis.obj
 0001:0001e3f2       ?Release@?$CComObject@VCOPOSSpeechSynthesis@@@ATL@@WJE@AGKXZ 1001f3f2 f i SpeechSynthesis.obj
 0001:0001e3ff       ?Release@?$CComObject@VCOPOSSpeechSynthesis@@@ATL@@WJI@AGKXZ 1001f3ff f i SpeechSynthesis.obj
 0001:0001e40c       ?Release@?$CComObject@VCOPOSSpeechSynthesis@@@ATL@@WJM@AGKXZ 1001f40c f i SpeechSynthesis.obj
 0001:0001e419       ?Release@?$CComObject@VCOPOSSpeechSynthesis@@@ATL@@WKA@AGKXZ 1001f419 f i SpeechSynthesis.obj
 0001:0001e426       ?Release@?$CComObject@VCOPOSSpeechSynthesis@@@ATL@@WKI@AGKXZ 1001f426 f i SpeechSynthesis.obj
 0001:0001e433       ?Release@?$CComObject@VCOPOSSpeechSynthesis@@@ATL@@WLE@AGKXZ 1001f433 f i SpeechSynthesis.obj
 0001:0001e440       ?Release@?$CComObjectCached@VCComClassFactory@ATL@@@ATL@@UAGKXZ 1001f440 f i SpeechSynthesis.obj
 0001:0001e4e0       ?Release@?$CComPtrBase@UIAdviseSink@@@ATL@@QAEXXZ 1001f4e0 f i SpeechSynthesis.obj
 0001:0001e540       ?Release@?$CComPtrBase@UIDispatch@@@ATL@@QAEXXZ 1001f540 f i SpeechSynthesis.obj
 0001:0001e5a0       ?Release@?$CComPtrBase@UIOleInPlaceSiteWindowless@@@ATL@@QAEXXZ 1001f5a0 f i SpeechSynthesis.obj
 0001:0001e600       ?Release@CRegObject@ATL@@UAGKXZ 1001f600 f i SpeechSynthesis.obj
 0001:0001e640       ?Remove@CComDynamicUnkArray@ATL@@QAEHK@Z 1001f640 f i SpeechSynthesis.obj
 0001:0001e6f0       ?RemoveAll@?$CSimpleMap@PA_WPA_WVCExpansionVectorEqualHelper@ATL@@@ATL@@QAEXXZ 1001f6f0 f i SpeechSynthesis.obj
 0001:0001e780       ?Reset@?$CComEnumImpl@UIEnumConnectionPoints@@$1?_GUID_b196b285_bab4_101a_b69c_00aa00341d07@@3U__s_GUID@@BPAUIConnectionPoint@@V?$_CopyInterface@UIConnectionPoint@@@ATL@@@ATL@@UAGJXZ 1001f780 f i SpeechSynthesis.obj
 0001:0001e7a0       ?Reset@?$CComEnumImpl@UIEnumConnections@@$1?_GUID_b196b287_bab4_101a_b69c_00aa00341d07@@3U__s_GUID@@BUtagCONNECTDATA@@V?$_Copy@UtagCONNECTDATA@@@ATL@@@ATL@@UAGJXZ 1001f7a0 f i SpeechSynthesis.obj
 0001:0001e7c0       ?ResizeBorder@?$IOleInPlaceActiveObjectImpl@VCOPOSSpeechSynthesis@@@ATL@@UAGJPBUtagRECT@@PAUIOleInPlaceUIWindow@@H@Z 1001f7c0 f i SpeechSynthesis.obj
 0001:0001e820       ?ResourceRegister@CRegObject@ATL@@QAGJPB_WI0@Z 1001f820 f i SpeechSynthesis.obj
 0001:0001e900       ?ResourceRegisterSz@CRegObject@ATL@@QAGJPB_W00@Z 1001f900 f i SpeechSynthesis.obj
 0001:0001ea00       ?ResourceUnregister@CRegObject@ATL@@QAGJPB_WI0@Z 1001fa00 f i SpeechSynthesis.obj
 0001:0001eae0       ?ResourceUnregisterSz@CRegObject@ATL@@QAGJPB_W00@Z 1001fae0 f i SpeechSynthesis.obj
 0001:0001ebe0       ?SODataDummy@COPOSSpeechSynthesis@@MAGJJ@Z 1001fbe0 f i SpeechSynthesis.obj
 0001:0001ebf0       ?SODirectIO@COPOSSpeechSynthesis@@MAGJJPAJPAPA_W@Z 1001fbf0 f i SpeechSynthesis.obj
 0001:0001edb0       ?SOError@COPOSSpeechSynthesis@@MAGJJJJPAJ@Z 1001fdb0 f i SpeechSynthesis.obj
 0001:0001ee70       ?SOOutputComplete@COPOSSpeechSynthesis@@MAGJJ@Z 1001fe70 f i SpeechSynthesis.obj
 0001:0001eef0       ?SOStatusUpdate@COPOSSpeechSynthesis@@MAGJJ@Z 1001fef0 f i SpeechSynthesis.obj
 0001:0001ef70       ?Save@?$IPersistStorageImpl@VCOPOSSpeechSynthesis@@@ATL@@UAGJPAUIStorage@@H@Z 1001ff70 f i SpeechSynthesis.obj
 0001:0001f0d0       ?Save@?$IPersistStreamInitImpl@VCOPOSSpeechSynthesis@@@ATL@@UAGJPAUIStream@@H@Z 100200d0 f i SpeechSynthesis.obj
 0001:0001f160       ?SaveCompleted@?$IPersistStorageImpl@VCOPOSSpeechSynthesis@@@ATL@@UAGJPAUIStorage@@@Z 10020160 f i SpeechSynthesis.obj
 0001:0001f1c0       ?SendOnDataChange@CComControlBase@ATL@@QAEJK@Z 100201c0 f i SpeechSynthesis.obj
 0001:0001f2b0       ?SendOnSave@CComControlBase@ATL@@QAEJXZ 100202b0 f i SpeechSynthesis.obj
 0001:0001f320       ?SendOnViewChange@CComControlBase@ATL@@QAEJKJ@Z 10020320 f i SpeechSynthesis.obj
 0001:0001f390       ?SetAdvise@?$IViewObjectExImpl@VCOPOSSpeechSynthesis@@@ATL@@UAGJKKPAUIAdviseSink@@@Z 10020390 f i SpeechSynthesis.obj
 0001:0001f420       ?SetClientSite@?$IOleObjectImpl@VCOPOSSpeechSynthesis@@@ATL@@UAGJPAUIOleClientSite@@@Z 10020420 f i SpeechSynthesis.obj
 0001:0001f4b0       ?SetColorScheme@?$IOleObjectImpl@VCOPOSSpeechSynthesis@@@ATL@@UAGJPAUtagLOGPALETTE@@@Z 100204b0 f i SpeechSynthesis.obj
 0001:0001f520       ?SetContentExtent@?$IQuickActivateImpl@VCOPOSSpeechSynthesis@@@ATL@@UAGJPAUtagSIZE@@@Z 10020520 f i SpeechSynthesis.obj
 0001:0001f5b0       ?SetControlFocus@CComControlBase@ATL@@QAEHH@Z 100205b0 f i SpeechSynthesis.obj
 0001:0001f730       ?SetDWORDValue@CRegKey@ATL@@QAEJPB_WK@Z 10020730 f i SpeechSynthesis.obj
 0001:0001f7b0       ?SetData@?$IDataObjectImpl@VCOPOSSpeechSynthesis@@@ATL@@UAGJPAUtagFORMATETC@@PAUtagSTGMEDIUM@@H@Z 100207b0 f i SpeechSynthesis.obj
 0001:0001f820       ?SetExtent@?$IOleObjectImpl@VCOPOSSpeechSynthesis@@@ATL@@UAGJKPAUtagSIZE@@@Z 10020820 f i SpeechSynthesis.obj
 0001:0001f8b0       ?SetHostNames@?$IOleObjectImpl@VCOPOSSpeechSynthesis@@@ATL@@UAGJPB_W0@Z 100208b0 f i SpeechSynthesis.obj
 0001:0001f910       ?SetInterfaceSafetyOptions@?$IObjectSafetyImpl@VCOPOSSpeechSynthesis@@$02@ATL@@UAGJABU_GUID@@KK@Z 10020910 f i SpeechSynthesis.obj
 0001:0001fa80       ?SetMoniker@?$IOleObjectImpl@VCOPOSSpeechSynthesis@@@ATL@@UAGJKPAUIMoniker@@@Z 10020a80 f i SpeechSynthesis.obj
 0001:0001faf0       ?SetMultiStringValue@CRegKey@ATL@@QAEJPB_W0@Z 10020af0 f i SpeechSynthesis.obj
 0001:0001fc10       ?SetObjectRects@?$IOleInPlaceObjectWindowlessImpl@VCOPOSSpeechSynthesis@@@ATL@@UAGJPBUtagRECT@@0@Z 10020c10 f i SpeechSynthesis.obj
 0001:0001fca0       ?SetStringValue@CRegKey@ATL@@QAEJPB_W0K@Z 10020ca0 f i SpeechSynthesis.obj
 0001:0001fdd0       ?SetVoid@CComClassFactory@ATL@@QAEXPAX@Z 10020dd0 f i SpeechSynthesis.obj
 0001:0001fdf0       ?SetVoid@CComObjectRootBase@ATL@@QAEXPAX@Z 10020df0 f i SpeechSynthesis.obj
 0001:0001fe10       ?SetWindowLongPtrW@@YAJPAUHWND__@@HJ@Z 10020e10 f i SpeechSynthesis.obj
 0001:0001fe40       ?ShowWindow@CWindow@ATL@@QAEHH@Z 10020e40 f i SpeechSynthesis.obj
 0001:0001fec0       ?Skip@?$CComEnumImpl@UIEnumConnectionPoints@@$1?_GUID_b196b285_bab4_101a_b69c_00aa00341d07@@3U__s_GUID@@BPAUIConnectionPoint@@V?$_CopyInterface@UIConnectionPoint@@@ATL@@@ATL@@UAGJK@Z 10020ec0 f i SpeechSynthesis.obj
 0001:0001ff40       ?Skip@?$CComEnumImpl@UIEnumConnections@@$1?_GUID_b196b287_bab4_101a_b69c_00aa00341d07@@3U__s_GUID@@BUtagCONNECTDATA@@V?$_Copy@UtagCONNECTDATA@@@ATL@@@ATL@@UAGJK@Z 10020f40 f i SpeechSynthesis.obj
 0001:0001ffc0       ?SkipAssignment@CRegParser@ATL@@IAEJPA_W@Z 10020fc0 f i SpeechSynthesis.obj
 0001:000200a0       ?SkipWhiteSpace@CRegParser@ATL@@IAEXXZ 100210a0 f i SpeechSynthesis.obj
 0001:000200f0       ?StartWindowProc@?$CWindowImplBaseT@VCWindow@ATL@@V?$CWinTraits@$0FGAAAAAA@$0A@@2@@ATL@@SGJPAUHWND__@@IIJ@Z 100210f0 f i SpeechSynthesis.obj
 0001:00020210       ?StrChrW@CRegParser@ATL@@KAPA_WPA_W_W@Z 10021210 f i SpeechSynthesis.obj
 0001:00020280       ?StrFromMap@CRegObject@ATL@@QAEPB_WPA_W@Z 10021280 f i SpeechSynthesis.obj
 0001:00020310       ?Swap@?$CComPtrBase@UIAdviseSink@@@ATL@@IAEXAAV12@@Z 10021310 f i SpeechSynthesis.obj
 0001:00020350       ?Swap@?$CComPtrBase@UIOleClientSite@@@ATL@@IAEXAAV12@@Z 10021350 f i SpeechSynthesis.obj
 0001:00020390       ?Swap@?$CComPtrBase@UIUnknown@@@ATL@@IAEXAAV12@@Z 10021390 f i SpeechSynthesis.obj
 0001:000203d0       ?T2COLE_EX@@YAPB_WPB_WI@Z  100213d0 f i SpeechSynthesis.obj
 0001:000203e0       ?T2OLE_EX@@YAPA_WPA_WI@Z   100213e0 f i SpeechSynthesis.obj
 0001:000203f0       ?Term@CAtlModule@ATL@@QAEXXZ 100213f0 f i SpeechSynthesis.obj
 0001:000204a0       ?Term@CComModule@ATL@@QAEXXZ 100214a0 f i SpeechSynthesis.obj
 0001:00020590       ?TranslateAcceleratorW@?$IOleInPlaceActiveObjectImpl@VCOPOSSpeechSynthesis@@@ATL@@UAGJPAUtagMSG@@@Z 10021590 f i SpeechSynthesis.obj
 0001:00020790       ?UIDeactivate@?$IOleInPlaceObjectWindowlessImpl@VCOPOSSpeechSynthesis@@@ATL@@UAGJXZ 10021790 f i SpeechSynthesis.obj
 0001:00020810       ?Unadvise@?$CProxy_IOPOSEvents@VCOPOSSpeechSynthesis@@@@UAGJK@Z 10021810 f i SpeechSynthesis.obj
 0001:00020850       ?Unadvise@?$IConnectionPointImpl@VCOPOSSpeechSynthesis@@$1?DIID__IOPOSSpeechSynthesisEvents@@3U_GUID@@BVCComDynamicUnkArray@ATL@@@ATL@@UAGJK@Z 10021850 f i SpeechSynthesis.obj
 0001:00020920       ?Unadvise@?$IConnectionPointImpl@VCOPOSSpeechSynthesis@@$1?IID_IPropertyNotifySink@@3U_GUID@@BVCComDynamicUnkArray@ATL@@@ATL@@UAGJK@Z 10021920 f i SpeechSynthesis.obj
 0001:000209f0       ?Unadvise@?$IOleObjectImpl@VCOPOSSpeechSynthesis@@@ATL@@UAGJK@Z 100219f0 f i SpeechSynthesis.obj
 0001:00020ac0       ?Unfreeze@?$IViewObjectExImpl@VCOPOSSpeechSynthesis@@@ATL@@UAGJK@Z 10021ac0 f i SpeechSynthesis.obj
 0001:00020b30       ?Unlock@?$CComCritSecLock@VCComCriticalSection@ATL@@@ATL@@QAEXXZ 10021b30 f i SpeechSynthesis.obj
 0001:00020ba0       ?Unlock@?$CComObjectRootEx@VCComSingleThreadModel@ATL@@@ATL@@QAEXXZ 10021ba0 f i SpeechSynthesis.obj
 0001:00020bc0       ?Unlock@CAtlModule@ATL@@UAEJXZ 10021bc0 f i SpeechSynthesis.obj
 0001:00020bf0       ?Unlock@CComCriticalSection@ATL@@QAEJXZ 10021bf0 f i SpeechSynthesis.obj
 0001:00020c30       ?Unlock@CComFakeCriticalSection@ATL@@QAEJXZ 10021c30 f i SpeechSynthesis.obj
 0001:00020c50       ?UnregisterServer@?$CAtlModuleT@VCComModule@ATL@@@ATL@@QAEJHPBU_GUID@@@Z 10021c50 f i SpeechSynthesis.obj
 0001:00020cc0       ?UnregisterServer@CAtlComModule@ATL@@QAEJHPBU_GUID@@@Z 10021cc0 f i SpeechSynthesis.obj
 0001:00020cf0       ?UnregisterServer@CComModule@ATL@@QAEJHPBU_GUID@@@Z 10021cf0 f i SpeechSynthesis.obj
 0001:00020dd0       ?Update@?$IOleObjectImpl@VCOPOSSpeechSynthesis@@@ATL@@UAGJXZ 10021dd0 f i SpeechSynthesis.obj
 0001:00020e30       ?UpdateRegistryFromResource@CAtlModule@ATL@@QAGJIHPAU_ATL_REGMAP_ENTRY@2@@Z 10021e30 f i SpeechSynthesis.obj
 0001:00021300       ?UpdateRegistryFromResource@CAtlModule@ATL@@QAGJPB_WHPAU_ATL_REGMAP_ENTRY@2@@Z 10022300 f i SpeechSynthesis.obj
 0001:000217f0       ?UpdateRegistryFromResource@CComModule@ATL@@UAGJIHPAU_ATL_REGMAP_ENTRY@2@@Z 100227f0 f i SpeechSynthesis.obj
 0001:00021820       ?UpdateRegistryFromResource@CComModule@ATL@@UAGJPB_WHPAU_ATL_REGMAP_ENTRY@2@@Z 10022820 f i SpeechSynthesis.obj
 0001:00021850       ?UpdateRegistryFromResourceD@CComModule@ATL@@UAGJIHPAU_ATL_REGMAP_ENTRY@2@@Z 10022850 f i SpeechSynthesis.obj
 0001:00021860       ?UpdateRegistryFromResourceD@CComModule@ATL@@UAGJPB_WHPAU_ATL_REGMAP_ENTRY@2@@Z 10022860 f i SpeechSynthesis.obj
 0001:00021870       ?VTFromRegType@CRegParser@ATL@@KAHPB_WAAG@Z 10022870 f i SpeechSynthesis.obj
 0001:00021950       ?WindowProc@?$CWindowImplBaseT@VCWindow@ATL@@V?$CWinTraits@$0FGAAAAAA@$0A@@2@@ATL@@SGJPAUHWND__@@IIJ@Z 10022950 f i SpeechSynthesis.obj
 0001:00021b60       ?WriteToStream@CComBSTR@ATL@@QAEJPAUIStream@@@Z 10022b60 f i SpeechSynthesis.obj
 0001:00021cc0       ?WriteToStream@CComVariant@ATL@@QAEJPAUIStream@@@Z 10022cc0 f i SpeechSynthesis.obj
 0001:00022000       ?WriteToStream@CComVariant@ATL@@QAEJPAUIStream@@G@Z 10023000 f i SpeechSynthesis.obj
 0001:000220d0       ?_AtlFinalConstruct@CComObjectRootBase@ATL@@QAEJXZ 100230d0 f i SpeechSynthesis.obj
 0001:000220f0       ?_AtlGetConversionACP@ATL@@YGIXZ 100230f0 f i SpeechSynthesis.obj
 0001:00022100       ?_AtlInitialConstruct@?$CComAggObject@VCOPOSSpeechSynthesis@@@ATL@@QAEJXZ 10023100 f i SpeechSynthesis.obj
 0001:00022150       ?_AtlInitialConstruct@?$CComObjectRootEx@VCComMultiThreadModel@ATL@@@ATL@@QAEJXZ 10023150 f i SpeechSynthesis.obj
 0001:00022180       ?_AtlInitialConstruct@?$CComObjectRootEx@VCComSingleThreadModel@ATL@@@ATL@@QAEJXZ 10023180 f i SpeechSynthesis.obj
 0001:000221a0       ?_AtlVerifyStackAvailable@_ATL_SAFE_ALLOCA_IMPL@ATL@@YA_NK@Z 100231a0 f i SpeechSynthesis.obj
 0001:00022350       ?_GetEntries@?$CComEnum@UIEnumConnectionPoints@@$1?_GUID_b196b285_bab4_101a_b69c_00aa00341d07@@3U__s_GUID@@BPAUIConnectionPoint@@V?$_CopyInterface@UIConnectionPoint@@@ATL@@VCComSingleThreadModel@6@@ATL@@SGPBU_ATL_INTMAP_ENTRY@2@XZ 10023350 f i SpeechSynthesis.obj
 0001:00022370       ?_GetEntries@?$CComEnum@UIEnumConnections@@$1?_GUID_b196b287_bab4_101a_b69c_00aa00341d07@@3U__s_GUID@@BUtagCONNECTDATA@@V?$_Copy@UtagCONNECTDATA@@@ATL@@VCComSingleThreadModel@6@@ATL@@SGPBU_ATL_INTMAP_ENTRY@2@XZ 10023370 f i SpeechSynthesis.obj
 0001:00022390       ?_GetEntries@CComClassFactory@ATL@@SGPBU_ATL_INTMAP_ENTRY@2@XZ 10023390 f i SpeechSynthesis.obj
 0001:000223b0       ?_GetEntries@COPOSSpeechSynthesis@@SGPBU_ATL_INTMAP_ENTRY@ATL@@XZ 100233b0 f i SpeechSynthesis.obj
 0001:000223d0       ?_GetRawUnknown@COPOSSpeechSynthesis@@QAEPAUIUnknown@@XZ 100233d0 f i SpeechSynthesis.obj
 0001:00022440       ?_GetViewStatus@COPOSSpeechSynthesis@@QAEKXZ 10023440 f i SpeechSynthesis.obj
 0001:00022460       ?_InternalQueryInterface@?$CComEnum@UIEnumConnectionPoints@@$1?_GUID_b196b285_bab4_101a_b69c_00aa00341d07@@3U__s_GUID@@BPAUIConnectionPoint@@V?$_CopyInterface@UIConnectionPoint@@@ATL@@VCComSingleThreadModel@6@@ATL@@QAEJABU_GUID@@PAPAX@Z 10023460 f i SpeechSynthesis.obj
 0001:000224a0       ?_InternalQueryInterface@?$CComEnum@UIEnumConnections@@$1?_GUID_b196b287_bab4_101a_b69c_00aa00341d07@@3U__s_GUID@@BUtagCONNECTDATA@@V?$_Copy@UtagCONNECTDATA@@@ATL@@VCComSingleThreadModel@6@@ATL@@QAEJABU_GUID@@PAPAX@Z 100234a0 f i SpeechSynthesis.obj
 0001:000224e0       ?_InternalQueryInterface@CComClassFactory@ATL@@QAEJABU_GUID@@PAPAX@Z 100234e0 f i SpeechSynthesis.obj
 0001:00022520       ?_InternalQueryInterface@COPOSSpeechSynthesis@@QAEJABU_GUID@@PAPAX@Z 10023520 f i SpeechSynthesis.obj
 0001:00022560       ?_LocCPQueryInterface@?$IConnectionPointImpl@VCOPOSSpeechSynthesis@@$1?DIID__IOPOSSpeechSynthesisEvents@@3U_GUID@@BVCComDynamicUnkArray@ATL@@@ATL@@UAGJABU_GUID@@PAPAX@Z 10023560 f i SpeechSynthesis.obj
 0001:00022600       ?_LocCPQueryInterface@?$IConnectionPointImpl@VCOPOSSpeechSynthesis@@$1?IID_IPropertyNotifySink@@3U_GUID@@BVCComDynamicUnkArray@ATL@@@ATL@@UAGJABU_GUID@@PAPAX@Z 10023600 f i SpeechSynthesis.obj
 0001:000226a0       ?atlCreate@?$CWindowImpl@VCOPOSSpeechSynthesis@@VCWindow@ATL@@V?$CWinTraits@$0FGAAAAAA@$0A@@3@@ATL@@QAEPAUHWND__@@PAU3@V_U_RECT@2@PB_WKKV_U_MENUorID@2@PAX@Z 100236a0 f i SpeechSynthesis.obj
 0001:00022750       ?atlCreate@?$CWindowImplBaseT@VCWindow@ATL@@V?$CWinTraits@$0FGAAAAAA@$0A@@2@@ATL@@QAEPAUHWND__@@PAU3@V_U_RECT@2@PB_WKKV_U_MENUorID@2@GPAX@Z 10023750 f i SpeechSynthesis.obj
 0001:000228d0       ?atlCreate@CRegKey@ATL@@QAEJPAUHKEY__@@PB_WPA_WKKPAU_SECURITY_ATTRIBUTES@@PAK@Z 100238d0 f i SpeechSynthesis.obj
 0001:00022a30       ?begin@CComDynamicUnkArray@ATL@@QAEPAPAUIUnknown@@XZ 10023a30 f i SpeechSynthesis.obj
 0001:00022a50       ?copy@?$_Copy@UtagCONNECTDATA@@@ATL@@SAJPAUtagCONNECTDATA@@PBU3@@Z 10023a50 f i SpeechSynthesis.obj
 0001:00022b10       ?copy@?$_CopyInterface@UIConnectionPoint@@@ATL@@SAJPAPAUIConnectionPoint@@PBQAU3@@Z 10023b10 f i SpeechSynthesis.obj
 0001:00022bd0       ?destroy@?$_Copy@UtagCONNECTDATA@@@ATL@@SAXPAUtagCONNECTDATA@@@Z 10023bd0 f i SpeechSynthesis.obj
 0001:00022c10       ?destroy@?$_CopyInterface@UIConnectionPoint@@@ATL@@SAXPAPAUIConnectionPoint@@@Z 10023c10 f i SpeechSynthesis.obj
 0001:00022c50       ?end@CComDynamicUnkArray@ATL@@QAEPAPAUIUnknown@@XZ 10023c50 f i SpeechSynthesis.obj
 0001:00022c70       ?init@?$_Copy@UtagCONNECTDATA@@@ATL@@SAXPAUtagCONNECTDATA@@@Z 10023c70 f i SpeechSynthesis.obj
 0001:00022c80       ?init@?$_CopyInterface@UIConnectionPoint@@@ATL@@SAXPAPAUIConnectionPoint@@@Z 10023c80 f i SpeechSynthesis.obj
 0001:00022c90       ?memcpy_s@Checked@ATL@@YAXPAXIPBXI@Z 10023c90 f i SpeechSynthesis.obj
 0001:00022cc0       ?ocscpy_s@@YA_NPA_WIPB_W@Z 10023cc0 f i SpeechSynthesis.obj
 0001:00022d20       ?ocslen@@YAHPB_W@Z         10023d20 f i SpeechSynthesis.obj
 0001:00022d50       ?tcsncpy_s@Checked@ATL@@YAHPA_WIPB_WI@Z 10023d50 f i SpeechSynthesis.obj
 0001:00022d80       ?wcscat_s@Checked@ATL@@YAXPA_WIPB_W@Z 10023d80 f i SpeechSynthesis.obj
 0001:00022db0       ?wcscpy_s@Checked@ATL@@YAXPA_WIPB_W@Z 10023db0 f i SpeechSynthesis.obj
 0001:00022de0       ?wcsncpy_s@Checked@ATL@@YAHPA_WIPB_WI@Z 10023de0 f i SpeechSynthesis.obj
 0001:00022e10       ?wcsstr@@YAPA_WPA_WPB_W@Z  10023e10 f i SpeechSynthesis.obj
 0001:00022e30       _InlineIsEqualGUID         10023e30 f i SpeechSynthesis.obj
 0001:00022ed0       _IsEqualGUID               10023ed0 f i SpeechSynthesis.obj
 0001:00022f20       ??0COPOSSpeechSynthesis@@QAE@XZ 10023f20 f   SpeechSynthesisImpl.obj
 0001:00023030       ?FinalConstruct@COPOSSpeechSynthesis@@QAEJXZ 10024030 f   SpeechSynthesisImpl.obj
 0001:00023100       ??1COPOSSpeechSynthesis@@UAE@XZ 10024100 f   SpeechSynthesisImpl.obj
 0001:000231e0       ?WriteTrace@COPOSSpeechSynthesis@@QAAXPB_WZZ 100241e0 f   SpeechSynthesisImpl.obj
 0001:00023290       ?WriteTraceString@COPOSSpeechSynthesis@@QAEXPB_WPA_W@Z 10024290 f   SpeechSynthesisImpl.obj
 0001:00023600       ?WriteTraceString@COPOSSpeechSynthesis@@QAAXPAXHHHPB_WZZ 10024600 f   SpeechSynthesisImpl.obj
 0001:00023830       ?WriteTraceError@COPOSSpeechSynthesis@@QAEXPB_WK@Z 10024830 f   SpeechSynthesisImpl.obj
 0001:00023920       ?WriteTraceMethods@COPOSSpeechSynthesis@@QAEXPAJH@Z 10024920 f   SpeechSynthesisImpl.obj
 0001:00023990       ?GetOposProp@COPOSSpeechSynthesis@@IAEJPBDJPAJJ@Z 10024990 f   SpeechSynthesisImpl.obj
 0001:00023c00       ?SetOposProp@COPOSSpeechSynthesis@@IAEJPBDJJJ@Z 10024c00 f   SpeechSynthesisImpl.obj
 0001:00023e90       ?GetOposProp@COPOSSpeechSynthesis@@IAEJPBDJPAFJ@Z 10024e90 f   SpeechSynthesisImpl.obj
 0001:00023f30       ?SetOposProp@COPOSSpeechSynthesis@@IAEJPBDJFJ@Z 10024f30 f   SpeechSynthesisImpl.obj
 0001:00023f90       ?GetOposProp@COPOSSpeechSynthesis@@IAEJPBDJPAPA_WJ@Z 10024f90 f   SpeechSynthesisImpl.obj
 0001:00024210       ?SetOposProp@COPOSSpeechSynthesis@@IAEJPBDJPA_WJ@Z 10025210 f   SpeechSynthesisImpl.obj
 0001:00024550       ?DoInvoke@COPOSSpeechSynthesis@@IAEJPBDJPAVOposVariant@@IHPAJ_N@Z 10025550 f   SpeechSynthesisImpl.obj
 0001:00024e80       ?SetCOFreezeEvents@COPOSSpeechSynthesis@@IAEXF@Z 10025e80 f   SpeechSynthesisImpl.obj
 0001:00024fc0       ?FreezeEvents@COPOSSpeechSynthesis@@MAGJH@Z 10025fc0 f   SpeechSynthesisImpl.obj
 0001:000250a0       ?OnDraw@COPOSSpeechSynthesis@@MAEJAAUATL_DRAWINFO@@@Z 100260a0 f   SpeechSynthesisImpl.obj
 0001:00025240       ?SOProcessID@COPOSSpeechSynthesis@@UAGJPAJ@Z 10026240 f   SpeechSynthesisImpl.obj
 0001:00025280       ?get_OpenResult@COPOSSpeechSynthesis@@UAGJPAJ@Z 10026280 f   SpeechSynthesisImpl.obj
 0001:000252c0       ?get_BinaryConversion@COPOSSpeechSynthesis@@UAGJPAJ@Z 100262c0 f   SpeechSynthesisImpl.obj
 0001:000252f0       ?put_BinaryConversion@COPOSSpeechSynthesis@@UAGJJ@Z 100262f0 f   SpeechSynthesisImpl.obj
 0001:00025320       ?get_CapPowerReporting@COPOSSpeechSynthesis@@UAGJPAJ@Z 10026320 f   SpeechSynthesisImpl.obj
 0001:00025350       ?get_CheckHealthText@COPOSSpeechSynthesis@@UAGJPAPA_W@Z 10026350 f   SpeechSynthesisImpl.obj
 0001:00025380       ?get_Claimed@COPOSSpeechSynthesis@@UAGJPAF@Z 10026380 f   SpeechSynthesisImpl.obj
 0001:000253b0       ?get_DeviceEnabled@COPOSSpeechSynthesis@@UAGJPAF@Z 100263b0 f   SpeechSynthesisImpl.obj
 0001:000253e0       ?put_DeviceEnabled@COPOSSpeechSynthesis@@UAGJF@Z 100263e0 f   SpeechSynthesisImpl.obj
 0001:00025410       ?get_FreezeEvents@COPOSSpeechSynthesis@@UAGJPAF@Z 10026410 f   SpeechSynthesisImpl.obj
 0001:00025440       ?put_FreezeEvents@COPOSSpeechSynthesis@@UAGJF@Z 10026440 f   SpeechSynthesisImpl.obj
 0001:000254d0       ?get_OutputID@COPOSSpeechSynthesis@@UAGJPAJ@Z 100264d0 f   SpeechSynthesisImpl.obj
 0001:00025500       ?get_PowerNotify@COPOSSpeechSynthesis@@UAGJPAJ@Z 10026500 f   SpeechSynthesisImpl.obj
 0001:00025530       ?put_PowerNotify@COPOSSpeechSynthesis@@UAGJJ@Z 10026530 f   SpeechSynthesisImpl.obj
 0001:00025560       ?get_PowerState@COPOSSpeechSynthesis@@UAGJPAJ@Z 10026560 f   SpeechSynthesisImpl.obj
 0001:00025590       ?get_ResultCode@COPOSSpeechSynthesis@@UAGJPAJ@Z 10026590 f   SpeechSynthesisImpl.obj
 0001:00025620       ?get_ResultCodeExtended@COPOSSpeechSynthesis@@UAGJPAJ@Z 10026620 f   SpeechSynthesisImpl.obj
 0001:00025650       ?get_State@COPOSSpeechSynthesis@@UAGJPAJ@Z 10026650 f   SpeechSynthesisImpl.obj
 0001:000256a0       ?get_ControlObjectDescription@COPOSSpeechSynthesis@@UAGJPAPA_W@Z 100266a0 f   SpeechSynthesisImpl.obj
 0001:00025720       ?get_ControlObjectVersion@COPOSSpeechSynthesis@@UAGJPAJ@Z 10026720 f   SpeechSynthesisImpl.obj
 0001:00025760       ?get_ServiceObjectDescription@COPOSSpeechSynthesis@@UAGJPAPA_W@Z 10026760 f   SpeechSynthesisImpl.obj
 0001:00025790       ?get_ServiceObjectVersion@COPOSSpeechSynthesis@@UAGJPAJ@Z 10026790 f   SpeechSynthesisImpl.obj
 0001:000257c0       ?get_DeviceDescription@COPOSSpeechSynthesis@@UAGJPAPA_W@Z 100267c0 f   SpeechSynthesisImpl.obj
 0001:000257f0       ?get_DeviceName@COPOSSpeechSynthesis@@UAGJPAPA_W@Z 100267f0 f   SpeechSynthesisImpl.obj
 0001:00025820       ?get_CapStatisticsReporting@COPOSSpeechSynthesis@@UAGJPAF@Z 10026820 f   SpeechSynthesisImpl.obj
 0001:00025850       ?get_CapUpdateStatistics@COPOSSpeechSynthesis@@UAGJPAF@Z 10026850 f   SpeechSynthesisImpl.obj
 0001:00025880       ?get_CapCompareFirmwareVersion@COPOSSpeechSynthesis@@UAGJPAF@Z 10026880 f   SpeechSynthesisImpl.obj
 0001:000258b0       ?get_CapUpdateFirmware@COPOSSpeechSynthesis@@UAGJPAF@Z 100268b0 f   SpeechSynthesisImpl.obj
 0001:000258e0       ?CheckHealth@COPOSSpeechSynthesis@@UAGJJPAJ@Z 100268e0 f   SpeechSynthesisImpl.obj
 0001:00025980       ?ClaimDevice@COPOSSpeechSynthesis@@UAGJJPAJ@Z 10026980 f   SpeechSynthesisImpl.obj
 0001:00025a60       ?ClearOutput@COPOSSpeechSynthesis@@UAGJPAJ@Z 10026a60 f   SpeechSynthesisImpl.obj
 0001:00025a90       ?Close@COPOSSpeechSynthesis@@UAGJPAJ@Z 10026a90 f   SpeechSynthesisImpl.obj
 0001:00025b60       ?DirectIO@COPOSSpeechSynthesis@@UAGJJPAJPAPA_W0@Z 10026b60 f   SpeechSynthesisImpl.obj
 0001:00025c70       ?Open@COPOSSpeechSynthesis@@UAGJPA_WPAJ@Z 10026c70 f   SpeechSynthesisImpl.obj
 0001:00026e60       ?ReleaseDevice@COPOSSpeechSynthesis@@UAGJPAJ@Z 10027e60 f   SpeechSynthesisImpl.obj
 0001:00026ed0       ?ResetStatistics@COPOSSpeechSynthesis@@UAGJPA_WPAJ@Z 10027ed0 f   SpeechSynthesisImpl.obj
 0001:00026f80       ?RetrieveStatistics@COPOSSpeechSynthesis@@UAGJPAPA_WPAJ@Z 10027f80 f   SpeechSynthesisImpl.obj
 0001:00027030       ?UpdateStatistics@COPOSSpeechSynthesis@@UAGJPA_WPAJ@Z 10028030 f   SpeechSynthesisImpl.obj
 0001:000270e0       ?CompareFirmwareVersion@COPOSSpeechSynthesis@@UAGJPA_WPAJ1@Z 100280e0 f   SpeechSynthesisImpl.obj
 0001:000271d0       ?UpdateFirmware@COPOSSpeechSynthesis@@UAGJPA_WPAJ@Z 100281d0 f   SpeechSynthesisImpl.obj
 0001:00027280       ?get_CapLanguage@COPOSSpeechSynthesis@@UAGJPAF@Z 10028280 f   SpeechSynthesisImpl.obj
 0001:000272b0       ?get_CapPitch@COPOSSpeechSynthesis@@UAGJPAF@Z 100282b0 f   SpeechSynthesisImpl.obj
 0001:000272e0       ?get_CapSpeed@COPOSSpeechSynthesis@@UAGJPAF@Z 100282e0 f   SpeechSynthesisImpl.obj
 0001:00027310       ?get_CapVoice@COPOSSpeechSynthesis@@UAGJPAF@Z 10028310 f   SpeechSynthesisImpl.obj
 0001:00027340       ?get_CapVolume@COPOSSpeechSynthesis@@UAGJPAF@Z 10028340 f   SpeechSynthesisImpl.obj
 0001:00027370       ?get_Language@COPOSSpeechSynthesis@@UAGJPAPA_W@Z 10028370 f   SpeechSynthesisImpl.obj
 0001:000273a0       ?put_Language@COPOSSpeechSynthesis@@UAGJPA_W@Z 100283a0 f   SpeechSynthesisImpl.obj
 0001:000273d0       ?get_LanguageList@COPOSSpeechSynthesis@@UAGJPAPA_W@Z 100283d0 f   SpeechSynthesisImpl.obj
 0001:00027400       ?get_OutputIDList@COPOSSpeechSynthesis@@UAGJPAPA_W@Z 10028400 f   SpeechSynthesisImpl.obj
 0001:00027430       ?get_Pitch@COPOSSpeechSynthesis@@UAGJPAJ@Z 10028430 f   SpeechSynthesisImpl.obj
 0001:00027460       ?put_Pitch@COPOSSpeechSynthesis@@UAGJJ@Z 10028460 f   SpeechSynthesisImpl.obj
 0001:00027490       ?get_Speed@COPOSSpeechSynthesis@@UAGJPAJ@Z 10028490 f   SpeechSynthesisImpl.obj
 0001:000274c0       ?put_Speed@COPOSSpeechSynthesis@@UAGJJ@Z 100284c0 f   SpeechSynthesisImpl.obj
 0001:000274f0       ?get_Voice@COPOSSpeechSynthesis@@UAGJPAPA_W@Z 100284f0 f   SpeechSynthesisImpl.obj
 0001:00027520       ?put_Voice@COPOSSpeechSynthesis@@UAGJPA_W@Z 10028520 f   SpeechSynthesisImpl.obj
 0001:00027550       ?get_VoiceList@COPOSSpeechSynthesis@@UAGJPAPA_W@Z 10028550 f   SpeechSynthesisImpl.obj
 0001:00027580       ?get_Volume@COPOSSpeechSynthesis@@UAGJPAJ@Z 10028580 f   SpeechSynthesisImpl.obj
 0001:000275b0       ?put_Volume@COPOSSpeechSynthesis@@UAGJJ@Z 100285b0 f   SpeechSynthesisImpl.obj
 0001:000275e0       ?Speak@COPOSSpeechSynthesis@@UAGJPA_WPAJ@Z 100285e0 f   SpeechSynthesisImpl.obj
 0001:00027690       ?SpeakImmediate@COPOSSpeechSynthesis@@UAGJPA_WPAJ@Z 10028690 f   SpeechSynthesisImpl.obj
 0001:00027740       ?StopCurrentSpeaking@COPOSSpeechSynthesis@@UAGJPAJ@Z 10028740 f   SpeechSynthesisImpl.obj
 0001:00027770       ?StopSpeaking@COPOSSpeechSynthesis@@UAGJJPAJ@Z 10028770 f   SpeechSynthesisImpl.obj
 0001:00027810       ??0?$CComControl@VCOPOSSpeechSynthesis@@V?$CWindowImpl@VCOPOSSpeechSynthesis@@VCWindow@ATL@@V?$CWinTraits@$0FGAAAAAA@$0A@@3@@ATL@@@ATL@@QAE@XZ 10028810 f i SpeechSynthesisImpl.obj
 0001:00027850       ??0?$CComPtr@UIAdviseSink@@@ATL@@QAE@XZ 10028850 f i SpeechSynthesisImpl.obj
 0001:00027880       ??0?$CComPtr@UIDataAdviseHolder@@@ATL@@QAE@XZ 10028880 f i SpeechSynthesisImpl.obj
 0001:000278b0       ??0?$CComPtr@UIOleAdviseHolder@@@ATL@@QAE@XZ 100288b0 f i SpeechSynthesisImpl.obj
 0001:000278e0       ??0?$CComPtr@UIOleClientSite@@@ATL@@QAE@XZ 100288e0 f i SpeechSynthesisImpl.obj
 0001:00027910       ??0?$CComPtr@UIOleInPlaceSiteWindowless@@@ATL@@QAE@XZ 10028910 f i SpeechSynthesisImpl.obj
 0001:00027940       ??0?$CComPtrBase@UIAdviseSink@@@ATL@@IAE@XZ 10028940 f i SpeechSynthesisImpl.obj
 0001:00027960       ??0?$CComPtrBase@UIDataAdviseHolder@@@ATL@@IAE@XZ 10028960 f i SpeechSynthesisImpl.obj
 0001:00027980       ??0?$CComPtrBase@UIOleAdviseHolder@@@ATL@@IAE@XZ 10028980 f i SpeechSynthesisImpl.obj
 0001:000279a0       ??0?$CComPtrBase@UIOleClientSite@@@ATL@@IAE@XZ 100289a0 f i SpeechSynthesisImpl.obj
 0001:000279c0       ??0?$CComPtrBase@UIOleInPlaceSiteWindowless@@@ATL@@IAE@XZ 100289c0 f i SpeechSynthesisImpl.obj
 0001:000279e0       ??0?$CComQIPtr@UIDispatch@@$1?_GUID_00020400_0000_0000_c000_000000000046@@3U__s_GUID@@B@ATL@@QAE@XZ 100289e0 f i SpeechSynthesisImpl.obj
 0001:00027a10       ??0?$CProxy_IOPOSEvents@VCOPOSSpeechSynthesis@@@@QAE@PAVCOPOSSpeechSynthesis@@@Z 10028a10 f i SpeechSynthesisImpl.obj
 0001:00027a80       ??0?$CWindowImpl@VCOPOSSpeechSynthesis@@VCWindow@ATL@@V?$CWinTraits@$0FGAAAAAA@$0A@@3@@ATL@@QAE@XZ 10028a80 f i SpeechSynthesisImpl.obj
 0001:00027ab0       ??0?$CWindowImplBaseT@VCWindow@ATL@@V?$CWinTraits@$0FGAAAAAA@$0A@@2@@ATL@@QAE@XZ 10028ab0 f i SpeechSynthesisImpl.obj
 0001:00027af0       ??0?$CWindowImplRoot@VCWindow@ATL@@@ATL@@QAE@XZ 10028af0 f i SpeechSynthesisImpl.obj
 0001:00027b50       ??0?$IConnectionPointContainerImpl@VCOPOSSpeechSynthesis@@@ATL@@QAE@XZ 10028b50 f i SpeechSynthesisImpl.obj
 0001:00027b80       ??0?$IConnectionPointImpl@VCOPOSSpeechSynthesis@@$1?DIID__IOPOSSpeechSynthesisEvents@@3U_GUID@@BVCComDynamicUnkArray@ATL@@@ATL@@QAE@XZ 10028b80 f i SpeechSynthesisImpl.obj
 0001:00027bc0       ??0?$IConnectionPointImpl@VCOPOSSpeechSynthesis@@$1?IID_IPropertyNotifySink@@3U_GUID@@BVCComDynamicUnkArray@ATL@@@ATL@@QAE@XZ 10028bc0 f i SpeechSynthesisImpl.obj
 0001:00027c00       ??0?$IDataObjectImpl@VCOPOSSpeechSynthesis@@@ATL@@QAE@XZ 10028c00 f i SpeechSynthesisImpl.obj
 0001:00027c30       ??0?$IDispatchImpl@UIOPOSSpeechSynthesis@@$1?IID_IOPOSSpeechSynthesis@@3U_GUID@@B$1?LIBID_OposSpeechSynthesis_CCO@@3U3@B$00$0A@VCComTypeInfoHolder@ATL@@@ATL@@QAE@XZ 10028c30 f i SpeechSynthesisImpl.obj
 0001:00027c60       ??0?$IObjectSafetyImpl@VCOPOSSpeechSynthesis@@$02@ATL@@QAE@XZ 10028c60 f i SpeechSynthesisImpl.obj
 0001:00027ca0       ??0?$IOleControlImpl@VCOPOSSpeechSynthesis@@@ATL@@QAE@XZ 10028ca0 f i SpeechSynthesisImpl.obj
 0001:00027cd0       ??0?$IOleInPlaceActiveObjectImpl@VCOPOSSpeechSynthesis@@@ATL@@QAE@XZ 10028cd0 f i SpeechSynthesisImpl.obj
 0001:00027d00       ??0?$IOleInPlaceObjectWindowlessImpl@VCOPOSSpeechSynthesis@@@ATL@@QAE@XZ 10028d00 f i SpeechSynthesisImpl.obj
 0001:00027d30       ??0?$IOleObjectImpl@VCOPOSSpeechSynthesis@@@ATL@@QAE@XZ 10028d30 f i SpeechSynthesisImpl.obj
 0001:00027d60       ??0?$IPersistStorageImpl@VCOPOSSpeechSynthesis@@@ATL@@QAE@XZ 10028d60 f i SpeechSynthesisImpl.obj
 0001:00027d90       ??0?$IPersistStreamInitImpl@VCOPOSSpeechSynthesis@@@ATL@@QAE@XZ 10028d90 f i SpeechSynthesisImpl.obj
 0001:00027dc0       ??0?$IPropertyNotifySinkCP@VCOPOSSpeechSynthesis@@VCComDynamicUnkArray@ATL@@@ATL@@QAE@XZ 10028dc0 f i SpeechSynthesisImpl.obj
 0001:00027df0       ??0?$IProvideClassInfo2Impl@$1?CLSID_OPOSSpeechSynthesis@@3U_GUID@@B$1?DIID__IOPOSSpeechSynthesisEvents@@3U2@B$1?LIBID_OposSpeechSynthesis_CCO@@3U2@B$00$0A@VCComTypeInfoHolder@ATL@@@ATL@@QAE@XZ 10028df0 f i SpeechSynthesisImpl.obj
 0001:00027e20       ??0?$IQuickActivateImpl@VCOPOSSpeechSynthesis@@@ATL@@QAE@XZ 10028e20 f i SpeechSynthesisImpl.obj
 0001:00027e50       ??0?$ISpecifyPropertyPagesImpl@VCOPOSSpeechSynthesis@@@ATL@@QAE@XZ 10028e50 f i SpeechSynthesisImpl.obj
 0001:00027e80       ??0?$IViewObjectExImpl@VCOPOSSpeechSynthesis@@@ATL@@QAE@XZ 10028e80 f i SpeechSynthesisImpl.obj
 0001:00027eb0       ??0?$_ICPLocator@$1?DIID__IOPOSSpeechSynthesisEvents@@3U_GUID@@B@ATL@@QAE@XZ 10028eb0 f i SpeechSynthesisImpl.obj
 0001:00027ed0       ??0?$_ICPLocator@$1?IID_IPropertyNotifySink@@3U_GUID@@B@ATL@@QAE@XZ 10028ed0 f i SpeechSynthesisImpl.obj
 0001:00027ef0       ??0CComControlBase@ATL@@QAE@AAPAUHWND__@@@Z 10028ef0 f i SpeechSynthesisImpl.obj
 0001:000280a0       ??0CComDynamicUnkArray@ATL@@QAE@XZ 100290a0 f i SpeechSynthesisImpl.obj
 0001:000280d0       ??0CDynamicStdCallThunk2@ATL@@QAE@XZ 100290d0 f i SpeechSynthesisImpl.obj
 0001:000280f0       ??0CMessageMap@ATL@@QAE@XZ 100290f0 f i SpeechSynthesisImpl.obj
 0001:00028110       ??0CWindow@ATL@@QAE@PAUHWND__@@@Z 10029110 f i SpeechSynthesisImpl.obj
 0001:00028130       ??0CWndProcThunk@ATL@@QAE@XZ 10029130 f i SpeechSynthesisImpl.obj
 0001:00028160       ??0IConnectionPointContainer@@QAE@XZ 10029160 f i SpeechSynthesisImpl.obj
 0001:00028190       ??0IDataObject@@QAE@XZ     10029190 f i SpeechSynthesisImpl.obj
 0001:000281c0       ??0IDispatch@@QAE@XZ       100291c0 f i SpeechSynthesisImpl.obj
 0001:000281f0       ??0IOPOSSpeechSynthesis@@QAE@XZ 100291f0 f i SpeechSynthesisImpl.obj
 0001:00028220       ??0IOPOSSpeechSynthesis_1_16@@QAE@XZ 10029220 f i SpeechSynthesisImpl.obj
 0001:00028250       ??0IObjectSafety@@QAE@XZ   10029250 f i SpeechSynthesisImpl.obj
 0001:00028280       ??0IOleControl@@QAE@XZ     10029280 f i SpeechSynthesisImpl.obj
 0001:000282b0       ??0IOleInPlaceActiveObject@@QAE@XZ 100292b0 f i SpeechSynthesisImpl.obj
 0001:000282e0       ??0IOleInPlaceObject@@QAE@XZ 100292e0 f i SpeechSynthesisImpl.obj
 0001:00028310       ??0IOleInPlaceObjectWindowless@@QAE@XZ 10029310 f i SpeechSynthesisImpl.obj
 0001:00028340       ??0IOleObject@@QAE@XZ      10029340 f i SpeechSynthesisImpl.obj
 0001:00028370       ??0IOleWindow@@QAE@XZ      10029370 f i SpeechSynthesisImpl.obj
 0001:000283a0       ??0IPersist@@QAE@XZ        100293a0 f i SpeechSynthesisImpl.obj
 0001:000283d0       ??0IPersistStorage@@QAE@XZ 100293d0 f i SpeechSynthesisImpl.obj
 0001:00028400       ??0IPersistStreamInit@@QAE@XZ 10029400 f i SpeechSynthesisImpl.obj
 0001:00028430       ??0IProvideClassInfo2@@QAE@XZ 10029430 f i SpeechSynthesisImpl.obj
 0001:00028460       ??0IProvideClassInfo@@QAE@XZ 10029460 f i SpeechSynthesisImpl.obj
 0001:00028490       ??0IQuickActivate@@QAE@XZ  10029490 f i SpeechSynthesisImpl.obj
 0001:000284c0       ??0ISpecifyPropertyPages@@QAE@XZ 100294c0 f i SpeechSynthesisImpl.obj
 0001:000284f0       ??0IViewObject2@@QAE@XZ    100294f0 f i SpeechSynthesisImpl.obj
 0001:00028520       ??0IViewObject@@QAE@XZ     10029520 f i SpeechSynthesisImpl.obj
 0001:00028550       ??0IViewObjectEx@@QAE@XZ   10029550 f i SpeechSynthesisImpl.obj
 0001:00028580       ??0OposVariantResult@@QAE@XZ 10029580 f i SpeechSynthesisImpl.obj
 0001:000285b0       ??0_CW@@QAE@PBD@Z          100295b0 f i SpeechSynthesisImpl.obj
 0001:000285f0       ??0_CW@@QAE@PB_W@Z         100295f0 f i SpeechSynthesisImpl.obj
 0001:00028630       ??0_CWNCC@@QAE@PBD@Z       10029630 f i SpeechSynthesisImpl.obj
 0001:00028660       ??1?$CComControl@VCOPOSSpeechSynthesis@@V?$CWindowImpl@VCOPOSSpeechSynthesis@@VCWindow@ATL@@V?$CWinTraits@$0FGAAAAAA@$0A@@3@@ATL@@@ATL@@UAE@XZ 10029660 f i SpeechSynthesisImpl.obj
 0001:00028690       ??1?$CComPtr@UIDataAdviseHolder@@@ATL@@QAE@XZ 10029690 f i SpeechSynthesisImpl.obj
 0001:000286c0       ??1?$CComPtr@UIOleAdviseHolder@@@ATL@@QAE@XZ 100296c0 f i SpeechSynthesisImpl.obj
 0001:000286f0       ??1?$CComPtr@UIOleInPlaceSiteWindowless@@@ATL@@QAE@XZ 100296f0 f i SpeechSynthesisImpl.obj
 0001:00028720       ??1?$CComPtrBase@UIDataAdviseHolder@@@ATL@@QAE@XZ 10029720 f i SpeechSynthesisImpl.obj
 0001:00028770       ??1?$CComPtrBase@UIOleAdviseHolder@@@ATL@@QAE@XZ 10029770 f i SpeechSynthesisImpl.obj
 0001:000287c0       ??1?$CComPtrBase@UIOleInPlaceSiteWindowless@@@ATL@@QAE@XZ 100297c0 f i SpeechSynthesisImpl.obj
 0001:00028810       ??1?$CComQIPtr@UIDispatch@@$1?_GUID_00020400_0000_0000_c000_000000000046@@3U__s_GUID@@B@ATL@@QAE@XZ 10029810 f i SpeechSynthesisImpl.obj
 0001:00028840       ??1?$CProxy_IOPOSEvents@VCOPOSSpeechSynthesis@@@@QAE@XZ 10029840 f i SpeechSynthesisImpl.obj
 0001:00028870       ??1?$CWindowImpl@VCOPOSSpeechSynthesis@@VCWindow@ATL@@V?$CWinTraits@$0FGAAAAAA@$0A@@3@@ATL@@UAE@XZ 10029870 f i SpeechSynthesisImpl.obj
 0001:000288a0       ??1?$CWindowImplBaseT@VCWindow@ATL@@V?$CWinTraits@$0FGAAAAAA@$0A@@2@@ATL@@UAE@XZ 100298a0 f i SpeechSynthesisImpl.obj
 0001:000288d0       ??1?$CWindowImplRoot@VCWindow@ATL@@@ATL@@UAE@XZ 100298d0 f i SpeechSynthesisImpl.obj
 0001:00028970       ??1?$IConnectionPointImpl@VCOPOSSpeechSynthesis@@$1?DIID__IOPOSSpeechSynthesisEvents@@3U_GUID@@BVCComDynamicUnkArray@ATL@@@ATL@@QAE@XZ 10029970 f i SpeechSynthesisImpl.obj
 0001:000289f0       ??1?$IConnectionPointImpl@VCOPOSSpeechSynthesis@@$1?IID_IPropertyNotifySink@@3U_GUID@@BVCComDynamicUnkArray@ATL@@@ATL@@QAE@XZ 100299f0 f i SpeechSynthesisImpl.obj
 0001:00028a70       ??1?$IPropertyNotifySinkCP@VCOPOSSpeechSynthesis@@VCComDynamicUnkArray@ATL@@@ATL@@QAE@XZ 10029a70 f i SpeechSynthesisImpl.obj
 0001:00028aa0       ??1CComControlBase@ATL@@UAE@XZ 10029aa0 f i SpeechSynthesisImpl.obj
 0001:00028b60       ??1CComDynamicUnkArray@ATL@@QAE@XZ 10029b60 f i SpeechSynthesisImpl.obj
 0001:00028ba0       ??1CDynamicStdCallThunk2@ATL@@QAE@XZ 10029ba0 f i SpeechSynthesisImpl.obj
 0001:00028bd0       ??1CWndProcThunk@ATL@@QAE@XZ 10029bd0 f i SpeechSynthesisImpl.obj
 0001:00028c00       ??1OposVariantResult@@QAE@XZ 10029c00 f i SpeechSynthesisImpl.obj
 0001:00028c30       ??1_CW@@QAE@XZ             10029c30 f i SpeechSynthesisImpl.obj
 0001:00028ca0       ??1_CWNCC@@QAE@XZ          10029ca0 f i SpeechSynthesisImpl.obj
 0001:00028cd0       ??B_CW@@QAEPB_WXZ          10029cd0 f i SpeechSynthesisImpl.obj
 0001:00028d10       ??B_CWNCC@@QAEPA_WXZ       10029d10 f i SpeechSynthesisImpl.obj
 0001:00028d40       ??_EOposVariant@@QAEPAXI@Z 10029d40 f i SpeechSynthesisImpl.obj
 0001:00028dd0       ?EventClaim@COPOSSpeechSynthesis@@IAEXXZ 10029dd0 f i SpeechSynthesisImpl.obj
 0001:00028e10       ?EventClose@COPOSSpeechSynthesis@@IAEXXZ 10029e10 f i SpeechSynthesisImpl.obj
 0001:00028eb0       ?EventInit@COPOSSpeechSynthesis@@IAEJXZ 10029eb0 f i SpeechSynthesisImpl.obj
 0001:000290e0       ?EventOpen@COPOSSpeechSynthesis@@IAEXXZ 1002a0e0 f i SpeechSynthesisImpl.obj
 0001:00029120       ?EventPreCloseRelease@COPOSSpeechSynthesis@@IAEXXZ 1002a120 f i SpeechSynthesisImpl.obj
 0001:000291a0       ?EventUninit@COPOSSpeechSynthesis@@IAEXXZ 1002a1a0 f i SpeechSynthesisImpl.obj
 0001:000292d0       ?EventWindowProc@COPOSSpeechSynthesis@@IAGJIIJ@Z 1002a2d0 f i SpeechSynthesisImpl.obj
 0001:00029450       ?FireEventCleanup@COPOSSpeechSynthesis@@IAEXXZ 1002a450 f i SpeechSynthesisImpl.obj
 0001:000294a0       ?FireEventSetup@COPOSSpeechSynthesis@@IAE_NXZ 1002a4a0 f i SpeechSynthesisImpl.obj
 0001:00029510       ?GetModuleInstance@CComModule@ATL@@QAEPAUHINSTANCE__@@XZ 1002a510 f i SpeechSynthesisImpl.obj
 0001:00029530       ?SetRC@COPOSSpeechSynthesis@@IAEJJ@Z 1002a530 f i SpeechSynthesisImpl.obj
 0001:00029560       ?s_EventWindowProc@COPOSSpeechSynthesis@@KGJPAUHWND__@@IIJ@Z 1002a560 f i SpeechSynthesisImpl.obj
 0001:00029600       __snwprintf                1002a600 f i SpeechSynthesisImpl.obj
 0001:00029660       __vfwprintf_l              1002a660 f i SpeechSynthesisImpl.obj
 0001:00029690       __vsnwprintf               1002a690 f i SpeechSynthesisImpl.obj
 0001:000296c0       __vsnwprintf_l             1002a6c0 f i SpeechSynthesisImpl.obj
 0001:00029730       _vfwprintf                 1002a730 f i SpeechSynthesisImpl.obj
 0001:00029752       _DebugBreak@0              1002a752 f   kernel32:KERNEL32.dll
 0001:00029758       _Sleep@4                   1002a758 f   kernel32:KERNEL32.dll
 0001:0002975e       _GetCurrentProcess@0       1002a75e f   kernel32:KERNEL32.dll
 0001:00029764       _TerminateProcess@8        1002a764 f   kernel32:KERNEL32.dll
 0001:0002976a       _MultiByteToWideChar@24    1002a76a f   kernel32:KERNEL32.dll
 0001:00029770       _WideCharToMultiByte@32    1002a770 f   kernel32:KERNEL32.dll
 0001:00029776       _DecodePointer@4           1002a776 f   kernel32:KERNEL32.dll
 0001:0002977c       _RaiseException@16         1002a77c f   kernel32:KERNEL32.dll
 0001:00029782       _GetLastError@0            1002a782 f   kernel32:KERNEL32.dll
 0001:00029788       _SetLastError@4            1002a788 f   kernel32:KERNEL32.dll
 0001:0002978e       _InitializeCriticalSectionEx@12 1002a78e f   kernel32:KERNEL32.dll
 0001:00029794       _DeleteCriticalSection@4   1002a794 f   kernel32:KERNEL32.dll
 0001:0002979a       _EncodePointer@4           1002a79a f   kernel32:KERNEL32.dll
 0001:000297a0       _EnterCriticalSection@4    1002a7a0 f   kernel32:KERNEL32.dll
 0001:000297a6       _LeaveCriticalSection@4    1002a7a6 f   kernel32:KERNEL32.dll
 0001:000297ac       _ResetEvent@4              1002a7ac f   kernel32:KERNEL32.dll
 0001:000297b2       _ReleaseMutex@4            1002a7b2 f   kernel32:KERNEL32.dll
 0001:000297b8       _WaitForSingleObject@8     1002a7b8 f   kernel32:KERNEL32.dll
 0001:000297be       _GetCurrentThreadId@0      1002a7be f   kernel32:KERNEL32.dll
 0001:000297c4       _DisableThreadLibraryCalls@4 1002a7c4 f   kernel32:KERNEL32.dll
 0001:000297ca       _FreeLibrary@4             1002a7ca f   kernel32:KERNEL32.dll
 0001:000297d0       _GetModuleFileNameW@12     1002a7d0 f   kernel32:KERNEL32.dll
 0001:000297d6       _GetModuleHandleW@4        1002a7d6 f   kernel32:KERNEL32.dll
 0001:000297dc       _GetProcAddress@8          1002a7dc f   kernel32:KERNEL32.dll
 0001:000297e2       _LoadLibraryExW@12         1002a7e2 f   kernel32:KERNEL32.dll
 0001:000297e8       _LoadResource@8            1002a7e8 f   kernel32:KERNEL32.dll
 0001:000297ee       _SizeofResource@8          1002a7ee f   kernel32:KERNEL32.dll
 0001:000297f4       _FindResourceW@12          1002a7f4 f   kernel32:KERNEL32.dll
 0001:000297fa       _GlobalAlloc@8             1002a7fa f   kernel32:KERNEL32.dll
 0001:00029800       _GlobalUnlock@4            1002a800 f   kernel32:KERNEL32.dll
 0001:00029806       _GlobalLock@4              1002a806 f   kernel32:KERNEL32.dll
 0001:0002980c       _MulDiv@12                 1002a80c f   kernel32:KERNEL32.dll
 0001:00029812       _lstrcmpiW@8               1002a812 f   kernel32:KERNEL32.dll
 0001:00029818       _DeleteFileW@4             1002a818 f   kernel32:KERNEL32.dll
 0001:0002981e       _CloseHandle@4             1002a81e f   kernel32:KERNEL32.dll
 0001:00029824       _SetEvent@4                1002a824 f   kernel32:KERNEL32.dll
 0001:0002982a       _CreateMutexW@12           1002a82a f   kernel32:KERNEL32.dll
 0001:00029830       _CreateEventW@16           1002a830 f   kernel32:KERNEL32.dll
 0001:00029836       _GetCurrentProcessId@0     1002a836 f   kernel32:KERNEL32.dll
 0001:0002983c       _LocalFree@4               1002a83c f   kernel32:KERNEL32.dll
 0001:00029842       _FormatMessageW@28         1002a842 f   kernel32:KERNEL32.dll
 0001:00029848       _GetActiveWindow@0         1002a848 f   user32:USER32.dll
 0001:0002984e       _MessageBoxW@16            1002a84e f   user32:USER32.dll
 0001:00029854       _UnregisterClassW@8        1002a854 f   user32:USER32.dll
 0001:0002985a       _PostMessageW@16           1002a85a f   user32:USER32.dll
 0001:00029860       _DefWindowProcW@16         1002a860 f   user32:USER32.dll
 0001:00029866       _CallWindowProcW@20        1002a866 f   user32:USER32.dll
 0001:0002986c       _RegisterClassExW@4        1002a86c f   user32:USER32.dll
 0001:00029872       _GetClassInfoExW@12        1002a872 f   user32:USER32.dll
 0001:00029878       _CreateWindowExW@48        1002a878 f   user32:USER32.dll
 0001:0002987e       _IsWindow@4                1002a87e f   user32:USER32.dll
 0001:00029884       _IsChild@8                 1002a884 f   user32:USER32.dll
 0001:0002988a       _DestroyWindow@4           1002a88a f   user32:USER32.dll
 0001:00029890       _ShowWindow@8              1002a890 f   user32:USER32.dll
 0001:00029896       _SetWindowPos@28           1002a896 f   user32:USER32.dll
 0001:0002989c       _CharNextW@4               1002a89c f   user32:USER32.dll
 0001:000298a2       _SetFocus@4                1002a8a2 f   user32:USER32.dll
 0001:000298a8       _GetFocus@0                1002a8a8 f   user32:USER32.dll
 0001:000298ae       _GetKeyState@4             1002a8ae f   user32:USER32.dll
 0001:000298b4       _GetDC@4                   1002a8b4 f   user32:USER32.dll
 0001:000298ba       _ReleaseDC@8               1002a8ba f   user32:USER32.dll
 0001:000298c0       _BeginPaint@8              1002a8c0 f   user32:USER32.dll
 0001:000298c6       _EndPaint@8                1002a8c6 f   user32:USER32.dll
 0001:000298cc       _SetWindowRgn@12           1002a8cc f   user32:USER32.dll
 0001:000298d2       _InvalidateRect@12         1002a8d2 f   user32:USER32.dll
 0001:000298d8       _GetClientRect@8           1002a8d8 f   user32:USER32.dll
 0001:000298de       _IntersectRect@12          1002a8de f   user32:USER32.dll
 0001:000298e4       _UnionRect@12              1002a8e4 f   user32:USER32.dll
 0001:000298ea       _OffsetRect@12             1002a8ea f   user32:USER32.dll
 0001:000298f0       _EqualRect@8               1002a8f0 f   user32:USER32.dll
 0001:000298f6       _PtInRect@12               1002a8f6 f   user32:USER32.dll
 0001:000298fc       _GetWindowLongW@8          1002a8fc f   user32:USER32.dll
 0001:00029902       _SetWindowLongW@12         1002a902 f   user32:USER32.dll
 0001:00029908       _GetParent@4               1002a908 f   user32:USER32.dll
 0001:0002990e       _LoadCursorW@8             1002a90e f   user32:USER32.dll
 0001:00029914       _PeekMessageW@20           1002a914 f   user32:USER32.dll
 0001:0002991a       _RegisterClassW@4          1002a91a f   user32:USER32.dll
 0001:00029920       _LoadBitmapW@8             1002a920 f   user32:USER32.dll
 0001:00029926       _CloseMetaFile@4           1002a926 f   gdi32:GDI32.dll
 0001:0002992c       _CreateDCW@16              1002a92c f   gdi32:GDI32.dll
 0001:00029932       _CreateMetaFileW@4         1002a932 f   gdi32:GDI32.dll
 0001:00029938       _CreateRectRgnIndirect@4   1002a938 f   gdi32:GDI32.dll
 0001:0002993e       _DeleteDC@4                1002a93e f   gdi32:GDI32.dll
 0001:00029944       _DeleteMetaFile@4          1002a944 f   gdi32:GDI32.dll
 0001:0002994a       _GetDeviceCaps@8           1002a94a f   gdi32:GDI32.dll
 0001:00029950       _RestoreDC@8               1002a950 f   gdi32:GDI32.dll
 0001:00029956       _SaveDC@4                  1002a956 f   gdi32:GDI32.dll
 0001:0002995c       _SetMapMode@8              1002a95c f   gdi32:GDI32.dll
 0001:00029962       _LPtoDP@12                 1002a962 f   gdi32:GDI32.dll
 0001:00029968       _SetViewportOrgEx@16       1002a968 f   gdi32:GDI32.dll
 0001:0002996e       _SetWindowExtEx@16         1002a96e f   gdi32:GDI32.dll
 0001:00029974       _SetWindowOrgEx@16         1002a974 f   gdi32:GDI32.dll
 0001:0002997a       _BitBlt@36                 1002a97a f   gdi32:GDI32.dll
 0001:00029980       _CreateCompatibleDC@4      1002a980 f   gdi32:GDI32.dll
 0001:00029986       _DeleteObject@4            1002a986 f   gdi32:GDI32.dll
 0001:0002998c       _SelectObject@8            1002a98c f   gdi32:GDI32.dll
 0001:00029992       _GetObjectW@12             1002a992 f   gdi32:GDI32.dll
 0001:00029998       _RegCloseKey@4             1002a998 f   advapi32:ADVAPI32.dll
 0001:0002999e       _RegCreateKeyExW@36        1002a99e f   advapi32:ADVAPI32.dll
 0001:000299a4       _RegDeleteKeyW@8           1002a9a4 f   advapi32:ADVAPI32.dll
 0001:000299aa       _RegDeleteValueW@8         1002a9aa f   advapi32:ADVAPI32.dll
 0001:000299b0       _RegEnumKeyExW@32          1002a9b0 f   advapi32:ADVAPI32.dll
 0001:000299b6       _RegOpenKeyExW@20          1002a9b6 f   advapi32:ADVAPI32.dll
 0001:000299bc       _RegQueryInfoKeyW@48       1002a9bc f   advapi32:ADVAPI32.dll
 0001:000299c2       _RegSetValueExW@24         1002a9c2 f   advapi32:ADVAPI32.dll
 0001:000299c8       _RegQueryValueExW@24       1002a9c8 f   advapi32:ADVAPI32.dll
 0001:000299ce       _CoCreateInstance@20       1002a9ce f   ole32:ole32.dll
 0001:000299d4       _StringFromGUID2@12        1002a9d4 f   ole32:ole32.dll
 0001:000299da       _CoTaskMemAlloc@4          1002a9da f   ole32:ole32.dll
 0001:000299e0       _CoTaskMemRealloc@8        1002a9e0 f   ole32:ole32.dll
 0001:000299e6       _CoTaskMemFree@4           1002a9e6 f   ole32:ole32.dll
 0001:000299ec       _ReadClassStm@8            1002a9ec f   ole32:ole32.dll
 0001:000299f2       _WriteClassStm@8           1002a9f2 f   ole32:ole32.dll
 0001:000299f8       _CreateDataAdviseHolder@4  1002a9f8 f   ole32:ole32.dll
 0001:000299fe       _OleSaveToStream@8         1002a9fe f   ole32:ole32.dll
 0001:00029a04       _CreateOleAdviseHolder@4   1002aa04 f   ole32:ole32.dll
 0001:00029a0a       _OleRegGetUserType@12      1002aa0a f   ole32:ole32.dll
 0001:00029a10       _OleRegGetMiscStatus@12    1002aa10 f   ole32:ole32.dll
 0001:00029a16       _OleRegEnumVerbs@8         1002aa16 f   ole32:ole32.dll
 0001:00029a1c       _CLSIDFromProgID@8         1002aa1c f   ole32:ole32.dll
 0001:00029a22       _SysAllocString@4          1002aa22 f   oleaut32:OLEAUT32.dll
 0001:00029a28       _SysAllocStringLen@8       1002aa28 f   oleaut32:OLEAUT32.dll
 0001:00029a2e       _SysFreeString@4           1002aa2e f   oleaut32:OLEAUT32.dll
 0001:00029a34       _SysStringLen@4            1002aa34 f   oleaut32:OLEAUT32.dll
 0001:00029a3a       _VariantClear@4            1002aa3a f   oleaut32:OLEAUT32.dll
 0001:00029a40       _VariantCopyInd@8          1002aa40 f   oleaut32:OLEAUT32.dll
 0001:00029a46       _VariantChangeType@16      1002aa46 f   oleaut32:OLEAUT32.dll
 0001:00029a4c       _SysStringByteLen@4        1002aa4c f   oleaut32:OLEAUT32.dll
 0001:00029a52       _SysAllocStringByteLen@8   1002aa52 f   oleaut32:OLEAUT32.dll
 0001:00029a58       _VariantInit@4             1002aa58 f   oleaut32:OLEAUT32.dll
 0001:00029a5e       _VarUI4FromStr@16          1002aa5e f   oleaut32:OLEAUT32.dll
 0001:00029a64       _LoadTypeLib@8             1002aa64 f   oleaut32:OLEAUT32.dll
 0001:00029a6a       _LoadRegTypeLib@20         1002aa6a f   oleaut32:OLEAUT32.dll
 0001:00029a70       _RegisterTypeLib@12        1002aa70 f   oleaut32:OLEAUT32.dll
 0001:00029a76       _UnRegisterTypeLib@20      1002aa76 f   oleaut32:OLEAUT32.dll
 0001:00029a7c       _OleCreatePropertyFrame@44 1002aa7c f   oleaut32:OLEAUT32.dll
 0001:00029a90       @_RTC_AllocaHelper@12      1002aa90 f   LIBCMTD:stack.obj
 0001:00029ad0       @_RTC_CheckStackVars2@12   1002aad0 f   LIBCMTD:stack.obj
 0001:00029bb0       @_RTC_CheckStackVars@8     1002abb0 f   LIBCMTD:stack.obj
 0001:00029c10       __RTC_CheckEsp             1002ac10 f   LIBCMTD:stack.obj
 0001:00029c50       @__security_check_cookie@4 1002ac50 f   LIBCMTD:secchk.obj
 0001:00029c70       __CRT_RTC_INIT             1002ac70 f   LIBCMTD:init.obj
 0001:00029c80       __CRT_RTC_INITW            1002ac80 f   LIBCMTD:init.obj
 0001:00029c90       __RTC_InitBase             1002ac90 f   LIBCMTD:init.obj
 0001:00029cc0       __RTC_Shutdown             1002acc0 f   LIBCMTD:init.obj
 0001:00029ce0       ??_U@YAPAXI@Z              1002ace0 f   LIBCMTD:new_array.obj
 0001:00029d00       ??3@YAXPAXI@Z              1002ad00 f   LIBCMTD:delete_scalar_size.obj
 0001:00029d20       ??_V@YAXPAX@Z              1002ad20 f   LIBCMTD:delete_array.obj
 0001:00029d40       ??_V@YAXPAXI@Z             1002ad40 f   LIBCMTD:delete_array_size.obj
 0001:00029d60       ?configure_argv@__scrt_narrow_argv_policy@@SAHXZ 1002ad60 f i LIBCMTD:utility.obj
 0001:00029e10       ?initialize_environment@__scrt_narrow_environment_policy@@SAHXZ 1002ae10 f i LIBCMTD:utility.obj
 0001:00029e90       _NtCurrentTeb              1002ae90 f i LIBCMTD:utility.obj
 0001:00029ea0       ___scrt_acquire_startup_lock 1002aea0 f   LIBCMTD:utility.obj
 0001:00029ef0       ___scrt_dllmain_after_initialize_c 1002aef0 f   LIBCMTD:utility.obj
 0001:00029f20       ___scrt_dllmain_before_initialize_c 1002af20 f   LIBCMTD:utility.obj
 0001:00029f40       ___scrt_dllmain_crt_thread_attach 1002af40 f   LIBCMTD:utility.obj
 0001:00029f70       ___scrt_dllmain_crt_thread_detach 1002af70 f   LIBCMTD:utility.obj
 0001:00029f90       ___scrt_dllmain_exception_filter 1002af90 f   LIBCMTD:utility.obj
 0001:00029fe0       ___scrt_dllmain_uninitialize_c 1002afe0 f   LIBCMTD:utility.obj
 0001:0002a010       ___scrt_dllmain_uninitialize_critical 1002b010 f   LIBCMTD:utility.obj
 0001:0002a030       ___scrt_initialize_crt     1002b030 f   LIBCMTD:utility.obj
 0001:0002a080       ___scrt_initialize_onexit_tables 1002b080 f   LIBCMTD:utility.obj
 0001:0002a160       ___scrt_is_nonwritable_in_current_image 1002b160 f   LIBCMTD:utility.obj
 0001:0002a290       ___scrt_release_startup_lock 1002b290 f   LIBCMTD:utility.obj
 0001:0002a2c0       ___scrt_uninitialize_crt   1002b2c0 f   LIBCMTD:utility.obj
 0001:0002a300       __onexit                   1002b300 f   LIBCMTD:utility.obj
 0001:0002a370       _at_quick_exit             1002b370 f   LIBCMTD:utility.obj
 0001:0002a3b0       _atexit                    1002b3b0 f   LIBCMTD:utility.obj
 0001:0002a3e0       ??3@YAXPAX@Z               1002b3e0 f   LIBCMTD:delete_scalar.obj
 0001:0002a400       ___raise_securityfailure   1002b400 f   LIBCMTD:gs_report.obj
 0001:0002a430       ___report_gsfailure        1002b430 f   LIBCMTD:gs_report.obj
 0001:0002a540       ___report_rangecheckfailure 1002b540 f   LIBCMTD:gs_report.obj
 0001:0002a550       ___report_securityfailure  1002b550 f   LIBCMTD:gs_report.obj
 0001:0002a630       ___report_securityfailureEx 1002b630 f   LIBCMTD:gs_report.obj
 0001:0002a880       __Init_thread_abort        1002b880 f   LIBCMTD:thread_safe_statics.obj
 0001:0002a8a0       __Init_thread_footer       1002b8a0 f   LIBCMTD:thread_safe_statics.obj
 0001:0002a8f0       __Init_thread_header       1002b8f0 f   LIBCMTD:thread_safe_statics.obj
 0001:0002a960       __Init_thread_lock         1002b960 f   LIBCMTD:thread_safe_statics.obj
 0001:0002a970       __Init_thread_notify       1002b970 f   LIBCMTD:thread_safe_statics.obj
 0001:0002a9c0       __Init_thread_unlock       1002b9c0 f   LIBCMTD:thread_safe_statics.obj
 0001:0002a9d0       __Init_thread_wait         1002b9d0 f   LIBCMTD:thread_safe_statics.obj
 0001:0002aa60       ??2@YAPAXIABUnothrow_t@std@@@Z 1002ba60 f   LIBCMTD:new_scalar_nothrow.obj
 0001:0002aaf0       ??_U@YAPAXIABUnothrow_t@std@@@Z 1002baf0 f   LIBCMTD:new_array_nothrow.obj
 0001:0002ab10       __allmul                   1002bb10 f   LIBCMTD:llmul.obj
 0001:0002ab50       __alloca_probe_16          1002bb50 f   LIBCMTD:alloca16.obj
 0001:0002ab66       __alloca_probe_8           1002bb66     LIBCMTD:alloca16.obj
 0001:0002ab80       __chkstk                   1002bb80 f   LIBCMTD:chkstk.obj
 0001:0002ab80       __alloca_probe             1002bb80 f   LIBCMTD:chkstk.obj
 0001:0002b080       __CRT_INIT@12              1002c080 f   LIBCMTD:dll_dllmain.obj
 0001:0002b0a0       __DllMainCRTStartup@12     1002c0a0 f   LIBCMTD:dll_dllmain.obj
 0001:0002b160       ?_RTC_AllocaFailure@@YAXPAXPAU_RTC_ALLOCA_NODE@@H@Z 1002c160 f   LIBCMTD:error.obj
 0001:0002b250       ?_RTC_Failure@@YAXPAXH@Z   1002c250 f   LIBCMTD:error.obj
 0001:0002b2a0       ?_RTC_StackFailure@@YAXPAXPBD@Z 1002c2a0 f   LIBCMTD:error.obj
 0001:0002b660       __RTC_UninitUse            1002c660 f   LIBCMTD:error.obj
 0001:0002b710       __vsprintf_s_l             1002c710 f i LIBCMTD:error.obj
 0001:0002b740       _sprintf_s                 1002c740 f i LIBCMTD:error.obj
 0001:0002b760       ?_RTC_GetErrorFunc@@YAP6AHHPBDH00ZZPBX@Z 1002c760 f   LIBCMTD:userapi.obj
 0001:0002b770       ?_RTC_GetErrorFuncW@@YAP6AHHPB_WH00ZZPBX@Z 1002c770 f   LIBCMTD:userapi.obj
 0001:0002b780       __RTC_GetErrDesc           1002c780 f   LIBCMTD:userapi.obj
 0001:0002b7a0       __RTC_NumErrors            1002c7a0 f   LIBCMTD:userapi.obj
 0001:0002b7b0       __RTC_SetErrorFunc         1002c7b0 f   LIBCMTD:userapi.obj
 0001:0002b7d0       __RTC_SetErrorFuncW        1002c7d0 f   LIBCMTD:userapi.obj
 0001:0002b7f0       __RTC_SetErrorType         1002c7f0 f   LIBCMTD:userapi.obj
 0001:0002b820       ??2@YAPAXI@Z               1002c820 f   LIBCMTD:new_scalar.obj
 0001:0002b870       ___isa_available_init      1002c870 f   LIBCMTD:cpu_disp.obj
 0001:0002bbb0       __get_startup_argv_mode    1002cbb0 f   LIBCMTD:argv_mode.obj
 0001:0002bbc0       ___scrt_is_ucrt_dll_in_use 1002cbc0 f   LIBCMTD:ucrt_detection.obj
 0001:0002bbf0       ___scrt_fastfail           1002cbf0 f   LIBCMTD:utility_desktop.obj
 0001:0002bd30       ___scrt_get_show_window_mode 1002cd30 f   LIBCMTD:utility_desktop.obj
 0001:0002bd70       ___scrt_initialize_mta     1002cd70 f   LIBCMTD:utility_desktop.obj
 0001:0002bd80       ___scrt_initialize_winrt   1002cd80 f   LIBCMTD:utility_desktop.obj
 0001:0002bd90       ___scrt_is_managed_app     1002cd90 f   LIBCMTD:utility_desktop.obj
 0001:0002be20       ___scrt_set_unhandled_exception_filter 1002ce20 f   LIBCMTD:utility_desktop.obj
 0001:0002be30       ___scrt_stub_for_initialize_mta 1002ce30 f   LIBCMTD:utility_desktop.obj
 0001:0002be30       ___scrt_exe_initialize_mta 1002ce30 f   LIBCMTD:utility_desktop.obj
 0001:0002be40       ___scrt_unhandled_exception_filter@4 1002ce40 f   LIBCMTD:utility_desktop.obj
 0001:0002bec0       __crt_debugger_hook        1002cec0 f   LIBCMTD:utility_desktop.obj
 0001:0002bed0       @_guard_check_icall_nop@4  1002ced0 f i LIBCMTD:guard_support.obj
 0001:0002bee0       _ReadNoFence               1002cee0 f i LIBCMTD:guard_support.obj
 0001:0002bf00       _ReadPointerNoFence        1002cf00 f i LIBCMTD:guard_support.obj
 0001:0002bf20       ___castguard_check_failure_debugbreak 1002cf20 f i LIBCMTD:guard_support.obj
 0001:0002bf40       ___castguard_check_failure_fastfail 1002cf40 f i LIBCMTD:guard_support.obj
 0001:0002bf60       ___castguard_check_failure_nop 1002cf60 f i LIBCMTD:guard_support.obj
 0001:0002bf70       ___castguard_check_failure_os_handled 1002cf70 f i LIBCMTD:guard_support.obj
 0001:0002bff0       ___castguard_slow_path_check_debugbreak 1002cff0 f i LIBCMTD:guard_support.obj
 0001:0002c020       ___castguard_slow_path_check_fastfail 1002d020 f i LIBCMTD:guard_support.obj
 0001:0002c060       ___castguard_slow_path_check_nop 1002d060 f i LIBCMTD:guard_support.obj
 0001:0002c070       ___castguard_slow_path_check_os_handled 1002d070 f i LIBCMTD:guard_support.obj
 0001:0002c110       __guard_icall_checks_enforced 1002d110 f i LIBCMTD:guard_support.obj
 0001:0002c1b0       ___security_init_cookie    1002d1b0 f   LIBCMTD:gs_support.obj
 0001:0002c230       ?__scrt_initialize_type_info@@YAXXZ 1002d230 f   LIBCMTD:tncleanup.obj
 0001:0002c240       ?__scrt_uninitialize_type_info@@YAXXZ 1002d240 f   LIBCMTD:tncleanup.obj
 0001:0002c260       ___local_stdio_scanf_options 1002d260 f i LIBCMTD:default_local_stdio_options.obj
 0001:0002c270       ___scrt_initialize_default_local_stdio_options 1002d270 f   LIBCMTD:default_local_stdio_options.obj
 0001:0002c2b0       ___scrt_get_dyn_tls_init_callback 1002d2b0 f   LIBCMTD:dyn_tls_init.obj
 0001:0002c2c0       __RTC_Initialize           1002d2c0 f   LIBCMTD:initsect.obj
 0001:0002c2f0       __RTC_Terminate            1002d2f0 f   LIBCMTD:initsect.obj
 0001:0002c7a0       ?_RTC_GetSrcLine@@YAHPAEPA_WKPAH1K@Z 1002d7a0 f   LIBCMTD:pdblkup.obj
 0001:0002cb20       __except_handler4_noexcept 1002db20 f   LIBCMTD:chandler4_noexcept.obj
 0001:0002cb80       ??0bad_alloc@std@@AAE@QBD@Z 1002db80 f i LIBCMTD:throw_bad_alloc.obj
 0001:0002cbb0       ??0bad_alloc@std@@QAE@ABV01@@Z 1002dbb0 f i LIBCMTD:throw_bad_alloc.obj
 0001:0002cbe0       ??0bad_alloc@std@@QAE@XZ   1002dbe0 f i LIBCMTD:throw_bad_alloc.obj
 0001:0002cc10       ??0bad_array_new_length@std@@QAE@ABV01@@Z 1002dc10 f i LIBCMTD:throw_bad_alloc.obj
 0001:0002cc40       ??0bad_array_new_length@std@@QAE@XZ 1002dc40 f i LIBCMTD:throw_bad_alloc.obj
 0001:0002cc70       ??0exception@std@@QAE@ABV01@@Z 1002dc70 f i LIBCMTD:throw_bad_alloc.obj
 0001:0002ccb0       ??0exception@std@@QAE@QBDH@Z 1002dcb0 f i LIBCMTD:throw_bad_alloc.obj
 0001:0002cce0       ??1bad_alloc@std@@UAE@XZ   1002dce0 f i LIBCMTD:throw_bad_alloc.obj
 0001:0002cd00       ??1bad_array_new_length@std@@UAE@XZ 1002dd00 f i LIBCMTD:throw_bad_alloc.obj
 0001:0002cd20       ??1exception@std@@UAE@XZ   1002dd20 f i LIBCMTD:throw_bad_alloc.obj
 0001:0002cd50       ??_Gbad_alloc@std@@UAEPAXI@Z 1002dd50 f i LIBCMTD:throw_bad_alloc.obj
 0001:0002cd50       ??_Ebad_alloc@std@@UAEPAXI@Z 1002dd50 f i LIBCMTD:throw_bad_alloc.obj
 0001:0002cd80       ??_Gbad_array_new_length@std@@UAEPAXI@Z 1002dd80 f i LIBCMTD:throw_bad_alloc.obj
 0001:0002cd80       ??_Ebad_array_new_length@std@@UAEPAXI@Z 1002dd80 f i LIBCMTD:throw_bad_alloc.obj
 0001:0002cdb0       ??_Eexception@std@@UAEPAXI@Z 1002ddb0 f i LIBCMTD:throw_bad_alloc.obj
 0001:0002cdb0       ??_Gexception@std@@UAEPAXI@Z 1002ddb0 f i LIBCMTD:throw_bad_alloc.obj
 0001:0002cde0       ?__scrt_throw_std_bad_alloc@@YAXXZ 1002dde0 f   LIBCMTD:throw_bad_alloc.obj
 0001:0002ce00       ?__scrt_throw_std_bad_array_new_length@@YAXXZ 1002de00 f   LIBCMTD:throw_bad_alloc.obj
 0001:0002ce20       ?what@exception@std@@UBEPBDXZ 1002de20 f i LIBCMTD:throw_bad_alloc.obj
 0001:0002ce50       ??1type_info@@UAE@XZ       1002de50 f   LIBCMTD:std_type_info_static.obj
 0001:0002ce70       ??_Etype_info@@UAEPAXI@Z   1002de70 f i LIBCMTD:std_type_info_static.obj
 0001:0002ce70       ??_Gtype_info@@UAEPAXI@Z   1002de70 f i LIBCMTD:std_type_info_static.obj
 0001:0002ce9e       ??$?2PAUHINSTANCE__@@@Wrapper@?$CSimpleArray@PAUHINSTANCE__@@V?$CSimpleArrayEqualHelper@PAUHINSTANCE__@@@ATL@@@ATL@@SAPAXIPAPAUHINSTANCE__@@@Z 1002de9e f i atls:atlbase.obj
 0001:0002cea6       ??0?$CSimpleArray@PAUHINSTANCE__@@V?$CSimpleArrayEqualHelper@PAUHINSTANCE__@@@ATL@@@ATL@@QAE@XZ 1002dea6 f i atls:atlbase.obj
 0001:0002ceb3       ??0CAtlBaseModule@ATL@@QAE@XZ 1002deb3 f   atls:atlbase.obj
 0001:0002cf06       ??0Wrapper@?$CSimpleArray@PAUHINSTANCE__@@V?$CSimpleArrayEqualHelper@PAUHINSTANCE__@@@ATL@@@ATL@@QAE@ABQAUHINSTANCE__@@@Z 1002df06 f i atls:atlbase.obj
 0001:0002cf16       ??0_ATL_BASE_MODULE70@ATL@@QAE@XZ 1002df16 f i atls:atlbase.obj
 0001:0002cf39       ??1?$CSimpleArray@PAUHINSTANCE__@@V?$CSimpleArrayEqualHelper@PAUHINSTANCE__@@@ATL@@@ATL@@QAE@XZ 1002df39 f i atls:atlbase.obj
 0001:0002cf3e       ??1CAtlBaseModule@ATL@@QAE@XZ 1002df3e f   atls:atlbase.obj
 0001:0002cf54       ??1_ATL_BASE_MODULE70@ATL@@QAE@XZ 1002df54 f i atls:atlbase.obj
 0001:0002cf5c       ??A?$CSimpleArray@PAUHINSTANCE__@@V?$CSimpleArrayEqualHelper@PAUHINSTANCE__@@@ATL@@@ATL@@QAEAAPAUHINSTANCE__@@H@Z 1002df5c f i atls:atlbase.obj
 0001:0002cf81       ?Add@?$CSimpleArray@PAUHINSTANCE__@@V?$CSimpleArrayEqualHelper@PAUHINSTANCE__@@@ATL@@@ATL@@QAEHABQAUHINSTANCE__@@@Z 1002df81 f i atls:atlbase.obj
 0001:0002d003       ?AddResourceInstance@CAtlBaseModule@ATL@@QAE_NPAUHINSTANCE__@@@Z 1002e003 f   atls:atlbase.obj
 0001:0002d036       ?GetHInstanceAt@CAtlBaseModule@ATL@@QAEPAUHINSTANCE__@@H@Z 1002e036 f   atls:atlbase.obj
 0001:0002d07b       ?GetSize@?$CSimpleArray@PAUHINSTANCE__@@V?$CSimpleArrayEqualHelper@PAUHINSTANCE__@@@ATL@@@ATL@@QBEHXZ 1002e07b f i atls:atlbase.obj
 0001:0002d07f       ?InternalSetAtIndex@?$CSimpleArray@PAUHINSTANCE__@@V?$CSimpleArrayEqualHelper@PAUHINSTANCE__@@@ATL@@@ATL@@QAEXHABQAUHINSTANCE__@@@Z 1002e07f f i atls:atlbase.obj
 0001:0002d099       ?RemoveAll@?$CSimpleArray@PAUHINSTANCE__@@V?$CSimpleArrayEqualHelper@PAUHINSTANCE__@@@ATL@@@ATL@@QAEXXZ 1002e099 f i atls:atlbase.obj
 0001:0002d0b6       ?RemoveAt@?$CSimpleArray@PAUHINSTANCE__@@V?$CSimpleArrayEqualHelper@PAUHINSTANCE__@@@ATL@@@ATL@@QAEHH@Z 1002e0b6 f i atls:atlbase.obj
 0001:0002d104       ?RemoveResourceInstance@CAtlBaseModule@ATL@@QAE_NPAUHINSTANCE__@@@Z 1002e104 f   atls:atlbase.obj
 0001:0002d161       ?memmove_s@Checked@ATL@@YAXPAXIPBXI@Z 1002e161 f i atls:atlbase.obj
 0001:0002d4be       ?GetCodeAddress@_stdcallthunk@ATL@@QAEPAXXZ 1002e4be f i atls:atlthunk.obj
 0001:0002d4e8       ?Init@_stdcallthunk@ATL@@QAEHKPAX@Z 1002e4e8 f i atls:atlthunk.obj
 0001:0002d51d       ?__AllocStdCallThunk@@YGPAXXZ 1002e51d f   atls:atlthunk.obj
 0001:0002d522       ?__AllocStdCallThunk@ATL@@YGPAXXZ 1002e522 f   atls:atlthunk.obj
 0001:0002d527       ?__AllocStdCallThunk_cmn@@YAPAXXZ 1002e527 f   atls:atlthunk.obj
 0001:0002d5ed       ?__FreeStdCallThunk@@YGXPAX@Z 1002e5ed f   atls:atlthunk.obj
 0001:0002d5fd       ?__FreeStdCallThunk@ATL@@YGXPAX@Z 1002e5fd f   atls:atlthunk.obj
 0001:0002d60d       ?__FreeStdCallThunk_cmn@@YAXPAX@Z 1002e60d f   atls:atlthunk.obj
 0001:0002d6a8       _AtlThunk_AllocateData@0   1002e6a8 f   atls:atlthunk.obj
 0001:0002d70d       _AtlThunk_DataToCode@4     1002e70d f   atls:atlthunk.obj
 0001:0002d754       _AtlThunk_FreeData@4       1002e754 f   atls:atlthunk.obj
 0001:0002d7aa       _AtlThunk_InitData@12      1002e7aa f   atls:atlthunk.obj
 0001:0002d7f9       _MemoryBarrier             1002e7f9 f i atls:atlthunk.obj
 0001:0002d807       __InlineInterlockedCompareExchangePointer 1002e807 f i atls:atlthunk.obj
 0001:0002d820       _memset                    1002e820 f   libvcruntimed:memset.obj
 0001:0002d980       ??$__crt_interlocked_exchange_pointer@$$A6AXXZP6AXXZ@@YAP6AXXZPDS6AXXZQ6AXXZ@Z 1002e980 f i libvcruntimed:purevirt.obj
 0001:0002d990       ??$__crt_interlocked_read_pointer@$$A6AXXZ@@YAP6AXXZPDS6AXXZ@Z 1002e990 f i libvcruntimed:purevirt.obj
 0001:0002d9b0       ?__crt_interlocked_read_32@@YAHPDH@Z 1002e9b0 f i libvcruntimed:purevirt.obj
 0001:0002d9d0       __get_purecall_handler     1002e9d0 f   libvcruntimed:purevirt.obj
 0001:0002d9f0       __purecall                 1002e9f0 f   libvcruntimed:purevirt.obj
 0001:0002da20       __set_purecall_handler     1002ea20 f   libvcruntimed:purevirt.obj
 0001:0002dbf0       _memcmp                    1002ebf0 f   libvcruntimed:memcmp.obj
 0001:0002e4c0       _memcpy                    1002f4c0 f   libvcruntimed:memcpy.obj
 0001:0002ea40       _wcsstr                    1002fa40 f   libvcruntimed:wcsstr.obj
 0001:0002ef70       __except_handler4          1002ff70 f   libvcruntimed:chandler4.obj
 0001:0002f160       ___vcrt_initialize         10030160 f   libvcruntimed:initialization.obj
 0001:0002f1a0       ___vcrt_thread_attach      100301a0 f   libvcruntimed:initialization.obj
 0001:0002f1c0       ___vcrt_thread_detach      100301c0 f   libvcruntimed:initialization.obj
 0001:0002f1e0       ___vcrt_uninitialize       100301e0 f   libvcruntimed:initialization.obj
 0001:0002f200       ___vcrt_uninitialize_critical 10030200 f   libvcruntimed:initialization.obj
 0001:0002f220       ??$?0AAViterator@TryBlockMap@__FrameHandler3@@AAV012@$0A@@?$pair@Viterator@TryBlockMap@__FrameHandler3@@V123@@std@@QAE@AAViterator@TryBlockMap@__FrameHandler3@@0@Z 10030220 f i libvcruntimed:trnsctrl.obj
 0001:0002f270       ??$forward@AAViterator@TryBlockMap@__FrameHandler3@@@std@@YAAAViterator@TryBlockMap@__FrameHandler3@@AAV123@@Z 10030270 f i libvcruntimed:trnsctrl.obj
 0001:0002f280       ??0iterator@TryBlockMap@__FrameHandler3@@QAE@AAV12@I@Z 10030280 f i libvcruntimed:trnsctrl.obj
 0001:0002f2b0       ?GetRangeOfTrysToCheck@__FrameHandler3@@SA?AU?$pair@Viterator@TryBlockMap@__FrameHandler3@@V123@@std@@AAVTryBlockMap@1@HPAXPBU_s_FuncInfo@@H@Z 100302b0 f   libvcruntimed:trnsctrl.obj
 0001:0002f390       ?_CallCatchBlock2@@YAPAXPAUEHRegistrationNode@@PBU_s_FuncInfo@@PAXHK@Z 10030390 f   libvcruntimed:trnsctrl.obj
 0001:0002f400       ?_CallSETranslator@@YAHPAUEHExceptionRecord@@PAUEHRegistrationNode@@PAX2PBU_s_FuncInfo@@H1@Z 10030400 f   libvcruntimed:trnsctrl.obj
 0001:0002f500       ?_JumpToContinuation@@YGXPAXPAUEHRegistrationNode@@@Z 10030500 f   libvcruntimed:trnsctrl.obj
 0001:0002f540       ?_UnwindNestedFrames@@YGXPAUEHRegistrationNode@@PAUEHExceptionRecord@@@Z 10030540 f   libvcruntimed:trnsctrl.obj
 0001:0002f5a0       __CatchGuardHandler        100305a0 f   libvcruntimed:trnsctrl.obj
 0001:0002f5f0       __CreateFrameInfo          100305f0 f   libvcruntimed:trnsctrl.obj
 0001:0002f620       __FindAndUnlinkFrame       10030620 f   libvcruntimed:trnsctrl.obj
 0001:0002f690       __TranslatorGuardHandler   10030690 f   libvcruntimed:trnsctrl.obj
 0001:0002f740       ___CxxFrameHandler         10030740 f   libvcruntimed:trnsctrl.obj
 0001:0002f780       ___CxxFrameHandler2        10030780 f   libvcruntimed:trnsctrl.obj
 0001:0002f7c0       ___CxxFrameHandler3        100307c0 f   libvcruntimed:trnsctrl.obj
 0001:0002f800       ___CxxLongjmpUnwind@4      10030800 f   libvcruntimed:trnsctrl.obj
 0001:0002f840       ___DestructExceptionObject 10030840 f   libvcruntimed:ehhelpers.obj
 0001:0002f960       ?_CallMemberFunction0@@YGXQAX0@Z 10030960 f i libvcruntimed:ehhelpers.obj
 0001:0002fa00       ?raw_name@type_info@@QBEPBDXZ 10030a00 f i libvcruntimed:ehhelpers.obj
 0001:0002fa20       __IsExceptionObjectToBeDestroyed 10030a20 f   libvcruntimed:ehhelpers.obj
 0001:0002fa60       __SetWinRTOutOfMemoryExceptionCallback 10030a60 f   libvcruntimed:ehhelpers.obj
 0001:0002fa70       ___AdjustPointer           10030a70 f   libvcruntimed:ehhelpers.obj
 0001:0002fac0       ___FrameUnwindFilter       10030ac0 f   libvcruntimed:ehhelpers.obj
 0001:0002fb50       ___GetPlatformExceptionInfo 10030b50 f   libvcruntimed:ehhelpers.obj
 0001:0002fbd0       ___current_exception       10030bd0 f   libvcruntimed:ehhelpers.obj
 0001:0002fbe0       ___current_exception_context 10030be0 f   libvcruntimed:ehhelpers.obj
 0001:0002fbf0       ___processing_throw        10030bf0 f   libvcruntimed:ehhelpers.obj
 0001:0002fc00       ___std_terminate           10030c00 f   libvcruntimed:ehhelpers.obj
 0001:0002fc10       __is_exception_typeof      10030c10 f   libvcruntimed:ehhelpers.obj
 0001:0002fd10       ??$?RD@__crt_internal_free_policy@@QBEXQBD@Z 10030d10 f i libvcruntimed:std_type_info.obj
 0001:0002fd30       ??$?RX@__crt_internal_free_policy@@QBEXQBX@Z 10030d30 f i libvcruntimed:std_type_info.obj
 0001:0002fd50       ??$__crt_interlocked_compare_exchange_pointer@$$CBDPAD$$T@@YAPBDPDSBDQAD$$T@Z 10030d50 f i libvcruntimed:std_type_info.obj
 0001:0002fd70       ??$__crt_interlocked_read_pointer@$$CBD@@YAPBDPDSBD@Z 10030d70 f i libvcruntimed:std_type_info.obj
 0001:0002fd90       ??0?$__crt_unique_heap_ptr@DU__crt_internal_free_policy@@@@QAE@QAD@Z 10030d90 f i libvcruntimed:std_type_info.obj
 0001:0002fdb0       ??0?$__crt_unique_heap_ptr@XU__crt_internal_free_policy@@@@QAE@QAX@Z 10030db0 f i libvcruntimed:std_type_info.obj
 0001:0002fdd0       ??1?$__crt_unique_heap_ptr@DU__crt_internal_free_policy@@@@QAE@XZ 10030dd0 f i libvcruntimed:std_type_info.obj
 0001:0002fdf0       ??1?$__crt_unique_heap_ptr@XU__crt_internal_free_policy@@@@QAE@XZ 10030df0 f i libvcruntimed:std_type_info.obj
 0001:0002fe10       ??B?$__crt_unique_heap_ptr@DU__crt_internal_free_policy@@@@QBE_NXZ 10030e10 f i libvcruntimed:std_type_info.obj
 0001:0002fe30       ??B?$__crt_unique_heap_ptr@XU__crt_internal_free_policy@@@@QBE_NXZ 10030e30 f i libvcruntimed:std_type_info.obj
 0001:0002fec0       ?detach@?$__crt_unique_heap_ptr@XU__crt_internal_free_policy@@@@QAEPAXXZ 10030ec0 f i libvcruntimed:std_type_info.obj
 0001:0002fef0       ?get@?$__crt_unique_heap_ptr@DU__crt_internal_free_policy@@@@QBEPADXZ 10030ef0 f i libvcruntimed:std_type_info.obj
 0001:0002ff00       ?get@?$__crt_unique_heap_ptr@XU__crt_internal_free_policy@@@@QBEPAXXZ 10030f00 f i libvcruntimed:std_type_info.obj
 0001:0002ff10       ?is_valid@?$__crt_unique_heap_ptr@DU__crt_internal_free_policy@@@@QBE_NXZ 10030f10 f i libvcruntimed:std_type_info.obj
 0001:0002ff40       ?is_valid@?$__crt_unique_heap_ptr@XU__crt_internal_free_policy@@@@QBE_NXZ 10030f40 f i libvcruntimed:std_type_info.obj
 0001:0002ff70       ?release@?$__crt_unique_heap_ptr@DU__crt_internal_free_policy@@@@QAEXXZ 10030f70 f i libvcruntimed:std_type_info.obj
 0001:0002ffa0       ?release@?$__crt_unique_heap_ptr@XU__crt_internal_free_policy@@@@QAEXXZ 10030fa0 f i libvcruntimed:std_type_info.obj
 0001:0002ffd0       ___std_type_info_compare   10030fd0 f   libvcruntimed:std_type_info.obj
 0001:00030000       ___std_type_info_destroy_list 10031000 f   libvcruntimed:std_type_info.obj
 0001:00030040       ___std_type_info_hash      10031040 f   libvcruntimed:std_type_info.obj
 0001:000300a0       ___std_type_info_name      100310a0 f   libvcruntimed:std_type_info.obj
 0001:00030280       ___vcrt_GetModuleFileNameW 10031280 f   libvcruntimed:winapi_thunks.obj
 0001:000302a0       ___vcrt_GetModuleHandleW   100312a0 f   libvcruntimed:winapi_thunks.obj
 0001:000302b0       ___vcrt_LoadLibraryExW     100312b0 f   libvcruntimed:winapi_thunks.obj
 0001:000302d0       ??$?RD@__crt_public_free_policy@@QBEXQBD@Z 100312d0 f i libvcruntimed:std_exception.obj
 0001:000302f0       ??0?$__crt_unique_heap_ptr@DU__crt_public_free_policy@@@@QAE@QAD@Z 100312f0 f i libvcruntimed:std_exception.obj
 0001:00030310       ??1?$__crt_unique_heap_ptr@DU__crt_public_free_policy@@@@QAE@XZ 10031310 f i libvcruntimed:std_exception.obj
 0001:00030330       ??B?$__crt_unique_heap_ptr@DU__crt_public_free_policy@@@@QBE_NXZ 10031330 f i libvcruntimed:std_exception.obj
 0001:00030350       ?detach@?$__crt_unique_heap_ptr@DU__crt_public_free_policy@@@@QAEPADXZ 10031350 f i libvcruntimed:std_exception.obj
 0001:00030380       ?get@?$__crt_unique_heap_ptr@DU__crt_public_free_policy@@@@QBEPADXZ 10031380 f i libvcruntimed:std_exception.obj
 0001:00030390       ?is_valid@?$__crt_unique_heap_ptr@DU__crt_public_free_policy@@@@QBE_NXZ 10031390 f i libvcruntimed:std_exception.obj
 0001:000303c0       ?release@?$__crt_unique_heap_ptr@DU__crt_public_free_policy@@@@QAEXXZ 100313c0 f i libvcruntimed:std_exception.obj
 0001:000303f0       ___std_exception_copy      100313f0 f   libvcruntimed:std_exception.obj
 0001:000304e0       ___std_exception_destroy   100314e0 f   libvcruntimed:std_exception.obj
 0001:00030510       __CxxThrowException@8      10031510 f   libvcruntimed:throw.obj
 0001:000305c0       _memmove                   100315c0 f   libvcruntimed:memmove.obj
 0001:00030b40       __local_unwind4            10031b40 f   libvcruntimed:exsup4.obj
 0001:00030c14       __seh_longjmp_unwind4@4    10031c14 f   libvcruntimed:exsup4.obj
 0001:00030c3c       @_EH4_CallFilterFunc@8     10031c3c f   libvcruntimed:exsup4.obj
 0001:00030c54       @_EH4_TransferToHandler@8  10031c54 f   libvcruntimed:exsup4.obj
 0001:00030c70       @_EH4_GlobalUnwind2@8      10031c70 f   libvcruntimed:exsup4.obj
 0001:00030c8c       @_EH4_LocalUnwind@16       10031c8c f   libvcruntimed:exsup4.obj
 0001:00030cc0       ___except_validate_context_record 10031cc0 f   libvcruntimed:jbcxrval.obj
 0001:00030d10       ___except_validate_jump_buffer 10031d10 f   libvcruntimed:jbcxrval.obj
 0001:00030d30       ___except_validate_jump_buffer_common 10031d30 f i libvcruntimed:jbcxrval.obj
 0001:00030d90       ??$?RU__vcrt_ptd@@@__crt_internal_free_policy@@QBEXQBU__vcrt_ptd@@@Z 10031d90 f i libvcruntimed:per_thread_data.obj
 0001:00030db0       ??0?$__crt_unique_heap_ptr@U__vcrt_ptd@@U__crt_internal_free_policy@@@@QAE@QAU__vcrt_ptd@@@Z 10031db0 f i libvcruntimed:per_thread_data.obj
 0001:00030df0       ??1?$__crt_unique_heap_ptr@U__vcrt_ptd@@U__crt_internal_free_policy@@@@QAE@XZ 10031df0 f i libvcruntimed:per_thread_data.obj
 0001:00030e30       ??B?$__crt_unique_heap_ptr@U__vcrt_ptd@@U__crt_internal_free_policy@@@@QBE_NXZ 10031e30 f i libvcruntimed:per_thread_data.obj
 0001:00030e50       ?detach@?$__crt_unique_heap_ptr@U__vcrt_ptd@@U__crt_internal_free_policy@@@@QAEPAU__vcrt_ptd@@XZ 10031e50 f i libvcruntimed:per_thread_data.obj
 0001:00030e80       ?get@?$__crt_unique_heap_ptr@U__vcrt_ptd@@U__crt_internal_free_policy@@@@QBEPAU__vcrt_ptd@@XZ 10031e80 f i libvcruntimed:per_thread_data.obj
 0001:00030e90       ?is_valid@?$__crt_unique_heap_ptr@U__vcrt_ptd@@U__crt_internal_free_policy@@@@QBE_NXZ 10031e90 f i libvcruntimed:per_thread_data.obj
 0001:00030ec0       ?release@?$__crt_unique_heap_ptr@U__vcrt_ptd@@U__crt_internal_free_policy@@@@QAEXXZ 10031ec0 f i libvcruntimed:per_thread_data.obj
 0001:00030f20       ___vcrt_freefls@4          10031f20 f   libvcruntimed:per_thread_data.obj
 0001:00030f50       ___vcrt_freeptd            10031f50 f   libvcruntimed:per_thread_data.obj
 0001:00030fb0       ___vcrt_getptd             10031fb0 f   libvcruntimed:per_thread_data.obj
 0001:00030fd0       ___vcrt_getptd_noexit      10031fd0 f   libvcruntimed:per_thread_data.obj
 0001:00031130       ___vcrt_getptd_noinit      10032130 f   libvcruntimed:per_thread_data.obj
 0001:00031190       ___vcrt_initialize_ptd     10032190 f   libvcruntimed:per_thread_data.obj
 0001:000311e0       ___vcrt_uninitialize_ptd   100321e0 f   libvcruntimed:per_thread_data.obj
 0001:00031210       ___vcrt_initialize_locks   10032210 f   libvcruntimed:locks.obj
 0001:00031270       ___vcrt_lock               10032270 f   libvcruntimed:locks.obj
 0001:00031290       ___vcrt_uninitialize_locks 10032290 f   libvcruntimed:locks.obj
 0001:000312e0       ___vcrt_unlock             100322e0 f   libvcruntimed:locks.obj
 0001:00031e70       ??$TypeMatchHelper@V__FrameHandler3@@@@YAHPBU_s_HandlerType@@PBU_s_CatchableType@@PBU_s_ThrowInfo@@@Z 10032e70 f i libvcruntimed:frame.obj
 0001:00031f50       ??$__InternalCxxFrameHandler@V__FrameHandler3@@@@YA?AW4_EXCEPTION_DISPOSITION@@PAUEHExceptionRecord@@PAUEHRegistrationNode@@PAU_CONTEXT@@PAXPBU_s_FuncInfo@@H1E@Z 10032f50 f i libvcruntimed:frame.obj
 0001:00032110       ??0HandlerMap@__FrameHandler3@@QAE@PBU_s_TryBlockMapEntry@@II@Z 10033110 f i libvcruntimed:frame.obj
 0001:00032140       ??0TryBlockMap@__FrameHandler3@@QAE@PBU_s_FuncInfo@@I@Z 10033140 f i libvcruntimed:frame.obj
 0001:00032170       ??0bad_exception@std@@QAE@ABV01@@Z 10033170 f i libvcruntimed:frame.obj
 0001:000321a0       ??0bad_exception@std@@QAE@XZ 100331a0 f i libvcruntimed:frame.obj
 0001:000321d0       ??0iterator@HandlerMap@__FrameHandler3@@QAE@AAV12@I@Z 100331d0 f i libvcruntimed:frame.obj
 0001:00032200       ??1bad_exception@std@@UAE@XZ 10033200 f i libvcruntimed:frame.obj
 0001:00032220       ??8iterator@HandlerMap@__FrameHandler3@@QBE_NABV012@@Z 10033220 f i libvcruntimed:frame.obj
 0001:00032250       ??8type_info@@QBE_NABV0@@Z 10033250 f i libvcruntimed:frame.obj
 0001:00032290       ??9iterator@HandlerMap@__FrameHandler3@@QBE_NABV012@@Z 10033290 f i libvcruntimed:frame.obj
 0001:000322d0       ??Diterator@HandlerMap@__FrameHandler3@@QAE?BU_s_HandlerType@@XZ 100332d0 f i libvcruntimed:frame.obj
 0001:00032310       ??Diterator@TryBlockMap@__FrameHandler3@@QAE?BU_s_TryBlockMapEntry@@XZ 10033310 f i libvcruntimed:frame.obj
 0001:00032360       ??Eiterator@HandlerMap@__FrameHandler3@@QAEAAV012@XZ 10033360 f i libvcruntimed:frame.obj
 0001:00032380       ??Eiterator@TryBlockMap@__FrameHandler3@@QAEAAV012@XZ 10033380 f i libvcruntimed:frame.obj
 0001:000323a0       ??Miterator@TryBlockMap@__FrameHandler3@@QBE_NABV012@@Z 100333a0 f i libvcruntimed:frame.obj
 0001:000323d0       ??_Ebad_exception@std@@UAEPAXI@Z 100333d0 f i libvcruntimed:frame.obj
 0001:000323d0       ??_Gbad_exception@std@@UAEPAXI@Z 100333d0 f i libvcruntimed:frame.obj
 0001:00032400       ?BuildCatchObject@__FrameHandler3@@SAXPAUEHExceptionRecord@@PAXPBU_s_HandlerType@@PBU_s_CatchableType@@@Z 10033400 f   libvcruntimed:frame.obj
 0001:00032420       ?BuildCatchObjectHelper@__FrameHandler3@@SAHPAUEHExceptionRecord@@PAXPBU_s_HandlerType@@PBU_s_CatchableType@@@Z 10033420 f   libvcruntimed:frame.obj
 0001:000327c0       ?FrameUnwindToEmptyState@__FrameHandler3@@SAXPAUEHRegistrationNode@@PAXPBU_s_FuncInfo@@@Z 100337c0 f   libvcruntimed:frame.obj
 0001:000327e0       ?FrameUnwindToState@__FrameHandler3@@SAXPAUEHRegistrationNode@@PAXPBU_s_FuncInfo@@H@Z 100337e0 f   libvcruntimed:frame.obj
 0001:00032960       ?GetMaxState@__FrameHandler3@@SAHPAXPBU_s_FuncInfo@@@Z 10033960 f i libvcruntimed:frame.obj
 0001:00032a80       ?TypeMatch@__FrameHandler3@@SAHPBU_s_HandlerType@@PBU_s_CatchableType@@PBU_s_ThrowInfo@@@Z 10033a80 f   libvcruntimed:frame.obj
 0001:00032aa0       ?_CallMemberFunction1@@YGXQAX00@Z 10033aa0 f i libvcruntimed:frame.obj
 0001:00032ad0       ?_CallMemberFunction2@@YGXQAX00H@Z 10033ad0 f i libvcruntimed:frame.obj
 0001:00032b00       ?begin@HandlerMap@__FrameHandler3@@QAE?AViterator@12@XZ 10033b00 f i libvcruntimed:frame.obj
 0001:00032b20       ?end@HandlerMap@__FrameHandler3@@QAE?AViterator@12@XZ 10033b20 f i libvcruntimed:frame.obj
 0001:00032b50       ?getESTypes@__FrameHandler3@@SAPBU_s_ESTypeList@@PBU_s_FuncInfo@@@Z 10033b50 f i libvcruntimed:frame.obj
 0001:00032b60       ?getLastEntry@HandlerMap@__FrameHandler3@@QAEPBU_s_HandlerType@@XZ 10033b60 f i libvcruntimed:frame.obj
 0001:00032b80       ?getMagicNum@__FrameHandler3@@SAIPBU_s_FuncInfo@@@Z 10033b80 f i libvcruntimed:frame.obj
 0001:00032b90       ?getNumTryBlocks@TryBlockMap@__FrameHandler3@@QAEIXZ 10033b90 f i libvcruntimed:frame.obj
 0001:00032bb0       ?isEHs@__FrameHandler3@@SA_NPBU_s_FuncInfo@@@Z 10033bb0 f i libvcruntimed:frame.obj
 0001:00032be0       ?isNoExcept@__FrameHandler3@@SA_NPBU_s_FuncInfo@@@Z 10033be0 f i libvcruntimed:frame.obj
 0001:00032c10       ___BuildCatchObject        10033c10 f   libvcruntimed:frame.obj
 0001:00032c30       ___BuildCatchObjectHelper  10033c30 f   libvcruntimed:frame.obj
 0001:00032c50       ___TypeMatch               10033c50 f   libvcruntimed:frame.obj
 0001:00032c70       ___vcrt_EncodePointer      10033c70 f i libvcruntimed:frame.obj
 0001:00032c80       __CallSettingFrame@12      10033c80 f   libvcruntimed:lowhelpr.obj
 0001:00032ca7       __NLG_Return               10033ca7     libvcruntimed:lowhelpr.obj
 0001:00032cd0       ??$?0$00@DName@@QAE@PBDU?$StringLifeSelector@$00@@@Z 10033cd0 f i libvcruntimed:undname.obj
 0001:00032d20       ??$?0$00@pcharNode@@QAE@PBDHU?$StringLifeSelector@$00@@@Z 10033d20 f i libvcruntimed:undname.obj
 0001:00032d60       ??$?0$01@DName@@QAE@PBDU?$StringLifeSelector@$01@@@Z 10033d60 f i libvcruntimed:undname.obj
 0001:00032db0       ??$?0$01@pcharNode@@QAE@PBDHU?$StringLifeSelector@$01@@@Z 10033db0 f i libvcruntimed:undname.obj
 0001:00032e30       ??$?0$0A@@DName@@QAE@PBDU?$StringLifeSelector@$0A@@@@Z 10033e30 f i libvcruntimed:undname.obj
 0001:00032e80       ??$?0$0A@@pcharNode@@QAE@PBDHU?$StringLifeSelector@$0A@@@@Z 10033e80 f i libvcruntimed:undname.obj
 0001:00032f00       ??$?0_K$0A@@?$optional@_K@std@@QAE@$$QA_K@Z 10033f00 f i libvcruntimed:undname.obj
 0001:00032f40       ??$?0_K@?$_Optional_construct_base@_K@std@@QAE@Uin_place_t@1@$$QA_K@Z 10033f40 f i libvcruntimed:undname.obj
 0001:00032f70       ??$?0_K@?$_Optional_destruct_base@_K$00@std@@QAE@Uin_place_t@1@$$QA_K@Z 10033f70 f i libvcruntimed:undname.obj
 0001:00032fa0       ??$append@VDNameNode@@@DName@@AAEXPBVDNameNode@@@Z 10033fa0 f i libvcruntimed:undname.obj
 0001:00033030       ??$append@VDNameStatusNode@@@DName@@AAEXPBVDNameStatusNode@@@Z 10034030 f i libvcruntimed:undname.obj
 0001:000330c0       ??$append@VcharNode@@@DName@@AAEXPBVcharNode@@@Z 100340c0 f i libvcruntimed:undname.obj
 0001:00033150       ??$append@VpDNameNode@@@DName@@AAEXPBVpDNameNode@@@Z 10034150 f i libvcruntimed:undname.obj
 0001:000331e0       ??$append@VpcharNode@@@DName@@AAEXPBVpcharNode@@@Z 100341e0 f i libvcruntimed:undname.obj
 0001:00033270       ??$doPchar@$00@DName@@AAEXPBDH@Z 10034270 f i libvcruntimed:undname.obj
 0001:00033380       ??$doPchar@$01@DName@@AAEXPBDH@Z 10034380 f i libvcruntimed:undname.obj
 0001:00033490       ??$doPchar@$0A@@DName@@AAEXPBDH@Z 10034490 f i libvcruntimed:undname.obj
 0001:000335a0       ??$forward@_K@std@@YA$$QA_KAA_K@Z 100345a0 f i libvcruntimed:undname.obj
 0001:000335b0       ??$size@D$04@std@@YAIAAY04$$CBD@Z 100345b0 f i libvcruntimed:undname.obj
 0001:000335c0       ??$size@D$0EB@@std@@YAIAAY0EB@$$CBD@Z 100345c0 f i libvcruntimed:undname.obj
 0001:000335d0       ??0?$_Optional_construct_base@_K@std@@QAE@XZ 100345d0 f i libvcruntimed:undname.obj
 0001:000335f0       ??0?$_Optional_destruct_base@_K$00@std@@QAE@XZ 100345f0 f i libvcruntimed:undname.obj
 0001:00033610       ??0?$optional@_K@std@@QAE@XZ 10034610 f i libvcruntimed:undname.obj
 0001:00033630       ??0Block@_HeapManager@@QAE@XZ 10034630 f i libvcruntimed:undname.obj
 0001:00033650       ??0DName@@QAE@AAPBDD@Z     10034650 f   libvcruntimed:undname.obj
 0001:000337c0       ??0DName@@QAE@ABUStringLiteral@@@Z 100347c0 f   libvcruntimed:undname.obj
 0001:00033810       ??0DName@@QAE@ABV0@@Z      10034810 f i libvcruntimed:undname.obj
 0001:00033840       ??0DName@@QAE@D@Z          10034840 f   libvcruntimed:undname.obj
 0001:00033870       ??0DName@@QAE@PAV0@@Z      10034870 f   libvcruntimed:undname.obj
 0001:00033920       ??0DName@@QAE@W4DNameStatus@@@Z 10034920 f   libvcruntimed:undname.obj
 0001:000339c0       ??0DName@@QAE@XZ           100349c0 f i libvcruntimed:undname.obj
 0001:000339f0       ??0DName@@QAE@_J@Z         100349f0 f   libvcruntimed:undname.obj
 0001:00033ae0       ??0DName@@QAE@_K@Z         10034ae0 f   libvcruntimed:undname.obj
 0001:00033b90       ??0DNameNode@@IAE@XZ       10034b90 f i libvcruntimed:undname.obj
 0001:00033bb0       ??0Replicator@@QAE@XZ      10034bb0 f i libvcruntimed:undname.obj
 0001:00033bf0       ??0UnDecorator@@QAE@PBDP6APADJ@ZK@Z 10034bf0 f i libvcruntimed:undname.obj
 0001:00033c70       ??0_Nontrivial_dummy_type@std@@QAE@XZ 10034c70 f i libvcruntimed:undname.obj
 0001:00033c80       ??0charNode@@QAE@D@Z       10034c80 f i libvcruntimed:undname.obj
 0001:00033cb0       ??0pDNameNode@@QAE@PAVDName@@@Z 10034cb0 f   libvcruntimed:undname.obj
 0001:00033d10       ??0pairNode@@QAE@PBVDNameNode@@0@Z 10034d10 f i libvcruntimed:undname.obj
 0001:00033d70       ??2@YAPAXIAAV_HeapManager@@H@Z 10034d70 f   libvcruntimed:undname.obj
 0001:00033db0       ??4DName@@QAEAAV0@ABUStringLiteral@@@Z 10034db0 f   libvcruntimed:undname.obj
 0001:00033df0       ??4DName@@QAEAAV0@ABV0@@Z  10034df0 f   libvcruntimed:undname.obj
 0001:00033e20       ??4DName@@QAEAAV0@D@Z      10034e20 f i libvcruntimed:undname.obj
 0001:00033e50       ??4DName@@QAEAAV0@PAV0@@Z  10034e50 f   libvcruntimed:undname.obj
 0001:00033ef0       ??4DName@@QAEAAV0@W4DNameStatus@@@Z 10034ef0 f   libvcruntimed:undname.obj
 0001:00033f70       ??AReplicator@@QBE?AVDName@@H@Z 10034f70 f   libvcruntimed:undname.obj
 0001:00033fe0       ??B?$optional@_K@std@@QBE_NXZ 10034fe0 f i libvcruntimed:undname.obj
 0001:00034000       ??D?$optional@_K@std@@QGAEAA_KXZ 10035000 f i libvcruntimed:undname.obj
 0001:00034010       ??H@YA?AVDName@@ABUStringLiteral@@ABV0@@Z 10035010 f i libvcruntimed:undname.obj
 0001:00034040       ??H@YA?AVDName@@DABV0@@Z   10035040 f i libvcruntimed:undname.obj
 0001:00034070       ??H@YA?AVDName@@W4DNameStatus@@ABV0@@Z 10035070 f i libvcruntimed:undname.obj
 0001:000340a0       ??HDName@@QBE?AV0@ABUStringLiteral@@@Z 100350a0 f   libvcruntimed:undname.obj
 0001:000340e0       ??HDName@@QBE?AV0@ABV0@@Z  100350e0 f   libvcruntimed:undname.obj
 0001:00034120       ??HDName@@QBE?AV0@D@Z      10035120 f   libvcruntimed:undname.obj
 0001:00034160       ??HDName@@QBE?AV0@PAV0@@Z  10035160 f   libvcruntimed:undname.obj
 0001:000341a0       ??HDName@@QBE?AV0@W4DNameStatus@@@Z 100351a0 f   libvcruntimed:undname.obj
 0001:000341e0       ??HStringLiteral@@QBE?AU0@H@Z 100351e0 f i libvcruntimed:undname.obj
 0001:00034210       ??YDName@@QAEAAV0@ABUStringLiteral@@@Z 10035210 f   libvcruntimed:undname.obj
 0001:000342b0       ??YDName@@QAEAAV0@ABV0@@Z  100352b0 f   libvcruntimed:undname.obj
 0001:00034350       ??YDName@@QAEAAV0@D@Z      10035350 f   libvcruntimed:undname.obj
 0001:000343d0       ??YDName@@QAEAAV0@PAV0@@Z  100353d0 f   libvcruntimed:undname.obj
 0001:00034480       ??YDName@@QAEAAV0@W4DNameStatus@@@Z 10035480 f   libvcruntimed:undname.obj
 0001:000344e0       ??YReplicator@@QAEAAV0@ABVDName@@@Z 100354e0 f   libvcruntimed:undname.obj
 0001:00034570       ??_5DName@@QAEAAV0@ABV0@@Z 10035570 f   libvcruntimed:undname.obj
 0001:000345d0       ??__K_l@@YA?AUStringLiteral@@PBDI@Z 100355d0 f i libvcruntimed:undname.obj
 0001:000345f0       ?Constructor@_HeapManager@@QAEXP6APAXI@ZP6AXPAX@Z@Z 100355f0 f i libvcruntimed:undname.obj
 0001:00034630       ?Destructor@_HeapManager@@QAEXXZ 10035630 f i libvcruntimed:undname.obj
 0001:000346a0       ?UScore@UnDecorator@@SA?AUStringLiteral@@W4Tokens@@@Z 100356a0 f   libvcruntimed:undname.obj
 0001:000346f0       ?composeDeclaration@UnDecorator@@CA?AVDName@@ABV2@@Z 100356f0 f i libvcruntimed:undname.obj
 0001:00036660       ?dbGetString@DName@@QBEPADXZ 10037660 f   libvcruntimed:undname.obj
 0001:00036680       ?doAccessSpecifiers@UnDecorator@@SAHXZ 10037680 f i libvcruntimed:undname.obj
 0001:000366b0       ?doAllocationLanguage@UnDecorator@@SAHXZ 100376b0 f i libvcruntimed:undname.obj
 0001:000366e0       ?doAllocationModel@UnDecorator@@SAHXZ 100376e0 f i libvcruntimed:undname.obj
 0001:00036710       ?doEcsu@UnDecorator@@SAHXZ 10037710 f i libvcruntimed:undname.obj
 0001:00036740       ?doEllipsis@UnDecorator@@SAHXZ 10037740 f i libvcruntimed:undname.obj
 0001:00036770       ?doFunctionReturns@UnDecorator@@SAHXZ 10037770 f i libvcruntimed:undname.obj
 0001:000367a0       ?doMSKeywords@UnDecorator@@SAHXZ 100377a0 f i libvcruntimed:undname.obj
 0001:000367d0       ?doMemberTypes@UnDecorator@@SAHXZ 100377d0 f i libvcruntimed:undname.obj
 0001:00036800       ?doNameOnly@UnDecorator@@SAHXZ 10037800 f i libvcruntimed:undname.obj
 0001:00036810       ?doNoIdentCharCheck@UnDecorator@@SAHXZ 10037810 f i libvcruntimed:undname.obj
 0001:00036820       ?doPchar@DName@@AAEXD@Z    10037820 f   libvcruntimed:undname.obj
 0001:00036890       ?doPtr64@UnDecorator@@SAHXZ 10037890 f i libvcruntimed:undname.obj
 0001:000368c0       ?doRestrictionSpec@UnDecorator@@SAHXZ 100378c0 f i libvcruntimed:undname.obj
 0001:000368f0       ?doThisTypes@UnDecorator@@SAHXZ 100378f0 f i libvcruntimed:undname.obj
 0001:00036920       ?doThrowTypes@UnDecorator@@SAHXZ 10037920 f i libvcruntimed:undname.obj
 0001:00036950       ?doTypeOnly@UnDecorator@@SAHXZ 10037950 f i libvcruntimed:undname.obj
 0001:00036960       ?doUnderScore@UnDecorator@@SAHXZ 10037960 f i libvcruntimed:undname.obj
 0001:00036990       ?getArgumentList@UnDecorator@@CA?AVDName@@XZ 10037990 f   libvcruntimed:undname.obj
 0001:00036ae0       ?getArgumentTypes@UnDecorator@@CA?AVDName@@XZ 10037ae0 f   libvcruntimed:undname.obj
 0001:00036cf0       ?getArrayObject@UnDecorator@@CA?AVDName@@XZ 10037cf0 f   libvcruntimed:undname.obj
 0001:00036dd0       ?getArrayType@UnDecorator@@CA?AVDName@@ABV2@@Z 10037dd0 f i libvcruntimed:undname.obj
 0001:00037070       ?getBasedType@UnDecorator@@CA?AVDName@@XZ 10038070 f   libvcruntimed:undname.obj
 0001:00037160       ?getBasicDataType@UnDecorator@@CA?AVDName@@ABV2@@Z 10038160 f   libvcruntimed:undname.obj
 0001:00037a70       ?getCHPEName@UnDecorator@@QAEPADPADH@Z 10038a70 f i libvcruntimed:undname.obj
 0001:00037bd0       ?getCallIndex@UnDecorator@@CA?AVDName@@XZ 10038bd0 f i libvcruntimed:undname.obj
 0001:00037bf0       ?getCallingConvention@UnDecorator@@CA?AVDName@@XZ 10038bf0 f   libvcruntimed:undname.obj
 0001:00037e30       ?getDataIndirectType@UnDecorator@@CA?AVDName@@ABV2@W4IndirectionKind@@0H@Z 10038e30 f   libvcruntimed:undname.obj
 0001:00038750       ?getDataIndirectType@UnDecorator@@CA?AVDName@@XZ 10039750 f i libvcruntimed:undname.obj
 0001:00038790       ?getDataType@UnDecorator@@CA?AVDName@@PAV2@@Z 10039790 f   libvcruntimed:undname.obj
 0001:000388d0       ?getDecoratedName@UnDecorator@@CA?AVDName@@XZ 100398d0 f   libvcruntimed:undname.obj
 0001:00038d10       ?getDimension@UnDecorator@@CA?AVDName@@_N@Z 10039d10 f   libvcruntimed:undname.obj
 0001:00038f70       ?getDispatchTarget@UnDecorator@@CA?AVDName@@XZ 10039f70 f   libvcruntimed:undname.obj
 0001:00039010       ?getDisplacement@UnDecorator@@CA?AVDName@@XZ 1003a010 f i libvcruntimed:undname.obj
 0001:00039030       ?getECSUDataType@UnDecorator@@CA?AVDName@@XZ 1003a030 f   libvcruntimed:undname.obj
 0001:00039290       ?getECSUName@UnDecorator@@CA?AVDName@@XZ 1003a290 f i libvcruntimed:undname.obj
 0001:000392b0       ?getEnumType@UnDecorator@@CA?AVDName@@XZ 1003a2b0 f i libvcruntimed:undname.obj
 0001:00039460       ?getExtendedDataIndirectType@UnDecorator@@CA?AVDName@@AAW4IndirectionKind@@AA_NH@Z 1003a460 f   libvcruntimed:undname.obj
 0001:000396b0       ?getExternalDataType@UnDecorator@@CA?AVDName@@ABV2@@Z 1003a6b0 f i libvcruntimed:undname.obj
 0001:00039750       ?getFloatingPoint@UnDecorator@@CA?AVDName@@H@Z 1003a750 f   libvcruntimed:undname.obj
 0001:00039900       ?getFunctionIndirectType@UnDecorator@@CA?AVDName@@ABV2@@Z 1003a900 f   libvcruntimed:undname.obj
 0001:00039de0       ?getGuardNumber@UnDecorator@@CA?AVDName@@XZ 1003ade0 f i libvcruntimed:undname.obj
 0001:00039e00       ?getLastChar@DName@@QBEDXZ 1003ae00 f i libvcruntimed:undname.obj
 0001:00039e40       ?getLastChar@DNameStatusNode@@UBEDXZ 1003ae40 f i libvcruntimed:undname.obj
 0001:00039e70       ?getLastChar@charNode@@UBEDXZ 1003ae70 f i libvcruntimed:undname.obj
 0001:00039e90       ?getLastChar@pDNameNode@@UBEDXZ 1003ae90 f i libvcruntimed:undname.obj
 0001:00039ec0       ?getLastChar@pairNode@@UBEDXZ 1003aec0 f i libvcruntimed:undname.obj
 0001:00039f30       ?getLastChar@pcharNode@@UBEDXZ 1003af30 f i libvcruntimed:undname.obj
 0001:00039f70       ?getLexicalFrame@UnDecorator@@CA?AVDName@@XZ 1003af70 f i libvcruntimed:undname.obj
 0001:00039fb0       ?getMemoryWithBuffer@_HeapManager@@QAEPAXI@Z 1003afb0 f   libvcruntimed:undname.obj
 0001:0003a0a0       ?getMemoryWithoutBuffer@_HeapManager@@QAEPAXI@Z 1003b0a0 f   libvcruntimed:undname.obj
 0001:0003a0e0       ?getNoexcept@UnDecorator@@CA?AVDName@@XZ 1003b0e0 f   libvcruntimed:undname.obj
 0001:0003a160       ?getNumberOfDimensions@UnDecorator@@CAHXZ 1003b160 f   libvcruntimed:undname.obj
 0001:0003a260       ?getOperatorName@UnDecorator@@CA?AVDName@@_NPA_N@Z 1003b260 f i libvcruntimed:undname.obj
 0001:0003ad50       ?getPointerType@UnDecorator@@CA?AVDName@@ABV2@0@Z 1003bd50 f i libvcruntimed:undname.obj
 0001:0003ad70       ?getPointerTypeArray@UnDecorator@@CA?AVDName@@ABV2@0@Z 1003bd70 f i libvcruntimed:undname.obj
 0001:0003ad90       ?getPrimaryDataType@UnDecorator@@CA?AVDName@@ABV2@@Z 1003bd90 f   libvcruntimed:undname.obj
 0001:0003b220       ?getPtrRefDataType@UnDecorator@@CA?AVDName@@ABV2@H@Z 1003c220 f   libvcruntimed:undname.obj
 0001:0003b4d0       ?getPtrRefType@UnDecorator@@CA?AVDName@@ABV2@0W4IndirectionKind@@@Z 1003c4d0 f   libvcruntimed:undname.obj
 0001:0003b650       ?getReferenceType@UnDecorator@@CA?AVDName@@ABV2@0W4IndirectionKind@@@Z 1003c650 f i libvcruntimed:undname.obj
 0001:0003b670       ?getRestrictionSpec@UnDecorator@@CA?AVDName@@XZ 1003c670 f   libvcruntimed:undname.obj
 0001:0003b830       ?getReturnType@UnDecorator@@CA?AVDName@@PAV2@@Z 1003c830 f   libvcruntimed:undname.obj
 0001:0003b880       ?getScope@UnDecorator@@CA?AVDName@@XZ 1003c880 f   libvcruntimed:undname.obj
 0001:0003be10       ?getScopedName@UnDecorator@@CA?AVDName@@XZ 1003ce10 f   libvcruntimed:undname.obj
 0001:0003bf60       ?getSignedDimension@UnDecorator@@CA?AVDName@@XZ 1003cf60 f   libvcruntimed:undname.obj
 0001:0003bfe0       ?getStorageConvention@UnDecorator@@CA?AVDName@@XZ 1003cfe0 f i libvcruntimed:undname.obj
 0001:0003c000       ?getString@DName@@QBEPADPAD0@Z 1003d000 f i libvcruntimed:undname.obj
 0001:0003c060       ?getString@DName@@QBEPADPADH@Z 1003d060 f i libvcruntimed:undname.obj
 0001:0003c0f0       ?getString@DNameStatusNode@@UBEPADPAD0@Z 1003d0f0 f i libvcruntimed:undname.obj
 0001:0003c130       ?getString@charNode@@UBEPADPAD0@Z 1003d130 f i libvcruntimed:undname.obj
 0001:0003c160       ?getString@pDNameNode@@UBEPADPAD0@Z 1003d160 f i libvcruntimed:undname.obj
 0001:0003c1a0       ?getString@pairNode@@UBEPADPAD0@Z 1003d1a0 f i libvcruntimed:undname.obj
 0001:0003c230       ?getString@pcharNode@@UBEPADPAD0@Z 1003d230 f i libvcruntimed:undname.obj
 0001:0003c260       ?getStringEncoding@UnDecorator@@CA?AVDName@@W4PrefixKind@@H@Z 1003d260 f   libvcruntimed:undname.obj
 0001:0003c370       ?getStringHelper@@YAPADPADPBD1H@Z 1003d370 f i libvcruntimed:undname.obj
 0001:0003c3b0       ?getStringObject@UnDecorator@@CA?AVDName@@XZ 1003d3b0 f   libvcruntimed:undname.obj
 0001:0003c460       ?getSymbolName@UnDecorator@@CA?AVDName@@XZ 1003d460 f i libvcruntimed:undname.obj
 0001:0003c4f0       ?getTemplateArgumentList@UnDecorator@@CA?AVDName@@XZ 1003d4f0 f   libvcruntimed:undname.obj
 0001:0003c7e0       ?getTemplateName@UnDecorator@@CA?AVDName@@_N@Z 1003d7e0 f   libvcruntimed:undname.obj
 0001:0003c9a0       ?getTemplateNonTypeArgument@UnDecorator@@CA?AVDName@@XZ 1003d9a0 f   libvcruntimed:undname.obj
 0001:0003cee0       ?getTemplateTypeArgument@UnDecorator@@CA?AVDName@@XZ 1003dee0 f   libvcruntimed:undname.obj
 0001:0003d080       ?getThisType@UnDecorator@@CA?AVDName@@XZ 1003e080 f i libvcruntimed:undname.obj
 0001:0003d0c0       ?getThrowTypes@UnDecorator@@CA?AVDName@@XZ 1003e0c0 f   libvcruntimed:undname.obj
 0001:0003d100       ?getTypeEncoding@UnDecorator@@CAHXZ 1003e100 f i libvcruntimed:undname.obj
 0001:0003dbc0       ?getUndecoratedName@UnDecorator@@QAEPADPADH@Z 1003ebc0 f i libvcruntimed:undname.obj
 0001:0003dd20       ?getVCallThunkType@UnDecorator@@CA?AVDName@@XZ 1003ed20 f i libvcruntimed:undname.obj
 0001:0003dda0       ?getValue@UnDecorator@@CA?AV?$optional@_K@std@@XZ 1003eda0 f   libvcruntimed:undname.obj
 0001:0003de60       ?getValueObject@UnDecorator@@CA?AVDName@@XZ 1003ee60 f   libvcruntimed:undname.obj
 0001:0003e020       ?getVbTableType@UnDecorator@@CA?AVDName@@ABV2@@Z 1003f020 f i libvcruntimed:undname.obj
 0001:0003e040       ?getVdispMapType@UnDecorator@@CA?AVDName@@ABV2@@Z 1003f040 f i libvcruntimed:undname.obj
 0001:0003e0d0       ?getVfTableType@UnDecorator@@CA?AVDName@@ABV2@@Z 1003f0d0 f i libvcruntimed:undname.obj
 0001:0003e2d0       ?getZName@UnDecorator@@CA?AVDName@@_N0@Z 1003f2d0 f   libvcruntimed:undname.obj
 0001:0003e610       ?haveTemplateParameters@UnDecorator@@SAHXZ 1003f610 f i libvcruntimed:undname.obj
 0001:0003e620       ?isArray@DName@@QBEHXZ     1003f620 f i libvcruntimed:undname.obj
 0001:0003e640       ?isComArray@DName@@QBEHXZ  1003f640 f i libvcruntimed:undname.obj
 0001:0003e660       ?isEmpty@DName@@QBEHXZ     1003f660 f i libvcruntimed:undname.obj
 0001:0003e690       ?isFull@Replicator@@QBEHXZ 1003f690 f i libvcruntimed:undname.obj
 0001:0003e6c0       ?isNoTE@DName@@QBEHXZ      1003f6c0 f i libvcruntimed:undname.obj
 0001:0003e6e0       ?isPinPtr@DName@@QBEHXZ    1003f6e0 f i libvcruntimed:undname.obj
 0001:0003e700       ?isPtrRef@DName@@QBEHXZ    1003f700 f i libvcruntimed:undname.obj
 0001:0003e720       ?isUDC@DName@@QBEHXZ       1003f720 f i libvcruntimed:undname.obj
 0001:0003e760       ?isUDTThunk@DName@@QBEHXZ  1003f760 f i libvcruntimed:undname.obj
 0001:0003e7a0       ?isVCallThunk@DName@@QBEHXZ 1003f7a0 f i libvcruntimed:undname.obj
 0001:0003e7c0       ?isValid@DName@@QBEHXZ     1003f7c0 f i libvcruntimed:undname.obj
 0001:0003e800       ?length@DName@@QBEHXZ      1003f800 f i libvcruntimed:undname.obj
 0001:0003e840       ?length@DNameStatusNode@@UBEHXZ 1003f840 f i libvcruntimed:undname.obj
 0001:0003e860       ?length@charNode@@UBEHXZ   1003f860 f i libvcruntimed:undname.obj
 0001:0003e870       ?length@pDNameNode@@UBEHXZ 1003f870 f i libvcruntimed:undname.obj
 0001:0003e8a0       ?length@pairNode@@UBEHXZ   1003f8a0 f i libvcruntimed:undname.obj
 0001:0003e910       ?length@pcharNode@@UBEHXZ  1003f910 f i libvcruntimed:undname.obj
 0001:0003e930       ?make@DNameStatusNode@@SAPBV1@W4DNameStatus@@@Z 1003f930 f i libvcruntimed:undname.obj
 0001:0003e960       ?parseDecoratedName@UnDecorator@@CA?AVDName@@XZ 1003f960 f   libvcruntimed:undname.obj
 0001:0003eaf0       ?raw_length@DNameStatusNode@@UBEHXZ 1003faf0 f i libvcruntimed:undname.obj
 0001:0003eb10       ?raw_length@charNode@@UBEHXZ 1003fb10 f i libvcruntimed:undname.obj
 0001:0003eb30       ?raw_length@pDNameNode@@UBEHXZ 1003fb30 f i libvcruntimed:undname.obj
 0001:0003eb40       ?raw_length@pairNode@@UBEHXZ 1003fb40 f i libvcruntimed:undname.obj
 0001:0003eb60       ?raw_length@pcharNode@@UBEHXZ 1003fb60 f i libvcruntimed:undname.obj
 0001:0003eb80       ?setIsArray@DName@@QAEXXZ  1003fb80 f i libvcruntimed:undname.obj
 0001:0003eba0       ?setIsComArray@DName@@QAEXXZ 1003fba0 f i libvcruntimed:undname.obj
 0001:0003ebc0       ?setIsNoTE@DName@@QAEXXZ   1003fbc0 f i libvcruntimed:undname.obj
 0001:0003ebe0       ?setIsPinPtr@DName@@QAEXXZ 1003fbe0 f i libvcruntimed:undname.obj
 0001:0003ec00       ?setIsUDC@DName@@QAEXXZ    1003fc00 f i libvcruntimed:undname.obj
 0001:0003ec30       ?setIsVCallThunk@DName@@QAEXXZ 1003fc30 f i libvcruntimed:undname.obj
 0001:0003ec50       ?setPtrRef@DName@@QAEAAV1@XZ 1003fc50 f i libvcruntimed:undname.obj
 0001:0003ec70       ?status@DName@@QBE?AW4DNameStatus@@XZ 1003fc70 f i libvcruntimed:undname.obj
 0001:0003ed70       ___unDName                 1003fd70 f   libvcruntimed:undname.obj
 0001:0003eda0       ___unDNameEx               1003fda0 f   libvcruntimed:undname.obj
 0001:0003ee70       _unDNameGenerateCHPE       1003fe70 f   libvcruntimed:undname.obj
 0001:0003eed0       __global_unwind2           1003fed0 f   libvcruntimed:exsup.obj
 0001:0003ef36       __local_unwind2            1003ff36 f   libvcruntimed:exsup.obj
 0001:0003efba       __abnormal_termination     1003ffba f   libvcruntimed:exsup.obj
 0001:0003efe0       __NLG_Notify1              1003ffe0 f   libvcruntimed:exsup.obj
 0001:0003efec       __NLG_Notify               1003ffec f   libvcruntimed:exsup.obj
 0001:0003f003       __NLG_Dispatch             10040003     libvcruntimed:exsup.obj
 0001:0003f003       __NLG_Dispatch2            10040003     libvcruntimed:exsup.obj
 0001:0003f00b       __NLG_Call                 1004000b f   libvcruntimed:exsup.obj
 0001:0003f00d       __NLG_Return2              1004000d     libvcruntimed:exsup.obj
 0001:0003f010       ??$__crt_interlocked_exchange_pointer@UHINSTANCE__@@PAU1@@@YAPAUHINSTANCE__@@PDSAU0@QAU0@@Z 10040010 f i libvcruntimed:winapi_downlevel.obj
 0001:0003f020       ??$__crt_interlocked_exchange_pointer@UHINSTANCE__@@PAX@@YAPAUHINSTANCE__@@PDSAU0@QAX@Z 10040020 f i libvcruntimed:winapi_downlevel.obj
 0001:0003f030       ??$__crt_interlocked_exchange_pointer@XPAX@@YAPAXPDSAXQAX@Z 10040030 f i libvcruntimed:winapi_downlevel.obj
 0001:0003f040       ??$__crt_interlocked_read_pointer@UHINSTANCE__@@@@YAPAUHINSTANCE__@@PDSAU0@@Z 10040040 f i libvcruntimed:winapi_downlevel.obj
 0001:0003f060       ??$__crt_interlocked_read_pointer@X@@YAPAXPDSAX@Z 10040060 f i libvcruntimed:winapi_downlevel.obj
 0001:0003f430       ___vcrt_FlsAlloc           10040430 f   libvcruntimed:winapi_downlevel.obj
 0001:0003f470       ___vcrt_FlsFree            10040470 f   libvcruntimed:winapi_downlevel.obj
 0001:0003f4b0       ___vcrt_FlsGetValue        100404b0 f   libvcruntimed:winapi_downlevel.obj
 0001:0003f4f0       ___vcrt_FlsSetValue        100404f0 f   libvcruntimed:winapi_downlevel.obj
 0001:0003f540       ___vcrt_InitializeCriticalSectionEx 10040540 f   libvcruntimed:winapi_downlevel.obj
 0001:0003f5c0       __get_unexpected           100405c0 f   libvcruntimed:unexpected.obj
 0001:0003f5e0       _set_unexpected            100405e0 f   libvcruntimed:unexpected.obj
 0001:0003f610       _unexpected                10040610 f   libvcruntimed:unexpected.obj
 0001:0003f650       ?GetCurrentState@__FrameHandler3@@SAHPAUEHRegistrationNode@@PAXPBU_s_FuncInfo@@@Z 10040650 f   libvcruntimed:ehstate.obj
 0001:0003f680       ?SetState@__FrameHandler3@@SAXPAUEHRegistrationNode@@PBU_s_FuncInfo@@H@Z 10040680 f   libvcruntimed:ehstate.obj
 0001:0003f690       ??$?0ABV?$stream_output_adapter@D@__crt_stdio_output@@AB_KABQBDABQAU__crt_locale_pointers@@ABQAD@?$format_validation_base@DV?$stream_output_adapter@D@__crt_stdio_output@@@__crt_stdio_output@@IAE@ABV?$stream_output_adapter@D@1@AB_KABQBDABQAU__crt_locale_pointers@@ABQAD@Z 10040690 f i libucrtd:output.obj
 0001:0003f6c0       ??$?0ABV?$stream_output_adapter@D@__crt_stdio_output@@AB_KABQBDABQAU__crt_locale_pointers@@ABQAD@?$positional_parameter_base@DV?$stream_output_adapter@D@__crt_stdio_output@@@__crt_stdio_output@@IAE@ABV?$stream_output_adapter@D@1@AB_KABQBDABQAU__crt_locale_pointers@@ABQAD@Z 100406c0 f i libucrtd:output.obj
 0001:0003f740       ??$?0ABV?$stream_output_adapter@D@__crt_stdio_output@@AB_KABQBDABQAU__crt_locale_pointers@@ABQAD@?$standard_base@DV?$stream_output_adapter@D@__crt_stdio_output@@@__crt_stdio_output@@IAE@ABV?$stream_output_adapter@D@1@AB_KABQBDABQAU__crt_locale_pointers@@ABQAD@Z 10040740 f i libucrtd:output.obj
 0001:0003f790       ??$?0ABV?$stream_output_adapter@_W@__crt_stdio_output@@AB_KABQB_WABQAU__crt_locale_pointers@@ABQAD@?$format_validation_base@_WV?$stream_output_adapter@_W@__crt_stdio_output@@@__crt_stdio_output@@IAE@ABV?$stream_output_adapter@_W@1@AB_KABQB_WABQAU__crt_locale_pointers@@ABQAD@Z 10040790 f i libucrtd:output.obj
 0001:0003f7c0       ??$?0ABV?$stream_output_adapter@_W@__crt_stdio_output@@AB_KABQB_WABQAU__crt_locale_pointers@@ABQAD@?$positional_parameter_base@_WV?$stream_output_adapter@_W@__crt_stdio_output@@@__crt_stdio_output@@IAE@ABV?$stream_output_adapter@_W@1@AB_KABQB_WABQAU__crt_locale_pointers@@ABQAD@Z 100407c0 f i libucrtd:output.obj
 0001:0003f840       ??$?0ABV?$stream_output_adapter@_W@__crt_stdio_output@@AB_KABQB_WABQAU__crt_locale_pointers@@ABQAD@?$standard_base@_WV?$stream_output_adapter@_W@__crt_stdio_output@@@__crt_stdio_output@@IAE@ABV?$stream_output_adapter@_W@1@AB_KABQB_WABQAU__crt_locale_pointers@@ABQAD@Z 10040840 f i libucrtd:output.obj
 0001:0003f890       ??$?0ABV?$string_output_adapter@D@__crt_stdio_output@@AB_KABQBDABQAU__crt_locale_pointers@@ABQAD@?$format_validation_base@DV?$string_output_adapter@D@__crt_stdio_output@@@__crt_stdio_output@@IAE@ABV?$string_output_adapter@D@1@AB_KABQBDABQAU__crt_locale_pointers@@ABQAD@Z 10040890 f i libucrtd:output.obj
 0001:0003f8c0       ??$?0ABV?$string_output_adapter@D@__crt_stdio_output@@AB_KABQBDABQAU__crt_locale_pointers@@ABQAD@?$positional_parameter_base@DV?$string_output_adapter@D@__crt_stdio_output@@@__crt_stdio_output@@IAE@ABV?$string_output_adapter@D@1@AB_KABQBDABQAU__crt_locale_pointers@@ABQAD@Z 100408c0 f i libucrtd:output.obj
 0001:0003f940       ??$?0ABV?$string_output_adapter@D@__crt_stdio_output@@AB_KABQBDABQAU__crt_locale_pointers@@ABQAD@?$standard_base@DV?$string_output_adapter@D@__crt_stdio_output@@@__crt_stdio_output@@IAE@ABV?$string_output_adapter@D@1@AB_KABQBDABQAU__crt_locale_pointers@@ABQAD@Z 10040940 f i libucrtd:output.obj
 0001:0003f990       ??$?0ABV?$string_output_adapter@_W@__crt_stdio_output@@AB_KABQB_WABQAU__crt_locale_pointers@@ABQAD@?$format_validation_base@_WV?$string_output_adapter@_W@__crt_stdio_output@@@__crt_stdio_output@@IAE@ABV?$string_output_adapter@_W@1@AB_KABQB_WABQAU__crt_locale_pointers@@ABQAD@Z 10040990 f i libucrtd:output.obj
 0001:0003f9c0       ??$?0ABV?$string_output_adapter@_W@__crt_stdio_output@@AB_KABQB_WABQAU__crt_locale_pointers@@ABQAD@?$positional_parameter_base@_WV?$string_output_adapter@_W@__crt_stdio_output@@@__crt_stdio_output@@IAE@ABV?$string_output_adapter@_W@1@AB_KABQB_WABQAU__crt_locale_pointers@@ABQAD@Z 100409c0 f i libucrtd:output.obj
 0001:0003fa40       ??$?0ABV?$string_output_adapter@_W@__crt_stdio_output@@AB_KABQB_WABQAU__crt_locale_pointers@@ABQAD@?$standard_base@_WV?$string_output_adapter@_W@__crt_stdio_output@@@__crt_stdio_output@@IAE@ABV?$string_output_adapter@_W@1@AB_KABQB_WABQAU__crt_locale_pointers@@ABQAD@Z 10040a40 f i libucrtd:output.obj
 0001:0003ff70       ??$__crt_interlocked_read@J@@YAJPDJ@Z 10040f70 f i libucrtd:output.obj
 0001:00042d10       ??$count@D@formatting_buffer@__crt_stdio_output@@QBEIXZ 10043d10 f i libucrtd:output.obj
 0001:00042d50       ??$count@_W@formatting_buffer@__crt_stdio_output@@QBEIXZ 10043d50 f i libucrtd:output.obj
 0001:00042d90       ??$data@D@formatting_buffer@__crt_stdio_output@@QAEPADXZ 10043d90 f i libucrtd:output.obj
 0001:00042dd0       ??$data@_W@formatting_buffer@__crt_stdio_output@@QAEPA_WXZ 10043dd0 f i libucrtd:output.obj
 0001:00042e10       ??$ensure_buffer_is_big_enough@D@formatting_buffer@__crt_stdio_output@@QAE_NI@Z 10043e10 f i libucrtd:output.obj
 0001:00042ef0       ??$ensure_buffer_is_big_enough@_W@formatting_buffer@__crt_stdio_output@@QAE_NI@Z 10043ef0 f i libucrtd:output.obj
 0001:00042fe0       ??$extract_argument_from_va_list@C_J@?$positional_parameter_base@DV?$stream_output_adapter@D@__crt_stdio_output@@@__crt_stdio_output@@IAE_NAA_J@Z 10043fe0 f i libucrtd:output.obj
 0001:00043120       ??$extract_argument_from_va_list@C_J@?$positional_parameter_base@DV?$string_output_adapter@D@__crt_stdio_output@@@__crt_stdio_output@@IAE_NAA_J@Z 10044120 f i libucrtd:output.obj
 0001:00043260       ??$extract_argument_from_va_list@C_J@?$positional_parameter_base@_WV?$stream_output_adapter@_W@__crt_stdio_output@@@__crt_stdio_output@@IAE_NAA_J@Z 10044260 f i libucrtd:output.obj
 0001:000433a0       ??$extract_argument_from_va_list@C_J@?$positional_parameter_base@_WV?$string_output_adapter@_W@__crt_stdio_output@@@__crt_stdio_output@@IAE_NAA_J@Z 100443a0 f i libucrtd:output.obj
 0001:000434e0       ??$extract_argument_from_va_list@C_J@?$standard_base@DV?$stream_output_adapter@D@__crt_stdio_output@@@__crt_stdio_output@@IAE_NAA_J@Z 100444e0 f i libucrtd:output.obj
 0001:00043510       ??$extract_argument_from_va_list@C_J@?$standard_base@DV?$string_output_adapter@D@__crt_stdio_output@@@__crt_stdio_output@@IAE_NAA_J@Z 10044510 f i libucrtd:output.obj
 0001:00043540       ??$extract_argument_from_va_list@C_J@?$standard_base@_WV?$stream_output_adapter@_W@__crt_stdio_output@@@__crt_stdio_output@@IAE_NAA_J@Z 10044540 f i libucrtd:output.obj
 0001:00043570       ??$extract_argument_from_va_list@C_J@?$standard_base@_WV?$string_output_adapter@_W@__crt_stdio_output@@@__crt_stdio_output@@IAE_NAA_J@Z 10044570 f i libucrtd:output.obj
 0001:000435a0       ??$extract_argument_from_va_list@E_J@?$positional_parameter_base@DV?$stream_output_adapter@D@__crt_stdio_output@@@__crt_stdio_output@@IAE_NAA_J@Z 100445a0 f i libucrtd:output.obj
 0001:000436e0       ??$extract_argument_from_va_list@E_J@?$positional_parameter_base@DV?$string_output_adapter@D@__crt_stdio_output@@@__crt_stdio_output@@IAE_NAA_J@Z 100446e0 f i libucrtd:output.obj
 0001:00043820       ??$extract_argument_from_va_list@E_J@?$positional_parameter_base@_WV?$stream_output_adapter@_W@__crt_stdio_output@@@__crt_stdio_output@@IAE_NAA_J@Z 10044820 f i libucrtd:output.obj
 0001:00043960       ??$extract_argument_from_va_list@E_J@?$positional_parameter_base@_WV?$string_output_adapter@_W@__crt_stdio_output@@@__crt_stdio_output@@IAE_NAA_J@Z 10044960 f i libucrtd:output.obj
 0001:00043aa0       ??$extract_argument_from_va_list@E_J@?$standard_base@DV?$stream_output_adapter@D@__crt_stdio_output@@@__crt_stdio_output@@IAE_NAA_J@Z 10044aa0 f i libucrtd:output.obj
 0001:00043ad0       ??$extract_argument_from_va_list@E_J@?$standard_base@DV?$string_output_adapter@D@__crt_stdio_output@@@__crt_stdio_output@@IAE_NAA_J@Z 10044ad0 f i libucrtd:output.obj
 0001:00043b00       ??$extract_argument_from_va_list@E_J@?$standard_base@_WV?$stream_output_adapter@_W@__crt_stdio_output@@@__crt_stdio_output@@IAE_NAA_J@Z 10044b00 f i libucrtd:output.obj
 0001:00043b30       ??$extract_argument_from_va_list@E_J@?$standard_base@_WV?$string_output_adapter@_W@__crt_stdio_output@@@__crt_stdio_output@@IAE_NAA_J@Z 10044b30 f i libucrtd:output.obj
 0001:00043b60       ??$extract_argument_from_va_list@F_J@?$positional_parameter_base@DV?$stream_output_adapter@D@__crt_stdio_output@@@__crt_stdio_output@@IAE_NAA_J@Z 10044b60 f i libucrtd:output.obj
 0001:00043c90       ??$extract_argument_from_va_list@F_J@?$positional_parameter_base@DV?$string_output_adapter@D@__crt_stdio_output@@@__crt_stdio_output@@IAE_NAA_J@Z 10044c90 f i libucrtd:output.obj
 0001:00043dc0       ??$extract_argument_from_va_list@F_J@?$positional_parameter_base@_WV?$stream_output_adapter@_W@__crt_stdio_output@@@__crt_stdio_output@@IAE_NAA_J@Z 10044dc0 f i libucrtd:output.obj
 0001:00043ef0       ??$extract_argument_from_va_list@F_J@?$positional_parameter_base@_WV?$string_output_adapter@_W@__crt_stdio_output@@@__crt_stdio_output@@IAE_NAA_J@Z 10044ef0 f i libucrtd:output.obj
 0001:00044020       ??$extract_argument_from_va_list@F_J@?$standard_base@DV?$stream_output_adapter@D@__crt_stdio_output@@@__crt_stdio_output@@IAE_NAA_J@Z 10045020 f i libucrtd:output.obj
 0001:00044050       ??$extract_argument_from_va_list@F_J@?$standard_base@DV?$string_output_adapter@D@__crt_stdio_output@@@__crt_stdio_output@@IAE_NAA_J@Z 10045050 f i libucrtd:output.obj
 0001:00044080       ??$extract_argument_from_va_list@F_J@?$standard_base@_WV?$stream_output_adapter@_W@__crt_stdio_output@@@__crt_stdio_output@@IAE_NAA_J@Z 10045080 f i libucrtd:output.obj
 0001:000440b0       ??$extract_argument_from_va_list@F_J@?$standard_base@_WV?$string_output_adapter@_W@__crt_stdio_output@@@__crt_stdio_output@@IAE_NAA_J@Z 100450b0 f i libucrtd:output.obj
 0001:000440e0       ??$extract_argument_from_va_list@GD@?$positional_parameter_base@DV?$stream_output_adapter@D@__crt_stdio_output@@@__crt_stdio_output@@IAE_NAAD@Z 100450e0 f i libucrtd:output.obj
 0001:00044210       ??$extract_argument_from_va_list@GD@?$positional_parameter_base@DV?$string_output_adapter@D@__crt_stdio_output@@@__crt_stdio_output@@IAE_NAAD@Z 10045210 f i libucrtd:output.obj
 0001:00044340       ??$extract_argument_from_va_list@GD@?$standard_base@DV?$stream_output_adapter@D@__crt_stdio_output@@@__crt_stdio_output@@IAE_NAAD@Z 10045340 f i libucrtd:output.obj
 0001:00044370       ??$extract_argument_from_va_list@GD@?$standard_base@DV?$string_output_adapter@D@__crt_stdio_output@@@__crt_stdio_output@@IAE_NAAD@Z 10045370 f i libucrtd:output.obj
 0001:000443a0       ??$extract_argument_from_va_list@G_J@?$positional_parameter_base@DV?$stream_output_adapter@D@__crt_stdio_output@@@__crt_stdio_output@@IAE_NAA_J@Z 100453a0 f i libucrtd:output.obj
 0001:000444e0       ??$extract_argument_from_va_list@G_J@?$positional_parameter_base@DV?$string_output_adapter@D@__crt_stdio_output@@@__crt_stdio_output@@IAE_NAA_J@Z 100454e0 f i libucrtd:output.obj
 0001:00044620       ??$extract_argument_from_va_list@G_J@?$positional_parameter_base@_WV?$stream_output_adapter@_W@__crt_stdio_output@@@__crt_stdio_output@@IAE_NAA_J@Z 10045620 f i libucrtd:output.obj
 0001:00044760       ??$extract_argument_from_va_list@G_J@?$positional_parameter_base@_WV?$string_output_adapter@_W@__crt_stdio_output@@@__crt_stdio_output@@IAE_NAA_J@Z 10045760 f i libucrtd:output.obj
 0001:000448a0       ??$extract_argument_from_va_list@G_J@?$standard_base@DV?$stream_output_adapter@D@__crt_stdio_output@@@__crt_stdio_output@@IAE_NAA_J@Z 100458a0 f i libucrtd:output.obj
 0001:000448d0       ??$extract_argument_from_va_list@G_J@?$standard_base@DV?$string_output_adapter@D@__crt_stdio_output@@@__crt_stdio_output@@IAE_NAA_J@Z 100458d0 f i libucrtd:output.obj
 0001:00044900       ??$extract_argument_from_va_list@G_J@?$standard_base@_WV?$stream_output_adapter@_W@__crt_stdio_output@@@__crt_stdio_output@@IAE_NAA_J@Z 10045900 f i libucrtd:output.obj
 0001:00044930       ??$extract_argument_from_va_list@G_J@?$standard_base@_WV?$string_output_adapter@_W@__crt_stdio_output@@@__crt_stdio_output@@IAE_NAA_J@Z 10045930 f i libucrtd:output.obj
 0001:00044960       ??$extract_argument_from_va_list@H_J@?$positional_parameter_base@DV?$stream_output_adapter@D@__crt_stdio_output@@@__crt_stdio_output@@IAE_NAA_J@Z 10045960 f i libucrtd:output.obj
 0001:00044a90       ??$extract_argument_from_va_list@H_J@?$positional_parameter_base@DV?$string_output_adapter@D@__crt_stdio_output@@@__crt_stdio_output@@IAE_NAA_J@Z 10045a90 f i libucrtd:output.obj
 0001:00044bc0       ??$extract_argument_from_va_list@H_J@?$positional_parameter_base@_WV?$stream_output_adapter@_W@__crt_stdio_output@@@__crt_stdio_output@@IAE_NAA_J@Z 10045bc0 f i libucrtd:output.obj
 0001:00044cf0       ??$extract_argument_from_va_list@H_J@?$positional_parameter_base@_WV?$string_output_adapter@_W@__crt_stdio_output@@@__crt_stdio_output@@IAE_NAA_J@Z 10045cf0 f i libucrtd:output.obj
 0001:00044e20       ??$extract_argument_from_va_list@H_J@?$standard_base@DV?$stream_output_adapter@D@__crt_stdio_output@@@__crt_stdio_output@@IAE_NAA_J@Z 10045e20 f i libucrtd:output.obj
 0001:00044e50       ??$extract_argument_from_va_list@H_J@?$standard_base@DV?$string_output_adapter@D@__crt_stdio_output@@@__crt_stdio_output@@IAE_NAA_J@Z 10045e50 f i libucrtd:output.obj
 0001:00044e80       ??$extract_argument_from_va_list@H_J@?$standard_base@_WV?$stream_output_adapter@_W@__crt_stdio_output@@@__crt_stdio_output@@IAE_NAA_J@Z 10045e80 f i libucrtd:output.obj
 0001:00044eb0       ??$extract_argument_from_va_list@H_J@?$standard_base@_WV?$string_output_adapter@_W@__crt_stdio_output@@@__crt_stdio_output@@IAE_NAA_J@Z 10045eb0 f i libucrtd:output.obj
 0001:00044ee0       ??$extract_argument_from_va_list@I_J@?$positional_parameter_base@DV?$stream_output_adapter@D@__crt_stdio_output@@@__crt_stdio_output@@IAE_NAA_J@Z 10045ee0 f i libucrtd:output.obj
 0001:00045010       ??$extract_argument_from_va_list@I_J@?$positional_parameter_base@DV?$string_output_adapter@D@__crt_stdio_output@@@__crt_stdio_output@@IAE_NAA_J@Z 10046010 f i libucrtd:output.obj
 0001:00045140       ??$extract_argument_from_va_list@I_J@?$positional_parameter_base@_WV?$stream_output_adapter@_W@__crt_stdio_output@@@__crt_stdio_output@@IAE_NAA_J@Z 10046140 f i libucrtd:output.obj
 0001:00045270       ??$extract_argument_from_va_list@I_J@?$positional_parameter_base@_WV?$string_output_adapter@_W@__crt_stdio_output@@@__crt_stdio_output@@IAE_NAA_J@Z 10046270 f i libucrtd:output.obj
 0001:000453a0       ??$extract_argument_from_va_list@I_J@?$standard_base@DV?$stream_output_adapter@D@__crt_stdio_output@@@__crt_stdio_output@@IAE_NAA_J@Z 100463a0 f i libucrtd:output.obj
 0001:000453d0       ??$extract_argument_from_va_list@I_J@?$standard_base@DV?$string_output_adapter@D@__crt_stdio_output@@@__crt_stdio_output@@IAE_NAA_J@Z 100463d0 f i libucrtd:output.obj
 0001:00045400       ??$extract_argument_from_va_list@I_J@?$standard_base@_WV?$stream_output_adapter@_W@__crt_stdio_output@@@__crt_stdio_output@@IAE_NAA_J@Z 10046400 f i libucrtd:output.obj
 0001:00045430       ??$extract_argument_from_va_list@I_J@?$standard_base@_WV?$string_output_adapter@_W@__crt_stdio_output@@@__crt_stdio_output@@IAE_NAA_J@Z 10046430 f i libucrtd:output.obj
 0001:00045460       ??$extract_argument_from_va_list@PADPAD@?$positional_parameter_base@DV?$stream_output_adapter@D@__crt_stdio_output@@@__crt_stdio_output@@IAE_NAAPAD@Z 10046460 f i libucrtd:output.obj
 0001:00045590       ??$extract_argument_from_va_list@PADPAD@?$positional_parameter_base@DV?$string_output_adapter@D@__crt_stdio_output@@@__crt_stdio_output@@IAE_NAAPAD@Z 10046590 f i libucrtd:output.obj
 0001:000456c0       ??$extract_argument_from_va_list@PADPAD@?$positional_parameter_base@_WV?$stream_output_adapter@_W@__crt_stdio_output@@@__crt_stdio_output@@IAE_NAAPAD@Z 100466c0 f i libucrtd:output.obj
 0001:000457f0       ??$extract_argument_from_va_list@PADPAD@?$positional_parameter_base@_WV?$string_output_adapter@_W@__crt_stdio_output@@@__crt_stdio_output@@IAE_NAAPAD@Z 100467f0 f i libucrtd:output.obj
 0001:00045920       ??$extract_argument_from_va_list@PADPAD@?$standard_base@DV?$stream_output_adapter@D@__crt_stdio_output@@@__crt_stdio_output@@IAE_NAAPAD@Z 10046920 f i libucrtd:output.obj
 0001:00045950       ??$extract_argument_from_va_list@PADPAD@?$standard_base@DV?$string_output_adapter@D@__crt_stdio_output@@@__crt_stdio_output@@IAE_NAAPAD@Z 10046950 f i libucrtd:output.obj
 0001:00045980       ??$extract_argument_from_va_list@PADPAD@?$standard_base@_WV?$stream_output_adapter@_W@__crt_stdio_output@@@__crt_stdio_output@@IAE_NAAPAD@Z 10046980 f i libucrtd:output.obj
 0001:000459b0       ??$extract_argument_from_va_list@PADPAD@?$standard_base@_WV?$string_output_adapter@_W@__crt_stdio_output@@@__crt_stdio_output@@IAE_NAAPAD@Z 100469b0 f i libucrtd:output.obj
 0001:000459e0       ??$extract_argument_from_va_list@PAUansi_string@?1??type_case_Z@?$output_processor@DV?$stream_output_adapter@D@__crt_stdio_output@@V?$format_validation_base@DV?$stream_output_adapter@D@__crt_stdio_output@@@2@@__crt_stdio_output@@AAE_NXZ@PAU1?1??234@AAE_NXZ@@?$standard_base@DV?$stream_output_adapter@D@__crt_stdio_output@@@__crt_stdio_output@@IAE_NAAPAUansi_string@?1??type_case_Z@?$output_processor@DV?$stream_output_adapter@D@__crt_stdio_output@@V?$format_validation_base@DV?$stream_output_adapter@D@__crt_stdio_output@@@2@@1@AAE_NXZ@@Z 100469e0 f i libucrtd:output.obj
 0001:00045a10       ??$extract_argument_from_va_list@PAUansi_string@?1??type_case_Z@?$output_processor@DV?$stream_output_adapter@D@__crt_stdio_output@@V?$positional_parameter_base@DV?$stream_output_adapter@D@__crt_stdio_output@@@2@@__crt_stdio_output@@AAE_NXZ@PAU1?1??234@AAE_NXZ@@?$positional_parameter_base@DV?$stream_output_adapter@D@__crt_stdio_output@@@__crt_stdio_output@@IAE_NAAPAUansi_string@?1??type_case_Z@?$output_processor@DV?$stream_output_adapter@D@__crt_stdio_output@@V?$positional_parameter_base@DV?$stream_output_adapter@D@__crt_stdio_output@@@2@@1@AAE_NXZ@@Z 10046a10 f i libucrtd:output.obj
 0001:00045b40       ??$extract_argument_from_va_list@PAUansi_string@?1??type_case_Z@?$output_processor@DV?$stream_output_adapter@D@__crt_stdio_output@@V?$positional_parameter_base@DV?$stream_output_adapter@D@__crt_stdio_output@@@2@@__crt_stdio_output@@AAE_NXZ@PAU1?1??234@AAE_NXZ@@?$standard_base@DV?$stream_output_adapter@D@__crt_stdio_output@@@__crt_stdio_output@@IAE_NAAPAUansi_string@?1??type_case_Z@?$output_processor@DV?$stream_output_adapter@D@__crt_stdio_output@@V?$positional_parameter_base@DV?$stream_output_adapter@D@__crt_stdio_output@@@2@@1@AAE_NXZ@@Z 10046b40 f i libucrtd:output.obj
 0001:00045b70       ??$extract_argument_from_va_list@PAUansi_string@?1??type_case_Z@?$output_processor@DV?$stream_output_adapter@D@__crt_stdio_output@@V?$standard_base@DV?$stream_output_adapter@D@__crt_stdio_output@@@2@@__crt_stdio_output@@AAE_NXZ@PAU1?1??234@AAE_NXZ@@?$standard_base@DV?$stream_output_adapter@D@__crt_stdio_output@@@__crt_stdio_output@@IAE_NAAPAUansi_string@?1??type_case_Z@?$output_processor@DV?$stream_output_adapter@D@__crt_stdio_output@@V?$standard_base@DV?$stream_output_adapter@D@__crt_stdio_output@@@2@@1@AAE_NXZ@@Z 10046b70 f i libucrtd:output.obj
 0001:00045ba0       ??$extract_argument_from_va_list@PAUansi_string@?1??type_case_Z@?$output_processor@DV?$string_output_adapter@D@__crt_stdio_output@@V?$format_validation_base@DV?$string_output_adapter@D@__crt_stdio_output@@@2@@__crt_stdio_output@@AAE_NXZ@PAU1?1??234@AAE_NXZ@@?$standard_base@DV?$string_output_adapter@D@__crt_stdio_output@@@__crt_stdio_output@@IAE_NAAPAUansi_string@?1??type_case_Z@?$output_processor@DV?$string_output_adapter@D@__crt_stdio_output@@V?$format_validation_base@DV?$string_output_adapter@D@__crt_stdio_output@@@2@@1@AAE_NXZ@@Z 10046ba0 f i libucrtd:output.obj
 0001:00045bd0       ??$extract_argument_from_va_list@PAUansi_string@?1??type_case_Z@?$output_processor@DV?$string_output_adapter@D@__crt_stdio_output@@V?$positional_parameter_base@DV?$string_output_adapter@D@__crt_stdio_output@@@2@@__crt_stdio_output@@AAE_NXZ@PAU1?1??234@AAE_NXZ@@?$positional_parameter_base@DV?$string_output_adapter@D@__crt_stdio_output@@@__crt_stdio_output@@IAE_NAAPAUansi_string@?1??type_case_Z@?$output_processor@DV?$string_output_adapter@D@__crt_stdio_output@@V?$positional_parameter_base@DV?$string_output_adapter@D@__crt_stdio_output@@@2@@1@AAE_NXZ@@Z 10046bd0 f i libucrtd:output.obj
 0001:00045d00       ??$extract_argument_from_va_list@PAUansi_string@?1??type_case_Z@?$output_processor@DV?$string_output_adapter@D@__crt_stdio_output@@V?$positional_parameter_base@DV?$string_output_adapter@D@__crt_stdio_output@@@2@@__crt_stdio_output@@AAE_NXZ@PAU1?1??234@AAE_NXZ@@?$standard_base@DV?$string_output_adapter@D@__crt_stdio_output@@@__crt_stdio_output@@IAE_NAAPAUansi_string@?1??type_case_Z@?$output_processor@DV?$string_output_adapter@D@__crt_stdio_output@@V?$positional_parameter_base@DV?$string_output_adapter@D@__crt_stdio_output@@@2@@1@AAE_NXZ@@Z 10046d00 f i libucrtd:output.obj
 0001:00045d30       ??$extract_argument_from_va_list@PAUansi_string@?1??type_case_Z@?$output_processor@DV?$string_output_adapter@D@__crt_stdio_output@@V?$standard_base@DV?$string_output_adapter@D@__crt_stdio_output@@@2@@__crt_stdio_output@@AAE_NXZ@PAU1?1??234@AAE_NXZ@@?$standard_base@DV?$string_output_adapter@D@__crt_stdio_output@@@__crt_stdio_output@@IAE_NAAPAUansi_string@?1??type_case_Z@?$output_processor@DV?$string_output_adapter@D@__crt_stdio_output@@V?$standard_base@DV?$string_output_adapter@D@__crt_stdio_output@@@2@@1@AAE_NXZ@@Z 10046d30 f i libucrtd:output.obj
 0001:00045d60       ??$extract_argument_from_va_list@PAUansi_string@?1??type_case_Z@?$output_processor@_WV?$stream_output_adapter@_W@__crt_stdio_output@@V?$format_validation_base@_WV?$stream_output_adapter@_W@__crt_stdio_output@@@2@@__crt_stdio_output@@AAE_NXZ@PAU1?1??234@AAE_NXZ@@?$standard_base@_WV?$stream_output_adapter@_W@__crt_stdio_output@@@__crt_stdio_output@@IAE_NAAPAUansi_string@?1??type_case_Z@?$output_processor@_WV?$stream_output_adapter@_W@__crt_stdio_output@@V?$format_validation_base@_WV?$stream_output_adapter@_W@__crt_stdio_output@@@2@@1@AAE_NXZ@@Z 10046d60 f i libucrtd:output.obj
 0001:00045d90       ??$extract_argument_from_va_list@PAUansi_string@?1??type_case_Z@?$output_processor@_WV?$stream_output_adapter@_W@__crt_stdio_output@@V?$positional_parameter_base@_WV?$stream_output_adapter@_W@__crt_stdio_output@@@2@@__crt_stdio_output@@AAE_NXZ@PAU1?1??234@AAE_NXZ@@?$positional_parameter_base@_WV?$stream_output_adapter@_W@__crt_stdio_output@@@__crt_stdio_output@@IAE_NAAPAUansi_string@?1??type_case_Z@?$output_processor@_WV?$stream_output_adapter@_W@__crt_stdio_output@@V?$positional_parameter_base@_WV?$stream_output_adapter@_W@__crt_stdio_output@@@2@@1@AAE_NXZ@@Z 10046d90 f i libucrtd:output.obj
 0001:00045ec0       ??$extract_argument_from_va_list@PAUansi_string@?1??type_case_Z@?$output_processor@_WV?$stream_output_adapter@_W@__crt_stdio_output@@V?$positional_parameter_base@_WV?$stream_output_adapter@_W@__crt_stdio_output@@@2@@__crt_stdio_output@@AAE_NXZ@PAU1?1??234@AAE_NXZ@@?$standard_base@_WV?$stream_output_adapter@_W@__crt_stdio_output@@@__crt_stdio_output@@IAE_NAAPAUansi_string@?1??type_case_Z@?$output_processor@_WV?$stream_output_adapter@_W@__crt_stdio_output@@V?$positional_parameter_base@_WV?$stream_output_adapter@_W@__crt_stdio_output@@@2@@1@AAE_NXZ@@Z 10046ec0 f i libucrtd:output.obj
 0001:00045ef0       ??$extract_argument_from_va_list@PAUansi_string@?1??type_case_Z@?$output_processor@_WV?$stream_output_adapter@_W@__crt_stdio_output@@V?$standard_base@_WV?$stream_output_adapter@_W@__crt_stdio_output@@@2@@__crt_stdio_output@@AAE_NXZ@PAU1?1??234@AAE_NXZ@@?$standard_base@_WV?$stream_output_adapter@_W@__crt_stdio_output@@@__crt_stdio_output@@IAE_NAAPAUansi_string@?1??type_case_Z@?$output_processor@_WV?$stream_output_adapter@_W@__crt_stdio_output@@V?$standard_base@_WV?$stream_output_adapter@_W@__crt_stdio_output@@@2@@1@AAE_NXZ@@Z 10046ef0 f i libucrtd:output.obj
 0001:00045f20       ??$extract_argument_from_va_list@PAUansi_string@?1??type_case_Z@?$output_processor@_WV?$string_output_adapter@_W@__crt_stdio_output@@V?$format_validation_base@_WV?$string_output_adapter@_W@__crt_stdio_output@@@2@@__crt_stdio_output@@AAE_NXZ@PAU1?1??234@AAE_NXZ@@?$standard_base@_WV?$string_output_adapter@_W@__crt_stdio_output@@@__crt_stdio_output@@IAE_NAAPAUansi_string@?1??type_case_Z@?$output_processor@_WV?$string_output_adapter@_W@__crt_stdio_output@@V?$format_validation_base@_WV?$string_output_adapter@_W@__crt_stdio_output@@@2@@1@AAE_NXZ@@Z 10046f20 f i libucrtd:output.obj
 0001:00045f50       ??$extract_argument_from_va_list@PAUansi_string@?1??type_case_Z@?$output_processor@_WV?$string_output_adapter@_W@__crt_stdio_output@@V?$positional_parameter_base@_WV?$string_output_adapter@_W@__crt_stdio_output@@@2@@__crt_stdio_output@@AAE_NXZ@PAU1?1??234@AAE_NXZ@@?$positional_parameter_base@_WV?$string_output_adapter@_W@__crt_stdio_output@@@__crt_stdio_output@@IAE_NAAPAUansi_string@?1??type_case_Z@?$output_processor@_WV?$string_output_adapter@_W@__crt_stdio_output@@V?$positional_parameter_base@_WV?$string_output_adapter@_W@__crt_stdio_output@@@2@@1@AAE_NXZ@@Z 10046f50 f i libucrtd:output.obj
 0001:00046080       ??$extract_argument_from_va_list@PAUansi_string@?1??type_case_Z@?$output_processor@_WV?$string_output_adapter@_W@__crt_stdio_output@@V?$positional_parameter_base@_WV?$string_output_adapter@_W@__crt_stdio_output@@@2@@__crt_stdio_output@@AAE_NXZ@PAU1?1??234@AAE_NXZ@@?$standard_base@_WV?$string_output_adapter@_W@__crt_stdio_output@@@__crt_stdio_output@@IAE_NAAPAUansi_string@?1??type_case_Z@?$output_processor@_WV?$string_output_adapter@_W@__crt_stdio_output@@V?$positional_parameter_base@_WV?$string_output_adapter@_W@__crt_stdio_output@@@2@@1@AAE_NXZ@@Z 10047080 f i libucrtd:output.obj
 0001:000460b0       ??$extract_argument_from_va_list@PAUansi_string@?1??type_case_Z@?$output_processor@_WV?$string_output_adapter@_W@__crt_stdio_output@@V?$standard_base@_WV?$string_output_adapter@_W@__crt_stdio_output@@@2@@__crt_stdio_output@@AAE_NXZ@PAU1?1??234@AAE_NXZ@@?$standard_base@_WV?$string_output_adapter@_W@__crt_stdio_output@@@__crt_stdio_output@@IAE_NAAPAUansi_string@?1??type_case_Z@?$output_processor@_WV?$string_output_adapter@_W@__crt_stdio_output@@V?$standard_base@_WV?$string_output_adapter@_W@__crt_stdio_output@@@2@@1@AAE_NXZ@@Z 100470b0 f i libucrtd:output.obj
 0001:000460e0       ??$extract_argument_from_va_list@PAXPAX@?$positional_parameter_base@DV?$stream_output_adapter@D@__crt_stdio_output@@@__crt_stdio_output@@IAE_NAAPAX@Z 100470e0 f i libucrtd:output.obj
 0001:00046210       ??$extract_argument_from_va_list@PAXPAX@?$positional_parameter_base@DV?$string_output_adapter@D@__crt_stdio_output@@@__crt_stdio_output@@IAE_NAAPAX@Z 10047210 f i libucrtd:output.obj
 0001:00046340       ??$extract_argument_from_va_list@PAXPAX@?$positional_parameter_base@_WV?$stream_output_adapter@_W@__crt_stdio_output@@@__crt_stdio_output@@IAE_NAAPAX@Z 10047340 f i libucrtd:output.obj
 0001:00046470       ??$extract_argument_from_va_list@PAXPAX@?$positional_parameter_base@_WV?$string_output_adapter@_W@__crt_stdio_output@@@__crt_stdio_output@@IAE_NAAPAX@Z 10047470 f i libucrtd:output.obj
 0001:000465a0       ??$extract_argument_from_va_list@PAXPAX@?$standard_base@DV?$stream_output_adapter@D@__crt_stdio_output@@@__crt_stdio_output@@IAE_NAAPAX@Z 100475a0 f i libucrtd:output.obj
 0001:000465d0       ??$extract_argument_from_va_list@PAXPAX@?$standard_base@DV?$string_output_adapter@D@__crt_stdio_output@@@__crt_stdio_output@@IAE_NAAPAX@Z 100475d0 f i libucrtd:output.obj
 0001:00046600       ??$extract_argument_from_va_list@PAXPAX@?$standard_base@_WV?$stream_output_adapter@_W@__crt_stdio_output@@@__crt_stdio_output@@IAE_NAAPAX@Z 10047600 f i libucrtd:output.obj
 0001:00046630       ??$extract_argument_from_va_list@PAXPAX@?$standard_base@_WV?$string_output_adapter@_W@__crt_stdio_output@@@__crt_stdio_output@@IAE_NAAPAX@Z 10047630 f i libucrtd:output.obj
 0001:00046660       ??$extract_argument_from_va_list@U_CRT_DOUBLE@@U1@@?$positional_parameter_base@DV?$stream_output_adapter@D@__crt_stdio_output@@@__crt_stdio_output@@IAE_NAAU_CRT_DOUBLE@@@Z 10047660 f i libucrtd:output.obj
 0001:000467c0       ??$extract_argument_from_va_list@U_CRT_DOUBLE@@U1@@?$positional_parameter_base@DV?$string_output_adapter@D@__crt_stdio_output@@@__crt_stdio_output@@IAE_NAAU_CRT_DOUBLE@@@Z 100477c0 f i libucrtd:output.obj
 0001:00046920       ??$extract_argument_from_va_list@U_CRT_DOUBLE@@U1@@?$positional_parameter_base@_WV?$stream_output_adapter@_W@__crt_stdio_output@@@__crt_stdio_output@@IAE_NAAU_CRT_DOUBLE@@@Z 10047920 f i libucrtd:output.obj
 0001:00046a80       ??$extract_argument_from_va_list@U_CRT_DOUBLE@@U1@@?$positional_parameter_base@_WV?$string_output_adapter@_W@__crt_stdio_output@@@__crt_stdio_output@@IAE_NAAU_CRT_DOUBLE@@@Z 10047a80 f i libucrtd:output.obj
 0001:00046be0       ??$extract_argument_from_va_list@U_CRT_DOUBLE@@U1@@?$standard_base@DV?$stream_output_adapter@D@__crt_stdio_output@@@__crt_stdio_output@@IAE_NAAU_CRT_DOUBLE@@@Z 10047be0 f i libucrtd:output.obj
 0001:00046c30       ??$extract_argument_from_va_list@U_CRT_DOUBLE@@U1@@?$standard_base@DV?$string_output_adapter@D@__crt_stdio_output@@@__crt_stdio_output@@IAE_NAAU_CRT_DOUBLE@@@Z 10047c30 f i libucrtd:output.obj
 0001:00046c80       ??$extract_argument_from_va_list@U_CRT_DOUBLE@@U1@@?$standard_base@_WV?$stream_output_adapter@_W@__crt_stdio_output@@@__crt_stdio_output@@IAE_NAAU_CRT_DOUBLE@@@Z 10047c80 f i libucrtd:output.obj
 0001:00046cd0       ??$extract_argument_from_va_list@U_CRT_DOUBLE@@U1@@?$standard_base@_WV?$string_output_adapter@_W@__crt_stdio_output@@@__crt_stdio_output@@IAE_NAAU_CRT_DOUBLE@@@Z 10047cd0 f i libucrtd:output.obj
 0001:00046d20       ??$extract_argument_from_va_list@_J_J@?$positional_parameter_base@DV?$stream_output_adapter@D@__crt_stdio_output@@@__crt_stdio_output@@IAE_NAA_J@Z 10047d20 f i libucrtd:output.obj
 0001:00046e50       ??$extract_argument_from_va_list@_J_J@?$positional_parameter_base@DV?$string_output_adapter@D@__crt_stdio_output@@@__crt_stdio_output@@IAE_NAA_J@Z 10047e50 f i libucrtd:output.obj
 0001:00046f80       ??$extract_argument_from_va_list@_J_J@?$positional_parameter_base@_WV?$stream_output_adapter@_W@__crt_stdio_output@@@__crt_stdio_output@@IAE_NAA_J@Z 10047f80 f i libucrtd:output.obj
 0001:000470b0       ??$extract_argument_from_va_list@_J_J@?$positional_parameter_base@_WV?$string_output_adapter@_W@__crt_stdio_output@@@__crt_stdio_output@@IAE_NAA_J@Z 100480b0 f i libucrtd:output.obj
 0001:000471e0       ??$extract_argument_from_va_list@_J_J@?$standard_base@DV?$stream_output_adapter@D@__crt_stdio_output@@@__crt_stdio_output@@IAE_NAA_J@Z 100481e0 f i libucrtd:output.obj
 0001:00047210       ??$extract_argument_from_va_list@_J_J@?$standard_base@DV?$string_output_adapter@D@__crt_stdio_output@@@__crt_stdio_output@@IAE_NAA_J@Z 10048210 f i libucrtd:output.obj
 0001:00047240       ??$extract_argument_from_va_list@_J_J@?$standard_base@_WV?$stream_output_adapter@_W@__crt_stdio_output@@@__crt_stdio_output@@IAE_NAA_J@Z 10048240 f i libucrtd:output.obj
 0001:00047270       ??$extract_argument_from_va_list@_J_J@?$standard_base@_WV?$string_output_adapter@_W@__crt_stdio_output@@@__crt_stdio_output@@IAE_NAA_J@Z 10048270 f i libucrtd:output.obj
 0001:000472a0       ??$extract_argument_from_va_list@_K_J@?$positional_parameter_base@DV?$stream_output_adapter@D@__crt_stdio_output@@@__crt_stdio_output@@IAE_NAA_J@Z 100482a0 f i libucrtd:output.obj
 0001:000473d0       ??$extract_argument_from_va_list@_K_J@?$positional_parameter_base@DV?$string_output_adapter@D@__crt_stdio_output@@@__crt_stdio_output@@IAE_NAA_J@Z 100483d0 f i libucrtd:output.obj
 0001:00047500       ??$extract_argument_from_va_list@_K_J@?$positional_parameter_base@_WV?$stream_output_adapter@_W@__crt_stdio_output@@@__crt_stdio_output@@IAE_NAA_J@Z 10048500 f i libucrtd:output.obj
 0001:00047630       ??$extract_argument_from_va_list@_K_J@?$positional_parameter_base@_WV?$string_output_adapter@_W@__crt_stdio_output@@@__crt_stdio_output@@IAE_NAA_J@Z 10048630 f i libucrtd:output.obj
 0001:00047760       ??$extract_argument_from_va_list@_K_J@?$standard_base@DV?$stream_output_adapter@D@__crt_stdio_output@@@__crt_stdio_output@@IAE_NAA_J@Z 10048760 f i libucrtd:output.obj
 0001:00047790       ??$extract_argument_from_va_list@_K_J@?$standard_base@DV?$string_output_adapter@D@__crt_stdio_output@@@__crt_stdio_output@@IAE_NAA_J@Z 10048790 f i libucrtd:output.obj
 0001:000477c0       ??$extract_argument_from_va_list@_K_J@?$standard_base@_WV?$stream_output_adapter@_W@__crt_stdio_output@@@__crt_stdio_output@@IAE_NAA_J@Z 100487c0 f i libucrtd:output.obj
 0001:000477f0       ??$extract_argument_from_va_list@_K_J@?$standard_base@_WV?$string_output_adapter@_W@__crt_stdio_output@@@__crt_stdio_output@@IAE_NAA_J@Z 100487f0 f i libucrtd:output.obj
 0001:00047820       ??$extract_argument_from_va_list@_W_W@?$positional_parameter_base@DV?$stream_output_adapter@D@__crt_stdio_output@@@__crt_stdio_output@@IAE_NAA_W@Z 10048820 f i libucrtd:output.obj
 0001:00047950       ??$extract_argument_from_va_list@_W_W@?$positional_parameter_base@DV?$string_output_adapter@D@__crt_stdio_output@@@__crt_stdio_output@@IAE_NAA_W@Z 10048950 f i libucrtd:output.obj
 0001:00047a80       ??$extract_argument_from_va_list@_W_W@?$positional_parameter_base@_WV?$stream_output_adapter@_W@__crt_stdio_output@@@__crt_stdio_output@@IAE_NAA_W@Z 10048a80 f i libucrtd:output.obj
 0001:00047bb0       ??$extract_argument_from_va_list@_W_W@?$positional_parameter_base@_WV?$string_output_adapter@_W@__crt_stdio_output@@@__crt_stdio_output@@IAE_NAA_W@Z 10048bb0 f i libucrtd:output.obj
 0001:00047ce0       ??$extract_argument_from_va_list@_W_W@?$standard_base@DV?$stream_output_adapter@D@__crt_stdio_output@@@__crt_stdio_output@@IAE_NAA_W@Z 10048ce0 f i libucrtd:output.obj
 0001:00047d10       ??$extract_argument_from_va_list@_W_W@?$standard_base@DV?$string_output_adapter@D@__crt_stdio_output@@@__crt_stdio_output@@IAE_NAA_W@Z 10048d10 f i libucrtd:output.obj
 0001:00047d40       ??$extract_argument_from_va_list@_W_W@?$standard_base@_WV?$stream_output_adapter@_W@__crt_stdio_output@@@__crt_stdio_output@@IAE_NAA_W@Z 10048d40 f i libucrtd:output.obj
 0001:00047d70       ??$extract_argument_from_va_list@_W_W@?$standard_base@_WV?$string_output_adapter@_W@__crt_stdio_output@@@__crt_stdio_output@@IAE_NAA_W@Z 10048d70 f i libucrtd:output.obj
 0001:00047da0       ??$get_parameter_type@D@?$positional_parameter_base@DV?$stream_output_adapter@D@__crt_stdio_output@@@__crt_stdio_output@@CA?AW4parameter_type@01@PAD@Z 10048da0 f i libucrtd:output.obj
 0001:00047db0       ??$get_parameter_type@D@?$positional_parameter_base@DV?$string_output_adapter@D@__crt_stdio_output@@@__crt_stdio_output@@CA?AW4parameter_type@01@PAD@Z 10048db0 f i libucrtd:output.obj
 0001:00047dc0       ??$get_parameter_type@D@?$positional_parameter_base@_WV?$stream_output_adapter@_W@__crt_stdio_output@@@__crt_stdio_output@@CA?AW4parameter_type@01@PAD@Z 10048dc0 f i libucrtd:output.obj
 0001:00047dd0       ??$get_parameter_type@D@?$positional_parameter_base@_WV?$string_output_adapter@_W@__crt_stdio_output@@@__crt_stdio_output@@CA?AW4parameter_type@01@PAD@Z 10048dd0 f i libucrtd:output.obj
 0001:00047de0       ??$get_parameter_type@Uansi_string@?1??type_case_Z@?$output_processor@DV?$stream_output_adapter@D@__crt_stdio_output@@V?$positional_parameter_base@DV?$stream_output_adapter@D@__crt_stdio_output@@@2@@__crt_stdio_output@@AAE_NXZ@@?$positional_parameter_base@DV?$stream_output_adapter@D@__crt_stdio_output@@@__crt_stdio_output@@CA?AW4parameter_type@01@PAUansi_string@?1??type_case_Z@?$output_processor@DV?$stream_output_adapter@D@__crt_stdio_output@@V?$positional_parameter_base@DV?$stream_output_adapter@D@__crt_stdio_output@@@2@@1@AAE_NXZ@@Z 10048de0 f i libucrtd:output.obj
 0001:00047df0       ??$get_parameter_type@Uansi_string@?1??type_case_Z@?$output_processor@DV?$string_output_adapter@D@__crt_stdio_output@@V?$positional_parameter_base@DV?$string_output_adapter@D@__crt_stdio_output@@@2@@__crt_stdio_output@@AAE_NXZ@@?$positional_parameter_base@DV?$string_output_adapter@D@__crt_stdio_output@@@__crt_stdio_output@@CA?AW4parameter_type@01@PAUansi_string@?1??type_case_Z@?$output_processor@DV?$string_output_adapter@D@__crt_stdio_output@@V?$positional_parameter_base@DV?$string_output_adapter@D@__crt_stdio_output@@@2@@1@AAE_NXZ@@Z 10048df0 f i libucrtd:output.obj
 0001:00047e00       ??$get_parameter_type@Uansi_string@?1??type_case_Z@?$output_processor@_WV?$stream_output_adapter@_W@__crt_stdio_output@@V?$positional_parameter_base@_WV?$stream_output_adapter@_W@__crt_stdio_output@@@2@@__crt_stdio_output@@AAE_NXZ@@?$positional_parameter_base@_WV?$stream_output_adapter@_W@__crt_stdio_output@@@__crt_stdio_output@@CA?AW4parameter_type@01@PAUansi_string@?1??type_case_Z@?$output_processor@_WV?$stream_output_adapter@_W@__crt_stdio_output@@V?$positional_parameter_base@_WV?$stream_output_adapter@_W@__crt_stdio_output@@@2@@1@AAE_NXZ@@Z 10048e00 f i libucrtd:output.obj
 0001:00047e10       ??$get_parameter_type@Uansi_string@?1??type_case_Z@?$output_processor@_WV?$string_output_adapter@_W@__crt_stdio_output@@V?$positional_parameter_base@_WV?$string_output_adapter@_W@__crt_stdio_output@@@2@@__crt_stdio_output@@AAE_NXZ@@?$positional_parameter_base@_WV?$string_output_adapter@_W@__crt_stdio_output@@@__crt_stdio_output@@CA?AW4parameter_type@01@PAUansi_string@?1??type_case_Z@?$output_processor@_WV?$string_output_adapter@_W@__crt_stdio_output@@V?$positional_parameter_base@_WV?$string_output_adapter@_W@__crt_stdio_output@@@2@@1@AAE_NXZ@@Z 10048e10 f i libucrtd:output.obj
 0001:00047e20       ??$get_parameter_type@X@?$positional_parameter_base@DV?$stream_output_adapter@D@__crt_stdio_output@@@__crt_stdio_output@@CA?AW4parameter_type@01@PAX@Z 10048e20 f i libucrtd:output.obj
 0001:00047e30       ??$get_parameter_type@X@?$positional_parameter_base@DV?$string_output_adapter@D@__crt_stdio_output@@@__crt_stdio_output@@CA?AW4parameter_type@01@PAX@Z 10048e30 f i libucrtd:output.obj
 0001:00047e40       ??$get_parameter_type@X@?$positional_parameter_base@_WV?$stream_output_adapter@_W@__crt_stdio_output@@@__crt_stdio_output@@CA?AW4parameter_type@01@PAX@Z 10048e40 f i libucrtd:output.obj
 0001:00047e50       ??$get_parameter_type@X@?$positional_parameter_base@_WV?$string_output_adapter@_W@__crt_stdio_output@@@__crt_stdio_output@@CA?AW4parameter_type@01@PAX@Z 10048e50 f i libucrtd:output.obj
 0001:00047e60       ??$is_character_specifier@D@?$positional_parameter_base@DV?$stream_output_adapter@D@__crt_stdio_output@@@__crt_stdio_output@@CA_ND@Z 10048e60 f i libucrtd:output.obj
 0001:00047e90       ??$is_character_specifier@D@?$positional_parameter_base@DV?$string_output_adapter@D@__crt_stdio_output@@@__crt_stdio_output@@CA_ND@Z 10048e90 f i libucrtd:output.obj
 0001:00047ec0       ??$is_character_specifier@_W@?$positional_parameter_base@_WV?$stream_output_adapter@_W@__crt_stdio_output@@@__crt_stdio_output@@CA_N_W@Z 10048ec0 f i libucrtd:output.obj
 0001:00047ef0       ??$is_character_specifier@_W@?$positional_parameter_base@_WV?$string_output_adapter@_W@__crt_stdio_output@@@__crt_stdio_output@@CA_N_W@Z 10048ef0 f i libucrtd:output.obj
 0001:00047f20       ??$is_integral_specifier@D@?$positional_parameter_base@DV?$stream_output_adapter@D@__crt_stdio_output@@@__crt_stdio_output@@CA_ND@Z 10048f20 f i libucrtd:output.obj
 0001:00047f80       ??$is_integral_specifier@D@?$positional_parameter_base@DV?$string_output_adapter@D@__crt_stdio_output@@@__crt_stdio_output@@CA_ND@Z 10048f80 f i libucrtd:output.obj
 0001:00047fe0       ??$is_integral_specifier@_W@?$positional_parameter_base@_WV?$stream_output_adapter@_W@__crt_stdio_output@@@__crt_stdio_output@@CA_N_W@Z 10048fe0 f i libucrtd:output.obj
 0001:00048040       ??$is_integral_specifier@_W@?$positional_parameter_base@_WV?$string_output_adapter@_W@__crt_stdio_output@@@__crt_stdio_output@@CA_N_W@Z 10049040 f i libucrtd:output.obj
 0001:000480a0       ??$is_pointer_specifier@D@?$positional_parameter_base@DV?$stream_output_adapter@D@__crt_stdio_output@@@__crt_stdio_output@@CA_ND@Z 100490a0 f i libucrtd:output.obj
 0001:000480d0       ??$is_pointer_specifier@D@?$positional_parameter_base@DV?$string_output_adapter@D@__crt_stdio_output@@@__crt_stdio_output@@CA_ND@Z 100490d0 f i libucrtd:output.obj
 0001:00048100       ??$is_pointer_specifier@_W@?$positional_parameter_base@_WV?$stream_output_adapter@_W@__crt_stdio_output@@@__crt_stdio_output@@CA_N_W@Z 10049100 f i libucrtd:output.obj
 0001:00048130       ??$is_pointer_specifier@_W@?$positional_parameter_base@_WV?$string_output_adapter@_W@__crt_stdio_output@@@__crt_stdio_output@@CA_N_W@Z 10049130 f i libucrtd:output.obj
 0001:00048160       ??$is_string_specifier@D@?$positional_parameter_base@DV?$stream_output_adapter@D@__crt_stdio_output@@@__crt_stdio_output@@CA_ND@Z 10049160 f i libucrtd:output.obj
 0001:00048190       ??$is_string_specifier@D@?$positional_parameter_base@DV?$string_output_adapter@D@__crt_stdio_output@@@__crt_stdio_output@@CA_ND@Z 10049190 f i libucrtd:output.obj
 0001:000481c0       ??$is_string_specifier@_W@?$positional_parameter_base@_WV?$stream_output_adapter@_W@__crt_stdio_output@@@__crt_stdio_output@@CA_N_W@Z 100491c0 f i libucrtd:output.obj
 0001:000481f0       ??$is_string_specifier@_W@?$positional_parameter_base@_WV?$string_output_adapter@_W@__crt_stdio_output@@@__crt_stdio_output@@CA_N_W@Z 100491f0 f i libucrtd:output.obj
 0001:00048220       ??$is_wide_character_specifier@D@__crt_stdio_output@@YA_N_KDW4length_modifier@0@@Z 10049220 f i libucrtd:output.obj
 0001:000482a0       ??$is_wide_character_specifier@_W@__crt_stdio_output@@YA_N_K_WW4length_modifier@0@@Z 100492a0 f i libucrtd:output.obj
 0001:00048360       ??$peek_va_arg@C@__crt_stdio_output@@YACPAD@Z 10049360 f i libucrtd:output.obj
 0001:00048380       ??$peek_va_arg@E@__crt_stdio_output@@YAEPAD@Z 10049380 f i libucrtd:output.obj
 0001:000483a0       ??$peek_va_arg@F@__crt_stdio_output@@YAFPAD@Z 100493a0 f i libucrtd:output.obj
 0001:000483c0       ??$peek_va_arg@G@__crt_stdio_output@@YAGPAD@Z 100493c0 f i libucrtd:output.obj
 0001:000483e0       ??$peek_va_arg@H@__crt_stdio_output@@YAHPAD@Z 100493e0 f i libucrtd:output.obj
 0001:00048400       ??$peek_va_arg@I@__crt_stdio_output@@YAIPAD@Z 10049400 f i libucrtd:output.obj
 0001:00048420       ??$peek_va_arg@PAD@__crt_stdio_output@@YAPADPAD@Z 10049420 f i libucrtd:output.obj
 0001:00048440       ??$peek_va_arg@PAUansi_string@?1??type_case_Z@?$output_processor@DV?$stream_output_adapter@D@__crt_stdio_output@@V?$positional_parameter_base@DV?$stream_output_adapter@D@__crt_stdio_output@@@2@@__crt_stdio_output@@AAE_NXZ@@__crt_stdio_output@@YAPAUansi_string@?1??type_case_Z@?$output_processor@DV?$stream_output_adapter@D@__crt_stdio_output@@V?$positional_parameter_base@DV?$stream_output_adapter@D@__crt_stdio_output@@@2@@0@AAE_NXZ@PAD@Z 10049440 f i libucrtd:output.obj
 0001:00048460       ??$peek_va_arg@PAUansi_string@?1??type_case_Z@?$output_processor@DV?$string_output_adapter@D@__crt_stdio_output@@V?$positional_parameter_base@DV?$string_output_adapter@D@__crt_stdio_output@@@2@@__crt_stdio_output@@AAE_NXZ@@__crt_stdio_output@@YAPAUansi_string@?1??type_case_Z@?$output_processor@DV?$string_output_adapter@D@__crt_stdio_output@@V?$positional_parameter_base@DV?$string_output_adapter@D@__crt_stdio_output@@@2@@0@AAE_NXZ@PAD@Z 10049460 f i libucrtd:output.obj
 0001:00048480       ??$peek_va_arg@PAUansi_string@?1??type_case_Z@?$output_processor@_WV?$stream_output_adapter@_W@__crt_stdio_output@@V?$positional_parameter_base@_WV?$stream_output_adapter@_W@__crt_stdio_output@@@2@@__crt_stdio_output@@AAE_NXZ@@__crt_stdio_output@@YAPAUansi_string@?1??type_case_Z@?$output_processor@_WV?$stream_output_adapter@_W@__crt_stdio_output@@V?$positional_parameter_base@_WV?$stream_output_adapter@_W@__crt_stdio_output@@@2@@0@AAE_NXZ@PAD@Z 10049480 f i libucrtd:output.obj
 0001:000484a0       ??$peek_va_arg@PAUansi_string@?1??type_case_Z@?$output_processor@_WV?$string_output_adapter@_W@__crt_stdio_output@@V?$positional_parameter_base@_WV?$string_output_adapter@_W@__crt_stdio_output@@@2@@__crt_stdio_output@@AAE_NXZ@@__crt_stdio_output@@YAPAUansi_string@?1??type_case_Z@?$output_processor@_WV?$string_output_adapter@_W@__crt_stdio_output@@V?$positional_parameter_base@_WV?$string_output_adapter@_W@__crt_stdio_output@@@2@@0@AAE_NXZ@PAD@Z 100494a0 f i libucrtd:output.obj
 0001:000484c0       ??$peek_va_arg@PAX@__crt_stdio_output@@YAPAXPAD@Z 100494c0 f i libucrtd:output.obj
 0001:000484e0       ??$peek_va_arg@U_CRT_DOUBLE@@@__crt_stdio_output@@YA?AU_CRT_DOUBLE@@PAD@Z 100494e0 f i libucrtd:output.obj
 0001:00048500       ??$peek_va_arg@_J@__crt_stdio_output@@YA_JPAD@Z 10049500 f i libucrtd:output.obj
 0001:00048520       ??$peek_va_arg@_K@__crt_stdio_output@@YA_KPAD@Z 10049520 f i libucrtd:output.obj
 0001:00048540       ??$peek_va_arg@_W@__crt_stdio_output@@YA_WPAD@Z 10049540 f i libucrtd:output.obj
 0001:00048560       ??$puttc_nolock@ABDPAU_iobuf@@@?$__crt_char_traits@D@@SAHABD$$QAPAU_iobuf@@@Z 10049560 f i libucrtd:output.obj
 0001:00048580       ??$puttc_nolock@AB_WPAU_iobuf@@@?$__crt_char_traits@_W@@SAGAB_W$$QAPAU_iobuf@@@Z 10049580 f i libucrtd:output.obj
 0001:000485a0       ??$read_va_arg@C@__crt_stdio_output@@YACAAPAD@Z 100495a0 f i libucrtd:output.obj
 0001:000485c0       ??$read_va_arg@E@__crt_stdio_output@@YAEAAPAD@Z 100495c0 f i libucrtd:output.obj
 0001:000485e0       ??$read_va_arg@F@__crt_stdio_output@@YAFAAPAD@Z 100495e0 f i libucrtd:output.obj
 0001:00048600       ??$read_va_arg@G@__crt_stdio_output@@YAGAAPAD@Z 10049600 f i libucrtd:output.obj
 0001:00048620       ??$read_va_arg@H@__crt_stdio_output@@YAHAAPAD@Z 10049620 f i libucrtd:output.obj
 0001:00048640       ??$read_va_arg@I@__crt_stdio_output@@YAIAAPAD@Z 10049640 f i libucrtd:output.obj
 0001:00048660       ??$read_va_arg@PAD@__crt_stdio_output@@YAPADAAPAD@Z 10049660 f i libucrtd:output.obj
 0001:00048680       ??$read_va_arg@PAUansi_string@?1??type_case_Z@?$output_processor@DV?$stream_output_adapter@D@__crt_stdio_output@@V?$format_validation_base@DV?$stream_output_adapter@D@__crt_stdio_output@@@2@@__crt_stdio_output@@AAE_NXZ@@__crt_stdio_output@@YAPAUansi_string@?1??type_case_Z@?$output_processor@DV?$stream_output_adapter@D@__crt_stdio_output@@V?$format_validation_base@DV?$stream_output_adapter@D@__crt_stdio_output@@@2@@0@AAE_NXZ@AAPAD@Z 10049680 f i libucrtd:output.obj
 0001:000486a0       ??$read_va_arg@PAUansi_string@?1??type_case_Z@?$output_processor@DV?$stream_output_adapter@D@__crt_stdio_output@@V?$positional_parameter_base@DV?$stream_output_adapter@D@__crt_stdio_output@@@2@@__crt_stdio_output@@AAE_NXZ@@__crt_stdio_output@@YAPAUansi_string@?1??type_case_Z@?$output_processor@DV?$stream_output_adapter@D@__crt_stdio_output@@V?$positional_parameter_base@DV?$stream_output_adapter@D@__crt_stdio_output@@@2@@0@AAE_NXZ@AAPAD@Z 100496a0 f i libucrtd:output.obj
 0001:000486c0       ??$read_va_arg@PAUansi_string@?1??type_case_Z@?$output_processor@DV?$stream_output_adapter@D@__crt_stdio_output@@V?$standard_base@DV?$stream_output_adapter@D@__crt_stdio_output@@@2@@__crt_stdio_output@@AAE_NXZ@@__crt_stdio_output@@YAPAUansi_string@?1??type_case_Z@?$output_processor@DV?$stream_output_adapter@D@__crt_stdio_output@@V?$standard_base@DV?$stream_output_adapter@D@__crt_stdio_output@@@2@@0@AAE_NXZ@AAPAD@Z 100496c0 f i libucrtd:output.obj
 0001:000486e0       ??$read_va_arg@PAUansi_string@?1??type_case_Z@?$output_processor@DV?$string_output_adapter@D@__crt_stdio_output@@V?$format_validation_base@DV?$string_output_adapter@D@__crt_stdio_output@@@2@@__crt_stdio_output@@AAE_NXZ@@__crt_stdio_output@@YAPAUansi_string@?1??type_case_Z@?$output_processor@DV?$string_output_adapter@D@__crt_stdio_output@@V?$format_validation_base@DV?$string_output_adapter@D@__crt_stdio_output@@@2@@0@AAE_NXZ@AAPAD@Z 100496e0 f i libucrtd:output.obj
 0001:00048700       ??$read_va_arg@PAUansi_string@?1??type_case_Z@?$output_processor@DV?$string_output_adapter@D@__crt_stdio_output@@V?$positional_parameter_base@DV?$string_output_adapter@D@__crt_stdio_output@@@2@@__crt_stdio_output@@AAE_NXZ@@__crt_stdio_output@@YAPAUansi_string@?1??type_case_Z@?$output_processor@DV?$string_output_adapter@D@__crt_stdio_output@@V?$positional_parameter_base@DV?$string_output_adapter@D@__crt_stdio_output@@@2@@0@AAE_NXZ@AAPAD@Z 10049700 f i libucrtd:output.obj
 0001:00048720       ??$read_va_arg@PAUansi_string@?1??type_case_Z@?$output_processor@DV?$string_output_adapter@D@__crt_stdio_output@@V?$standard_base@DV?$string_output_adapter@D@__crt_stdio_output@@@2@@__crt_stdio_output@@AAE_NXZ@@__crt_stdio_output@@YAPAUansi_string@?1??type_case_Z@?$output_processor@DV?$string_output_adapter@D@__crt_stdio_output@@V?$standard_base@DV?$string_output_adapter@D@__crt_stdio_output@@@2@@0@AAE_NXZ@AAPAD@Z 10049720 f i libucrtd:output.obj
 0001:00048740       ??$read_va_arg@PAUansi_string@?1??type_case_Z@?$output_processor@_WV?$stream_output_adapter@_W@__crt_stdio_output@@V?$format_validation_base@_WV?$stream_output_adapter@_W@__crt_stdio_output@@@2@@__crt_stdio_output@@AAE_NXZ@@__crt_stdio_output@@YAPAUansi_string@?1??type_case_Z@?$output_processor@_WV?$stream_output_adapter@_W@__crt_stdio_output@@V?$format_validation_base@_WV?$stream_output_adapter@_W@__crt_stdio_output@@@2@@0@AAE_NXZ@AAPAD@Z 10049740 f i libucrtd:output.obj
 0001:00048760       ??$read_va_arg@PAUansi_string@?1??type_case_Z@?$output_processor@_WV?$stream_output_adapter@_W@__crt_stdio_output@@V?$positional_parameter_base@_WV?$stream_output_adapter@_W@__crt_stdio_output@@@2@@__crt_stdio_output@@AAE_NXZ@@__crt_stdio_output@@YAPAUansi_string@?1??type_case_Z@?$output_processor@_WV?$stream_output_adapter@_W@__crt_stdio_output@@V?$positional_parameter_base@_WV?$stream_output_adapter@_W@__crt_stdio_output@@@2@@0@AAE_NXZ@AAPAD@Z 10049760 f i libucrtd:output.obj
 0001:00048780       ??$read_va_arg@PAUansi_string@?1??type_case_Z@?$output_processor@_WV?$stream_output_adapter@_W@__crt_stdio_output@@V?$standard_base@_WV?$stream_output_adapter@_W@__crt_stdio_output@@@2@@__crt_stdio_output@@AAE_NXZ@@__crt_stdio_output@@YAPAUansi_string@?1??type_case_Z@?$output_processor@_WV?$stream_output_adapter@_W@__crt_stdio_output@@V?$standard_base@_WV?$stream_output_adapter@_W@__crt_stdio_output@@@2@@0@AAE_NXZ@AAPAD@Z 10049780 f i libucrtd:output.obj
 0001:000487a0       ??$read_va_arg@PAUansi_string@?1??type_case_Z@?$output_processor@_WV?$string_output_adapter@_W@__crt_stdio_output@@V?$format_validation_base@_WV?$string_output_adapter@_W@__crt_stdio_output@@@2@@__crt_stdio_output@@AAE_NXZ@@__crt_stdio_output@@YAPAUansi_string@?1??type_case_Z@?$output_processor@_WV?$string_output_adapter@_W@__crt_stdio_output@@V?$format_validation_base@_WV?$string_output_adapter@_W@__crt_stdio_output@@@2@@0@AAE_NXZ@AAPAD@Z 100497a0 f i libucrtd:output.obj
 0001:000487c0       ??$read_va_arg@PAUansi_string@?1??type_case_Z@?$output_processor@_WV?$string_output_adapter@_W@__crt_stdio_output@@V?$positional_parameter_base@_WV?$string_output_adapter@_W@__crt_stdio_output@@@2@@__crt_stdio_output@@AAE_NXZ@@__crt_stdio_output@@YAPAUansi_string@?1??type_case_Z@?$output_processor@_WV?$string_output_adapter@_W@__crt_stdio_output@@V?$positional_parameter_base@_WV?$string_output_adapter@_W@__crt_stdio_output@@@2@@0@AAE_NXZ@AAPAD@Z 100497c0 f i libucrtd:output.obj
 0001:000487e0       ??$read_va_arg@PAUansi_string@?1??type_case_Z@?$output_processor@_WV?$string_output_adapter@_W@__crt_stdio_output@@V?$standard_base@_WV?$string_output_adapter@_W@__crt_stdio_output@@@2@@__crt_stdio_output@@AAE_NXZ@@__crt_stdio_output@@YAPAUansi_string@?1??type_case_Z@?$output_processor@_WV?$string_output_adapter@_W@__crt_stdio_output@@V?$standard_base@_WV?$string_output_adapter@_W@__crt_stdio_output@@@2@@0@AAE_NXZ@AAPAD@Z 100497e0 f i libucrtd:output.obj
 0001:00048800       ??$read_va_arg@PAX@__crt_stdio_output@@YAPAXAAPAD@Z 10049800 f i libucrtd:output.obj
 0001:00048820       ??$read_va_arg@U_CRT_DOUBLE@@@__crt_stdio_output@@YA?AU_CRT_DOUBLE@@AAPAD@Z 10049820 f i libucrtd:output.obj
 0001:00048840       ??$read_va_arg@_J@__crt_stdio_output@@YA_JAAPAD@Z 10049840 f i libucrtd:output.obj
 0001:00048860       ??$read_va_arg@_K@__crt_stdio_output@@YA_KAAPAD@Z 10049860 f i libucrtd:output.obj
 0001:00048880       ??$read_va_arg@_W@__crt_stdio_output@@YA_WAAPAD@Z 10049880 f i libucrtd:output.obj
 0001:000488a0       ??$scratch_count@D@formatting_buffer@__crt_stdio_output@@QBEIXZ 100498a0 f i libucrtd:output.obj
 0001:000488c0       ??$scratch_data@D@formatting_buffer@__crt_stdio_output@@QAEPADXZ 100498c0 f i libucrtd:output.obj
 0001:00048910       ??$tcstol@AAPBDPAPADH@?$__crt_char_traits@D@@SAJAAPBD$$QAPAPAD$$QAH@Z 10049910 f i libucrtd:output.obj
 0001:00048940       ??$tcstol@AAPB_WPAPA_WH@?$__crt_char_traits@_W@@SAJAAPB_W$$QAPAPA_W$$QAH@Z 10049940 f i libucrtd:output.obj
 0001:00048970       ??$tcstol@PBDPAPADH@?$__crt_char_traits@D@@SAJ$$QAPBD$$QAPAPAD$$QAH@Z 10049970 f i libucrtd:output.obj
 0001:000489a0       ??$tcstol@PB_WPAPA_WH@?$__crt_char_traits@_W@@SAJ$$QAPB_W$$QAPAPA_W$$QAH@Z 100499a0 f i libucrtd:output.obj
 0001:000489d0       ??$type_case_integer_parse_into_buffer@I@?$output_processor@DV?$stream_output_adapter@D@__crt_stdio_output@@V?$format_validation_base@DV?$stream_output_adapter@D@__crt_stdio_output@@@2@@__crt_stdio_output@@AAEXII_N@Z 100499d0 f i libucrtd:output.obj
 0001:00048aa0       ??$type_case_integer_parse_into_buffer@I@?$output_processor@DV?$stream_output_adapter@D@__crt_stdio_output@@V?$positional_parameter_base@DV?$stream_output_adapter@D@__crt_stdio_output@@@2@@__crt_stdio_output@@AAEXII_N@Z 10049aa0 f i libucrtd:output.obj
 0001:00048b70       ??$type_case_integer_parse_into_buffer@I@?$output_processor@DV?$stream_output_adapter@D@__crt_stdio_output@@V?$standard_base@DV?$stream_output_adapter@D@__crt_stdio_output@@@2@@__crt_stdio_output@@AAEXII_N@Z 10049b70 f i libucrtd:output.obj
 0001:00048c40       ??$type_case_integer_parse_into_buffer@I@?$output_processor@DV?$string_output_adapter@D@__crt_stdio_output@@V?$format_validation_base@DV?$string_output_adapter@D@__crt_stdio_output@@@2@@__crt_stdio_output@@AAEXII_N@Z 10049c40 f i libucrtd:output.obj
 0001:00048d10       ??$type_case_integer_parse_into_buffer@I@?$output_processor@DV?$string_output_adapter@D@__crt_stdio_output@@V?$positional_parameter_base@DV?$string_output_adapter@D@__crt_stdio_output@@@2@@__crt_stdio_output@@AAEXII_N@Z 10049d10 f i libucrtd:output.obj
 0001:00048de0       ??$type_case_integer_parse_into_buffer@I@?$output_processor@DV?$string_output_adapter@D@__crt_stdio_output@@V?$standard_base@DV?$string_output_adapter@D@__crt_stdio_output@@@2@@__crt_stdio_output@@AAEXII_N@Z 10049de0 f i libucrtd:output.obj
 0001:00048eb0       ??$type_case_integer_parse_into_buffer@I@?$output_processor@_WV?$stream_output_adapter@_W@__crt_stdio_output@@V?$format_validation_base@_WV?$stream_output_adapter@_W@__crt_stdio_output@@@2@@__crt_stdio_output@@AAEXII_N@Z 10049eb0 f i libucrtd:output.obj
 0001:00048f90       ??$type_case_integer_parse_into_buffer@I@?$output_processor@_WV?$stream_output_adapter@_W@__crt_stdio_output@@V?$positional_parameter_base@_WV?$stream_output_adapter@_W@__crt_stdio_output@@@2@@__crt_stdio_output@@AAEXII_N@Z 10049f90 f i libucrtd:output.obj
 0001:00049070       ??$type_case_integer_parse_into_buffer@I@?$output_processor@_WV?$stream_output_adapter@_W@__crt_stdio_output@@V?$standard_base@_WV?$stream_output_adapter@_W@__crt_stdio_output@@@2@@__crt_stdio_output@@AAEXII_N@Z 1004a070 f i libucrtd:output.obj
 0001:00049150       ??$type_case_integer_parse_into_buffer@I@?$output_processor@_WV?$string_output_adapter@_W@__crt_stdio_output@@V?$format_validation_base@_WV?$string_output_adapter@_W@__crt_stdio_output@@@2@@__crt_stdio_output@@AAEXII_N@Z 1004a150 f i libucrtd:output.obj
 0001:00049230       ??$type_case_integer_parse_into_buffer@I@?$output_processor@_WV?$string_output_adapter@_W@__crt_stdio_output@@V?$positional_parameter_base@_WV?$string_output_adapter@_W@__crt_stdio_output@@@2@@__crt_stdio_output@@AAEXII_N@Z 1004a230 f i libucrtd:output.obj
 0001:00049310       ??$type_case_integer_parse_into_buffer@I@?$output_processor@_WV?$string_output_adapter@_W@__crt_stdio_output@@V?$standard_base@_WV?$string_output_adapter@_W@__crt_stdio_output@@@2@@__crt_stdio_output@@AAEXII_N@Z 1004a310 f i libucrtd:output.obj
 0001:000493f0       ??$type_case_integer_parse_into_buffer@_K@?$output_processor@DV?$stream_output_adapter@D@__crt_stdio_output@@V?$format_validation_base@DV?$stream_output_adapter@D@__crt_stdio_output@@@2@@__crt_stdio_output@@AAEX_KI_N@Z 1004a3f0 f i libucrtd:output.obj
 0001:000494e0       ??$type_case_integer_parse_into_buffer@_K@?$output_processor@DV?$stream_output_adapter@D@__crt_stdio_output@@V?$positional_parameter_base@DV?$stream_output_adapter@D@__crt_stdio_output@@@2@@__crt_stdio_output@@AAEX_KI_N@Z 1004a4e0 f i libucrtd:output.obj
 0001:000495d0       ??$type_case_integer_parse_into_buffer@_K@?$output_processor@DV?$stream_output_adapter@D@__crt_stdio_output@@V?$standard_base@DV?$stream_output_adapter@D@__crt_stdio_output@@@2@@__crt_stdio_output@@AAEX_KI_N@Z 1004a5d0 f i libucrtd:output.obj
 0001:000496c0       ??$type_case_integer_parse_into_buffer@_K@?$output_processor@DV?$string_output_adapter@D@__crt_stdio_output@@V?$format_validation_base@DV?$string_output_adapter@D@__crt_stdio_output@@@2@@__crt_stdio_output@@AAEX_KI_N@Z 1004a6c0 f i libucrtd:output.obj
 0001:000497b0       ??$type_case_integer_parse_into_buffer@_K@?$output_processor@DV?$string_output_adapter@D@__crt_stdio_output@@V?$positional_parameter_base@DV?$string_output_adapter@D@__crt_stdio_output@@@2@@__crt_stdio_output@@AAEX_KI_N@Z 1004a7b0 f i libucrtd:output.obj
 0001:000498a0       ??$type_case_integer_parse_into_buffer@_K@?$output_processor@DV?$string_output_adapter@D@__crt_stdio_output@@V?$standard_base@DV?$string_output_adapter@D@__crt_stdio_output@@@2@@__crt_stdio_output@@AAEX_KI_N@Z 1004a8a0 f i libucrtd:output.obj
 0001:00049990       ??$type_case_integer_parse_into_buffer@_K@?$output_processor@_WV?$stream_output_adapter@_W@__crt_stdio_output@@V?$format_validation_base@_WV?$stream_output_adapter@_W@__crt_stdio_output@@@2@@__crt_stdio_output@@AAEX_KI_N@Z 1004a990 f i libucrtd:output.obj
 0001:00049a90       ??$type_case_integer_parse_into_buffer@_K@?$output_processor@_WV?$stream_output_adapter@_W@__crt_stdio_output@@V?$positional_parameter_base@_WV?$stream_output_adapter@_W@__crt_stdio_output@@@2@@__crt_stdio_output@@AAEX_KI_N@Z 1004aa90 f i libucrtd:output.obj
 0001:00049b90       ??$type_case_integer_parse_into_buffer@_K@?$output_processor@_WV?$stream_output_adapter@_W@__crt_stdio_output@@V?$standard_base@_WV?$stream_output_adapter@_W@__crt_stdio_output@@@2@@__crt_stdio_output@@AAEX_KI_N@Z 1004ab90 f i libucrtd:output.obj
 0001:00049c90       ??$type_case_integer_parse_into_buffer@_K@?$output_processor@_WV?$string_output_adapter@_W@__crt_stdio_output@@V?$format_validation_base@_WV?$string_output_adapter@_W@__crt_stdio_output@@@2@@__crt_stdio_output@@AAEX_KI_N@Z 1004ac90 f i libucrtd:output.obj
 0001:00049d90       ??$type_case_integer_parse_into_buffer@_K@?$output_processor@_WV?$string_output_adapter@_W@__crt_stdio_output@@V?$positional_parameter_base@_WV?$string_output_adapter@_W@__crt_stdio_output@@@2@@__crt_stdio_output@@AAEX_KI_N@Z 1004ad90 f i libucrtd:output.obj
 0001:00049e90       ??$type_case_integer_parse_into_buffer@_K@?$output_processor@_WV?$string_output_adapter@_W@__crt_stdio_output@@V?$standard_base@_WV?$string_output_adapter@_W@__crt_stdio_output@@@2@@__crt_stdio_output@@AAEX_KI_N@Z 1004ae90 f i libucrtd:output.obj
 0001:00049f90       ??$write_multiple_characters@V?$stream_output_adapter@D@__crt_stdio_output@@D@__crt_stdio_output@@YAXABV?$stream_output_adapter@D@0@DHQAH@Z 1004af90 f i libucrtd:output.obj
 0001:00049fe0       ??$write_multiple_characters@V?$stream_output_adapter@_W@__crt_stdio_output@@D@__crt_stdio_output@@YAXABV?$stream_output_adapter@_W@0@DHQAH@Z 1004afe0 f i libucrtd:output.obj
 0001:0004a030       ??$write_multiple_characters@V?$string_output_adapter@D@__crt_stdio_output@@D@__crt_stdio_output@@YAXABV?$string_output_adapter@D@0@DHQAH@Z 1004b030 f i libucrtd:output.obj
 0001:0004a080       ??$write_multiple_characters@V?$string_output_adapter@_W@__crt_stdio_output@@D@__crt_stdio_output@@YAXABV?$string_output_adapter@_W@0@DHQAH@Z 1004b080 f i libucrtd:output.obj
 0001:0004a3d0       ??0?$common_data@D@__crt_stdio_output@@IAE@XZ 1004b3d0 f i libucrtd:output.obj
 0001:0004a480       ??0?$common_data@_W@__crt_stdio_output@@IAE@XZ 1004b480 f i libucrtd:output.obj
 0001:0004a530       ??0?$output_adapter_data@DV?$stream_output_adapter@D@__crt_stdio_output@@@__crt_stdio_output@@IAE@ABV?$stream_output_adapter@D@1@_KQBDQAU__crt_locale_pointers@@QAD@Z 1004b530 f i libucrtd:output.obj
 0001:0004a590       ??0?$output_adapter_data@DV?$string_output_adapter@D@__crt_stdio_output@@@__crt_stdio_output@@IAE@ABV?$string_output_adapter@D@1@_KQBDQAU__crt_locale_pointers@@QAD@Z 1004b590 f i libucrtd:output.obj
 0001:0004a5f0       ??0?$output_adapter_data@_WV?$stream_output_adapter@_W@__crt_stdio_output@@@__crt_stdio_output@@IAE@ABV?$stream_output_adapter@_W@1@_KQB_WQAU__crt_locale_pointers@@QAD@Z 1004b5f0 f i libucrtd:output.obj
 0001:0004a650       ??0?$output_adapter_data@_WV?$string_output_adapter@_W@__crt_stdio_output@@@__crt_stdio_output@@IAE@ABV?$string_output_adapter@_W@1@_KQB_WQAU__crt_locale_pointers@@QAD@Z 1004b650 f i libucrtd:output.obj
 0001:0004a6b0       ??0?$output_processor@DV?$stream_output_adapter@D@__crt_stdio_output@@V?$format_validation_base@DV?$stream_output_adapter@D@__crt_stdio_output@@@2@@__crt_stdio_output@@QAE@ABV?$stream_output_adapter@D@1@_KQBDQAU__crt_locale_pointers@@QAD@Z 1004b6b0 f i libucrtd:output.obj
 0001:0004a6e0       ??0?$output_processor@DV?$stream_output_adapter@D@__crt_stdio_output@@V?$positional_parameter_base@DV?$stream_output_adapter@D@__crt_stdio_output@@@2@@__crt_stdio_output@@QAE@ABV?$stream_output_adapter@D@1@_KQBDQAU__crt_locale_pointers@@QAD@Z 1004b6e0 f i libucrtd:output.obj
 0001:0004a710       ??0?$output_processor@DV?$stream_output_adapter@D@__crt_stdio_output@@V?$standard_base@DV?$stream_output_adapter@D@__crt_stdio_output@@@2@@__crt_stdio_output@@QAE@ABV?$stream_output_adapter@D@1@_KQBDQAU__crt_locale_pointers@@QAD@Z 1004b710 f i libucrtd:output.obj
 0001:0004a740       ??0?$output_processor@DV?$string_output_adapter@D@__crt_stdio_output@@V?$format_validation_base@DV?$string_output_adapter@D@__crt_stdio_output@@@2@@__crt_stdio_output@@QAE@ABV?$string_output_adapter@D@1@_KQBDQAU__crt_locale_pointers@@QAD@Z 1004b740 f i libucrtd:output.obj
 0001:0004a770       ??0?$output_processor@DV?$string_output_adapter@D@__crt_stdio_output@@V?$positional_parameter_base@DV?$string_output_adapter@D@__crt_stdio_output@@@2@@__crt_stdio_output@@QAE@ABV?$string_output_adapter@D@1@_KQBDQAU__crt_locale_pointers@@QAD@Z 1004b770 f i libucrtd:output.obj
 0001:0004a7a0       ??0?$output_processor@DV?$string_output_adapter@D@__crt_stdio_output@@V?$standard_base@DV?$string_output_adapter@D@__crt_stdio_output@@@2@@__crt_stdio_output@@QAE@ABV?$string_output_adapter@D@1@_KQBDQAU__crt_locale_pointers@@QAD@Z 1004b7a0 f i libucrtd:output.obj
 0001:0004a7d0       ??0?$output_processor@_WV?$stream_output_adapter@_W@__crt_stdio_output@@V?$format_validation_base@_WV?$stream_output_adapter@_W@__crt_stdio_output@@@2@@__crt_stdio_output@@QAE@ABV?$stream_output_adapter@_W@1@_KQB_WQAU__crt_locale_pointers@@QAD@Z 1004b7d0 f i libucrtd:output.obj
 0001:0004a800       ??0?$output_processor@_WV?$stream_output_adapter@_W@__crt_stdio_output@@V?$positional_parameter_base@_WV?$stream_output_adapter@_W@__crt_stdio_output@@@2@@__crt_stdio_output@@QAE@ABV?$stream_output_adapter@_W@1@_KQB_WQAU__crt_locale_pointers@@QAD@Z 1004b800 f i libucrtd:output.obj
 0001:0004a830       ??0?$output_processor@_WV?$stream_output_adapter@_W@__crt_stdio_output@@V?$standard_base@_WV?$stream_output_adapter@_W@__crt_stdio_output@@@2@@__crt_stdio_output@@QAE@ABV?$stream_output_adapter@_W@1@_KQB_WQAU__crt_locale_pointers@@QAD@Z 1004b830 f i libucrtd:output.obj
 0001:0004a860       ??0?$output_processor@_WV?$string_output_adapter@_W@__crt_stdio_output@@V?$format_validation_base@_WV?$string_output_adapter@_W@__crt_stdio_output@@@2@@__crt_stdio_output@@QAE@ABV?$string_output_adapter@_W@1@_KQB_WQAU__crt_locale_pointers@@QAD@Z 1004b860 f i libucrtd:output.obj
 0001:0004a890       ??0?$output_processor@_WV?$string_output_adapter@_W@__crt_stdio_output@@V?$positional_parameter_base@_WV?$string_output_adapter@_W@__crt_stdio_output@@@2@@__crt_stdio_output@@QAE@ABV?$string_output_adapter@_W@1@_KQB_WQAU__crt_locale_pointers@@QAD@Z 1004b890 f i libucrtd:output.obj
 0001:0004a8c0       ??0?$output_processor@_WV?$string_output_adapter@_W@__crt_stdio_output@@V?$standard_base@_WV?$string_output_adapter@_W@__crt_stdio_output@@@2@@__crt_stdio_output@@QAE@ABV?$string_output_adapter@_W@1@_KQB_WQAU__crt_locale_pointers@@QAD@Z 1004b8c0 f i libucrtd:output.obj
 0001:0004a8f0       ??0?$stream_output_adapter@D@__crt_stdio_output@@QAE@QAU_iobuf@@@Z 1004b8f0 f i libucrtd:output.obj
 0001:0004a910       ??0?$stream_output_adapter@_W@__crt_stdio_output@@QAE@QAU_iobuf@@@Z 1004b910 f i libucrtd:output.obj
 0001:0004a930       ??0?$string_output_adapter@D@__crt_stdio_output@@QAE@QAU?$string_output_adapter_context@D@1@@Z 1004b930 f i libucrtd:output.obj
 0001:0004a950       ??0?$string_output_adapter@_W@__crt_stdio_output@@QAE@QAU?$string_output_adapter_context@_W@1@@Z 1004b950 f i libucrtd:output.obj
 0001:0004a970       ??0_LocaleUpdate@@QAE@QAU__crt_locale_pointers@@@Z 1004b970 f i libucrtd:output.obj
 0001:0004aa40       ??0__acrt_stdio_temporary_buffering_guard@@QAE@QAU_iobuf@@@Z 1004ba40 f i libucrtd:output.obj
 0001:0004aa70       ??0__crt_deferred_errno_cache@@QAE@XZ 1004ba70 f i libucrtd:output.obj
 0001:0004aa90       ??0__crt_errno_guard@@QAE@QAH@Z 1004ba90 f i libucrtd:output.obj
 0001:0004aac0       ??0__crt_stdio_stream@@QAE@QAU_iobuf@@@Z 1004bac0 f i libucrtd:output.obj
 0001:0004aae0       ??0formatting_buffer@__crt_stdio_output@@QAE@XZ 1004bae0 f i libucrtd:output.obj
 0001:0004ab10       ??1?$common_data@D@__crt_stdio_output@@QAE@XZ 1004bb10 f i libucrtd:output.obj
 0001:0004ab30       ??1?$common_data@_W@__crt_stdio_output@@QAE@XZ 1004bb30 f i libucrtd:output.obj
 0001:0004ab50       ??1?$format_validation_base@DV?$stream_output_adapter@D@__crt_stdio_output@@@__crt_stdio_output@@QAE@XZ 1004bb50 f i libucrtd:output.obj
 0001:0004ab70       ??1?$format_validation_base@DV?$string_output_adapter@D@__crt_stdio_output@@@__crt_stdio_output@@QAE@XZ 1004bb70 f i libucrtd:output.obj
 0001:0004ab90       ??1?$format_validation_base@_WV?$stream_output_adapter@_W@__crt_stdio_output@@@__crt_stdio_output@@QAE@XZ 1004bb90 f i libucrtd:output.obj
 0001:0004abb0       ??1?$format_validation_base@_WV?$string_output_adapter@_W@__crt_stdio_output@@@__crt_stdio_output@@QAE@XZ 1004bbb0 f i libucrtd:output.obj
 0001:0004abd0       ??1?$output_adapter_data@DV?$stream_output_adapter@D@__crt_stdio_output@@@__crt_stdio_output@@QAE@XZ 1004bbd0 f i libucrtd:output.obj
 0001:0004abf0       ??1?$output_adapter_data@DV?$string_output_adapter@D@__crt_stdio_output@@@__crt_stdio_output@@QAE@XZ 1004bbf0 f i libucrtd:output.obj
 0001:0004ac10       ??1?$output_adapter_data@_WV?$stream_output_adapter@_W@__crt_stdio_output@@@__crt_stdio_output@@QAE@XZ 1004bc10 f i libucrtd:output.obj
 0001:0004ac30       ??1?$output_adapter_data@_WV?$string_output_adapter@_W@__crt_stdio_output@@@__crt_stdio_output@@QAE@XZ 1004bc30 f i libucrtd:output.obj
 0001:0004ac50       ??1?$output_processor@DV?$stream_output_adapter@D@__crt_stdio_output@@V?$format_validation_base@DV?$stream_output_adapter@D@__crt_stdio_output@@@2@@__crt_stdio_output@@QAE@XZ 1004bc50 f i libucrtd:output.obj
 0001:0004ac70       ??1?$output_processor@DV?$stream_output_adapter@D@__crt_stdio_output@@V?$positional_parameter_base@DV?$stream_output_adapter@D@__crt_stdio_output@@@2@@__crt_stdio_output@@QAE@XZ 1004bc70 f i libucrtd:output.obj
 0001:0004ac90       ??1?$output_processor@DV?$stream_output_adapter@D@__crt_stdio_output@@V?$standard_base@DV?$stream_output_adapter@D@__crt_stdio_output@@@2@@__crt_stdio_output@@QAE@XZ 1004bc90 f i libucrtd:output.obj
 0001:0004acb0       ??1?$output_processor@DV?$string_output_adapter@D@__crt_stdio_output@@V?$format_validation_base@DV?$string_output_adapter@D@__crt_stdio_output@@@2@@__crt_stdio_output@@QAE@XZ 1004bcb0 f i libucrtd:output.obj
 0001:0004acd0       ??1?$output_processor@DV?$string_output_adapter@D@__crt_stdio_output@@V?$positional_parameter_base@DV?$string_output_adapter@D@__crt_stdio_output@@@2@@__crt_stdio_output@@QAE@XZ 1004bcd0 f i libucrtd:output.obj
 0001:0004acf0       ??1?$output_processor@DV?$string_output_adapter@D@__crt_stdio_output@@V?$standard_base@DV?$string_output_adapter@D@__crt_stdio_output@@@2@@__crt_stdio_output@@QAE@XZ 1004bcf0 f i libucrtd:output.obj
 0001:0004ad10       ??1?$output_processor@_WV?$stream_output_adapter@_W@__crt_stdio_output@@V?$format_validation_base@_WV?$stream_output_adapter@_W@__crt_stdio_output@@@2@@__crt_stdio_output@@QAE@XZ 1004bd10 f i libucrtd:output.obj
 0001:0004ad30       ??1?$output_processor@_WV?$stream_output_adapter@_W@__crt_stdio_output@@V?$positional_parameter_base@_WV?$stream_output_adapter@_W@__crt_stdio_output@@@2@@__crt_stdio_output@@QAE@XZ 1004bd30 f i libucrtd:output.obj
 0001:0004ad50       ??1?$output_processor@_WV?$stream_output_adapter@_W@__crt_stdio_output@@V?$standard_base@_WV?$stream_output_adapter@_W@__crt_stdio_output@@@2@@__crt_stdio_output@@QAE@XZ 1004bd50 f i libucrtd:output.obj
 0001:0004ad70       ??1?$output_processor@_WV?$string_output_adapter@_W@__crt_stdio_output@@V?$format_validation_base@_WV?$string_output_adapter@_W@__crt_stdio_output@@@2@@__crt_stdio_output@@QAE@XZ 1004bd70 f i libucrtd:output.obj
 0001:0004ad90       ??1?$output_processor@_WV?$string_output_adapter@_W@__crt_stdio_output@@V?$positional_parameter_base@_WV?$string_output_adapter@_W@__crt_stdio_output@@@2@@__crt_stdio_output@@QAE@XZ 1004bd90 f i libucrtd:output.obj
 0001:0004adb0       ??1?$output_processor@_WV?$string_output_adapter@_W@__crt_stdio_output@@V?$standard_base@_WV?$string_output_adapter@_W@__crt_stdio_output@@@2@@__crt_stdio_output@@QAE@XZ 1004bdb0 f i libucrtd:output.obj
 0001:0004add0       ??1?$positional_parameter_base@DV?$stream_output_adapter@D@__crt_stdio_output@@@__crt_stdio_output@@QAE@XZ 1004bdd0 f i libucrtd:output.obj
 0001:0004adf0       ??1?$positional_parameter_base@DV?$string_output_adapter@D@__crt_stdio_output@@@__crt_stdio_output@@QAE@XZ 1004bdf0 f i libucrtd:output.obj
 0001:0004ae10       ??1?$positional_parameter_base@_WV?$stream_output_adapter@_W@__crt_stdio_output@@@__crt_stdio_output@@QAE@XZ 1004be10 f i libucrtd:output.obj
 0001:0004ae30       ??1?$positional_parameter_base@_WV?$string_output_adapter@_W@__crt_stdio_output@@@__crt_stdio_output@@QAE@XZ 1004be30 f i libucrtd:output.obj
 0001:0004ae50       ??1?$standard_base@DV?$stream_output_adapter@D@__crt_stdio_output@@@__crt_stdio_output@@QAE@XZ 1004be50 f i libucrtd:output.obj
 0001:0004ae70       ??1?$standard_base@DV?$string_output_adapter@D@__crt_stdio_output@@@__crt_stdio_output@@QAE@XZ 1004be70 f i libucrtd:output.obj
 0001:0004ae90       ??1?$standard_base@_WV?$stream_output_adapter@_W@__crt_stdio_output@@@__crt_stdio_output@@QAE@XZ 1004be90 f i libucrtd:output.obj
 0001:0004aeb0       ??1?$standard_base@_WV?$string_output_adapter@_W@__crt_stdio_output@@@__crt_stdio_output@@QAE@XZ 1004beb0 f i libucrtd:output.obj
 0001:0004aed0       ??1_LocaleUpdate@@QAE@XZ   1004bed0 f i libucrtd:output.obj
 0001:0004af00       ??1__acrt_stdio_temporary_buffering_guard@@QAE@XZ 1004bf00 f i libucrtd:output.obj
 0001:0004af30       ??1__crt_errno_guard@@QAE@XZ 1004bf30 f i libucrtd:output.obj
 0001:0004af60       ??1formatting_buffer@__crt_stdio_output@@QAE@XZ 1004bf60 f i libucrtd:output.obj
 0001:0004af80       ??4?$__crt_unique_heap_ptr@DU__crt_internal_free_policy@@@@QAEAAV0@$$QAV0@@Z 1004bf80 f i libucrtd:output.obj
 0001:0004afb0       ??A?$spectre_mitigated_lookup_table@Ustate_transition_pair@__crt_stdio_output@@$0IA@@__crt_stdio_output@@QBEABUstate_transition_pair@1@I@Z 1004bfb0 f i libucrtd:output.obj
 0001:0004afd0       ??C__crt_stdio_stream@@QBEPAU__crt_stdio_stream_data@@XZ 1004bfd0 f i libucrtd:output.obj
 0001:0004b710       ?GetLocaleT@_LocaleUpdate@@QAEPAU__crt_locale_pointers@@XZ 1004c710 f i libucrtd:output.obj
 0001:0004b730       ?adjust_hexit@?$output_processor@DV?$stream_output_adapter@D@__crt_stdio_output@@V?$format_validation_base@DV?$stream_output_adapter@D@__crt_stdio_output@@@2@@__crt_stdio_output@@CADH_N@Z 1004c730 f i libucrtd:output.obj
 0001:0004b770       ?adjust_hexit@?$output_processor@DV?$stream_output_adapter@D@__crt_stdio_output@@V?$positional_parameter_base@DV?$stream_output_adapter@D@__crt_stdio_output@@@2@@__crt_stdio_output@@CADH_N@Z 1004c770 f i libucrtd:output.obj
 0001:0004b7b0       ?adjust_hexit@?$output_processor@DV?$stream_output_adapter@D@__crt_stdio_output@@V?$standard_base@DV?$stream_output_adapter@D@__crt_stdio_output@@@2@@__crt_stdio_output@@CADH_N@Z 1004c7b0 f i libucrtd:output.obj
 0001:0004b7f0       ?adjust_hexit@?$output_processor@DV?$string_output_adapter@D@__crt_stdio_output@@V?$format_validation_base@DV?$string_output_adapter@D@__crt_stdio_output@@@2@@__crt_stdio_output@@CADH_N@Z 1004c7f0 f i libucrtd:output.obj
 0001:0004b830       ?adjust_hexit@?$output_processor@DV?$string_output_adapter@D@__crt_stdio_output@@V?$positional_parameter_base@DV?$string_output_adapter@D@__crt_stdio_output@@@2@@__crt_stdio_output@@CADH_N@Z 1004c830 f i libucrtd:output.obj
 0001:0004b870       ?adjust_hexit@?$output_processor@DV?$string_output_adapter@D@__crt_stdio_output@@V?$standard_base@DV?$string_output_adapter@D@__crt_stdio_output@@@2@@__crt_stdio_output@@CADH_N@Z 1004c870 f i libucrtd:output.obj
 0001:0004b8b0       ?adjust_hexit@?$output_processor@_WV?$stream_output_adapter@_W@__crt_stdio_output@@V?$format_validation_base@_WV?$stream_output_adapter@_W@__crt_stdio_output@@@2@@__crt_stdio_output@@CADH_N@Z 1004c8b0 f i libucrtd:output.obj
 0001:0004b8f0       ?adjust_hexit@?$output_processor@_WV?$stream_output_adapter@_W@__crt_stdio_output@@V?$positional_parameter_base@_WV?$stream_output_adapter@_W@__crt_stdio_output@@@2@@__crt_stdio_output@@CADH_N@Z 1004c8f0 f i libucrtd:output.obj
 0001:0004b930       ?adjust_hexit@?$output_processor@_WV?$stream_output_adapter@_W@__crt_stdio_output@@V?$standard_base@_WV?$stream_output_adapter@_W@__crt_stdio_output@@@2@@__crt_stdio_output@@CADH_N@Z 1004c930 f i libucrtd:output.obj
 0001:0004b970       ?adjust_hexit@?$output_processor@_WV?$string_output_adapter@_W@__crt_stdio_output@@V?$format_validation_base@_WV?$string_output_adapter@_W@__crt_stdio_output@@@2@@__crt_stdio_output@@CADH_N@Z 1004c970 f i libucrtd:output.obj
 0001:0004b9b0       ?adjust_hexit@?$output_processor@_WV?$string_output_adapter@_W@__crt_stdio_output@@V?$positional_parameter_base@_WV?$string_output_adapter@_W@__crt_stdio_output@@@2@@__crt_stdio_output@@CADH_N@Z 1004c9b0 f i libucrtd:output.obj
 0001:0004b9f0       ?adjust_hexit@?$output_processor@_WV?$string_output_adapter@_W@__crt_stdio_output@@V?$standard_base@_WV?$string_output_adapter@_W@__crt_stdio_output@@@2@@__crt_stdio_output@@CADH_N@Z 1004c9f0 f i libucrtd:output.obj
 0001:0004ba30       ?advance_to_next_pass@?$positional_parameter_base@DV?$stream_output_adapter@D@__crt_stdio_output@@@__crt_stdio_output@@IAE_NXZ 1004ca30 f i libucrtd:output.obj
 0001:0004bad0       ?advance_to_next_pass@?$positional_parameter_base@DV?$string_output_adapter@D@__crt_stdio_output@@@__crt_stdio_output@@IAE_NXZ 1004cad0 f i libucrtd:output.obj
 0001:0004bb70       ?advance_to_next_pass@?$positional_parameter_base@_WV?$stream_output_adapter@_W@__crt_stdio_output@@@__crt_stdio_output@@IAE_NXZ 1004cb70 f i libucrtd:output.obj
 0001:0004bc10       ?advance_to_next_pass@?$positional_parameter_base@_WV?$string_output_adapter@_W@__crt_stdio_output@@@__crt_stdio_output@@IAE_NXZ 1004cc10 f i libucrtd:output.obj
 0001:0004bcb0       ?advance_to_next_pass@?$standard_base@DV?$stream_output_adapter@D@__crt_stdio_output@@@__crt_stdio_output@@IAE_NXZ 1004ccb0 f i libucrtd:output.obj
 0001:0004bd00       ?advance_to_next_pass@?$standard_base@DV?$string_output_adapter@D@__crt_stdio_output@@@__crt_stdio_output@@IAE_NXZ 1004cd00 f i libucrtd:output.obj
 0001:0004bd50       ?advance_to_next_pass@?$standard_base@_WV?$stream_output_adapter@_W@__crt_stdio_output@@@__crt_stdio_output@@IAE_NXZ 1004cd50 f i libucrtd:output.obj
 0001:0004bda0       ?advance_to_next_pass@?$standard_base@_WV?$string_output_adapter@_W@__crt_stdio_output@@@__crt_stdio_output@@IAE_NXZ 1004cda0 f i libucrtd:output.obj
 0001:0004bdf0       ?crop_zeroes@__crt_stdio_output@@YAXPADQAU__crt_locale_pointers@@@Z 1004cdf0 f i libucrtd:output.obj
 0001:0004bef0       ?find_next_state@?$output_processor@DV?$stream_output_adapter@D@__crt_stdio_output@@V?$format_validation_base@DV?$stream_output_adapter@D@__crt_stdio_output@@@2@@__crt_stdio_output@@ABE?AW4state@2@DW432@@Z 1004cef0 f i libucrtd:output.obj
 0001:0004bf60       ?find_next_state@?$output_processor@DV?$stream_output_adapter@D@__crt_stdio_output@@V?$positional_parameter_base@DV?$stream_output_adapter@D@__crt_stdio_output@@@2@@__crt_stdio_output@@ABE?AW4state@2@DW432@@Z 1004cf60 f i libucrtd:output.obj
 0001:0004bfd0       ?find_next_state@?$output_processor@DV?$stream_output_adapter@D@__crt_stdio_output@@V?$standard_base@DV?$stream_output_adapter@D@__crt_stdio_output@@@2@@__crt_stdio_output@@ABE?AW4state@2@DW432@@Z 1004cfd0 f i libucrtd:output.obj
 0001:0004c040       ?find_next_state@?$output_processor@DV?$string_output_adapter@D@__crt_stdio_output@@V?$format_validation_base@DV?$string_output_adapter@D@__crt_stdio_output@@@2@@__crt_stdio_output@@ABE?AW4state@2@DW432@@Z 1004d040 f i libucrtd:output.obj
 0001:0004c0b0       ?find_next_state@?$output_processor@DV?$string_output_adapter@D@__crt_stdio_output@@V?$positional_parameter_base@DV?$string_output_adapter@D@__crt_stdio_output@@@2@@__crt_stdio_output@@ABE?AW4state@2@DW432@@Z 1004d0b0 f i libucrtd:output.obj
 0001:0004c120       ?find_next_state@?$output_processor@DV?$string_output_adapter@D@__crt_stdio_output@@V?$standard_base@DV?$string_output_adapter@D@__crt_stdio_output@@@2@@__crt_stdio_output@@ABE?AW4state@2@DW432@@Z 1004d120 f i libucrtd:output.obj
 0001:0004c190       ?find_next_state@?$output_processor@_WV?$stream_output_adapter@_W@__crt_stdio_output@@V?$format_validation_base@_WV?$stream_output_adapter@_W@__crt_stdio_output@@@2@@__crt_stdio_output@@ABE?AW4state@2@_WW432@@Z 1004d190 f i libucrtd:output.obj
 0001:0004c200       ?find_next_state@?$output_processor@_WV?$stream_output_adapter@_W@__crt_stdio_output@@V?$positional_parameter_base@_WV?$stream_output_adapter@_W@__crt_stdio_output@@@2@@__crt_stdio_output@@ABE?AW4state@2@_WW432@@Z 1004d200 f i libucrtd:output.obj
 0001:0004c270       ?find_next_state@?$output_processor@_WV?$stream_output_adapter@_W@__crt_stdio_output@@V?$standard_base@_WV?$stream_output_adapter@_W@__crt_stdio_output@@@2@@__crt_stdio_output@@ABE?AW4state@2@_WW432@@Z 1004d270 f i libucrtd:output.obj
 0001:0004c2e0       ?find_next_state@?$output_processor@_WV?$string_output_adapter@_W@__crt_stdio_output@@V?$format_validation_base@_WV?$string_output_adapter@_W@__crt_stdio_output@@@2@@__crt_stdio_output@@ABE?AW4state@2@_WW432@@Z 1004d2e0 f i libucrtd:output.obj
 0001:0004c350       ?find_next_state@?$output_processor@_WV?$string_output_adapter@_W@__crt_stdio_output@@V?$positional_parameter_base@_WV?$string_output_adapter@_W@__crt_stdio_output@@@2@@__crt_stdio_output@@ABE?AW4state@2@_WW432@@Z 1004d350 f i libucrtd:output.obj
 0001:0004c3c0       ?find_next_state@?$output_processor@_WV?$string_output_adapter@_W@__crt_stdio_output@@V?$standard_base@_WV?$string_output_adapter@_W@__crt_stdio_output@@@2@@__crt_stdio_output@@ABE?AW4state@2@_WW432@@Z 1004d3c0 f i libucrtd:output.obj
 0001:0004c430       ?force_decimal_point@__crt_stdio_output@@YAXPADQAU__crt_locale_pointers@@@Z 1004d430 f i libucrtd:output.obj
 0001:0004c500       ?get@__crt_deferred_errno_cache@@QAEAAHXZ 1004d500 f i libucrtd:output.obj
 0001:0004c530       ?get_flags@__crt_stdio_stream@@QBEJXZ 1004d530 f i libucrtd:output.obj
 0001:0004c550       ?get_parameter_type@?$positional_parameter_base@DV?$stream_output_adapter@D@__crt_stdio_output@@@__crt_stdio_output@@CA?AW4parameter_type@12@F@Z 1004d550 f i libucrtd:output.obj
 0001:0004c560       ?get_parameter_type@?$positional_parameter_base@DV?$stream_output_adapter@D@__crt_stdio_output@@@__crt_stdio_output@@CA?AW4parameter_type@12@G@Z 1004d560 f i libucrtd:output.obj
 0001:0004c570       ?get_parameter_type@?$positional_parameter_base@DV?$stream_output_adapter@D@__crt_stdio_output@@@__crt_stdio_output@@CA?AW4parameter_type@12@H@Z 1004d570 f i libucrtd:output.obj
 0001:0004c580       ?get_parameter_type@?$positional_parameter_base@DV?$stream_output_adapter@D@__crt_stdio_output@@@__crt_stdio_output@@CA?AW4parameter_type@12@I@Z 1004d580 f i libucrtd:output.obj
 0001:0004c590       ?get_parameter_type@?$positional_parameter_base@DV?$stream_output_adapter@D@__crt_stdio_output@@@__crt_stdio_output@@CA?AW4parameter_type@12@U_CRT_DOUBLE@@@Z 1004d590 f i libucrtd:output.obj
 0001:0004c5a0       ?get_parameter_type@?$positional_parameter_base@DV?$stream_output_adapter@D@__crt_stdio_output@@@__crt_stdio_output@@CA?AW4parameter_type@12@_J@Z 1004d5a0 f i libucrtd:output.obj
 0001:0004c5b0       ?get_parameter_type@?$positional_parameter_base@DV?$stream_output_adapter@D@__crt_stdio_output@@@__crt_stdio_output@@CA?AW4parameter_type@12@_K@Z 1004d5b0 f i libucrtd:output.obj
 0001:0004c5c0       ?get_parameter_type@?$positional_parameter_base@DV?$stream_output_adapter@D@__crt_stdio_output@@@__crt_stdio_output@@CA?AW4parameter_type@12@_W@Z 1004d5c0 f i libucrtd:output.obj
 0001:0004c5d0       ?get_parameter_type@?$positional_parameter_base@DV?$string_output_adapter@D@__crt_stdio_output@@@__crt_stdio_output@@CA?AW4parameter_type@12@F@Z 1004d5d0 f i libucrtd:output.obj
 0001:0004c5e0       ?get_parameter_type@?$positional_parameter_base@DV?$string_output_adapter@D@__crt_stdio_output@@@__crt_stdio_output@@CA?AW4parameter_type@12@G@Z 1004d5e0 f i libucrtd:output.obj
 0001:0004c5f0       ?get_parameter_type@?$positional_parameter_base@DV?$string_output_adapter@D@__crt_stdio_output@@@__crt_stdio_output@@CA?AW4parameter_type@12@H@Z 1004d5f0 f i libucrtd:output.obj
 0001:0004c600       ?get_parameter_type@?$positional_parameter_base@DV?$string_output_adapter@D@__crt_stdio_output@@@__crt_stdio_output@@CA?AW4parameter_type@12@I@Z 1004d600 f i libucrtd:output.obj
 0001:0004c610       ?get_parameter_type@?$positional_parameter_base@DV?$string_output_adapter@D@__crt_stdio_output@@@__crt_stdio_output@@CA?AW4parameter_type@12@U_CRT_DOUBLE@@@Z 1004d610 f i libucrtd:output.obj
 0001:0004c620       ?get_parameter_type@?$positional_parameter_base@DV?$string_output_adapter@D@__crt_stdio_output@@@__crt_stdio_output@@CA?AW4parameter_type@12@_J@Z 1004d620 f i libucrtd:output.obj
 0001:0004c630       ?get_parameter_type@?$positional_parameter_base@DV?$string_output_adapter@D@__crt_stdio_output@@@__crt_stdio_output@@CA?AW4parameter_type@12@_K@Z 1004d630 f i libucrtd:output.obj
 0001:0004c640       ?get_parameter_type@?$positional_parameter_base@DV?$string_output_adapter@D@__crt_stdio_output@@@__crt_stdio_output@@CA?AW4parameter_type@12@_W@Z 1004d640 f i libucrtd:output.obj
 0001:0004c650       ?get_parameter_type@?$positional_parameter_base@_WV?$stream_output_adapter@_W@__crt_stdio_output@@@__crt_stdio_output@@CA?AW4parameter_type@12@F@Z 1004d650 f i libucrtd:output.obj
 0001:0004c660       ?get_parameter_type@?$positional_parameter_base@_WV?$stream_output_adapter@_W@__crt_stdio_output@@@__crt_stdio_output@@CA?AW4parameter_type@12@G@Z 1004d660 f i libucrtd:output.obj
 0001:0004c670       ?get_parameter_type@?$positional_parameter_base@_WV?$stream_output_adapter@_W@__crt_stdio_output@@@__crt_stdio_output@@CA?AW4parameter_type@12@H@Z 1004d670 f i libucrtd:output.obj
 0001:0004c680       ?get_parameter_type@?$positional_parameter_base@_WV?$stream_output_adapter@_W@__crt_stdio_output@@@__crt_stdio_output@@CA?AW4parameter_type@12@I@Z 1004d680 f i libucrtd:output.obj
 0001:0004c690       ?get_parameter_type@?$positional_parameter_base@_WV?$stream_output_adapter@_W@__crt_stdio_output@@@__crt_stdio_output@@CA?AW4parameter_type@12@U_CRT_DOUBLE@@@Z 1004d690 f i libucrtd:output.obj
 0001:0004c6a0       ?get_parameter_type@?$positional_parameter_base@_WV?$stream_output_adapter@_W@__crt_stdio_output@@@__crt_stdio_output@@CA?AW4parameter_type@12@_J@Z 1004d6a0 f i libucrtd:output.obj
 0001:0004c6b0       ?get_parameter_type@?$positional_parameter_base@_WV?$stream_output_adapter@_W@__crt_stdio_output@@@__crt_stdio_output@@CA?AW4parameter_type@12@_K@Z 1004d6b0 f i libucrtd:output.obj
 0001:0004c6c0       ?get_parameter_type@?$positional_parameter_base@_WV?$stream_output_adapter@_W@__crt_stdio_output@@@__crt_stdio_output@@CA?AW4parameter_type@12@_W@Z 1004d6c0 f i libucrtd:output.obj
 0001:0004c6d0       ?get_parameter_type@?$positional_parameter_base@_WV?$string_output_adapter@_W@__crt_stdio_output@@@__crt_stdio_output@@CA?AW4parameter_type@12@F@Z 1004d6d0 f i libucrtd:output.obj
 0001:0004c6e0       ?get_parameter_type@?$positional_parameter_base@_WV?$string_output_adapter@_W@__crt_stdio_output@@@__crt_stdio_output@@CA?AW4parameter_type@12@G@Z 1004d6e0 f i libucrtd:output.obj
 0001:0004c6f0       ?get_parameter_type@?$positional_parameter_base@_WV?$string_output_adapter@_W@__crt_stdio_output@@@__crt_stdio_output@@CA?AW4parameter_type@12@H@Z 1004d6f0 f i libucrtd:output.obj
 0001:0004c700       ?get_parameter_type@?$positional_parameter_base@_WV?$string_output_adapter@_W@__crt_stdio_output@@@__crt_stdio_output@@CA?AW4parameter_type@12@I@Z 1004d700 f i libucrtd:output.obj
 0001:0004c710       ?get_parameter_type@?$positional_parameter_base@_WV?$string_output_adapter@_W@__crt_stdio_output@@@__crt_stdio_output@@CA?AW4parameter_type@12@U_CRT_DOUBLE@@@Z 1004d710 f i libucrtd:output.obj
 0001:0004c720       ?get_parameter_type@?$positional_parameter_base@_WV?$string_output_adapter@_W@__crt_stdio_output@@@__crt_stdio_output@@CA?AW4parameter_type@12@_J@Z 1004d720 f i libucrtd:output.obj
 0001:0004c730       ?get_parameter_type@?$positional_parameter_base@_WV?$string_output_adapter@_W@__crt_stdio_output@@@__crt_stdio_output@@CA?AW4parameter_type@12@_K@Z 1004d730 f i libucrtd:output.obj
 0001:0004c740       ?get_parameter_type@?$positional_parameter_base@_WV?$string_output_adapter@_W@__crt_stdio_output@@@__crt_stdio_output@@CA?AW4parameter_type@12@_W@Z 1004d740 f i libucrtd:output.obj
 0001:0004c750       ?has_flag@?$output_processor@DV?$stream_output_adapter@D@__crt_stdio_output@@V?$format_validation_base@DV?$stream_output_adapter@D@__crt_stdio_output@@@2@@__crt_stdio_output@@ABE_NI@Z 1004d750 f i libucrtd:output.obj
 0001:0004c780       ?has_flag@?$output_processor@DV?$stream_output_adapter@D@__crt_stdio_output@@V?$positional_parameter_base@DV?$stream_output_adapter@D@__crt_stdio_output@@@2@@__crt_stdio_output@@ABE_NI@Z 1004d780 f i libucrtd:output.obj
 0001:0004c7b0       ?has_flag@?$output_processor@DV?$stream_output_adapter@D@__crt_stdio_output@@V?$standard_base@DV?$stream_output_adapter@D@__crt_stdio_output@@@2@@__crt_stdio_output@@ABE_NI@Z 1004d7b0 f i libucrtd:output.obj
 0001:0004c7e0       ?has_flag@?$output_processor@DV?$string_output_adapter@D@__crt_stdio_output@@V?$format_validation_base@DV?$string_output_adapter@D@__crt_stdio_output@@@2@@__crt_stdio_output@@ABE_NI@Z 1004d7e0 f i libucrtd:output.obj
 0001:0004c810       ?has_flag@?$output_processor@DV?$string_output_adapter@D@__crt_stdio_output@@V?$positional_parameter_base@DV?$string_output_adapter@D@__crt_stdio_output@@@2@@__crt_stdio_output@@ABE_NI@Z 1004d810 f i libucrtd:output.obj
 0001:0004c840       ?has_flag@?$output_processor@DV?$string_output_adapter@D@__crt_stdio_output@@V?$standard_base@DV?$string_output_adapter@D@__crt_stdio_output@@@2@@__crt_stdio_output@@ABE_NI@Z 1004d840 f i libucrtd:output.obj
 0001:0004c870       ?has_flag@?$output_processor@_WV?$stream_output_adapter@_W@__crt_stdio_output@@V?$format_validation_base@_WV?$stream_output_adapter@_W@__crt_stdio_output@@@2@@__crt_stdio_output@@ABE_NI@Z 1004d870 f i libucrtd:output.obj
 0001:0004c8a0       ?has_flag@?$output_processor@_WV?$stream_output_adapter@_W@__crt_stdio_output@@V?$positional_parameter_base@_WV?$stream_output_adapter@_W@__crt_stdio_output@@@2@@__crt_stdio_output@@ABE_NI@Z 1004d8a0 f i libucrtd:output.obj
 0001:0004c8d0       ?has_flag@?$output_processor@_WV?$stream_output_adapter@_W@__crt_stdio_output@@V?$standard_base@_WV?$stream_output_adapter@_W@__crt_stdio_output@@@2@@__crt_stdio_output@@ABE_NI@Z 1004d8d0 f i libucrtd:output.obj
 0001:0004c900       ?has_flag@?$output_processor@_WV?$string_output_adapter@_W@__crt_stdio_output@@V?$format_validation_base@_WV?$string_output_adapter@_W@__crt_stdio_output@@@2@@__crt_stdio_output@@ABE_NI@Z 1004d900 f i libucrtd:output.obj
 0001:0004c930       ?has_flag@?$output_processor@_WV?$string_output_adapter@_W@__crt_stdio_output@@V?$positional_parameter_base@_WV?$string_output_adapter@_W@__crt_stdio_output@@@2@@__crt_stdio_output@@ABE_NI@Z 1004d930 f i libucrtd:output.obj
 0001:0004c960       ?has_flag@?$output_processor@_WV?$string_output_adapter@_W@__crt_stdio_output@@V?$standard_base@_WV?$string_output_adapter@_W@__crt_stdio_output@@@2@@__crt_stdio_output@@ABE_NI@Z 1004d960 f i libucrtd:output.obj
 0001:0004c990       ?is_positional_parameter_reappearance_consistent@?$positional_parameter_base@DV?$stream_output_adapter@D@__crt_stdio_output@@@__crt_stdio_output@@AAE_NABUparameter_data@12@W4parameter_type@12@DW4length_modifier@2@@Z 1004d990 f i libucrtd:output.obj
 0001:0004cbc0       ?is_positional_parameter_reappearance_consistent@?$positional_parameter_base@DV?$string_output_adapter@D@__crt_stdio_output@@@__crt_stdio_output@@AAE_NABUparameter_data@12@W4parameter_type@12@DW4length_modifier@2@@Z 1004dbc0 f i libucrtd:output.obj
 0001:0004cdf0       ?is_positional_parameter_reappearance_consistent@?$positional_parameter_base@_WV?$stream_output_adapter@_W@__crt_stdio_output@@@__crt_stdio_output@@AAE_NABUparameter_data@12@W4parameter_type@12@_WW4length_modifier@2@@Z 1004ddf0 f i libucrtd:output.obj
 0001:0004d020       ?is_positional_parameter_reappearance_consistent@?$positional_parameter_base@_WV?$string_output_adapter@_W@__crt_stdio_output@@@__crt_stdio_output@@AAE_NABUparameter_data@12@W4parameter_type@12@_WW4length_modifier@2@@Z 1004e020 f i libucrtd:output.obj
 0001:0004d250       ?is_string_backed@__crt_stdio_stream@@QBE_NXZ 1004e250 f i libucrtd:output.obj
 0001:0004d290       ?narrow_null_string@?$output_processor@DV?$stream_output_adapter@D@__crt_stdio_output@@V?$format_validation_base@DV?$stream_output_adapter@D@__crt_stdio_output@@@2@@__crt_stdio_output@@CAPADXZ 1004e290 f i libucrtd:output.obj
 0001:0004d2a0       ?narrow_null_string@?$output_processor@DV?$stream_output_adapter@D@__crt_stdio_output@@V?$positional_parameter_base@DV?$stream_output_adapter@D@__crt_stdio_output@@@2@@__crt_stdio_output@@CAPADXZ 1004e2a0 f i libucrtd:output.obj
 0001:0004d2b0       ?narrow_null_string@?$output_processor@DV?$stream_output_adapter@D@__crt_stdio_output@@V?$standard_base@DV?$stream_output_adapter@D@__crt_stdio_output@@@2@@__crt_stdio_output@@CAPADXZ 1004e2b0 f i libucrtd:output.obj
 0001:0004d2c0       ?narrow_null_string@?$output_processor@DV?$string_output_adapter@D@__crt_stdio_output@@V?$format_validation_base@DV?$string_output_adapter@D@__crt_stdio_output@@@2@@__crt_stdio_output@@CAPADXZ 1004e2c0 f i libucrtd:output.obj
 0001:0004d2d0       ?narrow_null_string@?$output_processor@DV?$string_output_adapter@D@__crt_stdio_output@@V?$positional_parameter_base@DV?$string_output_adapter@D@__crt_stdio_output@@@2@@__crt_stdio_output@@CAPADXZ 1004e2d0 f i libucrtd:output.obj
 0001:0004d2e0       ?narrow_null_string@?$output_processor@DV?$string_output_adapter@D@__crt_stdio_output@@V?$standard_base@DV?$string_output_adapter@D@__crt_stdio_output@@@2@@__crt_stdio_output@@CAPADXZ 1004e2e0 f i libucrtd:output.obj
 0001:0004d2f0       ?narrow_null_string@?$output_processor@_WV?$stream_output_adapter@_W@__crt_stdio_output@@V?$format_validation_base@_WV?$stream_output_adapter@_W@__crt_stdio_output@@@2@@__crt_stdio_output@@CAPADXZ 1004e2f0 f i libucrtd:output.obj
 0001:0004d300       ?narrow_null_string@?$output_processor@_WV?$stream_output_adapter@_W@__crt_stdio_output@@V?$positional_parameter_base@_WV?$stream_output_adapter@_W@__crt_stdio_output@@@2@@__crt_stdio_output@@CAPADXZ 1004e300 f i libucrtd:output.obj
 0001:0004d310       ?narrow_null_string@?$output_processor@_WV?$stream_output_adapter@_W@__crt_stdio_output@@V?$standard_base@_WV?$stream_output_adapter@_W@__crt_stdio_output@@@2@@__crt_stdio_output@@CAPADXZ 1004e310 f i libucrtd:output.obj
 0001:0004d320       ?narrow_null_string@?$output_processor@_WV?$string_output_adapter@_W@__crt_stdio_output@@V?$format_validation_base@_WV?$string_output_adapter@_W@__crt_stdio_output@@@2@@__crt_stdio_output@@CAPADXZ 1004e320 f i libucrtd:output.obj
 0001:0004d330       ?narrow_null_string@?$output_processor@_WV?$string_output_adapter@_W@__crt_stdio_output@@V?$positional_parameter_base@_WV?$string_output_adapter@_W@__crt_stdio_output@@@2@@__crt_stdio_output@@CAPADXZ 1004e330 f i libucrtd:output.obj
 0001:0004d340       ?narrow_null_string@?$output_processor@_WV?$string_output_adapter@_W@__crt_stdio_output@@V?$standard_base@_WV?$string_output_adapter@_W@__crt_stdio_output@@@2@@__crt_stdio_output@@CAPADXZ 1004e340 f i libucrtd:output.obj
 0001:0004d350       ?parse_int_from_format_string@?$output_processor@DV?$stream_output_adapter@D@__crt_stdio_output@@V?$format_validation_base@DV?$stream_output_adapter@D@__crt_stdio_output@@@2@@__crt_stdio_output@@AAE_NQAH@Z 1004e350 f i libucrtd:output.obj
 0001:0004d410       ?parse_int_from_format_string@?$output_processor@DV?$stream_output_adapter@D@__crt_stdio_output@@V?$positional_parameter_base@DV?$stream_output_adapter@D@__crt_stdio_output@@@2@@__crt_stdio_output@@AAE_NQAH@Z 1004e410 f i libucrtd:output.obj
 0001:0004d4d0       ?parse_int_from_format_string@?$output_processor@DV?$stream_output_adapter@D@__crt_stdio_output@@V?$standard_base@DV?$stream_output_adapter@D@__crt_stdio_output@@@2@@__crt_stdio_output@@AAE_NQAH@Z 1004e4d0 f i libucrtd:output.obj
 0001:0004d590       ?parse_int_from_format_string@?$output_processor@DV?$string_output_adapter@D@__crt_stdio_output@@V?$format_validation_base@DV?$string_output_adapter@D@__crt_stdio_output@@@2@@__crt_stdio_output@@AAE_NQAH@Z 1004e590 f i libucrtd:output.obj
 0001:0004d650       ?parse_int_from_format_string@?$output_processor@DV?$string_output_adapter@D@__crt_stdio_output@@V?$positional_parameter_base@DV?$string_output_adapter@D@__crt_stdio_output@@@2@@__crt_stdio_output@@AAE_NQAH@Z 1004e650 f i libucrtd:output.obj
 0001:0004d710       ?parse_int_from_format_string@?$output_processor@DV?$string_output_adapter@D@__crt_stdio_output@@V?$standard_base@DV?$string_output_adapter@D@__crt_stdio_output@@@2@@__crt_stdio_output@@AAE_NQAH@Z 1004e710 f i libucrtd:output.obj
 0001:0004d7d0       ?parse_int_from_format_string@?$output_processor@_WV?$stream_output_adapter@_W@__crt_stdio_output@@V?$format_validation_base@_WV?$stream_output_adapter@_W@__crt_stdio_output@@@2@@__crt_stdio_output@@AAE_NQAH@Z 1004e7d0 f i libucrtd:output.obj
 0001:0004d890       ?parse_int_from_format_string@?$output_processor@_WV?$stream_output_adapter@_W@__crt_stdio_output@@V?$positional_parameter_base@_WV?$stream_output_adapter@_W@__crt_stdio_output@@@2@@__crt_stdio_output@@AAE_NQAH@Z 1004e890 f i libucrtd:output.obj
 0001:0004d950       ?parse_int_from_format_string@?$output_processor@_WV?$stream_output_adapter@_W@__crt_stdio_output@@V?$standard_base@_WV?$stream_output_adapter@_W@__crt_stdio_output@@@2@@__crt_stdio_output@@AAE_NQAH@Z 1004e950 f i libucrtd:output.obj
 0001:0004da10       ?parse_int_from_format_string@?$output_processor@_WV?$string_output_adapter@_W@__crt_stdio_output@@V?$format_validation_base@_WV?$string_output_adapter@_W@__crt_stdio_output@@@2@@__crt_stdio_output@@AAE_NQAH@Z 1004ea10 f i libucrtd:output.obj
 0001:0004dad0       ?parse_int_from_format_string@?$output_processor@_WV?$string_output_adapter@_W@__crt_stdio_output@@V?$positional_parameter_base@_WV?$string_output_adapter@_W@__crt_stdio_output@@@2@@__crt_stdio_output@@AAE_NQAH@Z 1004ead0 f i libucrtd:output.obj
 0001:0004db90       ?parse_int_from_format_string@?$output_processor@_WV?$string_output_adapter@_W@__crt_stdio_output@@V?$standard_base@_WV?$string_output_adapter@_W@__crt_stdio_output@@@2@@__crt_stdio_output@@AAE_NQAH@Z 1004eb90 f i libucrtd:output.obj
 0001:0004dc50       ?process@?$output_processor@DV?$stream_output_adapter@D@__crt_stdio_output@@V?$format_validation_base@DV?$stream_output_adapter@D@__crt_stdio_output@@@2@@__crt_stdio_output@@QAEHXZ 1004ec50 f i libucrtd:output.obj
 0001:0004df00       ?process@?$output_processor@DV?$stream_output_adapter@D@__crt_stdio_output@@V?$positional_parameter_base@DV?$stream_output_adapter@D@__crt_stdio_output@@@2@@__crt_stdio_output@@QAEHXZ 1004ef00 f i libucrtd:output.obj
 0001:0004e1b0       ?process@?$output_processor@DV?$stream_output_adapter@D@__crt_stdio_output@@V?$standard_base@DV?$stream_output_adapter@D@__crt_stdio_output@@@2@@__crt_stdio_output@@QAEHXZ 1004f1b0 f i libucrtd:output.obj
 0001:0004e460       ?process@?$output_processor@DV?$string_output_adapter@D@__crt_stdio_output@@V?$format_validation_base@DV?$string_output_adapter@D@__crt_stdio_output@@@2@@__crt_stdio_output@@QAEHXZ 1004f460 f i libucrtd:output.obj
 0001:0004e710       ?process@?$output_processor@DV?$string_output_adapter@D@__crt_stdio_output@@V?$positional_parameter_base@DV?$string_output_adapter@D@__crt_stdio_output@@@2@@__crt_stdio_output@@QAEHXZ 1004f710 f i libucrtd:output.obj
 0001:0004e9c0       ?process@?$output_processor@DV?$string_output_adapter@D@__crt_stdio_output@@V?$standard_base@DV?$string_output_adapter@D@__crt_stdio_output@@@2@@__crt_stdio_output@@QAEHXZ 1004f9c0 f i libucrtd:output.obj
 0001:0004ec70       ?process@?$output_processor@_WV?$stream_output_adapter@_W@__crt_stdio_output@@V?$format_validation_base@_WV?$stream_output_adapter@_W@__crt_stdio_output@@@2@@__crt_stdio_output@@QAEHXZ 1004fc70 f i libucrtd:output.obj
 0001:0004ef20       ?process@?$output_processor@_WV?$stream_output_adapter@_W@__crt_stdio_output@@V?$positional_parameter_base@_WV?$stream_output_adapter@_W@__crt_stdio_output@@@2@@__crt_stdio_output@@QAEHXZ 1004ff20 f i libucrtd:output.obj
 0001:0004f1d0       ?process@?$output_processor@_WV?$stream_output_adapter@_W@__crt_stdio_output@@V?$standard_base@_WV?$stream_output_adapter@_W@__crt_stdio_output@@@2@@__crt_stdio_output@@QAEHXZ 100501d0 f i libucrtd:output.obj
 0001:0004f480       ?process@?$output_processor@_WV?$string_output_adapter@_W@__crt_stdio_output@@V?$format_validation_base@_WV?$string_output_adapter@_W@__crt_stdio_output@@@2@@__crt_stdio_output@@QAEHXZ 10050480 f i libucrtd:output.obj
 0001:0004f730       ?process@?$output_processor@_WV?$string_output_adapter@_W@__crt_stdio_output@@V?$positional_parameter_base@_WV?$string_output_adapter@_W@__crt_stdio_output@@@2@@__crt_stdio_output@@QAEHXZ 10050730 f i libucrtd:output.obj
 0001:0004f9e0       ?process@?$output_processor@_WV?$string_output_adapter@_W@__crt_stdio_output@@V?$standard_base@_WV?$string_output_adapter@_W@__crt_stdio_output@@@2@@__crt_stdio_output@@QAEHXZ 100509e0 f i libucrtd:output.obj
 0001:0004fc90       ?public_stream@__crt_stdio_stream@@QBEPAU_iobuf@@XZ 10050c90 f i libucrtd:output.obj
 0001:0004fcb0       ?set_flag@?$output_processor@DV?$stream_output_adapter@D@__crt_stdio_output@@V?$format_validation_base@DV?$stream_output_adapter@D@__crt_stdio_output@@@2@@__crt_stdio_output@@AAEXI@Z 10050cb0 f i libucrtd:output.obj
 0001:0004fcd0       ?set_flag@?$output_processor@DV?$stream_output_adapter@D@__crt_stdio_output@@V?$positional_parameter_base@DV?$stream_output_adapter@D@__crt_stdio_output@@@2@@__crt_stdio_output@@AAEXI@Z 10050cd0 f i libucrtd:output.obj
 0001:0004fcf0       ?set_flag@?$output_processor@DV?$stream_output_adapter@D@__crt_stdio_output@@V?$standard_base@DV?$stream_output_adapter@D@__crt_stdio_output@@@2@@__crt_stdio_output@@AAEXI@Z 10050cf0 f i libucrtd:output.obj
 0001:0004fd10       ?set_flag@?$output_processor@DV?$string_output_adapter@D@__crt_stdio_output@@V?$format_validation_base@DV?$string_output_adapter@D@__crt_stdio_output@@@2@@__crt_stdio_output@@AAEXI@Z 10050d10 f i libucrtd:output.obj
 0001:0004fd30       ?set_flag@?$output_processor@DV?$string_output_adapter@D@__crt_stdio_output@@V?$positional_parameter_base@DV?$string_output_adapter@D@__crt_stdio_output@@@2@@__crt_stdio_output@@AAEXI@Z 10050d30 f i libucrtd:output.obj
 0001:0004fd50       ?set_flag@?$output_processor@DV?$string_output_adapter@D@__crt_stdio_output@@V?$standard_base@DV?$string_output_adapter@D@__crt_stdio_output@@@2@@__crt_stdio_output@@AAEXI@Z 10050d50 f i libucrtd:output.obj
 0001:0004fd70       ?set_flag@?$output_processor@_WV?$stream_output_adapter@_W@__crt_stdio_output@@V?$format_validation_base@_WV?$stream_output_adapter@_W@__crt_stdio_output@@@2@@__crt_stdio_output@@AAEXI@Z 10050d70 f i libucrtd:output.obj
 0001:0004fd90       ?set_flag@?$output_processor@_WV?$stream_output_adapter@_W@__crt_stdio_output@@V?$positional_parameter_base@_WV?$stream_output_adapter@_W@__crt_stdio_output@@@2@@__crt_stdio_output@@AAEXI@Z 10050d90 f i libucrtd:output.obj
 0001:0004fdb0       ?set_flag@?$output_processor@_WV?$stream_output_adapter@_W@__crt_stdio_output@@V?$standard_base@_WV?$stream_output_adapter@_W@__crt_stdio_output@@@2@@__crt_stdio_output@@AAEXI@Z 10050db0 f i libucrtd:output.obj
 0001:0004fdd0       ?set_flag@?$output_processor@_WV?$string_output_adapter@_W@__crt_stdio_output@@V?$format_validation_base@_WV?$string_output_adapter@_W@__crt_stdio_output@@@2@@__crt_stdio_output@@AAEXI@Z 10050dd0 f i libucrtd:output.obj
 0001:0004fdf0       ?set_flag@?$output_processor@_WV?$string_output_adapter@_W@__crt_stdio_output@@V?$positional_parameter_base@_WV?$string_output_adapter@_W@__crt_stdio_output@@@2@@__crt_stdio_output@@AAEXI@Z 10050df0 f i libucrtd:output.obj
 0001:0004fe10       ?set_flag@?$output_processor@_WV?$string_output_adapter@_W@__crt_stdio_output@@V?$standard_base@_WV?$string_output_adapter@_W@__crt_stdio_output@@@2@@__crt_stdio_output@@AAEXI@Z 10050e10 f i libucrtd:output.obj
 0001:0004fe30       ?should_format@?$positional_parameter_base@DV?$stream_output_adapter@D@__crt_stdio_output@@@__crt_stdio_output@@IAE_NXZ 10050e30 f i libucrtd:output.obj
 0001:0004fe70       ?should_format@?$positional_parameter_base@DV?$string_output_adapter@D@__crt_stdio_output@@@__crt_stdio_output@@IAE_NXZ 10050e70 f i libucrtd:output.obj
 0001:0004feb0       ?should_format@?$positional_parameter_base@_WV?$stream_output_adapter@_W@__crt_stdio_output@@@__crt_stdio_output@@IAE_NXZ 10050eb0 f i libucrtd:output.obj
 0001:0004fef0       ?should_format@?$positional_parameter_base@_WV?$string_output_adapter@_W@__crt_stdio_output@@@__crt_stdio_output@@IAE_NXZ 10050ef0 f i libucrtd:output.obj
 0001:0004ff30       ?should_format@?$standard_base@DV?$stream_output_adapter@D@__crt_stdio_output@@@__crt_stdio_output@@IAE_NXZ 10050f30 f i libucrtd:output.obj
 0001:0004ff40       ?should_format@?$standard_base@DV?$string_output_adapter@D@__crt_stdio_output@@@__crt_stdio_output@@IAE_NXZ 10050f40 f i libucrtd:output.obj
 0001:0004ff50       ?should_format@?$standard_base@_WV?$stream_output_adapter@_W@__crt_stdio_output@@@__crt_stdio_output@@IAE_NXZ 10050f50 f i libucrtd:output.obj
 0001:0004ff60       ?should_format@?$standard_base@_WV?$string_output_adapter@_W@__crt_stdio_output@@@__crt_stdio_output@@IAE_NXZ 10050f60 f i libucrtd:output.obj
 0001:0004ff70       ?should_skip_normal_state_processing@?$positional_parameter_base@DV?$stream_output_adapter@D@__crt_stdio_output@@@__crt_stdio_output@@IAE_NXZ 10050f70 f i libucrtd:output.obj
 0001:0004ffc0       ?should_skip_normal_state_processing@?$positional_parameter_base@DV?$string_output_adapter@D@__crt_stdio_output@@@__crt_stdio_output@@IAE_NXZ 10050fc0 f i libucrtd:output.obj
 0001:00050010       ?should_skip_normal_state_processing@?$positional_parameter_base@_WV?$stream_output_adapter@_W@__crt_stdio_output@@@__crt_stdio_output@@IAE_NXZ 10051010 f i libucrtd:output.obj
 0001:00050060       ?should_skip_normal_state_processing@?$positional_parameter_base@_WV?$string_output_adapter@_W@__crt_stdio_output@@@__crt_stdio_output@@IAE_NXZ 10051060 f i libucrtd:output.obj
 0001:000500b0       ?should_skip_normal_state_processing@?$standard_base@DV?$stream_output_adapter@D@__crt_stdio_output@@@__crt_stdio_output@@IAE_NXZ 100510b0 f i libucrtd:output.obj
 0001:000500c0       ?should_skip_normal_state_processing@?$standard_base@DV?$string_output_adapter@D@__crt_stdio_output@@@__crt_stdio_output@@IAE_NXZ 100510c0 f i libucrtd:output.obj
 0001:000500d0       ?should_skip_normal_state_processing@?$standard_base@_WV?$stream_output_adapter@_W@__crt_stdio_output@@@__crt_stdio_output@@IAE_NXZ 100510d0 f i libucrtd:output.obj
 0001:000500e0       ?should_skip_normal_state_processing@?$standard_base@_WV?$string_output_adapter@_W@__crt_stdio_output@@@__crt_stdio_output@@IAE_NXZ 100510e0 f i libucrtd:output.obj
 0001:000500f0       ?should_skip_type_state_output@?$positional_parameter_base@DV?$stream_output_adapter@D@__crt_stdio_output@@@__crt_stdio_output@@IBE_NXZ 100510f0 f i libucrtd:output.obj
 0001:00050130       ?should_skip_type_state_output@?$positional_parameter_base@DV?$string_output_adapter@D@__crt_stdio_output@@@__crt_stdio_output@@IBE_NXZ 10051130 f i libucrtd:output.obj
 0001:00050170       ?should_skip_type_state_output@?$positional_parameter_base@_WV?$stream_output_adapter@_W@__crt_stdio_output@@@__crt_stdio_output@@IBE_NXZ 10051170 f i libucrtd:output.obj
 0001:000501b0       ?should_skip_type_state_output@?$positional_parameter_base@_WV?$string_output_adapter@_W@__crt_stdio_output@@@__crt_stdio_output@@IBE_NXZ 100511b0 f i libucrtd:output.obj
 0001:000501f0       ?should_skip_type_state_output@?$standard_base@DV?$stream_output_adapter@D@__crt_stdio_output@@@__crt_stdio_output@@IBE_NXZ 100511f0 f i libucrtd:output.obj
 0001:00050200       ?should_skip_type_state_output@?$standard_base@DV?$string_output_adapter@D@__crt_stdio_output@@@__crt_stdio_output@@IBE_NXZ 10051200 f i libucrtd:output.obj
 0001:00050210       ?should_skip_type_state_output@?$standard_base@_WV?$stream_output_adapter@_W@__crt_stdio_output@@@__crt_stdio_output@@IBE_NXZ 10051210 f i libucrtd:output.obj
 0001:00050220       ?should_skip_type_state_output@?$standard_base@_WV?$string_output_adapter@_W@__crt_stdio_output@@@__crt_stdio_output@@IBE_NXZ 10051220 f i libucrtd:output.obj
 0001:00050230       ?state_case_dot@?$output_processor@DV?$stream_output_adapter@D@__crt_stdio_output@@V?$format_validation_base@DV?$stream_output_adapter@D@__crt_stdio_output@@@2@@__crt_stdio_output@@AAE_NXZ 10051230 f i libucrtd:output.obj
 0001:00050250       ?state_case_dot@?$output_processor@DV?$stream_output_adapter@D@__crt_stdio_output@@V?$positional_parameter_base@DV?$stream_output_adapter@D@__crt_stdio_output@@@2@@__crt_stdio_output@@AAE_NXZ 10051250 f i libucrtd:output.obj
 0001:00050270       ?state_case_dot@?$output_processor@DV?$stream_output_adapter@D@__crt_stdio_output@@V?$standard_base@DV?$stream_output_adapter@D@__crt_stdio_output@@@2@@__crt_stdio_output@@AAE_NXZ 10051270 f i libucrtd:output.obj
 0001:00050290       ?state_case_dot@?$output_processor@DV?$string_output_adapter@D@__crt_stdio_output@@V?$format_validation_base@DV?$string_output_adapter@D@__crt_stdio_output@@@2@@__crt_stdio_output@@AAE_NXZ 10051290 f i libucrtd:output.obj
 0001:000502b0       ?state_case_dot@?$output_processor@DV?$string_output_adapter@D@__crt_stdio_output@@V?$positional_parameter_base@DV?$string_output_adapter@D@__crt_stdio_output@@@2@@__crt_stdio_output@@AAE_NXZ 100512b0 f i libucrtd:output.obj
 0001:000502d0       ?state_case_dot@?$output_processor@DV?$string_output_adapter@D@__crt_stdio_output@@V?$standard_base@DV?$string_output_adapter@D@__crt_stdio_output@@@2@@__crt_stdio_output@@AAE_NXZ 100512d0 f i libucrtd:output.obj
 0001:000502f0       ?state_case_dot@?$output_processor@_WV?$stream_output_adapter@_W@__crt_stdio_output@@V?$format_validation_base@_WV?$stream_output_adapter@_W@__crt_stdio_output@@@2@@__crt_stdio_output@@AAE_NXZ 100512f0 f i libucrtd:output.obj
 0001:00050310       ?state_case_dot@?$output_processor@_WV?$stream_output_adapter@_W@__crt_stdio_output@@V?$positional_parameter_base@_WV?$stream_output_adapter@_W@__crt_stdio_output@@@2@@__crt_stdio_output@@AAE_NXZ 10051310 f i libucrtd:output.obj
 0001:00050330       ?state_case_dot@?$output_processor@_WV?$stream_output_adapter@_W@__crt_stdio_output@@V?$standard_base@_WV?$stream_output_adapter@_W@__crt_stdio_output@@@2@@__crt_stdio_output@@AAE_NXZ 10051330 f i libucrtd:output.obj
 0001:00050350       ?state_case_dot@?$output_processor@_WV?$string_output_adapter@_W@__crt_stdio_output@@V?$format_validation_base@_WV?$string_output_adapter@_W@__crt_stdio_output@@@2@@__crt_stdio_output@@AAE_NXZ 10051350 f i libucrtd:output.obj
 0001:00050370       ?state_case_dot@?$output_processor@_WV?$string_output_adapter@_W@__crt_stdio_output@@V?$positional_parameter_base@_WV?$string_output_adapter@_W@__crt_stdio_output@@@2@@__crt_stdio_output@@AAE_NXZ 10051370 f i libucrtd:output.obj
 0001:00050390       ?state_case_dot@?$output_processor@_WV?$string_output_adapter@_W@__crt_stdio_output@@V?$standard_base@_WV?$string_output_adapter@_W@__crt_stdio_output@@@2@@__crt_stdio_output@@AAE_NXZ 10051390 f i libucrtd:output.obj
 0001:000503b0       ?state_case_flag@?$output_processor@DV?$stream_output_adapter@D@__crt_stdio_output@@V?$format_validation_base@DV?$stream_output_adapter@D@__crt_stdio_output@@@2@@__crt_stdio_output@@AAE_NXZ 100513b0 f i libucrtd:output.obj
 0001:00050460       ?state_case_flag@?$output_processor@DV?$stream_output_adapter@D@__crt_stdio_output@@V?$positional_parameter_base@DV?$stream_output_adapter@D@__crt_stdio_output@@@2@@__crt_stdio_output@@AAE_NXZ 10051460 f i libucrtd:output.obj
 0001:00050510       ?state_case_flag@?$output_processor@DV?$stream_output_adapter@D@__crt_stdio_output@@V?$standard_base@DV?$stream_output_adapter@D@__crt_stdio_output@@@2@@__crt_stdio_output@@AAE_NXZ 10051510 f i libucrtd:output.obj
 0001:000505c0       ?state_case_flag@?$output_processor@DV?$string_output_adapter@D@__crt_stdio_output@@V?$format_validation_base@DV?$string_output_adapter@D@__crt_stdio_output@@@2@@__crt_stdio_output@@AAE_NXZ 100515c0 f i libucrtd:output.obj
 0001:00050670       ?state_case_flag@?$output_processor@DV?$string_output_adapter@D@__crt_stdio_output@@V?$positional_parameter_base@DV?$string_output_adapter@D@__crt_stdio_output@@@2@@__crt_stdio_output@@AAE_NXZ 10051670 f i libucrtd:output.obj
 0001:00050720       ?state_case_flag@?$output_processor@DV?$string_output_adapter@D@__crt_stdio_output@@V?$standard_base@DV?$string_output_adapter@D@__crt_stdio_output@@@2@@__crt_stdio_output@@AAE_NXZ 10051720 f i libucrtd:output.obj
 0001:000507d0       ?state_case_flag@?$output_processor@_WV?$stream_output_adapter@_W@__crt_stdio_output@@V?$format_validation_base@_WV?$stream_output_adapter@_W@__crt_stdio_output@@@2@@__crt_stdio_output@@AAE_NXZ 100517d0 f i libucrtd:output.obj
 0001:00050880       ?state_case_flag@?$output_processor@_WV?$stream_output_adapter@_W@__crt_stdio_output@@V?$positional_parameter_base@_WV?$stream_output_adapter@_W@__crt_stdio_output@@@2@@__crt_stdio_output@@AAE_NXZ 10051880 f i libucrtd:output.obj
 0001:00050930       ?state_case_flag@?$output_processor@_WV?$stream_output_adapter@_W@__crt_stdio_output@@V?$standard_base@_WV?$stream_output_adapter@_W@__crt_stdio_output@@@2@@__crt_stdio_output@@AAE_NXZ 10051930 f i libucrtd:output.obj
 0001:000509e0       ?state_case_flag@?$output_processor@_WV?$string_output_adapter@_W@__crt_stdio_output@@V?$format_validation_base@_WV?$string_output_adapter@_W@__crt_stdio_output@@@2@@__crt_stdio_output@@AAE_NXZ 100519e0 f i libucrtd:output.obj
 0001:00050a90       ?state_case_flag@?$output_processor@_WV?$string_output_adapter@_W@__crt_stdio_output@@V?$positional_parameter_base@_WV?$string_output_adapter@_W@__crt_stdio_output@@@2@@__crt_stdio_output@@AAE_NXZ 10051a90 f i libucrtd:output.obj
 0001:00050b40       ?state_case_flag@?$output_processor@_WV?$string_output_adapter@_W@__crt_stdio_output@@V?$standard_base@_WV?$string_output_adapter@_W@__crt_stdio_output@@@2@@__crt_stdio_output@@AAE_NXZ 10051b40 f i libucrtd:output.obj
 0001:00050bf0       ?state_case_normal@?$output_processor@DV?$stream_output_adapter@D@__crt_stdio_output@@V?$format_validation_base@DV?$stream_output_adapter@D@__crt_stdio_output@@@2@@__crt_stdio_output@@AAE_NXZ 10051bf0 f i libucrtd:output.obj
 0001:00050ca0       ?state_case_normal@?$output_processor@DV?$stream_output_adapter@D@__crt_stdio_output@@V?$positional_parameter_base@DV?$stream_output_adapter@D@__crt_stdio_output@@@2@@__crt_stdio_output@@AAE_NXZ 10051ca0 f i libucrtd:output.obj
 0001:00050d50       ?state_case_normal@?$output_processor@DV?$stream_output_adapter@D@__crt_stdio_output@@V?$standard_base@DV?$stream_output_adapter@D@__crt_stdio_output@@@2@@__crt_stdio_output@@AAE_NXZ 10051d50 f i libucrtd:output.obj
 0001:00050e00       ?state_case_normal@?$output_processor@DV?$string_output_adapter@D@__crt_stdio_output@@V?$format_validation_base@DV?$string_output_adapter@D@__crt_stdio_output@@@2@@__crt_stdio_output@@AAE_NXZ 10051e00 f i libucrtd:output.obj
 0001:00050eb0       ?state_case_normal@?$output_processor@DV?$string_output_adapter@D@__crt_stdio_output@@V?$positional_parameter_base@DV?$string_output_adapter@D@__crt_stdio_output@@@2@@__crt_stdio_output@@AAE_NXZ 10051eb0 f i libucrtd:output.obj
 0001:00050f60       ?state_case_normal@?$output_processor@DV?$string_output_adapter@D@__crt_stdio_output@@V?$standard_base@DV?$string_output_adapter@D@__crt_stdio_output@@@2@@__crt_stdio_output@@AAE_NXZ 10051f60 f i libucrtd:output.obj
 0001:00051010       ?state_case_normal@?$output_processor@_WV?$stream_output_adapter@_W@__crt_stdio_output@@V?$format_validation_base@_WV?$stream_output_adapter@_W@__crt_stdio_output@@@2@@__crt_stdio_output@@AAE_NXZ 10052010 f i libucrtd:output.obj
 0001:000510c0       ?state_case_normal@?$output_processor@_WV?$stream_output_adapter@_W@__crt_stdio_output@@V?$positional_parameter_base@_WV?$stream_output_adapter@_W@__crt_stdio_output@@@2@@__crt_stdio_output@@AAE_NXZ 100520c0 f i libucrtd:output.obj
 0001:00051170       ?state_case_normal@?$output_processor@_WV?$stream_output_adapter@_W@__crt_stdio_output@@V?$standard_base@_WV?$stream_output_adapter@_W@__crt_stdio_output@@@2@@__crt_stdio_output@@AAE_NXZ 10052170 f i libucrtd:output.obj
 0001:00051220       ?state_case_normal@?$output_processor@_WV?$string_output_adapter@_W@__crt_stdio_output@@V?$format_validation_base@_WV?$string_output_adapter@_W@__crt_stdio_output@@@2@@__crt_stdio_output@@AAE_NXZ 10052220 f i libucrtd:output.obj
 0001:000512d0       ?state_case_normal@?$output_processor@_WV?$string_output_adapter@_W@__crt_stdio_output@@V?$positional_parameter_base@_WV?$string_output_adapter@_W@__crt_stdio_output@@@2@@__crt_stdio_output@@AAE_NXZ 100522d0 f i libucrtd:output.obj
 0001:00051380       ?state_case_normal@?$output_processor@_WV?$string_output_adapter@_W@__crt_stdio_output@@V?$standard_base@_WV?$string_output_adapter@_W@__crt_stdio_output@@@2@@__crt_stdio_output@@AAE_NXZ 10052380 f i libucrtd:output.obj
 0001:00051430       ?state_case_normal_common@?$output_processor@DV?$stream_output_adapter@D@__crt_stdio_output@@V?$format_validation_base@DV?$stream_output_adapter@D@__crt_stdio_output@@@2@@__crt_stdio_output@@AAE_NXZ 10052430 f i libucrtd:output.obj
 0001:00051480       ?state_case_normal_common@?$output_processor@DV?$stream_output_adapter@D@__crt_stdio_output@@V?$positional_parameter_base@DV?$stream_output_adapter@D@__crt_stdio_output@@@2@@__crt_stdio_output@@AAE_NXZ 10052480 f i libucrtd:output.obj
 0001:000514d0       ?state_case_normal_common@?$output_processor@DV?$stream_output_adapter@D@__crt_stdio_output@@V?$standard_base@DV?$stream_output_adapter@D@__crt_stdio_output@@@2@@__crt_stdio_output@@AAE_NXZ 100524d0 f i libucrtd:output.obj
 0001:00051520       ?state_case_normal_common@?$output_processor@DV?$string_output_adapter@D@__crt_stdio_output@@V?$format_validation_base@DV?$string_output_adapter@D@__crt_stdio_output@@@2@@__crt_stdio_output@@AAE_NXZ 10052520 f i libucrtd:output.obj
 0001:00051570       ?state_case_normal_common@?$output_processor@DV?$string_output_adapter@D@__crt_stdio_output@@V?$positional_parameter_base@DV?$string_output_adapter@D@__crt_stdio_output@@@2@@__crt_stdio_output@@AAE_NXZ 10052570 f i libucrtd:output.obj
 0001:000515c0       ?state_case_normal_common@?$output_processor@DV?$string_output_adapter@D@__crt_stdio_output@@V?$standard_base@DV?$string_output_adapter@D@__crt_stdio_output@@@2@@__crt_stdio_output@@AAE_NXZ 100525c0 f i libucrtd:output.obj
 0001:00051610       ?state_case_normal_common@?$output_processor@_WV?$stream_output_adapter@_W@__crt_stdio_output@@V?$format_validation_base@_WV?$stream_output_adapter@_W@__crt_stdio_output@@@2@@__crt_stdio_output@@AAE_NXZ 10052610 f i libucrtd:output.obj
 0001:00051660       ?state_case_normal_common@?$output_processor@_WV?$stream_output_adapter@_W@__crt_stdio_output@@V?$positional_parameter_base@_WV?$stream_output_adapter@_W@__crt_stdio_output@@@2@@__crt_stdio_output@@AAE_NXZ 10052660 f i libucrtd:output.obj
 0001:000516b0       ?state_case_normal_common@?$output_processor@_WV?$stream_output_adapter@_W@__crt_stdio_output@@V?$standard_base@_WV?$stream_output_adapter@_W@__crt_stdio_output@@@2@@__crt_stdio_output@@AAE_NXZ 100526b0 f i libucrtd:output.obj
 0001:00051700       ?state_case_normal_common@?$output_processor@_WV?$string_output_adapter@_W@__crt_stdio_output@@V?$format_validation_base@_WV?$string_output_adapter@_W@__crt_stdio_output@@@2@@__crt_stdio_output@@AAE_NXZ 10052700 f i libucrtd:output.obj
 0001:00051750       ?state_case_normal_common@?$output_processor@_WV?$string_output_adapter@_W@__crt_stdio_output@@V?$positional_parameter_base@_WV?$string_output_adapter@_W@__crt_stdio_output@@@2@@__crt_stdio_output@@AAE_NXZ 10052750 f i libucrtd:output.obj
 0001:000517a0       ?state_case_normal_common@?$output_processor@_WV?$string_output_adapter@_W@__crt_stdio_output@@V?$standard_base@_WV?$string_output_adapter@_W@__crt_stdio_output@@@2@@__crt_stdio_output@@AAE_NXZ 100527a0 f i libucrtd:output.obj
 0001:000517f0       ?state_case_normal_tchar@?$output_processor@DV?$stream_output_adapter@D@__crt_stdio_output@@V?$format_validation_base@DV?$stream_output_adapter@D@__crt_stdio_output@@@2@@__crt_stdio_output@@AAE_ND@Z 100527f0 f i libucrtd:output.obj
 0001:000518f0       ?state_case_normal_tchar@?$output_processor@DV?$stream_output_adapter@D@__crt_stdio_output@@V?$positional_parameter_base@DV?$stream_output_adapter@D@__crt_stdio_output@@@2@@__crt_stdio_output@@AAE_ND@Z 100528f0 f i libucrtd:output.obj
 0001:000519f0       ?state_case_normal_tchar@?$output_processor@DV?$stream_output_adapter@D@__crt_stdio_output@@V?$standard_base@DV?$stream_output_adapter@D@__crt_stdio_output@@@2@@__crt_stdio_output@@AAE_ND@Z 100529f0 f i libucrtd:output.obj
 0001:00051af0       ?state_case_normal_tchar@?$output_processor@DV?$string_output_adapter@D@__crt_stdio_output@@V?$format_validation_base@DV?$string_output_adapter@D@__crt_stdio_output@@@2@@__crt_stdio_output@@AAE_ND@Z 10052af0 f i libucrtd:output.obj
 0001:00051bf0       ?state_case_normal_tchar@?$output_processor@DV?$string_output_adapter@D@__crt_stdio_output@@V?$positional_parameter_base@DV?$string_output_adapter@D@__crt_stdio_output@@@2@@__crt_stdio_output@@AAE_ND@Z 10052bf0 f i libucrtd:output.obj
 0001:00051cf0       ?state_case_normal_tchar@?$output_processor@DV?$string_output_adapter@D@__crt_stdio_output@@V?$standard_base@DV?$string_output_adapter@D@__crt_stdio_output@@@2@@__crt_stdio_output@@AAE_ND@Z 10052cf0 f i libucrtd:output.obj
 0001:00051df0       ?state_case_normal_tchar@?$output_processor@_WV?$stream_output_adapter@_W@__crt_stdio_output@@V?$format_validation_base@_WV?$stream_output_adapter@_W@__crt_stdio_output@@@2@@__crt_stdio_output@@AAE_N_W@Z 10052df0 f i libucrtd:output.obj
 0001:00051e10       ?state_case_normal_tchar@?$output_processor@_WV?$stream_output_adapter@_W@__crt_stdio_output@@V?$positional_parameter_base@_WV?$stream_output_adapter@_W@__crt_stdio_output@@@2@@__crt_stdio_output@@AAE_N_W@Z 10052e10 f i libucrtd:output.obj
 0001:00051e30       ?state_case_normal_tchar@?$output_processor@_WV?$stream_output_adapter@_W@__crt_stdio_output@@V?$standard_base@_WV?$stream_output_adapter@_W@__crt_stdio_output@@@2@@__crt_stdio_output@@AAE_N_W@Z 10052e30 f i libucrtd:output.obj
 0001:00051e50       ?state_case_normal_tchar@?$output_processor@_WV?$string_output_adapter@_W@__crt_stdio_output@@V?$format_validation_base@_WV?$string_output_adapter@_W@__crt_stdio_output@@@2@@__crt_stdio_output@@AAE_N_W@Z 10052e50 f i libucrtd:output.obj
 0001:00051e70       ?state_case_normal_tchar@?$output_processor@_WV?$string_output_adapter@_W@__crt_stdio_output@@V?$positional_parameter_base@_WV?$string_output_adapter@_W@__crt_stdio_output@@@2@@__crt_stdio_output@@AAE_N_W@Z 10052e70 f i libucrtd:output.obj
 0001:00051e90       ?state_case_normal_tchar@?$output_processor@_WV?$string_output_adapter@_W@__crt_stdio_output@@V?$standard_base@_WV?$string_output_adapter@_W@__crt_stdio_output@@@2@@__crt_stdio_output@@AAE_N_W@Z 10052e90 f i libucrtd:output.obj
 0001:00051eb0       ?state_case_percent@?$output_processor@DV?$stream_output_adapter@D@__crt_stdio_output@@V?$format_validation_base@DV?$stream_output_adapter@D@__crt_stdio_output@@@2@@__crt_stdio_output@@AAE_NXZ 10052eb0 f i libucrtd:output.obj
 0001:00051f00       ?state_case_percent@?$output_processor@DV?$stream_output_adapter@D@__crt_stdio_output@@V?$positional_parameter_base@DV?$stream_output_adapter@D@__crt_stdio_output@@@2@@__crt_stdio_output@@AAE_NXZ 10052f00 f i libucrtd:output.obj
 0001:00051f50       ?state_case_percent@?$output_processor@DV?$stream_output_adapter@D@__crt_stdio_output@@V?$standard_base@DV?$stream_output_adapter@D@__crt_stdio_output@@@2@@__crt_stdio_output@@AAE_NXZ 10052f50 f i libucrtd:output.obj
 0001:00051fa0       ?state_case_percent@?$output_processor@DV?$string_output_adapter@D@__crt_stdio_output@@V?$format_validation_base@DV?$string_output_adapter@D@__crt_stdio_output@@@2@@__crt_stdio_output@@AAE_NXZ 10052fa0 f i libucrtd:output.obj
 0001:00051ff0       ?state_case_percent@?$output_processor@DV?$string_output_adapter@D@__crt_stdio_output@@V?$positional_parameter_base@DV?$string_output_adapter@D@__crt_stdio_output@@@2@@__crt_stdio_output@@AAE_NXZ 10052ff0 f i libucrtd:output.obj
 0001:00052040       ?state_case_percent@?$output_processor@DV?$string_output_adapter@D@__crt_stdio_output@@V?$standard_base@DV?$string_output_adapter@D@__crt_stdio_output@@@2@@__crt_stdio_output@@AAE_NXZ 10053040 f i libucrtd:output.obj
 0001:00052090       ?state_case_percent@?$output_processor@_WV?$stream_output_adapter@_W@__crt_stdio_output@@V?$format_validation_base@_WV?$stream_output_adapter@_W@__crt_stdio_output@@@2@@__crt_stdio_output@@AAE_NXZ 10053090 f i libucrtd:output.obj
 0001:000520e0       ?state_case_percent@?$output_processor@_WV?$stream_output_adapter@_W@__crt_stdio_output@@V?$positional_parameter_base@_WV?$stream_output_adapter@_W@__crt_stdio_output@@@2@@__crt_stdio_output@@AAE_NXZ 100530e0 f i libucrtd:output.obj
 0001:00052130       ?state_case_percent@?$output_processor@_WV?$stream_output_adapter@_W@__crt_stdio_output@@V?$standard_base@_WV?$stream_output_adapter@_W@__crt_stdio_output@@@2@@__crt_stdio_output@@AAE_NXZ 10053130 f i libucrtd:output.obj
 0001:00052180       ?state_case_percent@?$output_processor@_WV?$string_output_adapter@_W@__crt_stdio_output@@V?$format_validation_base@_WV?$string_output_adapter@_W@__crt_stdio_output@@@2@@__crt_stdio_output@@AAE_NXZ 10053180 f i libucrtd:output.obj
 0001:000521d0       ?state_case_percent@?$output_processor@_WV?$string_output_adapter@_W@__crt_stdio_output@@V?$positional_parameter_base@_WV?$string_output_adapter@_W@__crt_stdio_output@@@2@@__crt_stdio_output@@AAE_NXZ 100531d0 f i libucrtd:output.obj
 0001:00052220       ?state_case_percent@?$output_processor@_WV?$string_output_adapter@_W@__crt_stdio_output@@V?$standard_base@_WV?$string_output_adapter@_W@__crt_stdio_output@@@2@@__crt_stdio_output@@AAE_NXZ 10053220 f i libucrtd:output.obj
 0001:00052270       ?state_case_precision@?$output_processor@DV?$stream_output_adapter@D@__crt_stdio_output@@V?$format_validation_base@DV?$stream_output_adapter@D@__crt_stdio_output@@@2@@__crt_stdio_output@@AAE_NXZ 10053270 f i libucrtd:output.obj
 0001:000522e0       ?state_case_precision@?$output_processor@DV?$stream_output_adapter@D@__crt_stdio_output@@V?$positional_parameter_base@DV?$stream_output_adapter@D@__crt_stdio_output@@@2@@__crt_stdio_output@@AAE_NXZ 100532e0 f i libucrtd:output.obj
 0001:00052350       ?state_case_precision@?$output_processor@DV?$stream_output_adapter@D@__crt_stdio_output@@V?$standard_base@DV?$stream_output_adapter@D@__crt_stdio_output@@@2@@__crt_stdio_output@@AAE_NXZ 10053350 f i libucrtd:output.obj
 0001:000523c0       ?state_case_precision@?$output_processor@DV?$string_output_adapter@D@__crt_stdio_output@@V?$format_validation_base@DV?$string_output_adapter@D@__crt_stdio_output@@@2@@__crt_stdio_output@@AAE_NXZ 100533c0 f i libucrtd:output.obj
 0001:00052430       ?state_case_precision@?$output_processor@DV?$string_output_adapter@D@__crt_stdio_output@@V?$positional_parameter_base@DV?$string_output_adapter@D@__crt_stdio_output@@@2@@__crt_stdio_output@@AAE_NXZ 10053430 f i libucrtd:output.obj
 0001:000524a0       ?state_case_precision@?$output_processor@DV?$string_output_adapter@D@__crt_stdio_output@@V?$standard_base@DV?$string_output_adapter@D@__crt_stdio_output@@@2@@__crt_stdio_output@@AAE_NXZ 100534a0 f i libucrtd:output.obj
 0001:00052510       ?state_case_precision@?$output_processor@_WV?$stream_output_adapter@_W@__crt_stdio_output@@V?$format_validation_base@_WV?$stream_output_adapter@_W@__crt_stdio_output@@@2@@__crt_stdio_output@@AAE_NXZ 10053510 f i libucrtd:output.obj
 0001:00052580       ?state_case_precision@?$output_processor@_WV?$stream_output_adapter@_W@__crt_stdio_output@@V?$positional_parameter_base@_WV?$stream_output_adapter@_W@__crt_stdio_output@@@2@@__crt_stdio_output@@AAE_NXZ 10053580 f i libucrtd:output.obj
 0001:000525f0       ?state_case_precision@?$output_processor@_WV?$stream_output_adapter@_W@__crt_stdio_output@@V?$standard_base@_WV?$stream_output_adapter@_W@__crt_stdio_output@@@2@@__crt_stdio_output@@AAE_NXZ 100535f0 f i libucrtd:output.obj
 0001:00052660       ?state_case_precision@?$output_processor@_WV?$string_output_adapter@_W@__crt_stdio_output@@V?$format_validation_base@_WV?$string_output_adapter@_W@__crt_stdio_output@@@2@@__crt_stdio_output@@AAE_NXZ 10053660 f i libucrtd:output.obj
 0001:000526d0       ?state_case_precision@?$output_processor@_WV?$string_output_adapter@_W@__crt_stdio_output@@V?$positional_parameter_base@_WV?$string_output_adapter@_W@__crt_stdio_output@@@2@@__crt_stdio_output@@AAE_NXZ 100536d0 f i libucrtd:output.obj
 0001:00052740       ?state_case_precision@?$output_processor@_WV?$string_output_adapter@_W@__crt_stdio_output@@V?$standard_base@_WV?$string_output_adapter@_W@__crt_stdio_output@@@2@@__crt_stdio_output@@AAE_NXZ 10053740 f i libucrtd:output.obj
 0001:000527b0       ?state_case_size@?$output_processor@DV?$stream_output_adapter@D@__crt_stdio_output@@V?$format_validation_base@DV?$stream_output_adapter@D@__crt_stdio_output@@@2@@__crt_stdio_output@@AAE_NXZ 100537b0 f i libucrtd:output.obj
 0001:00052b80       ?state_case_size@?$output_processor@DV?$stream_output_adapter@D@__crt_stdio_output@@V?$positional_parameter_base@DV?$stream_output_adapter@D@__crt_stdio_output@@@2@@__crt_stdio_output@@AAE_NXZ 10053b80 f i libucrtd:output.obj
 0001:00052f50       ?state_case_size@?$output_processor@DV?$stream_output_adapter@D@__crt_stdio_output@@V?$standard_base@DV?$stream_output_adapter@D@__crt_stdio_output@@@2@@__crt_stdio_output@@AAE_NXZ 10053f50 f i libucrtd:output.obj
 0001:00053320       ?state_case_size@?$output_processor@DV?$string_output_adapter@D@__crt_stdio_output@@V?$format_validation_base@DV?$string_output_adapter@D@__crt_stdio_output@@@2@@__crt_stdio_output@@AAE_NXZ 10054320 f i libucrtd:output.obj
 0001:000536f0       ?state_case_size@?$output_processor@DV?$string_output_adapter@D@__crt_stdio_output@@V?$positional_parameter_base@DV?$string_output_adapter@D@__crt_stdio_output@@@2@@__crt_stdio_output@@AAE_NXZ 100546f0 f i libucrtd:output.obj
 0001:00053ac0       ?state_case_size@?$output_processor@DV?$string_output_adapter@D@__crt_stdio_output@@V?$standard_base@DV?$string_output_adapter@D@__crt_stdio_output@@@2@@__crt_stdio_output@@AAE_NXZ 10054ac0 f i libucrtd:output.obj
 0001:00053e90       ?state_case_size@?$output_processor@_WV?$stream_output_adapter@_W@__crt_stdio_output@@V?$format_validation_base@_WV?$stream_output_adapter@_W@__crt_stdio_output@@@2@@__crt_stdio_output@@AAE_NXZ 10054e90 f i libucrtd:output.obj
 0001:00054260       ?state_case_size@?$output_processor@_WV?$stream_output_adapter@_W@__crt_stdio_output@@V?$positional_parameter_base@_WV?$stream_output_adapter@_W@__crt_stdio_output@@@2@@__crt_stdio_output@@AAE_NXZ 10055260 f i libucrtd:output.obj
 0001:00054630       ?state_case_size@?$output_processor@_WV?$stream_output_adapter@_W@__crt_stdio_output@@V?$standard_base@_WV?$stream_output_adapter@_W@__crt_stdio_output@@@2@@__crt_stdio_output@@AAE_NXZ 10055630 f i libucrtd:output.obj
 0001:00054a00       ?state_case_size@?$output_processor@_WV?$string_output_adapter@_W@__crt_stdio_output@@V?$format_validation_base@_WV?$string_output_adapter@_W@__crt_stdio_output@@@2@@__crt_stdio_output@@AAE_NXZ 10055a00 f i libucrtd:output.obj
 0001:00054dd0       ?state_case_size@?$output_processor@_WV?$string_output_adapter@_W@__crt_stdio_output@@V?$positional_parameter_base@_WV?$string_output_adapter@_W@__crt_stdio_output@@@2@@__crt_stdio_output@@AAE_NXZ 10055dd0 f i libucrtd:output.obj
 0001:000551a0       ?state_case_size@?$output_processor@_WV?$string_output_adapter@_W@__crt_stdio_output@@V?$standard_base@_WV?$string_output_adapter@_W@__crt_stdio_output@@@2@@__crt_stdio_output@@AAE_NXZ 100561a0 f i libucrtd:output.obj
 0001:00055570       ?state_case_type@?$output_processor@DV?$stream_output_adapter@D@__crt_stdio_output@@V?$format_validation_base@DV?$stream_output_adapter@D@__crt_stdio_output@@@2@@__crt_stdio_output@@AAE_NXZ 10056570 f i libucrtd:output.obj
 0001:00055920       ?state_case_type@?$output_processor@DV?$stream_output_adapter@D@__crt_stdio_output@@V?$positional_parameter_base@DV?$stream_output_adapter@D@__crt_stdio_output@@@2@@__crt_stdio_output@@AAE_NXZ 10056920 f i libucrtd:output.obj
 0001:00055cd0       ?state_case_type@?$output_processor@DV?$stream_output_adapter@D@__crt_stdio_output@@V?$standard_base@DV?$stream_output_adapter@D@__crt_stdio_output@@@2@@__crt_stdio_output@@AAE_NXZ 10056cd0 f i libucrtd:output.obj
 0001:00056080       ?state_case_type@?$output_processor@DV?$string_output_adapter@D@__crt_stdio_output@@V?$format_validation_base@DV?$string_output_adapter@D@__crt_stdio_output@@@2@@__crt_stdio_output@@AAE_NXZ 10057080 f i libucrtd:output.obj
 0001:00056430       ?state_case_type@?$output_processor@DV?$string_output_adapter@D@__crt_stdio_output@@V?$positional_parameter_base@DV?$string_output_adapter@D@__crt_stdio_output@@@2@@__crt_stdio_output@@AAE_NXZ 10057430 f i libucrtd:output.obj
 0001:000567e0       ?state_case_type@?$output_processor@DV?$string_output_adapter@D@__crt_stdio_output@@V?$standard_base@DV?$string_output_adapter@D@__crt_stdio_output@@@2@@__crt_stdio_output@@AAE_NXZ 100577e0 f i libucrtd:output.obj
 0001:00056b90       ?state_case_type@?$output_processor@_WV?$stream_output_adapter@_W@__crt_stdio_output@@V?$format_validation_base@_WV?$stream_output_adapter@_W@__crt_stdio_output@@@2@@__crt_stdio_output@@AAE_NXZ 10057b90 f i libucrtd:output.obj
 0001:00056f70       ?state_case_type@?$output_processor@_WV?$stream_output_adapter@_W@__crt_stdio_output@@V?$positional_parameter_base@_WV?$stream_output_adapter@_W@__crt_stdio_output@@@2@@__crt_stdio_output@@AAE_NXZ 10057f70 f i libucrtd:output.obj
 0001:00057350       ?state_case_type@?$output_processor@_WV?$stream_output_adapter@_W@__crt_stdio_output@@V?$standard_base@_WV?$stream_output_adapter@_W@__crt_stdio_output@@@2@@__crt_stdio_output@@AAE_NXZ 10058350 f i libucrtd:output.obj
 0001:00057730       ?state_case_type@?$output_processor@_WV?$string_output_adapter@_W@__crt_stdio_output@@V?$format_validation_base@_WV?$string_output_adapter@_W@__crt_stdio_output@@@2@@__crt_stdio_output@@AAE_NXZ 10058730 f i libucrtd:output.obj
 0001:00057b10       ?state_case_type@?$output_processor@_WV?$string_output_adapter@_W@__crt_stdio_output@@V?$positional_parameter_base@_WV?$string_output_adapter@_W@__crt_stdio_output@@@2@@__crt_stdio_output@@AAE_NXZ 10058b10 f i libucrtd:output.obj
 0001:00057ef0       ?state_case_type@?$output_processor@_WV?$string_output_adapter@_W@__crt_stdio_output@@V?$standard_base@_WV?$string_output_adapter@_W@__crt_stdio_output@@@2@@__crt_stdio_output@@AAE_NXZ 10058ef0 f i libucrtd:output.obj
 0001:000582d0       ?state_case_width@?$output_processor@DV?$stream_output_adapter@D@__crt_stdio_output@@V?$format_validation_base@DV?$stream_output_adapter@D@__crt_stdio_output@@@2@@__crt_stdio_output@@AAE_NXZ 100592d0 f i libucrtd:output.obj
 0001:00058350       ?state_case_width@?$output_processor@DV?$stream_output_adapter@D@__crt_stdio_output@@V?$positional_parameter_base@DV?$stream_output_adapter@D@__crt_stdio_output@@@2@@__crt_stdio_output@@AAE_NXZ 10059350 f i libucrtd:output.obj
 0001:000583d0       ?state_case_width@?$output_processor@DV?$stream_output_adapter@D@__crt_stdio_output@@V?$standard_base@DV?$stream_output_adapter@D@__crt_stdio_output@@@2@@__crt_stdio_output@@AAE_NXZ 100593d0 f i libucrtd:output.obj
 0001:00058450       ?state_case_width@?$output_processor@DV?$string_output_adapter@D@__crt_stdio_output@@V?$format_validation_base@DV?$string_output_adapter@D@__crt_stdio_output@@@2@@__crt_stdio_output@@AAE_NXZ 10059450 f i libucrtd:output.obj
 0001:000584d0       ?state_case_width@?$output_processor@DV?$string_output_adapter@D@__crt_stdio_output@@V?$positional_parameter_base@DV?$string_output_adapter@D@__crt_stdio_output@@@2@@__crt_stdio_output@@AAE_NXZ 100594d0 f i libucrtd:output.obj
 0001:00058550       ?state_case_width@?$output_processor@DV?$string_output_adapter@D@__crt_stdio_output@@V?$standard_base@DV?$string_output_adapter@D@__crt_stdio_output@@@2@@__crt_stdio_output@@AAE_NXZ 10059550 f i libucrtd:output.obj
 0001:000585d0       ?state_case_width@?$output_processor@_WV?$stream_output_adapter@_W@__crt_stdio_output@@V?$format_validation_base@_WV?$stream_output_adapter@_W@__crt_stdio_output@@@2@@__crt_stdio_output@@AAE_NXZ 100595d0 f i libucrtd:output.obj
 0001:00058650       ?state_case_width@?$output_processor@_WV?$stream_output_adapter@_W@__crt_stdio_output@@V?$positional_parameter_base@_WV?$stream_output_adapter@_W@__crt_stdio_output@@@2@@__crt_stdio_output@@AAE_NXZ 10059650 f i libucrtd:output.obj
 0001:000586d0       ?state_case_width@?$output_processor@_WV?$stream_output_adapter@_W@__crt_stdio_output@@V?$standard_base@_WV?$stream_output_adapter@_W@__crt_stdio_output@@@2@@__crt_stdio_output@@AAE_NXZ 100596d0 f i libucrtd:output.obj
 0001:00058750       ?state_case_width@?$output_processor@_WV?$string_output_adapter@_W@__crt_stdio_output@@V?$format_validation_base@_WV?$string_output_adapter@_W@__crt_stdio_output@@@2@@__crt_stdio_output@@AAE_NXZ 10059750 f i libucrtd:output.obj
 0001:000587d0       ?state_case_width@?$output_processor@_WV?$string_output_adapter@_W@__crt_stdio_output@@V?$positional_parameter_base@_WV?$string_output_adapter@_W@__crt_stdio_output@@@2@@__crt_stdio_output@@AAE_NXZ 100597d0 f i libucrtd:output.obj
 0001:00058850       ?state_case_width@?$output_processor@_WV?$string_output_adapter@_W@__crt_stdio_output@@V?$standard_base@_WV?$string_output_adapter@_W@__crt_stdio_output@@@2@@__crt_stdio_output@@AAE_NXZ 10059850 f i libucrtd:output.obj
 0001:000588d0       ?state_count@?$format_validation_base@DV?$stream_output_adapter@D@__crt_stdio_output@@@__crt_stdio_output@@KAIXZ 100598d0 f i libucrtd:output.obj
 0001:000588e0       ?state_count@?$format_validation_base@DV?$string_output_adapter@D@__crt_stdio_output@@@__crt_stdio_output@@KAIXZ 100598e0 f i libucrtd:output.obj
 0001:000588f0       ?state_count@?$format_validation_base@_WV?$stream_output_adapter@_W@__crt_stdio_output@@@__crt_stdio_output@@KAIXZ 100598f0 f i libucrtd:output.obj
 0001:00058900       ?state_count@?$format_validation_base@_WV?$string_output_adapter@_W@__crt_stdio_output@@@__crt_stdio_output@@KAIXZ 10059900 f i libucrtd:output.obj
 0001:00058910       ?state_count@?$standard_base@DV?$stream_output_adapter@D@__crt_stdio_output@@@__crt_stdio_output@@KAIXZ 10059910 f i libucrtd:output.obj
 0001:00058920       ?state_count@?$standard_base@DV?$string_output_adapter@D@__crt_stdio_output@@@__crt_stdio_output@@KAIXZ 10059920 f i libucrtd:output.obj
 0001:00058930       ?state_count@?$standard_base@_WV?$stream_output_adapter@_W@__crt_stdio_output@@@__crt_stdio_output@@KAIXZ 10059930 f i libucrtd:output.obj
 0001:00058940       ?state_count@?$standard_base@_WV?$string_output_adapter@_W@__crt_stdio_output@@@__crt_stdio_output@@KAIXZ 10059940 f i libucrtd:output.obj
 0001:00058950       ?state_transition_table@?$format_validation_base@DV?$stream_output_adapter@D@__crt_stdio_output@@@__crt_stdio_output@@KAABV?$spectre_mitigated_lookup_table@Ustate_transition_pair@__crt_stdio_output@@$0IA@@2@XZ 10059950 f i libucrtd:output.obj
 0001:00058960       ?state_transition_table@?$format_validation_base@DV?$string_output_adapter@D@__crt_stdio_output@@@__crt_stdio_output@@KAABV?$spectre_mitigated_lookup_table@Ustate_transition_pair@__crt_stdio_output@@$0IA@@2@XZ 10059960 f i libucrtd:output.obj
 0001:00058970       ?state_transition_table@?$format_validation_base@_WV?$stream_output_adapter@_W@__crt_stdio_output@@@__crt_stdio_output@@KAABV?$spectre_mitigated_lookup_table@Ustate_transition_pair@__crt_stdio_output@@$0IA@@2@XZ 10059970 f i libucrtd:output.obj
 0001:00058980       ?state_transition_table@?$format_validation_base@_WV?$string_output_adapter@_W@__crt_stdio_output@@@__crt_stdio_output@@KAABV?$spectre_mitigated_lookup_table@Ustate_transition_pair@__crt_stdio_output@@$0IA@@2@XZ 10059980 f i libucrtd:output.obj
 0001:00058990       ?state_transition_table@?$standard_base@DV?$stream_output_adapter@D@__crt_stdio_output@@@__crt_stdio_output@@KAABV?$spectre_mitigated_lookup_table@Ustate_transition_pair@__crt_stdio_output@@$0IA@@2@XZ 10059990 f i libucrtd:output.obj
 0001:000589a0       ?state_transition_table@?$standard_base@DV?$string_output_adapter@D@__crt_stdio_output@@@__crt_stdio_output@@KAABV?$spectre_mitigated_lookup_table@Ustate_transition_pair@__crt_stdio_output@@$0IA@@2@XZ 100599a0 f i libucrtd:output.obj
 0001:000589b0       ?state_transition_table@?$standard_base@_WV?$stream_output_adapter@_W@__crt_stdio_output@@@__crt_stdio_output@@KAABV?$spectre_mitigated_lookup_table@Ustate_transition_pair@__crt_stdio_output@@$0IA@@2@XZ 100599b0 f i libucrtd:output.obj
 0001:000589c0       ?state_transition_table@?$standard_base@_WV?$string_output_adapter@_W@__crt_stdio_output@@@__crt_stdio_output@@KAABV?$spectre_mitigated_lookup_table@Ustate_transition_pair@__crt_stdio_output@@$0IA@@2@XZ 100599c0 f i libucrtd:output.obj
 0001:000589d0       ?tchar_string@?$common_data@D@__crt_stdio_output@@IAEAAPADD@Z 100599d0 f i libucrtd:output.obj
 0001:000589f0       ?tchar_string@?$common_data@D@__crt_stdio_output@@IAEAAPADXZ 100599f0 f i libucrtd:output.obj
 0001:00058a10       ?tchar_string@?$common_data@_W@__crt_stdio_output@@IAEAAPA_WXZ 10059a10 f i libucrtd:output.obj
 0001:00058a30       ?tchar_string@?$common_data@_W@__crt_stdio_output@@IAEAAPA_W_W@Z 10059a30 f i libucrtd:output.obj
 0001:00058a50       ?to_integer_size@__crt_stdio_output@@YAIW4length_modifier@1@@Z 10059a50 f i libucrtd:output.obj
 0001:00058af0       ?type_case_X@?$output_processor@DV?$stream_output_adapter@D@__crt_stdio_output@@V?$format_validation_base@DV?$stream_output_adapter@D@__crt_stdio_output@@@2@@__crt_stdio_output@@AAE_NXZ 10059af0 f i libucrtd:output.obj
 0001:00058b10       ?type_case_X@?$output_processor@DV?$stream_output_adapter@D@__crt_stdio_output@@V?$positional_parameter_base@DV?$stream_output_adapter@D@__crt_stdio_output@@@2@@__crt_stdio_output@@AAE_NXZ 10059b10 f i libucrtd:output.obj
 0001:00058b30       ?type_case_X@?$output_processor@DV?$stream_output_adapter@D@__crt_stdio_output@@V?$standard_base@DV?$stream_output_adapter@D@__crt_stdio_output@@@2@@__crt_stdio_output@@AAE_NXZ 10059b30 f i libucrtd:output.obj
 0001:00058b50       ?type_case_X@?$output_processor@DV?$string_output_adapter@D@__crt_stdio_output@@V?$format_validation_base@DV?$string_output_adapter@D@__crt_stdio_output@@@2@@__crt_stdio_output@@AAE_NXZ 10059b50 f i libucrtd:output.obj
 0001:00058b70       ?type_case_X@?$output_processor@DV?$string_output_adapter@D@__crt_stdio_output@@V?$positional_parameter_base@DV?$string_output_adapter@D@__crt_stdio_output@@@2@@__crt_stdio_output@@AAE_NXZ 10059b70 f i libucrtd:output.obj
 0001:00058b90       ?type_case_X@?$output_processor@DV?$string_output_adapter@D@__crt_stdio_output@@V?$standard_base@DV?$string_output_adapter@D@__crt_stdio_output@@@2@@__crt_stdio_output@@AAE_NXZ 10059b90 f i libucrtd:output.obj
 0001:00058bb0       ?type_case_X@?$output_processor@_WV?$stream_output_adapter@_W@__crt_stdio_output@@V?$format_validation_base@_WV?$stream_output_adapter@_W@__crt_stdio_output@@@2@@__crt_stdio_output@@AAE_NXZ 10059bb0 f i libucrtd:output.obj
 0001:00058bd0       ?type_case_X@?$output_processor@_WV?$stream_output_adapter@_W@__crt_stdio_output@@V?$positional_parameter_base@_WV?$stream_output_adapter@_W@__crt_stdio_output@@@2@@__crt_stdio_output@@AAE_NXZ 10059bd0 f i libucrtd:output.obj
 0001:00058bf0       ?type_case_X@?$output_processor@_WV?$stream_output_adapter@_W@__crt_stdio_output@@V?$standard_base@_WV?$stream_output_adapter@_W@__crt_stdio_output@@@2@@__crt_stdio_output@@AAE_NXZ 10059bf0 f i libucrtd:output.obj
 0001:00058c10       ?type_case_X@?$output_processor@_WV?$string_output_adapter@_W@__crt_stdio_output@@V?$format_validation_base@_WV?$string_output_adapter@_W@__crt_stdio_output@@@2@@__crt_stdio_output@@AAE_NXZ 10059c10 f i libucrtd:output.obj
 0001:00058c30       ?type_case_X@?$output_processor@_WV?$string_output_adapter@_W@__crt_stdio_output@@V?$positional_parameter_base@_WV?$string_output_adapter@_W@__crt_stdio_output@@@2@@__crt_stdio_output@@AAE_NXZ 10059c30 f i libucrtd:output.obj
 0001:00058c50       ?type_case_X@?$output_processor@_WV?$string_output_adapter@_W@__crt_stdio_output@@V?$standard_base@_WV?$string_output_adapter@_W@__crt_stdio_output@@@2@@__crt_stdio_output@@AAE_NXZ 10059c50 f i libucrtd:output.obj
 0001:00058c70       ?type_case_Z@?$output_processor@DV?$stream_output_adapter@D@__crt_stdio_output@@V?$format_validation_base@DV?$stream_output_adapter@D@__crt_stdio_output@@@2@@__crt_stdio_output@@AAE_NXZ 10059c70 f i libucrtd:output.obj
 0001:00058d60       ?type_case_Z@?$output_processor@DV?$stream_output_adapter@D@__crt_stdio_output@@V?$positional_parameter_base@DV?$stream_output_adapter@D@__crt_stdio_output@@@2@@__crt_stdio_output@@AAE_NXZ 10059d60 f i libucrtd:output.obj
 0001:00058e50       ?type_case_Z@?$output_processor@DV?$stream_output_adapter@D@__crt_stdio_output@@V?$standard_base@DV?$stream_output_adapter@D@__crt_stdio_output@@@2@@__crt_stdio_output@@AAE_NXZ 10059e50 f i libucrtd:output.obj
 0001:00058f40       ?type_case_Z@?$output_processor@DV?$string_output_adapter@D@__crt_stdio_output@@V?$format_validation_base@DV?$string_output_adapter@D@__crt_stdio_output@@@2@@__crt_stdio_output@@AAE_NXZ 10059f40 f i libucrtd:output.obj
 0001:00059030       ?type_case_Z@?$output_processor@DV?$string_output_adapter@D@__crt_stdio_output@@V?$positional_parameter_base@DV?$string_output_adapter@D@__crt_stdio_output@@@2@@__crt_stdio_output@@AAE_NXZ 1005a030 f i libucrtd:output.obj
 0001:00059120       ?type_case_Z@?$output_processor@DV?$string_output_adapter@D@__crt_stdio_output@@V?$standard_base@DV?$string_output_adapter@D@__crt_stdio_output@@@2@@__crt_stdio_output@@AAE_NXZ 1005a120 f i libucrtd:output.obj
 0001:00059210       ?type_case_Z@?$output_processor@_WV?$stream_output_adapter@_W@__crt_stdio_output@@V?$format_validation_base@_WV?$stream_output_adapter@_W@__crt_stdio_output@@@2@@__crt_stdio_output@@AAE_NXZ 1005a210 f i libucrtd:output.obj
 0001:00059300       ?type_case_Z@?$output_processor@_WV?$stream_output_adapter@_W@__crt_stdio_output@@V?$positional_parameter_base@_WV?$stream_output_adapter@_W@__crt_stdio_output@@@2@@__crt_stdio_output@@AAE_NXZ 1005a300 f i libucrtd:output.obj
 0001:000593f0       ?type_case_Z@?$output_processor@_WV?$stream_output_adapter@_W@__crt_stdio_output@@V?$standard_base@_WV?$stream_output_adapter@_W@__crt_stdio_output@@@2@@__crt_stdio_output@@AAE_NXZ 1005a3f0 f i libucrtd:output.obj
 0001:000594e0       ?type_case_Z@?$output_processor@_WV?$string_output_adapter@_W@__crt_stdio_output@@V?$format_validation_base@_WV?$string_output_adapter@_W@__crt_stdio_output@@@2@@__crt_stdio_output@@AAE_NXZ 1005a4e0 f i libucrtd:output.obj
 0001:000595d0       ?type_case_Z@?$output_processor@_WV?$string_output_adapter@_W@__crt_stdio_output@@V?$positional_parameter_base@_WV?$string_output_adapter@_W@__crt_stdio_output@@@2@@__crt_stdio_output@@AAE_NXZ 1005a5d0 f i libucrtd:output.obj
 0001:000596c0       ?type_case_Z@?$output_processor@_WV?$string_output_adapter@_W@__crt_stdio_output@@V?$standard_base@_WV?$string_output_adapter@_W@__crt_stdio_output@@@2@@__crt_stdio_output@@AAE_NXZ 1005a6c0 f i libucrtd:output.obj
 0001:000597b0       ?type_case_a@?$output_processor@DV?$stream_output_adapter@D@__crt_stdio_output@@V?$format_validation_base@DV?$stream_output_adapter@D@__crt_stdio_output@@@2@@__crt_stdio_output@@AAE_NXZ 1005a7b0 f i libucrtd:output.obj
 0001:00059a20       ?type_case_a@?$output_processor@DV?$stream_output_adapter@D@__crt_stdio_output@@V?$positional_parameter_base@DV?$stream_output_adapter@D@__crt_stdio_output@@@2@@__crt_stdio_output@@AAE_NXZ 1005aa20 f i libucrtd:output.obj
 0001:00059c90       ?type_case_a@?$output_processor@DV?$stream_output_adapter@D@__crt_stdio_output@@V?$standard_base@DV?$stream_output_adapter@D@__crt_stdio_output@@@2@@__crt_stdio_output@@AAE_NXZ 1005ac90 f i libucrtd:output.obj
 0001:00059f00       ?type_case_a@?$output_processor@DV?$string_output_adapter@D@__crt_stdio_output@@V?$format_validation_base@DV?$string_output_adapter@D@__crt_stdio_output@@@2@@__crt_stdio_output@@AAE_NXZ 1005af00 f i libucrtd:output.obj
 0001:0005a170       ?type_case_a@?$output_processor@DV?$string_output_adapter@D@__crt_stdio_output@@V?$positional_parameter_base@DV?$string_output_adapter@D@__crt_stdio_output@@@2@@__crt_stdio_output@@AAE_NXZ 1005b170 f i libucrtd:output.obj
 0001:0005a3e0       ?type_case_a@?$output_processor@DV?$string_output_adapter@D@__crt_stdio_output@@V?$standard_base@DV?$string_output_adapter@D@__crt_stdio_output@@@2@@__crt_stdio_output@@AAE_NXZ 1005b3e0 f i libucrtd:output.obj
 0001:0005a650       ?type_case_a@?$output_processor@_WV?$stream_output_adapter@_W@__crt_stdio_output@@V?$format_validation_base@_WV?$stream_output_adapter@_W@__crt_stdio_output@@@2@@__crt_stdio_output@@AAE_NXZ 1005b650 f i libucrtd:output.obj
 0001:0005a8c0       ?type_case_a@?$output_processor@_WV?$stream_output_adapter@_W@__crt_stdio_output@@V?$positional_parameter_base@_WV?$stream_output_adapter@_W@__crt_stdio_output@@@2@@__crt_stdio_output@@AAE_NXZ 1005b8c0 f i libucrtd:output.obj
 0001:0005ab30       ?type_case_a@?$output_processor@_WV?$stream_output_adapter@_W@__crt_stdio_output@@V?$standard_base@_WV?$stream_output_adapter@_W@__crt_stdio_output@@@2@@__crt_stdio_output@@AAE_NXZ 1005bb30 f i libucrtd:output.obj
 0001:0005ada0       ?type_case_a@?$output_processor@_WV?$string_output_adapter@_W@__crt_stdio_output@@V?$format_validation_base@_WV?$string_output_adapter@_W@__crt_stdio_output@@@2@@__crt_stdio_output@@AAE_NXZ 1005bda0 f i libucrtd:output.obj
 0001:0005b010       ?type_case_a@?$output_processor@_WV?$string_output_adapter@_W@__crt_stdio_output@@V?$positional_parameter_base@_WV?$string_output_adapter@_W@__crt_stdio_output@@@2@@__crt_stdio_output@@AAE_NXZ 1005c010 f i libucrtd:output.obj
 0001:0005b280       ?type_case_a@?$output_processor@_WV?$string_output_adapter@_W@__crt_stdio_output@@V?$standard_base@_WV?$string_output_adapter@_W@__crt_stdio_output@@@2@@__crt_stdio_output@@AAE_NXZ 1005c280 f i libucrtd:output.obj
 0001:0005b4f0       ?type_case_c@?$output_processor@DV?$stream_output_adapter@D@__crt_stdio_output@@V?$format_validation_base@DV?$stream_output_adapter@D@__crt_stdio_output@@@2@@__crt_stdio_output@@AAE_NXZ 1005c4f0 f i libucrtd:output.obj
 0001:0005b510       ?type_case_c@?$output_processor@DV?$stream_output_adapter@D@__crt_stdio_output@@V?$positional_parameter_base@DV?$stream_output_adapter@D@__crt_stdio_output@@@2@@__crt_stdio_output@@AAE_NXZ 1005c510 f i libucrtd:output.obj
 0001:0005b530       ?type_case_c@?$output_processor@DV?$stream_output_adapter@D@__crt_stdio_output@@V?$standard_base@DV?$stream_output_adapter@D@__crt_stdio_output@@@2@@__crt_stdio_output@@AAE_NXZ 1005c530 f i libucrtd:output.obj
 0001:0005b550       ?type_case_c@?$output_processor@DV?$string_output_adapter@D@__crt_stdio_output@@V?$format_validation_base@DV?$string_output_adapter@D@__crt_stdio_output@@@2@@__crt_stdio_output@@AAE_NXZ 1005c550 f i libucrtd:output.obj
 0001:0005b570       ?type_case_c@?$output_processor@DV?$string_output_adapter@D@__crt_stdio_output@@V?$positional_parameter_base@DV?$string_output_adapter@D@__crt_stdio_output@@@2@@__crt_stdio_output@@AAE_NXZ 1005c570 f i libucrtd:output.obj
 0001:0005b590       ?type_case_c@?$output_processor@DV?$string_output_adapter@D@__crt_stdio_output@@V?$standard_base@DV?$string_output_adapter@D@__crt_stdio_output@@@2@@__crt_stdio_output@@AAE_NXZ 1005c590 f i libucrtd:output.obj
 0001:0005b5b0       ?type_case_c@?$output_processor@_WV?$stream_output_adapter@_W@__crt_stdio_output@@V?$format_validation_base@_WV?$stream_output_adapter@_W@__crt_stdio_output@@@2@@__crt_stdio_output@@AAE_NXZ 1005c5b0 f i libucrtd:output.obj
 0001:0005b5d0       ?type_case_c@?$output_processor@_WV?$stream_output_adapter@_W@__crt_stdio_output@@V?$positional_parameter_base@_WV?$stream_output_adapter@_W@__crt_stdio_output@@@2@@__crt_stdio_output@@AAE_NXZ 1005c5d0 f i libucrtd:output.obj
 0001:0005b5f0       ?type_case_c@?$output_processor@_WV?$stream_output_adapter@_W@__crt_stdio_output@@V?$standard_base@_WV?$stream_output_adapter@_W@__crt_stdio_output@@@2@@__crt_stdio_output@@AAE_NXZ 1005c5f0 f i libucrtd:output.obj
 0001:0005b610       ?type_case_c@?$output_processor@_WV?$string_output_adapter@_W@__crt_stdio_output@@V?$format_validation_base@_WV?$string_output_adapter@_W@__crt_stdio_output@@@2@@__crt_stdio_output@@AAE_NXZ 1005c610 f i libucrtd:output.obj
 0001:0005b630       ?type_case_c@?$output_processor@_WV?$string_output_adapter@_W@__crt_stdio_output@@V?$positional_parameter_base@_WV?$string_output_adapter@_W@__crt_stdio_output@@@2@@__crt_stdio_output@@AAE_NXZ 1005c630 f i libucrtd:output.obj
 0001:0005b650       ?type_case_c@?$output_processor@_WV?$string_output_adapter@_W@__crt_stdio_output@@V?$standard_base@_WV?$string_output_adapter@_W@__crt_stdio_output@@@2@@__crt_stdio_output@@AAE_NXZ 1005c650 f i libucrtd:output.obj
 0001:0005b670       ?type_case_c_tchar@?$output_processor@DV?$stream_output_adapter@D@__crt_stdio_output@@V?$format_validation_base@DV?$stream_output_adapter@D@__crt_stdio_output@@@2@@__crt_stdio_output@@AAE_ND@Z 1005c670 f i libucrtd:output.obj
 0001:0005b780       ?type_case_c_tchar@?$output_processor@DV?$stream_output_adapter@D@__crt_stdio_output@@V?$positional_parameter_base@DV?$stream_output_adapter@D@__crt_stdio_output@@@2@@__crt_stdio_output@@AAE_ND@Z 1005c780 f i libucrtd:output.obj
 0001:0005b890       ?type_case_c_tchar@?$output_processor@DV?$stream_output_adapter@D@__crt_stdio_output@@V?$standard_base@DV?$stream_output_adapter@D@__crt_stdio_output@@@2@@__crt_stdio_output@@AAE_ND@Z 1005c890 f i libucrtd:output.obj
 0001:0005b9a0       ?type_case_c_tchar@?$output_processor@DV?$string_output_adapter@D@__crt_stdio_output@@V?$format_validation_base@DV?$string_output_adapter@D@__crt_stdio_output@@@2@@__crt_stdio_output@@AAE_ND@Z 1005c9a0 f i libucrtd:output.obj
 0001:0005bab0       ?type_case_c_tchar@?$output_processor@DV?$string_output_adapter@D@__crt_stdio_output@@V?$positional_parameter_base@DV?$string_output_adapter@D@__crt_stdio_output@@@2@@__crt_stdio_output@@AAE_ND@Z 1005cab0 f i libucrtd:output.obj
 0001:0005bbc0       ?type_case_c_tchar@?$output_processor@DV?$string_output_adapter@D@__crt_stdio_output@@V?$standard_base@DV?$string_output_adapter@D@__crt_stdio_output@@@2@@__crt_stdio_output@@AAE_ND@Z 1005cbc0 f i libucrtd:output.obj
 0001:0005bcd0       ?type_case_c_tchar@?$output_processor@_WV?$stream_output_adapter@_W@__crt_stdio_output@@V?$format_validation_base@_WV?$stream_output_adapter@_W@__crt_stdio_output@@@2@@__crt_stdio_output@@AAE_N_W@Z 1005ccd0 f i libucrtd:output.obj
 0001:0005bdd0       ?type_case_c_tchar@?$output_processor@_WV?$stream_output_adapter@_W@__crt_stdio_output@@V?$positional_parameter_base@_WV?$stream_output_adapter@_W@__crt_stdio_output@@@2@@__crt_stdio_output@@AAE_N_W@Z 1005cdd0 f i libucrtd:output.obj
 0001:0005bed0       ?type_case_c_tchar@?$output_processor@_WV?$stream_output_adapter@_W@__crt_stdio_output@@V?$standard_base@_WV?$stream_output_adapter@_W@__crt_stdio_output@@@2@@__crt_stdio_output@@AAE_N_W@Z 1005ced0 f i libucrtd:output.obj
 0001:0005bfd0       ?type_case_c_tchar@?$output_processor@_WV?$string_output_adapter@_W@__crt_stdio_output@@V?$format_validation_base@_WV?$string_output_adapter@_W@__crt_stdio_output@@@2@@__crt_stdio_output@@AAE_N_W@Z 1005cfd0 f i libucrtd:output.obj
 0001:0005c0d0       ?type_case_c_tchar@?$output_processor@_WV?$string_output_adapter@_W@__crt_stdio_output@@V?$positional_parameter_base@_WV?$string_output_adapter@_W@__crt_stdio_output@@@2@@__crt_stdio_output@@AAE_N_W@Z 1005d0d0 f i libucrtd:output.obj
 0001:0005c1d0       ?type_case_c_tchar@?$output_processor@_WV?$string_output_adapter@_W@__crt_stdio_output@@V?$standard_base@_WV?$string_output_adapter@_W@__crt_stdio_output@@@2@@__crt_stdio_output@@AAE_N_W@Z 1005d1d0 f i libucrtd:output.obj
 0001:0005c2d0       ?type_case_d@?$output_processor@DV?$stream_output_adapter@D@__crt_stdio_output@@V?$format_validation_base@DV?$stream_output_adapter@D@__crt_stdio_output@@@2@@__crt_stdio_output@@AAE_NXZ 1005d2d0 f i libucrtd:output.obj
 0001:0005c300       ?type_case_d@?$output_processor@DV?$stream_output_adapter@D@__crt_stdio_output@@V?$positional_parameter_base@DV?$stream_output_adapter@D@__crt_stdio_output@@@2@@__crt_stdio_output@@AAE_NXZ 1005d300 f i libucrtd:output.obj
 0001:0005c330       ?type_case_d@?$output_processor@DV?$stream_output_adapter@D@__crt_stdio_output@@V?$standard_base@DV?$stream_output_adapter@D@__crt_stdio_output@@@2@@__crt_stdio_output@@AAE_NXZ 1005d330 f i libucrtd:output.obj
 0001:0005c360       ?type_case_d@?$output_processor@DV?$string_output_adapter@D@__crt_stdio_output@@V?$format_validation_base@DV?$string_output_adapter@D@__crt_stdio_output@@@2@@__crt_stdio_output@@AAE_NXZ 1005d360 f i libucrtd:output.obj
 0001:0005c390       ?type_case_d@?$output_processor@DV?$string_output_adapter@D@__crt_stdio_output@@V?$positional_parameter_base@DV?$string_output_adapter@D@__crt_stdio_output@@@2@@__crt_stdio_output@@AAE_NXZ 1005d390 f i libucrtd:output.obj
 0001:0005c3c0       ?type_case_d@?$output_processor@DV?$string_output_adapter@D@__crt_stdio_output@@V?$standard_base@DV?$string_output_adapter@D@__crt_stdio_output@@@2@@__crt_stdio_output@@AAE_NXZ 1005d3c0 f i libucrtd:output.obj
 0001:0005c3f0       ?type_case_d@?$output_processor@_WV?$stream_output_adapter@_W@__crt_stdio_output@@V?$format_validation_base@_WV?$stream_output_adapter@_W@__crt_stdio_output@@@2@@__crt_stdio_output@@AAE_NXZ 1005d3f0 f i libucrtd:output.obj
 0001:0005c420       ?type_case_d@?$output_processor@_WV?$stream_output_adapter@_W@__crt_stdio_output@@V?$positional_parameter_base@_WV?$stream_output_adapter@_W@__crt_stdio_output@@@2@@__crt_stdio_output@@AAE_NXZ 1005d420 f i libucrtd:output.obj
 0001:0005c450       ?type_case_d@?$output_processor@_WV?$stream_output_adapter@_W@__crt_stdio_output@@V?$standard_base@_WV?$stream_output_adapter@_W@__crt_stdio_output@@@2@@__crt_stdio_output@@AAE_NXZ 1005d450 f i libucrtd:output.obj
 0001:0005c480       ?type_case_d@?$output_processor@_WV?$string_output_adapter@_W@__crt_stdio_output@@V?$format_validation_base@_WV?$string_output_adapter@_W@__crt_stdio_output@@@2@@__crt_stdio_output@@AAE_NXZ 1005d480 f i libucrtd:output.obj
 0001:0005c4b0       ?type_case_d@?$output_processor@_WV?$string_output_adapter@_W@__crt_stdio_output@@V?$positional_parameter_base@_WV?$string_output_adapter@_W@__crt_stdio_output@@@2@@__crt_stdio_output@@AAE_NXZ 1005d4b0 f i libucrtd:output.obj
 0001:0005c4e0       ?type_case_d@?$output_processor@_WV?$string_output_adapter@_W@__crt_stdio_output@@V?$standard_base@_WV?$string_output_adapter@_W@__crt_stdio_output@@@2@@__crt_stdio_output@@AAE_NXZ 1005d4e0 f i libucrtd:output.obj
 0001:0005c510       ?type_case_integer@?$output_processor@DV?$stream_output_adapter@D@__crt_stdio_output@@V?$format_validation_base@DV?$stream_output_adapter@D@__crt_stdio_output@@@2@@__crt_stdio_output@@AAE_NI_N@Z 1005d510 f i libucrtd:output.obj
 0001:0005c860       ?type_case_integer@?$output_processor@DV?$stream_output_adapter@D@__crt_stdio_output@@V?$positional_parameter_base@DV?$stream_output_adapter@D@__crt_stdio_output@@@2@@__crt_stdio_output@@AAE_NI_N@Z 1005d860 f i libucrtd:output.obj
 0001:0005cbb0       ?type_case_integer@?$output_processor@DV?$stream_output_adapter@D@__crt_stdio_output@@V?$standard_base@DV?$stream_output_adapter@D@__crt_stdio_output@@@2@@__crt_stdio_output@@AAE_NI_N@Z 1005dbb0 f i libucrtd:output.obj
 0001:0005cf00       ?type_case_integer@?$output_processor@DV?$string_output_adapter@D@__crt_stdio_output@@V?$format_validation_base@DV?$string_output_adapter@D@__crt_stdio_output@@@2@@__crt_stdio_output@@AAE_NI_N@Z 1005df00 f i libucrtd:output.obj
 0001:0005d250       ?type_case_integer@?$output_processor@DV?$string_output_adapter@D@__crt_stdio_output@@V?$positional_parameter_base@DV?$string_output_adapter@D@__crt_stdio_output@@@2@@__crt_stdio_output@@AAE_NI_N@Z 1005e250 f i libucrtd:output.obj
 0001:0005d5a0       ?type_case_integer@?$output_processor@DV?$string_output_adapter@D@__crt_stdio_output@@V?$standard_base@DV?$string_output_adapter@D@__crt_stdio_output@@@2@@__crt_stdio_output@@AAE_NI_N@Z 1005e5a0 f i libucrtd:output.obj
 0001:0005d8f0       ?type_case_integer@?$output_processor@_WV?$stream_output_adapter@_W@__crt_stdio_output@@V?$format_validation_base@_WV?$stream_output_adapter@_W@__crt_stdio_output@@@2@@__crt_stdio_output@@AAE_NI_N@Z 1005e8f0 f i libucrtd:output.obj
 0001:0005dc40       ?type_case_integer@?$output_processor@_WV?$stream_output_adapter@_W@__crt_stdio_output@@V?$positional_parameter_base@_WV?$stream_output_adapter@_W@__crt_stdio_output@@@2@@__crt_stdio_output@@AAE_NI_N@Z 1005ec40 f i libucrtd:output.obj
 0001:0005df90       ?type_case_integer@?$output_processor@_WV?$stream_output_adapter@_W@__crt_stdio_output@@V?$standard_base@_WV?$stream_output_adapter@_W@__crt_stdio_output@@@2@@__crt_stdio_output@@AAE_NI_N@Z 1005ef90 f i libucrtd:output.obj
 0001:0005e2e0       ?type_case_integer@?$output_processor@_WV?$string_output_adapter@_W@__crt_stdio_output@@V?$format_validation_base@_WV?$string_output_adapter@_W@__crt_stdio_output@@@2@@__crt_stdio_output@@AAE_NI_N@Z 1005f2e0 f i libucrtd:output.obj
 0001:0005e630       ?type_case_integer@?$output_processor@_WV?$string_output_adapter@_W@__crt_stdio_output@@V?$positional_parameter_base@_WV?$string_output_adapter@_W@__crt_stdio_output@@@2@@__crt_stdio_output@@AAE_NI_N@Z 1005f630 f i libucrtd:output.obj
 0001:0005e980       ?type_case_integer@?$output_processor@_WV?$string_output_adapter@_W@__crt_stdio_output@@V?$standard_base@_WV?$string_output_adapter@_W@__crt_stdio_output@@@2@@__crt_stdio_output@@AAE_NI_N@Z 1005f980 f i libucrtd:output.obj
 0001:0005ecd0       ?type_case_n@?$output_processor@DV?$stream_output_adapter@D@__crt_stdio_output@@V?$format_validation_base@DV?$stream_output_adapter@D@__crt_stdio_output@@@2@@__crt_stdio_output@@AAE_NXZ 1005fcd0 f i libucrtd:output.obj
 0001:0005eec0       ?type_case_n@?$output_processor@DV?$stream_output_adapter@D@__crt_stdio_output@@V?$positional_parameter_base@DV?$stream_output_adapter@D@__crt_stdio_output@@@2@@__crt_stdio_output@@AAE_NXZ 1005fec0 f i libucrtd:output.obj
 0001:0005f0b0       ?type_case_n@?$output_processor@DV?$stream_output_adapter@D@__crt_stdio_output@@V?$standard_base@DV?$stream_output_adapter@D@__crt_stdio_output@@@2@@__crt_stdio_output@@AAE_NXZ 100600b0 f i libucrtd:output.obj
 0001:0005f2a0       ?type_case_n@?$output_processor@DV?$string_output_adapter@D@__crt_stdio_output@@V?$format_validation_base@DV?$string_output_adapter@D@__crt_stdio_output@@@2@@__crt_stdio_output@@AAE_NXZ 100602a0 f i libucrtd:output.obj
 0001:0005f490       ?type_case_n@?$output_processor@DV?$string_output_adapter@D@__crt_stdio_output@@V?$positional_parameter_base@DV?$string_output_adapter@D@__crt_stdio_output@@@2@@__crt_stdio_output@@AAE_NXZ 10060490 f i libucrtd:output.obj
 0001:0005f680       ?type_case_n@?$output_processor@DV?$string_output_adapter@D@__crt_stdio_output@@V?$standard_base@DV?$string_output_adapter@D@__crt_stdio_output@@@2@@__crt_stdio_output@@AAE_NXZ 10060680 f i libucrtd:output.obj
 0001:0005f870       ?type_case_n@?$output_processor@_WV?$stream_output_adapter@_W@__crt_stdio_output@@V?$format_validation_base@_WV?$stream_output_adapter@_W@__crt_stdio_output@@@2@@__crt_stdio_output@@AAE_NXZ 10060870 f i libucrtd:output.obj
 0001:0005fa60       ?type_case_n@?$output_processor@_WV?$stream_output_adapter@_W@__crt_stdio_output@@V?$positional_parameter_base@_WV?$stream_output_adapter@_W@__crt_stdio_output@@@2@@__crt_stdio_output@@AAE_NXZ 10060a60 f i libucrtd:output.obj
 0001:0005fc50       ?type_case_n@?$output_processor@_WV?$stream_output_adapter@_W@__crt_stdio_output@@V?$standard_base@_WV?$stream_output_adapter@_W@__crt_stdio_output@@@2@@__crt_stdio_output@@AAE_NXZ 10060c50 f i libucrtd:output.obj
 0001:0005fe40       ?type_case_n@?$output_processor@_WV?$string_output_adapter@_W@__crt_stdio_output@@V?$format_validation_base@_WV?$string_output_adapter@_W@__crt_stdio_output@@@2@@__crt_stdio_output@@AAE_NXZ 10060e40 f i libucrtd:output.obj
 0001:00060030       ?type_case_n@?$output_processor@_WV?$string_output_adapter@_W@__crt_stdio_output@@V?$positional_parameter_base@_WV?$string_output_adapter@_W@__crt_stdio_output@@@2@@__crt_stdio_output@@AAE_NXZ 10061030 f i libucrtd:output.obj
 0001:00060220       ?type_case_n@?$output_processor@_WV?$string_output_adapter@_W@__crt_stdio_output@@V?$standard_base@_WV?$string_output_adapter@_W@__crt_stdio_output@@@2@@__crt_stdio_output@@AAE_NXZ 10061220 f i libucrtd:output.obj
 0001:00060410       ?type_case_o@?$output_processor@DV?$stream_output_adapter@D@__crt_stdio_output@@V?$format_validation_base@DV?$stream_output_adapter@D@__crt_stdio_output@@@2@@__crt_stdio_output@@AAE_NXZ 10061410 f i libucrtd:output.obj
 0001:00060450       ?type_case_o@?$output_processor@DV?$stream_output_adapter@D@__crt_stdio_output@@V?$positional_parameter_base@DV?$stream_output_adapter@D@__crt_stdio_output@@@2@@__crt_stdio_output@@AAE_NXZ 10061450 f i libucrtd:output.obj
 0001:00060490       ?type_case_o@?$output_processor@DV?$stream_output_adapter@D@__crt_stdio_output@@V?$standard_base@DV?$stream_output_adapter@D@__crt_stdio_output@@@2@@__crt_stdio_output@@AAE_NXZ 10061490 f i libucrtd:output.obj
 0001:000604d0       ?type_case_o@?$output_processor@DV?$string_output_adapter@D@__crt_stdio_output@@V?$format_validation_base@DV?$string_output_adapter@D@__crt_stdio_output@@@2@@__crt_stdio_output@@AAE_NXZ 100614d0 f i libucrtd:output.obj
 0001:00060510       ?type_case_o@?$output_processor@DV?$string_output_adapter@D@__crt_stdio_output@@V?$positional_parameter_base@DV?$string_output_adapter@D@__crt_stdio_output@@@2@@__crt_stdio_output@@AAE_NXZ 10061510 f i libucrtd:output.obj
 0001:00060550       ?type_case_o@?$output_processor@DV?$string_output_adapter@D@__crt_stdio_output@@V?$standard_base@DV?$string_output_adapter@D@__crt_stdio_output@@@2@@__crt_stdio_output@@AAE_NXZ 10061550 f i libucrtd:output.obj
 0001:00060590       ?type_case_o@?$output_processor@_WV?$stream_output_adapter@_W@__crt_stdio_output@@V?$format_validation_base@_WV?$stream_output_adapter@_W@__crt_stdio_output@@@2@@__crt_stdio_output@@AAE_NXZ 10061590 f i libucrtd:output.obj
 0001:000605d0       ?type_case_o@?$output_processor@_WV?$stream_output_adapter@_W@__crt_stdio_output@@V?$positional_parameter_base@_WV?$stream_output_adapter@_W@__crt_stdio_output@@@2@@__crt_stdio_output@@AAE_NXZ 100615d0 f i libucrtd:output.obj
 0001:00060610       ?type_case_o@?$output_processor@_WV?$stream_output_adapter@_W@__crt_stdio_output@@V?$standard_base@_WV?$stream_output_adapter@_W@__crt_stdio_output@@@2@@__crt_stdio_output@@AAE_NXZ 10061610 f i libucrtd:output.obj
 0001:00060650       ?type_case_o@?$output_processor@_WV?$string_output_adapter@_W@__crt_stdio_output@@V?$format_validation_base@_WV?$string_output_adapter@_W@__crt_stdio_output@@@2@@__crt_stdio_output@@AAE_NXZ 10061650 f i libucrtd:output.obj
 0001:00060690       ?type_case_o@?$output_processor@_WV?$string_output_adapter@_W@__crt_stdio_output@@V?$positional_parameter_base@_WV?$string_output_adapter@_W@__crt_stdio_output@@@2@@__crt_stdio_output@@AAE_NXZ 10061690 f i libucrtd:output.obj
 0001:000606d0       ?type_case_o@?$output_processor@_WV?$string_output_adapter@_W@__crt_stdio_output@@V?$standard_base@_WV?$string_output_adapter@_W@__crt_stdio_output@@@2@@__crt_stdio_output@@AAE_NXZ 100616d0 f i libucrtd:output.obj
 0001:00060710       ?type_case_p@?$output_processor@DV?$stream_output_adapter@D@__crt_stdio_output@@V?$format_validation_base@DV?$stream_output_adapter@D@__crt_stdio_output@@@2@@__crt_stdio_output@@AAE_NXZ 10061710 f i libucrtd:output.obj
 0001:00060740       ?type_case_p@?$output_processor@DV?$stream_output_adapter@D@__crt_stdio_output@@V?$positional_parameter_base@DV?$stream_output_adapter@D@__crt_stdio_output@@@2@@__crt_stdio_output@@AAE_NXZ 10061740 f i libucrtd:output.obj
 0001:00060770       ?type_case_p@?$output_processor@DV?$stream_output_adapter@D@__crt_stdio_output@@V?$standard_base@DV?$stream_output_adapter@D@__crt_stdio_output@@@2@@__crt_stdio_output@@AAE_NXZ 10061770 f i libucrtd:output.obj
 0001:000607a0       ?type_case_p@?$output_processor@DV?$string_output_adapter@D@__crt_stdio_output@@V?$format_validation_base@DV?$string_output_adapter@D@__crt_stdio_output@@@2@@__crt_stdio_output@@AAE_NXZ 100617a0 f i libucrtd:output.obj
 0001:000607d0       ?type_case_p@?$output_processor@DV?$string_output_adapter@D@__crt_stdio_output@@V?$positional_parameter_base@DV?$string_output_adapter@D@__crt_stdio_output@@@2@@__crt_stdio_output@@AAE_NXZ 100617d0 f i libucrtd:output.obj
 0001:00060800       ?type_case_p@?$output_processor@DV?$string_output_adapter@D@__crt_stdio_output@@V?$standard_base@DV?$string_output_adapter@D@__crt_stdio_output@@@2@@__crt_stdio_output@@AAE_NXZ 10061800 f i libucrtd:output.obj
 0001:00060830       ?type_case_p@?$output_processor@_WV?$stream_output_adapter@_W@__crt_stdio_output@@V?$format_validation_base@_WV?$stream_output_adapter@_W@__crt_stdio_output@@@2@@__crt_stdio_output@@AAE_NXZ 10061830 f i libucrtd:output.obj
 0001:00060860       ?type_case_p@?$output_processor@_WV?$stream_output_adapter@_W@__crt_stdio_output@@V?$positional_parameter_base@_WV?$stream_output_adapter@_W@__crt_stdio_output@@@2@@__crt_stdio_output@@AAE_NXZ 10061860 f i libucrtd:output.obj
 0001:00060890       ?type_case_p@?$output_processor@_WV?$stream_output_adapter@_W@__crt_stdio_output@@V?$standard_base@_WV?$stream_output_adapter@_W@__crt_stdio_output@@@2@@__crt_stdio_output@@AAE_NXZ 10061890 f i libucrtd:output.obj
 0001:000608c0       ?type_case_p@?$output_processor@_WV?$string_output_adapter@_W@__crt_stdio_output@@V?$format_validation_base@_WV?$string_output_adapter@_W@__crt_stdio_output@@@2@@__crt_stdio_output@@AAE_NXZ 100618c0 f i libucrtd:output.obj
 0001:000608f0       ?type_case_p@?$output_processor@_WV?$string_output_adapter@_W@__crt_stdio_output@@V?$positional_parameter_base@_WV?$string_output_adapter@_W@__crt_stdio_output@@@2@@__crt_stdio_output@@AAE_NXZ 100618f0 f i libucrtd:output.obj
 0001:00060920       ?type_case_p@?$output_processor@_WV?$string_output_adapter@_W@__crt_stdio_output@@V?$standard_base@_WV?$string_output_adapter@_W@__crt_stdio_output@@@2@@__crt_stdio_output@@AAE_NXZ 10061920 f i libucrtd:output.obj
 0001:00060950       ?type_case_s@?$output_processor@DV?$stream_output_adapter@D@__crt_stdio_output@@V?$format_validation_base@DV?$stream_output_adapter@D@__crt_stdio_output@@@2@@__crt_stdio_output@@AAE_NXZ 10061950 f i libucrtd:output.obj
 0001:00060a40       ?type_case_s@?$output_processor@DV?$stream_output_adapter@D@__crt_stdio_output@@V?$positional_parameter_base@DV?$stream_output_adapter@D@__crt_stdio_output@@@2@@__crt_stdio_output@@AAE_NXZ 10061a40 f i libucrtd:output.obj
 0001:00060b30       ?type_case_s@?$output_processor@DV?$stream_output_adapter@D@__crt_stdio_output@@V?$standard_base@DV?$stream_output_adapter@D@__crt_stdio_output@@@2@@__crt_stdio_output@@AAE_NXZ 10061b30 f i libucrtd:output.obj
 0001:00060c20       ?type_case_s@?$output_processor@DV?$string_output_adapter@D@__crt_stdio_output@@V?$format_validation_base@DV?$string_output_adapter@D@__crt_stdio_output@@@2@@__crt_stdio_output@@AAE_NXZ 10061c20 f i libucrtd:output.obj
 0001:00060d10       ?type_case_s@?$output_processor@DV?$string_output_adapter@D@__crt_stdio_output@@V?$positional_parameter_base@DV?$string_output_adapter@D@__crt_stdio_output@@@2@@__crt_stdio_output@@AAE_NXZ 10061d10 f i libucrtd:output.obj
 0001:00060e00       ?type_case_s@?$output_processor@DV?$string_output_adapter@D@__crt_stdio_output@@V?$standard_base@DV?$string_output_adapter@D@__crt_stdio_output@@@2@@__crt_stdio_output@@AAE_NXZ 10061e00 f i libucrtd:output.obj
 0001:00060ef0       ?type_case_s@?$output_processor@_WV?$stream_output_adapter@_W@__crt_stdio_output@@V?$format_validation_base@_WV?$stream_output_adapter@_W@__crt_stdio_output@@@2@@__crt_stdio_output@@AAE_NXZ 10061ef0 f i libucrtd:output.obj
 0001:00060fe0       ?type_case_s@?$output_processor@_WV?$stream_output_adapter@_W@__crt_stdio_output@@V?$positional_parameter_base@_WV?$stream_output_adapter@_W@__crt_stdio_output@@@2@@__crt_stdio_output@@AAE_NXZ 10061fe0 f i libucrtd:output.obj
 0001:000610d0       ?type_case_s@?$output_processor@_WV?$stream_output_adapter@_W@__crt_stdio_output@@V?$standard_base@_WV?$stream_output_adapter@_W@__crt_stdio_output@@@2@@__crt_stdio_output@@AAE_NXZ 100620d0 f i libucrtd:output.obj
 0001:000611c0       ?type_case_s@?$output_processor@_WV?$string_output_adapter@_W@__crt_stdio_output@@V?$format_validation_base@_WV?$string_output_adapter@_W@__crt_stdio_output@@@2@@__crt_stdio_output@@AAE_NXZ 100621c0 f i libucrtd:output.obj
 0001:000612b0       ?type_case_s@?$output_processor@_WV?$string_output_adapter@_W@__crt_stdio_output@@V?$positional_parameter_base@_WV?$string_output_adapter@_W@__crt_stdio_output@@@2@@__crt_stdio_output@@AAE_NXZ 100622b0 f i libucrtd:output.obj
 0001:000613a0       ?type_case_s@?$output_processor@_WV?$string_output_adapter@_W@__crt_stdio_output@@V?$standard_base@_WV?$string_output_adapter@_W@__crt_stdio_output@@@2@@__crt_stdio_output@@AAE_NXZ 100623a0 f i libucrtd:output.obj
 0001:00061490       ?type_case_s_compute_narrow_string_length@?$output_processor@DV?$stream_output_adapter@D@__crt_stdio_output@@V?$format_validation_base@DV?$stream_output_adapter@D@__crt_stdio_output@@@2@@__crt_stdio_output@@ABEHHD@Z 10062490 f i libucrtd:output.obj
 0001:000614c0       ?type_case_s_compute_narrow_string_length@?$output_processor@DV?$stream_output_adapter@D@__crt_stdio_output@@V?$positional_parameter_base@DV?$stream_output_adapter@D@__crt_stdio_output@@@2@@__crt_stdio_output@@ABEHHD@Z 100624c0 f i libucrtd:output.obj
 0001:000614f0       ?type_case_s_compute_narrow_string_length@?$output_processor@DV?$stream_output_adapter@D@__crt_stdio_output@@V?$standard_base@DV?$stream_output_adapter@D@__crt_stdio_output@@@2@@__crt_stdio_output@@ABEHHD@Z 100624f0 f i libucrtd:output.obj
 0001:00061520       ?type_case_s_compute_narrow_string_length@?$output_processor@DV?$string_output_adapter@D@__crt_stdio_output@@V?$format_validation_base@DV?$string_output_adapter@D@__crt_stdio_output@@@2@@__crt_stdio_output@@ABEHHD@Z 10062520 f i libucrtd:output.obj
 0001:00061550       ?type_case_s_compute_narrow_string_length@?$output_processor@DV?$string_output_adapter@D@__crt_stdio_output@@V?$positional_parameter_base@DV?$string_output_adapter@D@__crt_stdio_output@@@2@@__crt_stdio_output@@ABEHHD@Z 10062550 f i libucrtd:output.obj
 0001:00061580       ?type_case_s_compute_narrow_string_length@?$output_processor@DV?$string_output_adapter@D@__crt_stdio_output@@V?$standard_base@DV?$string_output_adapter@D@__crt_stdio_output@@@2@@__crt_stdio_output@@ABEHHD@Z 10062580 f i libucrtd:output.obj
 0001:000615b0       ?type_case_s_compute_narrow_string_length@?$output_processor@_WV?$stream_output_adapter@_W@__crt_stdio_output@@V?$format_validation_base@_WV?$stream_output_adapter@_W@__crt_stdio_output@@@2@@__crt_stdio_output@@ABEHH_W@Z 100625b0 f i libucrtd:output.obj
 0001:00061620       ?type_case_s_compute_narrow_string_length@?$output_processor@_WV?$stream_output_adapter@_W@__crt_stdio_output@@V?$positional_parameter_base@_WV?$stream_output_adapter@_W@__crt_stdio_output@@@2@@__crt_stdio_output@@ABEHH_W@Z 10062620 f i libucrtd:output.obj
 0001:00061690       ?type_case_s_compute_narrow_string_length@?$output_processor@_WV?$stream_output_adapter@_W@__crt_stdio_output@@V?$standard_base@_WV?$stream_output_adapter@_W@__crt_stdio_output@@@2@@__crt_stdio_output@@ABEHH_W@Z 10062690 f i libucrtd:output.obj
 0001:00061700       ?type_case_s_compute_narrow_string_length@?$output_processor@_WV?$string_output_adapter@_W@__crt_stdio_output@@V?$format_validation_base@_WV?$string_output_adapter@_W@__crt_stdio_output@@@2@@__crt_stdio_output@@ABEHH_W@Z 10062700 f i libucrtd:output.obj
 0001:00061770       ?type_case_s_compute_narrow_string_length@?$output_processor@_WV?$string_output_adapter@_W@__crt_stdio_output@@V?$positional_parameter_base@_WV?$string_output_adapter@_W@__crt_stdio_output@@@2@@__crt_stdio_output@@ABEHH_W@Z 10062770 f i libucrtd:output.obj
 0001:000617e0       ?type_case_s_compute_narrow_string_length@?$output_processor@_WV?$string_output_adapter@_W@__crt_stdio_output@@V?$standard_base@_WV?$string_output_adapter@_W@__crt_stdio_output@@@2@@__crt_stdio_output@@ABEHH_W@Z 100627e0 f i libucrtd:output.obj
 0001:00061850       ?type_case_u@?$output_processor@DV?$stream_output_adapter@D@__crt_stdio_output@@V?$format_validation_base@DV?$stream_output_adapter@D@__crt_stdio_output@@@2@@__crt_stdio_output@@AAE_NXZ 10062850 f i libucrtd:output.obj
 0001:00061870       ?type_case_u@?$output_processor@DV?$stream_output_adapter@D@__crt_stdio_output@@V?$positional_parameter_base@DV?$stream_output_adapter@D@__crt_stdio_output@@@2@@__crt_stdio_output@@AAE_NXZ 10062870 f i libucrtd:output.obj
 0001:00061890       ?type_case_u@?$output_processor@DV?$stream_output_adapter@D@__crt_stdio_output@@V?$standard_base@DV?$stream_output_adapter@D@__crt_stdio_output@@@2@@__crt_stdio_output@@AAE_NXZ 10062890 f i libucrtd:output.obj
 0001:000618b0       ?type_case_u@?$output_processor@DV?$string_output_adapter@D@__crt_stdio_output@@V?$format_validation_base@DV?$string_output_adapter@D@__crt_stdio_output@@@2@@__crt_stdio_output@@AAE_NXZ 100628b0 f i libucrtd:output.obj
 0001:000618d0       ?type_case_u@?$output_processor@DV?$string_output_adapter@D@__crt_stdio_output@@V?$positional_parameter_base@DV?$string_output_adapter@D@__crt_stdio_output@@@2@@__crt_stdio_output@@AAE_NXZ 100628d0 f i libucrtd:output.obj
 0001:000618f0       ?type_case_u@?$output_processor@DV?$string_output_adapter@D@__crt_stdio_output@@V?$standard_base@DV?$string_output_adapter@D@__crt_stdio_output@@@2@@__crt_stdio_output@@AAE_NXZ 100628f0 f i libucrtd:output.obj
 0001:00061910       ?type_case_u@?$output_processor@_WV?$stream_output_adapter@_W@__crt_stdio_output@@V?$format_validation_base@_WV?$stream_output_adapter@_W@__crt_stdio_output@@@2@@__crt_stdio_output@@AAE_NXZ 10062910 f i libucrtd:output.obj
 0001:00061930       ?type_case_u@?$output_processor@_WV?$stream_output_adapter@_W@__crt_stdio_output@@V?$positional_parameter_base@_WV?$stream_output_adapter@_W@__crt_stdio_output@@@2@@__crt_stdio_output@@AAE_NXZ 10062930 f i libucrtd:output.obj
 0001:00061950       ?type_case_u@?$output_processor@_WV?$stream_output_adapter@_W@__crt_stdio_output@@V?$standard_base@_WV?$stream_output_adapter@_W@__crt_stdio_output@@@2@@__crt_stdio_output@@AAE_NXZ 10062950 f i libucrtd:output.obj
 0001:00061970       ?type_case_u@?$output_processor@_WV?$string_output_adapter@_W@__crt_stdio_output@@V?$format_validation_base@_WV?$string_output_adapter@_W@__crt_stdio_output@@@2@@__crt_stdio_output@@AAE_NXZ 10062970 f i libucrtd:output.obj
 0001:00061990       ?type_case_u@?$output_processor@_WV?$string_output_adapter@_W@__crt_stdio_output@@V?$positional_parameter_base@_WV?$string_output_adapter@_W@__crt_stdio_output@@@2@@__crt_stdio_output@@AAE_NXZ 10062990 f i libucrtd:output.obj
 0001:000619b0       ?type_case_u@?$output_processor@_WV?$string_output_adapter@_W@__crt_stdio_output@@V?$standard_base@_WV?$string_output_adapter@_W@__crt_stdio_output@@@2@@__crt_stdio_output@@AAE_NXZ 100629b0 f i libucrtd:output.obj
 0001:000619d0       ?type_case_x@?$output_processor@DV?$stream_output_adapter@D@__crt_stdio_output@@V?$format_validation_base@DV?$stream_output_adapter@D@__crt_stdio_output@@@2@@__crt_stdio_output@@AAE_NXZ 100629d0 f i libucrtd:output.obj
 0001:000619f0       ?type_case_x@?$output_processor@DV?$stream_output_adapter@D@__crt_stdio_output@@V?$positional_parameter_base@DV?$stream_output_adapter@D@__crt_stdio_output@@@2@@__crt_stdio_output@@AAE_NXZ 100629f0 f i libucrtd:output.obj
 0001:00061a10       ?type_case_x@?$output_processor@DV?$stream_output_adapter@D@__crt_stdio_output@@V?$standard_base@DV?$stream_output_adapter@D@__crt_stdio_output@@@2@@__crt_stdio_output@@AAE_NXZ 10062a10 f i libucrtd:output.obj
 0001:00061a30       ?type_case_x@?$output_processor@DV?$string_output_adapter@D@__crt_stdio_output@@V?$format_validation_base@DV?$string_output_adapter@D@__crt_stdio_output@@@2@@__crt_stdio_output@@AAE_NXZ 10062a30 f i libucrtd:output.obj
 0001:00061a50       ?type_case_x@?$output_processor@DV?$string_output_adapter@D@__crt_stdio_output@@V?$positional_parameter_base@DV?$string_output_adapter@D@__crt_stdio_output@@@2@@__crt_stdio_output@@AAE_NXZ 10062a50 f i libucrtd:output.obj
 0001:00061a70       ?type_case_x@?$output_processor@DV?$string_output_adapter@D@__crt_stdio_output@@V?$standard_base@DV?$string_output_adapter@D@__crt_stdio_output@@@2@@__crt_stdio_output@@AAE_NXZ 10062a70 f i libucrtd:output.obj
 0001:00061a90       ?type_case_x@?$output_processor@_WV?$stream_output_adapter@_W@__crt_stdio_output@@V?$format_validation_base@_WV?$stream_output_adapter@_W@__crt_stdio_output@@@2@@__crt_stdio_output@@AAE_NXZ 10062a90 f i libucrtd:output.obj
 0001:00061ab0       ?type_case_x@?$output_processor@_WV?$stream_output_adapter@_W@__crt_stdio_output@@V?$positional_parameter_base@_WV?$stream_output_adapter@_W@__crt_stdio_output@@@2@@__crt_stdio_output@@AAE_NXZ 10062ab0 f i libucrtd:output.obj
 0001:00061ad0       ?type_case_x@?$output_processor@_WV?$stream_output_adapter@_W@__crt_stdio_output@@V?$standard_base@_WV?$stream_output_adapter@_W@__crt_stdio_output@@@2@@__crt_stdio_output@@AAE_NXZ 10062ad0 f i libucrtd:output.obj
 0001:00061af0       ?type_case_x@?$output_processor@_WV?$string_output_adapter@_W@__crt_stdio_output@@V?$format_validation_base@_WV?$string_output_adapter@_W@__crt_stdio_output@@@2@@__crt_stdio_output@@AAE_NXZ 10062af0 f i libucrtd:output.obj
 0001:00061b10       ?type_case_x@?$output_processor@_WV?$string_output_adapter@_W@__crt_stdio_output@@V?$positional_parameter_base@_WV?$string_output_adapter@_W@__crt_stdio_output@@@2@@__crt_stdio_output@@AAE_NXZ 10062b10 f i libucrtd:output.obj
 0001:00061b30       ?type_case_x@?$output_processor@_WV?$string_output_adapter@_W@__crt_stdio_output@@V?$standard_base@_WV?$string_output_adapter@_W@__crt_stdio_output@@@2@@__crt_stdio_output@@AAE_NXZ 10062b30 f i libucrtd:output.obj
 0001:00061b50       ?unset_flag@?$output_processor@DV?$stream_output_adapter@D@__crt_stdio_output@@V?$format_validation_base@DV?$stream_output_adapter@D@__crt_stdio_output@@@2@@__crt_stdio_output@@AAEXI@Z 10062b50 f i libucrtd:output.obj
 0001:00061b70       ?unset_flag@?$output_processor@DV?$stream_output_adapter@D@__crt_stdio_output@@V?$positional_parameter_base@DV?$stream_output_adapter@D@__crt_stdio_output@@@2@@__crt_stdio_output@@AAEXI@Z 10062b70 f i libucrtd:output.obj
 0001:00061b90       ?unset_flag@?$output_processor@DV?$stream_output_adapter@D@__crt_stdio_output@@V?$standard_base@DV?$stream_output_adapter@D@__crt_stdio_output@@@2@@__crt_stdio_output@@AAEXI@Z 10062b90 f i libucrtd:output.obj
 0001:00061bb0       ?unset_flag@?$output_processor@DV?$string_output_adapter@D@__crt_stdio_output@@V?$format_validation_base@DV?$string_output_adapter@D@__crt_stdio_output@@@2@@__crt_stdio_output@@AAEXI@Z 10062bb0 f i libucrtd:output.obj
 0001:00061bd0       ?unset_flag@?$output_processor@DV?$string_output_adapter@D@__crt_stdio_output@@V?$positional_parameter_base@DV?$string_output_adapter@D@__crt_stdio_output@@@2@@__crt_stdio_output@@AAEXI@Z 10062bd0 f i libucrtd:output.obj
 0001:00061bf0       ?unset_flag@?$output_processor@DV?$string_output_adapter@D@__crt_stdio_output@@V?$standard_base@DV?$string_output_adapter@D@__crt_stdio_output@@@2@@__crt_stdio_output@@AAEXI@Z 10062bf0 f i libucrtd:output.obj
 0001:00061c10       ?unset_flag@?$output_processor@_WV?$stream_output_adapter@_W@__crt_stdio_output@@V?$format_validation_base@_WV?$stream_output_adapter@_W@__crt_stdio_output@@@2@@__crt_stdio_output@@AAEXI@Z 10062c10 f i libucrtd:output.obj
 0001:00061c30       ?unset_flag@?$output_processor@_WV?$stream_output_adapter@_W@__crt_stdio_output@@V?$positional_parameter_base@_WV?$stream_output_adapter@_W@__crt_stdio_output@@@2@@__crt_stdio_output@@AAEXI@Z 10062c30 f i libucrtd:output.obj
 0001:00061c50       ?unset_flag@?$output_processor@_WV?$stream_output_adapter@_W@__crt_stdio_output@@V?$standard_base@_WV?$stream_output_adapter@_W@__crt_stdio_output@@@2@@__crt_stdio_output@@AAEXI@Z 10062c50 f i libucrtd:output.obj
 0001:00061c70       ?unset_flag@?$output_processor@_WV?$string_output_adapter@_W@__crt_stdio_output@@V?$format_validation_base@_WV?$string_output_adapter@_W@__crt_stdio_output@@@2@@__crt_stdio_output@@AAEXI@Z 10062c70 f i libucrtd:output.obj
 0001:00061c90       ?unset_flag@?$output_processor@_WV?$string_output_adapter@_W@__crt_stdio_output@@V?$positional_parameter_base@_WV?$string_output_adapter@_W@__crt_stdio_output@@@2@@__crt_stdio_output@@AAEXI@Z 10062c90 f i libucrtd:output.obj
 0001:00061cb0       ?unset_flag@?$output_processor@_WV?$string_output_adapter@_W@__crt_stdio_output@@V?$standard_base@_WV?$string_output_adapter@_W@__crt_stdio_output@@@2@@__crt_stdio_output@@AAEXI@Z 10062cb0 f i libucrtd:output.obj
 0001:00061cd0       ?update_field_width@?$positional_parameter_base@DV?$stream_output_adapter@D@__crt_stdio_output@@@__crt_stdio_output@@IAE_NXZ 10062cd0 f i libucrtd:output.obj
 0001:00061e50       ?update_field_width@?$positional_parameter_base@DV?$string_output_adapter@D@__crt_stdio_output@@@__crt_stdio_output@@IAE_NXZ 10062e50 f i libucrtd:output.obj
 0001:00061fd0       ?update_field_width@?$positional_parameter_base@_WV?$stream_output_adapter@_W@__crt_stdio_output@@@__crt_stdio_output@@IAE_NXZ 10062fd0 f i libucrtd:output.obj
 0001:00062150       ?update_field_width@?$positional_parameter_base@_WV?$string_output_adapter@_W@__crt_stdio_output@@@__crt_stdio_output@@IAE_NXZ 10063150 f i libucrtd:output.obj
 0001:000622d0       ?update_field_width@?$standard_base@DV?$stream_output_adapter@D@__crt_stdio_output@@@__crt_stdio_output@@IAE_NXZ 100632d0 f i libucrtd:output.obj
 0001:00062300       ?update_field_width@?$standard_base@DV?$string_output_adapter@D@__crt_stdio_output@@@__crt_stdio_output@@IAE_NXZ 10063300 f i libucrtd:output.obj
 0001:00062330       ?update_field_width@?$standard_base@_WV?$stream_output_adapter@_W@__crt_stdio_output@@@__crt_stdio_output@@IAE_NXZ 10063330 f i libucrtd:output.obj
 0001:00062360       ?update_field_width@?$standard_base@_WV?$string_output_adapter@_W@__crt_stdio_output@@@__crt_stdio_output@@IAE_NXZ 10063360 f i libucrtd:output.obj
 0001:00062390       ?update_precision@?$positional_parameter_base@DV?$stream_output_adapter@D@__crt_stdio_output@@@__crt_stdio_output@@IAE_NXZ 10063390 f i libucrtd:output.obj
 0001:00062510       ?update_precision@?$positional_parameter_base@DV?$string_output_adapter@D@__crt_stdio_output@@@__crt_stdio_output@@IAE_NXZ 10063510 f i libucrtd:output.obj
 0001:00062690       ?update_precision@?$positional_parameter_base@_WV?$stream_output_adapter@_W@__crt_stdio_output@@@__crt_stdio_output@@IAE_NXZ 10063690 f i libucrtd:output.obj
 0001:00062810       ?update_precision@?$positional_parameter_base@_WV?$string_output_adapter@_W@__crt_stdio_output@@@__crt_stdio_output@@IAE_NXZ 10063810 f i libucrtd:output.obj
 0001:00062990       ?update_precision@?$standard_base@DV?$stream_output_adapter@D@__crt_stdio_output@@@__crt_stdio_output@@IAE_NXZ 10063990 f i libucrtd:output.obj
 0001:000629c0       ?update_precision@?$standard_base@DV?$string_output_adapter@D@__crt_stdio_output@@@__crt_stdio_output@@IAE_NXZ 100639c0 f i libucrtd:output.obj
 0001:000629f0       ?update_precision@?$standard_base@_WV?$stream_output_adapter@_W@__crt_stdio_output@@@__crt_stdio_output@@IAE_NXZ 100639f0 f i libucrtd:output.obj
 0001:00062a20       ?update_precision@?$standard_base@_WV?$string_output_adapter@_W@__crt_stdio_output@@@__crt_stdio_output@@IAE_NXZ 10063a20 f i libucrtd:output.obj
 0001:00062a50       ?valid@__crt_stdio_stream@@QBE_NXZ 10063a50 f i libucrtd:output.obj
 0001:00062a80       ?validate@?$stream_output_adapter@D@__crt_stdio_output@@QBE_NXZ 10063a80 f i libucrtd:output.obj
 0001:00062b30       ?validate@?$stream_output_adapter@_W@__crt_stdio_output@@QBE_NXZ 10063b30 f i libucrtd:output.obj
 0001:00062be0       ?validate@?$string_output_adapter@D@__crt_stdio_output@@QBE_NXZ 10063be0 f i libucrtd:output.obj
 0001:00062c70       ?validate@?$string_output_adapter@_W@__crt_stdio_output@@QBE_NXZ 10063c70 f i libucrtd:output.obj
 0001:00062d00       ?validate_and_store_parameter_data@?$positional_parameter_base@DV?$stream_output_adapter@D@__crt_stdio_output@@@__crt_stdio_output@@AAE_NAAUparameter_data@12@W4parameter_type@12@DW4length_modifier@2@@Z 10063d00 f i libucrtd:output.obj
 0001:00062dd0       ?validate_and_store_parameter_data@?$positional_parameter_base@DV?$string_output_adapter@D@__crt_stdio_output@@@__crt_stdio_output@@AAE_NAAUparameter_data@12@W4parameter_type@12@DW4length_modifier@2@@Z 10063dd0 f i libucrtd:output.obj
 0001:00062ea0       ?validate_and_store_parameter_data@?$positional_parameter_base@_WV?$stream_output_adapter@_W@__crt_stdio_output@@@__crt_stdio_output@@AAE_NAAUparameter_data@12@W4parameter_type@12@_WW4length_modifier@2@@Z 10063ea0 f i libucrtd:output.obj
 0001:00062f80       ?validate_and_store_parameter_data@?$positional_parameter_base@_WV?$string_output_adapter@_W@__crt_stdio_output@@@__crt_stdio_output@@AAE_NAAUparameter_data@12@W4parameter_type@12@_WW4length_modifier@2@@Z 10063f80 f i libucrtd:output.obj
 0001:00063060       ?validate_and_update_state_at_beginning_of_format_character@?$positional_parameter_base@DV?$stream_output_adapter@D@__crt_stdio_output@@@__crt_stdio_output@@IAE_NXZ 10064060 f i libucrtd:output.obj
 0001:00063280       ?validate_and_update_state_at_beginning_of_format_character@?$positional_parameter_base@DV?$string_output_adapter@D@__crt_stdio_output@@@__crt_stdio_output@@IAE_NXZ 10064280 f i libucrtd:output.obj
 0001:000634a0       ?validate_and_update_state_at_beginning_of_format_character@?$positional_parameter_base@_WV?$stream_output_adapter@_W@__crt_stdio_output@@@__crt_stdio_output@@IAE_NXZ 100644a0 f i libucrtd:output.obj
 0001:000636c0       ?validate_and_update_state_at_beginning_of_format_character@?$positional_parameter_base@_WV?$string_output_adapter@_W@__crt_stdio_output@@@__crt_stdio_output@@IAE_NXZ 100646c0 f i libucrtd:output.obj
 0001:000638e0       ?validate_and_update_state_at_beginning_of_format_character@?$standard_base@DV?$stream_output_adapter@D@__crt_stdio_output@@@__crt_stdio_output@@IAE_NXZ 100648e0 f i libucrtd:output.obj
 0001:000638f0       ?validate_and_update_state_at_beginning_of_format_character@?$standard_base@DV?$string_output_adapter@D@__crt_stdio_output@@@__crt_stdio_output@@IAE_NXZ 100648f0 f i libucrtd:output.obj
 0001:00063900       ?validate_and_update_state_at_beginning_of_format_character@?$standard_base@_WV?$stream_output_adapter@_W@__crt_stdio_output@@@__crt_stdio_output@@IAE_NXZ 10064900 f i libucrtd:output.obj
 0001:00063910       ?validate_and_update_state_at_beginning_of_format_character@?$standard_base@_WV?$string_output_adapter@_W@__crt_stdio_output@@@__crt_stdio_output@@IAE_NXZ 10064910 f i libucrtd:output.obj
 0001:00063920       ?validate_and_update_state_at_end_of_format_string@?$format_validation_base@DV?$stream_output_adapter@D@__crt_stdio_output@@@__crt_stdio_output@@IBE_NXZ 10064920 f i libucrtd:output.obj
 0001:000639c0       ?validate_and_update_state_at_end_of_format_string@?$format_validation_base@DV?$string_output_adapter@D@__crt_stdio_output@@@__crt_stdio_output@@IBE_NXZ 100649c0 f i libucrtd:output.obj
 0001:00063a60       ?validate_and_update_state_at_end_of_format_string@?$format_validation_base@_WV?$stream_output_adapter@_W@__crt_stdio_output@@@__crt_stdio_output@@IBE_NXZ 10064a60 f i libucrtd:output.obj
 0001:00063b00       ?validate_and_update_state_at_end_of_format_string@?$format_validation_base@_WV?$string_output_adapter@_W@__crt_stdio_output@@@__crt_stdio_output@@IBE_NXZ 10064b00 f i libucrtd:output.obj
 0001:00063ba0       ?validate_and_update_state_at_end_of_format_string@?$positional_parameter_base@DV?$stream_output_adapter@D@__crt_stdio_output@@@__crt_stdio_output@@IAE_NXZ 10064ba0 f i libucrtd:output.obj
 0001:00063d40       ?validate_and_update_state_at_end_of_format_string@?$positional_parameter_base@DV?$string_output_adapter@D@__crt_stdio_output@@@__crt_stdio_output@@IAE_NXZ 10064d40 f i libucrtd:output.obj
 0001:00063ee0       ?validate_and_update_state_at_end_of_format_string@?$positional_parameter_base@_WV?$stream_output_adapter@_W@__crt_stdio_output@@@__crt_stdio_output@@IAE_NXZ 10064ee0 f i libucrtd:output.obj
 0001:00064080       ?validate_and_update_state_at_end_of_format_string@?$positional_parameter_base@_WV?$string_output_adapter@_W@__crt_stdio_output@@@__crt_stdio_output@@IAE_NXZ 10065080 f i libucrtd:output.obj
 0001:00064220       ?validate_and_update_state_at_end_of_format_string@?$standard_base@DV?$stream_output_adapter@D@__crt_stdio_output@@@__crt_stdio_output@@IBE_NXZ 10065220 f i libucrtd:output.obj
 0001:00064230       ?validate_and_update_state_at_end_of_format_string@?$standard_base@DV?$string_output_adapter@D@__crt_stdio_output@@@__crt_stdio_output@@IBE_NXZ 10065230 f i libucrtd:output.obj
 0001:00064240       ?validate_and_update_state_at_end_of_format_string@?$standard_base@_WV?$stream_output_adapter@_W@__crt_stdio_output@@@__crt_stdio_output@@IBE_NXZ 10065240 f i libucrtd:output.obj
 0001:00064250       ?validate_and_update_state_at_end_of_format_string@?$standard_base@_WV?$string_output_adapter@_W@__crt_stdio_output@@@__crt_stdio_output@@IBE_NXZ 10065250 f i libucrtd:output.obj
 0001:00064260       ?validate_state_for_type_case_a@?$positional_parameter_base@DV?$stream_output_adapter@D@__crt_stdio_output@@@__crt_stdio_output@@IAE_NXZ 10065260 f i libucrtd:output.obj
 0001:00064350       ?validate_state_for_type_case_a@?$positional_parameter_base@DV?$string_output_adapter@D@__crt_stdio_output@@@__crt_stdio_output@@IAE_NXZ 10065350 f i libucrtd:output.obj
 0001:00064440       ?validate_state_for_type_case_a@?$positional_parameter_base@_WV?$stream_output_adapter@_W@__crt_stdio_output@@@__crt_stdio_output@@IAE_NXZ 10065440 f i libucrtd:output.obj
 0001:00064530       ?validate_state_for_type_case_a@?$positional_parameter_base@_WV?$string_output_adapter@_W@__crt_stdio_output@@@__crt_stdio_output@@IAE_NXZ 10065530 f i libucrtd:output.obj
 0001:00064620       ?validate_state_for_type_case_a@?$standard_base@DV?$stream_output_adapter@D@__crt_stdio_output@@@__crt_stdio_output@@IBE_NXZ 10065620 f i libucrtd:output.obj
 0001:00064630       ?validate_state_for_type_case_a@?$standard_base@DV?$string_output_adapter@D@__crt_stdio_output@@@__crt_stdio_output@@IBE_NXZ 10065630 f i libucrtd:output.obj
 0001:00064640       ?validate_state_for_type_case_a@?$standard_base@_WV?$stream_output_adapter@_W@__crt_stdio_output@@@__crt_stdio_output@@IBE_NXZ 10065640 f i libucrtd:output.obj
 0001:00064650       ?validate_state_for_type_case_a@?$standard_base@_WV?$string_output_adapter@_W@__crt_stdio_output@@@__crt_stdio_output@@IBE_NXZ 10065650 f i libucrtd:output.obj
 0001:00064660       ?validate_stream_is_ansi_if_required@?$__acrt_stdio_char_traits@D@@SA_NQAU_iobuf@@@Z 10065660 f i libucrtd:output.obj
 0001:00064790       ?validate_stream_is_ansi_if_required@?$__acrt_stdio_char_traits@_W@@SA_NQAU_iobuf@@@Z 10065790 f i libucrtd:output.obj
 0001:000647a0       ?wide_null_string@?$output_processor@DV?$stream_output_adapter@D@__crt_stdio_output@@V?$format_validation_base@DV?$stream_output_adapter@D@__crt_stdio_output@@@2@@__crt_stdio_output@@CAPA_WXZ 100657a0 f i libucrtd:output.obj
 0001:000647b0       ?wide_null_string@?$output_processor@DV?$stream_output_adapter@D@__crt_stdio_output@@V?$positional_parameter_base@DV?$stream_output_adapter@D@__crt_stdio_output@@@2@@__crt_stdio_output@@CAPA_WXZ 100657b0 f i libucrtd:output.obj
 0001:000647c0       ?wide_null_string@?$output_processor@DV?$stream_output_adapter@D@__crt_stdio_output@@V?$standard_base@DV?$stream_output_adapter@D@__crt_stdio_output@@@2@@__crt_stdio_output@@CAPA_WXZ 100657c0 f i libucrtd:output.obj
 0001:000647d0       ?wide_null_string@?$output_processor@DV?$string_output_adapter@D@__crt_stdio_output@@V?$format_validation_base@DV?$string_output_adapter@D@__crt_stdio_output@@@2@@__crt_stdio_output@@CAPA_WXZ 100657d0 f i libucrtd:output.obj
 0001:000647e0       ?wide_null_string@?$output_processor@DV?$string_output_adapter@D@__crt_stdio_output@@V?$positional_parameter_base@DV?$string_output_adapter@D@__crt_stdio_output@@@2@@__crt_stdio_output@@CAPA_WXZ 100657e0 f i libucrtd:output.obj
 0001:000647f0       ?wide_null_string@?$output_processor@DV?$string_output_adapter@D@__crt_stdio_output@@V?$standard_base@DV?$string_output_adapter@D@__crt_stdio_output@@@2@@__crt_stdio_output@@CAPA_WXZ 100657f0 f i libucrtd:output.obj
 0001:00064800       ?wide_null_string@?$output_processor@_WV?$stream_output_adapter@_W@__crt_stdio_output@@V?$format_validation_base@_WV?$stream_output_adapter@_W@__crt_stdio_output@@@2@@__crt_stdio_output@@CAPA_WXZ 10065800 f i libucrtd:output.obj
 0001:00064810       ?wide_null_string@?$output_processor@_WV?$stream_output_adapter@_W@__crt_stdio_output@@V?$positional_parameter_base@_WV?$stream_output_adapter@_W@__crt_stdio_output@@@2@@__crt_stdio_output@@CAPA_WXZ 10065810 f i libucrtd:output.obj
 0001:00064820       ?wide_null_string@?$output_processor@_WV?$stream_output_adapter@_W@__crt_stdio_output@@V?$standard_base@_WV?$stream_output_adapter@_W@__crt_stdio_output@@@2@@__crt_stdio_output@@CAPA_WXZ 10065820 f i libucrtd:output.obj
 0001:00064830       ?wide_null_string@?$output_processor@_WV?$string_output_adapter@_W@__crt_stdio_output@@V?$format_validation_base@_WV?$string_output_adapter@_W@__crt_stdio_output@@@2@@__crt_stdio_output@@CAPA_WXZ 10065830 f i libucrtd:output.obj
 0001:00064840       ?wide_null_string@?$output_processor@_WV?$string_output_adapter@_W@__crt_stdio_output@@V?$positional_parameter_base@_WV?$string_output_adapter@_W@__crt_stdio_output@@@2@@__crt_stdio_output@@CAPA_WXZ 10065840 f i libucrtd:output.obj
 0001:00064850       ?wide_null_string@?$output_processor@_WV?$string_output_adapter@_W@__crt_stdio_output@@V?$standard_base@_WV?$string_output_adapter@_W@__crt_stdio_output@@@2@@__crt_stdio_output@@CAPA_WXZ 10065850 f i libucrtd:output.obj
 0001:00064860       ?write_character@?$output_adapter_common@DV?$stream_output_adapter@D@__crt_stdio_output@@@__crt_stdio_output@@QBEXDQAH@Z 10065860 f i libucrtd:output.obj
 0001:000648a0       ?write_character@?$output_adapter_common@_WV?$stream_output_adapter@_W@__crt_stdio_output@@@__crt_stdio_output@@QBEX_WQAH@Z 100658a0 f i libucrtd:output.obj
 0001:000648e0       ?write_character@?$string_output_adapter@D@__crt_stdio_output@@QBE_NDQAH@Z 100658e0 f i libucrtd:output.obj
 0001:00064970       ?write_character@?$string_output_adapter@_W@__crt_stdio_output@@QBE_N_WQAH@Z 10065970 f i libucrtd:output.obj
 0001:00064a10       ?write_character_without_count_update@?$stream_output_adapter@D@__crt_stdio_output@@QBE_ND@Z 10065a10 f i libucrtd:output.obj
 0001:00064a80       ?write_character_without_count_update@?$stream_output_adapter@_W@__crt_stdio_output@@QBE_N_W@Z 10065a80 f i libucrtd:output.obj
 0001:00064af0       ?write_stored_string_tchar@?$output_processor@DV?$stream_output_adapter@D@__crt_stdio_output@@V?$format_validation_base@DV?$stream_output_adapter@D@__crt_stdio_output@@@2@@__crt_stdio_output@@AAE_ND@Z 10065af0 f i libucrtd:output.obj
 0001:00064c10       ?write_stored_string_tchar@?$output_processor@DV?$stream_output_adapter@D@__crt_stdio_output@@V?$positional_parameter_base@DV?$stream_output_adapter@D@__crt_stdio_output@@@2@@__crt_stdio_output@@AAE_ND@Z 10065c10 f i libucrtd:output.obj
 0001:00064d30       ?write_stored_string_tchar@?$output_processor@DV?$stream_output_adapter@D@__crt_stdio_output@@V?$standard_base@DV?$stream_output_adapter@D@__crt_stdio_output@@@2@@__crt_stdio_output@@AAE_ND@Z 10065d30 f i libucrtd:output.obj
 0001:00064e50       ?write_stored_string_tchar@?$output_processor@DV?$string_output_adapter@D@__crt_stdio_output@@V?$format_validation_base@DV?$string_output_adapter@D@__crt_stdio_output@@@2@@__crt_stdio_output@@AAE_ND@Z 10065e50 f i libucrtd:output.obj
 0001:00064f70       ?write_stored_string_tchar@?$output_processor@DV?$string_output_adapter@D@__crt_stdio_output@@V?$positional_parameter_base@DV?$string_output_adapter@D@__crt_stdio_output@@@2@@__crt_stdio_output@@AAE_ND@Z 10065f70 f i libucrtd:output.obj
 0001:00065090       ?write_stored_string_tchar@?$output_processor@DV?$string_output_adapter@D@__crt_stdio_output@@V?$standard_base@DV?$string_output_adapter@D@__crt_stdio_output@@@2@@__crt_stdio_output@@AAE_ND@Z 10066090 f i libucrtd:output.obj
 0001:000651b0       ?write_stored_string_tchar@?$output_processor@_WV?$stream_output_adapter@_W@__crt_stdio_output@@V?$format_validation_base@_WV?$stream_output_adapter@_W@__crt_stdio_output@@@2@@__crt_stdio_output@@AAE_N_W@Z 100661b0 f i libucrtd:output.obj
 0001:000652a0       ?write_stored_string_tchar@?$output_processor@_WV?$stream_output_adapter@_W@__crt_stdio_output@@V?$positional_parameter_base@_WV?$stream_output_adapter@_W@__crt_stdio_output@@@2@@__crt_stdio_output@@AAE_N_W@Z 100662a0 f i libucrtd:output.obj
 0001:00065390       ?write_stored_string_tchar@?$output_processor@_WV?$stream_output_adapter@_W@__crt_stdio_output@@V?$standard_base@_WV?$stream_output_adapter@_W@__crt_stdio_output@@@2@@__crt_stdio_output@@AAE_N_W@Z 10066390 f i libucrtd:output.obj
 0001:00065480       ?write_stored_string_tchar@?$output_processor@_WV?$string_output_adapter@_W@__crt_stdio_output@@V?$format_validation_base@_WV?$string_output_adapter@_W@__crt_stdio_output@@@2@@__crt_stdio_output@@AAE_N_W@Z 10066480 f i libucrtd:output.obj
 0001:00065570       ?write_stored_string_tchar@?$output_processor@_WV?$string_output_adapter@_W@__crt_stdio_output@@V?$positional_parameter_base@_WV?$string_output_adapter@_W@__crt_stdio_output@@@2@@__crt_stdio_output@@AAE_N_W@Z 10066570 f i libucrtd:output.obj
 0001:00065660       ?write_stored_string_tchar@?$output_processor@_WV?$string_output_adapter@_W@__crt_stdio_output@@V?$standard_base@_WV?$string_output_adapter@_W@__crt_stdio_output@@@2@@__crt_stdio_output@@AAE_N_W@Z 10066660 f i libucrtd:output.obj
 0001:00065750       ?write_string@?$stream_output_adapter@D@__crt_stdio_output@@QBEXQBDHQAHAAV__crt_deferred_errno_cache@@@Z 10066750 f i libucrtd:output.obj
 0001:000657b0       ?write_string@?$stream_output_adapter@_W@__crt_stdio_output@@QBEXQB_WHQAHAAV__crt_deferred_errno_cache@@@Z 100667b0 f i libucrtd:output.obj
 0001:00065810       ?write_string@?$string_output_adapter@D@__crt_stdio_output@@QBEXQBDHQAHAAV__crt_deferred_errno_cache@@@Z 10066810 f i libucrtd:output.obj
 0001:00065910       ?write_string@?$string_output_adapter@_W@__crt_stdio_output@@QBEXQB_WHQAHAAV__crt_deferred_errno_cache@@@Z 10066910 f i libucrtd:output.obj
 0001:00065a20       ?write_string_impl@?$output_adapter_common@DV?$stream_output_adapter@D@__crt_stdio_output@@@__crt_stdio_output@@IBEXQBDHQAHAAV__crt_deferred_errno_cache@@@Z 10066a20 f i libucrtd:output.obj
 0001:00065ac0       ?write_string_impl@?$output_adapter_common@_WV?$stream_output_adapter@_W@__crt_stdio_output@@@__crt_stdio_output@@IBEXQB_WHQAHAAV__crt_deferred_errno_cache@@@Z 10066ac0 f i libucrtd:output.obj
 0001:00065b60       ___acrt_disable_global_locale_sync 10066b60 f i libucrtd:output.obj
 0001:00065b80       ___acrt_enable_global_locale_sync 10066b80 f i libucrtd:output.obj
 0001:00065ba0       ___acrt_isleadbyte_l_noupdate 10066ba0 f i libucrtd:output.obj
 0001:00065bc0       ___acrt_locale_changed     10066bc0 f i libucrtd:output.obj
 0001:00065bf0       ___acrt_locale_get_ctype_array_value 10066bf0 f i libucrtd:output.obj
 0001:00065c20       ___stdio_common_vfprintf   10066c20 f   libucrtd:output.obj
 0001:00065c50       ___stdio_common_vfprintf_p 10066c50 f   libucrtd:output.obj
 0001:00065c80       ___stdio_common_vfprintf_s 10066c80 f   libucrtd:output.obj
 0001:00065cb0       ___stdio_common_vfwprintf  10066cb0 f   libucrtd:output.obj
 0001:00065ce0       ___stdio_common_vfwprintf_p 10066ce0 f   libucrtd:output.obj
 0001:00065d10       ___stdio_common_vfwprintf_s 10066d10 f   libucrtd:output.obj
 0001:00065d40       ___stdio_common_vsnprintf_s 10066d40 f   libucrtd:output.obj
 0001:00065d70       ___stdio_common_vsnwprintf_s 10066d70 f   libucrtd:output.obj
 0001:00065da0       ___stdio_common_vsprintf   10066da0 f   libucrtd:output.obj
 0001:00065dd0       ___stdio_common_vsprintf_p 10066dd0 f   libucrtd:output.obj
 0001:00065e00       ___stdio_common_vsprintf_s 10066e00 f   libucrtd:output.obj
 0001:00065e30       ___stdio_common_vswprintf  10066e30 f   libucrtd:output.obj
 0001:00065e60       ___stdio_common_vswprintf_p 10066e60 f   libucrtd:output.obj
 0001:00065e90       ___stdio_common_vswprintf_s 10066e90 f   libucrtd:output.obj
 0001:00065ec0       __ctype_fast_check_internal 10066ec0 f i libucrtd:output.obj
 0001:00065ee0       __isdigit_fast_internal    10066ee0 f i libucrtd:output.obj
 0001:00065f00       __tolower_fast_internal    10066f00 f i libucrtd:output.obj
 0001:00065f20       _free                      10066f20 f   libucrtd:free.obj
 0001:00065f50       _malloc                    10066f50 f   libucrtd:malloc.obj
 0001:00065f70       ??$?RU?$__crt_report_hook_node@D@@@__crt_internal_free_policy@@QBEXQBU?$__crt_report_hook_node@D@@@Z 10066f70 f i libucrtd:dbgrpt.obj
 0001:00065f90       ??$?RU?$__crt_report_hook_node@_W@@@__crt_internal_free_policy@@QBEXQBU?$__crt_report_hook_node@_W@@@Z 10066f90 f i libucrtd:dbgrpt.obj
 0001:00066d80       ??$get_module_file_name@AAPAUHINSTANCE__@@AAY0BAF@DK@?$__crt_char_traits@D@@SAKAAPAUHINSTANCE__@@AAY0BAF@D$$QAK@Z 10067d80 f i libucrtd:dbgrpt.obj
 0001:00066da0       ??$get_module_file_name@AAPAUHINSTANCE__@@AAY0BAF@_WK@?$__crt_char_traits@_W@@SAKAAPAUHINSTANCE__@@AAY0BAF@_W$$QAK@Z 10067da0 f i libucrtd:dbgrpt.obj
 0001:00066dc0       ??$tcscpy_s@AAY0BAF@DIPBD@?$__crt_char_traits@D@@SAHAAY0BAF@D$$QAI$$QAPBD@Z 10067dc0 f i libucrtd:dbgrpt.obj
 0001:00066de0       ??$tcscpy_s@AAY0BAF@_WIPB_W@?$__crt_char_traits@_W@@SAHAAY0BAF@_W$$QAI$$QAPB_W@Z 10067de0 f i libucrtd:dbgrpt.obj
 0001:00066e00       ??$tcslen@AAY0BAF@D@?$__crt_char_traits@D@@SAIAAY0BAF@D@Z 10067e00 f i libucrtd:dbgrpt.obj
 0001:00066e20       ??$tcslen@AAY0BAF@_W@?$__crt_char_traits@_W@@SAIAAY0BAF@_W@Z 10067e20 f i libucrtd:dbgrpt.obj
 0001:00066e40       ??$tcslen@ABQBD@?$__crt_char_traits@D@@SAIABQBD@Z 10067e40 f i libucrtd:dbgrpt.obj
 0001:00066e60       ??$tcslen@ABQB_W@?$__crt_char_traits@_W@@SAIABQB_W@Z 10067e60 f i libucrtd:dbgrpt.obj
 0001:00066f60       ??0?$__crt_unique_heap_ptr@U?$__crt_report_hook_node@D@@U__crt_internal_free_policy@@@@QAE@QAU?$__crt_report_hook_node@D@@@Z 10067f60 f i libucrtd:dbgrpt.obj
 0001:00066f80       ??0?$__crt_unique_heap_ptr@U?$__crt_report_hook_node@_W@@U__crt_internal_free_policy@@@@QAE@QAU?$__crt_report_hook_node@_W@@@Z 10067f80 f i libucrtd:dbgrpt.obj
 0001:00066fa0       ??1?$__crt_unique_heap_ptr@U?$__crt_report_hook_node@D@@U__crt_internal_free_policy@@@@QAE@XZ 10067fa0 f i libucrtd:dbgrpt.obj
 0001:00066fc0       ??1?$__crt_unique_heap_ptr@U?$__crt_report_hook_node@_W@@U__crt_internal_free_policy@@@@QAE@XZ 10067fc0 f i libucrtd:dbgrpt.obj
 0001:00066fe0       ??B?$__crt_unique_heap_ptr@U?$__crt_report_hook_node@D@@U__crt_internal_free_policy@@@@QBE_NXZ 10067fe0 f i libucrtd:dbgrpt.obj
 0001:00067000       ??B?$__crt_unique_heap_ptr@U?$__crt_report_hook_node@_W@@U__crt_internal_free_policy@@@@QBE_NXZ 10068000 f i libucrtd:dbgrpt.obj
 0001:00067540       ?detach@?$__crt_unique_heap_ptr@U?$__crt_report_hook_node@D@@U__crt_internal_free_policy@@@@QAEPAU?$__crt_report_hook_node@D@@XZ 10068540 f i libucrtd:dbgrpt.obj
 0001:00067570       ?detach@?$__crt_unique_heap_ptr@U?$__crt_report_hook_node@_W@@U__crt_internal_free_policy@@@@QAEPAU?$__crt_report_hook_node@_W@@XZ 10068570 f i libucrtd:dbgrpt.obj
 0001:000675a0       ?get@?$__crt_unique_heap_ptr@U?$__crt_report_hook_node@D@@U__crt_internal_free_policy@@@@QBEPAU?$__crt_report_hook_node@D@@XZ 100685a0 f i libucrtd:dbgrpt.obj
 0001:000675c0       ?get@?$__crt_unique_heap_ptr@U?$__crt_report_hook_node@_W@@U__crt_internal_free_policy@@@@QBEPAU?$__crt_report_hook_node@_W@@XZ 100685c0 f i libucrtd:dbgrpt.obj
 0001:00067640       ?is_valid@?$__crt_unique_heap_ptr@U?$__crt_report_hook_node@D@@U__crt_internal_free_policy@@@@QBE_NXZ 10068640 f i libucrtd:dbgrpt.obj
 0001:00067670       ?is_valid@?$__crt_unique_heap_ptr@U?$__crt_report_hook_node@_W@@U__crt_internal_free_policy@@@@QBE_NXZ 10068670 f i libucrtd:dbgrpt.obj
 0001:000676a0       ?release@?$__crt_unique_heap_ptr@U?$__crt_report_hook_node@D@@U__crt_internal_free_policy@@@@QAEXXZ 100686a0 f i libucrtd:dbgrpt.obj
 0001:000676d0       ?release@?$__crt_unique_heap_ptr@U?$__crt_report_hook_node@_W@@U__crt_internal_free_policy@@@@QAEXXZ 100686d0 f i libucrtd:dbgrpt.obj
 0001:00067700       __CrtDbgReport             10068700 f   libucrtd:dbgrpt.obj
 0001:00067750       __CrtDbgReportW            10068750 f   libucrtd:dbgrpt.obj
 0001:000677a0       __CrtSetReportHook2        100687a0 f   libucrtd:dbgrpt.obj
 0001:000677c0       __CrtSetReportHookW2       100687c0 f   libucrtd:dbgrpt.obj
 0001:000677e0       ___acrt_MessageWindowA     100687e0 f   libucrtd:dbgrpt.obj
 0001:00067810       ___acrt_MessageWindowW     10068810 f   libucrtd:dbgrpt.obj
 0001:00067840       __invoke_watson_if_error   10068840 f i libucrtd:dbgrpt.obj
 0001:00067870       __invoke_watson_if_oneof   10068870 f i libucrtd:dbgrpt.obj
 0001:000678b0       __snwprintf_s              100688b0 f i libucrtd:dbgrpt.obj
 0001:000678f0       __vsnwprintf_s_l           100688f0 f i libucrtd:dbgrpt.obj
 0001:00067c70       _wcscpy_s                  10068c70 f   libucrtd:wcscpy_s.obj
 0001:00068990       ??1?$__crt_simd_cleanup_guard@$00@@QAE@XZ 10069990 f i libucrtd:strnlen.obj
 0001:000689a0       ??1?$__crt_simd_cleanup_guard@$0A@@@QAE@XZ 100699a0 f i libucrtd:strnlen.obj
 0001:000689b0       ?compare_equals@?$__crt_simd_traits@$00E@@SA?AT__m256i@@T2@0@Z 100699b0 f i libucrtd:strnlen.obj
 0001:000689f0       ?compare_equals@?$__crt_simd_traits@$00G@@SA?AT__m256i@@T2@0@Z 100699f0 f i libucrtd:strnlen.obj
 0001:00068a30       ?compare_equals@?$__crt_simd_traits@$0A@E@@SA?AT__m128i@@T2@0@Z 10069a30 f i libucrtd:strnlen.obj
 0001:00068a70       ?compare_equals@?$__crt_simd_traits@$0A@G@@SA?AT__m128i@@T2@0@Z 10069a70 f i libucrtd:strnlen.obj
 0001:00068ab0       ?compute_byte_mask@?$__crt_simd_pack_traits@$00@@SAHT__m256i@@@Z 10069ab0 f i libucrtd:strnlen.obj
 0001:00068ae0       ?compute_byte_mask@?$__crt_simd_pack_traits@$0A@@@SAHT__m128i@@@Z 10069ae0 f i libucrtd:strnlen.obj
 0001:00068b10       ?get_zero_pack@?$__crt_simd_pack_traits@$00@@SA?AT__m256i@@XZ 10069b10 f i libucrtd:strnlen.obj
 0001:00068b40       ?get_zero_pack@?$__crt_simd_pack_traits@$0A@@@SA?AT__m128i@@XZ 10069b40 f i libucrtd:strnlen.obj
 0001:00068b70       _strnlen                   10069b70 f   libucrtd:strnlen.obj
 0001:00068b90       _wcslen                    10069b90 f   libucrtd:strnlen.obj
 0001:00068bb0       _wcsnlen                   10069bb0 f   libucrtd:strnlen.obj
 0001:00068bd0       ??$__crt_fast_decode_pointer@P6AXPB_W00II@Z@@YAP6AXPB_W00II@ZQ6AX000II@Z@Z 10069bd0 f i libucrtd:invalid_parameter.obj
 0001:00068c00       ??$__crt_fast_encode_pointer@P6AXPB_W00II@Z@@YAP6AXPB_W00II@ZQ6AX000II@Z@Z 10069c00 f i libucrtd:invalid_parameter.obj
 0001:00068c30       ??$initialize_from_array@$$BY00Q6AXPB_W00II@Z@?$dual_state_global@P6AXPB_W00II@Z@__crt_state_management@@QAAXAAY00Q6AXPB_W00II@Z@Z 10069c30 f i libucrtd:invalid_parameter.obj
 0001:00068c80       ?__crt_rotate_pointer_value@@YAIIH@Z 10069c80 f i libucrtd:invalid_parameter.obj
 0001:00068c90       ?dangerous_get_state_array@?$dual_state_global@P6AXPB_W00II@Z@__crt_state_management@@QAEPAP6AXPB_W00II@ZXZ 10069c90 f i libucrtd:invalid_parameter.obj
 0001:00068ca0       ?get_current_state_index@__crt_state_management@@YAIXZ 10069ca0 f i libucrtd:invalid_parameter.obj
 0001:00068cb0       ?value@?$dual_state_global@P6AXPB_W00II@Z@__crt_state_management@@QAEAAP6AXPB_W00II@ZXZ 10069cb0 f i libucrtd:invalid_parameter.obj
 0001:00068cd0       ___acrt_call_reportfault   10069cd0 f   libucrtd:invalid_parameter.obj
 0001:00068e30       ___acrt_initialize_invalid_parameter_handler 10069e30 f   libucrtd:invalid_parameter.obj
 0001:00068e60       __get_invalid_parameter_handler 10069e60 f   libucrtd:invalid_parameter.obj
 0001:00068e80       __get_thread_local_invalid_parameter_handler 10069e80 f   libucrtd:invalid_parameter.obj
 0001:00068eb0       __invalid_parameter        10069eb0 f   libucrtd:invalid_parameter.obj
 0001:00068f70       __invalid_parameter_noinfo 10069f70 f   libucrtd:invalid_parameter.obj
 0001:00068f90       __invalid_parameter_noinfo_noreturn 10069f90 f   libucrtd:invalid_parameter.obj
 0001:00068fc0       __invoke_watson            10069fc0 f   libucrtd:invalid_parameter.obj
 0001:00069000       __set_invalid_parameter_handler 1006a000 f   libucrtd:invalid_parameter.obj
 0001:00069050       __set_thread_local_invalid_parameter_handler 1006a050 f   libucrtd:invalid_parameter.obj
 0001:00069080       ___acrt_errno_from_os_error 1006a080 f   libucrtd:errno.obj
 0001:00069100       ___acrt_errno_map_os_error 1006a100 f   libucrtd:errno.obj
 0001:00069130       ___doserrno                1006a130 f   libucrtd:errno.obj
 0001:00069160       __errno                    1006a160 f   libucrtd:errno.obj
 0001:00069190       __get_doserrno             1006a190 f   libucrtd:errno.obj
 0001:00069220       __get_errno                1006a220 f   libucrtd:errno.obj
 0001:000692b0       __set_doserrno             1006a2b0 f   libucrtd:errno.obj
 0001:000692e0       __set_errno                1006a2e0 f   libucrtd:errno.obj
 0001:00069310       _calloc                    1006a310 f   libucrtd:calloc.obj
 0001:00069330       __recalloc                 1006a330 f   libucrtd:recalloc.obj
 0001:00069360       __recalloc_base            1006a360 f   libucrtd:recalloc.obj
 0001:000693fa       __resetstkoflw             1006a3fa f   libucrtd:resetstk.obj
 0001:000698e0       _wcscat_s                  1006a8e0 f   libucrtd:wcscat_s.obj
 0001:00069d30       _wcsncpy_s                 1006ad30 f   libucrtd:wcsncpy_s.obj
 0001:00069e70       ___isascii                 1006ae70 f   libucrtd:_ctype.obj
 0001:00069ea0       ___iscsym                  1006aea0 f   libucrtd:_ctype.obj
 0001:00069ee0       ___iscsymf                 1006aee0 f   libucrtd:_ctype.obj
 0001:00069f20       ___toascii                 1006af20 f   libucrtd:_ctype.obj
 0001:00069f30       __isalnum_l                1006af30 f   libucrtd:_ctype.obj
 0001:00069f50       __isalpha_l                1006af50 f   libucrtd:_ctype.obj
 0001:00069f70       __isblank_l                1006af70 f   libucrtd:_ctype.obj
 0001:00069f90       __iscntrl_l                1006af90 f   libucrtd:_ctype.obj
 0001:00069fb0       __iscsym_l                 1006afb0 f   libucrtd:_ctype.obj
 0001:00069ff0       __iscsymf_l                1006aff0 f   libucrtd:_ctype.obj
 0001:0006a030       __isdigit_l                1006b030 f   libucrtd:_ctype.obj
 0001:0006a050       __isgraph_l                1006b050 f   libucrtd:_ctype.obj
 0001:0006a070       __islower_l                1006b070 f   libucrtd:_ctype.obj
 0001:0006a090       __isprint_l                1006b090 f   libucrtd:_ctype.obj
 0001:0006a0b0       __ispunct_l                1006b0b0 f   libucrtd:_ctype.obj
 0001:0006a0d0       __isspace_l                1006b0d0 f   libucrtd:_ctype.obj
 0001:0006a0f0       __isupper_l                1006b0f0 f   libucrtd:_ctype.obj
 0001:0006a110       __isxdigit_l               1006b110 f   libucrtd:_ctype.obj
 0001:0006a130       _isalnum                   1006b130 f   libucrtd:_ctype.obj
 0001:0006a150       _isalpha                   1006b150 f   libucrtd:_ctype.obj
 0001:0006a170       _isblank                   1006b170 f   libucrtd:_ctype.obj
 0001:0006a1a0       _iscntrl                   1006b1a0 f   libucrtd:_ctype.obj
 0001:0006a1c0       _isdigit                   1006b1c0 f   libucrtd:_ctype.obj
 0001:0006a1e0       _isgraph                   1006b1e0 f   libucrtd:_ctype.obj
 0001:0006a200       _islower                   1006b200 f   libucrtd:_ctype.obj
 0001:0006a220       _isprint                   1006b220 f   libucrtd:_ctype.obj
 0001:0006a240       _ispunct                   1006b240 f   libucrtd:_ctype.obj
 0001:0006a260       _isspace                   1006b260 f   libucrtd:_ctype.obj
 0001:0006a280       _isupper                   1006b280 f   libucrtd:_ctype.obj
 0001:0006a2a0       _isxdigit                  1006b2a0 f   libucrtd:_ctype.obj
 0001:0006a2c0       _wcscat                    1006b2c0 f   libucrtd:wcscat.obj
 0001:0006a320       _wcscpy                    1006b320 f   libucrtd:wcscpy.obj
 0001:0006a9b0       ??$open_file@ABQBDABQBDABHPAU_iobuf@@@?$__crt_char_traits@D@@SAPAU_iobuf@@ABQBD0ABH$$QAPAU1@@Z 1006b9b0 f i libucrtd:fopen.obj
 0001:0006a9e0       ??$open_file@ABQB_WABQB_WABHPAU_iobuf@@@?$__crt_char_traits@_W@@SAPAU_iobuf@@ABQB_W0ABH$$QAPAU1@@Z 1006b9e0 f i libucrtd:fopen.obj
 0001:0006aa10       ?unlock@__crt_stdio_stream@@QBEXXZ 1006ba10 f i libucrtd:fopen.obj
 0001:0006aa30       __fsopen                   1006ba30 f   libucrtd:fopen.obj
 0001:0006aa50       __wfopen                   1006ba50 f   libucrtd:fopen.obj
 0001:0006aa70       __wfopen_s                 1006ba70 f   libucrtd:fopen.obj
 0001:0006aa90       __wfsopen                  1006ba90 f   libucrtd:fopen.obj
 0001:0006aab0       _fopen                     1006bab0 f   libucrtd:fopen.obj
 0001:0006aad0       _fopen_s                   1006bad0 f   libucrtd:fopen.obj
 0001:0006aaf0       ?is_in_use@__crt_stdio_stream@@QBE_NXZ 1006baf0 f i libucrtd:fclose.obj
 0001:0006ab30       __fclose_nolock            1006bb30 f   libucrtd:fclose.obj
 0001:0006ac70       _fclose                    1006bc70 f   libucrtd:fclose.obj
 0001:0006adc0       __fputc_nolock             1006bdc0 f   libucrtd:fputc.obj
 0001:0006ae50       __fputchar                 1006be50 f   libucrtd:fputc.obj
 0001:0006ae70       __putc_nolock              1006be70 f   libucrtd:fputc.obj
 0001:0006ae90       _fputc                     1006be90 f   libucrtd:fputc.obj
 0001:0006b0d0       _putc                      1006c0d0 f   libucrtd:fputc.obj
 0001:0006b0f0       _putchar                   1006c0f0 f   libucrtd:fputc.obj
 0001:0006b160       __seh_filter_dll           1006c160 f   libucrtd:exception_filter.obj
 0001:0006b190       __seh_filter_exe           1006c190 f   libucrtd:exception_filter.obj
 0001:0006b3a0       ??$?B$$A6GXPAXK0@Z@__crt_fast_encoded_nullptr_t@@QBEP6GXPAXK0@ZXZ 1006c3a0 f i libucrtd:exit.obj
 0001:0006b480       ??$__crt_fast_decode_pointer@P6GXPAXK0@Z@@YAP6GXPAXK0@ZQ6GX0K0@Z@Z 1006c480 f i libucrtd:exit.obj
 0001:0006b4b0       ??$__crt_fast_encode_pointer@P6GXPAXK0@Z@@YAP6GXPAXK0@ZQ6GX0K0@Z@Z 1006c4b0 f i libucrtd:exit.obj
 0001:0006b4e0       ??$__crt_get_proc_address@P6GXI@Z@@YAP6GXI@ZQAUHINSTANCE__@@QBD@Z 1006c4e0 f i libucrtd:exit.obj
 0001:0006b570       ??0?$__crt_unique_handle_t@U__crt_hmodule_traits@@@@QAE@QAUHINSTANCE__@@@Z 1006c570 f i libucrtd:exit.obj
 0001:0006b590       ??1?$__crt_unique_handle_t@U__crt_hmodule_traits@@@@QAE@XZ 1006c590 f i libucrtd:exit.obj
 0001:0006b750       ?__acrt_select_exit_lock@@YA?AW4__acrt_lock_id@@XZ 1006c750 f i libucrtd:exit.obj
 0001:0006b760       ?__crt_fast_encode_pointer@@YA?AU__crt_fast_encoded_nullptr_t@@$$T@Z 1006c760 f i libucrtd:exit.obj
 0001:0006b790       ?close@?$__crt_unique_handle_t@U__crt_hmodule_traits@@@@QAEXXZ 1006c790 f i libucrtd:exit.obj
 0001:0006b7d0       ?close@__crt_hmodule_traits@@SA_NPAUHINSTANCE__@@@Z 1006c7d0 f i libucrtd:exit.obj
 0001:0006b8c0       ?get@?$__crt_unique_handle_t@U__crt_hmodule_traits@@@@QBEPAUHINSTANCE__@@XZ 1006c8c0 f i libucrtd:exit.obj
 0001:0006b8e0       ?get_address_of@?$__crt_unique_handle_t@U__crt_hmodule_traits@@@@QAEPAPAUHINSTANCE__@@XZ 1006c8e0 f i libucrtd:exit.obj
 0001:0006b8f0       ?get_invalid_value@__crt_hmodule_traits@@SAPAUHINSTANCE__@@XZ 1006c8f0 f i libucrtd:exit.obj
 0001:0006ba70       __Exit                     1006ca70 f   libucrtd:exit.obj
 0001:0006ba90       ___acrt_initialize_thread_local_exit_callback 1006ca90 f   libucrtd:exit.obj
 0001:0006baa0       __c_exit                   1006caa0 f   libucrtd:exit.obj
 0001:0006bac0       __cexit                    1006cac0 f   libucrtd:exit.obj
 0001:0006bae0       __exit                     1006cae0 f   libucrtd:exit.obj
 0001:0006bb00       __is_c_termination_complete 1006cb00 f   libucrtd:exit.obj
 0001:0006bb20       __register_thread_local_exe_atexit_callback 1006cb20 f   libucrtd:exit.obj
 0001:0006bb60       _exit                      1006cb60 f   libucrtd:exit.obj
 0001:0006bb80       _quick_exit                1006cb80 f   libucrtd:exit.obj
 0001:0006bba0       ??$?RE@__crt_internal_free_policy@@QBEXQBE@Z 1006cba0 f i libucrtd:argv_parsing.obj
 0001:0006bbc0       ??$?RPAD@__crt_internal_free_policy@@QBEXQBQAD@Z 1006cbc0 f i libucrtd:argv_parsing.obj
 0001:0006bbe0       ??$?RPA_W@__crt_internal_free_policy@@QBEXQBQA_W@Z 1006cbe0 f i libucrtd:argv_parsing.obj
 0001:0006c140       ??$get_module_file_name@$$TAAY0BAF@DH@?$__crt_char_traits@D@@SAK$$QA$$TAAY0BAF@D$$QAH@Z 1006d140 f i libucrtd:argv_parsing.obj
 0001:0006c160       ??$get_module_file_name@$$TAAY0BAF@_WH@?$__crt_char_traits@_W@@SAK$$QA$$TAAY0BAF@_W$$QAH@Z 1006d160 f i libucrtd:argv_parsing.obj
 0001:0006c880       ??$set_program_name@PAD@?$__crt_char_traits@D@@SAX$$QAPAD@Z 1006d880 f i libucrtd:argv_parsing.obj
 0001:0006c8a0       ??$set_program_name@PA_W@?$__crt_char_traits@_W@@SAX$$QAPA_W@Z 1006d8a0 f i libucrtd:argv_parsing.obj
 0001:0006c900       ??0?$__crt_unique_heap_ptr@EU__crt_internal_free_policy@@@@QAE@QAE@Z 1006d900 f i libucrtd:argv_parsing.obj
 0001:0006c920       ??0?$__crt_unique_heap_ptr@PADU__crt_internal_free_policy@@@@QAE@QAPAD@Z 1006d920 f i libucrtd:argv_parsing.obj
 0001:0006c940       ??0?$__crt_unique_heap_ptr@PA_WU__crt_internal_free_policy@@@@QAE@QAPA_W@Z 1006d940 f i libucrtd:argv_parsing.obj
 0001:0006c960       ??1?$__crt_unique_heap_ptr@EU__crt_internal_free_policy@@@@QAE@XZ 1006d960 f i libucrtd:argv_parsing.obj
 0001:0006c980       ??1?$__crt_unique_heap_ptr@PADU__crt_internal_free_policy@@@@QAE@XZ 1006d980 f i libucrtd:argv_parsing.obj
 0001:0006c9a0       ??1?$__crt_unique_heap_ptr@PA_WU__crt_internal_free_policy@@@@QAE@XZ 1006d9a0 f i libucrtd:argv_parsing.obj
 0001:0006c9c0       ??B?$__crt_unique_heap_ptr@EU__crt_internal_free_policy@@@@QBE_NXZ 1006d9c0 f i libucrtd:argv_parsing.obj
 0001:0006ca80       ?detach@?$__crt_unique_heap_ptr@EU__crt_internal_free_policy@@@@QAEPAEXZ 1006da80 f i libucrtd:argv_parsing.obj
 0001:0006cab0       ?detach@?$__crt_unique_heap_ptr@PADU__crt_internal_free_policy@@@@QAEPAPADXZ 1006dab0 f i libucrtd:argv_parsing.obj
 0001:0006cae0       ?detach@?$__crt_unique_heap_ptr@PA_WU__crt_internal_free_policy@@@@QAEPAPA_WXZ 1006dae0 f i libucrtd:argv_parsing.obj
 0001:0006cb70       ?get@?$__crt_unique_heap_ptr@EU__crt_internal_free_policy@@@@QBEPAEXZ 1006db70 f i libucrtd:argv_parsing.obj
 0001:0006cb90       ?get@?$__crt_unique_heap_ptr@PADU__crt_internal_free_policy@@@@QBEPAPADXZ 1006db90 f i libucrtd:argv_parsing.obj
 0001:0006cbb0       ?get@?$__crt_unique_heap_ptr@PA_WU__crt_internal_free_policy@@@@QBEPAPA_WXZ 1006dbb0 f i libucrtd:argv_parsing.obj
 0001:0006cbd0       ?get_address_of@?$__crt_unique_heap_ptr@PADU__crt_internal_free_policy@@@@QAEPAPAPADXZ 1006dbd0 f i libucrtd:argv_parsing.obj
 0001:0006cbe0       ?get_address_of@?$__crt_unique_heap_ptr@PA_WU__crt_internal_free_policy@@@@QAEPAPAPA_WXZ 1006dbe0 f i libucrtd:argv_parsing.obj
 0001:0006cc30       ?is_valid@?$__crt_unique_heap_ptr@EU__crt_internal_free_policy@@@@QBE_NXZ 1006dc30 f i libucrtd:argv_parsing.obj
 0001:0006cc60       ?release@?$__crt_unique_heap_ptr@EU__crt_internal_free_policy@@@@QAEXXZ 1006dc60 f i libucrtd:argv_parsing.obj
 0001:0006cc90       ?release@?$__crt_unique_heap_ptr@PADU__crt_internal_free_policy@@@@QAEXXZ 1006dc90 f i libucrtd:argv_parsing.obj
 0001:0006ccc0       ?release@?$__crt_unique_heap_ptr@PA_WU__crt_internal_free_policy@@@@QAEXXZ 1006dcc0 f i libucrtd:argv_parsing.obj
 0001:0006cd30       ___acrt_allocate_buffer_for_argv 1006dd30 f   libucrtd:argv_parsing.obj
 0001:0006cdf0       __configure_narrow_argv    1006ddf0 f   libucrtd:argv_parsing.obj
 0001:0006ce10       __configure_wide_argv      1006de10 f   libucrtd:argv_parsing.obj
 0001:0006ce30       __set_pgmptr               1006de30 f i libucrtd:argv_parsing.obj
 0001:0006ce40       __set_wpgmptr              1006de40 f i libucrtd:argv_parsing.obj
 0001:0006ce4f       ??$?R_W@__crt_internal_free_policy@@QBEXQB_W@Z 1006de4f f i libucrtd:environment_initialization.obj
 0001:0006d2b8       ??$get_environment_from_os@$$V@?$__crt_char_traits@D@@SAPADXZ 1006e2b8 f i libucrtd:environment_initialization.obj
 0001:0006d2bd       ??$get_environment_from_os@$$V@?$__crt_char_traits@_W@@SAPA_WXZ 1006e2bd f i libucrtd:environment_initialization.obj
 0001:0006d3e6       ??$set_variable_in_environment_nolock@PADH@?$__crt_char_traits@D@@SAH$$QAPAD$$QAH@Z 1006e3e6 f i libucrtd:environment_initialization.obj
 0001:0006d3fe       ??$set_variable_in_environment_nolock@PA_WH@?$__crt_char_traits@_W@@SAH$$QAPA_W$$QAH@Z 1006e3fe f i libucrtd:environment_initialization.obj
 0001:0006d416       ??$tcscpy_s@PADABIAAPAD@?$__crt_char_traits@D@@SAH$$QAPADABIAAPAD@Z 1006e416 f i libucrtd:environment_initialization.obj
 0001:0006d434       ??$tcscpy_s@PA_WABIAAPA_W@?$__crt_char_traits@_W@@SAH$$QAPA_WABIAAPA_W@Z 1006e434 f i libucrtd:environment_initialization.obj
 0001:0006d452       ??$tcslen@AAPAD@?$__crt_char_traits@D@@SAIAAPAD@Z 1006e452 f i libucrtd:environment_initialization.obj
 0001:0006d46a       ??$tcslen@AAPA_W@?$__crt_char_traits@_W@@SAIAAPA_W@Z 1006e46a f i libucrtd:environment_initialization.obj
 0001:0006d488       ??$uninitialize@A6AXAAPAPAD@Z@?$dual_state_global@PAPAD@__crt_state_management@@QAEXA6AXAAPAPAD@Z@Z 1006e488 f i libucrtd:environment_initialization.obj
 0001:0006d4b1       ??$uninitialize@A6AXAAPAPA_W@Z@?$dual_state_global@PAPA_W@__crt_state_management@@QAEXA6AXAAPAPA_W@Z@Z 1006e4b1 f i libucrtd:environment_initialization.obj
 0001:0006d510       ??0?$__crt_unique_heap_ptr@_WU__crt_internal_free_policy@@@@QAE@QA_W@Z 1006e510 f i libucrtd:environment_initialization.obj
 0001:0006d520       ??1?$__crt_unique_heap_ptr@_WU__crt_internal_free_policy@@@@QAE@XZ 1006e520 f i libucrtd:environment_initialization.obj
 0001:0006d535       ??B?$__crt_unique_heap_ptr@PADU__crt_internal_free_policy@@@@QBE_NXZ 1006e535 f i libucrtd:environment_initialization.obj
 0001:0006d53c       ??B?$__crt_unique_heap_ptr@PA_WU__crt_internal_free_policy@@@@QBE_NXZ 1006e53c f i libucrtd:environment_initialization.obj
 0001:0006d543       ??B?$__crt_unique_heap_ptr@_WU__crt_internal_free_policy@@@@QBE_NXZ 1006e543 f i libucrtd:environment_initialization.obj
 0001:0006d54a       ?__crt_compute_required_transform_buffer_count@@YAIIQBD@Z 1006e54a f i libucrtd:environment_initialization.obj
 0001:0006d566       ?__crt_compute_required_transform_buffer_count@@YAIIQB_W@Z 1006e566 f i libucrtd:environment_initialization.obj
 0001:0006d584       ?__crt_transform_string@@YAIIQBDQA_WI@Z 1006e584 f i libucrtd:environment_initialization.obj
 0001:0006d5a3       ?__crt_transform_string@@YAIIQB_WQADI@Z 1006e5a3 f i libucrtd:environment_initialization.obj
 0001:0006d5c5       ?detach@?$__crt_unique_heap_ptr@DU__crt_internal_free_policy@@@@QAEPADXZ 1006e5c5 f i libucrtd:environment_initialization.obj
 0001:0006d5cb       ?detach@?$__crt_unique_heap_ptr@_WU__crt_internal_free_policy@@@@QAEPA_WXZ 1006e5cb f i libucrtd:environment_initialization.obj
 0001:0006d5d1       ?get@?$__crt_unique_heap_ptr@_WU__crt_internal_free_policy@@@@QBEPA_WXZ 1006e5d1 f i libucrtd:environment_initialization.obj
 0001:0006d5f8       ?initialize@?$dual_state_global@PAPAD@__crt_state_management@@QAEXQAPAD@Z 1006e5f8 f i libucrtd:environment_initialization.obj
 0001:0006d61e       ?initialize@?$dual_state_global@PAPA_W@__crt_state_management@@QAEXQAPA_W@Z 1006e61e f i libucrtd:environment_initialization.obj
 0001:0006d644       ?is_valid@?$__crt_unique_heap_ptr@PADU__crt_internal_free_policy@@@@QBE_NXZ 1006e644 f i libucrtd:environment_initialization.obj
 0001:0006d64b       ?is_valid@?$__crt_unique_heap_ptr@PA_WU__crt_internal_free_policy@@@@QBE_NXZ 1006e64b f i libucrtd:environment_initialization.obj
 0001:0006d652       ?is_valid@?$__crt_unique_heap_ptr@_WU__crt_internal_free_policy@@@@QBE_NXZ 1006e652 f i libucrtd:environment_initialization.obj
 0001:0006d661       ?release@?$__crt_unique_heap_ptr@_WU__crt_internal_free_policy@@@@QAEXXZ 1006e661 f i libucrtd:environment_initialization.obj
 0001:0006d676       ?value@?$dual_state_global@PAPAD@__crt_state_management@@QAEAAPAPADXZ 1006e676 f i libucrtd:environment_initialization.obj
 0001:0006d679       ?value@?$dual_state_global@PAPA_W@__crt_state_management@@QAEAAPAPA_WXZ 1006e679 f i libucrtd:environment_initialization.obj
 0001:0006d67c       ___dcrt_get_or_create_narrow_environment_nolock 1006e67c f   libucrtd:environment_initialization.obj
 0001:0006d681       ___dcrt_get_or_create_wide_environment_nolock 1006e681 f   libucrtd:environment_initialization.obj
 0001:0006d686       ___dcrt_uninitialize_environments_nolock 1006e686 f   libucrtd:environment_initialization.obj
 0001:0006d6bd       ___p__environ              1006e6bd f   libucrtd:environment_initialization.obj
 0001:0006d6c3       ___p__wenviron             1006e6c3 f   libucrtd:environment_initialization.obj
 0001:0006d6c9       __get_initial_narrow_environment 1006e6c9 f   libucrtd:environment_initialization.obj
 0001:0006d6dd       __get_initial_wide_environment 1006e6dd f   libucrtd:environment_initialization.obj
 0001:0006d6f1       __initialize_narrow_environment 1006e6f1 f   libucrtd:environment_initialization.obj
 0001:0006d6f6       __initialize_wide_environment 1006e6f6 f   libucrtd:environment_initialization.obj
 0001:0006d700       ??$?B$$A6AXXZ@__crt_fast_encoded_nullptr_t@@QBEP6AXXZXZ 1006e700 f i libucrtd:onexit.obj
 0001:0006d720       ??$?BP6AXXZ@__crt_fast_encoded_nullptr_t@@QBEPAP6AXXZXZ 1006e720 f i libucrtd:onexit.obj
 0001:0006d740       ??$?RP6AXXZ@__crt_internal_free_policy@@QBEXQBQ6AXXZ@Z 1006e740 f i libucrtd:onexit.obj
 0001:0006d900       ??$__crt_fast_decode_pointer@P6AXXZ@@YAP6AXXZQ6AXXZ@Z 1006e900 f i libucrtd:onexit.obj
 0001:0006d930       ??$__crt_fast_decode_pointer@PAP6AXXZ@@YAPAP6AXXZQAP6AXXZ@Z 1006e930 f i libucrtd:onexit.obj
 0001:0006d960       ??$__crt_fast_encode_pointer@P6AHXZ@@YAP6AHXZQ6AHXZ@Z 1006e960 f i libucrtd:onexit.obj
 0001:0006d990       ??$__crt_fast_encode_pointer@P6AXXZ@@YAP6AXXZQ6AXXZ@Z 1006e990 f i libucrtd:onexit.obj
 0001:0006d9c0       ??$__crt_fast_encode_pointer@PAP6AXXZ@@YAPAP6AXXZQAP6AXXZ@Z 1006e9c0 f i libucrtd:onexit.obj
 0001:0006dac0       ??0?$__crt_unique_heap_ptr@P6AXXZU__crt_internal_free_policy@@@@QAE@QAP6AXXZ@Z 1006eac0 f i libucrtd:onexit.obj
 0001:0006dae0       ??1?$__crt_unique_heap_ptr@P6AXXZU__crt_internal_free_policy@@@@QAE@XZ 1006eae0 f i libucrtd:onexit.obj
 0001:0006db00       ??1scoped_global_state_reset@__crt_state_management@@QAE@XZ 1006eb00 f i libucrtd:onexit.obj
 0001:0006df70       ?detach@?$__crt_unique_heap_ptr@P6AXXZU__crt_internal_free_policy@@@@QAEPAP6AXXZXZ 1006ef70 f i libucrtd:onexit.obj
 0001:0006dfa0       ?release@?$__crt_unique_heap_ptr@P6AXXZU__crt_internal_free_policy@@@@QAEXXZ 1006efa0 f i libucrtd:onexit.obj
 0001:0006dfd0       __crt_at_quick_exit        1006efd0 f   libucrtd:onexit.obj
 0001:0006dff0       __crt_atexit               1006eff0 f   libucrtd:onexit.obj
 0001:0006e010       __execute_onexit_table     1006f010 f   libucrtd:onexit.obj
 0001:0006e040       __initialize_onexit_table  1006f040 f   libucrtd:onexit.obj
 0001:0006e0a0       __register_onexit_function 1006f0a0 f   libucrtd:onexit.obj
 0001:0006e2e0       ??$?BX@__crt_fast_encoded_nullptr_t@@QBEPAXXZ 1006f2e0 f i libucrtd:initialization.obj
 0001:0006e300       ??$__crt_fast_encode_pointer@PAX@@YAPAXQAX@Z 1006f300 f i libucrtd:initialization.obj
 0001:0006e3c0       ?initialize@?$dual_state_global@PAU__crt_locale_data@@@__crt_state_management@@QAEXQAU__crt_locale_data@@@Z 1006f3c0 f i libucrtd:initialization.obj
 0001:0006e400       ___acrt_initialize         1006f400 f   libucrtd:initialization.obj
 0001:0006e420       ___acrt_thread_attach      1006f420 f   libucrtd:initialization.obj
 0001:0006e440       ___acrt_thread_detach      1006f440 f   libucrtd:initialization.obj
 0001:0006e450       ___acrt_uninitialize       1006f450 f   libucrtd:initialization.obj
 0001:0006e470       ___acrt_uninitialize_critical 1006f470 f   libucrtd:initialization.obj
 0001:0006fce0       __CrtCheckMemory           10070ce0 f   libucrtd:debug_heap.obj
 0001:0006fe70       __CrtDoForAllClientObjects 10070e70 f   libucrtd:debug_heap.obj
 0001:0006ffc0       __CrtDumpMemoryLeaks       10070fc0 f   libucrtd:debug_heap.obj
 0001:00070060       __CrtGetAllocHook          10071060 f   libucrtd:debug_heap.obj
 0001:00070070       __CrtGetDumpClient         10071070 f   libucrtd:debug_heap.obj
 0001:00070080       __CrtIsMemoryBlock         10071080 f   libucrtd:debug_heap.obj
 0001:000701d0       __CrtIsValidHeapPointer    100711d0 f   libucrtd:debug_heap.obj
 0001:00070200       __CrtIsValidPointer        10071200 f   libucrtd:debug_heap.obj
 0001:00070230       __CrtMemCheckpoint         10071230 f   libucrtd:debug_heap.obj
 0001:00070460       __CrtMemDifference         10071460 f   libucrtd:debug_heap.obj
 0001:000706d0       __CrtMemDumpAllObjectsSince 100716d0 f   libucrtd:debug_heap.obj
 0001:00070770       __CrtMemDumpStatistics     10071770 f   libucrtd:debug_heap.obj
 0001:000708a0       __CrtReportBlockType       100718a0 f   libucrtd:debug_heap.obj
 0001:000708d0       __CrtSetAllocHook          100718d0 f   libucrtd:debug_heap.obj
 0001:000708f0       __CrtSetBreakAlloc         100718f0 f   libucrtd:debug_heap.obj
 0001:00070910       __CrtSetDbgBlockType       10071910 f   libucrtd:debug_heap.obj
 0001:000709f0       __CrtSetDbgFlag            100719f0 f   libucrtd:debug_heap.obj
 0001:00070b60       __CrtSetDumpClient         10071b60 f   libucrtd:debug_heap.obj
 0001:00070b80       ___acrt_get_locale_data_prefix 10071b80 f i libucrtd:debug_heap.obj
 0001:00070ba0       ___p__crtBreakAlloc        10071ba0 f   libucrtd:debug_heap.obj
 0001:00070bb0       ___p__crtDbgFlag           10071bb0 f   libucrtd:debug_heap.obj
 0001:00070bc0       __aligned_free_dbg         10071bc0 f   libucrtd:debug_heap.obj
 0001:00070c70       __aligned_malloc_dbg       10071c70 f   libucrtd:debug_heap.obj
 0001:00070ca0       __aligned_msize_dbg        10071ca0 f   libucrtd:debug_heap.obj
 0001:00070dd0       __aligned_offset_malloc_dbg 10071dd0 f   libucrtd:debug_heap.obj
 0001:00070fb0       __aligned_offset_realloc_dbg 10071fb0 f   libucrtd:debug_heap.obj
 0001:000712c0       __aligned_offset_recalloc_dbg 100722c0 f   libucrtd:debug_heap.obj
 0001:00071380       __aligned_realloc_dbg      10072380 f   libucrtd:debug_heap.obj
 0001:000713b0       __aligned_recalloc_dbg     100723b0 f   libucrtd:debug_heap.obj
 0001:000713e0       __calloc_dbg               100723e0 f   libucrtd:debug_heap.obj
 0001:00071450       __chvalidchk_l             10072450 f i libucrtd:debug_heap.obj
 0001:00071470       __expand_dbg               10072470 f   libucrtd:debug_heap.obj
 0001:000715a0       __free_dbg                 100725a0 f   libucrtd:debug_heap.obj
 0001:00071650       __ischartype_l             10072650 f i libucrtd:debug_heap.obj
 0001:000716d0       __malloc_dbg               100726d0 f   libucrtd:debug_heap.obj
 0001:000716f0       __msize_dbg                100726f0 f   libucrtd:debug_heap.obj
 0001:00071880       __realloc_dbg              10072880 f   libucrtd:debug_heap.obj
 0001:00071920       __recalloc_dbg             10072920 f   libucrtd:debug_heap.obj
 0001:000719d0       __initterm                 100729d0 f   libucrtd:initterm.obj
 0001:00071a20       __initterm_e               10072a20 f   libucrtd:initterm.obj
 0001:00071d90       _strcpy_s                  10072d90 f   libucrtd:strcpy_s.obj
 0001:000721c0       _strcat_s                  100731c0 f   libucrtd:strcat_s.obj
 0001:000721e0       ??$?B$$A6AHI@Z@__crt_fast_encoded_nullptr_t@@QBEP6AHI@ZXZ 100731e0 f i libucrtd:new_handler.obj
 0001:00072200       ??$__crt_fast_decode_pointer@P6AHI@Z@@YAP6AHI@ZQ6AHI@Z@Z 10073200 f i libucrtd:new_handler.obj
 0001:00072230       ??$__crt_fast_encode_pointer@P6AHI@Z@@YAP6AHI@ZQ6AHI@Z@Z 10073230 f i libucrtd:new_handler.obj
 0001:00072260       ?_set_new_handler@@YAP6AHI@ZH@Z 10073260 f   libucrtd:new_handler.obj
 0001:000722c0       ?initialize@?$dual_state_global@P6AHI@Z@__crt_state_management@@QAEXQ6AHI@Z@Z 100732c0 f i libucrtd:new_handler.obj
 0001:00072300       ?value@?$dual_state_global@P6AHI@Z@__crt_state_management@@QAEAAP6AHI@ZXZ 10073300 f i libucrtd:new_handler.obj
 0001:00072320       ___acrt_initialize_new_handler 10073320 f   libucrtd:new_handler.obj
 0001:00072340       __callnewh                 10073340 f   libucrtd:new_handler.obj
 0001:00072380       __query_new_handler        10073380 f   libucrtd:new_handler.obj
 0001:00072410       __set_new_handler          10073410 f   libucrtd:new_handler.obj
 0001:000724f0       __get_terminate            100734f0 f   libucrtd:terminate.obj
 0001:00072510       _set_terminate             10073510 f   libucrtd:terminate.obj
 0001:00072540       _terminate                 10073540 f   libucrtd:terminate.obj
 0001:00072f10       __makepath                 10073f10 f   libucrtd:makepath.obj
 0001:00072f40       __makepath_s               10073f40 f   libucrtd:makepath.obj
 0001:00072f70       __wmakepath                10073f70 f   libucrtd:makepath.obj
 0001:00072fa0       __wmakepath_s              10073fa0 f   libucrtd:makepath.obj
 0001:000748f0       ??$tcsncpy_s@AAPADIAAPBDABI@?$__crt_char_traits@D@@SAHAAPAD$$QAIAAPBDABI@Z 100758f0 f i libucrtd:splitpath.obj
 0001:00074920       ??$tcsncpy_s@AAPADIAAPBDH@?$__crt_char_traits@D@@SAHAAPAD$$QAIAAPBD$$QAH@Z 10075920 f i libucrtd:splitpath.obj
 0001:00074950       ??$tcsncpy_s@AAPA_WIAAPB_WABI@?$__crt_char_traits@_W@@SAHAAPA_W$$QAIAAPB_WABI@Z 10075950 f i libucrtd:splitpath.obj
 0001:00074980       ??$tcsncpy_s@AAPA_WIAAPB_WH@?$__crt_char_traits@_W@@SAHAAPA_W$$QAIAAPB_W$$QAH@Z 10075980 f i libucrtd:splitpath.obj
 0001:00074bc0       __splitpath                10075bc0 f   libucrtd:splitpath.obj
 0001:00074bf0       __splitpath_s              10075bf0 f   libucrtd:splitpath.obj
 0001:00074c40       __wsplitpath               10075c40 f   libucrtd:splitpath.obj
 0001:00074c70       __wsplitpath_s             10075c70 f   libucrtd:splitpath.obj
 0001:00074cc0       __set_abort_behavior       10075cc0 f   libucrtd:abort.obj
 0001:00074cf0       _abort                     10075cf0 f   libucrtd:abort.obj
 0001:00074d60       _strcmp                    10075d60 f   libucrtd:strcmp.obj
 0001:00074df0       _strlen                    10075df0 f   libucrtd:strlen.obj
 0001:00074e80       ??$is_overflow_condition@K@__crt_strtox@@YA_NIK@Z 10075e80 f i libucrtd:atox.obj
 0001:00074ee0       ??$is_overflow_condition@_K@__crt_strtox@@YA_NI_K@Z 10075ee0 f i libucrtd:atox.obj
 0001:00074f70       ??$make_c_string_character_source@D$$T@__crt_strtox@@YA?AV?$c_string_character_source@D@0@QBD$$T@Z 10075f70 f i libucrtd:atox.obj
 0001:00074f90       ??$make_c_string_character_source@_W$$T@__crt_strtox@@YA?AV?$c_string_character_source@_W@0@QB_W$$T@Z 10075f90 f i libucrtd:atox.obj
 0001:00074fb0       ??$parse_integer@KV?$c_string_character_source@D@__crt_strtox@@@__crt_strtox@@YAKQAU__crt_locale_pointers@@V?$c_string_character_source@D@0@H_N@Z 10075fb0 f i libucrtd:atox.obj
 0001:00075320       ??$parse_integer@KV?$c_string_character_source@_W@__crt_strtox@@@__crt_strtox@@YAKQAU__crt_locale_pointers@@V?$c_string_character_source@_W@0@H_N@Z 10076320 f i libucrtd:atox.obj
 0001:00075690       ??$parse_integer@_KV?$c_string_character_source@D@__crt_strtox@@@__crt_strtox@@YA_KQAU__crt_locale_pointers@@V?$c_string_character_source@D@0@H_N@Z 10076690 f i libucrtd:atox.obj
 0001:00075ab0       ??$parse_integer@_KV?$c_string_character_source@_W@__crt_strtox@@@__crt_strtox@@YA_KQAU__crt_locale_pointers@@V?$c_string_character_source@_W@0@H_N@Z 10076ab0 f i libucrtd:atox.obj
 0001:00075ee0       ??$parse_integer_from_string@JD$$T@__crt_strtox@@YAJQBD$$THQAU__crt_locale_pointers@@@Z 10076ee0 f i libucrtd:atox.obj
 0001:00075f20       ??$parse_integer_from_string@J_W$$T@__crt_strtox@@YAJQB_W$$THQAU__crt_locale_pointers@@@Z 10076f20 f i libucrtd:atox.obj
 0001:00075f60       ??$parse_integer_from_string@_JD$$T@__crt_strtox@@YA_JQBD$$THQAU__crt_locale_pointers@@@Z 10076f60 f i libucrtd:atox.obj
 0001:00075fa0       ??$parse_integer_from_string@_J_W$$T@__crt_strtox@@YA_JQB_W$$THQAU__crt_locale_pointers@@@Z 10076fa0 f i libucrtd:atox.obj
 0001:00075fe0       ??0?$c_string_character_source@D@__crt_strtox@@QAE@QBDQAPBD@Z 10076fe0 f i libucrtd:atox.obj
 0001:00076020       ??0?$c_string_character_source@_W@__crt_strtox@@QAE@QB_WQAPB_W@Z 10077020 f i libucrtd:atox.obj
 0001:00076060       ??1?$c_string_character_source@D@__crt_strtox@@QAE@XZ 10077060 f i libucrtd:atox.obj
 0001:00076090       ??1?$c_string_character_source@_W@__crt_strtox@@QAE@XZ 10077090 f i libucrtd:atox.obj
 0001:000760c0       ?get@?$c_string_character_source@D@__crt_strtox@@QAEDXZ 100770c0 f i libucrtd:atox.obj
 0001:000760f0       ?get@?$c_string_character_source@_W@__crt_strtox@@QAE_WXZ 100770f0 f i libucrtd:atox.obj
 0001:00076120       ?is_space@__crt_strtox@@YA_NDQAU__crt_locale_pointers@@@Z 10077120 f i libucrtd:atox.obj
 0001:00076160       ?is_space@__crt_strtox@@YA_N_WPAU__crt_locale_pointers@@@Z 10077160 f i libucrtd:atox.obj
 0001:00076190       ?maximum_signed_value@__crt_strtox@@YAJK@Z 10077190 f i libucrtd:atox.obj
 0001:000761a0       ?maximum_signed_value@__crt_strtox@@YA_J_K@Z 100771a0 f i libucrtd:atox.obj
 0001:000761b0       ?minimum_signed_value@__crt_strtox@@YAJK@Z 100771b0 f i libucrtd:atox.obj
 0001:000761c0       ?minimum_signed_value@__crt_strtox@@YA_J_K@Z 100771c0 f i libucrtd:atox.obj
 0001:000761d0       ?parse_digit@__crt_strtox@@YAID@Z 100771d0 f i libucrtd:atox.obj
 0001:00076230       ?parse_digit@__crt_strtox@@YAI_W@Z 10077230 f i libucrtd:atox.obj
 0001:00076280       ?restore_state@?$c_string_character_source@D@__crt_strtox@@QAE_NQBD@Z 10077280 f i libucrtd:atox.obj
 0001:000762a0       ?restore_state@?$c_string_character_source@_W@__crt_strtox@@QAE_NQB_W@Z 100772a0 f i libucrtd:atox.obj
 0001:000762c0       ?save_state@?$c_string_character_source@D@__crt_strtox@@QBEPBDXZ 100772c0 f i libucrtd:atox.obj
 0001:000762e0       ?save_state@?$c_string_character_source@_W@__crt_strtox@@QBEPB_WXZ 100772e0 f i libucrtd:atox.obj
 0001:00076300       ?unget@?$c_string_character_source@D@__crt_strtox@@QAEXD@Z 10077300 f i libucrtd:atox.obj
 0001:000763b0       ?unget@?$c_string_character_source@_W@__crt_strtox@@QAEX_W@Z 100773b0 f i libucrtd:atox.obj
 0001:00076460       ?validate@?$c_string_character_source@D@__crt_strtox@@QBE_NXZ 10077460 f i libucrtd:atox.obj
 0001:000764f0       ?validate@?$c_string_character_source@_W@__crt_strtox@@QBE_NXZ 100774f0 f i libucrtd:atox.obj
 0001:00076580       ?wide_character_to_digit@__crt_strtox@@YAH_W@Z 10077580 f i libucrtd:atox.obj
 0001:000768b0       ___ascii_iswalpha          100778b0 f i libucrtd:atox.obj
 0001:000768f0       ___ascii_toupper           100778f0 f i libucrtd:atox.obj
 0001:00076910       ___ascii_towupper          10077910 f i libucrtd:atox.obj
 0001:00076930       __atoi64                   10077930 f   libucrtd:atox.obj
 0001:00076950       __atoi64_l                 10077950 f   libucrtd:atox.obj
 0001:00076970       __atoi_l                   10077970 f   libucrtd:atox.obj
 0001:00076990       __atol_l                   10077990 f   libucrtd:atox.obj
 0001:000769b0       __atoll_l                  100779b0 f   libucrtd:atox.obj
 0001:000769d0       __wtoi                     100779d0 f   libucrtd:atox.obj
 0001:000769f0       __wtoi64                   100779f0 f   libucrtd:atox.obj
 0001:00076a10       __wtoi64_l                 10077a10 f   libucrtd:atox.obj
 0001:00076a30       __wtoi_l                   10077a30 f   libucrtd:atox.obj
 0001:00076a50       __wtol                     10077a50 f   libucrtd:atox.obj
 0001:00076a70       __wtol_l                   10077a70 f   libucrtd:atox.obj
 0001:00076a90       __wtoll                    10077a90 f   libucrtd:atox.obj
 0001:00076ab0       __wtoll_l                  10077ab0 f   libucrtd:atox.obj
 0001:00076ad0       _atoi                      10077ad0 f   libucrtd:atox.obj
 0001:00076af0       _atol                      10077af0 f   libucrtd:atox.obj
 0001:00076b10       _atoll                     10077b10 f   libucrtd:atox.obj
 0001:00076b30       _strncmp                   10077b30 f   libucrtd:strncmp.obj
 0001:00076bb0       _wcsncmp                   10077bb0 f   libucrtd:wcsncmp.obj
 0001:00076c10       __CrtGetDebugFillThreshold 10077c10 f   libucrtd:debug_fill_threshold.obj
 0001:00076c20       __CrtSetDebugFillThreshold 10077c20 f   libucrtd:debug_fill_threshold.obj
 0001:00076c40       ??$make_c_string_character_source@DPAPAD@__crt_strtox@@YA?AV?$c_string_character_source@D@0@QBDQAPAD@Z 10077c40 f i libucrtd:strtox.obj
 0001:00076c60       ??$make_c_string_character_source@_WPAPA_W@__crt_strtox@@YA?AV?$c_string_character_source@_W@0@QB_WQAPA_W@Z 10077c60 f i libucrtd:strtox.obj
 0001:00076c80       ??$parse_integer_from_string@JDPAPAD@__crt_strtox@@YAJQBDQAPADHQAU__crt_locale_pointers@@@Z 10077c80 f i libucrtd:strtox.obj
 0001:00076cc0       ??$parse_integer_from_string@J_WPAPA_W@__crt_strtox@@YAJQB_WQAPA_WHQAU__crt_locale_pointers@@@Z 10077cc0 f i libucrtd:strtox.obj
 0001:00076d00       ??$parse_integer_from_string@KDPAPAD@__crt_strtox@@YAKQBDQAPADHQAU__crt_locale_pointers@@@Z 10077d00 f i libucrtd:strtox.obj
 0001:00076d40       ??$parse_integer_from_string@K_WPAPA_W@__crt_strtox@@YAKQB_WQAPA_WHQAU__crt_locale_pointers@@@Z 10077d40 f i libucrtd:strtox.obj
 0001:00076d80       ??$parse_integer_from_string@_JDPAPAD@__crt_strtox@@YA_JQBDQAPADHQAU__crt_locale_pointers@@@Z 10077d80 f i libucrtd:strtox.obj
 0001:00076dc0       ??$parse_integer_from_string@_J_WPAPA_W@__crt_strtox@@YA_JQB_WQAPA_WHQAU__crt_locale_pointers@@@Z 10077dc0 f i libucrtd:strtox.obj
 0001:00076e00       ??$parse_integer_from_string@_KDPAPAD@__crt_strtox@@YA_KQBDQAPADHQAU__crt_locale_pointers@@@Z 10077e00 f i libucrtd:strtox.obj
 0001:00076e40       ??$parse_integer_from_string@_K_WPAPA_W@__crt_strtox@@YA_KQB_WQAPA_WHQAU__crt_locale_pointers@@@Z 10077e40 f i libucrtd:strtox.obj
 0001:00076e80       __strtoi64                 10077e80 f   libucrtd:strtox.obj
 0001:00076ea0       __strtoi64_l               10077ea0 f   libucrtd:strtox.obj
 0001:00076ec0       __strtoimax_l              10077ec0 f   libucrtd:strtox.obj
 0001:00076ee0       __strtol_l                 10077ee0 f   libucrtd:strtox.obj
 0001:00076f00       __strtoll_l                10077f00 f   libucrtd:strtox.obj
 0001:00076f20       __strtoui64                10077f20 f   libucrtd:strtox.obj
 0001:00076f40       __strtoui64_l              10077f40 f   libucrtd:strtox.obj
 0001:00076f60       __strtoul_l                10077f60 f   libucrtd:strtox.obj
 0001:00076f80       __strtoull_l               10077f80 f   libucrtd:strtox.obj
 0001:00076fa0       __strtoumax_l              10077fa0 f   libucrtd:strtox.obj
 0001:00076fc0       __wcstoi64                 10077fc0 f   libucrtd:strtox.obj
 0001:00076fe0       __wcstoi64_l               10077fe0 f   libucrtd:strtox.obj
 0001:00077000       __wcstoimax_l              10078000 f   libucrtd:strtox.obj
 0001:00077020       __wcstol_l                 10078020 f   libucrtd:strtox.obj
 0001:00077040       __wcstoll_l                10078040 f   libucrtd:strtox.obj
 0001:00077060       __wcstoui64                10078060 f   libucrtd:strtox.obj
 0001:00077080       __wcstoui64_l              10078080 f   libucrtd:strtox.obj
 0001:000770a0       __wcstoul_l                100780a0 f   libucrtd:strtox.obj
 0001:000770c0       __wcstoull_l               100780c0 f   libucrtd:strtox.obj
 0001:000770e0       __wcstoumax_l              100780e0 f   libucrtd:strtox.obj
 0001:00077100       _strtoimax                 10078100 f   libucrtd:strtox.obj
 0001:00077120       _strtol                    10078120 f   libucrtd:strtox.obj
 0001:00077140       _strtoll                   10078140 f   libucrtd:strtox.obj
 0001:00077160       _strtoul                   10078160 f   libucrtd:strtox.obj
 0001:00077180       _strtoull                  10078180 f   libucrtd:strtox.obj
 0001:000771a0       _strtoumax                 100781a0 f   libucrtd:strtox.obj
 0001:000771c0       _wcstoimax                 100781c0 f   libucrtd:strtox.obj
 0001:000771e0       _wcstol                    100781e0 f   libucrtd:strtox.obj
 0001:00077200       _wcstoll                   10078200 f   libucrtd:strtox.obj
 0001:00077220       _wcstoul                   10078220 f   libucrtd:strtox.obj
 0001:00077240       _wcstoull                  10078240 f   libucrtd:strtox.obj
 0001:00077260       _wcstoumax                 10078260 f   libucrtd:strtox.obj
 0001:00077280       __mbtowc_l                 10078280 f   libucrtd:mbtowc.obj
 0001:000775a0       _mbtowc                    100785a0 f   libucrtd:mbtowc.obj
 0001:000775c0       __wctomb_l                 100785c0 f   libucrtd:wctomb.obj
 0001:00077640       __wctomb_s_l               10078640 f   libucrtd:wctomb.obj
 0001:00077a00       _wctomb                    10078a00 f   libucrtd:wctomb.obj
 0001:00077a50       _wctomb_s                  10078a50 f   libucrtd:wctomb.obj
 0001:00077a80       ??$?RU__acrt_ptd@@@__crt_internal_free_policy@@QBEXQBU__acrt_ptd@@@Z 10078a80 f i libucrtd:per_thread_data.obj
 0001:00077f30       ??0?$__crt_unique_heap_ptr@U__acrt_ptd@@U__crt_internal_free_policy@@@@QAE@QAU__acrt_ptd@@@Z 10078f30 f i libucrtd:per_thread_data.obj
 0001:00077f50       ??0__crt_scoped_get_last_error_reset@@QAE@XZ 10078f50 f i libucrtd:per_thread_data.obj
 0001:00077f70       ??1?$__crt_unique_heap_ptr@U__acrt_ptd@@U__crt_internal_free_policy@@@@QAE@XZ 10078f70 f i libucrtd:per_thread_data.obj
 0001:00077f90       ??1__crt_scoped_get_last_error_reset@@QAE@XZ 10078f90 f i libucrtd:per_thread_data.obj
 0001:00077fb0       ??B?$__crt_unique_heap_ptr@U__acrt_ptd@@U__crt_internal_free_policy@@@@QBE_NXZ 10078fb0 f i libucrtd:per_thread_data.obj
 0001:00078290       ?dangerous_get_state_array@?$dual_state_global@PAU__crt_locale_data@@@__crt_state_management@@QAEPAPAU__crt_locale_data@@XZ 10079290 f i libucrtd:per_thread_data.obj
 0001:00078410       ?detach@?$__crt_unique_heap_ptr@U__acrt_ptd@@U__crt_internal_free_policy@@@@QAEPAU__acrt_ptd@@XZ 10079410 f i libucrtd:per_thread_data.obj
 0001:00078440       ?get@?$__crt_unique_heap_ptr@U__acrt_ptd@@U__crt_internal_free_policy@@@@QBEPAU__acrt_ptd@@XZ 10079440 f i libucrtd:per_thread_data.obj
 0001:00078460       ?get_current_state_index@__crt_state_management@@YAIABV__crt_scoped_get_last_error_reset@@@Z 10079460 f i libucrtd:per_thread_data.obj
 0001:000785d0       ?is_valid@?$__crt_unique_heap_ptr@U__acrt_ptd@@U__crt_internal_free_policy@@@@QBE_NXZ 100795d0 f i libucrtd:per_thread_data.obj
 0001:00078600       ?release@?$__crt_unique_heap_ptr@U__acrt_ptd@@U__crt_internal_free_policy@@@@QAEXXZ 10079600 f i libucrtd:per_thread_data.obj
 0001:000786f0       ?value@?$dual_state_global@PAU__crt_locale_data@@@__crt_state_management@@QAEAAPAU__crt_locale_data@@XZ 100796f0 f i libucrtd:per_thread_data.obj
 0001:00078710       ___acrt_freeptd            10079710 f   libucrtd:per_thread_data.obj
 0001:00078740       ___acrt_getptd             10079740 f   libucrtd:per_thread_data.obj
 0001:00078760       ___acrt_getptd_head        10079760 f   libucrtd:per_thread_data.obj
 0001:00078780       ___acrt_getptd_noexit      10079780 f   libucrtd:per_thread_data.obj
 0001:00078790       ___acrt_initialize_ptd     10079790 f   libucrtd:per_thread_data.obj
 0001:000787d0       ___acrt_uninitialize_ptd   100797d0 f   libucrtd:per_thread_data.obj
 0001:00078800       ___threadhandle            10079800 f   libucrtd:per_thread_data.obj
 0001:00078810       ___threadid                10079810 f   libucrtd:per_thread_data.obj
 0001:00078820       ?value@?$dual_state_global@PAU__crt_multibyte_data@@@__crt_state_management@@QAEAAPAU__crt_multibyte_data@@XZ 10079820 f i libucrtd:locale_update.obj
 0001:00078840       ___acrt_should_sync_with_global_locale 10079840 f i libucrtd:locale_update.obj
 0001:00078870       ___acrt_update_locale_info 10079870 f   libucrtd:locale_update.obj
 0001:000788b0       ___acrt_update_multibyte_info 100798b0 f   libucrtd:locale_update.obj
 0001:000788f0       ?__acrt_fp_classify@@YA?AW4__acrt_fp_class@@ABN@Z 100798f0 f i libucrtd:cvt.obj
 0001:00078a10       ?__acrt_fp_is_negative@@YA_NABN@Z 10079a10 f i libucrtd:cvt.obj
 0001:00079d00       ?strrchr@@YAPADQADH@Z      1007ad00 f i libucrtd:cvt.obj
 0001:00079d20       ___acrt_fp_format          1007ad20 f   libucrtd:cvt.obj
 0001:0007a1e0       __fputwc_nolock            1007b1e0 f   libucrtd:fputwc.obj
 0001:0007a3d0       __fputwchar                1007b3d0 f   libucrtd:fputwc.obj
 0001:0007a3f0       __putwc_nolock             1007b3f0 f   libucrtd:fputwc.obj
 0001:0007a410       _fputwc                    1007b410 f   libucrtd:fputwc.obj
 0001:0007a520       _putwc                     1007b520 f   libucrtd:fputwc.obj
 0001:0007a540       _putwchar                  1007b540 f   libucrtd:fputwc.obj
 0001:0007a560       ?lowio_handle@__crt_stdio_stream@@QBEHXZ 1007b560 f i libucrtd:fileno.obj
 0001:0007a580       __fileno                   1007b580 f   libucrtd:fileno.obj
 0001:0007a620       ??$?RPAU__crt_stdio_stream_data@@@__crt_internal_free_policy@@QBEXQBQAU__crt_stdio_stream_data@@@Z 1007b620 f i libucrtd:_file.obj
 0001:0007a640       ??0?$__crt_unique_heap_ptr@PAU__crt_stdio_stream_data@@U__crt_internal_free_policy@@@@QAE@QAPAU__crt_stdio_stream_data@@@Z 1007b640 f i libucrtd:_file.obj
 0001:0007a660       ??1?$__crt_unique_heap_ptr@PAU__crt_stdio_stream_data@@U__crt_internal_free_policy@@@@QAE@XZ 1007b660 f i libucrtd:_file.obj
 0001:0007a680       ?detach@?$__crt_unique_heap_ptr@PAU__crt_stdio_stream_data@@U__crt_internal_free_policy@@@@QAEPAPAU__crt_stdio_stream_data@@XZ 1007b680 f i libucrtd:_file.obj
 0001:0007a6b0       ?release@?$__crt_unique_heap_ptr@PAU__crt_stdio_stream_data@@U__crt_internal_free_policy@@@@QAEXXZ 1007b6b0 f i libucrtd:_file.obj
 0001:0007a6e0       ___acrt_initialize_stdio   1007b6e0 f   libucrtd:_file.obj
 0001:0007a850       ___acrt_iob_func           1007b850 f   libucrtd:_file.obj
 0001:0007a860       ___acrt_uninitialize_stdio 1007b860 f   libucrtd:_file.obj
 0001:0007a8e0       __get_stream_buffer_pointers 1007b8e0 f   libucrtd:_file.obj
 0001:0007a9c0       __lock_file                1007b9c0 f   libucrtd:_file.obj
 0001:0007a9f0       __unlock_file              1007b9f0 f   libucrtd:_file.obj
 0001:0007aa20       __get_printf_count_output  1007ba20 f   libucrtd:printf_count_output.obj
 0001:0007aa50       __set_printf_count_output  1007ba50 f   libucrtd:printf_count_output.obj
 0001:0007aab0       ?has_any_buffer@__crt_stdio_stream@@QBE_NXZ 1007bab0 f i libucrtd:_sftbuf.obj
 0001:0007aad0       ?has_any_of@__crt_stdio_stream@@QBE_NJ@Z 1007bad0 f i libucrtd:_sftbuf.obj
 0001:0007ab10       ?has_temporary_buffer@__crt_stdio_stream@@QBE_NXZ 1007bb10 f i libucrtd:_sftbuf.obj
 0001:0007ab30       ?set_flags@__crt_stdio_stream@@QBE_NJ@Z 1007bb30 f i libucrtd:_sftbuf.obj
 0001:0007ab80       ?unset_flags@__crt_stdio_stream@@QBE_NJ@Z 1007bb80 f i libucrtd:_sftbuf.obj
 0001:0007abd0       ___acrt_should_use_temporary_buffer 1007bbd0 f   libucrtd:_sftbuf.obj
 0001:0007ac20       ___acrt_stdio_begin_temporary_buffering_nolock 1007bc20 f   libucrtd:_sftbuf.obj
 0001:0007add0       ___acrt_stdio_end_temporary_buffering_nolock 1007bdd0 f   libucrtd:_sftbuf.obj
 0001:0007ae60       ??$?RU__crt_locale_data@@@__crt_internal_free_policy@@QBEXQBU__crt_locale_data@@@Z 1007be60 f i libucrtd:wsetlocale.obj
 0001:0007ae80       ??$?RU__crt_locale_pointers@@@__crt_internal_free_policy@@QBEXQBU__crt_locale_pointers@@@Z 1007be80 f i libucrtd:wsetlocale.obj
 0001:0007aea0       ??$?RU__crt_multibyte_data@@@__crt_internal_free_policy@@QBEXQBU__crt_multibyte_data@@@Z 1007bea0 f i libucrtd:wsetlocale.obj
 0001:0007b490       ??0?$__crt_unique_heap_ptr@U__crt_locale_data@@U__crt_internal_free_policy@@@@QAE@QAU__crt_locale_data@@@Z 1007c490 f i libucrtd:wsetlocale.obj
 0001:0007b4b0       ??0?$__crt_unique_heap_ptr@U__crt_locale_pointers@@U__crt_internal_free_policy@@@@QAE@QAU__crt_locale_pointers@@@Z 1007c4b0 f i libucrtd:wsetlocale.obj
 0001:0007b4d0       ??0?$__crt_unique_heap_ptr@U__crt_multibyte_data@@U__crt_internal_free_policy@@@@QAE@QAU__crt_multibyte_data@@@Z 1007c4d0 f i libucrtd:wsetlocale.obj
 0001:0007b4f0       ??0_expandlocale_locale_name_cache@@QAE@QA_WIQAU__crt_qualified_locale_data@@@Z 1007c4f0 f i libucrtd:wsetlocale.obj
 0001:0007b560       ??1?$__crt_unique_heap_ptr@U__crt_locale_data@@U__crt_internal_free_policy@@@@QAE@XZ 1007c560 f i libucrtd:wsetlocale.obj
 0001:0007b580       ??1?$__crt_unique_heap_ptr@U__crt_locale_pointers@@U__crt_internal_free_policy@@@@QAE@XZ 1007c580 f i libucrtd:wsetlocale.obj
 0001:0007b5a0       ??1?$__crt_unique_heap_ptr@U__crt_multibyte_data@@U__crt_internal_free_policy@@@@QAE@XZ 1007c5a0 f i libucrtd:wsetlocale.obj
 0001:0007b5c0       ??1_expandlocale_locale_name_cache@@QAE@XZ 1007c5c0 f i libucrtd:wsetlocale.obj
 0001:0007b620       ??B?$__crt_unique_heap_ptr@U__crt_locale_data@@U__crt_internal_free_policy@@@@QBE_NXZ 1007c620 f i libucrtd:wsetlocale.obj
 0001:0007b640       ??B?$__crt_unique_heap_ptr@U__crt_locale_pointers@@U__crt_internal_free_policy@@@@QBE_NXZ 1007c640 f i libucrtd:wsetlocale.obj
 0001:0007b660       ??B?$__crt_unique_heap_ptr@U__crt_multibyte_data@@U__crt_internal_free_policy@@@@QBE_NXZ 1007c660 f i libucrtd:wsetlocale.obj
 0001:0007ba40       ?commit_locale_name@_expandlocale_locale_name_cache@@QAEXQB_WI@Z 1007ca40 f i libucrtd:wsetlocale.obj
 0001:0007baa0       ?commit_locale_name_cache_already_updated@_expandlocale_locale_name_cache@@QAEXQB_WI@Z 1007caa0 f i libucrtd:wsetlocale.obj
 0001:0007bb00       ?detach@?$__crt_unique_heap_ptr@U__crt_locale_data@@U__crt_internal_free_policy@@@@QAEPAU__crt_locale_data@@XZ 1007cb00 f i libucrtd:wsetlocale.obj
 0001:0007bb30       ?detach@?$__crt_unique_heap_ptr@U__crt_locale_pointers@@U__crt_internal_free_policy@@@@QAEPAU__crt_locale_pointers@@XZ 1007cb30 f i libucrtd:wsetlocale.obj
 0001:0007bb60       ?detach@?$__crt_unique_heap_ptr@U__crt_multibyte_data@@U__crt_internal_free_policy@@@@QAEPAU__crt_multibyte_data@@XZ 1007cb60 f i libucrtd:wsetlocale.obj
 0001:0007bb90       ?get@?$__crt_unique_heap_ptr@U__crt_locale_data@@U__crt_internal_free_policy@@@@QBEPAU__crt_locale_data@@XZ 1007cb90 f i libucrtd:wsetlocale.obj
 0001:0007bbb0       ?get@?$__crt_unique_heap_ptr@U__crt_locale_pointers@@U__crt_internal_free_policy@@@@QBEPAU__crt_locale_pointers@@XZ 1007cbb0 f i libucrtd:wsetlocale.obj
 0001:0007bbd0       ?get@?$__crt_unique_heap_ptr@U__crt_multibyte_data@@U__crt_internal_free_policy@@@@QBEPAU__crt_multibyte_data@@XZ 1007cbd0 f i libucrtd:wsetlocale.obj
 0001:0007bbf0       ?is_valid@?$__crt_unique_heap_ptr@U__crt_locale_data@@U__crt_internal_free_policy@@@@QBE_NXZ 1007cbf0 f i libucrtd:wsetlocale.obj
 0001:0007bc20       ?is_valid@?$__crt_unique_heap_ptr@U__crt_locale_pointers@@U__crt_internal_free_policy@@@@QBE_NXZ 1007cc20 f i libucrtd:wsetlocale.obj
 0001:0007bc50       ?is_valid@?$__crt_unique_heap_ptr@U__crt_multibyte_data@@U__crt_internal_free_policy@@@@QBE_NXZ 1007cc50 f i libucrtd:wsetlocale.obj
 0001:0007bc80       ?release@?$__crt_unique_heap_ptr@U__crt_locale_data@@U__crt_internal_free_policy@@@@QAEXXZ 1007cc80 f i libucrtd:wsetlocale.obj
 0001:0007bcb0       ?release@?$__crt_unique_heap_ptr@U__crt_locale_pointers@@U__crt_internal_free_policy@@@@QAEXXZ 1007ccb0 f i libucrtd:wsetlocale.obj
 0001:0007bce0       ?release@?$__crt_unique_heap_ptr@U__crt_multibyte_data@@U__crt_internal_free_policy@@@@QAEXXZ 1007cce0 f i libucrtd:wsetlocale.obj
 0001:0007bd10       ___acrt_copy_locale_name   1007cd10 f   libucrtd:wsetlocale.obj
 0001:0007bdb0       ___acrt_set_locale_changed 1007cdb0 f   libucrtd:wsetlocale.obj
 0001:0007bdd0       ___acrt_uninitialize_locale 1007cdd0 f   libucrtd:wsetlocale.obj
 0001:0007bdf0       ___ascii_tolower           1007cdf0 f i libucrtd:wsetlocale.obj
 0001:0007be10       ___ascii_towlower          1007ce10 f i libucrtd:wsetlocale.obj
 0001:0007be30       ___lc_lctowcs              1007ce30 f   libucrtd:wsetlocale.obj
 0001:0007bee0       ___lc_wcstolc              1007cee0 f   libucrtd:wsetlocale.obj
 0001:0007c110       __configthreadlocale       1007d110 f   libucrtd:wsetlocale.obj
 0001:0007c290       __create_locale            1007d290 f   libucrtd:wsetlocale.obj
 0001:0007c8d0       __free_locale              1007d8d0 f   libucrtd:wsetlocale.obj
 0001:0007ca00       __get_current_locale       1007da00 f   libucrtd:wsetlocale.obj
 0001:0007cad0       __wcreate_locale           1007dad0 f   libucrtd:wsetlocale.obj
 0001:0007cd10       __wcscats                  1007dd10 f   libucrtd:wsetlocale.obj
 0001:0007cd90       __wsetlocale               1007dd90 f   libucrtd:wsetlocale.obj
 0001:0007e480       ___p___mb_cur_max          1007f480 f   libucrtd:nlsdata.obj
 0001:0007e780       ___acrt_initialize_lowio   1007f780 f   libucrtd:ioinit.obj
 0001:0007e820       ___acrt_uninitialize_lowio 1007f820 f   libucrtd:ioinit.obj
 0001:0007e880       __CrtGetReportHook         1007f880 f   libucrtd:dbgrptt.obj
 0001:0007e890       __CrtSetReportFile         1007f890 f   libucrtd:dbgrptt.obj
 0001:0007e990       __CrtSetReportHook         1007f990 f   libucrtd:dbgrptt.obj
 0001:0007e9b0       __CrtSetReportMode         1007f9b0 f   libucrtd:dbgrptt.obj
 0001:0007eaf0       __VCrtDbgReportA           1007faf0 f   libucrtd:dbgrptt.obj
 0001:0007f370       __VCrtDbgReportW           10080370 f   libucrtd:dbgrptt.obj
 0001:0007fd20       __snprintf_s               10080d20 f i libucrtd:dbgrptt.obj
 0001:0007fd60       __vsnprintf_s              10080d60 f i libucrtd:dbgrptt.obj
 0001:0007fd90       __vsnprintf_s_l            10080d90 f i libucrtd:dbgrptt.obj
 0001:0007ff20       ??$__acrt_wcs_to_mbs_cp@U__crt_win32_buffer_no_resizing@@@@YAHQB_WAAV?$__crt_win32_buffer@DU__crt_win32_buffer_no_resizing@@@@I@Z 10080f20 f i libucrtd:getmodulefilenamea.obj
 0001:0007ff50       ??0?$__crt_win32_buffer@DU__crt_win32_buffer_no_resizing@@@@QAE@QADI@Z 10080f50 f i libucrtd:getmodulefilenamea.obj
 0001:0007ffa0       ??1?$__crt_win32_buffer@DU__crt_win32_buffer_no_resizing@@@@QAE@XZ 10080fa0 f i libucrtd:getmodulefilenamea.obj
 0001:00080010       ?__acrt_get_utf8_acp_compatibility_codepage@@YAIXZ 10081010 f i libucrtd:getmodulefilenamea.obj
 0001:000800a0       ?_deallocate@?$__crt_win32_buffer@DU__crt_win32_buffer_no_resizing@@@@AAEXXZ 100810a0 f i libucrtd:getmodulefilenamea.obj
 0001:000800e0       ?allocate@?$__crt_win32_buffer@DU__crt_win32_buffer_no_resizing@@@@QAEHI@Z 100810e0 f i libucrtd:getmodulefilenamea.obj
 0001:00080150       ?allocate@__crt_win32_buffer_no_resizing@@SAHQAPAXIABV__crt_win32_buffer_empty_debug_info@@@Z 10081150 f i libucrtd:getmodulefilenamea.obj
 0001:00080170       ?capacity@?$__crt_win32_buffer@DU__crt_win32_buffer_no_resizing@@@@QBEIXZ 10081170 f i libucrtd:getmodulefilenamea.obj
 0001:00080190       ?data@?$__crt_win32_buffer@DU__crt_win32_buffer_no_resizing@@@@QAEPADXZ 10081190 f i libucrtd:getmodulefilenamea.obj
 0001:000801b0       ?deallocate@__crt_win32_buffer_no_resizing@@SAXQAXABV__crt_win32_buffer_empty_debug_info@@@Z 100811b0 f i libucrtd:getmodulefilenamea.obj
 0001:000801c0       ?debug_info@?$__crt_win32_buffer@DU__crt_win32_buffer_no_resizing@@@@QBEABV__crt_win32_buffer_empty_debug_info@@XZ 100811c0 f i libucrtd:getmodulefilenamea.obj
 0001:000801d0       ?set_to_nullptr@?$__crt_win32_buffer@DU__crt_win32_buffer_no_resizing@@@@QAEXXZ 100811d0 f i libucrtd:getmodulefilenamea.obj
 0001:00080210       ?size@?$__crt_win32_buffer@DU__crt_win32_buffer_no_resizing@@@@QAEXI@Z 10081210 f i libucrtd:getmodulefilenamea.obj
 0001:00080230       ?size@?$__crt_win32_buffer@DU__crt_win32_buffer_no_resizing@@@@QBEIXZ 10081230 f i libucrtd:getmodulefilenamea.obj
 0001:00080250       ___acrt_GetModuleFileNameA 10081250 f   libucrtd:getmodulefilenamea.obj
 0001:00080530       ??$message_box@$$TABQBDABQBDK@?$__crt_char_traits@D@@SAH$$QA$$TABQBD1$$QAK@Z 10081530 f i libucrtd:crtmbox.obj
 0001:00080560       ??$message_box@$$TABQB_WABQB_WK@?$__crt_char_traits@_W@@SAH$$QA$$TABQB_W1$$QAK@Z 10081560 f i libucrtd:crtmbox.obj
 0001:00080590       ??$message_box@PAUHWND__@@ABQBDABQBDABI@?$__crt_char_traits@D@@SAH$$QAPAUHWND__@@ABQBD1ABI@Z 10081590 f i libucrtd:crtmbox.obj
 0001:000805c0       ??$message_box@PAUHWND__@@ABQB_WABQB_WABI@?$__crt_char_traits@_W@@SAH$$QAPAUHWND__@@ABQB_W1ABI@Z 100815c0 f i libucrtd:crtmbox.obj
 0001:000805f0       ??$output_debug_string@ABQBD@?$__crt_char_traits@D@@SAXABQBD@Z 100815f0 f i libucrtd:crtmbox.obj
 0001:00080610       ??$output_debug_string@ABQB_W@?$__crt_char_traits@_W@@SAXABQB_W@Z 10081610 f i libucrtd:crtmbox.obj
 0001:00080630       ___acrt_show_narrow_message_box 10081630 f   libucrtd:crtmbox.obj
 0001:00080650       ___acrt_show_wide_message_box 10081650 f   libucrtd:crtmbox.obj
 0001:00080670       ___acrt_initialize_locks   10081670 f   libucrtd:locks.obj
 0001:000806d0       ___acrt_lock               100816d0 f   libucrtd:locks.obj
 0001:000806f0       ___acrt_uninitialize_locks 100816f0 f   libucrtd:locks.obj
 0001:00080740       ___acrt_unlock             10081740 f   libucrtd:locks.obj
 0001:00080760       __lock_locales             10081760 f   libucrtd:locks.obj
 0001:00080780       __unlock_locales           10081780 f   libucrtd:locks.obj
 0001:000807a0       ??$?B$$A6AXH@Z@__crt_fast_encoded_nullptr_t@@QBEP6AXH@ZXZ 100817a0 f i libucrtd:signal.obj
 0001:00080890       ??$__crt_fast_decode_pointer@P6AXH@Z@@YAP6AXH@ZQ6AXH@Z@Z 10081890 f i libucrtd:signal.obj
 0001:000808c0       ??$__crt_fast_encode_pointer@P6AXH@Z@@YAP6AXH@ZQ6AXH@Z@Z 100818c0 f i libucrtd:signal.obj
 0001:00080b70       ?initialize@?$dual_state_global@P6AXH@Z@__crt_state_management@@QAEXQ6AXH@Z@Z 10081b70 f i libucrtd:signal.obj
 0001:00080cb0       ?value@?$dual_state_global@P6AXH@Z@__crt_state_management@@QAEAAP6AXH@ZXZ 10081cb0 f i libucrtd:signal.obj
 0001:00080cd0       ___acrt_get_sigabrt_handler 10081cd0 f   libucrtd:signal.obj
 0001:00080cf0       ___acrt_initialize_signal_handlers 10081cf0 f   libucrtd:signal.obj
 0001:00080d30       ___fpecode                 10081d30 f   libucrtd:signal.obj
 0001:00080d40       ___pxcptinfoptrs           10081d40 f   libucrtd:signal.obj
 0001:00080d50       _raise                     10081d50 f   libucrtd:signal.obj
 0001:00081120       _signal                    10082120 f   libucrtd:signal.obj
 0001:000813a0       __msize                    100823a0 f   libucrtd:msize.obj
 0001:000813c0       __msize_base               100823c0 f   libucrtd:msize.obj
 0001:00081460       __realloc_base             10082460 f   libucrtd:realloc_base.obj
 0001:00081520       ??$?B$$A6GHPA_WKJ@Z@__crt_fast_encoded_nullptr_t@@QBEP6GHPA_WKJ@ZXZ 10082520 f i libucrtd:winapi_thunks.obj
 0001:00081610       ??$__crt_fast_decode_pointer@P6GHPA_WKJ@Z@@YAP6GHPA_WKJ@ZQ6GH0KJ@Z@Z 10082610 f i libucrtd:winapi_thunks.obj
 0001:00081640       ??$__crt_fast_decode_pointer@PAX@@YAPAXQAX@Z 10082640 f i libucrtd:winapi_thunks.obj
 0001:00081670       ??$__crt_fast_encode_pointer@P6GHPA_WKJ@Z@@YAP6GHPA_WKJ@ZQ6GH0KJ@Z@Z 10082670 f i libucrtd:winapi_thunks.obj
 0001:00081fd0       _GetCurrentThreadEffectiveToken 10082fd0 f i libucrtd:winapi_thunks.obj
 0001:00081fe0       ___acrt_AppPolicyGetProcessTerminationMethodInternal@4 10082fe0 f   libucrtd:winapi_thunks.obj
 0001:00082020       ___acrt_AppPolicyGetShowDeveloperDiagnosticInternal@4 10083020 f   libucrtd:winapi_thunks.obj
 0001:00082060       ___acrt_AppPolicyGetThreadInitializationTypeInternal@4 10083060 f   libucrtd:winapi_thunks.obj
 0001:000820a0       ___acrt_AppPolicyGetWindowingModelInternal@4 100830a0 f   libucrtd:winapi_thunks.obj
 0001:000820e0       ___acrt_AreFileApisANSI@0  100830e0 f   libucrtd:winapi_thunks.obj
 0001:00082120       ___acrt_CompareStringEx@36 10083120 f   libucrtd:winapi_thunks.obj
 0001:000821a0       ___acrt_EnumSystemLocalesEx@16 100831a0 f   libucrtd:winapi_thunks.obj
 0001:00082200       ___acrt_FlsAlloc@4         10083200 f   libucrtd:winapi_thunks.obj
 0001:00082240       ___acrt_FlsFree@4          10083240 f   libucrtd:winapi_thunks.obj
 0001:00082280       ___acrt_FlsGetValue@4      10083280 f   libucrtd:winapi_thunks.obj
 0001:000822c0       ___acrt_FlsSetValue@8      100832c0 f   libucrtd:winapi_thunks.obj
 0001:00082310       ___acrt_GetDateFormatEx@28 10083310 f   libucrtd:winapi_thunks.obj
 0001:00082390       ___acrt_GetEnabledXStateFeatures@0 10083390 f   libucrtd:winapi_thunks.obj
 0001:000823d0       ___acrt_GetLocaleInfoEx@16 100833d0 f   libucrtd:winapi_thunks.obj
 0001:00082430       ___acrt_GetSystemTimePreciseAsFileTime@4 10083430 f   libucrtd:winapi_thunks.obj
 0001:00082470       ___acrt_GetTimeFormatEx@24 10083470 f   libucrtd:winapi_thunks.obj
 0001:000824e0       ___acrt_GetUserDefaultLocaleName@8 100834e0 f   libucrtd:winapi_thunks.obj
 0001:00082530       ___acrt_GetXStateFeaturesMask@8 10083530 f   libucrtd:winapi_thunks.obj
 0001:00082570       ___acrt_InitializeCriticalSectionEx@12 10083570 f   libucrtd:winapi_thunks.obj
 0001:000825c0       ___acrt_IsValidLocaleName@4 100835c0 f   libucrtd:winapi_thunks.obj
 0001:00082610       ___acrt_LCIDToLocaleName@16 10083610 f   libucrtd:winapi_thunks.obj
 0001:00082670       ___acrt_LCMapStringEx@36   10083670 f   libucrtd:winapi_thunks.obj
 0001:000826f0       ___acrt_LocaleNameToLCID@8 100836f0 f   libucrtd:winapi_thunks.obj
 0001:00082740       ___acrt_LocateXStateFeature@12 10083740 f   libucrtd:winapi_thunks.obj
 0001:00082790       ___acrt_MessageBoxA@16     10083790 f   libucrtd:winapi_thunks.obj
 0001:000827e0       ___acrt_MessageBoxW@16     100837e0 f   libucrtd:winapi_thunks.obj
 0001:00082830       ___acrt_RoInitialize@4     10083830 f   libucrtd:winapi_thunks.obj
 0001:00082870       ___acrt_RoUninitialize@0   10083870 f   libucrtd:winapi_thunks.obj
 0001:000828a0       ___acrt_RtlGenRandom@8     100838a0 f   libucrtd:winapi_thunks.obj
 0001:000828e0       ___acrt_SetThreadStackGuarantee@4 100838e0 f   libucrtd:winapi_thunks.obj
 0001:00082920       ___acrt_can_show_message_box 10083920 f   libucrtd:winapi_thunks.obj
 0001:00082960       ___acrt_can_use_vista_locale_apis 10083960 f   libucrtd:winapi_thunks.obj
 0001:00082990       ___acrt_can_use_xstate_apis 10083990 f   libucrtd:winapi_thunks.obj
 0001:000829c0       ___acrt_eagerly_load_locale_apis 100839c0 f   libucrtd:winapi_thunks.obj
 0001:00082a00       ___acrt_get_parent_window  10083a00 f   libucrtd:winapi_thunks.obj
 0001:00082a70       ___acrt_initialize_winapi_thunks 10083a70 f   libucrtd:winapi_thunks.obj
 0001:00082ae0       ___acrt_is_interactive     10083ae0 f   libucrtd:winapi_thunks.obj
 0001:00082b90       ___acrt_uninitialize_winapi_thunks 10083b90 f   libucrtd:winapi_thunks.obj
 0001:00082c00       __chvalidator              10083c00 f   libucrtd:isctype.obj
 0001:00082c50       __chvalidator_l            10083c50 f   libucrtd:isctype.obj
 0001:00082cd0       __isctype                  10083cd0 f   libucrtd:isctype.obj
 0001:00082d10       __isctype_l                10083d10 f   libucrtd:isctype.obj
 0001:00082e90       __isleadbyte_fast_internal 10083e90 f i libucrtd:isctype.obj
 0001:00082eb0       ??$?RU__crt_stdio_stream_data@@@__crt_internal_free_policy@@QBEXQBU__crt_stdio_stream_data@@@Z 10083eb0 f i libucrtd:stream.obj
 0001:00082ed0       ??0?$__crt_unique_heap_ptr@U__crt_stdio_stream_data@@U__crt_internal_free_policy@@@@QAE@QAU__crt_stdio_stream_data@@@Z 10083ed0 f i libucrtd:stream.obj
 0001:00082ef0       ??0__crt_stdio_stream@@QAE@QAU__crt_stdio_stream_data@@@Z 10083ef0 f i libucrtd:stream.obj
 0001:00082f10       ??0__crt_stdio_stream@@QAE@XZ 10083f10 f i libucrtd:stream.obj
 0001:00082f30       ??1?$__crt_unique_heap_ptr@U__crt_stdio_stream_data@@U__crt_internal_free_policy@@@@QAE@XZ 10083f30 f i libucrtd:stream.obj
 0001:00082f50       ?__acrt_stdio_allocate_stream@@YA?AV__crt_stdio_stream@@XZ 10083f50 f   libucrtd:stream.obj
 0001:00083040       ?__acrt_stdio_free_stream@@YAXV__crt_stdio_stream@@@Z 10084040 f   libucrtd:stream.obj
 0001:000830c0       ?deallocate@__crt_stdio_stream@@QAEXXZ 100840c0 f i libucrtd:stream.obj
 0001:000830e0       ?detach@?$__crt_unique_heap_ptr@U__crt_stdio_stream_data@@U__crt_internal_free_policy@@@@QAEPAU__crt_stdio_stream_data@@XZ 100840e0 f i libucrtd:stream.obj
 0001:00083250       ?lock@__crt_stdio_stream@@QBEXXZ 10084250 f i libucrtd:stream.obj
 0001:00083270       ?release@?$__crt_unique_heap_ptr@U__crt_stdio_stream_data@@U__crt_internal_free_policy@@@@QAEXXZ 10084270 f i libucrtd:stream.obj
 0001:000832a0       ?try_allocate@__crt_stdio_stream@@QAE_NXZ 100842a0 f i libucrtd:stream.obj
 0001:000832f0       ??$__acrt_stdio_parse_mode@D@@YA?AU__acrt_stdio_stream_mode@@QBD@Z 100842f0 f i libucrtd:openfile.obj
 0001:00083b60       ??$__acrt_stdio_parse_mode@_W@@YA?AU__acrt_stdio_stream_mode@@QB_W@Z 10084b60 f i libucrtd:openfile.obj
 0001:000846f0       ??$tcsncmp@AAPBDAAY02$$CBDI@?$__crt_char_traits@D@@SAHAAPBDAAY02$$CBD$$QAI@Z 100856f0 f i libucrtd:openfile.obj
 0001:00084710       ??$tcsncmp@AAPB_WAAY02$$CB_WI@?$__crt_char_traits@_W@@SAHAAPB_WAAY02$$CB_W$$QAI@Z 10085710 f i libucrtd:openfile.obj
 0001:00084730       ??$tcsnicmp@AAPBDAAY04$$CBDI@?$__crt_char_traits@D@@SAHAAPBDAAY04$$CBD$$QAI@Z 10085730 f i libucrtd:openfile.obj
 0001:00084750       ??$tcsnicmp@AAPBDAAY06$$CBDI@?$__crt_char_traits@D@@SAHAAPBDAAY06$$CBD$$QAI@Z 10085750 f i libucrtd:openfile.obj
 0001:00084770       ??$tcsnicmp@AAPBDAAY07$$CBDI@?$__crt_char_traits@D@@SAHAAPBDAAY07$$CBD$$QAI@Z 10085770 f i libucrtd:openfile.obj
 0001:00084790       ??$tcsnicmp@AAPB_WAAY04$$CB_WI@?$__crt_char_traits@_W@@SAHAAPB_WAAY04$$CB_W$$QAI@Z 10085790 f i libucrtd:openfile.obj
 0001:000847b0       ??$tcsnicmp@AAPB_WAAY06$$CB_WI@?$__crt_char_traits@_W@@SAHAAPB_WAAY06$$CB_W$$QAI@Z 100857b0 f i libucrtd:openfile.obj
 0001:000847d0       ??$tcsnicmp@AAPB_WAAY07$$CB_WI@?$__crt_char_traits@_W@@SAHAAPB_WAAY07$$CB_W$$QAI@Z 100857d0 f i libucrtd:openfile.obj
 0001:000847f0       ??$tsopen_s@PAHABQBDABHABHH@?$__crt_char_traits@D@@SAH$$QAPAHABQBDABH2$$QAH@Z 100857f0 f i libucrtd:openfile.obj
 0001:00084820       ??$tsopen_s@PAHABQB_WABHABHH@?$__crt_char_traits@_W@@SAH$$QAPAHABQB_WABH2$$QAH@Z 10085820 f i libucrtd:openfile.obj
 0001:00084850       ?__acrt_stdio_parse_mode_D@@YA_NAAU__acrt_stdio_stream_mode@@@Z 10085850 f i libucrtd:openfile.obj
 0001:00084880       ?__acrt_stdio_parse_mode_N@@YA_NAAU__acrt_stdio_stream_mode@@@Z 10085880 f i libucrtd:openfile.obj
 0001:000848a0       ?__acrt_stdio_parse_mode_R@@YA_NAAU__acrt_stdio_stream_mode@@AA_N@Z 100858a0 f i libucrtd:openfile.obj
 0001:000848d0       ?__acrt_stdio_parse_mode_S@@YA_NAAU__acrt_stdio_stream_mode@@AA_N@Z 100858d0 f i libucrtd:openfile.obj
 0001:00084900       ?__acrt_stdio_parse_mode_T@@YA_NAAU__acrt_stdio_stream_mode@@@Z 10085900 f i libucrtd:openfile.obj
 0001:00084930       ?__acrt_stdio_parse_mode_b@@YA_NAAU__acrt_stdio_stream_mode@@@Z 10085930 f i libucrtd:openfile.obj
 0001:00084960       ?__acrt_stdio_parse_mode_c@@YA_NAAU__acrt_stdio_stream_mode@@AA_N@Z 10085960 f i libucrtd:openfile.obj
 0001:00084990       ?__acrt_stdio_parse_mode_n@@YA_NAAU__acrt_stdio_stream_mode@@AA_N@Z 10085990 f i libucrtd:openfile.obj
 0001:000849c0       ?__acrt_stdio_parse_mode_plus@@YA_NAAU__acrt_stdio_stream_mode@@AA_N@Z 100859c0 f i libucrtd:openfile.obj
 0001:00084a30       ?__acrt_stdio_parse_mode_t@@YA_NAAU__acrt_stdio_stream_mode@@@Z 10085a30 f i libucrtd:openfile.obj
 0001:00084a60       ?__acrt_stdio_parse_mode_x@@YA_NAAU__acrt_stdio_stream_mode@@@Z 10085a60 f i libucrtd:openfile.obj
 0001:00084a90       __openfile                 10085a90 f   libucrtd:openfile.obj
 0001:00084ac0       __wopenfile                10085ac0 f   libucrtd:openfile.obj
 0001:00084da0       __close                    10085da0 f   libucrtd:close.obj
 0001:00084f20       __close_nolock             10085f20 f   libucrtd:close.obj
 0001:00084f80       ?has_crt_buffer@__crt_stdio_stream@@QBE_NXZ 10085f80 f i libucrtd:_freebuf.obj
 0001:00084fa0       ___acrt_stdio_free_buffer_nolock 10085fa0 f   libucrtd:_freebuf.obj
 0001:00085600       ?__acrt_stdio_reset_buffer@@YAXV__crt_stdio_stream@@@Z 10086600 f i libucrtd:fflush.obj
 0001:00085700       ?has_all_of@__crt_stdio_stream@@QBE_NJ@Z 10086700 f i libucrtd:fflush.obj
 0001:000857d0       ___acrt_stdio_flush_nolock 100867d0 f   libucrtd:fflush.obj
 0001:000858a0       __fflush_nolock            100868a0 f   libucrtd:fflush.obj
 0001:00085920       __flushall                 10086920 f   libucrtd:fflush.obj
 0001:00085940       _fflush                    10086940 f   libucrtd:fflush.obj
 0001:00086090       ?has_big_buffer@__crt_stdio_stream@@QBE_NXZ 10087090 f i libucrtd:_flsbuf.obj
 0001:00086190       ___acrt_stdio_flush_and_write_narrow_nolock 10087190 f   libucrtd:_flsbuf.obj
 0001:000861c0       ___acrt_stdio_flush_and_write_wide_nolock 100871c0 f   libucrtd:_flsbuf.obj
 0001:000864f0       ___acrt_get_begin_thread_init_policy 100874f0 f   libucrtd:win_policies.obj
 0001:00086510       ___acrt_get_developer_information_policy 10087510 f   libucrtd:win_policies.obj
 0001:00086530       ___acrt_get_process_end_policy 10087530 f   libucrtd:win_policies.obj
 0001:00086550       ___acrt_get_windowing_model_policy 10087550 f   libucrtd:win_policies.obj
 0001:00086820       ??$__acrt_mbs_to_wcs_cp@U__crt_win32_buffer_internal_dynamic_resizing@@@@YAHQBDAAV?$__crt_win32_buffer@_WU__crt_win32_buffer_internal_dynamic_resizing@@@@I@Z 10087820 f i libucrtd:argv_wildcards.obj
 0001:00086850       ??$__acrt_wcs_to_mbs_cp@U__crt_win32_buffer_internal_dynamic_resizing@@@@YAHQB_WAAV?$__crt_win32_buffer@DU__crt_win32_buffer_internal_dynamic_resizing@@@@I@Z 10087850 f i libucrtd:argv_wildcards.obj
 0001:000877a0       ??$tcsncpy_s@AAPADIAAPADABI@?$__crt_char_traits@D@@SAHAAPAD$$QAI0ABI@Z 100887a0 f i libucrtd:argv_wildcards.obj
 0001:000877d0       ??$tcsncpy_s@AAPA_WIAAPA_WABI@?$__crt_char_traits@_W@@SAHAAPA_W$$QAI0ABI@Z 100887d0 f i libucrtd:argv_wildcards.obj
 0001:00087800       ??$tcsncpy_s@PADABIABQBDABI@?$__crt_char_traits@D@@SAH$$QAPADABIABQBD1@Z 10088800 f i libucrtd:argv_wildcards.obj
 0001:00087830       ??$tcsncpy_s@PADIABQBDABI@?$__crt_char_traits@D@@SAH$$QAPAD$$QAIABQBDABI@Z 10088830 f i libucrtd:argv_wildcards.obj
 0001:00087860       ??$tcsncpy_s@PA_WABIABQB_WABI@?$__crt_char_traits@_W@@SAH$$QAPA_WABIABQB_W1@Z 10088860 f i libucrtd:argv_wildcards.obj
 0001:00087890       ??$tcsncpy_s@PA_WIABQB_WABI@?$__crt_char_traits@_W@@SAH$$QAPA_W$$QAIABQB_WABI@Z 10088890 f i libucrtd:argv_wildcards.obj
 0001:000878c0       ??$tcspbrk@AAPADAAY02$$CBD@?$__crt_char_traits@D@@SAPADAAPADAAY02$$CBD@Z 100888c0 f i libucrtd:argv_wildcards.obj
 0001:000878e0       ??$tcspbrk@AAPA_WAAY02$$CB_W@?$__crt_char_traits@_W@@SAPA_WAAPA_WAAY02$$CB_W@Z 100888e0 f i libucrtd:argv_wildcards.obj
 0001:00087900       ??0?$__crt_unique_handle_t@U__crt_findfile_traits@@@@QAE@QAX@Z 10088900 f i libucrtd:argv_wildcards.obj
 0001:00087920       ??0?$__crt_win32_buffer@DU__crt_win32_buffer_internal_dynamic_resizing@@@@QAE@XZ 10088920 f i libucrtd:argv_wildcards.obj
 0001:00087970       ??0?$__crt_win32_buffer@_WU__crt_win32_buffer_internal_dynamic_resizing@@@@QAE@XZ 10088970 f i libucrtd:argv_wildcards.obj
 0001:00087a20       ??1?$__crt_unique_handle_t@U__crt_findfile_traits@@@@QAE@XZ 10088a20 f i libucrtd:argv_wildcards.obj
 0001:00087a40       ??1?$__crt_win32_buffer@DU__crt_win32_buffer_internal_dynamic_resizing@@@@QAE@XZ 10088a40 f i libucrtd:argv_wildcards.obj
 0001:00087a80       ??1?$__crt_win32_buffer@_WU__crt_win32_buffer_internal_dynamic_resizing@@@@QAE@XZ 10088a80 f i libucrtd:argv_wildcards.obj
 0001:00087ce0       ?_deallocate@?$__crt_win32_buffer@DU__crt_win32_buffer_internal_dynamic_resizing@@@@AAEXXZ 10088ce0 f i libucrtd:argv_wildcards.obj
 0001:00087d20       ?_deallocate@?$__crt_win32_buffer@_WU__crt_win32_buffer_internal_dynamic_resizing@@@@AAEXXZ 10088d20 f i libucrtd:argv_wildcards.obj
 0001:00087d60       ?allocate@?$__crt_win32_buffer@DU__crt_win32_buffer_internal_dynamic_resizing@@@@QAEHI@Z 10088d60 f i libucrtd:argv_wildcards.obj
 0001:00087dd0       ?allocate@?$__crt_win32_buffer@_WU__crt_win32_buffer_internal_dynamic_resizing@@@@QAEHI@Z 10088dd0 f i libucrtd:argv_wildcards.obj
 0001:00087e40       ?allocate@__crt_win32_buffer_internal_dynamic_resizing@@SAHQAPAXIABV__crt_win32_buffer_empty_debug_info@@@Z 10088e40 f i libucrtd:argv_wildcards.obj
 0001:00087f80       ?capacity@?$__crt_win32_buffer@DU__crt_win32_buffer_internal_dynamic_resizing@@@@QBEIXZ 10088f80 f i libucrtd:argv_wildcards.obj
 0001:00087fa0       ?capacity@?$__crt_win32_buffer@_WU__crt_win32_buffer_internal_dynamic_resizing@@@@QBEIXZ 10088fa0 f i libucrtd:argv_wildcards.obj
 0001:00087fc0       ?close@?$__crt_unique_handle_t@U__crt_findfile_traits@@@@QAEXXZ 10088fc0 f i libucrtd:argv_wildcards.obj
 0001:00088000       ?close@__crt_findfile_traits@@SA_NPAX@Z 10089000 f i libucrtd:argv_wildcards.obj
 0001:00088030       ?data@?$__crt_win32_buffer@DU__crt_win32_buffer_internal_dynamic_resizing@@@@QAEPADXZ 10089030 f i libucrtd:argv_wildcards.obj
 0001:00088050       ?data@?$__crt_win32_buffer@_WU__crt_win32_buffer_internal_dynamic_resizing@@@@QAEPA_WXZ 10089050 f i libucrtd:argv_wildcards.obj
 0001:00088070       ?deallocate@__crt_win32_buffer_internal_dynamic_resizing@@SAXQAXABV__crt_win32_buffer_empty_debug_info@@@Z 10089070 f i libucrtd:argv_wildcards.obj
 0001:00088090       ?debug_info@?$__crt_win32_buffer@DU__crt_win32_buffer_internal_dynamic_resizing@@@@QBEABV__crt_win32_buffer_empty_debug_info@@XZ 10089090 f i libucrtd:argv_wildcards.obj
 0001:000880a0       ?debug_info@?$__crt_win32_buffer@_WU__crt_win32_buffer_internal_dynamic_resizing@@@@QBEABV__crt_win32_buffer_empty_debug_info@@XZ 100890a0 f i libucrtd:argv_wildcards.obj
 0001:000883b0       ?get@?$__crt_unique_handle_t@U__crt_findfile_traits@@@@QBEPAXXZ 100893b0 f i libucrtd:argv_wildcards.obj
 0001:00088420       ?get_invalid_value@__crt_findfile_traits@@SAPAXXZ 10089420 f i libucrtd:argv_wildcards.obj
 0001:000884b0       ?set_to_nullptr@?$__crt_win32_buffer@DU__crt_win32_buffer_internal_dynamic_resizing@@@@QAEXXZ 100894b0 f i libucrtd:argv_wildcards.obj
 0001:000884f0       ?set_to_nullptr@?$__crt_win32_buffer@_WU__crt_win32_buffer_internal_dynamic_resizing@@@@QAEXXZ 100894f0 f i libucrtd:argv_wildcards.obj
 0001:00088530       ?size@?$__crt_win32_buffer@DU__crt_win32_buffer_internal_dynamic_resizing@@@@QAEXI@Z 10089530 f i libucrtd:argv_wildcards.obj
 0001:00088550       ?size@?$__crt_win32_buffer@_WU__crt_win32_buffer_internal_dynamic_resizing@@@@QAEXI@Z 10089550 f i libucrtd:argv_wildcards.obj
 0001:000885b0       ?strpbrk@@YAPADQADQBD@Z    100895b0 f i libucrtd:argv_wildcards.obj
 0001:000885d0       ?wcspbrk@@YAPA_WPA_WPB_W@Z 100895d0 f i libucrtd:argv_wildcards.obj
 0001:000885f0       ___acrt_expand_narrow_argv_wildcards 100895f0 f   libucrtd:argv_wildcards.obj
 0001:00088610       ___acrt_expand_wide_argv_wildcards 10089610 f   libucrtd:argv_wildcards.obj
