 OPOSPOSKeyboard

 Timestamp is 5defaa66 (Tue Dec 10 23:23:34 2019)

 Preferred load address is 10000000

 Start         Length     Name                   Class
 0001:00000000 00000d90H .text$di                CODE
 0001:00000d90 000a8a90H .text$mn                CODE
 0001:000a9820 000001c0H .text$x                 CODE
 0001:000a99e0 00000120H .text$yd                CODE
 0002:00000000 00000358H .idata$5                DATA
 0002:00000358 00000004H .00cfg                  DATA
 0002:0000035c 00000004H .CRT$XCA                DATA
 0002:00000360 00000004H .CRT$XCL                DATA
 0002:00000364 0000006cH .CRT$XCU                DATA
 0002:000003d0 00000004H .CRT$XCZ                DATA
 0002:000003d4 00000004H .CRT$XIA                DATA
 0002:000003d8 00000010H .CRT$XIC                DATA
 0002:000003e8 00000004H .CRT$XIZ                DATA
 0002:000003ec 00000004H .CRT$XLA                DATA
 0002:000003f0 00000004H .CRT$XLZ                DATA
 0002:000003f4 00000004H .CRT$XPA                DATA
 0002:000003f8 00000008H .CRT$XPX                DATA
 0002:00000400 00000004H .CRT$XPXA               DATA
 0002:00000404 00000004H .CRT$XPZ                DATA
 0002:00000408 00000004H .CRT$XTA                DATA
 0002:0000040c 00000004H .CRT$XTZ                DATA
 0002:00000410 00000000H .gfids$y                DATA
 0002:00000410 0002f5bcH .rdata                  DATA
 0002:0002f9cc 00000018H .rdata$T                DATA
 0002:0002f9e4 0000033cH .rdata$r                DATA
 0002:0002fd20 00000044H .rdata$sxdata           DATA
 0002:0002fd64 00000404H .rdata$zzzdbg           DATA
 0002:00030168 00000004H .rtc$IAA                DATA
 0002:0003016c 00000018H .rtc$IMZ                DATA
 0002:00030184 00000004H .rtc$IZZ                DATA
 0002:00030188 00000004H .rtc$TAA                DATA
 0002:0003018c 00000018H .rtc$TMZ                DATA
 0002:000301a4 00000004H .rtc$TZZ                DATA
 0002:000301a8 00000004H .tls                    DATA
 0002:000301ac 00000004H .tls$                   DATA
 0002:000301b0 00000008H .tls$ZZZ                DATA
 0002:000301b8 00000e4cH .xdata$x                DATA
 0002:00031004 00000004H ATL$__a                 DATA
 0002:00031008 00000008H ATL$__z                 DATA
 0002:00031010 000000acH .edata                  DATA
 0002:000310bc 00000078H .idata$2                DATA
 0002:00031134 00000014H .idata$3                DATA
 0002:00031148 00000358H .idata$4                DATA
 0002:000314a0 00000d50H .idata$6                DATA
 0003:00000000 00000ba0H .data                   DATA
 0003:00000ba0 00000138H .data$r                 DATA
 0003:00000cd8 00003580H .bss                    DATA
 0004:00000000 00000220H .rsrc$01                DATA
 0004:00000220 00003b48H .rsrc$02                DATA

  Address         Publics by Value              Rva+Base       Lib:Object

 0000:00000000       ___guard_longjmp_table     00000000     <absolute>
 0000:00000000       ___hybrid_code_map         00000000     <absolute>
 0000:00000000       ___guard_fids_table        00000000     <absolute>
 0000:00000000       ___hybrid_code_map_count   00000000     <absolute>
 0000:00000000       __except_list              00000000     <absolute>
 0000:00000000       ___hybrid_auxiliary_iat    00000000     <absolute>
 0000:00000000       ___dynamic_value_reloc_table 00000000     <absolute>
 0000:00000000       ___guard_iat_table         00000000     <absolute>
 0000:00000000       ___guard_longjmp_count     00000000     <absolute>
 0000:00000000       ___AbsoluteZero            00000000     <absolute>
 0000:00000000       ___guard_fids_count        00000000     <absolute>
 0000:00000000       ___enclave_config          00000000     <absolute>
 0000:00000000       ___guard_iat_count         00000000     <absolute>
 0000:00000000       ___volatile_metadata       00000000     <absolute>
 0000:00000011       ___safe_se_handler_count   00000011     <absolute>
 0000:0000002c       __tls_array                0000002c     <absolute>
 0000:00000100       ___guard_flags             00000100     <absolute>
 0000:00000000       ___ImageBase               10000000     <linker-defined>
 0001:00000d90       ?_assert@@YAXPB_W0I@Z      10001d90 f   Assert.obj
 0001:00000ec0       ___local_stdio_printf_options 10001ec0 f i Assert.obj
 0001:00000ed0       ___vswprintf_l             10001ed0 f i Assert.obj
 0001:00000f00       __swprintf                 10001f00 f i Assert.obj
 0001:00000f60       __vswprintf_c_l            10001f60 f i Assert.obj
 0001:00000fd0       __vswprintf_l              10001fd0 f i Assert.obj
 0001:00001000       ?cw_memcpy@@YGHPADPB_WH@Z  10002000 f   CWString.obj
 0001:00001060       ?cw_memcpy@@YGHPA_WPBDH@Z  10002060 f   CWString.obj
 0001:000010c0       ?cw_memcpy@@YGHPADPBDH@Z   100020c0 f   CWString.obj
 0001:00001110       ?cw_memcpy@@YGHPA_WPB_WH@Z 10002110 f   CWString.obj
 0001:00001150       ?cw_memset@@YAXPADDH@Z     10002150 f   CWString.obj
 0001:00001170       ?cw_memset@@YAXPA_W_WH@Z   10002170 f   CWString.obj
 0001:00001190       ?cw_strlen@@YAHPBD@Z       10002190 f   CWString.obj
 0001:000011e0       ?cw_strlen@@YAHPB_W@Z      100021e0 f   CWString.obj
 0001:00001230       ?cw_strcpy@@YAHPADPB_W@Z   10002230 f   CWString.obj
 0001:00001250       ?cw_strcpy@@YAHPA_WPBD@Z   10002250 f   CWString.obj
 0001:00001270       ?cw_strcpy@@YAHPADPBD@Z    10002270 f   CWString.obj
 0001:00001290       ?cw_strcpy@@YAHPA_WPB_W@Z  10002290 f   CWString.obj
 0001:000012b0       ?cw_strcat@@YAHPADPB_W@Z   100022b0 f   CWString.obj
 0001:000012e0       ?cw_strcat@@YAHPA_WPBD@Z   100022e0 f   CWString.obj
 0001:00001310       ?cw_strcat@@YAHPADPBD@Z    10002310 f   CWString.obj
 0001:00001340       ?cw_strcat@@YAHPA_WPB_W@Z  10002340 f   CWString.obj
 0001:00001370       ?cw_dup@@YGXPBDAAHAAPA_W1@Z 10002370 f   CWString.obj
 0001:00001430       ?cw_dup@@YGXPB_WAAHAAPAD1@Z 10002430 f   CWString.obj
 0001:000014e0       ?DupChar@_CW@@AAEXXZ       100024e0 f   CWString.obj
 0001:00001530       ?DupWide@_CW@@AAEXXZ       10002530 f   CWString.obj
 0001:00001580       ?GetCharsMbcs@_CW@@QAEHXZ  10002580 f   CWString.obj
 0001:000015e0       ?GetCharsWide@_CW@@QAEHXZ  100025e0 f   CWString.obj
 0001:00001640       ?SetVARIANT_BOOL@OposVariant@@QAEXF@Z 10002640 f   OposVariant.obj
 0001:000016a0       ?SetVARIANT_BOOL_Ptr@OposVariant@@QAEXPAFAAJ@Z 100026a0 f   OposVariant.obj
 0001:000016f0       ?GetLONG@OposVariant@@QAEJXZ 100026f0 f   OposVariant.obj
 0001:00001780       ?ChangeLONG@OposVariant@@QAEXPAJAAJ@Z 10002780 f   OposVariant.obj
 0001:00001840       ?SetLONG@OposVariant@@QAEXJ@Z 10002840 f   OposVariant.obj
 0001:00001880       ?SetLONG_Ptr@OposVariant@@QAEXPAJAAJ@Z 10002880 f   OposVariant.obj
 0001:000018d0       ?ChangeCURRENCY@OposVariant@@QAEXPATtagCY@@AAJ@Z 100028d0 f   OposVariant.obj
 0001:00001990       ?SetCURRENCY@OposVariant@@QAEXTtagCY@@@Z 10002990 f   OposVariant.obj
 0001:000019d0       ?SetCURRENCY_Ptr@OposVariant@@QAEXPATtagCY@@AAJ@Z 100029d0 f   OposVariant.obj
 0001:00001a20       ?ChangeBSTR@OposVariant@@QAEXPAPA_WAAJ@Z 10002a20 f   OposVariant.obj
 0001:00001ae0       ?SetBSTR@OposVariant@@QAEXPA_WAAJ@Z 10002ae0 f   OposVariant.obj
 0001:00001b30       ?SetBSTR_Copy@OposVariant@@QAEXPA_WAAJ@Z 10002b30 f   OposVariant.obj
 0001:00001bd0       ?SetBSTR_OutPtr@OposVariant@@QAE_NPAPA_WAAJ@Z 10002bd0 f   OposVariant.obj
 0001:00001c20       ?SetBSTR_InOutPtr@OposVariant@@QAE_NPAPA_WAAJ@Z 10002c20 f   OposVariant.obj
 0001:00001c70       ?SetVARIANT@OposVariant@@QAEXAAUtagVARIANT@@GAAJ@Z 10002c70 f   OposVariant.obj
 0001:00001cf0       ?SetVARIANT_Ptr@OposVariant@@QAEXAAPAUtagVARIANT@@GAAJ@Z 10002cf0 f   OposVariant.obj
 0001:00001d90       ?SetString@OposVariant@@QAEXPB_WAAJ@Z 10002d90 f   OposVariant.obj
 0001:00001e20       ?SetDispatch_Ptr@OposVariant@@QAEXPAUIDispatch@@AAJ@Z 10002e20 f   OposVariant.obj
 0001:00001e90       ??0OposDispParms@@QAE@PAVOposVariant@@H@Z 10002e90 f   OposVariant.obj
 0001:00001f60       ??1OposDispParms@@QAE@XZ   10002f60 f   OposVariant.obj
 0001:00001fb0       ??$AtlMultiply@I@ATL@@YAJPAIII@Z 10002fb0 f i OposVariant.obj
 0001:00002010       ??0?$CHeapPtr@_WVCCRTAllocator@ATL@@@ATL@@QAE@XZ 10003010 f i OposVariant.obj
 0001:00002040       ??0?$CHeapPtrBase@_WVCCRTAllocator@ATL@@@ATL@@IAE@XZ 10003040 f i OposVariant.obj
 0001:00002060       ??0?$CSimpleArray@GV?$CSimpleArrayEqualHelper@G@ATL@@@ATL@@QAE@XZ 10003060 f i OposVariant.obj
 0001:000020a0       ??0?$CTraceCategoryEx@$00$0A@@ATL@@QAE@PB_W@Z 100030a0 f i OposVariant.obj
 0001:000020d0       ??0?$CTraceCategoryEx@$01$0A@@ATL@@QAE@PB_W@Z 100030d0 f i OposVariant.obj
 0001:00002100       ??0?$CTraceCategoryEx@$03$0A@@ATL@@QAE@PB_W@Z 10003100 f i OposVariant.obj
 0001:00002130       ??0?$CTraceCategoryEx@$07$0A@@ATL@@QAE@PB_W@Z 10003130 f i OposVariant.obj
 0001:00002160       ??0?$CTraceCategoryEx@$0BA@$0A@@ATL@@QAE@PB_W@Z 10003160 f i OposVariant.obj
 0001:00002190       ??0?$CTraceCategoryEx@$0BAA@$0A@@ATL@@QAE@PB_W@Z 10003190 f i OposVariant.obj
 0001:000021d0       ??0?$CTraceCategoryEx@$0BAAA@$0A@@ATL@@QAE@PB_W@Z 100031d0 f i OposVariant.obj
 0001:00002210       ??0?$CTraceCategoryEx@$0BAAAA@$0A@@ATL@@QAE@PB_W@Z 10003210 f i OposVariant.obj
 0001:00002250       ??0?$CTraceCategoryEx@$0BAAAAA@$0A@@ATL@@QAE@PB_W@Z 10003250 f i OposVariant.obj
 0001:00002290       ??0?$CTraceCategoryEx@$0CA@$0A@@ATL@@QAE@PB_W@Z 10003290 f i OposVariant.obj
 0001:000022c0       ??0?$CTraceCategoryEx@$0CAA@$0A@@ATL@@QAE@PB_W@Z 100032c0 f i OposVariant.obj
 0001:00002300       ??0?$CTraceCategoryEx@$0CAAA@$0A@@ATL@@QAE@PB_W@Z 10003300 f i OposVariant.obj
 0001:00002340       ??0?$CTraceCategoryEx@$0CAAAA@$0A@@ATL@@QAE@PB_W@Z 10003340 f i OposVariant.obj
 0001:00002380       ??0?$CTraceCategoryEx@$0CAAAAA@$0A@@ATL@@QAE@PB_W@Z 10003380 f i OposVariant.obj
 0001:000023c0       ??0?$CTraceCategoryEx@$0EA@$0A@@ATL@@QAE@PB_W@Z 100033c0 f i OposVariant.obj
 0001:000023f0       ??0?$CTraceCategoryEx@$0EAA@$0A@@ATL@@QAE@PB_W@Z 100033f0 f i OposVariant.obj
 0001:00002430       ??0?$CTraceCategoryEx@$0EAAA@$0A@@ATL@@QAE@PB_W@Z 10003430 f i OposVariant.obj
 0001:00002470       ??0?$CTraceCategoryEx@$0EAAAA@$0A@@ATL@@QAE@PB_W@Z 10003470 f i OposVariant.obj
 0001:000024b0       ??0?$CTraceCategoryEx@$0EAAAAA@$0A@@ATL@@QAE@PB_W@Z 100034b0 f i OposVariant.obj
 0001:000024f0       ??0?$CTraceCategoryEx@$0IA@$0A@@ATL@@QAE@PB_W@Z 100034f0 f i OposVariant.obj
 0001:00002530       ??0?$CTraceCategoryEx@$0IAA@$0A@@ATL@@QAE@PB_W@Z 10003530 f i OposVariant.obj
 0001:00002570       ??0?$CTraceCategoryEx@$0IAAA@$0A@@ATL@@QAE@PB_W@Z 10003570 f i OposVariant.obj
 0001:000025b0       ??0?$CTraceCategoryEx@$0IAAAA@$0A@@ATL@@QAE@PB_W@Z 100035b0 f i OposVariant.obj
 0001:000025f0       ??0CAtlComModule@ATL@@QAE@XZ 100035f0 f i OposVariant.obj
 0001:000026d0       ??0CAtlWinModule@ATL@@QAE@XZ 100036d0 f i OposVariant.obj
 0001:00002760       ??0CComCriticalSection@ATL@@QAE@XZ 10003760 f i OposVariant.obj
 0001:00002790       ??0CPreserveLastError@ATL@@QAE@XZ 10003790 f i OposVariant.obj
 0001:000027d0       ??0CTraceFileAndLineInfo@ATL@@QAE@PBDH@Z 100037d0 f i OposVariant.obj
 0001:00002800       ??0_ATL_COM_MODULE70@ATL@@QAE@XZ 10003800 f i OposVariant.obj
 0001:00002830       ??0_ATL_WIN_MODULE70@ATL@@QAE@XZ 10003830 f i OposVariant.obj
 0001:00002870       ??1?$CHeapPtr@_WVCCRTAllocator@ATL@@@ATL@@QAE@XZ 10003870 f i OposVariant.obj
 0001:000028a0       ??1?$CHeapPtrBase@_WVCCRTAllocator@ATL@@@ATL@@QAE@XZ 100038a0 f i OposVariant.obj
 0001:000028d0       ??1?$CSimpleArray@GV?$CSimpleArrayEqualHelper@G@ATL@@@ATL@@QAE@XZ 100038d0 f i OposVariant.obj
 0001:00002900       ??1CAtlComModule@ATL@@QAE@XZ 10003900 f i OposVariant.obj
 0001:00002930       ??1CAtlWinModule@ATL@@QAE@XZ 10003930 f i OposVariant.obj
 0001:00002960       ??1CComBSTR@ATL@@QAE@XZ    10003960 f i OposVariant.obj
 0001:000029a0       ??1CComCriticalSection@ATL@@QAE@XZ 100039a0 f i OposVariant.obj
 0001:000029c0       ??1CPreserveLastError@ATL@@QAE@XZ 100039c0 f i OposVariant.obj
 0001:00002a00       ??1_ATL_COM_MODULE70@ATL@@QAE@XZ 10003a00 f i OposVariant.obj
 0001:00002a30       ??1_ATL_WIN_MODULE70@ATL@@QAE@XZ 10003a30 f i OposVariant.obj
 0001:00002a70       ??1stringdispid@CComTypeInfoHolder@ATL@@QAE@XZ 10003a70 f i OposVariant.obj
 0001:00002aa0       ??A?$CSimpleArray@GV?$CSimpleArrayEqualHelper@G@ATL@@@ATL@@QAEAAGH@Z 10003aa0 f i OposVariant.obj
 0001:00002b20       ??B?$CHeapPtrBase@_WVCCRTAllocator@ATL@@@ATL@@QBEPA_WXZ 10003b20 f i OposVariant.obj
 0001:00002b40       ??B?$CTraceCategoryEx@$01$0A@@ATL@@QAEIXZ 10003b40 f i OposVariant.obj
 0001:00002b60       ??B?$CTraceCategoryEx@$0CA@$0A@@ATL@@QAEIXZ 10003b60 f i OposVariant.obj
 0001:00002b80       ??RCTraceFileAndLineInfo@ATL@@QBAXHIPB_WZZ 10003b80 f i OposVariant.obj
 0001:00002c20       ??_Estringdispid@CComTypeInfoHolder@ATL@@QAEPAXI@Z 10003c20 f i OposVariant.obj
 0001:00002cb0       ??_H@YGXPAXIIP6EPAX0@Z@Z   10003cb0 f i OposVariant.obj
 0001:00002d20       ??_I@YGXPAXIIP6EX0@Z@Z     10003d20 f i OposVariant.obj
 0001:00002da0       ?Allocate@?$CHeapPtr@_WVCCRTAllocator@ATL@@@ATL@@QAE_NI@Z 10003da0 f i OposVariant.obj
 0001:00002e30       ?Allocate@CCRTAllocator@ATL@@SAPAXI@Z 10003e30 f i OposVariant.obj
 0001:00002e50       ?AllocateBytes@?$CHeapPtrBase@_WVCCRTAllocator@ATL@@@ATL@@QAE_NI@Z 10003e50 f i OposVariant.obj
 0001:00002ec0       ?AtlWinModuleInit@ATL@@YGJPAU_ATL_WIN_MODULE70@1@@Z 10003ec0 f i OposVariant.obj
 0001:00002f90       ?AtlWinModuleTerm@ATL@@YGJPAU_ATL_WIN_MODULE70@1@PAUHINSTANCE__@@@Z 10003f90 f i OposVariant.obj
 0001:00003050       ?Clear@OposVariant@@QAEJXZ 10004050 f i OposVariant.obj
 0001:00003090       ?Free@?$CHeapPtrBase@_WVCCRTAllocator@ATL@@@ATL@@QAEXXZ 10004090 f i OposVariant.obj
 0001:000030d0       ?Free@CCRTAllocator@ATL@@SAXPAX@Z 100040d0 f i OposVariant.obj
 0001:000030f0       ?GetCategoryName@CTrace@ATL@@CAPA_WI@Z 100040f0 f i OposVariant.obj
 0001:00003140       ?GetModuleInstance@CAtlBaseModule@ATL@@QAEPAUHINSTANCE__@@XZ 10004140 f i OposVariant.obj
 0001:00003160       ?GetSize@?$CSimpleArray@GV?$CSimpleArrayEqualHelper@G@ATL@@@ATL@@QBEHXZ 10004160 f i OposVariant.obj
 0001:00003180       ?Init@CComCriticalSection@ATL@@QAEJXZ 10004180 f i OposVariant.obj
 0001:000031e0       ?RegisterCategory@CTrace@ATL@@SAXPB_WI@Z 100041e0 f i OposVariant.obj
 0001:00003270       ?RemoveAll@?$CSimpleArray@GV?$CSimpleArrayEqualHelper@G@ATL@@@ATL@@QAEXXZ 10004270 f i OposVariant.obj
 0001:000032f0       ?Term@CAtlComModule@ATL@@QAEXXZ 100042f0 f i OposVariant.obj
 0001:000033b0       ?Term@CAtlWinModule@ATL@@QAEXXZ 100043b0 f i OposVariant.obj
 0001:000033e0       ?Term@CComCriticalSection@ATL@@QAEJXZ 100043e0 f i OposVariant.obj
 0001:00003420       ?TraceV@CTrace@ATL@@CAXPBDHIIPB_W@Z 10004420 f i OposVariant.obj
 0001:000036a0       ?TraceV@CTrace@ATL@@SAXPBDHIIPB_WPAD@Z 100046a0 f i OposVariant.obj
 0001:000037e0       ?_AtlInitializeCriticalSectionEx@ATL@@YAHPAU_RTL_CRITICAL_SECTION@@KK@Z 100047e0 f i OposVariant.obj
 0001:00003810       ?_AtlRaiseException@ATL@@YAXKK@Z 10004810 f i OposVariant.obj
 0001:00003840       _HRESULT_FROM_WIN32        10004840 f i OposVariant.obj
 0001:00003880       __vswprintf_s_l            10004880 f i OposVariant.obj
 0001:000038f0       _swprintf_s                100048f0 f i OposVariant.obj
 0001:00003950       ?ObjectMain@CComObjectRootBase@ATL@@SGX_N@Z 10004950 f i POSKeyboard.obj
 0001:00003960       ?GetCategoryMap@CComObjectRootBase@ATL@@SAPBU_ATL_CATMAP_ENTRY@2@XZ 10004960 f i POSKeyboard.obj
 0001:00003970       ?GetObjectDescription@?$CComCoClass@VCOPOSPOSKeyboard@@$1?CLSID_OPOSPOSKeyboard@@3U_GUID@@B@ATL@@SGPB_WXZ 10004970 f i POSKeyboard.obj
 0001:00003980       ?UpdateRegistry@COPOSPOSKeyboard@@SGJH@Z 10004980 f i POSKeyboard.obj
 0001:000039a0       ?CreateInstance@?$CComCreator@V?$CComObjectCached@VCComClassFactory@ATL@@@ATL@@@ATL@@SGJPAXABU_GUID@@PAPAX@Z 100049a0 f i POSKeyboard.obj
 0001:00003b20       ?CreateInstance@?$CComCreator2@V?$CComCreator@V?$CComObject@VCOPOSPOSKeyboard@@@ATL@@@ATL@@V?$CComCreator@V?$CComAggObject@VCOPOSPOSKeyboard@@@ATL@@@2@@ATL@@SGJPAXABU_GUID@@PAPAX@Z 10004b20 f i POSKeyboard.obj
 0001:00003cd0       _DllGetClassObject@12      10004cd0 f   POSKeyboard.obj
 0001:00003d00       _DllCanUnloadNow@0         10004d00 f   POSKeyboard.obj
 0001:00003d40       _DllRegisterServer@0       10004d40 f   POSKeyboard.obj
 0001:00003d60       _DllUnregisterServer@0     10004d60 f   POSKeyboard.obj
 0001:00003ef0       _DllMain@12                10004ef0 f   POSKeyboard.obj
 0001:00003f50       ??$?2G@Wrapper@?$CSimpleArray@GV?$CSimpleArrayEqualHelper@G@ATL@@@ATL@@SAPAXIPAG@Z 10004f50 f i POSKeyboard.obj
 0001:00003f60       ??$?2PA_W@?$Wrapper@PA_W@?$CSimpleMap@PA_WPA_WVCExpansionVectorEqualHelper@ATL@@@ATL@@SAPAXIPAPA_W@Z 10004f60 f i POSKeyboard.obj
 0001:00003f70       ??$?4UITypeInfo2@@@?$CComPtr@UITypeInfo@@@ATL@@QAEPAUITypeInfo@@ABV?$CComPtr@UITypeInfo2@@@1@@Z 10004f70 f i POSKeyboard.obj
 0001:00003fd0       ??$AtlAdd@K@ATL@@YAJPAKKK@Z 10004fd0 f i POSKeyboard.obj
 0001:00004010       ??$AtlAdd@_K@ATL@@YAJPA_K_K1@Z 10005010 f i POSKeyboard.obj
 0001:00004080       ??$AtlAddThrow@K@ATL@@YAKKK@Z 10005080 f i POSKeyboard.obj
 0001:00004100       ??$AtlModuleRegisterWndClassInfoT@VAtlModuleRegisterWndClassInfoParamW@ATL@@@ATL@@YAGPAU_ATL_BASE_MODULE70@0@PAU_ATL_WIN_MODULE70@0@PAU_ATL_WNDCLASSINFOW@0@PAP6GJPAUHWND__@@IIJ@ZVAtlModuleRegisterWndClassInfoParamW@0@@Z 10005100 f i POSKeyboard.obj
 0001:00004510       ??$AtlMultiply@H@ATL@@YAJPAHHH@Z 10005510 f i POSKeyboard.obj
 0001:00004590       ??$AtlMultiply@K@ATL@@YAJPAKKK@Z 10005590 f i POSKeyboard.obj
 0001:000045f0       ??$AtlMultiplyThrow@I@ATL@@YAIII@Z 100055f0 f i POSKeyboard.obj
 0001:00004670       ??$QueryInterface@UIPersistStream@@@IUnknown@@QAGJPAPAUIPersistStream@@@Z 10005670 f i POSKeyboard.obj
 0001:000046a0       ??$QueryInterface@UITypeInfo2@@@IUnknown@@QAGJPAPAUITypeInfo2@@@Z 100056a0 f i POSKeyboard.obj
 0001:000046d0       ??0?$CAtlModuleT@VCComModule@ATL@@@ATL@@QAE@XZ 100056d0 f i POSKeyboard.obj
 0001:00004700       ??0?$CAtlSafeAllocBufferManager@VCCRTAllocator@ATL@@@_ATL_SAFE_ALLOCA_IMPL@ATL@@QAE@XZ 10005700 f i POSKeyboard.obj
 0001:00004720       ??0?$CAutoVectorPtr@_W@ATL@@QAE@XZ 10005720 f i POSKeyboard.obj
 0001:00004740       ??0?$CComAggObject@VCOPOSPOSKeyboard@@@ATL@@QAE@PAX@Z 10005740 f i POSKeyboard.obj
 0001:000047b0       ??0?$CComContainedObject@VCOPOSPOSKeyboard@@@ATL@@QAE@PAX@Z 100057b0 f i POSKeyboard.obj
 0001:000048c0       ??0?$CComCritSecLock@VCComCriticalSection@ATL@@@ATL@@QAE@AAVCComCriticalSection@1@_N@Z 100058c0 f i POSKeyboard.obj
 0001:00004920       ??0?$CComEnum@UIEnumConnectionPoints@@$1?_GUID_b196b285_bab4_101a_b69c_00aa00341d07@@3U__s_GUID@@BPAUIConnectionPoint@@V?$_CopyInterface@UIConnectionPoint@@@ATL@@VCComSingleThreadModel@6@@ATL@@QAE@XZ 10005920 f i POSKeyboard.obj
 0001:00004960       ??0?$CComEnum@UIEnumConnections@@$1?_GUID_b196b287_bab4_101a_b69c_00aa00341d07@@3U__s_GUID@@BUtagCONNECTDATA@@V?$_Copy@UtagCONNECTDATA@@@ATL@@VCComSingleThreadModel@6@@ATL@@QAE@XZ 10005960 f i POSKeyboard.obj
 0001:000049a0       ??0?$CComEnumImpl@UIEnumConnectionPoints@@$1?_GUID_b196b285_bab4_101a_b69c_00aa00341d07@@3U__s_GUID@@BPAUIConnectionPoint@@V?$_CopyInterface@UIConnectionPoint@@@ATL@@@ATL@@QAE@XZ 100059a0 f i POSKeyboard.obj
 0001:00004a00       ??0?$CComEnumImpl@UIEnumConnections@@$1?_GUID_b196b287_bab4_101a_b69c_00aa00341d07@@3U__s_GUID@@BUtagCONNECTDATA@@V?$_Copy@UtagCONNECTDATA@@@ATL@@@ATL@@QAE@XZ 10005a00 f i POSKeyboard.obj
 0001:00004a60       ??0?$CComObject@V?$CComEnum@UIEnumConnectionPoints@@$1?_GUID_b196b285_bab4_101a_b69c_00aa00341d07@@3U__s_GUID@@BPAUIConnectionPoint@@V?$_CopyInterface@UIConnectionPoint@@@ATL@@VCComSingleThreadModel@6@@ATL@@@ATL@@QAE@PAX@Z 10005a60 f i POSKeyboard.obj
 0001:00004ab0       ??0?$CComObject@V?$CComEnum@UIEnumConnections@@$1?_GUID_b196b287_bab4_101a_b69c_00aa00341d07@@3U__s_GUID@@BUtagCONNECTDATA@@V?$_Copy@UtagCONNECTDATA@@@ATL@@VCComSingleThreadModel@6@@ATL@@@ATL@@QAE@PAX@Z 10005ab0 f i POSKeyboard.obj
 0001:00004b00       ??0?$CComObject@VCOPOSPOSKeyboard@@@ATL@@QAE@PAX@Z 10005b00 f i POSKeyboard.obj
 0001:00004c20       ??0?$CComObjectCached@VCComClassFactory@ATL@@@ATL@@QAE@PAX@Z 10005c20 f i POSKeyboard.obj
 0001:00004c60       ??0?$CComObjectRootEx@VCComMultiThreadModel@ATL@@@ATL@@QAE@XZ 10005c60 f i POSKeyboard.obj
 0001:00004ca0       ??0?$CComObjectRootEx@VCComSingleThreadModel@ATL@@@ATL@@QAE@XZ 10005ca0 f i POSKeyboard.obj
 0001:00004cd0       ??0?$CComPtr@UIAdviseSink@@@ATL@@QAE@PAUIAdviseSink@@@Z 10005cd0 f i POSKeyboard.obj
 0001:00004d00       ??0?$CComPtr@UICatRegister@@@ATL@@QAE@XZ 10005d00 f i POSKeyboard.obj
 0001:00004d30       ??0?$CComPtr@UIConnectionPoint@@@ATL@@QAE@XZ 10005d30 f i POSKeyboard.obj
 0001:00004d60       ??0?$CComPtr@UIConnectionPointContainer@@@ATL@@QAE@XZ 10005d60 f i POSKeyboard.obj
 0001:00004d90       ??0?$CComPtr@UIDataObject@@@ATL@@QAE@XZ 10005d90 f i POSKeyboard.obj
 0001:00004dc0       ??0?$CComPtr@UIDispatch@@@ATL@@QAE@XZ 10005dc0 f i POSKeyboard.obj
 0001:00004df0       ??0?$CComPtr@UIOleClientSite@@@ATL@@QAE@PAUIOleClientSite@@@Z 10005df0 f i POSKeyboard.obj
 0001:00004e20       ??0?$CComPtr@UIOleControlSite@@@ATL@@QAE@XZ 10005e20 f i POSKeyboard.obj
 0001:00004e50       ??0?$CComPtr@UIOleInPlaceActiveObject@@@ATL@@QAE@XZ 10005e50 f i POSKeyboard.obj
 0001:00004e80       ??0?$CComPtr@UIOleInPlaceFrame@@@ATL@@QAE@XZ 10005e80 f i POSKeyboard.obj
 0001:00004eb0       ??0?$CComPtr@UIOleInPlaceObject@@@ATL@@QAE@XZ 10005eb0 f i POSKeyboard.obj
 0001:00004ee0       ??0?$CComPtr@UIOleInPlaceUIWindow@@@ATL@@QAE@XZ 10005ee0 f i POSKeyboard.obj
 0001:00004f10       ??0?$CComPtr@UIOleObject@@@ATL@@QAE@XZ 10005f10 f i POSKeyboard.obj
 0001:00004f40       ??0?$CComPtr@UIPersistStream@@@ATL@@QAE@XZ 10005f40 f i POSKeyboard.obj
 0001:00004f70       ??0?$CComPtr@UIPersistStreamInit@@@ATL@@QAE@XZ 10005f70 f i POSKeyboard.obj
 0001:00004fa0       ??0?$CComPtr@UIPointerInactive@@@ATL@@QAE@XZ 10005fa0 f i POSKeyboard.obj
 0001:00004fd0       ??0?$CComPtr@UIProvideClassInfo2@@@ATL@@QAE@XZ 10005fd0 f i POSKeyboard.obj
 0001:00005000       ??0?$CComPtr@UISpecifyPropertyPages@@@ATL@@QAE@XZ 10006000 f i POSKeyboard.obj
 0001:00005030       ??0?$CComPtr@UIStream@@@ATL@@QAE@XZ 10006030 f i POSKeyboard.obj
 0001:00005060       ??0?$CComPtr@UITypeInfo2@@@ATL@@QAE@XZ 10006060 f i POSKeyboard.obj
 0001:00005090       ??0?$CComPtr@UITypeInfo@@@ATL@@QAE@ABV01@@Z 10006090 f i POSKeyboard.obj
 0001:000050c0       ??0?$CComPtr@UITypeInfo@@@ATL@@QAE@XZ 100060c0 f i POSKeyboard.obj
 0001:000050f0       ??0?$CComPtr@UITypeLib@@@ATL@@QAE@XZ 100060f0 f i POSKeyboard.obj
 0001:00005120       ??0?$CComPtr@UIUnknown@@@ATL@@QAE@ABV01@@Z 10006120 f i POSKeyboard.obj
 0001:00005150       ??0?$CComPtr@UIUnknown@@@ATL@@QAE@PAUIUnknown@@@Z 10006150 f i POSKeyboard.obj
 0001:00005180       ??0?$CComPtr@UIUnknown@@@ATL@@QAE@XZ 10006180 f i POSKeyboard.obj
 0001:000051b0       ??0?$CComPtr@UIViewObjectEx@@@ATL@@QAE@XZ 100061b0 f i POSKeyboard.obj
 0001:000051e0       ??0?$CComPtrBase@UIAdviseSink@@@ATL@@IAE@PAUIAdviseSink@@@Z 100061e0 f i POSKeyboard.obj
 0001:00005230       ??0?$CComPtrBase@UICatRegister@@@ATL@@IAE@XZ 10006230 f i POSKeyboard.obj
 0001:00005250       ??0?$CComPtrBase@UIConnectionPoint@@@ATL@@IAE@XZ 10006250 f i POSKeyboard.obj
 0001:00005270       ??0?$CComPtrBase@UIConnectionPointContainer@@@ATL@@IAE@XZ 10006270 f i POSKeyboard.obj
 0001:00005290       ??0?$CComPtrBase@UIDataObject@@@ATL@@IAE@XZ 10006290 f i POSKeyboard.obj
 0001:000052b0       ??0?$CComPtrBase@UIDispatch@@@ATL@@IAE@XZ 100062b0 f i POSKeyboard.obj
 0001:000052d0       ??0?$CComPtrBase@UIOleClientSite@@@ATL@@IAE@PAUIOleClientSite@@@Z 100062d0 f i POSKeyboard.obj
 0001:00005320       ??0?$CComPtrBase@UIOleControlSite@@@ATL@@IAE@XZ 10006320 f i POSKeyboard.obj
 0001:00005340       ??0?$CComPtrBase@UIOleInPlaceActiveObject@@@ATL@@IAE@XZ 10006340 f i POSKeyboard.obj
 0001:00005360       ??0?$CComPtrBase@UIOleInPlaceFrame@@@ATL@@IAE@XZ 10006360 f i POSKeyboard.obj
 0001:00005380       ??0?$CComPtrBase@UIOleInPlaceObject@@@ATL@@IAE@XZ 10006380 f i POSKeyboard.obj
 0001:000053a0       ??0?$CComPtrBase@UIOleInPlaceUIWindow@@@ATL@@IAE@XZ 100063a0 f i POSKeyboard.obj
 0001:000053c0       ??0?$CComPtrBase@UIOleObject@@@ATL@@IAE@XZ 100063c0 f i POSKeyboard.obj
 0001:000053e0       ??0?$CComPtrBase@UIPersistStream@@@ATL@@IAE@XZ 100063e0 f i POSKeyboard.obj
 0001:00005400       ??0?$CComPtrBase@UIPersistStreamInit@@@ATL@@IAE@XZ 10006400 f i POSKeyboard.obj
 0001:00005420       ??0?$CComPtrBase@UIPointerInactive@@@ATL@@IAE@XZ 10006420 f i POSKeyboard.obj
 0001:00005440       ??0?$CComPtrBase@UIProvideClassInfo2@@@ATL@@IAE@XZ 10006440 f i POSKeyboard.obj
 0001:00005460       ??0?$CComPtrBase@UISpecifyPropertyPages@@@ATL@@IAE@XZ 10006460 f i POSKeyboard.obj
 0001:00005480       ??0?$CComPtrBase@UIStream@@@ATL@@IAE@XZ 10006480 f i POSKeyboard.obj
 0001:000054a0       ??0?$CComPtrBase@UITypeInfo2@@@ATL@@IAE@XZ 100064a0 f i POSKeyboard.obj
 0001:000054c0       ??0?$CComPtrBase@UITypeInfo@@@ATL@@IAE@PAUITypeInfo@@@Z 100064c0 f i POSKeyboard.obj
 0001:00005510       ??0?$CComPtrBase@UITypeInfo@@@ATL@@IAE@XZ 10006510 f i POSKeyboard.obj
 0001:00005530       ??0?$CComPtrBase@UITypeLib@@@ATL@@IAE@XZ 10006530 f i POSKeyboard.obj
 0001:00005550       ??0?$CComPtrBase@UIUnknown@@@ATL@@IAE@PAUIUnknown@@@Z 10006550 f i POSKeyboard.obj
 0001:000055a0       ??0?$CComPtrBase@UIUnknown@@@ATL@@IAE@XZ 100065a0 f i POSKeyboard.obj
 0001:000055c0       ??0?$CComPtrBase@UIViewObjectEx@@@ATL@@IAE@XZ 100065c0 f i POSKeyboard.obj
 0001:000055e0       ??0?$CComQIPtr@UIOleControlSite@@$1?_GUID_b196b289_bab4_101a_b69c_00aa00341d07@@3U__s_GUID@@B@ATL@@QAE@PAUIUnknown@@@Z 100065e0 f i POSKeyboard.obj
 0001:00005640       ??0?$CComQIPtr@UIOleObject@@$1?_GUID_00000112_0000_0000_c000_000000000046@@3U__s_GUID@@B@ATL@@QAE@XZ 10006640 f i POSKeyboard.obj
 0001:00005670       ??0?$CComQIPtr@UISpecifyPropertyPages@@$1?_GUID_b196b28b_bab4_101a_b69c_00aa00341d07@@3U__s_GUID@@B@ATL@@QAE@XZ 10006670 f i POSKeyboard.obj
 0001:000056a0       ??0?$CSimpleMap@PA_WPA_WVCExpansionVectorEqualHelper@ATL@@@ATL@@QAE@XZ 100066a0 f i POSKeyboard.obj
 0001:000056e0       ??0?$CTempBuffer@E$0BAA@VCCRTAllocator@ATL@@@ATL@@QAE@XZ 100066e0 f i POSKeyboard.obj
 0001:00005700       ??0?$CTempBuffer@_W$0BAA@VCCRTAllocator@ATL@@@ATL@@QAE@XZ 10006700 f i POSKeyboard.obj
 0001:00005720       ??0?$CTempBuffer@_W$0EAA@VCCRTAllocator@ATL@@@ATL@@QAE@XZ 10006720 f i POSKeyboard.obj
 0001:00005740       ??0?$Wrapper@PA_W@?$CSimpleMap@PA_WPA_WVCExpansionVectorEqualHelper@ATL@@@ATL@@QAE@ABQA_W@Z 10006740 f i POSKeyboard.obj
 0001:00005770       ??0CAtlModule@ATL@@QAE@XZ  10006770 f i POSKeyboard.obj
 0001:00005890       ??0CComAutoDeleteCriticalSection@ATL@@QAE@XZ 10006890 f i POSKeyboard.obj
 0001:000058c0       ??0CComBSTR@ATL@@QAE@XZ    100068c0 f i POSKeyboard.obj
 0001:000058e0       ??0CComClassFactory@ATL@@QAE@XZ 100068e0 f i POSKeyboard.obj
 0001:00005920       ??0CComModule@ATL@@QAE@XZ  10006920 f i POSKeyboard.obj
 0001:00005990       ??0CComObjectRootBase@ATL@@QAE@XZ 10006990 f i POSKeyboard.obj
 0001:000059b0       ??0CComSafeDeleteCriticalSection@ATL@@QAE@XZ 100069b0 f i POSKeyboard.obj
 0001:000059e0       ??0CComVariant@ATL@@QAE@XZ 100069e0 f i POSKeyboard.obj
 0001:00005a30       ??0CExpansionVector@ATL@@QAE@XZ 10006a30 f i POSKeyboard.obj
 0001:00005a60       ??0CParseBuffer@CRegParser@ATL@@QAE@H@Z 10006a60 f i POSKeyboard.obj
 0001:00005ad0       ??0CRegKey@ATL@@QAE@PAUHKEY__@@@Z 10006ad0 f i POSKeyboard.obj
 0001:00005b10       ??0CRegKey@ATL@@QAE@PAVCAtlTransactionManager@1@@Z 10006b10 f i POSKeyboard.obj
 0001:00005b50       ??0CRegObject@ATL@@QAE@XZ  10006b50 f i POSKeyboard.obj
 0001:00005b90       ??0CRegParser@ATL@@QAE@PAVCRegObject@1@@Z 10006b90 f i POSKeyboard.obj
 0001:00005bc0       ??0IClassFactory@@QAE@XZ   10006bc0 f i POSKeyboard.obj
 0001:00005bf0       ??0IEnumConnectionPoints@@QAE@XZ 10006bf0 f i POSKeyboard.obj
 0001:00005c20       ??0IEnumConnections@@QAE@XZ 10006c20 f i POSKeyboard.obj
 0001:00005c50       ??0IRegistrarBase@@QAE@XZ  10006c50 f i POSKeyboard.obj
 0001:00005c80       ??0IUnknown@@QAE@XZ        10006c80 f i POSKeyboard.obj
 0001:00005ca0       ??0ModuleLockHelper@ATL@@QAE@XZ 10006ca0 f i POSKeyboard.obj
 0001:00005ce0       ??0OposVariant@@QAE@XZ     10006ce0 f i POSKeyboard.obj
 0001:00005d10       ??0Wrapper@?$CSimpleArray@GV?$CSimpleArrayEqualHelper@G@ATL@@@ATL@@QAE@ABG@Z 10006d10 f i POSKeyboard.obj
 0001:00005d40       ??0_ATL_MODULE70@ATL@@QAE@XZ 10006d40 f i POSKeyboard.obj
 0001:00005d70       ??0_ATL_MSG@ATL@@QAE@PAUHWND__@@IIJH@Z 10006d70 f i POSKeyboard.obj
 0001:00005de0       ??0_U_MENUorID@ATL@@QAE@I@Z 10006de0 f i POSKeyboard.obj
 0001:00005e00       ??0_U_RECT@ATL@@QAE@AAUtagRECT@@@Z 10006e00 f i POSKeyboard.obj
 0001:00005e20       ??0stringdispid@CComTypeInfoHolder@ATL@@QAE@XZ 10006e20 f i POSKeyboard.obj
 0001:00005e60       ??1?$CAtlModuleT@VCComModule@ATL@@@ATL@@UAE@XZ 10006e60 f i POSKeyboard.obj
 0001:00005e90       ??1?$CAtlSafeAllocBufferManager@VCCRTAllocator@ATL@@@_ATL_SAFE_ALLOCA_IMPL@ATL@@QAE@XZ 10006e90 f i POSKeyboard.obj
 0001:00005ee0       ??1?$CAutoVectorPtr@_W@ATL@@QAE@XZ 10006ee0 f i POSKeyboard.obj
 0001:00005f10       ??1?$CComAggObject@VCOPOSPOSKeyboard@@@ATL@@UAE@XZ 10006f10 f i POSKeyboard.obj
 0001:00005f80       ??1?$CComContainedObject@VCOPOSPOSKeyboard@@@ATL@@UAE@XZ 10006f80 f i POSKeyboard.obj
 0001:00005fb0       ??1?$CComCritSecLock@VCComCriticalSection@ATL@@@ATL@@QAE@XZ 10006fb0 f i POSKeyboard.obj
 0001:00005fe0       ??1?$CComEnum@UIEnumConnectionPoints@@$1?_GUID_b196b285_bab4_101a_b69c_00aa00341d07@@3U__s_GUID@@BPAUIConnectionPoint@@V?$_CopyInterface@UIConnectionPoint@@@ATL@@VCComSingleThreadModel@6@@ATL@@UAE@XZ 10006fe0 f i POSKeyboard.obj
 0001:00006010       ??1?$CComEnum@UIEnumConnections@@$1?_GUID_b196b287_bab4_101a_b69c_00aa00341d07@@3U__s_GUID@@BUtagCONNECTDATA@@V?$_Copy@UtagCONNECTDATA@@@ATL@@VCComSingleThreadModel@6@@ATL@@UAE@XZ 10007010 f i POSKeyboard.obj
 0001:00006040       ??1?$CComEnumImpl@UIEnumConnectionPoints@@$1?_GUID_b196b285_bab4_101a_b69c_00aa00341d07@@3U__s_GUID@@BPAUIConnectionPoint@@V?$_CopyInterface@UIConnectionPoint@@@ATL@@@ATL@@UAE@XZ 10007040 f i POSKeyboard.obj
 0001:000060d0       ??1?$CComEnumImpl@UIEnumConnections@@$1?_GUID_b196b287_bab4_101a_b69c_00aa00341d07@@3U__s_GUID@@BUtagCONNECTDATA@@V?$_Copy@UtagCONNECTDATA@@@ATL@@@ATL@@UAE@XZ 100070d0 f i POSKeyboard.obj
 0001:00006160       ??1?$CComObject@V?$CComEnum@UIEnumConnectionPoints@@$1?_GUID_b196b285_bab4_101a_b69c_00aa00341d07@@3U__s_GUID@@BPAUIConnectionPoint@@V?$_CopyInterface@UIConnectionPoint@@@ATL@@VCComSingleThreadModel@6@@ATL@@@ATL@@UAE@XZ 10007160 f i POSKeyboard.obj
 0001:000061c0       ??1?$CComObject@V?$CComEnum@UIEnumConnections@@$1?_GUID_b196b287_bab4_101a_b69c_00aa00341d07@@3U__s_GUID@@BUtagCONNECTDATA@@V?$_Copy@UtagCONNECTDATA@@@ATL@@VCComSingleThreadModel@6@@ATL@@@ATL@@UAE@XZ 100071c0 f i POSKeyboard.obj
 0001:00006220       ??1?$CComObject@VCOPOSPOSKeyboard@@@ATL@@UAE@XZ 10007220 f i POSKeyboard.obj
 0001:00006360       ??1?$CComObjectCached@VCComClassFactory@ATL@@@ATL@@UAE@XZ 10007360 f i POSKeyboard.obj
 0001:000063b0       ??1?$CComObjectRootEx@VCComMultiThreadModel@ATL@@@ATL@@QAE@XZ 100073b0 f i POSKeyboard.obj
 0001:000063e0       ??1?$CComObjectRootEx@VCComSingleThreadModel@ATL@@@ATL@@QAE@XZ 100073e0 f i POSKeyboard.obj
 0001:00006410       ??1?$CComPtr@UIAdviseSink@@@ATL@@QAE@XZ 10007410 f i POSKeyboard.obj
 0001:00006440       ??1?$CComPtr@UICatRegister@@@ATL@@QAE@XZ 10007440 f i POSKeyboard.obj
 0001:00006470       ??1?$CComPtr@UIConnectionPoint@@@ATL@@QAE@XZ 10007470 f i POSKeyboard.obj
 0001:000064a0       ??1?$CComPtr@UIConnectionPointContainer@@@ATL@@QAE@XZ 100074a0 f i POSKeyboard.obj
 0001:000064d0       ??1?$CComPtr@UIDataObject@@@ATL@@QAE@XZ 100074d0 f i POSKeyboard.obj
 0001:00006500       ??1?$CComPtr@UIDispatch@@@ATL@@QAE@XZ 10007500 f i POSKeyboard.obj
 0001:00006530       ??1?$CComPtr@UIOleClientSite@@@ATL@@QAE@XZ 10007530 f i POSKeyboard.obj
 0001:00006560       ??1?$CComPtr@UIOleControlSite@@@ATL@@QAE@XZ 10007560 f i POSKeyboard.obj
 0001:00006590       ??1?$CComPtr@UIOleInPlaceActiveObject@@@ATL@@QAE@XZ 10007590 f i POSKeyboard.obj
 0001:000065c0       ??1?$CComPtr@UIOleInPlaceFrame@@@ATL@@QAE@XZ 100075c0 f i POSKeyboard.obj
 0001:000065f0       ??1?$CComPtr@UIOleInPlaceObject@@@ATL@@QAE@XZ 100075f0 f i POSKeyboard.obj
 0001:00006620       ??1?$CComPtr@UIOleInPlaceUIWindow@@@ATL@@QAE@XZ 10007620 f i POSKeyboard.obj
 0001:00006650       ??1?$CComPtr@UIOleObject@@@ATL@@QAE@XZ 10007650 f i POSKeyboard.obj
 0001:00006680       ??1?$CComPtr@UIPersistStream@@@ATL@@QAE@XZ 10007680 f i POSKeyboard.obj
 0001:000066b0       ??1?$CComPtr@UIPersistStreamInit@@@ATL@@QAE@XZ 100076b0 f i POSKeyboard.obj
 0001:000066e0       ??1?$CComPtr@UIPointerInactive@@@ATL@@QAE@XZ 100076e0 f i POSKeyboard.obj
 0001:00006710       ??1?$CComPtr@UIProvideClassInfo2@@@ATL@@QAE@XZ 10007710 f i POSKeyboard.obj
 0001:00006740       ??1?$CComPtr@UISpecifyPropertyPages@@@ATL@@QAE@XZ 10007740 f i POSKeyboard.obj
 0001:00006770       ??1?$CComPtr@UIStream@@@ATL@@QAE@XZ 10007770 f i POSKeyboard.obj
 0001:000067a0       ??1?$CComPtr@UITypeInfo2@@@ATL@@QAE@XZ 100077a0 f i POSKeyboard.obj
 0001:000067d0       ??1?$CComPtr@UITypeInfo@@@ATL@@QAE@XZ 100077d0 f i POSKeyboard.obj
 0001:00006800       ??1?$CComPtr@UITypeLib@@@ATL@@QAE@XZ 10007800 f i POSKeyboard.obj
 0001:00006830       ??1?$CComPtr@UIUnknown@@@ATL@@QAE@XZ 10007830 f i POSKeyboard.obj
 0001:00006860       ??1?$CComPtr@UIViewObjectEx@@@ATL@@QAE@XZ 10007860 f i POSKeyboard.obj
 0001:00006890       ??1?$CComPtrBase@UIAdviseSink@@@ATL@@QAE@XZ 10007890 f i POSKeyboard.obj
 0001:000068e0       ??1?$CComPtrBase@UICatRegister@@@ATL@@QAE@XZ 100078e0 f i POSKeyboard.obj
 0001:00006930       ??1?$CComPtrBase@UIConnectionPoint@@@ATL@@QAE@XZ 10007930 f i POSKeyboard.obj
 0001:00006980       ??1?$CComPtrBase@UIConnectionPointContainer@@@ATL@@QAE@XZ 10007980 f i POSKeyboard.obj
 0001:000069d0       ??1?$CComPtrBase@UIDataObject@@@ATL@@QAE@XZ 100079d0 f i POSKeyboard.obj
 0001:00006a20       ??1?$CComPtrBase@UIDispatch@@@ATL@@QAE@XZ 10007a20 f i POSKeyboard.obj
 0001:00006a70       ??1?$CComPtrBase@UIOleClientSite@@@ATL@@QAE@XZ 10007a70 f i POSKeyboard.obj
 0001:00006ac0       ??1?$CComPtrBase@UIOleControlSite@@@ATL@@QAE@XZ 10007ac0 f i POSKeyboard.obj
 0001:00006b10       ??1?$CComPtrBase@UIOleInPlaceActiveObject@@@ATL@@QAE@XZ 10007b10 f i POSKeyboard.obj
 0001:00006b60       ??1?$CComPtrBase@UIOleInPlaceFrame@@@ATL@@QAE@XZ 10007b60 f i POSKeyboard.obj
 0001:00006bb0       ??1?$CComPtrBase@UIOleInPlaceObject@@@ATL@@QAE@XZ 10007bb0 f i POSKeyboard.obj
 0001:00006c00       ??1?$CComPtrBase@UIOleInPlaceUIWindow@@@ATL@@QAE@XZ 10007c00 f i POSKeyboard.obj
 0001:00006c50       ??1?$CComPtrBase@UIOleObject@@@ATL@@QAE@XZ 10007c50 f i POSKeyboard.obj
 0001:00006ca0       ??1?$CComPtrBase@UIPersistStream@@@ATL@@QAE@XZ 10007ca0 f i POSKeyboard.obj
 0001:00006cf0       ??1?$CComPtrBase@UIPersistStreamInit@@@ATL@@QAE@XZ 10007cf0 f i POSKeyboard.obj
 0001:00006d40       ??1?$CComPtrBase@UIPointerInactive@@@ATL@@QAE@XZ 10007d40 f i POSKeyboard.obj
 0001:00006d90       ??1?$CComPtrBase@UIProvideClassInfo2@@@ATL@@QAE@XZ 10007d90 f i POSKeyboard.obj
 0001:00006de0       ??1?$CComPtrBase@UISpecifyPropertyPages@@@ATL@@QAE@XZ 10007de0 f i POSKeyboard.obj
 0001:00006e30       ??1?$CComPtrBase@UIStream@@@ATL@@QAE@XZ 10007e30 f i POSKeyboard.obj
 0001:00006e80       ??1?$CComPtrBase@UITypeInfo2@@@ATL@@QAE@XZ 10007e80 f i POSKeyboard.obj
 0001:00006ed0       ??1?$CComPtrBase@UITypeInfo@@@ATL@@QAE@XZ 10007ed0 f i POSKeyboard.obj
 0001:00006f20       ??1?$CComPtrBase@UITypeLib@@@ATL@@QAE@XZ 10007f20 f i POSKeyboard.obj
 0001:00006f70       ??1?$CComPtrBase@UIUnknown@@@ATL@@QAE@XZ 10007f70 f i POSKeyboard.obj
 0001:00006fc0       ??1?$CComPtrBase@UIViewObjectEx@@@ATL@@QAE@XZ 10007fc0 f i POSKeyboard.obj
 0001:00007010       ??1?$CComQIPtr@UIOleControlSite@@$1?_GUID_b196b289_bab4_101a_b69c_00aa00341d07@@3U__s_GUID@@B@ATL@@QAE@XZ 10008010 f i POSKeyboard.obj
 0001:00007040       ??1?$CComQIPtr@UIOleObject@@$1?_GUID_00000112_0000_0000_c000_000000000046@@3U__s_GUID@@B@ATL@@QAE@XZ 10008040 f i POSKeyboard.obj
 0001:00007070       ??1?$CComQIPtr@UISpecifyPropertyPages@@$1?_GUID_b196b28b_bab4_101a_b69c_00aa00341d07@@3U__s_GUID@@B@ATL@@QAE@XZ 10008070 f i POSKeyboard.obj
 0001:000070a0       ??1?$CSimpleMap@PA_WPA_WVCExpansionVectorEqualHelper@ATL@@@ATL@@QAE@XZ 100080a0 f i POSKeyboard.obj
 0001:000070d0       ??1?$CTempBuffer@E$0BAA@VCCRTAllocator@ATL@@@ATL@@QAE@XZ 100080d0 f i POSKeyboard.obj
 0001:00007110       ??1?$CTempBuffer@_W$0BAA@VCCRTAllocator@ATL@@@ATL@@QAE@XZ 10008110 f i POSKeyboard.obj
 0001:00007150       ??1?$CTempBuffer@_W$0EAA@VCCRTAllocator@ATL@@@ATL@@QAE@XZ 10008150 f i POSKeyboard.obj
 0001:00007190       ??1CAtlModule@ATL@@UAE@XZ  10008190 f i POSKeyboard.obj
 0001:000071c0       ??1CComAutoDeleteCriticalSection@ATL@@QAE@XZ 100081c0 f i POSKeyboard.obj
 0001:000071f0       ??1CComClassFactory@ATL@@UAE@XZ 100081f0 f i POSKeyboard.obj
 0001:00007220       ??1CComModule@ATL@@UAE@XZ  10008220 f i POSKeyboard.obj
 0001:00007250       ??1CComObjectRootBase@ATL@@QAE@XZ 10008250 f i POSKeyboard.obj
 0001:00007270       ??1CComSafeDeleteCriticalSection@ATL@@QAE@XZ 10008270 f i POSKeyboard.obj
 0001:000072b0       ??1CComVariant@ATL@@QAE@XZ 100082b0 f i POSKeyboard.obj
 0001:00007310       ??1CExpansionVector@ATL@@QAE@XZ 10008310 f i POSKeyboard.obj
 0001:00007340       ??1CParseBuffer@CRegParser@ATL@@QAE@XZ 10008340 f i POSKeyboard.obj
 0001:00007380       ??1CRegKey@ATL@@QAE@XZ     10008380 f i POSKeyboard.obj
 0001:000073b0       ??1CRegObject@ATL@@UAE@XZ  100083b0 f i POSKeyboard.obj
 0001:000073f0       ??1ModuleLockHelper@ATL@@QAE@XZ 100083f0 f i POSKeyboard.obj
 0001:00007430       ??1OposVariant@@QAE@XZ     10008430 f i POSKeyboard.obj
 0001:00007460       ??1_ATL_MODULE70@ATL@@QAE@XZ 10008460 f i POSKeyboard.obj
 0001:00007490       ??4?$CComPtr@UIAdviseSink@@@ATL@@QAEPAUIAdviseSink@@PAU2@@Z 10008490 f i POSKeyboard.obj
 0001:00007500       ??4?$CComPtr@UIOleClientSite@@@ATL@@QAEPAUIOleClientSite@@PAU2@@Z 10008500 f i POSKeyboard.obj
 0001:00007570       ??4?$CComPtr@UIUnknown@@@ATL@@QAEPAUIUnknown@@PAU2@@Z 10008570 f i POSKeyboard.obj
 0001:000075e0       ??4?$CComQIPtr@UIOleObject@@$1?_GUID_00000112_0000_0000_c000_000000000046@@3U__s_GUID@@B@ATL@@QAEPAUIOleObject@@PAUIUnknown@@@Z 100085e0 f i POSKeyboard.obj
 0001:00007630       ??4?$CComQIPtr@UISpecifyPropertyPages@@$1?_GUID_b196b28b_bab4_101a_b69c_00aa00341d07@@3U__s_GUID@@B@ATL@@QAEPAUISpecifyPropertyPages@@PAUIUnknown@@@Z 10008630 f i POSKeyboard.obj
 0001:00007680       ??7?$CComPtrBase@UIOleClientSite@@@ATL@@QBE_NXZ 10008680 f i POSKeyboard.obj
 0001:000076c0       ??7?$CComPtrBase@UIOleInPlaceSiteWindowless@@@ATL@@QBE_NXZ 100086c0 f i POSKeyboard.obj
 0001:00007700       ??7CComBSTR@ATL@@QBE_NXZ   10008700 f i POSKeyboard.obj
 0001:00007740       ??8?$CComPtrBase@UIAdviseSink@@@ATL@@QBE_NPAUIAdviseSink@@@Z 10008740 f i POSKeyboard.obj
 0001:00007780       ??8?$CComPtrBase@UIConnectionPointContainer@@@ATL@@QBE_NPAUIConnectionPointContainer@@@Z 10008780 f i POSKeyboard.obj
 0001:000077c0       ??8?$CComPtrBase@UIDataAdviseHolder@@@ATL@@QBE_NPAUIDataAdviseHolder@@@Z 100087c0 f i POSKeyboard.obj
 0001:00007800       ??8?$CComPtrBase@UIOleAdviseHolder@@@ATL@@QBE_NPAUIOleAdviseHolder@@@Z 10008800 f i POSKeyboard.obj
 0001:00007840       ??8?$CComPtrBase@UIOleClientSite@@@ATL@@QBE_NPAUIOleClientSite@@@Z 10008840 f i POSKeyboard.obj
 0001:00007880       ??8?$CComPtrBase@UIOleControlSite@@@ATL@@QBE_NPAUIOleControlSite@@@Z 10008880 f i POSKeyboard.obj
 0001:000078c0       ??8?$CComPtrBase@UIOleInPlaceObject@@@ATL@@QBE_NPAUIOleInPlaceObject@@@Z 100088c0 f i POSKeyboard.obj
 0001:00007900       ??8?$CComPtrBase@UIOleInPlaceSiteWindowless@@@ATL@@QBE_NPAUIOleInPlaceSiteWindowless@@@Z 10008900 f i POSKeyboard.obj
 0001:00007940       ??8?$CComPtrBase@UIOleObject@@@ATL@@QBE_NPAUIOleObject@@@Z 10008940 f i POSKeyboard.obj
 0001:00007980       ??8?$CComPtrBase@UIPersistStream@@@ATL@@QBE_NPAUIPersistStream@@@Z 10008980 f i POSKeyboard.obj
 0001:000079c0       ??8?$CComPtrBase@UIPersistStreamInit@@@ATL@@QBE_NPAUIPersistStreamInit@@@Z 100089c0 f i POSKeyboard.obj
 0001:00007a00       ??8?$CComPtrBase@UIPointerInactive@@@ATL@@QBE_NPAUIPointerInactive@@@Z 10008a00 f i POSKeyboard.obj
 0001:00007a40       ??8?$CComPtrBase@UIUnknown@@@ATL@@QBE_NPAUIUnknown@@@Z 10008a40 f i POSKeyboard.obj
 0001:00007a80       ??8?$CComPtrBase@UIViewObjectEx@@@ATL@@QBE_NPAUIViewObjectEx@@@Z 10008a80 f i POSKeyboard.obj
 0001:00007ac0       ??8CComBSTR@ATL@@QBE_NH@Z  10008ac0 f i POSKeyboard.obj
 0001:00007b20       ??9?$CComPtrBase@UIAdviseSink@@@ATL@@QBE_NPAUIAdviseSink@@@Z 10008b20 f i POSKeyboard.obj
 0001:00007b70       ??9?$CComPtrBase@UIConnectionPointContainer@@@ATL@@QBE_NPAUIConnectionPointContainer@@@Z 10008b70 f i POSKeyboard.obj
 0001:00007bc0       ??9?$CComPtrBase@UIDataAdviseHolder@@@ATL@@QBE_NPAUIDataAdviseHolder@@@Z 10008bc0 f i POSKeyboard.obj
 0001:00007c10       ??9?$CComPtrBase@UIOleAdviseHolder@@@ATL@@QBE_NPAUIOleAdviseHolder@@@Z 10008c10 f i POSKeyboard.obj
 0001:00007c60       ??9?$CComPtrBase@UIOleClientSite@@@ATL@@QBE_NPAUIOleClientSite@@@Z 10008c60 f i POSKeyboard.obj
 0001:00007cb0       ??9?$CComPtrBase@UIOleControlSite@@@ATL@@QBE_NPAUIOleControlSite@@@Z 10008cb0 f i POSKeyboard.obj
 0001:00007d00       ??9?$CComPtrBase@UIOleInPlaceObject@@@ATL@@QBE_NPAUIOleInPlaceObject@@@Z 10008d00 f i POSKeyboard.obj
 0001:00007d50       ??9?$CComPtrBase@UIOleInPlaceSiteWindowless@@@ATL@@QBE_NPAUIOleInPlaceSiteWindowless@@@Z 10008d50 f i POSKeyboard.obj
 0001:00007da0       ??9?$CComPtrBase@UIOleObject@@@ATL@@QBE_NPAUIOleObject@@@Z 10008da0 f i POSKeyboard.obj
 0001:00007df0       ??9?$CComPtrBase@UIPersistStream@@@ATL@@QBE_NPAUIPersistStream@@@Z 10008df0 f i POSKeyboard.obj
 0001:00007e40       ??9?$CComPtrBase@UIPersistStreamInit@@@ATL@@QBE_NPAUIPersistStreamInit@@@Z 10008e40 f i POSKeyboard.obj
 0001:00007e90       ??9?$CComPtrBase@UIPointerInactive@@@ATL@@QBE_NPAUIPointerInactive@@@Z 10008e90 f i POSKeyboard.obj
 0001:00007ee0       ??9?$CComPtrBase@UIUnknown@@@ATL@@QBE_NPAUIUnknown@@@Z 10008ee0 f i POSKeyboard.obj
 0001:00007f30       ??9?$CComPtrBase@UIViewObjectEx@@@ATL@@QBE_NPAUIViewObjectEx@@@Z 10008f30 f i POSKeyboard.obj
 0001:00007f80       ??9CComBSTR@ATL@@QBE_NH@Z  10008f80 f i POSKeyboard.obj
 0001:00007fd0       ??B?$CComPtrBase@UIAdviseSink@@@ATL@@QBEPAUIAdviseSink@@XZ 10008fd0 f i POSKeyboard.obj
 0001:00007ff0       ??B?$CComPtrBase@UIDataAdviseHolder@@@ATL@@QBEPAUIDataAdviseHolder@@XZ 10008ff0 f i POSKeyboard.obj
 0001:00008010       ??B?$CComPtrBase@UIDataObject@@@ATL@@QBEPAUIDataObject@@XZ 10009010 f i POSKeyboard.obj
 0001:00008030       ??B?$CComPtrBase@UIOleAdviseHolder@@@ATL@@QBEPAUIOleAdviseHolder@@XZ 10009030 f i POSKeyboard.obj
 0001:00008050       ??B?$CComPtrBase@UIOleClientSite@@@ATL@@QBEPAUIOleClientSite@@XZ 10009050 f i POSKeyboard.obj
 0001:00008070       ??B?$CComPtrBase@UIOleControlSite@@@ATL@@QBEPAUIOleControlSite@@XZ 10009070 f i POSKeyboard.obj
 0001:00008090       ??B?$CComPtrBase@UIOleInPlaceActiveObject@@@ATL@@QBEPAUIOleInPlaceActiveObject@@XZ 10009090 f i POSKeyboard.obj
 0001:000080b0       ??B?$CComPtrBase@UIOleInPlaceFrame@@@ATL@@QBEPAUIOleInPlaceFrame@@XZ 100090b0 f i POSKeyboard.obj
 0001:000080d0       ??B?$CComPtrBase@UIOleInPlaceSiteWindowless@@@ATL@@QBEPAUIOleInPlaceSiteWindowless@@XZ 100090d0 f i POSKeyboard.obj
 0001:000080f0       ??B?$CComPtrBase@UIOleInPlaceUIWindow@@@ATL@@QBEPAUIOleInPlaceUIWindow@@XZ 100090f0 f i POSKeyboard.obj
 0001:00008110       ??B?$CComPtrBase@UIOleObject@@@ATL@@QBEPAUIOleObject@@XZ 10009110 f i POSKeyboard.obj
 0001:00008130       ??B?$CComPtrBase@UIPersistStream@@@ATL@@QBEPAUIPersistStream@@XZ 10009130 f i POSKeyboard.obj
 0001:00008150       ??B?$CComPtrBase@UIProvideClassInfo2@@@ATL@@QBEPAUIProvideClassInfo2@@XZ 10009150 f i POSKeyboard.obj
 0001:00008170       ??B?$CComPtrBase@UISpecifyPropertyPages@@@ATL@@QBEPAUISpecifyPropertyPages@@XZ 10009170 f i POSKeyboard.obj
 0001:00008190       ??B?$CComPtrBase@UIStream@@@ATL@@QBEPAUIStream@@XZ 10009190 f i POSKeyboard.obj
 0001:000081b0       ??B?$CComPtrBase@UITypeInfo2@@@ATL@@QBEPAUITypeInfo2@@XZ 100091b0 f i POSKeyboard.obj
 0001:000081d0       ??B?$CComPtrBase@UITypeInfo@@@ATL@@QBEPAUITypeInfo@@XZ 100091d0 f i POSKeyboard.obj
 0001:000081f0       ??B?$CComPtrBase@UITypeLib@@@ATL@@QBEPAUITypeLib@@XZ 100091f0 f i POSKeyboard.obj
 0001:00008210       ??B?$CComPtrBase@UIUnknown@@@ATL@@QBEPAUIUnknown@@XZ 10009210 f i POSKeyboard.obj
 0001:00008230       ??B?$CTempBuffer@E$0BAA@VCCRTAllocator@ATL@@@ATL@@QBEPAEXZ 10009230 f i POSKeyboard.obj
 0001:00008250       ??B?$CTempBuffer@_W$0BAA@VCCRTAllocator@ATL@@@ATL@@QBEPA_WXZ 10009250 f i POSKeyboard.obj
 0001:00008270       ??B?$CTempBuffer@_W$0EAA@VCCRTAllocator@ATL@@@ATL@@QBEPA_WXZ 10009270 f i POSKeyboard.obj
 0001:00008290       ??B?$CTraceCategoryEx@$00$0A@@ATL@@QAEIXZ 10009290 f i POSKeyboard.obj
 0001:000082b0       ??B?$CTraceCategoryEx@$07$0A@@ATL@@QAEIXZ 100092b0 f i POSKeyboard.obj
 0001:000082d0       ??B?$CTraceCategoryEx@$0CAAA@$0A@@ATL@@QAEIXZ 100092d0 f i POSKeyboard.obj
 0001:000082f0       ??B?$CTraceCategoryEx@$0EA@$0A@@ATL@@QAEIXZ 100092f0 f i POSKeyboard.obj
 0001:00008310       ??B?$CTraceCategoryEx@$0IAA@$0A@@ATL@@QAEIXZ 10009310 f i POSKeyboard.obj
 0001:00008330       ??BCComBSTR@ATL@@QBEPA_WXZ 10009330 f i POSKeyboard.obj
 0001:00008350       ??BCRegKey@ATL@@QBEPAUHKEY__@@XZ 10009350 f i POSKeyboard.obj
 0001:00008370       ??C?$CComPtrBase@UIAdviseSink@@@ATL@@QBEPAV?$_NoAddRefReleaseOnCComPtr@UIAdviseSink@@@1@XZ 10009370 f i POSKeyboard.obj
 0001:000083c0       ??C?$CComPtrBase@UICatRegister@@@ATL@@QBEPAV?$_NoAddRefReleaseOnCComPtr@UICatRegister@@@1@XZ 100093c0 f i POSKeyboard.obj
 0001:00008410       ??C?$CComPtrBase@UIConnectionPoint@@@ATL@@QBEPAV?$_NoAddRefReleaseOnCComPtr@UIConnectionPoint@@@1@XZ 10009410 f i POSKeyboard.obj
 0001:00008460       ??C?$CComPtrBase@UIConnectionPointContainer@@@ATL@@QBEPAV?$_NoAddRefReleaseOnCComPtr@UIConnectionPointContainer@@@1@XZ 10009460 f i POSKeyboard.obj
 0001:000084b0       ??C?$CComPtrBase@UIDataAdviseHolder@@@ATL@@QBEPAV?$_NoAddRefReleaseOnCComPtr@UIDataAdviseHolder@@@1@XZ 100094b0 f i POSKeyboard.obj
 0001:00008500       ??C?$CComPtrBase@UIOleAdviseHolder@@@ATL@@QBEPAV?$_NoAddRefReleaseOnCComPtr@UIOleAdviseHolder@@@1@XZ 10009500 f i POSKeyboard.obj
 0001:00008550       ??C?$CComPtrBase@UIOleClientSite@@@ATL@@QBEPAV?$_NoAddRefReleaseOnCComPtr@UIOleClientSite@@@1@XZ 10009550 f i POSKeyboard.obj
 0001:000085a0       ??C?$CComPtrBase@UIOleControlSite@@@ATL@@QBEPAV?$_NoAddRefReleaseOnCComPtr@UIOleControlSite@@@1@XZ 100095a0 f i POSKeyboard.obj
 0001:000085f0       ??C?$CComPtrBase@UIOleInPlaceFrame@@@ATL@@QBEPAV?$_NoAddRefReleaseOnCComPtr@UIOleInPlaceFrame@@@1@XZ 100095f0 f i POSKeyboard.obj
 0001:00008640       ??C?$CComPtrBase@UIOleInPlaceObject@@@ATL@@QBEPAV?$_NoAddRefReleaseOnCComPtr@UIOleInPlaceObject@@@1@XZ 10009640 f i POSKeyboard.obj
 0001:00008690       ??C?$CComPtrBase@UIOleInPlaceSiteWindowless@@@ATL@@QBEPAV?$_NoAddRefReleaseOnCComPtr@UIOleInPlaceSiteWindowless@@@1@XZ 10009690 f i POSKeyboard.obj
 0001:000086e0       ??C?$CComPtrBase@UIOleInPlaceUIWindow@@@ATL@@QBEPAV?$_NoAddRefReleaseOnCComPtr@UIOleInPlaceUIWindow@@@1@XZ 100096e0 f i POSKeyboard.obj
 0001:00008730       ??C?$CComPtrBase@UIOleObject@@@ATL@@QBEPAV?$_NoAddRefReleaseOnCComPtr@UIOleObject@@@1@XZ 10009730 f i POSKeyboard.obj
 0001:00008780       ??C?$CComPtrBase@UIPersistStream@@@ATL@@QBEPAV?$_NoAddRefReleaseOnCComPtr@UIPersistStream@@@1@XZ 10009780 f i POSKeyboard.obj
 0001:000087d0       ??C?$CComPtrBase@UIPersistStreamInit@@@ATL@@QBEPAV?$_NoAddRefReleaseOnCComPtr@UIPersistStreamInit@@@1@XZ 100097d0 f i POSKeyboard.obj
 0001:00008820       ??C?$CComPtrBase@UIPointerInactive@@@ATL@@QBEPAV?$_NoAddRefReleaseOnCComPtr@UIPointerInactive@@@1@XZ 10009820 f i POSKeyboard.obj
 0001:00008870       ??C?$CComPtrBase@UIProvideClassInfo2@@@ATL@@QBEPAV?$_NoAddRefReleaseOnCComPtr@UIProvideClassInfo2@@@1@XZ 10009870 f i POSKeyboard.obj
 0001:000088c0       ??C?$CComPtrBase@UISpecifyPropertyPages@@@ATL@@QBEPAV?$_NoAddRefReleaseOnCComPtr@UISpecifyPropertyPages@@@1@XZ 100098c0 f i POSKeyboard.obj
 0001:00008910       ??C?$CComPtrBase@UITypeInfo@@@ATL@@QBEPAV?$_NoAddRefReleaseOnCComPtr@UITypeInfo@@@1@XZ 10009910 f i POSKeyboard.obj
 0001:00008960       ??C?$CComPtrBase@UITypeLib@@@ATL@@QBEPAV?$_NoAddRefReleaseOnCComPtr@UITypeLib@@@1@XZ 10009960 f i POSKeyboard.obj
 0001:000089b0       ??C?$CComPtrBase@UIUnknown@@@ATL@@QBEPAV?$_NoAddRefReleaseOnCComPtr@UIUnknown@@@1@XZ 100099b0 f i POSKeyboard.obj
 0001:00008a00       ??C?$CComPtrBase@UIViewObjectEx@@@ATL@@QBEPAV?$_NoAddRefReleaseOnCComPtr@UIViewObjectEx@@@1@XZ 10009a00 f i POSKeyboard.obj
 0001:00008a50       ??I?$CComPtrBase@UICatRegister@@@ATL@@QAEPAPAUICatRegister@@XZ 10009a50 f i POSKeyboard.obj
 0001:00008aa0       ??I?$CComPtrBase@UIConnectionPoint@@@ATL@@QAEPAPAUIConnectionPoint@@XZ 10009aa0 f i POSKeyboard.obj
 0001:00008af0       ??I?$CComPtrBase@UIConnectionPointContainer@@@ATL@@QAEPAPAUIConnectionPointContainer@@XZ 10009af0 f i POSKeyboard.obj
 0001:00008b40       ??I?$CComPtrBase@UIDataAdviseHolder@@@ATL@@QAEPAPAUIDataAdviseHolder@@XZ 10009b40 f i POSKeyboard.obj
 0001:00008b90       ??I?$CComPtrBase@UIDataObject@@@ATL@@QAEPAPAUIDataObject@@XZ 10009b90 f i POSKeyboard.obj
 0001:00008be0       ??I?$CComPtrBase@UIDispatch@@@ATL@@QAEPAPAUIDispatch@@XZ 10009be0 f i POSKeyboard.obj
 0001:00008c30       ??I?$CComPtrBase@UIOleAdviseHolder@@@ATL@@QAEPAPAUIOleAdviseHolder@@XZ 10009c30 f i POSKeyboard.obj
 0001:00008c80       ??I?$CComPtrBase@UIOleControlSite@@@ATL@@QAEPAPAUIOleControlSite@@XZ 10009c80 f i POSKeyboard.obj
 0001:00008cd0       ??I?$CComPtrBase@UIOleInPlaceActiveObject@@@ATL@@QAEPAPAUIOleInPlaceActiveObject@@XZ 10009cd0 f i POSKeyboard.obj
 0001:00008d20       ??I?$CComPtrBase@UIOleInPlaceFrame@@@ATL@@QAEPAPAUIOleInPlaceFrame@@XZ 10009d20 f i POSKeyboard.obj
 0001:00008d70       ??I?$CComPtrBase@UIOleInPlaceObject@@@ATL@@QAEPAPAUIOleInPlaceObject@@XZ 10009d70 f i POSKeyboard.obj
 0001:00008dc0       ??I?$CComPtrBase@UIOleInPlaceSiteWindowless@@@ATL@@QAEPAPAUIOleInPlaceSiteWindowless@@XZ 10009dc0 f i POSKeyboard.obj
 0001:00008e10       ??I?$CComPtrBase@UIOleInPlaceUIWindow@@@ATL@@QAEPAPAUIOleInPlaceUIWindow@@XZ 10009e10 f i POSKeyboard.obj
 0001:00008e60       ??I?$CComPtrBase@UIOleObject@@@ATL@@QAEPAPAUIOleObject@@XZ 10009e60 f i POSKeyboard.obj
 0001:00008eb0       ??I?$CComPtrBase@UIPersistStream@@@ATL@@QAEPAPAUIPersistStream@@XZ 10009eb0 f i POSKeyboard.obj
 0001:00008f00       ??I?$CComPtrBase@UIPointerInactive@@@ATL@@QAEPAPAUIPointerInactive@@XZ 10009f00 f i POSKeyboard.obj
 0001:00008f50       ??I?$CComPtrBase@UIProvideClassInfo2@@@ATL@@QAEPAPAUIProvideClassInfo2@@XZ 10009f50 f i POSKeyboard.obj
 0001:00008fa0       ??I?$CComPtrBase@UIStream@@@ATL@@QAEPAPAUIStream@@XZ 10009fa0 f i POSKeyboard.obj
 0001:00008ff0       ??I?$CComPtrBase@UITypeInfo2@@@ATL@@QAEPAPAUITypeInfo2@@XZ 10009ff0 f i POSKeyboard.obj
 0001:00009040       ??I?$CComPtrBase@UITypeInfo@@@ATL@@QAEPAPAUITypeInfo@@XZ 1000a040 f i POSKeyboard.obj
 0001:00009090       ??I?$CComPtrBase@UITypeLib@@@ATL@@QAEPAPAUITypeLib@@XZ 1000a090 f i POSKeyboard.obj
 0001:000090e0       ??I?$CComPtrBase@UIUnknown@@@ATL@@QAEPAPAUIUnknown@@XZ 1000a0e0 f i POSKeyboard.obj
 0001:00009130       ??I?$CComPtrBase@UIViewObjectEx@@@ATL@@QAEPAPAUIViewObjectEx@@XZ 1000a130 f i POSKeyboard.obj
 0001:00009180       ??ICComBSTR@ATL@@QAEPAPA_WXZ 1000a180 f i POSKeyboard.obj
 0001:00009195       ??_E?$CComContainedObject@VCOPOSPOSKeyboard@@@ATL@@W3AEPAXI@Z 1000a195 f i POSKeyboard.obj
 0001:0000919d       ??_E?$CComContainedObject@VCOPOSPOSKeyboard@@@ATL@@WEM@AEPAXI@Z 1000a19d f i POSKeyboard.obj
 0001:000091a5       ??_E?$CComObject@VCOPOSPOSKeyboard@@@ATL@@W3AEPAXI@Z 1000a1a5 f i POSKeyboard.obj
 0001:000091ad       ??_E?$CComObject@VCOPOSPOSKeyboard@@@ATL@@WEM@AEPAXI@Z 1000a1ad f i POSKeyboard.obj
 0001:000091c0       ??_G?$CComAggObject@VCOPOSPOSKeyboard@@@ATL@@UAEPAXI@Z 1000a1c0 f i POSKeyboard.obj
 0001:000091c0       ??_E?$CComAggObject@VCOPOSPOSKeyboard@@@ATL@@UAEPAXI@Z 1000a1c0 f i POSKeyboard.obj
 0001:00009210       ??_E?$CComContainedObject@VCOPOSPOSKeyboard@@@ATL@@UAEPAXI@Z 1000a210 f i POSKeyboard.obj
 0001:00009210       ??_G?$CComContainedObject@VCOPOSPOSKeyboard@@@ATL@@UAEPAXI@Z 1000a210 f i POSKeyboard.obj
 0001:00009260       ??_G?$CComObject@V?$CComEnum@UIEnumConnectionPoints@@$1?_GUID_b196b285_bab4_101a_b69c_00aa00341d07@@3U__s_GUID@@BPAUIConnectionPoint@@V?$_CopyInterface@UIConnectionPoint@@@ATL@@VCComSingleThreadModel@6@@ATL@@@ATL@@UAEPAXI@Z 1000a260 f i POSKeyboard.obj
 0001:00009260       ??_E?$CComObject@V?$CComEnum@UIEnumConnectionPoints@@$1?_GUID_b196b285_bab4_101a_b69c_00aa00341d07@@3U__s_GUID@@BPAUIConnectionPoint@@V?$_CopyInterface@UIConnectionPoint@@@ATL@@VCComSingleThreadModel@6@@ATL@@@ATL@@UAEPAXI@Z 1000a260 f i POSKeyboard.obj
 0001:000092a0       ??_E?$CComObject@V?$CComEnum@UIEnumConnections@@$1?_GUID_b196b287_bab4_101a_b69c_00aa00341d07@@3U__s_GUID@@BUtagCONNECTDATA@@V?$_Copy@UtagCONNECTDATA@@@ATL@@VCComSingleThreadModel@6@@ATL@@@ATL@@UAEPAXI@Z 1000a2a0 f i POSKeyboard.obj
 0001:000092a0       ??_G?$CComObject@V?$CComEnum@UIEnumConnections@@$1?_GUID_b196b287_bab4_101a_b69c_00aa00341d07@@3U__s_GUID@@BUtagCONNECTDATA@@V?$_Copy@UtagCONNECTDATA@@@ATL@@VCComSingleThreadModel@6@@ATL@@@ATL@@UAEPAXI@Z 1000a2a0 f i POSKeyboard.obj
 0001:000092e0       ??_G?$CComObject@VCOPOSPOSKeyboard@@@ATL@@UAEPAXI@Z 1000a2e0 f i POSKeyboard.obj
 0001:000092e0       ??_E?$CComObject@VCOPOSPOSKeyboard@@@ATL@@UAEPAXI@Z 1000a2e0 f i POSKeyboard.obj
 0001:00009330       ??_G?$CComObjectCached@VCComClassFactory@ATL@@@ATL@@UAEPAXI@Z 1000a330 f i POSKeyboard.obj
 0001:00009330       ??_E?$CComObjectCached@VCComClassFactory@ATL@@@ATL@@UAEPAXI@Z 1000a330 f i POSKeyboard.obj
 0001:00009370       ??_ECComClassFactory@ATL@@UAEPAXI@Z 1000a370 f i POSKeyboard.obj
 0001:00009370       ??_GCComClassFactory@ATL@@UAEPAXI@Z 1000a370 f i POSKeyboard.obj
 0001:000093b0       ??_ECComModule@ATL@@UAEPAXI@Z 1000a3b0 f i POSKeyboard.obj
 0001:000093b0       ??_GCComModule@ATL@@UAEPAXI@Z 1000a3b0 f i POSKeyboard.obj
 0001:000093f0       ??_ECRegObject@ATL@@UAEPAXI@Z 1000a3f0 f i POSKeyboard.obj
 0001:000093f0       ??_GCRegObject@ATL@@UAEPAXI@Z 1000a3f0 f i POSKeyboard.obj
 0001:00009430       ?Add@?$CSimpleArray@GV?$CSimpleArrayEqualHelper@G@ATL@@@ATL@@QAEHABG@Z 1000a430 f i POSKeyboard.obj
 0001:00009580       ?Add@?$CSimpleMap@PA_WPA_WVCExpansionVectorEqualHelper@ATL@@@ATL@@QAEHABQA_W0@Z 1000a580 f i POSKeyboard.obj
 0001:00009640       ?Add@CComDynamicUnkArray@ATL@@QAEKPAUIUnknown@@@Z 1000a640 f i POSKeyboard.obj
 0001:000097e0       ?Add@CExpansionVector@ATL@@QAEHPB_W0@Z 1000a7e0 f i POSKeyboard.obj
 0001:00009a70       ?AddChar@CParseBuffer@CRegParser@ATL@@QAEHPB_W@Z 1000aa70 f i POSKeyboard.obj
 0001:00009ab0       ?AddCommonRGSReplacements@?$CAtlModuleT@VCComModule@ATL@@@ATL@@UAEJPAUIRegistrarBase@@@Z 1000aab0 f i POSKeyboard.obj
 0001:00009b00       ?AddCreateWndData@CAtlWinModule@ATL@@QAEXPAU_AtlCreateWndData@2@PAX@Z 1000ab00 f i POSKeyboard.obj
 0001:00009b30       ?AddRef@?$CComAggObject@VCOPOSPOSKeyboard@@@ATL@@UAGKXZ 1000ab30 f i POSKeyboard.obj
 0001:00009b50       ?AddRef@?$CComContainedObject@VCOPOSPOSKeyboard@@@ATL@@UAGKXZ 1000ab50 f i POSKeyboard.obj
 0001:00009b6c       ?AddRef@?$CComContainedObject@VCOPOSPOSKeyboard@@@ATL@@WHA@AGKXZ 1000ab6c f i POSKeyboard.obj
 0001:00009b76       ?AddRef@?$CComContainedObject@VCOPOSPOSKeyboard@@@ATL@@WHE@AGKXZ 1000ab76 f i POSKeyboard.obj
 0001:00009b80       ?AddRef@?$CComContainedObject@VCOPOSPOSKeyboard@@@ATL@@WHI@AGKXZ 1000ab80 f i POSKeyboard.obj
 0001:00009b8a       ?AddRef@?$CComContainedObject@VCOPOSPOSKeyboard@@@ATL@@WHM@AGKXZ 1000ab8a f i POSKeyboard.obj
 0001:00009b94       ?AddRef@?$CComContainedObject@VCOPOSPOSKeyboard@@@ATL@@WIA@AGKXZ 1000ab94 f i POSKeyboard.obj
 0001:00009ba1       ?AddRef@?$CComContainedObject@VCOPOSPOSKeyboard@@@ATL@@WIE@AGKXZ 1000aba1 f i POSKeyboard.obj
 0001:00009bae       ?AddRef@?$CComContainedObject@VCOPOSPOSKeyboard@@@ATL@@WII@AGKXZ 1000abae f i POSKeyboard.obj
 0001:00009bbb       ?AddRef@?$CComContainedObject@VCOPOSPOSKeyboard@@@ATL@@WIM@AGKXZ 1000abbb f i POSKeyboard.obj
 0001:00009bc8       ?AddRef@?$CComContainedObject@VCOPOSPOSKeyboard@@@ATL@@WJA@AGKXZ 1000abc8 f i POSKeyboard.obj
 0001:00009bd5       ?AddRef@?$CComContainedObject@VCOPOSPOSKeyboard@@@ATL@@WJE@AGKXZ 1000abd5 f i POSKeyboard.obj
 0001:00009be2       ?AddRef@?$CComContainedObject@VCOPOSPOSKeyboard@@@ATL@@WJI@AGKXZ 1000abe2 f i POSKeyboard.obj
 0001:00009bef       ?AddRef@?$CComContainedObject@VCOPOSPOSKeyboard@@@ATL@@WJM@AGKXZ 1000abef f i POSKeyboard.obj
 0001:00009bfc       ?AddRef@?$CComContainedObject@VCOPOSPOSKeyboard@@@ATL@@WKA@AGKXZ 1000abfc f i POSKeyboard.obj
 0001:00009c09       ?AddRef@?$CComContainedObject@VCOPOSPOSKeyboard@@@ATL@@WKI@AGKXZ 1000ac09 f i POSKeyboard.obj
 0001:00009c16       ?AddRef@?$CComContainedObject@VCOPOSPOSKeyboard@@@ATL@@WLE@AGKXZ 1000ac16 f i POSKeyboard.obj
 0001:00009c30       ?AddRef@?$CComObject@V?$CComEnum@UIEnumConnectionPoints@@$1?_GUID_b196b285_bab4_101a_b69c_00aa00341d07@@3U__s_GUID@@BPAUIConnectionPoint@@V?$_CopyInterface@UIConnectionPoint@@@ATL@@VCComSingleThreadModel@6@@ATL@@@ATL@@UAGKXZ 1000ac30 f i POSKeyboard.obj
 0001:00009c50       ?AddRef@?$CComObject@V?$CComEnum@UIEnumConnections@@$1?_GUID_b196b287_bab4_101a_b69c_00aa00341d07@@3U__s_GUID@@BUtagCONNECTDATA@@V?$_Copy@UtagCONNECTDATA@@@ATL@@VCComSingleThreadModel@6@@ATL@@@ATL@@UAGKXZ 1000ac50 f i POSKeyboard.obj
 0001:00009c70       ?AddRef@?$CComObject@VCOPOSPOSKeyboard@@@ATL@@UAGKXZ 1000ac70 f i POSKeyboard.obj
 0001:00009c8c       ?AddRef@?$CComObject@VCOPOSPOSKeyboard@@@ATL@@WHA@AGKXZ 1000ac8c f i POSKeyboard.obj
 0001:00009c96       ?AddRef@?$CComObject@VCOPOSPOSKeyboard@@@ATL@@WHE@AGKXZ 1000ac96 f i POSKeyboard.obj
 0001:00009ca0       ?AddRef@?$CComObject@VCOPOSPOSKeyboard@@@ATL@@WHI@AGKXZ 1000aca0 f i POSKeyboard.obj
 0001:00009caa       ?AddRef@?$CComObject@VCOPOSPOSKeyboard@@@ATL@@WHM@AGKXZ 1000acaa f i POSKeyboard.obj
 0001:00009cb4       ?AddRef@?$CComObject@VCOPOSPOSKeyboard@@@ATL@@WIA@AGKXZ 1000acb4 f i POSKeyboard.obj
 0001:00009cc1       ?AddRef@?$CComObject@VCOPOSPOSKeyboard@@@ATL@@WIE@AGKXZ 1000acc1 f i POSKeyboard.obj
 0001:00009cce       ?AddRef@?$CComObject@VCOPOSPOSKeyboard@@@ATL@@WII@AGKXZ 1000acce f i POSKeyboard.obj
 0001:00009cdb       ?AddRef@?$CComObject@VCOPOSPOSKeyboard@@@ATL@@WIM@AGKXZ 1000acdb f i POSKeyboard.obj
 0001:00009ce8       ?AddRef@?$CComObject@VCOPOSPOSKeyboard@@@ATL@@WJA@AGKXZ 1000ace8 f i POSKeyboard.obj
 0001:00009cf5       ?AddRef@?$CComObject@VCOPOSPOSKeyboard@@@ATL@@WJE@AGKXZ 1000acf5 f i POSKeyboard.obj
 0001:00009d02       ?AddRef@?$CComObject@VCOPOSPOSKeyboard@@@ATL@@WJI@AGKXZ 1000ad02 f i POSKeyboard.obj
 0001:00009d0f       ?AddRef@?$CComObject@VCOPOSPOSKeyboard@@@ATL@@WJM@AGKXZ 1000ad0f f i POSKeyboard.obj
 0001:00009d1c       ?AddRef@?$CComObject@VCOPOSPOSKeyboard@@@ATL@@WKA@AGKXZ 1000ad1c f i POSKeyboard.obj
 0001:00009d29       ?AddRef@?$CComObject@VCOPOSPOSKeyboard@@@ATL@@WKI@AGKXZ 1000ad29 f i POSKeyboard.obj
 0001:00009d36       ?AddRef@?$CComObject@VCOPOSPOSKeyboard@@@ATL@@WLE@AGKXZ 1000ad36 f i POSKeyboard.obj
 0001:00009d50       ?AddRef@?$CComObjectCached@VCComClassFactory@ATL@@@ATL@@UAGKXZ 1000ad50 f i POSKeyboard.obj
 0001:00009da0       ?AddRef@CRegObject@ATL@@UAGKXZ 1000ada0 f i POSKeyboard.obj
 0001:00009df0       ?AddReplacement@CRegObject@ATL@@UAGJPB_W0@Z 1000adf0 f i POSKeyboard.obj
 0001:00009f00       ?AddString@CParseBuffer@CRegParser@ATL@@QAEHPB_W@Z 1000af00 f i POSKeyboard.obj
 0001:00009ff0       ?AddTermFunc@CAtlModule@ATL@@QAEJP6GXK@ZK@Z 1000aff0 f i POSKeyboard.obj
 0001:0000a040       ?AddValue@CRegParser@ATL@@IAEJAAVCRegKey@2@PB_WPA_W@Z 1000b040 f i POSKeyboard.obj
 0001:0000a7d0       ?Advise@?$CProxy_IOPOSEvents@VCOPOSPOSKeyboard@@@@UAGJPAUIUnknown@@PAK@Z 1000b7d0 f i POSKeyboard.obj
 0001:0000a820       ?Advise@?$IConnectionPointImpl@VCOPOSPOSKeyboard@@$1?DIID__IOPOSPOSKeyboardEvents@@3U_GUID@@BVCComDynamicUnkArray@ATL@@@ATL@@UAGJPAUIUnknown@@PAK@Z 1000b820 f i POSKeyboard.obj
 0001:0000a9c0       ?Advise@?$IConnectionPointImpl@VCOPOSPOSKeyboard@@$1?IID_IPropertyNotifySink@@3U_GUID@@BVCComDynamicUnkArray@ATL@@@ATL@@UAGJPAUIUnknown@@PAK@Z 1000b9c0 f i POSKeyboard.obj
 0001:0000ab60       ?Advise@?$IOleObjectImpl@VCOPOSPOSKeyboard@@@ATL@@UAGJPAUIAdviseSink@@PAK@Z 1000bb60 f i POSKeyboard.obj
 0001:0000abf0       ?Allocate@?$CAtlSafeAllocBufferManager@VCCRTAllocator@ATL@@@_ATL_SAFE_ALLOCA_IMPL@ATL@@QAEPAXK@Z 1000bbf0 f i POSKeyboard.obj
 0001:0000ac60       ?Allocate@?$CTempBuffer@E$0BAA@VCCRTAllocator@ATL@@@ATL@@QAEPAEI@Z 1000bc60 f i POSKeyboard.obj
 0001:0000aca0       ?Allocate@?$CTempBuffer@_W$0BAA@VCCRTAllocator@ATL@@@ATL@@QAEPA_WI@Z 1000bca0 f i POSKeyboard.obj
 0001:0000ace0       ?Allocate@?$CTempBuffer@_W$0EAA@VCCRTAllocator@ATL@@@ATL@@QAEPA_WI@Z 1000bce0 f i POSKeyboard.obj
 0001:0000ad20       ?AllocateBytes@?$CTempBuffer@E$0BAA@VCCRTAllocator@ATL@@@ATL@@QAEPAEI@Z 1000bd20 f i POSKeyboard.obj
 0001:0000ada0       ?AllocateBytes@?$CTempBuffer@_W$0BAA@VCCRTAllocator@ATL@@@ATL@@QAEPA_WI@Z 1000bda0 f i POSKeyboard.obj
 0001:0000ae20       ?AllocateBytes@?$CTempBuffer@_W$0EAA@VCCRTAllocator@ATL@@@ATL@@QAEPA_WI@Z 1000be20 f i POSKeyboard.obj
 0001:0000aea0       ?AllocateHeap@?$CTempBuffer@E$0BAA@VCCRTAllocator@ATL@@@ATL@@AAEXI@Z 1000bea0 f i POSKeyboard.obj
 0001:0000aef0       ?AllocateHeap@?$CTempBuffer@_W$0BAA@VCCRTAllocator@ATL@@@ATL@@AAEXI@Z 1000bef0 f i POSKeyboard.obj
 0001:0000af40       ?AllocateHeap@?$CTempBuffer@_W$0EAA@VCCRTAllocator@ATL@@@ATL@@AAEXI@Z 1000bf40 f i POSKeyboard.obj
 0001:0000af90       ?Append@CParseBuffer@CRegParser@ATL@@QAEHPB_WH@Z 1000bf90 f i POSKeyboard.obj
 0001:0000b130       ?AtlCallTermFunc@ATL@@YGXPAU_ATL_MODULE70@1@@Z 1000c130 f i POSKeyboard.obj
 0001:0000b1d0       ?AtlCoTaskMemCAlloc@ATL@@YAPAXKK@Z 1000c1d0 f i POSKeyboard.obj
 0001:0000b260       ?AtlCoTaskMemRecalloc@ATL@@YAPAXPAXKK@Z 1000c260 f i POSKeyboard.obj
 0001:0000b300       ?AtlComModuleGetClassObject@ATL@@YGJPAU_ATL_COM_MODULE70@1@ABU_GUID@@1PAPAX@Z 1000c300 f i POSKeyboard.obj
 0001:0000b590       ?AtlComModuleRegisterServer@ATL@@YGJPAU_ATL_COM_MODULE70@1@HPBU_GUID@@@Z 1000c590 f i POSKeyboard.obj
 0001:0000b720       ?AtlComModuleUnregisterServer@ATL@@YGJPAU_ATL_COM_MODULE70@1@HPBU_GUID@@@Z 1000c720 f i POSKeyboard.obj
 0001:0000b850       ?AtlComQIPtrAssign2@ATL@@YAXPAPAUIUnknown@@PAU2@ABU_GUID@@@Z 1000c850 f i POSKeyboard.obj
 0001:0000b8d0       ?AtlCreateTargetDC@ATL@@YGPAUHDC__@@PAU2@PAUtagDVTARGETDEVICE@@@Z 1000c8d0 f i POSKeyboard.obj
 0001:0000ba70       ?AtlCrtErrorCheck@ATL@@YAHH@Z 1000ca70 f i POSKeyboard.obj
 0001:0000bb40       ?AtlGetPerUserRegistration@ATL@@YGJPA_N@Z 1000cb40 f i POSKeyboard.obj
 0001:0000bb70       ?AtlHiMetricToPixel@ATL@@YGXPBUtagSIZE@@PAU2@@Z 1000cb70 f i POSKeyboard.obj
 0001:0000bd40       ?AtlHresultFromLastError@ATL@@YAJXZ 1000cd40 f i POSKeyboard.obj
 0001:0000bd80       ?AtlHresultFromWin32@ATL@@YAJK@Z 1000cd80 f i POSKeyboard.obj
 0001:0000bda0       ?AtlIPersistStreamInit_Load@ATL@@YGJPAUIStream@@PBUATL_PROPMAP_ENTRY@1@PAXPAUIUnknown@@@Z 1000cda0 f i POSKeyboard.obj
 0001:0000c200       ?AtlIPersistStreamInit_Save@ATL@@YGJPAUIStream@@HPBUATL_PROPMAP_ENTRY@1@PAXPAUIUnknown@@@Z 1000d200 f i POSKeyboard.obj
 0001:0000c5e0       ?AtlInternalOleLoadFromStream@ATL@@YAJPAUIStream@@ABU_GUID@@PAPAXTClassesAllowedInStream@1@K@Z 1000d5e0 f i POSKeyboard.obj
 0001:0000c880       ?AtlInternalQueryInterface@ATL@@YGJPAXPBU_ATL_INTMAP_ENTRY@1@ABU_GUID@@PAPAX@Z 1000d880 f i POSKeyboard.obj
 0001:0000cab0       ?AtlLoadTypeLib@ATL@@YGJPAUHINSTANCE__@@PB_WPAPA_WPAPAUITypeLib@@@Z 1000dab0 f i POSKeyboard.obj
 0001:0000cf10       ?AtlModuleAddTermFunc@ATL@@YGJPAU_ATL_MODULE70@1@P6GXK@ZK@Z 1000df10 f i POSKeyboard.obj
 0001:0000d070       ?AtlRegisterClassCategoriesHelper@ATL@@YGJABU_GUID@@PBU_ATL_CATMAP_ENTRY@1@H@Z 1000e070 f i POSKeyboard.obj
 0001:0000d750       ?AtlRegisterTypeLib@ATL@@YGJPAUHINSTANCE__@@PB_W@Z 1000e750 f i POSKeyboard.obj
 0001:0000da90       ?AtlThrowImpl@ATL@@YGXJ@Z  1000ea90 f i POSKeyboard.obj
 0001:0000db40       ?AtlUnRegisterTypeLib@ATL@@YGJPAUHINSTANCE__@@PB_W@Z 1000eb40 f i POSKeyboard.obj
 0001:0000dd50       ?AtlWinModuleAddCreateWndData@ATL@@YGXPAU_ATL_WIN_MODULE70@1@PAU_AtlCreateWndData@1@PAX@Z 1000ed50 f i POSKeyboard.obj
 0001:0000dec0       ?AtlWinModuleExtractCreateWndData@ATL@@YGPAXPAU_ATL_WIN_MODULE70@1@@Z 1000eec0 f i POSKeyboard.obj
 0001:0000e040       ?AtlWinModuleRegisterClassExW@ATL@@YGGPAU_ATL_WIN_MODULE70@1@PBUtagWNDCLASSEXW@@@Z 1000f040 f i POSKeyboard.obj
 0001:0000e110       ?AtlWinModuleRegisterWndClassInfoW@ATL@@YGGPAU_ATL_WIN_MODULE70@1@PAU_ATL_BASE_MODULE70@1@PAU_ATL_WNDCLASSINFOW@1@PAP6GJPAUHWND__@@IIJ@Z@Z 1000f110 f i POSKeyboard.obj
 0001:0000e1a0       ?Attach@?$CAutoVectorPtr@_W@ATL@@QAEXPA_W@Z 1000f1a0 f i POSKeyboard.obj
 0001:0000e200       ?Attach@CComBSTR@ATL@@QAEXPA_W@Z 1000f200 f i POSKeyboard.obj
 0001:0000e250       ?Attach@CRegKey@ATL@@QAEXPAUHKEY__@@@Z 1000f250 f i POSKeyboard.obj
 0001:0000e2c0       ?CanForceRemoveKey@CRegParser@ATL@@IAEHPB_W@Z 1000f2c0 f i POSKeyboard.obj
 0001:0000e330       ?ChToByte@CRegParser@ATL@@KAE_W@Z 1000f330 f i POSKeyboard.obj
 0001:0000e450       ?ChangeType@CComVariant@ATL@@QAEJGPBUtagVARIANT@@@Z 1000f450 f i POSKeyboard.obj
 0001:0000e4b0       ?Cleanup@CComTypeInfoHolder@ATL@@SGXK@Z 1000f4b0 f i POSKeyboard.obj
 0001:0000e580       ?Clear@CComVariant@ATL@@QAEJXZ 1000f580 f i POSKeyboard.obj
 0001:0000e5c0       ?ClearReplacements@CExpansionVector@ATL@@QAEJXZ 1000f5c0 f i POSKeyboard.obj
 0001:0000e650       ?ClearReplacements@CRegObject@ATL@@UAGJXZ 1000f650 f i POSKeyboard.obj
 0001:0000e6a0       ?Clone@?$CComEnumImpl@UIEnumConnectionPoints@@$1?_GUID_b196b285_bab4_101a_b69c_00aa00341d07@@3U__s_GUID@@BPAUIConnectionPoint@@V?$_CopyInterface@UIConnectionPoint@@@ATL@@@ATL@@UAGJPAPAUIEnumConnectionPoints@@@Z 1000f6a0 f i POSKeyboard.obj
 0001:0000e810       ?Clone@?$CComEnumImpl@UIEnumConnections@@$1?_GUID_b196b287_bab4_101a_b69c_00aa00341d07@@3U__s_GUID@@BUtagCONNECTDATA@@V?$_Copy@UtagCONNECTDATA@@@ATL@@@ATL@@UAGJPAPAUIEnumConnections@@@Z 1000f810 f i POSKeyboard.obj
 0001:0000e980       ?Close@?$IOleObjectImpl@VCOPOSPOSKeyboard@@@ATL@@UAGJK@Z 1000f980 f i POSKeyboard.obj
 0001:0000ea10       ?Close@CRegKey@ATL@@QAEJXZ 1000fa10 f i POSKeyboard.obj
 0001:0000ea80       ?ContextSensitiveHelp@?$IOleInPlaceActiveObjectImpl@VCOPOSPOSKeyboard@@@ATL@@UAGJH@Z 1000fa80 f i POSKeyboard.obj
 0001:0000eaf0       ?ContextSensitiveHelp@?$IOleInPlaceObjectWindowlessImpl@VCOPOSPOSKeyboard@@@ATL@@UAGJH@Z 1000faf0 f i POSKeyboard.obj
 0001:0000eb60       ?ControlQueryInterface@?$CComControl@VCOPOSPOSKeyboard@@V?$CWindowImpl@VCOPOSPOSKeyboard@@VCWindow@ATL@@V?$CWinTraits@$0FGAAAAAA@$0A@@3@@ATL@@@ATL@@UAEJABU_GUID@@PAPAX@Z 1000fb60 f i POSKeyboard.obj
 0001:0000ebe0       ?CreateControlWindow@?$CComControl@VCOPOSPOSKeyboard@@V?$CWindowImpl@VCOPOSPOSKeyboard@@VCWindow@ATL@@V?$CWinTraits@$0FGAAAAAA@$0A@@3@@ATL@@@ATL@@UAEPAUHWND__@@PAU3@AAUtagRECT@@@Z 1000fbe0 f i POSKeyboard.obj
 0001:0000ec60       ?CreateInstance@?$CComCreator@V?$CComAggObject@VCOPOSPOSKeyboard@@@ATL@@@ATL@@SGJPAXABU_GUID@@PAPAX@Z 1000fc60 f i POSKeyboard.obj
 0001:0000ede0       ?CreateInstance@?$CComCreator@V?$CComObject@VCOPOSPOSKeyboard@@@ATL@@@ATL@@SGJPAXABU_GUID@@PAPAX@Z 1000fde0 f i POSKeyboard.obj
 0001:0000ef70       ?CreateInstance@?$CComObject@V?$CComEnum@UIEnumConnectionPoints@@$1?_GUID_b196b285_bab4_101a_b69c_00aa00341d07@@3U__s_GUID@@BPAUIConnectionPoint@@V?$_CopyInterface@UIConnectionPoint@@@ATL@@VCComSingleThreadModel@6@@ATL@@@ATL@@SGJPAPAV12@@Z 1000ff70 f i POSKeyboard.obj
 0001:0000f0e0       ?CreateInstance@?$CComObject@V?$CComEnum@UIEnumConnections@@$1?_GUID_b196b287_bab4_101a_b69c_00aa00341d07@@3U__s_GUID@@BUtagCONNECTDATA@@V?$_Copy@UtagCONNECTDATA@@@ATL@@VCComSingleThreadModel@6@@ATL@@@ATL@@SGJPAPAV12@@Z 100100e0 f i POSKeyboard.obj
 0001:0000f250       ?CreateInstance@CComClassFactory@ATL@@UAGJPAUIUnknown@@ABU_GUID@@PAPAX@Z 10010250 f i POSKeyboard.obj
 0001:0000f340       ?DAdvise@?$IDataObjectImpl@VCOPOSPOSKeyboard@@@ATL@@UAGJPAUtagFORMATETC@@KPAUIAdviseSink@@PAK@Z 10010340 f i POSKeyboard.obj
 0001:0000f440       ?DEVMODEOLE2T_EX@@YAPAU_devicemodeW@@PAU1@@Z 10010440 f i POSKeyboard.obj
 0001:0000f450       ?DUnadvise@?$IDataObjectImpl@VCOPOSPOSKeyboard@@@ATL@@UAGJK@Z 10010450 f i POSKeyboard.obj
 0001:0000f520       ?Decrement@CComMultiThreadModel@ATL@@SGKPAJ@Z 10010520 f i POSKeyboard.obj
 0001:0000f540       ?Decrement@CComSingleThreadModel@ATL@@SGKPAJ@Z 10010540 f i POSKeyboard.obj
 0001:0000f560       ?DefWindowProcW@?$CWindowImplBaseT@VCWindow@ATL@@V?$CWinTraits@$0FGAAAAAA@$0A@@2@@ATL@@QAEJIIJ@Z 10010560 f i POSKeyboard.obj
 0001:0000f5b0       ?DefaultReflectionHandler@?$CWindowImplRoot@VCWindow@ATL@@@ATL@@SAHPAUHWND__@@IIJAAJ@Z 100105b0 f i POSKeyboard.obj
 0001:0000f7a0       ?DeleteSubKey@CRegKey@ATL@@QAEJPB_W@Z 100107a0 f i POSKeyboard.obj
 0001:0000f8b0       ?DeleteValue@CRegKey@ATL@@QAEJPB_W@Z 100108b0 f i POSKeyboard.obj
 0001:0000f920       ?Detach@?$CAutoVectorPtr@_W@ATL@@QAEPA_WXZ 10010920 f i POSKeyboard.obj
 0001:0000f950       ?Detach@?$CComPtrBase@UIPersistStream@@@ATL@@QAEPAUIPersistStream@@XZ 10010950 f i POSKeyboard.obj
 0001:0000f980       ?Detach@?$CComPtrBase@UITypeInfo@@@ATL@@QAEPAUITypeInfo@@XZ 10010980 f i POSKeyboard.obj
 0001:0000f9b0       ?Detach@?$CComPtrBase@UIUnknown@@@ATL@@QAEPAUIUnknown@@XZ 100109b0 f i POSKeyboard.obj
 0001:0000f9e0       ?Detach@CComBSTR@ATL@@QAEPA_WXZ 100109e0 f i POSKeyboard.obj
 0001:0000fa10       ?Detach@CParseBuffer@CRegParser@ATL@@QAEPA_WXZ 10010a10 f i POSKeyboard.obj
 0001:0000fa60       ?Detach@CRegKey@ATL@@QAEPAUHKEY__@@XZ 10010a60 f i POSKeyboard.obj
 0001:0000fab0       ?DoEvent@COPOSPOSKeyboard@@IAEXIIJ@Z 10010ab0 f i POSKeyboard.obj
 0001:0000fbf0       ?DoVerb@?$IOleObjectImpl@VCOPOSPOSKeyboard@@@ATL@@UAGJJPAUtagMSG@@PAUIOleClientSite@@JPAUHWND__@@PBUtagRECT@@@Z 10010bf0 f i POSKeyboard.obj
 0001:0000fe00       ?DoVerbDiscardUndo@?$IOleObjectImpl@VCOPOSPOSKeyboard@@@ATL@@QAEJPBUtagRECT@@PAUHWND__@@@Z 10010e00 f i POSKeyboard.obj
 0001:0000fe70       ?DoVerbHide@?$IOleObjectImpl@VCOPOSPOSKeyboard@@@ATL@@QAEJPBUtagRECT@@PAUHWND__@@@Z 10010e70 f i POSKeyboard.obj
 0001:0000ff20       ?DoVerbInPlaceActivate@?$IOleObjectImpl@VCOPOSPOSKeyboard@@@ATL@@QAEJPBUtagRECT@@PAUHWND__@@@Z 10010f20 f i POSKeyboard.obj
 0001:0000ffc0       ?DoVerbOpen@?$IOleObjectImpl@VCOPOSPOSKeyboard@@@ATL@@QAEJPBUtagRECT@@PAUHWND__@@@Z 10010fc0 f i POSKeyboard.obj
 0001:00010030       ?DoVerbPrimary@?$IOleObjectImpl@VCOPOSPOSKeyboard@@@ATL@@QAEJPBUtagRECT@@PAUHWND__@@@Z 10011030 f i POSKeyboard.obj
 0001:00010140       ?DoVerbProperties@CComControlBase@ATL@@QAEJPBUtagRECT@@PAUHWND__@@@Z 10011140 f i POSKeyboard.obj
 0001:00010460       ?DoVerbShow@?$IOleObjectImpl@VCOPOSPOSKeyboard@@@ATL@@QAEJPBUtagRECT@@PAUHWND__@@@Z 10011460 f i POSKeyboard.obj
 0001:000104f0       ?DoVerbUIActivate@?$IOleObjectImpl@VCOPOSPOSKeyboard@@@ATL@@QAEJPBUtagRECT@@PAUHWND__@@@Z 100114f0 f i POSKeyboard.obj
 0001:00010590       ?DoesVerbActivate@CComControlBase@ATL@@QAEHJ@Z 10011590 f i POSKeyboard.obj
 0001:00010600       ?DoesVerbUIActivate@CComControlBase@ATL@@QAEHJ@Z 10011600 f i POSKeyboard.obj
 0001:00010680       ?Draw@?$IViewObjectExImpl@VCOPOSPOSKeyboard@@@ATL@@UAGJKJPAXPAUtagDVTARGETDEVICE@@PAUHDC__@@2PBU_RECTL@@3P6GHK@ZK@Z 10011680 f i POSKeyboard.obj
 0001:00010720       ?Empty@CComBSTR@ATL@@QAEXXZ 10011720 f i POSKeyboard.obj
 0001:00010760       ?EnableModeless@?$IOleInPlaceActiveObjectImpl@VCOPOSPOSKeyboard@@@ATL@@UAGJH@Z 10011760 f i POSKeyboard.obj
 0001:000107c0       ?EndOfVar@CRegParser@ATL@@IAEHXZ 100117c0 f i POSKeyboard.obj
 0001:00010830       ?EnsureTI@CComTypeInfoHolder@ATL@@QAEJK@Z 10011830 f i POSKeyboard.obj
 0001:00010890       ?EnumAdvise@?$IOleObjectImpl@VCOPOSPOSKeyboard@@@ATL@@UAGJPAPAUIEnumSTATDATA@@@Z 10011890 f i POSKeyboard.obj
 0001:000109a0       ?EnumConnectionPoints@?$IConnectionPointContainerImpl@VCOPOSPOSKeyboard@@@ATL@@UAGJPAPAUIEnumConnectionPoints@@@Z 100119a0 f i POSKeyboard.obj
 0001:00010dd0       ?EnumConnections@?$IConnectionPointImpl@VCOPOSPOSKeyboard@@$1?DIID__IOPOSPOSKeyboardEvents@@3U_GUID@@BVCComDynamicUnkArray@ATL@@@ATL@@UAGJPAPAUIEnumConnections@@@Z 10011dd0 f i POSKeyboard.obj
 0001:00011020       ?EnumConnections@?$IConnectionPointImpl@VCOPOSPOSKeyboard@@$1?IID_IPropertyNotifySink@@3U_GUID@@BVCComDynamicUnkArray@ATL@@@ATL@@UAGJPAPAUIEnumConnections@@@Z 10012020 f i POSKeyboard.obj
 0001:00011270       ?EnumDAdvise@?$IDataObjectImpl@VCOPOSPOSKeyboard@@@ATL@@UAGJPAPAUIEnumSTATDATA@@@Z 10012270 f i POSKeyboard.obj
 0001:00011370       ?EnumFormatEtc@?$IDataObjectImpl@VCOPOSPOSKeyboard@@@ATL@@UAGJKPAPAUIEnumFORMATETC@@@Z 10012370 f i POSKeyboard.obj
 0001:000113e0       ?EnumVerbs@?$IOleObjectImpl@VCOPOSPOSKeyboard@@@ATL@@UAGJPAPAUIEnumOLEVERB@@@Z 100123e0 f i POSKeyboard.obj
 0001:00011490       ?EscapeSingleQuote@CAtlModule@ATL@@SAXPA_WIPB_W@Z 10012490 f i POSKeyboard.obj
 0001:00011540       ?ExtractCreateWndData@CAtlWinModule@ATL@@QAEPAXXZ 10012540 f i POSKeyboard.obj
 0001:00011570       ?FAccessAllowed@?$IObjectSafetyImpl@VCOPOSPOSKeyboard@@$02@ATL@@MAEHXZ 10012570 f i POSKeyboard.obj
 0001:00011590       ?FinalConstruct@?$CComAggObject@VCOPOSPOSKeyboard@@@ATL@@QAEJXZ 10012590 f i POSKeyboard.obj
 0001:000115d0       ?FinalConstruct@CComObjectRootBase@ATL@@QAEJXZ 100125d0 f i POSKeyboard.obj
 0001:000115f0       ?FinalConstruct@CRegObject@ATL@@QAEJXZ 100125f0 f i POSKeyboard.obj
 0001:00011620       ?FinalRelease@?$CComAggObject@VCOPOSPOSKeyboard@@@ATL@@QAEXXZ 10012620 f i POSKeyboard.obj
 0001:00011660       ?FinalRelease@CComObjectRootBase@ATL@@QAEXXZ 10012660 f i POSKeyboard.obj
 0001:00011680       ?FindConnectionPoint@?$IConnectionPointContainerImpl@VCOPOSPOSKeyboard@@@ATL@@UAGJABU_GUID@@PAPAUIConnectionPoint@@@Z 10012680 f i POSKeyboard.obj
 0001:000117d0       ?FindKey@?$CSimpleMap@PA_WPA_WVCExpansionVectorEqualHelper@ATL@@@ATL@@QBEHABQA_W@Z 100127d0 f i POSKeyboard.obj
 0001:00011840       ?FireTheEvent@?$CProxy_IOPOSEvents@VCOPOSPOSKeyboard@@@@IAEXPAUIUnknown@@PAVOposVariant@@IAAJPB_WJ@Z 10012840 f i POSKeyboard.obj
 0001:000119b0       ?FireViewChange@CComControlBase@ATL@@QAEJXZ 100129b0 f i POSKeyboard.obj
 0001:00011a70       ?Fire_DataEvent@?$CProxy_IOPOSEvents@VCOPOSPOSKeyboard@@@@QAEXJ@Z 10012a70 f i POSKeyboard.obj
 0001:00011bd0       ?Fire_DirectIOEvent@?$CProxy_IOPOSEvents@VCOPOSPOSKeyboard@@@@QAEXJPAJPAPA_W@Z 10012bd0 f i POSKeyboard.obj
 0001:00011da0       ?Fire_ErrorEvent@?$CProxy_IOPOSEvents@VCOPOSPOSKeyboard@@@@QAEXJJJPAJ@Z 10012da0 f i POSKeyboard.obj
 0001:00011f90       ?Fire_StatusUpdateEvent@?$CProxy_IOPOSEvents@VCOPOSPOSKeyboard@@@@QAEXJ@Z 10012f90 f i POSKeyboard.obj
 0001:000120f0       ?FormatWindowClassName@AtlModuleRegisterWndClassInfoParamW@ATL@@SAXPA_WKPAX@Z 100130f0 f i POSKeyboard.obj
 0001:00012120       ?Free@?$CAutoVectorPtr@_W@ATL@@QAEXXZ 10013120 f i POSKeyboard.obj
 0001:00012170       ?FreeHeap@?$CTempBuffer@E$0BAA@VCCRTAllocator@ATL@@@ATL@@AAEXXZ 10013170 f i POSKeyboard.obj
 0001:000121a0       ?FreeHeap@?$CTempBuffer@_W$0BAA@VCCRTAllocator@ATL@@@ATL@@AAEXXZ 100131a0 f i POSKeyboard.obj
 0001:000121d0       ?FreeHeap@?$CTempBuffer@_W$0EAA@VCCRTAllocator@ATL@@@ATL@@AAEXXZ 100131d0 f i POSKeyboard.obj
 0001:00012200       ?Freeze@?$IViewObjectExImpl@VCOPOSPOSKeyboard@@@ATL@@UAGJKJPAXPAK@Z 10013200 f i POSKeyboard.obj
 0001:00012270       ?GenerateError@CRegParser@ATL@@IAEJI@Z 10013270 f i POSKeyboard.obj
 0001:00012290       ?GetAdvise@?$IViewObjectExImpl@VCOPOSPOSKeyboard@@@ATL@@UAGJPAK0PAPAUIAdviseSink@@@Z 10013290 f i POSKeyboard.obj
 0001:00012390       ?GetAmbientLocaleID@CComControlBase@ATL@@QAEJAAK@Z 10013390 f i POSKeyboard.obj
 0001:00012470       ?GetAmbientProperty@CComControlBase@ATL@@QAEJJAAUtagVARIANT@@@Z 10013470 f i POSKeyboard.obj
 0001:000124c0       ?GetAmbientUserMode@CComControlBase@ATL@@QAEJAAH@Z 100134c0 f i POSKeyboard.obj
 0001:000125c0       ?GetAppId@?$CAtlModuleT@VCComModule@ATL@@@ATL@@SAPB_WXZ 100135c0 f i POSKeyboard.obj
 0001:000125d0       ?GetAt@CComDynamicUnkArray@ATL@@QAEPAUIUnknown@@H@Z 100135d0 f i POSKeyboard.obj
 0001:00012650       ?GetCanonicalFormatEtc@?$IDataObjectImpl@VCOPOSPOSKeyboard@@@ATL@@UAGJPAUtagFORMATETC@@0@Z 10013650 f i POSKeyboard.obj
 0001:000126c0       ?GetClassID@?$IPersistStorageImpl@VCOPOSPOSKeyboard@@@ATL@@UAGJPAU_GUID@@@Z 100136c0 f i POSKeyboard.obj
 0001:00012740       ?GetClassID@?$IPersistStreamInitImpl@VCOPOSPOSKeyboard@@@ATL@@UAGJPAU_GUID@@@Z 10013740 f i POSKeyboard.obj
 0001:000127c0       ?GetClassInfoExW@AtlModuleRegisterWndClassInfoParamW@ATL@@SAHPAUHINSTANCE__@@PB_WPAUtagWNDCLASSEXW@@@Z 100137c0 f i POSKeyboard.obj
 0001:000127f0       ?GetClassInfoW@?$IProvideClassInfo2Impl@$1?CLSID_OPOSPOSKeyboard@@3U_GUID@@B$1?DIID__IOPOSPOSKeyboardEvents@@3U2@B$1?LIBID_OposPOSKeyboard_CCO@@3U2@B$00$0A@VCComTypeInfoHolder@ATL@@@ATL@@UAGJPAPAUITypeInfo@@@Z 100137f0 f i POSKeyboard.obj
 0001:00012810       ?GetClassObject@CComModule@ATL@@QAEJABU_GUID@@0PAPAX@Z 10013810 f i POSKeyboard.obj
 0001:00012a10       ?GetClientSite@?$IOleObjectImpl@VCOPOSPOSKeyboard@@@ATL@@UAGJPAPAUIOleClientSite@@@Z 10013a10 f i POSKeyboard.obj
 0001:00012aa0       ?GetClipboardData@?$IOleObjectImpl@VCOPOSPOSKeyboard@@@ATL@@UAGJKPAPAUIDataObject@@@Z 10013aa0 f i POSKeyboard.obj
 0001:00012b10       ?GetCodeAddress@CDynamicStdCallThunk2@ATL@@QAEPAXXZ 10013b10 f i POSKeyboard.obj
 0001:00012b40       ?GetColorSet@?$IViewObjectExImpl@VCOPOSPOSKeyboard@@@ATL@@UAGJKJPAXPAUtagDVTARGETDEVICE@@PAUHDC__@@PAPAUtagLOGPALETTE@@@Z 10013b40 f i POSKeyboard.obj
 0001:00012bb0       ?GetConnMap@COPOSPOSKeyboard@@SAPBU_ATL_CONNMAP_ENTRY@ATL@@PAH@Z 10013bb0 f i POSKeyboard.obj
 0001:00012cf0       ?GetConnectionInterface@?$IConnectionPointImpl@VCOPOSPOSKeyboard@@$1?DIID__IOPOSPOSKeyboardEvents@@3U_GUID@@BVCComDynamicUnkArray@ATL@@@ATL@@UAGJPAU_GUID@@@Z 10013cf0 f i POSKeyboard.obj
 0001:00012d30       ?GetConnectionInterface@?$IConnectionPointImpl@VCOPOSPOSKeyboard@@$1?IID_IPropertyNotifySink@@3U_GUID@@BVCComDynamicUnkArray@ATL@@@ATL@@UAGJPAU_GUID@@@Z 10013d30 f i POSKeyboard.obj
 0001:00012d70       ?GetConnectionPointContainer@?$IConnectionPointImpl@VCOPOSPOSKeyboard@@$1?DIID__IOPOSPOSKeyboardEvents@@3U_GUID@@BVCComDynamicUnkArray@ATL@@@ATL@@UAGJPAPAUIConnectionPointContainer@@@Z 10013d70 f i POSKeyboard.obj
 0001:00012de0       ?GetConnectionPointContainer@?$IConnectionPointImpl@VCOPOSPOSKeyboard@@$1?IID_IPropertyNotifySink@@3U_GUID@@BVCComDynamicUnkArray@ATL@@@ATL@@UAGJPAPAUIConnectionPointContainer@@@Z 10013de0 f i POSKeyboard.obj
 0001:00012e50       ?GetContentExtent@?$IQuickActivateImpl@VCOPOSPOSKeyboard@@@ATL@@UAGJPAUtagSIZE@@@Z 10013e50 f i POSKeyboard.obj
 0001:00012ee0       ?GetControlInfo@?$IOleControlImpl@VCOPOSPOSKeyboard@@@ATL@@UAGJPAUtagCONTROLINFO@@@Z 10013ee0 f i POSKeyboard.obj
 0001:00012f50       ?GetCookie@CComDynamicUnkArray@ATL@@QAGKPAPAUIUnknown@@@Z 10013f50 f i POSKeyboard.obj
 0001:00013010       ?GetData@?$IDataObjectImpl@VCOPOSPOSKeyboard@@@ATL@@UAGJPAUtagFORMATETC@@PAUtagSTGMEDIUM@@@Z 10014010 f i POSKeyboard.obj
 0001:000130a0       ?GetData@CAtlSafeAllocBufferNode@?$CAtlSafeAllocBufferManager@VCCRTAllocator@ATL@@@_ATL_SAFE_ALLOCA_IMPL@ATL@@QAEPAXXZ 100140a0 f i POSKeyboard.obj
 0001:000130c0       ?GetDataHere@?$IDataObjectImpl@VCOPOSPOSKeyboard@@@ATL@@UAGJPAUtagFORMATETC@@PAUtagSTGMEDIUM@@@Z 100140c0 f i POSKeyboard.obj
 0001:00013130       ?GetDropTarget@?$IOleInPlaceObjectWindowlessImpl@VCOPOSPOSKeyboard@@@ATL@@UAGJPAPAUIDropTarget@@@Z 10014130 f i POSKeyboard.obj
 0001:000131a0       ?GetExtent@?$IOleObjectImpl@VCOPOSPOSKeyboard@@@ATL@@UAGJKPAUtagSIZE@@@Z 100141a0 f i POSKeyboard.obj
 0001:00013240       ?GetExtent@?$IViewObjectExImpl@VCOPOSPOSKeyboard@@@ATL@@UAGJKJPAUtagDVTARGETDEVICE@@PAUtagSIZE@@@Z 10014240 f i POSKeyboard.obj
 0001:00013310       ?GetGITPtr@CAtlModule@ATL@@UAEJPAPAUIGlobalInterfaceTable@@@Z 10014310 f i POSKeyboard.obj
 0001:00013410       ?GetGUID@?$IProvideClassInfo2Impl@$1?CLSID_OPOSPOSKeyboard@@3U_GUID@@B$1?DIID__IOPOSPOSKeyboardEvents@@3U2@B$1?LIBID_OposPOSKeyboard_CCO@@3U2@B$00$0A@VCComTypeInfoHolder@ATL@@@ATL@@UAGJKPAU_GUID@@@Z 10014410 f i POSKeyboard.obj
 0001:00013490       ?GetIDsOfNames@?$IDispatchImpl@UIOPOSPOSKeyboard@@$1?IID_IOPOSPOSKeyboard@@3U_GUID@@B$1?LIBID_OposPOSKeyboard_CCO@@3U3@B$00$0A@VCComTypeInfoHolder@ATL@@@ATL@@UAGJABU_GUID@@PAPA_WIKPAJ@Z 10014490 f i POSKeyboard.obj
 0001:000134c0       ?GetIDsOfNames@CComTypeInfoHolder@ATL@@QAEJABU_GUID@@PAPA_WIKPAJ@Z 100144c0 f i POSKeyboard.obj
 0001:00013670       ?GetInterfaceSafetyOptions@?$IObjectSafetyImpl@VCOPOSPOSKeyboard@@$02@ATL@@UAGJABU_GUID@@PAK1@Z 10014670 f i POSKeyboard.obj
 0001:000137e0       ?GetKeyAt@?$CSimpleMap@PA_WPA_WVCExpansionVectorEqualHelper@ATL@@@ATL@@QBEAAPA_WH@Z 100147e0 f i POSKeyboard.obj
 0001:00013860       ?GetLockCount@CAtlModule@ATL@@UAEJXZ 10014860 f i POSKeyboard.obj
 0001:00013880       ?GetMiscStatus@?$IOleObjectImpl@VCOPOSPOSKeyboard@@@ATL@@UAGJKPAK@Z 10014880 f i POSKeyboard.obj
 0001:000138f0       ?GetMoniker@?$IOleObjectImpl@VCOPOSPOSKeyboard@@@ATL@@UAGJKKPAPAUIMoniker@@@Z 100148f0 f i POSKeyboard.obj
 0001:00013960       ?GetNaturalExtent@?$IViewObjectExImpl@VCOPOSPOSKeyboard@@@ATL@@UAGJKJPAUtagDVTARGETDEVICE@@PAUHDC__@@PAUtagExtentInfo@@PAUtagSIZE@@@Z 10014960 f i POSKeyboard.obj
 0001:00013a80       ?GetObjectCLSID@?$CComCoClass@VCOPOSPOSKeyboard@@$1?CLSID_OPOSPOSKeyboard@@3U_GUID@@B@ATL@@SGABU_GUID@@XZ 10014a80 f i POSKeyboard.obj
 0001:00013a90       ?GetPages@?$ISpecifyPropertyPagesImpl@VCOPOSPOSKeyboard@@@ATL@@UAGJPAUtagCAUUID@@@Z 10014a90 f i POSKeyboard.obj
 0001:00013b00       ?GetPagesHelper@?$ISpecifyPropertyPagesImpl@VCOPOSPOSKeyboard@@@ATL@@IAEJPAUtagCAUUID@@PBUATL_PROPMAP_ENTRY@2@@Z 10014b00 f i POSKeyboard.obj
 0001:00013d00       ?GetProperty@?$CComPtr@UIDispatch@@@ATL@@QAEJJPAUtagVARIANT@@@Z 10014d00 f i POSKeyboard.obj
 0001:00013d40       ?GetProperty@?$CComPtr@UIDispatch@@@ATL@@SAJPAUIDispatch@@JPAUtagVARIANT@@@Z 10014d40 f i POSKeyboard.obj
 0001:00013ea0       ?GetPropertyMap@COPOSPOSKeyboard@@SAPBUATL_PROPMAP_ENTRY@ATL@@XZ 10014ea0 f i POSKeyboard.obj
 0001:00013eb0       ?GetRect@?$IViewObjectExImpl@VCOPOSPOSKeyboard@@@ATL@@UAGJKPAU_RECTL@@@Z 10014eb0 f i POSKeyboard.obj
 0001:00013f20       ?GetSize@?$CSimpleMap@PA_WPA_WVCExpansionVectorEqualHelper@ATL@@@ATL@@QBEHXZ 10014f20 f i POSKeyboard.obj
 0001:00013f40       ?GetSize@CComDynamicUnkArray@ATL@@QBEHXZ 10014f40 f i POSKeyboard.obj
 0001:00013f60       ?GetSizeMax@?$IPersistStreamInitImpl@VCOPOSPOSKeyboard@@@ATL@@UAGJPAT_ULARGE_INTEGER@@@Z 10014f60 f i POSKeyboard.obj
 0001:000144d0       ?GetSizeMax@CComVariant@ATL@@QBEJPAT_ULARGE_INTEGER@@@Z 100154d0 f i POSKeyboard.obj
 0001:00014830       ?GetStreamSize@CComBSTR@ATL@@SAKPA_W@Z 10015830 f i POSKeyboard.obj
 0001:00014880       ?GetTI@CComTypeInfoHolder@ATL@@QAEJK@Z 10015880 f i POSKeyboard.obj
 0001:00015090       ?GetTI@CComTypeInfoHolder@ATL@@QAEJKPAPAUITypeInfo@@@Z 10016090 f i POSKeyboard.obj
 0001:00015150       ?GetTypeInfo@?$IDispatchImpl@UIOPOSPOSKeyboard@@$1?IID_IOPOSPOSKeyboard@@3U_GUID@@B$1?LIBID_OposPOSKeyboard_CCO@@3U3@B$00$0A@VCComTypeInfoHolder@ATL@@@ATL@@UAGJIKPAPAUITypeInfo@@@Z 10016150 f i POSKeyboard.obj
 0001:00015180       ?GetTypeInfo@CComTypeInfoHolder@ATL@@QAEJIKPAPAUITypeInfo@@@Z 10016180 f i POSKeyboard.obj
 0001:000151c0       ?GetTypeInfoCount@?$IDispatchImpl@UIOPOSPOSKeyboard@@$1?IID_IOPOSPOSKeyboard@@3U_GUID@@B$1?LIBID_OposPOSKeyboard_CCO@@3U3@B$00$0A@VCComTypeInfoHolder@ATL@@@ATL@@UAGJPAI@Z 100161c0 f i POSKeyboard.obj
 0001:000151e0       ?GetUnknown@CComDynamicUnkArray@ATL@@QAGPAUIUnknown@@K@Z 100161e0 f i POSKeyboard.obj
 0001:00015250       ?GetUnknown@COPOSPOSKeyboard@@QAEPAUIUnknown@@XZ 10016250 f i POSKeyboard.obj
 0001:00015280       ?GetUserClassID@?$IOleObjectImpl@VCOPOSPOSKeyboard@@@ATL@@UAGJPAU_GUID@@@Z 10016280 f i POSKeyboard.obj
 0001:00015330       ?GetUserType@?$IOleObjectImpl@VCOPOSPOSKeyboard@@@ATL@@UAGJKPAPA_W@Z 10016330 f i POSKeyboard.obj
 0001:000153a0       ?GetValueAt@?$CSimpleMap@PA_WPA_WVCExpansionVectorEqualHelper@ATL@@@ATL@@QBEAAPA_WH@Z 100163a0 f i POSKeyboard.obj
 0001:00015420       ?GetViewStatus@?$IViewObjectExImpl@VCOPOSPOSKeyboard@@@ATL@@UAGJPAK@Z 10016420 f i POSKeyboard.obj
 0001:000154e0       ?GetWNDPROC@CWndProcThunk@ATL@@QAEP6GJPAUHWND__@@IIJ@ZXZ 100164e0 f i POSKeyboard.obj
 0001:00015510       ?GetWindow@?$IOleInPlaceActiveObjectImpl@VCOPOSPOSKeyboard@@@ATL@@UAGJPAPAUHWND__@@@Z 10016510 f i POSKeyboard.obj
 0001:000155e0       ?GetWindow@?$IOleInPlaceObjectWindowlessImpl@VCOPOSPOSKeyboard@@@ATL@@UAGJPAPAUHWND__@@@Z 100165e0 f i POSKeyboard.obj
 0001:000156b0       ?GetWindowLongPtrW@@YAJPAUHWND__@@H@Z 100166b0 f i POSKeyboard.obj
 0001:000156e0       ?GetWindowProc@?$CWindowImplBaseT@VCWindow@ATL@@V?$CWinTraits@$0FGAAAAAA@$0A@@2@@ATL@@UAEP6GJPAUHWND__@@IIJ@ZXZ 100166e0 f i POSKeyboard.obj
 0001:00015700       ?GetWndCaption@?$CWindowImpl@VCOPOSPOSKeyboard@@VCWindow@ATL@@V?$CWinTraits@$0FGAAAAAA@$0A@@3@@ATL@@SAPB_WXZ 10016700 f i POSKeyboard.obj
 0001:00015710       ?GetWndClassInfo@?$CWindowImpl@VCOPOSPOSKeyboard@@VCWindow@ATL@@V?$CWinTraits@$0FGAAAAAA@$0A@@3@@ATL@@SAAAU_ATL_WNDCLASSINFOW@2@XZ 10016710 f i POSKeyboard.obj
 0001:00015720       ?GetWndClassName@CWindow@ATL@@SAPB_WXZ 10016720 f i POSKeyboard.obj
 0001:00015730       ?GetWndExStyle@?$CWinTraits@$0FGAAAAAA@$0A@@ATL@@SAKK@Z 10016730 f i POSKeyboard.obj
 0001:00015760       ?GetWndExStyle@?$CWindowImplBaseT@VCWindow@ATL@@V?$CWinTraits@$0FGAAAAAA@$0A@@2@@ATL@@SAKK@Z 10016760 f i POSKeyboard.obj
 0001:00015780       ?GetWndStyle@?$CWinTraits@$0FGAAAAAA@$0A@@ATL@@SAKK@Z 10016780 f i POSKeyboard.obj
 0001:000157b0       ?GetWndStyle@?$CWindowImplBaseT@VCWindow@ATL@@V?$CWinTraits@$0FGAAAAAA@$0A@@2@@ATL@@SAKK@Z 100167b0 f i POSKeyboard.obj
 0001:000157d0       ?GetZoomInfo@CComControlBase@ATL@@QAEXAAUATL_DRAWINFO@@@Z 100167d0 f i POSKeyboard.obj
 0001:00015940       ?HKeyFromString@CRegParser@ATL@@KAPAUHKEY__@@PA_W@Z 10016940 f i POSKeyboard.obj
 0001:000159b0       ?HandsOffStorage@?$IPersistStorageImpl@VCOPOSPOSKeyboard@@@ATL@@UAGJXZ 100169b0 f i POSKeyboard.obj
 0001:00015a10       ?HasSubKeys@CRegParser@ATL@@IAEHPAUHKEY__@@@Z 10016a10 f i POSKeyboard.obj
 0001:00015b20       ?IDataObject_GetData@CComControlBase@ATL@@QAEJPAUtagFORMATETC@@PAUtagSTGMEDIUM@@@Z 10016b20 f i POSKeyboard.obj
 0001:00015f40       ?IOleInPlaceObject_InPlaceDeactivate@CComControlBase@ATL@@QAEJXZ 10016f40 f i POSKeyboard.obj
 0001:00016140       ?IOleInPlaceObject_SetObjectRects@CComControlBase@ATL@@QAEJPBUtagRECT@@0@Z 10017140 f i POSKeyboard.obj
 0001:00016300       ?IOleInPlaceObject_UIDeactivate@CComControlBase@ATL@@QAEJXZ 10017300 f i POSKeyboard.obj
 0001:00016570       ?IOleObject_Advise@CComControlBase@ATL@@QAEJPAUIAdviseSink@@PAK@Z 10017570 f i POSKeyboard.obj
 0001:00016620       ?IOleObject_Close@CComControlBase@ATL@@QAEJK@Z 10017620 f i POSKeyboard.obj
 0001:000168d0       ?IOleObject_GetClientSite@CComControlBase@ATL@@QAEJPAPAUIOleClientSite@@@Z 100178d0 f i POSKeyboard.obj
 0001:00016970       ?IOleObject_SetClientSite@CComControlBase@ATL@@QAEJPAUIOleClientSite@@@Z 10017970 f i POSKeyboard.obj
 0001:00016a40       ?IOleObject_SetExtent@CComControlBase@ATL@@QAEJKPAUtagSIZE@@@Z 10017a40 f i POSKeyboard.obj
 0001:00016b80       ?IPSI_GetIPersistStreamInit@?$IPersistStorageImpl@VCOPOSPOSKeyboard@@@ATL@@AAEPAUIPersistStreamInit@@XZ 10017b80 f i POSKeyboard.obj
 0001:00016c50       ?IPersistStreamInit_Load@?$IPersistStreamInitImpl@VCOPOSPOSKeyboard@@@ATL@@QAEJPAUIStream@@PBUATL_PROPMAP_ENTRY@2@@Z 10017c50 f i POSKeyboard.obj
 0001:00016cd0       ?IPersistStreamInit_Save@?$IPersistStreamInitImpl@VCOPOSPOSKeyboard@@@ATL@@QAEJPAUIStream@@HPBUATL_PROPMAP_ENTRY@2@@Z 10017cd0 f i POSKeyboard.obj
 0001:00016d60       ?IQuickActivate_QuickActivate@CComControlBase@ATL@@QAEJPAUtagQACONTAINER@@PAUtagQACONTROL@@@Z 10017d60 f i POSKeyboard.obj
 0001:000173b0       ?IViewObject_Draw@CComControlBase@ATL@@QAEJKJPAXPAUtagDVTARGETDEVICE@@PAUHDC__@@2PBU_RECTL@@3@Z 100183b0 f i POSKeyboard.obj
 0001:00017650       ?InPlaceActivate@CComControlBase@ATL@@QAEJJPBUtagRECT@@@Z 10018650 f i POSKeyboard.obj
 0001:00017fe0       ?InPlaceDeactivate@?$IOleInPlaceObjectWindowlessImpl@VCOPOSPOSKeyboard@@@ATL@@UAGJXZ 10018fe0 f i POSKeyboard.obj
 0001:00018060       ?Increment@CComMultiThreadModel@ATL@@SGKPAJ@Z 10019060 f i POSKeyboard.obj
 0001:00018080       ?Increment@CComSingleThreadModel@ATL@@SGKPAJ@Z 10019080 f i POSKeyboard.obj
 0001:000180a0       ?Init@?$CComEnumImpl@UIEnumConnectionPoints@@$1?_GUID_b196b285_bab4_101a_b69c_00aa00341d07@@3U__s_GUID@@BPAUIConnectionPoint@@V?$_CopyInterface@UIConnectionPoint@@@ATL@@@ATL@@QAEJPAPAUIConnectionPoint@@0PAUIUnknown@@W4CComEnumFlags@2@@Z 100190a0 f i POSKeyboard.obj
 0001:00018280       ?Init@?$CComEnumImpl@UIEnumConnections@@$1?_GUID_b196b287_bab4_101a_b69c_00aa00341d07@@3U__s_GUID@@BUtagCONNECTDATA@@V?$_Copy@UtagCONNECTDATA@@@ATL@@@ATL@@QAEJPAUtagCONNECTDATA@@0PAUIUnknown@@W4CComEnumFlags@2@@Z 10019280 f i POSKeyboard.obj
 0001:00018460       ?Init@CComFakeCriticalSection@ATL@@QAEJXZ 10019460 f i POSKeyboard.obj
 0001:00018480       ?Init@CComModule@ATL@@QAEJPAU_ATL_OBJMAP_ENTRY30@2@PAUHINSTANCE__@@PBU_GUID@@@Z 10019480 f i POSKeyboard.obj
 0001:00018570       ?Init@CComSafeDeleteCriticalSection@ATL@@QAEJXZ 10019570 f i POSKeyboard.obj
 0001:000185f0       ?Init@CDynamicStdCallThunk2@ATL@@QAEHKPAX@Z 100195f0 f i POSKeyboard.obj
 0001:00018650       ?Init@CWndProcThunk@ATL@@QAEHP6GJPAUHWND__@@IIJ@ZPAX@Z 10019650 f i POSKeyboard.obj
 0001:00018690       ?InitFromData@?$IOleObjectImpl@VCOPOSPOSKeyboard@@@ATL@@UAGJPAUIDataObject@@HK@Z 10019690 f i POSKeyboard.obj
 0001:00018700       ?InitLibId@?$CAtlModuleT@VCComModule@ATL@@@ATL@@SAXXZ 10019700 f i POSKeyboard.obj
 0001:00018710       ?InitNew@?$IPersistStorageImpl@VCOPOSPOSKeyboard@@@ATL@@UAGJPAUIStorage@@@Z 10019710 f i POSKeyboard.obj
 0001:00018800       ?InitNew@?$IPersistStreamInitImpl@VCOPOSPOSKeyboard@@@ATL@@UAGJXZ 10019800 f i POSKeyboard.obj
 0001:00018890       ?InlineIsEqualUnknown@ATL@@YGHABU_GUID@@@Z 10019890 f i POSKeyboard.obj
 0001:00018900       ?InternalAddRef@?$CComObjectRootEx@VCComMultiThreadModel@ATL@@@ATL@@QAEKXZ 10019900 f i POSKeyboard.obj
 0001:00018960       ?InternalAddRef@?$CComObjectRootEx@VCComSingleThreadModel@ATL@@@ATL@@QAEKXZ 10019960 f i POSKeyboard.obj
 0001:000189c0       ?InternalFinalConstructAddRef@CComObjectRootBase@ATL@@QAEXXZ 100199c0 f i POSKeyboard.obj
 0001:000189e0       ?InternalFinalConstructAddRef@COPOSPOSKeyboard@@QAEXXZ 100199e0 f i POSKeyboard.obj
 0001:00018a10       ?InternalFinalConstructRelease@CComObjectRootBase@ATL@@QAEXXZ 10019a10 f i POSKeyboard.obj
 0001:00018a60       ?InternalFinalConstructRelease@COPOSPOSKeyboard@@QAEXXZ 10019a60 f i POSKeyboard.obj
 0001:00018a90       ?InternalGetSite@CComControlBase@ATL@@QAEJABU_GUID@@PAPAX@Z 10019a90 f i POSKeyboard.obj
 0001:00018b50       ?InternalQueryInterface@CComObjectRootBase@ATL@@SGJPAXPBU_ATL_INTMAP_ENTRY@2@ABU_GUID@@PAPAX@Z 10019b50 f i POSKeyboard.obj
 0001:00018c10       ?InternalRelease@?$CComObjectRootEx@VCComMultiThreadModel@ATL@@@ATL@@QAEKXZ 10019c10 f i POSKeyboard.obj
 0001:00018c80       ?InternalRelease@?$CComObjectRootEx@VCComSingleThreadModel@ATL@@@ATL@@QAEKXZ 10019c80 f i POSKeyboard.obj
 0001:00018cf0       ?InternalSetAtIndex@?$CSimpleArray@GV?$CSimpleArrayEqualHelper@G@ATL@@@ATL@@QAEXHABG@Z 10019cf0 f i POSKeyboard.obj
 0001:00018d60       ?InternalSetAtIndex@?$CSimpleMap@PA_WPA_WVCExpansionVectorEqualHelper@ATL@@@ATL@@QAEXHABQA_W0@Z 10019d60 f i POSKeyboard.obj
 0001:00018e00       ?Invoke@?$IDispatchImpl@UIOPOSPOSKeyboard@@$1?IID_IOPOSPOSKeyboard@@3U_GUID@@B$1?LIBID_OposPOSKeyboard_CCO@@3U3@B$00$0A@VCComTypeInfoHolder@ATL@@@ATL@@UAGJJABU_GUID@@KGPAUtagDISPPARAMS@@PAUtagVARIANT@@PAUtagEXCEPINFO@@PAI@Z 10019e00 f i POSKeyboard.obj
 0001:00018e40       ?Invoke@CComTypeInfoHolder@ATL@@QAEJPAUIDispatch@@JABU_GUID@@KGPAUtagDISPPARAMS@@PAUtagVARIANT@@PAUtagEXCEPINFO@@PAI@Z 10019e40 f i POSKeyboard.obj
 0001:00018ed0       ?IsDirty@?$IPersistStorageImpl@VCOPOSPOSKeyboard@@@ATL@@UAGJXZ 10019ed0 f i POSKeyboard.obj
 0001:00018fc0       ?IsDirty@?$IPersistStreamInitImpl@VCOPOSPOSKeyboard@@@ATL@@UAGJXZ 10019fc0 f i POSKeyboard.obj
 0001:00019060       ?IsEqualKey@CExpansionVectorEqualHelper@ATL@@SA_NQA_W0@Z 1001a060 f i POSKeyboard.obj
 0001:00019090       ?IsEqualObject@?$CComPtrBase@UIOleClientSite@@@ATL@@QAE_NPAUIUnknown@@@Z 1001a090 f i POSKeyboard.obj
 0001:000191c0       ?IsEqualObject@?$CComPtrBase@UITypeInfo@@@ATL@@QAE_NPAUIUnknown@@@Z 1001a1c0 f i POSKeyboard.obj
 0001:000192f0       ?IsSpace@CRegParser@ATL@@IAEH_W@Z 1001a2f0 f i POSKeyboard.obj
 0001:00019360       ?IsUpToDate@?$IOleObjectImpl@VCOPOSPOSKeyboard@@@ATL@@UAGJXZ 1001a360 f i POSKeyboard.obj
 0001:000193c0       ?Length@CComBSTR@ATL@@QBEIXZ 1001a3c0 f i POSKeyboard.obj
 0001:00019400       ?Load@?$IPersistStorageImpl@VCOPOSPOSKeyboard@@@ATL@@UAGJPAUIStorage@@@Z 1001a400 f i POSKeyboard.obj
 0001:00019560       ?Load@?$IPersistStreamInitImpl@VCOPOSPOSKeyboard@@@ATL@@UAGJPAUIStream@@@Z 1001a560 f i POSKeyboard.obj
 0001:000195f0       ?LoadCursorW@AtlModuleRegisterWndClassInfoParamW@ATL@@SAPAUHICON__@@PAUHINSTANCE__@@PB_W@Z 1001a5f0 f i POSKeyboard.obj
 0001:00019620       ?LoadNameCache@CComTypeInfoHolder@ATL@@QAEJPAUITypeInfo@@@Z 1001a620 f i POSKeyboard.obj
 0001:000198b0       ?Lock@?$CComCritSecLock@VCComCriticalSection@ATL@@@ATL@@QAEJXZ 1001a8b0 f i POSKeyboard.obj
 0001:00019960       ?Lock@?$CComObjectRootEx@VCComSingleThreadModel@ATL@@@ATL@@QAEXXZ 1001a960 f i POSKeyboard.obj
 0001:00019980       ?Lock@CAtlModule@ATL@@UAEJXZ 1001a980 f i POSKeyboard.obj
 0001:000199b0       ?Lock@CComCriticalSection@ATL@@QAEJXZ 1001a9b0 f i POSKeyboard.obj
 0001:000199f0       ?Lock@CComFakeCriticalSection@ATL@@QAEJXZ 1001a9f0 f i POSKeyboard.obj
 0001:00019a10       ?LockServer@CComClassFactory@ATL@@UAGJH@Z 1001aa10 f i POSKeyboard.obj
 0001:00019a70       ?Lookup@?$CSimpleMap@PA_WPA_WVCExpansionVectorEqualHelper@ATL@@@ATL@@QBEPA_WABQA_W@Z 1001aa70 f i POSKeyboard.obj
 0001:00019ac0       ?Next@?$CComEnumImpl@UIEnumConnectionPoints@@$1?_GUID_b196b285_bab4_101a_b69c_00aa00341d07@@3U__s_GUID@@BPAUIConnectionPoint@@V?$_CopyInterface@UIConnectionPoint@@@ATL@@@ATL@@UAGJKPAPAUIConnectionPoint@@PAK@Z 1001aac0 f i POSKeyboard.obj
 0001:00019c30       ?Next@?$CComEnumImpl@UIEnumConnections@@$1?_GUID_b196b287_bab4_101a_b69c_00aa00341d07@@3U__s_GUID@@BUtagCONNECTDATA@@V?$_Copy@UtagCONNECTDATA@@@ATL@@@ATL@@UAGJKPAUtagCONNECTDATA@@PAK@Z 1001ac30 f i POSKeyboard.obj
 0001:00019da0       ?NextToken@CRegParser@ATL@@IAEJPA_W@Z 1001ada0 f i POSKeyboard.obj
 0001:0001a040       ?OLE2CT_EX@@YAPB_WPB_WI@Z  1001b040 f i POSKeyboard.obj
 0001:0001a050       ?OLE2CT_EX_DEF@@YAPB_WPB_W@Z 1001b050 f i POSKeyboard.obj
 0001:0001a060       ?OLE2T_EX@@YAPA_WPA_WI@Z   1001b060 f i POSKeyboard.obj
 0001:0001a070       ?OnAmbientPropertyChange@?$IOleControlImpl@VCOPOSPOSKeyboard@@@ATL@@UAGJJ@Z 1001b070 f i POSKeyboard.obj
 0001:0001a100       ?OnDocWindowActivate@?$IOleInPlaceActiveObjectImpl@VCOPOSPOSKeyboard@@@ATL@@UAGJH@Z 1001b100 f i POSKeyboard.obj
 0001:0001a190       ?OnDrawAdvanced@CComControlBase@ATL@@UAEJAAUATL_DRAWINFO@@@Z 1001b190 f i POSKeyboard.obj
 0001:0001a3b0       ?OnFinalMessage@?$CWindowImplBaseT@VCWindow@ATL@@V?$CWinTraits@$0FGAAAAAA@$0A@@2@@ATL@@UAEXPAUHWND__@@@Z 1001b3b0 f i POSKeyboard.obj
 0001:0001a3d0       ?OnFrameWindowActivate@?$IOleInPlaceActiveObjectImpl@VCOPOSPOSKeyboard@@@ATL@@UAGJH@Z 1001b3d0 f i POSKeyboard.obj
 0001:0001a430       ?OnKillFocus@CComControlBase@ATL@@QAEJIIJAAH@Z 1001b430 f i POSKeyboard.obj
 0001:0001a530       ?OnMnemonic@?$IOleControlImpl@VCOPOSPOSKeyboard@@@ATL@@UAGJPAUtagMSG@@@Z 1001b530 f i POSKeyboard.obj
 0001:0001a5a0       ?OnMouseActivate@CComControlBase@ATL@@QAEJIIJAAH@Z 1001b5a0 f i POSKeyboard.obj
 0001:0001a6f0       ?OnPaint@CComControlBase@ATL@@QAEJIIJAAH@Z 1001b6f0 f i POSKeyboard.obj
 0001:0001a870       ?OnPostVerbDiscardUndo@?$IOleObjectImpl@VCOPOSPOSKeyboard@@@ATL@@QAEJXZ 1001b870 f i POSKeyboard.obj
 0001:0001a890       ?OnPostVerbHide@?$IOleObjectImpl@VCOPOSPOSKeyboard@@@ATL@@QAEJXZ 1001b890 f i POSKeyboard.obj
 0001:0001a8b0       ?OnPostVerbInPlaceActivate@?$IOleObjectImpl@VCOPOSPOSKeyboard@@@ATL@@QAEJXZ 1001b8b0 f i POSKeyboard.obj
 0001:0001a8d0       ?OnPostVerbOpen@?$IOleObjectImpl@VCOPOSPOSKeyboard@@@ATL@@QAEJXZ 1001b8d0 f i POSKeyboard.obj
 0001:0001a8f0       ?OnPostVerbShow@?$IOleObjectImpl@VCOPOSPOSKeyboard@@@ATL@@QAEJXZ 1001b8f0 f i POSKeyboard.obj
 0001:0001a910       ?OnPostVerbUIActivate@?$IOleObjectImpl@VCOPOSPOSKeyboard@@@ATL@@QAEJXZ 1001b910 f i POSKeyboard.obj
 0001:0001a930       ?OnPreVerbDiscardUndo@?$IOleObjectImpl@VCOPOSPOSKeyboard@@@ATL@@QAEJXZ 1001b930 f i POSKeyboard.obj
 0001:0001a950       ?OnPreVerbHide@?$IOleObjectImpl@VCOPOSPOSKeyboard@@@ATL@@QAEJXZ 1001b950 f i POSKeyboard.obj
 0001:0001a970       ?OnPreVerbInPlaceActivate@?$IOleObjectImpl@VCOPOSPOSKeyboard@@@ATL@@QAEJXZ 1001b970 f i POSKeyboard.obj
 0001:0001a990       ?OnPreVerbOpen@?$IOleObjectImpl@VCOPOSPOSKeyboard@@@ATL@@QAEJXZ 1001b990 f i POSKeyboard.obj
 0001:0001a9b0       ?OnPreVerbShow@?$IOleObjectImpl@VCOPOSPOSKeyboard@@@ATL@@QAEJXZ 1001b9b0 f i POSKeyboard.obj
 0001:0001a9d0       ?OnPreVerbUIActivate@?$IOleObjectImpl@VCOPOSPOSKeyboard@@@ATL@@QAEJXZ 1001b9d0 f i POSKeyboard.obj
 0001:0001a9f0       ?OnSetFocus@CComControlBase@ATL@@QAEJIIJAAH@Z 1001b9f0 f i POSKeyboard.obj
 0001:0001ab80       ?OnWindowMessage@?$IOleInPlaceObjectWindowlessImpl@VCOPOSPOSKeyboard@@@ATL@@UAGJIIJPAJ@Z 1001bb80 f i POSKeyboard.obj
 0001:0001ace0       ?Open@CRegKey@ATL@@QAEJPAUHKEY__@@PB_WK@Z 1001bce0 f i POSKeyboard.obj
 0001:0001ae30       ?OuterAddRef@CComObjectRootBase@ATL@@QAEKXZ 1001be30 f i POSKeyboard.obj
 0001:0001ae70       ?OuterQueryInterface@CComObjectRootBase@ATL@@QAEJABU_GUID@@PAPAX@Z 1001be70 f i POSKeyboard.obj
 0001:0001aec0       ?OuterRelease@CComObjectRootBase@ATL@@QAEKXZ 1001bec0 f i POSKeyboard.obj
 0001:0001af00       ?PreProcessBuffer@CRegParser@ATL@@QAEJPA_WPAPA_W@Z 1001bf00 f i POSKeyboard.obj
 0001:0001b440       ?PreTranslateAccelerator@CComControlBase@ATL@@QAEHPAUtagMSG@@AAJ@Z 1001c440 f i POSKeyboard.obj
 0001:0001b460       ?ProcessWindowMessage@?$CComControl@VCOPOSPOSKeyboard@@V?$CWindowImpl@VCOPOSPOSKeyboard@@VCWindow@ATL@@V?$CWinTraits@$0FGAAAAAA@$0A@@3@@ATL@@@ATL@@UAEHPAUHWND__@@IIJAAJK@Z 1001c460 f i POSKeyboard.obj
 0001:0001b630       ?ProcessWindowMessage@COPOSPOSKeyboard@@UAEHPAUHWND__@@IIJAAJK@Z 1001c630 f i POSKeyboard.obj
 0001:0001b730       ?PutProperty@?$CComPtr@UIDispatch@@@ATL@@QAEJJPAUtagVARIANT@@@Z 1001c730 f i POSKeyboard.obj
 0001:0001b770       ?PutProperty@?$CComPtr@UIDispatch@@@ATL@@SAJPAUIDispatch@@JPAUtagVARIANT@@@Z 1001c770 f i POSKeyboard.obj
 0001:0001b960       ?QueryGetData@?$IDataObjectImpl@VCOPOSPOSKeyboard@@@ATL@@UAGJPAUtagFORMATETC@@@Z 1001c960 f i POSKeyboard.obj
 0001:0001b9d0       ?QueryHitPoint@?$IViewObjectExImpl@VCOPOSPOSKeyboard@@@ATL@@UAGJKPBUtagRECT@@UtagPOINT@@JPAK@Z 1001c9d0 f i POSKeyboard.obj
 0001:0001bae0       ?QueryHitRect@?$IViewObjectExImpl@VCOPOSPOSKeyboard@@@ATL@@UAGJKPBUtagRECT@@0JPAK@Z 1001cae0 f i POSKeyboard.obj
 0001:0001bc30       ?QueryInterface@?$CComAggObject@VCOPOSPOSKeyboard@@@ATL@@UAGJABU_GUID@@PAPAX@Z 1001cc30 f i POSKeyboard.obj
 0001:0001bce0       ?QueryInterface@?$CComContainedObject@VCOPOSPOSKeyboard@@@ATL@@UAGJABU_GUID@@PAPAX@Z 1001cce0 f i POSKeyboard.obj
 0001:0001bd04       ?QueryInterface@?$CComContainedObject@VCOPOSPOSKeyboard@@@ATL@@WHA@AGJABU_GUID@@PAPAX@Z 1001cd04 f i POSKeyboard.obj
 0001:0001bd0e       ?QueryInterface@?$CComContainedObject@VCOPOSPOSKeyboard@@@ATL@@WHE@AGJABU_GUID@@PAPAX@Z 1001cd0e f i POSKeyboard.obj
 0001:0001bd18       ?QueryInterface@?$CComContainedObject@VCOPOSPOSKeyboard@@@ATL@@WHI@AGJABU_GUID@@PAPAX@Z 1001cd18 f i POSKeyboard.obj
 0001:0001bd22       ?QueryInterface@?$CComContainedObject@VCOPOSPOSKeyboard@@@ATL@@WHM@AGJABU_GUID@@PAPAX@Z 1001cd22 f i POSKeyboard.obj
 0001:0001bd2c       ?QueryInterface@?$CComContainedObject@VCOPOSPOSKeyboard@@@ATL@@WIA@AGJABU_GUID@@PAPAX@Z 1001cd2c f i POSKeyboard.obj
 0001:0001bd39       ?QueryInterface@?$CComContainedObject@VCOPOSPOSKeyboard@@@ATL@@WIE@AGJABU_GUID@@PAPAX@Z 1001cd39 f i POSKeyboard.obj
 0001:0001bd46       ?QueryInterface@?$CComContainedObject@VCOPOSPOSKeyboard@@@ATL@@WII@AGJABU_GUID@@PAPAX@Z 1001cd46 f i POSKeyboard.obj
 0001:0001bd53       ?QueryInterface@?$CComContainedObject@VCOPOSPOSKeyboard@@@ATL@@WIM@AGJABU_GUID@@PAPAX@Z 1001cd53 f i POSKeyboard.obj
 0001:0001bd60       ?QueryInterface@?$CComContainedObject@VCOPOSPOSKeyboard@@@ATL@@WJA@AGJABU_GUID@@PAPAX@Z 1001cd60 f i POSKeyboard.obj
 0001:0001bd6d       ?QueryInterface@?$CComContainedObject@VCOPOSPOSKeyboard@@@ATL@@WJE@AGJABU_GUID@@PAPAX@Z 1001cd6d f i POSKeyboard.obj
 0001:0001bd7a       ?QueryInterface@?$CComContainedObject@VCOPOSPOSKeyboard@@@ATL@@WJI@AGJABU_GUID@@PAPAX@Z 1001cd7a f i POSKeyboard.obj
 0001:0001bd87       ?QueryInterface@?$CComContainedObject@VCOPOSPOSKeyboard@@@ATL@@WJM@AGJABU_GUID@@PAPAX@Z 1001cd87 f i POSKeyboard.obj
 0001:0001bd94       ?QueryInterface@?$CComContainedObject@VCOPOSPOSKeyboard@@@ATL@@WKA@AGJABU_GUID@@PAPAX@Z 1001cd94 f i POSKeyboard.obj
 0001:0001bdb0       ?QueryInterface@?$CComObject@V?$CComEnum@UIEnumConnectionPoints@@$1?_GUID_b196b285_bab4_101a_b69c_00aa00341d07@@3U__s_GUID@@BPAUIConnectionPoint@@V?$_CopyInterface@UIConnectionPoint@@@ATL@@VCComSingleThreadModel@6@@ATL@@@ATL@@UAGJABU_GUID@@PAPAX@Z 1001cdb0 f i POSKeyboard.obj
 0001:0001bdd0       ?QueryInterface@?$CComObject@V?$CComEnum@UIEnumConnections@@$1?_GUID_b196b287_bab4_101a_b69c_00aa00341d07@@3U__s_GUID@@BUtagCONNECTDATA@@V?$_Copy@UtagCONNECTDATA@@@ATL@@VCComSingleThreadModel@6@@ATL@@@ATL@@UAGJABU_GUID@@PAPAX@Z 1001cdd0 f i POSKeyboard.obj
 0001:0001bdf0       ?QueryInterface@?$CComObject@VCOPOSPOSKeyboard@@@ATL@@UAGJABU_GUID@@PAPAX@Z 1001cdf0 f i POSKeyboard.obj
 0001:0001be0e       ?QueryInterface@?$CComObject@VCOPOSPOSKeyboard@@@ATL@@WHA@AGJABU_GUID@@PAPAX@Z 1001ce0e f i POSKeyboard.obj
 0001:0001be18       ?QueryInterface@?$CComObject@VCOPOSPOSKeyboard@@@ATL@@WHE@AGJABU_GUID@@PAPAX@Z 1001ce18 f i POSKeyboard.obj
 0001:0001be22       ?QueryInterface@?$CComObject@VCOPOSPOSKeyboard@@@ATL@@WHI@AGJABU_GUID@@PAPAX@Z 1001ce22 f i POSKeyboard.obj
 0001:0001be2c       ?QueryInterface@?$CComObject@VCOPOSPOSKeyboard@@@ATL@@WHM@AGJABU_GUID@@PAPAX@Z 1001ce2c f i POSKeyboard.obj
 0001:0001be36       ?QueryInterface@?$CComObject@VCOPOSPOSKeyboard@@@ATL@@WIA@AGJABU_GUID@@PAPAX@Z 1001ce36 f i POSKeyboard.obj
 0001:0001be43       ?QueryInterface@?$CComObject@VCOPOSPOSKeyboard@@@ATL@@WIE@AGJABU_GUID@@PAPAX@Z 1001ce43 f i POSKeyboard.obj
 0001:0001be50       ?QueryInterface@?$CComObject@VCOPOSPOSKeyboard@@@ATL@@WII@AGJABU_GUID@@PAPAX@Z 1001ce50 f i POSKeyboard.obj
 0001:0001be5d       ?QueryInterface@?$CComObject@VCOPOSPOSKeyboard@@@ATL@@WIM@AGJABU_GUID@@PAPAX@Z 1001ce5d f i POSKeyboard.obj
 0001:0001be6a       ?QueryInterface@?$CComObject@VCOPOSPOSKeyboard@@@ATL@@WJA@AGJABU_GUID@@PAPAX@Z 1001ce6a f i POSKeyboard.obj
 0001:0001be77       ?QueryInterface@?$CComObject@VCOPOSPOSKeyboard@@@ATL@@WJE@AGJABU_GUID@@PAPAX@Z 1001ce77 f i POSKeyboard.obj
 0001:0001be84       ?QueryInterface@?$CComObject@VCOPOSPOSKeyboard@@@ATL@@WJI@AGJABU_GUID@@PAPAX@Z 1001ce84 f i POSKeyboard.obj
 0001:0001be91       ?QueryInterface@?$CComObject@VCOPOSPOSKeyboard@@@ATL@@WJM@AGJABU_GUID@@PAPAX@Z 1001ce91 f i POSKeyboard.obj
 0001:0001be9e       ?QueryInterface@?$CComObject@VCOPOSPOSKeyboard@@@ATL@@WKA@AGJABU_GUID@@PAPAX@Z 1001ce9e f i POSKeyboard.obj
 0001:0001beb0       ?QueryInterface@?$CComObjectCached@VCComClassFactory@ATL@@@ATL@@UAGJABU_GUID@@PAPAX@Z 1001ceb0 f i POSKeyboard.obj
 0001:0001bed0       ?QueryInterface@CRegObject@ATL@@UAGJABU_GUID@@PAPAX@Z 1001ced0 f i POSKeyboard.obj
 0001:0001bf20       ?QuickActivate@?$IQuickActivateImpl@VCOPOSPOSKeyboard@@@ATL@@UAGJPAUtagQACONTAINER@@PAUtagQACONTROL@@@Z 1001cf20 f i POSKeyboard.obj
 0001:0001bfb0       ?ReactivateAndUndo@?$IOleInPlaceObjectWindowlessImpl@VCOPOSPOSKeyboard@@@ATL@@UAGJXZ 1001cfb0 f i POSKeyboard.obj
 0001:0001c020       ?ReadFromStream@CComBSTR@ATL@@QAEJPAUIStream@@@Z 1001d020 f i POSKeyboard.obj
 0001:0001c420       ?ReadFromStream@CComVariant@ATL@@QAEJPAUIStream@@GTClassesAllowedInStream@2@K@Z 1001d420 f i POSKeyboard.obj
 0001:0001c780       ?RecurseDeleteKey@CRegKey@ATL@@QAEJPB_W@Z 1001d780 f i POSKeyboard.obj
 0001:0001c960       ?RegCreateKeyExW@CAtlTransactionManager@ATL@@QAEJPAUHKEY__@@PB_WKPA_WKKQAU_SECURITY_ATTRIBUTES@@PAPAU3@PAK@Z 1001d960 f i POSKeyboard.obj
 0001:0001ca90       ?RegDeleteKeyW@CAtlTransactionManager@ATL@@QAEJPAUHKEY__@@PB_W@Z 1001da90 f i POSKeyboard.obj
 0001:0001cb90       ?RegOpenKeyExW@CAtlTransactionManager@ATL@@QAEJPAUHKEY__@@PB_WKKPAPAU3@@Z 1001db90 f i POSKeyboard.obj
 0001:0001cca0       ?Register@_ATL_WNDCLASSINFOW@ATL@@QAEGPAP6GJPAUHWND__@@IIJ@Z@Z 1001dca0 f i POSKeyboard.obj
 0001:0001cce0       ?RegisterBuffer@CRegParser@ATL@@QAEJPA_WH@Z 1001dce0 f i POSKeyboard.obj
 0001:0001d010       ?RegisterClassExW@AtlModuleRegisterWndClassInfoParamW@ATL@@SAGPAU_ATL_WIN_MODULE70@2@PBUtagWNDCLASSEXW@@@Z 1001e010 f i POSKeyboard.obj
 0001:0001d030       ?RegisterFromResource@CRegObject@ATL@@IAEJPB_W00H@Z 1001e030 f i POSKeyboard.obj
 0001:0001d3c0       ?RegisterServer@?$CAtlModuleT@VCComModule@ATL@@@ATL@@QAEJHPBU_GUID@@@Z 1001e3c0 f i POSKeyboard.obj
 0001:0001d440       ?RegisterServer@CAtlComModule@ATL@@QAEJHPBU_GUID@@@Z 1001e440 f i POSKeyboard.obj
 0001:0001d470       ?RegisterServer@CComModule@ATL@@QAEJHPBU_GUID@@@Z 1001e470 f i POSKeyboard.obj
 0001:0001d550       ?RegisterSubkeys@CRegParser@ATL@@IAEJPA_WPAUHKEY__@@HH@Z 1001e550 f i POSKeyboard.obj
 0001:0001e070       ?Release@?$CComAggObject@VCOPOSPOSKeyboard@@@ATL@@UAGKXZ 1001f070 f i POSKeyboard.obj
 0001:0001e130       ?Release@?$CComContainedObject@VCOPOSPOSKeyboard@@@ATL@@UAGKXZ 1001f130 f i POSKeyboard.obj
 0001:0001e14c       ?Release@?$CComContainedObject@VCOPOSPOSKeyboard@@@ATL@@WHA@AGKXZ 1001f14c f i POSKeyboard.obj
 0001:0001e156       ?Release@?$CComContainedObject@VCOPOSPOSKeyboard@@@ATL@@WHE@AGKXZ 1001f156 f i POSKeyboard.obj
 0001:0001e160       ?Release@?$CComContainedObject@VCOPOSPOSKeyboard@@@ATL@@WHI@AGKXZ 1001f160 f i POSKeyboard.obj
 0001:0001e16a       ?Release@?$CComContainedObject@VCOPOSPOSKeyboard@@@ATL@@WHM@AGKXZ 1001f16a f i POSKeyboard.obj
 0001:0001e174       ?Release@?$CComContainedObject@VCOPOSPOSKeyboard@@@ATL@@WIA@AGKXZ 1001f174 f i POSKeyboard.obj
 0001:0001e181       ?Release@?$CComContainedObject@VCOPOSPOSKeyboard@@@ATL@@WIE@AGKXZ 1001f181 f i POSKeyboard.obj
 0001:0001e18e       ?Release@?$CComContainedObject@VCOPOSPOSKeyboard@@@ATL@@WII@AGKXZ 1001f18e f i POSKeyboard.obj
 0001:0001e19b       ?Release@?$CComContainedObject@VCOPOSPOSKeyboard@@@ATL@@WIM@AGKXZ 1001f19b f i POSKeyboard.obj
 0001:0001e1a8       ?Release@?$CComContainedObject@VCOPOSPOSKeyboard@@@ATL@@WJA@AGKXZ 1001f1a8 f i POSKeyboard.obj
 0001:0001e1b5       ?Release@?$CComContainedObject@VCOPOSPOSKeyboard@@@ATL@@WJE@AGKXZ 1001f1b5 f i POSKeyboard.obj
 0001:0001e1c2       ?Release@?$CComContainedObject@VCOPOSPOSKeyboard@@@ATL@@WJI@AGKXZ 1001f1c2 f i POSKeyboard.obj
 0001:0001e1cf       ?Release@?$CComContainedObject@VCOPOSPOSKeyboard@@@ATL@@WJM@AGKXZ 1001f1cf f i POSKeyboard.obj
 0001:0001e1dc       ?Release@?$CComContainedObject@VCOPOSPOSKeyboard@@@ATL@@WKA@AGKXZ 1001f1dc f i POSKeyboard.obj
 0001:0001e1e9       ?Release@?$CComContainedObject@VCOPOSPOSKeyboard@@@ATL@@WKI@AGKXZ 1001f1e9 f i POSKeyboard.obj
 0001:0001e1f6       ?Release@?$CComContainedObject@VCOPOSPOSKeyboard@@@ATL@@WLE@AGKXZ 1001f1f6 f i POSKeyboard.obj
 0001:0001e210       ?Release@?$CComObject@V?$CComEnum@UIEnumConnectionPoints@@$1?_GUID_b196b285_bab4_101a_b69c_00aa00341d07@@3U__s_GUID@@BPAUIConnectionPoint@@V?$_CopyInterface@UIConnectionPoint@@@ATL@@VCComSingleThreadModel@6@@ATL@@@ATL@@UAGKXZ 1001f210 f i POSKeyboard.obj
 0001:0001e2d0       ?Release@?$CComObject@V?$CComEnum@UIEnumConnections@@$1?_GUID_b196b287_bab4_101a_b69c_00aa00341d07@@3U__s_GUID@@BUtagCONNECTDATA@@V?$_Copy@UtagCONNECTDATA@@@ATL@@VCComSingleThreadModel@6@@ATL@@@ATL@@UAGKXZ 1001f2d0 f i POSKeyboard.obj
 0001:0001e390       ?Release@?$CComObject@VCOPOSPOSKeyboard@@@ATL@@UAGKXZ 1001f390 f i POSKeyboard.obj
 0001:0001e449       ?Release@?$CComObject@VCOPOSPOSKeyboard@@@ATL@@WHA@AGKXZ 1001f449 f i POSKeyboard.obj
 0001:0001e453       ?Release@?$CComObject@VCOPOSPOSKeyboard@@@ATL@@WHE@AGKXZ 1001f453 f i POSKeyboard.obj
 0001:0001e45d       ?Release@?$CComObject@VCOPOSPOSKeyboard@@@ATL@@WHI@AGKXZ 1001f45d f i POSKeyboard.obj
 0001:0001e467       ?Release@?$CComObject@VCOPOSPOSKeyboard@@@ATL@@WHM@AGKXZ 1001f467 f i POSKeyboard.obj
 0001:0001e471       ?Release@?$CComObject@VCOPOSPOSKeyboard@@@ATL@@WIA@AGKXZ 1001f471 f i POSKeyboard.obj
 0001:0001e47e       ?Release@?$CComObject@VCOPOSPOSKeyboard@@@ATL@@WIE@AGKXZ 1001f47e f i POSKeyboard.obj
 0001:0001e48b       ?Release@?$CComObject@VCOPOSPOSKeyboard@@@ATL@@WII@AGKXZ 1001f48b f i POSKeyboard.obj
 0001:0001e498       ?Release@?$CComObject@VCOPOSPOSKeyboard@@@ATL@@WIM@AGKXZ 1001f498 f i POSKeyboard.obj
 0001:0001e4a5       ?Release@?$CComObject@VCOPOSPOSKeyboard@@@ATL@@WJA@AGKXZ 1001f4a5 f i POSKeyboard.obj
 0001:0001e4b2       ?Release@?$CComObject@VCOPOSPOSKeyboard@@@ATL@@WJE@AGKXZ 1001f4b2 f i POSKeyboard.obj
 0001:0001e4bf       ?Release@?$CComObject@VCOPOSPOSKeyboard@@@ATL@@WJI@AGKXZ 1001f4bf f i POSKeyboard.obj
 0001:0001e4cc       ?Release@?$CComObject@VCOPOSPOSKeyboard@@@ATL@@WJM@AGKXZ 1001f4cc f i POSKeyboard.obj
 0001:0001e4d9       ?Release@?$CComObject@VCOPOSPOSKeyboard@@@ATL@@WKA@AGKXZ 1001f4d9 f i POSKeyboard.obj
 0001:0001e4e6       ?Release@?$CComObject@VCOPOSPOSKeyboard@@@ATL@@WKI@AGKXZ 1001f4e6 f i POSKeyboard.obj
 0001:0001e4f3       ?Release@?$CComObject@VCOPOSPOSKeyboard@@@ATL@@WLE@AGKXZ 1001f4f3 f i POSKeyboard.obj
 0001:0001e500       ?Release@?$CComObjectCached@VCComClassFactory@ATL@@@ATL@@UAGKXZ 1001f500 f i POSKeyboard.obj
 0001:0001e5a0       ?Release@?$CComPtrBase@UIAdviseSink@@@ATL@@QAEXXZ 1001f5a0 f i POSKeyboard.obj
 0001:0001e600       ?Release@?$CComPtrBase@UIDispatch@@@ATL@@QAEXXZ 1001f600 f i POSKeyboard.obj
 0001:0001e660       ?Release@?$CComPtrBase@UIOleInPlaceSiteWindowless@@@ATL@@QAEXXZ 1001f660 f i POSKeyboard.obj
 0001:0001e6c0       ?Release@CRegObject@ATL@@UAGKXZ 1001f6c0 f i POSKeyboard.obj
 0001:0001e700       ?Remove@CComDynamicUnkArray@ATL@@QAEHK@Z 1001f700 f i POSKeyboard.obj
 0001:0001e7b0       ?RemoveAll@?$CSimpleMap@PA_WPA_WVCExpansionVectorEqualHelper@ATL@@@ATL@@QAEXXZ 1001f7b0 f i POSKeyboard.obj
 0001:0001e840       ?Reset@?$CComEnumImpl@UIEnumConnectionPoints@@$1?_GUID_b196b285_bab4_101a_b69c_00aa00341d07@@3U__s_GUID@@BPAUIConnectionPoint@@V?$_CopyInterface@UIConnectionPoint@@@ATL@@@ATL@@UAGJXZ 1001f840 f i POSKeyboard.obj
 0001:0001e860       ?Reset@?$CComEnumImpl@UIEnumConnections@@$1?_GUID_b196b287_bab4_101a_b69c_00aa00341d07@@3U__s_GUID@@BUtagCONNECTDATA@@V?$_Copy@UtagCONNECTDATA@@@ATL@@@ATL@@UAGJXZ 1001f860 f i POSKeyboard.obj
 0001:0001e880       ?ResizeBorder@?$IOleInPlaceActiveObjectImpl@VCOPOSPOSKeyboard@@@ATL@@UAGJPBUtagRECT@@PAUIOleInPlaceUIWindow@@H@Z 1001f880 f i POSKeyboard.obj
 0001:0001e8e0       ?ResourceRegister@CRegObject@ATL@@QAGJPB_WI0@Z 1001f8e0 f i POSKeyboard.obj
 0001:0001e9c0       ?ResourceRegisterSz@CRegObject@ATL@@QAGJPB_W00@Z 1001f9c0 f i POSKeyboard.obj
 0001:0001eac0       ?ResourceUnregister@CRegObject@ATL@@QAGJPB_WI0@Z 1001fac0 f i POSKeyboard.obj
 0001:0001eba0       ?ResourceUnregisterSz@CRegObject@ATL@@QAGJPB_W00@Z 1001fba0 f i POSKeyboard.obj
 0001:0001eca0       ?SOData@COPOSPOSKeyboard@@MAGJJ@Z 1001fca0 f i POSKeyboard.obj
 0001:0001ed20       ?SODirectIO@COPOSPOSKeyboard@@MAGJJPAJPAPA_W@Z 1001fd20 f i POSKeyboard.obj
 0001:0001eee0       ?SOError@COPOSPOSKeyboard@@MAGJJJJPAJ@Z 1001fee0 f i POSKeyboard.obj
 0001:0001efa0       ?SOOutputCompleteDummy@COPOSPOSKeyboard@@MAGJJ@Z 1001ffa0 f i POSKeyboard.obj
 0001:0001efb0       ?SOStatusUpdate@COPOSPOSKeyboard@@MAGJJ@Z 1001ffb0 f i POSKeyboard.obj
 0001:0001f030       ?Save@?$IPersistStorageImpl@VCOPOSPOSKeyboard@@@ATL@@UAGJPAUIStorage@@H@Z 10020030 f i POSKeyboard.obj
 0001:0001f190       ?Save@?$IPersistStreamInitImpl@VCOPOSPOSKeyboard@@@ATL@@UAGJPAUIStream@@H@Z 10020190 f i POSKeyboard.obj
 0001:0001f220       ?SaveCompleted@?$IPersistStorageImpl@VCOPOSPOSKeyboard@@@ATL@@UAGJPAUIStorage@@@Z 10020220 f i POSKeyboard.obj
 0001:0001f280       ?SendOnDataChange@CComControlBase@ATL@@QAEJK@Z 10020280 f i POSKeyboard.obj
 0001:0001f370       ?SendOnSave@CComControlBase@ATL@@QAEJXZ 10020370 f i POSKeyboard.obj
 0001:0001f3e0       ?SendOnViewChange@CComControlBase@ATL@@QAEJKJ@Z 100203e0 f i POSKeyboard.obj
 0001:0001f450       ?SetAdvise@?$IViewObjectExImpl@VCOPOSPOSKeyboard@@@ATL@@UAGJKKPAUIAdviseSink@@@Z 10020450 f i POSKeyboard.obj
 0001:0001f4e0       ?SetClientSite@?$IOleObjectImpl@VCOPOSPOSKeyboard@@@ATL@@UAGJPAUIOleClientSite@@@Z 100204e0 f i POSKeyboard.obj
 0001:0001f570       ?SetColorScheme@?$IOleObjectImpl@VCOPOSPOSKeyboard@@@ATL@@UAGJPAUtagLOGPALETTE@@@Z 10020570 f i POSKeyboard.obj
 0001:0001f5e0       ?SetContentExtent@?$IQuickActivateImpl@VCOPOSPOSKeyboard@@@ATL@@UAGJPAUtagSIZE@@@Z 100205e0 f i POSKeyboard.obj
 0001:0001f670       ?SetControlFocus@CComControlBase@ATL@@QAEHH@Z 10020670 f i POSKeyboard.obj
 0001:0001f7f0       ?SetDWORDValue@CRegKey@ATL@@QAEJPB_WK@Z 100207f0 f i POSKeyboard.obj
 0001:0001f870       ?SetData@?$IDataObjectImpl@VCOPOSPOSKeyboard@@@ATL@@UAGJPAUtagFORMATETC@@PAUtagSTGMEDIUM@@H@Z 10020870 f i POSKeyboard.obj
 0001:0001f8e0       ?SetExtent@?$IOleObjectImpl@VCOPOSPOSKeyboard@@@ATL@@UAGJKPAUtagSIZE@@@Z 100208e0 f i POSKeyboard.obj
 0001:0001f970       ?SetHostNames@?$IOleObjectImpl@VCOPOSPOSKeyboard@@@ATL@@UAGJPB_W0@Z 10020970 f i POSKeyboard.obj
 0001:0001f9d0       ?SetInterfaceSafetyOptions@?$IObjectSafetyImpl@VCOPOSPOSKeyboard@@$02@ATL@@UAGJABU_GUID@@KK@Z 100209d0 f i POSKeyboard.obj
 0001:0001fb40       ?SetMoniker@?$IOleObjectImpl@VCOPOSPOSKeyboard@@@ATL@@UAGJKPAUIMoniker@@@Z 10020b40 f i POSKeyboard.obj
 0001:0001fbb0       ?SetMultiStringValue@CRegKey@ATL@@QAEJPB_W0@Z 10020bb0 f i POSKeyboard.obj
 0001:0001fcd0       ?SetObjectRects@?$IOleInPlaceObjectWindowlessImpl@VCOPOSPOSKeyboard@@@ATL@@UAGJPBUtagRECT@@0@Z 10020cd0 f i POSKeyboard.obj
 0001:0001fd60       ?SetStringValue@CRegKey@ATL@@QAEJPB_W0K@Z 10020d60 f i POSKeyboard.obj
 0001:0001fe90       ?SetVoid@CComClassFactory@ATL@@QAEXPAX@Z 10020e90 f i POSKeyboard.obj
 0001:0001feb0       ?SetVoid@CComObjectRootBase@ATL@@QAEXPAX@Z 10020eb0 f i POSKeyboard.obj
 0001:0001fed0       ?SetWindowLongPtrW@@YAJPAUHWND__@@HJ@Z 10020ed0 f i POSKeyboard.obj
 0001:0001ff00       ?ShowWindow@CWindow@ATL@@QAEHH@Z 10020f00 f i POSKeyboard.obj
 0001:0001ff80       ?Skip@?$CComEnumImpl@UIEnumConnectionPoints@@$1?_GUID_b196b285_bab4_101a_b69c_00aa00341d07@@3U__s_GUID@@BPAUIConnectionPoint@@V?$_CopyInterface@UIConnectionPoint@@@ATL@@@ATL@@UAGJK@Z 10020f80 f i POSKeyboard.obj
 0001:00020000       ?Skip@?$CComEnumImpl@UIEnumConnections@@$1?_GUID_b196b287_bab4_101a_b69c_00aa00341d07@@3U__s_GUID@@BUtagCONNECTDATA@@V?$_Copy@UtagCONNECTDATA@@@ATL@@@ATL@@UAGJK@Z 10021000 f i POSKeyboard.obj
 0001:00020080       ?SkipAssignment@CRegParser@ATL@@IAEJPA_W@Z 10021080 f i POSKeyboard.obj
 0001:00020160       ?SkipWhiteSpace@CRegParser@ATL@@IAEXXZ 10021160 f i POSKeyboard.obj
 0001:000201b0       ?StartWindowProc@?$CWindowImplBaseT@VCWindow@ATL@@V?$CWinTraits@$0FGAAAAAA@$0A@@2@@ATL@@SGJPAUHWND__@@IIJ@Z 100211b0 f i POSKeyboard.obj
 0001:000202d0       ?StrChrW@CRegParser@ATL@@KAPA_WPA_W_W@Z 100212d0 f i POSKeyboard.obj
 0001:00020340       ?StrFromMap@CRegObject@ATL@@QAEPB_WPA_W@Z 10021340 f i POSKeyboard.obj
 0001:000203d0       ?Swap@?$CComPtrBase@UIAdviseSink@@@ATL@@IAEXAAV12@@Z 100213d0 f i POSKeyboard.obj
 0001:00020410       ?Swap@?$CComPtrBase@UIOleClientSite@@@ATL@@IAEXAAV12@@Z 10021410 f i POSKeyboard.obj
 0001:00020450       ?Swap@?$CComPtrBase@UIUnknown@@@ATL@@IAEXAAV12@@Z 10021450 f i POSKeyboard.obj
 0001:00020490       ?T2COLE_EX@@YAPB_WPB_WI@Z  10021490 f i POSKeyboard.obj
 0001:000204a0       ?T2OLE_EX@@YAPA_WPA_WI@Z   100214a0 f i POSKeyboard.obj
 0001:000204b0       ?Term@CAtlModule@ATL@@QAEXXZ 100214b0 f i POSKeyboard.obj
 0001:00020560       ?Term@CComModule@ATL@@QAEXXZ 10021560 f i POSKeyboard.obj
 0001:00020650       ?TranslateAcceleratorW@?$IOleInPlaceActiveObjectImpl@VCOPOSPOSKeyboard@@@ATL@@UAGJPAUtagMSG@@@Z 10021650 f i POSKeyboard.obj
 0001:00020850       ?UIDeactivate@?$IOleInPlaceObjectWindowlessImpl@VCOPOSPOSKeyboard@@@ATL@@UAGJXZ 10021850 f i POSKeyboard.obj
 0001:000208d0       ?Unadvise@?$CProxy_IOPOSEvents@VCOPOSPOSKeyboard@@@@UAGJK@Z 100218d0 f i POSKeyboard.obj
 0001:00020910       ?Unadvise@?$IConnectionPointImpl@VCOPOSPOSKeyboard@@$1?DIID__IOPOSPOSKeyboardEvents@@3U_GUID@@BVCComDynamicUnkArray@ATL@@@ATL@@UAGJK@Z 10021910 f i POSKeyboard.obj
 0001:000209e0       ?Unadvise@?$IConnectionPointImpl@VCOPOSPOSKeyboard@@$1?IID_IPropertyNotifySink@@3U_GUID@@BVCComDynamicUnkArray@ATL@@@ATL@@UAGJK@Z 100219e0 f i POSKeyboard.obj
 0001:00020ab0       ?Unadvise@?$IOleObjectImpl@VCOPOSPOSKeyboard@@@ATL@@UAGJK@Z 10021ab0 f i POSKeyboard.obj
 0001:00020b80       ?Unfreeze@?$IViewObjectExImpl@VCOPOSPOSKeyboard@@@ATL@@UAGJK@Z 10021b80 f i POSKeyboard.obj
 0001:00020bf0       ?Unlock@?$CComCritSecLock@VCComCriticalSection@ATL@@@ATL@@QAEXXZ 10021bf0 f i POSKeyboard.obj
 0001:00020c60       ?Unlock@?$CComObjectRootEx@VCComSingleThreadModel@ATL@@@ATL@@QAEXXZ 10021c60 f i POSKeyboard.obj
 0001:00020c80       ?Unlock@CAtlModule@ATL@@UAEJXZ 10021c80 f i POSKeyboard.obj
 0001:00020cb0       ?Unlock@CComCriticalSection@ATL@@QAEJXZ 10021cb0 f i POSKeyboard.obj
 0001:00020cf0       ?Unlock@CComFakeCriticalSection@ATL@@QAEJXZ 10021cf0 f i POSKeyboard.obj
 0001:00020d10       ?UnregisterServer@?$CAtlModuleT@VCComModule@ATL@@@ATL@@QAEJHPBU_GUID@@@Z 10021d10 f i POSKeyboard.obj
 0001:00020d80       ?UnregisterServer@CAtlComModule@ATL@@QAEJHPBU_GUID@@@Z 10021d80 f i POSKeyboard.obj
 0001:00020db0       ?UnregisterServer@CComModule@ATL@@QAEJHPBU_GUID@@@Z 10021db0 f i POSKeyboard.obj
 0001:00020e90       ?Update@?$IOleObjectImpl@VCOPOSPOSKeyboard@@@ATL@@UAGJXZ 10021e90 f i POSKeyboard.obj
 0001:00020ef0       ?UpdateRegistryFromResource@CAtlModule@ATL@@QAGJIHPAU_ATL_REGMAP_ENTRY@2@@Z 10021ef0 f i POSKeyboard.obj
 0001:000213c0       ?UpdateRegistryFromResource@CAtlModule@ATL@@QAGJPB_WHPAU_ATL_REGMAP_ENTRY@2@@Z 100223c0 f i POSKeyboard.obj
 0001:000218b0       ?UpdateRegistryFromResource@CComModule@ATL@@UAGJIHPAU_ATL_REGMAP_ENTRY@2@@Z 100228b0 f i POSKeyboard.obj
 0001:000218e0       ?UpdateRegistryFromResource@CComModule@ATL@@UAGJPB_WHPAU_ATL_REGMAP_ENTRY@2@@Z 100228e0 f i POSKeyboard.obj
 0001:00021910       ?UpdateRegistryFromResourceD@CComModule@ATL@@UAGJIHPAU_ATL_REGMAP_ENTRY@2@@Z 10022910 f i POSKeyboard.obj
 0001:00021920       ?UpdateRegistryFromResourceD@CComModule@ATL@@UAGJPB_WHPAU_ATL_REGMAP_ENTRY@2@@Z 10022920 f i POSKeyboard.obj
 0001:00021930       ?VTFromRegType@CRegParser@ATL@@KAHPB_WAAG@Z 10022930 f i POSKeyboard.obj
 0001:00021a10       ?WindowProc@?$CWindowImplBaseT@VCWindow@ATL@@V?$CWinTraits@$0FGAAAAAA@$0A@@2@@ATL@@SGJPAUHWND__@@IIJ@Z 10022a10 f i POSKeyboard.obj
 0001:00021c20       ?WriteToStream@CComBSTR@ATL@@QAEJPAUIStream@@@Z 10022c20 f i POSKeyboard.obj
 0001:00021d80       ?WriteToStream@CComVariant@ATL@@QAEJPAUIStream@@@Z 10022d80 f i POSKeyboard.obj
 0001:000220c0       ?WriteToStream@CComVariant@ATL@@QAEJPAUIStream@@G@Z 100230c0 f i POSKeyboard.obj
 0001:00022190       ?_AtlFinalConstruct@CComObjectRootBase@ATL@@QAEJXZ 10023190 f i POSKeyboard.obj
 0001:000221b0       ?_AtlGetConversionACP@ATL@@YGIXZ 100231b0 f i POSKeyboard.obj
 0001:000221c0       ?_AtlInitialConstruct@?$CComAggObject@VCOPOSPOSKeyboard@@@ATL@@QAEJXZ 100231c0 f i POSKeyboard.obj
 0001:00022210       ?_AtlInitialConstruct@?$CComObjectRootEx@VCComMultiThreadModel@ATL@@@ATL@@QAEJXZ 10023210 f i POSKeyboard.obj
 0001:00022240       ?_AtlInitialConstruct@?$CComObjectRootEx@VCComSingleThreadModel@ATL@@@ATL@@QAEJXZ 10023240 f i POSKeyboard.obj
 0001:00022260       ?_AtlVerifyStackAvailable@_ATL_SAFE_ALLOCA_IMPL@ATL@@YA_NK@Z 10023260 f i POSKeyboard.obj
 0001:00022410       ?_GetEntries@?$CComEnum@UIEnumConnectionPoints@@$1?_GUID_b196b285_bab4_101a_b69c_00aa00341d07@@3U__s_GUID@@BPAUIConnectionPoint@@V?$_CopyInterface@UIConnectionPoint@@@ATL@@VCComSingleThreadModel@6@@ATL@@SGPBU_ATL_INTMAP_ENTRY@2@XZ 10023410 f i POSKeyboard.obj
 0001:00022430       ?_GetEntries@?$CComEnum@UIEnumConnections@@$1?_GUID_b196b287_bab4_101a_b69c_00aa00341d07@@3U__s_GUID@@BUtagCONNECTDATA@@V?$_Copy@UtagCONNECTDATA@@@ATL@@VCComSingleThreadModel@6@@ATL@@SGPBU_ATL_INTMAP_ENTRY@2@XZ 10023430 f i POSKeyboard.obj
 0001:00022450       ?_GetEntries@CComClassFactory@ATL@@SGPBU_ATL_INTMAP_ENTRY@2@XZ 10023450 f i POSKeyboard.obj
 0001:00022470       ?_GetEntries@COPOSPOSKeyboard@@SGPBU_ATL_INTMAP_ENTRY@ATL@@XZ 10023470 f i POSKeyboard.obj
 0001:00022490       ?_GetRawUnknown@COPOSPOSKeyboard@@QAEPAUIUnknown@@XZ 10023490 f i POSKeyboard.obj
 0001:00022500       ?_GetViewStatus@COPOSPOSKeyboard@@QAEKXZ 10023500 f i POSKeyboard.obj
 0001:00022520       ?_InternalQueryInterface@?$CComEnum@UIEnumConnectionPoints@@$1?_GUID_b196b285_bab4_101a_b69c_00aa00341d07@@3U__s_GUID@@BPAUIConnectionPoint@@V?$_CopyInterface@UIConnectionPoint@@@ATL@@VCComSingleThreadModel@6@@ATL@@QAEJABU_GUID@@PAPAX@Z 10023520 f i POSKeyboard.obj
 0001:00022560       ?_InternalQueryInterface@?$CComEnum@UIEnumConnections@@$1?_GUID_b196b287_bab4_101a_b69c_00aa00341d07@@3U__s_GUID@@BUtagCONNECTDATA@@V?$_Copy@UtagCONNECTDATA@@@ATL@@VCComSingleThreadModel@6@@ATL@@QAEJABU_GUID@@PAPAX@Z 10023560 f i POSKeyboard.obj
 0001:000225a0       ?_InternalQueryInterface@CComClassFactory@ATL@@QAEJABU_GUID@@PAPAX@Z 100235a0 f i POSKeyboard.obj
 0001:000225e0       ?_InternalQueryInterface@COPOSPOSKeyboard@@QAEJABU_GUID@@PAPAX@Z 100235e0 f i POSKeyboard.obj
 0001:00022620       ?_LocCPQueryInterface@?$IConnectionPointImpl@VCOPOSPOSKeyboard@@$1?DIID__IOPOSPOSKeyboardEvents@@3U_GUID@@BVCComDynamicUnkArray@ATL@@@ATL@@UAGJABU_GUID@@PAPAX@Z 10023620 f i POSKeyboard.obj
 0001:000226c0       ?_LocCPQueryInterface@?$IConnectionPointImpl@VCOPOSPOSKeyboard@@$1?IID_IPropertyNotifySink@@3U_GUID@@BVCComDynamicUnkArray@ATL@@@ATL@@UAGJABU_GUID@@PAPAX@Z 100236c0 f i POSKeyboard.obj
 0001:00022760       ?atlCreate@?$CWindowImpl@VCOPOSPOSKeyboard@@VCWindow@ATL@@V?$CWinTraits@$0FGAAAAAA@$0A@@3@@ATL@@QAEPAUHWND__@@PAU3@V_U_RECT@2@PB_WKKV_U_MENUorID@2@PAX@Z 10023760 f i POSKeyboard.obj
 0001:00022810       ?atlCreate@?$CWindowImplBaseT@VCWindow@ATL@@V?$CWinTraits@$0FGAAAAAA@$0A@@2@@ATL@@QAEPAUHWND__@@PAU3@V_U_RECT@2@PB_WKKV_U_MENUorID@2@GPAX@Z 10023810 f i POSKeyboard.obj
 0001:00022990       ?atlCreate@CRegKey@ATL@@QAEJPAUHKEY__@@PB_WPA_WKKPAU_SECURITY_ATTRIBUTES@@PAK@Z 10023990 f i POSKeyboard.obj
 0001:00022af0       ?begin@CComDynamicUnkArray@ATL@@QAEPAPAUIUnknown@@XZ 10023af0 f i POSKeyboard.obj
 0001:00022b10       ?copy@?$_Copy@UtagCONNECTDATA@@@ATL@@SAJPAUtagCONNECTDATA@@PBU3@@Z 10023b10 f i POSKeyboard.obj
 0001:00022bd0       ?copy@?$_CopyInterface@UIConnectionPoint@@@ATL@@SAJPAPAUIConnectionPoint@@PBQAU3@@Z 10023bd0 f i POSKeyboard.obj
 0001:00022c90       ?destroy@?$_Copy@UtagCONNECTDATA@@@ATL@@SAXPAUtagCONNECTDATA@@@Z 10023c90 f i POSKeyboard.obj
 0001:00022cd0       ?destroy@?$_CopyInterface@UIConnectionPoint@@@ATL@@SAXPAPAUIConnectionPoint@@@Z 10023cd0 f i POSKeyboard.obj
 0001:00022d10       ?end@CComDynamicUnkArray@ATL@@QAEPAPAUIUnknown@@XZ 10023d10 f i POSKeyboard.obj
 0001:00022d30       ?init@?$_Copy@UtagCONNECTDATA@@@ATL@@SAXPAUtagCONNECTDATA@@@Z 10023d30 f i POSKeyboard.obj
 0001:00022d40       ?init@?$_CopyInterface@UIConnectionPoint@@@ATL@@SAXPAPAUIConnectionPoint@@@Z 10023d40 f i POSKeyboard.obj
 0001:00022d50       ?memcpy_s@Checked@ATL@@YAXPAXIPBXI@Z 10023d50 f i POSKeyboard.obj
 0001:00022d80       ?ocscpy_s@@YA_NPA_WIPB_W@Z 10023d80 f i POSKeyboard.obj
 0001:00022de0       ?ocslen@@YAHPB_W@Z         10023de0 f i POSKeyboard.obj
 0001:00022e10       ?tcsncpy_s@Checked@ATL@@YAHPA_WIPB_WI@Z 10023e10 f i POSKeyboard.obj
 0001:00022e40       ?wcscat_s@Checked@ATL@@YAXPA_WIPB_W@Z 10023e40 f i POSKeyboard.obj
 0001:00022e70       ?wcscpy_s@Checked@ATL@@YAXPA_WIPB_W@Z 10023e70 f i POSKeyboard.obj
 0001:00022ea0       ?wcsncpy_s@Checked@ATL@@YAHPA_WIPB_WI@Z 10023ea0 f i POSKeyboard.obj
 0001:00022ed0       ?wcsstr@@YAPA_WPA_WPB_W@Z  10023ed0 f i POSKeyboard.obj
 0001:00022ef0       _InlineIsEqualGUID         10023ef0 f i POSKeyboard.obj
 0001:00022f90       _IsEqualGUID               10023f90 f i POSKeyboard.obj
 0001:00022fe0       ??0COPOSPOSKeyboard@@QAE@XZ 10023fe0 f   POSKeyboardImpl.obj
 0001:000230f0       ?FinalConstruct@COPOSPOSKeyboard@@QAEJXZ 100240f0 f   POSKeyboardImpl.obj
 0001:000231c0       ??1COPOSPOSKeyboard@@UAE@XZ 100241c0 f   POSKeyboardImpl.obj
 0001:000232a0       ?WriteTrace@COPOSPOSKeyboard@@QAAXPB_WZZ 100242a0 f   POSKeyboardImpl.obj
 0001:00023350       ?WriteTraceString@COPOSPOSKeyboard@@QAEXPB_WPA_W@Z 10024350 f   POSKeyboardImpl.obj
 0001:000236c0       ?WriteTraceString@COPOSPOSKeyboard@@QAAXPAXHHHPB_WZZ 100246c0 f   POSKeyboardImpl.obj
 0001:000238f0       ?WriteTraceError@COPOSPOSKeyboard@@QAEXPB_WK@Z 100248f0 f   POSKeyboardImpl.obj
 0001:000239e0       ?WriteTraceMethods@COPOSPOSKeyboard@@QAEXPAJH@Z 100249e0 f   POSKeyboardImpl.obj
 0001:00023a50       ?GetOposProp@COPOSPOSKeyboard@@IAEJPBDJPAJJ@Z 10024a50 f   POSKeyboardImpl.obj
 0001:00023cc0       ?SetOposProp@COPOSPOSKeyboard@@IAEJPBDJJJ@Z 10024cc0 f   POSKeyboardImpl.obj
 0001:00023f50       ?GetOposProp@COPOSPOSKeyboard@@IAEJPBDJPAFJ@Z 10024f50 f   POSKeyboardImpl.obj
 0001:00023ff0       ?SetOposProp@COPOSPOSKeyboard@@IAEJPBDJFJ@Z 10024ff0 f   POSKeyboardImpl.obj
 0001:00024050       ?GetOposProp@COPOSPOSKeyboard@@IAEJPBDJPAPA_WJ@Z 10025050 f   POSKeyboardImpl.obj
 0001:000242d0       ?SetOposProp@COPOSPOSKeyboard@@IAEJPBDJPA_WJ@Z 100252d0 f   POSKeyboardImpl.obj
 0001:00024610       ?DoInvoke@COPOSPOSKeyboard@@IAEJPBDJPAVOposVariant@@IHPAJ_N@Z 10025610 f   POSKeyboardImpl.obj
 0001:00024f40       ?SetCOFreezeEvents@COPOSPOSKeyboard@@IAEXF@Z 10025f40 f   POSKeyboardImpl.obj
 0001:00025080       ?FreezeEvents@COPOSPOSKeyboard@@MAGJH@Z 10026080 f   POSKeyboardImpl.obj
 0001:00025160       ?OnDraw@COPOSPOSKeyboard@@MAEJAAUATL_DRAWINFO@@@Z 10026160 f   POSKeyboardImpl.obj
 0001:00025300       ?SOProcessID@COPOSPOSKeyboard@@UAGJPAJ@Z 10026300 f   POSKeyboardImpl.obj
 0001:00025340       ?get_OpenResult@COPOSPOSKeyboard@@UAGJPAJ@Z 10026340 f   POSKeyboardImpl.obj
 0001:00025380       ?get_CheckHealthText@COPOSPOSKeyboard@@UAGJPAPA_W@Z 10026380 f   POSKeyboardImpl.obj
 0001:000253b0       ?get_Claimed@COPOSPOSKeyboard@@UAGJPAF@Z 100263b0 f   POSKeyboardImpl.obj
 0001:000253e0       ?get_DataEventEnabled@COPOSPOSKeyboard@@UAGJPAF@Z 100263e0 f   POSKeyboardImpl.obj
 0001:00025410       ?put_DataEventEnabled@COPOSPOSKeyboard@@UAGJF@Z 10026410 f   POSKeyboardImpl.obj
 0001:00025440       ?get_DeviceEnabled@COPOSPOSKeyboard@@UAGJPAF@Z 10026440 f   POSKeyboardImpl.obj
 0001:00025470       ?put_DeviceEnabled@COPOSPOSKeyboard@@UAGJF@Z 10026470 f   POSKeyboardImpl.obj
 0001:000254a0       ?get_FreezeEvents@COPOSPOSKeyboard@@UAGJPAF@Z 100264a0 f   POSKeyboardImpl.obj
 0001:000254d0       ?put_FreezeEvents@COPOSPOSKeyboard@@UAGJF@Z 100264d0 f   POSKeyboardImpl.obj
 0001:00025560       ?get_ResultCode@COPOSPOSKeyboard@@UAGJPAJ@Z 10026560 f   POSKeyboardImpl.obj
 0001:000255f0       ?get_ResultCodeExtended@COPOSPOSKeyboard@@UAGJPAJ@Z 100265f0 f   POSKeyboardImpl.obj
 0001:00025620       ?get_State@COPOSPOSKeyboard@@UAGJPAJ@Z 10026620 f   POSKeyboardImpl.obj
 0001:00025670       ?get_ControlObjectDescription@COPOSPOSKeyboard@@UAGJPAPA_W@Z 10026670 f   POSKeyboardImpl.obj
 0001:000256f0       ?get_ControlObjectVersion@COPOSPOSKeyboard@@UAGJPAJ@Z 100266f0 f   POSKeyboardImpl.obj
 0001:00025730       ?get_ServiceObjectDescription@COPOSPOSKeyboard@@UAGJPAPA_W@Z 10026730 f   POSKeyboardImpl.obj
 0001:00025760       ?get_ServiceObjectVersion@COPOSPOSKeyboard@@UAGJPAJ@Z 10026760 f   POSKeyboardImpl.obj
 0001:00025790       ?get_DeviceDescription@COPOSPOSKeyboard@@UAGJPAPA_W@Z 10026790 f   POSKeyboardImpl.obj
 0001:000257c0       ?get_DeviceName@COPOSPOSKeyboard@@UAGJPAPA_W@Z 100267c0 f   POSKeyboardImpl.obj
 0001:000257f0       ?CheckHealth@COPOSPOSKeyboard@@UAGJJPAJ@Z 100267f0 f   POSKeyboardImpl.obj
 0001:00025890       ?ClaimDevice@COPOSPOSKeyboard@@UAGJJPAJ@Z 10026890 f   POSKeyboardImpl.obj
 0001:00025970       ?ClearInput@COPOSPOSKeyboard@@UAGJPAJ@Z 10026970 f   POSKeyboardImpl.obj
 0001:000259a0       ?Close@COPOSPOSKeyboard@@UAGJPAJ@Z 100269a0 f   POSKeyboardImpl.obj
 0001:00025a70       ?DirectIO@COPOSPOSKeyboard@@UAGJJPAJPAPA_W0@Z 10026a70 f   POSKeyboardImpl.obj
 0001:00025b80       ?Open@COPOSPOSKeyboard@@UAGJPA_WPAJ@Z 10026b80 f   POSKeyboardImpl.obj
 0001:00026d70       ?ReleaseDevice@COPOSPOSKeyboard@@UAGJPAJ@Z 10027d70 f   POSKeyboardImpl.obj
 0001:00026de0       ?get_POSKeyData@COPOSPOSKeyboard@@UAGJPAJ@Z 10027de0 f   POSKeyboardImpl.obj
 0001:00026e10       ?get_AutoDisable@COPOSPOSKeyboard@@UAGJPAF@Z 10027e10 f   POSKeyboardImpl.obj
 0001:00026e40       ?put_AutoDisable@COPOSPOSKeyboard@@UAGJF@Z 10027e40 f   POSKeyboardImpl.obj
 0001:00026e70       ?get_BinaryConversion@COPOSPOSKeyboard@@UAGJPAJ@Z 10027e70 f   POSKeyboardImpl.obj
 0001:00026ea0       ?put_BinaryConversion@COPOSPOSKeyboard@@UAGJJ@Z 10027ea0 f   POSKeyboardImpl.obj
 0001:00026ed0       ?get_DataCount@COPOSPOSKeyboard@@UAGJPAJ@Z 10027ed0 f   POSKeyboardImpl.obj
 0001:00026f00       ?get_CapKeyUp@COPOSPOSKeyboard@@UAGJPAF@Z 10027f00 f   POSKeyboardImpl.obj
 0001:00026f30       ?get_EventTypes@COPOSPOSKeyboard@@UAGJPAJ@Z 10027f30 f   POSKeyboardImpl.obj
 0001:00026f60       ?put_EventTypes@COPOSPOSKeyboard@@UAGJJ@Z 10027f60 f   POSKeyboardImpl.obj
 0001:00026f90       ?get_POSKeyEventType@COPOSPOSKeyboard@@UAGJPAJ@Z 10027f90 f   POSKeyboardImpl.obj
 0001:00026fc0       ?get_CapPowerReporting@COPOSPOSKeyboard@@UAGJPAJ@Z 10027fc0 f   POSKeyboardImpl.obj
 0001:00026ff0       ?get_PowerNotify@COPOSPOSKeyboard@@UAGJPAJ@Z 10027ff0 f   POSKeyboardImpl.obj
 0001:00027020       ?put_PowerNotify@COPOSPOSKeyboard@@UAGJJ@Z 10028020 f   POSKeyboardImpl.obj
 0001:00027050       ?get_PowerState@COPOSPOSKeyboard@@UAGJPAJ@Z 10028050 f   POSKeyboardImpl.obj
 0001:00027080       ?get_CapStatisticsReporting@COPOSPOSKeyboard@@UAGJPAF@Z 10028080 f   POSKeyboardImpl.obj
 0001:000270b0       ?get_CapUpdateStatistics@COPOSPOSKeyboard@@UAGJPAF@Z 100280b0 f   POSKeyboardImpl.obj
 0001:000270e0       ?ResetStatistics@COPOSPOSKeyboard@@UAGJPA_WPAJ@Z 100280e0 f   POSKeyboardImpl.obj
 0001:00027190       ?RetrieveStatistics@COPOSPOSKeyboard@@UAGJPAPA_WPAJ@Z 10028190 f   POSKeyboardImpl.obj
 0001:00027240       ?UpdateStatistics@COPOSPOSKeyboard@@UAGJPA_WPAJ@Z 10028240 f   POSKeyboardImpl.obj
 0001:000272f0       ?get_CapCompareFirmwareVersion@COPOSPOSKeyboard@@UAGJPAF@Z 100282f0 f   POSKeyboardImpl.obj
 0001:00027320       ?get_CapUpdateFirmware@COPOSPOSKeyboard@@UAGJPAF@Z 10028320 f   POSKeyboardImpl.obj
 0001:00027350       ?CompareFirmwareVersion@COPOSPOSKeyboard@@UAGJPA_WPAJ1@Z 10028350 f   POSKeyboardImpl.obj
 0001:00027440       ?UpdateFirmware@COPOSPOSKeyboard@@UAGJPA_WPAJ@Z 10028440 f   POSKeyboardImpl.obj
 0001:000274f0       ??0?$CComControl@VCOPOSPOSKeyboard@@V?$CWindowImpl@VCOPOSPOSKeyboard@@VCWindow@ATL@@V?$CWinTraits@$0FGAAAAAA@$0A@@3@@ATL@@@ATL@@QAE@XZ 100284f0 f i POSKeyboardImpl.obj
 0001:00027530       ??0?$CComPtr@UIAdviseSink@@@ATL@@QAE@XZ 10028530 f i POSKeyboardImpl.obj
 0001:00027560       ??0?$CComPtr@UIDataAdviseHolder@@@ATL@@QAE@XZ 10028560 f i POSKeyboardImpl.obj
 0001:00027590       ??0?$CComPtr@UIOleAdviseHolder@@@ATL@@QAE@XZ 10028590 f i POSKeyboardImpl.obj
 0001:000275c0       ??0?$CComPtr@UIOleClientSite@@@ATL@@QAE@XZ 100285c0 f i POSKeyboardImpl.obj
 0001:000275f0       ??0?$CComPtr@UIOleInPlaceSiteWindowless@@@ATL@@QAE@XZ 100285f0 f i POSKeyboardImpl.obj
 0001:00027620       ??0?$CComPtrBase@UIAdviseSink@@@ATL@@IAE@XZ 10028620 f i POSKeyboardImpl.obj
 0001:00027640       ??0?$CComPtrBase@UIDataAdviseHolder@@@ATL@@IAE@XZ 10028640 f i POSKeyboardImpl.obj
 0001:00027660       ??0?$CComPtrBase@UIOleAdviseHolder@@@ATL@@IAE@XZ 10028660 f i POSKeyboardImpl.obj
 0001:00027680       ??0?$CComPtrBase@UIOleClientSite@@@ATL@@IAE@XZ 10028680 f i POSKeyboardImpl.obj
 0001:000276a0       ??0?$CComPtrBase@UIOleInPlaceSiteWindowless@@@ATL@@IAE@XZ 100286a0 f i POSKeyboardImpl.obj
 0001:000276c0       ??0?$CComQIPtr@UIDispatch@@$1?_GUID_00020400_0000_0000_c000_000000000046@@3U__s_GUID@@B@ATL@@QAE@XZ 100286c0 f i POSKeyboardImpl.obj
 0001:000276f0       ??0?$CProxy_IOPOSEvents@VCOPOSPOSKeyboard@@@@QAE@PAVCOPOSPOSKeyboard@@@Z 100286f0 f i POSKeyboardImpl.obj
 0001:00027760       ??0?$CWindowImpl@VCOPOSPOSKeyboard@@VCWindow@ATL@@V?$CWinTraits@$0FGAAAAAA@$0A@@3@@ATL@@QAE@XZ 10028760 f i POSKeyboardImpl.obj
 0001:00027790       ??0?$CWindowImplBaseT@VCWindow@ATL@@V?$CWinTraits@$0FGAAAAAA@$0A@@2@@ATL@@QAE@XZ 10028790 f i POSKeyboardImpl.obj
 0001:000277d0       ??0?$CWindowImplRoot@VCWindow@ATL@@@ATL@@QAE@XZ 100287d0 f i POSKeyboardImpl.obj
 0001:00027830       ??0?$IConnectionPointContainerImpl@VCOPOSPOSKeyboard@@@ATL@@QAE@XZ 10028830 f i POSKeyboardImpl.obj
 0001:00027860       ??0?$IConnectionPointImpl@VCOPOSPOSKeyboard@@$1?DIID__IOPOSPOSKeyboardEvents@@3U_GUID@@BVCComDynamicUnkArray@ATL@@@ATL@@QAE@XZ 10028860 f i POSKeyboardImpl.obj
 0001:000278a0       ??0?$IConnectionPointImpl@VCOPOSPOSKeyboard@@$1?IID_IPropertyNotifySink@@3U_GUID@@BVCComDynamicUnkArray@ATL@@@ATL@@QAE@XZ 100288a0 f i POSKeyboardImpl.obj
 0001:000278e0       ??0?$IDataObjectImpl@VCOPOSPOSKeyboard@@@ATL@@QAE@XZ 100288e0 f i POSKeyboardImpl.obj
 0001:00027910       ??0?$IDispatchImpl@UIOPOSPOSKeyboard@@$1?IID_IOPOSPOSKeyboard@@3U_GUID@@B$1?LIBID_OposPOSKeyboard_CCO@@3U3@B$00$0A@VCComTypeInfoHolder@ATL@@@ATL@@QAE@XZ 10028910 f i POSKeyboardImpl.obj
 0001:00027940       ??0?$IObjectSafetyImpl@VCOPOSPOSKeyboard@@$02@ATL@@QAE@XZ 10028940 f i POSKeyboardImpl.obj
 0001:00027980       ??0?$IOleControlImpl@VCOPOSPOSKeyboard@@@ATL@@QAE@XZ 10028980 f i POSKeyboardImpl.obj
 0001:000279b0       ??0?$IOleInPlaceActiveObjectImpl@VCOPOSPOSKeyboard@@@ATL@@QAE@XZ 100289b0 f i POSKeyboardImpl.obj
 0001:000279e0       ??0?$IOleInPlaceObjectWindowlessImpl@VCOPOSPOSKeyboard@@@ATL@@QAE@XZ 100289e0 f i POSKeyboardImpl.obj
 0001:00027a10       ??0?$IOleObjectImpl@VCOPOSPOSKeyboard@@@ATL@@QAE@XZ 10028a10 f i POSKeyboardImpl.obj
 0001:00027a40       ??0?$IPersistStorageImpl@VCOPOSPOSKeyboard@@@ATL@@QAE@XZ 10028a40 f i POSKeyboardImpl.obj
 0001:00027a70       ??0?$IPersistStreamInitImpl@VCOPOSPOSKeyboard@@@ATL@@QAE@XZ 10028a70 f i POSKeyboardImpl.obj
 0001:00027aa0       ??0?$IPropertyNotifySinkCP@VCOPOSPOSKeyboard@@VCComDynamicUnkArray@ATL@@@ATL@@QAE@XZ 10028aa0 f i POSKeyboardImpl.obj
 0001:00027ad0       ??0?$IProvideClassInfo2Impl@$1?CLSID_OPOSPOSKeyboard@@3U_GUID@@B$1?DIID__IOPOSPOSKeyboardEvents@@3U2@B$1?LIBID_OposPOSKeyboard_CCO@@3U2@B$00$0A@VCComTypeInfoHolder@ATL@@@ATL@@QAE@XZ 10028ad0 f i POSKeyboardImpl.obj
 0001:00027b00       ??0?$IQuickActivateImpl@VCOPOSPOSKeyboard@@@ATL@@QAE@XZ 10028b00 f i POSKeyboardImpl.obj
 0001:00027b30       ??0?$ISpecifyPropertyPagesImpl@VCOPOSPOSKeyboard@@@ATL@@QAE@XZ 10028b30 f i POSKeyboardImpl.obj
 0001:00027b60       ??0?$IViewObjectExImpl@VCOPOSPOSKeyboard@@@ATL@@QAE@XZ 10028b60 f i POSKeyboardImpl.obj
 0001:00027b90       ??0?$_ICPLocator@$1?DIID__IOPOSPOSKeyboardEvents@@3U_GUID@@B@ATL@@QAE@XZ 10028b90 f i POSKeyboardImpl.obj
 0001:00027bb0       ??0?$_ICPLocator@$1?IID_IPropertyNotifySink@@3U_GUID@@B@ATL@@QAE@XZ 10028bb0 f i POSKeyboardImpl.obj
 0001:00027bd0       ??0CComControlBase@ATL@@QAE@AAPAUHWND__@@@Z 10028bd0 f i POSKeyboardImpl.obj
 0001:00027d80       ??0CComDynamicUnkArray@ATL@@QAE@XZ 10028d80 f i POSKeyboardImpl.obj
 0001:00027db0       ??0CDynamicStdCallThunk2@ATL@@QAE@XZ 10028db0 f i POSKeyboardImpl.obj
 0001:00027dd0       ??0CMessageMap@ATL@@QAE@XZ 10028dd0 f i POSKeyboardImpl.obj
 0001:00027df0       ??0CWindow@ATL@@QAE@PAUHWND__@@@Z 10028df0 f i POSKeyboardImpl.obj
 0001:00027e10       ??0CWndProcThunk@ATL@@QAE@XZ 10028e10 f i POSKeyboardImpl.obj
 0001:00027e40       ??0IConnectionPointContainer@@QAE@XZ 10028e40 f i POSKeyboardImpl.obj
 0001:00027e70       ??0IDataObject@@QAE@XZ     10028e70 f i POSKeyboardImpl.obj
 0001:00027ea0       ??0IDispatch@@QAE@XZ       10028ea0 f i POSKeyboardImpl.obj
 0001:00027ed0       ??0IOPOSPOSKeyboard@@QAE@XZ 10028ed0 f i POSKeyboardImpl.obj
 0001:00027f00       ??0IOPOSPOSKeyboard_1_5@@QAE@XZ 10028f00 f i POSKeyboardImpl.obj
 0001:00027f30       ??0IOPOSPOSKeyboard_1_8@@QAE@XZ 10028f30 f i POSKeyboardImpl.obj
 0001:00027f60       ??0IOPOSPOSKeyboard_1_9@@QAE@XZ 10028f60 f i POSKeyboardImpl.obj
 0001:00027f90       ??0IObjectSafety@@QAE@XZ   10028f90 f i POSKeyboardImpl.obj
 0001:00027fc0       ??0IOleControl@@QAE@XZ     10028fc0 f i POSKeyboardImpl.obj
 0001:00027ff0       ??0IOleInPlaceActiveObject@@QAE@XZ 10028ff0 f i POSKeyboardImpl.obj
 0001:00028020       ??0IOleInPlaceObject@@QAE@XZ 10029020 f i POSKeyboardImpl.obj
 0001:00028050       ??0IOleInPlaceObjectWindowless@@QAE@XZ 10029050 f i POSKeyboardImpl.obj
 0001:00028080       ??0IOleObject@@QAE@XZ      10029080 f i POSKeyboardImpl.obj
 0001:000280b0       ??0IOleWindow@@QAE@XZ      100290b0 f i POSKeyboardImpl.obj
 0001:000280e0       ??0IPersist@@QAE@XZ        100290e0 f i POSKeyboardImpl.obj
 0001:00028110       ??0IPersistStorage@@QAE@XZ 10029110 f i POSKeyboardImpl.obj
 0001:00028140       ??0IPersistStreamInit@@QAE@XZ 10029140 f i POSKeyboardImpl.obj
 0001:00028170       ??0IProvideClassInfo2@@QAE@XZ 10029170 f i POSKeyboardImpl.obj
 0001:000281a0       ??0IProvideClassInfo@@QAE@XZ 100291a0 f i POSKeyboardImpl.obj
 0001:000281d0       ??0IQuickActivate@@QAE@XZ  100291d0 f i POSKeyboardImpl.obj
 0001:00028200       ??0ISpecifyPropertyPages@@QAE@XZ 10029200 f i POSKeyboardImpl.obj
 0001:00028230       ??0IViewObject2@@QAE@XZ    10029230 f i POSKeyboardImpl.obj
 0001:00028260       ??0IViewObject@@QAE@XZ     10029260 f i POSKeyboardImpl.obj
 0001:00028290       ??0IViewObjectEx@@QAE@XZ   10029290 f i POSKeyboardImpl.obj
 0001:000282c0       ??0OposVariantResult@@QAE@XZ 100292c0 f i POSKeyboardImpl.obj
 0001:000282f0       ??0_CW@@QAE@PBD@Z          100292f0 f i POSKeyboardImpl.obj
 0001:00028330       ??0_CW@@QAE@PB_W@Z         10029330 f i POSKeyboardImpl.obj
 0001:00028370       ??0_CWNCC@@QAE@PBD@Z       10029370 f i POSKeyboardImpl.obj
 0001:000283a0       ??1?$CComControl@VCOPOSPOSKeyboard@@V?$CWindowImpl@VCOPOSPOSKeyboard@@VCWindow@ATL@@V?$CWinTraits@$0FGAAAAAA@$0A@@3@@ATL@@@ATL@@UAE@XZ 100293a0 f i POSKeyboardImpl.obj
 0001:000283d0       ??1?$CComPtr@UIDataAdviseHolder@@@ATL@@QAE@XZ 100293d0 f i POSKeyboardImpl.obj
 0001:00028400       ??1?$CComPtr@UIOleAdviseHolder@@@ATL@@QAE@XZ 10029400 f i POSKeyboardImpl.obj
 0001:00028430       ??1?$CComPtr@UIOleInPlaceSiteWindowless@@@ATL@@QAE@XZ 10029430 f i POSKeyboardImpl.obj
 0001:00028460       ??1?$CComPtrBase@UIDataAdviseHolder@@@ATL@@QAE@XZ 10029460 f i POSKeyboardImpl.obj
 0001:000284b0       ??1?$CComPtrBase@UIOleAdviseHolder@@@ATL@@QAE@XZ 100294b0 f i POSKeyboardImpl.obj
 0001:00028500       ??1?$CComPtrBase@UIOleInPlaceSiteWindowless@@@ATL@@QAE@XZ 10029500 f i POSKeyboardImpl.obj
 0001:00028550       ??1?$CComQIPtr@UIDispatch@@$1?_GUID_00020400_0000_0000_c000_000000000046@@3U__s_GUID@@B@ATL@@QAE@XZ 10029550 f i POSKeyboardImpl.obj
 0001:00028580       ??1?$CProxy_IOPOSEvents@VCOPOSPOSKeyboard@@@@QAE@XZ 10029580 f i POSKeyboardImpl.obj
 0001:000285b0       ??1?$CWindowImpl@VCOPOSPOSKeyboard@@VCWindow@ATL@@V?$CWinTraits@$0FGAAAAAA@$0A@@3@@ATL@@UAE@XZ 100295b0 f i POSKeyboardImpl.obj
 0001:000285e0       ??1?$CWindowImplBaseT@VCWindow@ATL@@V?$CWinTraits@$0FGAAAAAA@$0A@@2@@ATL@@UAE@XZ 100295e0 f i POSKeyboardImpl.obj
 0001:00028610       ??1?$CWindowImplRoot@VCWindow@ATL@@@ATL@@UAE@XZ 10029610 f i POSKeyboardImpl.obj
 0001:000286b0       ??1?$IConnectionPointImpl@VCOPOSPOSKeyboard@@$1?DIID__IOPOSPOSKeyboardEvents@@3U_GUID@@BVCComDynamicUnkArray@ATL@@@ATL@@QAE@XZ 100296b0 f i POSKeyboardImpl.obj
 0001:00028730       ??1?$IConnectionPointImpl@VCOPOSPOSKeyboard@@$1?IID_IPropertyNotifySink@@3U_GUID@@BVCComDynamicUnkArray@ATL@@@ATL@@QAE@XZ 10029730 f i POSKeyboardImpl.obj
 0001:000287b0       ??1?$IPropertyNotifySinkCP@VCOPOSPOSKeyboard@@VCComDynamicUnkArray@ATL@@@ATL@@QAE@XZ 100297b0 f i POSKeyboardImpl.obj
 0001:000287e0       ??1CComControlBase@ATL@@UAE@XZ 100297e0 f i POSKeyboardImpl.obj
 0001:000288a0       ??1CComDynamicUnkArray@ATL@@QAE@XZ 100298a0 f i POSKeyboardImpl.obj
 0001:000288e0       ??1CDynamicStdCallThunk2@ATL@@QAE@XZ 100298e0 f i POSKeyboardImpl.obj
 0001:00028910       ??1CWndProcThunk@ATL@@QAE@XZ 10029910 f i POSKeyboardImpl.obj
 0001:00028940       ??1OposVariantResult@@QAE@XZ 10029940 f i POSKeyboardImpl.obj
 0001:00028970       ??1_CW@@QAE@XZ             10029970 f i POSKeyboardImpl.obj
 0001:000289e0       ??1_CWNCC@@QAE@XZ          100299e0 f i POSKeyboardImpl.obj
 0001:00028a10       ??B_CW@@QAEPB_WXZ          10029a10 f i POSKeyboardImpl.obj
 0001:00028a50       ??B_CWNCC@@QAEPA_WXZ       10029a50 f i POSKeyboardImpl.obj
 0001:00028a80       ??_EOposVariant@@QAEPAXI@Z 10029a80 f i POSKeyboardImpl.obj
 0001:00028b10       ?EventClaim@COPOSPOSKeyboard@@IAEXXZ 10029b10 f i POSKeyboardImpl.obj
 0001:00028b50       ?EventClose@COPOSPOSKeyboard@@IAEXXZ 10029b50 f i POSKeyboardImpl.obj
 0001:00028bf0       ?EventInit@COPOSPOSKeyboard@@IAEJXZ 10029bf0 f i POSKeyboardImpl.obj
 0001:00028e20       ?EventOpen@COPOSPOSKeyboard@@IAEXXZ 10029e20 f i POSKeyboardImpl.obj
 0001:00028e60       ?EventPreCloseRelease@COPOSPOSKeyboard@@IAEXXZ 10029e60 f i POSKeyboardImpl.obj
 0001:00028ee0       ?EventUninit@COPOSPOSKeyboard@@IAEXXZ 10029ee0 f i POSKeyboardImpl.obj
 0001:00029010       ?EventWindowProc@COPOSPOSKeyboard@@IAGJIIJ@Z 1002a010 f i POSKeyboardImpl.obj
 0001:000291a0       ?FireEventCleanup@COPOSPOSKeyboard@@IAEXXZ 1002a1a0 f i POSKeyboardImpl.obj
 0001:000291f0       ?FireEventSetup@COPOSPOSKeyboard@@IAE_NXZ 1002a1f0 f i POSKeyboardImpl.obj
 0001:00029260       ?GetModuleInstance@CComModule@ATL@@QAEPAUHINSTANCE__@@XZ 1002a260 f i POSKeyboardImpl.obj
 0001:00029280       ?SetRC@COPOSPOSKeyboard@@IAEJJ@Z 1002a280 f i POSKeyboardImpl.obj
 0001:000292b0       ?s_EventWindowProc@COPOSPOSKeyboard@@KGJPAUHWND__@@IIJ@Z 1002a2b0 f i POSKeyboardImpl.obj
 0001:00029350       __snwprintf                1002a350 f i POSKeyboardImpl.obj
 0001:000293b0       __vfwprintf_l              1002a3b0 f i POSKeyboardImpl.obj
 0001:000293e0       __vsnwprintf               1002a3e0 f i POSKeyboardImpl.obj
 0001:00029410       __vsnwprintf_l             1002a410 f i POSKeyboardImpl.obj
 0001:00029480       _vfwprintf                 1002a480 f i POSKeyboardImpl.obj
 0001:000294a2       _DebugBreak@0              1002a4a2 f   kernel32:KERNEL32.dll
 0001:000294a8       _Sleep@4                   1002a4a8 f   kernel32:KERNEL32.dll
 0001:000294ae       _GetCurrentProcess@0       1002a4ae f   kernel32:KERNEL32.dll
 0001:000294b4       _TerminateProcess@8        1002a4b4 f   kernel32:KERNEL32.dll
 0001:000294ba       _MultiByteToWideChar@24    1002a4ba f   kernel32:KERNEL32.dll
 0001:000294c0       _WideCharToMultiByte@32    1002a4c0 f   kernel32:KERNEL32.dll
 0001:000294c6       _DecodePointer@4           1002a4c6 f   kernel32:KERNEL32.dll
 0001:000294cc       _RaiseException@16         1002a4cc f   kernel32:KERNEL32.dll
 0001:000294d2       _GetLastError@0            1002a4d2 f   kernel32:KERNEL32.dll
 0001:000294d8       _SetLastError@4            1002a4d8 f   kernel32:KERNEL32.dll
 0001:000294de       _InitializeCriticalSectionEx@12 1002a4de f   kernel32:KERNEL32.dll
 0001:000294e4       _DeleteCriticalSection@4   1002a4e4 f   kernel32:KERNEL32.dll
 0001:000294ea       _EncodePointer@4           1002a4ea f   kernel32:KERNEL32.dll
 0001:000294f0       _EnterCriticalSection@4    1002a4f0 f   kernel32:KERNEL32.dll
 0001:000294f6       _LeaveCriticalSection@4    1002a4f6 f   kernel32:KERNEL32.dll
 0001:000294fc       _ResetEvent@4              1002a4fc f   kernel32:KERNEL32.dll
 0001:00029502       _ReleaseMutex@4            1002a502 f   kernel32:KERNEL32.dll
 0001:00029508       _WaitForSingleObject@8     1002a508 f   kernel32:KERNEL32.dll
 0001:0002950e       _GetCurrentThreadId@0      1002a50e f   kernel32:KERNEL32.dll
 0001:00029514       _DisableThreadLibraryCalls@4 1002a514 f   kernel32:KERNEL32.dll
 0001:0002951a       _FreeLibrary@4             1002a51a f   kernel32:KERNEL32.dll
 0001:00029520       _GetModuleFileNameW@12     1002a520 f   kernel32:KERNEL32.dll
 0001:00029526       _GetModuleHandleW@4        1002a526 f   kernel32:KERNEL32.dll
 0001:0002952c       _GetProcAddress@8          1002a52c f   kernel32:KERNEL32.dll
 0001:00029532       _LoadLibraryExW@12         1002a532 f   kernel32:KERNEL32.dll
 0001:00029538       _LoadResource@8            1002a538 f   kernel32:KERNEL32.dll
 0001:0002953e       _SizeofResource@8          1002a53e f   kernel32:KERNEL32.dll
 0001:00029544       _FindResourceW@12          1002a544 f   kernel32:KERNEL32.dll
 0001:0002954a       _GlobalAlloc@8             1002a54a f   kernel32:KERNEL32.dll
 0001:00029550       _GlobalUnlock@4            1002a550 f   kernel32:KERNEL32.dll
 0001:00029556       _GlobalLock@4              1002a556 f   kernel32:KERNEL32.dll
 0001:0002955c       _MulDiv@12                 1002a55c f   kernel32:KERNEL32.dll
 0001:00029562       _lstrcmpiW@8               1002a562 f   kernel32:KERNEL32.dll
 0001:00029568       _DeleteFileW@4             1002a568 f   kernel32:KERNEL32.dll
 0001:0002956e       _CloseHandle@4             1002a56e f   kernel32:KERNEL32.dll
 0001:00029574       _SetEvent@4                1002a574 f   kernel32:KERNEL32.dll
 0001:0002957a       _CreateMutexW@12           1002a57a f   kernel32:KERNEL32.dll
 0001:00029580       _CreateEventW@16           1002a580 f   kernel32:KERNEL32.dll
 0001:00029586       _GetCurrentProcessId@0     1002a586 f   kernel32:KERNEL32.dll
 0001:0002958c       _LocalFree@4               1002a58c f   kernel32:KERNEL32.dll
 0001:00029592       _FormatMessageW@28         1002a592 f   kernel32:KERNEL32.dll
 0001:00029598       _GetActiveWindow@0         1002a598 f   user32:USER32.dll
 0001:0002959e       _MessageBoxW@16            1002a59e f   user32:USER32.dll
 0001:000295a4       _UnregisterClassW@8        1002a5a4 f   user32:USER32.dll
 0001:000295aa       _PostMessageW@16           1002a5aa f   user32:USER32.dll
 0001:000295b0       _DefWindowProcW@16         1002a5b0 f   user32:USER32.dll
 0001:000295b6       _CallWindowProcW@20        1002a5b6 f   user32:USER32.dll
 0001:000295bc       _RegisterClassExW@4        1002a5bc f   user32:USER32.dll
 0001:000295c2       _GetClassInfoExW@12        1002a5c2 f   user32:USER32.dll
 0001:000295c8       _CreateWindowExW@48        1002a5c8 f   user32:USER32.dll
 0001:000295ce       _IsWindow@4                1002a5ce f   user32:USER32.dll
 0001:000295d4       _IsChild@8                 1002a5d4 f   user32:USER32.dll
 0001:000295da       _DestroyWindow@4           1002a5da f   user32:USER32.dll
 0001:000295e0       _ShowWindow@8              1002a5e0 f   user32:USER32.dll
 0001:000295e6       _SetWindowPos@28           1002a5e6 f   user32:USER32.dll
 0001:000295ec       _CharNextW@4               1002a5ec f   user32:USER32.dll
 0001:000295f2       _SetFocus@4                1002a5f2 f   user32:USER32.dll
 0001:000295f8       _GetFocus@0                1002a5f8 f   user32:USER32.dll
 0001:000295fe       _GetKeyState@4             1002a5fe f   user32:USER32.dll
 0001:00029604       _GetDC@4                   1002a604 f   user32:USER32.dll
 0001:0002960a       _ReleaseDC@8               1002a60a f   user32:USER32.dll
 0001:00029610       _BeginPaint@8              1002a610 f   user32:USER32.dll
 0001:00029616       _EndPaint@8                1002a616 f   user32:USER32.dll
 0001:0002961c       _SetWindowRgn@12           1002a61c f   user32:USER32.dll
 0001:00029622       _InvalidateRect@12         1002a622 f   user32:USER32.dll
 0001:00029628       _GetClientRect@8           1002a628 f   user32:USER32.dll
 0001:0002962e       _IntersectRect@12          1002a62e f   user32:USER32.dll
 0001:00029634       _UnionRect@12              1002a634 f   user32:USER32.dll
 0001:0002963a       _OffsetRect@12             1002a63a f   user32:USER32.dll
 0001:00029640       _EqualRect@8               1002a640 f   user32:USER32.dll
 0001:00029646       _PtInRect@12               1002a646 f   user32:USER32.dll
 0001:0002964c       _GetWindowLongW@8          1002a64c f   user32:USER32.dll
 0001:00029652       _SetWindowLongW@12         1002a652 f   user32:USER32.dll
 0001:00029658       _GetParent@4               1002a658 f   user32:USER32.dll
 0001:0002965e       _LoadCursorW@8             1002a65e f   user32:USER32.dll
 0001:00029664       _PeekMessageW@20           1002a664 f   user32:USER32.dll
 0001:0002966a       _RegisterClassW@4          1002a66a f   user32:USER32.dll
 0001:00029670       _LoadBitmapW@8             1002a670 f   user32:USER32.dll
 0001:00029676       _CloseMetaFile@4           1002a676 f   gdi32:GDI32.dll
 0001:0002967c       _CreateDCW@16              1002a67c f   gdi32:GDI32.dll
 0001:00029682       _CreateMetaFileW@4         1002a682 f   gdi32:GDI32.dll
 0001:00029688       _CreateRectRgnIndirect@4   1002a688 f   gdi32:GDI32.dll
 0001:0002968e       _DeleteDC@4                1002a68e f   gdi32:GDI32.dll
 0001:00029694       _DeleteMetaFile@4          1002a694 f   gdi32:GDI32.dll
 0001:0002969a       _GetDeviceCaps@8           1002a69a f   gdi32:GDI32.dll
 0001:000296a0       _RestoreDC@8               1002a6a0 f   gdi32:GDI32.dll
 0001:000296a6       _SaveDC@4                  1002a6a6 f   gdi32:GDI32.dll
 0001:000296ac       _SetMapMode@8              1002a6ac f   gdi32:GDI32.dll
 0001:000296b2       _LPtoDP@12                 1002a6b2 f   gdi32:GDI32.dll
 0001:000296b8       _SetViewportOrgEx@16       1002a6b8 f   gdi32:GDI32.dll
 0001:000296be       _SetWindowExtEx@16         1002a6be f   gdi32:GDI32.dll
 0001:000296c4       _SetWindowOrgEx@16         1002a6c4 f   gdi32:GDI32.dll
 0001:000296ca       _BitBlt@36                 1002a6ca f   gdi32:GDI32.dll
 0001:000296d0       _CreateCompatibleDC@4      1002a6d0 f   gdi32:GDI32.dll
 0001:000296d6       _DeleteObject@4            1002a6d6 f   gdi32:GDI32.dll
 0001:000296dc       _SelectObject@8            1002a6dc f   gdi32:GDI32.dll
 0001:000296e2       _GetObjectW@12             1002a6e2 f   gdi32:GDI32.dll
 0001:000296e8       _RegCloseKey@4             1002a6e8 f   advapi32:ADVAPI32.dll
 0001:000296ee       _RegCreateKeyExW@36        1002a6ee f   advapi32:ADVAPI32.dll
 0001:000296f4       _RegDeleteKeyW@8           1002a6f4 f   advapi32:ADVAPI32.dll
 0001:000296fa       _RegDeleteValueW@8         1002a6fa f   advapi32:ADVAPI32.dll
 0001:00029700       _RegEnumKeyExW@32          1002a700 f   advapi32:ADVAPI32.dll
 0001:00029706       _RegOpenKeyExW@20          1002a706 f   advapi32:ADVAPI32.dll
 0001:0002970c       _RegQueryInfoKeyW@48       1002a70c f   advapi32:ADVAPI32.dll
 0001:00029712       _RegSetValueExW@24         1002a712 f   advapi32:ADVAPI32.dll
 0001:00029718       _RegQueryValueExW@24       1002a718 f   advapi32:ADVAPI32.dll
 0001:0002971e       _CoCreateInstance@20       1002a71e f   ole32:ole32.dll
 0001:00029724       _StringFromGUID2@12        1002a724 f   ole32:ole32.dll
 0001:0002972a       _CoTaskMemAlloc@4          1002a72a f   ole32:ole32.dll
 0001:00029730       _CoTaskMemRealloc@8        1002a730 f   ole32:ole32.dll
 0001:00029736       _CoTaskMemFree@4           1002a736 f   ole32:ole32.dll
 0001:0002973c       _ReadClassStm@8            1002a73c f   ole32:ole32.dll
 0001:00029742       _WriteClassStm@8           1002a742 f   ole32:ole32.dll
 0001:00029748       _CreateDataAdviseHolder@4  1002a748 f   ole32:ole32.dll
 0001:0002974e       _OleSaveToStream@8         1002a74e f   ole32:ole32.dll
 0001:00029754       _CreateOleAdviseHolder@4   1002a754 f   ole32:ole32.dll
 0001:0002975a       _OleRegGetUserType@12      1002a75a f   ole32:ole32.dll
 0001:00029760       _OleRegGetMiscStatus@12    1002a760 f   ole32:ole32.dll
 0001:00029766       _OleRegEnumVerbs@8         1002a766 f   ole32:ole32.dll
 0001:0002976c       _CLSIDFromProgID@8         1002a76c f   ole32:ole32.dll
 0001:00029772       _SysAllocString@4          1002a772 f   oleaut32:OLEAUT32.dll
 0001:00029778       _SysAllocStringLen@8       1002a778 f   oleaut32:OLEAUT32.dll
 0001:0002977e       _SysFreeString@4           1002a77e f   oleaut32:OLEAUT32.dll
 0001:00029784       _SysStringLen@4            1002a784 f   oleaut32:OLEAUT32.dll
 0001:0002978a       _VariantClear@4            1002a78a f   oleaut32:OLEAUT32.dll
 0001:00029790       _VariantCopyInd@8          1002a790 f   oleaut32:OLEAUT32.dll
 0001:00029796       _VariantChangeType@16      1002a796 f   oleaut32:OLEAUT32.dll
 0001:0002979c       _SysStringByteLen@4        1002a79c f   oleaut32:OLEAUT32.dll
 0001:000297a2       _SysAllocStringByteLen@8   1002a7a2 f   oleaut32:OLEAUT32.dll
 0001:000297a8       _VariantInit@4             1002a7a8 f   oleaut32:OLEAUT32.dll
 0001:000297ae       _VarUI4FromStr@16          1002a7ae f   oleaut32:OLEAUT32.dll
 0001:000297b4       _LoadTypeLib@8             1002a7b4 f   oleaut32:OLEAUT32.dll
 0001:000297ba       _LoadRegTypeLib@20         1002a7ba f   oleaut32:OLEAUT32.dll
 0001:000297c0       _RegisterTypeLib@12        1002a7c0 f   oleaut32:OLEAUT32.dll
 0001:000297c6       _UnRegisterTypeLib@20      1002a7c6 f   oleaut32:OLEAUT32.dll
 0001:000297cc       _OleCreatePropertyFrame@44 1002a7cc f   oleaut32:OLEAUT32.dll
 0001:000297e0       @_RTC_AllocaHelper@12      1002a7e0 f   LIBCMTD:stack.obj
 0001:00029820       @_RTC_CheckStackVars2@12   1002a820 f   LIBCMTD:stack.obj
 0001:00029900       @_RTC_CheckStackVars@8     1002a900 f   LIBCMTD:stack.obj
 0001:00029960       __RTC_CheckEsp             1002a960 f   LIBCMTD:stack.obj
 0001:000299a0       @__security_check_cookie@4 1002a9a0 f   LIBCMTD:secchk.obj
 0001:000299c0       __CRT_RTC_INIT             1002a9c0 f   LIBCMTD:init.obj
 0001:000299d0       __CRT_RTC_INITW            1002a9d0 f   LIBCMTD:init.obj
 0001:000299e0       __RTC_InitBase             1002a9e0 f   LIBCMTD:init.obj
 0001:00029a10       __RTC_Shutdown             1002aa10 f   LIBCMTD:init.obj
 0001:00029a30       ??_U@YAPAXI@Z              1002aa30 f   LIBCMTD:new_array.obj
 0001:00029a50       ??3@YAXPAXI@Z              1002aa50 f   LIBCMTD:delete_scalar_size.obj
 0001:00029a70       ??_V@YAXPAX@Z              1002aa70 f   LIBCMTD:delete_array.obj
 0001:00029a90       ??_V@YAXPAXI@Z             1002aa90 f   LIBCMTD:delete_array_size.obj
 0001:00029ab0       ?configure_argv@__scrt_narrow_argv_policy@@SAHXZ 1002aab0 f i LIBCMTD:utility.obj
 0001:00029b60       ?initialize_environment@__scrt_narrow_environment_policy@@SAHXZ 1002ab60 f i LIBCMTD:utility.obj
 0001:00029be0       _NtCurrentTeb              1002abe0 f i LIBCMTD:utility.obj
 0001:00029bf0       ___scrt_acquire_startup_lock 1002abf0 f   LIBCMTD:utility.obj
 0001:00029c40       ___scrt_dllmain_after_initialize_c 1002ac40 f   LIBCMTD:utility.obj
 0001:00029c70       ___scrt_dllmain_before_initialize_c 1002ac70 f   LIBCMTD:utility.obj
 0001:00029c90       ___scrt_dllmain_crt_thread_attach 1002ac90 f   LIBCMTD:utility.obj
 0001:00029cc0       ___scrt_dllmain_crt_thread_detach 1002acc0 f   LIBCMTD:utility.obj
 0001:00029ce0       ___scrt_dllmain_exception_filter 1002ace0 f   LIBCMTD:utility.obj
 0001:00029d30       ___scrt_dllmain_uninitialize_c 1002ad30 f   LIBCMTD:utility.obj
 0001:00029d60       ___scrt_dllmain_uninitialize_critical 1002ad60 f   LIBCMTD:utility.obj
 0001:00029d80       ___scrt_initialize_crt     1002ad80 f   LIBCMTD:utility.obj
 0001:00029dd0       ___scrt_initialize_onexit_tables 1002add0 f   LIBCMTD:utility.obj
 0001:00029eb0       ___scrt_is_nonwritable_in_current_image 1002aeb0 f   LIBCMTD:utility.obj
 0001:00029fe0       ___scrt_release_startup_lock 1002afe0 f   LIBCMTD:utility.obj
 0001:0002a010       ___scrt_uninitialize_crt   1002b010 f   LIBCMTD:utility.obj
 0001:0002a050       __onexit                   1002b050 f   LIBCMTD:utility.obj
 0001:0002a0c0       _at_quick_exit             1002b0c0 f   LIBCMTD:utility.obj
 0001:0002a100       _atexit                    1002b100 f   LIBCMTD:utility.obj
 0001:0002a130       ??3@YAXPAX@Z               1002b130 f   LIBCMTD:delete_scalar.obj
 0001:0002a150       ___raise_securityfailure   1002b150 f   LIBCMTD:gs_report.obj
 0001:0002a180       ___report_gsfailure        1002b180 f   LIBCMTD:gs_report.obj
 0001:0002a290       ___report_rangecheckfailure 1002b290 f   LIBCMTD:gs_report.obj
 0001:0002a2a0       ___report_securityfailure  1002b2a0 f   LIBCMTD:gs_report.obj
 0001:0002a380       ___report_securityfailureEx 1002b380 f   LIBCMTD:gs_report.obj
 0001:0002a5d0       __Init_thread_abort        1002b5d0 f   LIBCMTD:thread_safe_statics.obj
 0001:0002a5f0       __Init_thread_footer       1002b5f0 f   LIBCMTD:thread_safe_statics.obj
 0001:0002a640       __Init_thread_header       1002b640 f   LIBCMTD:thread_safe_statics.obj
 0001:0002a6b0       __Init_thread_lock         1002b6b0 f   LIBCMTD:thread_safe_statics.obj
 0001:0002a6c0       __Init_thread_notify       1002b6c0 f   LIBCMTD:thread_safe_statics.obj
 0001:0002a710       __Init_thread_unlock       1002b710 f   LIBCMTD:thread_safe_statics.obj
 0001:0002a720       __Init_thread_wait         1002b720 f   LIBCMTD:thread_safe_statics.obj
 0001:0002a7b0       ??2@YAPAXIABUnothrow_t@std@@@Z 1002b7b0 f   LIBCMTD:new_scalar_nothrow.obj
 0001:0002a830       ??_U@YAPAXIABUnothrow_t@std@@@Z 1002b830 f   LIBCMTD:new_array_nothrow.obj
 0001:0002a850       __allmul                   1002b850 f   LIBCMTD:llmul.obj
 0001:0002a890       __alloca_probe_16          1002b890 f   LIBCMTD:alloca16.obj
 0001:0002a8a6       __alloca_probe_8           1002b8a6     LIBCMTD:alloca16.obj
 0001:0002a8c0       __alloca_probe             1002b8c0 f   LIBCMTD:chkstk.obj
 0001:0002a8c0       __chkstk                   1002b8c0 f   LIBCMTD:chkstk.obj
 0001:0002adc0       __CRT_INIT@12              1002bdc0 f   LIBCMTD:dll_dllmain.obj
 0001:0002ade0       __DllMainCRTStartup@12     1002bde0 f   LIBCMTD:dll_dllmain.obj
 0001:0002aea0       ?_RTC_AllocaFailure@@YAXPAXPAU_RTC_ALLOCA_NODE@@H@Z 1002bea0 f   LIBCMTD:error.obj
 0001:0002af90       ?_RTC_Failure@@YAXPAXH@Z   1002bf90 f   LIBCMTD:error.obj
 0001:0002afe0       ?_RTC_StackFailure@@YAXPAXPBD@Z 1002bfe0 f   LIBCMTD:error.obj
 0001:0002b3a0       __RTC_UninitUse            1002c3a0 f   LIBCMTD:error.obj
 0001:0002b450       __vsprintf_s_l             1002c450 f i LIBCMTD:error.obj
 0001:0002b480       _sprintf_s                 1002c480 f i LIBCMTD:error.obj
 0001:0002b4a0       ?_RTC_GetErrorFunc@@YAP6AHHPBDH00ZZPBX@Z 1002c4a0 f   LIBCMTD:userapi.obj
 0001:0002b4b0       ?_RTC_GetErrorFuncW@@YAP6AHHPB_WH00ZZPBX@Z 1002c4b0 f   LIBCMTD:userapi.obj
 0001:0002b4c0       __RTC_GetErrDesc           1002c4c0 f   LIBCMTD:userapi.obj
 0001:0002b4e0       __RTC_NumErrors            1002c4e0 f   LIBCMTD:userapi.obj
 0001:0002b4f0       __RTC_SetErrorFunc         1002c4f0 f   LIBCMTD:userapi.obj
 0001:0002b510       __RTC_SetErrorFuncW        1002c510 f   LIBCMTD:userapi.obj
 0001:0002b530       __RTC_SetErrorType         1002c530 f   LIBCMTD:userapi.obj
 0001:0002b560       ??2@YAPAXI@Z               1002c560 f   LIBCMTD:new_scalar.obj
 0001:0002b5b0       ___isa_available_init      1002c5b0 f   LIBCMTD:cpu_disp.obj
 0001:0002b8f0       __get_startup_argv_mode    1002c8f0 f   LIBCMTD:argv_mode.obj
 0001:0002b900       ___scrt_is_ucrt_dll_in_use 1002c900 f   LIBCMTD:ucrt_detection.obj
 0001:0002b930       ___scrt_fastfail           1002c930 f   LIBCMTD:utility_desktop.obj
 0001:0002ba70       ___scrt_get_show_window_mode 1002ca70 f   LIBCMTD:utility_desktop.obj
 0001:0002bab0       ___scrt_initialize_mta     1002cab0 f   LIBCMTD:utility_desktop.obj
 0001:0002bac0       ___scrt_initialize_winrt   1002cac0 f   LIBCMTD:utility_desktop.obj
 0001:0002bad0       ___scrt_is_managed_app     1002cad0 f   LIBCMTD:utility_desktop.obj
 0001:0002bb60       ___scrt_set_unhandled_exception_filter 1002cb60 f   LIBCMTD:utility_desktop.obj
 0001:0002bb70       ___scrt_exe_initialize_mta 1002cb70 f   LIBCMTD:utility_desktop.obj
 0001:0002bb70       ___scrt_stub_for_initialize_mta 1002cb70 f   LIBCMTD:utility_desktop.obj
 0001:0002bb80       ___scrt_unhandled_exception_filter@4 1002cb80 f   LIBCMTD:utility_desktop.obj
 0001:0002bc00       __crt_debugger_hook        1002cc00 f   LIBCMTD:utility_desktop.obj
 0001:0002bc10       @_guard_check_icall_nop@4  1002cc10 f i LIBCMTD:guard_support.obj
 0001:0002bc20       _ReadNoFence               1002cc20 f i LIBCMTD:guard_support.obj
 0001:0002bc40       _ReadPointerNoFence        1002cc40 f i LIBCMTD:guard_support.obj
 0001:0002bc60       __guard_icall_checks_enforced 1002cc60 f i LIBCMTD:guard_support.obj
 0001:0002bd00       ___security_init_cookie    1002cd00 f   LIBCMTD:gs_support.obj
 0001:0002bd80       ?__scrt_initialize_type_info@@YAXXZ 1002cd80 f   LIBCMTD:tncleanup.obj
 0001:0002bd90       ?__scrt_uninitialize_type_info@@YAXXZ 1002cd90 f   LIBCMTD:tncleanup.obj
 0001:0002bdb0       ___local_stdio_scanf_options 1002cdb0 f i LIBCMTD:default_local_stdio_options.obj
 0001:0002bdc0       ___scrt_initialize_default_local_stdio_options 1002cdc0 f   LIBCMTD:default_local_stdio_options.obj
 0001:0002be00       ___scrt_get_dyn_tls_init_callback 1002ce00 f   LIBCMTD:dyn_tls_init.obj
 0001:0002be10       __RTC_Initialize           1002ce10 f   LIBCMTD:initsect.obj
 0001:0002be40       __RTC_Terminate            1002ce40 f   LIBCMTD:initsect.obj
 0001:0002c2f0       ?_RTC_GetSrcLine@@YAHPAEPA_WKPAH1K@Z 1002d2f0 f   LIBCMTD:pdblkup.obj
 0001:0002c670       __except_handler4_noexcept 1002d670 f   LIBCMTD:chandler4_noexcept.obj
 0001:0002c6d0       ??0bad_alloc@std@@AAE@QBD@Z 1002d6d0 f i LIBCMTD:throw_bad_alloc.obj
 0001:0002c700       ??0bad_alloc@std@@QAE@ABV01@@Z 1002d700 f i LIBCMTD:throw_bad_alloc.obj
 0001:0002c730       ??0bad_alloc@std@@QAE@XZ   1002d730 f i LIBCMTD:throw_bad_alloc.obj
 0001:0002c760       ??0bad_array_new_length@std@@QAE@ABV01@@Z 1002d760 f i LIBCMTD:throw_bad_alloc.obj
 0001:0002c790       ??0bad_array_new_length@std@@QAE@XZ 1002d790 f i LIBCMTD:throw_bad_alloc.obj
 0001:0002c7c0       ??0exception@std@@QAE@ABV01@@Z 1002d7c0 f i LIBCMTD:throw_bad_alloc.obj
 0001:0002c800       ??0exception@std@@QAE@QBDH@Z 1002d800 f i LIBCMTD:throw_bad_alloc.obj
 0001:0002c830       ??1bad_alloc@std@@UAE@XZ   1002d830 f i LIBCMTD:throw_bad_alloc.obj
 0001:0002c850       ??1bad_array_new_length@std@@UAE@XZ 1002d850 f i LIBCMTD:throw_bad_alloc.obj
 0001:0002c870       ??1exception@std@@UAE@XZ   1002d870 f i LIBCMTD:throw_bad_alloc.obj
 0001:0002c8a0       ??_Ebad_alloc@std@@UAEPAXI@Z 1002d8a0 f i LIBCMTD:throw_bad_alloc.obj
 0001:0002c8a0       ??_Gbad_alloc@std@@UAEPAXI@Z 1002d8a0 f i LIBCMTD:throw_bad_alloc.obj
 0001:0002c8d0       ??_Ebad_array_new_length@std@@UAEPAXI@Z 1002d8d0 f i LIBCMTD:throw_bad_alloc.obj
 0001:0002c8d0       ??_Gbad_array_new_length@std@@UAEPAXI@Z 1002d8d0 f i LIBCMTD:throw_bad_alloc.obj
 0001:0002c900       ??_Eexception@std@@UAEPAXI@Z 1002d900 f i LIBCMTD:throw_bad_alloc.obj
 0001:0002c900       ??_Gexception@std@@UAEPAXI@Z 1002d900 f i LIBCMTD:throw_bad_alloc.obj
 0001:0002c930       ?__scrt_throw_std_bad_alloc@@YAXXZ 1002d930 f   LIBCMTD:throw_bad_alloc.obj
 0001:0002c950       ?__scrt_throw_std_bad_array_new_length@@YAXXZ 1002d950 f   LIBCMTD:throw_bad_alloc.obj
 0001:0002c970       ?what@exception@std@@UBEPBDXZ 1002d970 f i LIBCMTD:throw_bad_alloc.obj
 0001:0002c9a0       ??1type_info@@UAE@XZ       1002d9a0 f   LIBCMTD:std_type_info_static.obj
 0001:0002c9c0       ??_Etype_info@@UAEPAXI@Z   1002d9c0 f i LIBCMTD:std_type_info_static.obj
 0001:0002c9c0       ??_Gtype_info@@UAEPAXI@Z   1002d9c0 f i LIBCMTD:std_type_info_static.obj
 0001:0002c9ee       ??$?2PAUHINSTANCE__@@@Wrapper@?$CSimpleArray@PAUHINSTANCE__@@V?$CSimpleArrayEqualHelper@PAUHINSTANCE__@@@ATL@@@ATL@@SAPAXIPAPAUHINSTANCE__@@@Z 1002d9ee f i atls:atlbase.obj
 0001:0002c9f6       ??0?$CSimpleArray@PAUHINSTANCE__@@V?$CSimpleArrayEqualHelper@PAUHINSTANCE__@@@ATL@@@ATL@@QAE@XZ 1002d9f6 f i atls:atlbase.obj
 0001:0002ca03       ??0CAtlBaseModule@ATL@@QAE@XZ 1002da03 f   atls:atlbase.obj
 0001:0002ca56       ??0Wrapper@?$CSimpleArray@PAUHINSTANCE__@@V?$CSimpleArrayEqualHelper@PAUHINSTANCE__@@@ATL@@@ATL@@QAE@ABQAUHINSTANCE__@@@Z 1002da56 f i atls:atlbase.obj
 0001:0002ca66       ??0_ATL_BASE_MODULE70@ATL@@QAE@XZ 1002da66 f i atls:atlbase.obj
 0001:0002ca89       ??1?$CSimpleArray@PAUHINSTANCE__@@V?$CSimpleArrayEqualHelper@PAUHINSTANCE__@@@ATL@@@ATL@@QAE@XZ 1002da89 f i atls:atlbase.obj
 0001:0002ca8e       ??1CAtlBaseModule@ATL@@QAE@XZ 1002da8e f   atls:atlbase.obj
 0001:0002caa4       ??1_ATL_BASE_MODULE70@ATL@@QAE@XZ 1002daa4 f i atls:atlbase.obj
 0001:0002caac       ??A?$CSimpleArray@PAUHINSTANCE__@@V?$CSimpleArrayEqualHelper@PAUHINSTANCE__@@@ATL@@@ATL@@QAEAAPAUHINSTANCE__@@H@Z 1002daac f i atls:atlbase.obj
 0001:0002cad1       ?Add@?$CSimpleArray@PAUHINSTANCE__@@V?$CSimpleArrayEqualHelper@PAUHINSTANCE__@@@ATL@@@ATL@@QAEHABQAUHINSTANCE__@@@Z 1002dad1 f i atls:atlbase.obj
 0001:0002cb53       ?AddResourceInstance@CAtlBaseModule@ATL@@QAE_NPAUHINSTANCE__@@@Z 1002db53 f   atls:atlbase.obj
 0001:0002cb86       ?GetHInstanceAt@CAtlBaseModule@ATL@@QAEPAUHINSTANCE__@@H@Z 1002db86 f   atls:atlbase.obj
 0001:0002cbcb       ?GetSize@?$CSimpleArray@PAUHINSTANCE__@@V?$CSimpleArrayEqualHelper@PAUHINSTANCE__@@@ATL@@@ATL@@QBEHXZ 1002dbcb f i atls:atlbase.obj
 0001:0002cbcf       ?InternalSetAtIndex@?$CSimpleArray@PAUHINSTANCE__@@V?$CSimpleArrayEqualHelper@PAUHINSTANCE__@@@ATL@@@ATL@@QAEXHABQAUHINSTANCE__@@@Z 1002dbcf f i atls:atlbase.obj
 0001:0002cbe9       ?RemoveAll@?$CSimpleArray@PAUHINSTANCE__@@V?$CSimpleArrayEqualHelper@PAUHINSTANCE__@@@ATL@@@ATL@@QAEXXZ 1002dbe9 f i atls:atlbase.obj
 0001:0002cc06       ?RemoveAt@?$CSimpleArray@PAUHINSTANCE__@@V?$CSimpleArrayEqualHelper@PAUHINSTANCE__@@@ATL@@@ATL@@QAEHH@Z 1002dc06 f i atls:atlbase.obj
 0001:0002cc54       ?RemoveResourceInstance@CAtlBaseModule@ATL@@QAE_NPAUHINSTANCE__@@@Z 1002dc54 f   atls:atlbase.obj
 0001:0002ccb1       ?memmove_s@Checked@ATL@@YAXPAXIPBXI@Z 1002dcb1 f i atls:atlbase.obj
 0001:0002d00e       ?GetCodeAddress@_stdcallthunk@ATL@@QAEPAXXZ 1002e00e f i atls:atlthunk.obj
 0001:0002d038       ?Init@_stdcallthunk@ATL@@QAEHKPAX@Z 1002e038 f i atls:atlthunk.obj
 0001:0002d06d       ?__AllocStdCallThunk@@YGPAXXZ 1002e06d f   atls:atlthunk.obj
 0001:0002d072       ?__AllocStdCallThunk@ATL@@YGPAXXZ 1002e072 f   atls:atlthunk.obj
 0001:0002d077       ?__AllocStdCallThunk_cmn@@YAPAXXZ 1002e077 f   atls:atlthunk.obj
 0001:0002d13d       ?__FreeStdCallThunk@@YGXPAX@Z 1002e13d f   atls:atlthunk.obj
 0001:0002d14d       ?__FreeStdCallThunk@ATL@@YGXPAX@Z 1002e14d f   atls:atlthunk.obj
 0001:0002d15d       ?__FreeStdCallThunk_cmn@@YAXPAX@Z 1002e15d f   atls:atlthunk.obj
 0001:0002d1f8       _AtlThunk_AllocateData@0   1002e1f8 f   atls:atlthunk.obj
 0001:0002d25d       _AtlThunk_DataToCode@4     1002e25d f   atls:atlthunk.obj
 0001:0002d2a4       _AtlThunk_FreeData@4       1002e2a4 f   atls:atlthunk.obj
 0001:0002d2fa       _AtlThunk_InitData@12      1002e2fa f   atls:atlthunk.obj
 0001:0002d349       _MemoryBarrier             1002e349 f i atls:atlthunk.obj
 0001:0002d357       __InlineInterlockedCompareExchangePointer 1002e357 f i atls:atlthunk.obj
 0001:0002d370       _memset                    1002e370 f   libvcruntimed:memset.obj
 0001:0002d4d0       ??$__crt_interlocked_exchange_pointer@$$A6AXXZP6AXXZ@@YAP6AXXZPDS6AXXZQ6AXXZ@Z 1002e4d0 f i libvcruntimed:purevirt.obj
 0001:0002d4e0       ??$__crt_interlocked_read_pointer@$$A6AXXZ@@YAP6AXXZPDS6AXXZ@Z 1002e4e0 f i libvcruntimed:purevirt.obj
 0001:0002d500       ?__crt_interlocked_read_32@@YAHPDH@Z 1002e500 f i libvcruntimed:purevirt.obj
 0001:0002d520       __get_purecall_handler     1002e520 f   libvcruntimed:purevirt.obj
 0001:0002d540       __purecall                 1002e540 f   libvcruntimed:purevirt.obj
 0001:0002d570       __set_purecall_handler     1002e570 f   libvcruntimed:purevirt.obj
 0001:0002d740       _memcmp                    1002e740 f   libvcruntimed:memcmp.obj
 0001:0002e010       _memcpy                    1002f010 f   libvcruntimed:memcpy.obj
 0001:0002e590       _wcsstr                    1002f590 f   libvcruntimed:wcsstr.obj
 0001:0002eac0       __except_handler4          1002fac0 f   libvcruntimed:chandler4.obj
 0001:0002ecb0       ___vcrt_initialize         1002fcb0 f   libvcruntimed:initialization.obj
 0001:0002ecf0       ___vcrt_thread_attach      1002fcf0 f   libvcruntimed:initialization.obj
 0001:0002ed10       ___vcrt_thread_detach      1002fd10 f   libvcruntimed:initialization.obj
 0001:0002ed30       ___vcrt_uninitialize       1002fd30 f   libvcruntimed:initialization.obj
 0001:0002ed50       ___vcrt_uninitialize_critical 1002fd50 f   libvcruntimed:initialization.obj
 0001:0002ed70       ??$?0AAViterator@TryBlockMap@__FrameHandler3@@AAV012@$0A@@?$pair@Viterator@TryBlockMap@__FrameHandler3@@V123@@std@@QAE@AAViterator@TryBlockMap@__FrameHandler3@@0@Z 1002fd70 f i libvcruntimed:trnsctrl.obj
 0001:0002edc0       ??$forward@AAViterator@TryBlockMap@__FrameHandler3@@@std@@YAAAViterator@TryBlockMap@__FrameHandler3@@AAV123@@Z 1002fdc0 f i libvcruntimed:trnsctrl.obj
 0001:0002edd0       ??0iterator@TryBlockMap@__FrameHandler3@@QAE@AAV12@I@Z 1002fdd0 f i libvcruntimed:trnsctrl.obj
 0001:0002ee00       ?GetRangeOfTrysToCheck@__FrameHandler3@@SA?AU?$pair@Viterator@TryBlockMap@__FrameHandler3@@V123@@std@@AAVTryBlockMap@1@HPAXPBU_s_FuncInfo@@H@Z 1002fe00 f   libvcruntimed:trnsctrl.obj
 0001:0002eee0       ?_CallCatchBlock2@@YAPAXPAUEHRegistrationNode@@PBU_s_FuncInfo@@PAXHK@Z 1002fee0 f   libvcruntimed:trnsctrl.obj
 0001:0002ef50       ?_CallSETranslator@@YAHPAUEHExceptionRecord@@PAUEHRegistrationNode@@PAX2PBU_s_FuncInfo@@H1@Z 1002ff50 f   libvcruntimed:trnsctrl.obj
 0001:0002f050       ?_JumpToContinuation@@YGXPAXPAUEHRegistrationNode@@@Z 10030050 f   libvcruntimed:trnsctrl.obj
 0001:0002f090       ?_UnwindNestedFrames@@YGXPAUEHRegistrationNode@@PAUEHExceptionRecord@@@Z 10030090 f   libvcruntimed:trnsctrl.obj
 0001:0002f0f0       __CatchGuardHandler        100300f0 f   libvcruntimed:trnsctrl.obj
 0001:0002f140       __CreateFrameInfo          10030140 f   libvcruntimed:trnsctrl.obj
 0001:0002f170       __FindAndUnlinkFrame       10030170 f   libvcruntimed:trnsctrl.obj
 0001:0002f1e0       __TranslatorGuardHandler   100301e0 f   libvcruntimed:trnsctrl.obj
 0001:0002f290       ___CxxFrameHandler         10030290 f   libvcruntimed:trnsctrl.obj
 0001:0002f2d0       ___CxxFrameHandler2        100302d0 f   libvcruntimed:trnsctrl.obj
 0001:0002f310       ___CxxFrameHandler3        10030310 f   libvcruntimed:trnsctrl.obj
 0001:0002f350       ___CxxLongjmpUnwind@4      10030350 f   libvcruntimed:trnsctrl.obj
 0001:0002f390       ___DestructExceptionObject 10030390 f   libvcruntimed:ehhelpers.obj
 0001:0002f4b0       ?_CallMemberFunction0@@YGXQAX0@Z 100304b0 f i libvcruntimed:ehhelpers.obj
 0001:0002f550       ?raw_name@type_info@@QBEPBDXZ 10030550 f i libvcruntimed:ehhelpers.obj
 0001:0002f570       __IsExceptionObjectToBeDestroyed 10030570 f   libvcruntimed:ehhelpers.obj
 0001:0002f5b0       __SetWinRTOutOfMemoryExceptionCallback 100305b0 f   libvcruntimed:ehhelpers.obj
 0001:0002f5c0       ___AdjustPointer           100305c0 f   libvcruntimed:ehhelpers.obj
 0001:0002f610       ___FrameUnwindFilter       10030610 f   libvcruntimed:ehhelpers.obj
 0001:0002f6a0       ___GetPlatformExceptionInfo 100306a0 f   libvcruntimed:ehhelpers.obj
 0001:0002f720       ___current_exception       10030720 f   libvcruntimed:ehhelpers.obj
 0001:0002f730       ___current_exception_context 10030730 f   libvcruntimed:ehhelpers.obj
 0001:0002f740       ___processing_throw        10030740 f   libvcruntimed:ehhelpers.obj
 0001:0002f750       ___std_terminate           10030750 f   libvcruntimed:ehhelpers.obj
 0001:0002f760       __is_exception_typeof      10030760 f   libvcruntimed:ehhelpers.obj
 0001:0002f860       ??$?RD@__crt_internal_free_policy@@QBEXQBD@Z 10030860 f i libvcruntimed:std_type_info.obj
 0001:0002f880       ??$?RX@__crt_internal_free_policy@@QBEXQBX@Z 10030880 f i libvcruntimed:std_type_info.obj
 0001:0002f8a0       ??$__crt_interlocked_compare_exchange_pointer@$$CBDPAD$$T@@YAPBDPDSBDQAD$$T@Z 100308a0 f i libvcruntimed:std_type_info.obj
 0001:0002f8c0       ??$__crt_interlocked_read_pointer@$$CBD@@YAPBDPDSBD@Z 100308c0 f i libvcruntimed:std_type_info.obj
 0001:0002f8e0       ??0?$__crt_unique_heap_ptr@DU__crt_internal_free_policy@@@@QAE@QAD@Z 100308e0 f i libvcruntimed:std_type_info.obj
 0001:0002f900       ??0?$__crt_unique_heap_ptr@XU__crt_internal_free_policy@@@@QAE@QAX@Z 10030900 f i libvcruntimed:std_type_info.obj
 0001:0002f920       ??1?$__crt_unique_heap_ptr@DU__crt_internal_free_policy@@@@QAE@XZ 10030920 f i libvcruntimed:std_type_info.obj
 0001:0002f940       ??1?$__crt_unique_heap_ptr@XU__crt_internal_free_policy@@@@QAE@XZ 10030940 f i libvcruntimed:std_type_info.obj
 0001:0002f960       ??B?$__crt_unique_heap_ptr@DU__crt_internal_free_policy@@@@QBE_NXZ 10030960 f i libvcruntimed:std_type_info.obj
 0001:0002f980       ??B?$__crt_unique_heap_ptr@XU__crt_internal_free_policy@@@@QBE_NXZ 10030980 f i libvcruntimed:std_type_info.obj
 0001:0002fa10       ?detach@?$__crt_unique_heap_ptr@XU__crt_internal_free_policy@@@@QAEPAXXZ 10030a10 f i libvcruntimed:std_type_info.obj
 0001:0002fa40       ?get@?$__crt_unique_heap_ptr@DU__crt_internal_free_policy@@@@QBEPADXZ 10030a40 f i libvcruntimed:std_type_info.obj
 0001:0002fa50       ?get@?$__crt_unique_heap_ptr@XU__crt_internal_free_policy@@@@QBEPAXXZ 10030a50 f i libvcruntimed:std_type_info.obj
 0001:0002fa60       ?is_valid@?$__crt_unique_heap_ptr@DU__crt_internal_free_policy@@@@QBE_NXZ 10030a60 f i libvcruntimed:std_type_info.obj
 0001:0002fa90       ?is_valid@?$__crt_unique_heap_ptr@XU__crt_internal_free_policy@@@@QBE_NXZ 10030a90 f i libvcruntimed:std_type_info.obj
 0001:0002fac0       ?release@?$__crt_unique_heap_ptr@DU__crt_internal_free_policy@@@@QAEXXZ 10030ac0 f i libvcruntimed:std_type_info.obj
 0001:0002faf0       ?release@?$__crt_unique_heap_ptr@XU__crt_internal_free_policy@@@@QAEXXZ 10030af0 f i libvcruntimed:std_type_info.obj
 0001:0002fb20       ___std_type_info_compare   10030b20 f   libvcruntimed:std_type_info.obj
 0001:0002fb50       ___std_type_info_destroy_list 10030b50 f   libvcruntimed:std_type_info.obj
 0001:0002fb90       ___std_type_info_hash      10030b90 f   libvcruntimed:std_type_info.obj
 0001:0002fbf0       ___std_type_info_name      10030bf0 f   libvcruntimed:std_type_info.obj
 0001:0002fdd0       ___vcrt_GetModuleFileNameW 10030dd0 f   libvcruntimed:winapi_thunks.obj
 0001:0002fdf0       ___vcrt_GetModuleHandleW   10030df0 f   libvcruntimed:winapi_thunks.obj
 0001:0002fe00       ___vcrt_LoadLibraryExW     10030e00 f   libvcruntimed:winapi_thunks.obj
 0001:0002fe20       ??$?RD@__crt_public_free_policy@@QBEXQBD@Z 10030e20 f i libvcruntimed:std_exception.obj
 0001:0002fe40       ??0?$__crt_unique_heap_ptr@DU__crt_public_free_policy@@@@QAE@QAD@Z 10030e40 f i libvcruntimed:std_exception.obj
 0001:0002fe60       ??1?$__crt_unique_heap_ptr@DU__crt_public_free_policy@@@@QAE@XZ 10030e60 f i libvcruntimed:std_exception.obj
 0001:0002fe80       ??B?$__crt_unique_heap_ptr@DU__crt_public_free_policy@@@@QBE_NXZ 10030e80 f i libvcruntimed:std_exception.obj
 0001:0002fea0       ?detach@?$__crt_unique_heap_ptr@DU__crt_public_free_policy@@@@QAEPADXZ 10030ea0 f i libvcruntimed:std_exception.obj
 0001:0002fed0       ?get@?$__crt_unique_heap_ptr@DU__crt_public_free_policy@@@@QBEPADXZ 10030ed0 f i libvcruntimed:std_exception.obj
 0001:0002fee0       ?is_valid@?$__crt_unique_heap_ptr@DU__crt_public_free_policy@@@@QBE_NXZ 10030ee0 f i libvcruntimed:std_exception.obj
 0001:0002ff10       ?release@?$__crt_unique_heap_ptr@DU__crt_public_free_policy@@@@QAEXXZ 10030f10 f i libvcruntimed:std_exception.obj
 0001:0002ff40       ___std_exception_copy      10030f40 f   libvcruntimed:std_exception.obj
 0001:00030030       ___std_exception_destroy   10031030 f   libvcruntimed:std_exception.obj
 0001:00030060       __CxxThrowException@8      10031060 f   libvcruntimed:throw.obj
 0001:00030110       _memmove                   10031110 f   libvcruntimed:memmove.obj
 0001:00030690       __local_unwind4            10031690 f   libvcruntimed:exsup4.obj
 0001:00030768       __seh_longjmp_unwind4@4    10031768 f   libvcruntimed:exsup4.obj
 0001:00030790       @_EH4_CallFilterFunc@8     10031790 f   libvcruntimed:exsup4.obj
 0001:000307a8       @_EH4_TransferToHandler@8  100317a8 f   libvcruntimed:exsup4.obj
 0001:000307c4       @_EH4_GlobalUnwind2@8      100317c4 f   libvcruntimed:exsup4.obj
 0001:000307e0       @_EH4_LocalUnwind@16       100317e0 f   libvcruntimed:exsup4.obj
 0001:00030810       ___except_validate_context_record 10031810 f   libvcruntimed:jbcxrval.obj
 0001:00030860       ___except_validate_jump_buffer 10031860 f   libvcruntimed:jbcxrval.obj
 0001:00030880       ___except_validate_jump_buffer_common 10031880 f i libvcruntimed:jbcxrval.obj
 0001:000308e0       ??$?RU__vcrt_ptd@@@__crt_internal_free_policy@@QBEXQBU__vcrt_ptd@@@Z 100318e0 f i libvcruntimed:per_thread_data.obj
 0001:00030900       ??0?$__crt_unique_heap_ptr@U__vcrt_ptd@@U__crt_internal_free_policy@@@@QAE@QAU__vcrt_ptd@@@Z 10031900 f i libvcruntimed:per_thread_data.obj
 0001:00030940       ??1?$__crt_unique_heap_ptr@U__vcrt_ptd@@U__crt_internal_free_policy@@@@QAE@XZ 10031940 f i libvcruntimed:per_thread_data.obj
 0001:00030980       ??B?$__crt_unique_heap_ptr@U__vcrt_ptd@@U__crt_internal_free_policy@@@@QBE_NXZ 10031980 f i libvcruntimed:per_thread_data.obj
 0001:000309a0       ?detach@?$__crt_unique_heap_ptr@U__vcrt_ptd@@U__crt_internal_free_policy@@@@QAEPAU__vcrt_ptd@@XZ 100319a0 f i libvcruntimed:per_thread_data.obj
 0001:000309d0       ?get@?$__crt_unique_heap_ptr@U__vcrt_ptd@@U__crt_internal_free_policy@@@@QBEPAU__vcrt_ptd@@XZ 100319d0 f i libvcruntimed:per_thread_data.obj
 0001:000309e0       ?is_valid@?$__crt_unique_heap_ptr@U__vcrt_ptd@@U__crt_internal_free_policy@@@@QBE_NXZ 100319e0 f i libvcruntimed:per_thread_data.obj
 0001:00030a10       ?release@?$__crt_unique_heap_ptr@U__vcrt_ptd@@U__crt_internal_free_policy@@@@QAEXXZ 10031a10 f i libvcruntimed:per_thread_data.obj
 0001:00030a70       ___vcrt_freefls@4          10031a70 f   libvcruntimed:per_thread_data.obj
 0001:00030aa0       ___vcrt_freeptd            10031aa0 f   libvcruntimed:per_thread_data.obj
 0001:00030b00       ___vcrt_getptd             10031b00 f   libvcruntimed:per_thread_data.obj
 0001:00030b20       ___vcrt_getptd_noexit      10031b20 f   libvcruntimed:per_thread_data.obj
 0001:00030c80       ___vcrt_getptd_noinit      10031c80 f   libvcruntimed:per_thread_data.obj
 0001:00030ce0       ___vcrt_initialize_ptd     10031ce0 f   libvcruntimed:per_thread_data.obj
 0001:00030d30       ___vcrt_uninitialize_ptd   10031d30 f   libvcruntimed:per_thread_data.obj
 0001:00030d60       ___vcrt_initialize_locks   10031d60 f   libvcruntimed:locks.obj
 0001:00030dc0       ___vcrt_lock               10031dc0 f   libvcruntimed:locks.obj
 0001:00030de0       ___vcrt_uninitialize_locks 10031de0 f   libvcruntimed:locks.obj
 0001:00030e30       ___vcrt_unlock             10031e30 f   libvcruntimed:locks.obj
 0001:000319c0       ??$TypeMatchHelper@V__FrameHandler3@@@@YAHPBU_s_HandlerType@@PBU_s_CatchableType@@PBU_s_ThrowInfo@@@Z 100329c0 f i libvcruntimed:frame.obj
 0001:00031aa0       ??$__InternalCxxFrameHandler@V__FrameHandler3@@@@YA?AW4_EXCEPTION_DISPOSITION@@PAUEHExceptionRecord@@PAUEHRegistrationNode@@PAU_CONTEXT@@PAXPBU_s_FuncInfo@@H1E@Z 10032aa0 f i libvcruntimed:frame.obj
 0001:00031c60       ??0HandlerMap@__FrameHandler3@@QAE@PBU_s_TryBlockMapEntry@@II@Z 10032c60 f i libvcruntimed:frame.obj
 0001:00031c90       ??0TryBlockMap@__FrameHandler3@@QAE@PBU_s_FuncInfo@@I@Z 10032c90 f i libvcruntimed:frame.obj
 0001:00031cc0       ??0bad_exception@std@@QAE@ABV01@@Z 10032cc0 f i libvcruntimed:frame.obj
 0001:00031cf0       ??0bad_exception@std@@QAE@XZ 10032cf0 f i libvcruntimed:frame.obj
 0001:00031d20       ??0iterator@HandlerMap@__FrameHandler3@@QAE@AAV12@I@Z 10032d20 f i libvcruntimed:frame.obj
 0001:00031d50       ??1bad_exception@std@@UAE@XZ 10032d50 f i libvcruntimed:frame.obj
 0001:00031d70       ??8iterator@HandlerMap@__FrameHandler3@@QBE_NABV012@@Z 10032d70 f i libvcruntimed:frame.obj
 0001:00031da0       ??8type_info@@QBE_NABV0@@Z 10032da0 f i libvcruntimed:frame.obj
 0001:00031de0       ??9iterator@HandlerMap@__FrameHandler3@@QBE_NABV012@@Z 10032de0 f i libvcruntimed:frame.obj
 0001:00031e20       ??Diterator@HandlerMap@__FrameHandler3@@QAE?BU_s_HandlerType@@XZ 10032e20 f i libvcruntimed:frame.obj
 0001:00031e60       ??Diterator@TryBlockMap@__FrameHandler3@@QAE?BU_s_TryBlockMapEntry@@XZ 10032e60 f i libvcruntimed:frame.obj
 0001:00031eb0       ??Eiterator@HandlerMap@__FrameHandler3@@QAEAAV012@XZ 10032eb0 f i libvcruntimed:frame.obj
 0001:00031ed0       ??Eiterator@TryBlockMap@__FrameHandler3@@QAEAAV012@XZ 10032ed0 f i libvcruntimed:frame.obj
 0001:00031ef0       ??Miterator@TryBlockMap@__FrameHandler3@@QBE_NABV012@@Z 10032ef0 f i libvcruntimed:frame.obj
 0001:00031f20       ??_Gbad_exception@std@@UAEPAXI@Z 10032f20 f i libvcruntimed:frame.obj
 0001:00031f20       ??_Ebad_exception@std@@UAEPAXI@Z 10032f20 f i libvcruntimed:frame.obj
 0001:00031f50       ?BuildCatchObject@__FrameHandler3@@SAXPAUEHExceptionRecord@@PAXPBU_s_HandlerType@@PBU_s_CatchableType@@@Z 10032f50 f   libvcruntimed:frame.obj
 0001:00031f70       ?BuildCatchObjectHelper@__FrameHandler3@@SAHPAUEHExceptionRecord@@PAXPBU_s_HandlerType@@PBU_s_CatchableType@@@Z 10032f70 f   libvcruntimed:frame.obj
 0001:00032310       ?FrameUnwindToEmptyState@__FrameHandler3@@SAXPAUEHRegistrationNode@@PAXPBU_s_FuncInfo@@@Z 10033310 f   libvcruntimed:frame.obj
 0001:00032330       ?FrameUnwindToState@__FrameHandler3@@SAXPAUEHRegistrationNode@@PAXPBU_s_FuncInfo@@H@Z 10033330 f   libvcruntimed:frame.obj
 0001:000324b0       ?GetMaxState@__FrameHandler3@@SAHPAXPBU_s_FuncInfo@@@Z 100334b0 f i libvcruntimed:frame.obj
 0001:000325d0       ?TypeMatch@__FrameHandler3@@SAHPBU_s_HandlerType@@PBU_s_CatchableType@@PBU_s_ThrowInfo@@@Z 100335d0 f   libvcruntimed:frame.obj
 0001:000325f0       ?_CallMemberFunction1@@YGXQAX00@Z 100335f0 f i libvcruntimed:frame.obj
 0001:00032620       ?_CallMemberFunction2@@YGXQAX00H@Z 10033620 f i libvcruntimed:frame.obj
 0001:00032650       ?begin@HandlerMap@__FrameHandler3@@QAE?AViterator@12@XZ 10033650 f i libvcruntimed:frame.obj
 0001:00032670       ?end@HandlerMap@__FrameHandler3@@QAE?AViterator@12@XZ 10033670 f i libvcruntimed:frame.obj
 0001:000326a0       ?getESTypes@__FrameHandler3@@SAPBU_s_ESTypeList@@PBU_s_FuncInfo@@@Z 100336a0 f i libvcruntimed:frame.obj
 0001:000326b0       ?getLastEntry@HandlerMap@__FrameHandler3@@QAEPBU_s_HandlerType@@XZ 100336b0 f i libvcruntimed:frame.obj
 0001:000326d0       ?getMagicNum@__FrameHandler3@@SAIPBU_s_FuncInfo@@@Z 100336d0 f i libvcruntimed:frame.obj
 0001:000326e0       ?getNumTryBlocks@TryBlockMap@__FrameHandler3@@QAEIXZ 100336e0 f i libvcruntimed:frame.obj
 0001:00032700       ?isEHs@__FrameHandler3@@SA_NPBU_s_FuncInfo@@@Z 10033700 f i libvcruntimed:frame.obj
 0001:00032730       ?isNoExcept@__FrameHandler3@@SA_NPBU_s_FuncInfo@@@Z 10033730 f i libvcruntimed:frame.obj
 0001:00032760       ___BuildCatchObject        10033760 f   libvcruntimed:frame.obj
 0001:00032780       ___BuildCatchObjectHelper  10033780 f   libvcruntimed:frame.obj
 0001:000327a0       ___TypeMatch               100337a0 f   libvcruntimed:frame.obj
 0001:000327c0       ___vcrt_EncodePointer      100337c0 f i libvcruntimed:frame.obj
 0001:000327d0       __CallSettingFrame@12      100337d0 f   libvcruntimed:lowhelpr.obj
 0001:000327f7       __NLG_Return               100337f7     libvcruntimed:lowhelpr.obj
 0001:00032820       ??$?0$00@DName@@QAE@PBDU?$StringLifeSelector@$00@@@Z 10033820 f i libvcruntimed:undname.obj
 0001:00032870       ??$?0$00@pcharNode@@QAE@PBDHU?$StringLifeSelector@$00@@@Z 10033870 f i libvcruntimed:undname.obj
 0001:000328b0       ??$?0$01@DName@@QAE@PBDU?$StringLifeSelector@$01@@@Z 100338b0 f i libvcruntimed:undname.obj
 0001:00032900       ??$?0$01@pcharNode@@QAE@PBDHU?$StringLifeSelector@$01@@@Z 10033900 f i libvcruntimed:undname.obj
 0001:00032980       ??$?0$0A@@DName@@QAE@PBDU?$StringLifeSelector@$0A@@@@Z 10033980 f i libvcruntimed:undname.obj
 0001:000329d0       ??$?0$0A@@pcharNode@@QAE@PBDHU?$StringLifeSelector@$0A@@@@Z 100339d0 f i libvcruntimed:undname.obj
 0001:00032a50       ??$append@VDNameNode@@@DName@@AAEXPBVDNameNode@@@Z 10033a50 f i libvcruntimed:undname.obj
 0001:00032ae0       ??$append@VDNameStatusNode@@@DName@@AAEXPBVDNameStatusNode@@@Z 10033ae0 f i libvcruntimed:undname.obj
 0001:00032b70       ??$append@VcharNode@@@DName@@AAEXPBVcharNode@@@Z 10033b70 f i libvcruntimed:undname.obj
 0001:00032c00       ??$append@VpDNameNode@@@DName@@AAEXPBVpDNameNode@@@Z 10033c00 f i libvcruntimed:undname.obj
 0001:00032c90       ??$append@VpcharNode@@@DName@@AAEXPBVpcharNode@@@Z 10033c90 f i libvcruntimed:undname.obj
 0001:00032d20       ??$doPchar@$00@DName@@AAEXPBDH@Z 10033d20 f i libvcruntimed:undname.obj
 0001:00032e30       ??$doPchar@$01@DName@@AAEXPBDH@Z 10033e30 f i libvcruntimed:undname.obj
 0001:00032f40       ??$doPchar@$0A@@DName@@AAEXPBDH@Z 10033f40 f i libvcruntimed:undname.obj
 0001:00033050       ??0Block@_HeapManager@@QAE@XZ 10034050 f i libvcruntimed:undname.obj
 0001:00033070       ??0DName@@QAE@AAPBDD@Z     10034070 f   libvcruntimed:undname.obj
 0001:000331e0       ??0DName@@QAE@ABUStringLiteral@@@Z 100341e0 f   libvcruntimed:undname.obj
 0001:00033230       ??0DName@@QAE@ABV0@@Z      10034230 f i libvcruntimed:undname.obj
 0001:00033260       ??0DName@@QAE@D@Z          10034260 f   libvcruntimed:undname.obj
 0001:00033290       ??0DName@@QAE@PAV0@@Z      10034290 f   libvcruntimed:undname.obj
 0001:00033340       ??0DName@@QAE@W4DNameStatus@@@Z 10034340 f   libvcruntimed:undname.obj
 0001:000333e0       ??0DName@@QAE@XZ           100343e0 f i libvcruntimed:undname.obj
 0001:00033410       ??0DName@@QAE@_J@Z         10034410 f   libvcruntimed:undname.obj
 0001:00033500       ??0DName@@QAE@_K@Z         10034500 f   libvcruntimed:undname.obj
 0001:000335b0       ??0DNameNode@@IAE@XZ       100345b0 f i libvcruntimed:undname.obj
 0001:000335d0       ??0Replicator@@QAE@XZ      100345d0 f i libvcruntimed:undname.obj
 0001:00033610       ??0UnDecorator@@QAE@PBDP6APADJ@ZK@Z 10034610 f i libvcruntimed:undname.obj
 0001:00033690       ??0charNode@@QAE@D@Z       10034690 f i libvcruntimed:undname.obj
 0001:000336c0       ??0pDNameNode@@QAE@PAVDName@@@Z 100346c0 f   libvcruntimed:undname.obj
 0001:00033720       ??0pairNode@@QAE@PBVDNameNode@@0@Z 10034720 f i libvcruntimed:undname.obj
 0001:00033780       ??2@YAPAXIAAV_HeapManager@@H@Z 10034780 f   libvcruntimed:undname.obj
 0001:000337c0       ??4DName@@QAEAAV0@ABUStringLiteral@@@Z 100347c0 f   libvcruntimed:undname.obj
 0001:00033800       ??4DName@@QAEAAV0@ABV0@@Z  10034800 f   libvcruntimed:undname.obj
 0001:00033830       ??4DName@@QAEAAV0@D@Z      10034830 f i libvcruntimed:undname.obj
 0001:00033860       ??4DName@@QAEAAV0@PAV0@@Z  10034860 f   libvcruntimed:undname.obj
 0001:00033900       ??4DName@@QAEAAV0@W4DNameStatus@@@Z 10034900 f   libvcruntimed:undname.obj
 0001:00033980       ??AReplicator@@QBE?AVDName@@H@Z 10034980 f   libvcruntimed:undname.obj
 0001:000339f0       ??H@YA?AVDName@@ABUStringLiteral@@ABV0@@Z 100349f0 f i libvcruntimed:undname.obj
 0001:00033a20       ??H@YA?AVDName@@DABV0@@Z   10034a20 f i libvcruntimed:undname.obj
 0001:00033a50       ??H@YA?AVDName@@W4DNameStatus@@ABV0@@Z 10034a50 f i libvcruntimed:undname.obj
 0001:00033a80       ??HDName@@QBE?AV0@ABUStringLiteral@@@Z 10034a80 f   libvcruntimed:undname.obj
 0001:00033ac0       ??HDName@@QBE?AV0@ABV0@@Z  10034ac0 f   libvcruntimed:undname.obj
 0001:00033b00       ??HDName@@QBE?AV0@D@Z      10034b00 f   libvcruntimed:undname.obj
 0001:00033b40       ??HDName@@QBE?AV0@PAV0@@Z  10034b40 f   libvcruntimed:undname.obj
 0001:00033b80       ??HDName@@QBE?AV0@W4DNameStatus@@@Z 10034b80 f   libvcruntimed:undname.obj
 0001:00033bc0       ??HStringLiteral@@QBE?AU0@H@Z 10034bc0 f i libvcruntimed:undname.obj
 0001:00033bf0       ??YDName@@QAEAAV0@ABUStringLiteral@@@Z 10034bf0 f   libvcruntimed:undname.obj
 0001:00033c90       ??YDName@@QAEAAV0@ABV0@@Z  10034c90 f   libvcruntimed:undname.obj
 0001:00033d30       ??YDName@@QAEAAV0@D@Z      10034d30 f   libvcruntimed:undname.obj
 0001:00033db0       ??YDName@@QAEAAV0@PAV0@@Z  10034db0 f   libvcruntimed:undname.obj
 0001:00033e60       ??YDName@@QAEAAV0@W4DNameStatus@@@Z 10034e60 f   libvcruntimed:undname.obj
 0001:00033ec0       ??YReplicator@@QAEAAV0@ABVDName@@@Z 10034ec0 f   libvcruntimed:undname.obj
 0001:00033f50       ??_5DName@@QAEAAV0@ABV0@@Z 10034f50 f   libvcruntimed:undname.obj
 0001:00033fb0       ??__K_l@@YA?AUStringLiteral@@PBDI@Z 10034fb0 f i libvcruntimed:undname.obj
 0001:00033fd0       ?Constructor@_HeapManager@@QAEXP6APAXI@ZP6AXPAX@Z@Z 10034fd0 f i libvcruntimed:undname.obj
 0001:00034010       ?Destructor@_HeapManager@@QAEXXZ 10035010 f i libvcruntimed:undname.obj
 0001:00034080       ?UScore@UnDecorator@@SA?AUStringLiteral@@W4Tokens@@@Z 10035080 f   libvcruntimed:undname.obj
 0001:000340d0       ?composeDeclaration@UnDecorator@@CA?AVDName@@ABV2@@Z 100350d0 f i libvcruntimed:undname.obj
 0001:00036040       ?dbGetString@DName@@QBEPADXZ 10037040 f   libvcruntimed:undname.obj
 0001:00036060       ?doAccessSpecifiers@UnDecorator@@SAHXZ 10037060 f i libvcruntimed:undname.obj
 0001:00036090       ?doAllocationLanguage@UnDecorator@@SAHXZ 10037090 f i libvcruntimed:undname.obj
 0001:000360c0       ?doAllocationModel@UnDecorator@@SAHXZ 100370c0 f i libvcruntimed:undname.obj
 0001:000360f0       ?doEcsu@UnDecorator@@SAHXZ 100370f0 f i libvcruntimed:undname.obj
 0001:00036120       ?doEllipsis@UnDecorator@@SAHXZ 10037120 f i libvcruntimed:undname.obj
 0001:00036150       ?doFunctionReturns@UnDecorator@@SAHXZ 10037150 f i libvcruntimed:undname.obj
 0001:00036180       ?doMSKeywords@UnDecorator@@SAHXZ 10037180 f i libvcruntimed:undname.obj
 0001:000361b0       ?doMemberTypes@UnDecorator@@SAHXZ 100371b0 f i libvcruntimed:undname.obj
 0001:000361e0       ?doNameOnly@UnDecorator@@SAHXZ 100371e0 f i libvcruntimed:undname.obj
 0001:000361f0       ?doNoIdentCharCheck@UnDecorator@@SAHXZ 100371f0 f i libvcruntimed:undname.obj
 0001:00036200       ?doPchar@DName@@AAEXD@Z    10037200 f   libvcruntimed:undname.obj
 0001:00036270       ?doPtr64@UnDecorator@@SAHXZ 10037270 f i libvcruntimed:undname.obj
 0001:000362a0       ?doRestrictionSpec@UnDecorator@@SAHXZ 100372a0 f i libvcruntimed:undname.obj
 0001:000362d0       ?doThisTypes@UnDecorator@@SAHXZ 100372d0 f i libvcruntimed:undname.obj
 0001:00036300       ?doThrowTypes@UnDecorator@@SAHXZ 10037300 f i libvcruntimed:undname.obj
 0001:00036330       ?doTypeOnly@UnDecorator@@SAHXZ 10037330 f i libvcruntimed:undname.obj
 0001:00036340       ?doUnderScore@UnDecorator@@SAHXZ 10037340 f i libvcruntimed:undname.obj
 0001:00036370       ?getArgumentList@UnDecorator@@CA?AVDName@@XZ 10037370 f   libvcruntimed:undname.obj
 0001:000364c0       ?getArgumentTypes@UnDecorator@@CA?AVDName@@XZ 100374c0 f   libvcruntimed:undname.obj
 0001:000366d0       ?getArrayType@UnDecorator@@CA?AVDName@@ABV2@@Z 100376d0 f i libvcruntimed:undname.obj
 0001:00036970       ?getBasedType@UnDecorator@@CA?AVDName@@XZ 10037970 f   libvcruntimed:undname.obj
 0001:00036a60       ?getBasicDataType@UnDecorator@@CA?AVDName@@ABV2@@Z 10037a60 f   libvcruntimed:undname.obj
 0001:00037370       ?getCHPEName@UnDecorator@@QAEPADPADH@Z 10038370 f i libvcruntimed:undname.obj
 0001:000374d0       ?getCallIndex@UnDecorator@@CA?AVDName@@XZ 100384d0 f i libvcruntimed:undname.obj
 0001:000374f0       ?getCallingConvention@UnDecorator@@CA?AVDName@@XZ 100384f0 f   libvcruntimed:undname.obj
 0001:00037730       ?getDataIndirectType@UnDecorator@@CA?AVDName@@ABV2@W4IndirectionKind@@0H@Z 10038730 f   libvcruntimed:undname.obj
 0001:00038050       ?getDataIndirectType@UnDecorator@@CA?AVDName@@XZ 10039050 f i libvcruntimed:undname.obj
 0001:00038090       ?getDataType@UnDecorator@@CA?AVDName@@PAV2@@Z 10039090 f   libvcruntimed:undname.obj
 0001:000381d0       ?getDecoratedName@UnDecorator@@CA?AVDName@@XZ 100391d0 f   libvcruntimed:undname.obj
 0001:00038610       ?getDimension@UnDecorator@@CA?AVDName@@_N@Z 10039610 f   libvcruntimed:undname.obj
 0001:000388f0       ?getDispatchTarget@UnDecorator@@CA?AVDName@@XZ 100398f0 f   libvcruntimed:undname.obj
 0001:00038990       ?getDisplacement@UnDecorator@@CA?AVDName@@XZ 10039990 f i libvcruntimed:undname.obj
 0001:000389b0       ?getECSUDataType@UnDecorator@@CA?AVDName@@XZ 100399b0 f   libvcruntimed:undname.obj
 0001:00038bf0       ?getECSUName@UnDecorator@@CA?AVDName@@XZ 10039bf0 f i libvcruntimed:undname.obj
 0001:00038c10       ?getEnumType@UnDecorator@@CA?AVDName@@XZ 10039c10 f i libvcruntimed:undname.obj
 0001:00038dc0       ?getExtendedDataIndirectType@UnDecorator@@CA?AVDName@@AAW4IndirectionKind@@AA_NH@Z 10039dc0 f   libvcruntimed:undname.obj
 0001:00039010       ?getExternalDataType@UnDecorator@@CA?AVDName@@ABV2@@Z 1003a010 f i libvcruntimed:undname.obj
 0001:000390b0       ?getFunctionIndirectType@UnDecorator@@CA?AVDName@@ABV2@@Z 1003a0b0 f   libvcruntimed:undname.obj
 0001:00039590       ?getGuardNumber@UnDecorator@@CA?AVDName@@XZ 1003a590 f i libvcruntimed:undname.obj
 0001:000395b0       ?getLastChar@DName@@QBEDXZ 1003a5b0 f i libvcruntimed:undname.obj
 0001:000395f0       ?getLastChar@DNameStatusNode@@UBEDXZ 1003a5f0 f i libvcruntimed:undname.obj
 0001:00039620       ?getLastChar@charNode@@UBEDXZ 1003a620 f i libvcruntimed:undname.obj
 0001:00039640       ?getLastChar@pDNameNode@@UBEDXZ 1003a640 f i libvcruntimed:undname.obj
 0001:00039670       ?getLastChar@pairNode@@UBEDXZ 1003a670 f i libvcruntimed:undname.obj
 0001:000396e0       ?getLastChar@pcharNode@@UBEDXZ 1003a6e0 f i libvcruntimed:undname.obj
 0001:00039720       ?getLexicalFrame@UnDecorator@@CA?AVDName@@XZ 1003a720 f i libvcruntimed:undname.obj
 0001:00039760       ?getMemoryWithBuffer@_HeapManager@@QAEPAXI@Z 1003a760 f   libvcruntimed:undname.obj
 0001:00039850       ?getMemoryWithoutBuffer@_HeapManager@@QAEPAXI@Z 1003a850 f   libvcruntimed:undname.obj
 0001:00039890       ?getNoexcept@UnDecorator@@CA?AVDName@@XZ 1003a890 f   libvcruntimed:undname.obj
 0001:00039910       ?getNumberOfDimensions@UnDecorator@@CAHXZ 1003a910 f   libvcruntimed:undname.obj
 0001:00039a10       ?getOperatorName@UnDecorator@@CA?AVDName@@_NPA_N@Z 1003aa10 f i libvcruntimed:undname.obj
 0001:0003a4b0       ?getPointerType@UnDecorator@@CA?AVDName@@ABV2@0@Z 1003b4b0 f i libvcruntimed:undname.obj
 0001:0003a4d0       ?getPointerTypeArray@UnDecorator@@CA?AVDName@@ABV2@0@Z 1003b4d0 f i libvcruntimed:undname.obj
 0001:0003a4f0       ?getPrimaryDataType@UnDecorator@@CA?AVDName@@ABV2@@Z 1003b4f0 f   libvcruntimed:undname.obj
 0001:0003a960       ?getPtrRefDataType@UnDecorator@@CA?AVDName@@ABV2@H@Z 1003b960 f   libvcruntimed:undname.obj
 0001:0003ac10       ?getPtrRefType@UnDecorator@@CA?AVDName@@ABV2@0W4IndirectionKind@@@Z 1003bc10 f   libvcruntimed:undname.obj
 0001:0003ad90       ?getReferenceType@UnDecorator@@CA?AVDName@@ABV2@0W4IndirectionKind@@@Z 1003bd90 f i libvcruntimed:undname.obj
 0001:0003adb0       ?getRestrictionSpec@UnDecorator@@CA?AVDName@@XZ 1003bdb0 f   libvcruntimed:undname.obj
 0001:0003af70       ?getReturnType@UnDecorator@@CA?AVDName@@PAV2@@Z 1003bf70 f   libvcruntimed:undname.obj
 0001:0003afc0       ?getScope@UnDecorator@@CA?AVDName@@XZ 1003bfc0 f   libvcruntimed:undname.obj
 0001:0003b550       ?getScopedName@UnDecorator@@CA?AVDName@@XZ 1003c550 f   libvcruntimed:undname.obj
 0001:0003b6a0       ?getSignedDimension@UnDecorator@@CA?AVDName@@XZ 1003c6a0 f   libvcruntimed:undname.obj
 0001:0003b720       ?getStorageConvention@UnDecorator@@CA?AVDName@@XZ 1003c720 f i libvcruntimed:undname.obj
 0001:0003b740       ?getString@DName@@QBEPADPAD0@Z 1003c740 f i libvcruntimed:undname.obj
 0001:0003b7a0       ?getString@DName@@QBEPADPADH@Z 1003c7a0 f i libvcruntimed:undname.obj
 0001:0003b830       ?getString@DNameStatusNode@@UBEPADPAD0@Z 1003c830 f i libvcruntimed:undname.obj
 0001:0003b870       ?getString@charNode@@UBEPADPAD0@Z 1003c870 f i libvcruntimed:undname.obj
 0001:0003b8a0       ?getString@pDNameNode@@UBEPADPAD0@Z 1003c8a0 f i libvcruntimed:undname.obj
 0001:0003b8e0       ?getString@pairNode@@UBEPADPAD0@Z 1003c8e0 f i libvcruntimed:undname.obj
 0001:0003b970       ?getString@pcharNode@@UBEPADPAD0@Z 1003c970 f i libvcruntimed:undname.obj
 0001:0003b9a0       ?getStringEncoding@UnDecorator@@CA?AVDName@@W4PrefixKind@@H@Z 1003c9a0 f   libvcruntimed:undname.obj
 0001:0003bab0       ?getStringHelper@@YAPADPADPBD1H@Z 1003cab0 f i libvcruntimed:undname.obj
 0001:0003baf0       ?getSymbolName@UnDecorator@@CA?AVDName@@XZ 1003caf0 f i libvcruntimed:undname.obj
 0001:0003bb80       ?getTemplateArgumentList@UnDecorator@@CA?AVDName@@XZ 1003cb80 f   libvcruntimed:undname.obj
 0001:0003be50       ?getTemplateName@UnDecorator@@CA?AVDName@@_N@Z 1003ce50 f   libvcruntimed:undname.obj
 0001:0003c010       ?getTemplateNonTypeArgument@UnDecorator@@CA?AVDName@@XZ 1003d010 f   libvcruntimed:undname.obj
 0001:0003c6d0       ?getTemplateTypeArgument@UnDecorator@@CA?AVDName@@XZ 1003d6d0 f   libvcruntimed:undname.obj
 0001:0003c870       ?getThisType@UnDecorator@@CA?AVDName@@XZ 1003d870 f i libvcruntimed:undname.obj
 0001:0003c8b0       ?getThrowTypes@UnDecorator@@CA?AVDName@@XZ 1003d8b0 f   libvcruntimed:undname.obj
 0001:0003c8f0       ?getTypeEncoding@UnDecorator@@CAHXZ 1003d8f0 f i libvcruntimed:undname.obj
 0001:0003d3b0       ?getUndecoratedName@UnDecorator@@QAEPADPADH@Z 1003e3b0 f i libvcruntimed:undname.obj
 0001:0003d510       ?getVCallThunkType@UnDecorator@@CA?AVDName@@XZ 1003e510 f i libvcruntimed:undname.obj
 0001:0003d590       ?getVbTableType@UnDecorator@@CA?AVDName@@ABV2@@Z 1003e590 f i libvcruntimed:undname.obj
 0001:0003d5b0       ?getVdispMapType@UnDecorator@@CA?AVDName@@ABV2@@Z 1003e5b0 f i libvcruntimed:undname.obj
 0001:0003d640       ?getVfTableType@UnDecorator@@CA?AVDName@@ABV2@@Z 1003e640 f i libvcruntimed:undname.obj
 0001:0003d840       ?getZName@UnDecorator@@CA?AVDName@@_N0@Z 1003e840 f   libvcruntimed:undname.obj
 0001:0003db80       ?haveTemplateParameters@UnDecorator@@SAHXZ 1003eb80 f i libvcruntimed:undname.obj
 0001:0003db90       ?isArray@DName@@QBEHXZ     1003eb90 f i libvcruntimed:undname.obj
 0001:0003dbb0       ?isComArray@DName@@QBEHXZ  1003ebb0 f i libvcruntimed:undname.obj
 0001:0003dbd0       ?isEmpty@DName@@QBEHXZ     1003ebd0 f i libvcruntimed:undname.obj
 0001:0003dc00       ?isFull@Replicator@@QBEHXZ 1003ec00 f i libvcruntimed:undname.obj
 0001:0003dc30       ?isNoTE@DName@@QBEHXZ      1003ec30 f i libvcruntimed:undname.obj
 0001:0003dc50       ?isPinPtr@DName@@QBEHXZ    1003ec50 f i libvcruntimed:undname.obj
 0001:0003dc70       ?isPtrRef@DName@@QBEHXZ    1003ec70 f i libvcruntimed:undname.obj
 0001:0003dc90       ?isUDC@DName@@QBEHXZ       1003ec90 f i libvcruntimed:undname.obj
 0001:0003dcd0       ?isUDTThunk@DName@@QBEHXZ  1003ecd0 f i libvcruntimed:undname.obj
 0001:0003dd10       ?isVCallThunk@DName@@QBEHXZ 1003ed10 f i libvcruntimed:undname.obj
 0001:0003dd30       ?isValid@DName@@QBEHXZ     1003ed30 f i libvcruntimed:undname.obj
 0001:0003dd70       ?length@DName@@QBEHXZ      1003ed70 f i libvcruntimed:undname.obj
 0001:0003ddb0       ?length@DNameStatusNode@@UBEHXZ 1003edb0 f i libvcruntimed:undname.obj
 0001:0003ddd0       ?length@charNode@@UBEHXZ   1003edd0 f i libvcruntimed:undname.obj
 0001:0003dde0       ?length@pDNameNode@@UBEHXZ 1003ede0 f i libvcruntimed:undname.obj
 0001:0003de10       ?length@pairNode@@UBEHXZ   1003ee10 f i libvcruntimed:undname.obj
 0001:0003de80       ?length@pcharNode@@UBEHXZ  1003ee80 f i libvcruntimed:undname.obj
 0001:0003dea0       ?make@DNameStatusNode@@SAPBV1@W4DNameStatus@@@Z 1003eea0 f i libvcruntimed:undname.obj
 0001:0003ded0       ?parseDecoratedName@UnDecorator@@CA?AVDName@@XZ 1003eed0 f   libvcruntimed:undname.obj
 0001:0003e060       ?raw_length@DNameStatusNode@@UBEHXZ 1003f060 f i libvcruntimed:undname.obj
 0001:0003e080       ?raw_length@charNode@@UBEHXZ 1003f080 f i libvcruntimed:undname.obj
 0001:0003e0a0       ?raw_length@pDNameNode@@UBEHXZ 1003f0a0 f i libvcruntimed:undname.obj
 0001:0003e0b0       ?raw_length@pairNode@@UBEHXZ 1003f0b0 f i libvcruntimed:undname.obj
 0001:0003e0d0       ?raw_length@pcharNode@@UBEHXZ 1003f0d0 f i libvcruntimed:undname.obj
 0001:0003e0f0       ?setIsArray@DName@@QAEXXZ  1003f0f0 f i libvcruntimed:undname.obj
 0001:0003e110       ?setIsComArray@DName@@QAEXXZ 1003f110 f i libvcruntimed:undname.obj
 0001:0003e130       ?setIsNoTE@DName@@QAEXXZ   1003f130 f i libvcruntimed:undname.obj
 0001:0003e150       ?setIsPinPtr@DName@@QAEXXZ 1003f150 f i libvcruntimed:undname.obj
 0001:0003e170       ?setIsUDC@DName@@QAEXXZ    1003f170 f i libvcruntimed:undname.obj
 0001:0003e1a0       ?setIsVCallThunk@DName@@QAEXXZ 1003f1a0 f i libvcruntimed:undname.obj
 0001:0003e1c0       ?setPtrRef@DName@@QAEAAV1@XZ 1003f1c0 f i libvcruntimed:undname.obj
 0001:0003e1e0       ?status@DName@@QBE?AW4DNameStatus@@XZ 1003f1e0 f i libvcruntimed:undname.obj
 0001:0003e2e0       ___unDName                 1003f2e0 f   libvcruntimed:undname.obj
 0001:0003e310       ___unDNameEx               1003f310 f   libvcruntimed:undname.obj
 0001:0003e3e0       _unDNameGenerateCHPE       1003f3e0 f   libvcruntimed:undname.obj
 0001:0003e440       __global_unwind2           1003f440 f   libvcruntimed:exsup.obj
 0001:0003e4a6       __local_unwind2            1003f4a6 f   libvcruntimed:exsup.obj
 0001:0003e52a       __abnormal_termination     1003f52a f   libvcruntimed:exsup.obj
 0001:0003e550       __NLG_Notify1              1003f550 f   libvcruntimed:exsup.obj
 0001:0003e55c       __NLG_Notify               1003f55c f   libvcruntimed:exsup.obj
 0001:0003e573       __NLG_Dispatch             1003f573     libvcruntimed:exsup.obj
 0001:0003e573       __NLG_Dispatch2            1003f573     libvcruntimed:exsup.obj
 0001:0003e57b       __NLG_Call                 1003f57b f   libvcruntimed:exsup.obj
 0001:0003e57d       __NLG_Return2              1003f57d     libvcruntimed:exsup.obj
 0001:0003e580       ??$__crt_interlocked_exchange_pointer@UHINSTANCE__@@PAU1@@@YAPAUHINSTANCE__@@PDSAU0@QAU0@@Z 1003f580 f i libvcruntimed:winapi_downlevel.obj
 0001:0003e590       ??$__crt_interlocked_exchange_pointer@UHINSTANCE__@@PAX@@YAPAUHINSTANCE__@@PDSAU0@QAX@Z 1003f590 f i libvcruntimed:winapi_downlevel.obj
 0001:0003e5a0       ??$__crt_interlocked_exchange_pointer@XPAX@@YAPAXPDSAXQAX@Z 1003f5a0 f i libvcruntimed:winapi_downlevel.obj
 0001:0003e5b0       ??$__crt_interlocked_read_pointer@UHINSTANCE__@@@@YAPAUHINSTANCE__@@PDSAU0@@Z 1003f5b0 f i libvcruntimed:winapi_downlevel.obj
 0001:0003e5d0       ??$__crt_interlocked_read_pointer@X@@YAPAXPDSAX@Z 1003f5d0 f i libvcruntimed:winapi_downlevel.obj
 0001:0003e9a0       ___vcrt_FlsAlloc           1003f9a0 f   libvcruntimed:winapi_downlevel.obj
 0001:0003e9e0       ___vcrt_FlsFree            1003f9e0 f   libvcruntimed:winapi_downlevel.obj
 0001:0003ea20       ___vcrt_FlsGetValue        1003fa20 f   libvcruntimed:winapi_downlevel.obj
 0001:0003ea60       ___vcrt_FlsSetValue        1003fa60 f   libvcruntimed:winapi_downlevel.obj
 0001:0003eab0       ___vcrt_InitializeCriticalSectionEx 1003fab0 f   libvcruntimed:winapi_downlevel.obj
 0001:0003eb30       __get_unexpected           1003fb30 f   libvcruntimed:unexpected.obj
 0001:0003eb50       _set_unexpected            1003fb50 f   libvcruntimed:unexpected.obj
 0001:0003eb80       _unexpected                1003fb80 f   libvcruntimed:unexpected.obj
 0001:0003ebc0       ?GetCurrentState@__FrameHandler3@@SAHPAUEHRegistrationNode@@PAXPBU_s_FuncInfo@@@Z 1003fbc0 f   libvcruntimed:ehstate.obj
 0001:0003ebf0       ?SetState@__FrameHandler3@@SAXPAUEHRegistrationNode@@PBU_s_FuncInfo@@H@Z 1003fbf0 f   libvcruntimed:ehstate.obj
 0001:0003ec00       ??$?0ABV?$stream_output_adapter@D@__crt_stdio_output@@AB_KABQBDABQAU__crt_locale_pointers@@ABQAD@?$format_validation_base@DV?$stream_output_adapter@D@__crt_stdio_output@@@__crt_stdio_output@@IAE@ABV?$stream_output_adapter@D@1@AB_KABQBDABQAU__crt_locale_pointers@@ABQAD@Z 1003fc00 f i libucrtd:output.obj
 0001:0003ec30       ??$?0ABV?$stream_output_adapter@D@__crt_stdio_output@@AB_KABQBDABQAU__crt_locale_pointers@@ABQAD@?$positional_parameter_base@DV?$stream_output_adapter@D@__crt_stdio_output@@@__crt_stdio_output@@IAE@ABV?$stream_output_adapter@D@1@AB_KABQBDABQAU__crt_locale_pointers@@ABQAD@Z 1003fc30 f i libucrtd:output.obj
 0001:0003ecb0       ??$?0ABV?$stream_output_adapter@D@__crt_stdio_output@@AB_KABQBDABQAU__crt_locale_pointers@@ABQAD@?$standard_base@DV?$stream_output_adapter@D@__crt_stdio_output@@@__crt_stdio_output@@IAE@ABV?$stream_output_adapter@D@1@AB_KABQBDABQAU__crt_locale_pointers@@ABQAD@Z 1003fcb0 f i libucrtd:output.obj
 0001:0003ed00       ??$?0ABV?$stream_output_adapter@_W@__crt_stdio_output@@AB_KABQB_WABQAU__crt_locale_pointers@@ABQAD@?$format_validation_base@_WV?$stream_output_adapter@_W@__crt_stdio_output@@@__crt_stdio_output@@IAE@ABV?$stream_output_adapter@_W@1@AB_KABQB_WABQAU__crt_locale_pointers@@ABQAD@Z 1003fd00 f i libucrtd:output.obj
 0001:0003ed30       ??$?0ABV?$stream_output_adapter@_W@__crt_stdio_output@@AB_KABQB_WABQAU__crt_locale_pointers@@ABQAD@?$positional_parameter_base@_WV?$stream_output_adapter@_W@__crt_stdio_output@@@__crt_stdio_output@@IAE@ABV?$stream_output_adapter@_W@1@AB_KABQB_WABQAU__crt_locale_pointers@@ABQAD@Z 1003fd30 f i libucrtd:output.obj
 0001:0003edb0       ??$?0ABV?$stream_output_adapter@_W@__crt_stdio_output@@AB_KABQB_WABQAU__crt_locale_pointers@@ABQAD@?$standard_base@_WV?$stream_output_adapter@_W@__crt_stdio_output@@@__crt_stdio_output@@IAE@ABV?$stream_output_adapter@_W@1@AB_KABQB_WABQAU__crt_locale_pointers@@ABQAD@Z 1003fdb0 f i libucrtd:output.obj
 0001:0003ee00       ??$?0ABV?$string_output_adapter@D@__crt_stdio_output@@AB_KABQBDABQAU__crt_locale_pointers@@ABQAD@?$format_validation_base@DV?$string_output_adapter@D@__crt_stdio_output@@@__crt_stdio_output@@IAE@ABV?$string_output_adapter@D@1@AB_KABQBDABQAU__crt_locale_pointers@@ABQAD@Z 1003fe00 f i libucrtd:output.obj
 0001:0003ee30       ??$?0ABV?$string_output_adapter@D@__crt_stdio_output@@AB_KABQBDABQAU__crt_locale_pointers@@ABQAD@?$positional_parameter_base@DV?$string_output_adapter@D@__crt_stdio_output@@@__crt_stdio_output@@IAE@ABV?$string_output_adapter@D@1@AB_KABQBDABQAU__crt_locale_pointers@@ABQAD@Z 1003fe30 f i libucrtd:output.obj
 0001:0003eeb0       ??$?0ABV?$string_output_adapter@D@__crt_stdio_output@@AB_KABQBDABQAU__crt_locale_pointers@@ABQAD@?$standard_base@DV?$string_output_adapter@D@__crt_stdio_output@@@__crt_stdio_output@@IAE@ABV?$string_output_adapter@D@1@AB_KABQBDABQAU__crt_locale_pointers@@ABQAD@Z 1003feb0 f i libucrtd:output.obj
 0001:0003ef00       ??$?0ABV?$string_output_adapter@_W@__crt_stdio_output@@AB_KABQB_WABQAU__crt_locale_pointers@@ABQAD@?$format_validation_base@_WV?$string_output_adapter@_W@__crt_stdio_output@@@__crt_stdio_output@@IAE@ABV?$string_output_adapter@_W@1@AB_KABQB_WABQAU__crt_locale_pointers@@ABQAD@Z 1003ff00 f i libucrtd:output.obj
 0001:0003ef30       ??$?0ABV?$string_output_adapter@_W@__crt_stdio_output@@AB_KABQB_WABQAU__crt_locale_pointers@@ABQAD@?$positional_parameter_base@_WV?$string_output_adapter@_W@__crt_stdio_output@@@__crt_stdio_output@@IAE@ABV?$string_output_adapter@_W@1@AB_KABQB_WABQAU__crt_locale_pointers@@ABQAD@Z 1003ff30 f i libucrtd:output.obj
 0001:0003efb0       ??$?0ABV?$string_output_adapter@_W@__crt_stdio_output@@AB_KABQB_WABQAU__crt_locale_pointers@@ABQAD@?$standard_base@_WV?$string_output_adapter@_W@__crt_stdio_output@@@__crt_stdio_output@@IAE@ABV?$string_output_adapter@_W@1@AB_KABQB_WABQAU__crt_locale_pointers@@ABQAD@Z 1003ffb0 f i libucrtd:output.obj
 0001:0003f4e0       ??$__crt_interlocked_read@J@@YAJPDJ@Z 100404e0 f i libucrtd:output.obj
 0001:00042280       ??$count@D@formatting_buffer@__crt_stdio_output@@QBEIXZ 10043280 f i libucrtd:output.obj
 0001:000422c0       ??$count@_W@formatting_buffer@__crt_stdio_output@@QBEIXZ 100432c0 f i libucrtd:output.obj
 0001:00042300       ??$data@D@formatting_buffer@__crt_stdio_output@@QAEPADXZ 10043300 f i libucrtd:output.obj
 0001:00042340       ??$data@_W@formatting_buffer@__crt_stdio_output@@QAEPA_WXZ 10043340 f i libucrtd:output.obj
 0001:00042380       ??$ensure_buffer_is_big_enough@D@formatting_buffer@__crt_stdio_output@@QAE_NI@Z 10043380 f i libucrtd:output.obj
 0001:00042460       ??$ensure_buffer_is_big_enough@_W@formatting_buffer@__crt_stdio_output@@QAE_NI@Z 10043460 f i libucrtd:output.obj
 0001:00042550       ??$extract_argument_from_va_list@C_J@?$positional_parameter_base@DV?$stream_output_adapter@D@__crt_stdio_output@@@__crt_stdio_output@@IAE_NAA_J@Z 10043550 f i libucrtd:output.obj
 0001:00042690       ??$extract_argument_from_va_list@C_J@?$positional_parameter_base@DV?$string_output_adapter@D@__crt_stdio_output@@@__crt_stdio_output@@IAE_NAA_J@Z 10043690 f i libucrtd:output.obj
 0001:000427d0       ??$extract_argument_from_va_list@C_J@?$positional_parameter_base@_WV?$stream_output_adapter@_W@__crt_stdio_output@@@__crt_stdio_output@@IAE_NAA_J@Z 100437d0 f i libucrtd:output.obj
 0001:00042910       ??$extract_argument_from_va_list@C_J@?$positional_parameter_base@_WV?$string_output_adapter@_W@__crt_stdio_output@@@__crt_stdio_output@@IAE_NAA_J@Z 10043910 f i libucrtd:output.obj
 0001:00042a50       ??$extract_argument_from_va_list@C_J@?$standard_base@DV?$stream_output_adapter@D@__crt_stdio_output@@@__crt_stdio_output@@IAE_NAA_J@Z 10043a50 f i libucrtd:output.obj
 0001:00042a80       ??$extract_argument_from_va_list@C_J@?$standard_base@DV?$string_output_adapter@D@__crt_stdio_output@@@__crt_stdio_output@@IAE_NAA_J@Z 10043a80 f i libucrtd:output.obj
 0001:00042ab0       ??$extract_argument_from_va_list@C_J@?$standard_base@_WV?$stream_output_adapter@_W@__crt_stdio_output@@@__crt_stdio_output@@IAE_NAA_J@Z 10043ab0 f i libucrtd:output.obj
 0001:00042ae0       ??$extract_argument_from_va_list@C_J@?$standard_base@_WV?$string_output_adapter@_W@__crt_stdio_output@@@__crt_stdio_output@@IAE_NAA_J@Z 10043ae0 f i libucrtd:output.obj
 0001:00042b10       ??$extract_argument_from_va_list@E_J@?$positional_parameter_base@DV?$stream_output_adapter@D@__crt_stdio_output@@@__crt_stdio_output@@IAE_NAA_J@Z 10043b10 f i libucrtd:output.obj
 0001:00042c50       ??$extract_argument_from_va_list@E_J@?$positional_parameter_base@DV?$string_output_adapter@D@__crt_stdio_output@@@__crt_stdio_output@@IAE_NAA_J@Z 10043c50 f i libucrtd:output.obj
 0001:00042d90       ??$extract_argument_from_va_list@E_J@?$positional_parameter_base@_WV?$stream_output_adapter@_W@__crt_stdio_output@@@__crt_stdio_output@@IAE_NAA_J@Z 10043d90 f i libucrtd:output.obj
 0001:00042ed0       ??$extract_argument_from_va_list@E_J@?$positional_parameter_base@_WV?$string_output_adapter@_W@__crt_stdio_output@@@__crt_stdio_output@@IAE_NAA_J@Z 10043ed0 f i libucrtd:output.obj
 0001:00043010       ??$extract_argument_from_va_list@E_J@?$standard_base@DV?$stream_output_adapter@D@__crt_stdio_output@@@__crt_stdio_output@@IAE_NAA_J@Z 10044010 f i libucrtd:output.obj
 0001:00043040       ??$extract_argument_from_va_list@E_J@?$standard_base@DV?$string_output_adapter@D@__crt_stdio_output@@@__crt_stdio_output@@IAE_NAA_J@Z 10044040 f i libucrtd:output.obj
 0001:00043070       ??$extract_argument_from_va_list@E_J@?$standard_base@_WV?$stream_output_adapter@_W@__crt_stdio_output@@@__crt_stdio_output@@IAE_NAA_J@Z 10044070 f i libucrtd:output.obj
 0001:000430a0       ??$extract_argument_from_va_list@E_J@?$standard_base@_WV?$string_output_adapter@_W@__crt_stdio_output@@@__crt_stdio_output@@IAE_NAA_J@Z 100440a0 f i libucrtd:output.obj
 0001:000430d0       ??$extract_argument_from_va_list@F_J@?$positional_parameter_base@DV?$stream_output_adapter@D@__crt_stdio_output@@@__crt_stdio_output@@IAE_NAA_J@Z 100440d0 f i libucrtd:output.obj
 0001:00043200       ??$extract_argument_from_va_list@F_J@?$positional_parameter_base@DV?$string_output_adapter@D@__crt_stdio_output@@@__crt_stdio_output@@IAE_NAA_J@Z 10044200 f i libucrtd:output.obj
 0001:00043330       ??$extract_argument_from_va_list@F_J@?$positional_parameter_base@_WV?$stream_output_adapter@_W@__crt_stdio_output@@@__crt_stdio_output@@IAE_NAA_J@Z 10044330 f i libucrtd:output.obj
 0001:00043460       ??$extract_argument_from_va_list@F_J@?$positional_parameter_base@_WV?$string_output_adapter@_W@__crt_stdio_output@@@__crt_stdio_output@@IAE_NAA_J@Z 10044460 f i libucrtd:output.obj
 0001:00043590       ??$extract_argument_from_va_list@F_J@?$standard_base@DV?$stream_output_adapter@D@__crt_stdio_output@@@__crt_stdio_output@@IAE_NAA_J@Z 10044590 f i libucrtd:output.obj
 0001:000435c0       ??$extract_argument_from_va_list@F_J@?$standard_base@DV?$string_output_adapter@D@__crt_stdio_output@@@__crt_stdio_output@@IAE_NAA_J@Z 100445c0 f i libucrtd:output.obj
 0001:000435f0       ??$extract_argument_from_va_list@F_J@?$standard_base@_WV?$stream_output_adapter@_W@__crt_stdio_output@@@__crt_stdio_output@@IAE_NAA_J@Z 100445f0 f i libucrtd:output.obj
 0001:00043620       ??$extract_argument_from_va_list@F_J@?$standard_base@_WV?$string_output_adapter@_W@__crt_stdio_output@@@__crt_stdio_output@@IAE_NAA_J@Z 10044620 f i libucrtd:output.obj
 0001:00043650       ??$extract_argument_from_va_list@GD@?$positional_parameter_base@DV?$stream_output_adapter@D@__crt_stdio_output@@@__crt_stdio_output@@IAE_NAAD@Z 10044650 f i libucrtd:output.obj
 0001:00043780       ??$extract_argument_from_va_list@GD@?$positional_parameter_base@DV?$string_output_adapter@D@__crt_stdio_output@@@__crt_stdio_output@@IAE_NAAD@Z 10044780 f i libucrtd:output.obj
 0001:000438b0       ??$extract_argument_from_va_list@GD@?$standard_base@DV?$stream_output_adapter@D@__crt_stdio_output@@@__crt_stdio_output@@IAE_NAAD@Z 100448b0 f i libucrtd:output.obj
 0001:000438e0       ??$extract_argument_from_va_list@GD@?$standard_base@DV?$string_output_adapter@D@__crt_stdio_output@@@__crt_stdio_output@@IAE_NAAD@Z 100448e0 f i libucrtd:output.obj
 0001:00043910       ??$extract_argument_from_va_list@G_J@?$positional_parameter_base@DV?$stream_output_adapter@D@__crt_stdio_output@@@__crt_stdio_output@@IAE_NAA_J@Z 10044910 f i libucrtd:output.obj
 0001:00043a50       ??$extract_argument_from_va_list@G_J@?$positional_parameter_base@DV?$string_output_adapter@D@__crt_stdio_output@@@__crt_stdio_output@@IAE_NAA_J@Z 10044a50 f i libucrtd:output.obj
 0001:00043b90       ??$extract_argument_from_va_list@G_J@?$positional_parameter_base@_WV?$stream_output_adapter@_W@__crt_stdio_output@@@__crt_stdio_output@@IAE_NAA_J@Z 10044b90 f i libucrtd:output.obj
 0001:00043cd0       ??$extract_argument_from_va_list@G_J@?$positional_parameter_base@_WV?$string_output_adapter@_W@__crt_stdio_output@@@__crt_stdio_output@@IAE_NAA_J@Z 10044cd0 f i libucrtd:output.obj
 0001:00043e10       ??$extract_argument_from_va_list@G_J@?$standard_base@DV?$stream_output_adapter@D@__crt_stdio_output@@@__crt_stdio_output@@IAE_NAA_J@Z 10044e10 f i libucrtd:output.obj
 0001:00043e40       ??$extract_argument_from_va_list@G_J@?$standard_base@DV?$string_output_adapter@D@__crt_stdio_output@@@__crt_stdio_output@@IAE_NAA_J@Z 10044e40 f i libucrtd:output.obj
 0001:00043e70       ??$extract_argument_from_va_list@G_J@?$standard_base@_WV?$stream_output_adapter@_W@__crt_stdio_output@@@__crt_stdio_output@@IAE_NAA_J@Z 10044e70 f i libucrtd:output.obj
 0001:00043ea0       ??$extract_argument_from_va_list@G_J@?$standard_base@_WV?$string_output_adapter@_W@__crt_stdio_output@@@__crt_stdio_output@@IAE_NAA_J@Z 10044ea0 f i libucrtd:output.obj
 0001:00043ed0       ??$extract_argument_from_va_list@H_J@?$positional_parameter_base@DV?$stream_output_adapter@D@__crt_stdio_output@@@__crt_stdio_output@@IAE_NAA_J@Z 10044ed0 f i libucrtd:output.obj
 0001:00044000       ??$extract_argument_from_va_list@H_J@?$positional_parameter_base@DV?$string_output_adapter@D@__crt_stdio_output@@@__crt_stdio_output@@IAE_NAA_J@Z 10045000 f i libucrtd:output.obj
 0001:00044130       ??$extract_argument_from_va_list@H_J@?$positional_parameter_base@_WV?$stream_output_adapter@_W@__crt_stdio_output@@@__crt_stdio_output@@IAE_NAA_J@Z 10045130 f i libucrtd:output.obj
 0001:00044260       ??$extract_argument_from_va_list@H_J@?$positional_parameter_base@_WV?$string_output_adapter@_W@__crt_stdio_output@@@__crt_stdio_output@@IAE_NAA_J@Z 10045260 f i libucrtd:output.obj
 0001:00044390       ??$extract_argument_from_va_list@H_J@?$standard_base@DV?$stream_output_adapter@D@__crt_stdio_output@@@__crt_stdio_output@@IAE_NAA_J@Z 10045390 f i libucrtd:output.obj
 0001:000443c0       ??$extract_argument_from_va_list@H_J@?$standard_base@DV?$string_output_adapter@D@__crt_stdio_output@@@__crt_stdio_output@@IAE_NAA_J@Z 100453c0 f i libucrtd:output.obj
 0001:000443f0       ??$extract_argument_from_va_list@H_J@?$standard_base@_WV?$stream_output_adapter@_W@__crt_stdio_output@@@__crt_stdio_output@@IAE_NAA_J@Z 100453f0 f i libucrtd:output.obj
 0001:00044420       ??$extract_argument_from_va_list@H_J@?$standard_base@_WV?$string_output_adapter@_W@__crt_stdio_output@@@__crt_stdio_output@@IAE_NAA_J@Z 10045420 f i libucrtd:output.obj
 0001:00044450       ??$extract_argument_from_va_list@I_J@?$positional_parameter_base@DV?$stream_output_adapter@D@__crt_stdio_output@@@__crt_stdio_output@@IAE_NAA_J@Z 10045450 f i libucrtd:output.obj
 0001:00044580       ??$extract_argument_from_va_list@I_J@?$positional_parameter_base@DV?$string_output_adapter@D@__crt_stdio_output@@@__crt_stdio_output@@IAE_NAA_J@Z 10045580 f i libucrtd:output.obj
 0001:000446b0       ??$extract_argument_from_va_list@I_J@?$positional_parameter_base@_WV?$stream_output_adapter@_W@__crt_stdio_output@@@__crt_stdio_output@@IAE_NAA_J@Z 100456b0 f i libucrtd:output.obj
 0001:000447e0       ??$extract_argument_from_va_list@I_J@?$positional_parameter_base@_WV?$string_output_adapter@_W@__crt_stdio_output@@@__crt_stdio_output@@IAE_NAA_J@Z 100457e0 f i libucrtd:output.obj
 0001:00044910       ??$extract_argument_from_va_list@I_J@?$standard_base@DV?$stream_output_adapter@D@__crt_stdio_output@@@__crt_stdio_output@@IAE_NAA_J@Z 10045910 f i libucrtd:output.obj
 0001:00044940       ??$extract_argument_from_va_list@I_J@?$standard_base@DV?$string_output_adapter@D@__crt_stdio_output@@@__crt_stdio_output@@IAE_NAA_J@Z 10045940 f i libucrtd:output.obj
 0001:00044970       ??$extract_argument_from_va_list@I_J@?$standard_base@_WV?$stream_output_adapter@_W@__crt_stdio_output@@@__crt_stdio_output@@IAE_NAA_J@Z 10045970 f i libucrtd:output.obj
 0001:000449a0       ??$extract_argument_from_va_list@I_J@?$standard_base@_WV?$string_output_adapter@_W@__crt_stdio_output@@@__crt_stdio_output@@IAE_NAA_J@Z 100459a0 f i libucrtd:output.obj
 0001:000449d0       ??$extract_argument_from_va_list@PADPAD@?$positional_parameter_base@DV?$stream_output_adapter@D@__crt_stdio_output@@@__crt_stdio_output@@IAE_NAAPAD@Z 100459d0 f i libucrtd:output.obj
 0001:00044b00       ??$extract_argument_from_va_list@PADPAD@?$positional_parameter_base@DV?$string_output_adapter@D@__crt_stdio_output@@@__crt_stdio_output@@IAE_NAAPAD@Z 10045b00 f i libucrtd:output.obj
 0001:00044c30       ??$extract_argument_from_va_list@PADPAD@?$positional_parameter_base@_WV?$stream_output_adapter@_W@__crt_stdio_output@@@__crt_stdio_output@@IAE_NAAPAD@Z 10045c30 f i libucrtd:output.obj
 0001:00044d60       ??$extract_argument_from_va_list@PADPAD@?$positional_parameter_base@_WV?$string_output_adapter@_W@__crt_stdio_output@@@__crt_stdio_output@@IAE_NAAPAD@Z 10045d60 f i libucrtd:output.obj
 0001:00044e90       ??$extract_argument_from_va_list@PADPAD@?$standard_base@DV?$stream_output_adapter@D@__crt_stdio_output@@@__crt_stdio_output@@IAE_NAAPAD@Z 10045e90 f i libucrtd:output.obj
 0001:00044ec0       ??$extract_argument_from_va_list@PADPAD@?$standard_base@DV?$string_output_adapter@D@__crt_stdio_output@@@__crt_stdio_output@@IAE_NAAPAD@Z 10045ec0 f i libucrtd:output.obj
 0001:00044ef0       ??$extract_argument_from_va_list@PADPAD@?$standard_base@_WV?$stream_output_adapter@_W@__crt_stdio_output@@@__crt_stdio_output@@IAE_NAAPAD@Z 10045ef0 f i libucrtd:output.obj
 0001:00044f20       ??$extract_argument_from_va_list@PADPAD@?$standard_base@_WV?$string_output_adapter@_W@__crt_stdio_output@@@__crt_stdio_output@@IAE_NAAPAD@Z 10045f20 f i libucrtd:output.obj
 0001:00045650       ??$extract_argument_from_va_list@PAXPAX@?$positional_parameter_base@DV?$stream_output_adapter@D@__crt_stdio_output@@@__crt_stdio_output@@IAE_NAAPAX@Z 10046650 f i libucrtd:output.obj
 0001:00045780       ??$extract_argument_from_va_list@PAXPAX@?$positional_parameter_base@DV?$string_output_adapter@D@__crt_stdio_output@@@__crt_stdio_output@@IAE_NAAPAX@Z 10046780 f i libucrtd:output.obj
 0001:000458b0       ??$extract_argument_from_va_list@PAXPAX@?$positional_parameter_base@_WV?$stream_output_adapter@_W@__crt_stdio_output@@@__crt_stdio_output@@IAE_NAAPAX@Z 100468b0 f i libucrtd:output.obj
 0001:000459e0       ??$extract_argument_from_va_list@PAXPAX@?$positional_parameter_base@_WV?$string_output_adapter@_W@__crt_stdio_output@@@__crt_stdio_output@@IAE_NAAPAX@Z 100469e0 f i libucrtd:output.obj
 0001:00045b10       ??$extract_argument_from_va_list@PAXPAX@?$standard_base@DV?$stream_output_adapter@D@__crt_stdio_output@@@__crt_stdio_output@@IAE_NAAPAX@Z 10046b10 f i libucrtd:output.obj
 0001:00045b40       ??$extract_argument_from_va_list@PAXPAX@?$standard_base@DV?$string_output_adapter@D@__crt_stdio_output@@@__crt_stdio_output@@IAE_NAAPAX@Z 10046b40 f i libucrtd:output.obj
 0001:00045b70       ??$extract_argument_from_va_list@PAXPAX@?$standard_base@_WV?$stream_output_adapter@_W@__crt_stdio_output@@@__crt_stdio_output@@IAE_NAAPAX@Z 10046b70 f i libucrtd:output.obj
 0001:00045ba0       ??$extract_argument_from_va_list@PAXPAX@?$standard_base@_WV?$string_output_adapter@_W@__crt_stdio_output@@@__crt_stdio_output@@IAE_NAAPAX@Z 10046ba0 f i libucrtd:output.obj
 0001:00045bd0       ??$extract_argument_from_va_list@U_CRT_DOUBLE@@U1@@?$positional_parameter_base@DV?$stream_output_adapter@D@__crt_stdio_output@@@__crt_stdio_output@@IAE_NAAU_CRT_DOUBLE@@@Z 10046bd0 f i libucrtd:output.obj
 0001:00045d30       ??$extract_argument_from_va_list@U_CRT_DOUBLE@@U1@@?$positional_parameter_base@DV?$string_output_adapter@D@__crt_stdio_output@@@__crt_stdio_output@@IAE_NAAU_CRT_DOUBLE@@@Z 10046d30 f i libucrtd:output.obj
 0001:00045e90       ??$extract_argument_from_va_list@U_CRT_DOUBLE@@U1@@?$positional_parameter_base@_WV?$stream_output_adapter@_W@__crt_stdio_output@@@__crt_stdio_output@@IAE_NAAU_CRT_DOUBLE@@@Z 10046e90 f i libucrtd:output.obj
 0001:00045ff0       ??$extract_argument_from_va_list@U_CRT_DOUBLE@@U1@@?$positional_parameter_base@_WV?$string_output_adapter@_W@__crt_stdio_output@@@__crt_stdio_output@@IAE_NAAU_CRT_DOUBLE@@@Z 10046ff0 f i libucrtd:output.obj
 0001:00046150       ??$extract_argument_from_va_list@U_CRT_DOUBLE@@U1@@?$standard_base@DV?$stream_output_adapter@D@__crt_stdio_output@@@__crt_stdio_output@@IAE_NAAU_CRT_DOUBLE@@@Z 10047150 f i libucrtd:output.obj
 0001:000461a0       ??$extract_argument_from_va_list@U_CRT_DOUBLE@@U1@@?$standard_base@DV?$string_output_adapter@D@__crt_stdio_output@@@__crt_stdio_output@@IAE_NAAU_CRT_DOUBLE@@@Z 100471a0 f i libucrtd:output.obj
 0001:000461f0       ??$extract_argument_from_va_list@U_CRT_DOUBLE@@U1@@?$standard_base@_WV?$stream_output_adapter@_W@__crt_stdio_output@@@__crt_stdio_output@@IAE_NAAU_CRT_DOUBLE@@@Z 100471f0 f i libucrtd:output.obj
 0001:00046240       ??$extract_argument_from_va_list@U_CRT_DOUBLE@@U1@@?$standard_base@_WV?$string_output_adapter@_W@__crt_stdio_output@@@__crt_stdio_output@@IAE_NAAU_CRT_DOUBLE@@@Z 10047240 f i libucrtd:output.obj
 0001:00046290       ??$extract_argument_from_va_list@_J_J@?$positional_parameter_base@DV?$stream_output_adapter@D@__crt_stdio_output@@@__crt_stdio_output@@IAE_NAA_J@Z 10047290 f i libucrtd:output.obj
 0001:000463c0       ??$extract_argument_from_va_list@_J_J@?$positional_parameter_base@DV?$string_output_adapter@D@__crt_stdio_output@@@__crt_stdio_output@@IAE_NAA_J@Z 100473c0 f i libucrtd:output.obj
 0001:000464f0       ??$extract_argument_from_va_list@_J_J@?$positional_parameter_base@_WV?$stream_output_adapter@_W@__crt_stdio_output@@@__crt_stdio_output@@IAE_NAA_J@Z 100474f0 f i libucrtd:output.obj
 0001:00046620       ??$extract_argument_from_va_list@_J_J@?$positional_parameter_base@_WV?$string_output_adapter@_W@__crt_stdio_output@@@__crt_stdio_output@@IAE_NAA_J@Z 10047620 f i libucrtd:output.obj
 0001:00046750       ??$extract_argument_from_va_list@_J_J@?$standard_base@DV?$stream_output_adapter@D@__crt_stdio_output@@@__crt_stdio_output@@IAE_NAA_J@Z 10047750 f i libucrtd:output.obj
 0001:00046780       ??$extract_argument_from_va_list@_J_J@?$standard_base@DV?$string_output_adapter@D@__crt_stdio_output@@@__crt_stdio_output@@IAE_NAA_J@Z 10047780 f i libucrtd:output.obj
 0001:000467b0       ??$extract_argument_from_va_list@_J_J@?$standard_base@_WV?$stream_output_adapter@_W@__crt_stdio_output@@@__crt_stdio_output@@IAE_NAA_J@Z 100477b0 f i libucrtd:output.obj
 0001:000467e0       ??$extract_argument_from_va_list@_J_J@?$standard_base@_WV?$string_output_adapter@_W@__crt_stdio_output@@@__crt_stdio_output@@IAE_NAA_J@Z 100477e0 f i libucrtd:output.obj
 0001:00046810       ??$extract_argument_from_va_list@_K_J@?$positional_parameter_base@DV?$stream_output_adapter@D@__crt_stdio_output@@@__crt_stdio_output@@IAE_NAA_J@Z 10047810 f i libucrtd:output.obj
 0001:00046940       ??$extract_argument_from_va_list@_K_J@?$positional_parameter_base@DV?$string_output_adapter@D@__crt_stdio_output@@@__crt_stdio_output@@IAE_NAA_J@Z 10047940 f i libucrtd:output.obj
 0001:00046a70       ??$extract_argument_from_va_list@_K_J@?$positional_parameter_base@_WV?$stream_output_adapter@_W@__crt_stdio_output@@@__crt_stdio_output@@IAE_NAA_J@Z 10047a70 f i libucrtd:output.obj
 0001:00046ba0       ??$extract_argument_from_va_list@_K_J@?$positional_parameter_base@_WV?$string_output_adapter@_W@__crt_stdio_output@@@__crt_stdio_output@@IAE_NAA_J@Z 10047ba0 f i libucrtd:output.obj
 0001:00046cd0       ??$extract_argument_from_va_list@_K_J@?$standard_base@DV?$stream_output_adapter@D@__crt_stdio_output@@@__crt_stdio_output@@IAE_NAA_J@Z 10047cd0 f i libucrtd:output.obj
 0001:00046d00       ??$extract_argument_from_va_list@_K_J@?$standard_base@DV?$string_output_adapter@D@__crt_stdio_output@@@__crt_stdio_output@@IAE_NAA_J@Z 10047d00 f i libucrtd:output.obj
 0001:00046d30       ??$extract_argument_from_va_list@_K_J@?$standard_base@_WV?$stream_output_adapter@_W@__crt_stdio_output@@@__crt_stdio_output@@IAE_NAA_J@Z 10047d30 f i libucrtd:output.obj
 0001:00046d60       ??$extract_argument_from_va_list@_K_J@?$standard_base@_WV?$string_output_adapter@_W@__crt_stdio_output@@@__crt_stdio_output@@IAE_NAA_J@Z 10047d60 f i libucrtd:output.obj
 0001:00046d90       ??$extract_argument_from_va_list@_W_W@?$positional_parameter_base@DV?$stream_output_adapter@D@__crt_stdio_output@@@__crt_stdio_output@@IAE_NAA_W@Z 10047d90 f i libucrtd:output.obj
 0001:00046ec0       ??$extract_argument_from_va_list@_W_W@?$positional_parameter_base@DV?$string_output_adapter@D@__crt_stdio_output@@@__crt_stdio_output@@IAE_NAA_W@Z 10047ec0 f i libucrtd:output.obj
 0001:00046ff0       ??$extract_argument_from_va_list@_W_W@?$positional_parameter_base@_WV?$stream_output_adapter@_W@__crt_stdio_output@@@__crt_stdio_output@@IAE_NAA_W@Z 10047ff0 f i libucrtd:output.obj
 0001:00047120       ??$extract_argument_from_va_list@_W_W@?$positional_parameter_base@_WV?$string_output_adapter@_W@__crt_stdio_output@@@__crt_stdio_output@@IAE_NAA_W@Z 10048120 f i libucrtd:output.obj
 0001:00047250       ??$extract_argument_from_va_list@_W_W@?$standard_base@DV?$stream_output_adapter@D@__crt_stdio_output@@@__crt_stdio_output@@IAE_NAA_W@Z 10048250 f i libucrtd:output.obj
 0001:00047280       ??$extract_argument_from_va_list@_W_W@?$standard_base@DV?$string_output_adapter@D@__crt_stdio_output@@@__crt_stdio_output@@IAE_NAA_W@Z 10048280 f i libucrtd:output.obj
 0001:000472b0       ??$extract_argument_from_va_list@_W_W@?$standard_base@_WV?$stream_output_adapter@_W@__crt_stdio_output@@@__crt_stdio_output@@IAE_NAA_W@Z 100482b0 f i libucrtd:output.obj
 0001:000472e0       ??$extract_argument_from_va_list@_W_W@?$standard_base@_WV?$string_output_adapter@_W@__crt_stdio_output@@@__crt_stdio_output@@IAE_NAA_W@Z 100482e0 f i libucrtd:output.obj
 0001:00047310       ??$get_parameter_type@D@?$positional_parameter_base@DV?$stream_output_adapter@D@__crt_stdio_output@@@__crt_stdio_output@@CA?AW4parameter_type@01@PAD@Z 10048310 f i libucrtd:output.obj
 0001:00047320       ??$get_parameter_type@D@?$positional_parameter_base@DV?$string_output_adapter@D@__crt_stdio_output@@@__crt_stdio_output@@CA?AW4parameter_type@01@PAD@Z 10048320 f i libucrtd:output.obj
 0001:00047330       ??$get_parameter_type@D@?$positional_parameter_base@_WV?$stream_output_adapter@_W@__crt_stdio_output@@@__crt_stdio_output@@CA?AW4parameter_type@01@PAD@Z 10048330 f i libucrtd:output.obj
 0001:00047340       ??$get_parameter_type@D@?$positional_parameter_base@_WV?$string_output_adapter@_W@__crt_stdio_output@@@__crt_stdio_output@@CA?AW4parameter_type@01@PAD@Z 10048340 f i libucrtd:output.obj
 0001:00047390       ??$get_parameter_type@X@?$positional_parameter_base@DV?$stream_output_adapter@D@__crt_stdio_output@@@__crt_stdio_output@@CA?AW4parameter_type@01@PAX@Z 10048390 f i libucrtd:output.obj
 0001:000473a0       ??$get_parameter_type@X@?$positional_parameter_base@DV?$string_output_adapter@D@__crt_stdio_output@@@__crt_stdio_output@@CA?AW4parameter_type@01@PAX@Z 100483a0 f i libucrtd:output.obj
 0001:000473b0       ??$get_parameter_type@X@?$positional_parameter_base@_WV?$stream_output_adapter@_W@__crt_stdio_output@@@__crt_stdio_output@@CA?AW4parameter_type@01@PAX@Z 100483b0 f i libucrtd:output.obj
 0001:000473c0       ??$get_parameter_type@X@?$positional_parameter_base@_WV?$string_output_adapter@_W@__crt_stdio_output@@@__crt_stdio_output@@CA?AW4parameter_type@01@PAX@Z 100483c0 f i libucrtd:output.obj
 0001:000473d0       ??$is_character_specifier@D@?$positional_parameter_base@DV?$stream_output_adapter@D@__crt_stdio_output@@@__crt_stdio_output@@CA_ND@Z 100483d0 f i libucrtd:output.obj
 0001:00047400       ??$is_character_specifier@D@?$positional_parameter_base@DV?$string_output_adapter@D@__crt_stdio_output@@@__crt_stdio_output@@CA_ND@Z 10048400 f i libucrtd:output.obj
 0001:00047430       ??$is_character_specifier@_W@?$positional_parameter_base@_WV?$stream_output_adapter@_W@__crt_stdio_output@@@__crt_stdio_output@@CA_N_W@Z 10048430 f i libucrtd:output.obj
 0001:00047460       ??$is_character_specifier@_W@?$positional_parameter_base@_WV?$string_output_adapter@_W@__crt_stdio_output@@@__crt_stdio_output@@CA_N_W@Z 10048460 f i libucrtd:output.obj
 0001:00047490       ??$is_integral_specifier@D@?$positional_parameter_base@DV?$stream_output_adapter@D@__crt_stdio_output@@@__crt_stdio_output@@CA_ND@Z 10048490 f i libucrtd:output.obj
 0001:000474f0       ??$is_integral_specifier@D@?$positional_parameter_base@DV?$string_output_adapter@D@__crt_stdio_output@@@__crt_stdio_output@@CA_ND@Z 100484f0 f i libucrtd:output.obj
 0001:00047550       ??$is_integral_specifier@_W@?$positional_parameter_base@_WV?$stream_output_adapter@_W@__crt_stdio_output@@@__crt_stdio_output@@CA_N_W@Z 10048550 f i libucrtd:output.obj
 0001:000475b0       ??$is_integral_specifier@_W@?$positional_parameter_base@_WV?$string_output_adapter@_W@__crt_stdio_output@@@__crt_stdio_output@@CA_N_W@Z 100485b0 f i libucrtd:output.obj
 0001:00047610       ??$is_pointer_specifier@D@?$positional_parameter_base@DV?$stream_output_adapter@D@__crt_stdio_output@@@__crt_stdio_output@@CA_ND@Z 10048610 f i libucrtd:output.obj
 0001:00047640       ??$is_pointer_specifier@D@?$positional_parameter_base@DV?$string_output_adapter@D@__crt_stdio_output@@@__crt_stdio_output@@CA_ND@Z 10048640 f i libucrtd:output.obj
 0001:00047670       ??$is_pointer_specifier@_W@?$positional_parameter_base@_WV?$stream_output_adapter@_W@__crt_stdio_output@@@__crt_stdio_output@@CA_N_W@Z 10048670 f i libucrtd:output.obj
 0001:000476a0       ??$is_pointer_specifier@_W@?$positional_parameter_base@_WV?$string_output_adapter@_W@__crt_stdio_output@@@__crt_stdio_output@@CA_N_W@Z 100486a0 f i libucrtd:output.obj
 0001:000476d0       ??$is_string_specifier@D@?$positional_parameter_base@DV?$stream_output_adapter@D@__crt_stdio_output@@@__crt_stdio_output@@CA_ND@Z 100486d0 f i libucrtd:output.obj
 0001:00047700       ??$is_string_specifier@D@?$positional_parameter_base@DV?$string_output_adapter@D@__crt_stdio_output@@@__crt_stdio_output@@CA_ND@Z 10048700 f i libucrtd:output.obj
 0001:00047730       ??$is_string_specifier@_W@?$positional_parameter_base@_WV?$stream_output_adapter@_W@__crt_stdio_output@@@__crt_stdio_output@@CA_N_W@Z 10048730 f i libucrtd:output.obj
 0001:00047760       ??$is_string_specifier@_W@?$positional_parameter_base@_WV?$string_output_adapter@_W@__crt_stdio_output@@@__crt_stdio_output@@CA_N_W@Z 10048760 f i libucrtd:output.obj
 0001:00047790       ??$is_wide_character_specifier@D@__crt_stdio_output@@YA_N_KDW4length_modifier@0@@Z 10048790 f i libucrtd:output.obj
 0001:00047810       ??$is_wide_character_specifier@_W@__crt_stdio_output@@YA_N_K_WW4length_modifier@0@@Z 10048810 f i libucrtd:output.obj
 0001:000478d0       ??$peek_va_arg@C@__crt_stdio_output@@YACPAD@Z 100488d0 f i libucrtd:output.obj
 0001:000478f0       ??$peek_va_arg@E@__crt_stdio_output@@YAEPAD@Z 100488f0 f i libucrtd:output.obj
 0001:00047910       ??$peek_va_arg@F@__crt_stdio_output@@YAFPAD@Z 10048910 f i libucrtd:output.obj
 0001:00047930       ??$peek_va_arg@G@__crt_stdio_output@@YAGPAD@Z 10048930 f i libucrtd:output.obj
 0001:00047950       ??$peek_va_arg@H@__crt_stdio_output@@YAHPAD@Z 10048950 f i libucrtd:output.obj
 0001:00047970       ??$peek_va_arg@I@__crt_stdio_output@@YAIPAD@Z 10048970 f i libucrtd:output.obj
 0001:00047990       ??$peek_va_arg@PAD@__crt_stdio_output@@YAPADPAD@Z 10048990 f i libucrtd:output.obj
 0001:00047a30       ??$peek_va_arg@PAX@__crt_stdio_output@@YAPAXPAD@Z 10048a30 f i libucrtd:output.obj
 0001:00047a50       ??$peek_va_arg@U_CRT_DOUBLE@@@__crt_stdio_output@@YA?AU_CRT_DOUBLE@@PAD@Z 10048a50 f i libucrtd:output.obj
 0001:00047a70       ??$peek_va_arg@_J@__crt_stdio_output@@YA_JPAD@Z 10048a70 f i libucrtd:output.obj
 0001:00047a90       ??$peek_va_arg@_K@__crt_stdio_output@@YA_KPAD@Z 10048a90 f i libucrtd:output.obj
 0001:00047ab0       ??$peek_va_arg@_W@__crt_stdio_output@@YA_WPAD@Z 10048ab0 f i libucrtd:output.obj
 0001:00047ad0       ??$puttc_nolock@ABDPAU_iobuf@@@?$__crt_char_traits@D@@SAHABD$$QAPAU_iobuf@@@Z 10048ad0 f i libucrtd:output.obj
 0001:00047af0       ??$puttc_nolock@AB_WPAU_iobuf@@@?$__crt_char_traits@_W@@SAGAB_W$$QAPAU_iobuf@@@Z 10048af0 f i libucrtd:output.obj
 0001:00047b10       ??$read_va_arg@C@__crt_stdio_output@@YACAAPAD@Z 10048b10 f i libucrtd:output.obj
 0001:00047b30       ??$read_va_arg@E@__crt_stdio_output@@YAEAAPAD@Z 10048b30 f i libucrtd:output.obj
 0001:00047b50       ??$read_va_arg@F@__crt_stdio_output@@YAFAAPAD@Z 10048b50 f i libucrtd:output.obj
 0001:00047b70       ??$read_va_arg@G@__crt_stdio_output@@YAGAAPAD@Z 10048b70 f i libucrtd:output.obj
 0001:00047b90       ??$read_va_arg@H@__crt_stdio_output@@YAHAAPAD@Z 10048b90 f i libucrtd:output.obj
 0001:00047bb0       ??$read_va_arg@I@__crt_stdio_output@@YAIAAPAD@Z 10048bb0 f i libucrtd:output.obj
 0001:00047bd0       ??$read_va_arg@PAD@__crt_stdio_output@@YAPADAAPAD@Z 10048bd0 f i libucrtd:output.obj
 0001:00047d70       ??$read_va_arg@PAX@__crt_stdio_output@@YAPAXAAPAD@Z 10048d70 f i libucrtd:output.obj
 0001:00047d90       ??$read_va_arg@U_CRT_DOUBLE@@@__crt_stdio_output@@YA?AU_CRT_DOUBLE@@AAPAD@Z 10048d90 f i libucrtd:output.obj
 0001:00047db0       ??$read_va_arg@_J@__crt_stdio_output@@YA_JAAPAD@Z 10048db0 f i libucrtd:output.obj
 0001:00047dd0       ??$read_va_arg@_K@__crt_stdio_output@@YA_KAAPAD@Z 10048dd0 f i libucrtd:output.obj
 0001:00047df0       ??$read_va_arg@_W@__crt_stdio_output@@YA_WAAPAD@Z 10048df0 f i libucrtd:output.obj
 0001:00047e10       ??$scratch_count@D@formatting_buffer@__crt_stdio_output@@QBEIXZ 10048e10 f i libucrtd:output.obj
 0001:00047e30       ??$scratch_data@D@formatting_buffer@__crt_stdio_output@@QAEPADXZ 10048e30 f i libucrtd:output.obj
 0001:00047e80       ??$tcstol@AAPBDPAPADH@?$__crt_char_traits@D@@SAJAAPBD$$QAPAPAD$$QAH@Z 10048e80 f i libucrtd:output.obj
 0001:00047eb0       ??$tcstol@AAPB_WPAPA_WH@?$__crt_char_traits@_W@@SAJAAPB_W$$QAPAPA_W$$QAH@Z 10048eb0 f i libucrtd:output.obj
 0001:00047ee0       ??$tcstol@PBDPAPADH@?$__crt_char_traits@D@@SAJ$$QAPBD$$QAPAPAD$$QAH@Z 10048ee0 f i libucrtd:output.obj
 0001:00047f10       ??$tcstol@PB_WPAPA_WH@?$__crt_char_traits@_W@@SAJ$$QAPB_W$$QAPAPA_W$$QAH@Z 10048f10 f i libucrtd:output.obj
 0001:00047f40       ??$type_case_integer_parse_into_buffer@I@?$output_processor@DV?$stream_output_adapter@D@__crt_stdio_output@@V?$format_validation_base@DV?$stream_output_adapter@D@__crt_stdio_output@@@2@@__crt_stdio_output@@AAEXII_N@Z 10048f40 f i libucrtd:output.obj
 0001:00048010       ??$type_case_integer_parse_into_buffer@I@?$output_processor@DV?$stream_output_adapter@D@__crt_stdio_output@@V?$positional_parameter_base@DV?$stream_output_adapter@D@__crt_stdio_output@@@2@@__crt_stdio_output@@AAEXII_N@Z 10049010 f i libucrtd:output.obj
 0001:000480e0       ??$type_case_integer_parse_into_buffer@I@?$output_processor@DV?$stream_output_adapter@D@__crt_stdio_output@@V?$standard_base@DV?$stream_output_adapter@D@__crt_stdio_output@@@2@@__crt_stdio_output@@AAEXII_N@Z 100490e0 f i libucrtd:output.obj
 0001:000481b0       ??$type_case_integer_parse_into_buffer@I@?$output_processor@DV?$string_output_adapter@D@__crt_stdio_output@@V?$format_validation_base@DV?$string_output_adapter@D@__crt_stdio_output@@@2@@__crt_stdio_output@@AAEXII_N@Z 100491b0 f i libucrtd:output.obj
 0001:00048280       ??$type_case_integer_parse_into_buffer@I@?$output_processor@DV?$string_output_adapter@D@__crt_stdio_output@@V?$positional_parameter_base@DV?$string_output_adapter@D@__crt_stdio_output@@@2@@__crt_stdio_output@@AAEXII_N@Z 10049280 f i libucrtd:output.obj
 0001:00048350       ??$type_case_integer_parse_into_buffer@I@?$output_processor@DV?$string_output_adapter@D@__crt_stdio_output@@V?$standard_base@DV?$string_output_adapter@D@__crt_stdio_output@@@2@@__crt_stdio_output@@AAEXII_N@Z 10049350 f i libucrtd:output.obj
 0001:00048420       ??$type_case_integer_parse_into_buffer@I@?$output_processor@_WV?$stream_output_adapter@_W@__crt_stdio_output@@V?$format_validation_base@_WV?$stream_output_adapter@_W@__crt_stdio_output@@@2@@__crt_stdio_output@@AAEXII_N@Z 10049420 f i libucrtd:output.obj
 0001:00048500       ??$type_case_integer_parse_into_buffer@I@?$output_processor@_WV?$stream_output_adapter@_W@__crt_stdio_output@@V?$positional_parameter_base@_WV?$stream_output_adapter@_W@__crt_stdio_output@@@2@@__crt_stdio_output@@AAEXII_N@Z 10049500 f i libucrtd:output.obj
 0001:000485e0       ??$type_case_integer_parse_into_buffer@I@?$output_processor@_WV?$stream_output_adapter@_W@__crt_stdio_output@@V?$standard_base@_WV?$stream_output_adapter@_W@__crt_stdio_output@@@2@@__crt_stdio_output@@AAEXII_N@Z 100495e0 f i libucrtd:output.obj
 0001:000486c0       ??$type_case_integer_parse_into_buffer@I@?$output_processor@_WV?$string_output_adapter@_W@__crt_stdio_output@@V?$format_validation_base@_WV?$string_output_adapter@_W@__crt_stdio_output@@@2@@__crt_stdio_output@@AAEXII_N@Z 100496c0 f i libucrtd:output.obj
 0001:000487a0       ??$type_case_integer_parse_into_buffer@I@?$output_processor@_WV?$string_output_adapter@_W@__crt_stdio_output@@V?$positional_parameter_base@_WV?$string_output_adapter@_W@__crt_stdio_output@@@2@@__crt_stdio_output@@AAEXII_N@Z 100497a0 f i libucrtd:output.obj
 0001:00048880       ??$type_case_integer_parse_into_buffer@I@?$output_processor@_WV?$string_output_adapter@_W@__crt_stdio_output@@V?$standard_base@_WV?$string_output_adapter@_W@__crt_stdio_output@@@2@@__crt_stdio_output@@AAEXII_N@Z 10049880 f i libucrtd:output.obj
 0001:00048960       ??$type_case_integer_parse_into_buffer@_K@?$output_processor@DV?$stream_output_adapter@D@__crt_stdio_output@@V?$format_validation_base@DV?$stream_output_adapter@D@__crt_stdio_output@@@2@@__crt_stdio_output@@AAEX_KI_N@Z 10049960 f i libucrtd:output.obj
 0001:00048a50       ??$type_case_integer_parse_into_buffer@_K@?$output_processor@DV?$stream_output_adapter@D@__crt_stdio_output@@V?$positional_parameter_base@DV?$stream_output_adapter@D@__crt_stdio_output@@@2@@__crt_stdio_output@@AAEX_KI_N@Z 10049a50 f i libucrtd:output.obj
 0001:00048b40       ??$type_case_integer_parse_into_buffer@_K@?$output_processor@DV?$stream_output_adapter@D@__crt_stdio_output@@V?$standard_base@DV?$stream_output_adapter@D@__crt_stdio_output@@@2@@__crt_stdio_output@@AAEX_KI_N@Z 10049b40 f i libucrtd:output.obj
 0001:00048c30       ??$type_case_integer_parse_into_buffer@_K@?$output_processor@DV?$string_output_adapter@D@__crt_stdio_output@@V?$format_validation_base@DV?$string_output_adapter@D@__crt_stdio_output@@@2@@__crt_stdio_output@@AAEX_KI_N@Z 10049c30 f i libucrtd:output.obj
 0001:00048d20       ??$type_case_integer_parse_into_buffer@_K@?$output_processor@DV?$string_output_adapter@D@__crt_stdio_output@@V?$positional_parameter_base@DV?$string_output_adapter@D@__crt_stdio_output@@@2@@__crt_stdio_output@@AAEX_KI_N@Z 10049d20 f i libucrtd:output.obj
 0001:00048e10       ??$type_case_integer_parse_into_buffer@_K@?$output_processor@DV?$string_output_adapter@D@__crt_stdio_output@@V?$standard_base@DV?$string_output_adapter@D@__crt_stdio_output@@@2@@__crt_stdio_output@@AAEX_KI_N@Z 10049e10 f i libucrtd:output.obj
 0001:00048f00       ??$type_case_integer_parse_into_buffer@_K@?$output_processor@_WV?$stream_output_adapter@_W@__crt_stdio_output@@V?$format_validation_base@_WV?$stream_output_adapter@_W@__crt_stdio_output@@@2@@__crt_stdio_output@@AAEX_KI_N@Z 10049f00 f i libucrtd:output.obj
 0001:00049000       ??$type_case_integer_parse_into_buffer@_K@?$output_processor@_WV?$stream_output_adapter@_W@__crt_stdio_output@@V?$positional_parameter_base@_WV?$stream_output_adapter@_W@__crt_stdio_output@@@2@@__crt_stdio_output@@AAEX_KI_N@Z 1004a000 f i libucrtd:output.obj
 0001:00049100       ??$type_case_integer_parse_into_buffer@_K@?$output_processor@_WV?$stream_output_adapter@_W@__crt_stdio_output@@V?$standard_base@_WV?$stream_output_adapter@_W@__crt_stdio_output@@@2@@__crt_stdio_output@@AAEX_KI_N@Z 1004a100 f i libucrtd:output.obj
 0001:00049200       ??$type_case_integer_parse_into_buffer@_K@?$output_processor@_WV?$string_output_adapter@_W@__crt_stdio_output@@V?$format_validation_base@_WV?$string_output_adapter@_W@__crt_stdio_output@@@2@@__crt_stdio_output@@AAEX_KI_N@Z 1004a200 f i libucrtd:output.obj
 0001:00049300       ??$type_case_integer_parse_into_buffer@_K@?$output_processor@_WV?$string_output_adapter@_W@__crt_stdio_output@@V?$positional_parameter_base@_WV?$string_output_adapter@_W@__crt_stdio_output@@@2@@__crt_stdio_output@@AAEX_KI_N@Z 1004a300 f i libucrtd:output.obj
 0001:00049400       ??$type_case_integer_parse_into_buffer@_K@?$output_processor@_WV?$string_output_adapter@_W@__crt_stdio_output@@V?$standard_base@_WV?$string_output_adapter@_W@__crt_stdio_output@@@2@@__crt_stdio_output@@AAEX_KI_N@Z 1004a400 f i libucrtd:output.obj
 0001:00049500       ??$write_multiple_characters@V?$stream_output_adapter@D@__crt_stdio_output@@D@__crt_stdio_output@@YAXABV?$stream_output_adapter@D@0@DHQAH@Z 1004a500 f i libucrtd:output.obj
 0001:00049550       ??$write_multiple_characters@V?$stream_output_adapter@_W@__crt_stdio_output@@D@__crt_stdio_output@@YAXABV?$stream_output_adapter@_W@0@DHQAH@Z 1004a550 f i libucrtd:output.obj
 0001:000495a0       ??$write_multiple_characters@V?$string_output_adapter@D@__crt_stdio_output@@D@__crt_stdio_output@@YAXABV?$string_output_adapter@D@0@DHQAH@Z 1004a5a0 f i libucrtd:output.obj
 0001:000495f0       ??$write_multiple_characters@V?$string_output_adapter@_W@__crt_stdio_output@@D@__crt_stdio_output@@YAXABV?$string_output_adapter@_W@0@DHQAH@Z 1004a5f0 f i libucrtd:output.obj
 0001:00049940       ??0?$common_data@D@__crt_stdio_output@@IAE@XZ 1004a940 f i libucrtd:output.obj
 0001:000499f0       ??0?$common_data@_W@__crt_stdio_output@@IAE@XZ 1004a9f0 f i libucrtd:output.obj
 0001:00049aa0       ??0?$output_adapter_data@DV?$stream_output_adapter@D@__crt_stdio_output@@@__crt_stdio_output@@IAE@ABV?$stream_output_adapter@D@1@_KQBDQAU__crt_locale_pointers@@QAD@Z 1004aaa0 f i libucrtd:output.obj
 0001:00049b00       ??0?$output_adapter_data@DV?$string_output_adapter@D@__crt_stdio_output@@@__crt_stdio_output@@IAE@ABV?$string_output_adapter@D@1@_KQBDQAU__crt_locale_pointers@@QAD@Z 1004ab00 f i libucrtd:output.obj
 0001:00049b60       ??0?$output_adapter_data@_WV?$stream_output_adapter@_W@__crt_stdio_output@@@__crt_stdio_output@@IAE@ABV?$stream_output_adapter@_W@1@_KQB_WQAU__crt_locale_pointers@@QAD@Z 1004ab60 f i libucrtd:output.obj
 0001:00049bc0       ??0?$output_adapter_data@_WV?$string_output_adapter@_W@__crt_stdio_output@@@__crt_stdio_output@@IAE@ABV?$string_output_adapter@_W@1@_KQB_WQAU__crt_locale_pointers@@QAD@Z 1004abc0 f i libucrtd:output.obj
 0001:00049c20       ??0?$output_processor@DV?$stream_output_adapter@D@__crt_stdio_output@@V?$format_validation_base@DV?$stream_output_adapter@D@__crt_stdio_output@@@2@@__crt_stdio_output@@QAE@ABV?$stream_output_adapter@D@1@_KQBDQAU__crt_locale_pointers@@QAD@Z 1004ac20 f i libucrtd:output.obj
 0001:00049c50       ??0?$output_processor@DV?$stream_output_adapter@D@__crt_stdio_output@@V?$positional_parameter_base@DV?$stream_output_adapter@D@__crt_stdio_output@@@2@@__crt_stdio_output@@QAE@ABV?$stream_output_adapter@D@1@_KQBDQAU__crt_locale_pointers@@QAD@Z 1004ac50 f i libucrtd:output.obj
 0001:00049c80       ??0?$output_processor@DV?$stream_output_adapter@D@__crt_stdio_output@@V?$standard_base@DV?$stream_output_adapter@D@__crt_stdio_output@@@2@@__crt_stdio_output@@QAE@ABV?$stream_output_adapter@D@1@_KQBDQAU__crt_locale_pointers@@QAD@Z 1004ac80 f i libucrtd:output.obj
 0001:00049cb0       ??0?$output_processor@DV?$string_output_adapter@D@__crt_stdio_output@@V?$format_validation_base@DV?$string_output_adapter@D@__crt_stdio_output@@@2@@__crt_stdio_output@@QAE@ABV?$string_output_adapter@D@1@_KQBDQAU__crt_locale_pointers@@QAD@Z 1004acb0 f i libucrtd:output.obj
 0001:00049ce0       ??0?$output_processor@DV?$string_output_adapter@D@__crt_stdio_output@@V?$positional_parameter_base@DV?$string_output_adapter@D@__crt_stdio_output@@@2@@__crt_stdio_output@@QAE@ABV?$string_output_adapter@D@1@_KQBDQAU__crt_locale_pointers@@QAD@Z 1004ace0 f i libucrtd:output.obj
 0001:00049d10       ??0?$output_processor@DV?$string_output_adapter@D@__crt_stdio_output@@V?$standard_base@DV?$string_output_adapter@D@__crt_stdio_output@@@2@@__crt_stdio_output@@QAE@ABV?$string_output_adapter@D@1@_KQBDQAU__crt_locale_pointers@@QAD@Z 1004ad10 f i libucrtd:output.obj
 0001:00049d40       ??0?$output_processor@_WV?$stream_output_adapter@_W@__crt_stdio_output@@V?$format_validation_base@_WV?$stream_output_adapter@_W@__crt_stdio_output@@@2@@__crt_stdio_output@@QAE@ABV?$stream_output_adapter@_W@1@_KQB_WQAU__crt_locale_pointers@@QAD@Z 1004ad40 f i libucrtd:output.obj
 0001:00049d70       ??0?$output_processor@_WV?$stream_output_adapter@_W@__crt_stdio_output@@V?$positional_parameter_base@_WV?$stream_output_adapter@_W@__crt_stdio_output@@@2@@__crt_stdio_output@@QAE@ABV?$stream_output_adapter@_W@1@_KQB_WQAU__crt_locale_pointers@@QAD@Z 1004ad70 f i libucrtd:output.obj
 0001:00049da0       ??0?$output_processor@_WV?$stream_output_adapter@_W@__crt_stdio_output@@V?$standard_base@_WV?$stream_output_adapter@_W@__crt_stdio_output@@@2@@__crt_stdio_output@@QAE@ABV?$stream_output_adapter@_W@1@_KQB_WQAU__crt_locale_pointers@@QAD@Z 1004ada0 f i libucrtd:output.obj
 0001:00049dd0       ??0?$output_processor@_WV?$string_output_adapter@_W@__crt_stdio_output@@V?$format_validation_base@_WV?$string_output_adapter@_W@__crt_stdio_output@@@2@@__crt_stdio_output@@QAE@ABV?$string_output_adapter@_W@1@_KQB_WQAU__crt_locale_pointers@@QAD@Z 1004add0 f i libucrtd:output.obj
 0001:00049e00       ??0?$output_processor@_WV?$string_output_adapter@_W@__crt_stdio_output@@V?$positional_parameter_base@_WV?$string_output_adapter@_W@__crt_stdio_output@@@2@@__crt_stdio_output@@QAE@ABV?$string_output_adapter@_W@1@_KQB_WQAU__crt_locale_pointers@@QAD@Z 1004ae00 f i libucrtd:output.obj
 0001:00049e30       ??0?$output_processor@_WV?$string_output_adapter@_W@__crt_stdio_output@@V?$standard_base@_WV?$string_output_adapter@_W@__crt_stdio_output@@@2@@__crt_stdio_output@@QAE@ABV?$string_output_adapter@_W@1@_KQB_WQAU__crt_locale_pointers@@QAD@Z 1004ae30 f i libucrtd:output.obj
 0001:00049e60       ??0?$stream_output_adapter@D@__crt_stdio_output@@QAE@QAU_iobuf@@@Z 1004ae60 f i libucrtd:output.obj
 0001:00049e80       ??0?$stream_output_adapter@_W@__crt_stdio_output@@QAE@QAU_iobuf@@@Z 1004ae80 f i libucrtd:output.obj
 0001:00049ea0       ??0?$string_output_adapter@D@__crt_stdio_output@@QAE@QAU?$string_output_adapter_context@D@1@@Z 1004aea0 f i libucrtd:output.obj
 0001:00049ec0       ??0?$string_output_adapter@_W@__crt_stdio_output@@QAE@QAU?$string_output_adapter_context@_W@1@@Z 1004aec0 f i libucrtd:output.obj
 0001:00049ee0       ??0_LocaleUpdate@@QAE@QAU__crt_locale_pointers@@@Z 1004aee0 f i libucrtd:output.obj
 0001:00049fc0       ??0__acrt_stdio_temporary_buffering_guard@@QAE@QAU_iobuf@@@Z 1004afc0 f i libucrtd:output.obj
 0001:00049ff0       ??0__crt_deferred_errno_cache@@QAE@XZ 1004aff0 f i libucrtd:output.obj
 0001:0004a010       ??0__crt_errno_guard@@QAE@QAH@Z 1004b010 f i libucrtd:output.obj
 0001:0004a040       ??0__crt_stdio_stream@@QAE@QAU_iobuf@@@Z 1004b040 f i libucrtd:output.obj
 0001:0004a060       ??0formatting_buffer@__crt_stdio_output@@QAE@XZ 1004b060 f i libucrtd:output.obj
 0001:0004a090       ??1?$common_data@D@__crt_stdio_output@@QAE@XZ 1004b090 f i libucrtd:output.obj
 0001:0004a0b0       ??1?$common_data@_W@__crt_stdio_output@@QAE@XZ 1004b0b0 f i libucrtd:output.obj
 0001:0004a0d0       ??1?$format_validation_base@DV?$stream_output_adapter@D@__crt_stdio_output@@@__crt_stdio_output@@QAE@XZ 1004b0d0 f i libucrtd:output.obj
 0001:0004a0f0       ??1?$format_validation_base@DV?$string_output_adapter@D@__crt_stdio_output@@@__crt_stdio_output@@QAE@XZ 1004b0f0 f i libucrtd:output.obj
 0001:0004a110       ??1?$format_validation_base@_WV?$stream_output_adapter@_W@__crt_stdio_output@@@__crt_stdio_output@@QAE@XZ 1004b110 f i libucrtd:output.obj
 0001:0004a130       ??1?$format_validation_base@_WV?$string_output_adapter@_W@__crt_stdio_output@@@__crt_stdio_output@@QAE@XZ 1004b130 f i libucrtd:output.obj
 0001:0004a150       ??1?$output_adapter_data@DV?$stream_output_adapter@D@__crt_stdio_output@@@__crt_stdio_output@@QAE@XZ 1004b150 f i libucrtd:output.obj
 0001:0004a170       ??1?$output_adapter_data@DV?$string_output_adapter@D@__crt_stdio_output@@@__crt_stdio_output@@QAE@XZ 1004b170 f i libucrtd:output.obj
 0001:0004a190       ??1?$output_adapter_data@_WV?$stream_output_adapter@_W@__crt_stdio_output@@@__crt_stdio_output@@QAE@XZ 1004b190 f i libucrtd:output.obj
 0001:0004a1b0       ??1?$output_adapter_data@_WV?$string_output_adapter@_W@__crt_stdio_output@@@__crt_stdio_output@@QAE@XZ 1004b1b0 f i libucrtd:output.obj
 0001:0004a1d0       ??1?$output_processor@DV?$stream_output_adapter@D@__crt_stdio_output@@V?$format_validation_base@DV?$stream_output_adapter@D@__crt_stdio_output@@@2@@__crt_stdio_output@@QAE@XZ 1004b1d0 f i libucrtd:output.obj
 0001:0004a1f0       ??1?$output_processor@DV?$stream_output_adapter@D@__crt_stdio_output@@V?$positional_parameter_base@DV?$stream_output_adapter@D@__crt_stdio_output@@@2@@__crt_stdio_output@@QAE@XZ 1004b1f0 f i libucrtd:output.obj
 0001:0004a210       ??1?$output_processor@DV?$stream_output_adapter@D@__crt_stdio_output@@V?$standard_base@DV?$stream_output_adapter@D@__crt_stdio_output@@@2@@__crt_stdio_output@@QAE@XZ 1004b210 f i libucrtd:output.obj
 0001:0004a230       ??1?$output_processor@DV?$string_output_adapter@D@__crt_stdio_output@@V?$format_validation_base@DV?$string_output_adapter@D@__crt_stdio_output@@@2@@__crt_stdio_output@@QAE@XZ 1004b230 f i libucrtd:output.obj
 0001:0004a250       ??1?$output_processor@DV?$string_output_adapter@D@__crt_stdio_output@@V?$positional_parameter_base@DV?$string_output_adapter@D@__crt_stdio_output@@@2@@__crt_stdio_output@@QAE@XZ 1004b250 f i libucrtd:output.obj
 0001:0004a270       ??1?$output_processor@DV?$string_output_adapter@D@__crt_stdio_output@@V?$standard_base@DV?$string_output_adapter@D@__crt_stdio_output@@@2@@__crt_stdio_output@@QAE@XZ 1004b270 f i libucrtd:output.obj
 0001:0004a290       ??1?$output_processor@_WV?$stream_output_adapter@_W@__crt_stdio_output@@V?$format_validation_base@_WV?$stream_output_adapter@_W@__crt_stdio_output@@@2@@__crt_stdio_output@@QAE@XZ 1004b290 f i libucrtd:output.obj
 0001:0004a2b0       ??1?$output_processor@_WV?$stream_output_adapter@_W@__crt_stdio_output@@V?$positional_parameter_base@_WV?$stream_output_adapter@_W@__crt_stdio_output@@@2@@__crt_stdio_output@@QAE@XZ 1004b2b0 f i libucrtd:output.obj
 0001:0004a2d0       ??1?$output_processor@_WV?$stream_output_adapter@_W@__crt_stdio_output@@V?$standard_base@_WV?$stream_output_adapter@_W@__crt_stdio_output@@@2@@__crt_stdio_output@@QAE@XZ 1004b2d0 f i libucrtd:output.obj
 0001:0004a2f0       ??1?$output_processor@_WV?$string_output_adapter@_W@__crt_stdio_output@@V?$format_validation_base@_WV?$string_output_adapter@_W@__crt_stdio_output@@@2@@__crt_stdio_output@@QAE@XZ 1004b2f0 f i libucrtd:output.obj
 0001:0004a310       ??1?$output_processor@_WV?$string_output_adapter@_W@__crt_stdio_output@@V?$positional_parameter_base@_WV?$string_output_adapter@_W@__crt_stdio_output@@@2@@__crt_stdio_output@@QAE@XZ 1004b310 f i libucrtd:output.obj
 0001:0004a330       ??1?$output_processor@_WV?$string_output_adapter@_W@__crt_stdio_output@@V?$standard_base@_WV?$string_output_adapter@_W@__crt_stdio_output@@@2@@__crt_stdio_output@@QAE@XZ 1004b330 f i libucrtd:output.obj
 0001:0004a350       ??1?$positional_parameter_base@DV?$stream_output_adapter@D@__crt_stdio_output@@@__crt_stdio_output@@QAE@XZ 1004b350 f i libucrtd:output.obj
 0001:0004a370       ??1?$positional_parameter_base@DV?$string_output_adapter@D@__crt_stdio_output@@@__crt_stdio_output@@QAE@XZ 1004b370 f i libucrtd:output.obj
 0001:0004a390       ??1?$positional_parameter_base@_WV?$stream_output_adapter@_W@__crt_stdio_output@@@__crt_stdio_output@@QAE@XZ 1004b390 f i libucrtd:output.obj
 0001:0004a3b0       ??1?$positional_parameter_base@_WV?$string_output_adapter@_W@__crt_stdio_output@@@__crt_stdio_output@@QAE@XZ 1004b3b0 f i libucrtd:output.obj
 0001:0004a3d0       ??1?$standard_base@DV?$stream_output_adapter@D@__crt_stdio_output@@@__crt_stdio_output@@QAE@XZ 1004b3d0 f i libucrtd:output.obj
 0001:0004a3f0       ??1?$standard_base@DV?$string_output_adapter@D@__crt_stdio_output@@@__crt_stdio_output@@QAE@XZ 1004b3f0 f i libucrtd:output.obj
 0001:0004a410       ??1?$standard_base@_WV?$stream_output_adapter@_W@__crt_stdio_output@@@__crt_stdio_output@@QAE@XZ 1004b410 f i libucrtd:output.obj
 0001:0004a430       ??1?$standard_base@_WV?$string_output_adapter@_W@__crt_stdio_output@@@__crt_stdio_output@@QAE@XZ 1004b430 f i libucrtd:output.obj
 0001:0004a450       ??1_LocaleUpdate@@QAE@XZ   1004b450 f i libucrtd:output.obj
 0001:0004a490       ??1__acrt_stdio_temporary_buffering_guard@@QAE@XZ 1004b490 f i libucrtd:output.obj
 0001:0004a4c0       ??1__crt_errno_guard@@QAE@XZ 1004b4c0 f i libucrtd:output.obj
 0001:0004a4f0       ??1formatting_buffer@__crt_stdio_output@@QAE@XZ 1004b4f0 f i libucrtd:output.obj
 0001:0004a510       ??4?$__crt_unique_heap_ptr@DU__crt_internal_free_policy@@@@QAEAAV0@$$QAV0@@Z 1004b510 f i libucrtd:output.obj
 0001:0004a540       ??C__crt_stdio_stream@@QBEPAU__crt_stdio_stream_data@@XZ 1004b540 f i libucrtd:output.obj
 0001:0004ac80       ?GetLocaleT@_LocaleUpdate@@QAEPAU__crt_locale_pointers@@XZ 1004bc80 f i libucrtd:output.obj
 0001:0004aca0       ?adjust_hexit@?$output_processor@DV?$stream_output_adapter@D@__crt_stdio_output@@V?$format_validation_base@DV?$stream_output_adapter@D@__crt_stdio_output@@@2@@__crt_stdio_output@@CADH_N@Z 1004bca0 f i libucrtd:output.obj
 0001:0004ace0       ?adjust_hexit@?$output_processor@DV?$stream_output_adapter@D@__crt_stdio_output@@V?$positional_parameter_base@DV?$stream_output_adapter@D@__crt_stdio_output@@@2@@__crt_stdio_output@@CADH_N@Z 1004bce0 f i libucrtd:output.obj
 0001:0004ad20       ?adjust_hexit@?$output_processor@DV?$stream_output_adapter@D@__crt_stdio_output@@V?$standard_base@DV?$stream_output_adapter@D@__crt_stdio_output@@@2@@__crt_stdio_output@@CADH_N@Z 1004bd20 f i libucrtd:output.obj
 0001:0004ad60       ?adjust_hexit@?$output_processor@DV?$string_output_adapter@D@__crt_stdio_output@@V?$format_validation_base@DV?$string_output_adapter@D@__crt_stdio_output@@@2@@__crt_stdio_output@@CADH_N@Z 1004bd60 f i libucrtd:output.obj
 0001:0004ada0       ?adjust_hexit@?$output_processor@DV?$string_output_adapter@D@__crt_stdio_output@@V?$positional_parameter_base@DV?$string_output_adapter@D@__crt_stdio_output@@@2@@__crt_stdio_output@@CADH_N@Z 1004bda0 f i libucrtd:output.obj
 0001:0004ade0       ?adjust_hexit@?$output_processor@DV?$string_output_adapter@D@__crt_stdio_output@@V?$standard_base@DV?$string_output_adapter@D@__crt_stdio_output@@@2@@__crt_stdio_output@@CADH_N@Z 1004bde0 f i libucrtd:output.obj
 0001:0004ae20       ?adjust_hexit@?$output_processor@_WV?$stream_output_adapter@_W@__crt_stdio_output@@V?$format_validation_base@_WV?$stream_output_adapter@_W@__crt_stdio_output@@@2@@__crt_stdio_output@@CADH_N@Z 1004be20 f i libucrtd:output.obj
 0001:0004ae60       ?adjust_hexit@?$output_processor@_WV?$stream_output_adapter@_W@__crt_stdio_output@@V?$positional_parameter_base@_WV?$stream_output_adapter@_W@__crt_stdio_output@@@2@@__crt_stdio_output@@CADH_N@Z 1004be60 f i libucrtd:output.obj
 0001:0004aea0       ?adjust_hexit@?$output_processor@_WV?$stream_output_adapter@_W@__crt_stdio_output@@V?$standard_base@_WV?$stream_output_adapter@_W@__crt_stdio_output@@@2@@__crt_stdio_output@@CADH_N@Z 1004bea0 f i libucrtd:output.obj
 0001:0004aee0       ?adjust_hexit@?$output_processor@_WV?$string_output_adapter@_W@__crt_stdio_output@@V?$format_validation_base@_WV?$string_output_adapter@_W@__crt_stdio_output@@@2@@__crt_stdio_output@@CADH_N@Z 1004bee0 f i libucrtd:output.obj
 0001:0004af20       ?adjust_hexit@?$output_processor@_WV?$string_output_adapter@_W@__crt_stdio_output@@V?$positional_parameter_base@_WV?$string_output_adapter@_W@__crt_stdio_output@@@2@@__crt_stdio_output@@CADH_N@Z 1004bf20 f i libucrtd:output.obj
 0001:0004af60       ?adjust_hexit@?$output_processor@_WV?$string_output_adapter@_W@__crt_stdio_output@@V?$standard_base@_WV?$string_output_adapter@_W@__crt_stdio_output@@@2@@__crt_stdio_output@@CADH_N@Z 1004bf60 f i libucrtd:output.obj
 0001:0004afa0       ?advance_to_next_pass@?$positional_parameter_base@DV?$stream_output_adapter@D@__crt_stdio_output@@@__crt_stdio_output@@IAE_NXZ 1004bfa0 f i libucrtd:output.obj
 0001:0004b040       ?advance_to_next_pass@?$positional_parameter_base@DV?$string_output_adapter@D@__crt_stdio_output@@@__crt_stdio_output@@IAE_NXZ 1004c040 f i libucrtd:output.obj
 0001:0004b0e0       ?advance_to_next_pass@?$positional_parameter_base@_WV?$stream_output_adapter@_W@__crt_stdio_output@@@__crt_stdio_output@@IAE_NXZ 1004c0e0 f i libucrtd:output.obj
 0001:0004b180       ?advance_to_next_pass@?$positional_parameter_base@_WV?$string_output_adapter@_W@__crt_stdio_output@@@__crt_stdio_output@@IAE_NXZ 1004c180 f i libucrtd:output.obj
 0001:0004b220       ?advance_to_next_pass@?$standard_base@DV?$stream_output_adapter@D@__crt_stdio_output@@@__crt_stdio_output@@IAE_NXZ 1004c220 f i libucrtd:output.obj
 0001:0004b270       ?advance_to_next_pass@?$standard_base@DV?$string_output_adapter@D@__crt_stdio_output@@@__crt_stdio_output@@IAE_NXZ 1004c270 f i libucrtd:output.obj
 0001:0004b2c0       ?advance_to_next_pass@?$standard_base@_WV?$stream_output_adapter@_W@__crt_stdio_output@@@__crt_stdio_output@@IAE_NXZ 1004c2c0 f i libucrtd:output.obj
 0001:0004b310       ?advance_to_next_pass@?$standard_base@_WV?$string_output_adapter@_W@__crt_stdio_output@@@__crt_stdio_output@@IAE_NXZ 1004c310 f i libucrtd:output.obj
 0001:0004b360       ?crop_zeroes@__crt_stdio_output@@YAXPADQAU__crt_locale_pointers@@@Z 1004c360 f i libucrtd:output.obj
 0001:0004b460       ?find_next_state@?$output_processor@DV?$stream_output_adapter@D@__crt_stdio_output@@V?$format_validation_base@DV?$stream_output_adapter@D@__crt_stdio_output@@@2@@__crt_stdio_output@@ABE?AW4state@2@DW432@@Z 1004c460 f i libucrtd:output.obj
 0001:0004b4e0       ?find_next_state@?$output_processor@DV?$stream_output_adapter@D@__crt_stdio_output@@V?$positional_parameter_base@DV?$stream_output_adapter@D@__crt_stdio_output@@@2@@__crt_stdio_output@@ABE?AW4state@2@DW432@@Z 1004c4e0 f i libucrtd:output.obj
 0001:0004b560       ?find_next_state@?$output_processor@DV?$stream_output_adapter@D@__crt_stdio_output@@V?$standard_base@DV?$stream_output_adapter@D@__crt_stdio_output@@@2@@__crt_stdio_output@@ABE?AW4state@2@DW432@@Z 1004c560 f i libucrtd:output.obj
 0001:0004b5e0       ?find_next_state@?$output_processor@DV?$string_output_adapter@D@__crt_stdio_output@@V?$format_validation_base@DV?$string_output_adapter@D@__crt_stdio_output@@@2@@__crt_stdio_output@@ABE?AW4state@2@DW432@@Z 1004c5e0 f i libucrtd:output.obj
 0001:0004b660       ?find_next_state@?$output_processor@DV?$string_output_adapter@D@__crt_stdio_output@@V?$positional_parameter_base@DV?$string_output_adapter@D@__crt_stdio_output@@@2@@__crt_stdio_output@@ABE?AW4state@2@DW432@@Z 1004c660 f i libucrtd:output.obj
 0001:0004b6e0       ?find_next_state@?$output_processor@DV?$string_output_adapter@D@__crt_stdio_output@@V?$standard_base@DV?$string_output_adapter@D@__crt_stdio_output@@@2@@__crt_stdio_output@@ABE?AW4state@2@DW432@@Z 1004c6e0 f i libucrtd:output.obj
 0001:0004b760       ?find_next_state@?$output_processor@_WV?$stream_output_adapter@_W@__crt_stdio_output@@V?$format_validation_base@_WV?$stream_output_adapter@_W@__crt_stdio_output@@@2@@__crt_stdio_output@@ABE?AW4state@2@_WW432@@Z 1004c760 f i libucrtd:output.obj
 0001:0004b7e0       ?find_next_state@?$output_processor@_WV?$stream_output_adapter@_W@__crt_stdio_output@@V?$positional_parameter_base@_WV?$stream_output_adapter@_W@__crt_stdio_output@@@2@@__crt_stdio_output@@ABE?AW4state@2@_WW432@@Z 1004c7e0 f i libucrtd:output.obj
 0001:0004b860       ?find_next_state@?$output_processor@_WV?$stream_output_adapter@_W@__crt_stdio_output@@V?$standard_base@_WV?$stream_output_adapter@_W@__crt_stdio_output@@@2@@__crt_stdio_output@@ABE?AW4state@2@_WW432@@Z 1004c860 f i libucrtd:output.obj
 0001:0004b8e0       ?find_next_state@?$output_processor@_WV?$string_output_adapter@_W@__crt_stdio_output@@V?$format_validation_base@_WV?$string_output_adapter@_W@__crt_stdio_output@@@2@@__crt_stdio_output@@ABE?AW4state@2@_WW432@@Z 1004c8e0 f i libucrtd:output.obj
 0001:0004b960       ?find_next_state@?$output_processor@_WV?$string_output_adapter@_W@__crt_stdio_output@@V?$positional_parameter_base@_WV?$string_output_adapter@_W@__crt_stdio_output@@@2@@__crt_stdio_output@@ABE?AW4state@2@_WW432@@Z 1004c960 f i libucrtd:output.obj
 0001:0004b9e0       ?find_next_state@?$output_processor@_WV?$string_output_adapter@_W@__crt_stdio_output@@V?$standard_base@_WV?$string_output_adapter@_W@__crt_stdio_output@@@2@@__crt_stdio_output@@ABE?AW4state@2@_WW432@@Z 1004c9e0 f i libucrtd:output.obj
 0001:0004ba60       ?force_decimal_point@__crt_stdio_output@@YAXPADQAU__crt_locale_pointers@@@Z 1004ca60 f i libucrtd:output.obj
 0001:0004bb30       ?get@__crt_deferred_errno_cache@@QAEAAHXZ 1004cb30 f i libucrtd:output.obj
 0001:0004bb60       ?get_flags@__crt_stdio_stream@@QBEJXZ 1004cb60 f i libucrtd:output.obj
 0001:0004bb80       ?get_parameter_type@?$positional_parameter_base@DV?$stream_output_adapter@D@__crt_stdio_output@@@__crt_stdio_output@@CA?AW4parameter_type@12@F@Z 1004cb80 f i libucrtd:output.obj
 0001:0004bb90       ?get_parameter_type@?$positional_parameter_base@DV?$stream_output_adapter@D@__crt_stdio_output@@@__crt_stdio_output@@CA?AW4parameter_type@12@G@Z 1004cb90 f i libucrtd:output.obj
 0001:0004bba0       ?get_parameter_type@?$positional_parameter_base@DV?$stream_output_adapter@D@__crt_stdio_output@@@__crt_stdio_output@@CA?AW4parameter_type@12@H@Z 1004cba0 f i libucrtd:output.obj
 0001:0004bbb0       ?get_parameter_type@?$positional_parameter_base@DV?$stream_output_adapter@D@__crt_stdio_output@@@__crt_stdio_output@@CA?AW4parameter_type@12@I@Z 1004cbb0 f i libucrtd:output.obj
 0001:0004bbc0       ?get_parameter_type@?$positional_parameter_base@DV?$stream_output_adapter@D@__crt_stdio_output@@@__crt_stdio_output@@CA?AW4parameter_type@12@U_CRT_DOUBLE@@@Z 1004cbc0 f i libucrtd:output.obj
 0001:0004bbd0       ?get_parameter_type@?$positional_parameter_base@DV?$stream_output_adapter@D@__crt_stdio_output@@@__crt_stdio_output@@CA?AW4parameter_type@12@_J@Z 1004cbd0 f i libucrtd:output.obj
 0001:0004bbe0       ?get_parameter_type@?$positional_parameter_base@DV?$stream_output_adapter@D@__crt_stdio_output@@@__crt_stdio_output@@CA?AW4parameter_type@12@_K@Z 1004cbe0 f i libucrtd:output.obj
 0001:0004bbf0       ?get_parameter_type@?$positional_parameter_base@DV?$stream_output_adapter@D@__crt_stdio_output@@@__crt_stdio_output@@CA?AW4parameter_type@12@_W@Z 1004cbf0 f i libucrtd:output.obj
 0001:0004bc00       ?get_parameter_type@?$positional_parameter_base@DV?$string_output_adapter@D@__crt_stdio_output@@@__crt_stdio_output@@CA?AW4parameter_type@12@F@Z 1004cc00 f i libucrtd:output.obj
 0001:0004bc10       ?get_parameter_type@?$positional_parameter_base@DV?$string_output_adapter@D@__crt_stdio_output@@@__crt_stdio_output@@CA?AW4parameter_type@12@G@Z 1004cc10 f i libucrtd:output.obj
 0001:0004bc20       ?get_parameter_type@?$positional_parameter_base@DV?$string_output_adapter@D@__crt_stdio_output@@@__crt_stdio_output@@CA?AW4parameter_type@12@H@Z 1004cc20 f i libucrtd:output.obj
 0001:0004bc30       ?get_parameter_type@?$positional_parameter_base@DV?$string_output_adapter@D@__crt_stdio_output@@@__crt_stdio_output@@CA?AW4parameter_type@12@I@Z 1004cc30 f i libucrtd:output.obj
 0001:0004bc40       ?get_parameter_type@?$positional_parameter_base@DV?$string_output_adapter@D@__crt_stdio_output@@@__crt_stdio_output@@CA?AW4parameter_type@12@U_CRT_DOUBLE@@@Z 1004cc40 f i libucrtd:output.obj
 0001:0004bc50       ?get_parameter_type@?$positional_parameter_base@DV?$string_output_adapter@D@__crt_stdio_output@@@__crt_stdio_output@@CA?AW4parameter_type@12@_J@Z 1004cc50 f i libucrtd:output.obj
 0001:0004bc60       ?get_parameter_type@?$positional_parameter_base@DV?$string_output_adapter@D@__crt_stdio_output@@@__crt_stdio_output@@CA?AW4parameter_type@12@_K@Z 1004cc60 f i libucrtd:output.obj
 0001:0004bc70       ?get_parameter_type@?$positional_parameter_base@DV?$string_output_adapter@D@__crt_stdio_output@@@__crt_stdio_output@@CA?AW4parameter_type@12@_W@Z 1004cc70 f i libucrtd:output.obj
 0001:0004bc80       ?get_parameter_type@?$positional_parameter_base@_WV?$stream_output_adapter@_W@__crt_stdio_output@@@__crt_stdio_output@@CA?AW4parameter_type@12@F@Z 1004cc80 f i libucrtd:output.obj
 0001:0004bc90       ?get_parameter_type@?$positional_parameter_base@_WV?$stream_output_adapter@_W@__crt_stdio_output@@@__crt_stdio_output@@CA?AW4parameter_type@12@G@Z 1004cc90 f i libucrtd:output.obj
 0001:0004bca0       ?get_parameter_type@?$positional_parameter_base@_WV?$stream_output_adapter@_W@__crt_stdio_output@@@__crt_stdio_output@@CA?AW4parameter_type@12@H@Z 1004cca0 f i libucrtd:output.obj
 0001:0004bcb0       ?get_parameter_type@?$positional_parameter_base@_WV?$stream_output_adapter@_W@__crt_stdio_output@@@__crt_stdio_output@@CA?AW4parameter_type@12@I@Z 1004ccb0 f i libucrtd:output.obj
 0001:0004bcc0       ?get_parameter_type@?$positional_parameter_base@_WV?$stream_output_adapter@_W@__crt_stdio_output@@@__crt_stdio_output@@CA?AW4parameter_type@12@U_CRT_DOUBLE@@@Z 1004ccc0 f i libucrtd:output.obj
 0001:0004bcd0       ?get_parameter_type@?$positional_parameter_base@_WV?$stream_output_adapter@_W@__crt_stdio_output@@@__crt_stdio_output@@CA?AW4parameter_type@12@_J@Z 1004ccd0 f i libucrtd:output.obj
 0001:0004bce0       ?get_parameter_type@?$positional_parameter_base@_WV?$stream_output_adapter@_W@__crt_stdio_output@@@__crt_stdio_output@@CA?AW4parameter_type@12@_K@Z 1004cce0 f i libucrtd:output.obj
 0001:0004bcf0       ?get_parameter_type@?$positional_parameter_base@_WV?$stream_output_adapter@_W@__crt_stdio_output@@@__crt_stdio_output@@CA?AW4parameter_type@12@_W@Z 1004ccf0 f i libucrtd:output.obj
 0001:0004bd00       ?get_parameter_type@?$positional_parameter_base@_WV?$string_output_adapter@_W@__crt_stdio_output@@@__crt_stdio_output@@CA?AW4parameter_type@12@F@Z 1004cd00 f i libucrtd:output.obj
 0001:0004bd10       ?get_parameter_type@?$positional_parameter_base@_WV?$string_output_adapter@_W@__crt_stdio_output@@@__crt_stdio_output@@CA?AW4parameter_type@12@G@Z 1004cd10 f i libucrtd:output.obj
 0001:0004bd20       ?get_parameter_type@?$positional_parameter_base@_WV?$string_output_adapter@_W@__crt_stdio_output@@@__crt_stdio_output@@CA?AW4parameter_type@12@H@Z 1004cd20 f i libucrtd:output.obj
 0001:0004bd30       ?get_parameter_type@?$positional_parameter_base@_WV?$string_output_adapter@_W@__crt_stdio_output@@@__crt_stdio_output@@CA?AW4parameter_type@12@I@Z 1004cd30 f i libucrtd:output.obj
 0001:0004bd40       ?get_parameter_type@?$positional_parameter_base@_WV?$string_output_adapter@_W@__crt_stdio_output@@@__crt_stdio_output@@CA?AW4parameter_type@12@U_CRT_DOUBLE@@@Z 1004cd40 f i libucrtd:output.obj
 0001:0004bd50       ?get_parameter_type@?$positional_parameter_base@_WV?$string_output_adapter@_W@__crt_stdio_output@@@__crt_stdio_output@@CA?AW4parameter_type@12@_J@Z 1004cd50 f i libucrtd:output.obj
 0001:0004bd60       ?get_parameter_type@?$positional_parameter_base@_WV?$string_output_adapter@_W@__crt_stdio_output@@@__crt_stdio_output@@CA?AW4parameter_type@12@_K@Z 1004cd60 f i libucrtd:output.obj
 0001:0004bd70       ?get_parameter_type@?$positional_parameter_base@_WV?$string_output_adapter@_W@__crt_stdio_output@@@__crt_stdio_output@@CA?AW4parameter_type@12@_W@Z 1004cd70 f i libucrtd:output.obj
 0001:0004bd80       ?has_flag@?$output_processor@DV?$stream_output_adapter@D@__crt_stdio_output@@V?$format_validation_base@DV?$stream_output_adapter@D@__crt_stdio_output@@@2@@__crt_stdio_output@@ABE_NI@Z 1004cd80 f i libucrtd:output.obj
 0001:0004bdb0       ?has_flag@?$output_processor@DV?$stream_output_adapter@D@__crt_stdio_output@@V?$positional_parameter_base@DV?$stream_output_adapter@D@__crt_stdio_output@@@2@@__crt_stdio_output@@ABE_NI@Z 1004cdb0 f i libucrtd:output.obj
 0001:0004bde0       ?has_flag@?$output_processor@DV?$stream_output_adapter@D@__crt_stdio_output@@V?$standard_base@DV?$stream_output_adapter@D@__crt_stdio_output@@@2@@__crt_stdio_output@@ABE_NI@Z 1004cde0 f i libucrtd:output.obj
 0001:0004be10       ?has_flag@?$output_processor@DV?$string_output_adapter@D@__crt_stdio_output@@V?$format_validation_base@DV?$string_output_adapter@D@__crt_stdio_output@@@2@@__crt_stdio_output@@ABE_NI@Z 1004ce10 f i libucrtd:output.obj
 0001:0004be40       ?has_flag@?$output_processor@DV?$string_output_adapter@D@__crt_stdio_output@@V?$positional_parameter_base@DV?$string_output_adapter@D@__crt_stdio_output@@@2@@__crt_stdio_output@@ABE_NI@Z 1004ce40 f i libucrtd:output.obj
 0001:0004be70       ?has_flag@?$output_processor@DV?$string_output_adapter@D@__crt_stdio_output@@V?$standard_base@DV?$string_output_adapter@D@__crt_stdio_output@@@2@@__crt_stdio_output@@ABE_NI@Z 1004ce70 f i libucrtd:output.obj
 0001:0004bea0       ?has_flag@?$output_processor@_WV?$stream_output_adapter@_W@__crt_stdio_output@@V?$format_validation_base@_WV?$stream_output_adapter@_W@__crt_stdio_output@@@2@@__crt_stdio_output@@ABE_NI@Z 1004cea0 f i libucrtd:output.obj
 0001:0004bed0       ?has_flag@?$output_processor@_WV?$stream_output_adapter@_W@__crt_stdio_output@@V?$positional_parameter_base@_WV?$stream_output_adapter@_W@__crt_stdio_output@@@2@@__crt_stdio_output@@ABE_NI@Z 1004ced0 f i libucrtd:output.obj
 0001:0004bf00       ?has_flag@?$output_processor@_WV?$stream_output_adapter@_W@__crt_stdio_output@@V?$standard_base@_WV?$stream_output_adapter@_W@__crt_stdio_output@@@2@@__crt_stdio_output@@ABE_NI@Z 1004cf00 f i libucrtd:output.obj
 0001:0004bf30       ?has_flag@?$output_processor@_WV?$string_output_adapter@_W@__crt_stdio_output@@V?$format_validation_base@_WV?$string_output_adapter@_W@__crt_stdio_output@@@2@@__crt_stdio_output@@ABE_NI@Z 1004cf30 f i libucrtd:output.obj
 0001:0004bf60       ?has_flag@?$output_processor@_WV?$string_output_adapter@_W@__crt_stdio_output@@V?$positional_parameter_base@_WV?$string_output_adapter@_W@__crt_stdio_output@@@2@@__crt_stdio_output@@ABE_NI@Z 1004cf60 f i libucrtd:output.obj
 0001:0004bf90       ?has_flag@?$output_processor@_WV?$string_output_adapter@_W@__crt_stdio_output@@V?$standard_base@_WV?$string_output_adapter@_W@__crt_stdio_output@@@2@@__crt_stdio_output@@ABE_NI@Z 1004cf90 f i libucrtd:output.obj
 0001:0004bfc0       ?is_positional_parameter_reappearance_consistent@?$positional_parameter_base@DV?$stream_output_adapter@D@__crt_stdio_output@@@__crt_stdio_output@@AAE_NABUparameter_data@12@W4parameter_type@12@DW4length_modifier@2@@Z 1004cfc0 f i libucrtd:output.obj
 0001:0004c1f0       ?is_positional_parameter_reappearance_consistent@?$positional_parameter_base@DV?$string_output_adapter@D@__crt_stdio_output@@@__crt_stdio_output@@AAE_NABUparameter_data@12@W4parameter_type@12@DW4length_modifier@2@@Z 1004d1f0 f i libucrtd:output.obj
 0001:0004c420       ?is_positional_parameter_reappearance_consistent@?$positional_parameter_base@_WV?$stream_output_adapter@_W@__crt_stdio_output@@@__crt_stdio_output@@AAE_NABUparameter_data@12@W4parameter_type@12@_WW4length_modifier@2@@Z 1004d420 f i libucrtd:output.obj
 0001:0004c650       ?is_positional_parameter_reappearance_consistent@?$positional_parameter_base@_WV?$string_output_adapter@_W@__crt_stdio_output@@@__crt_stdio_output@@AAE_NABUparameter_data@12@W4parameter_type@12@_WW4length_modifier@2@@Z 1004d650 f i libucrtd:output.obj
 0001:0004c880       ?is_string_backed@__crt_stdio_stream@@QBE_NXZ 1004d880 f i libucrtd:output.obj
 0001:0004c8c0       ?narrow_null_string@?$output_processor@DV?$stream_output_adapter@D@__crt_stdio_output@@V?$format_validation_base@DV?$stream_output_adapter@D@__crt_stdio_output@@@2@@__crt_stdio_output@@CAPADXZ 1004d8c0 f i libucrtd:output.obj
 0001:0004c8d0       ?narrow_null_string@?$output_processor@DV?$stream_output_adapter@D@__crt_stdio_output@@V?$positional_parameter_base@DV?$stream_output_adapter@D@__crt_stdio_output@@@2@@__crt_stdio_output@@CAPADXZ 1004d8d0 f i libucrtd:output.obj
 0001:0004c8e0       ?narrow_null_string@?$output_processor@DV?$stream_output_adapter@D@__crt_stdio_output@@V?$standard_base@DV?$stream_output_adapter@D@__crt_stdio_output@@@2@@__crt_stdio_output@@CAPADXZ 1004d8e0 f i libucrtd:output.obj
 0001:0004c8f0       ?narrow_null_string@?$output_processor@DV?$string_output_adapter@D@__crt_stdio_output@@V?$format_validation_base@DV?$string_output_adapter@D@__crt_stdio_output@@@2@@__crt_stdio_output@@CAPADXZ 1004d8f0 f i libucrtd:output.obj
 0001:0004c900       ?narrow_null_string@?$output_processor@DV?$string_output_adapter@D@__crt_stdio_output@@V?$positional_parameter_base@DV?$string_output_adapter@D@__crt_stdio_output@@@2@@__crt_stdio_output@@CAPADXZ 1004d900 f i libucrtd:output.obj
 0001:0004c910       ?narrow_null_string@?$output_processor@DV?$string_output_adapter@D@__crt_stdio_output@@V?$standard_base@DV?$string_output_adapter@D@__crt_stdio_output@@@2@@__crt_stdio_output@@CAPADXZ 1004d910 f i libucrtd:output.obj
 0001:0004c920       ?narrow_null_string@?$output_processor@_WV?$stream_output_adapter@_W@__crt_stdio_output@@V?$format_validation_base@_WV?$stream_output_adapter@_W@__crt_stdio_output@@@2@@__crt_stdio_output@@CAPADXZ 1004d920 f i libucrtd:output.obj
 0001:0004c930       ?narrow_null_string@?$output_processor@_WV?$stream_output_adapter@_W@__crt_stdio_output@@V?$positional_parameter_base@_WV?$stream_output_adapter@_W@__crt_stdio_output@@@2@@__crt_stdio_output@@CAPADXZ 1004d930 f i libucrtd:output.obj
 0001:0004c940       ?narrow_null_string@?$output_processor@_WV?$stream_output_adapter@_W@__crt_stdio_output@@V?$standard_base@_WV?$stream_output_adapter@_W@__crt_stdio_output@@@2@@__crt_stdio_output@@CAPADXZ 1004d940 f i libucrtd:output.obj
 0001:0004c950       ?narrow_null_string@?$output_processor@_WV?$string_output_adapter@_W@__crt_stdio_output@@V?$format_validation_base@_WV?$string_output_adapter@_W@__crt_stdio_output@@@2@@__crt_stdio_output@@CAPADXZ 1004d950 f i libucrtd:output.obj
 0001:0004c960       ?narrow_null_string@?$output_processor@_WV?$string_output_adapter@_W@__crt_stdio_output@@V?$positional_parameter_base@_WV?$string_output_adapter@_W@__crt_stdio_output@@@2@@__crt_stdio_output@@CAPADXZ 1004d960 f i libucrtd:output.obj
 0001:0004c970       ?narrow_null_string@?$output_processor@_WV?$string_output_adapter@_W@__crt_stdio_output@@V?$standard_base@_WV?$string_output_adapter@_W@__crt_stdio_output@@@2@@__crt_stdio_output@@CAPADXZ 1004d970 f i libucrtd:output.obj
 0001:0004c980       ?parse_int_from_format_string@?$output_processor@DV?$stream_output_adapter@D@__crt_stdio_output@@V?$format_validation_base@DV?$stream_output_adapter@D@__crt_stdio_output@@@2@@__crt_stdio_output@@AAE_NQAH@Z 1004d980 f i libucrtd:output.obj
 0001:0004ca40       ?parse_int_from_format_string@?$output_processor@DV?$stream_output_adapter@D@__crt_stdio_output@@V?$positional_parameter_base@DV?$stream_output_adapter@D@__crt_stdio_output@@@2@@__crt_stdio_output@@AAE_NQAH@Z 1004da40 f i libucrtd:output.obj
 0001:0004cb00       ?parse_int_from_format_string@?$output_processor@DV?$stream_output_adapter@D@__crt_stdio_output@@V?$standard_base@DV?$stream_output_adapter@D@__crt_stdio_output@@@2@@__crt_stdio_output@@AAE_NQAH@Z 1004db00 f i libucrtd:output.obj
 0001:0004cbc0       ?parse_int_from_format_string@?$output_processor@DV?$string_output_adapter@D@__crt_stdio_output@@V?$format_validation_base@DV?$string_output_adapter@D@__crt_stdio_output@@@2@@__crt_stdio_output@@AAE_NQAH@Z 1004dbc0 f i libucrtd:output.obj
 0001:0004cc80       ?parse_int_from_format_string@?$output_processor@DV?$string_output_adapter@D@__crt_stdio_output@@V?$positional_parameter_base@DV?$string_output_adapter@D@__crt_stdio_output@@@2@@__crt_stdio_output@@AAE_NQAH@Z 1004dc80 f i libucrtd:output.obj
 0001:0004cd40       ?parse_int_from_format_string@?$output_processor@DV?$string_output_adapter@D@__crt_stdio_output@@V?$standard_base@DV?$string_output_adapter@D@__crt_stdio_output@@@2@@__crt_stdio_output@@AAE_NQAH@Z 1004dd40 f i libucrtd:output.obj
 0001:0004ce00       ?parse_int_from_format_string@?$output_processor@_WV?$stream_output_adapter@_W@__crt_stdio_output@@V?$format_validation_base@_WV?$stream_output_adapter@_W@__crt_stdio_output@@@2@@__crt_stdio_output@@AAE_NQAH@Z 1004de00 f i libucrtd:output.obj
 0001:0004cec0       ?parse_int_from_format_string@?$output_processor@_WV?$stream_output_adapter@_W@__crt_stdio_output@@V?$positional_parameter_base@_WV?$stream_output_adapter@_W@__crt_stdio_output@@@2@@__crt_stdio_output@@AAE_NQAH@Z 1004dec0 f i libucrtd:output.obj
 0001:0004cf80       ?parse_int_from_format_string@?$output_processor@_WV?$stream_output_adapter@_W@__crt_stdio_output@@V?$standard_base@_WV?$stream_output_adapter@_W@__crt_stdio_output@@@2@@__crt_stdio_output@@AAE_NQAH@Z 1004df80 f i libucrtd:output.obj
 0001:0004d040       ?parse_int_from_format_string@?$output_processor@_WV?$string_output_adapter@_W@__crt_stdio_output@@V?$format_validation_base@_WV?$string_output_adapter@_W@__crt_stdio_output@@@2@@__crt_stdio_output@@AAE_NQAH@Z 1004e040 f i libucrtd:output.obj
 0001:0004d100       ?parse_int_from_format_string@?$output_processor@_WV?$string_output_adapter@_W@__crt_stdio_output@@V?$positional_parameter_base@_WV?$string_output_adapter@_W@__crt_stdio_output@@@2@@__crt_stdio_output@@AAE_NQAH@Z 1004e100 f i libucrtd:output.obj
 0001:0004d1c0       ?parse_int_from_format_string@?$output_processor@_WV?$string_output_adapter@_W@__crt_stdio_output@@V?$standard_base@_WV?$string_output_adapter@_W@__crt_stdio_output@@@2@@__crt_stdio_output@@AAE_NQAH@Z 1004e1c0 f i libucrtd:output.obj
 0001:0004d280       ?process@?$output_processor@DV?$stream_output_adapter@D@__crt_stdio_output@@V?$format_validation_base@DV?$stream_output_adapter@D@__crt_stdio_output@@@2@@__crt_stdio_output@@QAEHXZ 1004e280 f i libucrtd:output.obj
 0001:0004d530       ?process@?$output_processor@DV?$stream_output_adapter@D@__crt_stdio_output@@V?$positional_parameter_base@DV?$stream_output_adapter@D@__crt_stdio_output@@@2@@__crt_stdio_output@@QAEHXZ 1004e530 f i libucrtd:output.obj
 0001:0004d7e0       ?process@?$output_processor@DV?$stream_output_adapter@D@__crt_stdio_output@@V?$standard_base@DV?$stream_output_adapter@D@__crt_stdio_output@@@2@@__crt_stdio_output@@QAEHXZ 1004e7e0 f i libucrtd:output.obj
 0001:0004da90       ?process@?$output_processor@DV?$string_output_adapter@D@__crt_stdio_output@@V?$format_validation_base@DV?$string_output_adapter@D@__crt_stdio_output@@@2@@__crt_stdio_output@@QAEHXZ 1004ea90 f i libucrtd:output.obj
 0001:0004dd40       ?process@?$output_processor@DV?$string_output_adapter@D@__crt_stdio_output@@V?$positional_parameter_base@DV?$string_output_adapter@D@__crt_stdio_output@@@2@@__crt_stdio_output@@QAEHXZ 1004ed40 f i libucrtd:output.obj
 0001:0004dff0       ?process@?$output_processor@DV?$string_output_adapter@D@__crt_stdio_output@@V?$standard_base@DV?$string_output_adapter@D@__crt_stdio_output@@@2@@__crt_stdio_output@@QAEHXZ 1004eff0 f i libucrtd:output.obj
 0001:0004e2a0       ?process@?$output_processor@_WV?$stream_output_adapter@_W@__crt_stdio_output@@V?$format_validation_base@_WV?$stream_output_adapter@_W@__crt_stdio_output@@@2@@__crt_stdio_output@@QAEHXZ 1004f2a0 f i libucrtd:output.obj
 0001:0004e550       ?process@?$output_processor@_WV?$stream_output_adapter@_W@__crt_stdio_output@@V?$positional_parameter_base@_WV?$stream_output_adapter@_W@__crt_stdio_output@@@2@@__crt_stdio_output@@QAEHXZ 1004f550 f i libucrtd:output.obj
 0001:0004e800       ?process@?$output_processor@_WV?$stream_output_adapter@_W@__crt_stdio_output@@V?$standard_base@_WV?$stream_output_adapter@_W@__crt_stdio_output@@@2@@__crt_stdio_output@@QAEHXZ 1004f800 f i libucrtd:output.obj
 0001:0004eab0       ?process@?$output_processor@_WV?$string_output_adapter@_W@__crt_stdio_output@@V?$format_validation_base@_WV?$string_output_adapter@_W@__crt_stdio_output@@@2@@__crt_stdio_output@@QAEHXZ 1004fab0 f i libucrtd:output.obj
 0001:0004ed60       ?process@?$output_processor@_WV?$string_output_adapter@_W@__crt_stdio_output@@V?$positional_parameter_base@_WV?$string_output_adapter@_W@__crt_stdio_output@@@2@@__crt_stdio_output@@QAEHXZ 1004fd60 f i libucrtd:output.obj
 0001:0004f010       ?process@?$output_processor@_WV?$string_output_adapter@_W@__crt_stdio_output@@V?$standard_base@_WV?$string_output_adapter@_W@__crt_stdio_output@@@2@@__crt_stdio_output@@QAEHXZ 10050010 f i libucrtd:output.obj
 0001:0004f2c0       ?public_stream@__crt_stdio_stream@@QBEPAU_iobuf@@XZ 100502c0 f i libucrtd:output.obj
 0001:0004f2e0       ?set_flag@?$output_processor@DV?$stream_output_adapter@D@__crt_stdio_output@@V?$format_validation_base@DV?$stream_output_adapter@D@__crt_stdio_output@@@2@@__crt_stdio_output@@AAEXI@Z 100502e0 f i libucrtd:output.obj
 0001:0004f300       ?set_flag@?$output_processor@DV?$stream_output_adapter@D@__crt_stdio_output@@V?$positional_parameter_base@DV?$stream_output_adapter@D@__crt_stdio_output@@@2@@__crt_stdio_output@@AAEXI@Z 10050300 f i libucrtd:output.obj
 0001:0004f320       ?set_flag@?$output_processor@DV?$stream_output_adapter@D@__crt_stdio_output@@V?$standard_base@DV?$stream_output_adapter@D@__crt_stdio_output@@@2@@__crt_stdio_output@@AAEXI@Z 10050320 f i libucrtd:output.obj
 0001:0004f340       ?set_flag@?$output_processor@DV?$string_output_adapter@D@__crt_stdio_output@@V?$format_validation_base@DV?$string_output_adapter@D@__crt_stdio_output@@@2@@__crt_stdio_output@@AAEXI@Z 10050340 f i libucrtd:output.obj
 0001:0004f360       ?set_flag@?$output_processor@DV?$string_output_adapter@D@__crt_stdio_output@@V?$positional_parameter_base@DV?$string_output_adapter@D@__crt_stdio_output@@@2@@__crt_stdio_output@@AAEXI@Z 10050360 f i libucrtd:output.obj
 0001:0004f380       ?set_flag@?$output_processor@DV?$string_output_adapter@D@__crt_stdio_output@@V?$standard_base@DV?$string_output_adapter@D@__crt_stdio_output@@@2@@__crt_stdio_output@@AAEXI@Z 10050380 f i libucrtd:output.obj
 0001:0004f3a0       ?set_flag@?$output_processor@_WV?$stream_output_adapter@_W@__crt_stdio_output@@V?$format_validation_base@_WV?$stream_output_adapter@_W@__crt_stdio_output@@@2@@__crt_stdio_output@@AAEXI@Z 100503a0 f i libucrtd:output.obj
 0001:0004f3c0       ?set_flag@?$output_processor@_WV?$stream_output_adapter@_W@__crt_stdio_output@@V?$positional_parameter_base@_WV?$stream_output_adapter@_W@__crt_stdio_output@@@2@@__crt_stdio_output@@AAEXI@Z 100503c0 f i libucrtd:output.obj
 0001:0004f3e0       ?set_flag@?$output_processor@_WV?$stream_output_adapter@_W@__crt_stdio_output@@V?$standard_base@_WV?$stream_output_adapter@_W@__crt_stdio_output@@@2@@__crt_stdio_output@@AAEXI@Z 100503e0 f i libucrtd:output.obj
 0001:0004f400       ?set_flag@?$output_processor@_WV?$string_output_adapter@_W@__crt_stdio_output@@V?$format_validation_base@_WV?$string_output_adapter@_W@__crt_stdio_output@@@2@@__crt_stdio_output@@AAEXI@Z 10050400 f i libucrtd:output.obj
 0001:0004f420       ?set_flag@?$output_processor@_WV?$string_output_adapter@_W@__crt_stdio_output@@V?$positional_parameter_base@_WV?$string_output_adapter@_W@__crt_stdio_output@@@2@@__crt_stdio_output@@AAEXI@Z 10050420 f i libucrtd:output.obj
 0001:0004f440       ?set_flag@?$output_processor@_WV?$string_output_adapter@_W@__crt_stdio_output@@V?$standard_base@_WV?$string_output_adapter@_W@__crt_stdio_output@@@2@@__crt_stdio_output@@AAEXI@Z 10050440 f i libucrtd:output.obj
 0001:0004f460       ?should_format@?$positional_parameter_base@DV?$stream_output_adapter@D@__crt_stdio_output@@@__crt_stdio_output@@IAE_NXZ 10050460 f i libucrtd:output.obj
 0001:0004f4a0       ?should_format@?$positional_parameter_base@DV?$string_output_adapter@D@__crt_stdio_output@@@__crt_stdio_output@@IAE_NXZ 100504a0 f i libucrtd:output.obj
 0001:0004f4e0       ?should_format@?$positional_parameter_base@_WV?$stream_output_adapter@_W@__crt_stdio_output@@@__crt_stdio_output@@IAE_NXZ 100504e0 f i libucrtd:output.obj
 0001:0004f520       ?should_format@?$positional_parameter_base@_WV?$string_output_adapter@_W@__crt_stdio_output@@@__crt_stdio_output@@IAE_NXZ 10050520 f i libucrtd:output.obj
 0001:0004f560       ?should_format@?$standard_base@DV?$stream_output_adapter@D@__crt_stdio_output@@@__crt_stdio_output@@IAE_NXZ 10050560 f i libucrtd:output.obj
 0001:0004f570       ?should_format@?$standard_base@DV?$string_output_adapter@D@__crt_stdio_output@@@__crt_stdio_output@@IAE_NXZ 10050570 f i libucrtd:output.obj
 0001:0004f580       ?should_format@?$standard_base@_WV?$stream_output_adapter@_W@__crt_stdio_output@@@__crt_stdio_output@@IAE_NXZ 10050580 f i libucrtd:output.obj
 0001:0004f590       ?should_format@?$standard_base@_WV?$string_output_adapter@_W@__crt_stdio_output@@@__crt_stdio_output@@IAE_NXZ 10050590 f i libucrtd:output.obj
 0001:0004f5a0       ?should_skip_normal_state_processing@?$positional_parameter_base@DV?$stream_output_adapter@D@__crt_stdio_output@@@__crt_stdio_output@@IAE_NXZ 100505a0 f i libucrtd:output.obj
 0001:0004f5f0       ?should_skip_normal_state_processing@?$positional_parameter_base@DV?$string_output_adapter@D@__crt_stdio_output@@@__crt_stdio_output@@IAE_NXZ 100505f0 f i libucrtd:output.obj
 0001:0004f640       ?should_skip_normal_state_processing@?$positional_parameter_base@_WV?$stream_output_adapter@_W@__crt_stdio_output@@@__crt_stdio_output@@IAE_NXZ 10050640 f i libucrtd:output.obj
 0001:0004f690       ?should_skip_normal_state_processing@?$positional_parameter_base@_WV?$string_output_adapter@_W@__crt_stdio_output@@@__crt_stdio_output@@IAE_NXZ 10050690 f i libucrtd:output.obj
 0001:0004f6e0       ?should_skip_normal_state_processing@?$standard_base@DV?$stream_output_adapter@D@__crt_stdio_output@@@__crt_stdio_output@@IAE_NXZ 100506e0 f i libucrtd:output.obj
 0001:0004f6f0       ?should_skip_normal_state_processing@?$standard_base@DV?$string_output_adapter@D@__crt_stdio_output@@@__crt_stdio_output@@IAE_NXZ 100506f0 f i libucrtd:output.obj
 0001:0004f700       ?should_skip_normal_state_processing@?$standard_base@_WV?$stream_output_adapter@_W@__crt_stdio_output@@@__crt_stdio_output@@IAE_NXZ 10050700 f i libucrtd:output.obj
 0001:0004f710       ?should_skip_normal_state_processing@?$standard_base@_WV?$string_output_adapter@_W@__crt_stdio_output@@@__crt_stdio_output@@IAE_NXZ 10050710 f i libucrtd:output.obj
 0001:0004f720       ?should_skip_type_state_output@?$positional_parameter_base@DV?$stream_output_adapter@D@__crt_stdio_output@@@__crt_stdio_output@@IBE_NXZ 10050720 f i libucrtd:output.obj
 0001:0004f760       ?should_skip_type_state_output@?$positional_parameter_base@DV?$string_output_adapter@D@__crt_stdio_output@@@__crt_stdio_output@@IBE_NXZ 10050760 f i libucrtd:output.obj
 0001:0004f7a0       ?should_skip_type_state_output@?$positional_parameter_base@_WV?$stream_output_adapter@_W@__crt_stdio_output@@@__crt_stdio_output@@IBE_NXZ 100507a0 f i libucrtd:output.obj
 0001:0004f7e0       ?should_skip_type_state_output@?$positional_parameter_base@_WV?$string_output_adapter@_W@__crt_stdio_output@@@__crt_stdio_output@@IBE_NXZ 100507e0 f i libucrtd:output.obj
 0001:0004f820       ?should_skip_type_state_output@?$standard_base@DV?$stream_output_adapter@D@__crt_stdio_output@@@__crt_stdio_output@@IBE_NXZ 10050820 f i libucrtd:output.obj
 0001:0004f830       ?should_skip_type_state_output@?$standard_base@DV?$string_output_adapter@D@__crt_stdio_output@@@__crt_stdio_output@@IBE_NXZ 10050830 f i libucrtd:output.obj
 0001:0004f840       ?should_skip_type_state_output@?$standard_base@_WV?$stream_output_adapter@_W@__crt_stdio_output@@@__crt_stdio_output@@IBE_NXZ 10050840 f i libucrtd:output.obj
 0001:0004f850       ?should_skip_type_state_output@?$standard_base@_WV?$string_output_adapter@_W@__crt_stdio_output@@@__crt_stdio_output@@IBE_NXZ 10050850 f i libucrtd:output.obj
 0001:0004f860       ?state_case_dot@?$output_processor@DV?$stream_output_adapter@D@__crt_stdio_output@@V?$format_validation_base@DV?$stream_output_adapter@D@__crt_stdio_output@@@2@@__crt_stdio_output@@AAE_NXZ 10050860 f i libucrtd:output.obj
 0001:0004f880       ?state_case_dot@?$output_processor@DV?$stream_output_adapter@D@__crt_stdio_output@@V?$positional_parameter_base@DV?$stream_output_adapter@D@__crt_stdio_output@@@2@@__crt_stdio_output@@AAE_NXZ 10050880 f i libucrtd:output.obj
 0001:0004f8a0       ?state_case_dot@?$output_processor@DV?$stream_output_adapter@D@__crt_stdio_output@@V?$standard_base@DV?$stream_output_adapter@D@__crt_stdio_output@@@2@@__crt_stdio_output@@AAE_NXZ 100508a0 f i libucrtd:output.obj
 0001:0004f8c0       ?state_case_dot@?$output_processor@DV?$string_output_adapter@D@__crt_stdio_output@@V?$format_validation_base@DV?$string_output_adapter@D@__crt_stdio_output@@@2@@__crt_stdio_output@@AAE_NXZ 100508c0 f i libucrtd:output.obj
 0001:0004f8e0       ?state_case_dot@?$output_processor@DV?$string_output_adapter@D@__crt_stdio_output@@V?$positional_parameter_base@DV?$string_output_adapter@D@__crt_stdio_output@@@2@@__crt_stdio_output@@AAE_NXZ 100508e0 f i libucrtd:output.obj
 0001:0004f900       ?state_case_dot@?$output_processor@DV?$string_output_adapter@D@__crt_stdio_output@@V?$standard_base@DV?$string_output_adapter@D@__crt_stdio_output@@@2@@__crt_stdio_output@@AAE_NXZ 10050900 f i libucrtd:output.obj
 0001:0004f920       ?state_case_dot@?$output_processor@_WV?$stream_output_adapter@_W@__crt_stdio_output@@V?$format_validation_base@_WV?$stream_output_adapter@_W@__crt_stdio_output@@@2@@__crt_stdio_output@@AAE_NXZ 10050920 f i libucrtd:output.obj
 0001:0004f940       ?state_case_dot@?$output_processor@_WV?$stream_output_adapter@_W@__crt_stdio_output@@V?$positional_parameter_base@_WV?$stream_output_adapter@_W@__crt_stdio_output@@@2@@__crt_stdio_output@@AAE_NXZ 10050940 f i libucrtd:output.obj
 0001:0004f960       ?state_case_dot@?$output_processor@_WV?$stream_output_adapter@_W@__crt_stdio_output@@V?$standard_base@_WV?$stream_output_adapter@_W@__crt_stdio_output@@@2@@__crt_stdio_output@@AAE_NXZ 10050960 f i libucrtd:output.obj
 0001:0004f980       ?state_case_dot@?$output_processor@_WV?$string_output_adapter@_W@__crt_stdio_output@@V?$format_validation_base@_WV?$string_output_adapter@_W@__crt_stdio_output@@@2@@__crt_stdio_output@@AAE_NXZ 10050980 f i libucrtd:output.obj
 0001:0004f9a0       ?state_case_dot@?$output_processor@_WV?$string_output_adapter@_W@__crt_stdio_output@@V?$positional_parameter_base@_WV?$string_output_adapter@_W@__crt_stdio_output@@@2@@__crt_stdio_output@@AAE_NXZ 100509a0 f i libucrtd:output.obj
 0001:0004f9c0       ?state_case_dot@?$output_processor@_WV?$string_output_adapter@_W@__crt_stdio_output@@V?$standard_base@_WV?$string_output_adapter@_W@__crt_stdio_output@@@2@@__crt_stdio_output@@AAE_NXZ 100509c0 f i libucrtd:output.obj
 0001:0004f9e0       ?state_case_flag@?$output_processor@DV?$stream_output_adapter@D@__crt_stdio_output@@V?$format_validation_base@DV?$stream_output_adapter@D@__crt_stdio_output@@@2@@__crt_stdio_output@@AAE_NXZ 100509e0 f i libucrtd:output.obj
 0001:0004fa90       ?state_case_flag@?$output_processor@DV?$stream_output_adapter@D@__crt_stdio_output@@V?$positional_parameter_base@DV?$stream_output_adapter@D@__crt_stdio_output@@@2@@__crt_stdio_output@@AAE_NXZ 10050a90 f i libucrtd:output.obj
 0001:0004fb40       ?state_case_flag@?$output_processor@DV?$stream_output_adapter@D@__crt_stdio_output@@V?$standard_base@DV?$stream_output_adapter@D@__crt_stdio_output@@@2@@__crt_stdio_output@@AAE_NXZ 10050b40 f i libucrtd:output.obj
 0001:0004fbf0       ?state_case_flag@?$output_processor@DV?$string_output_adapter@D@__crt_stdio_output@@V?$format_validation_base@DV?$string_output_adapter@D@__crt_stdio_output@@@2@@__crt_stdio_output@@AAE_NXZ 10050bf0 f i libucrtd:output.obj
 0001:0004fca0       ?state_case_flag@?$output_processor@DV?$string_output_adapter@D@__crt_stdio_output@@V?$positional_parameter_base@DV?$string_output_adapter@D@__crt_stdio_output@@@2@@__crt_stdio_output@@AAE_NXZ 10050ca0 f i libucrtd:output.obj
 0001:0004fd50       ?state_case_flag@?$output_processor@DV?$string_output_adapter@D@__crt_stdio_output@@V?$standard_base@DV?$string_output_adapter@D@__crt_stdio_output@@@2@@__crt_stdio_output@@AAE_NXZ 10050d50 f i libucrtd:output.obj
 0001:0004fe00       ?state_case_flag@?$output_processor@_WV?$stream_output_adapter@_W@__crt_stdio_output@@V?$format_validation_base@_WV?$stream_output_adapter@_W@__crt_stdio_output@@@2@@__crt_stdio_output@@AAE_NXZ 10050e00 f i libucrtd:output.obj
 0001:0004feb0       ?state_case_flag@?$output_processor@_WV?$stream_output_adapter@_W@__crt_stdio_output@@V?$positional_parameter_base@_WV?$stream_output_adapter@_W@__crt_stdio_output@@@2@@__crt_stdio_output@@AAE_NXZ 10050eb0 f i libucrtd:output.obj
 0001:0004ff60       ?state_case_flag@?$output_processor@_WV?$stream_output_adapter@_W@__crt_stdio_output@@V?$standard_base@_WV?$stream_output_adapter@_W@__crt_stdio_output@@@2@@__crt_stdio_output@@AAE_NXZ 10050f60 f i libucrtd:output.obj
 0001:00050010       ?state_case_flag@?$output_processor@_WV?$string_output_adapter@_W@__crt_stdio_output@@V?$format_validation_base@_WV?$string_output_adapter@_W@__crt_stdio_output@@@2@@__crt_stdio_output@@AAE_NXZ 10051010 f i libucrtd:output.obj
 0001:000500c0       ?state_case_flag@?$output_processor@_WV?$string_output_adapter@_W@__crt_stdio_output@@V?$positional_parameter_base@_WV?$string_output_adapter@_W@__crt_stdio_output@@@2@@__crt_stdio_output@@AAE_NXZ 100510c0 f i libucrtd:output.obj
 0001:00050170       ?state_case_flag@?$output_processor@_WV?$string_output_adapter@_W@__crt_stdio_output@@V?$standard_base@_WV?$string_output_adapter@_W@__crt_stdio_output@@@2@@__crt_stdio_output@@AAE_NXZ 10051170 f i libucrtd:output.obj
 0001:00050220       ?state_case_normal@?$output_processor@DV?$stream_output_adapter@D@__crt_stdio_output@@V?$format_validation_base@DV?$stream_output_adapter@D@__crt_stdio_output@@@2@@__crt_stdio_output@@AAE_NXZ 10051220 f i libucrtd:output.obj
 0001:000502d0       ?state_case_normal@?$output_processor@DV?$stream_output_adapter@D@__crt_stdio_output@@V?$positional_parameter_base@DV?$stream_output_adapter@D@__crt_stdio_output@@@2@@__crt_stdio_output@@AAE_NXZ 100512d0 f i libucrtd:output.obj
 0001:00050380       ?state_case_normal@?$output_processor@DV?$stream_output_adapter@D@__crt_stdio_output@@V?$standard_base@DV?$stream_output_adapter@D@__crt_stdio_output@@@2@@__crt_stdio_output@@AAE_NXZ 10051380 f i libucrtd:output.obj
 0001:00050430       ?state_case_normal@?$output_processor@DV?$string_output_adapter@D@__crt_stdio_output@@V?$format_validation_base@DV?$string_output_adapter@D@__crt_stdio_output@@@2@@__crt_stdio_output@@AAE_NXZ 10051430 f i libucrtd:output.obj
 0001:000504e0       ?state_case_normal@?$output_processor@DV?$string_output_adapter@D@__crt_stdio_output@@V?$positional_parameter_base@DV?$string_output_adapter@D@__crt_stdio_output@@@2@@__crt_stdio_output@@AAE_NXZ 100514e0 f i libucrtd:output.obj
 0001:00050590       ?state_case_normal@?$output_processor@DV?$string_output_adapter@D@__crt_stdio_output@@V?$standard_base@DV?$string_output_adapter@D@__crt_stdio_output@@@2@@__crt_stdio_output@@AAE_NXZ 10051590 f i libucrtd:output.obj
 0001:00050640       ?state_case_normal@?$output_processor@_WV?$stream_output_adapter@_W@__crt_stdio_output@@V?$format_validation_base@_WV?$stream_output_adapter@_W@__crt_stdio_output@@@2@@__crt_stdio_output@@AAE_NXZ 10051640 f i libucrtd:output.obj
 0001:000506f0       ?state_case_normal@?$output_processor@_WV?$stream_output_adapter@_W@__crt_stdio_output@@V?$positional_parameter_base@_WV?$stream_output_adapter@_W@__crt_stdio_output@@@2@@__crt_stdio_output@@AAE_NXZ 100516f0 f i libucrtd:output.obj
 0001:000507a0       ?state_case_normal@?$output_processor@_WV?$stream_output_adapter@_W@__crt_stdio_output@@V?$standard_base@_WV?$stream_output_adapter@_W@__crt_stdio_output@@@2@@__crt_stdio_output@@AAE_NXZ 100517a0 f i libucrtd:output.obj
 0001:00050850       ?state_case_normal@?$output_processor@_WV?$string_output_adapter@_W@__crt_stdio_output@@V?$format_validation_base@_WV?$string_output_adapter@_W@__crt_stdio_output@@@2@@__crt_stdio_output@@AAE_NXZ 10051850 f i libucrtd:output.obj
 0001:00050900       ?state_case_normal@?$output_processor@_WV?$string_output_adapter@_W@__crt_stdio_output@@V?$positional_parameter_base@_WV?$string_output_adapter@_W@__crt_stdio_output@@@2@@__crt_stdio_output@@AAE_NXZ 10051900 f i libucrtd:output.obj
 0001:000509b0       ?state_case_normal@?$output_processor@_WV?$string_output_adapter@_W@__crt_stdio_output@@V?$standard_base@_WV?$string_output_adapter@_W@__crt_stdio_output@@@2@@__crt_stdio_output@@AAE_NXZ 100519b0 f i libucrtd:output.obj
 0001:00050a60       ?state_case_normal_common@?$output_processor@DV?$stream_output_adapter@D@__crt_stdio_output@@V?$format_validation_base@DV?$stream_output_adapter@D@__crt_stdio_output@@@2@@__crt_stdio_output@@AAE_NXZ 10051a60 f i libucrtd:output.obj
 0001:00050ab0       ?state_case_normal_common@?$output_processor@DV?$stream_output_adapter@D@__crt_stdio_output@@V?$positional_parameter_base@DV?$stream_output_adapter@D@__crt_stdio_output@@@2@@__crt_stdio_output@@AAE_NXZ 10051ab0 f i libucrtd:output.obj
 0001:00050b00       ?state_case_normal_common@?$output_processor@DV?$stream_output_adapter@D@__crt_stdio_output@@V?$standard_base@DV?$stream_output_adapter@D@__crt_stdio_output@@@2@@__crt_stdio_output@@AAE_NXZ 10051b00 f i libucrtd:output.obj
 0001:00050b50       ?state_case_normal_common@?$output_processor@DV?$string_output_adapter@D@__crt_stdio_output@@V?$format_validation_base@DV?$string_output_adapter@D@__crt_stdio_output@@@2@@__crt_stdio_output@@AAE_NXZ 10051b50 f i libucrtd:output.obj
 0001:00050ba0       ?state_case_normal_common@?$output_processor@DV?$string_output_adapter@D@__crt_stdio_output@@V?$positional_parameter_base@DV?$string_output_adapter@D@__crt_stdio_output@@@2@@__crt_stdio_output@@AAE_NXZ 10051ba0 f i libucrtd:output.obj
 0001:00050bf0       ?state_case_normal_common@?$output_processor@DV?$string_output_adapter@D@__crt_stdio_output@@V?$standard_base@DV?$string_output_adapter@D@__crt_stdio_output@@@2@@__crt_stdio_output@@AAE_NXZ 10051bf0 f i libucrtd:output.obj
 0001:00050c40       ?state_case_normal_common@?$output_processor@_WV?$stream_output_adapter@_W@__crt_stdio_output@@V?$format_validation_base@_WV?$stream_output_adapter@_W@__crt_stdio_output@@@2@@__crt_stdio_output@@AAE_NXZ 10051c40 f i libucrtd:output.obj
 0001:00050c90       ?state_case_normal_common@?$output_processor@_WV?$stream_output_adapter@_W@__crt_stdio_output@@V?$positional_parameter_base@_WV?$stream_output_adapter@_W@__crt_stdio_output@@@2@@__crt_stdio_output@@AAE_NXZ 10051c90 f i libucrtd:output.obj
 0001:00050ce0       ?state_case_normal_common@?$output_processor@_WV?$stream_output_adapter@_W@__crt_stdio_output@@V?$standard_base@_WV?$stream_output_adapter@_W@__crt_stdio_output@@@2@@__crt_stdio_output@@AAE_NXZ 10051ce0 f i libucrtd:output.obj
 0001:00050d30       ?state_case_normal_common@?$output_processor@_WV?$string_output_adapter@_W@__crt_stdio_output@@V?$format_validation_base@_WV?$string_output_adapter@_W@__crt_stdio_output@@@2@@__crt_stdio_output@@AAE_NXZ 10051d30 f i libucrtd:output.obj
 0001:00050d80       ?state_case_normal_common@?$output_processor@_WV?$string_output_adapter@_W@__crt_stdio_output@@V?$positional_parameter_base@_WV?$string_output_adapter@_W@__crt_stdio_output@@@2@@__crt_stdio_output@@AAE_NXZ 10051d80 f i libucrtd:output.obj
 0001:00050dd0       ?state_case_normal_common@?$output_processor@_WV?$string_output_adapter@_W@__crt_stdio_output@@V?$standard_base@_WV?$string_output_adapter@_W@__crt_stdio_output@@@2@@__crt_stdio_output@@AAE_NXZ 10051dd0 f i libucrtd:output.obj
 0001:00050e20       ?state_case_normal_tchar@?$output_processor@DV?$stream_output_adapter@D@__crt_stdio_output@@V?$format_validation_base@DV?$stream_output_adapter@D@__crt_stdio_output@@@2@@__crt_stdio_output@@AAE_ND@Z 10051e20 f i libucrtd:output.obj
 0001:00050f20       ?state_case_normal_tchar@?$output_processor@DV?$stream_output_adapter@D@__crt_stdio_output@@V?$positional_parameter_base@DV?$stream_output_adapter@D@__crt_stdio_output@@@2@@__crt_stdio_output@@AAE_ND@Z 10051f20 f i libucrtd:output.obj
 0001:00051020       ?state_case_normal_tchar@?$output_processor@DV?$stream_output_adapter@D@__crt_stdio_output@@V?$standard_base@DV?$stream_output_adapter@D@__crt_stdio_output@@@2@@__crt_stdio_output@@AAE_ND@Z 10052020 f i libucrtd:output.obj
 0001:00051120       ?state_case_normal_tchar@?$output_processor@DV?$string_output_adapter@D@__crt_stdio_output@@V?$format_validation_base@DV?$string_output_adapter@D@__crt_stdio_output@@@2@@__crt_stdio_output@@AAE_ND@Z 10052120 f i libucrtd:output.obj
 0001:00051220       ?state_case_normal_tchar@?$output_processor@DV?$string_output_adapter@D@__crt_stdio_output@@V?$positional_parameter_base@DV?$string_output_adapter@D@__crt_stdio_output@@@2@@__crt_stdio_output@@AAE_ND@Z 10052220 f i libucrtd:output.obj
 0001:00051320       ?state_case_normal_tchar@?$output_processor@DV?$string_output_adapter@D@__crt_stdio_output@@V?$standard_base@DV?$string_output_adapter@D@__crt_stdio_output@@@2@@__crt_stdio_output@@AAE_ND@Z 10052320 f i libucrtd:output.obj
 0001:00051420       ?state_case_normal_tchar@?$output_processor@_WV?$stream_output_adapter@_W@__crt_stdio_output@@V?$format_validation_base@_WV?$stream_output_adapter@_W@__crt_stdio_output@@@2@@__crt_stdio_output@@AAE_N_W@Z 10052420 f i libucrtd:output.obj
 0001:00051440       ?state_case_normal_tchar@?$output_processor@_WV?$stream_output_adapter@_W@__crt_stdio_output@@V?$positional_parameter_base@_WV?$stream_output_adapter@_W@__crt_stdio_output@@@2@@__crt_stdio_output@@AAE_N_W@Z 10052440 f i libucrtd:output.obj
 0001:00051460       ?state_case_normal_tchar@?$output_processor@_WV?$stream_output_adapter@_W@__crt_stdio_output@@V?$standard_base@_WV?$stream_output_adapter@_W@__crt_stdio_output@@@2@@__crt_stdio_output@@AAE_N_W@Z 10052460 f i libucrtd:output.obj
 0001:00051480       ?state_case_normal_tchar@?$output_processor@_WV?$string_output_adapter@_W@__crt_stdio_output@@V?$format_validation_base@_WV?$string_output_adapter@_W@__crt_stdio_output@@@2@@__crt_stdio_output@@AAE_N_W@Z 10052480 f i libucrtd:output.obj
 0001:000514a0       ?state_case_normal_tchar@?$output_processor@_WV?$string_output_adapter@_W@__crt_stdio_output@@V?$positional_parameter_base@_WV?$string_output_adapter@_W@__crt_stdio_output@@@2@@__crt_stdio_output@@AAE_N_W@Z 100524a0 f i libucrtd:output.obj
 0001:000514c0       ?state_case_normal_tchar@?$output_processor@_WV?$string_output_adapter@_W@__crt_stdio_output@@V?$standard_base@_WV?$string_output_adapter@_W@__crt_stdio_output@@@2@@__crt_stdio_output@@AAE_N_W@Z 100524c0 f i libucrtd:output.obj
 0001:000514e0       ?state_case_percent@?$output_processor@DV?$stream_output_adapter@D@__crt_stdio_output@@V?$format_validation_base@DV?$stream_output_adapter@D@__crt_stdio_output@@@2@@__crt_stdio_output@@AAE_NXZ 100524e0 f i libucrtd:output.obj
 0001:00051530       ?state_case_percent@?$output_processor@DV?$stream_output_adapter@D@__crt_stdio_output@@V?$positional_parameter_base@DV?$stream_output_adapter@D@__crt_stdio_output@@@2@@__crt_stdio_output@@AAE_NXZ 10052530 f i libucrtd:output.obj
 0001:00051580       ?state_case_percent@?$output_processor@DV?$stream_output_adapter@D@__crt_stdio_output@@V?$standard_base@DV?$stream_output_adapter@D@__crt_stdio_output@@@2@@__crt_stdio_output@@AAE_NXZ 10052580 f i libucrtd:output.obj
 0001:000515d0       ?state_case_percent@?$output_processor@DV?$string_output_adapter@D@__crt_stdio_output@@V?$format_validation_base@DV?$string_output_adapter@D@__crt_stdio_output@@@2@@__crt_stdio_output@@AAE_NXZ 100525d0 f i libucrtd:output.obj
 0001:00051620       ?state_case_percent@?$output_processor@DV?$string_output_adapter@D@__crt_stdio_output@@V?$positional_parameter_base@DV?$string_output_adapter@D@__crt_stdio_output@@@2@@__crt_stdio_output@@AAE_NXZ 10052620 f i libucrtd:output.obj
 0001:00051670       ?state_case_percent@?$output_processor@DV?$string_output_adapter@D@__crt_stdio_output@@V?$standard_base@DV?$string_output_adapter@D@__crt_stdio_output@@@2@@__crt_stdio_output@@AAE_NXZ 10052670 f i libucrtd:output.obj
 0001:000516c0       ?state_case_percent@?$output_processor@_WV?$stream_output_adapter@_W@__crt_stdio_output@@V?$format_validation_base@_WV?$stream_output_adapter@_W@__crt_stdio_output@@@2@@__crt_stdio_output@@AAE_NXZ 100526c0 f i libucrtd:output.obj
 0001:00051710       ?state_case_percent@?$output_processor@_WV?$stream_output_adapter@_W@__crt_stdio_output@@V?$positional_parameter_base@_WV?$stream_output_adapter@_W@__crt_stdio_output@@@2@@__crt_stdio_output@@AAE_NXZ 10052710 f i libucrtd:output.obj
 0001:00051760       ?state_case_percent@?$output_processor@_WV?$stream_output_adapter@_W@__crt_stdio_output@@V?$standard_base@_WV?$stream_output_adapter@_W@__crt_stdio_output@@@2@@__crt_stdio_output@@AAE_NXZ 10052760 f i libucrtd:output.obj
 0001:000517b0       ?state_case_percent@?$output_processor@_WV?$string_output_adapter@_W@__crt_stdio_output@@V?$format_validation_base@_WV?$string_output_adapter@_W@__crt_stdio_output@@@2@@__crt_stdio_output@@AAE_NXZ 100527b0 f i libucrtd:output.obj
 0001:00051800       ?state_case_percent@?$output_processor@_WV?$string_output_adapter@_W@__crt_stdio_output@@V?$positional_parameter_base@_WV?$string_output_adapter@_W@__crt_stdio_output@@@2@@__crt_stdio_output@@AAE_NXZ 10052800 f i libucrtd:output.obj
 0001:00051850       ?state_case_percent@?$output_processor@_WV?$string_output_adapter@_W@__crt_stdio_output@@V?$standard_base@_WV?$string_output_adapter@_W@__crt_stdio_output@@@2@@__crt_stdio_output@@AAE_NXZ 10052850 f i libucrtd:output.obj
 0001:000518a0       ?state_case_precision@?$output_processor@DV?$stream_output_adapter@D@__crt_stdio_output@@V?$format_validation_base@DV?$stream_output_adapter@D@__crt_stdio_output@@@2@@__crt_stdio_output@@AAE_NXZ 100528a0 f i libucrtd:output.obj
 0001:00051910       ?state_case_precision@?$output_processor@DV?$stream_output_adapter@D@__crt_stdio_output@@V?$positional_parameter_base@DV?$stream_output_adapter@D@__crt_stdio_output@@@2@@__crt_stdio_output@@AAE_NXZ 10052910 f i libucrtd:output.obj
 0001:00051980       ?state_case_precision@?$output_processor@DV?$stream_output_adapter@D@__crt_stdio_output@@V?$standard_base@DV?$stream_output_adapter@D@__crt_stdio_output@@@2@@__crt_stdio_output@@AAE_NXZ 10052980 f i libucrtd:output.obj
 0001:000519f0       ?state_case_precision@?$output_processor@DV?$string_output_adapter@D@__crt_stdio_output@@V?$format_validation_base@DV?$string_output_adapter@D@__crt_stdio_output@@@2@@__crt_stdio_output@@AAE_NXZ 100529f0 f i libucrtd:output.obj
 0001:00051a60       ?state_case_precision@?$output_processor@DV?$string_output_adapter@D@__crt_stdio_output@@V?$positional_parameter_base@DV?$string_output_adapter@D@__crt_stdio_output@@@2@@__crt_stdio_output@@AAE_NXZ 10052a60 f i libucrtd:output.obj
 0001:00051ad0       ?state_case_precision@?$output_processor@DV?$string_output_adapter@D@__crt_stdio_output@@V?$standard_base@DV?$string_output_adapter@D@__crt_stdio_output@@@2@@__crt_stdio_output@@AAE_NXZ 10052ad0 f i libucrtd:output.obj
 0001:00051b40       ?state_case_precision@?$output_processor@_WV?$stream_output_adapter@_W@__crt_stdio_output@@V?$format_validation_base@_WV?$stream_output_adapter@_W@__crt_stdio_output@@@2@@__crt_stdio_output@@AAE_NXZ 10052b40 f i libucrtd:output.obj
 0001:00051bb0       ?state_case_precision@?$output_processor@_WV?$stream_output_adapter@_W@__crt_stdio_output@@V?$positional_parameter_base@_WV?$stream_output_adapter@_W@__crt_stdio_output@@@2@@__crt_stdio_output@@AAE_NXZ 10052bb0 f i libucrtd:output.obj
 0001:00051c20       ?state_case_precision@?$output_processor@_WV?$stream_output_adapter@_W@__crt_stdio_output@@V?$standard_base@_WV?$stream_output_adapter@_W@__crt_stdio_output@@@2@@__crt_stdio_output@@AAE_NXZ 10052c20 f i libucrtd:output.obj
 0001:00051c90       ?state_case_precision@?$output_processor@_WV?$string_output_adapter@_W@__crt_stdio_output@@V?$format_validation_base@_WV?$string_output_adapter@_W@__crt_stdio_output@@@2@@__crt_stdio_output@@AAE_NXZ 10052c90 f i libucrtd:output.obj
 0001:00051d00       ?state_case_precision@?$output_processor@_WV?$string_output_adapter@_W@__crt_stdio_output@@V?$positional_parameter_base@_WV?$string_output_adapter@_W@__crt_stdio_output@@@2@@__crt_stdio_output@@AAE_NXZ 10052d00 f i libucrtd:output.obj
 0001:00051d70       ?state_case_precision@?$output_processor@_WV?$string_output_adapter@_W@__crt_stdio_output@@V?$standard_base@_WV?$string_output_adapter@_W@__crt_stdio_output@@@2@@__crt_stdio_output@@AAE_NXZ 10052d70 f i libucrtd:output.obj
 0001:00051de0       ?state_case_size@?$output_processor@DV?$stream_output_adapter@D@__crt_stdio_output@@V?$format_validation_base@DV?$stream_output_adapter@D@__crt_stdio_output@@@2@@__crt_stdio_output@@AAE_NXZ 10052de0 f i libucrtd:output.obj
 0001:000521b0       ?state_case_size@?$output_processor@DV?$stream_output_adapter@D@__crt_stdio_output@@V?$positional_parameter_base@DV?$stream_output_adapter@D@__crt_stdio_output@@@2@@__crt_stdio_output@@AAE_NXZ 100531b0 f i libucrtd:output.obj
 0001:00052580       ?state_case_size@?$output_processor@DV?$stream_output_adapter@D@__crt_stdio_output@@V?$standard_base@DV?$stream_output_adapter@D@__crt_stdio_output@@@2@@__crt_stdio_output@@AAE_NXZ 10053580 f i libucrtd:output.obj
 0001:00052950       ?state_case_size@?$output_processor@DV?$string_output_adapter@D@__crt_stdio_output@@V?$format_validation_base@DV?$string_output_adapter@D@__crt_stdio_output@@@2@@__crt_stdio_output@@AAE_NXZ 10053950 f i libucrtd:output.obj
 0001:00052d20       ?state_case_size@?$output_processor@DV?$string_output_adapter@D@__crt_stdio_output@@V?$positional_parameter_base@DV?$string_output_adapter@D@__crt_stdio_output@@@2@@__crt_stdio_output@@AAE_NXZ 10053d20 f i libucrtd:output.obj
 0001:000530f0       ?state_case_size@?$output_processor@DV?$string_output_adapter@D@__crt_stdio_output@@V?$standard_base@DV?$string_output_adapter@D@__crt_stdio_output@@@2@@__crt_stdio_output@@AAE_NXZ 100540f0 f i libucrtd:output.obj
 0001:000534c0       ?state_case_size@?$output_processor@_WV?$stream_output_adapter@_W@__crt_stdio_output@@V?$format_validation_base@_WV?$stream_output_adapter@_W@__crt_stdio_output@@@2@@__crt_stdio_output@@AAE_NXZ 100544c0 f i libucrtd:output.obj
 0001:00053890       ?state_case_size@?$output_processor@_WV?$stream_output_adapter@_W@__crt_stdio_output@@V?$positional_parameter_base@_WV?$stream_output_adapter@_W@__crt_stdio_output@@@2@@__crt_stdio_output@@AAE_NXZ 10054890 f i libucrtd:output.obj
 0001:00053c60       ?state_case_size@?$output_processor@_WV?$stream_output_adapter@_W@__crt_stdio_output@@V?$standard_base@_WV?$stream_output_adapter@_W@__crt_stdio_output@@@2@@__crt_stdio_output@@AAE_NXZ 10054c60 f i libucrtd:output.obj
 0001:00054030       ?state_case_size@?$output_processor@_WV?$string_output_adapter@_W@__crt_stdio_output@@V?$format_validation_base@_WV?$string_output_adapter@_W@__crt_stdio_output@@@2@@__crt_stdio_output@@AAE_NXZ 10055030 f i libucrtd:output.obj
 0001:00054400       ?state_case_size@?$output_processor@_WV?$string_output_adapter@_W@__crt_stdio_output@@V?$positional_parameter_base@_WV?$string_output_adapter@_W@__crt_stdio_output@@@2@@__crt_stdio_output@@AAE_NXZ 10055400 f i libucrtd:output.obj
 0001:000547d0       ?state_case_size@?$output_processor@_WV?$string_output_adapter@_W@__crt_stdio_output@@V?$standard_base@_WV?$string_output_adapter@_W@__crt_stdio_output@@@2@@__crt_stdio_output@@AAE_NXZ 100557d0 f i libucrtd:output.obj
 0001:00054ba0       ?state_case_type@?$output_processor@DV?$stream_output_adapter@D@__crt_stdio_output@@V?$format_validation_base@DV?$stream_output_adapter@D@__crt_stdio_output@@@2@@__crt_stdio_output@@AAE_NXZ 10055ba0 f i libucrtd:output.obj
 0001:00054f50       ?state_case_type@?$output_processor@DV?$stream_output_adapter@D@__crt_stdio_output@@V?$positional_parameter_base@DV?$stream_output_adapter@D@__crt_stdio_output@@@2@@__crt_stdio_output@@AAE_NXZ 10055f50 f i libucrtd:output.obj
 0001:00055300       ?state_case_type@?$output_processor@DV?$stream_output_adapter@D@__crt_stdio_output@@V?$standard_base@DV?$stream_output_adapter@D@__crt_stdio_output@@@2@@__crt_stdio_output@@AAE_NXZ 10056300 f i libucrtd:output.obj
 0001:000556b0       ?state_case_type@?$output_processor@DV?$string_output_adapter@D@__crt_stdio_output@@V?$format_validation_base@DV?$string_output_adapter@D@__crt_stdio_output@@@2@@__crt_stdio_output@@AAE_NXZ 100566b0 f i libucrtd:output.obj
 0001:00055a60       ?state_case_type@?$output_processor@DV?$string_output_adapter@D@__crt_stdio_output@@V?$positional_parameter_base@DV?$string_output_adapter@D@__crt_stdio_output@@@2@@__crt_stdio_output@@AAE_NXZ 10056a60 f i libucrtd:output.obj
 0001:00055e10       ?state_case_type@?$output_processor@DV?$string_output_adapter@D@__crt_stdio_output@@V?$standard_base@DV?$string_output_adapter@D@__crt_stdio_output@@@2@@__crt_stdio_output@@AAE_NXZ 10056e10 f i libucrtd:output.obj
 0001:000561c0       ?state_case_type@?$output_processor@_WV?$stream_output_adapter@_W@__crt_stdio_output@@V?$format_validation_base@_WV?$stream_output_adapter@_W@__crt_stdio_output@@@2@@__crt_stdio_output@@AAE_NXZ 100571c0 f i libucrtd:output.obj
 0001:000565a0       ?state_case_type@?$output_processor@_WV?$stream_output_adapter@_W@__crt_stdio_output@@V?$positional_parameter_base@_WV?$stream_output_adapter@_W@__crt_stdio_output@@@2@@__crt_stdio_output@@AAE_NXZ 100575a0 f i libucrtd:output.obj
 0001:00056980       ?state_case_type@?$output_processor@_WV?$stream_output_adapter@_W@__crt_stdio_output@@V?$standard_base@_WV?$stream_output_adapter@_W@__crt_stdio_output@@@2@@__crt_stdio_output@@AAE_NXZ 10057980 f i libucrtd:output.obj
 0001:00056d60       ?state_case_type@?$output_processor@_WV?$string_output_adapter@_W@__crt_stdio_output@@V?$format_validation_base@_WV?$string_output_adapter@_W@__crt_stdio_output@@@2@@__crt_stdio_output@@AAE_NXZ 10057d60 f i libucrtd:output.obj
 0001:00057140       ?state_case_type@?$output_processor@_WV?$string_output_adapter@_W@__crt_stdio_output@@V?$positional_parameter_base@_WV?$string_output_adapter@_W@__crt_stdio_output@@@2@@__crt_stdio_output@@AAE_NXZ 10058140 f i libucrtd:output.obj
 0001:00057520       ?state_case_type@?$output_processor@_WV?$string_output_adapter@_W@__crt_stdio_output@@V?$standard_base@_WV?$string_output_adapter@_W@__crt_stdio_output@@@2@@__crt_stdio_output@@AAE_NXZ 10058520 f i libucrtd:output.obj
 0001:00057900       ?state_case_width@?$output_processor@DV?$stream_output_adapter@D@__crt_stdio_output@@V?$format_validation_base@DV?$stream_output_adapter@D@__crt_stdio_output@@@2@@__crt_stdio_output@@AAE_NXZ 10058900 f i libucrtd:output.obj
 0001:00057980       ?state_case_width@?$output_processor@DV?$stream_output_adapter@D@__crt_stdio_output@@V?$positional_parameter_base@DV?$stream_output_adapter@D@__crt_stdio_output@@@2@@__crt_stdio_output@@AAE_NXZ 10058980 f i libucrtd:output.obj
 0001:00057a00       ?state_case_width@?$output_processor@DV?$stream_output_adapter@D@__crt_stdio_output@@V?$standard_base@DV?$stream_output_adapter@D@__crt_stdio_output@@@2@@__crt_stdio_output@@AAE_NXZ 10058a00 f i libucrtd:output.obj
 0001:00057a80       ?state_case_width@?$output_processor@DV?$string_output_adapter@D@__crt_stdio_output@@V?$format_validation_base@DV?$string_output_adapter@D@__crt_stdio_output@@@2@@__crt_stdio_output@@AAE_NXZ 10058a80 f i libucrtd:output.obj
 0001:00057b00       ?state_case_width@?$output_processor@DV?$string_output_adapter@D@__crt_stdio_output@@V?$positional_parameter_base@DV?$string_output_adapter@D@__crt_stdio_output@@@2@@__crt_stdio_output@@AAE_NXZ 10058b00 f i libucrtd:output.obj
 0001:00057b80       ?state_case_width@?$output_processor@DV?$string_output_adapter@D@__crt_stdio_output@@V?$standard_base@DV?$string_output_adapter@D@__crt_stdio_output@@@2@@__crt_stdio_output@@AAE_NXZ 10058b80 f i libucrtd:output.obj
 0001:00057c00       ?state_case_width@?$output_processor@_WV?$stream_output_adapter@_W@__crt_stdio_output@@V?$format_validation_base@_WV?$stream_output_adapter@_W@__crt_stdio_output@@@2@@__crt_stdio_output@@AAE_NXZ 10058c00 f i libucrtd:output.obj
 0001:00057c80       ?state_case_width@?$output_processor@_WV?$stream_output_adapter@_W@__crt_stdio_output@@V?$positional_parameter_base@_WV?$stream_output_adapter@_W@__crt_stdio_output@@@2@@__crt_stdio_output@@AAE_NXZ 10058c80 f i libucrtd:output.obj
 0001:00057d00       ?state_case_width@?$output_processor@_WV?$stream_output_adapter@_W@__crt_stdio_output@@V?$standard_base@_WV?$stream_output_adapter@_W@__crt_stdio_output@@@2@@__crt_stdio_output@@AAE_NXZ 10058d00 f i libucrtd:output.obj
 0001:00057d80       ?state_case_width@?$output_processor@_WV?$string_output_adapter@_W@__crt_stdio_output@@V?$format_validation_base@_WV?$string_output_adapter@_W@__crt_stdio_output@@@2@@__crt_stdio_output@@AAE_NXZ 10058d80 f i libucrtd:output.obj
 0001:00057e00       ?state_case_width@?$output_processor@_WV?$string_output_adapter@_W@__crt_stdio_output@@V?$positional_parameter_base@_WV?$string_output_adapter@_W@__crt_stdio_output@@@2@@__crt_stdio_output@@AAE_NXZ 10058e00 f i libucrtd:output.obj
 0001:00057e80       ?state_case_width@?$output_processor@_WV?$string_output_adapter@_W@__crt_stdio_output@@V?$standard_base@_WV?$string_output_adapter@_W@__crt_stdio_output@@@2@@__crt_stdio_output@@AAE_NXZ 10058e80 f i libucrtd:output.obj
 0001:00057f00       ?state_count@?$format_validation_base@DV?$stream_output_adapter@D@__crt_stdio_output@@@__crt_stdio_output@@KAIXZ 10058f00 f i libucrtd:output.obj
 0001:00057f10       ?state_count@?$format_validation_base@DV?$string_output_adapter@D@__crt_stdio_output@@@__crt_stdio_output@@KAIXZ 10058f10 f i libucrtd:output.obj
 0001:00057f20       ?state_count@?$format_validation_base@_WV?$stream_output_adapter@_W@__crt_stdio_output@@@__crt_stdio_output@@KAIXZ 10058f20 f i libucrtd:output.obj
 0001:00057f30       ?state_count@?$format_validation_base@_WV?$string_output_adapter@_W@__crt_stdio_output@@@__crt_stdio_output@@KAIXZ 10058f30 f i libucrtd:output.obj
 0001:00057f40       ?state_count@?$standard_base@DV?$stream_output_adapter@D@__crt_stdio_output@@@__crt_stdio_output@@KAIXZ 10058f40 f i libucrtd:output.obj
 0001:00057f50       ?state_count@?$standard_base@DV?$string_output_adapter@D@__crt_stdio_output@@@__crt_stdio_output@@KAIXZ 10058f50 f i libucrtd:output.obj
 0001:00057f60       ?state_count@?$standard_base@_WV?$stream_output_adapter@_W@__crt_stdio_output@@@__crt_stdio_output@@KAIXZ 10058f60 f i libucrtd:output.obj
 0001:00057f70       ?state_count@?$standard_base@_WV?$string_output_adapter@_W@__crt_stdio_output@@@__crt_stdio_output@@KAIXZ 10058f70 f i libucrtd:output.obj
 0001:00057f80       ?state_transition_table@?$format_validation_base@DV?$stream_output_adapter@D@__crt_stdio_output@@@__crt_stdio_output@@KAPBEXZ 10058f80 f i libucrtd:output.obj
 0001:00057f90       ?state_transition_table@?$format_validation_base@DV?$string_output_adapter@D@__crt_stdio_output@@@__crt_stdio_output@@KAPBEXZ 10058f90 f i libucrtd:output.obj
 0001:00057fa0       ?state_transition_table@?$format_validation_base@_WV?$stream_output_adapter@_W@__crt_stdio_output@@@__crt_stdio_output@@KAPBEXZ 10058fa0 f i libucrtd:output.obj
 0001:00057fb0       ?state_transition_table@?$format_validation_base@_WV?$string_output_adapter@_W@__crt_stdio_output@@@__crt_stdio_output@@KAPBEXZ 10058fb0 f i libucrtd:output.obj
 0001:00057fc0       ?state_transition_table@?$standard_base@DV?$stream_output_adapter@D@__crt_stdio_output@@@__crt_stdio_output@@KAPBEXZ 10058fc0 f i libucrtd:output.obj
 0001:00057fd0       ?state_transition_table@?$standard_base@DV?$string_output_adapter@D@__crt_stdio_output@@@__crt_stdio_output@@KAPBEXZ 10058fd0 f i libucrtd:output.obj
 0001:00057fe0       ?state_transition_table@?$standard_base@_WV?$stream_output_adapter@_W@__crt_stdio_output@@@__crt_stdio_output@@KAPBEXZ 10058fe0 f i libucrtd:output.obj
 0001:00057ff0       ?state_transition_table@?$standard_base@_WV?$string_output_adapter@_W@__crt_stdio_output@@@__crt_stdio_output@@KAPBEXZ 10058ff0 f i libucrtd:output.obj
 0001:00058000       ?tchar_string@?$common_data@D@__crt_stdio_output@@IAEAAPADD@Z 10059000 f i libucrtd:output.obj
 0001:00058020       ?tchar_string@?$common_data@D@__crt_stdio_output@@IAEAAPADXZ 10059020 f i libucrtd:output.obj
 0001:00058040       ?tchar_string@?$common_data@_W@__crt_stdio_output@@IAEAAPA_WXZ 10059040 f i libucrtd:output.obj
 0001:00058060       ?tchar_string@?$common_data@_W@__crt_stdio_output@@IAEAAPA_W_W@Z 10059060 f i libucrtd:output.obj
 0001:00058080       ?to_integer_size@__crt_stdio_output@@YAIW4length_modifier@1@@Z 10059080 f i libucrtd:output.obj
 0001:00058120       ?type_case_X@?$output_processor@DV?$stream_output_adapter@D@__crt_stdio_output@@V?$format_validation_base@DV?$stream_output_adapter@D@__crt_stdio_output@@@2@@__crt_stdio_output@@AAE_NXZ 10059120 f i libucrtd:output.obj
 0001:00058140       ?type_case_X@?$output_processor@DV?$stream_output_adapter@D@__crt_stdio_output@@V?$positional_parameter_base@DV?$stream_output_adapter@D@__crt_stdio_output@@@2@@__crt_stdio_output@@AAE_NXZ 10059140 f i libucrtd:output.obj
 0001:00058160       ?type_case_X@?$output_processor@DV?$stream_output_adapter@D@__crt_stdio_output@@V?$standard_base@DV?$stream_output_adapter@D@__crt_stdio_output@@@2@@__crt_stdio_output@@AAE_NXZ 10059160 f i libucrtd:output.obj
 0001:00058180       ?type_case_X@?$output_processor@DV?$string_output_adapter@D@__crt_stdio_output@@V?$format_validation_base@DV?$string_output_adapter@D@__crt_stdio_output@@@2@@__crt_stdio_output@@AAE_NXZ 10059180 f i libucrtd:output.obj
 0001:000581a0       ?type_case_X@?$output_processor@DV?$string_output_adapter@D@__crt_stdio_output@@V?$positional_parameter_base@DV?$string_output_adapter@D@__crt_stdio_output@@@2@@__crt_stdio_output@@AAE_NXZ 100591a0 f i libucrtd:output.obj
 0001:000581c0       ?type_case_X@?$output_processor@DV?$string_output_adapter@D@__crt_stdio_output@@V?$standard_base@DV?$string_output_adapter@D@__crt_stdio_output@@@2@@__crt_stdio_output@@AAE_NXZ 100591c0 f i libucrtd:output.obj
 0001:000581e0       ?type_case_X@?$output_processor@_WV?$stream_output_adapter@_W@__crt_stdio_output@@V?$format_validation_base@_WV?$stream_output_adapter@_W@__crt_stdio_output@@@2@@__crt_stdio_output@@AAE_NXZ 100591e0 f i libucrtd:output.obj
 0001:00058200       ?type_case_X@?$output_processor@_WV?$stream_output_adapter@_W@__crt_stdio_output@@V?$positional_parameter_base@_WV?$stream_output_adapter@_W@__crt_stdio_output@@@2@@__crt_stdio_output@@AAE_NXZ 10059200 f i libucrtd:output.obj
 0001:00058220       ?type_case_X@?$output_processor@_WV?$stream_output_adapter@_W@__crt_stdio_output@@V?$standard_base@_WV?$stream_output_adapter@_W@__crt_stdio_output@@@2@@__crt_stdio_output@@AAE_NXZ 10059220 f i libucrtd:output.obj
 0001:00058240       ?type_case_X@?$output_processor@_WV?$string_output_adapter@_W@__crt_stdio_output@@V?$format_validation_base@_WV?$string_output_adapter@_W@__crt_stdio_output@@@2@@__crt_stdio_output@@AAE_NXZ 10059240 f i libucrtd:output.obj
 0001:00058260       ?type_case_X@?$output_processor@_WV?$string_output_adapter@_W@__crt_stdio_output@@V?$positional_parameter_base@_WV?$string_output_adapter@_W@__crt_stdio_output@@@2@@__crt_stdio_output@@AAE_NXZ 10059260 f i libucrtd:output.obj
 0001:00058280       ?type_case_X@?$output_processor@_WV?$string_output_adapter@_W@__crt_stdio_output@@V?$standard_base@_WV?$string_output_adapter@_W@__crt_stdio_output@@@2@@__crt_stdio_output@@AAE_NXZ 10059280 f i libucrtd:output.obj
 0001:000582a0       ?type_case_Z@?$output_processor@DV?$stream_output_adapter@D@__crt_stdio_output@@V?$format_validation_base@DV?$stream_output_adapter@D@__crt_stdio_output@@@2@@__crt_stdio_output@@AAE_NXZ 100592a0 f i libucrtd:output.obj
 0001:00058390       ?type_case_Z@?$output_processor@DV?$stream_output_adapter@D@__crt_stdio_output@@V?$positional_parameter_base@DV?$stream_output_adapter@D@__crt_stdio_output@@@2@@__crt_stdio_output@@AAE_NXZ 10059390 f i libucrtd:output.obj
 0001:00058480       ?type_case_Z@?$output_processor@DV?$stream_output_adapter@D@__crt_stdio_output@@V?$standard_base@DV?$stream_output_adapter@D@__crt_stdio_output@@@2@@__crt_stdio_output@@AAE_NXZ 10059480 f i libucrtd:output.obj
 0001:00058570       ?type_case_Z@?$output_processor@DV?$string_output_adapter@D@__crt_stdio_output@@V?$format_validation_base@DV?$string_output_adapter@D@__crt_stdio_output@@@2@@__crt_stdio_output@@AAE_NXZ 10059570 f i libucrtd:output.obj
 0001:00058660       ?type_case_Z@?$output_processor@DV?$string_output_adapter@D@__crt_stdio_output@@V?$positional_parameter_base@DV?$string_output_adapter@D@__crt_stdio_output@@@2@@__crt_stdio_output@@AAE_NXZ 10059660 f i libucrtd:output.obj
 0001:00058750       ?type_case_Z@?$output_processor@DV?$string_output_adapter@D@__crt_stdio_output@@V?$standard_base@DV?$string_output_adapter@D@__crt_stdio_output@@@2@@__crt_stdio_output@@AAE_NXZ 10059750 f i libucrtd:output.obj
 0001:00058840       ?type_case_Z@?$output_processor@_WV?$stream_output_adapter@_W@__crt_stdio_output@@V?$format_validation_base@_WV?$stream_output_adapter@_W@__crt_stdio_output@@@2@@__crt_stdio_output@@AAE_NXZ 10059840 f i libucrtd:output.obj
 0001:00058930       ?type_case_Z@?$output_processor@_WV?$stream_output_adapter@_W@__crt_stdio_output@@V?$positional_parameter_base@_WV?$stream_output_adapter@_W@__crt_stdio_output@@@2@@__crt_stdio_output@@AAE_NXZ 10059930 f i libucrtd:output.obj
 0001:00058a20       ?type_case_Z@?$output_processor@_WV?$stream_output_adapter@_W@__crt_stdio_output@@V?$standard_base@_WV?$stream_output_adapter@_W@__crt_stdio_output@@@2@@__crt_stdio_output@@AAE_NXZ 10059a20 f i libucrtd:output.obj
 0001:00058b10       ?type_case_Z@?$output_processor@_WV?$string_output_adapter@_W@__crt_stdio_output@@V?$format_validation_base@_WV?$string_output_adapter@_W@__crt_stdio_output@@@2@@__crt_stdio_output@@AAE_NXZ 10059b10 f i libucrtd:output.obj
 0001:00058c00       ?type_case_Z@?$output_processor@_WV?$string_output_adapter@_W@__crt_stdio_output@@V?$positional_parameter_base@_WV?$string_output_adapter@_W@__crt_stdio_output@@@2@@__crt_stdio_output@@AAE_NXZ 10059c00 f i libucrtd:output.obj
 0001:00058cf0       ?type_case_Z@?$output_processor@_WV?$string_output_adapter@_W@__crt_stdio_output@@V?$standard_base@_WV?$string_output_adapter@_W@__crt_stdio_output@@@2@@__crt_stdio_output@@AAE_NXZ 10059cf0 f i libucrtd:output.obj
 0001:00058de0       ?type_case_a@?$output_processor@DV?$stream_output_adapter@D@__crt_stdio_output@@V?$format_validation_base@DV?$stream_output_adapter@D@__crt_stdio_output@@@2@@__crt_stdio_output@@AAE_NXZ 10059de0 f i libucrtd:output.obj
 0001:00059050       ?type_case_a@?$output_processor@DV?$stream_output_adapter@D@__crt_stdio_output@@V?$positional_parameter_base@DV?$stream_output_adapter@D@__crt_stdio_output@@@2@@__crt_stdio_output@@AAE_NXZ 1005a050 f i libucrtd:output.obj
 0001:000592c0       ?type_case_a@?$output_processor@DV?$stream_output_adapter@D@__crt_stdio_output@@V?$standard_base@DV?$stream_output_adapter@D@__crt_stdio_output@@@2@@__crt_stdio_output@@AAE_NXZ 1005a2c0 f i libucrtd:output.obj
 0001:00059530       ?type_case_a@?$output_processor@DV?$string_output_adapter@D@__crt_stdio_output@@V?$format_validation_base@DV?$string_output_adapter@D@__crt_stdio_output@@@2@@__crt_stdio_output@@AAE_NXZ 1005a530 f i libucrtd:output.obj
 0001:000597a0       ?type_case_a@?$output_processor@DV?$string_output_adapter@D@__crt_stdio_output@@V?$positional_parameter_base@DV?$string_output_adapter@D@__crt_stdio_output@@@2@@__crt_stdio_output@@AAE_NXZ 1005a7a0 f i libucrtd:output.obj
 0001:00059a10       ?type_case_a@?$output_processor@DV?$string_output_adapter@D@__crt_stdio_output@@V?$standard_base@DV?$string_output_adapter@D@__crt_stdio_output@@@2@@__crt_stdio_output@@AAE_NXZ 1005aa10 f i libucrtd:output.obj
 0001:00059c80       ?type_case_a@?$output_processor@_WV?$stream_output_adapter@_W@__crt_stdio_output@@V?$format_validation_base@_WV?$stream_output_adapter@_W@__crt_stdio_output@@@2@@__crt_stdio_output@@AAE_NXZ 1005ac80 f i libucrtd:output.obj
 0001:00059ef0       ?type_case_a@?$output_processor@_WV?$stream_output_adapter@_W@__crt_stdio_output@@V?$positional_parameter_base@_WV?$stream_output_adapter@_W@__crt_stdio_output@@@2@@__crt_stdio_output@@AAE_NXZ 1005aef0 f i libucrtd:output.obj
 0001:0005a160       ?type_case_a@?$output_processor@_WV?$stream_output_adapter@_W@__crt_stdio_output@@V?$standard_base@_WV?$stream_output_adapter@_W@__crt_stdio_output@@@2@@__crt_stdio_output@@AAE_NXZ 1005b160 f i libucrtd:output.obj
 0001:0005a3d0       ?type_case_a@?$output_processor@_WV?$string_output_adapter@_W@__crt_stdio_output@@V?$format_validation_base@_WV?$string_output_adapter@_W@__crt_stdio_output@@@2@@__crt_stdio_output@@AAE_NXZ 1005b3d0 f i libucrtd:output.obj
 0001:0005a640       ?type_case_a@?$output_processor@_WV?$string_output_adapter@_W@__crt_stdio_output@@V?$positional_parameter_base@_WV?$string_output_adapter@_W@__crt_stdio_output@@@2@@__crt_stdio_output@@AAE_NXZ 1005b640 f i libucrtd:output.obj
 0001:0005a8b0       ?type_case_a@?$output_processor@_WV?$string_output_adapter@_W@__crt_stdio_output@@V?$standard_base@_WV?$string_output_adapter@_W@__crt_stdio_output@@@2@@__crt_stdio_output@@AAE_NXZ 1005b8b0 f i libucrtd:output.obj
 0001:0005ab20       ?type_case_c@?$output_processor@DV?$stream_output_adapter@D@__crt_stdio_output@@V?$format_validation_base@DV?$stream_output_adapter@D@__crt_stdio_output@@@2@@__crt_stdio_output@@AAE_NXZ 1005bb20 f i libucrtd:output.obj
 0001:0005ab40       ?type_case_c@?$output_processor@DV?$stream_output_adapter@D@__crt_stdio_output@@V?$positional_parameter_base@DV?$stream_output_adapter@D@__crt_stdio_output@@@2@@__crt_stdio_output@@AAE_NXZ 1005bb40 f i libucrtd:output.obj
 0001:0005ab60       ?type_case_c@?$output_processor@DV?$stream_output_adapter@D@__crt_stdio_output@@V?$standard_base@DV?$stream_output_adapter@D@__crt_stdio_output@@@2@@__crt_stdio_output@@AAE_NXZ 1005bb60 f i libucrtd:output.obj
 0001:0005ab80       ?type_case_c@?$output_processor@DV?$string_output_adapter@D@__crt_stdio_output@@V?$format_validation_base@DV?$string_output_adapter@D@__crt_stdio_output@@@2@@__crt_stdio_output@@AAE_NXZ 1005bb80 f i libucrtd:output.obj
 0001:0005aba0       ?type_case_c@?$output_processor@DV?$string_output_adapter@D@__crt_stdio_output@@V?$positional_parameter_base@DV?$string_output_adapter@D@__crt_stdio_output@@@2@@__crt_stdio_output@@AAE_NXZ 1005bba0 f i libucrtd:output.obj
 0001:0005abc0       ?type_case_c@?$output_processor@DV?$string_output_adapter@D@__crt_stdio_output@@V?$standard_base@DV?$string_output_adapter@D@__crt_stdio_output@@@2@@__crt_stdio_output@@AAE_NXZ 1005bbc0 f i libucrtd:output.obj
 0001:0005abe0       ?type_case_c@?$output_processor@_WV?$stream_output_adapter@_W@__crt_stdio_output@@V?$format_validation_base@_WV?$stream_output_adapter@_W@__crt_stdio_output@@@2@@__crt_stdio_output@@AAE_NXZ 1005bbe0 f i libucrtd:output.obj
 0001:0005ac00       ?type_case_c@?$output_processor@_WV?$stream_output_adapter@_W@__crt_stdio_output@@V?$positional_parameter_base@_WV?$stream_output_adapter@_W@__crt_stdio_output@@@2@@__crt_stdio_output@@AAE_NXZ 1005bc00 f i libucrtd:output.obj
 0001:0005ac20       ?type_case_c@?$output_processor@_WV?$stream_output_adapter@_W@__crt_stdio_output@@V?$standard_base@_WV?$stream_output_adapter@_W@__crt_stdio_output@@@2@@__crt_stdio_output@@AAE_NXZ 1005bc20 f i libucrtd:output.obj
 0001:0005ac40       ?type_case_c@?$output_processor@_WV?$string_output_adapter@_W@__crt_stdio_output@@V?$format_validation_base@_WV?$string_output_adapter@_W@__crt_stdio_output@@@2@@__crt_stdio_output@@AAE_NXZ 1005bc40 f i libucrtd:output.obj
 0001:0005ac60       ?type_case_c@?$output_processor@_WV?$string_output_adapter@_W@__crt_stdio_output@@V?$positional_parameter_base@_WV?$string_output_adapter@_W@__crt_stdio_output@@@2@@__crt_stdio_output@@AAE_NXZ 1005bc60 f i libucrtd:output.obj
 0001:0005ac80       ?type_case_c@?$output_processor@_WV?$string_output_adapter@_W@__crt_stdio_output@@V?$standard_base@_WV?$string_output_adapter@_W@__crt_stdio_output@@@2@@__crt_stdio_output@@AAE_NXZ 1005bc80 f i libucrtd:output.obj
 0001:0005aca0       ?type_case_c_tchar@?$output_processor@DV?$stream_output_adapter@D@__crt_stdio_output@@V?$format_validation_base@DV?$stream_output_adapter@D@__crt_stdio_output@@@2@@__crt_stdio_output@@AAE_ND@Z 1005bca0 f i libucrtd:output.obj
 0001:0005adb0       ?type_case_c_tchar@?$output_processor@DV?$stream_output_adapter@D@__crt_stdio_output@@V?$positional_parameter_base@DV?$stream_output_adapter@D@__crt_stdio_output@@@2@@__crt_stdio_output@@AAE_ND@Z 1005bdb0 f i libucrtd:output.obj
 0001:0005aec0       ?type_case_c_tchar@?$output_processor@DV?$stream_output_adapter@D@__crt_stdio_output@@V?$standard_base@DV?$stream_output_adapter@D@__crt_stdio_output@@@2@@__crt_stdio_output@@AAE_ND@Z 1005bec0 f i libucrtd:output.obj
 0001:0005afd0       ?type_case_c_tchar@?$output_processor@DV?$string_output_adapter@D@__crt_stdio_output@@V?$format_validation_base@DV?$string_output_adapter@D@__crt_stdio_output@@@2@@__crt_stdio_output@@AAE_ND@Z 1005bfd0 f i libucrtd:output.obj
 0001:0005b0e0       ?type_case_c_tchar@?$output_processor@DV?$string_output_adapter@D@__crt_stdio_output@@V?$positional_parameter_base@DV?$string_output_adapter@D@__crt_stdio_output@@@2@@__crt_stdio_output@@AAE_ND@Z 1005c0e0 f i libucrtd:output.obj
 0001:0005b1f0       ?type_case_c_tchar@?$output_processor@DV?$string_output_adapter@D@__crt_stdio_output@@V?$standard_base@DV?$string_output_adapter@D@__crt_stdio_output@@@2@@__crt_stdio_output@@AAE_ND@Z 1005c1f0 f i libucrtd:output.obj
 0001:0005b300       ?type_case_c_tchar@?$output_processor@_WV?$stream_output_adapter@_W@__crt_stdio_output@@V?$format_validation_base@_WV?$stream_output_adapter@_W@__crt_stdio_output@@@2@@__crt_stdio_output@@AAE_N_W@Z 1005c300 f i libucrtd:output.obj
 0001:0005b400       ?type_case_c_tchar@?$output_processor@_WV?$stream_output_adapter@_W@__crt_stdio_output@@V?$positional_parameter_base@_WV?$stream_output_adapter@_W@__crt_stdio_output@@@2@@__crt_stdio_output@@AAE_N_W@Z 1005c400 f i libucrtd:output.obj
 0001:0005b500       ?type_case_c_tchar@?$output_processor@_WV?$stream_output_adapter@_W@__crt_stdio_output@@V?$standard_base@_WV?$stream_output_adapter@_W@__crt_stdio_output@@@2@@__crt_stdio_output@@AAE_N_W@Z 1005c500 f i libucrtd:output.obj
 0001:0005b600       ?type_case_c_tchar@?$output_processor@_WV?$string_output_adapter@_W@__crt_stdio_output@@V?$format_validation_base@_WV?$string_output_adapter@_W@__crt_stdio_output@@@2@@__crt_stdio_output@@AAE_N_W@Z 1005c600 f i libucrtd:output.obj
 0001:0005b700       ?type_case_c_tchar@?$output_processor@_WV?$string_output_adapter@_W@__crt_stdio_output@@V?$positional_parameter_base@_WV?$string_output_adapter@_W@__crt_stdio_output@@@2@@__crt_stdio_output@@AAE_N_W@Z 1005c700 f i libucrtd:output.obj
 0001:0005b800       ?type_case_c_tchar@?$output_processor@_WV?$string_output_adapter@_W@__crt_stdio_output@@V?$standard_base@_WV?$string_output_adapter@_W@__crt_stdio_output@@@2@@__crt_stdio_output@@AAE_N_W@Z 1005c800 f i libucrtd:output.obj
 0001:0005b900       ?type_case_d@?$output_processor@DV?$stream_output_adapter@D@__crt_stdio_output@@V?$format_validation_base@DV?$stream_output_adapter@D@__crt_stdio_output@@@2@@__crt_stdio_output@@AAE_NXZ 1005c900 f i libucrtd:output.obj
 0001:0005b930       ?type_case_d@?$output_processor@DV?$stream_output_adapter@D@__crt_stdio_output@@V?$positional_parameter_base@DV?$stream_output_adapter@D@__crt_stdio_output@@@2@@__crt_stdio_output@@AAE_NXZ 1005c930 f i libucrtd:output.obj
 0001:0005b960       ?type_case_d@?$output_processor@DV?$stream_output_adapter@D@__crt_stdio_output@@V?$standard_base@DV?$stream_output_adapter@D@__crt_stdio_output@@@2@@__crt_stdio_output@@AAE_NXZ 1005c960 f i libucrtd:output.obj
 0001:0005b990       ?type_case_d@?$output_processor@DV?$string_output_adapter@D@__crt_stdio_output@@V?$format_validation_base@DV?$string_output_adapter@D@__crt_stdio_output@@@2@@__crt_stdio_output@@AAE_NXZ 1005c990 f i libucrtd:output.obj
 0001:0005b9c0       ?type_case_d@?$output_processor@DV?$string_output_adapter@D@__crt_stdio_output@@V?$positional_parameter_base@DV?$string_output_adapter@D@__crt_stdio_output@@@2@@__crt_stdio_output@@AAE_NXZ 1005c9c0 f i libucrtd:output.obj
 0001:0005b9f0       ?type_case_d@?$output_processor@DV?$string_output_adapter@D@__crt_stdio_output@@V?$standard_base@DV?$string_output_adapter@D@__crt_stdio_output@@@2@@__crt_stdio_output@@AAE_NXZ 1005c9f0 f i libucrtd:output.obj
 0001:0005ba20       ?type_case_d@?$output_processor@_WV?$stream_output_adapter@_W@__crt_stdio_output@@V?$format_validation_base@_WV?$stream_output_adapter@_W@__crt_stdio_output@@@2@@__crt_stdio_output@@AAE_NXZ 1005ca20 f i libucrtd:output.obj
 0001:0005ba50       ?type_case_d@?$output_processor@_WV?$stream_output_adapter@_W@__crt_stdio_output@@V?$positional_parameter_base@_WV?$stream_output_adapter@_W@__crt_stdio_output@@@2@@__crt_stdio_output@@AAE_NXZ 1005ca50 f i libucrtd:output.obj
 0001:0005ba80       ?type_case_d@?$output_processor@_WV?$stream_output_adapter@_W@__crt_stdio_output@@V?$standard_base@_WV?$stream_output_adapter@_W@__crt_stdio_output@@@2@@__crt_stdio_output@@AAE_NXZ 1005ca80 f i libucrtd:output.obj
 0001:0005bab0       ?type_case_d@?$output_processor@_WV?$string_output_adapter@_W@__crt_stdio_output@@V?$format_validation_base@_WV?$string_output_adapter@_W@__crt_stdio_output@@@2@@__crt_stdio_output@@AAE_NXZ 1005cab0 f i libucrtd:output.obj
 0001:0005bae0       ?type_case_d@?$output_processor@_WV?$string_output_adapter@_W@__crt_stdio_output@@V?$positional_parameter_base@_WV?$string_output_adapter@_W@__crt_stdio_output@@@2@@__crt_stdio_output@@AAE_NXZ 1005cae0 f i libucrtd:output.obj
 0001:0005bb10       ?type_case_d@?$output_processor@_WV?$string_output_adapter@_W@__crt_stdio_output@@V?$standard_base@_WV?$string_output_adapter@_W@__crt_stdio_output@@@2@@__crt_stdio_output@@AAE_NXZ 1005cb10 f i libucrtd:output.obj
 0001:0005bb40       ?type_case_integer@?$output_processor@DV?$stream_output_adapter@D@__crt_stdio_output@@V?$format_validation_base@DV?$stream_output_adapter@D@__crt_stdio_output@@@2@@__crt_stdio_output@@AAE_NI_N@Z 1005cb40 f i libucrtd:output.obj
 0001:0005be90       ?type_case_integer@?$output_processor@DV?$stream_output_adapter@D@__crt_stdio_output@@V?$positional_parameter_base@DV?$stream_output_adapter@D@__crt_stdio_output@@@2@@__crt_stdio_output@@AAE_NI_N@Z 1005ce90 f i libucrtd:output.obj
 0001:0005c1e0       ?type_case_integer@?$output_processor@DV?$stream_output_adapter@D@__crt_stdio_output@@V?$standard_base@DV?$stream_output_adapter@D@__crt_stdio_output@@@2@@__crt_stdio_output@@AAE_NI_N@Z 1005d1e0 f i libucrtd:output.obj
 0001:0005c530       ?type_case_integer@?$output_processor@DV?$string_output_adapter@D@__crt_stdio_output@@V?$format_validation_base@DV?$string_output_adapter@D@__crt_stdio_output@@@2@@__crt_stdio_output@@AAE_NI_N@Z 1005d530 f i libucrtd:output.obj
 0001:0005c880       ?type_case_integer@?$output_processor@DV?$string_output_adapter@D@__crt_stdio_output@@V?$positional_parameter_base@DV?$string_output_adapter@D@__crt_stdio_output@@@2@@__crt_stdio_output@@AAE_NI_N@Z 1005d880 f i libucrtd:output.obj
 0001:0005cbd0       ?type_case_integer@?$output_processor@DV?$string_output_adapter@D@__crt_stdio_output@@V?$standard_base@DV?$string_output_adapter@D@__crt_stdio_output@@@2@@__crt_stdio_output@@AAE_NI_N@Z 1005dbd0 f i libucrtd:output.obj
 0001:0005cf20       ?type_case_integer@?$output_processor@_WV?$stream_output_adapter@_W@__crt_stdio_output@@V?$format_validation_base@_WV?$stream_output_adapter@_W@__crt_stdio_output@@@2@@__crt_stdio_output@@AAE_NI_N@Z 1005df20 f i libucrtd:output.obj
 0001:0005d270       ?type_case_integer@?$output_processor@_WV?$stream_output_adapter@_W@__crt_stdio_output@@V?$positional_parameter_base@_WV?$stream_output_adapter@_W@__crt_stdio_output@@@2@@__crt_stdio_output@@AAE_NI_N@Z 1005e270 f i libucrtd:output.obj
 0001:0005d5c0       ?type_case_integer@?$output_processor@_WV?$stream_output_adapter@_W@__crt_stdio_output@@V?$standard_base@_WV?$stream_output_adapter@_W@__crt_stdio_output@@@2@@__crt_stdio_output@@AAE_NI_N@Z 1005e5c0 f i libucrtd:output.obj
 0001:0005d910       ?type_case_integer@?$output_processor@_WV?$string_output_adapter@_W@__crt_stdio_output@@V?$format_validation_base@_WV?$string_output_adapter@_W@__crt_stdio_output@@@2@@__crt_stdio_output@@AAE_NI_N@Z 1005e910 f i libucrtd:output.obj
 0001:0005dc60       ?type_case_integer@?$output_processor@_WV?$string_output_adapter@_W@__crt_stdio_output@@V?$positional_parameter_base@_WV?$string_output_adapter@_W@__crt_stdio_output@@@2@@__crt_stdio_output@@AAE_NI_N@Z 1005ec60 f i libucrtd:output.obj
 0001:0005dfb0       ?type_case_integer@?$output_processor@_WV?$string_output_adapter@_W@__crt_stdio_output@@V?$standard_base@_WV?$string_output_adapter@_W@__crt_stdio_output@@@2@@__crt_stdio_output@@AAE_NI_N@Z 1005efb0 f i libucrtd:output.obj
 0001:0005e300       ?type_case_n@?$output_processor@DV?$stream_output_adapter@D@__crt_stdio_output@@V?$format_validation_base@DV?$stream_output_adapter@D@__crt_stdio_output@@@2@@__crt_stdio_output@@AAE_NXZ 1005f300 f i libucrtd:output.obj
 0001:0005e4f0       ?type_case_n@?$output_processor@DV?$stream_output_adapter@D@__crt_stdio_output@@V?$positional_parameter_base@DV?$stream_output_adapter@D@__crt_stdio_output@@@2@@__crt_stdio_output@@AAE_NXZ 1005f4f0 f i libucrtd:output.obj
 0001:0005e6e0       ?type_case_n@?$output_processor@DV?$stream_output_adapter@D@__crt_stdio_output@@V?$standard_base@DV?$stream_output_adapter@D@__crt_stdio_output@@@2@@__crt_stdio_output@@AAE_NXZ 1005f6e0 f i libucrtd:output.obj
 0001:0005e8d0       ?type_case_n@?$output_processor@DV?$string_output_adapter@D@__crt_stdio_output@@V?$format_validation_base@DV?$string_output_adapter@D@__crt_stdio_output@@@2@@__crt_stdio_output@@AAE_NXZ 1005f8d0 f i libucrtd:output.obj
 0001:0005eac0       ?type_case_n@?$output_processor@DV?$string_output_adapter@D@__crt_stdio_output@@V?$positional_parameter_base@DV?$string_output_adapter@D@__crt_stdio_output@@@2@@__crt_stdio_output@@AAE_NXZ 1005fac0 f i libucrtd:output.obj
 0001:0005ecb0       ?type_case_n@?$output_processor@DV?$string_output_adapter@D@__crt_stdio_output@@V?$standard_base@DV?$string_output_adapter@D@__crt_stdio_output@@@2@@__crt_stdio_output@@AAE_NXZ 1005fcb0 f i libucrtd:output.obj
 0001:0005eea0       ?type_case_n@?$output_processor@_WV?$stream_output_adapter@_W@__crt_stdio_output@@V?$format_validation_base@_WV?$stream_output_adapter@_W@__crt_stdio_output@@@2@@__crt_stdio_output@@AAE_NXZ 1005fea0 f i libucrtd:output.obj
 0001:0005f090       ?type_case_n@?$output_processor@_WV?$stream_output_adapter@_W@__crt_stdio_output@@V?$positional_parameter_base@_WV?$stream_output_adapter@_W@__crt_stdio_output@@@2@@__crt_stdio_output@@AAE_NXZ 10060090 f i libucrtd:output.obj
 0001:0005f280       ?type_case_n@?$output_processor@_WV?$stream_output_adapter@_W@__crt_stdio_output@@V?$standard_base@_WV?$stream_output_adapter@_W@__crt_stdio_output@@@2@@__crt_stdio_output@@AAE_NXZ 10060280 f i libucrtd:output.obj
 0001:0005f470       ?type_case_n@?$output_processor@_WV?$string_output_adapter@_W@__crt_stdio_output@@V?$format_validation_base@_WV?$string_output_adapter@_W@__crt_stdio_output@@@2@@__crt_stdio_output@@AAE_NXZ 10060470 f i libucrtd:output.obj
 0001:0005f660       ?type_case_n@?$output_processor@_WV?$string_output_adapter@_W@__crt_stdio_output@@V?$positional_parameter_base@_WV?$string_output_adapter@_W@__crt_stdio_output@@@2@@__crt_stdio_output@@AAE_NXZ 10060660 f i libucrtd:output.obj
 0001:0005f850       ?type_case_n@?$output_processor@_WV?$string_output_adapter@_W@__crt_stdio_output@@V?$standard_base@_WV?$string_output_adapter@_W@__crt_stdio_output@@@2@@__crt_stdio_output@@AAE_NXZ 10060850 f i libucrtd:output.obj
 0001:0005fa40       ?type_case_o@?$output_processor@DV?$stream_output_adapter@D@__crt_stdio_output@@V?$format_validation_base@DV?$stream_output_adapter@D@__crt_stdio_output@@@2@@__crt_stdio_output@@AAE_NXZ 10060a40 f i libucrtd:output.obj
 0001:0005fa80       ?type_case_o@?$output_processor@DV?$stream_output_adapter@D@__crt_stdio_output@@V?$positional_parameter_base@DV?$stream_output_adapter@D@__crt_stdio_output@@@2@@__crt_stdio_output@@AAE_NXZ 10060a80 f i libucrtd:output.obj
 0001:0005fac0       ?type_case_o@?$output_processor@DV?$stream_output_adapter@D@__crt_stdio_output@@V?$standard_base@DV?$stream_output_adapter@D@__crt_stdio_output@@@2@@__crt_stdio_output@@AAE_NXZ 10060ac0 f i libucrtd:output.obj
 0001:0005fb00       ?type_case_o@?$output_processor@DV?$string_output_adapter@D@__crt_stdio_output@@V?$format_validation_base@DV?$string_output_adapter@D@__crt_stdio_output@@@2@@__crt_stdio_output@@AAE_NXZ 10060b00 f i libucrtd:output.obj
 0001:0005fb40       ?type_case_o@?$output_processor@DV?$string_output_adapter@D@__crt_stdio_output@@V?$positional_parameter_base@DV?$string_output_adapter@D@__crt_stdio_output@@@2@@__crt_stdio_output@@AAE_NXZ 10060b40 f i libucrtd:output.obj
 0001:0005fb80       ?type_case_o@?$output_processor@DV?$string_output_adapter@D@__crt_stdio_output@@V?$standard_base@DV?$string_output_adapter@D@__crt_stdio_output@@@2@@__crt_stdio_output@@AAE_NXZ 10060b80 f i libucrtd:output.obj
 0001:0005fbc0       ?type_case_o@?$output_processor@_WV?$stream_output_adapter@_W@__crt_stdio_output@@V?$format_validation_base@_WV?$stream_output_adapter@_W@__crt_stdio_output@@@2@@__crt_stdio_output@@AAE_NXZ 10060bc0 f i libucrtd:output.obj
 0001:0005fc00       ?type_case_o@?$output_processor@_WV?$stream_output_adapter@_W@__crt_stdio_output@@V?$positional_parameter_base@_WV?$stream_output_adapter@_W@__crt_stdio_output@@@2@@__crt_stdio_output@@AAE_NXZ 10060c00 f i libucrtd:output.obj
 0001:0005fc40       ?type_case_o@?$output_processor@_WV?$stream_output_adapter@_W@__crt_stdio_output@@V?$standard_base@_WV?$stream_output_adapter@_W@__crt_stdio_output@@@2@@__crt_stdio_output@@AAE_NXZ 10060c40 f i libucrtd:output.obj
 0001:0005fc80       ?type_case_o@?$output_processor@_WV?$string_output_adapter@_W@__crt_stdio_output@@V?$format_validation_base@_WV?$string_output_adapter@_W@__crt_stdio_output@@@2@@__crt_stdio_output@@AAE_NXZ 10060c80 f i libucrtd:output.obj
 0001:0005fcc0       ?type_case_o@?$output_processor@_WV?$string_output_adapter@_W@__crt_stdio_output@@V?$positional_parameter_base@_WV?$string_output_adapter@_W@__crt_stdio_output@@@2@@__crt_stdio_output@@AAE_NXZ 10060cc0 f i libucrtd:output.obj
 0001:0005fd00       ?type_case_o@?$output_processor@_WV?$string_output_adapter@_W@__crt_stdio_output@@V?$standard_base@_WV?$string_output_adapter@_W@__crt_stdio_output@@@2@@__crt_stdio_output@@AAE_NXZ 10060d00 f i libucrtd:output.obj
 0001:0005fd40       ?type_case_p@?$output_processor@DV?$stream_output_adapter@D@__crt_stdio_output@@V?$format_validation_base@DV?$stream_output_adapter@D@__crt_stdio_output@@@2@@__crt_stdio_output@@AAE_NXZ 10060d40 f i libucrtd:output.obj
 0001:0005fd70       ?type_case_p@?$output_processor@DV?$stream_output_adapter@D@__crt_stdio_output@@V?$positional_parameter_base@DV?$stream_output_adapter@D@__crt_stdio_output@@@2@@__crt_stdio_output@@AAE_NXZ 10060d70 f i libucrtd:output.obj
 0001:0005fda0       ?type_case_p@?$output_processor@DV?$stream_output_adapter@D@__crt_stdio_output@@V?$standard_base@DV?$stream_output_adapter@D@__crt_stdio_output@@@2@@__crt_stdio_output@@AAE_NXZ 10060da0 f i libucrtd:output.obj
 0001:0005fdd0       ?type_case_p@?$output_processor@DV?$string_output_adapter@D@__crt_stdio_output@@V?$format_validation_base@DV?$string_output_adapter@D@__crt_stdio_output@@@2@@__crt_stdio_output@@AAE_NXZ 10060dd0 f i libucrtd:output.obj
 0001:0005fe00       ?type_case_p@?$output_processor@DV?$string_output_adapter@D@__crt_stdio_output@@V?$positional_parameter_base@DV?$string_output_adapter@D@__crt_stdio_output@@@2@@__crt_stdio_output@@AAE_NXZ 10060e00 f i libucrtd:output.obj
 0001:0005fe30       ?type_case_p@?$output_processor@DV?$string_output_adapter@D@__crt_stdio_output@@V?$standard_base@DV?$string_output_adapter@D@__crt_stdio_output@@@2@@__crt_stdio_output@@AAE_NXZ 10060e30 f i libucrtd:output.obj
 0001:0005fe60       ?type_case_p@?$output_processor@_WV?$stream_output_adapter@_W@__crt_stdio_output@@V?$format_validation_base@_WV?$stream_output_adapter@_W@__crt_stdio_output@@@2@@__crt_stdio_output@@AAE_NXZ 10060e60 f i libucrtd:output.obj
 0001:0005fe90       ?type_case_p@?$output_processor@_WV?$stream_output_adapter@_W@__crt_stdio_output@@V?$positional_parameter_base@_WV?$stream_output_adapter@_W@__crt_stdio_output@@@2@@__crt_stdio_output@@AAE_NXZ 10060e90 f i libucrtd:output.obj
 0001:0005fec0       ?type_case_p@?$output_processor@_WV?$stream_output_adapter@_W@__crt_stdio_output@@V?$standard_base@_WV?$stream_output_adapter@_W@__crt_stdio_output@@@2@@__crt_stdio_output@@AAE_NXZ 10060ec0 f i libucrtd:output.obj
 0001:0005fef0       ?type_case_p@?$output_processor@_WV?$string_output_adapter@_W@__crt_stdio_output@@V?$format_validation_base@_WV?$string_output_adapter@_W@__crt_stdio_output@@@2@@__crt_stdio_output@@AAE_NXZ 10060ef0 f i libucrtd:output.obj
 0001:0005ff20       ?type_case_p@?$output_processor@_WV?$string_output_adapter@_W@__crt_stdio_output@@V?$positional_parameter_base@_WV?$string_output_adapter@_W@__crt_stdio_output@@@2@@__crt_stdio_output@@AAE_NXZ 10060f20 f i libucrtd:output.obj
 0001:0005ff50       ?type_case_p@?$output_processor@_WV?$string_output_adapter@_W@__crt_stdio_output@@V?$standard_base@_WV?$string_output_adapter@_W@__crt_stdio_output@@@2@@__crt_stdio_output@@AAE_NXZ 10060f50 f i libucrtd:output.obj
 0001:0005ff80       ?type_case_s@?$output_processor@DV?$stream_output_adapter@D@__crt_stdio_output@@V?$format_validation_base@DV?$stream_output_adapter@D@__crt_stdio_output@@@2@@__crt_stdio_output@@AAE_NXZ 10060f80 f i libucrtd:output.obj
 0001:00060070       ?type_case_s@?$output_processor@DV?$stream_output_adapter@D@__crt_stdio_output@@V?$positional_parameter_base@DV?$stream_output_adapter@D@__crt_stdio_output@@@2@@__crt_stdio_output@@AAE_NXZ 10061070 f i libucrtd:output.obj
 0001:00060160       ?type_case_s@?$output_processor@DV?$stream_output_adapter@D@__crt_stdio_output@@V?$standard_base@DV?$stream_output_adapter@D@__crt_stdio_output@@@2@@__crt_stdio_output@@AAE_NXZ 10061160 f i libucrtd:output.obj
 0001:00060250       ?type_case_s@?$output_processor@DV?$string_output_adapter@D@__crt_stdio_output@@V?$format_validation_base@DV?$string_output_adapter@D@__crt_stdio_output@@@2@@__crt_stdio_output@@AAE_NXZ 10061250 f i libucrtd:output.obj
 0001:00060340       ?type_case_s@?$output_processor@DV?$string_output_adapter@D@__crt_stdio_output@@V?$positional_parameter_base@DV?$string_output_adapter@D@__crt_stdio_output@@@2@@__crt_stdio_output@@AAE_NXZ 10061340 f i libucrtd:output.obj
 0001:00060430       ?type_case_s@?$output_processor@DV?$string_output_adapter@D@__crt_stdio_output@@V?$standard_base@DV?$string_output_adapter@D@__crt_stdio_output@@@2@@__crt_stdio_output@@AAE_NXZ 10061430 f i libucrtd:output.obj
 0001:00060520       ?type_case_s@?$output_processor@_WV?$stream_output_adapter@_W@__crt_stdio_output@@V?$format_validation_base@_WV?$stream_output_adapter@_W@__crt_stdio_output@@@2@@__crt_stdio_output@@AAE_NXZ 10061520 f i libucrtd:output.obj
 0001:00060610       ?type_case_s@?$output_processor@_WV?$stream_output_adapter@_W@__crt_stdio_output@@V?$positional_parameter_base@_WV?$stream_output_adapter@_W@__crt_stdio_output@@@2@@__crt_stdio_output@@AAE_NXZ 10061610 f i libucrtd:output.obj
 0001:00060700       ?type_case_s@?$output_processor@_WV?$stream_output_adapter@_W@__crt_stdio_output@@V?$standard_base@_WV?$stream_output_adapter@_W@__crt_stdio_output@@@2@@__crt_stdio_output@@AAE_NXZ 10061700 f i libucrtd:output.obj
 0001:000607f0       ?type_case_s@?$output_processor@_WV?$string_output_adapter@_W@__crt_stdio_output@@V?$format_validation_base@_WV?$string_output_adapter@_W@__crt_stdio_output@@@2@@__crt_stdio_output@@AAE_NXZ 100617f0 f i libucrtd:output.obj
 0001:000608e0       ?type_case_s@?$output_processor@_WV?$string_output_adapter@_W@__crt_stdio_output@@V?$positional_parameter_base@_WV?$string_output_adapter@_W@__crt_stdio_output@@@2@@__crt_stdio_output@@AAE_NXZ 100618e0 f i libucrtd:output.obj
 0001:000609d0       ?type_case_s@?$output_processor@_WV?$string_output_adapter@_W@__crt_stdio_output@@V?$standard_base@_WV?$string_output_adapter@_W@__crt_stdio_output@@@2@@__crt_stdio_output@@AAE_NXZ 100619d0 f i libucrtd:output.obj
 0001:00060ac0       ?type_case_s_compute_narrow_string_length@?$output_processor@DV?$stream_output_adapter@D@__crt_stdio_output@@V?$format_validation_base@DV?$stream_output_adapter@D@__crt_stdio_output@@@2@@__crt_stdio_output@@ABEHHD@Z 10061ac0 f i libucrtd:output.obj
 0001:00060af0       ?type_case_s_compute_narrow_string_length@?$output_processor@DV?$stream_output_adapter@D@__crt_stdio_output@@V?$positional_parameter_base@DV?$stream_output_adapter@D@__crt_stdio_output@@@2@@__crt_stdio_output@@ABEHHD@Z 10061af0 f i libucrtd:output.obj
 0001:00060b20       ?type_case_s_compute_narrow_string_length@?$output_processor@DV?$stream_output_adapter@D@__crt_stdio_output@@V?$standard_base@DV?$stream_output_adapter@D@__crt_stdio_output@@@2@@__crt_stdio_output@@ABEHHD@Z 10061b20 f i libucrtd:output.obj
 0001:00060b50       ?type_case_s_compute_narrow_string_length@?$output_processor@DV?$string_output_adapter@D@__crt_stdio_output@@V?$format_validation_base@DV?$string_output_adapter@D@__crt_stdio_output@@@2@@__crt_stdio_output@@ABEHHD@Z 10061b50 f i libucrtd:output.obj
 0001:00060b80       ?type_case_s_compute_narrow_string_length@?$output_processor@DV?$string_output_adapter@D@__crt_stdio_output@@V?$positional_parameter_base@DV?$string_output_adapter@D@__crt_stdio_output@@@2@@__crt_stdio_output@@ABEHHD@Z 10061b80 f i libucrtd:output.obj
 0001:00060bb0       ?type_case_s_compute_narrow_string_length@?$output_processor@DV?$string_output_adapter@D@__crt_stdio_output@@V?$standard_base@DV?$string_output_adapter@D@__crt_stdio_output@@@2@@__crt_stdio_output@@ABEHHD@Z 10061bb0 f i libucrtd:output.obj
 0001:00060be0       ?type_case_s_compute_narrow_string_length@?$output_processor@_WV?$stream_output_adapter@_W@__crt_stdio_output@@V?$format_validation_base@_WV?$stream_output_adapter@_W@__crt_stdio_output@@@2@@__crt_stdio_output@@ABEHH_W@Z 10061be0 f i libucrtd:output.obj
 0001:00060c50       ?type_case_s_compute_narrow_string_length@?$output_processor@_WV?$stream_output_adapter@_W@__crt_stdio_output@@V?$positional_parameter_base@_WV?$stream_output_adapter@_W@__crt_stdio_output@@@2@@__crt_stdio_output@@ABEHH_W@Z 10061c50 f i libucrtd:output.obj
 0001:00060cc0       ?type_case_s_compute_narrow_string_length@?$output_processor@_WV?$stream_output_adapter@_W@__crt_stdio_output@@V?$standard_base@_WV?$stream_output_adapter@_W@__crt_stdio_output@@@2@@__crt_stdio_output@@ABEHH_W@Z 10061cc0 f i libucrtd:output.obj
 0001:00060d30       ?type_case_s_compute_narrow_string_length@?$output_processor@_WV?$string_output_adapter@_W@__crt_stdio_output@@V?$format_validation_base@_WV?$string_output_adapter@_W@__crt_stdio_output@@@2@@__crt_stdio_output@@ABEHH_W@Z 10061d30 f i libucrtd:output.obj
 0001:00060da0       ?type_case_s_compute_narrow_string_length@?$output_processor@_WV?$string_output_adapter@_W@__crt_stdio_output@@V?$positional_parameter_base@_WV?$string_output_adapter@_W@__crt_stdio_output@@@2@@__crt_stdio_output@@ABEHH_W@Z 10061da0 f i libucrtd:output.obj
 0001:00060e10       ?type_case_s_compute_narrow_string_length@?$output_processor@_WV?$string_output_adapter@_W@__crt_stdio_output@@V?$standard_base@_WV?$string_output_adapter@_W@__crt_stdio_output@@@2@@__crt_stdio_output@@ABEHH_W@Z 10061e10 f i libucrtd:output.obj
 0001:00060e80       ?type_case_u@?$output_processor@DV?$stream_output_adapter@D@__crt_stdio_output@@V?$format_validation_base@DV?$stream_output_adapter@D@__crt_stdio_output@@@2@@__crt_stdio_output@@AAE_NXZ 10061e80 f i libucrtd:output.obj
 0001:00060ea0       ?type_case_u@?$output_processor@DV?$stream_output_adapter@D@__crt_stdio_output@@V?$positional_parameter_base@DV?$stream_output_adapter@D@__crt_stdio_output@@@2@@__crt_stdio_output@@AAE_NXZ 10061ea0 f i libucrtd:output.obj
 0001:00060ec0       ?type_case_u@?$output_processor@DV?$stream_output_adapter@D@__crt_stdio_output@@V?$standard_base@DV?$stream_output_adapter@D@__crt_stdio_output@@@2@@__crt_stdio_output@@AAE_NXZ 10061ec0 f i libucrtd:output.obj
 0001:00060ee0       ?type_case_u@?$output_processor@DV?$string_output_adapter@D@__crt_stdio_output@@V?$format_validation_base@DV?$string_output_adapter@D@__crt_stdio_output@@@2@@__crt_stdio_output@@AAE_NXZ 10061ee0 f i libucrtd:output.obj
 0001:00060f00       ?type_case_u@?$output_processor@DV?$string_output_adapter@D@__crt_stdio_output@@V?$positional_parameter_base@DV?$string_output_adapter@D@__crt_stdio_output@@@2@@__crt_stdio_output@@AAE_NXZ 10061f00 f i libucrtd:output.obj
 0001:00060f20       ?type_case_u@?$output_processor@DV?$string_output_adapter@D@__crt_stdio_output@@V?$standard_base@DV?$string_output_adapter@D@__crt_stdio_output@@@2@@__crt_stdio_output@@AAE_NXZ 10061f20 f i libucrtd:output.obj
 0001:00060f40       ?type_case_u@?$output_processor@_WV?$stream_output_adapter@_W@__crt_stdio_output@@V?$format_validation_base@_WV?$stream_output_adapter@_W@__crt_stdio_output@@@2@@__crt_stdio_output@@AAE_NXZ 10061f40 f i libucrtd:output.obj
 0001:00060f60       ?type_case_u@?$output_processor@_WV?$stream_output_adapter@_W@__crt_stdio_output@@V?$positional_parameter_base@_WV?$stream_output_adapter@_W@__crt_stdio_output@@@2@@__crt_stdio_output@@AAE_NXZ 10061f60 f i libucrtd:output.obj
 0001:00060f80       ?type_case_u@?$output_processor@_WV?$stream_output_adapter@_W@__crt_stdio_output@@V?$standard_base@_WV?$stream_output_adapter@_W@__crt_stdio_output@@@2@@__crt_stdio_output@@AAE_NXZ 10061f80 f i libucrtd:output.obj
 0001:00060fa0       ?type_case_u@?$output_processor@_WV?$string_output_adapter@_W@__crt_stdio_output@@V?$format_validation_base@_WV?$string_output_adapter@_W@__crt_stdio_output@@@2@@__crt_stdio_output@@AAE_NXZ 10061fa0 f i libucrtd:output.obj
 0001:00060fc0       ?type_case_u@?$output_processor@_WV?$string_output_adapter@_W@__crt_stdio_output@@V?$positional_parameter_base@_WV?$string_output_adapter@_W@__crt_stdio_output@@@2@@__crt_stdio_output@@AAE_NXZ 10061fc0 f i libucrtd:output.obj
 0001:00060fe0       ?type_case_u@?$output_processor@_WV?$string_output_adapter@_W@__crt_stdio_output@@V?$standard_base@_WV?$string_output_adapter@_W@__crt_stdio_output@@@2@@__crt_stdio_output@@AAE_NXZ 10061fe0 f i libucrtd:output.obj
 0001:00061000       ?type_case_x@?$output_processor@DV?$stream_output_adapter@D@__crt_stdio_output@@V?$format_validation_base@DV?$stream_output_adapter@D@__crt_stdio_output@@@2@@__crt_stdio_output@@AAE_NXZ 10062000 f i libucrtd:output.obj
 0001:00061020       ?type_case_x@?$output_processor@DV?$stream_output_adapter@D@__crt_stdio_output@@V?$positional_parameter_base@DV?$stream_output_adapter@D@__crt_stdio_output@@@2@@__crt_stdio_output@@AAE_NXZ 10062020 f i libucrtd:output.obj
 0001:00061040       ?type_case_x@?$output_processor@DV?$stream_output_adapter@D@__crt_stdio_output@@V?$standard_base@DV?$stream_output_adapter@D@__crt_stdio_output@@@2@@__crt_stdio_output@@AAE_NXZ 10062040 f i libucrtd:output.obj
 0001:00061060       ?type_case_x@?$output_processor@DV?$string_output_adapter@D@__crt_stdio_output@@V?$format_validation_base@DV?$string_output_adapter@D@__crt_stdio_output@@@2@@__crt_stdio_output@@AAE_NXZ 10062060 f i libucrtd:output.obj
 0001:00061080       ?type_case_x@?$output_processor@DV?$string_output_adapter@D@__crt_stdio_output@@V?$positional_parameter_base@DV?$string_output_adapter@D@__crt_stdio_output@@@2@@__crt_stdio_output@@AAE_NXZ 10062080 f i libucrtd:output.obj
 0001:000610a0       ?type_case_x@?$output_processor@DV?$string_output_adapter@D@__crt_stdio_output@@V?$standard_base@DV?$string_output_adapter@D@__crt_stdio_output@@@2@@__crt_stdio_output@@AAE_NXZ 100620a0 f i libucrtd:output.obj
 0001:000610c0       ?type_case_x@?$output_processor@_WV?$stream_output_adapter@_W@__crt_stdio_output@@V?$format_validation_base@_WV?$stream_output_adapter@_W@__crt_stdio_output@@@2@@__crt_stdio_output@@AAE_NXZ 100620c0 f i libucrtd:output.obj
 0001:000610e0       ?type_case_x@?$output_processor@_WV?$stream_output_adapter@_W@__crt_stdio_output@@V?$positional_parameter_base@_WV?$stream_output_adapter@_W@__crt_stdio_output@@@2@@__crt_stdio_output@@AAE_NXZ 100620e0 f i libucrtd:output.obj
 0001:00061100       ?type_case_x@?$output_processor@_WV?$stream_output_adapter@_W@__crt_stdio_output@@V?$standard_base@_WV?$stream_output_adapter@_W@__crt_stdio_output@@@2@@__crt_stdio_output@@AAE_NXZ 10062100 f i libucrtd:output.obj
 0001:00061120       ?type_case_x@?$output_processor@_WV?$string_output_adapter@_W@__crt_stdio_output@@V?$format_validation_base@_WV?$string_output_adapter@_W@__crt_stdio_output@@@2@@__crt_stdio_output@@AAE_NXZ 10062120 f i libucrtd:output.obj
 0001:00061140       ?type_case_x@?$output_processor@_WV?$string_output_adapter@_W@__crt_stdio_output@@V?$positional_parameter_base@_WV?$string_output_adapter@_W@__crt_stdio_output@@@2@@__crt_stdio_output@@AAE_NXZ 10062140 f i libucrtd:output.obj
 0001:00061160       ?type_case_x@?$output_processor@_WV?$string_output_adapter@_W@__crt_stdio_output@@V?$standard_base@_WV?$string_output_adapter@_W@__crt_stdio_output@@@2@@__crt_stdio_output@@AAE_NXZ 10062160 f i libucrtd:output.obj
 0001:00061180       ?unset_flag@?$output_processor@DV?$stream_output_adapter@D@__crt_stdio_output@@V?$format_validation_base@DV?$stream_output_adapter@D@__crt_stdio_output@@@2@@__crt_stdio_output@@AAEXI@Z 10062180 f i libucrtd:output.obj
 0001:000611a0       ?unset_flag@?$output_processor@DV?$stream_output_adapter@D@__crt_stdio_output@@V?$positional_parameter_base@DV?$stream_output_adapter@D@__crt_stdio_output@@@2@@__crt_stdio_output@@AAEXI@Z 100621a0 f i libucrtd:output.obj
 0001:000611c0       ?unset_flag@?$output_processor@DV?$stream_output_adapter@D@__crt_stdio_output@@V?$standard_base@DV?$stream_output_adapter@D@__crt_stdio_output@@@2@@__crt_stdio_output@@AAEXI@Z 100621c0 f i libucrtd:output.obj
 0001:000611e0       ?unset_flag@?$output_processor@DV?$string_output_adapter@D@__crt_stdio_output@@V?$format_validation_base@DV?$string_output_adapter@D@__crt_stdio_output@@@2@@__crt_stdio_output@@AAEXI@Z 100621e0 f i libucrtd:output.obj
 0001:00061200       ?unset_flag@?$output_processor@DV?$string_output_adapter@D@__crt_stdio_output@@V?$positional_parameter_base@DV?$string_output_adapter@D@__crt_stdio_output@@@2@@__crt_stdio_output@@AAEXI@Z 10062200 f i libucrtd:output.obj
 0001:00061220       ?unset_flag@?$output_processor@DV?$string_output_adapter@D@__crt_stdio_output@@V?$standard_base@DV?$string_output_adapter@D@__crt_stdio_output@@@2@@__crt_stdio_output@@AAEXI@Z 10062220 f i libucrtd:output.obj
 0001:00061240       ?unset_flag@?$output_processor@_WV?$stream_output_adapter@_W@__crt_stdio_output@@V?$format_validation_base@_WV?$stream_output_adapter@_W@__crt_stdio_output@@@2@@__crt_stdio_output@@AAEXI@Z 10062240 f i libucrtd:output.obj
 0001:00061260       ?unset_flag@?$output_processor@_WV?$stream_output_adapter@_W@__crt_stdio_output@@V?$positional_parameter_base@_WV?$stream_output_adapter@_W@__crt_stdio_output@@@2@@__crt_stdio_output@@AAEXI@Z 10062260 f i libucrtd:output.obj
 0001:00061280       ?unset_flag@?$output_processor@_WV?$stream_output_adapter@_W@__crt_stdio_output@@V?$standard_base@_WV?$stream_output_adapter@_W@__crt_stdio_output@@@2@@__crt_stdio_output@@AAEXI@Z 10062280 f i libucrtd:output.obj
 0001:000612a0       ?unset_flag@?$output_processor@_WV?$string_output_adapter@_W@__crt_stdio_output@@V?$format_validation_base@_WV?$string_output_adapter@_W@__crt_stdio_output@@@2@@__crt_stdio_output@@AAEXI@Z 100622a0 f i libucrtd:output.obj
 0001:000612c0       ?unset_flag@?$output_processor@_WV?$string_output_adapter@_W@__crt_stdio_output@@V?$positional_parameter_base@_WV?$string_output_adapter@_W@__crt_stdio_output@@@2@@__crt_stdio_output@@AAEXI@Z 100622c0 f i libucrtd:output.obj
 0001:000612e0       ?unset_flag@?$output_processor@_WV?$string_output_adapter@_W@__crt_stdio_output@@V?$standard_base@_WV?$string_output_adapter@_W@__crt_stdio_output@@@2@@__crt_stdio_output@@AAEXI@Z 100622e0 f i libucrtd:output.obj
 0001:00061300       ?update_field_width@?$positional_parameter_base@DV?$stream_output_adapter@D@__crt_stdio_output@@@__crt_stdio_output@@IAE_NXZ 10062300 f i libucrtd:output.obj
 0001:00061480       ?update_field_width@?$positional_parameter_base@DV?$string_output_adapter@D@__crt_stdio_output@@@__crt_stdio_output@@IAE_NXZ 10062480 f i libucrtd:output.obj
 0001:00061600       ?update_field_width@?$positional_parameter_base@_WV?$stream_output_adapter@_W@__crt_stdio_output@@@__crt_stdio_output@@IAE_NXZ 10062600 f i libucrtd:output.obj
 0001:00061780       ?update_field_width@?$positional_parameter_base@_WV?$string_output_adapter@_W@__crt_stdio_output@@@__crt_stdio_output@@IAE_NXZ 10062780 f i libucrtd:output.obj
 0001:00061900       ?update_field_width@?$standard_base@DV?$stream_output_adapter@D@__crt_stdio_output@@@__crt_stdio_output@@IAE_NXZ 10062900 f i libucrtd:output.obj
 0001:00061930       ?update_field_width@?$standard_base@DV?$string_output_adapter@D@__crt_stdio_output@@@__crt_stdio_output@@IAE_NXZ 10062930 f i libucrtd:output.obj
 0001:00061960       ?update_field_width@?$standard_base@_WV?$stream_output_adapter@_W@__crt_stdio_output@@@__crt_stdio_output@@IAE_NXZ 10062960 f i libucrtd:output.obj
 0001:00061990       ?update_field_width@?$standard_base@_WV?$string_output_adapter@_W@__crt_stdio_output@@@__crt_stdio_output@@IAE_NXZ 10062990 f i libucrtd:output.obj
 0001:000619c0       ?update_precision@?$positional_parameter_base@DV?$stream_output_adapter@D@__crt_stdio_output@@@__crt_stdio_output@@IAE_NXZ 100629c0 f i libucrtd:output.obj
 0001:00061b40       ?update_precision@?$positional_parameter_base@DV?$string_output_adapter@D@__crt_stdio_output@@@__crt_stdio_output@@IAE_NXZ 10062b40 f i libucrtd:output.obj
 0001:00061cc0       ?update_precision@?$positional_parameter_base@_WV?$stream_output_adapter@_W@__crt_stdio_output@@@__crt_stdio_output@@IAE_NXZ 10062cc0 f i libucrtd:output.obj
 0001:00061e40       ?update_precision@?$positional_parameter_base@_WV?$string_output_adapter@_W@__crt_stdio_output@@@__crt_stdio_output@@IAE_NXZ 10062e40 f i libucrtd:output.obj
 0001:00061fc0       ?update_precision@?$standard_base@DV?$stream_output_adapter@D@__crt_stdio_output@@@__crt_stdio_output@@IAE_NXZ 10062fc0 f i libucrtd:output.obj
 0001:00061ff0       ?update_precision@?$standard_base@DV?$string_output_adapter@D@__crt_stdio_output@@@__crt_stdio_output@@IAE_NXZ 10062ff0 f i libucrtd:output.obj
 0001:00062020       ?update_precision@?$standard_base@_WV?$stream_output_adapter@_W@__crt_stdio_output@@@__crt_stdio_output@@IAE_NXZ 10063020 f i libucrtd:output.obj
 0001:00062050       ?update_precision@?$standard_base@_WV?$string_output_adapter@_W@__crt_stdio_output@@@__crt_stdio_output@@IAE_NXZ 10063050 f i libucrtd:output.obj
 0001:00062080       ?valid@__crt_stdio_stream@@QBE_NXZ 10063080 f i libucrtd:output.obj
 0001:000620b0       ?validate@?$stream_output_adapter@D@__crt_stdio_output@@QBE_NXZ 100630b0 f i libucrtd:output.obj
 0001:00062160       ?validate@?$stream_output_adapter@_W@__crt_stdio_output@@QBE_NXZ 10063160 f i libucrtd:output.obj
 0001:00062210       ?validate@?$string_output_adapter@D@__crt_stdio_output@@QBE_NXZ 10063210 f i libucrtd:output.obj
 0001:000622a0       ?validate@?$string_output_adapter@_W@__crt_stdio_output@@QBE_NXZ 100632a0 f i libucrtd:output.obj
 0001:00062330       ?validate_and_store_parameter_data@?$positional_parameter_base@DV?$stream_output_adapter@D@__crt_stdio_output@@@__crt_stdio_output@@AAE_NAAUparameter_data@12@W4parameter_type@12@DW4length_modifier@2@@Z 10063330 f i libucrtd:output.obj
 0001:00062400       ?validate_and_store_parameter_data@?$positional_parameter_base@DV?$string_output_adapter@D@__crt_stdio_output@@@__crt_stdio_output@@AAE_NAAUparameter_data@12@W4parameter_type@12@DW4length_modifier@2@@Z 10063400 f i libucrtd:output.obj
 0001:000624d0       ?validate_and_store_parameter_data@?$positional_parameter_base@_WV?$stream_output_adapter@_W@__crt_stdio_output@@@__crt_stdio_output@@AAE_NAAUparameter_data@12@W4parameter_type@12@_WW4length_modifier@2@@Z 100634d0 f i libucrtd:output.obj
 0001:000625b0       ?validate_and_store_parameter_data@?$positional_parameter_base@_WV?$string_output_adapter@_W@__crt_stdio_output@@@__crt_stdio_output@@AAE_NAAUparameter_data@12@W4parameter_type@12@_WW4length_modifier@2@@Z 100635b0 f i libucrtd:output.obj
 0001:00062690       ?validate_and_update_state_at_beginning_of_format_character@?$positional_parameter_base@DV?$stream_output_adapter@D@__crt_stdio_output@@@__crt_stdio_output@@IAE_NXZ 10063690 f i libucrtd:output.obj
 0001:000628b0       ?validate_and_update_state_at_beginning_of_format_character@?$positional_parameter_base@DV?$string_output_adapter@D@__crt_stdio_output@@@__crt_stdio_output@@IAE_NXZ 100638b0 f i libucrtd:output.obj
 0001:00062ad0       ?validate_and_update_state_at_beginning_of_format_character@?$positional_parameter_base@_WV?$stream_output_adapter@_W@__crt_stdio_output@@@__crt_stdio_output@@IAE_NXZ 10063ad0 f i libucrtd:output.obj
 0001:00062cf0       ?validate_and_update_state_at_beginning_of_format_character@?$positional_parameter_base@_WV?$string_output_adapter@_W@__crt_stdio_output@@@__crt_stdio_output@@IAE_NXZ 10063cf0 f i libucrtd:output.obj
 0001:00062f10       ?validate_and_update_state_at_beginning_of_format_character@?$standard_base@DV?$stream_output_adapter@D@__crt_stdio_output@@@__crt_stdio_output@@IAE_NXZ 10063f10 f i libucrtd:output.obj
 0001:00062f20       ?validate_and_update_state_at_beginning_of_format_character@?$standard_base@DV?$string_output_adapter@D@__crt_stdio_output@@@__crt_stdio_output@@IAE_NXZ 10063f20 f i libucrtd:output.obj
 0001:00062f30       ?validate_and_update_state_at_beginning_of_format_character@?$standard_base@_WV?$stream_output_adapter@_W@__crt_stdio_output@@@__crt_stdio_output@@IAE_NXZ 10063f30 f i libucrtd:output.obj
 0001:00062f40       ?validate_and_update_state_at_beginning_of_format_character@?$standard_base@_WV?$string_output_adapter@_W@__crt_stdio_output@@@__crt_stdio_output@@IAE_NXZ 10063f40 f i libucrtd:output.obj
 0001:00062f50       ?validate_and_update_state_at_end_of_format_string@?$format_validation_base@DV?$stream_output_adapter@D@__crt_stdio_output@@@__crt_stdio_output@@IBE_NXZ 10063f50 f i libucrtd:output.obj
 0001:00062ff0       ?validate_and_update_state_at_end_of_format_string@?$format_validation_base@DV?$string_output_adapter@D@__crt_stdio_output@@@__crt_stdio_output@@IBE_NXZ 10063ff0 f i libucrtd:output.obj
 0001:00063090       ?validate_and_update_state_at_end_of_format_string@?$format_validation_base@_WV?$stream_output_adapter@_W@__crt_stdio_output@@@__crt_stdio_output@@IBE_NXZ 10064090 f i libucrtd:output.obj
 0001:00063130       ?validate_and_update_state_at_end_of_format_string@?$format_validation_base@_WV?$string_output_adapter@_W@__crt_stdio_output@@@__crt_stdio_output@@IBE_NXZ 10064130 f i libucrtd:output.obj
 0001:000631d0       ?validate_and_update_state_at_end_of_format_string@?$positional_parameter_base@DV?$stream_output_adapter@D@__crt_stdio_output@@@__crt_stdio_output@@IAE_NXZ 100641d0 f i libucrtd:output.obj
 0001:00063370       ?validate_and_update_state_at_end_of_format_string@?$positional_parameter_base@DV?$string_output_adapter@D@__crt_stdio_output@@@__crt_stdio_output@@IAE_NXZ 10064370 f i libucrtd:output.obj
 0001:00063510       ?validate_and_update_state_at_end_of_format_string@?$positional_parameter_base@_WV?$stream_output_adapter@_W@__crt_stdio_output@@@__crt_stdio_output@@IAE_NXZ 10064510 f i libucrtd:output.obj
 0001:000636b0       ?validate_and_update_state_at_end_of_format_string@?$positional_parameter_base@_WV?$string_output_adapter@_W@__crt_stdio_output@@@__crt_stdio_output@@IAE_NXZ 100646b0 f i libucrtd:output.obj
 0001:00063850       ?validate_and_update_state_at_end_of_format_string@?$standard_base@DV?$stream_output_adapter@D@__crt_stdio_output@@@__crt_stdio_output@@IBE_NXZ 10064850 f i libucrtd:output.obj
 0001:00063860       ?validate_and_update_state_at_end_of_format_string@?$standard_base@DV?$string_output_adapter@D@__crt_stdio_output@@@__crt_stdio_output@@IBE_NXZ 10064860 f i libucrtd:output.obj
 0001:00063870       ?validate_and_update_state_at_end_of_format_string@?$standard_base@_WV?$stream_output_adapter@_W@__crt_stdio_output@@@__crt_stdio_output@@IBE_NXZ 10064870 f i libucrtd:output.obj
 0001:00063880       ?validate_and_update_state_at_end_of_format_string@?$standard_base@_WV?$string_output_adapter@_W@__crt_stdio_output@@@__crt_stdio_output@@IBE_NXZ 10064880 f i libucrtd:output.obj
 0001:00063890       ?validate_state_for_type_case_a@?$positional_parameter_base@DV?$stream_output_adapter@D@__crt_stdio_output@@@__crt_stdio_output@@IAE_NXZ 10064890 f i libucrtd:output.obj
 0001:00063980       ?validate_state_for_type_case_a@?$positional_parameter_base@DV?$string_output_adapter@D@__crt_stdio_output@@@__crt_stdio_output@@IAE_NXZ 10064980 f i libucrtd:output.obj
 0001:00063a70       ?validate_state_for_type_case_a@?$positional_parameter_base@_WV?$stream_output_adapter@_W@__crt_stdio_output@@@__crt_stdio_output@@IAE_NXZ 10064a70 f i libucrtd:output.obj
 0001:00063b60       ?validate_state_for_type_case_a@?$positional_parameter_base@_WV?$string_output_adapter@_W@__crt_stdio_output@@@__crt_stdio_output@@IAE_NXZ 10064b60 f i libucrtd:output.obj
 0001:00063c50       ?validate_state_for_type_case_a@?$standard_base@DV?$stream_output_adapter@D@__crt_stdio_output@@@__crt_stdio_output@@IBE_NXZ 10064c50 f i libucrtd:output.obj
 0001:00063c60       ?validate_state_for_type_case_a@?$standard_base@DV?$string_output_adapter@D@__crt_stdio_output@@@__crt_stdio_output@@IBE_NXZ 10064c60 f i libucrtd:output.obj
 0001:00063c70       ?validate_state_for_type_case_a@?$standard_base@_WV?$stream_output_adapter@_W@__crt_stdio_output@@@__crt_stdio_output@@IBE_NXZ 10064c70 f i libucrtd:output.obj
 0001:00063c80       ?validate_state_for_type_case_a@?$standard_base@_WV?$string_output_adapter@_W@__crt_stdio_output@@@__crt_stdio_output@@IBE_NXZ 10064c80 f i libucrtd:output.obj
 0001:00063c90       ?validate_stream_is_ansi_if_required@?$__acrt_stdio_char_traits@D@@SA_NQAU_iobuf@@@Z 10064c90 f i libucrtd:output.obj
 0001:00063dc0       ?validate_stream_is_ansi_if_required@?$__acrt_stdio_char_traits@_W@@SA_NQAU_iobuf@@@Z 10064dc0 f i libucrtd:output.obj
 0001:00063dd0       ?wide_null_string@?$output_processor@DV?$stream_output_adapter@D@__crt_stdio_output@@V?$format_validation_base@DV?$stream_output_adapter@D@__crt_stdio_output@@@2@@__crt_stdio_output@@CAPA_WXZ 10064dd0 f i libucrtd:output.obj
 0001:00063de0       ?wide_null_string@?$output_processor@DV?$stream_output_adapter@D@__crt_stdio_output@@V?$positional_parameter_base@DV?$stream_output_adapter@D@__crt_stdio_output@@@2@@__crt_stdio_output@@CAPA_WXZ 10064de0 f i libucrtd:output.obj
 0001:00063df0       ?wide_null_string@?$output_processor@DV?$stream_output_adapter@D@__crt_stdio_output@@V?$standard_base@DV?$stream_output_adapter@D@__crt_stdio_output@@@2@@__crt_stdio_output@@CAPA_WXZ 10064df0 f i libucrtd:output.obj
 0001:00063e00       ?wide_null_string@?$output_processor@DV?$string_output_adapter@D@__crt_stdio_output@@V?$format_validation_base@DV?$string_output_adapter@D@__crt_stdio_output@@@2@@__crt_stdio_output@@CAPA_WXZ 10064e00 f i libucrtd:output.obj
 0001:00063e10       ?wide_null_string@?$output_processor@DV?$string_output_adapter@D@__crt_stdio_output@@V?$positional_parameter_base@DV?$string_output_adapter@D@__crt_stdio_output@@@2@@__crt_stdio_output@@CAPA_WXZ 10064e10 f i libucrtd:output.obj
 0001:00063e20       ?wide_null_string@?$output_processor@DV?$string_output_adapter@D@__crt_stdio_output@@V?$standard_base@DV?$string_output_adapter@D@__crt_stdio_output@@@2@@__crt_stdio_output@@CAPA_WXZ 10064e20 f i libucrtd:output.obj
 0001:00063e30       ?wide_null_string@?$output_processor@_WV?$stream_output_adapter@_W@__crt_stdio_output@@V?$format_validation_base@_WV?$stream_output_adapter@_W@__crt_stdio_output@@@2@@__crt_stdio_output@@CAPA_WXZ 10064e30 f i libucrtd:output.obj
 0001:00063e40       ?wide_null_string@?$output_processor@_WV?$stream_output_adapter@_W@__crt_stdio_output@@V?$positional_parameter_base@_WV?$stream_output_adapter@_W@__crt_stdio_output@@@2@@__crt_stdio_output@@CAPA_WXZ 10064e40 f i libucrtd:output.obj
 0001:00063e50       ?wide_null_string@?$output_processor@_WV?$stream_output_adapter@_W@__crt_stdio_output@@V?$standard_base@_WV?$stream_output_adapter@_W@__crt_stdio_output@@@2@@__crt_stdio_output@@CAPA_WXZ 10064e50 f i libucrtd:output.obj
 0001:00063e60       ?wide_null_string@?$output_processor@_WV?$string_output_adapter@_W@__crt_stdio_output@@V?$format_validation_base@_WV?$string_output_adapter@_W@__crt_stdio_output@@@2@@__crt_stdio_output@@CAPA_WXZ 10064e60 f i libucrtd:output.obj
 0001:00063e70       ?wide_null_string@?$output_processor@_WV?$string_output_adapter@_W@__crt_stdio_output@@V?$positional_parameter_base@_WV?$string_output_adapter@_W@__crt_stdio_output@@@2@@__crt_stdio_output@@CAPA_WXZ 10064e70 f i libucrtd:output.obj
 0001:00063e80       ?wide_null_string@?$output_processor@_WV?$string_output_adapter@_W@__crt_stdio_output@@V?$standard_base@_WV?$string_output_adapter@_W@__crt_stdio_output@@@2@@__crt_stdio_output@@CAPA_WXZ 10064e80 f i libucrtd:output.obj
 0001:00063e90       ?write_character@?$output_adapter_common@DV?$stream_output_adapter@D@__crt_stdio_output@@@__crt_stdio_output@@QBEXDQAH@Z 10064e90 f i libucrtd:output.obj
 0001:00063ed0       ?write_character@?$output_adapter_common@_WV?$stream_output_adapter@_W@__crt_stdio_output@@@__crt_stdio_output@@QBEX_WQAH@Z 10064ed0 f i libucrtd:output.obj
 0001:00063f10       ?write_character@?$string_output_adapter@D@__crt_stdio_output@@QBE_NDQAH@Z 10064f10 f i libucrtd:output.obj
 0001:00063fa0       ?write_character@?$string_output_adapter@_W@__crt_stdio_output@@QBE_N_WQAH@Z 10064fa0 f i libucrtd:output.obj
 0001:00064040       ?write_character_without_count_update@?$stream_output_adapter@D@__crt_stdio_output@@QBE_ND@Z 10065040 f i libucrtd:output.obj
 0001:000640b0       ?write_character_without_count_update@?$stream_output_adapter@_W@__crt_stdio_output@@QBE_N_W@Z 100650b0 f i libucrtd:output.obj
 0001:00064120       ?write_stored_string_tchar@?$output_processor@DV?$stream_output_adapter@D@__crt_stdio_output@@V?$format_validation_base@DV?$stream_output_adapter@D@__crt_stdio_output@@@2@@__crt_stdio_output@@AAE_ND@Z 10065120 f i libucrtd:output.obj
 0001:00064230       ?write_stored_string_tchar@?$output_processor@DV?$stream_output_adapter@D@__crt_stdio_output@@V?$positional_parameter_base@DV?$stream_output_adapter@D@__crt_stdio_output@@@2@@__crt_stdio_output@@AAE_ND@Z 10065230 f i libucrtd:output.obj
 0001:00064340       ?write_stored_string_tchar@?$output_processor@DV?$stream_output_adapter@D@__crt_stdio_output@@V?$standard_base@DV?$stream_output_adapter@D@__crt_stdio_output@@@2@@__crt_stdio_output@@AAE_ND@Z 10065340 f i libucrtd:output.obj
 0001:00064450       ?write_stored_string_tchar@?$output_processor@DV?$string_output_adapter@D@__crt_stdio_output@@V?$format_validation_base@DV?$string_output_adapter@D@__crt_stdio_output@@@2@@__crt_stdio_output@@AAE_ND@Z 10065450 f i libucrtd:output.obj
 0001:00064560       ?write_stored_string_tchar@?$output_processor@DV?$string_output_adapter@D@__crt_stdio_output@@V?$positional_parameter_base@DV?$string_output_adapter@D@__crt_stdio_output@@@2@@__crt_stdio_output@@AAE_ND@Z 10065560 f i libucrtd:output.obj
 0001:00064670       ?write_stored_string_tchar@?$output_processor@DV?$string_output_adapter@D@__crt_stdio_output@@V?$standard_base@DV?$string_output_adapter@D@__crt_stdio_output@@@2@@__crt_stdio_output@@AAE_ND@Z 10065670 f i libucrtd:output.obj
 0001:00064780       ?write_stored_string_tchar@?$output_processor@_WV?$stream_output_adapter@_W@__crt_stdio_output@@V?$format_validation_base@_WV?$stream_output_adapter@_W@__crt_stdio_output@@@2@@__crt_stdio_output@@AAE_N_W@Z 10065780 f i libucrtd:output.obj
 0001:00064870       ?write_stored_string_tchar@?$output_processor@_WV?$stream_output_adapter@_W@__crt_stdio_output@@V?$positional_parameter_base@_WV?$stream_output_adapter@_W@__crt_stdio_output@@@2@@__crt_stdio_output@@AAE_N_W@Z 10065870 f i libucrtd:output.obj
 0001:00064960       ?write_stored_string_tchar@?$output_processor@_WV?$stream_output_adapter@_W@__crt_stdio_output@@V?$standard_base@_WV?$stream_output_adapter@_W@__crt_stdio_output@@@2@@__crt_stdio_output@@AAE_N_W@Z 10065960 f i libucrtd:output.obj
 0001:00064a50       ?write_stored_string_tchar@?$output_processor@_WV?$string_output_adapter@_W@__crt_stdio_output@@V?$format_validation_base@_WV?$string_output_adapter@_W@__crt_stdio_output@@@2@@__crt_stdio_output@@AAE_N_W@Z 10065a50 f i libucrtd:output.obj
 0001:00064b40       ?write_stored_string_tchar@?$output_processor@_WV?$string_output_adapter@_W@__crt_stdio_output@@V?$positional_parameter_base@_WV?$string_output_adapter@_W@__crt_stdio_output@@@2@@__crt_stdio_output@@AAE_N_W@Z 10065b40 f i libucrtd:output.obj
 0001:00064c30       ?write_stored_string_tchar@?$output_processor@_WV?$string_output_adapter@_W@__crt_stdio_output@@V?$standard_base@_WV?$string_output_adapter@_W@__crt_stdio_output@@@2@@__crt_stdio_output@@AAE_N_W@Z 10065c30 f i libucrtd:output.obj
 0001:00064d20       ?write_string@?$stream_output_adapter@D@__crt_stdio_output@@QBEXQBDHQAHAAV__crt_deferred_errno_cache@@@Z 10065d20 f i libucrtd:output.obj
 0001:00064d80       ?write_string@?$stream_output_adapter@_W@__crt_stdio_output@@QBEXQB_WHQAHAAV__crt_deferred_errno_cache@@@Z 10065d80 f i libucrtd:output.obj
 0001:00064de0       ?write_string@?$string_output_adapter@D@__crt_stdio_output@@QBEXQBDHQAHAAV__crt_deferred_errno_cache@@@Z 10065de0 f i libucrtd:output.obj
 0001:00064ee0       ?write_string@?$string_output_adapter@_W@__crt_stdio_output@@QBEXQB_WHQAHAAV__crt_deferred_errno_cache@@@Z 10065ee0 f i libucrtd:output.obj
 0001:00064ff0       ?write_string_impl@?$output_adapter_common@DV?$stream_output_adapter@D@__crt_stdio_output@@@__crt_stdio_output@@IBEXQBDHQAHAAV__crt_deferred_errno_cache@@@Z 10065ff0 f i libucrtd:output.obj
 0001:00065090       ?write_string_impl@?$output_adapter_common@_WV?$stream_output_adapter@_W@__crt_stdio_output@@@__crt_stdio_output@@IBEXQB_WHQAHAAV__crt_deferred_errno_cache@@@Z 10066090 f i libucrtd:output.obj
 0001:00065130       ___acrt_isleadbyte_l_noupdate 10066130 f i libucrtd:output.obj
 0001:00065150       ___acrt_locale_changed     10066150 f i libucrtd:output.obj
 0001:00065180       ___acrt_locale_get_ctype_array_value 10066180 f i libucrtd:output.obj
 0001:000651b0       ___stdio_common_vfprintf   100661b0 f   libucrtd:output.obj
 0001:000651e0       ___stdio_common_vfprintf_p 100661e0 f   libucrtd:output.obj
 0001:00065210       ___stdio_common_vfprintf_s 10066210 f   libucrtd:output.obj
 0001:00065240       ___stdio_common_vfwprintf  10066240 f   libucrtd:output.obj
 0001:00065270       ___stdio_common_vfwprintf_p 10066270 f   libucrtd:output.obj
 0001:000652a0       ___stdio_common_vfwprintf_s 100662a0 f   libucrtd:output.obj
 0001:000652d0       ___stdio_common_vsnprintf_s 100662d0 f   libucrtd:output.obj
 0001:00065300       ___stdio_common_vsnwprintf_s 10066300 f   libucrtd:output.obj
 0001:00065330       ___stdio_common_vsprintf   10066330 f   libucrtd:output.obj
 0001:00065360       ___stdio_common_vsprintf_p 10066360 f   libucrtd:output.obj
 0001:00065390       ___stdio_common_vsprintf_s 10066390 f   libucrtd:output.obj
 0001:000653c0       ___stdio_common_vswprintf  100663c0 f   libucrtd:output.obj
 0001:000653f0       ___stdio_common_vswprintf_p 100663f0 f   libucrtd:output.obj
 0001:00065420       ___stdio_common_vswprintf_s 10066420 f   libucrtd:output.obj
 0001:00065450       __ctype_fast_check_internal 10066450 f i libucrtd:output.obj
 0001:00065470       __isdigit_fast_internal    10066470 f i libucrtd:output.obj
 0001:00065490       __tolower_fast_internal    10066490 f i libucrtd:output.obj
 0001:000654b0       _free                      100664b0 f   libucrtd:free.obj
 0001:000654e0       _malloc                    100664e0 f   libucrtd:malloc.obj
 0001:00065500       ??$?RU?$__crt_report_hook_node@D@@@__crt_internal_free_policy@@QBEXQBU?$__crt_report_hook_node@D@@@Z 10066500 f i libucrtd:dbgrpt.obj
 0001:00065520       ??$?RU?$__crt_report_hook_node@_W@@@__crt_internal_free_policy@@QBEXQBU?$__crt_report_hook_node@_W@@@Z 10066520 f i libucrtd:dbgrpt.obj
 0001:00066310       ??$get_module_file_name@AAPAUHINSTANCE__@@AAY0BAF@DK@?$__crt_char_traits@D@@SAKAAPAUHINSTANCE__@@AAY0BAF@D$$QAK@Z 10067310 f i libucrtd:dbgrpt.obj
 0001:00066330       ??$get_module_file_name@AAPAUHINSTANCE__@@AAY0BAF@_WK@?$__crt_char_traits@_W@@SAKAAPAUHINSTANCE__@@AAY0BAF@_W$$QAK@Z 10067330 f i libucrtd:dbgrpt.obj
 0001:00066350       ??$tcscpy_s@AAY0BAF@DIPBD@?$__crt_char_traits@D@@SAHAAY0BAF@D$$QAI$$QAPBD@Z 10067350 f i libucrtd:dbgrpt.obj
 0001:00066370       ??$tcscpy_s@AAY0BAF@_WIPB_W@?$__crt_char_traits@_W@@SAHAAY0BAF@_W$$QAI$$QAPB_W@Z 10067370 f i libucrtd:dbgrpt.obj
 0001:00066390       ??$tcslen@AAY0BAF@D@?$__crt_char_traits@D@@SAIAAY0BAF@D@Z 10067390 f i libucrtd:dbgrpt.obj
 0001:000663b0       ??$tcslen@AAY0BAF@_W@?$__crt_char_traits@_W@@SAIAAY0BAF@_W@Z 100673b0 f i libucrtd:dbgrpt.obj
 0001:000663d0       ??$tcslen@ABQBD@?$__crt_char_traits@D@@SAIABQBD@Z 100673d0 f i libucrtd:dbgrpt.obj
 0001:000663f0       ??$tcslen@ABQB_W@?$__crt_char_traits@_W@@SAIABQB_W@Z 100673f0 f i libucrtd:dbgrpt.obj
 0001:000664f0       ??0?$__crt_unique_heap_ptr@U?$__crt_report_hook_node@D@@U__crt_internal_free_policy@@@@QAE@QAU?$__crt_report_hook_node@D@@@Z 100674f0 f i libucrtd:dbgrpt.obj
 0001:00066510       ??0?$__crt_unique_heap_ptr@U?$__crt_report_hook_node@_W@@U__crt_internal_free_policy@@@@QAE@QAU?$__crt_report_hook_node@_W@@@Z 10067510 f i libucrtd:dbgrpt.obj
 0001:00066530       ??1?$__crt_unique_heap_ptr@U?$__crt_report_hook_node@D@@U__crt_internal_free_policy@@@@QAE@XZ 10067530 f i libucrtd:dbgrpt.obj
 0001:00066550       ??1?$__crt_unique_heap_ptr@U?$__crt_report_hook_node@_W@@U__crt_internal_free_policy@@@@QAE@XZ 10067550 f i libucrtd:dbgrpt.obj
 0001:00066570       ??B?$__crt_unique_heap_ptr@U?$__crt_report_hook_node@D@@U__crt_internal_free_policy@@@@QBE_NXZ 10067570 f i libucrtd:dbgrpt.obj
 0001:00066590       ??B?$__crt_unique_heap_ptr@U?$__crt_report_hook_node@_W@@U__crt_internal_free_policy@@@@QBE_NXZ 10067590 f i libucrtd:dbgrpt.obj
 0001:00066ad0       ?detach@?$__crt_unique_heap_ptr@U?$__crt_report_hook_node@D@@U__crt_internal_free_policy@@@@QAEPAU?$__crt_report_hook_node@D@@XZ 10067ad0 f i libucrtd:dbgrpt.obj
 0001:00066b00       ?detach@?$__crt_unique_heap_ptr@U?$__crt_report_hook_node@_W@@U__crt_internal_free_policy@@@@QAEPAU?$__crt_report_hook_node@_W@@XZ 10067b00 f i libucrtd:dbgrpt.obj
 0001:00066b30       ?get@?$__crt_unique_heap_ptr@U?$__crt_report_hook_node@D@@U__crt_internal_free_policy@@@@QBEPAU?$__crt_report_hook_node@D@@XZ 10067b30 f i libucrtd:dbgrpt.obj
 0001:00066b50       ?get@?$__crt_unique_heap_ptr@U?$__crt_report_hook_node@_W@@U__crt_internal_free_policy@@@@QBEPAU?$__crt_report_hook_node@_W@@XZ 10067b50 f i libucrtd:dbgrpt.obj
 0001:00066bd0       ?is_valid@?$__crt_unique_heap_ptr@U?$__crt_report_hook_node@D@@U__crt_internal_free_policy@@@@QBE_NXZ 10067bd0 f i libucrtd:dbgrpt.obj
 0001:00066c00       ?is_valid@?$__crt_unique_heap_ptr@U?$__crt_report_hook_node@_W@@U__crt_internal_free_policy@@@@QBE_NXZ 10067c00 f i libucrtd:dbgrpt.obj
 0001:00066c30       ?release@?$__crt_unique_heap_ptr@U?$__crt_report_hook_node@D@@U__crt_internal_free_policy@@@@QAEXXZ 10067c30 f i libucrtd:dbgrpt.obj
 0001:00066c60       ?release@?$__crt_unique_heap_ptr@U?$__crt_report_hook_node@_W@@U__crt_internal_free_policy@@@@QAEXXZ 10067c60 f i libucrtd:dbgrpt.obj
 0001:00066c90       __CrtDbgReport             10067c90 f   libucrtd:dbgrpt.obj
 0001:00066ce0       __CrtDbgReportW            10067ce0 f   libucrtd:dbgrpt.obj
 0001:00066d30       __CrtSetReportHook2        10067d30 f   libucrtd:dbgrpt.obj
 0001:00066d50       __CrtSetReportHookW2       10067d50 f   libucrtd:dbgrpt.obj
 0001:00066d70       ___acrt_MessageWindowA     10067d70 f   libucrtd:dbgrpt.obj
 0001:00066da0       ___acrt_MessageWindowW     10067da0 f   libucrtd:dbgrpt.obj
 0001:00066dd0       __invoke_watson_if_error   10067dd0 f i libucrtd:dbgrpt.obj
 0001:00066e00       __invoke_watson_if_oneof   10067e00 f i libucrtd:dbgrpt.obj
 0001:00066e40       __snwprintf_s              10067e40 f i libucrtd:dbgrpt.obj
 0001:00066e80       __vsnwprintf_s_l           10067e80 f i libucrtd:dbgrpt.obj
 0001:00067200       _wcscpy_s                  10068200 f   libucrtd:wcscpy_s.obj
 0001:00067f20       ??1?$__crt_simd_cleanup_guard@$00@@QAE@XZ 10068f20 f i libucrtd:strnlen.obj
 0001:00067f30       ??1?$__crt_simd_cleanup_guard@$0A@@@QAE@XZ 10068f30 f i libucrtd:strnlen.obj
 0001:00067f40       ?compare_equals@?$__crt_simd_traits@$00E@@SA?AT__m256i@@T2@0@Z 10068f40 f i libucrtd:strnlen.obj
 0001:00067f80       ?compare_equals@?$__crt_simd_traits@$00G@@SA?AT__m256i@@T2@0@Z 10068f80 f i libucrtd:strnlen.obj
 0001:00067fc0       ?compare_equals@?$__crt_simd_traits@$0A@E@@SA?AT__m128i@@T2@0@Z 10068fc0 f i libucrtd:strnlen.obj
 0001:00068000       ?compare_equals@?$__crt_simd_traits@$0A@G@@SA?AT__m128i@@T2@0@Z 10069000 f i libucrtd:strnlen.obj
 0001:00068040       ?compute_byte_mask@?$__crt_simd_pack_traits@$00@@SAHT__m256i@@@Z 10069040 f i libucrtd:strnlen.obj
 0001:00068070       ?compute_byte_mask@?$__crt_simd_pack_traits@$0A@@@SAHT__m128i@@@Z 10069070 f i libucrtd:strnlen.obj
 0001:000680a0       ?get_zero_pack@?$__crt_simd_pack_traits@$00@@SA?AT__m256i@@XZ 100690a0 f i libucrtd:strnlen.obj
 0001:000680d0       ?get_zero_pack@?$__crt_simd_pack_traits@$0A@@@SA?AT__m128i@@XZ 100690d0 f i libucrtd:strnlen.obj
 0001:00068100       _strnlen                   10069100 f   libucrtd:strnlen.obj
 0001:00068120       _wcslen                    10069120 f   libucrtd:strnlen.obj
 0001:00068140       _wcsnlen                   10069140 f   libucrtd:strnlen.obj
 0001:00068160       ??$__crt_fast_decode_pointer@P6AXPB_W00II@Z@@YAP6AXPB_W00II@ZQ6AX000II@Z@Z 10069160 f i libucrtd:invalid_parameter.obj
 0001:00068190       ??$__crt_fast_encode_pointer@P6AXPB_W00II@Z@@YAP6AXPB_W00II@ZQ6AX000II@Z@Z 10069190 f i libucrtd:invalid_parameter.obj
 0001:000681c0       ??$initialize_from_array@$$BY00Q6AXPB_W00II@Z@?$dual_state_global@P6AXPB_W00II@Z@__crt_state_management@@QAAXAAY00Q6AXPB_W00II@Z@Z 100691c0 f i libucrtd:invalid_parameter.obj
 0001:00068210       ?__crt_rotate_pointer_value@@YAIIH@Z 10069210 f i libucrtd:invalid_parameter.obj
 0001:00068220       ?dangerous_get_state_array@?$dual_state_global@P6AXPB_W00II@Z@__crt_state_management@@QAEPAP6AXPB_W00II@ZXZ 10069220 f i libucrtd:invalid_parameter.obj
 0001:00068230       ?get_current_state_index@__crt_state_management@@YAIXZ 10069230 f i libucrtd:invalid_parameter.obj
 0001:00068240       ?value@?$dual_state_global@P6AXPB_W00II@Z@__crt_state_management@@QAEAAP6AXPB_W00II@ZXZ 10069240 f i libucrtd:invalid_parameter.obj
 0001:00068260       ___acrt_call_reportfault   10069260 f   libucrtd:invalid_parameter.obj
 0001:000683c0       ___acrt_initialize_invalid_parameter_handler 100693c0 f   libucrtd:invalid_parameter.obj
 0001:000683f0       __get_invalid_parameter_handler 100693f0 f   libucrtd:invalid_parameter.obj
 0001:00068410       __get_thread_local_invalid_parameter_handler 10069410 f   libucrtd:invalid_parameter.obj
 0001:00068440       __invalid_parameter        10069440 f   libucrtd:invalid_parameter.obj
 0001:00068500       __invalid_parameter_noinfo 10069500 f   libucrtd:invalid_parameter.obj
 0001:00068520       __invalid_parameter_noinfo_noreturn 10069520 f   libucrtd:invalid_parameter.obj
 0001:00068550       __invoke_watson            10069550 f   libucrtd:invalid_parameter.obj
 0001:00068590       __set_invalid_parameter_handler 10069590 f   libucrtd:invalid_parameter.obj
 0001:000685e0       __set_thread_local_invalid_parameter_handler 100695e0 f   libucrtd:invalid_parameter.obj
 0001:00068610       ___acrt_errno_from_os_error 10069610 f   libucrtd:errno.obj
 0001:00068690       ___acrt_errno_map_os_error 10069690 f   libucrtd:errno.obj
 0001:000686c0       ___doserrno                100696c0 f   libucrtd:errno.obj
 0001:000686f0       __errno                    100696f0 f   libucrtd:errno.obj
 0001:00068720       __get_doserrno             10069720 f   libucrtd:errno.obj
 0001:000687b0       __get_errno                100697b0 f   libucrtd:errno.obj
 0001:00068840       __set_doserrno             10069840 f   libucrtd:errno.obj
 0001:00068870       __set_errno                10069870 f   libucrtd:errno.obj
 0001:000688a0       _calloc                    100698a0 f   libucrtd:calloc.obj
 0001:000688c0       __recalloc                 100698c0 f   libucrtd:recalloc.obj
 0001:000688f0       __recalloc_base            100698f0 f   libucrtd:recalloc.obj
 0001:0006898a       __resetstkoflw             1006998a f   libucrtd:resetstk.obj
 0001:00068e70       _wcscat_s                  10069e70 f   libucrtd:wcscat_s.obj
 0001:000692c0       _wcsncpy_s                 1006a2c0 f   libucrtd:wcsncpy_s.obj
 0001:00069300       ___acrt_get_locale_data_prefix 1006a300 f i libucrtd:_ctype.obj
 0001:00069320       ___isascii                 1006a320 f i libucrtd:_ctype.obj
 0001:00069350       ___iscsym                  1006a350 f i libucrtd:_ctype.obj
 0001:00069390       ___iscsymf                 1006a390 f i libucrtd:_ctype.obj
 0001:000693d0       ___toascii                 1006a3d0 f i libucrtd:_ctype.obj
 0001:000693e0       __chvalidchk_l             1006a3e0 f i libucrtd:_ctype.obj
 0001:00069400       __isalnum_l                1006a400 f i libucrtd:_ctype.obj
 0001:00069440       __isalpha_l                1006a440 f i libucrtd:_ctype.obj
 0001:00069480       __isblank_l                1006a480 f i libucrtd:_ctype.obj
 0001:000694e0       __ischartype_l             1006a4e0 f i libucrtd:_ctype.obj
 0001:00069560       __iscntrl_l                1006a560 f i libucrtd:_ctype.obj
 0001:000695a0       __iscsym_l                 1006a5a0 f i libucrtd:_ctype.obj
 0001:000695e0       __iscsymf_l                1006a5e0 f i libucrtd:_ctype.obj
 0001:00069620       __isdigit_l                1006a620 f i libucrtd:_ctype.obj
 0001:00069660       __isgraph_l                1006a660 f i libucrtd:_ctype.obj
 0001:000696a0       __islower_l                1006a6a0 f i libucrtd:_ctype.obj
 0001:000696e0       __isprint_l                1006a6e0 f i libucrtd:_ctype.obj
 0001:00069720       __ispunct_l                1006a720 f i libucrtd:_ctype.obj
 0001:00069760       __isspace_l                1006a760 f i libucrtd:_ctype.obj
 0001:000697a0       __isupper_l                1006a7a0 f i libucrtd:_ctype.obj
 0001:000697e0       __isxdigit_l               1006a7e0 f i libucrtd:_ctype.obj
 0001:00069820       _isalnum                   1006a820 f i libucrtd:_ctype.obj
 0001:00069860       _isalpha                   1006a860 f i libucrtd:_ctype.obj
 0001:000698a0       _isblank                   1006a8a0 f i libucrtd:_ctype.obj
 0001:00069900       _iscntrl                   1006a900 f i libucrtd:_ctype.obj
 0001:00069940       _isdigit                   1006a940 f i libucrtd:_ctype.obj
 0001:00069980       _isgraph                   1006a980 f i libucrtd:_ctype.obj
 0001:000699c0       _islower                   1006a9c0 f i libucrtd:_ctype.obj
 0001:00069a00       _isprint                   1006aa00 f i libucrtd:_ctype.obj
 0001:00069a40       _ispunct                   1006aa40 f i libucrtd:_ctype.obj
 0001:00069a80       _isspace                   1006aa80 f i libucrtd:_ctype.obj
 0001:00069ac0       _isupper                   1006aac0 f i libucrtd:_ctype.obj
 0001:00069b00       _isxdigit                  1006ab00 f i libucrtd:_ctype.obj
 0001:00069b40       _wcscat                    1006ab40 f   libucrtd:wcscat.obj
 0001:00069ba0       _wcscpy                    1006aba0 f   libucrtd:wcscpy.obj
 0001:0006a230       ??$open_file@ABQBDABQBDABHPAU_iobuf@@@?$__crt_char_traits@D@@SAPAU_iobuf@@ABQBD0ABH$$QAPAU1@@Z 1006b230 f i libucrtd:fopen.obj
 0001:0006a260       ??$open_file@ABQB_WABQB_WABHPAU_iobuf@@@?$__crt_char_traits@_W@@SAPAU_iobuf@@ABQB_W0ABH$$QAPAU1@@Z 1006b260 f i libucrtd:fopen.obj
 0001:0006a290       ?unlock@__crt_stdio_stream@@QBEXXZ 1006b290 f i libucrtd:fopen.obj
 0001:0006a2b0       __fsopen                   1006b2b0 f   libucrtd:fopen.obj
 0001:0006a2d0       __wfopen                   1006b2d0 f   libucrtd:fopen.obj
 0001:0006a2f0       __wfopen_s                 1006b2f0 f   libucrtd:fopen.obj
 0001:0006a310       __wfsopen                  1006b310 f   libucrtd:fopen.obj
 0001:0006a330       _fopen                     1006b330 f   libucrtd:fopen.obj
 0001:0006a350       _fopen_s                   1006b350 f   libucrtd:fopen.obj
 0001:0006a370       ?is_in_use@__crt_stdio_stream@@QBE_NXZ 1006b370 f i libucrtd:fclose.obj
 0001:0006a3b0       __fclose_nolock            1006b3b0 f   libucrtd:fclose.obj
 0001:0006a4f0       _fclose                    1006b4f0 f   libucrtd:fclose.obj
 0001:0006a640       __fputc_nolock             1006b640 f   libucrtd:fputc.obj
 0001:0006a6d0       __fputchar                 1006b6d0 f   libucrtd:fputc.obj
 0001:0006a6f0       __putc_nolock              1006b6f0 f   libucrtd:fputc.obj
 0001:0006a710       _fputc                     1006b710 f   libucrtd:fputc.obj
 0001:0006a950       _putc                      1006b950 f   libucrtd:fputc.obj
 0001:0006a970       _putchar                   1006b970 f   libucrtd:fputc.obj
 0001:0006a9e0       __seh_filter_dll           1006b9e0 f   libucrtd:exception_filter.obj
 0001:0006aa10       __seh_filter_exe           1006ba10 f   libucrtd:exception_filter.obj
 0001:0006ac20       ??$?B$$A6GXPAXK0@Z@__crt_fast_encoded_nullptr_t@@QBEP6GXPAXK0@ZXZ 1006bc20 f i libucrtd:exit.obj
 0001:0006ad00       ??$__crt_fast_decode_pointer@P6GXPAXK0@Z@@YAP6GXPAXK0@ZQ6GX0K0@Z@Z 1006bd00 f i libucrtd:exit.obj
 0001:0006ad30       ??$__crt_fast_encode_pointer@P6GXPAXK0@Z@@YAP6GXPAXK0@ZQ6GX0K0@Z@Z 1006bd30 f i libucrtd:exit.obj
 0001:0006ad60       ??$__crt_get_proc_address@P6GXI@Z@@YAP6GXI@ZQAUHINSTANCE__@@QBD@Z 1006bd60 f i libucrtd:exit.obj
 0001:0006adf0       ??0?$__crt_unique_handle_t@U__crt_hmodule_traits@@@@QAE@QAUHINSTANCE__@@@Z 1006bdf0 f i libucrtd:exit.obj
 0001:0006ae10       ??1?$__crt_unique_handle_t@U__crt_hmodule_traits@@@@QAE@XZ 1006be10 f i libucrtd:exit.obj
 0001:0006afd0       ?__acrt_select_exit_lock@@YA?AW4__acrt_lock_id@@XZ 1006bfd0 f i libucrtd:exit.obj
 0001:0006afe0       ?__crt_fast_encode_pointer@@YA?AU__crt_fast_encoded_nullptr_t@@$$T@Z 1006bfe0 f i libucrtd:exit.obj
 0001:0006b010       ?close@?$__crt_unique_handle_t@U__crt_hmodule_traits@@@@QAEXXZ 1006c010 f i libucrtd:exit.obj
 0001:0006b050       ?close@__crt_hmodule_traits@@SA_NPAUHINSTANCE__@@@Z 1006c050 f i libucrtd:exit.obj
 0001:0006b140       ?get@?$__crt_unique_handle_t@U__crt_hmodule_traits@@@@QBEPAUHINSTANCE__@@XZ 1006c140 f i libucrtd:exit.obj
 0001:0006b160       ?get_address_of@?$__crt_unique_handle_t@U__crt_hmodule_traits@@@@QAEPAPAUHINSTANCE__@@XZ 1006c160 f i libucrtd:exit.obj
 0001:0006b170       ?get_invalid_value@__crt_hmodule_traits@@SAPAUHINSTANCE__@@XZ 1006c170 f i libucrtd:exit.obj
 0001:0006b2f0       __Exit                     1006c2f0 f   libucrtd:exit.obj
 0001:0006b310       ___acrt_initialize_thread_local_exit_callback 1006c310 f   libucrtd:exit.obj
 0001:0006b320       __c_exit                   1006c320 f   libucrtd:exit.obj
 0001:0006b340       __cexit                    1006c340 f   libucrtd:exit.obj
 0001:0006b360       __exit                     1006c360 f   libucrtd:exit.obj
 0001:0006b380       __is_c_termination_complete 1006c380 f   libucrtd:exit.obj
 0001:0006b3a0       __register_thread_local_exe_atexit_callback 1006c3a0 f   libucrtd:exit.obj
 0001:0006b3e0       _exit                      1006c3e0 f   libucrtd:exit.obj
 0001:0006b400       _quick_exit                1006c400 f   libucrtd:exit.obj
 0001:0006b420       ??$?RE@__crt_internal_free_policy@@QBEXQBE@Z 1006c420 f i libucrtd:argv_parsing.obj
 0001:0006b440       ??$?RPAD@__crt_internal_free_policy@@QBEXQBQAD@Z 1006c440 f i libucrtd:argv_parsing.obj
 0001:0006b460       ??$?RPA_W@__crt_internal_free_policy@@QBEXQBQA_W@Z 1006c460 f i libucrtd:argv_parsing.obj
 0001:0006b9c0       ??$get_module_file_name@$$TAAY0BAF@DH@?$__crt_char_traits@D@@SAK$$QA$$TAAY0BAF@D$$QAH@Z 1006c9c0 f i libucrtd:argv_parsing.obj
 0001:0006b9e0       ??$get_module_file_name@$$TAAY0BAF@_WH@?$__crt_char_traits@_W@@SAK$$QA$$TAAY0BAF@_W$$QAH@Z 1006c9e0 f i libucrtd:argv_parsing.obj
 0001:0006c100       ??$set_program_name@PAD@?$__crt_char_traits@D@@SAX$$QAPAD@Z 1006d100 f i libucrtd:argv_parsing.obj
 0001:0006c120       ??$set_program_name@PA_W@?$__crt_char_traits@_W@@SAX$$QAPA_W@Z 1006d120 f i libucrtd:argv_parsing.obj
 0001:0006c180       ??0?$__crt_unique_heap_ptr@EU__crt_internal_free_policy@@@@QAE@QAE@Z 1006d180 f i libucrtd:argv_parsing.obj
 0001:0006c1a0       ??0?$__crt_unique_heap_ptr@PADU__crt_internal_free_policy@@@@QAE@QAPAD@Z 1006d1a0 f i libucrtd:argv_parsing.obj
 0001:0006c1c0       ??0?$__crt_unique_heap_ptr@PA_WU__crt_internal_free_policy@@@@QAE@QAPA_W@Z 1006d1c0 f i libucrtd:argv_parsing.obj
 0001:0006c1e0       ??1?$__crt_unique_heap_ptr@EU__crt_internal_free_policy@@@@QAE@XZ 1006d1e0 f i libucrtd:argv_parsing.obj
 0001:0006c200       ??1?$__crt_unique_heap_ptr@PADU__crt_internal_free_policy@@@@QAE@XZ 1006d200 f i libucrtd:argv_parsing.obj
 0001:0006c220       ??1?$__crt_unique_heap_ptr@PA_WU__crt_internal_free_policy@@@@QAE@XZ 1006d220 f i libucrtd:argv_parsing.obj
 0001:0006c240       ??B?$__crt_unique_heap_ptr@EU__crt_internal_free_policy@@@@QBE_NXZ 1006d240 f i libucrtd:argv_parsing.obj
 0001:0006c300       ?detach@?$__crt_unique_heap_ptr@EU__crt_internal_free_policy@@@@QAEPAEXZ 1006d300 f i libucrtd:argv_parsing.obj
 0001:0006c330       ?detach@?$__crt_unique_heap_ptr@PADU__crt_internal_free_policy@@@@QAEPAPADXZ 1006d330 f i libucrtd:argv_parsing.obj
 0001:0006c360       ?detach@?$__crt_unique_heap_ptr@PA_WU__crt_internal_free_policy@@@@QAEPAPA_WXZ 1006d360 f i libucrtd:argv_parsing.obj
 0001:0006c3f0       ?get@?$__crt_unique_heap_ptr@EU__crt_internal_free_policy@@@@QBEPAEXZ 1006d3f0 f i libucrtd:argv_parsing.obj
 0001:0006c410       ?get@?$__crt_unique_heap_ptr@PADU__crt_internal_free_policy@@@@QBEPAPADXZ 1006d410 f i libucrtd:argv_parsing.obj
 0001:0006c430       ?get@?$__crt_unique_heap_ptr@PA_WU__crt_internal_free_policy@@@@QBEPAPA_WXZ 1006d430 f i libucrtd:argv_parsing.obj
 0001:0006c450       ?get_address_of@?$__crt_unique_heap_ptr@PADU__crt_internal_free_policy@@@@QAEPAPAPADXZ 1006d450 f i libucrtd:argv_parsing.obj
 0001:0006c460       ?get_address_of@?$__crt_unique_heap_ptr@PA_WU__crt_internal_free_policy@@@@QAEPAPAPA_WXZ 1006d460 f i libucrtd:argv_parsing.obj
 0001:0006c4b0       ?is_valid@?$__crt_unique_heap_ptr@EU__crt_internal_free_policy@@@@QBE_NXZ 1006d4b0 f i libucrtd:argv_parsing.obj
 0001:0006c4e0       ?release@?$__crt_unique_heap_ptr@EU__crt_internal_free_policy@@@@QAEXXZ 1006d4e0 f i libucrtd:argv_parsing.obj
 0001:0006c510       ?release@?$__crt_unique_heap_ptr@PADU__crt_internal_free_policy@@@@QAEXXZ 1006d510 f i libucrtd:argv_parsing.obj
 0001:0006c540       ?release@?$__crt_unique_heap_ptr@PA_WU__crt_internal_free_policy@@@@QAEXXZ 1006d540 f i libucrtd:argv_parsing.obj
 0001:0006c5b0       ___acrt_allocate_buffer_for_argv 1006d5b0 f   libucrtd:argv_parsing.obj
 0001:0006c670       __configure_narrow_argv    1006d670 f   libucrtd:argv_parsing.obj
 0001:0006c690       __configure_wide_argv      1006d690 f   libucrtd:argv_parsing.obj
 0001:0006c6b0       __set_pgmptr               1006d6b0 f i libucrtd:argv_parsing.obj
 0001:0006c6c0       __set_wpgmptr              1006d6c0 f i libucrtd:argv_parsing.obj
 0001:0006c6cf       ??$?R_W@__crt_internal_free_policy@@QBEXQB_W@Z 1006d6cf f i libucrtd:environment_initialization.obj
 0001:0006cb38       ??$get_environment_from_os@$$V@?$__crt_char_traits@D@@SAPADXZ 1006db38 f i libucrtd:environment_initialization.obj
 0001:0006cb3d       ??$get_environment_from_os@$$V@?$__crt_char_traits@_W@@SAPA_WXZ 1006db3d f i libucrtd:environment_initialization.obj
 0001:0006cc66       ??$set_variable_in_environment_nolock@PADH@?$__crt_char_traits@D@@SAH$$QAPAD$$QAH@Z 1006dc66 f i libucrtd:environment_initialization.obj
 0001:0006cc7e       ??$set_variable_in_environment_nolock@PA_WH@?$__crt_char_traits@_W@@SAH$$QAPA_W$$QAH@Z 1006dc7e f i libucrtd:environment_initialization.obj
 0001:0006cc96       ??$tcscpy_s@PADABIAAPAD@?$__crt_char_traits@D@@SAH$$QAPADABIAAPAD@Z 1006dc96 f i libucrtd:environment_initialization.obj
 0001:0006ccb4       ??$tcscpy_s@PA_WABIAAPA_W@?$__crt_char_traits@_W@@SAH$$QAPA_WABIAAPA_W@Z 1006dcb4 f i libucrtd:environment_initialization.obj
 0001:0006ccd2       ??$tcslen@AAPAD@?$__crt_char_traits@D@@SAIAAPAD@Z 1006dcd2 f i libucrtd:environment_initialization.obj
 0001:0006ccea       ??$tcslen@AAPA_W@?$__crt_char_traits@_W@@SAIAAPA_W@Z 1006dcea f i libucrtd:environment_initialization.obj
 0001:0006cd08       ??$uninitialize@A6AXAAPAPAD@Z@?$dual_state_global@PAPAD@__crt_state_management@@QAEXA6AXAAPAPAD@Z@Z 1006dd08 f i libucrtd:environment_initialization.obj
 0001:0006cd31       ??$uninitialize@A6AXAAPAPA_W@Z@?$dual_state_global@PAPA_W@__crt_state_management@@QAEXA6AXAAPAPA_W@Z@Z 1006dd31 f i libucrtd:environment_initialization.obj
 0001:0006cd90       ??0?$__crt_unique_heap_ptr@_WU__crt_internal_free_policy@@@@QAE@QA_W@Z 1006dd90 f i libucrtd:environment_initialization.obj
 0001:0006cda0       ??1?$__crt_unique_heap_ptr@_WU__crt_internal_free_policy@@@@QAE@XZ 1006dda0 f i libucrtd:environment_initialization.obj
 0001:0006cdb5       ??B?$__crt_unique_heap_ptr@PADU__crt_internal_free_policy@@@@QBE_NXZ 1006ddb5 f i libucrtd:environment_initialization.obj
 0001:0006cdbc       ??B?$__crt_unique_heap_ptr@PA_WU__crt_internal_free_policy@@@@QBE_NXZ 1006ddbc f i libucrtd:environment_initialization.obj
 0001:0006cdc3       ??B?$__crt_unique_heap_ptr@_WU__crt_internal_free_policy@@@@QBE_NXZ 1006ddc3 f i libucrtd:environment_initialization.obj
 0001:0006cdca       ?__crt_compute_required_transform_buffer_count@@YAIIQBD@Z 1006ddca f i libucrtd:environment_initialization.obj
 0001:0006cde6       ?__crt_compute_required_transform_buffer_count@@YAIIQB_W@Z 1006dde6 f i libucrtd:environment_initialization.obj
 0001:0006ce04       ?__crt_transform_string@@YAIIQBDQA_WI@Z 1006de04 f i libucrtd:environment_initialization.obj
 0001:0006ce23       ?__crt_transform_string@@YAIIQB_WQADI@Z 1006de23 f i libucrtd:environment_initialization.obj
 0001:0006ce45       ?detach@?$__crt_unique_heap_ptr@DU__crt_internal_free_policy@@@@QAEPADXZ 1006de45 f i libucrtd:environment_initialization.obj
 0001:0006ce4b       ?detach@?$__crt_unique_heap_ptr@_WU__crt_internal_free_policy@@@@QAEPA_WXZ 1006de4b f i libucrtd:environment_initialization.obj
 0001:0006ce51       ?get@?$__crt_unique_heap_ptr@_WU__crt_internal_free_policy@@@@QBEPA_WXZ 1006de51 f i libucrtd:environment_initialization.obj
 0001:0006ce78       ?initialize@?$dual_state_global@PAPAD@__crt_state_management@@QAEXQAPAD@Z 1006de78 f i libucrtd:environment_initialization.obj
 0001:0006ce9e       ?initialize@?$dual_state_global@PAPA_W@__crt_state_management@@QAEXQAPA_W@Z 1006de9e f i libucrtd:environment_initialization.obj
 0001:0006cec4       ?is_valid@?$__crt_unique_heap_ptr@PADU__crt_internal_free_policy@@@@QBE_NXZ 1006dec4 f i libucrtd:environment_initialization.obj
 0001:0006cecb       ?is_valid@?$__crt_unique_heap_ptr@PA_WU__crt_internal_free_policy@@@@QBE_NXZ 1006decb f i libucrtd:environment_initialization.obj
 0001:0006ced2       ?is_valid@?$__crt_unique_heap_ptr@_WU__crt_internal_free_policy@@@@QBE_NXZ 1006ded2 f i libucrtd:environment_initialization.obj
 0001:0006cee1       ?release@?$__crt_unique_heap_ptr@_WU__crt_internal_free_policy@@@@QAEXXZ 1006dee1 f i libucrtd:environment_initialization.obj
 0001:0006cef6       ?value@?$dual_state_global@PAPAD@__crt_state_management@@QAEAAPAPADXZ 1006def6 f i libucrtd:environment_initialization.obj
 0001:0006cef9       ?value@?$dual_state_global@PAPA_W@__crt_state_management@@QAEAAPAPA_WXZ 1006def9 f i libucrtd:environment_initialization.obj
 0001:0006cefc       ___dcrt_get_or_create_narrow_environment_nolock 1006defc f   libucrtd:environment_initialization.obj
 0001:0006cf01       ___dcrt_get_or_create_wide_environment_nolock 1006df01 f   libucrtd:environment_initialization.obj
 0001:0006cf06       ___dcrt_uninitialize_environments_nolock 1006df06 f   libucrtd:environment_initialization.obj
 0001:0006cf3d       ___p__environ              1006df3d f   libucrtd:environment_initialization.obj
 0001:0006cf43       ___p__wenviron             1006df43 f   libucrtd:environment_initialization.obj
 0001:0006cf49       __get_initial_narrow_environment 1006df49 f   libucrtd:environment_initialization.obj
 0001:0006cf5d       __get_initial_wide_environment 1006df5d f   libucrtd:environment_initialization.obj
 0001:0006cf71       __initialize_narrow_environment 1006df71 f   libucrtd:environment_initialization.obj
 0001:0006cf76       __initialize_wide_environment 1006df76 f   libucrtd:environment_initialization.obj
 0001:0006cf80       ??$?B$$A6AXXZ@__crt_fast_encoded_nullptr_t@@QBEP6AXXZXZ 1006df80 f i libucrtd:onexit.obj
 0001:0006cfa0       ??$?BP6AXXZ@__crt_fast_encoded_nullptr_t@@QBEPAP6AXXZXZ 1006dfa0 f i libucrtd:onexit.obj
 0001:0006cfc0       ??$?RP6AXXZ@__crt_internal_free_policy@@QBEXQBQ6AXXZ@Z 1006dfc0 f i libucrtd:onexit.obj
 0001:0006d180       ??$__crt_fast_decode_pointer@P6AXXZ@@YAP6AXXZQ6AXXZ@Z 1006e180 f i libucrtd:onexit.obj
 0001:0006d1b0       ??$__crt_fast_decode_pointer@PAP6AXXZ@@YAPAP6AXXZQAP6AXXZ@Z 1006e1b0 f i libucrtd:onexit.obj
 0001:0006d1e0       ??$__crt_fast_encode_pointer@P6AHXZ@@YAP6AHXZQ6AHXZ@Z 1006e1e0 f i libucrtd:onexit.obj
 0001:0006d210       ??$__crt_fast_encode_pointer@P6AXXZ@@YAP6AXXZQ6AXXZ@Z 1006e210 f i libucrtd:onexit.obj
 0001:0006d240       ??$__crt_fast_encode_pointer@PAP6AXXZ@@YAPAP6AXXZQAP6AXXZ@Z 1006e240 f i libucrtd:onexit.obj
 0001:0006d340       ??0?$__crt_unique_heap_ptr@P6AXXZU__crt_internal_free_policy@@@@QAE@QAP6AXXZ@Z 1006e340 f i libucrtd:onexit.obj
 0001:0006d360       ??1?$__crt_unique_heap_ptr@P6AXXZU__crt_internal_free_policy@@@@QAE@XZ 1006e360 f i libucrtd:onexit.obj
 0001:0006d380       ??1scoped_global_state_reset@__crt_state_management@@QAE@XZ 1006e380 f i libucrtd:onexit.obj
 0001:0006d7f0       ?detach@?$__crt_unique_heap_ptr@P6AXXZU__crt_internal_free_policy@@@@QAEPAP6AXXZXZ 1006e7f0 f i libucrtd:onexit.obj
 0001:0006d820       ?release@?$__crt_unique_heap_ptr@P6AXXZU__crt_internal_free_policy@@@@QAEXXZ 1006e820 f i libucrtd:onexit.obj
 0001:0006d850       __crt_at_quick_exit        1006e850 f   libucrtd:onexit.obj
 0001:0006d870       __crt_atexit               1006e870 f   libucrtd:onexit.obj
 0001:0006d890       __execute_onexit_table     1006e890 f   libucrtd:onexit.obj
 0001:0006d8c0       __initialize_onexit_table  1006e8c0 f   libucrtd:onexit.obj
 0001:0006d920       __register_onexit_function 1006e920 f   libucrtd:onexit.obj
 0001:0006db60       ??$?BX@__crt_fast_encoded_nullptr_t@@QBEPAXXZ 1006eb60 f i libucrtd:initialization.obj
 0001:0006db80       ??$__crt_fast_encode_pointer@PAX@@YAPAXQAX@Z 1006eb80 f i libucrtd:initialization.obj
 0001:0006dc40       ?initialize@?$dual_state_global@PAU__crt_locale_data@@@__crt_state_management@@QAEXQAU__crt_locale_data@@@Z 1006ec40 f i libucrtd:initialization.obj
 0001:0006dc80       ___acrt_initialize         1006ec80 f   libucrtd:initialization.obj
 0001:0006dca0       ___acrt_thread_attach      1006eca0 f   libucrtd:initialization.obj
 0001:0006dcc0       ___acrt_thread_detach      1006ecc0 f   libucrtd:initialization.obj
 0001:0006dcd0       ___acrt_uninitialize       1006ecd0 f   libucrtd:initialization.obj
 0001:0006dcf0       ___acrt_uninitialize_critical 1006ecf0 f   libucrtd:initialization.obj
 0001:0006f560       __CrtCheckMemory           10070560 f   libucrtd:debug_heap.obj
 0001:0006f6f0       __CrtDoForAllClientObjects 100706f0 f   libucrtd:debug_heap.obj
 0001:0006f840       __CrtDumpMemoryLeaks       10070840 f   libucrtd:debug_heap.obj
 0001:0006f8e0       __CrtGetAllocHook          100708e0 f   libucrtd:debug_heap.obj
 0001:0006f8f0       __CrtGetDumpClient         100708f0 f   libucrtd:debug_heap.obj
 0001:0006f900       __CrtIsMemoryBlock         10070900 f   libucrtd:debug_heap.obj
 0001:0006fa50       __CrtIsValidHeapPointer    10070a50 f   libucrtd:debug_heap.obj
 0001:0006fa80       __CrtIsValidPointer        10070a80 f   libucrtd:debug_heap.obj
 0001:0006fab0       __CrtMemCheckpoint         10070ab0 f   libucrtd:debug_heap.obj
 0001:0006fce0       __CrtMemDifference         10070ce0 f   libucrtd:debug_heap.obj
 0001:0006ff50       __CrtMemDumpAllObjectsSince 10070f50 f   libucrtd:debug_heap.obj
 0001:0006fff0       __CrtMemDumpStatistics     10070ff0 f   libucrtd:debug_heap.obj
 0001:00070120       __CrtReportBlockType       10071120 f   libucrtd:debug_heap.obj
 0001:00070150       __CrtSetAllocHook          10071150 f   libucrtd:debug_heap.obj
 0001:00070170       __CrtSetBreakAlloc         10071170 f   libucrtd:debug_heap.obj
 0001:00070190       __CrtSetDbgBlockType       10071190 f   libucrtd:debug_heap.obj
 0001:00070270       __CrtSetDbgFlag            10071270 f   libucrtd:debug_heap.obj
 0001:000703e0       __CrtSetDumpClient         100713e0 f   libucrtd:debug_heap.obj
 0001:00070400       ___p__crtBreakAlloc        10071400 f   libucrtd:debug_heap.obj
 0001:00070410       ___p__crtDbgFlag           10071410 f   libucrtd:debug_heap.obj
 0001:00070420       __aligned_free_dbg         10071420 f   libucrtd:debug_heap.obj
 0001:000704d0       __aligned_malloc_dbg       100714d0 f   libucrtd:debug_heap.obj
 0001:00070500       __aligned_msize_dbg        10071500 f   libucrtd:debug_heap.obj
 0001:00070630       __aligned_offset_malloc_dbg 10071630 f   libucrtd:debug_heap.obj
 0001:00070810       __aligned_offset_realloc_dbg 10071810 f   libucrtd:debug_heap.obj
 0001:00070b20       __aligned_offset_recalloc_dbg 10071b20 f   libucrtd:debug_heap.obj
 0001:00070be0       __aligned_realloc_dbg      10071be0 f   libucrtd:debug_heap.obj
 0001:00070c10       __aligned_recalloc_dbg     10071c10 f   libucrtd:debug_heap.obj
 0001:00070c40       __calloc_dbg               10071c40 f   libucrtd:debug_heap.obj
 0001:00070cb0       __expand_dbg               10071cb0 f   libucrtd:debug_heap.obj
 0001:00070de0       __free_dbg                 10071de0 f   libucrtd:debug_heap.obj
 0001:00070e90       __malloc_dbg               10071e90 f   libucrtd:debug_heap.obj
 0001:00070eb0       __msize_dbg                10071eb0 f   libucrtd:debug_heap.obj
 0001:00071040       __realloc_dbg              10072040 f   libucrtd:debug_heap.obj
 0001:000710e0       __recalloc_dbg             100720e0 f   libucrtd:debug_heap.obj
 0001:00071190       __initterm                 10072190 f   libucrtd:initterm.obj
 0001:000711e0       __initterm_e               100721e0 f   libucrtd:initterm.obj
 0001:00071550       _strcpy_s                  10072550 f   libucrtd:strcpy_s.obj
 0001:00071980       _strcat_s                  10072980 f   libucrtd:strcat_s.obj
 0001:000719a0       ??$?B$$A6AHI@Z@__crt_fast_encoded_nullptr_t@@QBEP6AHI@ZXZ 100729a0 f i libucrtd:new_handler.obj
 0001:000719c0       ??$__crt_fast_decode_pointer@P6AHI@Z@@YAP6AHI@ZQ6AHI@Z@Z 100729c0 f i libucrtd:new_handler.obj
 0001:000719f0       ??$__crt_fast_encode_pointer@P6AHI@Z@@YAP6AHI@ZQ6AHI@Z@Z 100729f0 f i libucrtd:new_handler.obj
 0001:00071a20       ?_set_new_handler@@YAP6AHI@ZH@Z 10072a20 f   libucrtd:new_handler.obj
 0001:00071a80       ?initialize@?$dual_state_global@P6AHI@Z@__crt_state_management@@QAEXQ6AHI@Z@Z 10072a80 f i libucrtd:new_handler.obj
 0001:00071ac0       ?value@?$dual_state_global@P6AHI@Z@__crt_state_management@@QAEAAP6AHI@ZXZ 10072ac0 f i libucrtd:new_handler.obj
 0001:00071ae0       ___acrt_initialize_new_handler 10072ae0 f   libucrtd:new_handler.obj
 0001:00071b00       __callnewh                 10072b00 f   libucrtd:new_handler.obj
 0001:00071b40       __query_new_handler        10072b40 f   libucrtd:new_handler.obj
 0001:00071bd0       __set_new_handler          10072bd0 f   libucrtd:new_handler.obj
 0001:00071cb0       __get_terminate            10072cb0 f   libucrtd:terminate.obj
 0001:00071cd0       _set_terminate             10072cd0 f   libucrtd:terminate.obj
 0001:00071d00       _terminate                 10072d00 f   libucrtd:terminate.obj
 0001:000726d0       __makepath                 100736d0 f   libucrtd:makepath.obj
 0001:00072700       __makepath_s               10073700 f   libucrtd:makepath.obj
 0001:00072730       __wmakepath                10073730 f   libucrtd:makepath.obj
 0001:00072760       __wmakepath_s              10073760 f   libucrtd:makepath.obj
 0001:000740b0       ??$tcsncpy_s@AAPADIAAPBDABI@?$__crt_char_traits@D@@SAHAAPAD$$QAIAAPBDABI@Z 100750b0 f i libucrtd:splitpath.obj
 0001:000740e0       ??$tcsncpy_s@AAPADIAAPBDH@?$__crt_char_traits@D@@SAHAAPAD$$QAIAAPBD$$QAH@Z 100750e0 f i libucrtd:splitpath.obj
 0001:00074110       ??$tcsncpy_s@AAPA_WIAAPB_WABI@?$__crt_char_traits@_W@@SAHAAPA_W$$QAIAAPB_WABI@Z 10075110 f i libucrtd:splitpath.obj
 0001:00074140       ??$tcsncpy_s@AAPA_WIAAPB_WH@?$__crt_char_traits@_W@@SAHAAPA_W$$QAIAAPB_W$$QAH@Z 10075140 f i libucrtd:splitpath.obj
 0001:00074380       __splitpath                10075380 f   libucrtd:splitpath.obj
 0001:000743b0       __splitpath_s              100753b0 f   libucrtd:splitpath.obj
 0001:00074400       __wsplitpath               10075400 f   libucrtd:splitpath.obj
 0001:00074430       __wsplitpath_s             10075430 f   libucrtd:splitpath.obj
 0001:00074480       __set_abort_behavior       10075480 f   libucrtd:abort.obj
 0001:000744b0       _abort                     100754b0 f   libucrtd:abort.obj
 0001:00074520       _strcmp                    10075520 f   libucrtd:strcmp.obj
 0001:000745b0       _strlen                    100755b0 f   libucrtd:strlen.obj
 0001:00074640       ??$is_overflow_condition@K@__crt_strtox@@YA_NIK@Z 10075640 f i libucrtd:atox.obj
 0001:000746a0       ??$is_overflow_condition@_K@__crt_strtox@@YA_NI_K@Z 100756a0 f i libucrtd:atox.obj
 0001:00074730       ??$make_c_string_character_source@D$$T@__crt_strtox@@YA?AV?$c_string_character_source@D@0@QBD$$T@Z 10075730 f i libucrtd:atox.obj
 0001:00074750       ??$make_c_string_character_source@_W$$T@__crt_strtox@@YA?AV?$c_string_character_source@_W@0@QB_W$$T@Z 10075750 f i libucrtd:atox.obj
 0001:00074770       ??$parse_integer@KV?$c_string_character_source@D@__crt_strtox@@@__crt_strtox@@YAKQAU__crt_locale_pointers@@V?$c_string_character_source@D@0@H_N@Z 10075770 f i libucrtd:atox.obj
 0001:00074ae0       ??$parse_integer@KV?$c_string_character_source@_W@__crt_strtox@@@__crt_strtox@@YAKQAU__crt_locale_pointers@@V?$c_string_character_source@_W@0@H_N@Z 10075ae0 f i libucrtd:atox.obj
 0001:00074e50       ??$parse_integer@_KV?$c_string_character_source@D@__crt_strtox@@@__crt_strtox@@YA_KQAU__crt_locale_pointers@@V?$c_string_character_source@D@0@H_N@Z 10075e50 f i libucrtd:atox.obj
 0001:00075270       ??$parse_integer@_KV?$c_string_character_source@_W@__crt_strtox@@@__crt_strtox@@YA_KQAU__crt_locale_pointers@@V?$c_string_character_source@_W@0@H_N@Z 10076270 f i libucrtd:atox.obj
 0001:000756a0       ??$parse_integer_from_string@JD$$T@__crt_strtox@@YAJQBD$$THQAU__crt_locale_pointers@@@Z 100766a0 f i libucrtd:atox.obj
 0001:000756e0       ??$parse_integer_from_string@J_W$$T@__crt_strtox@@YAJQB_W$$THQAU__crt_locale_pointers@@@Z 100766e0 f i libucrtd:atox.obj
 0001:00075720       ??$parse_integer_from_string@_JD$$T@__crt_strtox@@YA_JQBD$$THQAU__crt_locale_pointers@@@Z 10076720 f i libucrtd:atox.obj
 0001:00075760       ??$parse_integer_from_string@_J_W$$T@__crt_strtox@@YA_JQB_W$$THQAU__crt_locale_pointers@@@Z 10076760 f i libucrtd:atox.obj
 0001:000757a0       ??0?$c_string_character_source@D@__crt_strtox@@QAE@QBDQAPBD@Z 100767a0 f i libucrtd:atox.obj
 0001:000757e0       ??0?$c_string_character_source@_W@__crt_strtox@@QAE@QB_WQAPB_W@Z 100767e0 f i libucrtd:atox.obj
 0001:00075820       ??1?$c_string_character_source@D@__crt_strtox@@QAE@XZ 10076820 f i libucrtd:atox.obj
 0001:00075850       ??1?$c_string_character_source@_W@__crt_strtox@@QAE@XZ 10076850 f i libucrtd:atox.obj
 0001:00075880       ?get@?$c_string_character_source@D@__crt_strtox@@QAEDXZ 10076880 f i libucrtd:atox.obj
 0001:000758b0       ?get@?$c_string_character_source@_W@__crt_strtox@@QAE_WXZ 100768b0 f i libucrtd:atox.obj
 0001:000758e0       ?is_space@__crt_strtox@@YA_NDQAU__crt_locale_pointers@@@Z 100768e0 f i libucrtd:atox.obj
 0001:00075920       ?is_space@__crt_strtox@@YA_N_WPAU__crt_locale_pointers@@@Z 10076920 f i libucrtd:atox.obj
 0001:00075950       ?maximum_signed_value@__crt_strtox@@YAJK@Z 10076950 f i libucrtd:atox.obj
 0001:00075960       ?maximum_signed_value@__crt_strtox@@YA_J_K@Z 10076960 f i libucrtd:atox.obj
 0001:00075970       ?minimum_signed_value@__crt_strtox@@YAJK@Z 10076970 f i libucrtd:atox.obj
 0001:00075980       ?minimum_signed_value@__crt_strtox@@YA_J_K@Z 10076980 f i libucrtd:atox.obj
 0001:00075990       ?parse_digit@__crt_strtox@@YAID@Z 10076990 f i libucrtd:atox.obj
 0001:000759f0       ?parse_digit@__crt_strtox@@YAI_W@Z 100769f0 f i libucrtd:atox.obj
 0001:00075a40       ?restore_state@?$c_string_character_source@D@__crt_strtox@@QAE_NQBD@Z 10076a40 f i libucrtd:atox.obj
 0001:00075a60       ?restore_state@?$c_string_character_source@_W@__crt_strtox@@QAE_NQB_W@Z 10076a60 f i libucrtd:atox.obj
 0001:00075a80       ?save_state@?$c_string_character_source@D@__crt_strtox@@QBEPBDXZ 10076a80 f i libucrtd:atox.obj
 0001:00075aa0       ?save_state@?$c_string_character_source@_W@__crt_strtox@@QBEPB_WXZ 10076aa0 f i libucrtd:atox.obj
 0001:00075ac0       ?unget@?$c_string_character_source@D@__crt_strtox@@QAEXD@Z 10076ac0 f i libucrtd:atox.obj
 0001:00075b70       ?unget@?$c_string_character_source@_W@__crt_strtox@@QAEX_W@Z 10076b70 f i libucrtd:atox.obj
 0001:00075c20       ?validate@?$c_string_character_source@D@__crt_strtox@@QBE_NXZ 10076c20 f i libucrtd:atox.obj
 0001:00075cb0       ?validate@?$c_string_character_source@_W@__crt_strtox@@QBE_NXZ 10076cb0 f i libucrtd:atox.obj
 0001:00075d40       ?wide_character_to_digit@__crt_strtox@@YAH_W@Z 10076d40 f i libucrtd:atox.obj
 0001:00076070       ___ascii_iswalpha          10077070 f i libucrtd:atox.obj
 0001:000760b0       ___ascii_toupper           100770b0 f i libucrtd:atox.obj
 0001:000760d0       ___ascii_towupper          100770d0 f i libucrtd:atox.obj
 0001:000760f0       __atoi64                   100770f0 f   libucrtd:atox.obj
 0001:00076110       __atoi64_l                 10077110 f   libucrtd:atox.obj
 0001:00076130       __atoi_l                   10077130 f   libucrtd:atox.obj
 0001:00076150       __atol_l                   10077150 f   libucrtd:atox.obj
 0001:00076170       __atoll_l                  10077170 f   libucrtd:atox.obj
 0001:00076190       __wtoi                     10077190 f   libucrtd:atox.obj
 0001:000761b0       __wtoi64                   100771b0 f   libucrtd:atox.obj
 0001:000761d0       __wtoi64_l                 100771d0 f   libucrtd:atox.obj
 0001:000761f0       __wtoi_l                   100771f0 f   libucrtd:atox.obj
 0001:00076210       __wtol                     10077210 f   libucrtd:atox.obj
 0001:00076230       __wtol_l                   10077230 f   libucrtd:atox.obj
 0001:00076250       __wtoll                    10077250 f   libucrtd:atox.obj
 0001:00076270       __wtoll_l                  10077270 f   libucrtd:atox.obj
 0001:00076290       _atoi                      10077290 f   libucrtd:atox.obj
 0001:000762b0       _atol                      100772b0 f   libucrtd:atox.obj
 0001:000762d0       _atoll                     100772d0 f   libucrtd:atox.obj
 0001:000762f0       _strncmp                   100772f0 f   libucrtd:strncmp.obj
 0001:00076370       _wcsncmp                   10077370 f   libucrtd:wcsncmp.obj
 0001:000763d0       __CrtGetDebugFillThreshold 100773d0 f   libucrtd:debug_fill_threshold.obj
 0001:000763e0       __CrtSetDebugFillThreshold 100773e0 f   libucrtd:debug_fill_threshold.obj
 0001:00076400       ??$make_c_string_character_source@DPAPAD@__crt_strtox@@YA?AV?$c_string_character_source@D@0@QBDQAPAD@Z 10077400 f i libucrtd:strtox.obj
 0001:00076420       ??$make_c_string_character_source@_WPAPA_W@__crt_strtox@@YA?AV?$c_string_character_source@_W@0@QB_WQAPA_W@Z 10077420 f i libucrtd:strtox.obj
 0001:00076440       ??$parse_integer_from_string@JDPAPAD@__crt_strtox@@YAJQBDQAPADHQAU__crt_locale_pointers@@@Z 10077440 f i libucrtd:strtox.obj
 0001:00076480       ??$parse_integer_from_string@J_WPAPA_W@__crt_strtox@@YAJQB_WQAPA_WHQAU__crt_locale_pointers@@@Z 10077480 f i libucrtd:strtox.obj
 0001:000764c0       ??$parse_integer_from_string@KDPAPAD@__crt_strtox@@YAKQBDQAPADHQAU__crt_locale_pointers@@@Z 100774c0 f i libucrtd:strtox.obj
 0001:00076500       ??$parse_integer_from_string@K_WPAPA_W@__crt_strtox@@YAKQB_WQAPA_WHQAU__crt_locale_pointers@@@Z 10077500 f i libucrtd:strtox.obj
 0001:00076540       ??$parse_integer_from_string@_JDPAPAD@__crt_strtox@@YA_JQBDQAPADHQAU__crt_locale_pointers@@@Z 10077540 f i libucrtd:strtox.obj
 0001:00076580       ??$parse_integer_from_string@_J_WPAPA_W@__crt_strtox@@YA_JQB_WQAPA_WHQAU__crt_locale_pointers@@@Z 10077580 f i libucrtd:strtox.obj
 0001:000765c0       ??$parse_integer_from_string@_KDPAPAD@__crt_strtox@@YA_KQBDQAPADHQAU__crt_locale_pointers@@@Z 100775c0 f i libucrtd:strtox.obj
 0001:00076600       ??$parse_integer_from_string@_K_WPAPA_W@__crt_strtox@@YA_KQB_WQAPA_WHQAU__crt_locale_pointers@@@Z 10077600 f i libucrtd:strtox.obj
 0001:00076640       __strtoi64                 10077640 f   libucrtd:strtox.obj
 0001:00076660       __strtoi64_l               10077660 f   libucrtd:strtox.obj
 0001:00076680       __strtoimax_l              10077680 f   libucrtd:strtox.obj
 0001:000766a0       __strtol_l                 100776a0 f   libucrtd:strtox.obj
 0001:000766c0       __strtoll_l                100776c0 f   libucrtd:strtox.obj
 0001:000766e0       __strtoui64                100776e0 f   libucrtd:strtox.obj
 0001:00076700       __strtoui64_l              10077700 f   libucrtd:strtox.obj
 0001:00076720       __strtoul_l                10077720 f   libucrtd:strtox.obj
 0001:00076740       __strtoull_l               10077740 f   libucrtd:strtox.obj
 0001:00076760       __strtoumax_l              10077760 f   libucrtd:strtox.obj
 0001:00076780       __wcstoi64                 10077780 f   libucrtd:strtox.obj
 0001:000767a0       __wcstoi64_l               100777a0 f   libucrtd:strtox.obj
 0001:000767c0       __wcstoimax_l              100777c0 f   libucrtd:strtox.obj
 0001:000767e0       __wcstol_l                 100777e0 f   libucrtd:strtox.obj
 0001:00076800       __wcstoll_l                10077800 f   libucrtd:strtox.obj
 0001:00076820       __wcstoui64                10077820 f   libucrtd:strtox.obj
 0001:00076840       __wcstoui64_l              10077840 f   libucrtd:strtox.obj
 0001:00076860       __wcstoul_l                10077860 f   libucrtd:strtox.obj
 0001:00076880       __wcstoull_l               10077880 f   libucrtd:strtox.obj
 0001:000768a0       __wcstoumax_l              100778a0 f   libucrtd:strtox.obj
 0001:000768c0       _strtoimax                 100778c0 f   libucrtd:strtox.obj
 0001:000768e0       _strtol                    100778e0 f   libucrtd:strtox.obj
 0001:00076900       _strtoll                   10077900 f   libucrtd:strtox.obj
 0001:00076920       _strtoul                   10077920 f   libucrtd:strtox.obj
 0001:00076940       _strtoull                  10077940 f   libucrtd:strtox.obj
 0001:00076960       _strtoumax                 10077960 f   libucrtd:strtox.obj
 0001:00076980       _wcstoimax                 10077980 f   libucrtd:strtox.obj
 0001:000769a0       _wcstol                    100779a0 f   libucrtd:strtox.obj
 0001:000769c0       _wcstoll                   100779c0 f   libucrtd:strtox.obj
 0001:000769e0       _wcstoul                   100779e0 f   libucrtd:strtox.obj
 0001:00076a00       _wcstoull                  10077a00 f   libucrtd:strtox.obj
 0001:00076a20       _wcstoumax                 10077a20 f   libucrtd:strtox.obj
 0001:00076a40       __mbtowc_l                 10077a40 f   libucrtd:mbtowc.obj
 0001:00076d60       _mbtowc                    10077d60 f   libucrtd:mbtowc.obj
 0001:00076d80       __wctomb_l                 10077d80 f   libucrtd:wctomb.obj
 0001:00076e00       __wctomb_s_l               10077e00 f   libucrtd:wctomb.obj
 0001:000771c0       _wctomb                    100781c0 f   libucrtd:wctomb.obj
 0001:00077210       _wctomb_s                  10078210 f   libucrtd:wctomb.obj
 0001:00077240       ??$?RU__acrt_ptd@@@__crt_internal_free_policy@@QBEXQBU__acrt_ptd@@@Z 10078240 f i libucrtd:per_thread_data.obj
 0001:000776f0       ??0?$__crt_unique_heap_ptr@U__acrt_ptd@@U__crt_internal_free_policy@@@@QAE@QAU__acrt_ptd@@@Z 100786f0 f i libucrtd:per_thread_data.obj
 0001:00077710       ??0__crt_scoped_get_last_error_reset@@QAE@XZ 10078710 f i libucrtd:per_thread_data.obj
 0001:00077730       ??1?$__crt_unique_heap_ptr@U__acrt_ptd@@U__crt_internal_free_policy@@@@QAE@XZ 10078730 f i libucrtd:per_thread_data.obj
 0001:00077750       ??1__crt_scoped_get_last_error_reset@@QAE@XZ 10078750 f i libucrtd:per_thread_data.obj
 0001:00077770       ??B?$__crt_unique_heap_ptr@U__acrt_ptd@@U__crt_internal_free_policy@@@@QBE_NXZ 10078770 f i libucrtd:per_thread_data.obj
 0001:00077a50       ?dangerous_get_state_array@?$dual_state_global@PAU__crt_locale_data@@@__crt_state_management@@QAEPAPAU__crt_locale_data@@XZ 10078a50 f i libucrtd:per_thread_data.obj
 0001:00077bd0       ?detach@?$__crt_unique_heap_ptr@U__acrt_ptd@@U__crt_internal_free_policy@@@@QAEPAU__acrt_ptd@@XZ 10078bd0 f i libucrtd:per_thread_data.obj
 0001:00077c00       ?get@?$__crt_unique_heap_ptr@U__acrt_ptd@@U__crt_internal_free_policy@@@@QBEPAU__acrt_ptd@@XZ 10078c00 f i libucrtd:per_thread_data.obj
 0001:00077c20       ?get_current_state_index@__crt_state_management@@YAIABV__crt_scoped_get_last_error_reset@@@Z 10078c20 f i libucrtd:per_thread_data.obj
 0001:00077d90       ?is_valid@?$__crt_unique_heap_ptr@U__acrt_ptd@@U__crt_internal_free_policy@@@@QBE_NXZ 10078d90 f i libucrtd:per_thread_data.obj
 0001:00077dc0       ?release@?$__crt_unique_heap_ptr@U__acrt_ptd@@U__crt_internal_free_policy@@@@QAEXXZ 10078dc0 f i libucrtd:per_thread_data.obj
 0001:00077eb0       ?value@?$dual_state_global@PAU__crt_locale_data@@@__crt_state_management@@QAEAAPAU__crt_locale_data@@XZ 10078eb0 f i libucrtd:per_thread_data.obj
 0001:00077ed0       ___acrt_freeptd            10078ed0 f   libucrtd:per_thread_data.obj
 0001:00077f00       ___acrt_getptd             10078f00 f   libucrtd:per_thread_data.obj
 0001:00077f20       ___acrt_getptd_head        10078f20 f   libucrtd:per_thread_data.obj
 0001:00077f40       ___acrt_getptd_noexit      10078f40 f   libucrtd:per_thread_data.obj
 0001:00077f50       ___acrt_initialize_ptd     10078f50 f   libucrtd:per_thread_data.obj
 0001:00077f90       ___acrt_uninitialize_ptd   10078f90 f   libucrtd:per_thread_data.obj
 0001:00077fc0       ___threadhandle            10078fc0 f   libucrtd:per_thread_data.obj
 0001:00077fd0       ___threadid                10078fd0 f   libucrtd:per_thread_data.obj
 0001:00077fe0       ?value@?$dual_state_global@PAU__crt_multibyte_data@@@__crt_state_management@@QAEAAPAU__crt_multibyte_data@@XZ 10078fe0 f i libucrtd:locale_update.obj
 0001:00078000       ___acrt_update_locale_info 10079000 f   libucrtd:locale_update.obj
 0001:00078040       ___acrt_update_multibyte_info 10079040 f   libucrtd:locale_update.obj
 0001:00078080       ?__acrt_fp_classify@@YA?AW4__acrt_fp_class@@ABN@Z 10079080 f i libucrtd:cvt.obj
 0001:000781a0       ?__acrt_fp_is_negative@@YA_NABN@Z 100791a0 f i libucrtd:cvt.obj
 0001:000791f0       ?strrchr@@YAPADQADH@Z      1007a1f0 f i libucrtd:cvt.obj
 0001:00079210       ___acrt_fp_format          1007a210 f   libucrtd:cvt.obj
 0001:000796a0       __fputwc_nolock            1007a6a0 f   libucrtd:fputwc.obj
 0001:00079890       __fputwchar                1007a890 f   libucrtd:fputwc.obj
 0001:000798b0       __putwc_nolock             1007a8b0 f   libucrtd:fputwc.obj
 0001:000798d0       _fputwc                    1007a8d0 f   libucrtd:fputwc.obj
 0001:000799e0       _putwc                     1007a9e0 f   libucrtd:fputwc.obj
 0001:00079a00       _putwchar                  1007aa00 f   libucrtd:fputwc.obj
 0001:00079a20       ?lowio_handle@__crt_stdio_stream@@QBEHXZ 1007aa20 f i libucrtd:fileno.obj
 0001:00079a40       __fileno                   1007aa40 f   libucrtd:fileno.obj
 0001:00079ae0       ??$?RPAU__crt_stdio_stream_data@@@__crt_internal_free_policy@@QBEXQBQAU__crt_stdio_stream_data@@@Z 1007aae0 f i libucrtd:_file.obj
 0001:00079b00       ??0?$__crt_unique_heap_ptr@PAU__crt_stdio_stream_data@@U__crt_internal_free_policy@@@@QAE@QAPAU__crt_stdio_stream_data@@@Z 1007ab00 f i libucrtd:_file.obj
 0001:00079b20       ??1?$__crt_unique_heap_ptr@PAU__crt_stdio_stream_data@@U__crt_internal_free_policy@@@@QAE@XZ 1007ab20 f i libucrtd:_file.obj
 0001:00079b40       ?detach@?$__crt_unique_heap_ptr@PAU__crt_stdio_stream_data@@U__crt_internal_free_policy@@@@QAEPAPAU__crt_stdio_stream_data@@XZ 1007ab40 f i libucrtd:_file.obj
 0001:00079b70       ?release@?$__crt_unique_heap_ptr@PAU__crt_stdio_stream_data@@U__crt_internal_free_policy@@@@QAEXXZ 1007ab70 f i libucrtd:_file.obj
 0001:00079ba0       ___acrt_initialize_stdio   1007aba0 f   libucrtd:_file.obj
 0001:00079d10       ___acrt_iob_func           1007ad10 f   libucrtd:_file.obj
 0001:00079d20       ___acrt_uninitialize_stdio 1007ad20 f   libucrtd:_file.obj
 0001:00079da0       __get_stream_buffer_pointers 1007ada0 f   libucrtd:_file.obj
 0001:00079e80       __lock_file                1007ae80 f   libucrtd:_file.obj
 0001:00079eb0       __unlock_file              1007aeb0 f   libucrtd:_file.obj
 0001:00079ee0       __get_printf_count_output  1007aee0 f   libucrtd:printf_count_output.obj
 0001:00079f10       __set_printf_count_output  1007af10 f   libucrtd:printf_count_output.obj
 0001:00079f70       ?has_any_buffer@__crt_stdio_stream@@QBE_NXZ 1007af70 f i libucrtd:_sftbuf.obj
 0001:00079f90       ?has_any_of@__crt_stdio_stream@@QBE_NJ@Z 1007af90 f i libucrtd:_sftbuf.obj
 0001:00079fd0       ?has_temporary_buffer@__crt_stdio_stream@@QBE_NXZ 1007afd0 f i libucrtd:_sftbuf.obj
 0001:00079ff0       ?set_flags@__crt_stdio_stream@@QBE_NJ@Z 1007aff0 f i libucrtd:_sftbuf.obj
 0001:0007a040       ?unset_flags@__crt_stdio_stream@@QBE_NJ@Z 1007b040 f i libucrtd:_sftbuf.obj
 0001:0007a090       ___acrt_stdio_begin_temporary_buffering_nolock 1007b090 f   libucrtd:_sftbuf.obj
 0001:0007a250       ___acrt_stdio_end_temporary_buffering_nolock 1007b250 f   libucrtd:_sftbuf.obj
 0001:0007a2e0       ??$?RU__crt_locale_data@@@__crt_internal_free_policy@@QBEXQBU__crt_locale_data@@@Z 1007b2e0 f i libucrtd:wsetlocale.obj
 0001:0007a300       ??$?RU__crt_locale_pointers@@@__crt_internal_free_policy@@QBEXQBU__crt_locale_pointers@@@Z 1007b300 f i libucrtd:wsetlocale.obj
 0001:0007a320       ??$?RU__crt_multibyte_data@@@__crt_internal_free_policy@@QBEXQBU__crt_multibyte_data@@@Z 1007b320 f i libucrtd:wsetlocale.obj
 0001:0007a910       ??0?$__crt_unique_heap_ptr@U__crt_locale_data@@U__crt_internal_free_policy@@@@QAE@QAU__crt_locale_data@@@Z 1007b910 f i libucrtd:wsetlocale.obj
 0001:0007a930       ??0?$__crt_unique_heap_ptr@U__crt_locale_pointers@@U__crt_internal_free_policy@@@@QAE@QAU__crt_locale_pointers@@@Z 1007b930 f i libucrtd:wsetlocale.obj
 0001:0007a950       ??0?$__crt_unique_heap_ptr@U__crt_multibyte_data@@U__crt_internal_free_policy@@@@QAE@QAU__crt_multibyte_data@@@Z 1007b950 f i libucrtd:wsetlocale.obj
 0001:0007a970       ??0_expandlocale_locale_name_cache@@QAE@QA_WIQAU__crt_qualified_locale_data@@@Z 1007b970 f i libucrtd:wsetlocale.obj
 0001:0007a9e0       ??1?$__crt_unique_heap_ptr@U__crt_locale_data@@U__crt_internal_free_policy@@@@QAE@XZ 1007b9e0 f i libucrtd:wsetlocale.obj
 0001:0007aa00       ??1?$__crt_unique_heap_ptr@U__crt_locale_pointers@@U__crt_internal_free_policy@@@@QAE@XZ 1007ba00 f i libucrtd:wsetlocale.obj
 0001:0007aa20       ??1?$__crt_unique_heap_ptr@U__crt_multibyte_data@@U__crt_internal_free_policy@@@@QAE@XZ 1007ba20 f i libucrtd:wsetlocale.obj
 0001:0007aa40       ??1_expandlocale_locale_name_cache@@QAE@XZ 1007ba40 f i libucrtd:wsetlocale.obj
 0001:0007aaa0       ??B?$__crt_unique_heap_ptr@U__crt_locale_data@@U__crt_internal_free_policy@@@@QBE_NXZ 1007baa0 f i libucrtd:wsetlocale.obj
 0001:0007aac0       ??B?$__crt_unique_heap_ptr@U__crt_locale_pointers@@U__crt_internal_free_policy@@@@QBE_NXZ 1007bac0 f i libucrtd:wsetlocale.obj
 0001:0007aae0       ??B?$__crt_unique_heap_ptr@U__crt_multibyte_data@@U__crt_internal_free_policy@@@@QBE_NXZ 1007bae0 f i libucrtd:wsetlocale.obj
 0001:0007aed0       ?commit_locale_name@_expandlocale_locale_name_cache@@QAEXQB_WI@Z 1007bed0 f i libucrtd:wsetlocale.obj
 0001:0007af30       ?commit_locale_name_cache_already_updated@_expandlocale_locale_name_cache@@QAEXQB_WI@Z 1007bf30 f i libucrtd:wsetlocale.obj
 0001:0007af90       ?detach@?$__crt_unique_heap_ptr@U__crt_locale_data@@U__crt_internal_free_policy@@@@QAEPAU__crt_locale_data@@XZ 1007bf90 f i libucrtd:wsetlocale.obj
 0001:0007afc0       ?detach@?$__crt_unique_heap_ptr@U__crt_locale_pointers@@U__crt_internal_free_policy@@@@QAEPAU__crt_locale_pointers@@XZ 1007bfc0 f i libucrtd:wsetlocale.obj
 0001:0007aff0       ?detach@?$__crt_unique_heap_ptr@U__crt_multibyte_data@@U__crt_internal_free_policy@@@@QAEPAU__crt_multibyte_data@@XZ 1007bff0 f i libucrtd:wsetlocale.obj
 0001:0007b020       ?get@?$__crt_unique_heap_ptr@U__crt_locale_data@@U__crt_internal_free_policy@@@@QBEPAU__crt_locale_data@@XZ 1007c020 f i libucrtd:wsetlocale.obj
 0001:0007b040       ?get@?$__crt_unique_heap_ptr@U__crt_locale_pointers@@U__crt_internal_free_policy@@@@QBEPAU__crt_locale_pointers@@XZ 1007c040 f i libucrtd:wsetlocale.obj
 0001:0007b060       ?get@?$__crt_unique_heap_ptr@U__crt_multibyte_data@@U__crt_internal_free_policy@@@@QBEPAU__crt_multibyte_data@@XZ 1007c060 f i libucrtd:wsetlocale.obj
 0001:0007b080       ?is_valid@?$__crt_unique_heap_ptr@U__crt_locale_data@@U__crt_internal_free_policy@@@@QBE_NXZ 1007c080 f i libucrtd:wsetlocale.obj
 0001:0007b0b0       ?is_valid@?$__crt_unique_heap_ptr@U__crt_locale_pointers@@U__crt_internal_free_policy@@@@QBE_NXZ 1007c0b0 f i libucrtd:wsetlocale.obj
 0001:0007b0e0       ?is_valid@?$__crt_unique_heap_ptr@U__crt_multibyte_data@@U__crt_internal_free_policy@@@@QBE_NXZ 1007c0e0 f i libucrtd:wsetlocale.obj
 0001:0007b110       ?release@?$__crt_unique_heap_ptr@U__crt_locale_data@@U__crt_internal_free_policy@@@@QAEXXZ 1007c110 f i libucrtd:wsetlocale.obj
 0001:0007b140       ?release@?$__crt_unique_heap_ptr@U__crt_locale_pointers@@U__crt_internal_free_policy@@@@QAEXXZ 1007c140 f i libucrtd:wsetlocale.obj
 0001:0007b170       ?release@?$__crt_unique_heap_ptr@U__crt_multibyte_data@@U__crt_internal_free_policy@@@@QAEXXZ 1007c170 f i libucrtd:wsetlocale.obj
 0001:0007b1a0       ___acrt_copy_locale_name   1007c1a0 f   libucrtd:wsetlocale.obj
 0001:0007b240       ___acrt_set_locale_changed 1007c240 f   libucrtd:wsetlocale.obj
 0001:0007b260       ___acrt_uninitialize_locale 1007c260 f   libucrtd:wsetlocale.obj
 0001:0007b280       ___ascii_tolower           1007c280 f i libucrtd:wsetlocale.obj
 0001:0007b2a0       ___ascii_towlower          1007c2a0 f i libucrtd:wsetlocale.obj
 0001:0007b2c0       ___lc_lctowcs              1007c2c0 f   libucrtd:wsetlocale.obj
 0001:0007b370       ___lc_wcstolc              1007c370 f   libucrtd:wsetlocale.obj
 0001:0007b5a0       __configthreadlocale       1007c5a0 f   libucrtd:wsetlocale.obj
 0001:0007b720       __create_locale            1007c720 f   libucrtd:wsetlocale.obj
 0001:0007bd60       __free_locale              1007cd60 f   libucrtd:wsetlocale.obj
 0001:0007be90       __get_current_locale       1007ce90 f   libucrtd:wsetlocale.obj
 0001:0007bf60       __wcreate_locale           1007cf60 f   libucrtd:wsetlocale.obj
 0001:0007c1a0       __wcscats                  1007d1a0 f   libucrtd:wsetlocale.obj
 0001:0007c220       __wsetlocale               1007d220 f   libucrtd:wsetlocale.obj
 0001:0007d920       ___p___mb_cur_max          1007e920 f   libucrtd:nlsdata.obj
 0001:0007dc20       ___acrt_initialize_lowio   1007ec20 f   libucrtd:ioinit.obj
 0001:0007dcc0       ___acrt_uninitialize_lowio 1007ecc0 f   libucrtd:ioinit.obj
 0001:0007dd20       __CrtGetReportHook         1007ed20 f   libucrtd:dbgrptt.obj
 0001:0007dd30       __CrtSetReportFile         1007ed30 f   libucrtd:dbgrptt.obj
 0001:0007de30       __CrtSetReportHook         1007ee30 f   libucrtd:dbgrptt.obj
 0001:0007de50       __CrtSetReportMode         1007ee50 f   libucrtd:dbgrptt.obj
 0001:0007df90       __VCrtDbgReportA           1007ef90 f   libucrtd:dbgrptt.obj
 0001:0007e810       __VCrtDbgReportW           1007f810 f   libucrtd:dbgrptt.obj
 0001:0007f1c0       __snprintf_s               100801c0 f i libucrtd:dbgrptt.obj
 0001:0007f200       __vsnprintf_s              10080200 f i libucrtd:dbgrptt.obj
 0001:0007f230       __vsnprintf_s_l            10080230 f i libucrtd:dbgrptt.obj
 0001:0007f3c0       ??$__acrt_wcs_to_mbs_cp@U__crt_win32_buffer_no_resizing@@@@YAHQB_WAAV?$__crt_win32_buffer@DU__crt_win32_buffer_no_resizing@@@@I@Z 100803c0 f i libucrtd:getmodulefilenamea.obj
 0001:0007f3f0       ??0?$__crt_win32_buffer@DU__crt_win32_buffer_no_resizing@@@@QAE@QADI@Z 100803f0 f i libucrtd:getmodulefilenamea.obj
 0001:0007f440       ??1?$__crt_win32_buffer@DU__crt_win32_buffer_no_resizing@@@@QAE@XZ 10080440 f i libucrtd:getmodulefilenamea.obj
 0001:0007f4b0       ?__acrt_get_utf8_acp_compatibility_codepage@@YAIXZ 100804b0 f i libucrtd:getmodulefilenamea.obj
 0001:0007f540       ?_deallocate@?$__crt_win32_buffer@DU__crt_win32_buffer_no_resizing@@@@AAEXXZ 10080540 f i libucrtd:getmodulefilenamea.obj
 0001:0007f580       ?allocate@?$__crt_win32_buffer@DU__crt_win32_buffer_no_resizing@@@@QAEHI@Z 10080580 f i libucrtd:getmodulefilenamea.obj
 0001:0007f5f0       ?allocate@__crt_win32_buffer_no_resizing@@SAHQAPAXIABV__crt_win32_buffer_empty_debug_info@@@Z 100805f0 f i libucrtd:getmodulefilenamea.obj
 0001:0007f610       ?capacity@?$__crt_win32_buffer@DU__crt_win32_buffer_no_resizing@@@@QBEIXZ 10080610 f i libucrtd:getmodulefilenamea.obj
 0001:0007f630       ?data@?$__crt_win32_buffer@DU__crt_win32_buffer_no_resizing@@@@QAEPADXZ 10080630 f i libucrtd:getmodulefilenamea.obj
 0001:0007f650       ?deallocate@__crt_win32_buffer_no_resizing@@SAXQAXABV__crt_win32_buffer_empty_debug_info@@@Z 10080650 f i libucrtd:getmodulefilenamea.obj
 0001:0007f660       ?debug_info@?$__crt_win32_buffer@DU__crt_win32_buffer_no_resizing@@@@QBEABV__crt_win32_buffer_empty_debug_info@@XZ 10080660 f i libucrtd:getmodulefilenamea.obj
 0001:0007f670       ?set_to_nullptr@?$__crt_win32_buffer@DU__crt_win32_buffer_no_resizing@@@@QAEXXZ 10080670 f i libucrtd:getmodulefilenamea.obj
 0001:0007f6b0       ?size@?$__crt_win32_buffer@DU__crt_win32_buffer_no_resizing@@@@QAEXI@Z 100806b0 f i libucrtd:getmodulefilenamea.obj
 0001:0007f6d0       ?size@?$__crt_win32_buffer@DU__crt_win32_buffer_no_resizing@@@@QBEIXZ 100806d0 f i libucrtd:getmodulefilenamea.obj
 0001:0007f6f0       ___acrt_GetModuleFileNameA 100806f0 f   libucrtd:getmodulefilenamea.obj
 0001:0007f9d0       ??$message_box@$$TABQBDABQBDK@?$__crt_char_traits@D@@SAH$$QA$$TABQBD1$$QAK@Z 100809d0 f i libucrtd:crtmbox.obj
 0001:0007fa00       ??$message_box@$$TABQB_WABQB_WK@?$__crt_char_traits@_W@@SAH$$QA$$TABQB_W1$$QAK@Z 10080a00 f i libucrtd:crtmbox.obj
 0001:0007fa30       ??$message_box@PAUHWND__@@ABQBDABQBDABI@?$__crt_char_traits@D@@SAH$$QAPAUHWND__@@ABQBD1ABI@Z 10080a30 f i libucrtd:crtmbox.obj
 0001:0007fa60       ??$message_box@PAUHWND__@@ABQB_WABQB_WABI@?$__crt_char_traits@_W@@SAH$$QAPAUHWND__@@ABQB_W1ABI@Z 10080a60 f i libucrtd:crtmbox.obj
 0001:0007fa90       ??$output_debug_string@ABQBD@?$__crt_char_traits@D@@SAXABQBD@Z 10080a90 f i libucrtd:crtmbox.obj
 0001:0007fab0       ??$output_debug_string@ABQB_W@?$__crt_char_traits@_W@@SAXABQB_W@Z 10080ab0 f i libucrtd:crtmbox.obj
 0001:0007fad0       ___acrt_show_narrow_message_box 10080ad0 f   libucrtd:crtmbox.obj
 0001:0007faf0       ___acrt_show_wide_message_box 10080af0 f   libucrtd:crtmbox.obj
 0001:0007fb10       ___acrt_initialize_locks   10080b10 f   libucrtd:locks.obj
 0001:0007fb70       ___acrt_lock               10080b70 f   libucrtd:locks.obj
 0001:0007fb90       ___acrt_uninitialize_locks 10080b90 f   libucrtd:locks.obj
 0001:0007fbe0       ___acrt_unlock             10080be0 f   libucrtd:locks.obj
 0001:0007fc00       __lock_locales             10080c00 f   libucrtd:locks.obj
 0001:0007fc20       __unlock_locales           10080c20 f   libucrtd:locks.obj
 0001:0007fc40       ??$?B$$A6AXH@Z@__crt_fast_encoded_nullptr_t@@QBEP6AXH@ZXZ 10080c40 f i libucrtd:signal.obj
 0001:0007fd30       ??$__crt_fast_decode_pointer@P6AXH@Z@@YAP6AXH@ZQ6AXH@Z@Z 10080d30 f i libucrtd:signal.obj
 0001:0007fd60       ??$__crt_fast_encode_pointer@P6AXH@Z@@YAP6AXH@ZQ6AXH@Z@Z 10080d60 f i libucrtd:signal.obj
 0001:00080010       ?initialize@?$dual_state_global@P6AXH@Z@__crt_state_management@@QAEXQ6AXH@Z@Z 10081010 f i libucrtd:signal.obj
 0001:00080150       ?value@?$dual_state_global@P6AXH@Z@__crt_state_management@@QAEAAP6AXH@ZXZ 10081150 f i libucrtd:signal.obj
 0001:00080170       ___acrt_get_sigabrt_handler 10081170 f   libucrtd:signal.obj
 0001:00080190       ___acrt_initialize_signal_handlers 10081190 f   libucrtd:signal.obj
 0001:000801d0       ___fpecode                 100811d0 f   libucrtd:signal.obj
 0001:000801e0       ___pxcptinfoptrs           100811e0 f   libucrtd:signal.obj
 0001:000801f0       _raise                     100811f0 f   libucrtd:signal.obj
 0001:000805c0       _signal                    100815c0 f   libucrtd:signal.obj
 0001:00080840       __msize                    10081840 f   libucrtd:msize.obj
 0001:00080860       __msize_base               10081860 f   libucrtd:msize.obj
 0001:00080900       __realloc_base             10081900 f   libucrtd:realloc_base.obj
 0001:000809c0       ??$?B$$A6GHPA_WKJ@Z@__crt_fast_encoded_nullptr_t@@QBEP6GHPA_WKJ@ZXZ 100819c0 f i libucrtd:winapi_thunks.obj
 0001:00080ab0       ??$__crt_fast_decode_pointer@P6GHPA_WKJ@Z@@YAP6GHPA_WKJ@ZQ6GH0KJ@Z@Z 10081ab0 f i libucrtd:winapi_thunks.obj
 0001:00080ae0       ??$__crt_fast_decode_pointer@PAX@@YAPAXQAX@Z 10081ae0 f i libucrtd:winapi_thunks.obj
 0001:00080b10       ??$__crt_fast_encode_pointer@P6GHPA_WKJ@Z@@YAP6GHPA_WKJ@ZQ6GH0KJ@Z@Z 10081b10 f i libucrtd:winapi_thunks.obj
 0001:00081470       _GetCurrentThreadEffectiveToken 10082470 f i libucrtd:winapi_thunks.obj
 0001:00081480       ___acrt_AppPolicyGetProcessTerminationMethodInternal@4 10082480 f   libucrtd:winapi_thunks.obj
 0001:000814c0       ___acrt_AppPolicyGetShowDeveloperDiagnosticInternal@4 100824c0 f   libucrtd:winapi_thunks.obj
 0001:00081500       ___acrt_AppPolicyGetThreadInitializationTypeInternal@4 10082500 f   libucrtd:winapi_thunks.obj
 0001:00081540       ___acrt_AppPolicyGetWindowingModelInternal@4 10082540 f   libucrtd:winapi_thunks.obj
 0001:00081580       ___acrt_AreFileApisANSI@0  10082580 f   libucrtd:winapi_thunks.obj
 0001:000815c0       ___acrt_CompareStringEx@36 100825c0 f   libucrtd:winapi_thunks.obj
 0001:00081640       ___acrt_EnumSystemLocalesEx@16 10082640 f   libucrtd:winapi_thunks.obj
 0001:000816a0       ___acrt_FlsAlloc@4         100826a0 f   libucrtd:winapi_thunks.obj
 0001:000816e0       ___acrt_FlsFree@4          100826e0 f   libucrtd:winapi_thunks.obj
 0001:00081720       ___acrt_FlsGetValue@4      10082720 f   libucrtd:winapi_thunks.obj
 0001:00081760       ___acrt_FlsSetValue@8      10082760 f   libucrtd:winapi_thunks.obj
 0001:000817b0       ___acrt_GetDateFormatEx@28 100827b0 f   libucrtd:winapi_thunks.obj
 0001:00081830       ___acrt_GetEnabledXStateFeatures@0 10082830 f   libucrtd:winapi_thunks.obj
 0001:00081870       ___acrt_GetLocaleInfoEx@16 10082870 f   libucrtd:winapi_thunks.obj
 0001:000818d0       ___acrt_GetSystemTimePreciseAsFileTime@4 100828d0 f   libucrtd:winapi_thunks.obj
 0001:00081910       ___acrt_GetTimeFormatEx@24 10082910 f   libucrtd:winapi_thunks.obj
 0001:00081980       ___acrt_GetUserDefaultLocaleName@8 10082980 f   libucrtd:winapi_thunks.obj
 0001:000819d0       ___acrt_GetXStateFeaturesMask@8 100829d0 f   libucrtd:winapi_thunks.obj
 0001:00081a10       ___acrt_InitializeCriticalSectionEx@12 10082a10 f   libucrtd:winapi_thunks.obj
 0001:00081a60       ___acrt_IsValidLocaleName@4 10082a60 f   libucrtd:winapi_thunks.obj
 0001:00081ab0       ___acrt_LCIDToLocaleName@16 10082ab0 f   libucrtd:winapi_thunks.obj
 0001:00081b10       ___acrt_LCMapStringEx@36   10082b10 f   libucrtd:winapi_thunks.obj
 0001:00081b90       ___acrt_LocaleNameToLCID@8 10082b90 f   libucrtd:winapi_thunks.obj
 0001:00081be0       ___acrt_LocateXStateFeature@12 10082be0 f   libucrtd:winapi_thunks.obj
 0001:00081c30       ___acrt_MessageBoxA@16     10082c30 f   libucrtd:winapi_thunks.obj
 0001:00081c80       ___acrt_MessageBoxW@16     10082c80 f   libucrtd:winapi_thunks.obj
 0001:00081cd0       ___acrt_RoInitialize@4     10082cd0 f   libucrtd:winapi_thunks.obj
 0001:00081d10       ___acrt_RoUninitialize@0   10082d10 f   libucrtd:winapi_thunks.obj
 0001:00081d40       ___acrt_RtlGenRandom@8     10082d40 f   libucrtd:winapi_thunks.obj
 0001:00081d80       ___acrt_SetThreadStackGuarantee@4 10082d80 f   libucrtd:winapi_thunks.obj
 0001:00081dc0       ___acrt_can_show_message_box 10082dc0 f   libucrtd:winapi_thunks.obj
 0001:00081e00       ___acrt_can_use_vista_locale_apis 10082e00 f   libucrtd:winapi_thunks.obj
 0001:00081e30       ___acrt_can_use_xstate_apis 10082e30 f   libucrtd:winapi_thunks.obj
 0001:00081e60       ___acrt_eagerly_load_locale_apis 10082e60 f   libucrtd:winapi_thunks.obj
 0001:00081ea0       ___acrt_get_parent_window  10082ea0 f   libucrtd:winapi_thunks.obj
 0001:00081f10       ___acrt_initialize_winapi_thunks 10082f10 f   libucrtd:winapi_thunks.obj
 0001:00081f80       ___acrt_is_interactive     10082f80 f   libucrtd:winapi_thunks.obj
 0001:00082030       ___acrt_uninitialize_winapi_thunks 10083030 f   libucrtd:winapi_thunks.obj
 0001:000820a0       __chvalidator              100830a0 f   libucrtd:isctype.obj
 0001:000820f0       __chvalidator_l            100830f0 f   libucrtd:isctype.obj
 0001:00082170       __isctype                  10083170 f   libucrtd:isctype.obj
 0001:000821b0       __isctype_l                100831b0 f   libucrtd:isctype.obj
 0001:00082330       __isleadbyte_fast_internal 10083330 f i libucrtd:isctype.obj
 0001:00082350       ??$?RU__crt_stdio_stream_data@@@__crt_internal_free_policy@@QBEXQBU__crt_stdio_stream_data@@@Z 10083350 f i libucrtd:stream.obj
 0001:00082370       ??0?$__crt_unique_heap_ptr@U__crt_stdio_stream_data@@U__crt_internal_free_policy@@@@QAE@QAU__crt_stdio_stream_data@@@Z 10083370 f i libucrtd:stream.obj
 0001:00082390       ??0__crt_stdio_stream@@QAE@QAU__crt_stdio_stream_data@@@Z 10083390 f i libucrtd:stream.obj
 0001:000823b0       ??0__crt_stdio_stream@@QAE@XZ 100833b0 f i libucrtd:stream.obj
 0001:000823d0       ??1?$__crt_unique_heap_ptr@U__crt_stdio_stream_data@@U__crt_internal_free_policy@@@@QAE@XZ 100833d0 f i libucrtd:stream.obj
 0001:000823f0       ?__acrt_stdio_allocate_stream@@YA?AV__crt_stdio_stream@@XZ 100833f0 f   libucrtd:stream.obj
 0001:000824e0       ?__acrt_stdio_free_stream@@YAXV__crt_stdio_stream@@@Z 100834e0 f   libucrtd:stream.obj
 0001:00082560       ?deallocate@__crt_stdio_stream@@QAEXXZ 10083560 f i libucrtd:stream.obj
 0001:00082580       ?detach@?$__crt_unique_heap_ptr@U__crt_stdio_stream_data@@U__crt_internal_free_policy@@@@QAEPAU__crt_stdio_stream_data@@XZ 10083580 f i libucrtd:stream.obj
 0001:000826f0       ?lock@__crt_stdio_stream@@QBEXXZ 100836f0 f i libucrtd:stream.obj
 0001:00082710       ?release@?$__crt_unique_heap_ptr@U__crt_stdio_stream_data@@U__crt_internal_free_policy@@@@QAEXXZ 10083710 f i libucrtd:stream.obj
 0001:00082740       ?try_allocate@__crt_stdio_stream@@QAE_NXZ 10083740 f i libucrtd:stream.obj
 0001:00082790       ??$__acrt_stdio_parse_mode@D@@YA?AU__acrt_stdio_stream_mode@@QBD@Z 10083790 f i libucrtd:openfile.obj
 0001:00083000       ??$__acrt_stdio_parse_mode@_W@@YA?AU__acrt_stdio_stream_mode@@QB_W@Z 10084000 f i libucrtd:openfile.obj
 0001:00083b90       ??$tcsncmp@AAPBDAAY02$$CBDI@?$__crt_char_traits@D@@SAHAAPBDAAY02$$CBD$$QAI@Z 10084b90 f i libucrtd:openfile.obj
 0001:00083bb0       ??$tcsncmp@AAPB_WAAY02$$CB_WI@?$__crt_char_traits@_W@@SAHAAPB_WAAY02$$CB_W$$QAI@Z 10084bb0 f i libucrtd:openfile.obj
 0001:00083bd0       ??$tcsnicmp@AAPBDAAY04$$CBDI@?$__crt_char_traits@D@@SAHAAPBDAAY04$$CBD$$QAI@Z 10084bd0 f i libucrtd:openfile.obj
 0001:00083bf0       ??$tcsnicmp@AAPBDAAY06$$CBDI@?$__crt_char_traits@D@@SAHAAPBDAAY06$$CBD$$QAI@Z 10084bf0 f i libucrtd:openfile.obj
 0001:00083c10       ??$tcsnicmp@AAPBDAAY07$$CBDI@?$__crt_char_traits@D@@SAHAAPBDAAY07$$CBD$$QAI@Z 10084c10 f i libucrtd:openfile.obj
 0001:00083c30       ??$tcsnicmp@AAPB_WAAY04$$CB_WI@?$__crt_char_traits@_W@@SAHAAPB_WAAY04$$CB_W$$QAI@Z 10084c30 f i libucrtd:openfile.obj
 0001:00083c50       ??$tcsnicmp@AAPB_WAAY06$$CB_WI@?$__crt_char_traits@_W@@SAHAAPB_WAAY06$$CB_W$$QAI@Z 10084c50 f i libucrtd:openfile.obj
 0001:00083c70       ??$tcsnicmp@AAPB_WAAY07$$CB_WI@?$__crt_char_traits@_W@@SAHAAPB_WAAY07$$CB_W$$QAI@Z 10084c70 f i libucrtd:openfile.obj
 0001:00083c90       ??$tsopen_s@PAHABQBDABHABHH@?$__crt_char_traits@D@@SAH$$QAPAHABQBDABH2$$QAH@Z 10084c90 f i libucrtd:openfile.obj
 0001:00083cc0       ??$tsopen_s@PAHABQB_WABHABHH@?$__crt_char_traits@_W@@SAH$$QAPAHABQB_WABH2$$QAH@Z 10084cc0 f i libucrtd:openfile.obj
 0001:00083cf0       ?__acrt_stdio_parse_mode_D@@YA_NAAU__acrt_stdio_stream_mode@@@Z 10084cf0 f i libucrtd:openfile.obj
 0001:00083d20       ?__acrt_stdio_parse_mode_N@@YA_NAAU__acrt_stdio_stream_mode@@@Z 10084d20 f i libucrtd:openfile.obj
 0001:00083d40       ?__acrt_stdio_parse_mode_R@@YA_NAAU__acrt_stdio_stream_mode@@AA_N@Z 10084d40 f i libucrtd:openfile.obj
 0001:00083d70       ?__acrt_stdio_parse_mode_S@@YA_NAAU__acrt_stdio_stream_mode@@AA_N@Z 10084d70 f i libucrtd:openfile.obj
 0001:00083da0       ?__acrt_stdio_parse_mode_T@@YA_NAAU__acrt_stdio_stream_mode@@@Z 10084da0 f i libucrtd:openfile.obj
 0001:00083dd0       ?__acrt_stdio_parse_mode_b@@YA_NAAU__acrt_stdio_stream_mode@@@Z 10084dd0 f i libucrtd:openfile.obj
 0001:00083e00       ?__acrt_stdio_parse_mode_c@@YA_NAAU__acrt_stdio_stream_mode@@AA_N@Z 10084e00 f i libucrtd:openfile.obj
 0001:00083e30       ?__acrt_stdio_parse_mode_n@@YA_NAAU__acrt_stdio_stream_mode@@AA_N@Z 10084e30 f i libucrtd:openfile.obj
 0001:00083e60       ?__acrt_stdio_parse_mode_plus@@YA_NAAU__acrt_stdio_stream_mode@@AA_N@Z 10084e60 f i libucrtd:openfile.obj
 0001:00083ed0       ?__acrt_stdio_parse_mode_t@@YA_NAAU__acrt_stdio_stream_mode@@@Z 10084ed0 f i libucrtd:openfile.obj
 0001:00083f00       ?__acrt_stdio_parse_mode_x@@YA_NAAU__acrt_stdio_stream_mode@@@Z 10084f00 f i libucrtd:openfile.obj
 0001:00083f30       __openfile                 10084f30 f   libucrtd:openfile.obj
 0001:00083f60       __wopenfile                10084f60 f   libucrtd:openfile.obj
 0001:00084240       __close                    10085240 f   libucrtd:close.obj
 0001:000843c0       __close_nolock             100853c0 f   libucrtd:close.obj
 0001:00084420       ?has_crt_buffer@__crt_stdio_stream@@QBE_NXZ 10085420 f i libucrtd:_freebuf.obj
 0001:00084440       ___acrt_stdio_free_buffer_nolock 10085440 f   libucrtd:_freebuf.obj
 0001:00084aa0       ?__acrt_stdio_reset_buffer@@YAXV__crt_stdio_stream@@@Z 10085aa0 f i libucrtd:fflush.obj
 0001:00084ba0       ?has_all_of@__crt_stdio_stream@@QBE_NJ@Z 10085ba0 f i libucrtd:fflush.obj
 0001:00084c70       ___acrt_stdio_flush_nolock 10085c70 f   libucrtd:fflush.obj
 0001:00084d40       __fflush_nolock            10085d40 f   libucrtd:fflush.obj
 0001:00084dc0       __flushall                 10085dc0 f   libucrtd:fflush.obj
 0001:00084de0       _fflush                    10085de0 f   libucrtd:fflush.obj
 0001:00085590       ?has_big_buffer@__crt_stdio_stream@@QBE_NXZ 10086590 f i libucrtd:_flsbuf.obj
 0001:00085690       ___acrt_stdio_flush_and_write_narrow_nolock 10086690 f   libucrtd:_flsbuf.obj
 0001:000856c0       ___acrt_stdio_flush_and_write_wide_nolock 100866c0 f   libucrtd:_flsbuf.obj
 0001:000859f0       ___acrt_get_begin_thread_init_policy 100869f0 f   libucrtd:win_policies.obj
 0001:00085a10       ___acrt_get_developer_information_policy 10086a10 f   libucrtd:win_policies.obj
 0001:00085a30       ___acrt_get_process_end_policy 10086a30 f   libucrtd:win_policies.obj
 0001:00085a50       ___acrt_get_windowing_model_policy 10086a50 f   libucrtd:win_policies.obj
 0001:00085d20       ??$__acrt_mbs_to_wcs_cp@U__crt_win32_buffer_internal_dynamic_resizing@@@@YAHQBDAAV?$__crt_win32_buffer@_WU__crt_win32_buffer_internal_dynamic_resizing@@@@I@Z 10086d20 f i libucrtd:argv_wildcards.obj
 0001:00085d50       ??$__acrt_wcs_to_mbs_cp@U__crt_win32_buffer_internal_dynamic_resizing@@@@YAHQB_WAAV?$__crt_win32_buffer@DU__crt_win32_buffer_internal_dynamic_resizing@@@@I@Z 10086d50 f i libucrtd:argv_wildcards.obj
 0001:00086ca0       ??$tcsncpy_s@AAPADIAAPADABI@?$__crt_char_traits@D@@SAHAAPAD$$QAI0ABI@Z 10087ca0 f i libucrtd:argv_wildcards.obj
 0001:00086cd0       ??$tcsncpy_s@AAPA_WIAAPA_WABI@?$__crt_char_traits@_W@@SAHAAPA_W$$QAI0ABI@Z 10087cd0 f i libucrtd:argv_wildcards.obj
 0001:00086d00       ??$tcsncpy_s@PADABIABQBDABI@?$__crt_char_traits@D@@SAH$$QAPADABIABQBD1@Z 10087d00 f i libucrtd:argv_wildcards.obj
 0001:00086d30       ??$tcsncpy_s@PADIABQBDABI@?$__crt_char_traits@D@@SAH$$QAPAD$$QAIABQBDABI@Z 10087d30 f i libucrtd:argv_wildcards.obj
 0001:00086d60       ??$tcsncpy_s@PA_WABIABQB_WABI@?$__crt_char_traits@_W@@SAH$$QAPA_WABIABQB_W1@Z 10087d60 f i libucrtd:argv_wildcards.obj
 0001:00086d90       ??$tcsncpy_s@PA_WIABQB_WABI@?$__crt_char_traits@_W@@SAH$$QAPA_W$$QAIABQB_WABI@Z 10087d90 f i libucrtd:argv_wildcards.obj
 0001:00086dc0       ??$tcspbrk@AAPADAAY02$$CBD@?$__crt_char_traits@D@@SAPADAAPADAAY02$$CBD@Z 10087dc0 f i libucrtd:argv_wildcards.obj
 0001:00086de0       ??$tcspbrk@AAPA_WAAY02$$CB_W@?$__crt_char_traits@_W@@SAPA_WAAPA_WAAY02$$CB_W@Z 10087de0 f i libucrtd:argv_wildcards.obj
 0001:00086e00       ??0?$__crt_unique_handle_t@U__crt_findfile_traits@@@@QAE@QAX@Z 10087e00 f i libucrtd:argv_wildcards.obj
 0001:00086e20       ??0?$__crt_win32_buffer@DU__crt_win32_buffer_internal_dynamic_resizing@@@@QAE@XZ 10087e20 f i libucrtd:argv_wildcards.obj
 0001:00086e70       ??0?$__crt_win32_buffer@_WU__crt_win32_buffer_internal_dynamic_resizing@@@@QAE@XZ 10087e70 f i libucrtd:argv_wildcards.obj
 0001:00086f20       ??1?$__crt_unique_handle_t@U__crt_findfile_traits@@@@QAE@XZ 10087f20 f i libucrtd:argv_wildcards.obj
 0001:00086f40       ??1?$__crt_win32_buffer@DU__crt_win32_buffer_internal_dynamic_resizing@@@@QAE@XZ 10087f40 f i libucrtd:argv_wildcards.obj
 0001:00086f80       ??1?$__crt_win32_buffer@_WU__crt_win32_buffer_internal_dynamic_resizing@@@@QAE@XZ 10087f80 f i libucrtd:argv_wildcards.obj
 0001:000871e0       ?_deallocate@?$__crt_win32_buffer@DU__crt_win32_buffer_internal_dynamic_resizing@@@@AAEXXZ 100881e0 f i libucrtd:argv_wildcards.obj
 0001:00087220       ?_deallocate@?$__crt_win32_buffer@_WU__crt_win32_buffer_internal_dynamic_resizing@@@@AAEXXZ 10088220 f i libucrtd:argv_wildcards.obj
 0001:00087260       ?allocate@?$__crt_win32_buffer@DU__crt_win32_buffer_internal_dynamic_resizing@@@@QAEHI@Z 10088260 f i libucrtd:argv_wildcards.obj
 0001:000872d0       ?allocate@?$__crt_win32_buffer@_WU__crt_win32_buffer_internal_dynamic_resizing@@@@QAEHI@Z 100882d0 f i libucrtd:argv_wildcards.obj
 0001:00087340       ?allocate@__crt_win32_buffer_internal_dynamic_resizing@@SAHQAPAXIABV__crt_win32_buffer_empty_debug_info@@@Z 10088340 f i libucrtd:argv_wildcards.obj
 0001:00087480       ?capacity@?$__crt_win32_buffer@DU__crt_win32_buffer_internal_dynamic_resizing@@@@QBEIXZ 10088480 f i libucrtd:argv_wildcards.obj
 0001:000874a0       ?capacity@?$__crt_win32_buffer@_WU__crt_win32_buffer_internal_dynamic_resizing@@@@QBEIXZ 100884a0 f i libucrtd:argv_wildcards.obj
 0001:000874c0       ?close@?$__crt_unique_handle_t@U__crt_findfile_traits@@@@QAEXXZ 100884c0 f i libucrtd:argv_wildcards.obj
 0001:00087500       ?close@__crt_findfile_traits@@SA_NPAX@Z 10088500 f i libucrtd:argv_wildcards.obj
 0001:00087530       ?data@?$__crt_win32_buffer@DU__crt_win32_buffer_internal_dynamic_resizing@@@@QAEPADXZ 10088530 f i libucrtd:argv_wildcards.obj
 0001:00087550       ?data@?$__crt_win32_buffer@_WU__crt_win32_buffer_internal_dynamic_resizing@@@@QAEPA_WXZ 10088550 f i libucrtd:argv_wildcards.obj
 0001:00087570       ?deallocate@__crt_win32_buffer_internal_dynamic_resizing@@SAXQAXABV__crt_win32_buffer_empty_debug_info@@@Z 10088570 f i libucrtd:argv_wildcards.obj
 0001:00087590       ?debug_info@?$__crt_win32_buffer@DU__crt_win32_buffer_internal_dynamic_resizing@@@@QBEABV__crt_win32_buffer_empty_debug_info@@XZ 10088590 f i libucrtd:argv_wildcards.obj
 0001:000875a0       ?debug_info@?$__crt_win32_buffer@_WU__crt_win32_buffer_internal_dynamic_resizing@@@@QBEABV__crt_win32_buffer_empty_debug_info@@XZ 100885a0 f i libucrtd:argv_wildcards.obj
 0001:000878b0       ?get@?$__crt_unique_handle_t@U__crt_findfile_traits@@@@QBEPAXXZ 100888b0 f i libucrtd:argv_wildcards.obj
 0001:00087920       ?get_invalid_value@__crt_findfile_traits@@SAPAXXZ 10088920 f i libucrtd:argv_wildcards.obj
 0001:000879b0       ?set_to_nullptr@?$__crt_win32_buffer@DU__crt_win32_buffer_internal_dynamic_resizing@@@@QAEXXZ 100889b0 f i libucrtd:argv_wildcards.obj
 0001:000879f0       ?set_to_nullptr@?$__crt_win32_buffer@_WU__crt_win32_buffer_internal_dynamic_resizing@@@@QAEXXZ 100889f0 f i libucrtd:argv_wildcards.obj
 0001:00087a30       ?size@?$__crt_win32_buffer@DU__crt_win32_buffer_internal_dynamic_resizing@@@@QAEXI@Z 10088a30 f i libucrtd:argv_wildcards.obj
 0001:00087a50       ?size@?$__crt_win32_buffer@_WU__crt_win32_buffer_internal_dynamic_resizing@@@@QAEXI@Z 10088a50 f i libucrtd:argv_wildcards.obj
 0001:00087ab0       ?strpbrk@@YAPADQADQBD@Z    10088ab0 f i libucrtd:argv_wildcards.obj
 0001:00087ad0       ?wcspbrk@@YAPA_WPA_WPB_W@Z 10088ad0 f i libucrtd:argv_wildcards.obj
 0001:00087af0       ___acrt_expand_narrow_argv_wildcards 10088af0 f   libucrtd:argv_wildcards.obj
 0001:00087b10       ___acrt_expand_wide_argv_wildcards 10088b10 f   libucrtd:argv_wildcards.obj
 0001:00087bf0       ??$initialize_from_array@$$BY10BAA@E@?$dual_state_global@PAE@__crt_state_management@@QAAXAAY10BAA@E@Z 10088bf0 f i libucrtd:mbctype.obj
 0001:00087c40       ??$initialize_from_array@$$BY10BAB@E@?$dual_state_global@PAE@__crt_state_management@@QAAXAAY10BAB@E@Z 10088c40 f i libucrtd:mbctype.obj
 0001:00087eb0       ?dangerous_get_state_array@?$dual_state_global@PAE@__crt_state_management@@QAEPAPAEXZ 10088eb0 f i libucrtd:mbctype.obj
 0001:00087ec0       ?dangerous_get_state_array@?$dual_state_global@PAU__crt_multibyte_data@@@__crt_state_management@@QAEPAPAU__crt_multibyte_data@@XZ 10088ec0 f i libucrtd:mbctype.obj
 0001:00087f90       ?initialize@?$dual_state_global@PAU__crt_multibyte_data@@@__crt_state_management@@QAEXQAU__crt_multibyte_data@@@Z 10088f90 f i libucrtd:mbctype.obj
 0001:000886f0       ?value@?$dual_state_global@PAE@__crt_state_management@@QAEAAPAEXZ 100896f0 f i libucrtd:mbctype.obj
 0001:00088710       ___acrt_initialize_multibyte 10089710 f   libucrtd:mbctype.obj
 0001:000887c0       ___acrt_update_thread_multibyte_data 100897c0 f   libucrtd:mbctype.obj
 0001:000887e0       ___p__mbcasemap            100897e0 f   libucrtd:mbctype.obj
 0001:00088800       ___p__mbctype              10089800 f   libucrtd:mbctype.obj
 0001:00088820       __getmbcp                  10089820 f   libucrtd:mbctype.obj
 0001:00088890       __setmbcp                  10089890 f   libucrtd:mbctype.obj
 0001:000888c0       __setmbcp_nolock           100898c0 f   libucrtd:mbctype.obj
 0001:00088e31       __ismbbalnum               10089e31 f   libucrtd:ismbbyte.obj
 0001:00088e4c       __ismbbalnum_l             10089e4c f   libucrtd:ismbbyte.obj
 0001:00088e68       __ismbbalpha               10089e68 f   libucrtd:ismbbyte.obj
 0001:00088e83       __ismbbalpha_l             10089e83 f   libucrtd:ismbbyte.obj
 0001:00088e9f       __ismbbblank               10089e9f f   libucrtd:ismbbyte.obj
 0001:00088ec2       __ismbbblank_l             10089ec2 f   libucrtd:ismbbyte.obj
 0001:00088ee6       __ismbbgraph               10089ee6 f   libucrtd:ismbbyte.obj
 0001:00088f01       __ismbbgraph_l             10089f01 f   libucrtd:ismbbyte.obj
 0001:00088f1d       __ismbbkalnum              10089f1d f   libucrtd:ismbbyte.obj
 0001:00088f35       __ismbbkalnum_l            10089f35 f   libucrtd:ismbbyte.obj
 0001:00088f4e       __ismbbkana                10089f4e f   libucrtd:ismbbyte.obj
 0001:00088f61       __ismbbkana_l              10089f61 f   libucrtd:ismbbyte.obj
 0001:00088fb0       __ismbbkprint              10089fb0 f   libucrtd:ismbbyte.obj
 0001:00088fc8       __ismbbkprint_l            10089fc8 f   libucrtd:ismbbyte.obj
 0001:00088fe1       __ismbbkpunct              10089fe1 f   libucrtd:ismbbyte.obj
 0001:00088ff9       __ismbbkpunct_l            10089ff9 f   libucrtd:ismbbyte.obj
 0001:00089012       __ismbblead                1008a012 f   libucrtd:ismbbyte.obj
 0001:0008902a       __ismbblead_l              1008a02a f   libucrtd:ismbbyte.obj
 0001:00089043       __ismbbprint               1008a043 f   libucrtd:ismbbyte.obj
 0001:0008905e       __ismbbprint_l             1008a05e f   libucrtd:ismbbyte.obj
 0001:0008907a       __ismbbpunct               1008a07a f   libucrtd:ismbbyte.obj
 0001:00089092       __ismbbpunct_l             1008a092 f   libucrtd:ismbbyte.obj
 0001:000890ab       __ismbbtrail               1008a0ab f   libucrtd:ismbbyte.obj
 0001:000890c3       __ismbbtrail_l             1008a0c3 f   libucrtd:ismbbyte.obj
 0001:000890e0       ___acrt_initialize_command_line 1008a0e0 f   libucrtd:argv_data.obj
 0001:00089100       ___acrt_uninitialize_command_line 1008a100 f   libucrtd:argv_data.obj
 0001:00089110       ___p___argc                1008a110 f   libucrtd:argv_data.obj
 0001:00089120       ___p___argv                1008a120 f   libucrtd:argv_data.obj
 0001:00089130       ___p___wargv               1008a130 f   libucrtd:argv_data.obj
 0001:00089140       ___p__acmdln               1008a140 f   libucrtd:argv_data.obj
 0001:00089150       ___p__pgmptr               1008a150 f   libucrtd:argv_data.obj
 0001:00089160       ___p__wcmdln               1008a160 f   libucrtd:argv_data.obj
 0001:00089170       ___p__wpgmptr              1008a170 f   libucrtd:argv_data.obj
 0001:00089180       __get_pgmptr               1008a180 f   libucrtd:argv_data.obj
 0001:00089290       __get_wpgmptr              1008a290 f   libucrtd:argv_data.obj
 0001:00089450       ___acrt_MultiByteToWideChar 1008a450 f   libucrtd:multibytetowidechar.obj
 0001:00089550       ___acrt_WideCharToMultiByte 1008a550 f   libucrtd:widechartomultibyte.obj
 0001:00089692       ___dcrt_get_narrow_environment_from_os 1008a692 f   libucrtd:get_environment_from_os.obj
 0001:00089724       ___dcrt_get_wide_environment_from_os 1008a724 f   libucrtd:get_environment_from_os.obj
 0001:0008a0b9       ??$get_or_create_environment_nolock@$$V@?$__crt_char_traits@D@@SAPAPADXZ 1008b0b9 f i libucrtd:setenv.obj
 0001:0008a0be       ??$get_or_create_environment_nolock@$$V@?$__crt_char_traits@_W@@SAPAPA_WXZ 1008b0be f i libucrtd:setenv.obj
 0001:0008a0c3       ??$set_environment_variable@ABQADQAD@?$__crt_char_traits@D@@SAHABQAD$$QBQAD@Z 1008b0c3 f i libucrtd:setenv.obj
 0001:0008a0db       ??$set_environment_variable@ABQA_WQA_W@?$__crt_char_traits@_W@@SAHABQA_W$$QBQA_W@Z 1008b0db f i libucrtd:setenv.obj
 0001:0008a0f2       ??$tcschr@ABQADD@?$__crt_char_traits@D@@SAPADABQAD$$QAD@Z 1008b0f2 f i libucrtd:setenv.obj
 0001:0008a10c       ??$tcschr@ABQA_WD@?$__crt_char_traits@_W@@SAPA_WABQA_W$$QAD@Z 1008b10c f i libucrtd:setenv.obj
 0001:0008a12a       ??$tcscpy_s@AAPADABIAAPAD@?$__crt_char_traits@D@@SAHAAPADABI0@Z 1008b12a f i libucrtd:setenv.obj
 0001:0008a148       ??$tcscpy_s@AAPA_WABIAAPA_W@?$__crt_char_traits@_W@@SAHAAPA_WABI0@Z 1008b148 f i libucrtd:setenv.obj
 0001:0008a166       ??$tcscpy_s@ABQADABIABQAD@?$__crt_char_traits@D@@SAHABQADABI0@Z 1008b166 f i libucrtd:setenv.obj
 0001:0008a184       ??$tcscpy_s@ABQA_WABIABQA_W@?$__crt_char_traits@_W@@SAHABQA_WABI0@Z 1008b184 f i libucrtd:setenv.obj
 0001:0008a1a2       ??$tcslen@ABQAD@?$__crt_char_traits@D@@SAIABQAD@Z 1008b1a2 f i libucrtd:setenv.obj
 0001:0008a1ba       ??$tcslen@ABQA_W@?$__crt_char_traits@_W@@SAIABQA_W@Z 1008b1ba f i libucrtd:setenv.obj
 0001:0008a1d8       ??$tcsnicoll@ABQBDAAPADABI@?$__crt_char_traits@D@@SAHABQBDAAPADABI@Z 1008b1d8 f i libucrtd:setenv.obj
 0001:0008a1f6       ??$tcsnicoll@ABQB_WAAPA_WABI@?$__crt_char_traits@_W@@SAHABQB_WAAPA_WABI@Z 1008b1f6 f i libucrtd:setenv.obj
 0001:0008a214       ??$tcsnlen@PADH@?$__crt_char_traits@D@@SAI$$QAPAD$$QAH@Z 1008b214 f i libucrtd:setenv.obj
 0001:0008a22c       ??$tcsnlen@PA_WH@?$__crt_char_traits@_W@@SAI$$QAPA_W$$QAH@Z 1008b22c f i libucrtd:setenv.obj
 0001:0008a268       ?strchr@@YAPADQADH@Z       1008b268 f i libucrtd:setenv.obj
 0001:0008a273       ?wcschr@@YAPA_WPA_W_W@Z    1008b273 f i libucrtd:setenv.obj
 0001:0008a27e       ___dcrt_set_variable_in_narrow_environment_nolock 1008b27e f   libucrtd:setenv.obj
 0001:0008a289       ___dcrt_set_variable_in_wide_environment_nolock 1008b289 f   libucrtd:setenv.obj
 0001:0008a2a0       ___acrt_getheap            1008b2a0 f   libucrtd:heap_handle.obj
 0001:0008a2e0       ___acrt_initialize_heap    1008b2e0 f   libucrtd:heap_handle.obj
 0001:0008a310       ___acrt_uninitialize_heap  1008b310 f   libucrtd:heap_handle.obj
 0001:0008a330       __get_heap_handle          1008b330 f   libucrtd:heap_handle.obj
 0001:0008a370       ___acrt_execute_initializers 1008b370 f   libucrtd:shared_initialization.obj
 0001:0008a420       ___acrt_execute_uninitializers 1008b420 f   libucrtd:shared_initialization.obj
 0001:0008a480       ??$__crt_fast_decode_pointer@P6AHPAU_exception@@@Z@@YAP6AHPAU_exception@@@ZQ6AH0@Z@Z 1008b480 f i libucrtd:matherr.obj
 0001:0008a4b0       ??$__crt_fast_encode_pointer@P6AHPAU_exception@@@Z@@YAP6AHPAU_exception@@@ZQ6AH0@Z@Z 1008b4b0 f i libucrtd:matherr.obj
 0001:0008a4e0       ?initialize@?$dual_state_global@P6AHPAU_exception@@@Z@__crt_state_management@@QAEXQ6AHPAU_exception@@@Z@Z 1008b4e0 f i libucrtd:matherr.obj
 0001:0008a520       ?value@?$dual_state_global@P6AHPAU_exception@@@Z@__crt_state_management@@QAEAAP6AHPAU_exception@@@ZXZ 1008b520 f i libucrtd:matherr.obj
 0001:0008a540       ___acrt_has_user_matherr   1008b540 f   libucrtd:matherr.obj
 0001:0008a580       ___acrt_initialize_user_matherr 1008b580 f   libucrtd:matherr.obj
 0001:0008a5a0       ___acrt_invoke_user_matherr 1008b5a0 f   libucrtd:matherr.obj
 0001:0008a5f0       ___setusermatherr          1008b5f0 f   libucrtd:matherr.obj
 0001:0008a630       __free_base                1008b630 f   libucrtd:free_base.obj
 0001:0008a6e0       __expand                   1008b6e0 f   libucrtd:expand.obj
 0001:0008a700       __expand_base              1008b700 f   libucrtd:expand.obj
 0001:0008a830       ?value@?$dual_state_global@J@__crt_state_management@@QAEAAJXZ 1008b830 f i libucrtd:new_mode.obj
 0001:0008a850       __query_new_mode           1008b850 f   libucrtd:new_mode.obj
 0001:0008a870       __set_new_mode             1008b870 f   libucrtd:new_mode.obj
 0001:0008a910       __CrtDefaultAllocHook      1008b910 f   libucrtd:debug_heap_hook.obj
 0001:0008a91c       __mbsdec                   1008b91c f   libucrtd:mbsdec.obj
 0001:0008a933       __mbsdec_l                 1008b933 f   libucrtd:mbsdec.obj
 0001:0008ae20       _strncpy_s                 1008be20 f   libucrtd:strncpy_s.obj
 0001:0008aff0       ___acrt_report_runtime_error 1008bff0 f   libucrtd:report_runtime_error.obj
 0001:0008b1e0       __query_app_type           1008c1e0 f   libucrtd:report_runtime_error.obj
 0001:0008b1f0       __set_app_type             1008c1f0 f   libucrtd:report_runtime_error.obj
 0001:0008b200       __iswctype_l               1008c200 f   libucrtd:iswctype.obj
 0001:0008b220       _iswctype                  1008c220 f   libucrtd:iswctype.obj
 0001:0008b290       ___iswcsym                 1008c290 f i libucrtd:_wctype.obj
 0001:0008b2d0       ___iswcsymf                1008c2d0 f i libucrtd:_wctype.obj
 0001:0008b310       __isleadbyte_l             1008c310 f i libucrtd:_wctype.obj
 0001:0008b360       __iswalnum_l               1008c360 f i libucrtd:_wctype.obj
 0001:0008b380       __iswalpha_l               1008c380 f i libucrtd:_wctype.obj
 0001:0008b3a0       __iswblank_l               1008c3a0 f i libucrtd:_wctype.obj
 0001:0008b3e0       __iswcntrl_l               1008c3e0 f i libucrtd:_wctype.obj
 0001:0008b400       __iswcsym_l                1008c400 f i libucrtd:_wctype.obj
 0001:0008b440       __iswcsymf_l               1008c440 f i libucrtd:_wctype.obj
 0001:0008b480       __iswdigit_l               1008c480 f i libucrtd:_wctype.obj
 0001:0008b4a0       __iswgraph_l               1008c4a0 f i libucrtd:_wctype.obj
 0001:0008b4c0       __iswlower_l               1008c4c0 f i libucrtd:_wctype.obj
 0001:0008b4e0       __iswprint_l               1008c4e0 f i libucrtd:_wctype.obj
 0001:0008b500       __iswpunct_l               1008c500 f i libucrtd:_wctype.obj
 0001:0008b520       __iswspace_l               1008c520 f i libucrtd:_wctype.obj
 0001:0008b540       __iswupper_l               1008c540 f i libucrtd:_wctype.obj
 0001:0008b560       __iswxdigit_l              1008c560 f i libucrtd:_wctype.obj
 0001:0008b580       _isleadbyte                1008c580 f i libucrtd:_wctype.obj
 0001:0008b5a0       _iswalnum                  1008c5a0 f i libucrtd:_wctype.obj
 0001:0008b5c0       _iswalpha                  1008c5c0 f i libucrtd:_wctype.obj
 0001:0008b5e0       _iswascii                  1008c5e0 f i libucrtd:_wctype.obj
 0001:0008b610       _iswblank                  1008c610 f i libucrtd:_wctype.obj
 0001:0008b650       _iswcntrl                  1008c650 f i libucrtd:_wctype.obj
 0001:0008b670       _iswdigit                  1008c670 f i libucrtd:_wctype.obj
 0001:0008b690       _iswgraph                  1008c690 f i libucrtd:_wctype.obj
 0001:0008b6b0       _iswlower                  1008c6b0 f i libucrtd:_wctype.obj
 0001:0008b6d0       _iswprint                  1008c6d0 f i libucrtd:_wctype.obj
 0001:0008b6f0       _iswpunct                  1008c6f0 f i libucrtd:_wctype.obj
 0001:0008b710       _iswspace                  1008c710 f i libucrtd:_wctype.obj
 0001:0008b730       _iswupper                  1008c730 f i libucrtd:_wctype.obj
 0001:0008b750       _iswxdigit                 1008c750 f i libucrtd:_wctype.obj
 0001:0008b7e0       ?__mbrtowc_utf8@__crt_mbstring@@YAIPA_WPBDIPAU_Mbstatet@@@Z 1008c7e0 f   libucrtd:mbrtowc.obj
 0001:0008b830       ?__mbsrtowcs_utf8@__crt_mbstring@@YAIPA_WPAPBDIPAU_Mbstatet@@@Z 1008c830 f   libucrtd:mbrtowc.obj
 0001:0008c0a0       _btowc                     1008d0a0 f   libucrtd:mbrtowc.obj
 0001:0008c110       _mbrlen                    1008d110 f   libucrtd:mbrtowc.obj
 0001:0008c160       _mbrtowc                   1008d160 f   libucrtd:mbrtowc.obj
 0001:0008c1f0       _mbsrtowcs                 1008d1f0 f   libucrtd:mbrtowc.obj
 0001:0008c210       _mbsrtowcs_s               1008d210 f   libucrtd:mbrtowc.obj
 0001:0008c560       ??$?RG@__crt_internal_free_policy@@QBEXQBG@Z 1008d560 f i libucrtd:initctype.obj
 0001:0008c580       ??$?RJ@__crt_internal_free_policy@@QBEXQBJ@Z 1008d580 f i libucrtd:initctype.obj
 0001:0008c5a0       ??0?$__crt_unique_heap_ptr@GU__crt_internal_free_policy@@@@QAE@QAG@Z 1008d5a0 f i libucrtd:initctype.obj
 0001:0008c5c0       ??0?$__crt_unique_heap_ptr@JU__crt_internal_free_policy@@@@QAE@QAJ@Z 1008d5c0 f i libucrtd:initctype.obj
 0001:0008c5e0       ??1?$__crt_unique_heap_ptr@GU__crt_internal_free_policy@@@@QAE@XZ 1008d5e0 f i libucrtd:initctype.obj
 0001:0008c600       ??1?$__crt_unique_heap_ptr@JU__crt_internal_free_policy@@@@QAE@XZ 1008d600 f i libucrtd:initctype.obj
 0001:0008c620       ?detach@?$__crt_unique_heap_ptr@GU__crt_internal_free_policy@@@@QAEPAGXZ 1008d620 f i libucrtd:initctype.obj
 0001:0008c650       ?detach@?$__crt_unique_heap_ptr@JU__crt_internal_free_policy@@@@QAEPAJXZ 1008d650 f i libucrtd:initctype.obj
 0001:0008c680       ?release@?$__crt_unique_heap_ptr@GU__crt_internal_free_policy@@@@QAEXXZ 1008d680 f i libucrtd:initctype.obj
 0001:0008c6b0       ?release@?$__crt_unique_heap_ptr@JU__crt_internal_free_policy@@@@QAEXXZ 1008d6b0 f i libucrtd:initctype.obj
 0001:0008c6e0       ____lc_codepage_func       1008d6e0 f   libucrtd:initctype.obj
 0001:0008c720       ____lc_collate_cp_func     1008d720 f   libucrtd:initctype.obj
 0001:0008c760       ____lc_locale_name_func    1008d760 f   libucrtd:initctype.obj
 0001:0008c7a0       ____mb_cur_max_func        1008d7a0 f   libucrtd:initctype.obj
 0001:0008c7e0       ____mb_cur_max_l_func      1008d7e0 f   libucrtd:initctype.obj
 0001:0008c810       ___acrt_locale_initialize_ctype 1008d810 f   libucrtd:initctype.obj
 0001:0008cf90       ?__c32rtomb_utf8@__crt_mbstring@@YAIPAD_UPAU_Mbstatet@@@Z 1008df90 f   libucrtd:c32rtomb.obj
 0001:0008d170       ?reset_and_return@__crt_mbstring@@YAIIPAU_Mbstatet@@@Z 1008e170 f i libucrtd:c32rtomb.obj
 0001:0008d1a0       ?return_illegal_sequence@__crt_mbstring@@YAIPAU_Mbstatet@@@Z 1008e1a0 f i libucrtd:c32rtomb.obj
 0001:0008d1d0       _c32rtomb                  1008e1d0 f   libucrtd:c32rtomb.obj
 0001:0008d1f0       ___acrt_add_locale_ref     1008e1f0 f   libucrtd:locale_refcounting.obj
 0001:0008d300       ___acrt_free_locale        1008e300 f   libucrtd:locale_refcounting.obj
 0001:0008d5d0       ___acrt_locale_add_lc_time_reference 1008e5d0 f   libucrtd:locale_refcounting.obj
 0001:0008d610       ___acrt_locale_free_lc_time_if_unreferenced 1008e610 f   libucrtd:locale_refcounting.obj
 0001:0008d660       ___acrt_locale_release_lc_time_reference 1008e660 f   libucrtd:locale_refcounting.obj
 0001:0008d690       ___acrt_release_locale_ref 1008e690 f   libucrtd:locale_refcounting.obj
 0001:0008d7a0       ___acrt_update_thread_locale_data 1008e7a0 f   libucrtd:locale_refcounting.obj
 0001:0008d870       __updatetlocinfoEx_nolock  1008e870 f   libucrtd:locale_refcounting.obj
 0001:0008d8f0       ___acrt_fp_strflt_to_string 1008e8f0 f   libucrtd:_fptostr.obj
 0001:0008e230       ??0big_integer@__crt_strtox@@QAE@ABU01@@Z 1008f230 f i libucrtd:cfout.obj
 0001:0008e270       ??0big_integer@__crt_strtox@@QAE@XZ 1008f270 f i libucrtd:cfout.obj
 0001:0008e330       ??4big_integer@__crt_strtox@@QAEAAU01@ABU01@@Z 1008f330 f i libucrtd:cfout.obj
 0001:0008e370       ??8__crt_strtox@@YA_NABUbig_integer@0@0@Z 1008f370 f i libucrtd:cfout.obj
 0001:0008e3d0       ??9__crt_strtox@@YA_NABUbig_integer@0@0@Z 1008f3d0 f i libucrtd:cfout.obj
 0001:0008e410       ?add_carry@__crt_strtox@@YAIAAIII@Z 1008f410 f i libucrtd:cfout.obj
 0001:0008e450       ?add_multiply_carry@__crt_strtox@@YAIAAIIII@Z 1008f450 f i libucrtd:cfout.obj
 0001:0008e490       ?bit_scan_reverse@__crt_strtox@@YAII@Z 1008f490 f i libucrtd:cfout.obj
 0001:0008e4c0       ?count_sequential_high_zeroes@__crt_strtox@@YAII@Z 1008f4c0 f i libucrtd:cfout.obj
 0001:0008e500       ?divide@__crt_strtox@@YA_KAAUbig_integer@1@ABU21@@Z 1008f500 f i libucrtd:cfout.obj
 0001:0008ef80       ?is_zero@__crt_strtox@@YA_NABUbig_integer@1@@Z 1008ff80 f i libucrtd:cfout.obj
 0001:0008efb0       ?make_big_integer@__crt_strtox@@YA?AUbig_integer@1@_K@Z 1008ffb0 f i libucrtd:cfout.obj
 0001:0008f060       ?make_big_integer_power_of_two@__crt_strtox@@YA?AUbig_integer@1@I@Z 10090060 f i libucrtd:cfout.obj
 0001:0008f110       ?multiply@__crt_strtox@@YA_NAAUbig_integer@1@ABU21@@Z 10090110 f i libucrtd:cfout.obj
 0001:0008f490       ?multiply@__crt_strtox@@YA_NAAUbig_integer@1@I@Z 10090490 f i libucrtd:cfout.obj
 0001:0008f560       ?multiply_64_32@__crt_strtox@@YA_K_KI@Z 10090560 f i libucrtd:cfout.obj
 0001:0008f580       ?multiply_by_power_of_ten@__crt_strtox@@YA_NAAUbig_integer@1@I@Z 10090580 f i libucrtd:cfout.obj
 0001:0008f720       ?multiply_core@__crt_strtox@@YAIQAIII@Z 10090720 f i libucrtd:cfout.obj
 0001:0008f790       ?shift_left@__crt_strtox@@YA_NAAUbig_integer@1@I@Z 10090790 f i libucrtd:cfout.obj
 0001:0008fae0       ___acrt_fltout             10090ae0 f   libucrtd:cfout.obj
 0001:0008fe90       __fcloseall                10090e90 f   libucrtd:closeall.obj
 0001:0008ffc0       __isatty                   10090fc0 f   libucrtd:isatty.obj
 0001:00090090       ??$?RUlconv@@@__crt_internal_free_policy@@QBEXQBUlconv@@@Z 10091090 f i libucrtd:initmon.obj
 0001:000900b0       ??0?$__crt_unique_heap_ptr@Ulconv@@U__crt_internal_free_policy@@@@QAE@QAUlconv@@@Z 100910b0 f i libucrtd:initmon.obj
 0001:000900d0       ??1?$__crt_unique_heap_ptr@Ulconv@@U__crt_internal_free_policy@@@@QAE@XZ 100910d0 f i libucrtd:initmon.obj
 0001:000900f0       ?detach@?$__crt_unique_heap_ptr@Ulconv@@U__crt_internal_free_policy@@@@QAEPAUlconv@@XZ 100910f0 f i libucrtd:initmon.obj
 0001:00090120       ?release@?$__crt_unique_heap_ptr@Ulconv@@U__crt_internal_free_policy@@@@QAEXXZ 10091120 f i libucrtd:initmon.obj
 0001:00090150       ___acrt_locale_free_monetary 10091150 f   libucrtd:initmon.obj
 0001:00090300       ___acrt_locale_initialize_monetary 10091300 f   libucrtd:initmon.obj
 0001:000909a0       ___acrt_locale_free_numeric 100919a0 f   libucrtd:initnum.obj
 0001:00090a50       ___acrt_locale_initialize_numeric 10091a50 f   libucrtd:initnum.obj
 0001:00090ea0       ??$?RU__crt_lc_time_data@@@__crt_internal_free_policy@@QBEXQBU__crt_lc_time_data@@@Z 10091ea0 f i libucrtd:inittime.obj
 0001:00090f80       ??0?$__crt_unique_heap_ptr@U__crt_lc_time_data@@U__crt_internal_free_policy@@@@QAE@QAU__crt_lc_time_data@@@Z 10091f80 f i libucrtd:inittime.obj
 0001:00090fa0       ??1?$__crt_unique_heap_ptr@U__crt_lc_time_data@@U__crt_internal_free_policy@@@@QAE@XZ 10091fa0 f i libucrtd:inittime.obj
 0001:00090fc0       ??B?$__crt_unique_heap_ptr@U__crt_lc_time_data@@U__crt_internal_free_policy@@@@QBE_NXZ 10091fc0 f i libucrtd:inittime.obj
 0001:00090fe0       ?detach@?$__crt_unique_heap_ptr@U__crt_lc_time_data@@U__crt_internal_free_policy@@@@QAEPAU__crt_lc_time_data@@XZ 10091fe0 f i libucrtd:inittime.obj
 0001:00091050       ?get@?$__crt_unique_heap_ptr@U__crt_lc_time_data@@U__crt_internal_free_policy@@@@QBEPAU__crt_lc_time_data@@XZ 10092050 f i libucrtd:inittime.obj
 0001:00091520       ?is_valid@?$__crt_unique_heap_ptr@U__crt_lc_time_data@@U__crt_internal_free_policy@@@@QBE_NXZ 10092520 f i libucrtd:inittime.obj
 0001:00091550       ?release@?$__crt_unique_heap_ptr@U__crt_lc_time_data@@U__crt_internal_free_policy@@@@QAEXXZ 10092550 f i libucrtd:inittime.obj
 0001:00091580       ___acrt_locale_free_time   10092580 f   libucrtd:inittime.obj
 0001:000916d0       ___acrt_locale_initialize_time 100926d0 f   libucrtd:inittime.obj
 0001:00091750       ___pctype_func             10092750 f   libucrtd:ctype.obj
 0001:00091790       ___pwctype_func            10092790 f   libucrtd:ctype.obj
 0001:00091c70       _wcsncat_s                 10092c70 f   libucrtd:wcsncat_s.obj
 0001:00091c90       _wcscmp                    10092c90 f   libucrtd:wcscmp.obj
 0001:00091d10       _wcscspn                   10092d10 f   libucrtd:wcscspn.obj
 0001:00091d80       _wcspbrk                   10092d80 f   libucrtd:wcspbrk.obj
 0001:00091de0       ??0?$__crt_scoped_stack_ptr@_W@@QAE@U?$__crt_scoped_stack_ptr_tag@_W@@@Z 10092de0 f i libucrtd:getstringtypea.obj
 0001:00091e00       ??0?$__crt_scoped_stack_ptr_tag@_W@@QAE@QA_W@Z 10092e00 f i libucrtd:getstringtypea.obj
 0001:00091e20       ??1?$__crt_scoped_stack_ptr@_W@@QAE@XZ 10092e20 f i libucrtd:getstringtypea.obj
 0001:00091e40       ?get@?$__crt_scoped_stack_ptr@_W@@QBEPA_WXZ 10092e40 f i libucrtd:getstringtypea.obj
 0001:00091e60       __MallocaComputeSize       10092e60 f i libucrtd:getstringtypea.obj
 0001:00091e90       __MarkAllocaS              10092e90 f i libucrtd:getstringtypea.obj
 0001:00091ec0       ___acrt_GetStringTypeA     10092ec0 f   libucrtd:getstringtypea.obj
 0001:00092070       __freea_crt                10093070 f i libucrtd:getstringtypea.obj
 0001:00092c40       ___acrt_get_qualified_locale 10093c40 f   libucrtd:get_qualified_locale.obj
 0001:00093c50       ___acrt_get_qualified_locale_downlevel 10094c50 f   libucrtd:getqloc_downlevel.obj
 0001:00093ef0       _localeconv                10094ef0 f   libucrtd:localeconv.obj
 0001:00093f30       ??$?RU__crt_lowio_handle_data@@@__crt_internal_free_policy@@QBEXQBU__crt_lowio_handle_data@@@Z 10094f30 f i libucrtd:osfinfo.obj
 0001:00093f50       ??0?$__crt_unique_heap_ptr@U__crt_lowio_handle_data@@U__crt_internal_free_policy@@@@QAE@QAU__crt_lowio_handle_data@@@Z 10094f50 f i libucrtd:osfinfo.obj
 0001:00093f70       ??1?$__crt_unique_heap_ptr@U__crt_lowio_handle_data@@U__crt_internal_free_policy@@@@QAE@XZ 10094f70 f i libucrtd:osfinfo.obj
 0001:00093f90       ??B?$__crt_unique_heap_ptr@U__crt_lowio_handle_data@@U__crt_internal_free_policy@@@@QBE_NXZ 10094f90 f i libucrtd:osfinfo.obj
 0001:00093fb0       ?detach@?$__crt_unique_heap_ptr@U__crt_lowio_handle_data@@U__crt_internal_free_policy@@@@QAEPAU__crt_lowio_handle_data@@XZ 10094fb0 f i libucrtd:osfinfo.obj
 0001:00093fe0       ?get@?$__crt_unique_heap_ptr@U__crt_lowio_handle_data@@U__crt_internal_free_policy@@@@QBEPAU__crt_lowio_handle_data@@XZ 10094fe0 f i libucrtd:osfinfo.obj
 0001:00094000       ?is_valid@?$__crt_unique_heap_ptr@U__crt_lowio_handle_data@@U__crt_internal_free_policy@@@@QBE_NXZ 10095000 f i libucrtd:osfinfo.obj
 0001:00094030       ?release@?$__crt_unique_heap_ptr@U__crt_lowio_handle_data@@U__crt_internal_free_policy@@@@QAEXXZ 10095030 f i libucrtd:osfinfo.obj
 0001:00094060       ___acrt_lowio_create_handle_array 10095060 f   libucrtd:osfinfo.obj
 0001:000941c0       ___acrt_lowio_destroy_handle_array 100951c0 f   libucrtd:osfinfo.obj
 0001:00094220       ___acrt_lowio_ensure_fh_exists 10095220 f   libucrtd:osfinfo.obj
 0001:00094380       ___acrt_lowio_lock_fh      10095380 f   libucrtd:osfinfo.obj
 0001:000943b0       ___acrt_lowio_set_os_handle 100953b0 f   libucrtd:osfinfo.obj
 0001:00094480       ___acrt_lowio_unlock_fh    10095480 f   libucrtd:osfinfo.obj
 0001:000944b0       __alloc_osfhnd             100954b0 f   libucrtd:osfinfo.obj
 0001:00094690       __free_osfhnd              10095690 f   libucrtd:osfinfo.obj
 0001:00094780       __get_osfhandle            10095780 f   libucrtd:osfinfo.obj
 0001:00094900       __open_osfhandle           10095900 f   libucrtd:osfinfo.obj
 0001:00095c10       __i64toa                   10096c10 f   libucrtd:xtoa.obj
 0001:00095c60       __i64toa_s                 10096c60 f   libucrtd:xtoa.obj
 0001:00095cb0       __i64tow                   10096cb0 f   libucrtd:xtoa.obj
 0001:00095d00       __i64tow_s                 10096d00 f   libucrtd:xtoa.obj
 0001:00095d50       __itoa                     10096d50 f   libucrtd:xtoa.obj
 0001:00095da0       __itoa_s                   10096da0 f   libucrtd:xtoa.obj
 0001:00095df0       __itow                     10096df0 f   libucrtd:xtoa.obj
 0001:00095e40       __itow_s                   10096e40 f   libucrtd:xtoa.obj
 0001:00095e90       __ltoa                     10096e90 f   libucrtd:xtoa.obj
 0001:00095ee0       __ltoa_s                   10096ee0 f   libucrtd:xtoa.obj
 0001:00095f30       __ltow                     10096f30 f   libucrtd:xtoa.obj
 0001:00095f80       __ltow_s                   10096f80 f   libucrtd:xtoa.obj
 0001:00095fd0       __ui64toa                  10096fd0 f   libucrtd:xtoa.obj
 0001:00096000       __ui64toa_s                10097000 f   libucrtd:xtoa.obj
 0001:00096030       __ui64tow                  10097030 f   libucrtd:xtoa.obj
 0001:00096060       __ui64tow_s                10097060 f   libucrtd:xtoa.obj
 0001:00096090       __ultoa                    10097090 f   libucrtd:xtoa.obj
 0001:000960c0       __ultoa_s                  100970c0 f   libucrtd:xtoa.obj
 0001:000960f0       __ultow                    100970f0 f   libucrtd:xtoa.obj
 0001:00096120       __ultow_s                  10097120 f   libucrtd:xtoa.obj
 0001:00096530       __mbstowcs_l               10097530 f   libucrtd:mbstowcs.obj
 0001:00096550       __mbstowcs_s_l             10097550 f   libucrtd:mbstowcs.obj
 0001:00096910       _mbstowcs                  10097910 f   libucrtd:mbstowcs.obj
 0001:00096960       _mbstowcs_s                10097960 f   libucrtd:mbstowcs.obj
 0001:00097050       __wcstombs_l               10098050 f   libucrtd:wcstombs.obj
 0001:00097070       __wcstombs_s_l             10098070 f   libucrtd:wcstombs.obj
 0001:000973e0       _wcstombs                  100983e0 f   libucrtd:wcstombs.obj
 0001:00097400       _wcstombs_s                10098400 f   libucrtd:wcstombs.obj
 0001:00097430       ___acrt_OutputDebugStringA@4 10098430 f   libucrtd:outputdebugstringa.obj
 0001:000974c0       __malloc_base              100984c0 f   libucrtd:malloc_base.obj
 0001:00097650       ___acrt_DownlevelLCIDToLocaleName 10098650 f   libucrtd:lcidtoname_downlevel.obj
 0001:00097720       ___acrt_DownlevelLocaleNameToLCID 10098720 f   libucrtd:lcidtoname_downlevel.obj
 0001:00097760       ___ascii_wcsnicmp          10098760 f   libucrtd:wcsnicmp.obj
 0001:000977f0       __towlower_fast_internal   100987f0 f i libucrtd:wcsnicmp.obj
 0001:00097830       __towlower_internal        10098830 f i libucrtd:wcsnicmp.obj
 0001:00097870       __wcsnicmp                 10098870 f   libucrtd:wcsnicmp.obj
 0001:000979b0       __wcsnicmp_l               100989b0 f   libucrtd:wcsnicmp.obj
 0001:00097bb0       __strnicmp                 10098bb0 f   libucrtd:strnicmp.obj
 0001:00097d70       __strnicmp_l               10098d70 f   libucrtd:strnicmp.obj
 0001:00098970       ??$tsopen_nolock@PAHABQAHABQBDABHABHABHABH@?$__crt_char_traits@D@@SAH$$QAPAHABQAHABQBDABH333@Z 10099970 f i libucrtd:open.obj
 0001:000989b0       ??$tsopen_nolock@PAHABQAHABQB_WABHABHABHABH@?$__crt_char_traits@_W@@SAH$$QAPAHABQAHABQB_WABH333@Z 100999b0 f i libucrtd:open.obj
 0001:000989f0       ??$tsopen_nolock@PAHPAHABQBDABHHABHH@?$__crt_char_traits@D@@SAH$$QAPAH0ABQBDABH$$QAH23@Z 100999f0 f i libucrtd:open.obj
 0001:00098a30       ??$tsopen_nolock@PAHPAHABQB_WABHHABHH@?$__crt_char_traits@_W@@SAH$$QAPAH0ABQB_WABH$$QAH23@Z 10099a30 f i libucrtd:open.obj
 0001:000995d0       __open                     1009a5d0 f   libucrtd:open.obj
 0001:00099610       __sopen                    1009a610 f   libucrtd:open.obj
 0001:00099680       __sopen_dispatch           1009a680 f   libucrtd:open.obj
 0001:000996b0       __sopen_nolock             1009a6b0 f   libucrtd:open.obj
 0001:00099730       __sopen_s                  1009a730 f   libucrtd:open.obj
 0001:00099760       __wopen                    1009a760 f   libucrtd:open.obj
 0001:000997a0       __wsopen                   1009a7a0 f   libucrtd:open.obj
 0001:00099810       __wsopen_dispatch          1009a810 f   libucrtd:open.obj
 0001:00099840       __wsopen_nolock            1009a840 f   libucrtd:open.obj
 0001:00099dd0       __wsopen_s                 1009add0 f   libucrtd:open.obj
 0001:00099e00       ___p__commode              1009ae00 f   libucrtd:ncommode.obj
 0001:0009a020       __commit                   1009b020 f   libucrtd:commit.obj
 0001:0009b6e0       __utf8_no_of_trailbytes    1009c6e0 f i libucrtd:write.obj
 0001:0009b700       __write                    1009c700 f   libucrtd:write.obj
 0001:0009b950       __write_nolock             1009c950 f   libucrtd:write.obj
 0001:0009c510       __lseek                    1009d510 f   libucrtd:lseek.obj
 0001:0009c530       __lseek_nolock             1009d530 f   libucrtd:lseek.obj
 0001:0009c550       __lseeki64                 1009d550 f   libucrtd:lseek.obj
 0001:0009c570       __lseeki64_nolock          1009d570 f   libucrtd:lseek.obj
 0001:0009c590       ___acrt_stdio_allocate_buffer_nolock 1009d590 f   libucrtd:_getbuf.obj
 0001:0009c7c0       _qsort                     1009d7c0 f   libucrtd:qsort.obj
 0001:0009ce40       _strpbrk                   1009de40 f   libucrtd:strpbrk.obj
 0001:0009ce80       ??B?$__crt_scoped_stack_ptr@_W@@QBE_NXZ 1009de80 f i libucrtd:lcmapstringa.obj
 0001:0009d270       ___acrt_LCMapStringA       1009e270 f   libucrtd:lcmapstringa.obj
 0001:0009d300       __wcsnicoll                1009e300 f   libucrtd:wcsnicol.obj
 0001:0009d4c0       __wcsnicoll_l              1009e4c0 f   libucrtd:wcsnicol.obj
 0001:0009d710       __strnicoll                1009e710 f   libucrtd:strnicol.obj
 0001:0009d760       __strnicoll_l              1009e760 f   libucrtd:strnicol.obj
 0001:0009db80       ___acrt_SetEnvironmentVariableA 1009eb80 f   libucrtd:setenvironmentvariablea.obj
 0001:0009dc40       __set_error_mode           1009ec40 f   libucrtd:set_error_mode.obj
 0001:0009dd00       ___acrt_GetStringTypeW     1009ed00 f   libucrtd:getstringtypew.obj
 0001:0009dd20       ?__mbrtoc32_utf8@__crt_mbstring@@YAIPA_UPBDIPAU_Mbstatet@@@Z 1009ed20 f   libucrtd:mbrtoc32.obj
 0001:0009dff0       _mbrtoc32                  1009eff0 f   libucrtd:mbrtoc32.obj
 0001:0009e190       ___acrt_GetLocaleInfoA     1009f190 f   libucrtd:getlocaleinfoa.obj
 0001:0009e550       _log10                     1009f550 f   libucrtd:log10.obj
 0001:0009e5a0       _ceil                      1009f5a0 f   libucrtd:ceil_pentium4.obj
 0001:0009e5e0       __ceil_pentium4            1009f5e0 f   libucrtd:ceil_pentium4.obj
 0001:0009e6c0       _fegetenv                  1009f6c0 f   libucrtd:fegetenv.obj
