 OPOSImageScanner

 Timestamp is 5c43fe24 (Sun Jan 20 13:50:44 2019)

 Preferred load address is 10000000

 Start         Length     Name                   Class
 0001:00000000 00000d90H .text$di                CODE
 0001:00000d90 000a1cf0H .text$mn                CODE
 0001:000a2a80 00000140H .text$x                 CODE
 0001:000a2bc0 00000120H .text$yd                CODE
 0002:00000000 0000036cH .idata$5                DATA
 0002:0000036c 00000004H .00cfg                  DATA
 0002:00000370 00000004H .CRT$XCA                DATA
 0002:00000374 00000004H .CRT$XCL                DATA
 0002:00000378 0000006cH .CRT$XCU                DATA
 0002:000003e4 00000004H .CRT$XCZ                DATA
 0002:000003e8 00000004H .CRT$XIA                DATA
 0002:000003ec 00000010H .CRT$XIC                DATA
 0002:000003fc 00000004H .CRT$XIZ                DATA
 0002:00000400 00000004H .CRT$XLA                DATA
 0002:00000404 00000004H .CRT$XLZ                DATA
 0002:00000408 00000004H .CRT$XPA                DATA
 0002:0000040c 00000008H .CRT$XPX                DATA
 0002:00000414 00000004H .CRT$XPXA               DATA
 0002:00000418 00000004H .CRT$XPZ                DATA
 0002:0000041c 00000004H .CRT$XTA                DATA
 0002:00000420 00000010H .CRT$XTZ                DATA
 0002:00000424 00000000H .gfids$x                DATA
 0002:00000424 00000000H .gfids$y                DATA
 0002:00000430 0002e068H .rdata                  DATA
 0002:0002e498 00000018H .rdata$T                DATA
 0002:0002e4b0 00000340H .rdata$r                DATA
 0002:0002e7f0 00000038H .rdata$sxdata           DATA
 0002:0002e828 00000408H .rdata$zzzdbg           DATA
 0002:0002ec30 00000004H .rtc$IAA                DATA
 0002:0002ec34 00000018H .rtc$IMZ                DATA
 0002:0002ec4c 00000004H .rtc$IZZ                DATA
 0002:0002ec50 00000004H .rtc$TAA                DATA
 0002:0002ec54 00000018H .rtc$TMZ                DATA
 0002:0002ec6c 00000004H .rtc$TZZ                DATA
 0002:0002ec70 00000004H .tls                    DATA
 0002:0002ec74 00000004H .tls$                   DATA
 0002:0002ec78 00000008H .tls$ZZZ                DATA
 0002:0002ec80 00000d94H .xdata$x                DATA
 0002:0002fa14 00000004H ATL$__a                 DATA
 0002:0002fa18 00000008H ATL$__z                 DATA
 0002:0002fa20 000000b0H .edata                  DATA
 0002:0002fad0 00000078H .idata$2                DATA
 0002:0002fb48 00000014H .idata$3                DATA
 0002:0002fb5c 0000036cH .idata$4                DATA
 0002:0002fec8 00000dbaH .idata$6                DATA
 0003:00000000 00000b60H .data                   DATA
 0003:00000b60 00000138H .data$r                 DATA
 0003:00000c98 00003530H .bss                    DATA
 0004:00000000 00000220H .rsrc$01                DATA
 0004:00000220 00004360H .rsrc$02                DATA

  Address         Publics by Value              Rva+Base       Lib:Object

 0000:00000000       ___hybrid_auxiliary_iat    00000000     <absolute>
 0000:00000000       ___guard_longjmp_count     00000000     <absolute>
 0000:00000000       ___guard_iat_table         00000000     <absolute>
 0000:00000000       ___guard_longjmp_table     00000000     <absolute>
 0000:00000000       ___volatile_metadata       00000000     <absolute>
 0000:00000000       ___enclave_config          00000000     <absolute>
 0000:00000000       ___guard_fids_count        00000000     <absolute>
 0000:00000000       __except_list              00000000     <absolute>
 0000:00000000       ___guard_fids_table        00000000     <absolute>
 0000:00000000       ___dynamic_value_reloc_table 00000000     <absolute>
 0000:00000000       ___hybrid_code_map         00000000     <absolute>
 0000:00000000       ___guard_iat_count         00000000     <absolute>
 0000:00000000       ___hybrid_code_map_count   00000000     <absolute>
 0000:0000000e       ___safe_se_handler_count   0000000e     <absolute>
 0000:0000002c       __tls_array                0000002c     <absolute>
 0000:00000100       ___guard_flags             00000100     <absolute>
 0000:00000000       ___ImageBase               10000000     <linker-defined>
 0001:00000d90       ?_assert@@YAXPB_W0I@Z      10001d90 f   Assert.obj
 0001:00000ec0       ___local_stdio_printf_options 10001ec0 f i Assert.obj
 0001:00000ed0       ___vswprintf_l             10001ed0 f i Assert.obj
 0001:00000f00       __swprintf                 10001f00 f i Assert.obj
 0001:00000f60       __vswprintf_c_l            10001f60 f i Assert.obj
 0001:00000fd0       __vswprintf_l              10001fd0 f i Assert.obj
 0001:00001000       ?cw_memcpy@@YGHPADPB_WH@Z  10002000 f   CWString.obj
 0001:00001060       ?cw_memcpy@@YGHPA_WPBDH@Z  10002060 f   CWString.obj
 0001:000010c0       ?cw_memcpy@@YGHPADPBDH@Z   100020c0 f   CWString.obj
 0001:00001110       ?cw_memcpy@@YGHPA_WPB_WH@Z 10002110 f   CWString.obj
 0001:00001150       ?cw_memset@@YAXPADDH@Z     10002150 f   CWString.obj
 0001:00001170       ?cw_memset@@YAXPA_W_WH@Z   10002170 f   CWString.obj
 0001:00001190       ?cw_strlen@@YAHPBD@Z       10002190 f   CWString.obj
 0001:000011e0       ?cw_strlen@@YAHPB_W@Z      100021e0 f   CWString.obj
 0001:00001230       ?cw_strcpy@@YAHPADPB_W@Z   10002230 f   CWString.obj
 0001:00001250       ?cw_strcpy@@YAHPA_WPBD@Z   10002250 f   CWString.obj
 0001:00001270       ?cw_strcpy@@YAHPADPBD@Z    10002270 f   CWString.obj
 0001:00001290       ?cw_strcpy@@YAHPA_WPB_W@Z  10002290 f   CWString.obj
 0001:000012b0       ?cw_strcat@@YAHPADPB_W@Z   100022b0 f   CWString.obj
 0001:000012e0       ?cw_strcat@@YAHPA_WPBD@Z   100022e0 f   CWString.obj
 0001:00001310       ?cw_strcat@@YAHPADPBD@Z    10002310 f   CWString.obj
 0001:00001340       ?cw_strcat@@YAHPA_WPB_W@Z  10002340 f   CWString.obj
 0001:00001370       ?cw_dup@@YGXPBDAAHAAPA_W1@Z 10002370 f   CWString.obj
 0001:00001430       ?cw_dup@@YGXPB_WAAHAAPAD1@Z 10002430 f   CWString.obj
 0001:000014e0       ?DupChar@_CW@@AAEXXZ       100024e0 f   CWString.obj
 0001:00001530       ?DupWide@_CW@@AAEXXZ       10002530 f   CWString.obj
 0001:00001580       ?GetCharsMbcs@_CW@@QAEHXZ  10002580 f   CWString.obj
 0001:000015e0       ?GetCharsWide@_CW@@QAEHXZ  100025e0 f   CWString.obj
 0001:00001640       ?SetVARIANT_BOOL@OposVariant@@QAEXF@Z 10002640 f   OposVariant.obj
 0001:000016a0       ?SetVARIANT_BOOL_Ptr@OposVariant@@QAEXPAFAAJ@Z 100026a0 f   OposVariant.obj
 0001:000016f0       ?GetLONG@OposVariant@@QAEJXZ 100026f0 f   OposVariant.obj
 0001:00001780       ?ChangeLONG@OposVariant@@QAEXPAJAAJ@Z 10002780 f   OposVariant.obj
 0001:00001840       ?SetLONG@OposVariant@@QAEXJ@Z 10002840 f   OposVariant.obj
 0001:00001880       ?SetLONG_Ptr@OposVariant@@QAEXPAJAAJ@Z 10002880 f   OposVariant.obj
 0001:000018d0       ?ChangeCURRENCY@OposVariant@@QAEXPATtagCY@@AAJ@Z 100028d0 f   OposVariant.obj
 0001:00001990       ?SetCURRENCY@OposVariant@@QAEXTtagCY@@@Z 10002990 f   OposVariant.obj
 0001:000019d0       ?SetCURRENCY_Ptr@OposVariant@@QAEXPATtagCY@@AAJ@Z 100029d0 f   OposVariant.obj
 0001:00001a20       ?ChangeBSTR@OposVariant@@QAEXPAPA_WAAJ@Z 10002a20 f   OposVariant.obj
 0001:00001ae0       ?SetBSTR@OposVariant@@QAEXPA_WAAJ@Z 10002ae0 f   OposVariant.obj
 0001:00001b30       ?SetBSTR_Copy@OposVariant@@QAEXPA_WAAJ@Z 10002b30 f   OposVariant.obj
 0001:00001bd0       ?SetBSTR_OutPtr@OposVariant@@QAE_NPAPA_WAAJ@Z 10002bd0 f   OposVariant.obj
 0001:00001c20       ?SetBSTR_InOutPtr@OposVariant@@QAE_NPAPA_WAAJ@Z 10002c20 f   OposVariant.obj
 0001:00001c70       ?SetVARIANT@OposVariant@@QAEXAAUtagVARIANT@@GAAJ@Z 10002c70 f   OposVariant.obj
 0001:00001cf0       ?SetVARIANT_Ptr@OposVariant@@QAEXAAPAUtagVARIANT@@GAAJ@Z 10002cf0 f   OposVariant.obj
 0001:00001d90       ?SetString@OposVariant@@QAEXPB_WAAJ@Z 10002d90 f   OposVariant.obj
 0001:00001e20       ?SetDispatch_Ptr@OposVariant@@QAEXPAUIDispatch@@AAJ@Z 10002e20 f   OposVariant.obj
 0001:00001e90       ??0OposDispParms@@QAE@PAVOposVariant@@H@Z 10002e90 f   OposVariant.obj
 0001:00001f60       ??1OposDispParms@@QAE@XZ   10002f60 f   OposVariant.obj
 0001:00001fb0       ??$AtlMultiply@I@ATL@@YAJPAIII@Z 10002fb0 f i OposVariant.obj
 0001:00002010       ??0?$CHeapPtr@_WVCCRTAllocator@ATL@@@ATL@@QAE@XZ 10003010 f i OposVariant.obj
 0001:00002040       ??0?$CHeapPtrBase@_WVCCRTAllocator@ATL@@@ATL@@IAE@XZ 10003040 f i OposVariant.obj
 0001:00002060       ??0?$CSimpleArray@GV?$CSimpleArrayEqualHelper@G@ATL@@@ATL@@QAE@XZ 10003060 f i OposVariant.obj
 0001:000020a0       ??0?$CTraceCategoryEx@$00$0A@@ATL@@QAE@PB_W@Z 100030a0 f i OposVariant.obj
 0001:000020d0       ??0?$CTraceCategoryEx@$01$0A@@ATL@@QAE@PB_W@Z 100030d0 f i OposVariant.obj
 0001:00002100       ??0?$CTraceCategoryEx@$03$0A@@ATL@@QAE@PB_W@Z 10003100 f i OposVariant.obj
 0001:00002130       ??0?$CTraceCategoryEx@$07$0A@@ATL@@QAE@PB_W@Z 10003130 f i OposVariant.obj
 0001:00002160       ??0?$CTraceCategoryEx@$0BA@$0A@@ATL@@QAE@PB_W@Z 10003160 f i OposVariant.obj
 0001:00002190       ??0?$CTraceCategoryEx@$0BAA@$0A@@ATL@@QAE@PB_W@Z 10003190 f i OposVariant.obj
 0001:000021d0       ??0?$CTraceCategoryEx@$0BAAA@$0A@@ATL@@QAE@PB_W@Z 100031d0 f i OposVariant.obj
 0001:00002210       ??0?$CTraceCategoryEx@$0BAAAA@$0A@@ATL@@QAE@PB_W@Z 10003210 f i OposVariant.obj
 0001:00002250       ??0?$CTraceCategoryEx@$0BAAAAA@$0A@@ATL@@QAE@PB_W@Z 10003250 f i OposVariant.obj
 0001:00002290       ??0?$CTraceCategoryEx@$0CA@$0A@@ATL@@QAE@PB_W@Z 10003290 f i OposVariant.obj
 0001:000022c0       ??0?$CTraceCategoryEx@$0CAA@$0A@@ATL@@QAE@PB_W@Z 100032c0 f i OposVariant.obj
 0001:00002300       ??0?$CTraceCategoryEx@$0CAAA@$0A@@ATL@@QAE@PB_W@Z 10003300 f i OposVariant.obj
 0001:00002340       ??0?$CTraceCategoryEx@$0CAAAA@$0A@@ATL@@QAE@PB_W@Z 10003340 f i OposVariant.obj
 0001:00002380       ??0?$CTraceCategoryEx@$0CAAAAA@$0A@@ATL@@QAE@PB_W@Z 10003380 f i OposVariant.obj
 0001:000023c0       ??0?$CTraceCategoryEx@$0EA@$0A@@ATL@@QAE@PB_W@Z 100033c0 f i OposVariant.obj
 0001:000023f0       ??0?$CTraceCategoryEx@$0EAA@$0A@@ATL@@QAE@PB_W@Z 100033f0 f i OposVariant.obj
 0001:00002430       ??0?$CTraceCategoryEx@$0EAAA@$0A@@ATL@@QAE@PB_W@Z 10003430 f i OposVariant.obj
 0001:00002470       ??0?$CTraceCategoryEx@$0EAAAA@$0A@@ATL@@QAE@PB_W@Z 10003470 f i OposVariant.obj
 0001:000024b0       ??0?$CTraceCategoryEx@$0EAAAAA@$0A@@ATL@@QAE@PB_W@Z 100034b0 f i OposVariant.obj
 0001:000024f0       ??0?$CTraceCategoryEx@$0IA@$0A@@ATL@@QAE@PB_W@Z 100034f0 f i OposVariant.obj
 0001:00002530       ??0?$CTraceCategoryEx@$0IAA@$0A@@ATL@@QAE@PB_W@Z 10003530 f i OposVariant.obj
 0001:00002570       ??0?$CTraceCategoryEx@$0IAAA@$0A@@ATL@@QAE@PB_W@Z 10003570 f i OposVariant.obj
 0001:000025b0       ??0?$CTraceCategoryEx@$0IAAAA@$0A@@ATL@@QAE@PB_W@Z 100035b0 f i OposVariant.obj
 0001:000025f0       ??0CAtlComModule@ATL@@QAE@XZ 100035f0 f i OposVariant.obj
 0001:000026d0       ??0CAtlWinModule@ATL@@QAE@XZ 100036d0 f i OposVariant.obj
 0001:00002760       ??0CComCriticalSection@ATL@@QAE@XZ 10003760 f i OposVariant.obj
 0001:00002790       ??0CPreserveLastError@ATL@@QAE@XZ 10003790 f i OposVariant.obj
 0001:000027d0       ??0CTraceFileAndLineInfo@ATL@@QAE@PBDH@Z 100037d0 f i OposVariant.obj
 0001:00002800       ??0_ATL_COM_MODULE70@ATL@@QAE@XZ 10003800 f i OposVariant.obj
 0001:00002830       ??0_ATL_WIN_MODULE70@ATL@@QAE@XZ 10003830 f i OposVariant.obj
 0001:00002870       ??1?$CHeapPtr@_WVCCRTAllocator@ATL@@@ATL@@QAE@XZ 10003870 f i OposVariant.obj
 0001:000028a0       ??1?$CHeapPtrBase@_WVCCRTAllocator@ATL@@@ATL@@QAE@XZ 100038a0 f i OposVariant.obj
 0001:000028d0       ??1?$CSimpleArray@GV?$CSimpleArrayEqualHelper@G@ATL@@@ATL@@QAE@XZ 100038d0 f i OposVariant.obj
 0001:00002900       ??1CAtlComModule@ATL@@QAE@XZ 10003900 f i OposVariant.obj
 0001:00002930       ??1CAtlWinModule@ATL@@QAE@XZ 10003930 f i OposVariant.obj
 0001:00002960       ??1CComBSTR@ATL@@QAE@XZ    10003960 f i OposVariant.obj
 0001:000029a0       ??1CComCriticalSection@ATL@@QAE@XZ 100039a0 f i OposVariant.obj
 0001:000029c0       ??1CPreserveLastError@ATL@@QAE@XZ 100039c0 f i OposVariant.obj
 0001:00002a00       ??1_ATL_COM_MODULE70@ATL@@QAE@XZ 10003a00 f i OposVariant.obj
 0001:00002a30       ??1_ATL_WIN_MODULE70@ATL@@QAE@XZ 10003a30 f i OposVariant.obj
 0001:00002a70       ??1stringdispid@CComTypeInfoHolder@ATL@@QAE@XZ 10003a70 f i OposVariant.obj
 0001:00002aa0       ??A?$CSimpleArray@GV?$CSimpleArrayEqualHelper@G@ATL@@@ATL@@QAEAAGH@Z 10003aa0 f i OposVariant.obj
 0001:00002b20       ??B?$CHeapPtrBase@_WVCCRTAllocator@ATL@@@ATL@@QBEPA_WXZ 10003b20 f i OposVariant.obj
 0001:00002b40       ??B?$CTraceCategoryEx@$01$0A@@ATL@@QAEIXZ 10003b40 f i OposVariant.obj
 0001:00002b60       ??B?$CTraceCategoryEx@$0CA@$0A@@ATL@@QAEIXZ 10003b60 f i OposVariant.obj
 0001:00002b80       ??RCTraceFileAndLineInfo@ATL@@QBAXHIPB_WZZ 10003b80 f i OposVariant.obj
 0001:00002c20       ??_Estringdispid@CComTypeInfoHolder@ATL@@QAEPAXI@Z 10003c20 f i OposVariant.obj
 0001:00002cb0       ??_H@YGXPAXIIP6EPAX0@Z@Z   10003cb0 f i OposVariant.obj
 0001:00002d20       ??_I@YGXPAXIIP6EX0@Z@Z     10003d20 f i OposVariant.obj
 0001:00002da0       ?Allocate@?$CHeapPtr@_WVCCRTAllocator@ATL@@@ATL@@QAE_NI@Z 10003da0 f i OposVariant.obj
 0001:00002e30       ?Allocate@CCRTAllocator@ATL@@SAPAXI@Z 10003e30 f i OposVariant.obj
 0001:00002e50       ?AllocateBytes@?$CHeapPtrBase@_WVCCRTAllocator@ATL@@@ATL@@QAE_NI@Z 10003e50 f i OposVariant.obj
 0001:00002ec0       ?AtlWinModuleInit@ATL@@YGJPAU_ATL_WIN_MODULE70@1@@Z 10003ec0 f i OposVariant.obj
 0001:00002f90       ?AtlWinModuleTerm@ATL@@YGJPAU_ATL_WIN_MODULE70@1@PAUHINSTANCE__@@@Z 10003f90 f i OposVariant.obj
 0001:00003050       ?Clear@OposVariant@@QAEJXZ 10004050 f i OposVariant.obj
 0001:00003090       ?Free@?$CHeapPtrBase@_WVCCRTAllocator@ATL@@@ATL@@QAEXXZ 10004090 f i OposVariant.obj
 0001:000030d0       ?Free@CCRTAllocator@ATL@@SAXPAX@Z 100040d0 f i OposVariant.obj
 0001:000030f0       ?GetCategoryName@CTrace@ATL@@CAPA_WI@Z 100040f0 f i OposVariant.obj
 0001:00003140       ?GetModuleInstance@CAtlBaseModule@ATL@@QAEPAUHINSTANCE__@@XZ 10004140 f i OposVariant.obj
 0001:00003160       ?GetSize@?$CSimpleArray@GV?$CSimpleArrayEqualHelper@G@ATL@@@ATL@@QBEHXZ 10004160 f i OposVariant.obj
 0001:00003180       ?Init@CComCriticalSection@ATL@@QAEJXZ 10004180 f i OposVariant.obj
 0001:000031e0       ?RegisterCategory@CTrace@ATL@@SAXPB_WI@Z 100041e0 f i OposVariant.obj
 0001:00003270       ?RemoveAll@?$CSimpleArray@GV?$CSimpleArrayEqualHelper@G@ATL@@@ATL@@QAEXXZ 10004270 f i OposVariant.obj
 0001:000032f0       ?Term@CAtlComModule@ATL@@QAEXXZ 100042f0 f i OposVariant.obj
 0001:000033b0       ?Term@CAtlWinModule@ATL@@QAEXXZ 100043b0 f i OposVariant.obj
 0001:000033e0       ?Term@CComCriticalSection@ATL@@QAEJXZ 100043e0 f i OposVariant.obj
 0001:00003420       ?TraceV@CTrace@ATL@@CAXPBDHIIPB_W@Z 10004420 f i OposVariant.obj
 0001:000036a0       ?TraceV@CTrace@ATL@@SAXPBDHIIPB_WPAD@Z 100046a0 f i OposVariant.obj
 0001:000037e0       ?_AtlInitializeCriticalSectionEx@ATL@@YAHPAU_RTL_CRITICAL_SECTION@@KK@Z 100047e0 f i OposVariant.obj
 0001:00003810       ?_AtlRaiseException@ATL@@YAXKK@Z 10004810 f i OposVariant.obj
 0001:00003840       _HRESULT_FROM_WIN32        10004840 f i OposVariant.obj
 0001:00003880       __vswprintf_s_l            10004880 f i OposVariant.obj
 0001:000038f0       _swprintf_s                100048f0 f i OposVariant.obj
 0001:00003950       ?CreateInstance@?$CComCreator@V?$CComObjectCached@VCComClassFactory@ATL@@@ATL@@@ATL@@SGJPAXABU_GUID@@PAPAX@Z 10004950 f i ImageScanner.obj
 0001:00003ae0       ?CreateInstance@?$CComCreator2@V?$CComCreator@V?$CComObject@VCOPOSImageScanner@@@ATL@@@ATL@@V?$CComCreator@V?$CComAggObject@VCOPOSImageScanner@@@ATL@@@2@@ATL@@SGJPAXABU_GUID@@PAPAX@Z 10004ae0 f i ImageScanner.obj
 0001:00003b60       ?ObjectMain@CComObjectRootBase@ATL@@SGX_N@Z 10004b60 f i ImageScanner.obj
 0001:00003b70       ?GetCategoryMap@CComObjectRootBase@ATL@@SAPBU_ATL_CATMAP_ENTRY@2@XZ 10004b70 f i ImageScanner.obj
 0001:00003b80       ?GetObjectDescription@?$CComCoClass@VCOPOSImageScanner@@$1?CLSID_OPOSImageScanner@@3U_GUID@@B@ATL@@SGPB_WXZ 10004b80 f i ImageScanner.obj
 0001:00003b90       ?UpdateRegistry@COPOSImageScanner@@SGJH@Z 10004b90 f i ImageScanner.obj
 0001:00003ce0       _DllGetClassObject@12      10004ce0 f   ImageScanner.obj
 0001:00003d10       _DllCanUnloadNow@0         10004d10 f   ImageScanner.obj
 0001:00003d50       _DllRegisterServer@0       10004d50 f   ImageScanner.obj
 0001:00003d70       _DllUnregisterServer@0     10004d70 f   ImageScanner.obj
 0001:00003f00       _DllMain@12                10004f00 f   ImageScanner.obj
 0001:00003f60       ??$?2G@Wrapper@?$CSimpleArray@GV?$CSimpleArrayEqualHelper@G@ATL@@@ATL@@SAPAXIPAG@Z 10004f60 f i ImageScanner.obj
 0001:00003f70       ??$?2PA_W@?$Wrapper@PA_W@?$CSimpleMap@PA_WPA_WVCExpansionVectorEqualHelper@ATL@@@ATL@@SAPAXIPAPA_W@Z 10004f70 f i ImageScanner.obj
 0001:00003f80       ??$?4UITypeInfo2@@@?$CComPtr@UITypeInfo@@@ATL@@QAEPAUITypeInfo@@ABV?$CComPtr@UITypeInfo2@@@1@@Z 10004f80 f i ImageScanner.obj
 0001:00003fe0       ??$AtlAdd@K@ATL@@YAJPAKKK@Z 10004fe0 f i ImageScanner.obj
 0001:00004020       ??$AtlAdd@_K@ATL@@YAJPA_K_K1@Z 10005020 f i ImageScanner.obj
 0001:00004090       ??$AtlAddThrow@K@ATL@@YAKKK@Z 10005090 f i ImageScanner.obj
 0001:00004110       ??$AtlModuleRegisterWndClassInfoT@VAtlModuleRegisterWndClassInfoParamW@ATL@@@ATL@@YAGPAU_ATL_BASE_MODULE70@0@PAU_ATL_WIN_MODULE70@0@PAU_ATL_WNDCLASSINFOW@0@PAP6GJPAUHWND__@@IIJ@ZVAtlModuleRegisterWndClassInfoParamW@0@@Z 10005110 f i ImageScanner.obj
 0001:00004520       ??$AtlMultiply@H@ATL@@YAJPAHHH@Z 10005520 f i ImageScanner.obj
 0001:000045a0       ??$AtlMultiply@K@ATL@@YAJPAKKK@Z 100055a0 f i ImageScanner.obj
 0001:00004600       ??$AtlMultiplyThrow@I@ATL@@YAIII@Z 10005600 f i ImageScanner.obj
 0001:00004680       ??$QueryInterface@UIPersistStream@@@IUnknown@@QAGJPAPAUIPersistStream@@@Z 10005680 f i ImageScanner.obj
 0001:000046b0       ??$QueryInterface@UITypeInfo2@@@IUnknown@@QAGJPAPAUITypeInfo2@@@Z 100056b0 f i ImageScanner.obj
 0001:000046e0       ??0?$CAtlModuleT@VCComModule@ATL@@@ATL@@QAE@XZ 100056e0 f i ImageScanner.obj
 0001:00004710       ??0?$CAtlSafeAllocBufferManager@VCCRTAllocator@ATL@@@_ATL_SAFE_ALLOCA_IMPL@ATL@@QAE@XZ 10005710 f i ImageScanner.obj
 0001:00004730       ??0?$CAutoVectorPtr@_W@ATL@@QAE@XZ 10005730 f i ImageScanner.obj
 0001:00004750       ??0?$CComAggObject@VCOPOSImageScanner@@@ATL@@QAE@PAX@Z 10005750 f i ImageScanner.obj
 0001:000047c0       ??0?$CComContainedObject@VCOPOSImageScanner@@@ATL@@QAE@PAX@Z 100057c0 f i ImageScanner.obj
 0001:000048d0       ??0?$CComCritSecLock@VCComCriticalSection@ATL@@@ATL@@QAE@AAVCComCriticalSection@1@_N@Z 100058d0 f i ImageScanner.obj
 0001:00004930       ??0?$CComEnum@UIEnumConnectionPoints@@$1?_GUID_b196b285_bab4_101a_b69c_00aa00341d07@@3U__s_GUID@@BPAUIConnectionPoint@@V?$_CopyInterface@UIConnectionPoint@@@ATL@@VCComSingleThreadModel@6@@ATL@@QAE@XZ 10005930 f i ImageScanner.obj
 0001:00004970       ??0?$CComEnum@UIEnumConnections@@$1?_GUID_b196b287_bab4_101a_b69c_00aa00341d07@@3U__s_GUID@@BUtagCONNECTDATA@@V?$_Copy@UtagCONNECTDATA@@@ATL@@VCComSingleThreadModel@6@@ATL@@QAE@XZ 10005970 f i ImageScanner.obj
 0001:000049b0       ??0?$CComEnumImpl@UIEnumConnectionPoints@@$1?_GUID_b196b285_bab4_101a_b69c_00aa00341d07@@3U__s_GUID@@BPAUIConnectionPoint@@V?$_CopyInterface@UIConnectionPoint@@@ATL@@@ATL@@QAE@XZ 100059b0 f i ImageScanner.obj
 0001:00004a10       ??0?$CComEnumImpl@UIEnumConnections@@$1?_GUID_b196b287_bab4_101a_b69c_00aa00341d07@@3U__s_GUID@@BUtagCONNECTDATA@@V?$_Copy@UtagCONNECTDATA@@@ATL@@@ATL@@QAE@XZ 10005a10 f i ImageScanner.obj
 0001:00004a70       ??0?$CComObject@V?$CComEnum@UIEnumConnectionPoints@@$1?_GUID_b196b285_bab4_101a_b69c_00aa00341d07@@3U__s_GUID@@BPAUIConnectionPoint@@V?$_CopyInterface@UIConnectionPoint@@@ATL@@VCComSingleThreadModel@6@@ATL@@@ATL@@QAE@PAX@Z 10005a70 f i ImageScanner.obj
 0001:00004ac0       ??0?$CComObject@V?$CComEnum@UIEnumConnections@@$1?_GUID_b196b287_bab4_101a_b69c_00aa00341d07@@3U__s_GUID@@BUtagCONNECTDATA@@V?$_Copy@UtagCONNECTDATA@@@ATL@@VCComSingleThreadModel@6@@ATL@@@ATL@@QAE@PAX@Z 10005ac0 f i ImageScanner.obj
 0001:00004b10       ??0?$CComObject@VCOPOSImageScanner@@@ATL@@QAE@PAX@Z 10005b10 f i ImageScanner.obj
 0001:00004c30       ??0?$CComObjectCached@VCComClassFactory@ATL@@@ATL@@QAE@PAX@Z 10005c30 f i ImageScanner.obj
 0001:00004c70       ??0?$CComObjectRootEx@VCComMultiThreadModel@ATL@@@ATL@@QAE@XZ 10005c70 f i ImageScanner.obj
 0001:00004cb0       ??0?$CComObjectRootEx@VCComSingleThreadModel@ATL@@@ATL@@QAE@XZ 10005cb0 f i ImageScanner.obj
 0001:00004ce0       ??0?$CComPtr@UIAdviseSink@@@ATL@@QAE@PAUIAdviseSink@@@Z 10005ce0 f i ImageScanner.obj
 0001:00004d10       ??0?$CComPtr@UICatRegister@@@ATL@@QAE@XZ 10005d10 f i ImageScanner.obj
 0001:00004d40       ??0?$CComPtr@UIConnectionPoint@@@ATL@@QAE@XZ 10005d40 f i ImageScanner.obj
 0001:00004d70       ??0?$CComPtr@UIConnectionPointContainer@@@ATL@@QAE@XZ 10005d70 f i ImageScanner.obj
 0001:00004da0       ??0?$CComPtr@UIDataObject@@@ATL@@QAE@XZ 10005da0 f i ImageScanner.obj
 0001:00004dd0       ??0?$CComPtr@UIDispatch@@@ATL@@QAE@XZ 10005dd0 f i ImageScanner.obj
 0001:00004e00       ??0?$CComPtr@UIOleClientSite@@@ATL@@QAE@PAUIOleClientSite@@@Z 10005e00 f i ImageScanner.obj
 0001:00004e30       ??0?$CComPtr@UIOleControlSite@@@ATL@@QAE@XZ 10005e30 f i ImageScanner.obj
 0001:00004e60       ??0?$CComPtr@UIOleInPlaceActiveObject@@@ATL@@QAE@XZ 10005e60 f i ImageScanner.obj
 0001:00004e90       ??0?$CComPtr@UIOleInPlaceFrame@@@ATL@@QAE@XZ 10005e90 f i ImageScanner.obj
 0001:00004ec0       ??0?$CComPtr@UIOleInPlaceObject@@@ATL@@QAE@XZ 10005ec0 f i ImageScanner.obj
 0001:00004ef0       ??0?$CComPtr@UIOleInPlaceUIWindow@@@ATL@@QAE@XZ 10005ef0 f i ImageScanner.obj
 0001:00004f20       ??0?$CComPtr@UIOleObject@@@ATL@@QAE@XZ 10005f20 f i ImageScanner.obj
 0001:00004f50       ??0?$CComPtr@UIPersistStream@@@ATL@@QAE@XZ 10005f50 f i ImageScanner.obj
 0001:00004f80       ??0?$CComPtr@UIPersistStreamInit@@@ATL@@QAE@XZ 10005f80 f i ImageScanner.obj
 0001:00004fb0       ??0?$CComPtr@UIPointerInactive@@@ATL@@QAE@XZ 10005fb0 f i ImageScanner.obj
 0001:00004fe0       ??0?$CComPtr@UIProvideClassInfo2@@@ATL@@QAE@XZ 10005fe0 f i ImageScanner.obj
 0001:00005010       ??0?$CComPtr@UISpecifyPropertyPages@@@ATL@@QAE@XZ 10006010 f i ImageScanner.obj
 0001:00005040       ??0?$CComPtr@UIStream@@@ATL@@QAE@XZ 10006040 f i ImageScanner.obj
 0001:00005070       ??0?$CComPtr@UITypeInfo2@@@ATL@@QAE@XZ 10006070 f i ImageScanner.obj
 0001:000050a0       ??0?$CComPtr@UITypeInfo@@@ATL@@QAE@ABV01@@Z 100060a0 f i ImageScanner.obj
 0001:000050d0       ??0?$CComPtr@UITypeInfo@@@ATL@@QAE@XZ 100060d0 f i ImageScanner.obj
 0001:00005100       ??0?$CComPtr@UITypeLib@@@ATL@@QAE@XZ 10006100 f i ImageScanner.obj
 0001:00005130       ??0?$CComPtr@UIUnknown@@@ATL@@QAE@ABV01@@Z 10006130 f i ImageScanner.obj
 0001:00005160       ??0?$CComPtr@UIUnknown@@@ATL@@QAE@PAUIUnknown@@@Z 10006160 f i ImageScanner.obj
 0001:00005190       ??0?$CComPtr@UIUnknown@@@ATL@@QAE@XZ 10006190 f i ImageScanner.obj
 0001:000051c0       ??0?$CComPtr@UIViewObjectEx@@@ATL@@QAE@XZ 100061c0 f i ImageScanner.obj
 0001:000051f0       ??0?$CComPtrBase@UIAdviseSink@@@ATL@@IAE@PAUIAdviseSink@@@Z 100061f0 f i ImageScanner.obj
 0001:00005240       ??0?$CComPtrBase@UICatRegister@@@ATL@@IAE@XZ 10006240 f i ImageScanner.obj
 0001:00005260       ??0?$CComPtrBase@UIConnectionPoint@@@ATL@@IAE@XZ 10006260 f i ImageScanner.obj
 0001:00005280       ??0?$CComPtrBase@UIConnectionPointContainer@@@ATL@@IAE@XZ 10006280 f i ImageScanner.obj
 0001:000052a0       ??0?$CComPtrBase@UIDataObject@@@ATL@@IAE@XZ 100062a0 f i ImageScanner.obj
 0001:000052c0       ??0?$CComPtrBase@UIDispatch@@@ATL@@IAE@XZ 100062c0 f i ImageScanner.obj
 0001:000052e0       ??0?$CComPtrBase@UIOleClientSite@@@ATL@@IAE@PAUIOleClientSite@@@Z 100062e0 f i ImageScanner.obj
 0001:00005330       ??0?$CComPtrBase@UIOleControlSite@@@ATL@@IAE@XZ 10006330 f i ImageScanner.obj
 0001:00005350       ??0?$CComPtrBase@UIOleInPlaceActiveObject@@@ATL@@IAE@XZ 10006350 f i ImageScanner.obj
 0001:00005370       ??0?$CComPtrBase@UIOleInPlaceFrame@@@ATL@@IAE@XZ 10006370 f i ImageScanner.obj
 0001:00005390       ??0?$CComPtrBase@UIOleInPlaceObject@@@ATL@@IAE@XZ 10006390 f i ImageScanner.obj
 0001:000053b0       ??0?$CComPtrBase@UIOleInPlaceUIWindow@@@ATL@@IAE@XZ 100063b0 f i ImageScanner.obj
 0001:000053d0       ??0?$CComPtrBase@UIOleObject@@@ATL@@IAE@XZ 100063d0 f i ImageScanner.obj
 0001:000053f0       ??0?$CComPtrBase@UIPersistStream@@@ATL@@IAE@XZ 100063f0 f i ImageScanner.obj
 0001:00005410       ??0?$CComPtrBase@UIPersistStreamInit@@@ATL@@IAE@XZ 10006410 f i ImageScanner.obj
 0001:00005430       ??0?$CComPtrBase@UIPointerInactive@@@ATL@@IAE@XZ 10006430 f i ImageScanner.obj
 0001:00005450       ??0?$CComPtrBase@UIProvideClassInfo2@@@ATL@@IAE@XZ 10006450 f i ImageScanner.obj
 0001:00005470       ??0?$CComPtrBase@UISpecifyPropertyPages@@@ATL@@IAE@XZ 10006470 f i ImageScanner.obj
 0001:00005490       ??0?$CComPtrBase@UIStream@@@ATL@@IAE@XZ 10006490 f i ImageScanner.obj
 0001:000054b0       ??0?$CComPtrBase@UITypeInfo2@@@ATL@@IAE@XZ 100064b0 f i ImageScanner.obj
 0001:000054d0       ??0?$CComPtrBase@UITypeInfo@@@ATL@@IAE@PAUITypeInfo@@@Z 100064d0 f i ImageScanner.obj
 0001:00005520       ??0?$CComPtrBase@UITypeInfo@@@ATL@@IAE@XZ 10006520 f i ImageScanner.obj
 0001:00005540       ??0?$CComPtrBase@UITypeLib@@@ATL@@IAE@XZ 10006540 f i ImageScanner.obj
 0001:00005560       ??0?$CComPtrBase@UIUnknown@@@ATL@@IAE@PAUIUnknown@@@Z 10006560 f i ImageScanner.obj
 0001:000055b0       ??0?$CComPtrBase@UIUnknown@@@ATL@@IAE@XZ 100065b0 f i ImageScanner.obj
 0001:000055d0       ??0?$CComPtrBase@UIViewObjectEx@@@ATL@@IAE@XZ 100065d0 f i ImageScanner.obj
 0001:000055f0       ??0?$CComQIPtr@UIOleControlSite@@$1?_GUID_b196b289_bab4_101a_b69c_00aa00341d07@@3U__s_GUID@@B@ATL@@QAE@PAUIUnknown@@@Z 100065f0 f i ImageScanner.obj
 0001:00005650       ??0?$CComQIPtr@UIOleObject@@$1?_GUID_00000112_0000_0000_c000_000000000046@@3U__s_GUID@@B@ATL@@QAE@XZ 10006650 f i ImageScanner.obj
 0001:00005680       ??0?$CComQIPtr@UISpecifyPropertyPages@@$1?_GUID_b196b28b_bab4_101a_b69c_00aa00341d07@@3U__s_GUID@@B@ATL@@QAE@XZ 10006680 f i ImageScanner.obj
 0001:000056b0       ??0?$CSimpleMap@PA_WPA_WVCExpansionVectorEqualHelper@ATL@@@ATL@@QAE@XZ 100066b0 f i ImageScanner.obj
 0001:000056f0       ??0?$CTempBuffer@E$0BAA@VCCRTAllocator@ATL@@@ATL@@QAE@XZ 100066f0 f i ImageScanner.obj
 0001:00005710       ??0?$CTempBuffer@_W$0BAA@VCCRTAllocator@ATL@@@ATL@@QAE@XZ 10006710 f i ImageScanner.obj
 0001:00005730       ??0?$CTempBuffer@_W$0EAA@VCCRTAllocator@ATL@@@ATL@@QAE@XZ 10006730 f i ImageScanner.obj
 0001:00005750       ??0?$Wrapper@PA_W@?$CSimpleMap@PA_WPA_WVCExpansionVectorEqualHelper@ATL@@@ATL@@QAE@ABQA_W@Z 10006750 f i ImageScanner.obj
 0001:00005780       ??0CAtlModule@ATL@@QAE@XZ  10006780 f i ImageScanner.obj
 0001:000058a0       ??0CComAutoDeleteCriticalSection@ATL@@QAE@XZ 100068a0 f i ImageScanner.obj
 0001:000058d0       ??0CComBSTR@ATL@@QAE@XZ    100068d0 f i ImageScanner.obj
 0001:000058f0       ??0CComClassFactory@ATL@@QAE@XZ 100068f0 f i ImageScanner.obj
 0001:00005930       ??0CComModule@ATL@@QAE@XZ  10006930 f i ImageScanner.obj
 0001:000059a0       ??0CComObjectRootBase@ATL@@QAE@XZ 100069a0 f i ImageScanner.obj
 0001:000059c0       ??0CComSafeDeleteCriticalSection@ATL@@QAE@XZ 100069c0 f i ImageScanner.obj
 0001:000059f0       ??0CComVariant@ATL@@QAE@XZ 100069f0 f i ImageScanner.obj
 0001:00005a40       ??0CExpansionVector@ATL@@QAE@XZ 10006a40 f i ImageScanner.obj
 0001:00005a70       ??0CParseBuffer@CRegParser@ATL@@QAE@H@Z 10006a70 f i ImageScanner.obj
 0001:00005ae0       ??0CRegKey@ATL@@QAE@PAUHKEY__@@@Z 10006ae0 f i ImageScanner.obj
 0001:00005b20       ??0CRegKey@ATL@@QAE@PAVCAtlTransactionManager@1@@Z 10006b20 f i ImageScanner.obj
 0001:00005b60       ??0CRegObject@ATL@@QAE@XZ  10006b60 f i ImageScanner.obj
 0001:00005ba0       ??0CRegParser@ATL@@QAE@PAVCRegObject@1@@Z 10006ba0 f i ImageScanner.obj
 0001:00005bd0       ??0IClassFactory@@QAE@XZ   10006bd0 f i ImageScanner.obj
 0001:00005c00       ??0IEnumConnectionPoints@@QAE@XZ 10006c00 f i ImageScanner.obj
 0001:00005c30       ??0IEnumConnections@@QAE@XZ 10006c30 f i ImageScanner.obj
 0001:00005c60       ??0IRegistrarBase@@QAE@XZ  10006c60 f i ImageScanner.obj
 0001:00005c90       ??0IUnknown@@QAE@XZ        10006c90 f i ImageScanner.obj
 0001:00005cb0       ??0ModuleLockHelper@ATL@@QAE@XZ 10006cb0 f i ImageScanner.obj
 0001:00005cf0       ??0OposVariant@@QAE@XZ     10006cf0 f i ImageScanner.obj
 0001:00005d20       ??0Wrapper@?$CSimpleArray@GV?$CSimpleArrayEqualHelper@G@ATL@@@ATL@@QAE@ABG@Z 10006d20 f i ImageScanner.obj
 0001:00005d50       ??0_ATL_MODULE70@ATL@@QAE@XZ 10006d50 f i ImageScanner.obj
 0001:00005d80       ??0_ATL_MSG@ATL@@QAE@PAUHWND__@@IIJH@Z 10006d80 f i ImageScanner.obj
 0001:00005df0       ??0_U_MENUorID@ATL@@QAE@I@Z 10006df0 f i ImageScanner.obj
 0001:00005e10       ??0_U_RECT@ATL@@QAE@AAUtagRECT@@@Z 10006e10 f i ImageScanner.obj
 0001:00005e30       ??0stringdispid@CComTypeInfoHolder@ATL@@QAE@XZ 10006e30 f i ImageScanner.obj
 0001:00005e70       ??1?$CAtlModuleT@VCComModule@ATL@@@ATL@@UAE@XZ 10006e70 f i ImageScanner.obj
 0001:00005ea0       ??1?$CAtlSafeAllocBufferManager@VCCRTAllocator@ATL@@@_ATL_SAFE_ALLOCA_IMPL@ATL@@QAE@XZ 10006ea0 f i ImageScanner.obj
 0001:00005ef0       ??1?$CAutoVectorPtr@_W@ATL@@QAE@XZ 10006ef0 f i ImageScanner.obj
 0001:00005f20       ??1?$CComAggObject@VCOPOSImageScanner@@@ATL@@UAE@XZ 10006f20 f i ImageScanner.obj
 0001:00005f90       ??1?$CComContainedObject@VCOPOSImageScanner@@@ATL@@UAE@XZ 10006f90 f i ImageScanner.obj
 0001:00005fc0       ??1?$CComCritSecLock@VCComCriticalSection@ATL@@@ATL@@QAE@XZ 10006fc0 f i ImageScanner.obj
 0001:00005ff0       ??1?$CComEnum@UIEnumConnectionPoints@@$1?_GUID_b196b285_bab4_101a_b69c_00aa00341d07@@3U__s_GUID@@BPAUIConnectionPoint@@V?$_CopyInterface@UIConnectionPoint@@@ATL@@VCComSingleThreadModel@6@@ATL@@UAE@XZ 10006ff0 f i ImageScanner.obj
 0001:00006020       ??1?$CComEnum@UIEnumConnections@@$1?_GUID_b196b287_bab4_101a_b69c_00aa00341d07@@3U__s_GUID@@BUtagCONNECTDATA@@V?$_Copy@UtagCONNECTDATA@@@ATL@@VCComSingleThreadModel@6@@ATL@@UAE@XZ 10007020 f i ImageScanner.obj
 0001:00006050       ??1?$CComEnumImpl@UIEnumConnectionPoints@@$1?_GUID_b196b285_bab4_101a_b69c_00aa00341d07@@3U__s_GUID@@BPAUIConnectionPoint@@V?$_CopyInterface@UIConnectionPoint@@@ATL@@@ATL@@UAE@XZ 10007050 f i ImageScanner.obj
 0001:000060e0       ??1?$CComEnumImpl@UIEnumConnections@@$1?_GUID_b196b287_bab4_101a_b69c_00aa00341d07@@3U__s_GUID@@BUtagCONNECTDATA@@V?$_Copy@UtagCONNECTDATA@@@ATL@@@ATL@@UAE@XZ 100070e0 f i ImageScanner.obj
 0001:00006170       ??1?$CComObject@V?$CComEnum@UIEnumConnectionPoints@@$1?_GUID_b196b285_bab4_101a_b69c_00aa00341d07@@3U__s_GUID@@BPAUIConnectionPoint@@V?$_CopyInterface@UIConnectionPoint@@@ATL@@VCComSingleThreadModel@6@@ATL@@@ATL@@UAE@XZ 10007170 f i ImageScanner.obj
 0001:000061d0       ??1?$CComObject@V?$CComEnum@UIEnumConnections@@$1?_GUID_b196b287_bab4_101a_b69c_00aa00341d07@@3U__s_GUID@@BUtagCONNECTDATA@@V?$_Copy@UtagCONNECTDATA@@@ATL@@VCComSingleThreadModel@6@@ATL@@@ATL@@UAE@XZ 100071d0 f i ImageScanner.obj
 0001:00006230       ??1?$CComObject@VCOPOSImageScanner@@@ATL@@UAE@XZ 10007230 f i ImageScanner.obj
 0001:00006370       ??1?$CComObjectCached@VCComClassFactory@ATL@@@ATL@@UAE@XZ 10007370 f i ImageScanner.obj
 0001:000063c0       ??1?$CComObjectRootEx@VCComMultiThreadModel@ATL@@@ATL@@QAE@XZ 100073c0 f i ImageScanner.obj
 0001:000063f0       ??1?$CComObjectRootEx@VCComSingleThreadModel@ATL@@@ATL@@QAE@XZ 100073f0 f i ImageScanner.obj
 0001:00006420       ??1?$CComPtr@UIAdviseSink@@@ATL@@QAE@XZ 10007420 f i ImageScanner.obj
 0001:00006450       ??1?$CComPtr@UICatRegister@@@ATL@@QAE@XZ 10007450 f i ImageScanner.obj
 0001:00006480       ??1?$CComPtr@UIConnectionPoint@@@ATL@@QAE@XZ 10007480 f i ImageScanner.obj
 0001:000064b0       ??1?$CComPtr@UIConnectionPointContainer@@@ATL@@QAE@XZ 100074b0 f i ImageScanner.obj
 0001:000064e0       ??1?$CComPtr@UIDataObject@@@ATL@@QAE@XZ 100074e0 f i ImageScanner.obj
 0001:00006510       ??1?$CComPtr@UIDispatch@@@ATL@@QAE@XZ 10007510 f i ImageScanner.obj
 0001:00006540       ??1?$CComPtr@UIOleClientSite@@@ATL@@QAE@XZ 10007540 f i ImageScanner.obj
 0001:00006570       ??1?$CComPtr@UIOleControlSite@@@ATL@@QAE@XZ 10007570 f i ImageScanner.obj
 0001:000065a0       ??1?$CComPtr@UIOleInPlaceActiveObject@@@ATL@@QAE@XZ 100075a0 f i ImageScanner.obj
 0001:000065d0       ??1?$CComPtr@UIOleInPlaceFrame@@@ATL@@QAE@XZ 100075d0 f i ImageScanner.obj
 0001:00006600       ??1?$CComPtr@UIOleInPlaceObject@@@ATL@@QAE@XZ 10007600 f i ImageScanner.obj
 0001:00006630       ??1?$CComPtr@UIOleInPlaceUIWindow@@@ATL@@QAE@XZ 10007630 f i ImageScanner.obj
 0001:00006660       ??1?$CComPtr@UIOleObject@@@ATL@@QAE@XZ 10007660 f i ImageScanner.obj
 0001:00006690       ??1?$CComPtr@UIPersistStream@@@ATL@@QAE@XZ 10007690 f i ImageScanner.obj
 0001:000066c0       ??1?$CComPtr@UIPersistStreamInit@@@ATL@@QAE@XZ 100076c0 f i ImageScanner.obj
 0001:000066f0       ??1?$CComPtr@UIPointerInactive@@@ATL@@QAE@XZ 100076f0 f i ImageScanner.obj
 0001:00006720       ??1?$CComPtr@UIProvideClassInfo2@@@ATL@@QAE@XZ 10007720 f i ImageScanner.obj
 0001:00006750       ??1?$CComPtr@UISpecifyPropertyPages@@@ATL@@QAE@XZ 10007750 f i ImageScanner.obj
 0001:00006780       ??1?$CComPtr@UIStream@@@ATL@@QAE@XZ 10007780 f i ImageScanner.obj
 0001:000067b0       ??1?$CComPtr@UITypeInfo2@@@ATL@@QAE@XZ 100077b0 f i ImageScanner.obj
 0001:000067e0       ??1?$CComPtr@UITypeInfo@@@ATL@@QAE@XZ 100077e0 f i ImageScanner.obj
 0001:00006810       ??1?$CComPtr@UITypeLib@@@ATL@@QAE@XZ 10007810 f i ImageScanner.obj
 0001:00006840       ??1?$CComPtr@UIUnknown@@@ATL@@QAE@XZ 10007840 f i ImageScanner.obj
 0001:00006870       ??1?$CComPtr@UIViewObjectEx@@@ATL@@QAE@XZ 10007870 f i ImageScanner.obj
 0001:000068a0       ??1?$CComPtrBase@UIAdviseSink@@@ATL@@QAE@XZ 100078a0 f i ImageScanner.obj
 0001:000068f0       ??1?$CComPtrBase@UICatRegister@@@ATL@@QAE@XZ 100078f0 f i ImageScanner.obj
 0001:00006940       ??1?$CComPtrBase@UIConnectionPoint@@@ATL@@QAE@XZ 10007940 f i ImageScanner.obj
 0001:00006990       ??1?$CComPtrBase@UIConnectionPointContainer@@@ATL@@QAE@XZ 10007990 f i ImageScanner.obj
 0001:000069e0       ??1?$CComPtrBase@UIDataObject@@@ATL@@QAE@XZ 100079e0 f i ImageScanner.obj
 0001:00006a30       ??1?$CComPtrBase@UIDispatch@@@ATL@@QAE@XZ 10007a30 f i ImageScanner.obj
 0001:00006a80       ??1?$CComPtrBase@UIOleClientSite@@@ATL@@QAE@XZ 10007a80 f i ImageScanner.obj
 0001:00006ad0       ??1?$CComPtrBase@UIOleControlSite@@@ATL@@QAE@XZ 10007ad0 f i ImageScanner.obj
 0001:00006b20       ??1?$CComPtrBase@UIOleInPlaceActiveObject@@@ATL@@QAE@XZ 10007b20 f i ImageScanner.obj
 0001:00006b70       ??1?$CComPtrBase@UIOleInPlaceFrame@@@ATL@@QAE@XZ 10007b70 f i ImageScanner.obj
 0001:00006bc0       ??1?$CComPtrBase@UIOleInPlaceObject@@@ATL@@QAE@XZ 10007bc0 f i ImageScanner.obj
 0001:00006c10       ??1?$CComPtrBase@UIOleInPlaceUIWindow@@@ATL@@QAE@XZ 10007c10 f i ImageScanner.obj
 0001:00006c60       ??1?$CComPtrBase@UIOleObject@@@ATL@@QAE@XZ 10007c60 f i ImageScanner.obj
 0001:00006cb0       ??1?$CComPtrBase@UIPersistStream@@@ATL@@QAE@XZ 10007cb0 f i ImageScanner.obj
 0001:00006d00       ??1?$CComPtrBase@UIPersistStreamInit@@@ATL@@QAE@XZ 10007d00 f i ImageScanner.obj
 0001:00006d50       ??1?$CComPtrBase@UIPointerInactive@@@ATL@@QAE@XZ 10007d50 f i ImageScanner.obj
 0001:00006da0       ??1?$CComPtrBase@UIProvideClassInfo2@@@ATL@@QAE@XZ 10007da0 f i ImageScanner.obj
 0001:00006df0       ??1?$CComPtrBase@UISpecifyPropertyPages@@@ATL@@QAE@XZ 10007df0 f i ImageScanner.obj
 0001:00006e40       ??1?$CComPtrBase@UIStream@@@ATL@@QAE@XZ 10007e40 f i ImageScanner.obj
 0001:00006e90       ??1?$CComPtrBase@UITypeInfo2@@@ATL@@QAE@XZ 10007e90 f i ImageScanner.obj
 0001:00006ee0       ??1?$CComPtrBase@UITypeInfo@@@ATL@@QAE@XZ 10007ee0 f i ImageScanner.obj
 0001:00006f30       ??1?$CComPtrBase@UITypeLib@@@ATL@@QAE@XZ 10007f30 f i ImageScanner.obj
 0001:00006f80       ??1?$CComPtrBase@UIUnknown@@@ATL@@QAE@XZ 10007f80 f i ImageScanner.obj
 0001:00006fd0       ??1?$CComPtrBase@UIViewObjectEx@@@ATL@@QAE@XZ 10007fd0 f i ImageScanner.obj
 0001:00007020       ??1?$CComQIPtr@UIOleControlSite@@$1?_GUID_b196b289_bab4_101a_b69c_00aa00341d07@@3U__s_GUID@@B@ATL@@QAE@XZ 10008020 f i ImageScanner.obj
 0001:00007050       ??1?$CComQIPtr@UIOleObject@@$1?_GUID_00000112_0000_0000_c000_000000000046@@3U__s_GUID@@B@ATL@@QAE@XZ 10008050 f i ImageScanner.obj
 0001:00007080       ??1?$CComQIPtr@UISpecifyPropertyPages@@$1?_GUID_b196b28b_bab4_101a_b69c_00aa00341d07@@3U__s_GUID@@B@ATL@@QAE@XZ 10008080 f i ImageScanner.obj
 0001:000070b0       ??1?$CSimpleMap@PA_WPA_WVCExpansionVectorEqualHelper@ATL@@@ATL@@QAE@XZ 100080b0 f i ImageScanner.obj
 0001:000070e0       ??1?$CTempBuffer@E$0BAA@VCCRTAllocator@ATL@@@ATL@@QAE@XZ 100080e0 f i ImageScanner.obj
 0001:00007120       ??1?$CTempBuffer@_W$0BAA@VCCRTAllocator@ATL@@@ATL@@QAE@XZ 10008120 f i ImageScanner.obj
 0001:00007160       ??1?$CTempBuffer@_W$0EAA@VCCRTAllocator@ATL@@@ATL@@QAE@XZ 10008160 f i ImageScanner.obj
 0001:000071a0       ??1CAtlModule@ATL@@UAE@XZ  100081a0 f i ImageScanner.obj
 0001:000071d0       ??1CComAutoDeleteCriticalSection@ATL@@QAE@XZ 100081d0 f i ImageScanner.obj
 0001:00007200       ??1CComClassFactory@ATL@@UAE@XZ 10008200 f i ImageScanner.obj
 0001:00007230       ??1CComModule@ATL@@UAE@XZ  10008230 f i ImageScanner.obj
 0001:00007260       ??1CComObjectRootBase@ATL@@QAE@XZ 10008260 f i ImageScanner.obj
 0001:00007280       ??1CComSafeDeleteCriticalSection@ATL@@QAE@XZ 10008280 f i ImageScanner.obj
 0001:000072c0       ??1CComVariant@ATL@@QAE@XZ 100082c0 f i ImageScanner.obj
 0001:00007320       ??1CExpansionVector@ATL@@QAE@XZ 10008320 f i ImageScanner.obj
 0001:00007350       ??1CParseBuffer@CRegParser@ATL@@QAE@XZ 10008350 f i ImageScanner.obj
 0001:00007390       ??1CRegKey@ATL@@QAE@XZ     10008390 f i ImageScanner.obj
 0001:000073c0       ??1CRegObject@ATL@@UAE@XZ  100083c0 f i ImageScanner.obj
 0001:00007400       ??1ModuleLockHelper@ATL@@QAE@XZ 10008400 f i ImageScanner.obj
 0001:00007440       ??1OposVariant@@QAE@XZ     10008440 f i ImageScanner.obj
 0001:00007470       ??1_ATL_MODULE70@ATL@@QAE@XZ 10008470 f i ImageScanner.obj
 0001:000074a0       ??4?$CComPtr@UIAdviseSink@@@ATL@@QAEPAUIAdviseSink@@PAU2@@Z 100084a0 f i ImageScanner.obj
 0001:00007510       ??4?$CComPtr@UIOleClientSite@@@ATL@@QAEPAUIOleClientSite@@PAU2@@Z 10008510 f i ImageScanner.obj
 0001:00007580       ??4?$CComPtr@UIUnknown@@@ATL@@QAEPAUIUnknown@@PAU2@@Z 10008580 f i ImageScanner.obj
 0001:000075f0       ??4?$CComQIPtr@UIOleObject@@$1?_GUID_00000112_0000_0000_c000_000000000046@@3U__s_GUID@@B@ATL@@QAEPAUIOleObject@@PAUIUnknown@@@Z 100085f0 f i ImageScanner.obj
 0001:00007640       ??4?$CComQIPtr@UISpecifyPropertyPages@@$1?_GUID_b196b28b_bab4_101a_b69c_00aa00341d07@@3U__s_GUID@@B@ATL@@QAEPAUISpecifyPropertyPages@@PAUIUnknown@@@Z 10008640 f i ImageScanner.obj
 0001:00007690       ??7?$CComPtrBase@UIOleClientSite@@@ATL@@QBE_NXZ 10008690 f i ImageScanner.obj
 0001:000076d0       ??7?$CComPtrBase@UIOleInPlaceSiteWindowless@@@ATL@@QBE_NXZ 100086d0 f i ImageScanner.obj
 0001:00007710       ??7CComBSTR@ATL@@QBE_NXZ   10008710 f i ImageScanner.obj
 0001:00007750       ??8?$CComPtrBase@UIAdviseSink@@@ATL@@QBE_NPAUIAdviseSink@@@Z 10008750 f i ImageScanner.obj
 0001:00007790       ??8?$CComPtrBase@UIConnectionPointContainer@@@ATL@@QBE_NPAUIConnectionPointContainer@@@Z 10008790 f i ImageScanner.obj
 0001:000077d0       ??8?$CComPtrBase@UIDataAdviseHolder@@@ATL@@QBE_NPAUIDataAdviseHolder@@@Z 100087d0 f i ImageScanner.obj
 0001:00007810       ??8?$CComPtrBase@UIOleAdviseHolder@@@ATL@@QBE_NPAUIOleAdviseHolder@@@Z 10008810 f i ImageScanner.obj
 0001:00007850       ??8?$CComPtrBase@UIOleClientSite@@@ATL@@QBE_NPAUIOleClientSite@@@Z 10008850 f i ImageScanner.obj
 0001:00007890       ??8?$CComPtrBase@UIOleControlSite@@@ATL@@QBE_NPAUIOleControlSite@@@Z 10008890 f i ImageScanner.obj
 0001:000078d0       ??8?$CComPtrBase@UIOleInPlaceObject@@@ATL@@QBE_NPAUIOleInPlaceObject@@@Z 100088d0 f i ImageScanner.obj
 0001:00007910       ??8?$CComPtrBase@UIOleInPlaceSiteWindowless@@@ATL@@QBE_NPAUIOleInPlaceSiteWindowless@@@Z 10008910 f i ImageScanner.obj
 0001:00007950       ??8?$CComPtrBase@UIOleObject@@@ATL@@QBE_NPAUIOleObject@@@Z 10008950 f i ImageScanner.obj
 0001:00007990       ??8?$CComPtrBase@UIPersistStream@@@ATL@@QBE_NPAUIPersistStream@@@Z 10008990 f i ImageScanner.obj
 0001:000079d0       ??8?$CComPtrBase@UIPersistStreamInit@@@ATL@@QBE_NPAUIPersistStreamInit@@@Z 100089d0 f i ImageScanner.obj
 0001:00007a10       ??8?$CComPtrBase@UIPointerInactive@@@ATL@@QBE_NPAUIPointerInactive@@@Z 10008a10 f i ImageScanner.obj
 0001:00007a50       ??8?$CComPtrBase@UIUnknown@@@ATL@@QBE_NPAUIUnknown@@@Z 10008a50 f i ImageScanner.obj
 0001:00007a90       ??8?$CComPtrBase@UIViewObjectEx@@@ATL@@QBE_NPAUIViewObjectEx@@@Z 10008a90 f i ImageScanner.obj
 0001:00007ad0       ??8CComBSTR@ATL@@QBE_NH@Z  10008ad0 f i ImageScanner.obj
 0001:00007b30       ??9?$CComPtrBase@UIAdviseSink@@@ATL@@QBE_NPAUIAdviseSink@@@Z 10008b30 f i ImageScanner.obj
 0001:00007b80       ??9?$CComPtrBase@UIConnectionPointContainer@@@ATL@@QBE_NPAUIConnectionPointContainer@@@Z 10008b80 f i ImageScanner.obj
 0001:00007bd0       ??9?$CComPtrBase@UIDataAdviseHolder@@@ATL@@QBE_NPAUIDataAdviseHolder@@@Z 10008bd0 f i ImageScanner.obj
 0001:00007c20       ??9?$CComPtrBase@UIOleAdviseHolder@@@ATL@@QBE_NPAUIOleAdviseHolder@@@Z 10008c20 f i ImageScanner.obj
 0001:00007c70       ??9?$CComPtrBase@UIOleClientSite@@@ATL@@QBE_NPAUIOleClientSite@@@Z 10008c70 f i ImageScanner.obj
 0001:00007cc0       ??9?$CComPtrBase@UIOleControlSite@@@ATL@@QBE_NPAUIOleControlSite@@@Z 10008cc0 f i ImageScanner.obj
 0001:00007d10       ??9?$CComPtrBase@UIOleInPlaceObject@@@ATL@@QBE_NPAUIOleInPlaceObject@@@Z 10008d10 f i ImageScanner.obj
 0001:00007d60       ??9?$CComPtrBase@UIOleInPlaceSiteWindowless@@@ATL@@QBE_NPAUIOleInPlaceSiteWindowless@@@Z 10008d60 f i ImageScanner.obj
 0001:00007db0       ??9?$CComPtrBase@UIOleObject@@@ATL@@QBE_NPAUIOleObject@@@Z 10008db0 f i ImageScanner.obj
 0001:00007e00       ??9?$CComPtrBase@UIPersistStream@@@ATL@@QBE_NPAUIPersistStream@@@Z 10008e00 f i ImageScanner.obj
 0001:00007e50       ??9?$CComPtrBase@UIPersistStreamInit@@@ATL@@QBE_NPAUIPersistStreamInit@@@Z 10008e50 f i ImageScanner.obj
 0001:00007ea0       ??9?$CComPtrBase@UIPointerInactive@@@ATL@@QBE_NPAUIPointerInactive@@@Z 10008ea0 f i ImageScanner.obj
 0001:00007ef0       ??9?$CComPtrBase@UIUnknown@@@ATL@@QBE_NPAUIUnknown@@@Z 10008ef0 f i ImageScanner.obj
 0001:00007f40       ??9?$CComPtrBase@UIViewObjectEx@@@ATL@@QBE_NPAUIViewObjectEx@@@Z 10008f40 f i ImageScanner.obj
 0001:00007f90       ??9CComBSTR@ATL@@QBE_NH@Z  10008f90 f i ImageScanner.obj
 0001:00007fe0       ??B?$CComPtrBase@UIAdviseSink@@@ATL@@QBEPAUIAdviseSink@@XZ 10008fe0 f i ImageScanner.obj
 0001:00008000       ??B?$CComPtrBase@UIDataAdviseHolder@@@ATL@@QBEPAUIDataAdviseHolder@@XZ 10009000 f i ImageScanner.obj
 0001:00008020       ??B?$CComPtrBase@UIDataObject@@@ATL@@QBEPAUIDataObject@@XZ 10009020 f i ImageScanner.obj
 0001:00008040       ??B?$CComPtrBase@UIOleAdviseHolder@@@ATL@@QBEPAUIOleAdviseHolder@@XZ 10009040 f i ImageScanner.obj
 0001:00008060       ??B?$CComPtrBase@UIOleClientSite@@@ATL@@QBEPAUIOleClientSite@@XZ 10009060 f i ImageScanner.obj
 0001:00008080       ??B?$CComPtrBase@UIOleControlSite@@@ATL@@QBEPAUIOleControlSite@@XZ 10009080 f i ImageScanner.obj
 0001:000080a0       ??B?$CComPtrBase@UIOleInPlaceActiveObject@@@ATL@@QBEPAUIOleInPlaceActiveObject@@XZ 100090a0 f i ImageScanner.obj
 0001:000080c0       ??B?$CComPtrBase@UIOleInPlaceFrame@@@ATL@@QBEPAUIOleInPlaceFrame@@XZ 100090c0 f i ImageScanner.obj
 0001:000080e0       ??B?$CComPtrBase@UIOleInPlaceSiteWindowless@@@ATL@@QBEPAUIOleInPlaceSiteWindowless@@XZ 100090e0 f i ImageScanner.obj
 0001:00008100       ??B?$CComPtrBase@UIOleInPlaceUIWindow@@@ATL@@QBEPAUIOleInPlaceUIWindow@@XZ 10009100 f i ImageScanner.obj
 0001:00008120       ??B?$CComPtrBase@UIOleObject@@@ATL@@QBEPAUIOleObject@@XZ 10009120 f i ImageScanner.obj
 0001:00008140       ??B?$CComPtrBase@UIPersistStream@@@ATL@@QBEPAUIPersistStream@@XZ 10009140 f i ImageScanner.obj
 0001:00008160       ??B?$CComPtrBase@UIProvideClassInfo2@@@ATL@@QBEPAUIProvideClassInfo2@@XZ 10009160 f i ImageScanner.obj
 0001:00008180       ??B?$CComPtrBase@UISpecifyPropertyPages@@@ATL@@QBEPAUISpecifyPropertyPages@@XZ 10009180 f i ImageScanner.obj
 0001:000081a0       ??B?$CComPtrBase@UIStream@@@ATL@@QBEPAUIStream@@XZ 100091a0 f i ImageScanner.obj
 0001:000081c0       ??B?$CComPtrBase@UITypeInfo2@@@ATL@@QBEPAUITypeInfo2@@XZ 100091c0 f i ImageScanner.obj
 0001:000081e0       ??B?$CComPtrBase@UITypeInfo@@@ATL@@QBEPAUITypeInfo@@XZ 100091e0 f i ImageScanner.obj
 0001:00008200       ??B?$CComPtrBase@UITypeLib@@@ATL@@QBEPAUITypeLib@@XZ 10009200 f i ImageScanner.obj
 0001:00008220       ??B?$CComPtrBase@UIUnknown@@@ATL@@QBEPAUIUnknown@@XZ 10009220 f i ImageScanner.obj
 0001:00008240       ??B?$CTempBuffer@E$0BAA@VCCRTAllocator@ATL@@@ATL@@QBEPAEXZ 10009240 f i ImageScanner.obj
 0001:00008260       ??B?$CTempBuffer@_W$0BAA@VCCRTAllocator@ATL@@@ATL@@QBEPA_WXZ 10009260 f i ImageScanner.obj
 0001:00008280       ??B?$CTempBuffer@_W$0EAA@VCCRTAllocator@ATL@@@ATL@@QBEPA_WXZ 10009280 f i ImageScanner.obj
 0001:000082a0       ??B?$CTraceCategoryEx@$00$0A@@ATL@@QAEIXZ 100092a0 f i ImageScanner.obj
 0001:000082c0       ??B?$CTraceCategoryEx@$07$0A@@ATL@@QAEIXZ 100092c0 f i ImageScanner.obj
 0001:000082e0       ??B?$CTraceCategoryEx@$0CAAA@$0A@@ATL@@QAEIXZ 100092e0 f i ImageScanner.obj
 0001:00008300       ??B?$CTraceCategoryEx@$0EA@$0A@@ATL@@QAEIXZ 10009300 f i ImageScanner.obj
 0001:00008320       ??B?$CTraceCategoryEx@$0IAA@$0A@@ATL@@QAEIXZ 10009320 f i ImageScanner.obj
 0001:00008340       ??BCComBSTR@ATL@@QBEPA_WXZ 10009340 f i ImageScanner.obj
 0001:00008360       ??BCRegKey@ATL@@QBEPAUHKEY__@@XZ 10009360 f i ImageScanner.obj
 0001:00008380       ??C?$CComPtrBase@UIAdviseSink@@@ATL@@QBEPAV?$_NoAddRefReleaseOnCComPtr@UIAdviseSink@@@1@XZ 10009380 f i ImageScanner.obj
 0001:000083d0       ??C?$CComPtrBase@UICatRegister@@@ATL@@QBEPAV?$_NoAddRefReleaseOnCComPtr@UICatRegister@@@1@XZ 100093d0 f i ImageScanner.obj
 0001:00008420       ??C?$CComPtrBase@UIConnectionPoint@@@ATL@@QBEPAV?$_NoAddRefReleaseOnCComPtr@UIConnectionPoint@@@1@XZ 10009420 f i ImageScanner.obj
 0001:00008470       ??C?$CComPtrBase@UIConnectionPointContainer@@@ATL@@QBEPAV?$_NoAddRefReleaseOnCComPtr@UIConnectionPointContainer@@@1@XZ 10009470 f i ImageScanner.obj
 0001:000084c0       ??C?$CComPtrBase@UIDataAdviseHolder@@@ATL@@QBEPAV?$_NoAddRefReleaseOnCComPtr@UIDataAdviseHolder@@@1@XZ 100094c0 f i ImageScanner.obj
 0001:00008510       ??C?$CComPtrBase@UIOleAdviseHolder@@@ATL@@QBEPAV?$_NoAddRefReleaseOnCComPtr@UIOleAdviseHolder@@@1@XZ 10009510 f i ImageScanner.obj
 0001:00008560       ??C?$CComPtrBase@UIOleClientSite@@@ATL@@QBEPAV?$_NoAddRefReleaseOnCComPtr@UIOleClientSite@@@1@XZ 10009560 f i ImageScanner.obj
 0001:000085b0       ??C?$CComPtrBase@UIOleControlSite@@@ATL@@QBEPAV?$_NoAddRefReleaseOnCComPtr@UIOleControlSite@@@1@XZ 100095b0 f i ImageScanner.obj
 0001:00008600       ??C?$CComPtrBase@UIOleInPlaceFrame@@@ATL@@QBEPAV?$_NoAddRefReleaseOnCComPtr@UIOleInPlaceFrame@@@1@XZ 10009600 f i ImageScanner.obj
 0001:00008650       ??C?$CComPtrBase@UIOleInPlaceObject@@@ATL@@QBEPAV?$_NoAddRefReleaseOnCComPtr@UIOleInPlaceObject@@@1@XZ 10009650 f i ImageScanner.obj
 0001:000086a0       ??C?$CComPtrBase@UIOleInPlaceSiteWindowless@@@ATL@@QBEPAV?$_NoAddRefReleaseOnCComPtr@UIOleInPlaceSiteWindowless@@@1@XZ 100096a0 f i ImageScanner.obj
 0001:000086f0       ??C?$CComPtrBase@UIOleInPlaceUIWindow@@@ATL@@QBEPAV?$_NoAddRefReleaseOnCComPtr@UIOleInPlaceUIWindow@@@1@XZ 100096f0 f i ImageScanner.obj
 0001:00008740       ??C?$CComPtrBase@UIOleObject@@@ATL@@QBEPAV?$_NoAddRefReleaseOnCComPtr@UIOleObject@@@1@XZ 10009740 f i ImageScanner.obj
 0001:00008790       ??C?$CComPtrBase@UIPersistStream@@@ATL@@QBEPAV?$_NoAddRefReleaseOnCComPtr@UIPersistStream@@@1@XZ 10009790 f i ImageScanner.obj
 0001:000087e0       ??C?$CComPtrBase@UIPersistStreamInit@@@ATL@@QBEPAV?$_NoAddRefReleaseOnCComPtr@UIPersistStreamInit@@@1@XZ 100097e0 f i ImageScanner.obj
 0001:00008830       ??C?$CComPtrBase@UIPointerInactive@@@ATL@@QBEPAV?$_NoAddRefReleaseOnCComPtr@UIPointerInactive@@@1@XZ 10009830 f i ImageScanner.obj
 0001:00008880       ??C?$CComPtrBase@UIProvideClassInfo2@@@ATL@@QBEPAV?$_NoAddRefReleaseOnCComPtr@UIProvideClassInfo2@@@1@XZ 10009880 f i ImageScanner.obj
 0001:000088d0       ??C?$CComPtrBase@UISpecifyPropertyPages@@@ATL@@QBEPAV?$_NoAddRefReleaseOnCComPtr@UISpecifyPropertyPages@@@1@XZ 100098d0 f i ImageScanner.obj
 0001:00008920       ??C?$CComPtrBase@UITypeInfo@@@ATL@@QBEPAV?$_NoAddRefReleaseOnCComPtr@UITypeInfo@@@1@XZ 10009920 f i ImageScanner.obj
 0001:00008970       ??C?$CComPtrBase@UITypeLib@@@ATL@@QBEPAV?$_NoAddRefReleaseOnCComPtr@UITypeLib@@@1@XZ 10009970 f i ImageScanner.obj
 0001:000089c0       ??C?$CComPtrBase@UIUnknown@@@ATL@@QBEPAV?$_NoAddRefReleaseOnCComPtr@UIUnknown@@@1@XZ 100099c0 f i ImageScanner.obj
 0001:00008a10       ??C?$CComPtrBase@UIViewObjectEx@@@ATL@@QBEPAV?$_NoAddRefReleaseOnCComPtr@UIViewObjectEx@@@1@XZ 10009a10 f i ImageScanner.obj
 0001:00008a60       ??I?$CComPtrBase@UICatRegister@@@ATL@@QAEPAPAUICatRegister@@XZ 10009a60 f i ImageScanner.obj
 0001:00008ab0       ??I?$CComPtrBase@UIConnectionPoint@@@ATL@@QAEPAPAUIConnectionPoint@@XZ 10009ab0 f i ImageScanner.obj
 0001:00008b00       ??I?$CComPtrBase@UIConnectionPointContainer@@@ATL@@QAEPAPAUIConnectionPointContainer@@XZ 10009b00 f i ImageScanner.obj
 0001:00008b50       ??I?$CComPtrBase@UIDataAdviseHolder@@@ATL@@QAEPAPAUIDataAdviseHolder@@XZ 10009b50 f i ImageScanner.obj
 0001:00008ba0       ??I?$CComPtrBase@UIDataObject@@@ATL@@QAEPAPAUIDataObject@@XZ 10009ba0 f i ImageScanner.obj
 0001:00008bf0       ??I?$CComPtrBase@UIDispatch@@@ATL@@QAEPAPAUIDispatch@@XZ 10009bf0 f i ImageScanner.obj
 0001:00008c40       ??I?$CComPtrBase@UIOleAdviseHolder@@@ATL@@QAEPAPAUIOleAdviseHolder@@XZ 10009c40 f i ImageScanner.obj
 0001:00008c90       ??I?$CComPtrBase@UIOleControlSite@@@ATL@@QAEPAPAUIOleControlSite@@XZ 10009c90 f i ImageScanner.obj
 0001:00008ce0       ??I?$CComPtrBase@UIOleInPlaceActiveObject@@@ATL@@QAEPAPAUIOleInPlaceActiveObject@@XZ 10009ce0 f i ImageScanner.obj
 0001:00008d30       ??I?$CComPtrBase@UIOleInPlaceFrame@@@ATL@@QAEPAPAUIOleInPlaceFrame@@XZ 10009d30 f i ImageScanner.obj
 0001:00008d80       ??I?$CComPtrBase@UIOleInPlaceObject@@@ATL@@QAEPAPAUIOleInPlaceObject@@XZ 10009d80 f i ImageScanner.obj
 0001:00008dd0       ??I?$CComPtrBase@UIOleInPlaceSiteWindowless@@@ATL@@QAEPAPAUIOleInPlaceSiteWindowless@@XZ 10009dd0 f i ImageScanner.obj
 0001:00008e20       ??I?$CComPtrBase@UIOleInPlaceUIWindow@@@ATL@@QAEPAPAUIOleInPlaceUIWindow@@XZ 10009e20 f i ImageScanner.obj
 0001:00008e70       ??I?$CComPtrBase@UIOleObject@@@ATL@@QAEPAPAUIOleObject@@XZ 10009e70 f i ImageScanner.obj
 0001:00008ec0       ??I?$CComPtrBase@UIPersistStream@@@ATL@@QAEPAPAUIPersistStream@@XZ 10009ec0 f i ImageScanner.obj
 0001:00008f10       ??I?$CComPtrBase@UIPointerInactive@@@ATL@@QAEPAPAUIPointerInactive@@XZ 10009f10 f i ImageScanner.obj
 0001:00008f60       ??I?$CComPtrBase@UIProvideClassInfo2@@@ATL@@QAEPAPAUIProvideClassInfo2@@XZ 10009f60 f i ImageScanner.obj
 0001:00008fb0       ??I?$CComPtrBase@UIStream@@@ATL@@QAEPAPAUIStream@@XZ 10009fb0 f i ImageScanner.obj
 0001:00009000       ??I?$CComPtrBase@UITypeInfo2@@@ATL@@QAEPAPAUITypeInfo2@@XZ 1000a000 f i ImageScanner.obj
 0001:00009050       ??I?$CComPtrBase@UITypeInfo@@@ATL@@QAEPAPAUITypeInfo@@XZ 1000a050 f i ImageScanner.obj
 0001:000090a0       ??I?$CComPtrBase@UITypeLib@@@ATL@@QAEPAPAUITypeLib@@XZ 1000a0a0 f i ImageScanner.obj
 0001:000090f0       ??I?$CComPtrBase@UIUnknown@@@ATL@@QAEPAPAUIUnknown@@XZ 1000a0f0 f i ImageScanner.obj
 0001:00009140       ??I?$CComPtrBase@UIViewObjectEx@@@ATL@@QAEPAPAUIViewObjectEx@@XZ 1000a140 f i ImageScanner.obj
 0001:00009190       ??ICComBSTR@ATL@@QAEPAPA_WXZ 1000a190 f i ImageScanner.obj
 0001:000091a5       ??_E?$CComContainedObject@VCOPOSImageScanner@@@ATL@@W3AEPAXI@Z 1000a1a5 f i ImageScanner.obj
 0001:000091ad       ??_E?$CComContainedObject@VCOPOSImageScanner@@@ATL@@WEM@AEPAXI@Z 1000a1ad f i ImageScanner.obj
 0001:000091b5       ??_E?$CComObject@VCOPOSImageScanner@@@ATL@@W3AEPAXI@Z 1000a1b5 f i ImageScanner.obj
 0001:000091bd       ??_E?$CComObject@VCOPOSImageScanner@@@ATL@@WEM@AEPAXI@Z 1000a1bd f i ImageScanner.obj
 0001:000091d0       ??_E?$CComAggObject@VCOPOSImageScanner@@@ATL@@UAEPAXI@Z 1000a1d0 f i ImageScanner.obj
 0001:000091d0       ??_G?$CComAggObject@VCOPOSImageScanner@@@ATL@@UAEPAXI@Z 1000a1d0 f i ImageScanner.obj
 0001:00009220       ??_G?$CComContainedObject@VCOPOSImageScanner@@@ATL@@UAEPAXI@Z 1000a220 f i ImageScanner.obj
 0001:00009220       ??_E?$CComContainedObject@VCOPOSImageScanner@@@ATL@@UAEPAXI@Z 1000a220 f i ImageScanner.obj
 0001:00009270       ??_G?$CComObject@V?$CComEnum@UIEnumConnectionPoints@@$1?_GUID_b196b285_bab4_101a_b69c_00aa00341d07@@3U__s_GUID@@BPAUIConnectionPoint@@V?$_CopyInterface@UIConnectionPoint@@@ATL@@VCComSingleThreadModel@6@@ATL@@@ATL@@UAEPAXI@Z 1000a270 f i ImageScanner.obj
 0001:00009270       ??_E?$CComObject@V?$CComEnum@UIEnumConnectionPoints@@$1?_GUID_b196b285_bab4_101a_b69c_00aa00341d07@@3U__s_GUID@@BPAUIConnectionPoint@@V?$_CopyInterface@UIConnectionPoint@@@ATL@@VCComSingleThreadModel@6@@ATL@@@ATL@@UAEPAXI@Z 1000a270 f i ImageScanner.obj
 0001:000092b0       ??_G?$CComObject@V?$CComEnum@UIEnumConnections@@$1?_GUID_b196b287_bab4_101a_b69c_00aa00341d07@@3U__s_GUID@@BUtagCONNECTDATA@@V?$_Copy@UtagCONNECTDATA@@@ATL@@VCComSingleThreadModel@6@@ATL@@@ATL@@UAEPAXI@Z 1000a2b0 f i ImageScanner.obj
 0001:000092b0       ??_E?$CComObject@V?$CComEnum@UIEnumConnections@@$1?_GUID_b196b287_bab4_101a_b69c_00aa00341d07@@3U__s_GUID@@BUtagCONNECTDATA@@V?$_Copy@UtagCONNECTDATA@@@ATL@@VCComSingleThreadModel@6@@ATL@@@ATL@@UAEPAXI@Z 1000a2b0 f i ImageScanner.obj
 0001:000092f0       ??_G?$CComObject@VCOPOSImageScanner@@@ATL@@UAEPAXI@Z 1000a2f0 f i ImageScanner.obj
 0001:000092f0       ??_E?$CComObject@VCOPOSImageScanner@@@ATL@@UAEPAXI@Z 1000a2f0 f i ImageScanner.obj
 0001:00009340       ??_G?$CComObjectCached@VCComClassFactory@ATL@@@ATL@@UAEPAXI@Z 1000a340 f i ImageScanner.obj
 0001:00009340       ??_E?$CComObjectCached@VCComClassFactory@ATL@@@ATL@@UAEPAXI@Z 1000a340 f i ImageScanner.obj
 0001:00009380       ??_ECComClassFactory@ATL@@UAEPAXI@Z 1000a380 f i ImageScanner.obj
 0001:00009380       ??_GCComClassFactory@ATL@@UAEPAXI@Z 1000a380 f i ImageScanner.obj
 0001:000093c0       ??_GCComModule@ATL@@UAEPAXI@Z 1000a3c0 f i ImageScanner.obj
 0001:000093c0       ??_ECComModule@ATL@@UAEPAXI@Z 1000a3c0 f i ImageScanner.obj
 0001:00009400       ??_GCRegObject@ATL@@UAEPAXI@Z 1000a400 f i ImageScanner.obj
 0001:00009400       ??_ECRegObject@ATL@@UAEPAXI@Z 1000a400 f i ImageScanner.obj
 0001:00009440       ?Add@?$CSimpleArray@GV?$CSimpleArrayEqualHelper@G@ATL@@@ATL@@QAEHABG@Z 1000a440 f i ImageScanner.obj
 0001:00009590       ?Add@?$CSimpleMap@PA_WPA_WVCExpansionVectorEqualHelper@ATL@@@ATL@@QAEHABQA_W0@Z 1000a590 f i ImageScanner.obj
 0001:00009650       ?Add@CComDynamicUnkArray@ATL@@QAEKPAUIUnknown@@@Z 1000a650 f i ImageScanner.obj
 0001:000097f0       ?Add@CExpansionVector@ATL@@QAEHPB_W0@Z 1000a7f0 f i ImageScanner.obj
 0001:00009a80       ?AddChar@CParseBuffer@CRegParser@ATL@@QAEHPB_W@Z 1000aa80 f i ImageScanner.obj
 0001:00009ac0       ?AddCommonRGSReplacements@?$CAtlModuleT@VCComModule@ATL@@@ATL@@UAEJPAUIRegistrarBase@@@Z 1000aac0 f i ImageScanner.obj
 0001:00009b10       ?AddCreateWndData@CAtlWinModule@ATL@@QAEXPAU_AtlCreateWndData@2@PAX@Z 1000ab10 f i ImageScanner.obj
 0001:00009b40       ?AddRef@?$CComAggObject@VCOPOSImageScanner@@@ATL@@UAGKXZ 1000ab40 f i ImageScanner.obj
 0001:00009b60       ?AddRef@?$CComContainedObject@VCOPOSImageScanner@@@ATL@@UAGKXZ 1000ab60 f i ImageScanner.obj
 0001:00009b7c       ?AddRef@?$CComContainedObject@VCOPOSImageScanner@@@ATL@@WHA@AGKXZ 1000ab7c f i ImageScanner.obj
 0001:00009b86       ?AddRef@?$CComContainedObject@VCOPOSImageScanner@@@ATL@@WHE@AGKXZ 1000ab86 f i ImageScanner.obj
 0001:00009b90       ?AddRef@?$CComContainedObject@VCOPOSImageScanner@@@ATL@@WHI@AGKXZ 1000ab90 f i ImageScanner.obj
 0001:00009b9a       ?AddRef@?$CComContainedObject@VCOPOSImageScanner@@@ATL@@WHM@AGKXZ 1000ab9a f i ImageScanner.obj
 0001:00009ba4       ?AddRef@?$CComContainedObject@VCOPOSImageScanner@@@ATL@@WIA@AGKXZ 1000aba4 f i ImageScanner.obj
 0001:00009bb1       ?AddRef@?$CComContainedObject@VCOPOSImageScanner@@@ATL@@WIE@AGKXZ 1000abb1 f i ImageScanner.obj
 0001:00009bbe       ?AddRef@?$CComContainedObject@VCOPOSImageScanner@@@ATL@@WII@AGKXZ 1000abbe f i ImageScanner.obj
 0001:00009bcb       ?AddRef@?$CComContainedObject@VCOPOSImageScanner@@@ATL@@WIM@AGKXZ 1000abcb f i ImageScanner.obj
 0001:00009bd8       ?AddRef@?$CComContainedObject@VCOPOSImageScanner@@@ATL@@WJA@AGKXZ 1000abd8 f i ImageScanner.obj
 0001:00009be5       ?AddRef@?$CComContainedObject@VCOPOSImageScanner@@@ATL@@WJE@AGKXZ 1000abe5 f i ImageScanner.obj
 0001:00009bf2       ?AddRef@?$CComContainedObject@VCOPOSImageScanner@@@ATL@@WJI@AGKXZ 1000abf2 f i ImageScanner.obj
 0001:00009bff       ?AddRef@?$CComContainedObject@VCOPOSImageScanner@@@ATL@@WJM@AGKXZ 1000abff f i ImageScanner.obj
 0001:00009c0c       ?AddRef@?$CComContainedObject@VCOPOSImageScanner@@@ATL@@WKA@AGKXZ 1000ac0c f i ImageScanner.obj
 0001:00009c19       ?AddRef@?$CComContainedObject@VCOPOSImageScanner@@@ATL@@WKI@AGKXZ 1000ac19 f i ImageScanner.obj
 0001:00009c26       ?AddRef@?$CComContainedObject@VCOPOSImageScanner@@@ATL@@WLE@AGKXZ 1000ac26 f i ImageScanner.obj
 0001:00009c40       ?AddRef@?$CComObject@V?$CComEnum@UIEnumConnectionPoints@@$1?_GUID_b196b285_bab4_101a_b69c_00aa00341d07@@3U__s_GUID@@BPAUIConnectionPoint@@V?$_CopyInterface@UIConnectionPoint@@@ATL@@VCComSingleThreadModel@6@@ATL@@@ATL@@UAGKXZ 1000ac40 f i ImageScanner.obj
 0001:00009c60       ?AddRef@?$CComObject@V?$CComEnum@UIEnumConnections@@$1?_GUID_b196b287_bab4_101a_b69c_00aa00341d07@@3U__s_GUID@@BUtagCONNECTDATA@@V?$_Copy@UtagCONNECTDATA@@@ATL@@VCComSingleThreadModel@6@@ATL@@@ATL@@UAGKXZ 1000ac60 f i ImageScanner.obj
 0001:00009c80       ?AddRef@?$CComObject@VCOPOSImageScanner@@@ATL@@UAGKXZ 1000ac80 f i ImageScanner.obj
 0001:00009c9c       ?AddRef@?$CComObject@VCOPOSImageScanner@@@ATL@@WHA@AGKXZ 1000ac9c f i ImageScanner.obj
 0001:00009ca6       ?AddRef@?$CComObject@VCOPOSImageScanner@@@ATL@@WHE@AGKXZ 1000aca6 f i ImageScanner.obj
 0001:00009cb0       ?AddRef@?$CComObject@VCOPOSImageScanner@@@ATL@@WHI@AGKXZ 1000acb0 f i ImageScanner.obj
 0001:00009cba       ?AddRef@?$CComObject@VCOPOSImageScanner@@@ATL@@WHM@AGKXZ 1000acba f i ImageScanner.obj
 0001:00009cc4       ?AddRef@?$CComObject@VCOPOSImageScanner@@@ATL@@WIA@AGKXZ 1000acc4 f i ImageScanner.obj
 0001:00009cd1       ?AddRef@?$CComObject@VCOPOSImageScanner@@@ATL@@WIE@AGKXZ 1000acd1 f i ImageScanner.obj
 0001:00009cde       ?AddRef@?$CComObject@VCOPOSImageScanner@@@ATL@@WII@AGKXZ 1000acde f i ImageScanner.obj
 0001:00009ceb       ?AddRef@?$CComObject@VCOPOSImageScanner@@@ATL@@WIM@AGKXZ 1000aceb f i ImageScanner.obj
 0001:00009cf8       ?AddRef@?$CComObject@VCOPOSImageScanner@@@ATL@@WJA@AGKXZ 1000acf8 f i ImageScanner.obj
 0001:00009d05       ?AddRef@?$CComObject@VCOPOSImageScanner@@@ATL@@WJE@AGKXZ 1000ad05 f i ImageScanner.obj
 0001:00009d12       ?AddRef@?$CComObject@VCOPOSImageScanner@@@ATL@@WJI@AGKXZ 1000ad12 f i ImageScanner.obj
 0001:00009d1f       ?AddRef@?$CComObject@VCOPOSImageScanner@@@ATL@@WJM@AGKXZ 1000ad1f f i ImageScanner.obj
 0001:00009d2c       ?AddRef@?$CComObject@VCOPOSImageScanner@@@ATL@@WKA@AGKXZ 1000ad2c f i ImageScanner.obj
 0001:00009d39       ?AddRef@?$CComObject@VCOPOSImageScanner@@@ATL@@WKI@AGKXZ 1000ad39 f i ImageScanner.obj
 0001:00009d46       ?AddRef@?$CComObject@VCOPOSImageScanner@@@ATL@@WLE@AGKXZ 1000ad46 f i ImageScanner.obj
 0001:00009d60       ?AddRef@?$CComObjectCached@VCComClassFactory@ATL@@@ATL@@UAGKXZ 1000ad60 f i ImageScanner.obj
 0001:00009db0       ?AddRef@CRegObject@ATL@@UAGKXZ 1000adb0 f i ImageScanner.obj
 0001:00009e00       ?AddReplacement@CRegObject@ATL@@UAGJPB_W0@Z 1000ae00 f i ImageScanner.obj
 0001:00009f10       ?AddString@CParseBuffer@CRegParser@ATL@@QAEHPB_W@Z 1000af10 f i ImageScanner.obj
 0001:0000a000       ?AddTermFunc@CAtlModule@ATL@@QAEJP6GXK@ZK@Z 1000b000 f i ImageScanner.obj
 0001:0000a050       ?AddValue@CRegParser@ATL@@IAEJAAVCRegKey@2@PB_WPA_W@Z 1000b050 f i ImageScanner.obj
 0001:0000a7e0       ?Advise@?$CProxy_IOPOSEvents@VCOPOSImageScanner@@@@UAGJPAUIUnknown@@PAK@Z 1000b7e0 f i ImageScanner.obj
 0001:0000a830       ?Advise@?$IConnectionPointImpl@VCOPOSImageScanner@@$1?DIID__IOPOSImageScannerEvents@@3U_GUID@@BVCComDynamicUnkArray@ATL@@@ATL@@UAGJPAUIUnknown@@PAK@Z 1000b830 f i ImageScanner.obj
 0001:0000a9d0       ?Advise@?$IConnectionPointImpl@VCOPOSImageScanner@@$1?IID_IPropertyNotifySink@@3U_GUID@@BVCComDynamicUnkArray@ATL@@@ATL@@UAGJPAUIUnknown@@PAK@Z 1000b9d0 f i ImageScanner.obj
 0001:0000ab70       ?Advise@?$IOleObjectImpl@VCOPOSImageScanner@@@ATL@@UAGJPAUIAdviseSink@@PAK@Z 1000bb70 f i ImageScanner.obj
 0001:0000ac00       ?Allocate@?$CAtlSafeAllocBufferManager@VCCRTAllocator@ATL@@@_ATL_SAFE_ALLOCA_IMPL@ATL@@QAEPAXK@Z 1000bc00 f i ImageScanner.obj
 0001:0000ac70       ?Allocate@?$CTempBuffer@E$0BAA@VCCRTAllocator@ATL@@@ATL@@QAEPAEI@Z 1000bc70 f i ImageScanner.obj
 0001:0000acb0       ?Allocate@?$CTempBuffer@_W$0BAA@VCCRTAllocator@ATL@@@ATL@@QAEPA_WI@Z 1000bcb0 f i ImageScanner.obj
 0001:0000acf0       ?Allocate@?$CTempBuffer@_W$0EAA@VCCRTAllocator@ATL@@@ATL@@QAEPA_WI@Z 1000bcf0 f i ImageScanner.obj
 0001:0000ad30       ?AllocateBytes@?$CTempBuffer@E$0BAA@VCCRTAllocator@ATL@@@ATL@@QAEPAEI@Z 1000bd30 f i ImageScanner.obj
 0001:0000adb0       ?AllocateBytes@?$CTempBuffer@_W$0BAA@VCCRTAllocator@ATL@@@ATL@@QAEPA_WI@Z 1000bdb0 f i ImageScanner.obj
 0001:0000ae30       ?AllocateBytes@?$CTempBuffer@_W$0EAA@VCCRTAllocator@ATL@@@ATL@@QAEPA_WI@Z 1000be30 f i ImageScanner.obj
 0001:0000aeb0       ?AllocateHeap@?$CTempBuffer@E$0BAA@VCCRTAllocator@ATL@@@ATL@@AAEXI@Z 1000beb0 f i ImageScanner.obj
 0001:0000af00       ?AllocateHeap@?$CTempBuffer@_W$0BAA@VCCRTAllocator@ATL@@@ATL@@AAEXI@Z 1000bf00 f i ImageScanner.obj
 0001:0000af50       ?AllocateHeap@?$CTempBuffer@_W$0EAA@VCCRTAllocator@ATL@@@ATL@@AAEXI@Z 1000bf50 f i ImageScanner.obj
 0001:0000afa0       ?Append@CParseBuffer@CRegParser@ATL@@QAEHPB_WH@Z 1000bfa0 f i ImageScanner.obj
 0001:0000b140       ?AtlCallTermFunc@ATL@@YGXPAU_ATL_MODULE70@1@@Z 1000c140 f i ImageScanner.obj
 0001:0000b1e0       ?AtlCoTaskMemCAlloc@ATL@@YAPAXKK@Z 1000c1e0 f i ImageScanner.obj
 0001:0000b270       ?AtlCoTaskMemRecalloc@ATL@@YAPAXPAXKK@Z 1000c270 f i ImageScanner.obj
 0001:0000b310       ?AtlComModuleGetClassObject@ATL@@YGJPAU_ATL_COM_MODULE70@1@ABU_GUID@@1PAPAX@Z 1000c310 f i ImageScanner.obj
 0001:0000b5a0       ?AtlComModuleRegisterServer@ATL@@YGJPAU_ATL_COM_MODULE70@1@HPBU_GUID@@@Z 1000c5a0 f i ImageScanner.obj
 0001:0000b730       ?AtlComModuleUnregisterServer@ATL@@YGJPAU_ATL_COM_MODULE70@1@HPBU_GUID@@@Z 1000c730 f i ImageScanner.obj
 0001:0000b860       ?AtlComQIPtrAssign2@ATL@@YAXPAPAUIUnknown@@PAU2@ABU_GUID@@@Z 1000c860 f i ImageScanner.obj
 0001:0000b8e0       ?AtlCreateTargetDC@ATL@@YGPAUHDC__@@PAU2@PAUtagDVTARGETDEVICE@@@Z 1000c8e0 f i ImageScanner.obj
 0001:0000ba80       ?AtlCrtErrorCheck@ATL@@YAHH@Z 1000ca80 f i ImageScanner.obj
 0001:0000bb50       ?AtlGetPerUserRegistration@ATL@@YGJPA_N@Z 1000cb50 f i ImageScanner.obj
 0001:0000bb80       ?AtlHiMetricToPixel@ATL@@YGXPBUtagSIZE@@PAU2@@Z 1000cb80 f i ImageScanner.obj
 0001:0000bd50       ?AtlHresultFromLastError@ATL@@YAJXZ 1000cd50 f i ImageScanner.obj
 0001:0000bd90       ?AtlHresultFromWin32@ATL@@YAJK@Z 1000cd90 f i ImageScanner.obj
 0001:0000bdb0       ?AtlIPersistStreamInit_Load@ATL@@YGJPAUIStream@@PBUATL_PROPMAP_ENTRY@1@PAXPAUIUnknown@@@Z 1000cdb0 f i ImageScanner.obj
 0001:0000c210       ?AtlIPersistStreamInit_Save@ATL@@YGJPAUIStream@@HPBUATL_PROPMAP_ENTRY@1@PAXPAUIUnknown@@@Z 1000d210 f i ImageScanner.obj
 0001:0000c5f0       ?AtlInternalOleLoadFromStream@ATL@@YAJPAUIStream@@ABU_GUID@@PAPAXTClassesAllowedInStream@1@K@Z 1000d5f0 f i ImageScanner.obj
 0001:0000c890       ?AtlInternalQueryInterface@ATL@@YGJPAXPBU_ATL_INTMAP_ENTRY@1@ABU_GUID@@PAPAX@Z 1000d890 f i ImageScanner.obj
 0001:0000cac0       ?AtlLoadTypeLib@ATL@@YGJPAUHINSTANCE__@@PB_WPAPA_WPAPAUITypeLib@@@Z 1000dac0 f i ImageScanner.obj
 0001:0000cf20       ?AtlModuleAddTermFunc@ATL@@YGJPAU_ATL_MODULE70@1@P6GXK@ZK@Z 1000df20 f i ImageScanner.obj
 0001:0000d080       ?AtlRegisterClassCategoriesHelper@ATL@@YGJABU_GUID@@PBU_ATL_CATMAP_ENTRY@1@H@Z 1000e080 f i ImageScanner.obj
 0001:0000d760       ?AtlRegisterTypeLib@ATL@@YGJPAUHINSTANCE__@@PB_W@Z 1000e760 f i ImageScanner.obj
 0001:0000daa0       ?AtlThrowImpl@ATL@@YGXJ@Z  1000eaa0 f i ImageScanner.obj
 0001:0000db50       ?AtlUnRegisterTypeLib@ATL@@YGJPAUHINSTANCE__@@PB_W@Z 1000eb50 f i ImageScanner.obj
 0001:0000dd60       ?AtlWinModuleAddCreateWndData@ATL@@YGXPAU_ATL_WIN_MODULE70@1@PAU_AtlCreateWndData@1@PAX@Z 1000ed60 f i ImageScanner.obj
 0001:0000ded0       ?AtlWinModuleExtractCreateWndData@ATL@@YGPAXPAU_ATL_WIN_MODULE70@1@@Z 1000eed0 f i ImageScanner.obj
 0001:0000e050       ?AtlWinModuleRegisterClassExW@ATL@@YGGPAU_ATL_WIN_MODULE70@1@PBUtagWNDCLASSEXW@@@Z 1000f050 f i ImageScanner.obj
 0001:0000e120       ?AtlWinModuleRegisterWndClassInfoW@ATL@@YGGPAU_ATL_WIN_MODULE70@1@PAU_ATL_BASE_MODULE70@1@PAU_ATL_WNDCLASSINFOW@1@PAP6GJPAUHWND__@@IIJ@Z@Z 1000f120 f i ImageScanner.obj
 0001:0000e1b0       ?Attach@?$CAutoVectorPtr@_W@ATL@@QAEXPA_W@Z 1000f1b0 f i ImageScanner.obj
 0001:0000e210       ?Attach@CComBSTR@ATL@@QAEXPA_W@Z 1000f210 f i ImageScanner.obj
 0001:0000e260       ?Attach@CRegKey@ATL@@QAEXPAUHKEY__@@@Z 1000f260 f i ImageScanner.obj
 0001:0000e2d0       ?CanForceRemoveKey@CRegParser@ATL@@IAEHPB_W@Z 1000f2d0 f i ImageScanner.obj
 0001:0000e340       ?ChToByte@CRegParser@ATL@@KAE_W@Z 1000f340 f i ImageScanner.obj
 0001:0000e460       ?ChangeType@CComVariant@ATL@@QAEJGPBUtagVARIANT@@@Z 1000f460 f i ImageScanner.obj
 0001:0000e4c0       ?Cleanup@CComTypeInfoHolder@ATL@@SGXK@Z 1000f4c0 f i ImageScanner.obj
 0001:0000e590       ?Clear@CComVariant@ATL@@QAEJXZ 1000f590 f i ImageScanner.obj
 0001:0000e5d0       ?ClearReplacements@CExpansionVector@ATL@@QAEJXZ 1000f5d0 f i ImageScanner.obj
 0001:0000e660       ?ClearReplacements@CRegObject@ATL@@UAGJXZ 1000f660 f i ImageScanner.obj
 0001:0000e6b0       ?Clone@?$CComEnumImpl@UIEnumConnectionPoints@@$1?_GUID_b196b285_bab4_101a_b69c_00aa00341d07@@3U__s_GUID@@BPAUIConnectionPoint@@V?$_CopyInterface@UIConnectionPoint@@@ATL@@@ATL@@UAGJPAPAUIEnumConnectionPoints@@@Z 1000f6b0 f i ImageScanner.obj
 0001:0000e830       ?Clone@?$CComEnumImpl@UIEnumConnections@@$1?_GUID_b196b287_bab4_101a_b69c_00aa00341d07@@3U__s_GUID@@BUtagCONNECTDATA@@V?$_Copy@UtagCONNECTDATA@@@ATL@@@ATL@@UAGJPAPAUIEnumConnections@@@Z 1000f830 f i ImageScanner.obj
 0001:0000e9b0       ?Close@?$IOleObjectImpl@VCOPOSImageScanner@@@ATL@@UAGJK@Z 1000f9b0 f i ImageScanner.obj
 0001:0000ea40       ?Close@CRegKey@ATL@@QAEJXZ 1000fa40 f i ImageScanner.obj
 0001:0000eab0       ?ContextSensitiveHelp@?$IOleInPlaceActiveObjectImpl@VCOPOSImageScanner@@@ATL@@UAGJH@Z 1000fab0 f i ImageScanner.obj
 0001:0000eb20       ?ContextSensitiveHelp@?$IOleInPlaceObjectWindowlessImpl@VCOPOSImageScanner@@@ATL@@UAGJH@Z 1000fb20 f i ImageScanner.obj
 0001:0000eb90       ?ControlQueryInterface@?$CComControl@VCOPOSImageScanner@@V?$CWindowImpl@VCOPOSImageScanner@@VCWindow@ATL@@V?$CWinTraits@$0FGAAAAAA@$0A@@3@@ATL@@@ATL@@UAEJABU_GUID@@PAPAX@Z 1000fb90 f i ImageScanner.obj
 0001:0000ec10       ?CreateControlWindow@?$CComControl@VCOPOSImageScanner@@V?$CWindowImpl@VCOPOSImageScanner@@VCWindow@ATL@@V?$CWinTraits@$0FGAAAAAA@$0A@@3@@ATL@@@ATL@@UAEPAUHWND__@@PAU3@AAUtagRECT@@@Z 1000fc10 f i ImageScanner.obj
 0001:0000ec90       ?CreateInstance@?$CComCreator@V?$CComAggObject@VCOPOSImageScanner@@@ATL@@@ATL@@SGJPAXABU_GUID@@PAPAX@Z 1000fc90 f i ImageScanner.obj
 0001:0000ee20       ?CreateInstance@?$CComCreator@V?$CComObject@VCOPOSImageScanner@@@ATL@@@ATL@@SGJPAXABU_GUID@@PAPAX@Z 1000fe20 f i ImageScanner.obj
 0001:0000efb0       ?CreateInstance@?$CComObject@V?$CComEnum@UIEnumConnectionPoints@@$1?_GUID_b196b285_bab4_101a_b69c_00aa00341d07@@3U__s_GUID@@BPAUIConnectionPoint@@V?$_CopyInterface@UIConnectionPoint@@@ATL@@VCComSingleThreadModel@6@@ATL@@@ATL@@SGJPAPAV12@@Z 1000ffb0 f i ImageScanner.obj
 0001:0000f120       ?CreateInstance@?$CComObject@V?$CComEnum@UIEnumConnections@@$1?_GUID_b196b287_bab4_101a_b69c_00aa00341d07@@3U__s_GUID@@BUtagCONNECTDATA@@V?$_Copy@UtagCONNECTDATA@@@ATL@@VCComSingleThreadModel@6@@ATL@@@ATL@@SGJPAPAV12@@Z 10010120 f i ImageScanner.obj
 0001:0000f290       ?CreateInstance@CComClassFactory@ATL@@UAGJPAUIUnknown@@ABU_GUID@@PAPAX@Z 10010290 f i ImageScanner.obj
 0001:0000f380       ?DAdvise@?$IDataObjectImpl@VCOPOSImageScanner@@@ATL@@UAGJPAUtagFORMATETC@@KPAUIAdviseSink@@PAK@Z 10010380 f i ImageScanner.obj
 0001:0000f480       ?DEVMODEOLE2T_EX@@YAPAU_devicemodeW@@PAU1@@Z 10010480 f i ImageScanner.obj
 0001:0000f490       ?DUnadvise@?$IDataObjectImpl@VCOPOSImageScanner@@@ATL@@UAGJK@Z 10010490 f i ImageScanner.obj
 0001:0000f560       ?Decrement@CComMultiThreadModel@ATL@@SGKPAJ@Z 10010560 f i ImageScanner.obj
 0001:0000f580       ?Decrement@CComSingleThreadModel@ATL@@SGKPAJ@Z 10010580 f i ImageScanner.obj
 0001:0000f5a0       ?DefWindowProcW@?$CWindowImplBaseT@VCWindow@ATL@@V?$CWinTraits@$0FGAAAAAA@$0A@@2@@ATL@@QAEJIIJ@Z 100105a0 f i ImageScanner.obj
 0001:0000f5f0       ?DefaultReflectionHandler@?$CWindowImplRoot@VCWindow@ATL@@@ATL@@SAHPAUHWND__@@IIJAAJ@Z 100105f0 f i ImageScanner.obj
 0001:0000f7e0       ?DeleteSubKey@CRegKey@ATL@@QAEJPB_W@Z 100107e0 f i ImageScanner.obj
 0001:0000f8f0       ?DeleteValue@CRegKey@ATL@@QAEJPB_W@Z 100108f0 f i ImageScanner.obj
 0001:0000f960       ?Detach@?$CAutoVectorPtr@_W@ATL@@QAEPA_WXZ 10010960 f i ImageScanner.obj
 0001:0000f990       ?Detach@?$CComPtrBase@UIPersistStream@@@ATL@@QAEPAUIPersistStream@@XZ 10010990 f i ImageScanner.obj
 0001:0000f9c0       ?Detach@?$CComPtrBase@UITypeInfo@@@ATL@@QAEPAUITypeInfo@@XZ 100109c0 f i ImageScanner.obj
 0001:0000f9f0       ?Detach@?$CComPtrBase@UIUnknown@@@ATL@@QAEPAUIUnknown@@XZ 100109f0 f i ImageScanner.obj
 0001:0000fa20       ?Detach@CComBSTR@ATL@@QAEPA_WXZ 10010a20 f i ImageScanner.obj
 0001:0000fa50       ?Detach@CParseBuffer@CRegParser@ATL@@QAEPA_WXZ 10010a50 f i ImageScanner.obj
 0001:0000faa0       ?Detach@CRegKey@ATL@@QAEPAUHKEY__@@XZ 10010aa0 f i ImageScanner.obj
 0001:0000faf0       ?DoEvent@COPOSImageScanner@@IAEXIIJ@Z 10010af0 f i ImageScanner.obj
 0001:0000fc30       ?DoVerb@?$IOleObjectImpl@VCOPOSImageScanner@@@ATL@@UAGJJPAUtagMSG@@PAUIOleClientSite@@JPAUHWND__@@PBUtagRECT@@@Z 10010c30 f i ImageScanner.obj
 0001:0000fe40       ?DoVerbDiscardUndo@?$IOleObjectImpl@VCOPOSImageScanner@@@ATL@@QAEJPBUtagRECT@@PAUHWND__@@@Z 10010e40 f i ImageScanner.obj
 0001:0000feb0       ?DoVerbHide@?$IOleObjectImpl@VCOPOSImageScanner@@@ATL@@QAEJPBUtagRECT@@PAUHWND__@@@Z 10010eb0 f i ImageScanner.obj
 0001:0000ff60       ?DoVerbInPlaceActivate@?$IOleObjectImpl@VCOPOSImageScanner@@@ATL@@QAEJPBUtagRECT@@PAUHWND__@@@Z 10010f60 f i ImageScanner.obj
 0001:00010000       ?DoVerbOpen@?$IOleObjectImpl@VCOPOSImageScanner@@@ATL@@QAEJPBUtagRECT@@PAUHWND__@@@Z 10011000 f i ImageScanner.obj
 0001:00010070       ?DoVerbPrimary@?$IOleObjectImpl@VCOPOSImageScanner@@@ATL@@QAEJPBUtagRECT@@PAUHWND__@@@Z 10011070 f i ImageScanner.obj
 0001:00010180       ?DoVerbProperties@CComControlBase@ATL@@QAEJPBUtagRECT@@PAUHWND__@@@Z 10011180 f i ImageScanner.obj
 0001:000104a0       ?DoVerbShow@?$IOleObjectImpl@VCOPOSImageScanner@@@ATL@@QAEJPBUtagRECT@@PAUHWND__@@@Z 100114a0 f i ImageScanner.obj
 0001:00010530       ?DoVerbUIActivate@?$IOleObjectImpl@VCOPOSImageScanner@@@ATL@@QAEJPBUtagRECT@@PAUHWND__@@@Z 10011530 f i ImageScanner.obj
 0001:000105d0       ?DoesVerbActivate@CComControlBase@ATL@@QAEHJ@Z 100115d0 f i ImageScanner.obj
 0001:00010640       ?DoesVerbUIActivate@CComControlBase@ATL@@QAEHJ@Z 10011640 f i ImageScanner.obj
 0001:000106c0       ?Draw@?$IViewObjectExImpl@VCOPOSImageScanner@@@ATL@@UAGJKJPAXPAUtagDVTARGETDEVICE@@PAUHDC__@@2PBU_RECTL@@3P6GHK@ZK@Z 100116c0 f i ImageScanner.obj
 0001:00010760       ?Empty@CComBSTR@ATL@@QAEXXZ 10011760 f i ImageScanner.obj
 0001:000107a0       ?EnableModeless@?$IOleInPlaceActiveObjectImpl@VCOPOSImageScanner@@@ATL@@UAGJH@Z 100117a0 f i ImageScanner.obj
 0001:00010800       ?EndOfVar@CRegParser@ATL@@IAEHXZ 10011800 f i ImageScanner.obj
 0001:00010870       ?EnsureTI@CComTypeInfoHolder@ATL@@QAEJK@Z 10011870 f i ImageScanner.obj
 0001:000108d0       ?EnumAdvise@?$IOleObjectImpl@VCOPOSImageScanner@@@ATL@@UAGJPAPAUIEnumSTATDATA@@@Z 100118d0 f i ImageScanner.obj
 0001:000109e0       ?EnumConnectionPoints@?$IConnectionPointContainerImpl@VCOPOSImageScanner@@@ATL@@UAGJPAPAUIEnumConnectionPoints@@@Z 100119e0 f i ImageScanner.obj
 0001:00010e40       ?EnumConnections@?$IConnectionPointImpl@VCOPOSImageScanner@@$1?DIID__IOPOSImageScannerEvents@@3U_GUID@@BVCComDynamicUnkArray@ATL@@@ATL@@UAGJPAPAUIEnumConnections@@@Z 10011e40 f i ImageScanner.obj
 0001:00011090       ?EnumConnections@?$IConnectionPointImpl@VCOPOSImageScanner@@$1?IID_IPropertyNotifySink@@3U_GUID@@BVCComDynamicUnkArray@ATL@@@ATL@@UAGJPAPAUIEnumConnections@@@Z 10012090 f i ImageScanner.obj
 0001:000112e0       ?EnumDAdvise@?$IDataObjectImpl@VCOPOSImageScanner@@@ATL@@UAGJPAPAUIEnumSTATDATA@@@Z 100122e0 f i ImageScanner.obj
 0001:000113e0       ?EnumFormatEtc@?$IDataObjectImpl@VCOPOSImageScanner@@@ATL@@UAGJKPAPAUIEnumFORMATETC@@@Z 100123e0 f i ImageScanner.obj
 0001:00011450       ?EnumVerbs@?$IOleObjectImpl@VCOPOSImageScanner@@@ATL@@UAGJPAPAUIEnumOLEVERB@@@Z 10012450 f i ImageScanner.obj
 0001:00011500       ?EscapeSingleQuote@CAtlModule@ATL@@SAXPA_WIPB_W@Z 10012500 f i ImageScanner.obj
 0001:000115b0       ?ExtractCreateWndData@CAtlWinModule@ATL@@QAEPAXXZ 100125b0 f i ImageScanner.obj
 0001:000115e0       ?FAccessAllowed@?$IObjectSafetyImpl@VCOPOSImageScanner@@$02@ATL@@MAEHXZ 100125e0 f i ImageScanner.obj
 0001:00011600       ?FinalConstruct@?$CComAggObject@VCOPOSImageScanner@@@ATL@@QAEJXZ 10012600 f i ImageScanner.obj
 0001:00011640       ?FinalConstruct@CComObjectRootBase@ATL@@QAEJXZ 10012640 f i ImageScanner.obj
 0001:00011660       ?FinalConstruct@CRegObject@ATL@@QAEJXZ 10012660 f i ImageScanner.obj
 0001:00011690       ?FinalRelease@?$CComAggObject@VCOPOSImageScanner@@@ATL@@QAEXXZ 10012690 f i ImageScanner.obj
 0001:000116d0       ?FinalRelease@CComObjectRootBase@ATL@@QAEXXZ 100126d0 f i ImageScanner.obj
 0001:000116f0       ?FindConnectionPoint@?$IConnectionPointContainerImpl@VCOPOSImageScanner@@@ATL@@UAGJABU_GUID@@PAPAUIConnectionPoint@@@Z 100126f0 f i ImageScanner.obj
 0001:00011840       ?FindKey@?$CSimpleMap@PA_WPA_WVCExpansionVectorEqualHelper@ATL@@@ATL@@QBEHABQA_W@Z 10012840 f i ImageScanner.obj
 0001:000118b0       ?FireTheEvent@?$CProxy_IOPOSEvents@VCOPOSImageScanner@@@@IAEXPAUIUnknown@@PAVOposVariant@@IAAJPB_WJ@Z 100128b0 f i ImageScanner.obj
 0001:00011a20       ?FireViewChange@CComControlBase@ATL@@QAEJXZ 10012a20 f i ImageScanner.obj
 0001:00011ae0       ?Fire_DataEvent@?$CProxy_IOPOSEvents@VCOPOSImageScanner@@@@QAEXJ@Z 10012ae0 f i ImageScanner.obj
 0001:00011c40       ?Fire_DirectIOEvent@?$CProxy_IOPOSEvents@VCOPOSImageScanner@@@@QAEXJPAJPAPA_W@Z 10012c40 f i ImageScanner.obj
 0001:00011e10       ?Fire_ErrorEvent@?$CProxy_IOPOSEvents@VCOPOSImageScanner@@@@QAEXJJJPAJ@Z 10012e10 f i ImageScanner.obj
 0001:00012000       ?Fire_StatusUpdateEvent@?$CProxy_IOPOSEvents@VCOPOSImageScanner@@@@QAEXJ@Z 10013000 f i ImageScanner.obj
 0001:00012160       ?FormatWindowClassName@AtlModuleRegisterWndClassInfoParamW@ATL@@SAXPA_WKPAX@Z 10013160 f i ImageScanner.obj
 0001:00012190       ?Free@?$CAutoVectorPtr@_W@ATL@@QAEXXZ 10013190 f i ImageScanner.obj
 0001:000121e0       ?FreeHeap@?$CTempBuffer@E$0BAA@VCCRTAllocator@ATL@@@ATL@@AAEXXZ 100131e0 f i ImageScanner.obj
 0001:00012210       ?FreeHeap@?$CTempBuffer@_W$0BAA@VCCRTAllocator@ATL@@@ATL@@AAEXXZ 10013210 f i ImageScanner.obj
 0001:00012240       ?FreeHeap@?$CTempBuffer@_W$0EAA@VCCRTAllocator@ATL@@@ATL@@AAEXXZ 10013240 f i ImageScanner.obj
 0001:00012270       ?Freeze@?$IViewObjectExImpl@VCOPOSImageScanner@@@ATL@@UAGJKJPAXPAK@Z 10013270 f i ImageScanner.obj
 0001:000122e0       ?GenerateError@CRegParser@ATL@@IAEJI@Z 100132e0 f i ImageScanner.obj
 0001:00012300       ?GetAdvise@?$IViewObjectExImpl@VCOPOSImageScanner@@@ATL@@UAGJPAK0PAPAUIAdviseSink@@@Z 10013300 f i ImageScanner.obj
 0001:00012400       ?GetAmbientLocaleID@CComControlBase@ATL@@QAEJAAK@Z 10013400 f i ImageScanner.obj
 0001:000124e0       ?GetAmbientProperty@CComControlBase@ATL@@QAEJJAAUtagVARIANT@@@Z 100134e0 f i ImageScanner.obj
 0001:00012530       ?GetAmbientUserMode@CComControlBase@ATL@@QAEJAAH@Z 10013530 f i ImageScanner.obj
 0001:00012630       ?GetAppId@?$CAtlModuleT@VCComModule@ATL@@@ATL@@SAPB_WXZ 10013630 f i ImageScanner.obj
 0001:00012640       ?GetAt@CComDynamicUnkArray@ATL@@QAEPAUIUnknown@@H@Z 10013640 f i ImageScanner.obj
 0001:000126c0       ?GetCanonicalFormatEtc@?$IDataObjectImpl@VCOPOSImageScanner@@@ATL@@UAGJPAUtagFORMATETC@@0@Z 100136c0 f i ImageScanner.obj
 0001:00012730       ?GetClassID@?$IPersistStorageImpl@VCOPOSImageScanner@@@ATL@@UAGJPAU_GUID@@@Z 10013730 f i ImageScanner.obj
 0001:000127b0       ?GetClassID@?$IPersistStreamInitImpl@VCOPOSImageScanner@@@ATL@@UAGJPAU_GUID@@@Z 100137b0 f i ImageScanner.obj
 0001:00012830       ?GetClassInfoExW@AtlModuleRegisterWndClassInfoParamW@ATL@@SAHPAUHINSTANCE__@@PB_WPAUtagWNDCLASSEXW@@@Z 10013830 f i ImageScanner.obj
 0001:00012860       ?GetClassInfoW@?$IProvideClassInfo2Impl@$1?CLSID_OPOSImageScanner@@3U_GUID@@B$1?DIID__IOPOSImageScannerEvents@@3U2@B$1?LIBID_OposImageScanner_CCO@@3U2@B$00$0A@VCComTypeInfoHolder@ATL@@@ATL@@UAGJPAPAUITypeInfo@@@Z 10013860 f i ImageScanner.obj
 0001:00012880       ?GetClassObject@CComModule@ATL@@QAEJABU_GUID@@0PAPAX@Z 10013880 f i ImageScanner.obj
 0001:00012a80       ?GetClientSite@?$IOleObjectImpl@VCOPOSImageScanner@@@ATL@@UAGJPAPAUIOleClientSite@@@Z 10013a80 f i ImageScanner.obj
 0001:00012b10       ?GetClipboardData@?$IOleObjectImpl@VCOPOSImageScanner@@@ATL@@UAGJKPAPAUIDataObject@@@Z 10013b10 f i ImageScanner.obj
 0001:00012b80       ?GetCodeAddress@CDynamicStdCallThunk2@ATL@@QAEPAXXZ 10013b80 f i ImageScanner.obj
 0001:00012bb0       ?GetColorSet@?$IViewObjectExImpl@VCOPOSImageScanner@@@ATL@@UAGJKJPAXPAUtagDVTARGETDEVICE@@PAUHDC__@@PAPAUtagLOGPALETTE@@@Z 10013bb0 f i ImageScanner.obj
 0001:00012c20       ?GetConnMap@COPOSImageScanner@@SAPBU_ATL_CONNMAP_ENTRY@ATL@@PAH@Z 10013c20 f i ImageScanner.obj
 0001:00012d60       ?GetConnectionInterface@?$IConnectionPointImpl@VCOPOSImageScanner@@$1?DIID__IOPOSImageScannerEvents@@3U_GUID@@BVCComDynamicUnkArray@ATL@@@ATL@@UAGJPAU_GUID@@@Z 10013d60 f i ImageScanner.obj
 0001:00012da0       ?GetConnectionInterface@?$IConnectionPointImpl@VCOPOSImageScanner@@$1?IID_IPropertyNotifySink@@3U_GUID@@BVCComDynamicUnkArray@ATL@@@ATL@@UAGJPAU_GUID@@@Z 10013da0 f i ImageScanner.obj
 0001:00012de0       ?GetConnectionPointContainer@?$IConnectionPointImpl@VCOPOSImageScanner@@$1?DIID__IOPOSImageScannerEvents@@3U_GUID@@BVCComDynamicUnkArray@ATL@@@ATL@@UAGJPAPAUIConnectionPointContainer@@@Z 10013de0 f i ImageScanner.obj
 0001:00012e50       ?GetConnectionPointContainer@?$IConnectionPointImpl@VCOPOSImageScanner@@$1?IID_IPropertyNotifySink@@3U_GUID@@BVCComDynamicUnkArray@ATL@@@ATL@@UAGJPAPAUIConnectionPointContainer@@@Z 10013e50 f i ImageScanner.obj
 0001:00012ec0       ?GetContentExtent@?$IQuickActivateImpl@VCOPOSImageScanner@@@ATL@@UAGJPAUtagSIZE@@@Z 10013ec0 f i ImageScanner.obj
 0001:00012f50       ?GetControlInfo@?$IOleControlImpl@VCOPOSImageScanner@@@ATL@@UAGJPAUtagCONTROLINFO@@@Z 10013f50 f i ImageScanner.obj
 0001:00012fc0       ?GetCookie@CComDynamicUnkArray@ATL@@QAGKPAPAUIUnknown@@@Z 10013fc0 f i ImageScanner.obj
 0001:00013080       ?GetData@?$IDataObjectImpl@VCOPOSImageScanner@@@ATL@@UAGJPAUtagFORMATETC@@PAUtagSTGMEDIUM@@@Z 10014080 f i ImageScanner.obj
 0001:00013110       ?GetData@CAtlSafeAllocBufferNode@?$CAtlSafeAllocBufferManager@VCCRTAllocator@ATL@@@_ATL_SAFE_ALLOCA_IMPL@ATL@@QAEPAXXZ 10014110 f i ImageScanner.obj
 0001:00013130       ?GetDataHere@?$IDataObjectImpl@VCOPOSImageScanner@@@ATL@@UAGJPAUtagFORMATETC@@PAUtagSTGMEDIUM@@@Z 10014130 f i ImageScanner.obj
 0001:000131a0       ?GetDropTarget@?$IOleInPlaceObjectWindowlessImpl@VCOPOSImageScanner@@@ATL@@UAGJPAPAUIDropTarget@@@Z 100141a0 f i ImageScanner.obj
 0001:00013210       ?GetExtent@?$IOleObjectImpl@VCOPOSImageScanner@@@ATL@@UAGJKPAUtagSIZE@@@Z 10014210 f i ImageScanner.obj
 0001:000132b0       ?GetExtent@?$IViewObjectExImpl@VCOPOSImageScanner@@@ATL@@UAGJKJPAUtagDVTARGETDEVICE@@PAUtagSIZE@@@Z 100142b0 f i ImageScanner.obj
 0001:00013380       ?GetGITPtr@CAtlModule@ATL@@UAEJPAPAUIGlobalInterfaceTable@@@Z 10014380 f i ImageScanner.obj
 0001:00013480       ?GetGUID@?$IProvideClassInfo2Impl@$1?CLSID_OPOSImageScanner@@3U_GUID@@B$1?DIID__IOPOSImageScannerEvents@@3U2@B$1?LIBID_OposImageScanner_CCO@@3U2@B$00$0A@VCComTypeInfoHolder@ATL@@@ATL@@UAGJKPAU_GUID@@@Z 10014480 f i ImageScanner.obj
 0001:00013500       ?GetIDsOfNames@?$IDispatchImpl@UIOPOSImageScanner@@$1?IID_IOPOSImageScanner@@3U_GUID@@B$1?LIBID_OposImageScanner_CCO@@3U3@B$00$0A@VCComTypeInfoHolder@ATL@@@ATL@@UAGJABU_GUID@@PAPA_WIKPAJ@Z 10014500 f i ImageScanner.obj
 0001:00013530       ?GetIDsOfNames@CComTypeInfoHolder@ATL@@QAEJABU_GUID@@PAPA_WIKPAJ@Z 10014530 f i ImageScanner.obj
 0001:000136e0       ?GetInterfaceSafetyOptions@?$IObjectSafetyImpl@VCOPOSImageScanner@@$02@ATL@@UAGJABU_GUID@@PAK1@Z 100146e0 f i ImageScanner.obj
 0001:00013850       ?GetKeyAt@?$CSimpleMap@PA_WPA_WVCExpansionVectorEqualHelper@ATL@@@ATL@@QBEAAPA_WH@Z 10014850 f i ImageScanner.obj
 0001:000138d0       ?GetLockCount@CAtlModule@ATL@@UAEJXZ 100148d0 f i ImageScanner.obj
 0001:000138f0       ?GetMiscStatus@?$IOleObjectImpl@VCOPOSImageScanner@@@ATL@@UAGJKPAK@Z 100148f0 f i ImageScanner.obj
 0001:00013960       ?GetMoniker@?$IOleObjectImpl@VCOPOSImageScanner@@@ATL@@UAGJKKPAPAUIMoniker@@@Z 10014960 f i ImageScanner.obj
 0001:000139d0       ?GetNaturalExtent@?$IViewObjectExImpl@VCOPOSImageScanner@@@ATL@@UAGJKJPAUtagDVTARGETDEVICE@@PAUHDC__@@PAUtagExtentInfo@@PAUtagSIZE@@@Z 100149d0 f i ImageScanner.obj
 0001:00013af0       ?GetObjectCLSID@?$CComCoClass@VCOPOSImageScanner@@$1?CLSID_OPOSImageScanner@@3U_GUID@@B@ATL@@SGABU_GUID@@XZ 10014af0 f i ImageScanner.obj
 0001:00013b00       ?GetPages@?$ISpecifyPropertyPagesImpl@VCOPOSImageScanner@@@ATL@@UAGJPAUtagCAUUID@@@Z 10014b00 f i ImageScanner.obj
 0001:00013b70       ?GetPagesHelper@?$ISpecifyPropertyPagesImpl@VCOPOSImageScanner@@@ATL@@IAEJPAUtagCAUUID@@PBUATL_PROPMAP_ENTRY@2@@Z 10014b70 f i ImageScanner.obj
 0001:00013d70       ?GetProperty@?$CComPtr@UIDispatch@@@ATL@@QAEJJPAUtagVARIANT@@@Z 10014d70 f i ImageScanner.obj
 0001:00013db0       ?GetProperty@?$CComPtr@UIDispatch@@@ATL@@SAJPAUIDispatch@@JPAUtagVARIANT@@@Z 10014db0 f i ImageScanner.obj
 0001:00013f10       ?GetPropertyMap@COPOSImageScanner@@SAPBUATL_PROPMAP_ENTRY@ATL@@XZ 10014f10 f i ImageScanner.obj
 0001:00013f20       ?GetRect@?$IViewObjectExImpl@VCOPOSImageScanner@@@ATL@@UAGJKPAU_RECTL@@@Z 10014f20 f i ImageScanner.obj
 0001:00013f90       ?GetSize@?$CSimpleMap@PA_WPA_WVCExpansionVectorEqualHelper@ATL@@@ATL@@QBEHXZ 10014f90 f i ImageScanner.obj
 0001:00013fb0       ?GetSize@CComDynamicUnkArray@ATL@@QBEHXZ 10014fb0 f i ImageScanner.obj
 0001:00013fd0       ?GetSizeMax@?$IPersistStreamInitImpl@VCOPOSImageScanner@@@ATL@@UAGJPAT_ULARGE_INTEGER@@@Z 10014fd0 f i ImageScanner.obj
 0001:00014540       ?GetSizeMax@CComVariant@ATL@@QBEJPAT_ULARGE_INTEGER@@@Z 10015540 f i ImageScanner.obj
 0001:000148a0       ?GetStreamSize@CComBSTR@ATL@@SAKPA_W@Z 100158a0 f i ImageScanner.obj
 0001:000148f0       ?GetTI@CComTypeInfoHolder@ATL@@QAEJK@Z 100158f0 f i ImageScanner.obj
 0001:00015100       ?GetTI@CComTypeInfoHolder@ATL@@QAEJKPAPAUITypeInfo@@@Z 10016100 f i ImageScanner.obj
 0001:000151c0       ?GetTypeInfo@?$IDispatchImpl@UIOPOSImageScanner@@$1?IID_IOPOSImageScanner@@3U_GUID@@B$1?LIBID_OposImageScanner_CCO@@3U3@B$00$0A@VCComTypeInfoHolder@ATL@@@ATL@@UAGJIKPAPAUITypeInfo@@@Z 100161c0 f i ImageScanner.obj
 0001:000151f0       ?GetTypeInfo@CComTypeInfoHolder@ATL@@QAEJIKPAPAUITypeInfo@@@Z 100161f0 f i ImageScanner.obj
 0001:00015230       ?GetTypeInfoCount@?$IDispatchImpl@UIOPOSImageScanner@@$1?IID_IOPOSImageScanner@@3U_GUID@@B$1?LIBID_OposImageScanner_CCO@@3U3@B$00$0A@VCComTypeInfoHolder@ATL@@@ATL@@UAGJPAI@Z 10016230 f i ImageScanner.obj
 0001:00015250       ?GetUnknown@CComDynamicUnkArray@ATL@@QAGPAUIUnknown@@K@Z 10016250 f i ImageScanner.obj
 0001:000152c0       ?GetUnknown@COPOSImageScanner@@QAEPAUIUnknown@@XZ 100162c0 f i ImageScanner.obj
 0001:000152f0       ?GetUserClassID@?$IOleObjectImpl@VCOPOSImageScanner@@@ATL@@UAGJPAU_GUID@@@Z 100162f0 f i ImageScanner.obj
 0001:000153a0       ?GetUserType@?$IOleObjectImpl@VCOPOSImageScanner@@@ATL@@UAGJKPAPA_W@Z 100163a0 f i ImageScanner.obj
 0001:00015410       ?GetValueAt@?$CSimpleMap@PA_WPA_WVCExpansionVectorEqualHelper@ATL@@@ATL@@QBEAAPA_WH@Z 10016410 f i ImageScanner.obj
 0001:00015490       ?GetViewStatus@?$IViewObjectExImpl@VCOPOSImageScanner@@@ATL@@UAGJPAK@Z 10016490 f i ImageScanner.obj
 0001:00015550       ?GetWNDPROC@CWndProcThunk@ATL@@QAEP6GJPAUHWND__@@IIJ@ZXZ 10016550 f i ImageScanner.obj
 0001:00015580       ?GetWindow@?$IOleInPlaceActiveObjectImpl@VCOPOSImageScanner@@@ATL@@UAGJPAPAUHWND__@@@Z 10016580 f i ImageScanner.obj
 0001:00015650       ?GetWindow@?$IOleInPlaceObjectWindowlessImpl@VCOPOSImageScanner@@@ATL@@UAGJPAPAUHWND__@@@Z 10016650 f i ImageScanner.obj
 0001:00015720       ?GetWindowLongPtrW@@YAJPAUHWND__@@H@Z 10016720 f i ImageScanner.obj
 0001:00015750       ?GetWindowProc@?$CWindowImplBaseT@VCWindow@ATL@@V?$CWinTraits@$0FGAAAAAA@$0A@@2@@ATL@@UAEP6GJPAUHWND__@@IIJ@ZXZ 10016750 f i ImageScanner.obj
 0001:00015770       ?GetWndCaption@?$CWindowImpl@VCOPOSImageScanner@@VCWindow@ATL@@V?$CWinTraits@$0FGAAAAAA@$0A@@3@@ATL@@SAPB_WXZ 10016770 f i ImageScanner.obj
 0001:00015780       ?GetWndClassInfo@?$CWindowImpl@VCOPOSImageScanner@@VCWindow@ATL@@V?$CWinTraits@$0FGAAAAAA@$0A@@3@@ATL@@SAAAU_ATL_WNDCLASSINFOW@2@XZ 10016780 f i ImageScanner.obj
 0001:00015790       ?GetWndClassName@CWindow@ATL@@SAPB_WXZ 10016790 f i ImageScanner.obj
 0001:000157a0       ?GetWndExStyle@?$CWinTraits@$0FGAAAAAA@$0A@@ATL@@SAKK@Z 100167a0 f i ImageScanner.obj
 0001:000157d0       ?GetWndExStyle@?$CWindowImplBaseT@VCWindow@ATL@@V?$CWinTraits@$0FGAAAAAA@$0A@@2@@ATL@@SAKK@Z 100167d0 f i ImageScanner.obj
 0001:000157f0       ?GetWndStyle@?$CWinTraits@$0FGAAAAAA@$0A@@ATL@@SAKK@Z 100167f0 f i ImageScanner.obj
 0001:00015820       ?GetWndStyle@?$CWindowImplBaseT@VCWindow@ATL@@V?$CWinTraits@$0FGAAAAAA@$0A@@2@@ATL@@SAKK@Z 10016820 f i ImageScanner.obj
 0001:00015840       ?GetZoomInfo@CComControlBase@ATL@@QAEXAAUATL_DRAWINFO@@@Z 10016840 f i ImageScanner.obj
 0001:000159b0       ?HKeyFromString@CRegParser@ATL@@KAPAUHKEY__@@PA_W@Z 100169b0 f i ImageScanner.obj
 0001:00015a20       ?HandsOffStorage@?$IPersistStorageImpl@VCOPOSImageScanner@@@ATL@@UAGJXZ 10016a20 f i ImageScanner.obj
 0001:00015a80       ?HasSubKeys@CRegParser@ATL@@IAEHPAUHKEY__@@@Z 10016a80 f i ImageScanner.obj
 0001:00015b90       ?IDataObject_GetData@CComControlBase@ATL@@QAEJPAUtagFORMATETC@@PAUtagSTGMEDIUM@@@Z 10016b90 f i ImageScanner.obj
 0001:00015fb0       ?IOleInPlaceObject_InPlaceDeactivate@CComControlBase@ATL@@QAEJXZ 10016fb0 f i ImageScanner.obj
 0001:000161b0       ?IOleInPlaceObject_SetObjectRects@CComControlBase@ATL@@QAEJPBUtagRECT@@0@Z 100171b0 f i ImageScanner.obj
 0001:00016370       ?IOleInPlaceObject_UIDeactivate@CComControlBase@ATL@@QAEJXZ 10017370 f i ImageScanner.obj
 0001:000165e0       ?IOleObject_Advise@CComControlBase@ATL@@QAEJPAUIAdviseSink@@PAK@Z 100175e0 f i ImageScanner.obj
 0001:00016690       ?IOleObject_Close@CComControlBase@ATL@@QAEJK@Z 10017690 f i ImageScanner.obj
 0001:00016940       ?IOleObject_GetClientSite@CComControlBase@ATL@@QAEJPAPAUIOleClientSite@@@Z 10017940 f i ImageScanner.obj
 0001:000169e0       ?IOleObject_SetClientSite@CComControlBase@ATL@@QAEJPAUIOleClientSite@@@Z 100179e0 f i ImageScanner.obj
 0001:00016ab0       ?IOleObject_SetExtent@CComControlBase@ATL@@QAEJKPAUtagSIZE@@@Z 10017ab0 f i ImageScanner.obj
 0001:00016bf0       ?IPSI_GetIPersistStreamInit@?$IPersistStorageImpl@VCOPOSImageScanner@@@ATL@@AAEPAUIPersistStreamInit@@XZ 10017bf0 f i ImageScanner.obj
 0001:00016cc0       ?IPersistStreamInit_Load@?$IPersistStreamInitImpl@VCOPOSImageScanner@@@ATL@@QAEJPAUIStream@@PBUATL_PROPMAP_ENTRY@2@@Z 10017cc0 f i ImageScanner.obj
 0001:00016d40       ?IPersistStreamInit_Save@?$IPersistStreamInitImpl@VCOPOSImageScanner@@@ATL@@QAEJPAUIStream@@HPBUATL_PROPMAP_ENTRY@2@@Z 10017d40 f i ImageScanner.obj
 0001:00016dd0       ?IQuickActivate_QuickActivate@CComControlBase@ATL@@QAEJPAUtagQACONTAINER@@PAUtagQACONTROL@@@Z 10017dd0 f i ImageScanner.obj
 0001:00017420       ?IViewObject_Draw@CComControlBase@ATL@@QAEJKJPAXPAUtagDVTARGETDEVICE@@PAUHDC__@@2PBU_RECTL@@3@Z 10018420 f i ImageScanner.obj
 0001:000176c0       ?InPlaceActivate@CComControlBase@ATL@@QAEJJPBUtagRECT@@@Z 100186c0 f i ImageScanner.obj
 0001:00018050       ?InPlaceDeactivate@?$IOleInPlaceObjectWindowlessImpl@VCOPOSImageScanner@@@ATL@@UAGJXZ 10019050 f i ImageScanner.obj
 0001:000180d0       ?Increment@CComMultiThreadModel@ATL@@SGKPAJ@Z 100190d0 f i ImageScanner.obj
 0001:000180f0       ?Increment@CComSingleThreadModel@ATL@@SGKPAJ@Z 100190f0 f i ImageScanner.obj
 0001:00018110       ?Init@?$CComEnumImpl@UIEnumConnectionPoints@@$1?_GUID_b196b285_bab4_101a_b69c_00aa00341d07@@3U__s_GUID@@BPAUIConnectionPoint@@V?$_CopyInterface@UIConnectionPoint@@@ATL@@@ATL@@QAEJPAPAUIConnectionPoint@@0PAUIUnknown@@W4CComEnumFlags@2@@Z 10019110 f i ImageScanner.obj
 0001:000182f0       ?Init@?$CComEnumImpl@UIEnumConnections@@$1?_GUID_b196b287_bab4_101a_b69c_00aa00341d07@@3U__s_GUID@@BUtagCONNECTDATA@@V?$_Copy@UtagCONNECTDATA@@@ATL@@@ATL@@QAEJPAUtagCONNECTDATA@@0PAUIUnknown@@W4CComEnumFlags@2@@Z 100192f0 f i ImageScanner.obj
 0001:000184d0       ?Init@CComFakeCriticalSection@ATL@@QAEJXZ 100194d0 f i ImageScanner.obj
 0001:000184f0       ?Init@CComModule@ATL@@QAEJPAU_ATL_OBJMAP_ENTRY30@2@PAUHINSTANCE__@@PBU_GUID@@@Z 100194f0 f i ImageScanner.obj
 0001:000185e0       ?Init@CComSafeDeleteCriticalSection@ATL@@QAEJXZ 100195e0 f i ImageScanner.obj
 0001:00018660       ?Init@CDynamicStdCallThunk2@ATL@@QAEHKPAX@Z 10019660 f i ImageScanner.obj
 0001:000186c0       ?Init@CWndProcThunk@ATL@@QAEHP6GJPAUHWND__@@IIJ@ZPAX@Z 100196c0 f i ImageScanner.obj
 0001:00018700       ?InitFromData@?$IOleObjectImpl@VCOPOSImageScanner@@@ATL@@UAGJPAUIDataObject@@HK@Z 10019700 f i ImageScanner.obj
 0001:00018770       ?InitLibId@?$CAtlModuleT@VCComModule@ATL@@@ATL@@SAXXZ 10019770 f i ImageScanner.obj
 0001:00018780       ?InitNew@?$IPersistStorageImpl@VCOPOSImageScanner@@@ATL@@UAGJPAUIStorage@@@Z 10019780 f i ImageScanner.obj
 0001:00018870       ?InitNew@?$IPersistStreamInitImpl@VCOPOSImageScanner@@@ATL@@UAGJXZ 10019870 f i ImageScanner.obj
 0001:00018900       ?InlineIsEqualUnknown@ATL@@YGHABU_GUID@@@Z 10019900 f i ImageScanner.obj
 0001:00018970       ?InternalAddRef@?$CComObjectRootEx@VCComMultiThreadModel@ATL@@@ATL@@QAEKXZ 10019970 f i ImageScanner.obj
 0001:000189d0       ?InternalAddRef@?$CComObjectRootEx@VCComSingleThreadModel@ATL@@@ATL@@QAEKXZ 100199d0 f i ImageScanner.obj
 0001:00018a30       ?InternalFinalConstructAddRef@CComObjectRootBase@ATL@@QAEXXZ 10019a30 f i ImageScanner.obj
 0001:00018a50       ?InternalFinalConstructAddRef@COPOSImageScanner@@QAEXXZ 10019a50 f i ImageScanner.obj
 0001:00018a80       ?InternalFinalConstructRelease@CComObjectRootBase@ATL@@QAEXXZ 10019a80 f i ImageScanner.obj
 0001:00018ad0       ?InternalFinalConstructRelease@COPOSImageScanner@@QAEXXZ 10019ad0 f i ImageScanner.obj
 0001:00018b00       ?InternalGetSite@CComControlBase@ATL@@QAEJABU_GUID@@PAPAX@Z 10019b00 f i ImageScanner.obj
 0001:00018bc0       ?InternalQueryInterface@CComObjectRootBase@ATL@@SGJPAXPBU_ATL_INTMAP_ENTRY@2@ABU_GUID@@PAPAX@Z 10019bc0 f i ImageScanner.obj
 0001:00018c80       ?InternalRelease@?$CComObjectRootEx@VCComMultiThreadModel@ATL@@@ATL@@QAEKXZ 10019c80 f i ImageScanner.obj
 0001:00018cf0       ?InternalRelease@?$CComObjectRootEx@VCComSingleThreadModel@ATL@@@ATL@@QAEKXZ 10019cf0 f i ImageScanner.obj
 0001:00018d60       ?InternalSetAtIndex@?$CSimpleArray@GV?$CSimpleArrayEqualHelper@G@ATL@@@ATL@@QAEXHABG@Z 10019d60 f i ImageScanner.obj
 0001:00018dd0       ?InternalSetAtIndex@?$CSimpleMap@PA_WPA_WVCExpansionVectorEqualHelper@ATL@@@ATL@@QAEXHABQA_W0@Z 10019dd0 f i ImageScanner.obj
 0001:00018e70       ?Invoke@?$IDispatchImpl@UIOPOSImageScanner@@$1?IID_IOPOSImageScanner@@3U_GUID@@B$1?LIBID_OposImageScanner_CCO@@3U3@B$00$0A@VCComTypeInfoHolder@ATL@@@ATL@@UAGJJABU_GUID@@KGPAUtagDISPPARAMS@@PAUtagVARIANT@@PAUtagEXCEPINFO@@PAI@Z 10019e70 f i ImageScanner.obj
 0001:00018eb0       ?Invoke@CComTypeInfoHolder@ATL@@QAEJPAUIDispatch@@JABU_GUID@@KGPAUtagDISPPARAMS@@PAUtagVARIANT@@PAUtagEXCEPINFO@@PAI@Z 10019eb0 f i ImageScanner.obj
 0001:00018f40       ?IsDirty@?$IPersistStorageImpl@VCOPOSImageScanner@@@ATL@@UAGJXZ 10019f40 f i ImageScanner.obj
 0001:00019030       ?IsDirty@?$IPersistStreamInitImpl@VCOPOSImageScanner@@@ATL@@UAGJXZ 1001a030 f i ImageScanner.obj
 0001:000190d0       ?IsEqualKey@CExpansionVectorEqualHelper@ATL@@SA_NQA_W0@Z 1001a0d0 f i ImageScanner.obj
 0001:00019100       ?IsEqualObject@?$CComPtrBase@UIOleClientSite@@@ATL@@QAE_NPAUIUnknown@@@Z 1001a100 f i ImageScanner.obj
 0001:00019230       ?IsEqualObject@?$CComPtrBase@UITypeInfo@@@ATL@@QAE_NPAUIUnknown@@@Z 1001a230 f i ImageScanner.obj
 0001:00019360       ?IsSpace@CRegParser@ATL@@IAEH_W@Z 1001a360 f i ImageScanner.obj
 0001:000193d0       ?IsUpToDate@?$IOleObjectImpl@VCOPOSImageScanner@@@ATL@@UAGJXZ 1001a3d0 f i ImageScanner.obj
 0001:00019430       ?Length@CComBSTR@ATL@@QBEIXZ 1001a430 f i ImageScanner.obj
 0001:00019470       ?Load@?$IPersistStorageImpl@VCOPOSImageScanner@@@ATL@@UAGJPAUIStorage@@@Z 1001a470 f i ImageScanner.obj
 0001:000195d0       ?Load@?$IPersistStreamInitImpl@VCOPOSImageScanner@@@ATL@@UAGJPAUIStream@@@Z 1001a5d0 f i ImageScanner.obj
 0001:00019660       ?LoadCursorW@AtlModuleRegisterWndClassInfoParamW@ATL@@SAPAUHICON__@@PAUHINSTANCE__@@PB_W@Z 1001a660 f i ImageScanner.obj
 0001:00019690       ?LoadNameCache@CComTypeInfoHolder@ATL@@QAEJPAUITypeInfo@@@Z 1001a690 f i ImageScanner.obj
 0001:00019920       ?Lock@?$CComCritSecLock@VCComCriticalSection@ATL@@@ATL@@QAEJXZ 1001a920 f i ImageScanner.obj
 0001:000199d0       ?Lock@?$CComObjectRootEx@VCComSingleThreadModel@ATL@@@ATL@@QAEXXZ 1001a9d0 f i ImageScanner.obj
 0001:000199f0       ?Lock@CAtlModule@ATL@@UAEJXZ 1001a9f0 f i ImageScanner.obj
 0001:00019a20       ?Lock@CComCriticalSection@ATL@@QAEJXZ 1001aa20 f i ImageScanner.obj
 0001:00019a60       ?Lock@CComFakeCriticalSection@ATL@@QAEJXZ 1001aa60 f i ImageScanner.obj
 0001:00019a80       ?LockServer@CComClassFactory@ATL@@UAGJH@Z 1001aa80 f i ImageScanner.obj
 0001:00019ae0       ?Lookup@?$CSimpleMap@PA_WPA_WVCExpansionVectorEqualHelper@ATL@@@ATL@@QBEPA_WABQA_W@Z 1001aae0 f i ImageScanner.obj
 0001:00019b30       ?Next@?$CComEnumImpl@UIEnumConnectionPoints@@$1?_GUID_b196b285_bab4_101a_b69c_00aa00341d07@@3U__s_GUID@@BPAUIConnectionPoint@@V?$_CopyInterface@UIConnectionPoint@@@ATL@@@ATL@@UAGJKPAPAUIConnectionPoint@@PAK@Z 1001ab30 f i ImageScanner.obj
 0001:00019ca0       ?Next@?$CComEnumImpl@UIEnumConnections@@$1?_GUID_b196b287_bab4_101a_b69c_00aa00341d07@@3U__s_GUID@@BUtagCONNECTDATA@@V?$_Copy@UtagCONNECTDATA@@@ATL@@@ATL@@UAGJKPAUtagCONNECTDATA@@PAK@Z 1001aca0 f i ImageScanner.obj
 0001:00019e10       ?NextToken@CRegParser@ATL@@IAEJPA_W@Z 1001ae10 f i ImageScanner.obj
 0001:0001a0b0       ?OLE2CT_EX@@YAPB_WPB_WI@Z  1001b0b0 f i ImageScanner.obj
 0001:0001a0c0       ?OLE2CT_EX_DEF@@YAPB_WPB_W@Z 1001b0c0 f i ImageScanner.obj
 0001:0001a0d0       ?OLE2T_EX@@YAPA_WPA_WI@Z   1001b0d0 f i ImageScanner.obj
 0001:0001a0e0       ?OnAmbientPropertyChange@?$IOleControlImpl@VCOPOSImageScanner@@@ATL@@UAGJJ@Z 1001b0e0 f i ImageScanner.obj
 0001:0001a170       ?OnDocWindowActivate@?$IOleInPlaceActiveObjectImpl@VCOPOSImageScanner@@@ATL@@UAGJH@Z 1001b170 f i ImageScanner.obj
 0001:0001a200       ?OnDrawAdvanced@CComControlBase@ATL@@UAEJAAUATL_DRAWINFO@@@Z 1001b200 f i ImageScanner.obj
 0001:0001a420       ?OnFinalMessage@?$CWindowImplBaseT@VCWindow@ATL@@V?$CWinTraits@$0FGAAAAAA@$0A@@2@@ATL@@UAEXPAUHWND__@@@Z 1001b420 f i ImageScanner.obj
 0001:0001a440       ?OnFrameWindowActivate@?$IOleInPlaceActiveObjectImpl@VCOPOSImageScanner@@@ATL@@UAGJH@Z 1001b440 f i ImageScanner.obj
 0001:0001a4a0       ?OnKillFocus@CComControlBase@ATL@@QAEJIIJAAH@Z 1001b4a0 f i ImageScanner.obj
 0001:0001a5a0       ?OnMnemonic@?$IOleControlImpl@VCOPOSImageScanner@@@ATL@@UAGJPAUtagMSG@@@Z 1001b5a0 f i ImageScanner.obj
 0001:0001a610       ?OnMouseActivate@CComControlBase@ATL@@QAEJIIJAAH@Z 1001b610 f i ImageScanner.obj
 0001:0001a760       ?OnPaint@CComControlBase@ATL@@QAEJIIJAAH@Z 1001b760 f i ImageScanner.obj
 0001:0001a8e0       ?OnPostVerbDiscardUndo@?$IOleObjectImpl@VCOPOSImageScanner@@@ATL@@QAEJXZ 1001b8e0 f i ImageScanner.obj
 0001:0001a900       ?OnPostVerbHide@?$IOleObjectImpl@VCOPOSImageScanner@@@ATL@@QAEJXZ 1001b900 f i ImageScanner.obj
 0001:0001a920       ?OnPostVerbInPlaceActivate@?$IOleObjectImpl@VCOPOSImageScanner@@@ATL@@QAEJXZ 1001b920 f i ImageScanner.obj
 0001:0001a940       ?OnPostVerbOpen@?$IOleObjectImpl@VCOPOSImageScanner@@@ATL@@QAEJXZ 1001b940 f i ImageScanner.obj
 0001:0001a960       ?OnPostVerbShow@?$IOleObjectImpl@VCOPOSImageScanner@@@ATL@@QAEJXZ 1001b960 f i ImageScanner.obj
 0001:0001a980       ?OnPostVerbUIActivate@?$IOleObjectImpl@VCOPOSImageScanner@@@ATL@@QAEJXZ 1001b980 f i ImageScanner.obj
 0001:0001a9a0       ?OnPreVerbDiscardUndo@?$IOleObjectImpl@VCOPOSImageScanner@@@ATL@@QAEJXZ 1001b9a0 f i ImageScanner.obj
 0001:0001a9c0       ?OnPreVerbHide@?$IOleObjectImpl@VCOPOSImageScanner@@@ATL@@QAEJXZ 1001b9c0 f i ImageScanner.obj
 0001:0001a9e0       ?OnPreVerbInPlaceActivate@?$IOleObjectImpl@VCOPOSImageScanner@@@ATL@@QAEJXZ 1001b9e0 f i ImageScanner.obj
 0001:0001aa00       ?OnPreVerbOpen@?$IOleObjectImpl@VCOPOSImageScanner@@@ATL@@QAEJXZ 1001ba00 f i ImageScanner.obj
 0001:0001aa20       ?OnPreVerbShow@?$IOleObjectImpl@VCOPOSImageScanner@@@ATL@@QAEJXZ 1001ba20 f i ImageScanner.obj
 0001:0001aa40       ?OnPreVerbUIActivate@?$IOleObjectImpl@VCOPOSImageScanner@@@ATL@@QAEJXZ 1001ba40 f i ImageScanner.obj
 0001:0001aa60       ?OnSetFocus@CComControlBase@ATL@@QAEJIIJAAH@Z 1001ba60 f i ImageScanner.obj
 0001:0001abf0       ?OnWindowMessage@?$IOleInPlaceObjectWindowlessImpl@VCOPOSImageScanner@@@ATL@@UAGJIIJPAJ@Z 1001bbf0 f i ImageScanner.obj
 0001:0001ad50       ?Open@CRegKey@ATL@@QAEJPAUHKEY__@@PB_WK@Z 1001bd50 f i ImageScanner.obj
 0001:0001aea0       ?OuterAddRef@CComObjectRootBase@ATL@@QAEKXZ 1001bea0 f i ImageScanner.obj
 0001:0001aee0       ?OuterQueryInterface@CComObjectRootBase@ATL@@QAEJABU_GUID@@PAPAX@Z 1001bee0 f i ImageScanner.obj
 0001:0001af30       ?OuterRelease@CComObjectRootBase@ATL@@QAEKXZ 1001bf30 f i ImageScanner.obj
 0001:0001af70       ?PreProcessBuffer@CRegParser@ATL@@QAEJPA_WPAPA_W@Z 1001bf70 f i ImageScanner.obj
 0001:0001b4b0       ?PreTranslateAccelerator@CComControlBase@ATL@@QAEHPAUtagMSG@@AAJ@Z 1001c4b0 f i ImageScanner.obj
 0001:0001b4d0       ?ProcessWindowMessage@?$CComControl@VCOPOSImageScanner@@V?$CWindowImpl@VCOPOSImageScanner@@VCWindow@ATL@@V?$CWinTraits@$0FGAAAAAA@$0A@@3@@ATL@@@ATL@@UAEHPAUHWND__@@IIJAAJK@Z 1001c4d0 f i ImageScanner.obj
 0001:0001b6a0       ?ProcessWindowMessage@COPOSImageScanner@@UAEHPAUHWND__@@IIJAAJK@Z 1001c6a0 f i ImageScanner.obj
 0001:0001b7a0       ?PutProperty@?$CComPtr@UIDispatch@@@ATL@@QAEJJPAUtagVARIANT@@@Z 1001c7a0 f i ImageScanner.obj
 0001:0001b7e0       ?PutProperty@?$CComPtr@UIDispatch@@@ATL@@SAJPAUIDispatch@@JPAUtagVARIANT@@@Z 1001c7e0 f i ImageScanner.obj
 0001:0001b9d0       ?QueryGetData@?$IDataObjectImpl@VCOPOSImageScanner@@@ATL@@UAGJPAUtagFORMATETC@@@Z 1001c9d0 f i ImageScanner.obj
 0001:0001ba40       ?QueryHitPoint@?$IViewObjectExImpl@VCOPOSImageScanner@@@ATL@@UAGJKPBUtagRECT@@UtagPOINT@@JPAK@Z 1001ca40 f i ImageScanner.obj
 0001:0001bb50       ?QueryHitRect@?$IViewObjectExImpl@VCOPOSImageScanner@@@ATL@@UAGJKPBUtagRECT@@0JPAK@Z 1001cb50 f i ImageScanner.obj
 0001:0001bca0       ?QueryInterface@?$CComAggObject@VCOPOSImageScanner@@@ATL@@UAGJABU_GUID@@PAPAX@Z 1001cca0 f i ImageScanner.obj
 0001:0001bd50       ?QueryInterface@?$CComContainedObject@VCOPOSImageScanner@@@ATL@@UAGJABU_GUID@@PAPAX@Z 1001cd50 f i ImageScanner.obj
 0001:0001bd74       ?QueryInterface@?$CComContainedObject@VCOPOSImageScanner@@@ATL@@WHA@AGJABU_GUID@@PAPAX@Z 1001cd74 f i ImageScanner.obj
 0001:0001bd7e       ?QueryInterface@?$CComContainedObject@VCOPOSImageScanner@@@ATL@@WHE@AGJABU_GUID@@PAPAX@Z 1001cd7e f i ImageScanner.obj
 0001:0001bd88       ?QueryInterface@?$CComContainedObject@VCOPOSImageScanner@@@ATL@@WHI@AGJABU_GUID@@PAPAX@Z 1001cd88 f i ImageScanner.obj
 0001:0001bd92       ?QueryInterface@?$CComContainedObject@VCOPOSImageScanner@@@ATL@@WHM@AGJABU_GUID@@PAPAX@Z 1001cd92 f i ImageScanner.obj
 0001:0001bd9c       ?QueryInterface@?$CComContainedObject@VCOPOSImageScanner@@@ATL@@WIA@AGJABU_GUID@@PAPAX@Z 1001cd9c f i ImageScanner.obj
 0001:0001bda9       ?QueryInterface@?$CComContainedObject@VCOPOSImageScanner@@@ATL@@WIE@AGJABU_GUID@@PAPAX@Z 1001cda9 f i ImageScanner.obj
 0001:0001bdb6       ?QueryInterface@?$CComContainedObject@VCOPOSImageScanner@@@ATL@@WII@AGJABU_GUID@@PAPAX@Z 1001cdb6 f i ImageScanner.obj
 0001:0001bdc3       ?QueryInterface@?$CComContainedObject@VCOPOSImageScanner@@@ATL@@WIM@AGJABU_GUID@@PAPAX@Z 1001cdc3 f i ImageScanner.obj
 0001:0001bdd0       ?QueryInterface@?$CComContainedObject@VCOPOSImageScanner@@@ATL@@WJA@AGJABU_GUID@@PAPAX@Z 1001cdd0 f i ImageScanner.obj
 0001:0001bddd       ?QueryInterface@?$CComContainedObject@VCOPOSImageScanner@@@ATL@@WJE@AGJABU_GUID@@PAPAX@Z 1001cddd f i ImageScanner.obj
 0001:0001bdea       ?QueryInterface@?$CComContainedObject@VCOPOSImageScanner@@@ATL@@WJI@AGJABU_GUID@@PAPAX@Z 1001cdea f i ImageScanner.obj
 0001:0001bdf7       ?QueryInterface@?$CComContainedObject@VCOPOSImageScanner@@@ATL@@WJM@AGJABU_GUID@@PAPAX@Z 1001cdf7 f i ImageScanner.obj
 0001:0001be04       ?QueryInterface@?$CComContainedObject@VCOPOSImageScanner@@@ATL@@WKA@AGJABU_GUID@@PAPAX@Z 1001ce04 f i ImageScanner.obj
 0001:0001be20       ?QueryInterface@?$CComObject@V?$CComEnum@UIEnumConnectionPoints@@$1?_GUID_b196b285_bab4_101a_b69c_00aa00341d07@@3U__s_GUID@@BPAUIConnectionPoint@@V?$_CopyInterface@UIConnectionPoint@@@ATL@@VCComSingleThreadModel@6@@ATL@@@ATL@@UAGJABU_GUID@@PAPAX@Z 1001ce20 f i ImageScanner.obj
 0001:0001be40       ?QueryInterface@?$CComObject@V?$CComEnum@UIEnumConnections@@$1?_GUID_b196b287_bab4_101a_b69c_00aa00341d07@@3U__s_GUID@@BUtagCONNECTDATA@@V?$_Copy@UtagCONNECTDATA@@@ATL@@VCComSingleThreadModel@6@@ATL@@@ATL@@UAGJABU_GUID@@PAPAX@Z 1001ce40 f i ImageScanner.obj
 0001:0001be60       ?QueryInterface@?$CComObject@VCOPOSImageScanner@@@ATL@@UAGJABU_GUID@@PAPAX@Z 1001ce60 f i ImageScanner.obj
 0001:0001be7e       ?QueryInterface@?$CComObject@VCOPOSImageScanner@@@ATL@@WHA@AGJABU_GUID@@PAPAX@Z 1001ce7e f i ImageScanner.obj
 0001:0001be88       ?QueryInterface@?$CComObject@VCOPOSImageScanner@@@ATL@@WHE@AGJABU_GUID@@PAPAX@Z 1001ce88 f i ImageScanner.obj
 0001:0001be92       ?QueryInterface@?$CComObject@VCOPOSImageScanner@@@ATL@@WHI@AGJABU_GUID@@PAPAX@Z 1001ce92 f i ImageScanner.obj
 0001:0001be9c       ?QueryInterface@?$CComObject@VCOPOSImageScanner@@@ATL@@WHM@AGJABU_GUID@@PAPAX@Z 1001ce9c f i ImageScanner.obj
 0001:0001bea6       ?QueryInterface@?$CComObject@VCOPOSImageScanner@@@ATL@@WIA@AGJABU_GUID@@PAPAX@Z 1001cea6 f i ImageScanner.obj
 0001:0001beb3       ?QueryInterface@?$CComObject@VCOPOSImageScanner@@@ATL@@WIE@AGJABU_GUID@@PAPAX@Z 1001ceb3 f i ImageScanner.obj
 0001:0001bec0       ?QueryInterface@?$CComObject@VCOPOSImageScanner@@@ATL@@WII@AGJABU_GUID@@PAPAX@Z 1001cec0 f i ImageScanner.obj
 0001:0001becd       ?QueryInterface@?$CComObject@VCOPOSImageScanner@@@ATL@@WIM@AGJABU_GUID@@PAPAX@Z 1001cecd f i ImageScanner.obj
 0001:0001beda       ?QueryInterface@?$CComObject@VCOPOSImageScanner@@@ATL@@WJA@AGJABU_GUID@@PAPAX@Z 1001ceda f i ImageScanner.obj
 0001:0001bee7       ?QueryInterface@?$CComObject@VCOPOSImageScanner@@@ATL@@WJE@AGJABU_GUID@@PAPAX@Z 1001cee7 f i ImageScanner.obj
 0001:0001bef4       ?QueryInterface@?$CComObject@VCOPOSImageScanner@@@ATL@@WJI@AGJABU_GUID@@PAPAX@Z 1001cef4 f i ImageScanner.obj
 0001:0001bf01       ?QueryInterface@?$CComObject@VCOPOSImageScanner@@@ATL@@WJM@AGJABU_GUID@@PAPAX@Z 1001cf01 f i ImageScanner.obj
 0001:0001bf0e       ?QueryInterface@?$CComObject@VCOPOSImageScanner@@@ATL@@WKA@AGJABU_GUID@@PAPAX@Z 1001cf0e f i ImageScanner.obj
 0001:0001bf20       ?QueryInterface@?$CComObjectCached@VCComClassFactory@ATL@@@ATL@@UAGJABU_GUID@@PAPAX@Z 1001cf20 f i ImageScanner.obj
 0001:0001bf40       ?QueryInterface@CRegObject@ATL@@UAGJABU_GUID@@PAPAX@Z 1001cf40 f i ImageScanner.obj
 0001:0001bf90       ?QuickActivate@?$IQuickActivateImpl@VCOPOSImageScanner@@@ATL@@UAGJPAUtagQACONTAINER@@PAUtagQACONTROL@@@Z 1001cf90 f i ImageScanner.obj
 0001:0001c020       ?ReactivateAndUndo@?$IOleInPlaceObjectWindowlessImpl@VCOPOSImageScanner@@@ATL@@UAGJXZ 1001d020 f i ImageScanner.obj
 0001:0001c090       ?ReadFromStream@CComBSTR@ATL@@QAEJPAUIStream@@@Z 1001d090 f i ImageScanner.obj
 0001:0001c490       ?ReadFromStream@CComVariant@ATL@@QAEJPAUIStream@@GTClassesAllowedInStream@2@K@Z 1001d490 f i ImageScanner.obj
 0001:0001c7f0       ?RecurseDeleteKey@CRegKey@ATL@@QAEJPB_W@Z 1001d7f0 f i ImageScanner.obj
 0001:0001c9d0       ?RegCreateKeyExW@CAtlTransactionManager@ATL@@QAEJPAUHKEY__@@PB_WKPA_WKKQAU_SECURITY_ATTRIBUTES@@PAPAU3@PAK@Z 1001d9d0 f i ImageScanner.obj
 0001:0001cb00       ?RegDeleteKeyW@CAtlTransactionManager@ATL@@QAEJPAUHKEY__@@PB_W@Z 1001db00 f i ImageScanner.obj
 0001:0001cc00       ?RegOpenKeyExW@CAtlTransactionManager@ATL@@QAEJPAUHKEY__@@PB_WKKPAPAU3@@Z 1001dc00 f i ImageScanner.obj
 0001:0001cd10       ?Register@_ATL_WNDCLASSINFOW@ATL@@QAEGPAP6GJPAUHWND__@@IIJ@Z@Z 1001dd10 f i ImageScanner.obj
 0001:0001cd50       ?RegisterBuffer@CRegParser@ATL@@QAEJPA_WH@Z 1001dd50 f i ImageScanner.obj
 0001:0001d080       ?RegisterClassExW@AtlModuleRegisterWndClassInfoParamW@ATL@@SAGPAU_ATL_WIN_MODULE70@2@PBUtagWNDCLASSEXW@@@Z 1001e080 f i ImageScanner.obj
 0001:0001d0a0       ?RegisterFromResource@CRegObject@ATL@@IAEJPB_W00H@Z 1001e0a0 f i ImageScanner.obj
 0001:0001d430       ?RegisterServer@?$CAtlModuleT@VCComModule@ATL@@@ATL@@QAEJHPBU_GUID@@@Z 1001e430 f i ImageScanner.obj
 0001:0001d4b0       ?RegisterServer@CAtlComModule@ATL@@QAEJHPBU_GUID@@@Z 1001e4b0 f i ImageScanner.obj
 0001:0001d4e0       ?RegisterServer@CComModule@ATL@@QAEJHPBU_GUID@@@Z 1001e4e0 f i ImageScanner.obj
 0001:0001d5c0       ?RegisterSubkeys@CRegParser@ATL@@IAEJPA_WPAUHKEY__@@HH@Z 1001e5c0 f i ImageScanner.obj
 0001:0001e0e0       ?Release@?$CComAggObject@VCOPOSImageScanner@@@ATL@@UAGKXZ 1001f0e0 f i ImageScanner.obj
 0001:0001e1a0       ?Release@?$CComContainedObject@VCOPOSImageScanner@@@ATL@@UAGKXZ 1001f1a0 f i ImageScanner.obj
 0001:0001e1bc       ?Release@?$CComContainedObject@VCOPOSImageScanner@@@ATL@@WHA@AGKXZ 1001f1bc f i ImageScanner.obj
 0001:0001e1c6       ?Release@?$CComContainedObject@VCOPOSImageScanner@@@ATL@@WHE@AGKXZ 1001f1c6 f i ImageScanner.obj
 0001:0001e1d0       ?Release@?$CComContainedObject@VCOPOSImageScanner@@@ATL@@WHI@AGKXZ 1001f1d0 f i ImageScanner.obj
 0001:0001e1da       ?Release@?$CComContainedObject@VCOPOSImageScanner@@@ATL@@WHM@AGKXZ 1001f1da f i ImageScanner.obj
 0001:0001e1e4       ?Release@?$CComContainedObject@VCOPOSImageScanner@@@ATL@@WIA@AGKXZ 1001f1e4 f i ImageScanner.obj
 0001:0001e1f1       ?Release@?$CComContainedObject@VCOPOSImageScanner@@@ATL@@WIE@AGKXZ 1001f1f1 f i ImageScanner.obj
 0001:0001e1fe       ?Release@?$CComContainedObject@VCOPOSImageScanner@@@ATL@@WII@AGKXZ 1001f1fe f i ImageScanner.obj
 0001:0001e20b       ?Release@?$CComContainedObject@VCOPOSImageScanner@@@ATL@@WIM@AGKXZ 1001f20b f i ImageScanner.obj
 0001:0001e218       ?Release@?$CComContainedObject@VCOPOSImageScanner@@@ATL@@WJA@AGKXZ 1001f218 f i ImageScanner.obj
 0001:0001e225       ?Release@?$CComContainedObject@VCOPOSImageScanner@@@ATL@@WJE@AGKXZ 1001f225 f i ImageScanner.obj
 0001:0001e232       ?Release@?$CComContainedObject@VCOPOSImageScanner@@@ATL@@WJI@AGKXZ 1001f232 f i ImageScanner.obj
 0001:0001e23f       ?Release@?$CComContainedObject@VCOPOSImageScanner@@@ATL@@WJM@AGKXZ 1001f23f f i ImageScanner.obj
 0001:0001e24c       ?Release@?$CComContainedObject@VCOPOSImageScanner@@@ATL@@WKA@AGKXZ 1001f24c f i ImageScanner.obj
 0001:0001e259       ?Release@?$CComContainedObject@VCOPOSImageScanner@@@ATL@@WKI@AGKXZ 1001f259 f i ImageScanner.obj
 0001:0001e266       ?Release@?$CComContainedObject@VCOPOSImageScanner@@@ATL@@WLE@AGKXZ 1001f266 f i ImageScanner.obj
 0001:0001e280       ?Release@?$CComObject@V?$CComEnum@UIEnumConnectionPoints@@$1?_GUID_b196b285_bab4_101a_b69c_00aa00341d07@@3U__s_GUID@@BPAUIConnectionPoint@@V?$_CopyInterface@UIConnectionPoint@@@ATL@@VCComSingleThreadModel@6@@ATL@@@ATL@@UAGKXZ 1001f280 f i ImageScanner.obj
 0001:0001e340       ?Release@?$CComObject@V?$CComEnum@UIEnumConnections@@$1?_GUID_b196b287_bab4_101a_b69c_00aa00341d07@@3U__s_GUID@@BUtagCONNECTDATA@@V?$_Copy@UtagCONNECTDATA@@@ATL@@VCComSingleThreadModel@6@@ATL@@@ATL@@UAGKXZ 1001f340 f i ImageScanner.obj
 0001:0001e400       ?Release@?$CComObject@VCOPOSImageScanner@@@ATL@@UAGKXZ 1001f400 f i ImageScanner.obj
 0001:0001e4c1       ?Release@?$CComObject@VCOPOSImageScanner@@@ATL@@WHA@AGKXZ 1001f4c1 f i ImageScanner.obj
 0001:0001e4cb       ?Release@?$CComObject@VCOPOSImageScanner@@@ATL@@WHE@AGKXZ 1001f4cb f i ImageScanner.obj
 0001:0001e4d5       ?Release@?$CComObject@VCOPOSImageScanner@@@ATL@@WHI@AGKXZ 1001f4d5 f i ImageScanner.obj
 0001:0001e4df       ?Release@?$CComObject@VCOPOSImageScanner@@@ATL@@WHM@AGKXZ 1001f4df f i ImageScanner.obj
 0001:0001e4e9       ?Release@?$CComObject@VCOPOSImageScanner@@@ATL@@WIA@AGKXZ 1001f4e9 f i ImageScanner.obj
 0001:0001e4f6       ?Release@?$CComObject@VCOPOSImageScanner@@@ATL@@WIE@AGKXZ 1001f4f6 f i ImageScanner.obj
 0001:0001e503       ?Release@?$CComObject@VCOPOSImageScanner@@@ATL@@WII@AGKXZ 1001f503 f i ImageScanner.obj
 0001:0001e510       ?Release@?$CComObject@VCOPOSImageScanner@@@ATL@@WIM@AGKXZ 1001f510 f i ImageScanner.obj
 0001:0001e51d       ?Release@?$CComObject@VCOPOSImageScanner@@@ATL@@WJA@AGKXZ 1001f51d f i ImageScanner.obj
 0001:0001e52a       ?Release@?$CComObject@VCOPOSImageScanner@@@ATL@@WJE@AGKXZ 1001f52a f i ImageScanner.obj
 0001:0001e537       ?Release@?$CComObject@VCOPOSImageScanner@@@ATL@@WJI@AGKXZ 1001f537 f i ImageScanner.obj
 0001:0001e544       ?Release@?$CComObject@VCOPOSImageScanner@@@ATL@@WJM@AGKXZ 1001f544 f i ImageScanner.obj
 0001:0001e551       ?Release@?$CComObject@VCOPOSImageScanner@@@ATL@@WKA@AGKXZ 1001f551 f i ImageScanner.obj
 0001:0001e55e       ?Release@?$CComObject@VCOPOSImageScanner@@@ATL@@WKI@AGKXZ 1001f55e f i ImageScanner.obj
 0001:0001e56b       ?Release@?$CComObject@VCOPOSImageScanner@@@ATL@@WLE@AGKXZ 1001f56b f i ImageScanner.obj
 0001:0001e580       ?Release@?$CComObjectCached@VCComClassFactory@ATL@@@ATL@@UAGKXZ 1001f580 f i ImageScanner.obj
 0001:0001e620       ?Release@?$CComPtrBase@UIAdviseSink@@@ATL@@QAEXXZ 1001f620 f i ImageScanner.obj
 0001:0001e680       ?Release@?$CComPtrBase@UIDispatch@@@ATL@@QAEXXZ 1001f680 f i ImageScanner.obj
 0001:0001e6e0       ?Release@?$CComPtrBase@UIOleInPlaceSiteWindowless@@@ATL@@QAEXXZ 1001f6e0 f i ImageScanner.obj
 0001:0001e740       ?Release@CRegObject@ATL@@UAGKXZ 1001f740 f i ImageScanner.obj
 0001:0001e780       ?Remove@CComDynamicUnkArray@ATL@@QAEHK@Z 1001f780 f i ImageScanner.obj
 0001:0001e830       ?RemoveAll@?$CSimpleMap@PA_WPA_WVCExpansionVectorEqualHelper@ATL@@@ATL@@QAEXXZ 1001f830 f i ImageScanner.obj
 0001:0001e8c0       ?Reset@?$CComEnumImpl@UIEnumConnectionPoints@@$1?_GUID_b196b285_bab4_101a_b69c_00aa00341d07@@3U__s_GUID@@BPAUIConnectionPoint@@V?$_CopyInterface@UIConnectionPoint@@@ATL@@@ATL@@UAGJXZ 1001f8c0 f i ImageScanner.obj
 0001:0001e8e0       ?Reset@?$CComEnumImpl@UIEnumConnections@@$1?_GUID_b196b287_bab4_101a_b69c_00aa00341d07@@3U__s_GUID@@BUtagCONNECTDATA@@V?$_Copy@UtagCONNECTDATA@@@ATL@@@ATL@@UAGJXZ 1001f8e0 f i ImageScanner.obj
 0001:0001e900       ?ResizeBorder@?$IOleInPlaceActiveObjectImpl@VCOPOSImageScanner@@@ATL@@UAGJPBUtagRECT@@PAUIOleInPlaceUIWindow@@H@Z 1001f900 f i ImageScanner.obj
 0001:0001e960       ?ResourceRegister@CRegObject@ATL@@QAGJPB_WI0@Z 1001f960 f i ImageScanner.obj
 0001:0001ea40       ?ResourceRegisterSz@CRegObject@ATL@@QAGJPB_W00@Z 1001fa40 f i ImageScanner.obj
 0001:0001eb40       ?ResourceUnregister@CRegObject@ATL@@QAGJPB_WI0@Z 1001fb40 f i ImageScanner.obj
 0001:0001ec20       ?ResourceUnregisterSz@CRegObject@ATL@@QAGJPB_W00@Z 1001fc20 f i ImageScanner.obj
 0001:0001ed20       ?SOData@COPOSImageScanner@@MAGJJ@Z 1001fd20 f i ImageScanner.obj
 0001:0001eda0       ?SODirectIO@COPOSImageScanner@@MAGJJPAJPAPA_W@Z 1001fda0 f i ImageScanner.obj
 0001:0001ef60       ?SOError@COPOSImageScanner@@MAGJJJJPAJ@Z 1001ff60 f i ImageScanner.obj
 0001:0001f020       ?SOOutputCompleteDummy@COPOSImageScanner@@MAGJJ@Z 10020020 f i ImageScanner.obj
 0001:0001f030       ?SOStatusUpdate@COPOSImageScanner@@MAGJJ@Z 10020030 f i ImageScanner.obj
 0001:0001f0b0       ?Save@?$IPersistStorageImpl@VCOPOSImageScanner@@@ATL@@UAGJPAUIStorage@@H@Z 100200b0 f i ImageScanner.obj
 0001:0001f210       ?Save@?$IPersistStreamInitImpl@VCOPOSImageScanner@@@ATL@@UAGJPAUIStream@@H@Z 10020210 f i ImageScanner.obj
 0001:0001f2a0       ?SaveCompleted@?$IPersistStorageImpl@VCOPOSImageScanner@@@ATL@@UAGJPAUIStorage@@@Z 100202a0 f i ImageScanner.obj
 0001:0001f300       ?SendOnDataChange@CComControlBase@ATL@@QAEJK@Z 10020300 f i ImageScanner.obj
 0001:0001f3f0       ?SendOnSave@CComControlBase@ATL@@QAEJXZ 100203f0 f i ImageScanner.obj
 0001:0001f460       ?SendOnViewChange@CComControlBase@ATL@@QAEJKJ@Z 10020460 f i ImageScanner.obj
 0001:0001f4d0       ?SetAdvise@?$IViewObjectExImpl@VCOPOSImageScanner@@@ATL@@UAGJKKPAUIAdviseSink@@@Z 100204d0 f i ImageScanner.obj
 0001:0001f560       ?SetClientSite@?$IOleObjectImpl@VCOPOSImageScanner@@@ATL@@UAGJPAUIOleClientSite@@@Z 10020560 f i ImageScanner.obj
 0001:0001f5f0       ?SetColorScheme@?$IOleObjectImpl@VCOPOSImageScanner@@@ATL@@UAGJPAUtagLOGPALETTE@@@Z 100205f0 f i ImageScanner.obj
 0001:0001f660       ?SetContentExtent@?$IQuickActivateImpl@VCOPOSImageScanner@@@ATL@@UAGJPAUtagSIZE@@@Z 10020660 f i ImageScanner.obj
 0001:0001f6f0       ?SetControlFocus@CComControlBase@ATL@@QAEHH@Z 100206f0 f i ImageScanner.obj
 0001:0001f870       ?SetDWORDValue@CRegKey@ATL@@QAEJPB_WK@Z 10020870 f i ImageScanner.obj
 0001:0001f8f0       ?SetData@?$IDataObjectImpl@VCOPOSImageScanner@@@ATL@@UAGJPAUtagFORMATETC@@PAUtagSTGMEDIUM@@H@Z 100208f0 f i ImageScanner.obj
 0001:0001f960       ?SetExtent@?$IOleObjectImpl@VCOPOSImageScanner@@@ATL@@UAGJKPAUtagSIZE@@@Z 10020960 f i ImageScanner.obj
 0001:0001f9f0       ?SetHostNames@?$IOleObjectImpl@VCOPOSImageScanner@@@ATL@@UAGJPB_W0@Z 100209f0 f i ImageScanner.obj
 0001:0001fa50       ?SetInterfaceSafetyOptions@?$IObjectSafetyImpl@VCOPOSImageScanner@@$02@ATL@@UAGJABU_GUID@@KK@Z 10020a50 f i ImageScanner.obj
 0001:0001fbc0       ?SetMoniker@?$IOleObjectImpl@VCOPOSImageScanner@@@ATL@@UAGJKPAUIMoniker@@@Z 10020bc0 f i ImageScanner.obj
 0001:0001fc30       ?SetMultiStringValue@CRegKey@ATL@@QAEJPB_W0@Z 10020c30 f i ImageScanner.obj
 0001:0001fd50       ?SetObjectRects@?$IOleInPlaceObjectWindowlessImpl@VCOPOSImageScanner@@@ATL@@UAGJPBUtagRECT@@0@Z 10020d50 f i ImageScanner.obj
 0001:0001fde0       ?SetStringValue@CRegKey@ATL@@QAEJPB_W0K@Z 10020de0 f i ImageScanner.obj
 0001:0001ff10       ?SetVoid@CComClassFactory@ATL@@QAEXPAX@Z 10020f10 f i ImageScanner.obj
 0001:0001ff30       ?SetVoid@CComObjectRootBase@ATL@@QAEXPAX@Z 10020f30 f i ImageScanner.obj
 0001:0001ff50       ?SetWindowLongPtrW@@YAJPAUHWND__@@HJ@Z 10020f50 f i ImageScanner.obj
 0001:0001ff80       ?ShowWindow@CWindow@ATL@@QAEHH@Z 10020f80 f i ImageScanner.obj
 0001:00020000       ?Skip@?$CComEnumImpl@UIEnumConnectionPoints@@$1?_GUID_b196b285_bab4_101a_b69c_00aa00341d07@@3U__s_GUID@@BPAUIConnectionPoint@@V?$_CopyInterface@UIConnectionPoint@@@ATL@@@ATL@@UAGJK@Z 10021000 f i ImageScanner.obj
 0001:00020080       ?Skip@?$CComEnumImpl@UIEnumConnections@@$1?_GUID_b196b287_bab4_101a_b69c_00aa00341d07@@3U__s_GUID@@BUtagCONNECTDATA@@V?$_Copy@UtagCONNECTDATA@@@ATL@@@ATL@@UAGJK@Z 10021080 f i ImageScanner.obj
 0001:00020100       ?SkipAssignment@CRegParser@ATL@@IAEJPA_W@Z 10021100 f i ImageScanner.obj
 0001:000201e0       ?SkipWhiteSpace@CRegParser@ATL@@IAEXXZ 100211e0 f i ImageScanner.obj
 0001:00020230       ?StartWindowProc@?$CWindowImplBaseT@VCWindow@ATL@@V?$CWinTraits@$0FGAAAAAA@$0A@@2@@ATL@@SGJPAUHWND__@@IIJ@Z 10021230 f i ImageScanner.obj
 0001:00020350       ?StrChrW@CRegParser@ATL@@KAPA_WPA_W_W@Z 10021350 f i ImageScanner.obj
 0001:000203c0       ?StrFromMap@CRegObject@ATL@@QAEPB_WPA_W@Z 100213c0 f i ImageScanner.obj
 0001:00020450       ?Swap@?$CComPtrBase@UIAdviseSink@@@ATL@@IAEXAAV12@@Z 10021450 f i ImageScanner.obj
 0001:00020490       ?Swap@?$CComPtrBase@UIOleClientSite@@@ATL@@IAEXAAV12@@Z 10021490 f i ImageScanner.obj
 0001:000204d0       ?Swap@?$CComPtrBase@UIUnknown@@@ATL@@IAEXAAV12@@Z 100214d0 f i ImageScanner.obj
 0001:00020510       ?T2COLE_EX@@YAPB_WPB_WI@Z  10021510 f i ImageScanner.obj
 0001:00020520       ?T2OLE_EX@@YAPA_WPA_WI@Z   10021520 f i ImageScanner.obj
 0001:00020530       ?Term@CAtlModule@ATL@@QAEXXZ 10021530 f i ImageScanner.obj
 0001:000205e0       ?Term@CComModule@ATL@@QAEXXZ 100215e0 f i ImageScanner.obj
 0001:000206d0       ?TranslateAcceleratorW@?$IOleInPlaceActiveObjectImpl@VCOPOSImageScanner@@@ATL@@UAGJPAUtagMSG@@@Z 100216d0 f i ImageScanner.obj
 0001:000208d0       ?UIDeactivate@?$IOleInPlaceObjectWindowlessImpl@VCOPOSImageScanner@@@ATL@@UAGJXZ 100218d0 f i ImageScanner.obj
 0001:00020950       ?Unadvise@?$CProxy_IOPOSEvents@VCOPOSImageScanner@@@@UAGJK@Z 10021950 f i ImageScanner.obj
 0001:00020990       ?Unadvise@?$IConnectionPointImpl@VCOPOSImageScanner@@$1?DIID__IOPOSImageScannerEvents@@3U_GUID@@BVCComDynamicUnkArray@ATL@@@ATL@@UAGJK@Z 10021990 f i ImageScanner.obj
 0001:00020a60       ?Unadvise@?$IConnectionPointImpl@VCOPOSImageScanner@@$1?IID_IPropertyNotifySink@@3U_GUID@@BVCComDynamicUnkArray@ATL@@@ATL@@UAGJK@Z 10021a60 f i ImageScanner.obj
 0001:00020b30       ?Unadvise@?$IOleObjectImpl@VCOPOSImageScanner@@@ATL@@UAGJK@Z 10021b30 f i ImageScanner.obj
 0001:00020c00       ?Unfreeze@?$IViewObjectExImpl@VCOPOSImageScanner@@@ATL@@UAGJK@Z 10021c00 f i ImageScanner.obj
 0001:00020c70       ?Unlock@?$CComCritSecLock@VCComCriticalSection@ATL@@@ATL@@QAEXXZ 10021c70 f i ImageScanner.obj
 0001:00020ce0       ?Unlock@?$CComObjectRootEx@VCComSingleThreadModel@ATL@@@ATL@@QAEXXZ 10021ce0 f i ImageScanner.obj
 0001:00020d00       ?Unlock@CAtlModule@ATL@@UAEJXZ 10021d00 f i ImageScanner.obj
 0001:00020d30       ?Unlock@CComCriticalSection@ATL@@QAEJXZ 10021d30 f i ImageScanner.obj
 0001:00020d70       ?Unlock@CComFakeCriticalSection@ATL@@QAEJXZ 10021d70 f i ImageScanner.obj
 0001:00020d90       ?UnregisterServer@?$CAtlModuleT@VCComModule@ATL@@@ATL@@QAEJHPBU_GUID@@@Z 10021d90 f i ImageScanner.obj
 0001:00020e00       ?UnregisterServer@CAtlComModule@ATL@@QAEJHPBU_GUID@@@Z 10021e00 f i ImageScanner.obj
 0001:00020e30       ?UnregisterServer@CComModule@ATL@@QAEJHPBU_GUID@@@Z 10021e30 f i ImageScanner.obj
 0001:00020f10       ?Update@?$IOleObjectImpl@VCOPOSImageScanner@@@ATL@@UAGJXZ 10021f10 f i ImageScanner.obj
 0001:00020f70       ?UpdateRegistryFromResource@CAtlModule@ATL@@QAGJIHPAU_ATL_REGMAP_ENTRY@2@@Z 10021f70 f i ImageScanner.obj
 0001:00021440       ?UpdateRegistryFromResource@CAtlModule@ATL@@QAGJPB_WHPAU_ATL_REGMAP_ENTRY@2@@Z 10022440 f i ImageScanner.obj
 0001:00021930       ?UpdateRegistryFromResource@CComModule@ATL@@UAGJIHPAU_ATL_REGMAP_ENTRY@2@@Z 10022930 f i ImageScanner.obj
 0001:00021960       ?UpdateRegistryFromResource@CComModule@ATL@@UAGJPB_WHPAU_ATL_REGMAP_ENTRY@2@@Z 10022960 f i ImageScanner.obj
 0001:00021990       ?UpdateRegistryFromResourceD@CComModule@ATL@@UAGJIHPAU_ATL_REGMAP_ENTRY@2@@Z 10022990 f i ImageScanner.obj
 0001:000219a0       ?UpdateRegistryFromResourceD@CComModule@ATL@@UAGJPB_WHPAU_ATL_REGMAP_ENTRY@2@@Z 100229a0 f i ImageScanner.obj
 0001:000219b0       ?VTFromRegType@CRegParser@ATL@@KAHPB_WAAG@Z 100229b0 f i ImageScanner.obj
 0001:00021a90       ?WindowProc@?$CWindowImplBaseT@VCWindow@ATL@@V?$CWinTraits@$0FGAAAAAA@$0A@@2@@ATL@@SGJPAUHWND__@@IIJ@Z 10022a90 f i ImageScanner.obj
 0001:00021ca0       ?WriteToStream@CComBSTR@ATL@@QAEJPAUIStream@@@Z 10022ca0 f i ImageScanner.obj
 0001:00021e00       ?WriteToStream@CComVariant@ATL@@QAEJPAUIStream@@@Z 10022e00 f i ImageScanner.obj
 0001:00022140       ?WriteToStream@CComVariant@ATL@@QAEJPAUIStream@@G@Z 10023140 f i ImageScanner.obj
 0001:00022210       ?_AtlFinalConstruct@CComObjectRootBase@ATL@@QAEJXZ 10023210 f i ImageScanner.obj
 0001:00022230       ?_AtlGetConversionACP@ATL@@YGIXZ 10023230 f i ImageScanner.obj
 0001:00022240       ?_AtlInitialConstruct@?$CComAggObject@VCOPOSImageScanner@@@ATL@@QAEJXZ 10023240 f i ImageScanner.obj
 0001:00022290       ?_AtlInitialConstruct@?$CComObjectRootEx@VCComMultiThreadModel@ATL@@@ATL@@QAEJXZ 10023290 f i ImageScanner.obj
 0001:000222c0       ?_AtlInitialConstruct@?$CComObjectRootEx@VCComSingleThreadModel@ATL@@@ATL@@QAEJXZ 100232c0 f i ImageScanner.obj
 0001:000222e0       ?_AtlVerifyStackAvailable@_ATL_SAFE_ALLOCA_IMPL@ATL@@YA_NK@Z 100232e0 f i ImageScanner.obj
 0001:00022490       ?_GetEntries@?$CComEnum@UIEnumConnectionPoints@@$1?_GUID_b196b285_bab4_101a_b69c_00aa00341d07@@3U__s_GUID@@BPAUIConnectionPoint@@V?$_CopyInterface@UIConnectionPoint@@@ATL@@VCComSingleThreadModel@6@@ATL@@SGPBU_ATL_INTMAP_ENTRY@2@XZ 10023490 f i ImageScanner.obj
 0001:000224b0       ?_GetEntries@?$CComEnum@UIEnumConnections@@$1?_GUID_b196b287_bab4_101a_b69c_00aa00341d07@@3U__s_GUID@@BUtagCONNECTDATA@@V?$_Copy@UtagCONNECTDATA@@@ATL@@VCComSingleThreadModel@6@@ATL@@SGPBU_ATL_INTMAP_ENTRY@2@XZ 100234b0 f i ImageScanner.obj
 0001:000224d0       ?_GetEntries@CComClassFactory@ATL@@SGPBU_ATL_INTMAP_ENTRY@2@XZ 100234d0 f i ImageScanner.obj
 0001:000224f0       ?_GetEntries@COPOSImageScanner@@SGPBU_ATL_INTMAP_ENTRY@ATL@@XZ 100234f0 f i ImageScanner.obj
 0001:00022510       ?_GetRawUnknown@COPOSImageScanner@@QAEPAUIUnknown@@XZ 10023510 f i ImageScanner.obj
 0001:00022580       ?_GetViewStatus@COPOSImageScanner@@QAEKXZ 10023580 f i ImageScanner.obj
 0001:000225a0       ?_InternalQueryInterface@?$CComEnum@UIEnumConnectionPoints@@$1?_GUID_b196b285_bab4_101a_b69c_00aa00341d07@@3U__s_GUID@@BPAUIConnectionPoint@@V?$_CopyInterface@UIConnectionPoint@@@ATL@@VCComSingleThreadModel@6@@ATL@@QAEJABU_GUID@@PAPAX@Z 100235a0 f i ImageScanner.obj
 0001:000225e0       ?_InternalQueryInterface@?$CComEnum@UIEnumConnections@@$1?_GUID_b196b287_bab4_101a_b69c_00aa00341d07@@3U__s_GUID@@BUtagCONNECTDATA@@V?$_Copy@UtagCONNECTDATA@@@ATL@@VCComSingleThreadModel@6@@ATL@@QAEJABU_GUID@@PAPAX@Z 100235e0 f i ImageScanner.obj
 0001:00022620       ?_InternalQueryInterface@CComClassFactory@ATL@@QAEJABU_GUID@@PAPAX@Z 10023620 f i ImageScanner.obj
 0001:00022660       ?_InternalQueryInterface@COPOSImageScanner@@QAEJABU_GUID@@PAPAX@Z 10023660 f i ImageScanner.obj
 0001:000226a0       ?_LocCPQueryInterface@?$IConnectionPointImpl@VCOPOSImageScanner@@$1?DIID__IOPOSImageScannerEvents@@3U_GUID@@BVCComDynamicUnkArray@ATL@@@ATL@@UAGJABU_GUID@@PAPAX@Z 100236a0 f i ImageScanner.obj
 0001:00022740       ?_LocCPQueryInterface@?$IConnectionPointImpl@VCOPOSImageScanner@@$1?IID_IPropertyNotifySink@@3U_GUID@@BVCComDynamicUnkArray@ATL@@@ATL@@UAGJABU_GUID@@PAPAX@Z 10023740 f i ImageScanner.obj
 0001:000227e0       ?atlCreate@?$CWindowImpl@VCOPOSImageScanner@@VCWindow@ATL@@V?$CWinTraits@$0FGAAAAAA@$0A@@3@@ATL@@QAEPAUHWND__@@PAU3@V_U_RECT@2@PB_WKKV_U_MENUorID@2@PAX@Z 100237e0 f i ImageScanner.obj
 0001:00022890       ?atlCreate@?$CWindowImplBaseT@VCWindow@ATL@@V?$CWinTraits@$0FGAAAAAA@$0A@@2@@ATL@@QAEPAUHWND__@@PAU3@V_U_RECT@2@PB_WKKV_U_MENUorID@2@GPAX@Z 10023890 f i ImageScanner.obj
 0001:00022a10       ?atlCreate@CRegKey@ATL@@QAEJPAUHKEY__@@PB_WPA_WKKPAU_SECURITY_ATTRIBUTES@@PAK@Z 10023a10 f i ImageScanner.obj
 0001:00022b70       ?begin@CComDynamicUnkArray@ATL@@QAEPAPAUIUnknown@@XZ 10023b70 f i ImageScanner.obj
 0001:00022b90       ?copy@?$_Copy@UtagCONNECTDATA@@@ATL@@SAJPAUtagCONNECTDATA@@PBU3@@Z 10023b90 f i ImageScanner.obj
 0001:00022c50       ?copy@?$_CopyInterface@UIConnectionPoint@@@ATL@@SAJPAPAUIConnectionPoint@@PBQAU3@@Z 10023c50 f i ImageScanner.obj
 0001:00022d10       ?destroy@?$_Copy@UtagCONNECTDATA@@@ATL@@SAXPAUtagCONNECTDATA@@@Z 10023d10 f i ImageScanner.obj
 0001:00022d50       ?destroy@?$_CopyInterface@UIConnectionPoint@@@ATL@@SAXPAPAUIConnectionPoint@@@Z 10023d50 f i ImageScanner.obj
 0001:00022d90       ?end@CComDynamicUnkArray@ATL@@QAEPAPAUIUnknown@@XZ 10023d90 f i ImageScanner.obj
 0001:00022db0       ?init@?$_Copy@UtagCONNECTDATA@@@ATL@@SAXPAUtagCONNECTDATA@@@Z 10023db0 f i ImageScanner.obj
 0001:00022dc0       ?init@?$_CopyInterface@UIConnectionPoint@@@ATL@@SAXPAPAUIConnectionPoint@@@Z 10023dc0 f i ImageScanner.obj
 0001:00022dd0       ?memcpy_s@Checked@ATL@@YAXPAXIPBXI@Z 10023dd0 f i ImageScanner.obj
 0001:00022e00       ?ocscpy_s@@YA_NPA_WIPB_W@Z 10023e00 f i ImageScanner.obj
 0001:00022e60       ?ocslen@@YAHPB_W@Z         10023e60 f i ImageScanner.obj
 0001:00022e90       ?tcsncpy_s@Checked@ATL@@YAHPA_WIPB_WI@Z 10023e90 f i ImageScanner.obj
 0001:00022ec0       ?wcscat_s@Checked@ATL@@YAXPA_WIPB_W@Z 10023ec0 f i ImageScanner.obj
 0001:00022ef0       ?wcscpy_s@Checked@ATL@@YAXPA_WIPB_W@Z 10023ef0 f i ImageScanner.obj
 0001:00022f20       ?wcsncpy_s@Checked@ATL@@YAHPA_WIPB_WI@Z 10023f20 f i ImageScanner.obj
 0001:00022f50       ?wcsstr@@YAPA_WPA_WPB_W@Z  10023f50 f i ImageScanner.obj
 0001:00022f70       _InlineIsEqualGUID         10023f70 f i ImageScanner.obj
 0001:00023010       _IsEqualGUID               10024010 f i ImageScanner.obj
 0001:00023060       ??0COPOSImageScanner@@QAE@XZ 10024060 f   ImageScannerImpl.obj
 0001:00023170       ?FinalConstruct@COPOSImageScanner@@QAEJXZ 10024170 f   ImageScannerImpl.obj
 0001:00023240       ??1COPOSImageScanner@@UAE@XZ 10024240 f   ImageScannerImpl.obj
 0001:00023320       ?WriteTrace@COPOSImageScanner@@QAAXPB_WZZ 10024320 f   ImageScannerImpl.obj
 0001:000233d0       ?WriteTraceString@COPOSImageScanner@@QAEXPB_WPA_W@Z 100243d0 f   ImageScannerImpl.obj
 0001:00023740       ?WriteTraceString@COPOSImageScanner@@QAAXPAXHHHPB_WZZ 10024740 f   ImageScannerImpl.obj
 0001:00023970       ?WriteTraceError@COPOSImageScanner@@QAEXPB_WK@Z 10024970 f   ImageScannerImpl.obj
 0001:00023a60       ?WriteTraceMethods@COPOSImageScanner@@QAEXPAJH@Z 10024a60 f   ImageScannerImpl.obj
 0001:00023ad0       ?GetOposProp@COPOSImageScanner@@IAEJPBDJPAJJ@Z 10024ad0 f   ImageScannerImpl.obj
 0001:00023d40       ?SetOposProp@COPOSImageScanner@@IAEJPBDJJJ@Z 10024d40 f   ImageScannerImpl.obj
 0001:00023fd0       ?GetOposProp@COPOSImageScanner@@IAEJPBDJPAFJ@Z 10024fd0 f   ImageScannerImpl.obj
 0001:00024070       ?SetOposProp@COPOSImageScanner@@IAEJPBDJFJ@Z 10025070 f   ImageScannerImpl.obj
 0001:000240d0       ?GetOposProp@COPOSImageScanner@@IAEJPBDJPAPA_WJ@Z 100250d0 f   ImageScannerImpl.obj
 0001:00024350       ?SetOposProp@COPOSImageScanner@@IAEJPBDJPA_WJ@Z 10025350 f   ImageScannerImpl.obj
 0001:00024690       ?DoInvoke@COPOSImageScanner@@IAEJPBDJPAVOposVariant@@IHPAJ_N@Z 10025690 f   ImageScannerImpl.obj
 0001:00024fd0       ?SetCOFreezeEvents@COPOSImageScanner@@IAEXF@Z 10025fd0 f   ImageScannerImpl.obj
 0001:00025110       ?FreezeEvents@COPOSImageScanner@@MAGJH@Z 10026110 f   ImageScannerImpl.obj
 0001:000251f0       ?OnDraw@COPOSImageScanner@@MAEJAAUATL_DRAWINFO@@@Z 100261f0 f   ImageScannerImpl.obj
 0001:00025390       ?SOProcessID@COPOSImageScanner@@UAGJPAJ@Z 10026390 f   ImageScannerImpl.obj
 0001:000253d0       ?get_OpenResult@COPOSImageScanner@@UAGJPAJ@Z 100263d0 f   ImageScannerImpl.obj
 0001:00025410       ?get_AutoDisable@COPOSImageScanner@@UAGJPAF@Z 10026410 f   ImageScannerImpl.obj
 0001:00025440       ?put_AutoDisable@COPOSImageScanner@@UAGJF@Z 10026440 f   ImageScannerImpl.obj
 0001:00025470       ?get_BinaryConversion@COPOSImageScanner@@UAGJPAJ@Z 10026470 f   ImageScannerImpl.obj
 0001:000254a0       ?put_BinaryConversion@COPOSImageScanner@@UAGJJ@Z 100264a0 f   ImageScannerImpl.obj
 0001:000254d0       ?get_CapPowerReporting@COPOSImageScanner@@UAGJPAJ@Z 100264d0 f   ImageScannerImpl.obj
 0001:00025500       ?get_CheckHealthText@COPOSImageScanner@@UAGJPAPA_W@Z 10026500 f   ImageScannerImpl.obj
 0001:00025530       ?get_Claimed@COPOSImageScanner@@UAGJPAF@Z 10026530 f   ImageScannerImpl.obj
 0001:00025560       ?get_DataCount@COPOSImageScanner@@UAGJPAJ@Z 10026560 f   ImageScannerImpl.obj
 0001:00025590       ?get_DataEventEnabled@COPOSImageScanner@@UAGJPAF@Z 10026590 f   ImageScannerImpl.obj
 0001:000255c0       ?put_DataEventEnabled@COPOSImageScanner@@UAGJF@Z 100265c0 f   ImageScannerImpl.obj
 0001:000255f0       ?get_DeviceEnabled@COPOSImageScanner@@UAGJPAF@Z 100265f0 f   ImageScannerImpl.obj
 0001:00025620       ?put_DeviceEnabled@COPOSImageScanner@@UAGJF@Z 10026620 f   ImageScannerImpl.obj
 0001:00025650       ?get_FreezeEvents@COPOSImageScanner@@UAGJPAF@Z 10026650 f   ImageScannerImpl.obj
 0001:00025680       ?put_FreezeEvents@COPOSImageScanner@@UAGJF@Z 10026680 f   ImageScannerImpl.obj
 0001:00025710       ?get_PowerNotify@COPOSImageScanner@@UAGJPAJ@Z 10026710 f   ImageScannerImpl.obj
 0001:00025740       ?put_PowerNotify@COPOSImageScanner@@UAGJJ@Z 10026740 f   ImageScannerImpl.obj
 0001:00025770       ?get_PowerState@COPOSImageScanner@@UAGJPAJ@Z 10026770 f   ImageScannerImpl.obj
 0001:000257a0       ?get_ResultCode@COPOSImageScanner@@UAGJPAJ@Z 100267a0 f   ImageScannerImpl.obj
 0001:00025830       ?get_ResultCodeExtended@COPOSImageScanner@@UAGJPAJ@Z 10026830 f   ImageScannerImpl.obj
 0001:00025860       ?get_State@COPOSImageScanner@@UAGJPAJ@Z 10026860 f   ImageScannerImpl.obj
 0001:000258b0       ?get_ControlObjectDescription@COPOSImageScanner@@UAGJPAPA_W@Z 100268b0 f   ImageScannerImpl.obj
 0001:00025930       ?get_ControlObjectVersion@COPOSImageScanner@@UAGJPAJ@Z 10026930 f   ImageScannerImpl.obj
 0001:00025970       ?get_ServiceObjectDescription@COPOSImageScanner@@UAGJPAPA_W@Z 10026970 f   ImageScannerImpl.obj
 0001:000259a0       ?get_ServiceObjectVersion@COPOSImageScanner@@UAGJPAJ@Z 100269a0 f   ImageScannerImpl.obj
 0001:000259d0       ?get_DeviceDescription@COPOSImageScanner@@UAGJPAPA_W@Z 100269d0 f   ImageScannerImpl.obj
 0001:00025a00       ?get_DeviceName@COPOSImageScanner@@UAGJPAPA_W@Z 10026a00 f   ImageScannerImpl.obj
 0001:00025a30       ?get_CapStatisticsReporting@COPOSImageScanner@@UAGJPAF@Z 10026a30 f   ImageScannerImpl.obj
 0001:00025a60       ?get_CapUpdateStatistics@COPOSImageScanner@@UAGJPAF@Z 10026a60 f   ImageScannerImpl.obj
 0001:00025a90       ?get_CapCompareFirmwareVersion@COPOSImageScanner@@UAGJPAF@Z 10026a90 f   ImageScannerImpl.obj
 0001:00025ac0       ?get_CapUpdateFirmware@COPOSImageScanner@@UAGJPAF@Z 10026ac0 f   ImageScannerImpl.obj
 0001:00025af0       ?CheckHealth@COPOSImageScanner@@UAGJJPAJ@Z 10026af0 f   ImageScannerImpl.obj
 0001:00025b90       ?ClaimDevice@COPOSImageScanner@@UAGJJPAJ@Z 10026b90 f   ImageScannerImpl.obj
 0001:00025c70       ?ClearInput@COPOSImageScanner@@UAGJPAJ@Z 10026c70 f   ImageScannerImpl.obj
 0001:00025ca0       ?Close@COPOSImageScanner@@UAGJPAJ@Z 10026ca0 f   ImageScannerImpl.obj
 0001:00025d70       ?DirectIO@COPOSImageScanner@@UAGJJPAJPAPA_W0@Z 10026d70 f   ImageScannerImpl.obj
 0001:00025e80       ?Open@COPOSImageScanner@@UAGJPA_WPAJ@Z 10026e80 f   ImageScannerImpl.obj
 0001:00027070       ?ReleaseDevice@COPOSImageScanner@@UAGJPAJ@Z 10028070 f   ImageScannerImpl.obj
 0001:000270e0       ?ResetStatistics@COPOSImageScanner@@UAGJPA_WPAJ@Z 100280e0 f   ImageScannerImpl.obj
 0001:00027190       ?RetrieveStatistics@COPOSImageScanner@@UAGJPAPA_WPAJ@Z 10028190 f   ImageScannerImpl.obj
 0001:00027240       ?UpdateStatistics@COPOSImageScanner@@UAGJPA_WPAJ@Z 10028240 f   ImageScannerImpl.obj
 0001:000272f0       ?CompareFirmwareVersion@COPOSImageScanner@@UAGJPA_WPAJ1@Z 100282f0 f   ImageScannerImpl.obj
 0001:000273e0       ?UpdateFirmware@COPOSImageScanner@@UAGJPA_WPAJ@Z 100283e0 f   ImageScannerImpl.obj
 0001:00027490       ?ClearInputProperties@COPOSImageScanner@@UAGJPAJ@Z 10028490 f   ImageScannerImpl.obj
 0001:000274c0       ?get_CapAim@COPOSImageScanner@@UAGJPAF@Z 100284c0 f   ImageScannerImpl.obj
 0001:000274f0       ?get_CapDecodeData@COPOSImageScanner@@UAGJPAF@Z 100284f0 f   ImageScannerImpl.obj
 0001:00027520       ?get_CapHostTriggered@COPOSImageScanner@@UAGJPAF@Z 10028520 f   ImageScannerImpl.obj
 0001:00027550       ?get_CapIlluminate@COPOSImageScanner@@UAGJPAF@Z 10028550 f   ImageScannerImpl.obj
 0001:00027580       ?get_CapImageData@COPOSImageScanner@@UAGJPAF@Z 10028580 f   ImageScannerImpl.obj
 0001:000275b0       ?get_CapImageQuality@COPOSImageScanner@@UAGJPAF@Z 100285b0 f   ImageScannerImpl.obj
 0001:000275e0       ?get_CapVideoData@COPOSImageScanner@@UAGJPAF@Z 100285e0 f   ImageScannerImpl.obj
 0001:00027610       ?get_AimMode@COPOSImageScanner@@UAGJPAF@Z 10028610 f   ImageScannerImpl.obj
 0001:00027640       ?put_AimMode@COPOSImageScanner@@UAGJF@Z 10028640 f   ImageScannerImpl.obj
 0001:00027670       ?get_BitsPerPixel@COPOSImageScanner@@UAGJPAJ@Z 10028670 f   ImageScannerImpl.obj
 0001:000276a0       ?get_FrameData@COPOSImageScanner@@UAGJPAPA_W@Z 100286a0 f   ImageScannerImpl.obj
 0001:000276d0       ?get_FrameType@COPOSImageScanner@@UAGJPAJ@Z 100286d0 f   ImageScannerImpl.obj
 0001:00027700       ?get_IlluminateMode@COPOSImageScanner@@UAGJPAF@Z 10028700 f   ImageScannerImpl.obj
 0001:00027730       ?put_IlluminateMode@COPOSImageScanner@@UAGJF@Z 10028730 f   ImageScannerImpl.obj
 0001:00027760       ?get_ImageHeight@COPOSImageScanner@@UAGJPAJ@Z 10028760 f   ImageScannerImpl.obj
 0001:00027790       ?get_ImageLength@COPOSImageScanner@@UAGJPAJ@Z 10028790 f   ImageScannerImpl.obj
 0001:000277c0       ?get_ImageMode@COPOSImageScanner@@UAGJPAJ@Z 100287c0 f   ImageScannerImpl.obj
 0001:000277f0       ?put_ImageMode@COPOSImageScanner@@UAGJJ@Z 100287f0 f   ImageScannerImpl.obj
 0001:00027820       ?get_ImageQuality@COPOSImageScanner@@UAGJPAJ@Z 10028820 f   ImageScannerImpl.obj
 0001:00027850       ?put_ImageQuality@COPOSImageScanner@@UAGJJ@Z 10028850 f   ImageScannerImpl.obj
 0001:00027880       ?get_ImageType@COPOSImageScanner@@UAGJPAJ@Z 10028880 f   ImageScannerImpl.obj
 0001:000278b0       ?get_ImageWidth@COPOSImageScanner@@UAGJPAJ@Z 100288b0 f   ImageScannerImpl.obj
 0001:000278e0       ?get_VideoCount@COPOSImageScanner@@UAGJPAJ@Z 100288e0 f   ImageScannerImpl.obj
 0001:00027910       ?put_VideoCount@COPOSImageScanner@@UAGJJ@Z 10028910 f   ImageScannerImpl.obj
 0001:00027940       ?get_VideoRate@COPOSImageScanner@@UAGJPAJ@Z 10028940 f   ImageScannerImpl.obj
 0001:00027970       ?put_VideoRate@COPOSImageScanner@@UAGJJ@Z 10028970 f   ImageScannerImpl.obj
 0001:000279a0       ?StartSession@COPOSImageScanner@@UAGJPAJ@Z 100289a0 f   ImageScannerImpl.obj
 0001:000279d0       ?StopSession@COPOSImageScanner@@UAGJPAJ@Z 100289d0 f   ImageScannerImpl.obj
 0001:00027a00       ??0?$CComControl@VCOPOSImageScanner@@V?$CWindowImpl@VCOPOSImageScanner@@VCWindow@ATL@@V?$CWinTraits@$0FGAAAAAA@$0A@@3@@ATL@@@ATL@@QAE@XZ 10028a00 f i ImageScannerImpl.obj
 0001:00027a40       ??0?$CComPtr@UIAdviseSink@@@ATL@@QAE@XZ 10028a40 f i ImageScannerImpl.obj
 0001:00027a70       ??0?$CComPtr@UIDataAdviseHolder@@@ATL@@QAE@XZ 10028a70 f i ImageScannerImpl.obj
 0001:00027aa0       ??0?$CComPtr@UIOleAdviseHolder@@@ATL@@QAE@XZ 10028aa0 f i ImageScannerImpl.obj
 0001:00027ad0       ??0?$CComPtr@UIOleClientSite@@@ATL@@QAE@XZ 10028ad0 f i ImageScannerImpl.obj
 0001:00027b00       ??0?$CComPtr@UIOleInPlaceSiteWindowless@@@ATL@@QAE@XZ 10028b00 f i ImageScannerImpl.obj
 0001:00027b30       ??0?$CComPtrBase@UIAdviseSink@@@ATL@@IAE@XZ 10028b30 f i ImageScannerImpl.obj
 0001:00027b50       ??0?$CComPtrBase@UIDataAdviseHolder@@@ATL@@IAE@XZ 10028b50 f i ImageScannerImpl.obj
 0001:00027b70       ??0?$CComPtrBase@UIOleAdviseHolder@@@ATL@@IAE@XZ 10028b70 f i ImageScannerImpl.obj
 0001:00027b90       ??0?$CComPtrBase@UIOleClientSite@@@ATL@@IAE@XZ 10028b90 f i ImageScannerImpl.obj
 0001:00027bb0       ??0?$CComPtrBase@UIOleInPlaceSiteWindowless@@@ATL@@IAE@XZ 10028bb0 f i ImageScannerImpl.obj
 0001:00027bd0       ??0?$CComQIPtr@UIDispatch@@$1?_GUID_00020400_0000_0000_c000_000000000046@@3U__s_GUID@@B@ATL@@QAE@XZ 10028bd0 f i ImageScannerImpl.obj
 0001:00027c00       ??0?$CProxy_IOPOSEvents@VCOPOSImageScanner@@@@QAE@PAVCOPOSImageScanner@@@Z 10028c00 f i ImageScannerImpl.obj
 0001:00027c70       ??0?$CWindowImpl@VCOPOSImageScanner@@VCWindow@ATL@@V?$CWinTraits@$0FGAAAAAA@$0A@@3@@ATL@@QAE@XZ 10028c70 f i ImageScannerImpl.obj
 0001:00027ca0       ??0?$CWindowImplBaseT@VCWindow@ATL@@V?$CWinTraits@$0FGAAAAAA@$0A@@2@@ATL@@QAE@XZ 10028ca0 f i ImageScannerImpl.obj
 0001:00027ce0       ??0?$CWindowImplRoot@VCWindow@ATL@@@ATL@@QAE@XZ 10028ce0 f i ImageScannerImpl.obj
 0001:00027d40       ??0?$IConnectionPointContainerImpl@VCOPOSImageScanner@@@ATL@@QAE@XZ 10028d40 f i ImageScannerImpl.obj
 0001:00027d70       ??0?$IConnectionPointImpl@VCOPOSImageScanner@@$1?DIID__IOPOSImageScannerEvents@@3U_GUID@@BVCComDynamicUnkArray@ATL@@@ATL@@QAE@XZ 10028d70 f i ImageScannerImpl.obj
 0001:00027db0       ??0?$IConnectionPointImpl@VCOPOSImageScanner@@$1?IID_IPropertyNotifySink@@3U_GUID@@BVCComDynamicUnkArray@ATL@@@ATL@@QAE@XZ 10028db0 f i ImageScannerImpl.obj
 0001:00027df0       ??0?$IDataObjectImpl@VCOPOSImageScanner@@@ATL@@QAE@XZ 10028df0 f i ImageScannerImpl.obj
 0001:00027e20       ??0?$IDispatchImpl@UIOPOSImageScanner@@$1?IID_IOPOSImageScanner@@3U_GUID@@B$1?LIBID_OposImageScanner_CCO@@3U3@B$00$0A@VCComTypeInfoHolder@ATL@@@ATL@@QAE@XZ 10028e20 f i ImageScannerImpl.obj
 0001:00027e50       ??0?$IObjectSafetyImpl@VCOPOSImageScanner@@$02@ATL@@QAE@XZ 10028e50 f i ImageScannerImpl.obj
 0001:00027e90       ??0?$IOleControlImpl@VCOPOSImageScanner@@@ATL@@QAE@XZ 10028e90 f i ImageScannerImpl.obj
 0001:00027ec0       ??0?$IOleInPlaceActiveObjectImpl@VCOPOSImageScanner@@@ATL@@QAE@XZ 10028ec0 f i ImageScannerImpl.obj
 0001:00027ef0       ??0?$IOleInPlaceObjectWindowlessImpl@VCOPOSImageScanner@@@ATL@@QAE@XZ 10028ef0 f i ImageScannerImpl.obj
 0001:00027f20       ??0?$IOleObjectImpl@VCOPOSImageScanner@@@ATL@@QAE@XZ 10028f20 f i ImageScannerImpl.obj
 0001:00027f50       ??0?$IPersistStorageImpl@VCOPOSImageScanner@@@ATL@@QAE@XZ 10028f50 f i ImageScannerImpl.obj
 0001:00027f80       ??0?$IPersistStreamInitImpl@VCOPOSImageScanner@@@ATL@@QAE@XZ 10028f80 f i ImageScannerImpl.obj
 0001:00027fb0       ??0?$IPropertyNotifySinkCP@VCOPOSImageScanner@@VCComDynamicUnkArray@ATL@@@ATL@@QAE@XZ 10028fb0 f i ImageScannerImpl.obj
 0001:00027fe0       ??0?$IProvideClassInfo2Impl@$1?CLSID_OPOSImageScanner@@3U_GUID@@B$1?DIID__IOPOSImageScannerEvents@@3U2@B$1?LIBID_OposImageScanner_CCO@@3U2@B$00$0A@VCComTypeInfoHolder@ATL@@@ATL@@QAE@XZ 10028fe0 f i ImageScannerImpl.obj
 0001:00028010       ??0?$IQuickActivateImpl@VCOPOSImageScanner@@@ATL@@QAE@XZ 10029010 f i ImageScannerImpl.obj
 0001:00028040       ??0?$ISpecifyPropertyPagesImpl@VCOPOSImageScanner@@@ATL@@QAE@XZ 10029040 f i ImageScannerImpl.obj
 0001:00028070       ??0?$IViewObjectExImpl@VCOPOSImageScanner@@@ATL@@QAE@XZ 10029070 f i ImageScannerImpl.obj
 0001:000280a0       ??0?$_ICPLocator@$1?DIID__IOPOSImageScannerEvents@@3U_GUID@@B@ATL@@QAE@XZ 100290a0 f i ImageScannerImpl.obj
 0001:000280c0       ??0?$_ICPLocator@$1?IID_IPropertyNotifySink@@3U_GUID@@B@ATL@@QAE@XZ 100290c0 f i ImageScannerImpl.obj
 0001:000280e0       ??0CComControlBase@ATL@@QAE@AAPAUHWND__@@@Z 100290e0 f i ImageScannerImpl.obj
 0001:00028290       ??0CComDynamicUnkArray@ATL@@QAE@XZ 10029290 f i ImageScannerImpl.obj
 0001:000282c0       ??0CDynamicStdCallThunk2@ATL@@QAE@XZ 100292c0 f i ImageScannerImpl.obj
 0001:000282e0       ??0CMessageMap@ATL@@QAE@XZ 100292e0 f i ImageScannerImpl.obj
 0001:00028300       ??0CWindow@ATL@@QAE@PAUHWND__@@@Z 10029300 f i ImageScannerImpl.obj
 0001:00028320       ??0CWndProcThunk@ATL@@QAE@XZ 10029320 f i ImageScannerImpl.obj
 0001:00028350       ??0IConnectionPointContainer@@QAE@XZ 10029350 f i ImageScannerImpl.obj
 0001:00028380       ??0IDataObject@@QAE@XZ     10029380 f i ImageScannerImpl.obj
 0001:000283b0       ??0IDispatch@@QAE@XZ       100293b0 f i ImageScannerImpl.obj
 0001:000283e0       ??0IOPOSImageScanner@@QAE@XZ 100293e0 f i ImageScannerImpl.obj
 0001:00028410       ??0IOPOSImageScanner_1_11@@QAE@XZ 10029410 f i ImageScannerImpl.obj
 0001:00028440       ??0IObjectSafety@@QAE@XZ   10029440 f i ImageScannerImpl.obj
 0001:00028470       ??0IOleControl@@QAE@XZ     10029470 f i ImageScannerImpl.obj
 0001:000284a0       ??0IOleInPlaceActiveObject@@QAE@XZ 100294a0 f i ImageScannerImpl.obj
 0001:000284d0       ??0IOleInPlaceObject@@QAE@XZ 100294d0 f i ImageScannerImpl.obj
 0001:00028500       ??0IOleInPlaceObjectWindowless@@QAE@XZ 10029500 f i ImageScannerImpl.obj
 0001:00028530       ??0IOleObject@@QAE@XZ      10029530 f i ImageScannerImpl.obj
 0001:00028560       ??0IOleWindow@@QAE@XZ      10029560 f i ImageScannerImpl.obj
 0001:00028590       ??0IPersist@@QAE@XZ        10029590 f i ImageScannerImpl.obj
 0001:000285c0       ??0IPersistStorage@@QAE@XZ 100295c0 f i ImageScannerImpl.obj
 0001:000285f0       ??0IPersistStreamInit@@QAE@XZ 100295f0 f i ImageScannerImpl.obj
 0001:00028620       ??0IProvideClassInfo2@@QAE@XZ 10029620 f i ImageScannerImpl.obj
 0001:00028650       ??0IProvideClassInfo@@QAE@XZ 10029650 f i ImageScannerImpl.obj
 0001:00028680       ??0IQuickActivate@@QAE@XZ  10029680 f i ImageScannerImpl.obj
 0001:000286b0       ??0ISpecifyPropertyPages@@QAE@XZ 100296b0 f i ImageScannerImpl.obj
 0001:000286e0       ??0IViewObject2@@QAE@XZ    100296e0 f i ImageScannerImpl.obj
 0001:00028710       ??0IViewObject@@QAE@XZ     10029710 f i ImageScannerImpl.obj
 0001:00028740       ??0IViewObjectEx@@QAE@XZ   10029740 f i ImageScannerImpl.obj
 0001:00028770       ??0OposVariantResult@@QAE@XZ 10029770 f i ImageScannerImpl.obj
 0001:000287a0       ??0_CW@@QAE@PBD@Z          100297a0 f i ImageScannerImpl.obj
 0001:000287e0       ??0_CW@@QAE@PB_W@Z         100297e0 f i ImageScannerImpl.obj
 0001:00028820       ??0_CWNCC@@QAE@PBD@Z       10029820 f i ImageScannerImpl.obj
 0001:00028850       ??1?$CComControl@VCOPOSImageScanner@@V?$CWindowImpl@VCOPOSImageScanner@@VCWindow@ATL@@V?$CWinTraits@$0FGAAAAAA@$0A@@3@@ATL@@@ATL@@UAE@XZ 10029850 f i ImageScannerImpl.obj
 0001:00028880       ??1?$CComPtr@UIDataAdviseHolder@@@ATL@@QAE@XZ 10029880 f i ImageScannerImpl.obj
 0001:000288b0       ??1?$CComPtr@UIOleAdviseHolder@@@ATL@@QAE@XZ 100298b0 f i ImageScannerImpl.obj
 0001:000288e0       ??1?$CComPtr@UIOleInPlaceSiteWindowless@@@ATL@@QAE@XZ 100298e0 f i ImageScannerImpl.obj
 0001:00028910       ??1?$CComPtrBase@UIDataAdviseHolder@@@ATL@@QAE@XZ 10029910 f i ImageScannerImpl.obj
 0001:00028960       ??1?$CComPtrBase@UIOleAdviseHolder@@@ATL@@QAE@XZ 10029960 f i ImageScannerImpl.obj
 0001:000289b0       ??1?$CComPtrBase@UIOleInPlaceSiteWindowless@@@ATL@@QAE@XZ 100299b0 f i ImageScannerImpl.obj
 0001:00028a00       ??1?$CComQIPtr@UIDispatch@@$1?_GUID_00020400_0000_0000_c000_000000000046@@3U__s_GUID@@B@ATL@@QAE@XZ 10029a00 f i ImageScannerImpl.obj
 0001:00028a30       ??1?$CProxy_IOPOSEvents@VCOPOSImageScanner@@@@QAE@XZ 10029a30 f i ImageScannerImpl.obj
 0001:00028a60       ??1?$CWindowImpl@VCOPOSImageScanner@@VCWindow@ATL@@V?$CWinTraits@$0FGAAAAAA@$0A@@3@@ATL@@UAE@XZ 10029a60 f i ImageScannerImpl.obj
 0001:00028a90       ??1?$CWindowImplBaseT@VCWindow@ATL@@V?$CWinTraits@$0FGAAAAAA@$0A@@2@@ATL@@UAE@XZ 10029a90 f i ImageScannerImpl.obj
 0001:00028ac0       ??1?$CWindowImplRoot@VCWindow@ATL@@@ATL@@UAE@XZ 10029ac0 f i ImageScannerImpl.obj
 0001:00028b60       ??1?$IConnectionPointImpl@VCOPOSImageScanner@@$1?DIID__IOPOSImageScannerEvents@@3U_GUID@@BVCComDynamicUnkArray@ATL@@@ATL@@QAE@XZ 10029b60 f i ImageScannerImpl.obj
 0001:00028be0       ??1?$IConnectionPointImpl@VCOPOSImageScanner@@$1?IID_IPropertyNotifySink@@3U_GUID@@BVCComDynamicUnkArray@ATL@@@ATL@@QAE@XZ 10029be0 f i ImageScannerImpl.obj
 0001:00028c60       ??1?$IPropertyNotifySinkCP@VCOPOSImageScanner@@VCComDynamicUnkArray@ATL@@@ATL@@QAE@XZ 10029c60 f i ImageScannerImpl.obj
 0001:00028c90       ??1CComControlBase@ATL@@UAE@XZ 10029c90 f i ImageScannerImpl.obj
 0001:00028d50       ??1CComDynamicUnkArray@ATL@@QAE@XZ 10029d50 f i ImageScannerImpl.obj
 0001:00028d90       ??1CDynamicStdCallThunk2@ATL@@QAE@XZ 10029d90 f i ImageScannerImpl.obj
 0001:00028dc0       ??1CWndProcThunk@ATL@@QAE@XZ 10029dc0 f i ImageScannerImpl.obj
 0001:00028df0       ??1OposVariantResult@@QAE@XZ 10029df0 f i ImageScannerImpl.obj
 0001:00028e20       ??1_CW@@QAE@XZ             10029e20 f i ImageScannerImpl.obj
 0001:00028e90       ??1_CWNCC@@QAE@XZ          10029e90 f i ImageScannerImpl.obj
 0001:00028ec0       ??B_CW@@QAEPB_WXZ          10029ec0 f i ImageScannerImpl.obj
 0001:00028f00       ??B_CWNCC@@QAEPA_WXZ       10029f00 f i ImageScannerImpl.obj
 0001:00028f30       ??_EOposVariant@@QAEPAXI@Z 10029f30 f i ImageScannerImpl.obj
 0001:00028fc0       ?EventClaim@COPOSImageScanner@@IAEXXZ 10029fc0 f i ImageScannerImpl.obj
 0001:00029000       ?EventClose@COPOSImageScanner@@IAEXXZ 1002a000 f i ImageScannerImpl.obj
 0001:000290a0       ?EventInit@COPOSImageScanner@@IAEJXZ 1002a0a0 f i ImageScannerImpl.obj
 0001:000292d0       ?EventOpen@COPOSImageScanner@@IAEXXZ 1002a2d0 f i ImageScannerImpl.obj
 0001:00029310       ?EventPreCloseRelease@COPOSImageScanner@@IAEXXZ 1002a310 f i ImageScannerImpl.obj
 0001:00029390       ?EventUninit@COPOSImageScanner@@IAEXXZ 1002a390 f i ImageScannerImpl.obj
 0001:000294c0       ?EventWindowProc@COPOSImageScanner@@IAGJIIJ@Z 1002a4c0 f i ImageScannerImpl.obj
 0001:00029650       ?FireEventCleanup@COPOSImageScanner@@IAEXXZ 1002a650 f i ImageScannerImpl.obj
 0001:000296a0       ?FireEventSetup@COPOSImageScanner@@IAE_NXZ 1002a6a0 f i ImageScannerImpl.obj
 0001:00029710       ?GetModuleInstance@CComModule@ATL@@QAEPAUHINSTANCE__@@XZ 1002a710 f i ImageScannerImpl.obj
 0001:00029730       ?SetRC@COPOSImageScanner@@IAEJJ@Z 1002a730 f i ImageScannerImpl.obj
 0001:00029760       ?s_EventWindowProc@COPOSImageScanner@@KGJPAUHWND__@@IIJ@Z 1002a760 f i ImageScannerImpl.obj
 0001:00029800       __snwprintf                1002a800 f i ImageScannerImpl.obj
 0001:00029860       __vfwprintf_l              1002a860 f i ImageScannerImpl.obj
 0001:00029890       __vsnwprintf               1002a890 f i ImageScannerImpl.obj
 0001:000298c0       __vsnwprintf_l             1002a8c0 f i ImageScannerImpl.obj
 0001:00029930       _vfwprintf                 1002a930 f i ImageScannerImpl.obj
 0001:00029952       _DebugBreak@0              1002a952 f   kernel32:KERNEL32.dll
 0001:00029958       _Sleep@4                   1002a958 f   kernel32:KERNEL32.dll
 0001:0002995e       _GetCurrentProcess@0       1002a95e f   kernel32:KERNEL32.dll
 0001:00029964       _TerminateProcess@8        1002a964 f   kernel32:KERNEL32.dll
 0001:0002996a       _MultiByteToWideChar@24    1002a96a f   kernel32:KERNEL32.dll
 0001:00029970       _WideCharToMultiByte@32    1002a970 f   kernel32:KERNEL32.dll
 0001:00029976       _DecodePointer@4           1002a976 f   kernel32:KERNEL32.dll
 0001:0002997c       _RaiseException@16         1002a97c f   kernel32:KERNEL32.dll
 0001:00029982       _GetLastError@0            1002a982 f   kernel32:KERNEL32.dll
 0001:00029988       _SetLastError@4            1002a988 f   kernel32:KERNEL32.dll
 0001:0002998e       _InitializeCriticalSectionEx@12 1002a98e f   kernel32:KERNEL32.dll
 0001:00029994       _DeleteCriticalSection@4   1002a994 f   kernel32:KERNEL32.dll
 0001:0002999a       _EncodePointer@4           1002a99a f   kernel32:KERNEL32.dll
 0001:000299a0       _EnterCriticalSection@4    1002a9a0 f   kernel32:KERNEL32.dll
 0001:000299a6       _LeaveCriticalSection@4    1002a9a6 f   kernel32:KERNEL32.dll
 0001:000299ac       _ResetEvent@4              1002a9ac f   kernel32:KERNEL32.dll
 0001:000299b2       _ReleaseMutex@4            1002a9b2 f   kernel32:KERNEL32.dll
 0001:000299b8       _WaitForSingleObject@8     1002a9b8 f   kernel32:KERNEL32.dll
 0001:000299be       _GetCurrentThreadId@0      1002a9be f   kernel32:KERNEL32.dll
 0001:000299c4       _DisableThreadLibraryCalls@4 1002a9c4 f   kernel32:KERNEL32.dll
 0001:000299ca       _FreeLibrary@4             1002a9ca f   kernel32:KERNEL32.dll
 0001:000299d0       _GetModuleFileNameW@12     1002a9d0 f   kernel32:KERNEL32.dll
 0001:000299d6       _GetModuleHandleW@4        1002a9d6 f   kernel32:KERNEL32.dll
 0001:000299dc       _GetProcAddress@8          1002a9dc f   kernel32:KERNEL32.dll
 0001:000299e2       _LoadLibraryExW@12         1002a9e2 f   kernel32:KERNEL32.dll
 0001:000299e8       _LoadResource@8            1002a9e8 f   kernel32:KERNEL32.dll
 0001:000299ee       _SizeofResource@8          1002a9ee f   kernel32:KERNEL32.dll
 0001:000299f4       _GlobalAlloc@8             1002a9f4 f   kernel32:KERNEL32.dll
 0001:000299fa       _GlobalLock@4              1002a9fa f   kernel32:KERNEL32.dll
 0001:00029a00       _GlobalUnlock@4            1002aa00 f   kernel32:KERNEL32.dll
 0001:00029a06       _MulDiv@12                 1002aa06 f   kernel32:KERNEL32.dll
 0001:00029a0c       _lstrcmpiW@8               1002aa0c f   kernel32:KERNEL32.dll
 0001:00029a12       _FindResourceW@12          1002aa12 f   kernel32:KERNEL32.dll
 0001:00029a18       _DeleteFileW@4             1002aa18 f   kernel32:KERNEL32.dll
 0001:00029a1e       _CloseHandle@4             1002aa1e f   kernel32:KERNEL32.dll
 0001:00029a24       _SetEvent@4                1002aa24 f   kernel32:KERNEL32.dll
 0001:00029a2a       _CreateMutexW@12           1002aa2a f   kernel32:KERNEL32.dll
 0001:00029a30       _CreateEventW@16           1002aa30 f   kernel32:KERNEL32.dll
 0001:00029a36       _GetCurrentProcessId@0     1002aa36 f   kernel32:KERNEL32.dll
 0001:00029a3c       _LocalFree@4               1002aa3c f   kernel32:KERNEL32.dll
 0001:00029a42       _FormatMessageW@28         1002aa42 f   kernel32:KERNEL32.dll
 0001:00029a48       _GetActiveWindow@0         1002aa48 f   user32:USER32.dll
 0001:00029a4e       _MessageBoxW@16            1002aa4e f   user32:USER32.dll
 0001:00029a54       _UnregisterClassW@8        1002aa54 f   user32:USER32.dll
 0001:00029a5a       _PostMessageW@16           1002aa5a f   user32:USER32.dll
 0001:00029a60       _DefWindowProcW@16         1002aa60 f   user32:USER32.dll
 0001:00029a66       _CallWindowProcW@20        1002aa66 f   user32:USER32.dll
 0001:00029a6c       _RegisterClassExW@4        1002aa6c f   user32:USER32.dll
 0001:00029a72       _GetClassInfoExW@12        1002aa72 f   user32:USER32.dll
 0001:00029a78       _CreateWindowExW@48        1002aa78 f   user32:USER32.dll
 0001:00029a7e       _IsWindow@4                1002aa7e f   user32:USER32.dll
 0001:00029a84       _IsChild@8                 1002aa84 f   user32:USER32.dll
 0001:00029a8a       _DestroyWindow@4           1002aa8a f   user32:USER32.dll
 0001:00029a90       _ShowWindow@8              1002aa90 f   user32:USER32.dll
 0001:00029a96       _SetWindowPos@28           1002aa96 f   user32:USER32.dll
 0001:00029a9c       _CharNextW@4               1002aa9c f   user32:USER32.dll
 0001:00029aa2       _SetFocus@4                1002aaa2 f   user32:USER32.dll
 0001:00029aa8       _GetFocus@0                1002aaa8 f   user32:USER32.dll
 0001:00029aae       _GetKeyState@4             1002aaae f   user32:USER32.dll
 0001:00029ab4       _GetDC@4                   1002aab4 f   user32:USER32.dll
 0001:00029aba       _ReleaseDC@8               1002aaba f   user32:USER32.dll
 0001:00029ac0       _BeginPaint@8              1002aac0 f   user32:USER32.dll
 0001:00029ac6       _EndPaint@8                1002aac6 f   user32:USER32.dll
 0001:00029acc       _SetWindowRgn@12           1002aacc f   user32:USER32.dll
 0001:00029ad2       _InvalidateRect@12         1002aad2 f   user32:USER32.dll
 0001:00029ad8       _GetClientRect@8           1002aad8 f   user32:USER32.dll
 0001:00029ade       _IntersectRect@12          1002aade f   user32:USER32.dll
 0001:00029ae4       _UnionRect@12              1002aae4 f   user32:USER32.dll
 0001:00029aea       _OffsetRect@12             1002aaea f   user32:USER32.dll
 0001:00029af0       _EqualRect@8               1002aaf0 f   user32:USER32.dll
 0001:00029af6       _PtInRect@12               1002aaf6 f   user32:USER32.dll
 0001:00029afc       _GetWindowLongW@8          1002aafc f   user32:USER32.dll
 0001:00029b02       _SetWindowLongW@12         1002ab02 f   user32:USER32.dll
 0001:00029b08       _GetParent@4               1002ab08 f   user32:USER32.dll
 0001:00029b0e       _LoadCursorW@8             1002ab0e f   user32:USER32.dll
 0001:00029b14       _PeekMessageW@20           1002ab14 f   user32:USER32.dll
 0001:00029b1a       _RegisterClassW@4          1002ab1a f   user32:USER32.dll
 0001:00029b20       _LoadBitmapW@8             1002ab20 f   user32:USER32.dll
 0001:00029b26       _CloseMetaFile@4           1002ab26 f   gdi32:GDI32.dll
 0001:00029b2c       _CreateDCW@16              1002ab2c f   gdi32:GDI32.dll
 0001:00029b32       _CreateMetaFileW@4         1002ab32 f   gdi32:GDI32.dll
 0001:00029b38       _CreateRectRgnIndirect@4   1002ab38 f   gdi32:GDI32.dll
 0001:00029b3e       _DeleteDC@4                1002ab3e f   gdi32:GDI32.dll
 0001:00029b44       _DeleteMetaFile@4          1002ab44 f   gdi32:GDI32.dll
 0001:00029b4a       _GetDeviceCaps@8           1002ab4a f   gdi32:GDI32.dll
 0001:00029b50       _RestoreDC@8               1002ab50 f   gdi32:GDI32.dll
 0001:00029b56       _SaveDC@4                  1002ab56 f   gdi32:GDI32.dll
 0001:00029b5c       _SetMapMode@8              1002ab5c f   gdi32:GDI32.dll
 0001:00029b62       _LPtoDP@12                 1002ab62 f   gdi32:GDI32.dll
 0001:00029b68       _SetViewportOrgEx@16       1002ab68 f   gdi32:GDI32.dll
 0001:00029b6e       _SetWindowExtEx@16         1002ab6e f   gdi32:GDI32.dll
 0001:00029b74       _SetWindowOrgEx@16         1002ab74 f   gdi32:GDI32.dll
 0001:00029b7a       _BitBlt@36                 1002ab7a f   gdi32:GDI32.dll
 0001:00029b80       _CreateCompatibleDC@4      1002ab80 f   gdi32:GDI32.dll
 0001:00029b86       _DeleteObject@4            1002ab86 f   gdi32:GDI32.dll
 0001:00029b8c       _SelectObject@8            1002ab8c f   gdi32:GDI32.dll
 0001:00029b92       _GetObjectW@12             1002ab92 f   gdi32:GDI32.dll
 0001:00029b98       _RegCloseKey@4             1002ab98 f   advapi32:ADVAPI32.dll
 0001:00029b9e       _RegCreateKeyExW@36        1002ab9e f   advapi32:ADVAPI32.dll
 0001:00029ba4       _RegDeleteKeyW@8           1002aba4 f   advapi32:ADVAPI32.dll
 0001:00029baa       _RegDeleteValueW@8         1002abaa f   advapi32:ADVAPI32.dll
 0001:00029bb0       _RegEnumKeyExW@32          1002abb0 f   advapi32:ADVAPI32.dll
 0001:00029bb6       _RegOpenKeyExW@20          1002abb6 f   advapi32:ADVAPI32.dll
 0001:00029bbc       _RegQueryInfoKeyW@48       1002abbc f   advapi32:ADVAPI32.dll
 0001:00029bc2       _RegSetValueExW@24         1002abc2 f   advapi32:ADVAPI32.dll
 0001:00029bc8       _RegQueryValueExW@24       1002abc8 f   advapi32:ADVAPI32.dll
 0001:00029bce       _CoCreateInstance@20       1002abce f   ole32:ole32.dll
 0001:00029bd4       _StringFromGUID2@12        1002abd4 f   ole32:ole32.dll
 0001:00029bda       _CoTaskMemAlloc@4          1002abda f   ole32:ole32.dll
 0001:00029be0       _CoTaskMemRealloc@8        1002abe0 f   ole32:ole32.dll
 0001:00029be6       _CoTaskMemFree@4           1002abe6 f   ole32:ole32.dll
 0001:00029bec       _CreateDataAdviseHolder@4  1002abec f   ole32:ole32.dll
 0001:00029bf2       _ReadClassStm@8            1002abf2 f   ole32:ole32.dll
 0001:00029bf8       _WriteClassStm@8           1002abf8 f   ole32:ole32.dll
 0001:00029bfe       _OleSaveToStream@8         1002abfe f   ole32:ole32.dll
 0001:00029c04       _CreateOleAdviseHolder@4   1002ac04 f   ole32:ole32.dll
 0001:00029c0a       _OleRegGetUserType@12      1002ac0a f   ole32:ole32.dll
 0001:00029c10       _OleRegGetMiscStatus@12    1002ac10 f   ole32:ole32.dll
 0001:00029c16       _OleRegEnumVerbs@8         1002ac16 f   ole32:ole32.dll
 0001:00029c1c       _CLSIDFromProgID@8         1002ac1c f   ole32:ole32.dll
 0001:00029c22       _SysAllocString@4          1002ac22 f   oleaut32:OLEAUT32.dll
 0001:00029c28       _SysAllocStringLen@8       1002ac28 f   oleaut32:OLEAUT32.dll
 0001:00029c2e       _SysFreeString@4           1002ac2e f   oleaut32:OLEAUT32.dll
 0001:00029c34       _SysStringLen@4            1002ac34 f   oleaut32:OLEAUT32.dll
 0001:00029c3a       _VariantClear@4            1002ac3a f   oleaut32:OLEAUT32.dll
 0001:00029c40       _VariantCopyInd@8          1002ac40 f   oleaut32:OLEAUT32.dll
 0001:00029c46       _VariantChangeType@16      1002ac46 f   oleaut32:OLEAUT32.dll
 0001:00029c4c       _SysStringByteLen@4        1002ac4c f   oleaut32:OLEAUT32.dll
 0001:00029c52       _SysAllocStringByteLen@8   1002ac52 f   oleaut32:OLEAUT32.dll
 0001:00029c58       _VariantInit@4             1002ac58 f   oleaut32:OLEAUT32.dll
 0001:00029c5e       _VarUI4FromStr@16          1002ac5e f   oleaut32:OLEAUT32.dll
 0001:00029c64       _LoadTypeLib@8             1002ac64 f   oleaut32:OLEAUT32.dll
 0001:00029c6a       _LoadRegTypeLib@20         1002ac6a f   oleaut32:OLEAUT32.dll
 0001:00029c70       _RegisterTypeLib@12        1002ac70 f   oleaut32:OLEAUT32.dll
 0001:00029c76       _UnRegisterTypeLib@20      1002ac76 f   oleaut32:OLEAUT32.dll
 0001:00029c7c       _OleCreatePropertyFrame@44 1002ac7c f   oleaut32:OLEAUT32.dll
 0001:00029c90       @_RTC_AllocaHelper@12      1002ac90 f   LIBCMTD:stack.obj
 0001:00029cd0       @_RTC_CheckStackVars2@12   1002acd0 f   LIBCMTD:stack.obj
 0001:00029db0       @_RTC_CheckStackVars@8     1002adb0 f   LIBCMTD:stack.obj
 0001:00029e20       __RTC_CheckEsp             1002ae20 f   LIBCMTD:stack.obj
 0001:00029e60       @__security_check_cookie@4 1002ae60 f   LIBCMTD:secchk.obj
 0001:00029e80       __CRT_RTC_INIT             1002ae80 f   LIBCMTD:init.obj
 0001:00029e90       __CRT_RTC_INITW            1002ae90 f   LIBCMTD:init.obj
 0001:00029ea0       __RTC_InitBase             1002aea0 f   LIBCMTD:init.obj
 0001:00029ed0       __RTC_Shutdown             1002aed0 f   LIBCMTD:init.obj
 0001:00029ef0       ??_U@YAPAXI@Z              1002aef0 f   LIBCMTD:new_array.obj
 0001:00029f10       ??3@YAXPAXI@Z              1002af10 f   LIBCMTD:delete_scalar_size.obj
 0001:00029f30       ??_V@YAXPAX@Z              1002af30 f   LIBCMTD:delete_array.obj
 0001:00029f50       ??_V@YAXPAXI@Z             1002af50 f   LIBCMTD:delete_array_size.obj
 0001:00029f70       ??$__crt_fast_decode_pointer@PAP6AXXZ@@YAPAP6AXXZQAP6AXXZ@Z 1002af70 f i LIBCMTD:utility.obj
 0001:00029fa0       ??$__crt_fast_encode_pointer@PAP6AXXZ@@YAPAP6AXXZQAP6AXXZ@Z 1002afa0 f i LIBCMTD:utility.obj
 0001:00029fd0       ?__crt_rotate_pointer_value@@YAIIH@Z 1002afd0 f i LIBCMTD:utility.obj
 0001:00029fe0       ?configure_argv@__scrt_narrow_argv_policy@@SAHXZ 1002afe0 f i LIBCMTD:utility.obj
 0001:0002a090       ?initialize_environment@__scrt_narrow_environment_policy@@SAHXZ 1002b090 f i LIBCMTD:utility.obj
 0001:0002a110       _NtCurrentTeb              1002b110 f i LIBCMTD:utility.obj
 0001:0002a120       ___scrt_acquire_startup_lock 1002b120 f   LIBCMTD:utility.obj
 0001:0002a170       ___scrt_dllmain_after_initialize_c 1002b170 f   LIBCMTD:utility.obj
 0001:0002a1a0       ___scrt_dllmain_before_initialize_c 1002b1a0 f   LIBCMTD:utility.obj
 0001:0002a1c0       ___scrt_dllmain_crt_thread_attach 1002b1c0 f   LIBCMTD:utility.obj
 0001:0002a1f0       ___scrt_dllmain_crt_thread_detach 1002b1f0 f   LIBCMTD:utility.obj
 0001:0002a210       ___scrt_dllmain_exception_filter 1002b210 f   LIBCMTD:utility.obj
 0001:0002a260       ___scrt_dllmain_uninitialize_c 1002b260 f   LIBCMTD:utility.obj
 0001:0002a290       ___scrt_dllmain_uninitialize_critical 1002b290 f   LIBCMTD:utility.obj
 0001:0002a2b0       ___scrt_initialize_crt     1002b2b0 f   LIBCMTD:utility.obj
 0001:0002a300       ___scrt_initialize_onexit_tables 1002b300 f   LIBCMTD:utility.obj
 0001:0002a3e0       ___scrt_is_nonwritable_in_current_image 1002b3e0 f   LIBCMTD:utility.obj
 0001:0002a510       ___scrt_release_startup_lock 1002b510 f   LIBCMTD:utility.obj
 0001:0002a540       ___scrt_uninitialize_crt   1002b540 f   LIBCMTD:utility.obj
 0001:0002a580       __onexit                   1002b580 f   LIBCMTD:utility.obj
 0001:0002a5f0       _at_quick_exit             1002b5f0 f   LIBCMTD:utility.obj
 0001:0002a640       _atexit                    1002b640 f   LIBCMTD:utility.obj
 0001:0002a670       ??3@YAXPAX@Z               1002b670 f   LIBCMTD:delete_scalar.obj
 0001:0002a690       ___raise_securityfailure   1002b690 f   LIBCMTD:gs_report.obj
 0001:0002a6c0       ___report_gsfailure        1002b6c0 f   LIBCMTD:gs_report.obj
 0001:0002a7d0       ___report_rangecheckfailure 1002b7d0 f   LIBCMTD:gs_report.obj
 0001:0002a7e0       ___report_securityfailure  1002b7e0 f   LIBCMTD:gs_report.obj
 0001:0002a8c0       ___report_securityfailureEx 1002b8c0 f   LIBCMTD:gs_report.obj
 0001:0002aa30       ??$__crt_fast_decode_pointer@P6GHPAU_RTL_CONDITION_VARIABLE@@PAU_RTL_CRITICAL_SECTION@@K@Z@@YAP6GHPAU_RTL_CONDITION_VARIABLE@@PAU_RTL_CRITICAL_SECTION@@K@ZQ6GH01K@Z@Z 1002ba30 f i LIBCMTD:thread_safe_statics.obj
 0001:0002aa60       ??$__crt_fast_decode_pointer@P6GXPAU_RTL_CONDITION_VARIABLE@@@Z@@YAP6GXPAU_RTL_CONDITION_VARIABLE@@@ZQ6GX0@Z@Z 1002ba60 f i LIBCMTD:thread_safe_statics.obj
 0001:0002aa90       ??$__crt_fast_encode_pointer@P6GHPAU_RTL_CONDITION_VARIABLE@@PAU_RTL_CRITICAL_SECTION@@K@Z@@YAP6GHPAU_RTL_CONDITION_VARIABLE@@PAU_RTL_CRITICAL_SECTION@@K@ZQ6GH01K@Z@Z 1002ba90 f i LIBCMTD:thread_safe_statics.obj
 0001:0002aac0       ??$__crt_fast_encode_pointer@P6GXPAU_RTL_CONDITION_VARIABLE@@@Z@@YAP6GXPAU_RTL_CONDITION_VARIABLE@@@ZQ6GX0@Z@Z 1002bac0 f i LIBCMTD:thread_safe_statics.obj
 0001:0002ac20       ?__scrt_is_event_api_used@@YA_NQAX@Z 1002bc20 f i LIBCMTD:thread_safe_statics.obj
 0001:0002acb0       __Init_thread_abort        1002bcb0 f   LIBCMTD:thread_safe_statics.obj
 0001:0002acd0       __Init_thread_footer       1002bcd0 f   LIBCMTD:thread_safe_statics.obj
 0001:0002ad20       __Init_thread_header       1002bd20 f   LIBCMTD:thread_safe_statics.obj
 0001:0002ad90       __Init_thread_lock         1002bd90 f   LIBCMTD:thread_safe_statics.obj
 0001:0002ada0       __Init_thread_notify       1002bda0 f   LIBCMTD:thread_safe_statics.obj
 0001:0002ae10       __Init_thread_unlock       1002be10 f   LIBCMTD:thread_safe_statics.obj
 0001:0002ae20       __Init_thread_wait         1002be20 f   LIBCMTD:thread_safe_statics.obj
 0001:0002aec0       ??2@YAPAXIABUnothrow_t@std@@@Z 1002bec0 f   LIBCMTD:new_scalar_nothrow.obj
 0001:0002af40       ??_U@YAPAXIABUnothrow_t@std@@@Z 1002bf40 f   LIBCMTD:new_array_nothrow.obj
 0001:0002af60       __allmul                   1002bf60 f   LIBCMTD:llmul.obj
 0001:0002afa0       __alloca_probe_16          1002bfa0 f   LIBCMTD:alloca16.obj
 0001:0002afb6       __alloca_probe_8           1002bfb6     LIBCMTD:alloca16.obj
 0001:0002afd0       __alloca_probe             1002bfd0 f   LIBCMTD:chkstk.obj
 0001:0002afd0       __chkstk                   1002bfd0 f   LIBCMTD:chkstk.obj
 0001:0002b4a0       __CRT_INIT@12              1002c4a0 f   LIBCMTD:dll_dllmain.obj
 0001:0002b4c0       __DllMainCRTStartup@12     1002c4c0 f   LIBCMTD:dll_dllmain.obj
 0001:0002b580       ?_RTC_AllocaFailure@@YAXPAXPAU_RTC_ALLOCA_NODE@@H@Z 1002c580 f   LIBCMTD:error.obj
 0001:0002b670       ?_RTC_Failure@@YAXPAXH@Z   1002c670 f   LIBCMTD:error.obj
 0001:0002b6c0       ?_RTC_StackFailure@@YAXPAXPBD@Z 1002c6c0 f   LIBCMTD:error.obj
 0001:0002ba80       __RTC_UninitUse            1002ca80 f   LIBCMTD:error.obj
 0001:0002bb30       __vsprintf_s_l             1002cb30 f i LIBCMTD:error.obj
 0001:0002bb60       _sprintf_s                 1002cb60 f i LIBCMTD:error.obj
 0001:0002bb80       ?_RTC_GetErrorFunc@@YAP6AHHPBDH00ZZPBX@Z 1002cb80 f   LIBCMTD:userapi.obj
 0001:0002bb90       ?_RTC_GetErrorFuncW@@YAP6AHHPB_WH00ZZPBX@Z 1002cb90 f   LIBCMTD:userapi.obj
 0001:0002bba0       __RTC_GetErrDesc           1002cba0 f   LIBCMTD:userapi.obj
 0001:0002bbc0       __RTC_NumErrors            1002cbc0 f   LIBCMTD:userapi.obj
 0001:0002bbd0       __RTC_SetErrorFunc         1002cbd0 f   LIBCMTD:userapi.obj
 0001:0002bbf0       __RTC_SetErrorFuncW        1002cbf0 f   LIBCMTD:userapi.obj
 0001:0002bc10       __RTC_SetErrorType         1002cc10 f   LIBCMTD:userapi.obj
 0001:0002bc40       ??2@YAPAXI@Z               1002cc40 f   LIBCMTD:new_scalar.obj
 0001:0002bc90       ___isa_available_init      1002cc90 f   LIBCMTD:cpu_disp.obj
 0001:0002bf70       __get_startup_argv_mode    1002cf70 f   LIBCMTD:argv_mode.obj
 0001:0002bf80       ___scrt_is_ucrt_dll_in_use 1002cf80 f   LIBCMTD:ucrt_detection.obj
 0001:0002bfb0       ___scrt_fastfail           1002cfb0 f   LIBCMTD:utility_desktop.obj
 0001:0002c0f0       ___scrt_get_show_window_mode 1002d0f0 f   LIBCMTD:utility_desktop.obj
 0001:0002c130       ___scrt_initialize_mta     1002d130 f   LIBCMTD:utility_desktop.obj
 0001:0002c140       ___scrt_initialize_winrt   1002d140 f   LIBCMTD:utility_desktop.obj
 0001:0002c150       ___scrt_is_managed_app     1002d150 f   LIBCMTD:utility_desktop.obj
 0001:0002c1e0       ___scrt_set_unhandled_exception_filter 1002d1e0 f   LIBCMTD:utility_desktop.obj
 0001:0002c1f0       ___scrt_stub_for_initialize_mta 1002d1f0 f   LIBCMTD:utility_desktop.obj
 0001:0002c1f0       ___scrt_exe_initialize_mta 1002d1f0 f   LIBCMTD:utility_desktop.obj
 0001:0002c200       ___scrt_unhandled_exception_filter@4 1002d200 f   LIBCMTD:utility_desktop.obj
 0001:0002c260       __crt_debugger_hook        1002d260 f   LIBCMTD:utility_desktop.obj
 0001:0002c270       @_guard_check_icall_nop@4  1002d270 f i LIBCMTD:guard_support.obj
 0001:0002c280       _ReadNoFence               1002d280 f i LIBCMTD:guard_support.obj
 0001:0002c2a0       _ReadPointerNoFence        1002d2a0 f i LIBCMTD:guard_support.obj
 0001:0002c2c0       __guard_icall_checks_enforced 1002d2c0 f i LIBCMTD:guard_support.obj
 0001:0002c360       ___security_init_cookie    1002d360 f   LIBCMTD:gs_support.obj
 0001:0002c3e0       ?__scrt_initialize_type_info@@YAXXZ 1002d3e0 f   LIBCMTD:tncleanup.obj
 0001:0002c3f0       ?__scrt_uninitialize_type_info@@YAXXZ 1002d3f0 f   LIBCMTD:tncleanup.obj
 0001:0002c410       ___local_stdio_scanf_options 1002d410 f i LIBCMTD:default_local_stdio_options.obj
 0001:0002c420       ___scrt_initialize_default_local_stdio_options 1002d420 f   LIBCMTD:default_local_stdio_options.obj
 0001:0002c460       ___scrt_get_dyn_tls_init_callback 1002d460 f   LIBCMTD:dyn_tls_init.obj
 0001:0002c470       __RTC_Initialize           1002d470 f   LIBCMTD:initsect.obj
 0001:0002c4a0       __RTC_Terminate            1002d4a0 f   LIBCMTD:initsect.obj
 0001:0002c950       ?_RTC_GetSrcLine@@YAHPAEPA_WKPAH1K@Z 1002d950 f   LIBCMTD:pdblkup.obj
 0001:0002cce0       __except_handler4_noexcept 1002dce0 f   LIBCMTD:chandler4_noexcept.obj
 0001:0002cd30       ??0bad_alloc@std@@AAE@QBD@Z 1002dd30 f i LIBCMTD:throw_bad_alloc.obj
 0001:0002cd60       ??0bad_alloc@std@@QAE@ABV01@@Z 1002dd60 f i LIBCMTD:throw_bad_alloc.obj
 0001:0002cd90       ??0bad_alloc@std@@QAE@XZ   1002dd90 f i LIBCMTD:throw_bad_alloc.obj
 0001:0002cdc0       ??0bad_array_new_length@std@@QAE@ABV01@@Z 1002ddc0 f i LIBCMTD:throw_bad_alloc.obj
 0001:0002cdf0       ??0bad_array_new_length@std@@QAE@XZ 1002ddf0 f i LIBCMTD:throw_bad_alloc.obj
 0001:0002ce20       ??0exception@std@@QAE@ABV01@@Z 1002de20 f i LIBCMTD:throw_bad_alloc.obj
 0001:0002ce60       ??0exception@std@@QAE@QBDH@Z 1002de60 f i LIBCMTD:throw_bad_alloc.obj
 0001:0002ce90       ??1bad_alloc@std@@UAE@XZ   1002de90 f i LIBCMTD:throw_bad_alloc.obj
 0001:0002ceb0       ??1bad_array_new_length@std@@UAE@XZ 1002deb0 f i LIBCMTD:throw_bad_alloc.obj
 0001:0002ced0       ??1exception@std@@UAE@XZ   1002ded0 f i LIBCMTD:throw_bad_alloc.obj
 0001:0002cf00       ??_Gbad_alloc@std@@UAEPAXI@Z 1002df00 f i LIBCMTD:throw_bad_alloc.obj
 0001:0002cf00       ??_Ebad_alloc@std@@UAEPAXI@Z 1002df00 f i LIBCMTD:throw_bad_alloc.obj
 0001:0002cf30       ??_Ebad_array_new_length@std@@UAEPAXI@Z 1002df30 f i LIBCMTD:throw_bad_alloc.obj
 0001:0002cf30       ??_Gbad_array_new_length@std@@UAEPAXI@Z 1002df30 f i LIBCMTD:throw_bad_alloc.obj
 0001:0002cf60       ??_Gexception@std@@UAEPAXI@Z 1002df60 f i LIBCMTD:throw_bad_alloc.obj
 0001:0002cf60       ??_Eexception@std@@UAEPAXI@Z 1002df60 f i LIBCMTD:throw_bad_alloc.obj
 0001:0002cf90       ?__scrt_throw_std_bad_alloc@@YAXXZ 1002df90 f   LIBCMTD:throw_bad_alloc.obj
 0001:0002cfb0       ?__scrt_throw_std_bad_array_new_length@@YAXXZ 1002dfb0 f   LIBCMTD:throw_bad_alloc.obj
 0001:0002cfd0       ?what@exception@std@@UBEPBDXZ 1002dfd0 f i LIBCMTD:throw_bad_alloc.obj
 0001:0002d000       ??1type_info@@UAE@XZ       1002e000 f   LIBCMTD:std_type_info_static.obj
 0001:0002d020       ??_Etype_info@@UAEPAXI@Z   1002e020 f i LIBCMTD:std_type_info_static.obj
 0001:0002d020       ??_Gtype_info@@UAEPAXI@Z   1002e020 f i LIBCMTD:std_type_info_static.obj
 0001:0002d04e       ??$?2PAUHINSTANCE__@@@Wrapper@?$CSimpleArray@PAUHINSTANCE__@@V?$CSimpleArrayEqualHelper@PAUHINSTANCE__@@@ATL@@@ATL@@SAPAXIPAPAUHINSTANCE__@@@Z 1002e04e f i atls:atlbase.obj
 0001:0002d056       ??0?$CSimpleArray@PAUHINSTANCE__@@V?$CSimpleArrayEqualHelper@PAUHINSTANCE__@@@ATL@@@ATL@@QAE@XZ 1002e056 f i atls:atlbase.obj
 0001:0002d063       ??0CAtlBaseModule@ATL@@QAE@XZ 1002e063 f   atls:atlbase.obj
 0001:0002d0b6       ??0Wrapper@?$CSimpleArray@PAUHINSTANCE__@@V?$CSimpleArrayEqualHelper@PAUHINSTANCE__@@@ATL@@@ATL@@QAE@ABQAUHINSTANCE__@@@Z 1002e0b6 f i atls:atlbase.obj
 0001:0002d0c6       ??0_ATL_BASE_MODULE70@ATL@@QAE@XZ 1002e0c6 f i atls:atlbase.obj
 0001:0002d0e9       ??1?$CSimpleArray@PAUHINSTANCE__@@V?$CSimpleArrayEqualHelper@PAUHINSTANCE__@@@ATL@@@ATL@@QAE@XZ 1002e0e9 f i atls:atlbase.obj
 0001:0002d0ee       ??1CAtlBaseModule@ATL@@QAE@XZ 1002e0ee f   atls:atlbase.obj
 0001:0002d104       ??1_ATL_BASE_MODULE70@ATL@@QAE@XZ 1002e104 f i atls:atlbase.obj
 0001:0002d10c       ??A?$CSimpleArray@PAUHINSTANCE__@@V?$CSimpleArrayEqualHelper@PAUHINSTANCE__@@@ATL@@@ATL@@QAEAAPAUHINSTANCE__@@H@Z 1002e10c f i atls:atlbase.obj
 0001:0002d131       ?Add@?$CSimpleArray@PAUHINSTANCE__@@V?$CSimpleArrayEqualHelper@PAUHINSTANCE__@@@ATL@@@ATL@@QAEHABQAUHINSTANCE__@@@Z 1002e131 f i atls:atlbase.obj
 0001:0002d1b3       ?AddResourceInstance@CAtlBaseModule@ATL@@QAE_NPAUHINSTANCE__@@@Z 1002e1b3 f   atls:atlbase.obj
 0001:0002d1e6       ?GetHInstanceAt@CAtlBaseModule@ATL@@QAEPAUHINSTANCE__@@H@Z 1002e1e6 f   atls:atlbase.obj
 0001:0002d22b       ?GetSize@?$CSimpleArray@PAUHINSTANCE__@@V?$CSimpleArrayEqualHelper@PAUHINSTANCE__@@@ATL@@@ATL@@QBEHXZ 1002e22b f i atls:atlbase.obj
 0001:0002d22f       ?InternalSetAtIndex@?$CSimpleArray@PAUHINSTANCE__@@V?$CSimpleArrayEqualHelper@PAUHINSTANCE__@@@ATL@@@ATL@@QAEXHABQAUHINSTANCE__@@@Z 1002e22f f i atls:atlbase.obj
 0001:0002d249       ?RemoveAll@?$CSimpleArray@PAUHINSTANCE__@@V?$CSimpleArrayEqualHelper@PAUHINSTANCE__@@@ATL@@@ATL@@QAEXXZ 1002e249 f i atls:atlbase.obj
 0001:0002d266       ?RemoveAt@?$CSimpleArray@PAUHINSTANCE__@@V?$CSimpleArrayEqualHelper@PAUHINSTANCE__@@@ATL@@@ATL@@QAEHH@Z 1002e266 f i atls:atlbase.obj
 0001:0002d2b4       ?RemoveResourceInstance@CAtlBaseModule@ATL@@QAE_NPAUHINSTANCE__@@@Z 1002e2b4 f   atls:atlbase.obj
 0001:0002d311       ?memmove_s@Checked@ATL@@YAXPAXIPBXI@Z 1002e311 f i atls:atlbase.obj
 0001:0002d66e       ?GetCodeAddress@_stdcallthunk@ATL@@QAEPAXXZ 1002e66e f i atls:atlthunk.obj
 0001:0002d698       ?Init@_stdcallthunk@ATL@@QAEHKPAX@Z 1002e698 f i atls:atlthunk.obj
 0001:0002d6cd       ?__AllocStdCallThunk@@YGPAXXZ 1002e6cd f   atls:atlthunk.obj
 0001:0002d6d2       ?__AllocStdCallThunk@ATL@@YGPAXXZ 1002e6d2 f   atls:atlthunk.obj
 0001:0002d6d7       ?__AllocStdCallThunk_cmn@@YAPAXXZ 1002e6d7 f   atls:atlthunk.obj
 0001:0002d79d       ?__FreeStdCallThunk@@YGXPAX@Z 1002e79d f   atls:atlthunk.obj
 0001:0002d7ad       ?__FreeStdCallThunk@ATL@@YGXPAX@Z 1002e7ad f   atls:atlthunk.obj
 0001:0002d7bd       ?__FreeStdCallThunk_cmn@@YAXPAX@Z 1002e7bd f   atls:atlthunk.obj
 0001:0002d858       _AtlThunk_AllocateData@0   1002e858 f   atls:atlthunk.obj
 0001:0002d8bd       _AtlThunk_DataToCode@4     1002e8bd f   atls:atlthunk.obj
 0001:0002d904       _AtlThunk_FreeData@4       1002e904 f   atls:atlthunk.obj
 0001:0002d95a       _AtlThunk_InitData@12      1002e95a f   atls:atlthunk.obj
 0001:0002d9a9       _MemoryBarrier             1002e9a9 f i atls:atlthunk.obj
 0001:0002d9b7       __InlineInterlockedCompareExchangePointer 1002e9b7 f i atls:atlthunk.obj
 0001:0002d9d0       _memset                    1002e9d0 f   libvcruntimed:memset.obj
 0001:0002db30       ??$__crt_fast_decode_pointer@P6AXXZ@@YAP6AXXZQ6AXXZ@Z 1002eb30 f i libvcruntimed:purevirt.obj
 0001:0002db60       ??$__crt_fast_encode_pointer@P6AXXZ@@YAP6AXXZQ6AXXZ@Z 1002eb60 f i libvcruntimed:purevirt.obj
 0001:0002db90       ??$__crt_interlocked_exchange_pointer@$$A6AXXZP6AXXZ@@YAP6AXXZPDS6AXXZQ6AXXZ@Z 1002eb90 f i libvcruntimed:purevirt.obj
 0001:0002dba0       ??$__crt_interlocked_read_pointer@$$A6AXXZ@@YAP6AXXZPDS6AXXZ@Z 1002eba0 f i libvcruntimed:purevirt.obj
 0001:0002dbc0       ?__crt_interlocked_read_32@@YAHPDH@Z 1002ebc0 f i libvcruntimed:purevirt.obj
 0001:0002dbe0       __get_purecall_handler     1002ebe0 f   libvcruntimed:purevirt.obj
 0001:0002dc00       __purecall                 1002ec00 f   libvcruntimed:purevirt.obj
 0001:0002dc30       __set_purecall_handler     1002ec30 f   libvcruntimed:purevirt.obj
 0001:0002de10       _memcmp                    1002ee10 f   libvcruntimed:memcmp.obj
 0001:0002e6e0       _memcpy                    1002f6e0 f   libvcruntimed:memcpy.obj
 0001:0002ec60       _wcsstr                    1002fc60 f   libvcruntimed:wcsstr.obj
 0001:0002f190       __except_handler4          10030190 f   libvcruntimed:chandler4.obj
 0001:0002f360       ___vcrt_initialize         10030360 f   libvcruntimed:initialization.obj
 0001:0002f3a0       ___vcrt_thread_attach      100303a0 f   libvcruntimed:initialization.obj
 0001:0002f3c0       ___vcrt_thread_detach      100303c0 f   libvcruntimed:initialization.obj
 0001:0002f3e0       ___vcrt_uninitialize       100303e0 f   libvcruntimed:initialization.obj
 0001:0002f400       ___vcrt_uninitialize_critical 10030400 f   libvcruntimed:initialization.obj
 0001:0002f420       ??$?0AAViterator@TryBlockMap@__FrameHandler3@@AAV012@$0A@@?$pair@Viterator@TryBlockMap@__FrameHandler3@@V123@@std@@QAE@AAViterator@TryBlockMap@__FrameHandler3@@0@Z 10030420 f i libvcruntimed:trnsctrl.obj
 0001:0002f470       ??$forward@AAViterator@TryBlockMap@__FrameHandler3@@@std@@YAAAViterator@TryBlockMap@__FrameHandler3@@AAV123@@Z 10030470 f i libvcruntimed:trnsctrl.obj
 0001:0002f480       ??0iterator@TryBlockMap@__FrameHandler3@@QAE@AAV12@I@Z 10030480 f i libvcruntimed:trnsctrl.obj
 0001:0002f4b0       ?GetRangeOfTrysToCheck@__FrameHandler3@@SA?AU?$pair@Viterator@TryBlockMap@__FrameHandler3@@V123@@std@@AAVTryBlockMap@1@HH@Z 100304b0 f   libvcruntimed:trnsctrl.obj
 0001:0002f5a0       ?_CallCatchBlock2@@YAPAXPAUEHRegistrationNode@@PBU_s_FuncInfo@@PAXHK@Z 100305a0 f   libvcruntimed:trnsctrl.obj
 0001:0002f610       ?_CallSETranslator@@YAHPAUEHExceptionRecord@@PAUEHRegistrationNode@@PAX2PBU_s_FuncInfo@@H1@Z 10030610 f   libvcruntimed:trnsctrl.obj
 0001:0002f700       ?_JumpToContinuation@@YGXPAXPAUEHRegistrationNode@@@Z 10030700 f   libvcruntimed:trnsctrl.obj
 0001:0002f740       ?_UnwindNestedFrames@@YGXPAUEHRegistrationNode@@PAUEHExceptionRecord@@@Z 10030740 f   libvcruntimed:trnsctrl.obj
 0001:0002f7a0       ?getFuncInfo@TryBlockMap@__FrameHandler3@@QAEPBU_s_FuncInfo@@XZ 100307a0 f i libvcruntimed:trnsctrl.obj
 0001:0002f7b0       __CatchGuardHandler        100307b0 f   libvcruntimed:trnsctrl.obj
 0001:0002f800       __CreateFrameInfo          10030800 f   libvcruntimed:trnsctrl.obj
 0001:0002f830       __FindAndUnlinkFrame       10030830 f   libvcruntimed:trnsctrl.obj
 0001:0002f8a0       __TranslatorGuardHandler   100308a0 f   libvcruntimed:trnsctrl.obj
 0001:0002f950       ___CxxFrameHandler         10030950 f   libvcruntimed:trnsctrl.obj
 0001:0002f990       ___CxxFrameHandler2        10030990 f   libvcruntimed:trnsctrl.obj
 0001:0002f9d0       ___CxxFrameHandler3        100309d0 f   libvcruntimed:trnsctrl.obj
 0001:0002fa10       ___CxxLongjmpUnwind@4      10030a10 f   libvcruntimed:trnsctrl.obj
 0001:0002fa70       ??$?RD@__crt_internal_free_policy@@QBEXQBD@Z 10030a70 f i libvcruntimed:std_type_info.obj
 0001:0002fa90       ??$?RX@__crt_internal_free_policy@@QBEXQBX@Z 10030a90 f i libvcruntimed:std_type_info.obj
 0001:0002fab0       ??$__crt_interlocked_compare_exchange_pointer@$$CBDPAD$$T@@YAPBDPDSBDQAD$$T@Z 10030ab0 f i libvcruntimed:std_type_info.obj
 0001:0002fad0       ??$__crt_interlocked_read_pointer@$$CBD@@YAPBDPDSBD@Z 10030ad0 f i libvcruntimed:std_type_info.obj
 0001:0002faf0       ??0?$__crt_unique_heap_ptr@DU__crt_internal_free_policy@@@@QAE@QAD@Z 10030af0 f i libvcruntimed:std_type_info.obj
 0001:0002fb10       ??0?$__crt_unique_heap_ptr@XU__crt_internal_free_policy@@@@QAE@QAX@Z 10030b10 f i libvcruntimed:std_type_info.obj
 0001:0002fb30       ??1?$__crt_unique_heap_ptr@DU__crt_internal_free_policy@@@@QAE@XZ 10030b30 f i libvcruntimed:std_type_info.obj
 0001:0002fb50       ??1?$__crt_unique_heap_ptr@XU__crt_internal_free_policy@@@@QAE@XZ 10030b50 f i libvcruntimed:std_type_info.obj
 0001:0002fb90       ??B?$__crt_unique_heap_ptr@DU__crt_internal_free_policy@@@@QBE_NXZ 10030b90 f i libvcruntimed:std_type_info.obj
 0001:0002fbb0       ??B?$__crt_unique_heap_ptr@XU__crt_internal_free_policy@@@@QBE_NXZ 10030bb0 f i libvcruntimed:std_type_info.obj
 0001:0002fc20       ?detach@?$__crt_unique_heap_ptr@XU__crt_internal_free_policy@@@@QAEPAXXZ 10030c20 f i libvcruntimed:std_type_info.obj
 0001:0002fc50       ?get@?$__crt_unique_heap_ptr@DU__crt_internal_free_policy@@@@QBEPADXZ 10030c50 f i libvcruntimed:std_type_info.obj
 0001:0002fc60       ?get@?$__crt_unique_heap_ptr@XU__crt_internal_free_policy@@@@QBEPAXXZ 10030c60 f i libvcruntimed:std_type_info.obj
 0001:0002fc70       ?is_valid@?$__crt_unique_heap_ptr@DU__crt_internal_free_policy@@@@QBE_NXZ 10030c70 f i libvcruntimed:std_type_info.obj
 0001:0002fca0       ?is_valid@?$__crt_unique_heap_ptr@XU__crt_internal_free_policy@@@@QBE_NXZ 10030ca0 f i libvcruntimed:std_type_info.obj
 0001:0002fcd0       ?release@?$__crt_unique_heap_ptr@DU__crt_internal_free_policy@@@@QAEXXZ 10030cd0 f i libvcruntimed:std_type_info.obj
 0001:0002fd00       ?release@?$__crt_unique_heap_ptr@XU__crt_internal_free_policy@@@@QAEXXZ 10030d00 f i libvcruntimed:std_type_info.obj
 0001:0002fd30       ___std_type_info_compare   10030d30 f   libvcruntimed:std_type_info.obj
 0001:0002fd60       ___std_type_info_destroy_list 10030d60 f   libvcruntimed:std_type_info.obj
 0001:0002fda0       ___std_type_info_hash      10030da0 f   libvcruntimed:std_type_info.obj
 0001:0002fe00       ___std_type_info_name      10030e00 f   libvcruntimed:std_type_info.obj
 0001:0002ffe0       ___vcrt_GetModuleFileNameW 10030fe0 f   libvcruntimed:winapi_thunks.obj
 0001:00030000       ___vcrt_GetModuleHandleW   10031000 f   libvcruntimed:winapi_thunks.obj
 0001:00030010       ___vcrt_LoadLibraryExW     10031010 f   libvcruntimed:winapi_thunks.obj
 0001:00030030       ??$?RD@__crt_public_free_policy@@QBEXQBD@Z 10031030 f i libvcruntimed:std_exception.obj
 0001:00030050       ??0?$__crt_unique_heap_ptr@DU__crt_public_free_policy@@@@QAE@QAD@Z 10031050 f i libvcruntimed:std_exception.obj
 0001:00030070       ??1?$__crt_unique_heap_ptr@DU__crt_public_free_policy@@@@QAE@XZ 10031070 f i libvcruntimed:std_exception.obj
 0001:00030090       ??B?$__crt_unique_heap_ptr@DU__crt_public_free_policy@@@@QBE_NXZ 10031090 f i libvcruntimed:std_exception.obj
 0001:000300b0       ?detach@?$__crt_unique_heap_ptr@DU__crt_public_free_policy@@@@QAEPADXZ 100310b0 f i libvcruntimed:std_exception.obj
 0001:000300e0       ?get@?$__crt_unique_heap_ptr@DU__crt_public_free_policy@@@@QBEPADXZ 100310e0 f i libvcruntimed:std_exception.obj
 0001:000300f0       ?is_valid@?$__crt_unique_heap_ptr@DU__crt_public_free_policy@@@@QBE_NXZ 100310f0 f i libvcruntimed:std_exception.obj
 0001:00030120       ?release@?$__crt_unique_heap_ptr@DU__crt_public_free_policy@@@@QAEXXZ 10031120 f i libvcruntimed:std_exception.obj
 0001:00030150       ___std_exception_copy      10031150 f   libvcruntimed:std_exception.obj
 0001:00030230       ___std_exception_destroy   10031230 f   libvcruntimed:std_exception.obj
 0001:00030260       __CxxThrowException@8      10031260 f   libvcruntimed:throw.obj
 0001:00030320       _memmove                   10031320 f   libvcruntimed:memmove.obj
 0001:000308a0       ??$?B$$A6AXXZ@__crt_fast_encoded_nullptr_t@@QBEP6AXXZXZ 100318a0 f i libvcruntimed:purevirt_data.obj
 0001:000308c0       ?__crt_fast_encode_pointer@@YA?AU__crt_fast_encoded_nullptr_t@@$$T@Z 100318c0 f i libvcruntimed:purevirt_data.obj
 0001:000308d0       ___vcrt_initialize_pure_virtual_call_handler 100318d0 f   libvcruntimed:purevirt_data.obj
 0001:00030900       __local_unwind4            10031900 f   libvcruntimed:exsup4.obj
 0001:000309d8       __seh_longjmp_unwind4@4    100319d8 f   libvcruntimed:exsup4.obj
 0001:00030a00       @_EH4_CallFilterFunc@8     10031a00 f   libvcruntimed:exsup4.obj
 0001:00030a18       @_EH4_TransferToHandler@8  10031a18 f   libvcruntimed:exsup4.obj
 0001:00030a34       @_EH4_GlobalUnwind2@8      10031a34 f   libvcruntimed:exsup4.obj
 0001:00030a50       @_EH4_LocalUnwind@16       10031a50 f   libvcruntimed:exsup4.obj
 0001:00030a80       ___except_validate_context_record 10031a80 f   libvcruntimed:jbcxrval.obj
 0001:00030ad0       ___except_validate_jump_buffer 10031ad0 f   libvcruntimed:jbcxrval.obj
 0001:00030af0       ___except_validate_jump_buffer_common 10031af0 f i libvcruntimed:jbcxrval.obj
 0001:00030b50       ??$?RU__vcrt_ptd@@@__crt_internal_free_policy@@QBEXQBU__vcrt_ptd@@@Z 10031b50 f i libvcruntimed:per_thread_data.obj
 0001:00030b70       ??0?$__crt_unique_heap_ptr@U__vcrt_ptd@@U__crt_internal_free_policy@@@@QAE@QAU__vcrt_ptd@@@Z 10031b70 f i libvcruntimed:per_thread_data.obj
 0001:00030bb0       ??1?$__crt_unique_heap_ptr@U__vcrt_ptd@@U__crt_internal_free_policy@@@@QAE@XZ 10031bb0 f i libvcruntimed:per_thread_data.obj
 0001:00030bf0       ??B?$__crt_unique_heap_ptr@U__vcrt_ptd@@U__crt_internal_free_policy@@@@QBE_NXZ 10031bf0 f i libvcruntimed:per_thread_data.obj
 0001:00030c10       ?detach@?$__crt_unique_heap_ptr@U__vcrt_ptd@@U__crt_internal_free_policy@@@@QAEPAU__vcrt_ptd@@XZ 10031c10 f i libvcruntimed:per_thread_data.obj
 0001:00030c40       ?get@?$__crt_unique_heap_ptr@U__vcrt_ptd@@U__crt_internal_free_policy@@@@QBEPAU__vcrt_ptd@@XZ 10031c40 f i libvcruntimed:per_thread_data.obj
 0001:00030c50       ?is_valid@?$__crt_unique_heap_ptr@U__vcrt_ptd@@U__crt_internal_free_policy@@@@QBE_NXZ 10031c50 f i libvcruntimed:per_thread_data.obj
 0001:00030c80       ?release@?$__crt_unique_heap_ptr@U__vcrt_ptd@@U__crt_internal_free_policy@@@@QAEXXZ 10031c80 f i libvcruntimed:per_thread_data.obj
 0001:00030ce0       ___vcrt_freefls@4          10031ce0 f   libvcruntimed:per_thread_data.obj
 0001:00030d10       ___vcrt_freeptd            10031d10 f   libvcruntimed:per_thread_data.obj
 0001:00030d70       ___vcrt_getptd             10031d70 f   libvcruntimed:per_thread_data.obj
 0001:00030d90       ___vcrt_getptd_noexit      10031d90 f   libvcruntimed:per_thread_data.obj
 0001:00030ef0       ___vcrt_getptd_noinit      10031ef0 f   libvcruntimed:per_thread_data.obj
 0001:00030f50       ___vcrt_initialize_ptd     10031f50 f   libvcruntimed:per_thread_data.obj
 0001:00030fa0       ___vcrt_uninitialize_ptd   10031fa0 f   libvcruntimed:per_thread_data.obj
 0001:00030fd0       ___vcrt_initialize_locks   10031fd0 f   libvcruntimed:locks.obj
 0001:00031030       ___vcrt_lock               10032030 f   libvcruntimed:locks.obj
 0001:00031050       ___vcrt_uninitialize_locks 10032050 f   libvcruntimed:locks.obj
 0001:000310a0       ___vcrt_unlock             100320a0 f   libvcruntimed:locks.obj
 0001:000310c0       ??$?BX@__crt_fast_encoded_nullptr_t@@QBEPAXXZ 100320c0 f i libvcruntimed:winapi_downlevel.obj
 0001:000310e0       ??$__crt_fast_decode_pointer@PAX@@YAPAXQAX@Z 100320e0 f i libvcruntimed:winapi_downlevel.obj
 0001:00031110       ??$__crt_fast_encode_pointer@PAX@@YAPAXQAX@Z 10032110 f i libvcruntimed:winapi_downlevel.obj
 0001:00031140       ??$__crt_interlocked_exchange_pointer@UHINSTANCE__@@PAU1@@@YAPAUHINSTANCE__@@PDSAU0@QAU0@@Z 10032140 f i libvcruntimed:winapi_downlevel.obj
 0001:00031150       ??$__crt_interlocked_exchange_pointer@UHINSTANCE__@@PAX@@YAPAUHINSTANCE__@@PDSAU0@QAX@Z 10032150 f i libvcruntimed:winapi_downlevel.obj
 0001:00031160       ??$__crt_interlocked_exchange_pointer@XPAX@@YAPAXPDSAXQAX@Z 10032160 f i libvcruntimed:winapi_downlevel.obj
 0001:00031170       ??$__crt_interlocked_read_pointer@UHINSTANCE__@@@@YAPAUHINSTANCE__@@PDSAU0@@Z 10032170 f i libvcruntimed:winapi_downlevel.obj
 0001:00031190       ??$__crt_interlocked_read_pointer@X@@YAPAXPDSAX@Z 10032190 f i libvcruntimed:winapi_downlevel.obj
 0001:000315a0       ___vcrt_FlsAlloc           100325a0 f   libvcruntimed:winapi_downlevel.obj
 0001:000315e0       ___vcrt_FlsFree            100325e0 f   libvcruntimed:winapi_downlevel.obj
 0001:00031620       ___vcrt_FlsGetValue        10032620 f   libvcruntimed:winapi_downlevel.obj
 0001:00031660       ___vcrt_FlsSetValue        10032660 f   libvcruntimed:winapi_downlevel.obj
 0001:000316b0       ___vcrt_InitializeCriticalSectionEx 100326b0 f   libvcruntimed:winapi_downlevel.obj
 0001:00031700       ___vcrt_initialize_winapi_thunks 10032700 f   libvcruntimed:winapi_downlevel.obj
 0001:00031760       ___vcrt_uninitialize_winapi_thunks 10032760 f   libvcruntimed:winapi_downlevel.obj
 0001:000323a0       ??$TypeMatchHelper@V__FrameHandler3@@@@YAHPBU_s_HandlerType@@PBU_s_CatchableType@@PBU_s_ThrowInfo@@@Z 100333a0 f i libvcruntimed:frame.obj
 0001:00032480       ??$__InternalCxxFrameHandler@V__FrameHandler3@@@@YA?AW4_EXCEPTION_DISPOSITION@@PAUEHExceptionRecord@@PAUEHRegistrationNode@@PAU_CONTEXT@@PAXPBU_s_FuncInfo@@H1E@Z 10033480 f i libvcruntimed:frame.obj
 0001:00032660       ??0HandlerMap@__FrameHandler3@@QAE@PBU_s_TryBlockMapEntry@@PAX@Z 10033660 f i libvcruntimed:frame.obj
 0001:00032690       ??0TryBlockMap@__FrameHandler3@@QAE@PBU_s_FuncInfo@@PAX@Z 10033690 f i libvcruntimed:frame.obj
 0001:000326c0       ??0bad_exception@std@@QAE@ABV01@@Z 100336c0 f i libvcruntimed:frame.obj
 0001:000326f0       ??0bad_exception@std@@QAE@XZ 100336f0 f i libvcruntimed:frame.obj
 0001:00032720       ??0iterator@HandlerMap@__FrameHandler3@@QAE@AAV12@I@Z 10033720 f i libvcruntimed:frame.obj
 0001:00032750       ??1bad_exception@std@@UAE@XZ 10033750 f i libvcruntimed:frame.obj
 0001:00032770       ??8iterator@HandlerMap@__FrameHandler3@@QBE_NABV012@@Z 10033770 f i libvcruntimed:frame.obj
 0001:000327a0       ??8type_info@@QBE_NABV0@@Z 100337a0 f i libvcruntimed:frame.obj
 0001:000327e0       ??9iterator@HandlerMap@__FrameHandler3@@QBE_NABV012@@Z 100337e0 f i libvcruntimed:frame.obj
 0001:00032820       ??Diterator@HandlerMap@__FrameHandler3@@QAEPBU_s_HandlerType@@XZ 10033820 f i libvcruntimed:frame.obj
 0001:00032840       ??Diterator@TryBlockMap@__FrameHandler3@@QAEPBU_s_TryBlockMapEntry@@XZ 10033840 f i libvcruntimed:frame.obj
 0001:00032860       ??Eiterator@HandlerMap@__FrameHandler3@@QAEAAV012@XZ 10033860 f i libvcruntimed:frame.obj
 0001:00032880       ??Eiterator@TryBlockMap@__FrameHandler3@@QAEAAV012@XZ 10033880 f i libvcruntimed:frame.obj
 0001:000328a0       ??Miterator@TryBlockMap@__FrameHandler3@@QBE_NABV012@@Z 100338a0 f i libvcruntimed:frame.obj
 0001:000328d0       ??_Gbad_exception@std@@UAEPAXI@Z 100338d0 f i libvcruntimed:frame.obj
 0001:000328d0       ??_Ebad_exception@std@@UAEPAXI@Z 100338d0 f i libvcruntimed:frame.obj
 0001:00032900       ?BuildCatchObject@__FrameHandler3@@SAXPAUEHExceptionRecord@@PAXPBU_s_HandlerType@@PBU_s_CatchableType@@@Z 10033900 f   libvcruntimed:frame.obj
 0001:00032920       ?BuildCatchObjectHelper@__FrameHandler3@@SAHPAUEHExceptionRecord@@PAXPBU_s_HandlerType@@PBU_s_CatchableType@@@Z 10033920 f   libvcruntimed:frame.obj
 0001:00032cc0       ?FrameUnwindToEmptyState@__FrameHandler3@@SAXPAUEHRegistrationNode@@PAXPBU_s_FuncInfo@@@Z 10033cc0 f   libvcruntimed:frame.obj
 0001:00032ce0       ?FrameUnwindToState@__FrameHandler3@@SAXPAUEHRegistrationNode@@PAXPBU_s_FuncInfo@@H@Z 10033ce0 f   libvcruntimed:frame.obj
 0001:00032e60       ?GetMaxState@__FrameHandler3@@SAHPAXPBU_s_FuncInfo@@@Z 10033e60 f i libvcruntimed:frame.obj
 0001:00032f90       ?TypeMatch@__FrameHandler3@@SAHPBU_s_HandlerType@@PBU_s_CatchableType@@PBU_s_ThrowInfo@@@Z 10033f90 f   libvcruntimed:frame.obj
 0001:00032fb0       ?_CallMemberFunction1@@YGXQAX00@Z 10033fb0 f i libvcruntimed:frame.obj
 0001:00032fd0       ?_CallMemberFunction2@@YGXQAX00H@Z 10033fd0 f i libvcruntimed:frame.obj
 0001:00032ff0       ?_ValidateExecute@@YA_NP6GHXZ@Z 10033ff0 f i libvcruntimed:frame.obj
 0001:00033010       ?_ValidateRead@@YA_NPBXI@Z 10034010 f i libvcruntimed:frame.obj
 0001:00033030       ?_ValidateWrite@@YA_NPAXI@Z 10034030 f i libvcruntimed:frame.obj
 0001:00033050       ?begin@HandlerMap@__FrameHandler3@@QAE?AViterator@12@XZ 10034050 f i libvcruntimed:frame.obj
 0001:00033070       ?end@HandlerMap@__FrameHandler3@@QAE?AViterator@12@XZ 10034070 f i libvcruntimed:frame.obj
 0001:000330a0       ?getESTypes@__FrameHandler3@@SAPBU_s_ESTypeList@@PBU_s_FuncInfo@@@Z 100340a0 f i libvcruntimed:frame.obj
 0001:000330b0       ?getLastEntry@HandlerMap@__FrameHandler3@@QAEPBU_s_HandlerType@@XZ 100340b0 f i libvcruntimed:frame.obj
 0001:000330d0       ?getMagicNum@__FrameHandler3@@SAIPBU_s_FuncInfo@@@Z 100340d0 f i libvcruntimed:frame.obj
 0001:000330e0       ?getNumTryBlocks@TryBlockMap@__FrameHandler3@@QAEIXZ 100340e0 f i libvcruntimed:frame.obj
 0001:00033100       ?isEHs@__FrameHandler3@@SA_NPBU_s_FuncInfo@@@Z 10034100 f i libvcruntimed:frame.obj
 0001:00033130       ?isNoExcept@__FrameHandler3@@SA_NPBU_s_FuncInfo@@@Z 10034130 f i libvcruntimed:frame.obj
 0001:00033160       ___BuildCatchObject        10034160 f   libvcruntimed:frame.obj
 0001:00033180       ___BuildCatchObjectHelper  10034180 f   libvcruntimed:frame.obj
 0001:000331a0       ___TypeMatch               100341a0 f   libvcruntimed:frame.obj
 0001:000331c0       ___vcrt_EncodePointer      100341c0 f i libvcruntimed:frame.obj
 0001:000331d0       __CallSettingFrame@12      100341d0 f   libvcruntimed:lowhelpr.obj
 0001:000331f7       __NLG_Return               100341f7     libvcruntimed:lowhelpr.obj
 0001:00033220       ??0Block@_HeapManager@@QAE@XZ 10034220 f i libvcruntimed:undname.obj
 0001:00033240       ??0DName@@QAE@AAPBDD@Z     10034240 f   libvcruntimed:undname.obj
 0001:00033470       ??0DName@@QAE@ABV0@@Z      10034470 f i libvcruntimed:undname.obj
 0001:000334a0       ??0DName@@QAE@D@Z          100344a0 f   libvcruntimed:undname.obj
 0001:000334e0       ??0DName@@QAE@PAV0@@Z      100344e0 f   libvcruntimed:undname.obj
 0001:00033590       ??0DName@@QAE@PBD@Z        10034590 f   libvcruntimed:undname.obj
 0001:000335e0       ??0DName@@QAE@W4DNameStatus@@@Z 100345e0 f   libvcruntimed:undname.obj
 0001:00033680       ??0DName@@QAE@XZ           10034680 f i libvcruntimed:undname.obj
 0001:000336b0       ??0DName@@QAE@_J@Z         100346b0 f   libvcruntimed:undname.obj
 0001:000337a0       ??0DName@@QAE@_K@Z         100347a0 f   libvcruntimed:undname.obj
 0001:00033850       ??0DNameNode@@IAE@XZ       10034850 f i libvcruntimed:undname.obj
 0001:00033870       ??0Replicator@@QAE@XZ      10034870 f i libvcruntimed:undname.obj
 0001:000338b0       ??0UnDecorator@@QAE@PBDP6APADJ@ZK@Z 100348b0 f i libvcruntimed:undname.obj
 0001:00033930       ??0charNode@@QAE@D@Z       10034930 f i libvcruntimed:undname.obj
 0001:00033960       ??0pDNameNode@@QAE@PAVDName@@@Z 10034960 f   libvcruntimed:undname.obj
 0001:000339c0       ??0pairNode@@QAE@PBVDNameNode@@0@Z 100349c0 f i libvcruntimed:undname.obj
 0001:00033a00       ??0pcharNode@@QAE@PBDH@Z   10034a00 f   libvcruntimed:undname.obj
 0001:00033ac0       ??2@YAPAXIAAV_HeapManager@@H@Z 10034ac0 f i libvcruntimed:undname.obj
 0001:00033ae0       ??4DName@@QAEAAV0@ABV0@@Z  10034ae0 f   libvcruntimed:undname.obj
 0001:00033b10       ??4DName@@QAEAAV0@D@Z      10034b10 f i libvcruntimed:undname.obj
 0001:00033b50       ??4DName@@QAEAAV0@PAV0@@Z  10034b50 f   libvcruntimed:undname.obj
 0001:00033bf0       ??4DName@@QAEAAV0@PBD@Z    10034bf0 f   libvcruntimed:undname.obj
 0001:00033c30       ??4DName@@QAEAAV0@W4DNameStatus@@@Z 10034c30 f   libvcruntimed:undname.obj
 0001:00033cb0       ??AReplicator@@QBE?AVDName@@H@Z 10034cb0 f   libvcruntimed:undname.obj
 0001:00033d20       ??H@YA?AVDName@@DABV0@@Z   10034d20 f i libvcruntimed:undname.obj
 0001:00033d50       ??H@YA?AVDName@@PBDABV0@@Z 10034d50 f i libvcruntimed:undname.obj
 0001:00033d80       ??H@YA?AVDName@@W4DNameStatus@@ABV0@@Z 10034d80 f i libvcruntimed:undname.obj
 0001:00033db0       ??HDName@@QBE?AV0@ABV0@@Z  10034db0 f   libvcruntimed:undname.obj
 0001:00033df0       ??HDName@@QBE?AV0@D@Z      10034df0 f   libvcruntimed:undname.obj
 0001:00033e30       ??HDName@@QBE?AV0@PAV0@@Z  10034e30 f   libvcruntimed:undname.obj
 0001:00033e70       ??HDName@@QBE?AV0@PBD@Z    10034e70 f   libvcruntimed:undname.obj
 0001:00033eb0       ??HDName@@QBE?AV0@W4DNameStatus@@@Z 10034eb0 f   libvcruntimed:undname.obj
 0001:00033ef0       ??YDName@@QAEAAV0@ABV0@@Z  10034ef0 f   libvcruntimed:undname.obj
 0001:00033f60       ??YDName@@QAEAAV0@D@Z      10034f60 f   libvcruntimed:undname.obj
 0001:00033fe0       ??YDName@@QAEAAV0@PAV0@@Z  10034fe0 f   libvcruntimed:undname.obj
 0001:000340a0       ??YDName@@QAEAAV0@PBD@Z    100350a0 f   libvcruntimed:undname.obj
 0001:00034140       ??YDName@@QAEAAV0@W4DNameStatus@@@Z 10035140 f   libvcruntimed:undname.obj
 0001:000341a0       ??YReplicator@@QAEAAV0@ABVDName@@@Z 100351a0 f   libvcruntimed:undname.obj
 0001:00034230       ??_5DName@@QAEAAV0@ABV0@@Z 10035230 f   libvcruntimed:undname.obj
 0001:00034290       ?Constructor@_HeapManager@@QAEXP6APAXI@ZP6AXPAX@Z@Z 10035290 f i libvcruntimed:undname.obj
 0001:000342d0       ?Destructor@_HeapManager@@QAEXXZ 100352d0 f i libvcruntimed:undname.obj
 0001:00034330       ?UScore@UnDecorator@@SAPBDW4Tokens@@@Z 10035330 f   libvcruntimed:undname.obj
 0001:00034360       ?append@DName@@AAEXPBVDNameNode@@@Z 10035360 f   libvcruntimed:undname.obj
 0001:000343f0       ?composeDeclaration@UnDecorator@@CA?AVDName@@ABV2@@Z 100353f0 f i libvcruntimed:undname.obj
 0001:00036310       ?dbGetString@DName@@QBEPADXZ 10037310 f   libvcruntimed:undname.obj
 0001:00036330       ?doAccessSpecifiers@UnDecorator@@SAHXZ 10037330 f i libvcruntimed:undname.obj
 0001:00036360       ?doAllocationLanguage@UnDecorator@@SAHXZ 10037360 f i libvcruntimed:undname.obj
 0001:00036390       ?doAllocationModel@UnDecorator@@SAHXZ 10037390 f i libvcruntimed:undname.obj
 0001:000363c0       ?doEcsu@UnDecorator@@SAHXZ 100373c0 f i libvcruntimed:undname.obj
 0001:000363f0       ?doEllipsis@UnDecorator@@SAHXZ 100373f0 f i libvcruntimed:undname.obj
 0001:00036420       ?doFunctionReturns@UnDecorator@@SAHXZ 10037420 f i libvcruntimed:undname.obj
 0001:00036450       ?doMSKeywords@UnDecorator@@SAHXZ 10037450 f i libvcruntimed:undname.obj
 0001:00036480       ?doMemberTypes@UnDecorator@@SAHXZ 10037480 f i libvcruntimed:undname.obj
 0001:000364b0       ?doNameOnly@UnDecorator@@SAHXZ 100374b0 f i libvcruntimed:undname.obj
 0001:000364c0       ?doNoIdentCharCheck@UnDecorator@@SAHXZ 100374c0 f i libvcruntimed:undname.obj
 0001:000364d0       ?doPchar@DName@@AAEXPBDH@Z 100374d0 f   libvcruntimed:undname.obj
 0001:00036610       ?doPtr64@UnDecorator@@SAHXZ 10037610 f i libvcruntimed:undname.obj
 0001:00036640       ?doRestrictionSpec@UnDecorator@@SAHXZ 10037640 f i libvcruntimed:undname.obj
 0001:00036670       ?doThisTypes@UnDecorator@@SAHXZ 10037670 f i libvcruntimed:undname.obj
 0001:000366a0       ?doThrowTypes@UnDecorator@@SAHXZ 100376a0 f i libvcruntimed:undname.obj
 0001:000366d0       ?doTypeOnly@UnDecorator@@SAHXZ 100376d0 f i libvcruntimed:undname.obj
 0001:000366e0       ?doUnderScore@UnDecorator@@SAHXZ 100376e0 f i libvcruntimed:undname.obj
 0001:00036710       ?getArgumentList@UnDecorator@@CA?AVDName@@XZ 10037710 f   libvcruntimed:undname.obj
 0001:00036860       ?getArgumentTypes@UnDecorator@@CA?AVDName@@XZ 10037860 f   libvcruntimed:undname.obj
 0001:000369b0       ?getArrayType@UnDecorator@@CA?AVDName@@ABV2@@Z 100379b0 f i libvcruntimed:undname.obj
 0001:00036c30       ?getBasedType@UnDecorator@@CA?AVDName@@XZ 10037c30 f   libvcruntimed:undname.obj
 0001:00036d00       ?getBasicDataType@UnDecorator@@CA?AVDName@@ABV2@@Z 10037d00 f   libvcruntimed:undname.obj
 0001:00037320       ?getCHPEName@UnDecorator@@QAEPADPADH@Z 10038320 f i libvcruntimed:undname.obj
 0001:00037480       ?getCallIndex@UnDecorator@@CA?AVDName@@XZ 10038480 f i libvcruntimed:undname.obj
 0001:000374a0       ?getCallingConvention@UnDecorator@@CA?AVDName@@XZ 100384a0 f   libvcruntimed:undname.obj
 0001:000376c0       ?getDataIndirectType@UnDecorator@@CA?AVDName@@ABV2@PBD0H@Z 100386c0 f   libvcruntimed:undname.obj
 0001:00037fc0       ?getDataIndirectType@UnDecorator@@CA?AVDName@@XZ 10038fc0 f i libvcruntimed:undname.obj
 0001:00038000       ?getDataType@UnDecorator@@CA?AVDName@@PAV2@@Z 10039000 f   libvcruntimed:undname.obj
 0001:00038120       ?getDecoratedName@UnDecorator@@CA?AVDName@@XZ 10039120 f   libvcruntimed:undname.obj
 0001:00038550       ?getDimension@UnDecorator@@CA?AVDName@@_N@Z 10039550 f   libvcruntimed:undname.obj
 0001:00038800       ?getDispatchTarget@UnDecorator@@CA?AVDName@@XZ 10039800 f   libvcruntimed:undname.obj
 0001:000388a0       ?getDisplacement@UnDecorator@@CA?AVDName@@XZ 100398a0 f i libvcruntimed:undname.obj
 0001:000388c0       ?getECSUDataType@UnDecorator@@CA?AVDName@@XZ 100398c0 f   libvcruntimed:undname.obj
 0001:00038aa0       ?getECSUName@UnDecorator@@CA?AVDName@@XZ 10039aa0 f i libvcruntimed:undname.obj
 0001:00038ac0       ?getEnumType@UnDecorator@@CA?AVDName@@XZ 10039ac0 f i libvcruntimed:undname.obj
 0001:00038c10       ?getExtendedDataIndirectType@UnDecorator@@CA?AVDName@@AAPBDAA_NH@Z 10039c10 f   libvcruntimed:undname.obj
 0001:00038e70       ?getExternalDataType@UnDecorator@@CA?AVDName@@ABV2@@Z 10039e70 f i libvcruntimed:undname.obj
 0001:00038f10       ?getFunctionIndirectType@UnDecorator@@CA?AVDName@@ABV2@@Z 10039f10 f   libvcruntimed:undname.obj
 0001:00039460       ?getGuardNumber@UnDecorator@@CA?AVDName@@XZ 1003a460 f i libvcruntimed:undname.obj
 0001:00039480       ?getLastChar@DName@@QBEDXZ 1003a480 f i libvcruntimed:undname.obj
 0001:000394c0       ?getLastChar@DNameStatusNode@@UBEDXZ 1003a4c0 f i libvcruntimed:undname.obj
 0001:000394f0       ?getLastChar@charNode@@UBEDXZ 1003a4f0 f i libvcruntimed:undname.obj
 0001:00039510       ?getLastChar@pDNameNode@@UBEDXZ 1003a510 f i libvcruntimed:undname.obj
 0001:00039540       ?getLastChar@pairNode@@UBEDXZ 1003a540 f i libvcruntimed:undname.obj
 0001:000395b0       ?getLastChar@pcharNode@@UBEDXZ 1003a5b0 f i libvcruntimed:undname.obj
 0001:000395f0       ?getLexicalFrame@UnDecorator@@CA?AVDName@@XZ 1003a5f0 f i libvcruntimed:undname.obj
 0001:00039630       ?getMemory@_HeapManager@@QAEPAXIH@Z 1003a630 f   libvcruntimed:undname.obj
 0001:00039750       ?getNoexcept@UnDecorator@@CA?AVDName@@XZ 1003a750 f   libvcruntimed:undname.obj
 0001:000397c0       ?getNumberOfDimensions@UnDecorator@@CAHXZ 1003a7c0 f   libvcruntimed:undname.obj
 0001:000398c0       ?getOperatorName@UnDecorator@@CA?AVDName@@_NPA_N@Z 1003a8c0 f i libvcruntimed:undname.obj
 0001:0003a3b0       ?getPointerType@UnDecorator@@CA?AVDName@@ABV2@0@Z 1003b3b0 f i libvcruntimed:undname.obj
 0001:0003a3e0       ?getPointerTypeArray@UnDecorator@@CA?AVDName@@ABV2@0@Z 1003b3e0 f i libvcruntimed:undname.obj
 0001:0003a410       ?getPrimaryDataType@UnDecorator@@CA?AVDName@@ABV2@@Z 1003b410 f   libvcruntimed:undname.obj
 0001:0003a810       ?getPtrRefDataType@UnDecorator@@CA?AVDName@@ABV2@H@Z 1003b810 f   libvcruntimed:undname.obj
 0001:0003aa40       ?getPtrRefType@UnDecorator@@CA?AVDName@@ABV2@0PBD@Z 1003ba40 f   libvcruntimed:undname.obj
 0001:0003abb0       ?getReferenceType@UnDecorator@@CA?AVDName@@ABV2@0PBD@Z 1003bbb0 f i libvcruntimed:undname.obj
 0001:0003abd0       ?getRestrictionSpec@UnDecorator@@CA?AVDName@@XZ 1003bbd0 f   libvcruntimed:undname.obj
 0001:0003ad50       ?getReturnType@UnDecorator@@CA?AVDName@@PAV2@@Z 1003bd50 f   libvcruntimed:undname.obj
 0001:0003ada0       ?getScope@UnDecorator@@CA?AVDName@@XZ 1003bda0 f   libvcruntimed:undname.obj
 0001:0003b340       ?getScopedName@UnDecorator@@CA?AVDName@@XZ 1003c340 f   libvcruntimed:undname.obj
 0001:0003b480       ?getSignedDimension@UnDecorator@@CA?AVDName@@XZ 1003c480 f   libvcruntimed:undname.obj
 0001:0003b500       ?getStorageConvention@UnDecorator@@CA?AVDName@@XZ 1003c500 f i libvcruntimed:undname.obj
 0001:0003b520       ?getString@DName@@QBEPADPAD0@Z 1003c520 f i libvcruntimed:undname.obj
 0001:0003b580       ?getString@DName@@QBEPADPADH@Z 1003c580 f i libvcruntimed:undname.obj
 0001:0003b610       ?getString@DNameStatusNode@@UBEPADPAD0@Z 1003c610 f i libvcruntimed:undname.obj
 0001:0003b650       ?getString@charNode@@UBEPADPAD0@Z 1003c650 f i libvcruntimed:undname.obj
 0001:0003b680       ?getString@pDNameNode@@UBEPADPAD0@Z 1003c680 f i libvcruntimed:undname.obj
 0001:0003b6c0       ?getString@pairNode@@UBEPADPAD0@Z 1003c6c0 f i libvcruntimed:undname.obj
 0001:0003b750       ?getString@pcharNode@@UBEPADPAD0@Z 1003c750 f i libvcruntimed:undname.obj
 0001:0003b780       ?getStringEncoding@UnDecorator@@CA?AVDName@@PBDH@Z 1003c780 f   libvcruntimed:undname.obj
 0001:0003b890       ?getStringHelper@@YAPADPADPBD1H@Z 1003c890 f i libvcruntimed:undname.obj
 0001:0003b8d0       ?getSymbolName@UnDecorator@@CA?AVDName@@XZ 1003c8d0 f i libvcruntimed:undname.obj
 0001:0003b960       ?getTemplateArgumentList@UnDecorator@@CA?AVDName@@XZ 1003c960 f   libvcruntimed:undname.obj
 0001:0003bd80       ?getTemplateConstant@UnDecorator@@CA?AVDName@@XZ 1003cd80 f   libvcruntimed:undname.obj
 0001:0003c3a0       ?getTemplateName@UnDecorator@@CA?AVDName@@_N@Z 1003d3a0 f   libvcruntimed:undname.obj
 0001:0003c580       ?getThisType@UnDecorator@@CA?AVDName@@XZ 1003d580 f i libvcruntimed:undname.obj
 0001:0003c5c0       ?getThrowTypes@UnDecorator@@CA?AVDName@@XZ 1003d5c0 f   libvcruntimed:undname.obj
 0001:0003c600       ?getTypeEncoding@UnDecorator@@CAHXZ 1003d600 f i libvcruntimed:undname.obj
 0001:0003d090       ?getUndecoratedName@UnDecorator@@QAEPADPADH@Z 1003e090 f i libvcruntimed:undname.obj
 0001:0003d1e0       ?getVCallThunkType@UnDecorator@@CA?AVDName@@XZ 1003e1e0 f i libvcruntimed:undname.obj
 0001:0003d240       ?getVbTableType@UnDecorator@@CA?AVDName@@ABV2@@Z 1003e240 f i libvcruntimed:undname.obj
 0001:0003d260       ?getVdispMapType@UnDecorator@@CA?AVDName@@ABV2@@Z 1003e260 f i libvcruntimed:undname.obj
 0001:0003d2e0       ?getVfTableType@UnDecorator@@CA?AVDName@@ABV2@@Z 1003e2e0 f i libvcruntimed:undname.obj
 0001:0003d4c0       ?getZName@UnDecorator@@CA?AVDName@@_N0@Z 1003e4c0 f   libvcruntimed:undname.obj
 0001:0003d7c0       ?haveTemplateParameters@UnDecorator@@SAHXZ 1003e7c0 f i libvcruntimed:undname.obj
 0001:0003d7d0       ?isArray@DName@@QBEHXZ     1003e7d0 f i libvcruntimed:undname.obj
 0001:0003d7f0       ?isComArray@DName@@QBEHXZ  1003e7f0 f i libvcruntimed:undname.obj
 0001:0003d810       ?isEmpty@DName@@QBEHXZ     1003e810 f i libvcruntimed:undname.obj
 0001:0003d840       ?isFull@Replicator@@QBEHXZ 1003e840 f i libvcruntimed:undname.obj
 0001:0003d870       ?isNoTE@DName@@QBEHXZ      1003e870 f i libvcruntimed:undname.obj
 0001:0003d890       ?isPinPtr@DName@@QBEHXZ    1003e890 f i libvcruntimed:undname.obj
 0001:0003d8b0       ?isPtrRef@DName@@QBEHXZ    1003e8b0 f i libvcruntimed:undname.obj
 0001:0003d8d0       ?isUDC@DName@@QBEHXZ       1003e8d0 f i libvcruntimed:undname.obj
 0001:0003d910       ?isUDTThunk@DName@@QBEHXZ  1003e910 f i libvcruntimed:undname.obj
 0001:0003d950       ?isVCallThunk@DName@@QBEHXZ 1003e950 f i libvcruntimed:undname.obj
 0001:0003d970       ?isValid@DName@@QBEHXZ     1003e970 f i libvcruntimed:undname.obj
 0001:0003d9b0       ?length@DName@@QBEHXZ      1003e9b0 f i libvcruntimed:undname.obj
 0001:0003d9f0       ?length@DNameStatusNode@@UBEHXZ 1003e9f0 f i libvcruntimed:undname.obj
 0001:0003da10       ?length@charNode@@UBEHXZ   1003ea10 f i libvcruntimed:undname.obj
 0001:0003da20       ?length@pDNameNode@@UBEHXZ 1003ea20 f i libvcruntimed:undname.obj
 0001:0003da50       ?length@pairNode@@UBEHXZ   1003ea50 f i libvcruntimed:undname.obj
 0001:0003dac0       ?length@pcharNode@@UBEHXZ  1003eac0 f i libvcruntimed:undname.obj
 0001:0003dae0       ?make@DNameStatusNode@@SAPBV1@W4DNameStatus@@@Z 1003eae0 f i libvcruntimed:undname.obj
 0001:0003db10       ?parseDecoratedName@UnDecorator@@CA?AVDName@@XZ 1003eb10 f   libvcruntimed:undname.obj
 0001:0003dca0       ?setIsArray@DName@@QAEXXZ  1003eca0 f i libvcruntimed:undname.obj
 0001:0003dcc0       ?setIsComArray@DName@@QAEXXZ 1003ecc0 f i libvcruntimed:undname.obj
 0001:0003dce0       ?setIsNoTE@DName@@QAEXXZ   1003ece0 f i libvcruntimed:undname.obj
 0001:0003dd00       ?setIsPinPtr@DName@@QAEXXZ 1003ed00 f i libvcruntimed:undname.obj
 0001:0003dd20       ?setIsUDC@DName@@QAEXXZ    1003ed20 f i libvcruntimed:undname.obj
 0001:0003dd50       ?setIsVCallThunk@DName@@QAEXXZ 1003ed50 f i libvcruntimed:undname.obj
 0001:0003dd70       ?setPtrRef@DName@@QAEAAV1@XZ 1003ed70 f i libvcruntimed:undname.obj
 0001:0003dd90       ?status@DName@@QBE?AW4DNameStatus@@XZ 1003ed90 f i libvcruntimed:undname.obj
 0001:0003de90       ___unDName                 1003ee90 f   libvcruntimed:undname.obj
 0001:0003dec0       ___unDNameEx               1003eec0 f   libvcruntimed:undname.obj
 0001:0003df90       _unDNameGenerateCHPE       1003ef90 f   libvcruntimed:undname.obj
 0001:0003dff0       __global_unwind2           1003eff0 f   libvcruntimed:exsup.obj
 0001:0003e056       __local_unwind2            1003f056 f   libvcruntimed:exsup.obj
 0001:0003e0da       __abnormal_termination     1003f0da f   libvcruntimed:exsup.obj
 0001:0003e100       __NLG_Notify1              1003f100 f   libvcruntimed:exsup.obj
 0001:0003e10c       __NLG_Notify               1003f10c f   libvcruntimed:exsup.obj
 0001:0003e123       __NLG_Dispatch             1003f123     libvcruntimed:exsup.obj
 0001:0003e123       __NLG_Dispatch2            1003f123     libvcruntimed:exsup.obj
 0001:0003e12b       __NLG_Call                 1003f12b f   libvcruntimed:exsup.obj
 0001:0003e12d       __NLG_Return2              1003f12d     libvcruntimed:exsup.obj
 0001:0003e160       __get_unexpected           1003f160 f   libvcruntimed:unexpected.obj
 0001:0003e180       _set_unexpected            1003f180 f   libvcruntimed:unexpected.obj
 0001:0003e1b0       _unexpected                1003f1b0 f   libvcruntimed:unexpected.obj
 0001:0003e1f0       ?GetCurrentState@__FrameHandler3@@SAHPAUEHRegistrationNode@@PAXPBU_s_FuncInfo@@@Z 1003f1f0 f   libvcruntimed:ehstate.obj
 0001:0003e220       ?SetState@__FrameHandler3@@SAXPAUEHRegistrationNode@@PBU_s_FuncInfo@@H@Z 1003f220 f   libvcruntimed:ehstate.obj
 0001:0003e230       ___DestructExceptionObject 1003f230 f   libvcruntimed:ehhelpers.obj
 0001:0003e360       ?_CallMemberFunction0@@YGXQAX0@Z 1003f360 f i libvcruntimed:ehhelpers.obj
 0001:0003e380       ?raw_name@type_info@@QBEPBDXZ 1003f380 f i libvcruntimed:ehhelpers.obj
 0001:0003e3a0       __IsExceptionObjectToBeDestroyed 1003f3a0 f   libvcruntimed:ehhelpers.obj
 0001:0003e3e0       __SetWinRTOutOfMemoryExceptionCallback 1003f3e0 f   libvcruntimed:ehhelpers.obj
 0001:0003e3f0       ___AdjustPointer           1003f3f0 f   libvcruntimed:ehhelpers.obj
 0001:0003e440       ___FrameUnwindFilter       1003f440 f   libvcruntimed:ehhelpers.obj
 0001:0003e4c0       ___GetPlatformExceptionInfo 1003f4c0 f   libvcruntimed:ehhelpers.obj
 0001:0003e540       ___current_exception       1003f540 f   libvcruntimed:ehhelpers.obj
 0001:0003e550       ___current_exception_context 1003f550 f   libvcruntimed:ehhelpers.obj
 0001:0003e560       ___processing_throw        1003f560 f   libvcruntimed:ehhelpers.obj
 0001:0003e570       ___std_terminate           1003f570 f   libvcruntimed:ehhelpers.obj
 0001:0003e580       __is_exception_typeof      1003f580 f   libvcruntimed:ehhelpers.obj
 0001:0003e660       ??$?0ABV?$stream_output_adapter@D@__crt_stdio_output@@AB_KABQBDABQAU__crt_locale_pointers@@ABQAD@?$format_validation_base@DV?$stream_output_adapter@D@__crt_stdio_output@@@__crt_stdio_output@@IAE@ABV?$stream_output_adapter@D@1@AB_KABQBDABQAU__crt_locale_pointers@@ABQAD@Z 1003f660 f i libucrtd:output.obj
 0001:0003e690       ??$?0ABV?$stream_output_adapter@D@__crt_stdio_output@@AB_KABQBDABQAU__crt_locale_pointers@@ABQAD@?$positional_parameter_base@DV?$stream_output_adapter@D@__crt_stdio_output@@@__crt_stdio_output@@IAE@ABV?$stream_output_adapter@D@1@AB_KABQBDABQAU__crt_locale_pointers@@ABQAD@Z 1003f690 f i libucrtd:output.obj
 0001:0003e710       ??$?0ABV?$stream_output_adapter@D@__crt_stdio_output@@AB_KABQBDABQAU__crt_locale_pointers@@ABQAD@?$standard_base@DV?$stream_output_adapter@D@__crt_stdio_output@@@__crt_stdio_output@@IAE@ABV?$stream_output_adapter@D@1@AB_KABQBDABQAU__crt_locale_pointers@@ABQAD@Z 1003f710 f i libucrtd:output.obj
 0001:0003e760       ??$?0ABV?$stream_output_adapter@_W@__crt_stdio_output@@AB_KABQB_WABQAU__crt_locale_pointers@@ABQAD@?$format_validation_base@_WV?$stream_output_adapter@_W@__crt_stdio_output@@@__crt_stdio_output@@IAE@ABV?$stream_output_adapter@_W@1@AB_KABQB_WABQAU__crt_locale_pointers@@ABQAD@Z 1003f760 f i libucrtd:output.obj
 0001:0003e790       ??$?0ABV?$stream_output_adapter@_W@__crt_stdio_output@@AB_KABQB_WABQAU__crt_locale_pointers@@ABQAD@?$positional_parameter_base@_WV?$stream_output_adapter@_W@__crt_stdio_output@@@__crt_stdio_output@@IAE@ABV?$stream_output_adapter@_W@1@AB_KABQB_WABQAU__crt_locale_pointers@@ABQAD@Z 1003f790 f i libucrtd:output.obj
 0001:0003e810       ??$?0ABV?$stream_output_adapter@_W@__crt_stdio_output@@AB_KABQB_WABQAU__crt_locale_pointers@@ABQAD@?$standard_base@_WV?$stream_output_adapter@_W@__crt_stdio_output@@@__crt_stdio_output@@IAE@ABV?$stream_output_adapter@_W@1@AB_KABQB_WABQAU__crt_locale_pointers@@ABQAD@Z 1003f810 f i libucrtd:output.obj
 0001:0003e860       ??$?0ABV?$string_output_adapter@D@__crt_stdio_output@@AB_KABQBDABQAU__crt_locale_pointers@@ABQAD@?$format_validation_base@DV?$string_output_adapter@D@__crt_stdio_output@@@__crt_stdio_output@@IAE@ABV?$string_output_adapter@D@1@AB_KABQBDABQAU__crt_locale_pointers@@ABQAD@Z 1003f860 f i libucrtd:output.obj
 0001:0003e890       ??$?0ABV?$string_output_adapter@D@__crt_stdio_output@@AB_KABQBDABQAU__crt_locale_pointers@@ABQAD@?$positional_parameter_base@DV?$string_output_adapter@D@__crt_stdio_output@@@__crt_stdio_output@@IAE@ABV?$string_output_adapter@D@1@AB_KABQBDABQAU__crt_locale_pointers@@ABQAD@Z 1003f890 f i libucrtd:output.obj
 0001:0003e910       ??$?0ABV?$string_output_adapter@D@__crt_stdio_output@@AB_KABQBDABQAU__crt_locale_pointers@@ABQAD@?$standard_base@DV?$string_output_adapter@D@__crt_stdio_output@@@__crt_stdio_output@@IAE@ABV?$string_output_adapter@D@1@AB_KABQBDABQAU__crt_locale_pointers@@ABQAD@Z 1003f910 f i libucrtd:output.obj
 0001:0003e960       ??$?0ABV?$string_output_adapter@_W@__crt_stdio_output@@AB_KABQB_WABQAU__crt_locale_pointers@@ABQAD@?$format_validation_base@_WV?$string_output_adapter@_W@__crt_stdio_output@@@__crt_stdio_output@@IAE@ABV?$string_output_adapter@_W@1@AB_KABQB_WABQAU__crt_locale_pointers@@ABQAD@Z 1003f960 f i libucrtd:output.obj
 0001:0003e990       ??$?0ABV?$string_output_adapter@_W@__crt_stdio_output@@AB_KABQB_WABQAU__crt_locale_pointers@@ABQAD@?$positional_parameter_base@_WV?$string_output_adapter@_W@__crt_stdio_output@@@__crt_stdio_output@@IAE@ABV?$string_output_adapter@_W@1@AB_KABQB_WABQAU__crt_locale_pointers@@ABQAD@Z 1003f990 f i libucrtd:output.obj
 0001:0003ea10       ??$?0ABV?$string_output_adapter@_W@__crt_stdio_output@@AB_KABQB_WABQAU__crt_locale_pointers@@ABQAD@?$standard_base@_WV?$string_output_adapter@_W@__crt_stdio_output@@@__crt_stdio_output@@IAE@ABV?$string_output_adapter@_W@1@AB_KABQB_WABQAU__crt_locale_pointers@@ABQAD@Z 1003fa10 f i libucrtd:output.obj
 0001:0003ea60       ??$?RV<lambda_2293f24e3ce1ad6fe22ccfb9dec07671>@@AAV<lambda_2565fc715a641e539f44ad02d6823606>@@V<lambda_d3217f279b832965d9ca670dc2993570>@@@?$__crt_seh_guarded_call@H@@QAEH$$QAV<lambda_2293f24e3ce1ad6fe22ccfb9dec07671>@@AAV<lambda_2565fc715a641e539f44ad02d6823606>@@$$QAV<lambda_d3217f279b832965d9ca670dc2993570>@@@Z 1003fa60 f i libucrtd:output.obj
 0001:0003eaf0       ??$?RV<lambda_4d4ac866be0fa3c441830420fabdd2cb>@@AAV<lambda_63a10c2dc8dbb9e4dd1890be52af7c93>@@V<lambda_002af9fa0f8fe472b648c51882d4fc32>@@@?$__crt_seh_guarded_call@H@@QAEH$$QAV<lambda_4d4ac866be0fa3c441830420fabdd2cb>@@AAV<lambda_63a10c2dc8dbb9e4dd1890be52af7c93>@@$$QAV<lambda_002af9fa0f8fe472b648c51882d4fc32>@@@Z 1003faf0 f i libucrtd:output.obj
 0001:0003eb80       ??$?RV<lambda_5be909dfbae0a631386585770cd7b676>@@AAV<lambda_e516058a9c289d98c8ca9fea99247804>@@V<lambda_afe2e0cdc5e0ecf6f0d6f5e2f8985e38>@@@?$__crt_seh_guarded_call@H@@QAEH$$QAV<lambda_5be909dfbae0a631386585770cd7b676>@@AAV<lambda_e516058a9c289d98c8ca9fea99247804>@@$$QAV<lambda_afe2e0cdc5e0ecf6f0d6f5e2f8985e38>@@@Z 1003fb80 f i libucrtd:output.obj
 0001:0003ec10       ??$?RV<lambda_823d65812123d985753d53e2a8c25d20>@@AAV<lambda_0a97c9e57da7be065955385c79108ff2>@@V<lambda_4d2973f3ad2d226f00468307185dca1b>@@@?$__crt_seh_guarded_call@H@@QAEH$$QAV<lambda_823d65812123d985753d53e2a8c25d20>@@AAV<lambda_0a97c9e57da7be065955385c79108ff2>@@$$QAV<lambda_4d2973f3ad2d226f00468307185dca1b>@@@Z 1003fc10 f i libucrtd:output.obj
 0001:0003eca0       ??$?RV<lambda_ab9923ffb5d694ec0d78876dd103e44f>@@AAV<lambda_481dd5778c961fbcd3b60b650e9b9dc4>@@V<lambda_7923d86c9e3f319b415918ec4b39749c>@@@?$__crt_seh_guarded_call@H@@QAEH$$QAV<lambda_ab9923ffb5d694ec0d78876dd103e44f>@@AAV<lambda_481dd5778c961fbcd3b60b650e9b9dc4>@@$$QAV<lambda_7923d86c9e3f319b415918ec4b39749c>@@@Z 1003fca0 f i libucrtd:output.obj
 0001:0003ed30       ??$?RV<lambda_db08b09ef7aa9d4f8620ce68402612bc>@@AAV<lambda_4f2c1eaeead2a5fc776db5b62ea0fb9b>@@V<lambda_3ae262bc35d4ba6a3825c4f6bcaaf95c>@@@?$__crt_seh_guarded_call@H@@QAEH$$QAV<lambda_db08b09ef7aa9d4f8620ce68402612bc>@@AAV<lambda_4f2c1eaeead2a5fc776db5b62ea0fb9b>@@$$QAV<lambda_3ae262bc35d4ba6a3825c4f6bcaaf95c>@@@Z 1003fd30 f i libucrtd:output.obj
 0001:0003edc0       ??$__acrt_lock_stream_and_call@V<lambda_0a97c9e57da7be065955385c79108ff2>@@@@YAHQAU_iobuf@@$$QAV<lambda_0a97c9e57da7be065955385c79108ff2>@@@Z 1003fdc0 f i libucrtd:output.obj
 0001:0003ee00       ??$__acrt_lock_stream_and_call@V<lambda_2565fc715a641e539f44ad02d6823606>@@@@YAHQAU_iobuf@@$$QAV<lambda_2565fc715a641e539f44ad02d6823606>@@@Z 1003fe00 f i libucrtd:output.obj
 0001:0003ee40       ??$__acrt_lock_stream_and_call@V<lambda_481dd5778c961fbcd3b60b650e9b9dc4>@@@@YAHQAU_iobuf@@$$QAV<lambda_481dd5778c961fbcd3b60b650e9b9dc4>@@@Z 1003fe40 f i libucrtd:output.obj
 0001:0003ee80       ??$__acrt_lock_stream_and_call@V<lambda_4f2c1eaeead2a5fc776db5b62ea0fb9b>@@@@YAHQAU_iobuf@@$$QAV<lambda_4f2c1eaeead2a5fc776db5b62ea0fb9b>@@@Z 1003fe80 f i libucrtd:output.obj
 0001:0003eec0       ??$__acrt_lock_stream_and_call@V<lambda_63a10c2dc8dbb9e4dd1890be52af7c93>@@@@YAHQAU_iobuf@@$$QAV<lambda_63a10c2dc8dbb9e4dd1890be52af7c93>@@@Z 1003fec0 f i libucrtd:output.obj
 0001:0003ef00       ??$__acrt_lock_stream_and_call@V<lambda_e516058a9c289d98c8ca9fea99247804>@@@@YAHQAU_iobuf@@$$QAV<lambda_e516058a9c289d98c8ca9fea99247804>@@@Z 1003ff00 f i libucrtd:output.obj
 0001:0003ef40       ??$__crt_interlocked_read@J@@YAJPDJ@Z 1003ff40 f i libucrtd:output.obj
 0001:00041ce0       ??$count@D@formatting_buffer@__crt_stdio_output@@QBEIXZ 10042ce0 f i libucrtd:output.obj
 0001:00041d20       ??$data@D@formatting_buffer@__crt_stdio_output@@QAEPADXZ 10042d20 f i libucrtd:output.obj
 0001:00041d60       ??$data@_W@formatting_buffer@__crt_stdio_output@@QAEPA_WXZ 10042d60 f i libucrtd:output.obj
 0001:00041da0       ??$ensure_buffer_is_big_enough@D@formatting_buffer@__crt_stdio_output@@QAE_NI@Z 10042da0 f i libucrtd:output.obj
 0001:00041e80       ??$extract_argument_from_va_list@C_J@?$positional_parameter_base@DV?$stream_output_adapter@D@__crt_stdio_output@@@__crt_stdio_output@@IAE_NAA_J@Z 10042e80 f i libucrtd:output.obj
 0001:00041fc0       ??$extract_argument_from_va_list@C_J@?$positional_parameter_base@DV?$string_output_adapter@D@__crt_stdio_output@@@__crt_stdio_output@@IAE_NAA_J@Z 10042fc0 f i libucrtd:output.obj
 0001:00042100       ??$extract_argument_from_va_list@C_J@?$positional_parameter_base@_WV?$stream_output_adapter@_W@__crt_stdio_output@@@__crt_stdio_output@@IAE_NAA_J@Z 10043100 f i libucrtd:output.obj
 0001:00042240       ??$extract_argument_from_va_list@C_J@?$positional_parameter_base@_WV?$string_output_adapter@_W@__crt_stdio_output@@@__crt_stdio_output@@IAE_NAA_J@Z 10043240 f i libucrtd:output.obj
 0001:00042380       ??$extract_argument_from_va_list@C_J@?$standard_base@DV?$stream_output_adapter@D@__crt_stdio_output@@@__crt_stdio_output@@IAE_NAA_J@Z 10043380 f i libucrtd:output.obj
 0001:000423b0       ??$extract_argument_from_va_list@C_J@?$standard_base@DV?$string_output_adapter@D@__crt_stdio_output@@@__crt_stdio_output@@IAE_NAA_J@Z 100433b0 f i libucrtd:output.obj
 0001:000423e0       ??$extract_argument_from_va_list@C_J@?$standard_base@_WV?$stream_output_adapter@_W@__crt_stdio_output@@@__crt_stdio_output@@IAE_NAA_J@Z 100433e0 f i libucrtd:output.obj
 0001:00042410       ??$extract_argument_from_va_list@C_J@?$standard_base@_WV?$string_output_adapter@_W@__crt_stdio_output@@@__crt_stdio_output@@IAE_NAA_J@Z 10043410 f i libucrtd:output.obj
 0001:00042440       ??$extract_argument_from_va_list@E_J@?$positional_parameter_base@DV?$stream_output_adapter@D@__crt_stdio_output@@@__crt_stdio_output@@IAE_NAA_J@Z 10043440 f i libucrtd:output.obj
 0001:00042580       ??$extract_argument_from_va_list@E_J@?$positional_parameter_base@DV?$string_output_adapter@D@__crt_stdio_output@@@__crt_stdio_output@@IAE_NAA_J@Z 10043580 f i libucrtd:output.obj
 0001:000426c0       ??$extract_argument_from_va_list@E_J@?$positional_parameter_base@_WV?$stream_output_adapter@_W@__crt_stdio_output@@@__crt_stdio_output@@IAE_NAA_J@Z 100436c0 f i libucrtd:output.obj
 0001:00042800       ??$extract_argument_from_va_list@E_J@?$positional_parameter_base@_WV?$string_output_adapter@_W@__crt_stdio_output@@@__crt_stdio_output@@IAE_NAA_J@Z 10043800 f i libucrtd:output.obj
 0001:00042940       ??$extract_argument_from_va_list@E_J@?$standard_base@DV?$stream_output_adapter@D@__crt_stdio_output@@@__crt_stdio_output@@IAE_NAA_J@Z 10043940 f i libucrtd:output.obj
 0001:00042970       ??$extract_argument_from_va_list@E_J@?$standard_base@DV?$string_output_adapter@D@__crt_stdio_output@@@__crt_stdio_output@@IAE_NAA_J@Z 10043970 f i libucrtd:output.obj
 0001:000429a0       ??$extract_argument_from_va_list@E_J@?$standard_base@_WV?$stream_output_adapter@_W@__crt_stdio_output@@@__crt_stdio_output@@IAE_NAA_J@Z 100439a0 f i libucrtd:output.obj
 0001:000429d0       ??$extract_argument_from_va_list@E_J@?$standard_base@_WV?$string_output_adapter@_W@__crt_stdio_output@@@__crt_stdio_output@@IAE_NAA_J@Z 100439d0 f i libucrtd:output.obj
 0001:00042a00       ??$extract_argument_from_va_list@F_J@?$positional_parameter_base@DV?$stream_output_adapter@D@__crt_stdio_output@@@__crt_stdio_output@@IAE_NAA_J@Z 10043a00 f i libucrtd:output.obj
 0001:00042b30       ??$extract_argument_from_va_list@F_J@?$positional_parameter_base@DV?$string_output_adapter@D@__crt_stdio_output@@@__crt_stdio_output@@IAE_NAA_J@Z 10043b30 f i libucrtd:output.obj
 0001:00042c60       ??$extract_argument_from_va_list@F_J@?$positional_parameter_base@_WV?$stream_output_adapter@_W@__crt_stdio_output@@@__crt_stdio_output@@IAE_NAA_J@Z 10043c60 f i libucrtd:output.obj
 0001:00042d90       ??$extract_argument_from_va_list@F_J@?$positional_parameter_base@_WV?$string_output_adapter@_W@__crt_stdio_output@@@__crt_stdio_output@@IAE_NAA_J@Z 10043d90 f i libucrtd:output.obj
 0001:00042ec0       ??$extract_argument_from_va_list@F_J@?$standard_base@DV?$stream_output_adapter@D@__crt_stdio_output@@@__crt_stdio_output@@IAE_NAA_J@Z 10043ec0 f i libucrtd:output.obj
 0001:00042ef0       ??$extract_argument_from_va_list@F_J@?$standard_base@DV?$string_output_adapter@D@__crt_stdio_output@@@__crt_stdio_output@@IAE_NAA_J@Z 10043ef0 f i libucrtd:output.obj
 0001:00042f20       ??$extract_argument_from_va_list@F_J@?$standard_base@_WV?$stream_output_adapter@_W@__crt_stdio_output@@@__crt_stdio_output@@IAE_NAA_J@Z 10043f20 f i libucrtd:output.obj
 0001:00042f50       ??$extract_argument_from_va_list@F_J@?$standard_base@_WV?$string_output_adapter@_W@__crt_stdio_output@@@__crt_stdio_output@@IAE_NAA_J@Z 10043f50 f i libucrtd:output.obj
 0001:00042f80       ??$extract_argument_from_va_list@GD@?$positional_parameter_base@DV?$stream_output_adapter@D@__crt_stdio_output@@@__crt_stdio_output@@IAE_NAAD@Z 10043f80 f i libucrtd:output.obj
 0001:000430b0       ??$extract_argument_from_va_list@GD@?$positional_parameter_base@DV?$string_output_adapter@D@__crt_stdio_output@@@__crt_stdio_output@@IAE_NAAD@Z 100440b0 f i libucrtd:output.obj
 0001:000431e0       ??$extract_argument_from_va_list@GD@?$standard_base@DV?$stream_output_adapter@D@__crt_stdio_output@@@__crt_stdio_output@@IAE_NAAD@Z 100441e0 f i libucrtd:output.obj
 0001:00043210       ??$extract_argument_from_va_list@GD@?$standard_base@DV?$string_output_adapter@D@__crt_stdio_output@@@__crt_stdio_output@@IAE_NAAD@Z 10044210 f i libucrtd:output.obj
 0001:00043240       ??$extract_argument_from_va_list@G_J@?$positional_parameter_base@DV?$stream_output_adapter@D@__crt_stdio_output@@@__crt_stdio_output@@IAE_NAA_J@Z 10044240 f i libucrtd:output.obj
 0001:00043380       ??$extract_argument_from_va_list@G_J@?$positional_parameter_base@DV?$string_output_adapter@D@__crt_stdio_output@@@__crt_stdio_output@@IAE_NAA_J@Z 10044380 f i libucrtd:output.obj
 0001:000434c0       ??$extract_argument_from_va_list@G_J@?$positional_parameter_base@_WV?$stream_output_adapter@_W@__crt_stdio_output@@@__crt_stdio_output@@IAE_NAA_J@Z 100444c0 f i libucrtd:output.obj
 0001:00043600       ??$extract_argument_from_va_list@G_J@?$positional_parameter_base@_WV?$string_output_adapter@_W@__crt_stdio_output@@@__crt_stdio_output@@IAE_NAA_J@Z 10044600 f i libucrtd:output.obj
 0001:00043740       ??$extract_argument_from_va_list@G_J@?$standard_base@DV?$stream_output_adapter@D@__crt_stdio_output@@@__crt_stdio_output@@IAE_NAA_J@Z 10044740 f i libucrtd:output.obj
 0001:00043770       ??$extract_argument_from_va_list@G_J@?$standard_base@DV?$string_output_adapter@D@__crt_stdio_output@@@__crt_stdio_output@@IAE_NAA_J@Z 10044770 f i libucrtd:output.obj
 0001:000437a0       ??$extract_argument_from_va_list@G_J@?$standard_base@_WV?$stream_output_adapter@_W@__crt_stdio_output@@@__crt_stdio_output@@IAE_NAA_J@Z 100447a0 f i libucrtd:output.obj
 0001:000437d0       ??$extract_argument_from_va_list@G_J@?$standard_base@_WV?$string_output_adapter@_W@__crt_stdio_output@@@__crt_stdio_output@@IAE_NAA_J@Z 100447d0 f i libucrtd:output.obj
 0001:00043800       ??$extract_argument_from_va_list@H_J@?$positional_parameter_base@DV?$stream_output_adapter@D@__crt_stdio_output@@@__crt_stdio_output@@IAE_NAA_J@Z 10044800 f i libucrtd:output.obj
 0001:00043930       ??$extract_argument_from_va_list@H_J@?$positional_parameter_base@DV?$string_output_adapter@D@__crt_stdio_output@@@__crt_stdio_output@@IAE_NAA_J@Z 10044930 f i libucrtd:output.obj
 0001:00043a60       ??$extract_argument_from_va_list@H_J@?$positional_parameter_base@_WV?$stream_output_adapter@_W@__crt_stdio_output@@@__crt_stdio_output@@IAE_NAA_J@Z 10044a60 f i libucrtd:output.obj
 0001:00043b90       ??$extract_argument_from_va_list@H_J@?$positional_parameter_base@_WV?$string_output_adapter@_W@__crt_stdio_output@@@__crt_stdio_output@@IAE_NAA_J@Z 10044b90 f i libucrtd:output.obj
 0001:00043cc0       ??$extract_argument_from_va_list@H_J@?$standard_base@DV?$stream_output_adapter@D@__crt_stdio_output@@@__crt_stdio_output@@IAE_NAA_J@Z 10044cc0 f i libucrtd:output.obj
 0001:00043cf0       ??$extract_argument_from_va_list@H_J@?$standard_base@DV?$string_output_adapter@D@__crt_stdio_output@@@__crt_stdio_output@@IAE_NAA_J@Z 10044cf0 f i libucrtd:output.obj
 0001:00043d20       ??$extract_argument_from_va_list@H_J@?$standard_base@_WV?$stream_output_adapter@_W@__crt_stdio_output@@@__crt_stdio_output@@IAE_NAA_J@Z 10044d20 f i libucrtd:output.obj
 0001:00043d50       ??$extract_argument_from_va_list@H_J@?$standard_base@_WV?$string_output_adapter@_W@__crt_stdio_output@@@__crt_stdio_output@@IAE_NAA_J@Z 10044d50 f i libucrtd:output.obj
 0001:00043d80       ??$extract_argument_from_va_list@I_J@?$positional_parameter_base@DV?$stream_output_adapter@D@__crt_stdio_output@@@__crt_stdio_output@@IAE_NAA_J@Z 10044d80 f i libucrtd:output.obj
 0001:00043eb0       ??$extract_argument_from_va_list@I_J@?$positional_parameter_base@DV?$string_output_adapter@D@__crt_stdio_output@@@__crt_stdio_output@@IAE_NAA_J@Z 10044eb0 f i libucrtd:output.obj
 0001:00043fe0       ??$extract_argument_from_va_list@I_J@?$positional_parameter_base@_WV?$stream_output_adapter@_W@__crt_stdio_output@@@__crt_stdio_output@@IAE_NAA_J@Z 10044fe0 f i libucrtd:output.obj
 0001:00044110       ??$extract_argument_from_va_list@I_J@?$positional_parameter_base@_WV?$string_output_adapter@_W@__crt_stdio_output@@@__crt_stdio_output@@IAE_NAA_J@Z 10045110 f i libucrtd:output.obj
 0001:00044240       ??$extract_argument_from_va_list@I_J@?$standard_base@DV?$stream_output_adapter@D@__crt_stdio_output@@@__crt_stdio_output@@IAE_NAA_J@Z 10045240 f i libucrtd:output.obj
 0001:00044270       ??$extract_argument_from_va_list@I_J@?$standard_base@DV?$string_output_adapter@D@__crt_stdio_output@@@__crt_stdio_output@@IAE_NAA_J@Z 10045270 f i libucrtd:output.obj
 0001:000442a0       ??$extract_argument_from_va_list@I_J@?$standard_base@_WV?$stream_output_adapter@_W@__crt_stdio_output@@@__crt_stdio_output@@IAE_NAA_J@Z 100452a0 f i libucrtd:output.obj
 0001:000442d0       ??$extract_argument_from_va_list@I_J@?$standard_base@_WV?$string_output_adapter@_W@__crt_stdio_output@@@__crt_stdio_output@@IAE_NAA_J@Z 100452d0 f i libucrtd:output.obj
 0001:00044300       ??$extract_argument_from_va_list@PADPAD@?$positional_parameter_base@DV?$stream_output_adapter@D@__crt_stdio_output@@@__crt_stdio_output@@IAE_NAAPAD@Z 10045300 f i libucrtd:output.obj
 0001:00044430       ??$extract_argument_from_va_list@PADPAD@?$positional_parameter_base@DV?$string_output_adapter@D@__crt_stdio_output@@@__crt_stdio_output@@IAE_NAAPAD@Z 10045430 f i libucrtd:output.obj
 0001:00044560       ??$extract_argument_from_va_list@PADPAD@?$positional_parameter_base@_WV?$stream_output_adapter@_W@__crt_stdio_output@@@__crt_stdio_output@@IAE_NAAPAD@Z 10045560 f i libucrtd:output.obj
 0001:00044690       ??$extract_argument_from_va_list@PADPAD@?$positional_parameter_base@_WV?$string_output_adapter@_W@__crt_stdio_output@@@__crt_stdio_output@@IAE_NAAPAD@Z 10045690 f i libucrtd:output.obj
 0001:000447c0       ??$extract_argument_from_va_list@PADPAD@?$standard_base@DV?$stream_output_adapter@D@__crt_stdio_output@@@__crt_stdio_output@@IAE_NAAPAD@Z 100457c0 f i libucrtd:output.obj
 0001:000447f0       ??$extract_argument_from_va_list@PADPAD@?$standard_base@DV?$string_output_adapter@D@__crt_stdio_output@@@__crt_stdio_output@@IAE_NAAPAD@Z 100457f0 f i libucrtd:output.obj
 0001:00044820       ??$extract_argument_from_va_list@PADPAD@?$standard_base@_WV?$stream_output_adapter@_W@__crt_stdio_output@@@__crt_stdio_output@@IAE_NAAPAD@Z 10045820 f i libucrtd:output.obj
 0001:00044850       ??$extract_argument_from_va_list@PADPAD@?$standard_base@_WV?$string_output_adapter@_W@__crt_stdio_output@@@__crt_stdio_output@@IAE_NAAPAD@Z 10045850 f i libucrtd:output.obj
 0001:00044880       ??$extract_argument_from_va_list@PAUansi_string@?1??type_case_Z@?$output_processor@DV?$stream_output_adapter@D@__crt_stdio_output@@V?$format_validation_base@DV?$stream_output_adapter@D@__crt_stdio_output@@@2@@__crt_stdio_output@@AAE_NXZ@PAU1?1??234@AAE_NXZ@@?$standard_base@DV?$stream_output_adapter@D@__crt_stdio_output@@@__crt_stdio_output@@IAE_NAAPAUansi_string@?1??type_case_Z@?$output_processor@DV?$stream_output_adapter@D@__crt_stdio_output@@V?$format_validation_base@DV?$stream_output_adapter@D@__crt_stdio_output@@@2@@1@AAE_NXZ@@Z 10045880 f i libucrtd:output.obj
 0001:000448b0       ??$extract_argument_from_va_list@PAUansi_string@?1??type_case_Z@?$output_processor@DV?$stream_output_adapter@D@__crt_stdio_output@@V?$positional_parameter_base@DV?$stream_output_adapter@D@__crt_stdio_output@@@2@@__crt_stdio_output@@AAE_NXZ@PAU1?1??234@AAE_NXZ@@?$positional_parameter_base@DV?$stream_output_adapter@D@__crt_stdio_output@@@__crt_stdio_output@@IAE_NAAPAUansi_string@?1??type_case_Z@?$output_processor@DV?$stream_output_adapter@D@__crt_stdio_output@@V?$positional_parameter_base@DV?$stream_output_adapter@D@__crt_stdio_output@@@2@@1@AAE_NXZ@@Z 100458b0 f i libucrtd:output.obj
 0001:000449e0       ??$extract_argument_from_va_list@PAUansi_string@?1??type_case_Z@?$output_processor@DV?$stream_output_adapter@D@__crt_stdio_output@@V?$positional_parameter_base@DV?$stream_output_adapter@D@__crt_stdio_output@@@2@@__crt_stdio_output@@AAE_NXZ@PAU1?1??234@AAE_NXZ@@?$standard_base@DV?$stream_output_adapter@D@__crt_stdio_output@@@__crt_stdio_output@@IAE_NAAPAUansi_string@?1??type_case_Z@?$output_processor@DV?$stream_output_adapter@D@__crt_stdio_output@@V?$positional_parameter_base@DV?$stream_output_adapter@D@__crt_stdio_output@@@2@@1@AAE_NXZ@@Z 100459e0 f i libucrtd:output.obj
 0001:00044a10       ??$extract_argument_from_va_list@PAUansi_string@?1??type_case_Z@?$output_processor@DV?$stream_output_adapter@D@__crt_stdio_output@@V?$standard_base@DV?$stream_output_adapter@D@__crt_stdio_output@@@2@@__crt_stdio_output@@AAE_NXZ@PAU1?1??234@AAE_NXZ@@?$standard_base@DV?$stream_output_adapter@D@__crt_stdio_output@@@__crt_stdio_output@@IAE_NAAPAUansi_string@?1??type_case_Z@?$output_processor@DV?$stream_output_adapter@D@__crt_stdio_output@@V?$standard_base@DV?$stream_output_adapter@D@__crt_stdio_output@@@2@@1@AAE_NXZ@@Z 10045a10 f i libucrtd:output.obj
 0001:00044a40       ??$extract_argument_from_va_list@PAUansi_string@?1??type_case_Z@?$output_processor@DV?$string_output_adapter@D@__crt_stdio_output@@V?$format_validation_base@DV?$string_output_adapter@D@__crt_stdio_output@@@2@@__crt_stdio_output@@AAE_NXZ@PAU1?1??234@AAE_NXZ@@?$standard_base@DV?$string_output_adapter@D@__crt_stdio_output@@@__crt_stdio_output@@IAE_NAAPAUansi_string@?1??type_case_Z@?$output_processor@DV?$string_output_adapter@D@__crt_stdio_output@@V?$format_validation_base@DV?$string_output_adapter@D@__crt_stdio_output@@@2@@1@AAE_NXZ@@Z 10045a40 f i libucrtd:output.obj
 0001:00044a70       ??$extract_argument_from_va_list@PAUansi_string@?1??type_case_Z@?$output_processor@DV?$string_output_adapter@D@__crt_stdio_output@@V?$positional_parameter_base@DV?$string_output_adapter@D@__crt_stdio_output@@@2@@__crt_stdio_output@@AAE_NXZ@PAU1?1??234@AAE_NXZ@@?$positional_parameter_base@DV?$string_output_adapter@D@__crt_stdio_output@@@__crt_stdio_output@@IAE_NAAPAUansi_string@?1??type_case_Z@?$output_processor@DV?$string_output_adapter@D@__crt_stdio_output@@V?$positional_parameter_base@DV?$string_output_adapter@D@__crt_stdio_output@@@2@@1@AAE_NXZ@@Z 10045a70 f i libucrtd:output.obj
 0001:00044ba0       ??$extract_argument_from_va_list@PAUansi_string@?1??type_case_Z@?$output_processor@DV?$string_output_adapter@D@__crt_stdio_output@@V?$positional_parameter_base@DV?$string_output_adapter@D@__crt_stdio_output@@@2@@__crt_stdio_output@@AAE_NXZ@PAU1?1??234@AAE_NXZ@@?$standard_base@DV?$string_output_adapter@D@__crt_stdio_output@@@__crt_stdio_output@@IAE_NAAPAUansi_string@?1??type_case_Z@?$output_processor@DV?$string_output_adapter@D@__crt_stdio_output@@V?$positional_parameter_base@DV?$string_output_adapter@D@__crt_stdio_output@@@2@@1@AAE_NXZ@@Z 10045ba0 f i libucrtd:output.obj
 0001:00044bd0       ??$extract_argument_from_va_list@PAUansi_string@?1??type_case_Z@?$output_processor@DV?$string_output_adapter@D@__crt_stdio_output@@V?$standard_base@DV?$string_output_adapter@D@__crt_stdio_output@@@2@@__crt_stdio_output@@AAE_NXZ@PAU1?1??234@AAE_NXZ@@?$standard_base@DV?$string_output_adapter@D@__crt_stdio_output@@@__crt_stdio_output@@IAE_NAAPAUansi_string@?1??type_case_Z@?$output_processor@DV?$string_output_adapter@D@__crt_stdio_output@@V?$standard_base@DV?$string_output_adapter@D@__crt_stdio_output@@@2@@1@AAE_NXZ@@Z 10045bd0 f i libucrtd:output.obj
 0001:00044c00       ??$extract_argument_from_va_list@PAUansi_string@?1??type_case_Z@?$output_processor@_WV?$stream_output_adapter@_W@__crt_stdio_output@@V?$format_validation_base@_WV?$stream_output_adapter@_W@__crt_stdio_output@@@2@@__crt_stdio_output@@AAE_NXZ@PAU1?1??234@AAE_NXZ@@?$standard_base@_WV?$stream_output_adapter@_W@__crt_stdio_output@@@__crt_stdio_output@@IAE_NAAPAUansi_string@?1??type_case_Z@?$output_processor@_WV?$stream_output_adapter@_W@__crt_stdio_output@@V?$format_validation_base@_WV?$stream_output_adapter@_W@__crt_stdio_output@@@2@@1@AAE_NXZ@@Z 10045c00 f i libucrtd:output.obj
 0001:00044c30       ??$extract_argument_from_va_list@PAUansi_string@?1??type_case_Z@?$output_processor@_WV?$stream_output_adapter@_W@__crt_stdio_output@@V?$positional_parameter_base@_WV?$stream_output_adapter@_W@__crt_stdio_output@@@2@@__crt_stdio_output@@AAE_NXZ@PAU1?1??234@AAE_NXZ@@?$positional_parameter_base@_WV?$stream_output_adapter@_W@__crt_stdio_output@@@__crt_stdio_output@@IAE_NAAPAUansi_string@?1??type_case_Z@?$output_processor@_WV?$stream_output_adapter@_W@__crt_stdio_output@@V?$positional_parameter_base@_WV?$stream_output_adapter@_W@__crt_stdio_output@@@2@@1@AAE_NXZ@@Z 10045c30 f i libucrtd:output.obj
 0001:00044d60       ??$extract_argument_from_va_list@PAUansi_string@?1??type_case_Z@?$output_processor@_WV?$stream_output_adapter@_W@__crt_stdio_output@@V?$positional_parameter_base@_WV?$stream_output_adapter@_W@__crt_stdio_output@@@2@@__crt_stdio_output@@AAE_NXZ@PAU1?1??234@AAE_NXZ@@?$standard_base@_WV?$stream_output_adapter@_W@__crt_stdio_output@@@__crt_stdio_output@@IAE_NAAPAUansi_string@?1??type_case_Z@?$output_processor@_WV?$stream_output_adapter@_W@__crt_stdio_output@@V?$positional_parameter_base@_WV?$stream_output_adapter@_W@__crt_stdio_output@@@2@@1@AAE_NXZ@@Z 10045d60 f i libucrtd:output.obj
 0001:00044d90       ??$extract_argument_from_va_list@PAUansi_string@?1??type_case_Z@?$output_processor@_WV?$stream_output_adapter@_W@__crt_stdio_output@@V?$standard_base@_WV?$stream_output_adapter@_W@__crt_stdio_output@@@2@@__crt_stdio_output@@AAE_NXZ@PAU1?1??234@AAE_NXZ@@?$standard_base@_WV?$stream_output_adapter@_W@__crt_stdio_output@@@__crt_stdio_output@@IAE_NAAPAUansi_string@?1??type_case_Z@?$output_processor@_WV?$stream_output_adapter@_W@__crt_stdio_output@@V?$standard_base@_WV?$stream_output_adapter@_W@__crt_stdio_output@@@2@@1@AAE_NXZ@@Z 10045d90 f i libucrtd:output.obj
 0001:00044dc0       ??$extract_argument_from_va_list@PAUansi_string@?1??type_case_Z@?$output_processor@_WV?$string_output_adapter@_W@__crt_stdio_output@@V?$format_validation_base@_WV?$string_output_adapter@_W@__crt_stdio_output@@@2@@__crt_stdio_output@@AAE_NXZ@PAU1?1??234@AAE_NXZ@@?$standard_base@_WV?$string_output_adapter@_W@__crt_stdio_output@@@__crt_stdio_output@@IAE_NAAPAUansi_string@?1??type_case_Z@?$output_processor@_WV?$string_output_adapter@_W@__crt_stdio_output@@V?$format_validation_base@_WV?$string_output_adapter@_W@__crt_stdio_output@@@2@@1@AAE_NXZ@@Z 10045dc0 f i libucrtd:output.obj
 0001:00044df0       ??$extract_argument_from_va_list@PAUansi_string@?1??type_case_Z@?$output_processor@_WV?$string_output_adapter@_W@__crt_stdio_output@@V?$positional_parameter_base@_WV?$string_output_adapter@_W@__crt_stdio_output@@@2@@__crt_stdio_output@@AAE_NXZ@PAU1?1??234@AAE_NXZ@@?$positional_parameter_base@_WV?$string_output_adapter@_W@__crt_stdio_output@@@__crt_stdio_output@@IAE_NAAPAUansi_string@?1??type_case_Z@?$output_processor@_WV?$string_output_adapter@_W@__crt_stdio_output@@V?$positional_parameter_base@_WV?$string_output_adapter@_W@__crt_stdio_output@@@2@@1@AAE_NXZ@@Z 10045df0 f i libucrtd:output.obj
 0001:00044f20       ??$extract_argument_from_va_list@PAUansi_string@?1??type_case_Z@?$output_processor@_WV?$string_output_adapter@_W@__crt_stdio_output@@V?$positional_parameter_base@_WV?$string_output_adapter@_W@__crt_stdio_output@@@2@@__crt_stdio_output@@AAE_NXZ@PAU1?1??234@AAE_NXZ@@?$standard_base@_WV?$string_output_adapter@_W@__crt_stdio_output@@@__crt_stdio_output@@IAE_NAAPAUansi_string@?1??type_case_Z@?$output_processor@_WV?$string_output_adapter@_W@__crt_stdio_output@@V?$positional_parameter_base@_WV?$string_output_adapter@_W@__crt_stdio_output@@@2@@1@AAE_NXZ@@Z 10045f20 f i libucrtd:output.obj
 0001:00044f50       ??$extract_argument_from_va_list@PAUansi_string@?1??type_case_Z@?$output_processor@_WV?$string_output_adapter@_W@__crt_stdio_output@@V?$standard_base@_WV?$string_output_adapter@_W@__crt_stdio_output@@@2@@__crt_stdio_output@@AAE_NXZ@PAU1?1??234@AAE_NXZ@@?$standard_base@_WV?$string_output_adapter@_W@__crt_stdio_output@@@__crt_stdio_output@@IAE_NAAPAUansi_string@?1??type_case_Z@?$output_processor@_WV?$string_output_adapter@_W@__crt_stdio_output@@V?$standard_base@_WV?$string_output_adapter@_W@__crt_stdio_output@@@2@@1@AAE_NXZ@@Z 10045f50 f i libucrtd:output.obj
 0001:00044f80       ??$extract_argument_from_va_list@PAXPAX@?$positional_parameter_base@DV?$stream_output_adapter@D@__crt_stdio_output@@@__crt_stdio_output@@IAE_NAAPAX@Z 10045f80 f i libucrtd:output.obj
 0001:000450b0       ??$extract_argument_from_va_list@PAXPAX@?$positional_parameter_base@DV?$string_output_adapter@D@__crt_stdio_output@@@__crt_stdio_output@@IAE_NAAPAX@Z 100460b0 f i libucrtd:output.obj
 0001:000451e0       ??$extract_argument_from_va_list@PAXPAX@?$positional_parameter_base@_WV?$stream_output_adapter@_W@__crt_stdio_output@@@__crt_stdio_output@@IAE_NAAPAX@Z 100461e0 f i libucrtd:output.obj
 0001:00045310       ??$extract_argument_from_va_list@PAXPAX@?$positional_parameter_base@_WV?$string_output_adapter@_W@__crt_stdio_output@@@__crt_stdio_output@@IAE_NAAPAX@Z 10046310 f i libucrtd:output.obj
 0001:00045440       ??$extract_argument_from_va_list@PAXPAX@?$standard_base@DV?$stream_output_adapter@D@__crt_stdio_output@@@__crt_stdio_output@@IAE_NAAPAX@Z 10046440 f i libucrtd:output.obj
 0001:00045470       ??$extract_argument_from_va_list@PAXPAX@?$standard_base@DV?$string_output_adapter@D@__crt_stdio_output@@@__crt_stdio_output@@IAE_NAAPAX@Z 10046470 f i libucrtd:output.obj
 0001:000454a0       ??$extract_argument_from_va_list@PAXPAX@?$standard_base@_WV?$stream_output_adapter@_W@__crt_stdio_output@@@__crt_stdio_output@@IAE_NAAPAX@Z 100464a0 f i libucrtd:output.obj
 0001:000454d0       ??$extract_argument_from_va_list@PAXPAX@?$standard_base@_WV?$string_output_adapter@_W@__crt_stdio_output@@@__crt_stdio_output@@IAE_NAAPAX@Z 100464d0 f i libucrtd:output.obj
 0001:00045500       ??$extract_argument_from_va_list@U_CRT_DOUBLE@@U1@@?$positional_parameter_base@DV?$stream_output_adapter@D@__crt_stdio_output@@@__crt_stdio_output@@IAE_NAAU_CRT_DOUBLE@@@Z 10046500 f i libucrtd:output.obj
 0001:00045660       ??$extract_argument_from_va_list@U_CRT_DOUBLE@@U1@@?$positional_parameter_base@DV?$string_output_adapter@D@__crt_stdio_output@@@__crt_stdio_output@@IAE_NAAU_CRT_DOUBLE@@@Z 10046660 f i libucrtd:output.obj
 0001:000457c0       ??$extract_argument_from_va_list@U_CRT_DOUBLE@@U1@@?$positional_parameter_base@_WV?$stream_output_adapter@_W@__crt_stdio_output@@@__crt_stdio_output@@IAE_NAAU_CRT_DOUBLE@@@Z 100467c0 f i libucrtd:output.obj
 0001:00045920       ??$extract_argument_from_va_list@U_CRT_DOUBLE@@U1@@?$positional_parameter_base@_WV?$string_output_adapter@_W@__crt_stdio_output@@@__crt_stdio_output@@IAE_NAAU_CRT_DOUBLE@@@Z 10046920 f i libucrtd:output.obj
 0001:00045a80       ??$extract_argument_from_va_list@U_CRT_DOUBLE@@U1@@?$standard_base@DV?$stream_output_adapter@D@__crt_stdio_output@@@__crt_stdio_output@@IAE_NAAU_CRT_DOUBLE@@@Z 10046a80 f i libucrtd:output.obj
 0001:00045ad0       ??$extract_argument_from_va_list@U_CRT_DOUBLE@@U1@@?$standard_base@DV?$string_output_adapter@D@__crt_stdio_output@@@__crt_stdio_output@@IAE_NAAU_CRT_DOUBLE@@@Z 10046ad0 f i libucrtd:output.obj
 0001:00045b20       ??$extract_argument_from_va_list@U_CRT_DOUBLE@@U1@@?$standard_base@_WV?$stream_output_adapter@_W@__crt_stdio_output@@@__crt_stdio_output@@IAE_NAAU_CRT_DOUBLE@@@Z 10046b20 f i libucrtd:output.obj
 0001:00045b70       ??$extract_argument_from_va_list@U_CRT_DOUBLE@@U1@@?$standard_base@_WV?$string_output_adapter@_W@__crt_stdio_output@@@__crt_stdio_output@@IAE_NAAU_CRT_DOUBLE@@@Z 10046b70 f i libucrtd:output.obj
 0001:00045bc0       ??$extract_argument_from_va_list@_J_J@?$positional_parameter_base@DV?$stream_output_adapter@D@__crt_stdio_output@@@__crt_stdio_output@@IAE_NAA_J@Z 10046bc0 f i libucrtd:output.obj
 0001:00045cf0       ??$extract_argument_from_va_list@_J_J@?$positional_parameter_base@DV?$string_output_adapter@D@__crt_stdio_output@@@__crt_stdio_output@@IAE_NAA_J@Z 10046cf0 f i libucrtd:output.obj
 0001:00045e20       ??$extract_argument_from_va_list@_J_J@?$positional_parameter_base@_WV?$stream_output_adapter@_W@__crt_stdio_output@@@__crt_stdio_output@@IAE_NAA_J@Z 10046e20 f i libucrtd:output.obj
 0001:00045f50       ??$extract_argument_from_va_list@_J_J@?$positional_parameter_base@_WV?$string_output_adapter@_W@__crt_stdio_output@@@__crt_stdio_output@@IAE_NAA_J@Z 10046f50 f i libucrtd:output.obj
 0001:00046080       ??$extract_argument_from_va_list@_J_J@?$standard_base@DV?$stream_output_adapter@D@__crt_stdio_output@@@__crt_stdio_output@@IAE_NAA_J@Z 10047080 f i libucrtd:output.obj
 0001:000460b0       ??$extract_argument_from_va_list@_J_J@?$standard_base@DV?$string_output_adapter@D@__crt_stdio_output@@@__crt_stdio_output@@IAE_NAA_J@Z 100470b0 f i libucrtd:output.obj
 0001:000460e0       ??$extract_argument_from_va_list@_J_J@?$standard_base@_WV?$stream_output_adapter@_W@__crt_stdio_output@@@__crt_stdio_output@@IAE_NAA_J@Z 100470e0 f i libucrtd:output.obj
 0001:00046110       ??$extract_argument_from_va_list@_J_J@?$standard_base@_WV?$string_output_adapter@_W@__crt_stdio_output@@@__crt_stdio_output@@IAE_NAA_J@Z 10047110 f i libucrtd:output.obj
 0001:00046140       ??$extract_argument_from_va_list@_K_J@?$positional_parameter_base@DV?$stream_output_adapter@D@__crt_stdio_output@@@__crt_stdio_output@@IAE_NAA_J@Z 10047140 f i libucrtd:output.obj
 0001:00046270       ??$extract_argument_from_va_list@_K_J@?$positional_parameter_base@DV?$string_output_adapter@D@__crt_stdio_output@@@__crt_stdio_output@@IAE_NAA_J@Z 10047270 f i libucrtd:output.obj
 0001:000463a0       ??$extract_argument_from_va_list@_K_J@?$positional_parameter_base@_WV?$stream_output_adapter@_W@__crt_stdio_output@@@__crt_stdio_output@@IAE_NAA_J@Z 100473a0 f i libucrtd:output.obj
 0001:000464d0       ??$extract_argument_from_va_list@_K_J@?$positional_parameter_base@_WV?$string_output_adapter@_W@__crt_stdio_output@@@__crt_stdio_output@@IAE_NAA_J@Z 100474d0 f i libucrtd:output.obj
 0001:00046600       ??$extract_argument_from_va_list@_K_J@?$standard_base@DV?$stream_output_adapter@D@__crt_stdio_output@@@__crt_stdio_output@@IAE_NAA_J@Z 10047600 f i libucrtd:output.obj
 0001:00046630       ??$extract_argument_from_va_list@_K_J@?$standard_base@DV?$string_output_adapter@D@__crt_stdio_output@@@__crt_stdio_output@@IAE_NAA_J@Z 10047630 f i libucrtd:output.obj
 0001:00046660       ??$extract_argument_from_va_list@_K_J@?$standard_base@_WV?$stream_output_adapter@_W@__crt_stdio_output@@@__crt_stdio_output@@IAE_NAA_J@Z 10047660 f i libucrtd:output.obj
 0001:00046690       ??$extract_argument_from_va_list@_K_J@?$standard_base@_WV?$string_output_adapter@_W@__crt_stdio_output@@@__crt_stdio_output@@IAE_NAA_J@Z 10047690 f i libucrtd:output.obj
 0001:000466c0       ??$extract_argument_from_va_list@_W_W@?$positional_parameter_base@DV?$stream_output_adapter@D@__crt_stdio_output@@@__crt_stdio_output@@IAE_NAA_W@Z 100476c0 f i libucrtd:output.obj
 0001:000467f0       ??$extract_argument_from_va_list@_W_W@?$positional_parameter_base@DV?$string_output_adapter@D@__crt_stdio_output@@@__crt_stdio_output@@IAE_NAA_W@Z 100477f0 f i libucrtd:output.obj
 0001:00046920       ??$extract_argument_from_va_list@_W_W@?$positional_parameter_base@_WV?$stream_output_adapter@_W@__crt_stdio_output@@@__crt_stdio_output@@IAE_NAA_W@Z 10047920 f i libucrtd:output.obj
 0001:00046a50       ??$extract_argument_from_va_list@_W_W@?$positional_parameter_base@_WV?$string_output_adapter@_W@__crt_stdio_output@@@__crt_stdio_output@@IAE_NAA_W@Z 10047a50 f i libucrtd:output.obj
 0001:00046b80       ??$extract_argument_from_va_list@_W_W@?$standard_base@DV?$stream_output_adapter@D@__crt_stdio_output@@@__crt_stdio_output@@IAE_NAA_W@Z 10047b80 f i libucrtd:output.obj
 0001:00046bb0       ??$extract_argument_from_va_list@_W_W@?$standard_base@DV?$string_output_adapter@D@__crt_stdio_output@@@__crt_stdio_output@@IAE_NAA_W@Z 10047bb0 f i libucrtd:output.obj
 0001:00046be0       ??$extract_argument_from_va_list@_W_W@?$standard_base@_WV?$stream_output_adapter@_W@__crt_stdio_output@@@__crt_stdio_output@@IAE_NAA_W@Z 10047be0 f i libucrtd:output.obj
 0001:00046c10       ??$extract_argument_from_va_list@_W_W@?$standard_base@_WV?$string_output_adapter@_W@__crt_stdio_output@@@__crt_stdio_output@@IAE_NAA_W@Z 10047c10 f i libucrtd:output.obj
 0001:00046c40       ??$get_parameter_type@D@?$positional_parameter_base@DV?$stream_output_adapter@D@__crt_stdio_output@@@__crt_stdio_output@@CA?AW4parameter_type@01@PAD@Z 10047c40 f i libucrtd:output.obj
 0001:00046c50       ??$get_parameter_type@D@?$positional_parameter_base@DV?$string_output_adapter@D@__crt_stdio_output@@@__crt_stdio_output@@CA?AW4parameter_type@01@PAD@Z 10047c50 f i libucrtd:output.obj
 0001:00046c60       ??$get_parameter_type@D@?$positional_parameter_base@_WV?$stream_output_adapter@_W@__crt_stdio_output@@@__crt_stdio_output@@CA?AW4parameter_type@01@PAD@Z 10047c60 f i libucrtd:output.obj
 0001:00046c70       ??$get_parameter_type@D@?$positional_parameter_base@_WV?$string_output_adapter@_W@__crt_stdio_output@@@__crt_stdio_output@@CA?AW4parameter_type@01@PAD@Z 10047c70 f i libucrtd:output.obj
 0001:00046c80       ??$get_parameter_type@Uansi_string@?1??type_case_Z@?$output_processor@DV?$stream_output_adapter@D@__crt_stdio_output@@V?$positional_parameter_base@DV?$stream_output_adapter@D@__crt_stdio_output@@@2@@__crt_stdio_output@@AAE_NXZ@@?$positional_parameter_base@DV?$stream_output_adapter@D@__crt_stdio_output@@@__crt_stdio_output@@CA?AW4parameter_type@01@PAUansi_string@?1??type_case_Z@?$output_processor@DV?$stream_output_adapter@D@__crt_stdio_output@@V?$positional_parameter_base@DV?$stream_output_adapter@D@__crt_stdio_output@@@2@@1@AAE_NXZ@@Z 10047c80 f i libucrtd:output.obj
 0001:00046c90       ??$get_parameter_type@Uansi_string@?1??type_case_Z@?$output_processor@DV?$string_output_adapter@D@__crt_stdio_output@@V?$positional_parameter_base@DV?$string_output_adapter@D@__crt_stdio_output@@@2@@__crt_stdio_output@@AAE_NXZ@@?$positional_parameter_base@DV?$string_output_adapter@D@__crt_stdio_output@@@__crt_stdio_output@@CA?AW4parameter_type@01@PAUansi_string@?1??type_case_Z@?$output_processor@DV?$string_output_adapter@D@__crt_stdio_output@@V?$positional_parameter_base@DV?$string_output_adapter@D@__crt_stdio_output@@@2@@1@AAE_NXZ@@Z 10047c90 f i libucrtd:output.obj
 0001:00046ca0       ??$get_parameter_type@Uansi_string@?1??type_case_Z@?$output_processor@_WV?$stream_output_adapter@_W@__crt_stdio_output@@V?$positional_parameter_base@_WV?$stream_output_adapter@_W@__crt_stdio_output@@@2@@__crt_stdio_output@@AAE_NXZ@@?$positional_parameter_base@_WV?$stream_output_adapter@_W@__crt_stdio_output@@@__crt_stdio_output@@CA?AW4parameter_type@01@PAUansi_string@?1??type_case_Z@?$output_processor@_WV?$stream_output_adapter@_W@__crt_stdio_output@@V?$positional_parameter_base@_WV?$stream_output_adapter@_W@__crt_stdio_output@@@2@@1@AAE_NXZ@@Z 10047ca0 f i libucrtd:output.obj
 0001:00046cb0       ??$get_parameter_type@Uansi_string@?1??type_case_Z@?$output_processor@_WV?$string_output_adapter@_W@__crt_stdio_output@@V?$positional_parameter_base@_WV?$string_output_adapter@_W@__crt_stdio_output@@@2@@__crt_stdio_output@@AAE_NXZ@@?$positional_parameter_base@_WV?$string_output_adapter@_W@__crt_stdio_output@@@__crt_stdio_output@@CA?AW4parameter_type@01@PAUansi_string@?1??type_case_Z@?$output_processor@_WV?$string_output_adapter@_W@__crt_stdio_output@@V?$positional_parameter_base@_WV?$string_output_adapter@_W@__crt_stdio_output@@@2@@1@AAE_NXZ@@Z 10047cb0 f i libucrtd:output.obj
 0001:00046cc0       ??$get_parameter_type@X@?$positional_parameter_base@DV?$stream_output_adapter@D@__crt_stdio_output@@@__crt_stdio_output@@CA?AW4parameter_type@01@PAX@Z 10047cc0 f i libucrtd:output.obj
 0001:00046cd0       ??$get_parameter_type@X@?$positional_parameter_base@DV?$string_output_adapter@D@__crt_stdio_output@@@__crt_stdio_output@@CA?AW4parameter_type@01@PAX@Z 10047cd0 f i libucrtd:output.obj
 0001:00046ce0       ??$get_parameter_type@X@?$positional_parameter_base@_WV?$stream_output_adapter@_W@__crt_stdio_output@@@__crt_stdio_output@@CA?AW4parameter_type@01@PAX@Z 10047ce0 f i libucrtd:output.obj
 0001:00046cf0       ??$get_parameter_type@X@?$positional_parameter_base@_WV?$string_output_adapter@_W@__crt_stdio_output@@@__crt_stdio_output@@CA?AW4parameter_type@01@PAX@Z 10047cf0 f i libucrtd:output.obj
 0001:00046d00       ??$is_character_specifier@D@?$positional_parameter_base@DV?$stream_output_adapter@D@__crt_stdio_output@@@__crt_stdio_output@@CA_ND@Z 10047d00 f i libucrtd:output.obj
 0001:00046d30       ??$is_character_specifier@D@?$positional_parameter_base@DV?$string_output_adapter@D@__crt_stdio_output@@@__crt_stdio_output@@CA_ND@Z 10047d30 f i libucrtd:output.obj
 0001:00046d60       ??$is_character_specifier@_W@?$positional_parameter_base@_WV?$stream_output_adapter@_W@__crt_stdio_output@@@__crt_stdio_output@@CA_N_W@Z 10047d60 f i libucrtd:output.obj
 0001:00046d90       ??$is_character_specifier@_W@?$positional_parameter_base@_WV?$string_output_adapter@_W@__crt_stdio_output@@@__crt_stdio_output@@CA_N_W@Z 10047d90 f i libucrtd:output.obj
 0001:00046dc0       ??$is_integral_specifier@D@?$positional_parameter_base@DV?$stream_output_adapter@D@__crt_stdio_output@@@__crt_stdio_output@@CA_ND@Z 10047dc0 f i libucrtd:output.obj
 0001:00046e20       ??$is_integral_specifier@D@?$positional_parameter_base@DV?$string_output_adapter@D@__crt_stdio_output@@@__crt_stdio_output@@CA_ND@Z 10047e20 f i libucrtd:output.obj
 0001:00046e80       ??$is_integral_specifier@_W@?$positional_parameter_base@_WV?$stream_output_adapter@_W@__crt_stdio_output@@@__crt_stdio_output@@CA_N_W@Z 10047e80 f i libucrtd:output.obj
 0001:00046ee0       ??$is_integral_specifier@_W@?$positional_parameter_base@_WV?$string_output_adapter@_W@__crt_stdio_output@@@__crt_stdio_output@@CA_N_W@Z 10047ee0 f i libucrtd:output.obj
 0001:00046f40       ??$is_pointer_specifier@D@?$positional_parameter_base@DV?$stream_output_adapter@D@__crt_stdio_output@@@__crt_stdio_output@@CA_ND@Z 10047f40 f i libucrtd:output.obj
 0001:00046f70       ??$is_pointer_specifier@D@?$positional_parameter_base@DV?$string_output_adapter@D@__crt_stdio_output@@@__crt_stdio_output@@CA_ND@Z 10047f70 f i libucrtd:output.obj
 0001:00046fa0       ??$is_pointer_specifier@_W@?$positional_parameter_base@_WV?$stream_output_adapter@_W@__crt_stdio_output@@@__crt_stdio_output@@CA_N_W@Z 10047fa0 f i libucrtd:output.obj
 0001:00046fd0       ??$is_pointer_specifier@_W@?$positional_parameter_base@_WV?$string_output_adapter@_W@__crt_stdio_output@@@__crt_stdio_output@@CA_N_W@Z 10047fd0 f i libucrtd:output.obj
 0001:00047000       ??$is_string_specifier@D@?$positional_parameter_base@DV?$stream_output_adapter@D@__crt_stdio_output@@@__crt_stdio_output@@CA_ND@Z 10048000 f i libucrtd:output.obj
 0001:00047030       ??$is_string_specifier@D@?$positional_parameter_base@DV?$string_output_adapter@D@__crt_stdio_output@@@__crt_stdio_output@@CA_ND@Z 10048030 f i libucrtd:output.obj
 0001:00047060       ??$is_string_specifier@_W@?$positional_parameter_base@_WV?$stream_output_adapter@_W@__crt_stdio_output@@@__crt_stdio_output@@CA_N_W@Z 10048060 f i libucrtd:output.obj
 0001:00047090       ??$is_string_specifier@_W@?$positional_parameter_base@_WV?$string_output_adapter@_W@__crt_stdio_output@@@__crt_stdio_output@@CA_N_W@Z 10048090 f i libucrtd:output.obj
 0001:000470c0       ??$is_wide_character_specifier@D@__crt_stdio_output@@YA_N_KDW4length_modifier@0@@Z 100480c0 f i libucrtd:output.obj
 0001:00047140       ??$is_wide_character_specifier@_W@__crt_stdio_output@@YA_N_K_WW4length_modifier@0@@Z 10048140 f i libucrtd:output.obj
 0001:00047200       ??$peek_va_arg@C@__crt_stdio_output@@YACPAD@Z 10048200 f i libucrtd:output.obj
 0001:00047220       ??$peek_va_arg@E@__crt_stdio_output@@YAEPAD@Z 10048220 f i libucrtd:output.obj
 0001:00047240       ??$peek_va_arg@F@__crt_stdio_output@@YAFPAD@Z 10048240 f i libucrtd:output.obj
 0001:00047260       ??$peek_va_arg@G@__crt_stdio_output@@YAGPAD@Z 10048260 f i libucrtd:output.obj
 0001:00047280       ??$peek_va_arg@H@__crt_stdio_output@@YAHPAD@Z 10048280 f i libucrtd:output.obj
 0001:000472a0       ??$peek_va_arg@I@__crt_stdio_output@@YAIPAD@Z 100482a0 f i libucrtd:output.obj
 0001:000472c0       ??$peek_va_arg@PAD@__crt_stdio_output@@YAPADPAD@Z 100482c0 f i libucrtd:output.obj
 0001:000472e0       ??$peek_va_arg@PAUansi_string@?1??type_case_Z@?$output_processor@DV?$stream_output_adapter@D@__crt_stdio_output@@V?$positional_parameter_base@DV?$stream_output_adapter@D@__crt_stdio_output@@@2@@__crt_stdio_output@@AAE_NXZ@@__crt_stdio_output@@YAPAUansi_string@?1??type_case_Z@?$output_processor@DV?$stream_output_adapter@D@__crt_stdio_output@@V?$positional_parameter_base@DV?$stream_output_adapter@D@__crt_stdio_output@@@2@@0@AAE_NXZ@PAD@Z 100482e0 f i libucrtd:output.obj
 0001:00047300       ??$peek_va_arg@PAUansi_string@?1??type_case_Z@?$output_processor@DV?$string_output_adapter@D@__crt_stdio_output@@V?$positional_parameter_base@DV?$string_output_adapter@D@__crt_stdio_output@@@2@@__crt_stdio_output@@AAE_NXZ@@__crt_stdio_output@@YAPAUansi_string@?1??type_case_Z@?$output_processor@DV?$string_output_adapter@D@__crt_stdio_output@@V?$positional_parameter_base@DV?$string_output_adapter@D@__crt_stdio_output@@@2@@0@AAE_NXZ@PAD@Z 10048300 f i libucrtd:output.obj
 0001:00047320       ??$peek_va_arg@PAUansi_string@?1??type_case_Z@?$output_processor@_WV?$stream_output_adapter@_W@__crt_stdio_output@@V?$positional_parameter_base@_WV?$stream_output_adapter@_W@__crt_stdio_output@@@2@@__crt_stdio_output@@AAE_NXZ@@__crt_stdio_output@@YAPAUansi_string@?1??type_case_Z@?$output_processor@_WV?$stream_output_adapter@_W@__crt_stdio_output@@V?$positional_parameter_base@_WV?$stream_output_adapter@_W@__crt_stdio_output@@@2@@0@AAE_NXZ@PAD@Z 10048320 f i libucrtd:output.obj
 0001:00047340       ??$peek_va_arg@PAUansi_string@?1??type_case_Z@?$output_processor@_WV?$string_output_adapter@_W@__crt_stdio_output@@V?$positional_parameter_base@_WV?$string_output_adapter@_W@__crt_stdio_output@@@2@@__crt_stdio_output@@AAE_NXZ@@__crt_stdio_output@@YAPAUansi_string@?1??type_case_Z@?$output_processor@_WV?$string_output_adapter@_W@__crt_stdio_output@@V?$positional_parameter_base@_WV?$string_output_adapter@_W@__crt_stdio_output@@@2@@0@AAE_NXZ@PAD@Z 10048340 f i libucrtd:output.obj
 0001:00047360       ??$peek_va_arg@PAX@__crt_stdio_output@@YAPAXPAD@Z 10048360 f i libucrtd:output.obj
 0001:00047380       ??$peek_va_arg@U_CRT_DOUBLE@@@__crt_stdio_output@@YA?AU_CRT_DOUBLE@@PAD@Z 10048380 f i libucrtd:output.obj
 0001:000473a0       ??$peek_va_arg@_J@__crt_stdio_output@@YA_JPAD@Z 100483a0 f i libucrtd:output.obj
 0001:000473c0       ??$peek_va_arg@_K@__crt_stdio_output@@YA_KPAD@Z 100483c0 f i libucrtd:output.obj
 0001:000473e0       ??$peek_va_arg@_W@__crt_stdio_output@@YA_WPAD@Z 100483e0 f i libucrtd:output.obj
 0001:00047400       ??$puttc_nolock@ABDPAU_iobuf@@@?$__crt_char_traits@D@@SAHABD$$QAPAU_iobuf@@@Z 10048400 f i libucrtd:output.obj
 0001:00047420       ??$puttc_nolock@AB_WPAU_iobuf@@@?$__crt_char_traits@_W@@SAGAB_W$$QAPAU_iobuf@@@Z 10048420 f i libucrtd:output.obj
 0001:00047440       ??$read_va_arg@C@__crt_stdio_output@@YACAAPAD@Z 10048440 f i libucrtd:output.obj
 0001:00047460       ??$read_va_arg@E@__crt_stdio_output@@YAEAAPAD@Z 10048460 f i libucrtd:output.obj
 0001:00047480       ??$read_va_arg@F@__crt_stdio_output@@YAFAAPAD@Z 10048480 f i libucrtd:output.obj
 0001:000474a0       ??$read_va_arg@G@__crt_stdio_output@@YAGAAPAD@Z 100484a0 f i libucrtd:output.obj
 0001:000474c0       ??$read_va_arg@H@__crt_stdio_output@@YAHAAPAD@Z 100484c0 f i libucrtd:output.obj
 0001:000474e0       ??$read_va_arg@I@__crt_stdio_output@@YAIAAPAD@Z 100484e0 f i libucrtd:output.obj
 0001:00047500       ??$read_va_arg@PAD@__crt_stdio_output@@YAPADAAPAD@Z 10048500 f i libucrtd:output.obj
 0001:00047520       ??$read_va_arg@PAUansi_string@?1??type_case_Z@?$output_processor@DV?$stream_output_adapter@D@__crt_stdio_output@@V?$format_validation_base@DV?$stream_output_adapter@D@__crt_stdio_output@@@2@@__crt_stdio_output@@AAE_NXZ@@__crt_stdio_output@@YAPAUansi_string@?1??type_case_Z@?$output_processor@DV?$stream_output_adapter@D@__crt_stdio_output@@V?$format_validation_base@DV?$stream_output_adapter@D@__crt_stdio_output@@@2@@0@AAE_NXZ@AAPAD@Z 10048520 f i libucrtd:output.obj
 0001:00047540       ??$read_va_arg@PAUansi_string@?1??type_case_Z@?$output_processor@DV?$stream_output_adapter@D@__crt_stdio_output@@V?$positional_parameter_base@DV?$stream_output_adapter@D@__crt_stdio_output@@@2@@__crt_stdio_output@@AAE_NXZ@@__crt_stdio_output@@YAPAUansi_string@?1??type_case_Z@?$output_processor@DV?$stream_output_adapter@D@__crt_stdio_output@@V?$positional_parameter_base@DV?$stream_output_adapter@D@__crt_stdio_output@@@2@@0@AAE_NXZ@AAPAD@Z 10048540 f i libucrtd:output.obj
 0001:00047560       ??$read_va_arg@PAUansi_string@?1??type_case_Z@?$output_processor@DV?$stream_output_adapter@D@__crt_stdio_output@@V?$standard_base@DV?$stream_output_adapter@D@__crt_stdio_output@@@2@@__crt_stdio_output@@AAE_NXZ@@__crt_stdio_output@@YAPAUansi_string@?1??type_case_Z@?$output_processor@DV?$stream_output_adapter@D@__crt_stdio_output@@V?$standard_base@DV?$stream_output_adapter@D@__crt_stdio_output@@@2@@0@AAE_NXZ@AAPAD@Z 10048560 f i libucrtd:output.obj
 0001:00047580       ??$read_va_arg@PAUansi_string@?1??type_case_Z@?$output_processor@DV?$string_output_adapter@D@__crt_stdio_output@@V?$format_validation_base@DV?$string_output_adapter@D@__crt_stdio_output@@@2@@__crt_stdio_output@@AAE_NXZ@@__crt_stdio_output@@YAPAUansi_string@?1??type_case_Z@?$output_processor@DV?$string_output_adapter@D@__crt_stdio_output@@V?$format_validation_base@DV?$string_output_adapter@D@__crt_stdio_output@@@2@@0@AAE_NXZ@AAPAD@Z 10048580 f i libucrtd:output.obj
 0001:000475a0       ??$read_va_arg@PAUansi_string@?1??type_case_Z@?$output_processor@DV?$string_output_adapter@D@__crt_stdio_output@@V?$positional_parameter_base@DV?$string_output_adapter@D@__crt_stdio_output@@@2@@__crt_stdio_output@@AAE_NXZ@@__crt_stdio_output@@YAPAUansi_string@?1??type_case_Z@?$output_processor@DV?$string_output_adapter@D@__crt_stdio_output@@V?$positional_parameter_base@DV?$string_output_adapter@D@__crt_stdio_output@@@2@@0@AAE_NXZ@AAPAD@Z 100485a0 f i libucrtd:output.obj
 0001:000475c0       ??$read_va_arg@PAUansi_string@?1??type_case_Z@?$output_processor@DV?$string_output_adapter@D@__crt_stdio_output@@V?$standard_base@DV?$string_output_adapter@D@__crt_stdio_output@@@2@@__crt_stdio_output@@AAE_NXZ@@__crt_stdio_output@@YAPAUansi_string@?1??type_case_Z@?$output_processor@DV?$string_output_adapter@D@__crt_stdio_output@@V?$standard_base@DV?$string_output_adapter@D@__crt_stdio_output@@@2@@0@AAE_NXZ@AAPAD@Z 100485c0 f i libucrtd:output.obj
 0001:000475e0       ??$read_va_arg@PAUansi_string@?1??type_case_Z@?$output_processor@_WV?$stream_output_adapter@_W@__crt_stdio_output@@V?$format_validation_base@_WV?$stream_output_adapter@_W@__crt_stdio_output@@@2@@__crt_stdio_output@@AAE_NXZ@@__crt_stdio_output@@YAPAUansi_string@?1??type_case_Z@?$output_processor@_WV?$stream_output_adapter@_W@__crt_stdio_output@@V?$format_validation_base@_WV?$stream_output_adapter@_W@__crt_stdio_output@@@2@@0@AAE_NXZ@AAPAD@Z 100485e0 f i libucrtd:output.obj
 0001:00047600       ??$read_va_arg@PAUansi_string@?1??type_case_Z@?$output_processor@_WV?$stream_output_adapter@_W@__crt_stdio_output@@V?$positional_parameter_base@_WV?$stream_output_adapter@_W@__crt_stdio_output@@@2@@__crt_stdio_output@@AAE_NXZ@@__crt_stdio_output@@YAPAUansi_string@?1??type_case_Z@?$output_processor@_WV?$stream_output_adapter@_W@__crt_stdio_output@@V?$positional_parameter_base@_WV?$stream_output_adapter@_W@__crt_stdio_output@@@2@@0@AAE_NXZ@AAPAD@Z 10048600 f i libucrtd:output.obj
 0001:00047620       ??$read_va_arg@PAUansi_string@?1??type_case_Z@?$output_processor@_WV?$stream_output_adapter@_W@__crt_stdio_output@@V?$standard_base@_WV?$stream_output_adapter@_W@__crt_stdio_output@@@2@@__crt_stdio_output@@AAE_NXZ@@__crt_stdio_output@@YAPAUansi_string@?1??type_case_Z@?$output_processor@_WV?$stream_output_adapter@_W@__crt_stdio_output@@V?$standard_base@_WV?$stream_output_adapter@_W@__crt_stdio_output@@@2@@0@AAE_NXZ@AAPAD@Z 10048620 f i libucrtd:output.obj
 0001:00047640       ??$read_va_arg@PAUansi_string@?1??type_case_Z@?$output_processor@_WV?$string_output_adapter@_W@__crt_stdio_output@@V?$format_validation_base@_WV?$string_output_adapter@_W@__crt_stdio_output@@@2@@__crt_stdio_output@@AAE_NXZ@@__crt_stdio_output@@YAPAUansi_string@?1??type_case_Z@?$output_processor@_WV?$string_output_adapter@_W@__crt_stdio_output@@V?$format_validation_base@_WV?$string_output_adapter@_W@__crt_stdio_output@@@2@@0@AAE_NXZ@AAPAD@Z 10048640 f i libucrtd:output.obj
 0001:00047660       ??$read_va_arg@PAUansi_string@?1??type_case_Z@?$output_processor@_WV?$string_output_adapter@_W@__crt_stdio_output@@V?$positional_parameter_base@_WV?$string_output_adapter@_W@__crt_stdio_output@@@2@@__crt_stdio_output@@AAE_NXZ@@__crt_stdio_output@@YAPAUansi_string@?1??type_case_Z@?$output_processor@_WV?$string_output_adapter@_W@__crt_stdio_output@@V?$positional_parameter_base@_WV?$string_output_adapter@_W@__crt_stdio_output@@@2@@0@AAE_NXZ@AAPAD@Z 10048660 f i libucrtd:output.obj
 0001:00047680       ??$read_va_arg@PAUansi_string@?1??type_case_Z@?$output_processor@_WV?$string_output_adapter@_W@__crt_stdio_output@@V?$standard_base@_WV?$string_output_adapter@_W@__crt_stdio_output@@@2@@__crt_stdio_output@@AAE_NXZ@@__crt_stdio_output@@YAPAUansi_string@?1??type_case_Z@?$output_processor@_WV?$string_output_adapter@_W@__crt_stdio_output@@V?$standard_base@_WV?$string_output_adapter@_W@__crt_stdio_output@@@2@@0@AAE_NXZ@AAPAD@Z 10048680 f i libucrtd:output.obj
 0001:000476a0       ??$read_va_arg@PAX@__crt_stdio_output@@YAPAXAAPAD@Z 100486a0 f i libucrtd:output.obj
 0001:000476c0       ??$read_va_arg@U_CRT_DOUBLE@@@__crt_stdio_output@@YA?AU_CRT_DOUBLE@@AAPAD@Z 100486c0 f i libucrtd:output.obj
 0001:000476e0       ??$read_va_arg@_J@__crt_stdio_output@@YA_JAAPAD@Z 100486e0 f i libucrtd:output.obj
 0001:00047700       ??$read_va_arg@_K@__crt_stdio_output@@YA_KAAPAD@Z 10048700 f i libucrtd:output.obj
 0001:00047720       ??$read_va_arg@_W@__crt_stdio_output@@YA_WAAPAD@Z 10048720 f i libucrtd:output.obj
 0001:00047740       ??$scratch_count@D@formatting_buffer@__crt_stdio_output@@QBEIXZ 10048740 f i libucrtd:output.obj
 0001:00047760       ??$scratch_data@D@formatting_buffer@__crt_stdio_output@@QAEPADXZ 10048760 f i libucrtd:output.obj
 0001:000477b0       ??$tcstol@AAPBDPAPADH@?$__crt_char_traits@D@@SAJAAPBD$$QAPAPAD$$QAH@Z 100487b0 f i libucrtd:output.obj
 0001:000477e0       ??$tcstol@AAPB_WPAPA_WH@?$__crt_char_traits@_W@@SAJAAPB_W$$QAPAPA_W$$QAH@Z 100487e0 f i libucrtd:output.obj
 0001:00047810       ??$tcstol@PBDPAPADH@?$__crt_char_traits@D@@SAJ$$QAPBD$$QAPAPAD$$QAH@Z 10048810 f i libucrtd:output.obj
 0001:00047840       ??$tcstol@PB_WPAPA_WH@?$__crt_char_traits@_W@@SAJ$$QAPB_W$$QAPAPA_W$$QAH@Z 10048840 f i libucrtd:output.obj
 0001:00047870       ??$type_case_integer_parse_into_buffer@I@?$output_processor@DV?$stream_output_adapter@D@__crt_stdio_output@@V?$format_validation_base@DV?$stream_output_adapter@D@__crt_stdio_output@@@2@@__crt_stdio_output@@AAEXII_N@Z 10048870 f i libucrtd:output.obj
 0001:00047940       ??$type_case_integer_parse_into_buffer@I@?$output_processor@DV?$stream_output_adapter@D@__crt_stdio_output@@V?$positional_parameter_base@DV?$stream_output_adapter@D@__crt_stdio_output@@@2@@__crt_stdio_output@@AAEXII_N@Z 10048940 f i libucrtd:output.obj
 0001:00047a10       ??$type_case_integer_parse_into_buffer@I@?$output_processor@DV?$stream_output_adapter@D@__crt_stdio_output@@V?$standard_base@DV?$stream_output_adapter@D@__crt_stdio_output@@@2@@__crt_stdio_output@@AAEXII_N@Z 10048a10 f i libucrtd:output.obj
 0001:00047ae0       ??$type_case_integer_parse_into_buffer@I@?$output_processor@DV?$string_output_adapter@D@__crt_stdio_output@@V?$format_validation_base@DV?$string_output_adapter@D@__crt_stdio_output@@@2@@__crt_stdio_output@@AAEXII_N@Z 10048ae0 f i libucrtd:output.obj
 0001:00047bb0       ??$type_case_integer_parse_into_buffer@I@?$output_processor@DV?$string_output_adapter@D@__crt_stdio_output@@V?$positional_parameter_base@DV?$string_output_adapter@D@__crt_stdio_output@@@2@@__crt_stdio_output@@AAEXII_N@Z 10048bb0 f i libucrtd:output.obj
 0001:00047c80       ??$type_case_integer_parse_into_buffer@I@?$output_processor@DV?$string_output_adapter@D@__crt_stdio_output@@V?$standard_base@DV?$string_output_adapter@D@__crt_stdio_output@@@2@@__crt_stdio_output@@AAEXII_N@Z 10048c80 f i libucrtd:output.obj
 0001:00047d50       ??$type_case_integer_parse_into_buffer@I@?$output_processor@_WV?$stream_output_adapter@_W@__crt_stdio_output@@V?$format_validation_base@_WV?$stream_output_adapter@_W@__crt_stdio_output@@@2@@__crt_stdio_output@@AAEXII_N@Z 10048d50 f i libucrtd:output.obj
 0001:00047e20       ??$type_case_integer_parse_into_buffer@I@?$output_processor@_WV?$stream_output_adapter@_W@__crt_stdio_output@@V?$positional_parameter_base@_WV?$stream_output_adapter@_W@__crt_stdio_output@@@2@@__crt_stdio_output@@AAEXII_N@Z 10048e20 f i libucrtd:output.obj
 0001:00047ef0       ??$type_case_integer_parse_into_buffer@I@?$output_processor@_WV?$stream_output_adapter@_W@__crt_stdio_output@@V?$standard_base@_WV?$stream_output_adapter@_W@__crt_stdio_output@@@2@@__crt_stdio_output@@AAEXII_N@Z 10048ef0 f i libucrtd:output.obj
 0001:00047fc0       ??$type_case_integer_parse_into_buffer@I@?$output_processor@_WV?$string_output_adapter@_W@__crt_stdio_output@@V?$format_validation_base@_WV?$string_output_adapter@_W@__crt_stdio_output@@@2@@__crt_stdio_output@@AAEXII_N@Z 10048fc0 f i libucrtd:output.obj
 0001:00048090       ??$type_case_integer_parse_into_buffer@I@?$output_processor@_WV?$string_output_adapter@_W@__crt_stdio_output@@V?$positional_parameter_base@_WV?$string_output_adapter@_W@__crt_stdio_output@@@2@@__crt_stdio_output@@AAEXII_N@Z 10049090 f i libucrtd:output.obj
 0001:00048160       ??$type_case_integer_parse_into_buffer@I@?$output_processor@_WV?$string_output_adapter@_W@__crt_stdio_output@@V?$standard_base@_WV?$string_output_adapter@_W@__crt_stdio_output@@@2@@__crt_stdio_output@@AAEXII_N@Z 10049160 f i libucrtd:output.obj
 0001:00048230       ??$type_case_integer_parse_into_buffer@_K@?$output_processor@DV?$stream_output_adapter@D@__crt_stdio_output@@V?$format_validation_base@DV?$stream_output_adapter@D@__crt_stdio_output@@@2@@__crt_stdio_output@@AAEX_KI_N@Z 10049230 f i libucrtd:output.obj
 0001:00048330       ??$type_case_integer_parse_into_buffer@_K@?$output_processor@DV?$stream_output_adapter@D@__crt_stdio_output@@V?$positional_parameter_base@DV?$stream_output_adapter@D@__crt_stdio_output@@@2@@__crt_stdio_output@@AAEX_KI_N@Z 10049330 f i libucrtd:output.obj
 0001:00048430       ??$type_case_integer_parse_into_buffer@_K@?$output_processor@DV?$stream_output_adapter@D@__crt_stdio_output@@V?$standard_base@DV?$stream_output_adapter@D@__crt_stdio_output@@@2@@__crt_stdio_output@@AAEX_KI_N@Z 10049430 f i libucrtd:output.obj
 0001:00048530       ??$type_case_integer_parse_into_buffer@_K@?$output_processor@DV?$string_output_adapter@D@__crt_stdio_output@@V?$format_validation_base@DV?$string_output_adapter@D@__crt_stdio_output@@@2@@__crt_stdio_output@@AAEX_KI_N@Z 10049530 f i libucrtd:output.obj
 0001:00048630       ??$type_case_integer_parse_into_buffer@_K@?$output_processor@DV?$string_output_adapter@D@__crt_stdio_output@@V?$positional_parameter_base@DV?$string_output_adapter@D@__crt_stdio_output@@@2@@__crt_stdio_output@@AAEX_KI_N@Z 10049630 f i libucrtd:output.obj
 0001:00048730       ??$type_case_integer_parse_into_buffer@_K@?$output_processor@DV?$string_output_adapter@D@__crt_stdio_output@@V?$standard_base@DV?$string_output_adapter@D@__crt_stdio_output@@@2@@__crt_stdio_output@@AAEX_KI_N@Z 10049730 f i libucrtd:output.obj
 0001:00048830       ??$type_case_integer_parse_into_buffer@_K@?$output_processor@_WV?$stream_output_adapter@_W@__crt_stdio_output@@V?$format_validation_base@_WV?$stream_output_adapter@_W@__crt_stdio_output@@@2@@__crt_stdio_output@@AAEX_KI_N@Z 10049830 f i libucrtd:output.obj
 0001:00048930       ??$type_case_integer_parse_into_buffer@_K@?$output_processor@_WV?$stream_output_adapter@_W@__crt_stdio_output@@V?$positional_parameter_base@_WV?$stream_output_adapter@_W@__crt_stdio_output@@@2@@__crt_stdio_output@@AAEX_KI_N@Z 10049930 f i libucrtd:output.obj
 0001:00048a30       ??$type_case_integer_parse_into_buffer@_K@?$output_processor@_WV?$stream_output_adapter@_W@__crt_stdio_output@@V?$standard_base@_WV?$stream_output_adapter@_W@__crt_stdio_output@@@2@@__crt_stdio_output@@AAEX_KI_N@Z 10049a30 f i libucrtd:output.obj
 0001:00048b30       ??$type_case_integer_parse_into_buffer@_K@?$output_processor@_WV?$string_output_adapter@_W@__crt_stdio_output@@V?$format_validation_base@_WV?$string_output_adapter@_W@__crt_stdio_output@@@2@@__crt_stdio_output@@AAEX_KI_N@Z 10049b30 f i libucrtd:output.obj
 0001:00048c30       ??$type_case_integer_parse_into_buffer@_K@?$output_processor@_WV?$string_output_adapter@_W@__crt_stdio_output@@V?$positional_parameter_base@_WV?$string_output_adapter@_W@__crt_stdio_output@@@2@@__crt_stdio_output@@AAEX_KI_N@Z 10049c30 f i libucrtd:output.obj
 0001:00048d30       ??$type_case_integer_parse_into_buffer@_K@?$output_processor@_WV?$string_output_adapter@_W@__crt_stdio_output@@V?$standard_base@_WV?$string_output_adapter@_W@__crt_stdio_output@@@2@@__crt_stdio_output@@AAEX_KI_N@Z 10049d30 f i libucrtd:output.obj
 0001:00048e30       ??$write_multiple_characters@V?$stream_output_adapter@D@__crt_stdio_output@@D@__crt_stdio_output@@YAXABV?$stream_output_adapter@D@0@DHQAH@Z 10049e30 f i libucrtd:output.obj
 0001:00048e80       ??$write_multiple_characters@V?$stream_output_adapter@_W@__crt_stdio_output@@D@__crt_stdio_output@@YAXABV?$stream_output_adapter@_W@0@DHQAH@Z 10049e80 f i libucrtd:output.obj
 0001:00048ed0       ??$write_multiple_characters@V?$string_output_adapter@D@__crt_stdio_output@@D@__crt_stdio_output@@YAXABV?$string_output_adapter@D@0@DHQAH@Z 10049ed0 f i libucrtd:output.obj
 0001:00048f20       ??$write_multiple_characters@V?$string_output_adapter@_W@__crt_stdio_output@@D@__crt_stdio_output@@YAXABV?$string_output_adapter@_W@0@DHQAH@Z 10049f20 f i libucrtd:output.obj
 0001:00049270       ??0?$common_data@D@__crt_stdio_output@@IAE@XZ 1004a270 f i libucrtd:output.obj
 0001:00049320       ??0?$common_data@_W@__crt_stdio_output@@IAE@XZ 1004a320 f i libucrtd:output.obj
 0001:000493d0       ??0?$output_adapter_data@DV?$stream_output_adapter@D@__crt_stdio_output@@@__crt_stdio_output@@IAE@ABV?$stream_output_adapter@D@1@_KQBDQAU__crt_locale_pointers@@QAD@Z 1004a3d0 f i libucrtd:output.obj
 0001:00049430       ??0?$output_adapter_data@DV?$string_output_adapter@D@__crt_stdio_output@@@__crt_stdio_output@@IAE@ABV?$string_output_adapter@D@1@_KQBDQAU__crt_locale_pointers@@QAD@Z 1004a430 f i libucrtd:output.obj
 0001:00049490       ??0?$output_adapter_data@_WV?$stream_output_adapter@_W@__crt_stdio_output@@@__crt_stdio_output@@IAE@ABV?$stream_output_adapter@_W@1@_KQB_WQAU__crt_locale_pointers@@QAD@Z 1004a490 f i libucrtd:output.obj
 0001:000494f0       ??0?$output_adapter_data@_WV?$string_output_adapter@_W@__crt_stdio_output@@@__crt_stdio_output@@IAE@ABV?$string_output_adapter@_W@1@_KQB_WQAU__crt_locale_pointers@@QAD@Z 1004a4f0 f i libucrtd:output.obj
 0001:00049550       ??0?$output_processor@DV?$stream_output_adapter@D@__crt_stdio_output@@V?$format_validation_base@DV?$stream_output_adapter@D@__crt_stdio_output@@@2@@__crt_stdio_output@@QAE@ABV?$stream_output_adapter@D@1@_KQBDQAU__crt_locale_pointers@@QAD@Z 1004a550 f i libucrtd:output.obj
 0001:00049590       ??0?$output_processor@DV?$stream_output_adapter@D@__crt_stdio_output@@V?$positional_parameter_base@DV?$stream_output_adapter@D@__crt_stdio_output@@@2@@__crt_stdio_output@@QAE@ABV?$stream_output_adapter@D@1@_KQBDQAU__crt_locale_pointers@@QAD@Z 1004a590 f i libucrtd:output.obj
 0001:000495d0       ??0?$output_processor@DV?$stream_output_adapter@D@__crt_stdio_output@@V?$standard_base@DV?$stream_output_adapter@D@__crt_stdio_output@@@2@@__crt_stdio_output@@QAE@ABV?$stream_output_adapter@D@1@_KQBDQAU__crt_locale_pointers@@QAD@Z 1004a5d0 f i libucrtd:output.obj
 0001:00049610       ??0?$output_processor@DV?$string_output_adapter@D@__crt_stdio_output@@V?$format_validation_base@DV?$string_output_adapter@D@__crt_stdio_output@@@2@@__crt_stdio_output@@QAE@ABV?$string_output_adapter@D@1@_KQBDQAU__crt_locale_pointers@@QAD@Z 1004a610 f i libucrtd:output.obj
 0001:00049650       ??0?$output_processor@DV?$string_output_adapter@D@__crt_stdio_output@@V?$positional_parameter_base@DV?$string_output_adapter@D@__crt_stdio_output@@@2@@__crt_stdio_output@@QAE@ABV?$string_output_adapter@D@1@_KQBDQAU__crt_locale_pointers@@QAD@Z 1004a650 f i libucrtd:output.obj
 0001:00049690       ??0?$output_processor@DV?$string_output_adapter@D@__crt_stdio_output@@V?$standard_base@DV?$string_output_adapter@D@__crt_stdio_output@@@2@@__crt_stdio_output@@QAE@ABV?$string_output_adapter@D@1@_KQBDQAU__crt_locale_pointers@@QAD@Z 1004a690 f i libucrtd:output.obj
 0001:000496d0       ??0?$output_processor@_WV?$stream_output_adapter@_W@__crt_stdio_output@@V?$format_validation_base@_WV?$stream_output_adapter@_W@__crt_stdio_output@@@2@@__crt_stdio_output@@QAE@ABV?$stream_output_adapter@_W@1@_KQB_WQAU__crt_locale_pointers@@QAD@Z 1004a6d0 f i libucrtd:output.obj
 0001:00049710       ??0?$output_processor@_WV?$stream_output_adapter@_W@__crt_stdio_output@@V?$positional_parameter_base@_WV?$stream_output_adapter@_W@__crt_stdio_output@@@2@@__crt_stdio_output@@QAE@ABV?$stream_output_adapter@_W@1@_KQB_WQAU__crt_locale_pointers@@QAD@Z 1004a710 f i libucrtd:output.obj
 0001:00049750       ??0?$output_processor@_WV?$stream_output_adapter@_W@__crt_stdio_output@@V?$standard_base@_WV?$stream_output_adapter@_W@__crt_stdio_output@@@2@@__crt_stdio_output@@QAE@ABV?$stream_output_adapter@_W@1@_KQB_WQAU__crt_locale_pointers@@QAD@Z 1004a750 f i libucrtd:output.obj
 0001:00049790       ??0?$output_processor@_WV?$string_output_adapter@_W@__crt_stdio_output@@V?$format_validation_base@_WV?$string_output_adapter@_W@__crt_stdio_output@@@2@@__crt_stdio_output@@QAE@ABV?$string_output_adapter@_W@1@_KQB_WQAU__crt_locale_pointers@@QAD@Z 1004a790 f i libucrtd:output.obj
 0001:000497d0       ??0?$output_processor@_WV?$string_output_adapter@_W@__crt_stdio_output@@V?$positional_parameter_base@_WV?$string_output_adapter@_W@__crt_stdio_output@@@2@@__crt_stdio_output@@QAE@ABV?$string_output_adapter@_W@1@_KQB_WQAU__crt_locale_pointers@@QAD@Z 1004a7d0 f i libucrtd:output.obj
 0001:00049810       ??0?$output_processor@_WV?$string_output_adapter@_W@__crt_stdio_output@@V?$standard_base@_WV?$string_output_adapter@_W@__crt_stdio_output@@@2@@__crt_stdio_output@@QAE@ABV?$string_output_adapter@_W@1@_KQB_WQAU__crt_locale_pointers@@QAD@Z 1004a810 f i libucrtd:output.obj
 0001:00049850       ??0?$stream_output_adapter@D@__crt_stdio_output@@QAE@QAU_iobuf@@@Z 1004a850 f i libucrtd:output.obj
 0001:00049870       ??0?$stream_output_adapter@_W@__crt_stdio_output@@QAE@QAU_iobuf@@@Z 1004a870 f i libucrtd:output.obj
 0001:00049890       ??0?$string_output_adapter@D@__crt_stdio_output@@QAE@QAU?$string_output_adapter_context@D@1@@Z 1004a890 f i libucrtd:output.obj
 0001:000498b0       ??0?$string_output_adapter@_W@__crt_stdio_output@@QAE@QAU?$string_output_adapter_context@_W@1@@Z 1004a8b0 f i libucrtd:output.obj
 0001:000498d0       ??0_LocaleUpdate@@QAE@QAU__crt_locale_pointers@@@Z 1004a8d0 f i libucrtd:output.obj
 0001:000499b0       ??0__acrt_stdio_temporary_buffering_guard@@QAE@QAU_iobuf@@@Z 1004a9b0 f i libucrtd:output.obj
 0001:000499e0       ??0__crt_errno_guard@@QAE@QAH@Z 1004a9e0 f i libucrtd:output.obj
 0001:00049a10       ??0__crt_stdio_stream@@QAE@QAU_iobuf@@@Z 1004aa10 f i libucrtd:output.obj
 0001:00049a30       ??0formatting_buffer@__crt_stdio_output@@QAE@XZ 1004aa30 f i libucrtd:output.obj
 0001:00049a60       ??1?$common_data@D@__crt_stdio_output@@QAE@XZ 1004aa60 f i libucrtd:output.obj
 0001:00049a80       ??1?$common_data@_W@__crt_stdio_output@@QAE@XZ 1004aa80 f i libucrtd:output.obj
 0001:00049aa0       ??1?$format_validation_base@DV?$stream_output_adapter@D@__crt_stdio_output@@@__crt_stdio_output@@QAE@XZ 1004aaa0 f i libucrtd:output.obj
 0001:00049ac0       ??1?$format_validation_base@DV?$string_output_adapter@D@__crt_stdio_output@@@__crt_stdio_output@@QAE@XZ 1004aac0 f i libucrtd:output.obj
 0001:00049ae0       ??1?$format_validation_base@_WV?$stream_output_adapter@_W@__crt_stdio_output@@@__crt_stdio_output@@QAE@XZ 1004aae0 f i libucrtd:output.obj
 0001:00049b00       ??1?$format_validation_base@_WV?$string_output_adapter@_W@__crt_stdio_output@@@__crt_stdio_output@@QAE@XZ 1004ab00 f i libucrtd:output.obj
 0001:00049b20       ??1?$output_adapter_data@DV?$stream_output_adapter@D@__crt_stdio_output@@@__crt_stdio_output@@QAE@XZ 1004ab20 f i libucrtd:output.obj
 0001:00049b40       ??1?$output_adapter_data@DV?$string_output_adapter@D@__crt_stdio_output@@@__crt_stdio_output@@QAE@XZ 1004ab40 f i libucrtd:output.obj
 0001:00049b60       ??1?$output_adapter_data@_WV?$stream_output_adapter@_W@__crt_stdio_output@@@__crt_stdio_output@@QAE@XZ 1004ab60 f i libucrtd:output.obj
 0001:00049b80       ??1?$output_adapter_data@_WV?$string_output_adapter@_W@__crt_stdio_output@@@__crt_stdio_output@@QAE@XZ 1004ab80 f i libucrtd:output.obj
 0001:00049ba0       ??1?$output_processor@DV?$stream_output_adapter@D@__crt_stdio_output@@V?$format_validation_base@DV?$stream_output_adapter@D@__crt_stdio_output@@@2@@__crt_stdio_output@@QAE@XZ 1004aba0 f i libucrtd:output.obj
 0001:00049bc0       ??1?$output_processor@DV?$stream_output_adapter@D@__crt_stdio_output@@V?$positional_parameter_base@DV?$stream_output_adapter@D@__crt_stdio_output@@@2@@__crt_stdio_output@@QAE@XZ 1004abc0 f i libucrtd:output.obj
 0001:00049be0       ??1?$output_processor@DV?$stream_output_adapter@D@__crt_stdio_output@@V?$standard_base@DV?$stream_output_adapter@D@__crt_stdio_output@@@2@@__crt_stdio_output@@QAE@XZ 1004abe0 f i libucrtd:output.obj
 0001:00049c00       ??1?$output_processor@DV?$string_output_adapter@D@__crt_stdio_output@@V?$format_validation_base@DV?$string_output_adapter@D@__crt_stdio_output@@@2@@__crt_stdio_output@@QAE@XZ 1004ac00 f i libucrtd:output.obj
 0001:00049c20       ??1?$output_processor@DV?$string_output_adapter@D@__crt_stdio_output@@V?$positional_parameter_base@DV?$string_output_adapter@D@__crt_stdio_output@@@2@@__crt_stdio_output@@QAE@XZ 1004ac20 f i libucrtd:output.obj
 0001:00049c40       ??1?$output_processor@DV?$string_output_adapter@D@__crt_stdio_output@@V?$standard_base@DV?$string_output_adapter@D@__crt_stdio_output@@@2@@__crt_stdio_output@@QAE@XZ 1004ac40 f i libucrtd:output.obj
 0001:00049c60       ??1?$output_processor@_WV?$stream_output_adapter@_W@__crt_stdio_output@@V?$format_validation_base@_WV?$stream_output_adapter@_W@__crt_stdio_output@@@2@@__crt_stdio_output@@QAE@XZ 1004ac60 f i libucrtd:output.obj
 0001:00049c80       ??1?$output_processor@_WV?$stream_output_adapter@_W@__crt_stdio_output@@V?$positional_parameter_base@_WV?$stream_output_adapter@_W@__crt_stdio_output@@@2@@__crt_stdio_output@@QAE@XZ 1004ac80 f i libucrtd:output.obj
 0001:00049ca0       ??1?$output_processor@_WV?$stream_output_adapter@_W@__crt_stdio_output@@V?$standard_base@_WV?$stream_output_adapter@_W@__crt_stdio_output@@@2@@__crt_stdio_output@@QAE@XZ 1004aca0 f i libucrtd:output.obj
 0001:00049cc0       ??1?$output_processor@_WV?$string_output_adapter@_W@__crt_stdio_output@@V?$format_validation_base@_WV?$string_output_adapter@_W@__crt_stdio_output@@@2@@__crt_stdio_output@@QAE@XZ 1004acc0 f i libucrtd:output.obj
 0001:00049ce0       ??1?$output_processor@_WV?$string_output_adapter@_W@__crt_stdio_output@@V?$positional_parameter_base@_WV?$string_output_adapter@_W@__crt_stdio_output@@@2@@__crt_stdio_output@@QAE@XZ 1004ace0 f i libucrtd:output.obj
 0001:00049d00       ??1?$output_processor@_WV?$string_output_adapter@_W@__crt_stdio_output@@V?$standard_base@_WV?$string_output_adapter@_W@__crt_stdio_output@@@2@@__crt_stdio_output@@QAE@XZ 1004ad00 f i libucrtd:output.obj
 0001:00049d20       ??1?$positional_parameter_base@DV?$stream_output_adapter@D@__crt_stdio_output@@@__crt_stdio_output@@QAE@XZ 1004ad20 f i libucrtd:output.obj
 0001:00049d40       ??1?$positional_parameter_base@DV?$string_output_adapter@D@__crt_stdio_output@@@__crt_stdio_output@@QAE@XZ 1004ad40 f i libucrtd:output.obj
 0001:00049d60       ??1?$positional_parameter_base@_WV?$stream_output_adapter@_W@__crt_stdio_output@@@__crt_stdio_output@@QAE@XZ 1004ad60 f i libucrtd:output.obj
 0001:00049d80       ??1?$positional_parameter_base@_WV?$string_output_adapter@_W@__crt_stdio_output@@@__crt_stdio_output@@QAE@XZ 1004ad80 f i libucrtd:output.obj
 0001:00049da0       ??1?$standard_base@DV?$stream_output_adapter@D@__crt_stdio_output@@@__crt_stdio_output@@QAE@XZ 1004ada0 f i libucrtd:output.obj
 0001:00049dc0       ??1?$standard_base@DV?$string_output_adapter@D@__crt_stdio_output@@@__crt_stdio_output@@QAE@XZ 1004adc0 f i libucrtd:output.obj
 0001:00049de0       ??1?$standard_base@_WV?$stream_output_adapter@_W@__crt_stdio_output@@@__crt_stdio_output@@QAE@XZ 1004ade0 f i libucrtd:output.obj
 0001:00049e00       ??1?$standard_base@_WV?$string_output_adapter@_W@__crt_stdio_output@@@__crt_stdio_output@@QAE@XZ 1004ae00 f i libucrtd:output.obj
 0001:00049e20       ??1_LocaleUpdate@@QAE@XZ   1004ae20 f i libucrtd:output.obj
 0001:00049e60       ??1__acrt_stdio_temporary_buffering_guard@@QAE@XZ 1004ae60 f i libucrtd:output.obj
 0001:00049e90       ??1__crt_errno_guard@@QAE@XZ 1004ae90 f i libucrtd:output.obj
 0001:00049ec0       ??1formatting_buffer@__crt_stdio_output@@QAE@XZ 1004aec0 f i libucrtd:output.obj
 0001:00049ee0       ??4?$__crt_unique_heap_ptr@DU__crt_internal_free_policy@@@@QAEAAV0@$$QAV0@@Z 1004aee0 f i libucrtd:output.obj
 0001:00049f10       ??C__crt_stdio_stream@@QBEPAU__crt_stdio_stream_data@@XZ 1004af10 f i libucrtd:output.obj
 0001:0004a650       ?GetLocaleT@_LocaleUpdate@@QAEPAU__crt_locale_pointers@@XZ 1004b650 f i libucrtd:output.obj
 0001:0004a670       ?adjust_hexit@?$output_processor@DV?$stream_output_adapter@D@__crt_stdio_output@@V?$format_validation_base@DV?$stream_output_adapter@D@__crt_stdio_output@@@2@@__crt_stdio_output@@CADH_N@Z 1004b670 f i libucrtd:output.obj
 0001:0004a6b0       ?adjust_hexit@?$output_processor@DV?$stream_output_adapter@D@__crt_stdio_output@@V?$positional_parameter_base@DV?$stream_output_adapter@D@__crt_stdio_output@@@2@@__crt_stdio_output@@CADH_N@Z 1004b6b0 f i libucrtd:output.obj
 0001:0004a6f0       ?adjust_hexit@?$output_processor@DV?$stream_output_adapter@D@__crt_stdio_output@@V?$standard_base@DV?$stream_output_adapter@D@__crt_stdio_output@@@2@@__crt_stdio_output@@CADH_N@Z 1004b6f0 f i libucrtd:output.obj
 0001:0004a730       ?adjust_hexit@?$output_processor@DV?$string_output_adapter@D@__crt_stdio_output@@V?$format_validation_base@DV?$string_output_adapter@D@__crt_stdio_output@@@2@@__crt_stdio_output@@CADH_N@Z 1004b730 f i libucrtd:output.obj
 0001:0004a770       ?adjust_hexit@?$output_processor@DV?$string_output_adapter@D@__crt_stdio_output@@V?$positional_parameter_base@DV?$string_output_adapter@D@__crt_stdio_output@@@2@@__crt_stdio_output@@CADH_N@Z 1004b770 f i libucrtd:output.obj
 0001:0004a7b0       ?adjust_hexit@?$output_processor@DV?$string_output_adapter@D@__crt_stdio_output@@V?$standard_base@DV?$string_output_adapter@D@__crt_stdio_output@@@2@@__crt_stdio_output@@CADH_N@Z 1004b7b0 f i libucrtd:output.obj
 0001:0004a7f0       ?adjust_hexit@?$output_processor@_WV?$stream_output_adapter@_W@__crt_stdio_output@@V?$format_validation_base@_WV?$stream_output_adapter@_W@__crt_stdio_output@@@2@@__crt_stdio_output@@CADH_N@Z 1004b7f0 f i libucrtd:output.obj
 0001:0004a830       ?adjust_hexit@?$output_processor@_WV?$stream_output_adapter@_W@__crt_stdio_output@@V?$positional_parameter_base@_WV?$stream_output_adapter@_W@__crt_stdio_output@@@2@@__crt_stdio_output@@CADH_N@Z 1004b830 f i libucrtd:output.obj
 0001:0004a870       ?adjust_hexit@?$output_processor@_WV?$stream_output_adapter@_W@__crt_stdio_output@@V?$standard_base@_WV?$stream_output_adapter@_W@__crt_stdio_output@@@2@@__crt_stdio_output@@CADH_N@Z 1004b870 f i libucrtd:output.obj
 0001:0004a8b0       ?adjust_hexit@?$output_processor@_WV?$string_output_adapter@_W@__crt_stdio_output@@V?$format_validation_base@_WV?$string_output_adapter@_W@__crt_stdio_output@@@2@@__crt_stdio_output@@CADH_N@Z 1004b8b0 f i libucrtd:output.obj
 0001:0004a8f0       ?adjust_hexit@?$output_processor@_WV?$string_output_adapter@_W@__crt_stdio_output@@V?$positional_parameter_base@_WV?$string_output_adapter@_W@__crt_stdio_output@@@2@@__crt_stdio_output@@CADH_N@Z 1004b8f0 f i libucrtd:output.obj
 0001:0004a930       ?adjust_hexit@?$output_processor@_WV?$string_output_adapter@_W@__crt_stdio_output@@V?$standard_base@_WV?$string_output_adapter@_W@__crt_stdio_output@@@2@@__crt_stdio_output@@CADH_N@Z 1004b930 f i libucrtd:output.obj
 0001:0004a970       ?advance_to_next_pass@?$positional_parameter_base@DV?$stream_output_adapter@D@__crt_stdio_output@@@__crt_stdio_output@@IAE_NXZ 1004b970 f i libucrtd:output.obj
 0001:0004aa10       ?advance_to_next_pass@?$positional_parameter_base@DV?$string_output_adapter@D@__crt_stdio_output@@@__crt_stdio_output@@IAE_NXZ 1004ba10 f i libucrtd:output.obj
 0001:0004aab0       ?advance_to_next_pass@?$positional_parameter_base@_WV?$stream_output_adapter@_W@__crt_stdio_output@@@__crt_stdio_output@@IAE_NXZ 1004bab0 f i libucrtd:output.obj
 0001:0004ab50       ?advance_to_next_pass@?$positional_parameter_base@_WV?$string_output_adapter@_W@__crt_stdio_output@@@__crt_stdio_output@@IAE_NXZ 1004bb50 f i libucrtd:output.obj
 0001:0004abf0       ?advance_to_next_pass@?$standard_base@DV?$stream_output_adapter@D@__crt_stdio_output@@@__crt_stdio_output@@IAE_NXZ 1004bbf0 f i libucrtd:output.obj
 0001:0004ac40       ?advance_to_next_pass@?$standard_base@DV?$string_output_adapter@D@__crt_stdio_output@@@__crt_stdio_output@@IAE_NXZ 1004bc40 f i libucrtd:output.obj
 0001:0004ac90       ?advance_to_next_pass@?$standard_base@_WV?$stream_output_adapter@_W@__crt_stdio_output@@@__crt_stdio_output@@IAE_NXZ 1004bc90 f i libucrtd:output.obj
 0001:0004ace0       ?advance_to_next_pass@?$standard_base@_WV?$string_output_adapter@_W@__crt_stdio_output@@@__crt_stdio_output@@IAE_NXZ 1004bce0 f i libucrtd:output.obj
 0001:0004ad30       ?crop_zeroes@__crt_stdio_output@@YAXPADQAU__crt_locale_pointers@@@Z 1004bd30 f i libucrtd:output.obj
 0001:0004ae30       ?find_next_state@?$output_processor@DV?$stream_output_adapter@D@__crt_stdio_output@@V?$format_validation_base@DV?$stream_output_adapter@D@__crt_stdio_output@@@2@@__crt_stdio_output@@ABE?AW4state@2@DW432@@Z 1004be30 f i libucrtd:output.obj
 0001:0004aeb0       ?find_next_state@?$output_processor@DV?$stream_output_adapter@D@__crt_stdio_output@@V?$positional_parameter_base@DV?$stream_output_adapter@D@__crt_stdio_output@@@2@@__crt_stdio_output@@ABE?AW4state@2@DW432@@Z 1004beb0 f i libucrtd:output.obj
 0001:0004af30       ?find_next_state@?$output_processor@DV?$stream_output_adapter@D@__crt_stdio_output@@V?$standard_base@DV?$stream_output_adapter@D@__crt_stdio_output@@@2@@__crt_stdio_output@@ABE?AW4state@2@DW432@@Z 1004bf30 f i libucrtd:output.obj
 0001:0004afb0       ?find_next_state@?$output_processor@DV?$string_output_adapter@D@__crt_stdio_output@@V?$format_validation_base@DV?$string_output_adapter@D@__crt_stdio_output@@@2@@__crt_stdio_output@@ABE?AW4state@2@DW432@@Z 1004bfb0 f i libucrtd:output.obj
 0001:0004b030       ?find_next_state@?$output_processor@DV?$string_output_adapter@D@__crt_stdio_output@@V?$positional_parameter_base@DV?$string_output_adapter@D@__crt_stdio_output@@@2@@__crt_stdio_output@@ABE?AW4state@2@DW432@@Z 1004c030 f i libucrtd:output.obj
 0001:0004b0b0       ?find_next_state@?$output_processor@DV?$string_output_adapter@D@__crt_stdio_output@@V?$standard_base@DV?$string_output_adapter@D@__crt_stdio_output@@@2@@__crt_stdio_output@@ABE?AW4state@2@DW432@@Z 1004c0b0 f i libucrtd:output.obj
 0001:0004b130       ?find_next_state@?$output_processor@_WV?$stream_output_adapter@_W@__crt_stdio_output@@V?$format_validation_base@_WV?$stream_output_adapter@_W@__crt_stdio_output@@@2@@__crt_stdio_output@@ABE?AW4state@2@_WW432@@Z 1004c130 f i libucrtd:output.obj
 0001:0004b1b0       ?find_next_state@?$output_processor@_WV?$stream_output_adapter@_W@__crt_stdio_output@@V?$positional_parameter_base@_WV?$stream_output_adapter@_W@__crt_stdio_output@@@2@@__crt_stdio_output@@ABE?AW4state@2@_WW432@@Z 1004c1b0 f i libucrtd:output.obj
 0001:0004b230       ?find_next_state@?$output_processor@_WV?$stream_output_adapter@_W@__crt_stdio_output@@V?$standard_base@_WV?$stream_output_adapter@_W@__crt_stdio_output@@@2@@__crt_stdio_output@@ABE?AW4state@2@_WW432@@Z 1004c230 f i libucrtd:output.obj
 0001:0004b2b0       ?find_next_state@?$output_processor@_WV?$string_output_adapter@_W@__crt_stdio_output@@V?$format_validation_base@_WV?$string_output_adapter@_W@__crt_stdio_output@@@2@@__crt_stdio_output@@ABE?AW4state@2@_WW432@@Z 1004c2b0 f i libucrtd:output.obj
 0001:0004b330       ?find_next_state@?$output_processor@_WV?$string_output_adapter@_W@__crt_stdio_output@@V?$positional_parameter_base@_WV?$string_output_adapter@_W@__crt_stdio_output@@@2@@__crt_stdio_output@@ABE?AW4state@2@_WW432@@Z 1004c330 f i libucrtd:output.obj
 0001:0004b3b0       ?find_next_state@?$output_processor@_WV?$string_output_adapter@_W@__crt_stdio_output@@V?$standard_base@_WV?$string_output_adapter@_W@__crt_stdio_output@@@2@@__crt_stdio_output@@ABE?AW4state@2@_WW432@@Z 1004c3b0 f i libucrtd:output.obj
 0001:0004b430       ?force_decimal_point@__crt_stdio_output@@YAXPADQAU__crt_locale_pointers@@@Z 1004c430 f i libucrtd:output.obj
 0001:0004b4e0       ?get_flags@__crt_stdio_stream@@QBEJXZ 1004c4e0 f i libucrtd:output.obj
 0001:0004b500       ?get_parameter_type@?$positional_parameter_base@DV?$stream_output_adapter@D@__crt_stdio_output@@@__crt_stdio_output@@CA?AW4parameter_type@12@F@Z 1004c500 f i libucrtd:output.obj
 0001:0004b510       ?get_parameter_type@?$positional_parameter_base@DV?$stream_output_adapter@D@__crt_stdio_output@@@__crt_stdio_output@@CA?AW4parameter_type@12@G@Z 1004c510 f i libucrtd:output.obj
 0001:0004b520       ?get_parameter_type@?$positional_parameter_base@DV?$stream_output_adapter@D@__crt_stdio_output@@@__crt_stdio_output@@CA?AW4parameter_type@12@H@Z 1004c520 f i libucrtd:output.obj
 0001:0004b530       ?get_parameter_type@?$positional_parameter_base@DV?$stream_output_adapter@D@__crt_stdio_output@@@__crt_stdio_output@@CA?AW4parameter_type@12@I@Z 1004c530 f i libucrtd:output.obj
 0001:0004b540       ?get_parameter_type@?$positional_parameter_base@DV?$stream_output_adapter@D@__crt_stdio_output@@@__crt_stdio_output@@CA?AW4parameter_type@12@U_CRT_DOUBLE@@@Z 1004c540 f i libucrtd:output.obj
 0001:0004b550       ?get_parameter_type@?$positional_parameter_base@DV?$stream_output_adapter@D@__crt_stdio_output@@@__crt_stdio_output@@CA?AW4parameter_type@12@_J@Z 1004c550 f i libucrtd:output.obj
 0001:0004b560       ?get_parameter_type@?$positional_parameter_base@DV?$stream_output_adapter@D@__crt_stdio_output@@@__crt_stdio_output@@CA?AW4parameter_type@12@_K@Z 1004c560 f i libucrtd:output.obj
 0001:0004b570       ?get_parameter_type@?$positional_parameter_base@DV?$stream_output_adapter@D@__crt_stdio_output@@@__crt_stdio_output@@CA?AW4parameter_type@12@_W@Z 1004c570 f i libucrtd:output.obj
 0001:0004b580       ?get_parameter_type@?$positional_parameter_base@DV?$string_output_adapter@D@__crt_stdio_output@@@__crt_stdio_output@@CA?AW4parameter_type@12@F@Z 1004c580 f i libucrtd:output.obj
 0001:0004b590       ?get_parameter_type@?$positional_parameter_base@DV?$string_output_adapter@D@__crt_stdio_output@@@__crt_stdio_output@@CA?AW4parameter_type@12@G@Z 1004c590 f i libucrtd:output.obj
 0001:0004b5a0       ?get_parameter_type@?$positional_parameter_base@DV?$string_output_adapter@D@__crt_stdio_output@@@__crt_stdio_output@@CA?AW4parameter_type@12@H@Z 1004c5a0 f i libucrtd:output.obj
 0001:0004b5b0       ?get_parameter_type@?$positional_parameter_base@DV?$string_output_adapter@D@__crt_stdio_output@@@__crt_stdio_output@@CA?AW4parameter_type@12@I@Z 1004c5b0 f i libucrtd:output.obj
 0001:0004b5c0       ?get_parameter_type@?$positional_parameter_base@DV?$string_output_adapter@D@__crt_stdio_output@@@__crt_stdio_output@@CA?AW4parameter_type@12@U_CRT_DOUBLE@@@Z 1004c5c0 f i libucrtd:output.obj
 0001:0004b5d0       ?get_parameter_type@?$positional_parameter_base@DV?$string_output_adapter@D@__crt_stdio_output@@@__crt_stdio_output@@CA?AW4parameter_type@12@_J@Z 1004c5d0 f i libucrtd:output.obj
 0001:0004b5e0       ?get_parameter_type@?$positional_parameter_base@DV?$string_output_adapter@D@__crt_stdio_output@@@__crt_stdio_output@@CA?AW4parameter_type@12@_K@Z 1004c5e0 f i libucrtd:output.obj
 0001:0004b5f0       ?get_parameter_type@?$positional_parameter_base@DV?$string_output_adapter@D@__crt_stdio_output@@@__crt_stdio_output@@CA?AW4parameter_type@12@_W@Z 1004c5f0 f i libucrtd:output.obj
 0001:0004b600       ?get_parameter_type@?$positional_parameter_base@_WV?$stream_output_adapter@_W@__crt_stdio_output@@@__crt_stdio_output@@CA?AW4parameter_type@12@F@Z 1004c600 f i libucrtd:output.obj
 0001:0004b610       ?get_parameter_type@?$positional_parameter_base@_WV?$stream_output_adapter@_W@__crt_stdio_output@@@__crt_stdio_output@@CA?AW4parameter_type@12@G@Z 1004c610 f i libucrtd:output.obj
 0001:0004b620       ?get_parameter_type@?$positional_parameter_base@_WV?$stream_output_adapter@_W@__crt_stdio_output@@@__crt_stdio_output@@CA?AW4parameter_type@12@H@Z 1004c620 f i libucrtd:output.obj
 0001:0004b630       ?get_parameter_type@?$positional_parameter_base@_WV?$stream_output_adapter@_W@__crt_stdio_output@@@__crt_stdio_output@@CA?AW4parameter_type@12@I@Z 1004c630 f i libucrtd:output.obj
 0001:0004b640       ?get_parameter_type@?$positional_parameter_base@_WV?$stream_output_adapter@_W@__crt_stdio_output@@@__crt_stdio_output@@CA?AW4parameter_type@12@U_CRT_DOUBLE@@@Z 1004c640 f i libucrtd:output.obj
 0001:0004b650       ?get_parameter_type@?$positional_parameter_base@_WV?$stream_output_adapter@_W@__crt_stdio_output@@@__crt_stdio_output@@CA?AW4parameter_type@12@_J@Z 1004c650 f i libucrtd:output.obj
 0001:0004b660       ?get_parameter_type@?$positional_parameter_base@_WV?$stream_output_adapter@_W@__crt_stdio_output@@@__crt_stdio_output@@CA?AW4parameter_type@12@_K@Z 1004c660 f i libucrtd:output.obj
 0001:0004b670       ?get_parameter_type@?$positional_parameter_base@_WV?$stream_output_adapter@_W@__crt_stdio_output@@@__crt_stdio_output@@CA?AW4parameter_type@12@_W@Z 1004c670 f i libucrtd:output.obj
 0001:0004b680       ?get_parameter_type@?$positional_parameter_base@_WV?$string_output_adapter@_W@__crt_stdio_output@@@__crt_stdio_output@@CA?AW4parameter_type@12@F@Z 1004c680 f i libucrtd:output.obj
 0001:0004b690       ?get_parameter_type@?$positional_parameter_base@_WV?$string_output_adapter@_W@__crt_stdio_output@@@__crt_stdio_output@@CA?AW4parameter_type@12@G@Z 1004c690 f i libucrtd:output.obj
 0001:0004b6a0       ?get_parameter_type@?$positional_parameter_base@_WV?$string_output_adapter@_W@__crt_stdio_output@@@__crt_stdio_output@@CA?AW4parameter_type@12@H@Z 1004c6a0 f i libucrtd:output.obj
 0001:0004b6b0       ?get_parameter_type@?$positional_parameter_base@_WV?$string_output_adapter@_W@__crt_stdio_output@@@__crt_stdio_output@@CA?AW4parameter_type@12@I@Z 1004c6b0 f i libucrtd:output.obj
 0001:0004b6c0       ?get_parameter_type@?$positional_parameter_base@_WV?$string_output_adapter@_W@__crt_stdio_output@@@__crt_stdio_output@@CA?AW4parameter_type@12@U_CRT_DOUBLE@@@Z 1004c6c0 f i libucrtd:output.obj
 0001:0004b6d0       ?get_parameter_type@?$positional_parameter_base@_WV?$string_output_adapter@_W@__crt_stdio_output@@@__crt_stdio_output@@CA?AW4parameter_type@12@_J@Z 1004c6d0 f i libucrtd:output.obj
 0001:0004b6e0       ?get_parameter_type@?$positional_parameter_base@_WV?$string_output_adapter@_W@__crt_stdio_output@@@__crt_stdio_output@@CA?AW4parameter_type@12@_K@Z 1004c6e0 f i libucrtd:output.obj
 0001:0004b6f0       ?get_parameter_type@?$positional_parameter_base@_WV?$string_output_adapter@_W@__crt_stdio_output@@@__crt_stdio_output@@CA?AW4parameter_type@12@_W@Z 1004c6f0 f i libucrtd:output.obj
 0001:0004b700       ?has_flag@?$output_processor@DV?$stream_output_adapter@D@__crt_stdio_output@@V?$format_validation_base@DV?$stream_output_adapter@D@__crt_stdio_output@@@2@@__crt_stdio_output@@ABE_NI@Z 1004c700 f i libucrtd:output.obj
 0001:0004b730       ?has_flag@?$output_processor@DV?$stream_output_adapter@D@__crt_stdio_output@@V?$positional_parameter_base@DV?$stream_output_adapter@D@__crt_stdio_output@@@2@@__crt_stdio_output@@ABE_NI@Z 1004c730 f i libucrtd:output.obj
 0001:0004b760       ?has_flag@?$output_processor@DV?$stream_output_adapter@D@__crt_stdio_output@@V?$standard_base@DV?$stream_output_adapter@D@__crt_stdio_output@@@2@@__crt_stdio_output@@ABE_NI@Z 1004c760 f i libucrtd:output.obj
 0001:0004b790       ?has_flag@?$output_processor@DV?$string_output_adapter@D@__crt_stdio_output@@V?$format_validation_base@DV?$string_output_adapter@D@__crt_stdio_output@@@2@@__crt_stdio_output@@ABE_NI@Z 1004c790 f i libucrtd:output.obj
 0001:0004b7c0       ?has_flag@?$output_processor@DV?$string_output_adapter@D@__crt_stdio_output@@V?$positional_parameter_base@DV?$string_output_adapter@D@__crt_stdio_output@@@2@@__crt_stdio_output@@ABE_NI@Z 1004c7c0 f i libucrtd:output.obj
 0001:0004b7f0       ?has_flag@?$output_processor@DV?$string_output_adapter@D@__crt_stdio_output@@V?$standard_base@DV?$string_output_adapter@D@__crt_stdio_output@@@2@@__crt_stdio_output@@ABE_NI@Z 1004c7f0 f i libucrtd:output.obj
 0001:0004b820       ?has_flag@?$output_processor@_WV?$stream_output_adapter@_W@__crt_stdio_output@@V?$format_validation_base@_WV?$stream_output_adapter@_W@__crt_stdio_output@@@2@@__crt_stdio_output@@ABE_NI@Z 1004c820 f i libucrtd:output.obj
 0001:0004b850       ?has_flag@?$output_processor@_WV?$stream_output_adapter@_W@__crt_stdio_output@@V?$positional_parameter_base@_WV?$stream_output_adapter@_W@__crt_stdio_output@@@2@@__crt_stdio_output@@ABE_NI@Z 1004c850 f i libucrtd:output.obj
 0001:0004b880       ?has_flag@?$output_processor@_WV?$stream_output_adapter@_W@__crt_stdio_output@@V?$standard_base@_WV?$stream_output_adapter@_W@__crt_stdio_output@@@2@@__crt_stdio_output@@ABE_NI@Z 1004c880 f i libucrtd:output.obj
 0001:0004b8b0       ?has_flag@?$output_processor@_WV?$string_output_adapter@_W@__crt_stdio_output@@V?$format_validation_base@_WV?$string_output_adapter@_W@__crt_stdio_output@@@2@@__crt_stdio_output@@ABE_NI@Z 1004c8b0 f i libucrtd:output.obj
 0001:0004b8e0       ?has_flag@?$output_processor@_WV?$string_output_adapter@_W@__crt_stdio_output@@V?$positional_parameter_base@_WV?$string_output_adapter@_W@__crt_stdio_output@@@2@@__crt_stdio_output@@ABE_NI@Z 1004c8e0 f i libucrtd:output.obj
 0001:0004b910       ?has_flag@?$output_processor@_WV?$string_output_adapter@_W@__crt_stdio_output@@V?$standard_base@_WV?$string_output_adapter@_W@__crt_stdio_output@@@2@@__crt_stdio_output@@ABE_NI@Z 1004c910 f i libucrtd:output.obj
 0001:0004b940       ?is_positional_parameter_reappearance_consistent@?$positional_parameter_base@DV?$stream_output_adapter@D@__crt_stdio_output@@@__crt_stdio_output@@AAE_NABUparameter_data@12@W4parameter_type@12@DW4length_modifier@2@@Z 1004c940 f i libucrtd:output.obj
 0001:0004bb70       ?is_positional_parameter_reappearance_consistent@?$positional_parameter_base@DV?$string_output_adapter@D@__crt_stdio_output@@@__crt_stdio_output@@AAE_NABUparameter_data@12@W4parameter_type@12@DW4length_modifier@2@@Z 1004cb70 f i libucrtd:output.obj
 0001:0004bda0       ?is_positional_parameter_reappearance_consistent@?$positional_parameter_base@_WV?$stream_output_adapter@_W@__crt_stdio_output@@@__crt_stdio_output@@AAE_NABUparameter_data@12@W4parameter_type@12@_WW4length_modifier@2@@Z 1004cda0 f i libucrtd:output.obj
 0001:0004bfd0       ?is_positional_parameter_reappearance_consistent@?$positional_parameter_base@_WV?$string_output_adapter@_W@__crt_stdio_output@@@__crt_stdio_output@@AAE_NABUparameter_data@12@W4parameter_type@12@_WW4length_modifier@2@@Z 1004cfd0 f i libucrtd:output.obj
 0001:0004c200       ?is_string_backed@__crt_stdio_stream@@QBE_NXZ 1004d200 f i libucrtd:output.obj
 0001:0004c240       ?narrow_null_string@?$output_processor@DV?$stream_output_adapter@D@__crt_stdio_output@@V?$format_validation_base@DV?$stream_output_adapter@D@__crt_stdio_output@@@2@@__crt_stdio_output@@CAPADXZ 1004d240 f i libucrtd:output.obj
 0001:0004c250       ?narrow_null_string@?$output_processor@DV?$stream_output_adapter@D@__crt_stdio_output@@V?$positional_parameter_base@DV?$stream_output_adapter@D@__crt_stdio_output@@@2@@__crt_stdio_output@@CAPADXZ 1004d250 f i libucrtd:output.obj
 0001:0004c260       ?narrow_null_string@?$output_processor@DV?$stream_output_adapter@D@__crt_stdio_output@@V?$standard_base@DV?$stream_output_adapter@D@__crt_stdio_output@@@2@@__crt_stdio_output@@CAPADXZ 1004d260 f i libucrtd:output.obj
 0001:0004c270       ?narrow_null_string@?$output_processor@DV?$string_output_adapter@D@__crt_stdio_output@@V?$format_validation_base@DV?$string_output_adapter@D@__crt_stdio_output@@@2@@__crt_stdio_output@@CAPADXZ 1004d270 f i libucrtd:output.obj
 0001:0004c280       ?narrow_null_string@?$output_processor@DV?$string_output_adapter@D@__crt_stdio_output@@V?$positional_parameter_base@DV?$string_output_adapter@D@__crt_stdio_output@@@2@@__crt_stdio_output@@CAPADXZ 1004d280 f i libucrtd:output.obj
 0001:0004c290       ?narrow_null_string@?$output_processor@DV?$string_output_adapter@D@__crt_stdio_output@@V?$standard_base@DV?$string_output_adapter@D@__crt_stdio_output@@@2@@__crt_stdio_output@@CAPADXZ 1004d290 f i libucrtd:output.obj
 0001:0004c2a0       ?narrow_null_string@?$output_processor@_WV?$stream_output_adapter@_W@__crt_stdio_output@@V?$format_validation_base@_WV?$stream_output_adapter@_W@__crt_stdio_output@@@2@@__crt_stdio_output@@CAPADXZ 1004d2a0 f i libucrtd:output.obj
 0001:0004c2b0       ?narrow_null_string@?$output_processor@_WV?$stream_output_adapter@_W@__crt_stdio_output@@V?$positional_parameter_base@_WV?$stream_output_adapter@_W@__crt_stdio_output@@@2@@__crt_stdio_output@@CAPADXZ 1004d2b0 f i libucrtd:output.obj
 0001:0004c2c0       ?narrow_null_string@?$output_processor@_WV?$stream_output_adapter@_W@__crt_stdio_output@@V?$standard_base@_WV?$stream_output_adapter@_W@__crt_stdio_output@@@2@@__crt_stdio_output@@CAPADXZ 1004d2c0 f i libucrtd:output.obj
 0001:0004c2d0       ?narrow_null_string@?$output_processor@_WV?$string_output_adapter@_W@__crt_stdio_output@@V?$format_validation_base@_WV?$string_output_adapter@_W@__crt_stdio_output@@@2@@__crt_stdio_output@@CAPADXZ 1004d2d0 f i libucrtd:output.obj
 0001:0004c2e0       ?narrow_null_string@?$output_processor@_WV?$string_output_adapter@_W@__crt_stdio_output@@V?$positional_parameter_base@_WV?$string_output_adapter@_W@__crt_stdio_output@@@2@@__crt_stdio_output@@CAPADXZ 1004d2e0 f i libucrtd:output.obj
 0001:0004c2f0       ?narrow_null_string@?$output_processor@_WV?$string_output_adapter@_W@__crt_stdio_output@@V?$standard_base@_WV?$string_output_adapter@_W@__crt_stdio_output@@@2@@__crt_stdio_output@@CAPADXZ 1004d2f0 f i libucrtd:output.obj
 0001:0004c300       ?parse_int_from_format_string@?$output_processor@DV?$stream_output_adapter@D@__crt_stdio_output@@V?$format_validation_base@DV?$stream_output_adapter@D@__crt_stdio_output@@@2@@__crt_stdio_output@@AAE_NQAH@Z 1004d300 f i libucrtd:output.obj
 0001:0004c3b0       ?parse_int_from_format_string@?$output_processor@DV?$stream_output_adapter@D@__crt_stdio_output@@V?$positional_parameter_base@DV?$stream_output_adapter@D@__crt_stdio_output@@@2@@__crt_stdio_output@@AAE_NQAH@Z 1004d3b0 f i libucrtd:output.obj
 0001:0004c460       ?parse_int_from_format_string@?$output_processor@DV?$stream_output_adapter@D@__crt_stdio_output@@V?$standard_base@DV?$stream_output_adapter@D@__crt_stdio_output@@@2@@__crt_stdio_output@@AAE_NQAH@Z 1004d460 f i libucrtd:output.obj
 0001:0004c510       ?parse_int_from_format_string@?$output_processor@DV?$string_output_adapter@D@__crt_stdio_output@@V?$format_validation_base@DV?$string_output_adapter@D@__crt_stdio_output@@@2@@__crt_stdio_output@@AAE_NQAH@Z 1004d510 f i libucrtd:output.obj
 0001:0004c5c0       ?parse_int_from_format_string@?$output_processor@DV?$string_output_adapter@D@__crt_stdio_output@@V?$positional_parameter_base@DV?$string_output_adapter@D@__crt_stdio_output@@@2@@__crt_stdio_output@@AAE_NQAH@Z 1004d5c0 f i libucrtd:output.obj
 0001:0004c670       ?parse_int_from_format_string@?$output_processor@DV?$string_output_adapter@D@__crt_stdio_output@@V?$standard_base@DV?$string_output_adapter@D@__crt_stdio_output@@@2@@__crt_stdio_output@@AAE_NQAH@Z 1004d670 f i libucrtd:output.obj
 0001:0004c720       ?parse_int_from_format_string@?$output_processor@_WV?$stream_output_adapter@_W@__crt_stdio_output@@V?$format_validation_base@_WV?$stream_output_adapter@_W@__crt_stdio_output@@@2@@__crt_stdio_output@@AAE_NQAH@Z 1004d720 f i libucrtd:output.obj
 0001:0004c7d0       ?parse_int_from_format_string@?$output_processor@_WV?$stream_output_adapter@_W@__crt_stdio_output@@V?$positional_parameter_base@_WV?$stream_output_adapter@_W@__crt_stdio_output@@@2@@__crt_stdio_output@@AAE_NQAH@Z 1004d7d0 f i libucrtd:output.obj
 0001:0004c880       ?parse_int_from_format_string@?$output_processor@_WV?$stream_output_adapter@_W@__crt_stdio_output@@V?$standard_base@_WV?$stream_output_adapter@_W@__crt_stdio_output@@@2@@__crt_stdio_output@@AAE_NQAH@Z 1004d880 f i libucrtd:output.obj
 0001:0004c930       ?parse_int_from_format_string@?$output_processor@_WV?$string_output_adapter@_W@__crt_stdio_output@@V?$format_validation_base@_WV?$string_output_adapter@_W@__crt_stdio_output@@@2@@__crt_stdio_output@@AAE_NQAH@Z 1004d930 f i libucrtd:output.obj
 0001:0004c9e0       ?parse_int_from_format_string@?$output_processor@_WV?$string_output_adapter@_W@__crt_stdio_output@@V?$positional_parameter_base@_WV?$string_output_adapter@_W@__crt_stdio_output@@@2@@__crt_stdio_output@@AAE_NQAH@Z 1004d9e0 f i libucrtd:output.obj
 0001:0004ca90       ?parse_int_from_format_string@?$output_processor@_WV?$string_output_adapter@_W@__crt_stdio_output@@V?$standard_base@_WV?$string_output_adapter@_W@__crt_stdio_output@@@2@@__crt_stdio_output@@AAE_NQAH@Z 1004da90 f i libucrtd:output.obj
 0001:0004cb40       ?process@?$output_processor@DV?$stream_output_adapter@D@__crt_stdio_output@@V?$format_validation_base@DV?$stream_output_adapter@D@__crt_stdio_output@@@2@@__crt_stdio_output@@QAEHXZ 1004db40 f i libucrtd:output.obj
 0001:0004cdf0       ?process@?$output_processor@DV?$stream_output_adapter@D@__crt_stdio_output@@V?$positional_parameter_base@DV?$stream_output_adapter@D@__crt_stdio_output@@@2@@__crt_stdio_output@@QAEHXZ 1004ddf0 f i libucrtd:output.obj
 0001:0004d0a0       ?process@?$output_processor@DV?$stream_output_adapter@D@__crt_stdio_output@@V?$standard_base@DV?$stream_output_adapter@D@__crt_stdio_output@@@2@@__crt_stdio_output@@QAEHXZ 1004e0a0 f i libucrtd:output.obj
 0001:0004d350       ?process@?$output_processor@DV?$string_output_adapter@D@__crt_stdio_output@@V?$format_validation_base@DV?$string_output_adapter@D@__crt_stdio_output@@@2@@__crt_stdio_output@@QAEHXZ 1004e350 f i libucrtd:output.obj
 0001:0004d600       ?process@?$output_processor@DV?$string_output_adapter@D@__crt_stdio_output@@V?$positional_parameter_base@DV?$string_output_adapter@D@__crt_stdio_output@@@2@@__crt_stdio_output@@QAEHXZ 1004e600 f i libucrtd:output.obj
 0001:0004d8b0       ?process@?$output_processor@DV?$string_output_adapter@D@__crt_stdio_output@@V?$standard_base@DV?$string_output_adapter@D@__crt_stdio_output@@@2@@__crt_stdio_output@@QAEHXZ 1004e8b0 f i libucrtd:output.obj
 0001:0004db60       ?process@?$output_processor@_WV?$stream_output_adapter@_W@__crt_stdio_output@@V?$format_validation_base@_WV?$stream_output_adapter@_W@__crt_stdio_output@@@2@@__crt_stdio_output@@QAEHXZ 1004eb60 f i libucrtd:output.obj
 0001:0004de10       ?process@?$output_processor@_WV?$stream_output_adapter@_W@__crt_stdio_output@@V?$positional_parameter_base@_WV?$stream_output_adapter@_W@__crt_stdio_output@@@2@@__crt_stdio_output@@QAEHXZ 1004ee10 f i libucrtd:output.obj
 0001:0004e0c0       ?process@?$output_processor@_WV?$stream_output_adapter@_W@__crt_stdio_output@@V?$standard_base@_WV?$stream_output_adapter@_W@__crt_stdio_output@@@2@@__crt_stdio_output@@QAEHXZ 1004f0c0 f i libucrtd:output.obj
 0001:0004e370       ?process@?$output_processor@_WV?$string_output_adapter@_W@__crt_stdio_output@@V?$format_validation_base@_WV?$string_output_adapter@_W@__crt_stdio_output@@@2@@__crt_stdio_output@@QAEHXZ 1004f370 f i libucrtd:output.obj
 0001:0004e620       ?process@?$output_processor@_WV?$string_output_adapter@_W@__crt_stdio_output@@V?$positional_parameter_base@_WV?$string_output_adapter@_W@__crt_stdio_output@@@2@@__crt_stdio_output@@QAEHXZ 1004f620 f i libucrtd:output.obj
 0001:0004e8d0       ?process@?$output_processor@_WV?$string_output_adapter@_W@__crt_stdio_output@@V?$standard_base@_WV?$string_output_adapter@_W@__crt_stdio_output@@@2@@__crt_stdio_output@@QAEHXZ 1004f8d0 f i libucrtd:output.obj
 0001:0004eb80       ?public_stream@__crt_stdio_stream@@QBEPAU_iobuf@@XZ 1004fb80 f i libucrtd:output.obj
 0001:0004eba0       ?set_flag@?$output_processor@DV?$stream_output_adapter@D@__crt_stdio_output@@V?$format_validation_base@DV?$stream_output_adapter@D@__crt_stdio_output@@@2@@__crt_stdio_output@@AAEXI@Z 1004fba0 f i libucrtd:output.obj
 0001:0004ebc0       ?set_flag@?$output_processor@DV?$stream_output_adapter@D@__crt_stdio_output@@V?$positional_parameter_base@DV?$stream_output_adapter@D@__crt_stdio_output@@@2@@__crt_stdio_output@@AAEXI@Z 1004fbc0 f i libucrtd:output.obj
 0001:0004ebe0       ?set_flag@?$output_processor@DV?$stream_output_adapter@D@__crt_stdio_output@@V?$standard_base@DV?$stream_output_adapter@D@__crt_stdio_output@@@2@@__crt_stdio_output@@AAEXI@Z 1004fbe0 f i libucrtd:output.obj
 0001:0004ec00       ?set_flag@?$output_processor@DV?$string_output_adapter@D@__crt_stdio_output@@V?$format_validation_base@DV?$string_output_adapter@D@__crt_stdio_output@@@2@@__crt_stdio_output@@AAEXI@Z 1004fc00 f i libucrtd:output.obj
 0001:0004ec20       ?set_flag@?$output_processor@DV?$string_output_adapter@D@__crt_stdio_output@@V?$positional_parameter_base@DV?$string_output_adapter@D@__crt_stdio_output@@@2@@__crt_stdio_output@@AAEXI@Z 1004fc20 f i libucrtd:output.obj
 0001:0004ec40       ?set_flag@?$output_processor@DV?$string_output_adapter@D@__crt_stdio_output@@V?$standard_base@DV?$string_output_adapter@D@__crt_stdio_output@@@2@@__crt_stdio_output@@AAEXI@Z 1004fc40 f i libucrtd:output.obj
 0001:0004ec60       ?set_flag@?$output_processor@_WV?$stream_output_adapter@_W@__crt_stdio_output@@V?$format_validation_base@_WV?$stream_output_adapter@_W@__crt_stdio_output@@@2@@__crt_stdio_output@@AAEXI@Z 1004fc60 f i libucrtd:output.obj
 0001:0004ec80       ?set_flag@?$output_processor@_WV?$stream_output_adapter@_W@__crt_stdio_output@@V?$positional_parameter_base@_WV?$stream_output_adapter@_W@__crt_stdio_output@@@2@@__crt_stdio_output@@AAEXI@Z 1004fc80 f i libucrtd:output.obj
 0001:0004eca0       ?set_flag@?$output_processor@_WV?$stream_output_adapter@_W@__crt_stdio_output@@V?$standard_base@_WV?$stream_output_adapter@_W@__crt_stdio_output@@@2@@__crt_stdio_output@@AAEXI@Z 1004fca0 f i libucrtd:output.obj
 0001:0004ecc0       ?set_flag@?$output_processor@_WV?$string_output_adapter@_W@__crt_stdio_output@@V?$format_validation_base@_WV?$string_output_adapter@_W@__crt_stdio_output@@@2@@__crt_stdio_output@@AAEXI@Z 1004fcc0 f i libucrtd:output.obj
 0001:0004ece0       ?set_flag@?$output_processor@_WV?$string_output_adapter@_W@__crt_stdio_output@@V?$positional_parameter_base@_WV?$string_output_adapter@_W@__crt_stdio_output@@@2@@__crt_stdio_output@@AAEXI@Z 1004fce0 f i libucrtd:output.obj
 0001:0004ed00       ?set_flag@?$output_processor@_WV?$string_output_adapter@_W@__crt_stdio_output@@V?$standard_base@_WV?$string_output_adapter@_W@__crt_stdio_output@@@2@@__crt_stdio_output@@AAEXI@Z 1004fd00 f i libucrtd:output.obj
 0001:0004ed20       ?should_format@?$positional_parameter_base@DV?$stream_output_adapter@D@__crt_stdio_output@@@__crt_stdio_output@@IAE_NXZ 1004fd20 f i libucrtd:output.obj
 0001:0004ed60       ?should_format@?$positional_parameter_base@DV?$string_output_adapter@D@__crt_stdio_output@@@__crt_stdio_output@@IAE_NXZ 1004fd60 f i libucrtd:output.obj
 0001:0004eda0       ?should_format@?$positional_parameter_base@_WV?$stream_output_adapter@_W@__crt_stdio_output@@@__crt_stdio_output@@IAE_NXZ 1004fda0 f i libucrtd:output.obj
 0001:0004ede0       ?should_format@?$positional_parameter_base@_WV?$string_output_adapter@_W@__crt_stdio_output@@@__crt_stdio_output@@IAE_NXZ 1004fde0 f i libucrtd:output.obj
 0001:0004ee20       ?should_format@?$standard_base@DV?$stream_output_adapter@D@__crt_stdio_output@@@__crt_stdio_output@@IAE_NXZ 1004fe20 f i libucrtd:output.obj
 0001:0004ee30       ?should_format@?$standard_base@DV?$string_output_adapter@D@__crt_stdio_output@@@__crt_stdio_output@@IAE_NXZ 1004fe30 f i libucrtd:output.obj
 0001:0004ee40       ?should_format@?$standard_base@_WV?$stream_output_adapter@_W@__crt_stdio_output@@@__crt_stdio_output@@IAE_NXZ 1004fe40 f i libucrtd:output.obj
 0001:0004ee50       ?should_format@?$standard_base@_WV?$string_output_adapter@_W@__crt_stdio_output@@@__crt_stdio_output@@IAE_NXZ 1004fe50 f i libucrtd:output.obj
 0001:0004ee60       ?should_skip_normal_state_processing@?$positional_parameter_base@DV?$stream_output_adapter@D@__crt_stdio_output@@@__crt_stdio_output@@IAE_NXZ 1004fe60 f i libucrtd:output.obj
 0001:0004eeb0       ?should_skip_normal_state_processing@?$positional_parameter_base@DV?$string_output_adapter@D@__crt_stdio_output@@@__crt_stdio_output@@IAE_NXZ 1004feb0 f i libucrtd:output.obj
 0001:0004ef00       ?should_skip_normal_state_processing@?$positional_parameter_base@_WV?$stream_output_adapter@_W@__crt_stdio_output@@@__crt_stdio_output@@IAE_NXZ 1004ff00 f i libucrtd:output.obj
 0001:0004ef50       ?should_skip_normal_state_processing@?$positional_parameter_base@_WV?$string_output_adapter@_W@__crt_stdio_output@@@__crt_stdio_output@@IAE_NXZ 1004ff50 f i libucrtd:output.obj
 0001:0004efa0       ?should_skip_normal_state_processing@?$standard_base@DV?$stream_output_adapter@D@__crt_stdio_output@@@__crt_stdio_output@@IAE_NXZ 1004ffa0 f i libucrtd:output.obj
 0001:0004efb0       ?should_skip_normal_state_processing@?$standard_base@DV?$string_output_adapter@D@__crt_stdio_output@@@__crt_stdio_output@@IAE_NXZ 1004ffb0 f i libucrtd:output.obj
 0001:0004efc0       ?should_skip_normal_state_processing@?$standard_base@_WV?$stream_output_adapter@_W@__crt_stdio_output@@@__crt_stdio_output@@IAE_NXZ 1004ffc0 f i libucrtd:output.obj
 0001:0004efd0       ?should_skip_normal_state_processing@?$standard_base@_WV?$string_output_adapter@_W@__crt_stdio_output@@@__crt_stdio_output@@IAE_NXZ 1004ffd0 f i libucrtd:output.obj
 0001:0004efe0       ?should_skip_type_state_output@?$positional_parameter_base@DV?$stream_output_adapter@D@__crt_stdio_output@@@__crt_stdio_output@@IBE_NXZ 1004ffe0 f i libucrtd:output.obj
 0001:0004f020       ?should_skip_type_state_output@?$positional_parameter_base@DV?$string_output_adapter@D@__crt_stdio_output@@@__crt_stdio_output@@IBE_NXZ 10050020 f i libucrtd:output.obj
 0001:0004f060       ?should_skip_type_state_output@?$positional_parameter_base@_WV?$stream_output_adapter@_W@__crt_stdio_output@@@__crt_stdio_output@@IBE_NXZ 10050060 f i libucrtd:output.obj
 0001:0004f0a0       ?should_skip_type_state_output@?$positional_parameter_base@_WV?$string_output_adapter@_W@__crt_stdio_output@@@__crt_stdio_output@@IBE_NXZ 100500a0 f i libucrtd:output.obj
 0001:0004f0e0       ?should_skip_type_state_output@?$standard_base@DV?$stream_output_adapter@D@__crt_stdio_output@@@__crt_stdio_output@@IBE_NXZ 100500e0 f i libucrtd:output.obj
 0001:0004f0f0       ?should_skip_type_state_output@?$standard_base@DV?$string_output_adapter@D@__crt_stdio_output@@@__crt_stdio_output@@IBE_NXZ 100500f0 f i libucrtd:output.obj
 0001:0004f100       ?should_skip_type_state_output@?$standard_base@_WV?$stream_output_adapter@_W@__crt_stdio_output@@@__crt_stdio_output@@IBE_NXZ 10050100 f i libucrtd:output.obj
 0001:0004f110       ?should_skip_type_state_output@?$standard_base@_WV?$string_output_adapter@_W@__crt_stdio_output@@@__crt_stdio_output@@IBE_NXZ 10050110 f i libucrtd:output.obj
 0001:0004f120       ?state_case_dot@?$output_processor@DV?$stream_output_adapter@D@__crt_stdio_output@@V?$format_validation_base@DV?$stream_output_adapter@D@__crt_stdio_output@@@2@@__crt_stdio_output@@AAE_NXZ 10050120 f i libucrtd:output.obj
 0001:0004f140       ?state_case_dot@?$output_processor@DV?$stream_output_adapter@D@__crt_stdio_output@@V?$positional_parameter_base@DV?$stream_output_adapter@D@__crt_stdio_output@@@2@@__crt_stdio_output@@AAE_NXZ 10050140 f i libucrtd:output.obj
 0001:0004f160       ?state_case_dot@?$output_processor@DV?$stream_output_adapter@D@__crt_stdio_output@@V?$standard_base@DV?$stream_output_adapter@D@__crt_stdio_output@@@2@@__crt_stdio_output@@AAE_NXZ 10050160 f i libucrtd:output.obj
 0001:0004f180       ?state_case_dot@?$output_processor@DV?$string_output_adapter@D@__crt_stdio_output@@V?$format_validation_base@DV?$string_output_adapter@D@__crt_stdio_output@@@2@@__crt_stdio_output@@AAE_NXZ 10050180 f i libucrtd:output.obj
 0001:0004f1a0       ?state_case_dot@?$output_processor@DV?$string_output_adapter@D@__crt_stdio_output@@V?$positional_parameter_base@DV?$string_output_adapter@D@__crt_stdio_output@@@2@@__crt_stdio_output@@AAE_NXZ 100501a0 f i libucrtd:output.obj
 0001:0004f1c0       ?state_case_dot@?$output_processor@DV?$string_output_adapter@D@__crt_stdio_output@@V?$standard_base@DV?$string_output_adapter@D@__crt_stdio_output@@@2@@__crt_stdio_output@@AAE_NXZ 100501c0 f i libucrtd:output.obj
 0001:0004f1e0       ?state_case_dot@?$output_processor@_WV?$stream_output_adapter@_W@__crt_stdio_output@@V?$format_validation_base@_WV?$stream_output_adapter@_W@__crt_stdio_output@@@2@@__crt_stdio_output@@AAE_NXZ 100501e0 f i libucrtd:output.obj
 0001:0004f200       ?state_case_dot@?$output_processor@_WV?$stream_output_adapter@_W@__crt_stdio_output@@V?$positional_parameter_base@_WV?$stream_output_adapter@_W@__crt_stdio_output@@@2@@__crt_stdio_output@@AAE_NXZ 10050200 f i libucrtd:output.obj
 0001:0004f220       ?state_case_dot@?$output_processor@_WV?$stream_output_adapter@_W@__crt_stdio_output@@V?$standard_base@_WV?$stream_output_adapter@_W@__crt_stdio_output@@@2@@__crt_stdio_output@@AAE_NXZ 10050220 f i libucrtd:output.obj
 0001:0004f240       ?state_case_dot@?$output_processor@_WV?$string_output_adapter@_W@__crt_stdio_output@@V?$format_validation_base@_WV?$string_output_adapter@_W@__crt_stdio_output@@@2@@__crt_stdio_output@@AAE_NXZ 10050240 f i libucrtd:output.obj
 0001:0004f260       ?state_case_dot@?$output_processor@_WV?$string_output_adapter@_W@__crt_stdio_output@@V?$positional_parameter_base@_WV?$string_output_adapter@_W@__crt_stdio_output@@@2@@__crt_stdio_output@@AAE_NXZ 10050260 f i libucrtd:output.obj
 0001:0004f280       ?state_case_dot@?$output_processor@_WV?$string_output_adapter@_W@__crt_stdio_output@@V?$standard_base@_WV?$string_output_adapter@_W@__crt_stdio_output@@@2@@__crt_stdio_output@@AAE_NXZ 10050280 f i libucrtd:output.obj
 0001:0004f2a0       ?state_case_flag@?$output_processor@DV?$stream_output_adapter@D@__crt_stdio_output@@V?$format_validation_base@DV?$stream_output_adapter@D@__crt_stdio_output@@@2@@__crt_stdio_output@@AAE_NXZ 100502a0 f i libucrtd:output.obj
 0001:0004f350       ?state_case_flag@?$output_processor@DV?$stream_output_adapter@D@__crt_stdio_output@@V?$positional_parameter_base@DV?$stream_output_adapter@D@__crt_stdio_output@@@2@@__crt_stdio_output@@AAE_NXZ 10050350 f i libucrtd:output.obj
 0001:0004f400       ?state_case_flag@?$output_processor@DV?$stream_output_adapter@D@__crt_stdio_output@@V?$standard_base@DV?$stream_output_adapter@D@__crt_stdio_output@@@2@@__crt_stdio_output@@AAE_NXZ 10050400 f i libucrtd:output.obj
 0001:0004f4b0       ?state_case_flag@?$output_processor@DV?$string_output_adapter@D@__crt_stdio_output@@V?$format_validation_base@DV?$string_output_adapter@D@__crt_stdio_output@@@2@@__crt_stdio_output@@AAE_NXZ 100504b0 f i libucrtd:output.obj
 0001:0004f560       ?state_case_flag@?$output_processor@DV?$string_output_adapter@D@__crt_stdio_output@@V?$positional_parameter_base@DV?$string_output_adapter@D@__crt_stdio_output@@@2@@__crt_stdio_output@@AAE_NXZ 10050560 f i libucrtd:output.obj
 0001:0004f610       ?state_case_flag@?$output_processor@DV?$string_output_adapter@D@__crt_stdio_output@@V?$standard_base@DV?$string_output_adapter@D@__crt_stdio_output@@@2@@__crt_stdio_output@@AAE_NXZ 10050610 f i libucrtd:output.obj
 0001:0004f6c0       ?state_case_flag@?$output_processor@_WV?$stream_output_adapter@_W@__crt_stdio_output@@V?$format_validation_base@_WV?$stream_output_adapter@_W@__crt_stdio_output@@@2@@__crt_stdio_output@@AAE_NXZ 100506c0 f i libucrtd:output.obj
 0001:0004f770       ?state_case_flag@?$output_processor@_WV?$stream_output_adapter@_W@__crt_stdio_output@@V?$positional_parameter_base@_WV?$stream_output_adapter@_W@__crt_stdio_output@@@2@@__crt_stdio_output@@AAE_NXZ 10050770 f i libucrtd:output.obj
 0001:0004f820       ?state_case_flag@?$output_processor@_WV?$stream_output_adapter@_W@__crt_stdio_output@@V?$standard_base@_WV?$stream_output_adapter@_W@__crt_stdio_output@@@2@@__crt_stdio_output@@AAE_NXZ 10050820 f i libucrtd:output.obj
 0001:0004f8d0       ?state_case_flag@?$output_processor@_WV?$string_output_adapter@_W@__crt_stdio_output@@V?$format_validation_base@_WV?$string_output_adapter@_W@__crt_stdio_output@@@2@@__crt_stdio_output@@AAE_NXZ 100508d0 f i libucrtd:output.obj
 0001:0004f980       ?state_case_flag@?$output_processor@_WV?$string_output_adapter@_W@__crt_stdio_output@@V?$positional_parameter_base@_WV?$string_output_adapter@_W@__crt_stdio_output@@@2@@__crt_stdio_output@@AAE_NXZ 10050980 f i libucrtd:output.obj
 0001:0004fa30       ?state_case_flag@?$output_processor@_WV?$string_output_adapter@_W@__crt_stdio_output@@V?$standard_base@_WV?$string_output_adapter@_W@__crt_stdio_output@@@2@@__crt_stdio_output@@AAE_NXZ 10050a30 f i libucrtd:output.obj
 0001:0004fae0       ?state_case_normal@?$output_processor@DV?$stream_output_adapter@D@__crt_stdio_output@@V?$format_validation_base@DV?$stream_output_adapter@D@__crt_stdio_output@@@2@@__crt_stdio_output@@AAE_NXZ 10050ae0 f i libucrtd:output.obj
 0001:0004fb90       ?state_case_normal@?$output_processor@DV?$stream_output_adapter@D@__crt_stdio_output@@V?$positional_parameter_base@DV?$stream_output_adapter@D@__crt_stdio_output@@@2@@__crt_stdio_output@@AAE_NXZ 10050b90 f i libucrtd:output.obj
 0001:0004fc40       ?state_case_normal@?$output_processor@DV?$stream_output_adapter@D@__crt_stdio_output@@V?$standard_base@DV?$stream_output_adapter@D@__crt_stdio_output@@@2@@__crt_stdio_output@@AAE_NXZ 10050c40 f i libucrtd:output.obj
 0001:0004fcf0       ?state_case_normal@?$output_processor@DV?$string_output_adapter@D@__crt_stdio_output@@V?$format_validation_base@DV?$string_output_adapter@D@__crt_stdio_output@@@2@@__crt_stdio_output@@AAE_NXZ 10050cf0 f i libucrtd:output.obj
 0001:0004fda0       ?state_case_normal@?$output_processor@DV?$string_output_adapter@D@__crt_stdio_output@@V?$positional_parameter_base@DV?$string_output_adapter@D@__crt_stdio_output@@@2@@__crt_stdio_output@@AAE_NXZ 10050da0 f i libucrtd:output.obj
 0001:0004fe50       ?state_case_normal@?$output_processor@DV?$string_output_adapter@D@__crt_stdio_output@@V?$standard_base@DV?$string_output_adapter@D@__crt_stdio_output@@@2@@__crt_stdio_output@@AAE_NXZ 10050e50 f i libucrtd:output.obj
 0001:0004ff00       ?state_case_normal@?$output_processor@_WV?$stream_output_adapter@_W@__crt_stdio_output@@V?$format_validation_base@_WV?$stream_output_adapter@_W@__crt_stdio_output@@@2@@__crt_stdio_output@@AAE_NXZ 10050f00 f i libucrtd:output.obj
 0001:0004ffb0       ?state_case_normal@?$output_processor@_WV?$stream_output_adapter@_W@__crt_stdio_output@@V?$positional_parameter_base@_WV?$stream_output_adapter@_W@__crt_stdio_output@@@2@@__crt_stdio_output@@AAE_NXZ 10050fb0 f i libucrtd:output.obj
 0001:00050060       ?state_case_normal@?$output_processor@_WV?$stream_output_adapter@_W@__crt_stdio_output@@V?$standard_base@_WV?$stream_output_adapter@_W@__crt_stdio_output@@@2@@__crt_stdio_output@@AAE_NXZ 10051060 f i libucrtd:output.obj
 0001:00050110       ?state_case_normal@?$output_processor@_WV?$string_output_adapter@_W@__crt_stdio_output@@V?$format_validation_base@_WV?$string_output_adapter@_W@__crt_stdio_output@@@2@@__crt_stdio_output@@AAE_NXZ 10051110 f i libucrtd:output.obj
 0001:000501c0       ?state_case_normal@?$output_processor@_WV?$string_output_adapter@_W@__crt_stdio_output@@V?$positional_parameter_base@_WV?$string_output_adapter@_W@__crt_stdio_output@@@2@@__crt_stdio_output@@AAE_NXZ 100511c0 f i libucrtd:output.obj
 0001:00050270       ?state_case_normal@?$output_processor@_WV?$string_output_adapter@_W@__crt_stdio_output@@V?$standard_base@_WV?$string_output_adapter@_W@__crt_stdio_output@@@2@@__crt_stdio_output@@AAE_NXZ 10051270 f i libucrtd:output.obj
 0001:00050320       ?state_case_normal_common@?$output_processor@DV?$stream_output_adapter@D@__crt_stdio_output@@V?$format_validation_base@DV?$stream_output_adapter@D@__crt_stdio_output@@@2@@__crt_stdio_output@@AAE_NXZ 10051320 f i libucrtd:output.obj
 0001:00050370       ?state_case_normal_common@?$output_processor@DV?$stream_output_adapter@D@__crt_stdio_output@@V?$positional_parameter_base@DV?$stream_output_adapter@D@__crt_stdio_output@@@2@@__crt_stdio_output@@AAE_NXZ 10051370 f i libucrtd:output.obj
 0001:000503c0       ?state_case_normal_common@?$output_processor@DV?$stream_output_adapter@D@__crt_stdio_output@@V?$standard_base@DV?$stream_output_adapter@D@__crt_stdio_output@@@2@@__crt_stdio_output@@AAE_NXZ 100513c0 f i libucrtd:output.obj
 0001:00050410       ?state_case_normal_common@?$output_processor@DV?$string_output_adapter@D@__crt_stdio_output@@V?$format_validation_base@DV?$string_output_adapter@D@__crt_stdio_output@@@2@@__crt_stdio_output@@AAE_NXZ 10051410 f i libucrtd:output.obj
 0001:00050460       ?state_case_normal_common@?$output_processor@DV?$string_output_adapter@D@__crt_stdio_output@@V?$positional_parameter_base@DV?$string_output_adapter@D@__crt_stdio_output@@@2@@__crt_stdio_output@@AAE_NXZ 10051460 f i libucrtd:output.obj
 0001:000504b0       ?state_case_normal_common@?$output_processor@DV?$string_output_adapter@D@__crt_stdio_output@@V?$standard_base@DV?$string_output_adapter@D@__crt_stdio_output@@@2@@__crt_stdio_output@@AAE_NXZ 100514b0 f i libucrtd:output.obj
 0001:00050500       ?state_case_normal_common@?$output_processor@_WV?$stream_output_adapter@_W@__crt_stdio_output@@V?$format_validation_base@_WV?$stream_output_adapter@_W@__crt_stdio_output@@@2@@__crt_stdio_output@@AAE_NXZ 10051500 f i libucrtd:output.obj
 0001:00050550       ?state_case_normal_common@?$output_processor@_WV?$stream_output_adapter@_W@__crt_stdio_output@@V?$positional_parameter_base@_WV?$stream_output_adapter@_W@__crt_stdio_output@@@2@@__crt_stdio_output@@AAE_NXZ 10051550 f i libucrtd:output.obj
 0001:000505a0       ?state_case_normal_common@?$output_processor@_WV?$stream_output_adapter@_W@__crt_stdio_output@@V?$standard_base@_WV?$stream_output_adapter@_W@__crt_stdio_output@@@2@@__crt_stdio_output@@AAE_NXZ 100515a0 f i libucrtd:output.obj
 0001:000505f0       ?state_case_normal_common@?$output_processor@_WV?$string_output_adapter@_W@__crt_stdio_output@@V?$format_validation_base@_WV?$string_output_adapter@_W@__crt_stdio_output@@@2@@__crt_stdio_output@@AAE_NXZ 100515f0 f i libucrtd:output.obj
 0001:00050640       ?state_case_normal_common@?$output_processor@_WV?$string_output_adapter@_W@__crt_stdio_output@@V?$positional_parameter_base@_WV?$string_output_adapter@_W@__crt_stdio_output@@@2@@__crt_stdio_output@@AAE_NXZ 10051640 f i libucrtd:output.obj
 0001:00050690       ?state_case_normal_common@?$output_processor@_WV?$string_output_adapter@_W@__crt_stdio_output@@V?$standard_base@_WV?$string_output_adapter@_W@__crt_stdio_output@@@2@@__crt_stdio_output@@AAE_NXZ 10051690 f i libucrtd:output.obj
 0001:000506e0       ?state_case_normal_tchar@?$output_processor@DV?$stream_output_adapter@D@__crt_stdio_output@@V?$format_validation_base@DV?$stream_output_adapter@D@__crt_stdio_output@@@2@@__crt_stdio_output@@AAE_ND@Z 100516e0 f i libucrtd:output.obj
 0001:000507e0       ?state_case_normal_tchar@?$output_processor@DV?$stream_output_adapter@D@__crt_stdio_output@@V?$positional_parameter_base@DV?$stream_output_adapter@D@__crt_stdio_output@@@2@@__crt_stdio_output@@AAE_ND@Z 100517e0 f i libucrtd:output.obj
 0001:000508e0       ?state_case_normal_tchar@?$output_processor@DV?$stream_output_adapter@D@__crt_stdio_output@@V?$standard_base@DV?$stream_output_adapter@D@__crt_stdio_output@@@2@@__crt_stdio_output@@AAE_ND@Z 100518e0 f i libucrtd:output.obj
 0001:000509e0       ?state_case_normal_tchar@?$output_processor@DV?$string_output_adapter@D@__crt_stdio_output@@V?$format_validation_base@DV?$string_output_adapter@D@__crt_stdio_output@@@2@@__crt_stdio_output@@AAE_ND@Z 100519e0 f i libucrtd:output.obj
 0001:00050ae0       ?state_case_normal_tchar@?$output_processor@DV?$string_output_adapter@D@__crt_stdio_output@@V?$positional_parameter_base@DV?$string_output_adapter@D@__crt_stdio_output@@@2@@__crt_stdio_output@@AAE_ND@Z 10051ae0 f i libucrtd:output.obj
 0001:00050be0       ?state_case_normal_tchar@?$output_processor@DV?$string_output_adapter@D@__crt_stdio_output@@V?$standard_base@DV?$string_output_adapter@D@__crt_stdio_output@@@2@@__crt_stdio_output@@AAE_ND@Z 10051be0 f i libucrtd:output.obj
 0001:00050ce0       ?state_case_normal_tchar@?$output_processor@_WV?$stream_output_adapter@_W@__crt_stdio_output@@V?$format_validation_base@_WV?$stream_output_adapter@_W@__crt_stdio_output@@@2@@__crt_stdio_output@@AAE_N_W@Z 10051ce0 f i libucrtd:output.obj
 0001:00050d00       ?state_case_normal_tchar@?$output_processor@_WV?$stream_output_adapter@_W@__crt_stdio_output@@V?$positional_parameter_base@_WV?$stream_output_adapter@_W@__crt_stdio_output@@@2@@__crt_stdio_output@@AAE_N_W@Z 10051d00 f i libucrtd:output.obj
 0001:00050d20       ?state_case_normal_tchar@?$output_processor@_WV?$stream_output_adapter@_W@__crt_stdio_output@@V?$standard_base@_WV?$stream_output_adapter@_W@__crt_stdio_output@@@2@@__crt_stdio_output@@AAE_N_W@Z 10051d20 f i libucrtd:output.obj
 0001:00050d40       ?state_case_normal_tchar@?$output_processor@_WV?$string_output_adapter@_W@__crt_stdio_output@@V?$format_validation_base@_WV?$string_output_adapter@_W@__crt_stdio_output@@@2@@__crt_stdio_output@@AAE_N_W@Z 10051d40 f i libucrtd:output.obj
 0001:00050d60       ?state_case_normal_tchar@?$output_processor@_WV?$string_output_adapter@_W@__crt_stdio_output@@V?$positional_parameter_base@_WV?$string_output_adapter@_W@__crt_stdio_output@@@2@@__crt_stdio_output@@AAE_N_W@Z 10051d60 f i libucrtd:output.obj
 0001:00050d80       ?state_case_normal_tchar@?$output_processor@_WV?$string_output_adapter@_W@__crt_stdio_output@@V?$standard_base@_WV?$string_output_adapter@_W@__crt_stdio_output@@@2@@__crt_stdio_output@@AAE_N_W@Z 10051d80 f i libucrtd:output.obj
 0001:00050da0       ?state_case_percent@?$output_processor@DV?$stream_output_adapter@D@__crt_stdio_output@@V?$format_validation_base@DV?$stream_output_adapter@D@__crt_stdio_output@@@2@@__crt_stdio_output@@AAE_NXZ 10051da0 f i libucrtd:output.obj
 0001:00050df0       ?state_case_percent@?$output_processor@DV?$stream_output_adapter@D@__crt_stdio_output@@V?$positional_parameter_base@DV?$stream_output_adapter@D@__crt_stdio_output@@@2@@__crt_stdio_output@@AAE_NXZ 10051df0 f i libucrtd:output.obj
 0001:00050e40       ?state_case_percent@?$output_processor@DV?$stream_output_adapter@D@__crt_stdio_output@@V?$standard_base@DV?$stream_output_adapter@D@__crt_stdio_output@@@2@@__crt_stdio_output@@AAE_NXZ 10051e40 f i libucrtd:output.obj
 0001:00050e90       ?state_case_percent@?$output_processor@DV?$string_output_adapter@D@__crt_stdio_output@@V?$format_validation_base@DV?$string_output_adapter@D@__crt_stdio_output@@@2@@__crt_stdio_output@@AAE_NXZ 10051e90 f i libucrtd:output.obj
 0001:00050ee0       ?state_case_percent@?$output_processor@DV?$string_output_adapter@D@__crt_stdio_output@@V?$positional_parameter_base@DV?$string_output_adapter@D@__crt_stdio_output@@@2@@__crt_stdio_output@@AAE_NXZ 10051ee0 f i libucrtd:output.obj
 0001:00050f30       ?state_case_percent@?$output_processor@DV?$string_output_adapter@D@__crt_stdio_output@@V?$standard_base@DV?$string_output_adapter@D@__crt_stdio_output@@@2@@__crt_stdio_output@@AAE_NXZ 10051f30 f i libucrtd:output.obj
 0001:00050f80       ?state_case_percent@?$output_processor@_WV?$stream_output_adapter@_W@__crt_stdio_output@@V?$format_validation_base@_WV?$stream_output_adapter@_W@__crt_stdio_output@@@2@@__crt_stdio_output@@AAE_NXZ 10051f80 f i libucrtd:output.obj
 0001:00050fd0       ?state_case_percent@?$output_processor@_WV?$stream_output_adapter@_W@__crt_stdio_output@@V?$positional_parameter_base@_WV?$stream_output_adapter@_W@__crt_stdio_output@@@2@@__crt_stdio_output@@AAE_NXZ 10051fd0 f i libucrtd:output.obj
 0001:00051020       ?state_case_percent@?$output_processor@_WV?$stream_output_adapter@_W@__crt_stdio_output@@V?$standard_base@_WV?$stream_output_adapter@_W@__crt_stdio_output@@@2@@__crt_stdio_output@@AAE_NXZ 10052020 f i libucrtd:output.obj
 0001:00051070       ?state_case_percent@?$output_processor@_WV?$string_output_adapter@_W@__crt_stdio_output@@V?$format_validation_base@_WV?$string_output_adapter@_W@__crt_stdio_output@@@2@@__crt_stdio_output@@AAE_NXZ 10052070 f i libucrtd:output.obj
 0001:000510c0       ?state_case_percent@?$output_processor@_WV?$string_output_adapter@_W@__crt_stdio_output@@V?$positional_parameter_base@_WV?$string_output_adapter@_W@__crt_stdio_output@@@2@@__crt_stdio_output@@AAE_NXZ 100520c0 f i libucrtd:output.obj
 0001:00051110       ?state_case_percent@?$output_processor@_WV?$string_output_adapter@_W@__crt_stdio_output@@V?$standard_base@_WV?$string_output_adapter@_W@__crt_stdio_output@@@2@@__crt_stdio_output@@AAE_NXZ 10052110 f i libucrtd:output.obj
 0001:00051160       ?state_case_precision@?$output_processor@DV?$stream_output_adapter@D@__crt_stdio_output@@V?$format_validation_base@DV?$stream_output_adapter@D@__crt_stdio_output@@@2@@__crt_stdio_output@@AAE_NXZ 10052160 f i libucrtd:output.obj
 0001:000511d0       ?state_case_precision@?$output_processor@DV?$stream_output_adapter@D@__crt_stdio_output@@V?$positional_parameter_base@DV?$stream_output_adapter@D@__crt_stdio_output@@@2@@__crt_stdio_output@@AAE_NXZ 100521d0 f i libucrtd:output.obj
 0001:00051240       ?state_case_precision@?$output_processor@DV?$stream_output_adapter@D@__crt_stdio_output@@V?$standard_base@DV?$stream_output_adapter@D@__crt_stdio_output@@@2@@__crt_stdio_output@@AAE_NXZ 10052240 f i libucrtd:output.obj
 0001:000512b0       ?state_case_precision@?$output_processor@DV?$string_output_adapter@D@__crt_stdio_output@@V?$format_validation_base@DV?$string_output_adapter@D@__crt_stdio_output@@@2@@__crt_stdio_output@@AAE_NXZ 100522b0 f i libucrtd:output.obj
 0001:00051320       ?state_case_precision@?$output_processor@DV?$string_output_adapter@D@__crt_stdio_output@@V?$positional_parameter_base@DV?$string_output_adapter@D@__crt_stdio_output@@@2@@__crt_stdio_output@@AAE_NXZ 10052320 f i libucrtd:output.obj
 0001:00051390       ?state_case_precision@?$output_processor@DV?$string_output_adapter@D@__crt_stdio_output@@V?$standard_base@DV?$string_output_adapter@D@__crt_stdio_output@@@2@@__crt_stdio_output@@AAE_NXZ 10052390 f i libucrtd:output.obj
 0001:00051400       ?state_case_precision@?$output_processor@_WV?$stream_output_adapter@_W@__crt_stdio_output@@V?$format_validation_base@_WV?$stream_output_adapter@_W@__crt_stdio_output@@@2@@__crt_stdio_output@@AAE_NXZ 10052400 f i libucrtd:output.obj
 0001:00051470       ?state_case_precision@?$output_processor@_WV?$stream_output_adapter@_W@__crt_stdio_output@@V?$positional_parameter_base@_WV?$stream_output_adapter@_W@__crt_stdio_output@@@2@@__crt_stdio_output@@AAE_NXZ 10052470 f i libucrtd:output.obj
 0001:000514e0       ?state_case_precision@?$output_processor@_WV?$stream_output_adapter@_W@__crt_stdio_output@@V?$standard_base@_WV?$stream_output_adapter@_W@__crt_stdio_output@@@2@@__crt_stdio_output@@AAE_NXZ 100524e0 f i libucrtd:output.obj
 0001:00051550       ?state_case_precision@?$output_processor@_WV?$string_output_adapter@_W@__crt_stdio_output@@V?$format_validation_base@_WV?$string_output_adapter@_W@__crt_stdio_output@@@2@@__crt_stdio_output@@AAE_NXZ 10052550 f i libucrtd:output.obj
 0001:000515c0       ?state_case_precision@?$output_processor@_WV?$string_output_adapter@_W@__crt_stdio_output@@V?$positional_parameter_base@_WV?$string_output_adapter@_W@__crt_stdio_output@@@2@@__crt_stdio_output@@AAE_NXZ 100525c0 f i libucrtd:output.obj
 0001:00051630       ?state_case_precision@?$output_processor@_WV?$string_output_adapter@_W@__crt_stdio_output@@V?$standard_base@_WV?$string_output_adapter@_W@__crt_stdio_output@@@2@@__crt_stdio_output@@AAE_NXZ 10052630 f i libucrtd:output.obj
 0001:000516a0       ?state_case_size@?$output_processor@DV?$stream_output_adapter@D@__crt_stdio_output@@V?$format_validation_base@DV?$stream_output_adapter@D@__crt_stdio_output@@@2@@__crt_stdio_output@@AAE_NXZ 100526a0 f i libucrtd:output.obj
 0001:00051a70       ?state_case_size@?$output_processor@DV?$stream_output_adapter@D@__crt_stdio_output@@V?$positional_parameter_base@DV?$stream_output_adapter@D@__crt_stdio_output@@@2@@__crt_stdio_output@@AAE_NXZ 10052a70 f i libucrtd:output.obj
 0001:00051e40       ?state_case_size@?$output_processor@DV?$stream_output_adapter@D@__crt_stdio_output@@V?$standard_base@DV?$stream_output_adapter@D@__crt_stdio_output@@@2@@__crt_stdio_output@@AAE_NXZ 10052e40 f i libucrtd:output.obj
 0001:00052210       ?state_case_size@?$output_processor@DV?$string_output_adapter@D@__crt_stdio_output@@V?$format_validation_base@DV?$string_output_adapter@D@__crt_stdio_output@@@2@@__crt_stdio_output@@AAE_NXZ 10053210 f i libucrtd:output.obj
 0001:000525e0       ?state_case_size@?$output_processor@DV?$string_output_adapter@D@__crt_stdio_output@@V?$positional_parameter_base@DV?$string_output_adapter@D@__crt_stdio_output@@@2@@__crt_stdio_output@@AAE_NXZ 100535e0 f i libucrtd:output.obj
 0001:000529b0       ?state_case_size@?$output_processor@DV?$string_output_adapter@D@__crt_stdio_output@@V?$standard_base@DV?$string_output_adapter@D@__crt_stdio_output@@@2@@__crt_stdio_output@@AAE_NXZ 100539b0 f i libucrtd:output.obj
 0001:00052d80       ?state_case_size@?$output_processor@_WV?$stream_output_adapter@_W@__crt_stdio_output@@V?$format_validation_base@_WV?$stream_output_adapter@_W@__crt_stdio_output@@@2@@__crt_stdio_output@@AAE_NXZ 10053d80 f i libucrtd:output.obj
 0001:00053150       ?state_case_size@?$output_processor@_WV?$stream_output_adapter@_W@__crt_stdio_output@@V?$positional_parameter_base@_WV?$stream_output_adapter@_W@__crt_stdio_output@@@2@@__crt_stdio_output@@AAE_NXZ 10054150 f i libucrtd:output.obj
 0001:00053520       ?state_case_size@?$output_processor@_WV?$stream_output_adapter@_W@__crt_stdio_output@@V?$standard_base@_WV?$stream_output_adapter@_W@__crt_stdio_output@@@2@@__crt_stdio_output@@AAE_NXZ 10054520 f i libucrtd:output.obj
 0001:000538f0       ?state_case_size@?$output_processor@_WV?$string_output_adapter@_W@__crt_stdio_output@@V?$format_validation_base@_WV?$string_output_adapter@_W@__crt_stdio_output@@@2@@__crt_stdio_output@@AAE_NXZ 100548f0 f i libucrtd:output.obj
 0001:00053cc0       ?state_case_size@?$output_processor@_WV?$string_output_adapter@_W@__crt_stdio_output@@V?$positional_parameter_base@_WV?$string_output_adapter@_W@__crt_stdio_output@@@2@@__crt_stdio_output@@AAE_NXZ 10054cc0 f i libucrtd:output.obj
 0001:00054090       ?state_case_size@?$output_processor@_WV?$string_output_adapter@_W@__crt_stdio_output@@V?$standard_base@_WV?$string_output_adapter@_W@__crt_stdio_output@@@2@@__crt_stdio_output@@AAE_NXZ 10055090 f i libucrtd:output.obj
 0001:00054460       ?state_case_type@?$output_processor@DV?$stream_output_adapter@D@__crt_stdio_output@@V?$format_validation_base@DV?$stream_output_adapter@D@__crt_stdio_output@@@2@@__crt_stdio_output@@AAE_NXZ 10055460 f i libucrtd:output.obj
 0001:00054810       ?state_case_type@?$output_processor@DV?$stream_output_adapter@D@__crt_stdio_output@@V?$positional_parameter_base@DV?$stream_output_adapter@D@__crt_stdio_output@@@2@@__crt_stdio_output@@AAE_NXZ 10055810 f i libucrtd:output.obj
 0001:00054bc0       ?state_case_type@?$output_processor@DV?$stream_output_adapter@D@__crt_stdio_output@@V?$standard_base@DV?$stream_output_adapter@D@__crt_stdio_output@@@2@@__crt_stdio_output@@AAE_NXZ 10055bc0 f i libucrtd:output.obj
 0001:00054f70       ?state_case_type@?$output_processor@DV?$string_output_adapter@D@__crt_stdio_output@@V?$format_validation_base@DV?$string_output_adapter@D@__crt_stdio_output@@@2@@__crt_stdio_output@@AAE_NXZ 10055f70 f i libucrtd:output.obj
 0001:00055320       ?state_case_type@?$output_processor@DV?$string_output_adapter@D@__crt_stdio_output@@V?$positional_parameter_base@DV?$string_output_adapter@D@__crt_stdio_output@@@2@@__crt_stdio_output@@AAE_NXZ 10056320 f i libucrtd:output.obj
 0001:000556d0       ?state_case_type@?$output_processor@DV?$string_output_adapter@D@__crt_stdio_output@@V?$standard_base@DV?$string_output_adapter@D@__crt_stdio_output@@@2@@__crt_stdio_output@@AAE_NXZ 100566d0 f i libucrtd:output.obj
 0001:00055a80       ?state_case_type@?$output_processor@_WV?$stream_output_adapter@_W@__crt_stdio_output@@V?$format_validation_base@_WV?$stream_output_adapter@_W@__crt_stdio_output@@@2@@__crt_stdio_output@@AAE_NXZ 10056a80 f i libucrtd:output.obj
 0001:00055e60       ?state_case_type@?$output_processor@_WV?$stream_output_adapter@_W@__crt_stdio_output@@V?$positional_parameter_base@_WV?$stream_output_adapter@_W@__crt_stdio_output@@@2@@__crt_stdio_output@@AAE_NXZ 10056e60 f i libucrtd:output.obj
 0001:00056240       ?state_case_type@?$output_processor@_WV?$stream_output_adapter@_W@__crt_stdio_output@@V?$standard_base@_WV?$stream_output_adapter@_W@__crt_stdio_output@@@2@@__crt_stdio_output@@AAE_NXZ 10057240 f i libucrtd:output.obj
 0001:00056620       ?state_case_type@?$output_processor@_WV?$string_output_adapter@_W@__crt_stdio_output@@V?$format_validation_base@_WV?$string_output_adapter@_W@__crt_stdio_output@@@2@@__crt_stdio_output@@AAE_NXZ 10057620 f i libucrtd:output.obj
 0001:00056a00       ?state_case_type@?$output_processor@_WV?$string_output_adapter@_W@__crt_stdio_output@@V?$positional_parameter_base@_WV?$string_output_adapter@_W@__crt_stdio_output@@@2@@__crt_stdio_output@@AAE_NXZ 10057a00 f i libucrtd:output.obj
 0001:00056de0       ?state_case_type@?$output_processor@_WV?$string_output_adapter@_W@__crt_stdio_output@@V?$standard_base@_WV?$string_output_adapter@_W@__crt_stdio_output@@@2@@__crt_stdio_output@@AAE_NXZ 10057de0 f i libucrtd:output.obj
 0001:000571c0       ?state_case_width@?$output_processor@DV?$stream_output_adapter@D@__crt_stdio_output@@V?$format_validation_base@DV?$stream_output_adapter@D@__crt_stdio_output@@@2@@__crt_stdio_output@@AAE_NXZ 100581c0 f i libucrtd:output.obj
 0001:00057240       ?state_case_width@?$output_processor@DV?$stream_output_adapter@D@__crt_stdio_output@@V?$positional_parameter_base@DV?$stream_output_adapter@D@__crt_stdio_output@@@2@@__crt_stdio_output@@AAE_NXZ 10058240 f i libucrtd:output.obj
 0001:000572c0       ?state_case_width@?$output_processor@DV?$stream_output_adapter@D@__crt_stdio_output@@V?$standard_base@DV?$stream_output_adapter@D@__crt_stdio_output@@@2@@__crt_stdio_output@@AAE_NXZ 100582c0 f i libucrtd:output.obj
 0001:00057340       ?state_case_width@?$output_processor@DV?$string_output_adapter@D@__crt_stdio_output@@V?$format_validation_base@DV?$string_output_adapter@D@__crt_stdio_output@@@2@@__crt_stdio_output@@AAE_NXZ 10058340 f i libucrtd:output.obj
 0001:000573c0       ?state_case_width@?$output_processor@DV?$string_output_adapter@D@__crt_stdio_output@@V?$positional_parameter_base@DV?$string_output_adapter@D@__crt_stdio_output@@@2@@__crt_stdio_output@@AAE_NXZ 100583c0 f i libucrtd:output.obj
 0001:00057440       ?state_case_width@?$output_processor@DV?$string_output_adapter@D@__crt_stdio_output@@V?$standard_base@DV?$string_output_adapter@D@__crt_stdio_output@@@2@@__crt_stdio_output@@AAE_NXZ 10058440 f i libucrtd:output.obj
 0001:000574c0       ?state_case_width@?$output_processor@_WV?$stream_output_adapter@_W@__crt_stdio_output@@V?$format_validation_base@_WV?$stream_output_adapter@_W@__crt_stdio_output@@@2@@__crt_stdio_output@@AAE_NXZ 100584c0 f i libucrtd:output.obj
 0001:00057540       ?state_case_width@?$output_processor@_WV?$stream_output_adapter@_W@__crt_stdio_output@@V?$positional_parameter_base@_WV?$stream_output_adapter@_W@__crt_stdio_output@@@2@@__crt_stdio_output@@AAE_NXZ 10058540 f i libucrtd:output.obj
 0001:000575c0       ?state_case_width@?$output_processor@_WV?$stream_output_adapter@_W@__crt_stdio_output@@V?$standard_base@_WV?$stream_output_adapter@_W@__crt_stdio_output@@@2@@__crt_stdio_output@@AAE_NXZ 100585c0 f i libucrtd:output.obj
 0001:00057640       ?state_case_width@?$output_processor@_WV?$string_output_adapter@_W@__crt_stdio_output@@V?$format_validation_base@_WV?$string_output_adapter@_W@__crt_stdio_output@@@2@@__crt_stdio_output@@AAE_NXZ 10058640 f i libucrtd:output.obj
 0001:000576c0       ?state_case_width@?$output_processor@_WV?$string_output_adapter@_W@__crt_stdio_output@@V?$positional_parameter_base@_WV?$string_output_adapter@_W@__crt_stdio_output@@@2@@__crt_stdio_output@@AAE_NXZ 100586c0 f i libucrtd:output.obj
 0001:00057740       ?state_case_width@?$output_processor@_WV?$string_output_adapter@_W@__crt_stdio_output@@V?$standard_base@_WV?$string_output_adapter@_W@__crt_stdio_output@@@2@@__crt_stdio_output@@AAE_NXZ 10058740 f i libucrtd:output.obj
 0001:000577c0       ?state_count@?$format_validation_base@DV?$stream_output_adapter@D@__crt_stdio_output@@@__crt_stdio_output@@KAIXZ 100587c0 f i libucrtd:output.obj
 0001:000577d0       ?state_count@?$format_validation_base@DV?$string_output_adapter@D@__crt_stdio_output@@@__crt_stdio_output@@KAIXZ 100587d0 f i libucrtd:output.obj
 0001:000577e0       ?state_count@?$format_validation_base@_WV?$stream_output_adapter@_W@__crt_stdio_output@@@__crt_stdio_output@@KAIXZ 100587e0 f i libucrtd:output.obj
 0001:000577f0       ?state_count@?$format_validation_base@_WV?$string_output_adapter@_W@__crt_stdio_output@@@__crt_stdio_output@@KAIXZ 100587f0 f i libucrtd:output.obj
 0001:00057800       ?state_count@?$standard_base@DV?$stream_output_adapter@D@__crt_stdio_output@@@__crt_stdio_output@@KAIXZ 10058800 f i libucrtd:output.obj
 0001:00057810       ?state_count@?$standard_base@DV?$string_output_adapter@D@__crt_stdio_output@@@__crt_stdio_output@@KAIXZ 10058810 f i libucrtd:output.obj
 0001:00057820       ?state_count@?$standard_base@_WV?$stream_output_adapter@_W@__crt_stdio_output@@@__crt_stdio_output@@KAIXZ 10058820 f i libucrtd:output.obj
 0001:00057830       ?state_count@?$standard_base@_WV?$string_output_adapter@_W@__crt_stdio_output@@@__crt_stdio_output@@KAIXZ 10058830 f i libucrtd:output.obj
 0001:00057840       ?state_transition_table@?$format_validation_base@DV?$stream_output_adapter@D@__crt_stdio_output@@@__crt_stdio_output@@KAPBEXZ 10058840 f i libucrtd:output.obj
 0001:00057850       ?state_transition_table@?$format_validation_base@DV?$string_output_adapter@D@__crt_stdio_output@@@__crt_stdio_output@@KAPBEXZ 10058850 f i libucrtd:output.obj
 0001:00057860       ?state_transition_table@?$format_validation_base@_WV?$stream_output_adapter@_W@__crt_stdio_output@@@__crt_stdio_output@@KAPBEXZ 10058860 f i libucrtd:output.obj
 0001:00057870       ?state_transition_table@?$format_validation_base@_WV?$string_output_adapter@_W@__crt_stdio_output@@@__crt_stdio_output@@KAPBEXZ 10058870 f i libucrtd:output.obj
 0001:00057880       ?state_transition_table@?$standard_base@DV?$stream_output_adapter@D@__crt_stdio_output@@@__crt_stdio_output@@KAPBEXZ 10058880 f i libucrtd:output.obj
 0001:00057890       ?state_transition_table@?$standard_base@DV?$string_output_adapter@D@__crt_stdio_output@@@__crt_stdio_output@@KAPBEXZ 10058890 f i libucrtd:output.obj
 0001:000578a0       ?state_transition_table@?$standard_base@_WV?$stream_output_adapter@_W@__crt_stdio_output@@@__crt_stdio_output@@KAPBEXZ 100588a0 f i libucrtd:output.obj
 0001:000578b0       ?state_transition_table@?$standard_base@_WV?$string_output_adapter@_W@__crt_stdio_output@@@__crt_stdio_output@@KAPBEXZ 100588b0 f i libucrtd:output.obj
 0001:000578c0       ?to_integer_size@__crt_stdio_output@@YAIW4length_modifier@1@@Z 100588c0 f i libucrtd:output.obj
 0001:00057960       ?type_case_X@?$output_processor@DV?$stream_output_adapter@D@__crt_stdio_output@@V?$format_validation_base@DV?$stream_output_adapter@D@__crt_stdio_output@@@2@@__crt_stdio_output@@AAE_NXZ 10058960 f i libucrtd:output.obj
 0001:00057980       ?type_case_X@?$output_processor@DV?$stream_output_adapter@D@__crt_stdio_output@@V?$positional_parameter_base@DV?$stream_output_adapter@D@__crt_stdio_output@@@2@@__crt_stdio_output@@AAE_NXZ 10058980 f i libucrtd:output.obj
 0001:000579a0       ?type_case_X@?$output_processor@DV?$stream_output_adapter@D@__crt_stdio_output@@V?$standard_base@DV?$stream_output_adapter@D@__crt_stdio_output@@@2@@__crt_stdio_output@@AAE_NXZ 100589a0 f i libucrtd:output.obj
 0001:000579c0       ?type_case_X@?$output_processor@DV?$string_output_adapter@D@__crt_stdio_output@@V?$format_validation_base@DV?$string_output_adapter@D@__crt_stdio_output@@@2@@__crt_stdio_output@@AAE_NXZ 100589c0 f i libucrtd:output.obj
 0001:000579e0       ?type_case_X@?$output_processor@DV?$string_output_adapter@D@__crt_stdio_output@@V?$positional_parameter_base@DV?$string_output_adapter@D@__crt_stdio_output@@@2@@__crt_stdio_output@@AAE_NXZ 100589e0 f i libucrtd:output.obj
 0001:00057a00       ?type_case_X@?$output_processor@DV?$string_output_adapter@D@__crt_stdio_output@@V?$standard_base@DV?$string_output_adapter@D@__crt_stdio_output@@@2@@__crt_stdio_output@@AAE_NXZ 10058a00 f i libucrtd:output.obj
 0001:00057a20       ?type_case_X@?$output_processor@_WV?$stream_output_adapter@_W@__crt_stdio_output@@V?$format_validation_base@_WV?$stream_output_adapter@_W@__crt_stdio_output@@@2@@__crt_stdio_output@@AAE_NXZ 10058a20 f i libucrtd:output.obj
 0001:00057a40       ?type_case_X@?$output_processor@_WV?$stream_output_adapter@_W@__crt_stdio_output@@V?$positional_parameter_base@_WV?$stream_output_adapter@_W@__crt_stdio_output@@@2@@__crt_stdio_output@@AAE_NXZ 10058a40 f i libucrtd:output.obj
 0001:00057a60       ?type_case_X@?$output_processor@_WV?$stream_output_adapter@_W@__crt_stdio_output@@V?$standard_base@_WV?$stream_output_adapter@_W@__crt_stdio_output@@@2@@__crt_stdio_output@@AAE_NXZ 10058a60 f i libucrtd:output.obj
 0001:00057a80       ?type_case_X@?$output_processor@_WV?$string_output_adapter@_W@__crt_stdio_output@@V?$format_validation_base@_WV?$string_output_adapter@_W@__crt_stdio_output@@@2@@__crt_stdio_output@@AAE_NXZ 10058a80 f i libucrtd:output.obj
 0001:00057aa0       ?type_case_X@?$output_processor@_WV?$string_output_adapter@_W@__crt_stdio_output@@V?$positional_parameter_base@_WV?$string_output_adapter@_W@__crt_stdio_output@@@2@@__crt_stdio_output@@AAE_NXZ 10058aa0 f i libucrtd:output.obj
 0001:00057ac0       ?type_case_X@?$output_processor@_WV?$string_output_adapter@_W@__crt_stdio_output@@V?$standard_base@_WV?$string_output_adapter@_W@__crt_stdio_output@@@2@@__crt_stdio_output@@AAE_NXZ 10058ac0 f i libucrtd:output.obj
 0001:00057ae0       ?type_case_Z@?$output_processor@DV?$stream_output_adapter@D@__crt_stdio_output@@V?$format_validation_base@DV?$stream_output_adapter@D@__crt_stdio_output@@@2@@__crt_stdio_output@@AAE_NXZ 10058ae0 f i libucrtd:output.obj
 0001:00057bd0       ?type_case_Z@?$output_processor@DV?$stream_output_adapter@D@__crt_stdio_output@@V?$positional_parameter_base@DV?$stream_output_adapter@D@__crt_stdio_output@@@2@@__crt_stdio_output@@AAE_NXZ 10058bd0 f i libucrtd:output.obj
 0001:00057cc0       ?type_case_Z@?$output_processor@DV?$stream_output_adapter@D@__crt_stdio_output@@V?$standard_base@DV?$stream_output_adapter@D@__crt_stdio_output@@@2@@__crt_stdio_output@@AAE_NXZ 10058cc0 f i libucrtd:output.obj
 0001:00057db0       ?type_case_Z@?$output_processor@DV?$string_output_adapter@D@__crt_stdio_output@@V?$format_validation_base@DV?$string_output_adapter@D@__crt_stdio_output@@@2@@__crt_stdio_output@@AAE_NXZ 10058db0 f i libucrtd:output.obj
 0001:00057ea0       ?type_case_Z@?$output_processor@DV?$string_output_adapter@D@__crt_stdio_output@@V?$positional_parameter_base@DV?$string_output_adapter@D@__crt_stdio_output@@@2@@__crt_stdio_output@@AAE_NXZ 10058ea0 f i libucrtd:output.obj
 0001:00057f90       ?type_case_Z@?$output_processor@DV?$string_output_adapter@D@__crt_stdio_output@@V?$standard_base@DV?$string_output_adapter@D@__crt_stdio_output@@@2@@__crt_stdio_output@@AAE_NXZ 10058f90 f i libucrtd:output.obj
 0001:00058080       ?type_case_Z@?$output_processor@_WV?$stream_output_adapter@_W@__crt_stdio_output@@V?$format_validation_base@_WV?$stream_output_adapter@_W@__crt_stdio_output@@@2@@__crt_stdio_output@@AAE_NXZ 10059080 f i libucrtd:output.obj
 0001:00058170       ?type_case_Z@?$output_processor@_WV?$stream_output_adapter@_W@__crt_stdio_output@@V?$positional_parameter_base@_WV?$stream_output_adapter@_W@__crt_stdio_output@@@2@@__crt_stdio_output@@AAE_NXZ 10059170 f i libucrtd:output.obj
 0001:00058260       ?type_case_Z@?$output_processor@_WV?$stream_output_adapter@_W@__crt_stdio_output@@V?$standard_base@_WV?$stream_output_adapter@_W@__crt_stdio_output@@@2@@__crt_stdio_output@@AAE_NXZ 10059260 f i libucrtd:output.obj
 0001:00058350       ?type_case_Z@?$output_processor@_WV?$string_output_adapter@_W@__crt_stdio_output@@V?$format_validation_base@_WV?$string_output_adapter@_W@__crt_stdio_output@@@2@@__crt_stdio_output@@AAE_NXZ 10059350 f i libucrtd:output.obj
 0001:00058440       ?type_case_Z@?$output_processor@_WV?$string_output_adapter@_W@__crt_stdio_output@@V?$positional_parameter_base@_WV?$string_output_adapter@_W@__crt_stdio_output@@@2@@__crt_stdio_output@@AAE_NXZ 10059440 f i libucrtd:output.obj
 0001:00058530       ?type_case_Z@?$output_processor@_WV?$string_output_adapter@_W@__crt_stdio_output@@V?$standard_base@_WV?$string_output_adapter@_W@__crt_stdio_output@@@2@@__crt_stdio_output@@AAE_NXZ 10059530 f i libucrtd:output.obj
 0001:00058620       ?type_case_a@?$output_processor@DV?$stream_output_adapter@D@__crt_stdio_output@@V?$format_validation_base@DV?$stream_output_adapter@D@__crt_stdio_output@@@2@@__crt_stdio_output@@AAE_NXZ 10059620 f i libucrtd:output.obj
 0001:00058880       ?type_case_a@?$output_processor@DV?$stream_output_adapter@D@__crt_stdio_output@@V?$positional_parameter_base@DV?$stream_output_adapter@D@__crt_stdio_output@@@2@@__crt_stdio_output@@AAE_NXZ 10059880 f i libucrtd:output.obj
 0001:00058ae0       ?type_case_a@?$output_processor@DV?$stream_output_adapter@D@__crt_stdio_output@@V?$standard_base@DV?$stream_output_adapter@D@__crt_stdio_output@@@2@@__crt_stdio_output@@AAE_NXZ 10059ae0 f i libucrtd:output.obj
 0001:00058d40       ?type_case_a@?$output_processor@DV?$string_output_adapter@D@__crt_stdio_output@@V?$format_validation_base@DV?$string_output_adapter@D@__crt_stdio_output@@@2@@__crt_stdio_output@@AAE_NXZ 10059d40 f i libucrtd:output.obj
 0001:00058fa0       ?type_case_a@?$output_processor@DV?$string_output_adapter@D@__crt_stdio_output@@V?$positional_parameter_base@DV?$string_output_adapter@D@__crt_stdio_output@@@2@@__crt_stdio_output@@AAE_NXZ 10059fa0 f i libucrtd:output.obj
 0001:00059200       ?type_case_a@?$output_processor@DV?$string_output_adapter@D@__crt_stdio_output@@V?$standard_base@DV?$string_output_adapter@D@__crt_stdio_output@@@2@@__crt_stdio_output@@AAE_NXZ 1005a200 f i libucrtd:output.obj
 0001:00059460       ?type_case_a@?$output_processor@_WV?$stream_output_adapter@_W@__crt_stdio_output@@V?$format_validation_base@_WV?$stream_output_adapter@_W@__crt_stdio_output@@@2@@__crt_stdio_output@@AAE_NXZ 1005a460 f i libucrtd:output.obj
 0001:000596c0       ?type_case_a@?$output_processor@_WV?$stream_output_adapter@_W@__crt_stdio_output@@V?$positional_parameter_base@_WV?$stream_output_adapter@_W@__crt_stdio_output@@@2@@__crt_stdio_output@@AAE_NXZ 1005a6c0 f i libucrtd:output.obj
 0001:00059920       ?type_case_a@?$output_processor@_WV?$stream_output_adapter@_W@__crt_stdio_output@@V?$standard_base@_WV?$stream_output_adapter@_W@__crt_stdio_output@@@2@@__crt_stdio_output@@AAE_NXZ 1005a920 f i libucrtd:output.obj
 0001:00059b80       ?type_case_a@?$output_processor@_WV?$string_output_adapter@_W@__crt_stdio_output@@V?$format_validation_base@_WV?$string_output_adapter@_W@__crt_stdio_output@@@2@@__crt_stdio_output@@AAE_NXZ 1005ab80 f i libucrtd:output.obj
 0001:00059de0       ?type_case_a@?$output_processor@_WV?$string_output_adapter@_W@__crt_stdio_output@@V?$positional_parameter_base@_WV?$string_output_adapter@_W@__crt_stdio_output@@@2@@__crt_stdio_output@@AAE_NXZ 1005ade0 f i libucrtd:output.obj
 0001:0005a040       ?type_case_a@?$output_processor@_WV?$string_output_adapter@_W@__crt_stdio_output@@V?$standard_base@_WV?$string_output_adapter@_W@__crt_stdio_output@@@2@@__crt_stdio_output@@AAE_NXZ 1005b040 f i libucrtd:output.obj
 0001:0005a2a0       ?type_case_c@?$output_processor@DV?$stream_output_adapter@D@__crt_stdio_output@@V?$format_validation_base@DV?$stream_output_adapter@D@__crt_stdio_output@@@2@@__crt_stdio_output@@AAE_NXZ 1005b2a0 f i libucrtd:output.obj
 0001:0005a2c0       ?type_case_c@?$output_processor@DV?$stream_output_adapter@D@__crt_stdio_output@@V?$positional_parameter_base@DV?$stream_output_adapter@D@__crt_stdio_output@@@2@@__crt_stdio_output@@AAE_NXZ 1005b2c0 f i libucrtd:output.obj
 0001:0005a2e0       ?type_case_c@?$output_processor@DV?$stream_output_adapter@D@__crt_stdio_output@@V?$standard_base@DV?$stream_output_adapter@D@__crt_stdio_output@@@2@@__crt_stdio_output@@AAE_NXZ 1005b2e0 f i libucrtd:output.obj
 0001:0005a300       ?type_case_c@?$output_processor@DV?$string_output_adapter@D@__crt_stdio_output@@V?$format_validation_base@DV?$string_output_adapter@D@__crt_stdio_output@@@2@@__crt_stdio_output@@AAE_NXZ 1005b300 f i libucrtd:output.obj
 0001:0005a320       ?type_case_c@?$output_processor@DV?$string_output_adapter@D@__crt_stdio_output@@V?$positional_parameter_base@DV?$string_output_adapter@D@__crt_stdio_output@@@2@@__crt_stdio_output@@AAE_NXZ 1005b320 f i libucrtd:output.obj
 0001:0005a340       ?type_case_c@?$output_processor@DV?$string_output_adapter@D@__crt_stdio_output@@V?$standard_base@DV?$string_output_adapter@D@__crt_stdio_output@@@2@@__crt_stdio_output@@AAE_NXZ 1005b340 f i libucrtd:output.obj
 0001:0005a360       ?type_case_c@?$output_processor@_WV?$stream_output_adapter@_W@__crt_stdio_output@@V?$format_validation_base@_WV?$stream_output_adapter@_W@__crt_stdio_output@@@2@@__crt_stdio_output@@AAE_NXZ 1005b360 f i libucrtd:output.obj
 0001:0005a380       ?type_case_c@?$output_processor@_WV?$stream_output_adapter@_W@__crt_stdio_output@@V?$positional_parameter_base@_WV?$stream_output_adapter@_W@__crt_stdio_output@@@2@@__crt_stdio_output@@AAE_NXZ 1005b380 f i libucrtd:output.obj
 0001:0005a3a0       ?type_case_c@?$output_processor@_WV?$stream_output_adapter@_W@__crt_stdio_output@@V?$standard_base@_WV?$stream_output_adapter@_W@__crt_stdio_output@@@2@@__crt_stdio_output@@AAE_NXZ 1005b3a0 f i libucrtd:output.obj
 0001:0005a3c0       ?type_case_c@?$output_processor@_WV?$string_output_adapter@_W@__crt_stdio_output@@V?$format_validation_base@_WV?$string_output_adapter@_W@__crt_stdio_output@@@2@@__crt_stdio_output@@AAE_NXZ 1005b3c0 f i libucrtd:output.obj
 0001:0005a3e0       ?type_case_c@?$output_processor@_WV?$string_output_adapter@_W@__crt_stdio_output@@V?$positional_parameter_base@_WV?$string_output_adapter@_W@__crt_stdio_output@@@2@@__crt_stdio_output@@AAE_NXZ 1005b3e0 f i libucrtd:output.obj
 0001:0005a400       ?type_case_c@?$output_processor@_WV?$string_output_adapter@_W@__crt_stdio_output@@V?$standard_base@_WV?$string_output_adapter@_W@__crt_stdio_output@@@2@@__crt_stdio_output@@AAE_NXZ 1005b400 f i libucrtd:output.obj
 0001:0005a420       ?type_case_c_tchar@?$output_processor@DV?$stream_output_adapter@D@__crt_stdio_output@@V?$format_validation_base@DV?$stream_output_adapter@D@__crt_stdio_output@@@2@@__crt_stdio_output@@AAE_ND@Z 1005b420 f i libucrtd:output.obj
 0001:0005a530       ?type_case_c_tchar@?$output_processor@DV?$stream_output_adapter@D@__crt_stdio_output@@V?$positional_parameter_base@DV?$stream_output_adapter@D@__crt_stdio_output@@@2@@__crt_stdio_output@@AAE_ND@Z 1005b530 f i libucrtd:output.obj
 0001:0005a640       ?type_case_c_tchar@?$output_processor@DV?$stream_output_adapter@D@__crt_stdio_output@@V?$standard_base@DV?$stream_output_adapter@D@__crt_stdio_output@@@2@@__crt_stdio_output@@AAE_ND@Z 1005b640 f i libucrtd:output.obj
 0001:0005a750       ?type_case_c_tchar@?$output_processor@DV?$string_output_adapter@D@__crt_stdio_output@@V?$format_validation_base@DV?$string_output_adapter@D@__crt_stdio_output@@@2@@__crt_stdio_output@@AAE_ND@Z 1005b750 f i libucrtd:output.obj
 0001:0005a860       ?type_case_c_tchar@?$output_processor@DV?$string_output_adapter@D@__crt_stdio_output@@V?$positional_parameter_base@DV?$string_output_adapter@D@__crt_stdio_output@@@2@@__crt_stdio_output@@AAE_ND@Z 1005b860 f i libucrtd:output.obj
 0001:0005a970       ?type_case_c_tchar@?$output_processor@DV?$string_output_adapter@D@__crt_stdio_output@@V?$standard_base@DV?$string_output_adapter@D@__crt_stdio_output@@@2@@__crt_stdio_output@@AAE_ND@Z 1005b970 f i libucrtd:output.obj
 0001:0005aa80       ?type_case_c_tchar@?$output_processor@_WV?$stream_output_adapter@_W@__crt_stdio_output@@V?$format_validation_base@_WV?$stream_output_adapter@_W@__crt_stdio_output@@@2@@__crt_stdio_output@@AAE_N_W@Z 1005ba80 f i libucrtd:output.obj
 0001:0005ab80       ?type_case_c_tchar@?$output_processor@_WV?$stream_output_adapter@_W@__crt_stdio_output@@V?$positional_parameter_base@_WV?$stream_output_adapter@_W@__crt_stdio_output@@@2@@__crt_stdio_output@@AAE_N_W@Z 1005bb80 f i libucrtd:output.obj
 0001:0005ac80       ?type_case_c_tchar@?$output_processor@_WV?$stream_output_adapter@_W@__crt_stdio_output@@V?$standard_base@_WV?$stream_output_adapter@_W@__crt_stdio_output@@@2@@__crt_stdio_output@@AAE_N_W@Z 1005bc80 f i libucrtd:output.obj
 0001:0005ad80       ?type_case_c_tchar@?$output_processor@_WV?$string_output_adapter@_W@__crt_stdio_output@@V?$format_validation_base@_WV?$string_output_adapter@_W@__crt_stdio_output@@@2@@__crt_stdio_output@@AAE_N_W@Z 1005bd80 f i libucrtd:output.obj
 0001:0005ae80       ?type_case_c_tchar@?$output_processor@_WV?$string_output_adapter@_W@__crt_stdio_output@@V?$positional_parameter_base@_WV?$string_output_adapter@_W@__crt_stdio_output@@@2@@__crt_stdio_output@@AAE_N_W@Z 1005be80 f i libucrtd:output.obj
 0001:0005af80       ?type_case_c_tchar@?$output_processor@_WV?$string_output_adapter@_W@__crt_stdio_output@@V?$standard_base@_WV?$string_output_adapter@_W@__crt_stdio_output@@@2@@__crt_stdio_output@@AAE_N_W@Z 1005bf80 f i libucrtd:output.obj
 0001:0005b080       ?type_case_d@?$output_processor@DV?$stream_output_adapter@D@__crt_stdio_output@@V?$format_validation_base@DV?$stream_output_adapter@D@__crt_stdio_output@@@2@@__crt_stdio_output@@AAE_NXZ 1005c080 f i libucrtd:output.obj
 0001:0005b0b0       ?type_case_d@?$output_processor@DV?$stream_output_adapter@D@__crt_stdio_output@@V?$positional_parameter_base@DV?$stream_output_adapter@D@__crt_stdio_output@@@2@@__crt_stdio_output@@AAE_NXZ 1005c0b0 f i libucrtd:output.obj
 0001:0005b0e0       ?type_case_d@?$output_processor@DV?$stream_output_adapter@D@__crt_stdio_output@@V?$standard_base@DV?$stream_output_adapter@D@__crt_stdio_output@@@2@@__crt_stdio_output@@AAE_NXZ 1005c0e0 f i libucrtd:output.obj
 0001:0005b110       ?type_case_d@?$output_processor@DV?$string_output_adapter@D@__crt_stdio_output@@V?$format_validation_base@DV?$string_output_adapter@D@__crt_stdio_output@@@2@@__crt_stdio_output@@AAE_NXZ 1005c110 f i libucrtd:output.obj
 0001:0005b140       ?type_case_d@?$output_processor@DV?$string_output_adapter@D@__crt_stdio_output@@V?$positional_parameter_base@DV?$string_output_adapter@D@__crt_stdio_output@@@2@@__crt_stdio_output@@AAE_NXZ 1005c140 f i libucrtd:output.obj
 0001:0005b170       ?type_case_d@?$output_processor@DV?$string_output_adapter@D@__crt_stdio_output@@V?$standard_base@DV?$string_output_adapter@D@__crt_stdio_output@@@2@@__crt_stdio_output@@AAE_NXZ 1005c170 f i libucrtd:output.obj
 0001:0005b1a0       ?type_case_d@?$output_processor@_WV?$stream_output_adapter@_W@__crt_stdio_output@@V?$format_validation_base@_WV?$stream_output_adapter@_W@__crt_stdio_output@@@2@@__crt_stdio_output@@AAE_NXZ 1005c1a0 f i libucrtd:output.obj
 0001:0005b1d0       ?type_case_d@?$output_processor@_WV?$stream_output_adapter@_W@__crt_stdio_output@@V?$positional_parameter_base@_WV?$stream_output_adapter@_W@__crt_stdio_output@@@2@@__crt_stdio_output@@AAE_NXZ 1005c1d0 f i libucrtd:output.obj
 0001:0005b200       ?type_case_d@?$output_processor@_WV?$stream_output_adapter@_W@__crt_stdio_output@@V?$standard_base@_WV?$stream_output_adapter@_W@__crt_stdio_output@@@2@@__crt_stdio_output@@AAE_NXZ 1005c200 f i libucrtd:output.obj
 0001:0005b230       ?type_case_d@?$output_processor@_WV?$string_output_adapter@_W@__crt_stdio_output@@V?$format_validation_base@_WV?$string_output_adapter@_W@__crt_stdio_output@@@2@@__crt_stdio_output@@AAE_NXZ 1005c230 f i libucrtd:output.obj
 0001:0005b260       ?type_case_d@?$output_processor@_WV?$string_output_adapter@_W@__crt_stdio_output@@V?$positional_parameter_base@_WV?$string_output_adapter@_W@__crt_stdio_output@@@2@@__crt_stdio_output@@AAE_NXZ 1005c260 f i libucrtd:output.obj
 0001:0005b290       ?type_case_d@?$output_processor@_WV?$string_output_adapter@_W@__crt_stdio_output@@V?$standard_base@_WV?$string_output_adapter@_W@__crt_stdio_output@@@2@@__crt_stdio_output@@AAE_NXZ 1005c290 f i libucrtd:output.obj
 0001:0005b2c0       ?type_case_integer@?$output_processor@DV?$stream_output_adapter@D@__crt_stdio_output@@V?$format_validation_base@DV?$stream_output_adapter@D@__crt_stdio_output@@@2@@__crt_stdio_output@@AAE_NI_N@Z 1005c2c0 f i libucrtd:output.obj
 0001:0005b600       ?type_case_integer@?$output_processor@DV?$stream_output_adapter@D@__crt_stdio_output@@V?$positional_parameter_base@DV?$stream_output_adapter@D@__crt_stdio_output@@@2@@__crt_stdio_output@@AAE_NI_N@Z 1005c600 f i libucrtd:output.obj
 0001:0005b940       ?type_case_integer@?$output_processor@DV?$stream_output_adapter@D@__crt_stdio_output@@V?$standard_base@DV?$stream_output_adapter@D@__crt_stdio_output@@@2@@__crt_stdio_output@@AAE_NI_N@Z 1005c940 f i libucrtd:output.obj
 0001:0005bc80       ?type_case_integer@?$output_processor@DV?$string_output_adapter@D@__crt_stdio_output@@V?$format_validation_base@DV?$string_output_adapter@D@__crt_stdio_output@@@2@@__crt_stdio_output@@AAE_NI_N@Z 1005cc80 f i libucrtd:output.obj
 0001:0005bfc0       ?type_case_integer@?$output_processor@DV?$string_output_adapter@D@__crt_stdio_output@@V?$positional_parameter_base@DV?$string_output_adapter@D@__crt_stdio_output@@@2@@__crt_stdio_output@@AAE_NI_N@Z 1005cfc0 f i libucrtd:output.obj
 0001:0005c300       ?type_case_integer@?$output_processor@DV?$string_output_adapter@D@__crt_stdio_output@@V?$standard_base@DV?$string_output_adapter@D@__crt_stdio_output@@@2@@__crt_stdio_output@@AAE_NI_N@Z 1005d300 f i libucrtd:output.obj
 0001:0005c640       ?type_case_integer@?$output_processor@_WV?$stream_output_adapter@_W@__crt_stdio_output@@V?$format_validation_base@_WV?$stream_output_adapter@_W@__crt_stdio_output@@@2@@__crt_stdio_output@@AAE_NI_N@Z 1005d640 f i libucrtd:output.obj
 0001:0005c980       ?type_case_integer@?$output_processor@_WV?$stream_output_adapter@_W@__crt_stdio_output@@V?$positional_parameter_base@_WV?$stream_output_adapter@_W@__crt_stdio_output@@@2@@__crt_stdio_output@@AAE_NI_N@Z 1005d980 f i libucrtd:output.obj
 0001:0005ccc0       ?type_case_integer@?$output_processor@_WV?$stream_output_adapter@_W@__crt_stdio_output@@V?$standard_base@_WV?$stream_output_adapter@_W@__crt_stdio_output@@@2@@__crt_stdio_output@@AAE_NI_N@Z 1005dcc0 f i libucrtd:output.obj
 0001:0005d000       ?type_case_integer@?$output_processor@_WV?$string_output_adapter@_W@__crt_stdio_output@@V?$format_validation_base@_WV?$string_output_adapter@_W@__crt_stdio_output@@@2@@__crt_stdio_output@@AAE_NI_N@Z 1005e000 f i libucrtd:output.obj
 0001:0005d340       ?type_case_integer@?$output_processor@_WV?$string_output_adapter@_W@__crt_stdio_output@@V?$positional_parameter_base@_WV?$string_output_adapter@_W@__crt_stdio_output@@@2@@__crt_stdio_output@@AAE_NI_N@Z 1005e340 f i libucrtd:output.obj
 0001:0005d680       ?type_case_integer@?$output_processor@_WV?$string_output_adapter@_W@__crt_stdio_output@@V?$standard_base@_WV?$string_output_adapter@_W@__crt_stdio_output@@@2@@__crt_stdio_output@@AAE_NI_N@Z 1005e680 f i libucrtd:output.obj
 0001:0005d9c0       ?type_case_n@?$output_processor@DV?$stream_output_adapter@D@__crt_stdio_output@@V?$format_validation_base@DV?$stream_output_adapter@D@__crt_stdio_output@@@2@@__crt_stdio_output@@AAE_NXZ 1005e9c0 f i libucrtd:output.obj
 0001:0005dbb0       ?type_case_n@?$output_processor@DV?$stream_output_adapter@D@__crt_stdio_output@@V?$positional_parameter_base@DV?$stream_output_adapter@D@__crt_stdio_output@@@2@@__crt_stdio_output@@AAE_NXZ 1005ebb0 f i libucrtd:output.obj
 0001:0005dda0       ?type_case_n@?$output_processor@DV?$stream_output_adapter@D@__crt_stdio_output@@V?$standard_base@DV?$stream_output_adapter@D@__crt_stdio_output@@@2@@__crt_stdio_output@@AAE_NXZ 1005eda0 f i libucrtd:output.obj
 0001:0005df90       ?type_case_n@?$output_processor@DV?$string_output_adapter@D@__crt_stdio_output@@V?$format_validation_base@DV?$string_output_adapter@D@__crt_stdio_output@@@2@@__crt_stdio_output@@AAE_NXZ 1005ef90 f i libucrtd:output.obj
 0001:0005e180       ?type_case_n@?$output_processor@DV?$string_output_adapter@D@__crt_stdio_output@@V?$positional_parameter_base@DV?$string_output_adapter@D@__crt_stdio_output@@@2@@__crt_stdio_output@@AAE_NXZ 1005f180 f i libucrtd:output.obj
 0001:0005e370       ?type_case_n@?$output_processor@DV?$string_output_adapter@D@__crt_stdio_output@@V?$standard_base@DV?$string_output_adapter@D@__crt_stdio_output@@@2@@__crt_stdio_output@@AAE_NXZ 1005f370 f i libucrtd:output.obj
 0001:0005e560       ?type_case_n@?$output_processor@_WV?$stream_output_adapter@_W@__crt_stdio_output@@V?$format_validation_base@_WV?$stream_output_adapter@_W@__crt_stdio_output@@@2@@__crt_stdio_output@@AAE_NXZ 1005f560 f i libucrtd:output.obj
 0001:0005e750       ?type_case_n@?$output_processor@_WV?$stream_output_adapter@_W@__crt_stdio_output@@V?$positional_parameter_base@_WV?$stream_output_adapter@_W@__crt_stdio_output@@@2@@__crt_stdio_output@@AAE_NXZ 1005f750 f i libucrtd:output.obj
 0001:0005e940       ?type_case_n@?$output_processor@_WV?$stream_output_adapter@_W@__crt_stdio_output@@V?$standard_base@_WV?$stream_output_adapter@_W@__crt_stdio_output@@@2@@__crt_stdio_output@@AAE_NXZ 1005f940 f i libucrtd:output.obj
 0001:0005eb30       ?type_case_n@?$output_processor@_WV?$string_output_adapter@_W@__crt_stdio_output@@V?$format_validation_base@_WV?$string_output_adapter@_W@__crt_stdio_output@@@2@@__crt_stdio_output@@AAE_NXZ 1005fb30 f i libucrtd:output.obj
 0001:0005ed20       ?type_case_n@?$output_processor@_WV?$string_output_adapter@_W@__crt_stdio_output@@V?$positional_parameter_base@_WV?$string_output_adapter@_W@__crt_stdio_output@@@2@@__crt_stdio_output@@AAE_NXZ 1005fd20 f i libucrtd:output.obj
 0001:0005ef10       ?type_case_n@?$output_processor@_WV?$string_output_adapter@_W@__crt_stdio_output@@V?$standard_base@_WV?$string_output_adapter@_W@__crt_stdio_output@@@2@@__crt_stdio_output@@AAE_NXZ 1005ff10 f i libucrtd:output.obj
 0001:0005f100       ?type_case_o@?$output_processor@DV?$stream_output_adapter@D@__crt_stdio_output@@V?$format_validation_base@DV?$stream_output_adapter@D@__crt_stdio_output@@@2@@__crt_stdio_output@@AAE_NXZ 10060100 f i libucrtd:output.obj
 0001:0005f140       ?type_case_o@?$output_processor@DV?$stream_output_adapter@D@__crt_stdio_output@@V?$positional_parameter_base@DV?$stream_output_adapter@D@__crt_stdio_output@@@2@@__crt_stdio_output@@AAE_NXZ 10060140 f i libucrtd:output.obj
 0001:0005f180       ?type_case_o@?$output_processor@DV?$stream_output_adapter@D@__crt_stdio_output@@V?$standard_base@DV?$stream_output_adapter@D@__crt_stdio_output@@@2@@__crt_stdio_output@@AAE_NXZ 10060180 f i libucrtd:output.obj
 0001:0005f1c0       ?type_case_o@?$output_processor@DV?$string_output_adapter@D@__crt_stdio_output@@V?$format_validation_base@DV?$string_output_adapter@D@__crt_stdio_output@@@2@@__crt_stdio_output@@AAE_NXZ 100601c0 f i libucrtd:output.obj
 0001:0005f200       ?type_case_o@?$output_processor@DV?$string_output_adapter@D@__crt_stdio_output@@V?$positional_parameter_base@DV?$string_output_adapter@D@__crt_stdio_output@@@2@@__crt_stdio_output@@AAE_NXZ 10060200 f i libucrtd:output.obj
 0001:0005f240       ?type_case_o@?$output_processor@DV?$string_output_adapter@D@__crt_stdio_output@@V?$standard_base@DV?$string_output_adapter@D@__crt_stdio_output@@@2@@__crt_stdio_output@@AAE_NXZ 10060240 f i libucrtd:output.obj
 0001:0005f280       ?type_case_o@?$output_processor@_WV?$stream_output_adapter@_W@__crt_stdio_output@@V?$format_validation_base@_WV?$stream_output_adapter@_W@__crt_stdio_output@@@2@@__crt_stdio_output@@AAE_NXZ 10060280 f i libucrtd:output.obj
 0001:0005f2c0       ?type_case_o@?$output_processor@_WV?$stream_output_adapter@_W@__crt_stdio_output@@V?$positional_parameter_base@_WV?$stream_output_adapter@_W@__crt_stdio_output@@@2@@__crt_stdio_output@@AAE_NXZ 100602c0 f i libucrtd:output.obj
 0001:0005f300       ?type_case_o@?$output_processor@_WV?$stream_output_adapter@_W@__crt_stdio_output@@V?$standard_base@_WV?$stream_output_adapter@_W@__crt_stdio_output@@@2@@__crt_stdio_output@@AAE_NXZ 10060300 f i libucrtd:output.obj
 0001:0005f340       ?type_case_o@?$output_processor@_WV?$string_output_adapter@_W@__crt_stdio_output@@V?$format_validation_base@_WV?$string_output_adapter@_W@__crt_stdio_output@@@2@@__crt_stdio_output@@AAE_NXZ 10060340 f i libucrtd:output.obj
 0001:0005f380       ?type_case_o@?$output_processor@_WV?$string_output_adapter@_W@__crt_stdio_output@@V?$positional_parameter_base@_WV?$string_output_adapter@_W@__crt_stdio_output@@@2@@__crt_stdio_output@@AAE_NXZ 10060380 f i libucrtd:output.obj
 0001:0005f3c0       ?type_case_o@?$output_processor@_WV?$string_output_adapter@_W@__crt_stdio_output@@V?$standard_base@_WV?$string_output_adapter@_W@__crt_stdio_output@@@2@@__crt_stdio_output@@AAE_NXZ 100603c0 f i libucrtd:output.obj
 0001:0005f400       ?type_case_p@?$output_processor@DV?$stream_output_adapter@D@__crt_stdio_output@@V?$format_validation_base@DV?$stream_output_adapter@D@__crt_stdio_output@@@2@@__crt_stdio_output@@AAE_NXZ 10060400 f i libucrtd:output.obj
 0001:0005f430       ?type_case_p@?$output_processor@DV?$stream_output_adapter@D@__crt_stdio_output@@V?$positional_parameter_base@DV?$stream_output_adapter@D@__crt_stdio_output@@@2@@__crt_stdio_output@@AAE_NXZ 10060430 f i libucrtd:output.obj
 0001:0005f460       ?type_case_p@?$output_processor@DV?$stream_output_adapter@D@__crt_stdio_output@@V?$standard_base@DV?$stream_output_adapter@D@__crt_stdio_output@@@2@@__crt_stdio_output@@AAE_NXZ 10060460 f i libucrtd:output.obj
 0001:0005f490       ?type_case_p@?$output_processor@DV?$string_output_adapter@D@__crt_stdio_output@@V?$format_validation_base@DV?$string_output_adapter@D@__crt_stdio_output@@@2@@__crt_stdio_output@@AAE_NXZ 10060490 f i libucrtd:output.obj
 0001:0005f4c0       ?type_case_p@?$output_processor@DV?$string_output_adapter@D@__crt_stdio_output@@V?$positional_parameter_base@DV?$string_output_adapter@D@__crt_stdio_output@@@2@@__crt_stdio_output@@AAE_NXZ 100604c0 f i libucrtd:output.obj
 0001:0005f4f0       ?type_case_p@?$output_processor@DV?$string_output_adapter@D@__crt_stdio_output@@V?$standard_base@DV?$string_output_adapter@D@__crt_stdio_output@@@2@@__crt_stdio_output@@AAE_NXZ 100604f0 f i libucrtd:output.obj
 0001:0005f520       ?type_case_p@?$output_processor@_WV?$stream_output_adapter@_W@__crt_stdio_output@@V?$format_validation_base@_WV?$stream_output_adapter@_W@__crt_stdio_output@@@2@@__crt_stdio_output@@AAE_NXZ 10060520 f i libucrtd:output.obj
 0001:0005f550       ?type_case_p@?$output_processor@_WV?$stream_output_adapter@_W@__crt_stdio_output@@V?$positional_parameter_base@_WV?$stream_output_adapter@_W@__crt_stdio_output@@@2@@__crt_stdio_output@@AAE_NXZ 10060550 f i libucrtd:output.obj
 0001:0005f580       ?type_case_p@?$output_processor@_WV?$stream_output_adapter@_W@__crt_stdio_output@@V?$standard_base@_WV?$stream_output_adapter@_W@__crt_stdio_output@@@2@@__crt_stdio_output@@AAE_NXZ 10060580 f i libucrtd:output.obj
 0001:0005f5b0       ?type_case_p@?$output_processor@_WV?$string_output_adapter@_W@__crt_stdio_output@@V?$format_validation_base@_WV?$string_output_adapter@_W@__crt_stdio_output@@@2@@__crt_stdio_output@@AAE_NXZ 100605b0 f i libucrtd:output.obj
 0001:0005f5e0       ?type_case_p@?$output_processor@_WV?$string_output_adapter@_W@__crt_stdio_output@@V?$positional_parameter_base@_WV?$string_output_adapter@_W@__crt_stdio_output@@@2@@__crt_stdio_output@@AAE_NXZ 100605e0 f i libucrtd:output.obj
 0001:0005f610       ?type_case_p@?$output_processor@_WV?$string_output_adapter@_W@__crt_stdio_output@@V?$standard_base@_WV?$string_output_adapter@_W@__crt_stdio_output@@@2@@__crt_stdio_output@@AAE_NXZ 10060610 f i libucrtd:output.obj
 0001:0005f640       ?type_case_s@?$output_processor@DV?$stream_output_adapter@D@__crt_stdio_output@@V?$format_validation_base@DV?$stream_output_adapter@D@__crt_stdio_output@@@2@@__crt_stdio_output@@AAE_NXZ 10060640 f i libucrtd:output.obj
 0001:0005f730       ?type_case_s@?$output_processor@DV?$stream_output_adapter@D@__crt_stdio_output@@V?$positional_parameter_base@DV?$stream_output_adapter@D@__crt_stdio_output@@@2@@__crt_stdio_output@@AAE_NXZ 10060730 f i libucrtd:output.obj
 0001:0005f820       ?type_case_s@?$output_processor@DV?$stream_output_adapter@D@__crt_stdio_output@@V?$standard_base@DV?$stream_output_adapter@D@__crt_stdio_output@@@2@@__crt_stdio_output@@AAE_NXZ 10060820 f i libucrtd:output.obj
 0001:0005f910       ?type_case_s@?$output_processor@DV?$string_output_adapter@D@__crt_stdio_output@@V?$format_validation_base@DV?$string_output_adapter@D@__crt_stdio_output@@@2@@__crt_stdio_output@@AAE_NXZ 10060910 f i libucrtd:output.obj
 0001:0005fa00       ?type_case_s@?$output_processor@DV?$string_output_adapter@D@__crt_stdio_output@@V?$positional_parameter_base@DV?$string_output_adapter@D@__crt_stdio_output@@@2@@__crt_stdio_output@@AAE_NXZ 10060a00 f i libucrtd:output.obj
 0001:0005faf0       ?type_case_s@?$output_processor@DV?$string_output_adapter@D@__crt_stdio_output@@V?$standard_base@DV?$string_output_adapter@D@__crt_stdio_output@@@2@@__crt_stdio_output@@AAE_NXZ 10060af0 f i libucrtd:output.obj
 0001:0005fbe0       ?type_case_s@?$output_processor@_WV?$stream_output_adapter@_W@__crt_stdio_output@@V?$format_validation_base@_WV?$stream_output_adapter@_W@__crt_stdio_output@@@2@@__crt_stdio_output@@AAE_NXZ 10060be0 f i libucrtd:output.obj
 0001:0005fcd0       ?type_case_s@?$output_processor@_WV?$stream_output_adapter@_W@__crt_stdio_output@@V?$positional_parameter_base@_WV?$stream_output_adapter@_W@__crt_stdio_output@@@2@@__crt_stdio_output@@AAE_NXZ 10060cd0 f i libucrtd:output.obj
 0001:0005fdc0       ?type_case_s@?$output_processor@_WV?$stream_output_adapter@_W@__crt_stdio_output@@V?$standard_base@_WV?$stream_output_adapter@_W@__crt_stdio_output@@@2@@__crt_stdio_output@@AAE_NXZ 10060dc0 f i libucrtd:output.obj
 0001:0005feb0       ?type_case_s@?$output_processor@_WV?$string_output_adapter@_W@__crt_stdio_output@@V?$format_validation_base@_WV?$string_output_adapter@_W@__crt_stdio_output@@@2@@__crt_stdio_output@@AAE_NXZ 10060eb0 f i libucrtd:output.obj
 0001:0005ffa0       ?type_case_s@?$output_processor@_WV?$string_output_adapter@_W@__crt_stdio_output@@V?$positional_parameter_base@_WV?$string_output_adapter@_W@__crt_stdio_output@@@2@@__crt_stdio_output@@AAE_NXZ 10060fa0 f i libucrtd:output.obj
 0001:00060090       ?type_case_s@?$output_processor@_WV?$string_output_adapter@_W@__crt_stdio_output@@V?$standard_base@_WV?$string_output_adapter@_W@__crt_stdio_output@@@2@@__crt_stdio_output@@AAE_NXZ 10061090 f i libucrtd:output.obj
 0001:00060180       ?type_case_s_compute_narrow_string_length@?$output_processor@DV?$stream_output_adapter@D@__crt_stdio_output@@V?$format_validation_base@DV?$stream_output_adapter@D@__crt_stdio_output@@@2@@__crt_stdio_output@@ABEHHD@Z 10061180 f i libucrtd:output.obj
 0001:000601b0       ?type_case_s_compute_narrow_string_length@?$output_processor@DV?$stream_output_adapter@D@__crt_stdio_output@@V?$positional_parameter_base@DV?$stream_output_adapter@D@__crt_stdio_output@@@2@@__crt_stdio_output@@ABEHHD@Z 100611b0 f i libucrtd:output.obj
 0001:000601e0       ?type_case_s_compute_narrow_string_length@?$output_processor@DV?$stream_output_adapter@D@__crt_stdio_output@@V?$standard_base@DV?$stream_output_adapter@D@__crt_stdio_output@@@2@@__crt_stdio_output@@ABEHHD@Z 100611e0 f i libucrtd:output.obj
 0001:00060210       ?type_case_s_compute_narrow_string_length@?$output_processor@DV?$string_output_adapter@D@__crt_stdio_output@@V?$format_validation_base@DV?$string_output_adapter@D@__crt_stdio_output@@@2@@__crt_stdio_output@@ABEHHD@Z 10061210 f i libucrtd:output.obj
 0001:00060240       ?type_case_s_compute_narrow_string_length@?$output_processor@DV?$string_output_adapter@D@__crt_stdio_output@@V?$positional_parameter_base@DV?$string_output_adapter@D@__crt_stdio_output@@@2@@__crt_stdio_output@@ABEHHD@Z 10061240 f i libucrtd:output.obj
 0001:00060270       ?type_case_s_compute_narrow_string_length@?$output_processor@DV?$string_output_adapter@D@__crt_stdio_output@@V?$standard_base@DV?$string_output_adapter@D@__crt_stdio_output@@@2@@__crt_stdio_output@@ABEHHD@Z 10061270 f i libucrtd:output.obj
 0001:000602a0       ?type_case_s_compute_narrow_string_length@?$output_processor@_WV?$stream_output_adapter@_W@__crt_stdio_output@@V?$format_validation_base@_WV?$stream_output_adapter@_W@__crt_stdio_output@@@2@@__crt_stdio_output@@ABEHH_W@Z 100612a0 f i libucrtd:output.obj
 0001:00060310       ?type_case_s_compute_narrow_string_length@?$output_processor@_WV?$stream_output_adapter@_W@__crt_stdio_output@@V?$positional_parameter_base@_WV?$stream_output_adapter@_W@__crt_stdio_output@@@2@@__crt_stdio_output@@ABEHH_W@Z 10061310 f i libucrtd:output.obj
 0001:00060380       ?type_case_s_compute_narrow_string_length@?$output_processor@_WV?$stream_output_adapter@_W@__crt_stdio_output@@V?$standard_base@_WV?$stream_output_adapter@_W@__crt_stdio_output@@@2@@__crt_stdio_output@@ABEHH_W@Z 10061380 f i libucrtd:output.obj
 0001:000603f0       ?type_case_s_compute_narrow_string_length@?$output_processor@_WV?$string_output_adapter@_W@__crt_stdio_output@@V?$format_validation_base@_WV?$string_output_adapter@_W@__crt_stdio_output@@@2@@__crt_stdio_output@@ABEHH_W@Z 100613f0 f i libucrtd:output.obj
 0001:00060460       ?type_case_s_compute_narrow_string_length@?$output_processor@_WV?$string_output_adapter@_W@__crt_stdio_output@@V?$positional_parameter_base@_WV?$string_output_adapter@_W@__crt_stdio_output@@@2@@__crt_stdio_output@@ABEHH_W@Z 10061460 f i libucrtd:output.obj
 0001:000604d0       ?type_case_s_compute_narrow_string_length@?$output_processor@_WV?$string_output_adapter@_W@__crt_stdio_output@@V?$standard_base@_WV?$string_output_adapter@_W@__crt_stdio_output@@@2@@__crt_stdio_output@@ABEHH_W@Z 100614d0 f i libucrtd:output.obj
 0001:00060540       ?type_case_u@?$output_processor@DV?$stream_output_adapter@D@__crt_stdio_output@@V?$format_validation_base@DV?$stream_output_adapter@D@__crt_stdio_output@@@2@@__crt_stdio_output@@AAE_NXZ 10061540 f i libucrtd:output.obj
 0001:00060560       ?type_case_u@?$output_processor@DV?$stream_output_adapter@D@__crt_stdio_output@@V?$positional_parameter_base@DV?$stream_output_adapter@D@__crt_stdio_output@@@2@@__crt_stdio_output@@AAE_NXZ 10061560 f i libucrtd:output.obj
 0001:00060580       ?type_case_u@?$output_processor@DV?$stream_output_adapter@D@__crt_stdio_output@@V?$standard_base@DV?$stream_output_adapter@D@__crt_stdio_output@@@2@@__crt_stdio_output@@AAE_NXZ 10061580 f i libucrtd:output.obj
 0001:000605a0       ?type_case_u@?$output_processor@DV?$string_output_adapter@D@__crt_stdio_output@@V?$format_validation_base@DV?$string_output_adapter@D@__crt_stdio_output@@@2@@__crt_stdio_output@@AAE_NXZ 100615a0 f i libucrtd:output.obj
 0001:000605c0       ?type_case_u@?$output_processor@DV?$string_output_adapter@D@__crt_stdio_output@@V?$positional_parameter_base@DV?$string_output_adapter@D@__crt_stdio_output@@@2@@__crt_stdio_output@@AAE_NXZ 100615c0 f i libucrtd:output.obj
 0001:000605e0       ?type_case_u@?$output_processor@DV?$string_output_adapter@D@__crt_stdio_output@@V?$standard_base@DV?$string_output_adapter@D@__crt_stdio_output@@@2@@__crt_stdio_output@@AAE_NXZ 100615e0 f i libucrtd:output.obj
 0001:00060600       ?type_case_u@?$output_processor@_WV?$stream_output_adapter@_W@__crt_stdio_output@@V?$format_validation_base@_WV?$stream_output_adapter@_W@__crt_stdio_output@@@2@@__crt_stdio_output@@AAE_NXZ 10061600 f i libucrtd:output.obj
 0001:00060620       ?type_case_u@?$output_processor@_WV?$stream_output_adapter@_W@__crt_stdio_output@@V?$positional_parameter_base@_WV?$stream_output_adapter@_W@__crt_stdio_output@@@2@@__crt_stdio_output@@AAE_NXZ 10061620 f i libucrtd:output.obj
 0001:00060640       ?type_case_u@?$output_processor@_WV?$stream_output_adapter@_W@__crt_stdio_output@@V?$standard_base@_WV?$stream_output_adapter@_W@__crt_stdio_output@@@2@@__crt_stdio_output@@AAE_NXZ 10061640 f i libucrtd:output.obj
 0001:00060660       ?type_case_u@?$output_processor@_WV?$string_output_adapter@_W@__crt_stdio_output@@V?$format_validation_base@_WV?$string_output_adapter@_W@__crt_stdio_output@@@2@@__crt_stdio_output@@AAE_NXZ 10061660 f i libucrtd:output.obj
 0001:00060680       ?type_case_u@?$output_processor@_WV?$string_output_adapter@_W@__crt_stdio_output@@V?$positional_parameter_base@_WV?$string_output_adapter@_W@__crt_stdio_output@@@2@@__crt_stdio_output@@AAE_NXZ 10061680 f i libucrtd:output.obj
 0001:000606a0       ?type_case_u@?$output_processor@_WV?$string_output_adapter@_W@__crt_stdio_output@@V?$standard_base@_WV?$string_output_adapter@_W@__crt_stdio_output@@@2@@__crt_stdio_output@@AAE_NXZ 100616a0 f i libucrtd:output.obj
 0001:000606c0       ?type_case_x@?$output_processor@DV?$stream_output_adapter@D@__crt_stdio_output@@V?$format_validation_base@DV?$stream_output_adapter@D@__crt_stdio_output@@@2@@__crt_stdio_output@@AAE_NXZ 100616c0 f i libucrtd:output.obj
 0001:000606e0       ?type_case_x@?$output_processor@DV?$stream_output_adapter@D@__crt_stdio_output@@V?$positional_parameter_base@DV?$stream_output_adapter@D@__crt_stdio_output@@@2@@__crt_stdio_output@@AAE_NXZ 100616e0 f i libucrtd:output.obj
 0001:00060700       ?type_case_x@?$output_processor@DV?$stream_output_adapter@D@__crt_stdio_output@@V?$standard_base@DV?$stream_output_adapter@D@__crt_stdio_output@@@2@@__crt_stdio_output@@AAE_NXZ 10061700 f i libucrtd:output.obj
 0001:00060720       ?type_case_x@?$output_processor@DV?$string_output_adapter@D@__crt_stdio_output@@V?$format_validation_base@DV?$string_output_adapter@D@__crt_stdio_output@@@2@@__crt_stdio_output@@AAE_NXZ 10061720 f i libucrtd:output.obj
 0001:00060740       ?type_case_x@?$output_processor@DV?$string_output_adapter@D@__crt_stdio_output@@V?$positional_parameter_base@DV?$string_output_adapter@D@__crt_stdio_output@@@2@@__crt_stdio_output@@AAE_NXZ 10061740 f i libucrtd:output.obj
 0001:00060760       ?type_case_x@?$output_processor@DV?$string_output_adapter@D@__crt_stdio_output@@V?$standard_base@DV?$string_output_adapter@D@__crt_stdio_output@@@2@@__crt_stdio_output@@AAE_NXZ 10061760 f i libucrtd:output.obj
 0001:00060780       ?type_case_x@?$output_processor@_WV?$stream_output_adapter@_W@__crt_stdio_output@@V?$format_validation_base@_WV?$stream_output_adapter@_W@__crt_stdio_output@@@2@@__crt_stdio_output@@AAE_NXZ 10061780 f i libucrtd:output.obj
 0001:000607a0       ?type_case_x@?$output_processor@_WV?$stream_output_adapter@_W@__crt_stdio_output@@V?$positional_parameter_base@_WV?$stream_output_adapter@_W@__crt_stdio_output@@@2@@__crt_stdio_output@@AAE_NXZ 100617a0 f i libucrtd:output.obj
 0001:000607c0       ?type_case_x@?$output_processor@_WV?$stream_output_adapter@_W@__crt_stdio_output@@V?$standard_base@_WV?$stream_output_adapter@_W@__crt_stdio_output@@@2@@__crt_stdio_output@@AAE_NXZ 100617c0 f i libucrtd:output.obj
 0001:000607e0       ?type_case_x@?$output_processor@_WV?$string_output_adapter@_W@__crt_stdio_output@@V?$format_validation_base@_WV?$string_output_adapter@_W@__crt_stdio_output@@@2@@__crt_stdio_output@@AAE_NXZ 100617e0 f i libucrtd:output.obj
 0001:00060800       ?type_case_x@?$output_processor@_WV?$string_output_adapter@_W@__crt_stdio_output@@V?$positional_parameter_base@_WV?$string_output_adapter@_W@__crt_stdio_output@@@2@@__crt_stdio_output@@AAE_NXZ 10061800 f i libucrtd:output.obj
 0001:00060820       ?type_case_x@?$output_processor@_WV?$string_output_adapter@_W@__crt_stdio_output@@V?$standard_base@_WV?$string_output_adapter@_W@__crt_stdio_output@@@2@@__crt_stdio_output@@AAE_NXZ 10061820 f i libucrtd:output.obj
 0001:00060840       ?unset_flag@?$output_processor@DV?$stream_output_adapter@D@__crt_stdio_output@@V?$format_validation_base@DV?$stream_output_adapter@D@__crt_stdio_output@@@2@@__crt_stdio_output@@AAEXI@Z 10061840 f i libucrtd:output.obj
 0001:00060860       ?unset_flag@?$output_processor@DV?$stream_output_adapter@D@__crt_stdio_output@@V?$positional_parameter_base@DV?$stream_output_adapter@D@__crt_stdio_output@@@2@@__crt_stdio_output@@AAEXI@Z 10061860 f i libucrtd:output.obj
 0001:00060880       ?unset_flag@?$output_processor@DV?$stream_output_adapter@D@__crt_stdio_output@@V?$standard_base@DV?$stream_output_adapter@D@__crt_stdio_output@@@2@@__crt_stdio_output@@AAEXI@Z 10061880 f i libucrtd:output.obj
 0001:000608a0       ?unset_flag@?$output_processor@DV?$string_output_adapter@D@__crt_stdio_output@@V?$format_validation_base@DV?$string_output_adapter@D@__crt_stdio_output@@@2@@__crt_stdio_output@@AAEXI@Z 100618a0 f i libucrtd:output.obj
 0001:000608c0       ?unset_flag@?$output_processor@DV?$string_output_adapter@D@__crt_stdio_output@@V?$positional_parameter_base@DV?$string_output_adapter@D@__crt_stdio_output@@@2@@__crt_stdio_output@@AAEXI@Z 100618c0 f i libucrtd:output.obj
 0001:000608e0       ?unset_flag@?$output_processor@DV?$string_output_adapter@D@__crt_stdio_output@@V?$standard_base@DV?$string_output_adapter@D@__crt_stdio_output@@@2@@__crt_stdio_output@@AAEXI@Z 100618e0 f i libucrtd:output.obj
 0001:00060900       ?unset_flag@?$output_processor@_WV?$stream_output_adapter@_W@__crt_stdio_output@@V?$format_validation_base@_WV?$stream_output_adapter@_W@__crt_stdio_output@@@2@@__crt_stdio_output@@AAEXI@Z 10061900 f i libucrtd:output.obj
 0001:00060920       ?unset_flag@?$output_processor@_WV?$stream_output_adapter@_W@__crt_stdio_output@@V?$positional_parameter_base@_WV?$stream_output_adapter@_W@__crt_stdio_output@@@2@@__crt_stdio_output@@AAEXI@Z 10061920 f i libucrtd:output.obj
 0001:00060940       ?unset_flag@?$output_processor@_WV?$stream_output_adapter@_W@__crt_stdio_output@@V?$standard_base@_WV?$stream_output_adapter@_W@__crt_stdio_output@@@2@@__crt_stdio_output@@AAEXI@Z 10061940 f i libucrtd:output.obj
 0001:00060960       ?unset_flag@?$output_processor@_WV?$string_output_adapter@_W@__crt_stdio_output@@V?$format_validation_base@_WV?$string_output_adapter@_W@__crt_stdio_output@@@2@@__crt_stdio_output@@AAEXI@Z 10061960 f i libucrtd:output.obj
 0001:00060980       ?unset_flag@?$output_processor@_WV?$string_output_adapter@_W@__crt_stdio_output@@V?$positional_parameter_base@_WV?$string_output_adapter@_W@__crt_stdio_output@@@2@@__crt_stdio_output@@AAEXI@Z 10061980 f i libucrtd:output.obj
 0001:000609a0       ?unset_flag@?$output_processor@_WV?$string_output_adapter@_W@__crt_stdio_output@@V?$standard_base@_WV?$string_output_adapter@_W@__crt_stdio_output@@@2@@__crt_stdio_output@@AAEXI@Z 100619a0 f i libucrtd:output.obj
 0001:000609c0       ?update_field_width@?$positional_parameter_base@DV?$stream_output_adapter@D@__crt_stdio_output@@@__crt_stdio_output@@IAE_NXZ 100619c0 f i libucrtd:output.obj
 0001:00060b40       ?update_field_width@?$positional_parameter_base@DV?$string_output_adapter@D@__crt_stdio_output@@@__crt_stdio_output@@IAE_NXZ 10061b40 f i libucrtd:output.obj
 0001:00060cc0       ?update_field_width@?$positional_parameter_base@_WV?$stream_output_adapter@_W@__crt_stdio_output@@@__crt_stdio_output@@IAE_NXZ 10061cc0 f i libucrtd:output.obj
 0001:00060e40       ?update_field_width@?$positional_parameter_base@_WV?$string_output_adapter@_W@__crt_stdio_output@@@__crt_stdio_output@@IAE_NXZ 10061e40 f i libucrtd:output.obj
 0001:00060fc0       ?update_field_width@?$standard_base@DV?$stream_output_adapter@D@__crt_stdio_output@@@__crt_stdio_output@@IAE_NXZ 10061fc0 f i libucrtd:output.obj
 0001:00060ff0       ?update_field_width@?$standard_base@DV?$string_output_adapter@D@__crt_stdio_output@@@__crt_stdio_output@@IAE_NXZ 10061ff0 f i libucrtd:output.obj
 0001:00061020       ?update_field_width@?$standard_base@_WV?$stream_output_adapter@_W@__crt_stdio_output@@@__crt_stdio_output@@IAE_NXZ 10062020 f i libucrtd:output.obj
 0001:00061050       ?update_field_width@?$standard_base@_WV?$string_output_adapter@_W@__crt_stdio_output@@@__crt_stdio_output@@IAE_NXZ 10062050 f i libucrtd:output.obj
 0001:00061080       ?update_precision@?$positional_parameter_base@DV?$stream_output_adapter@D@__crt_stdio_output@@@__crt_stdio_output@@IAE_NXZ 10062080 f i libucrtd:output.obj
 0001:00061200       ?update_precision@?$positional_parameter_base@DV?$string_output_adapter@D@__crt_stdio_output@@@__crt_stdio_output@@IAE_NXZ 10062200 f i libucrtd:output.obj
 0001:00061380       ?update_precision@?$positional_parameter_base@_WV?$stream_output_adapter@_W@__crt_stdio_output@@@__crt_stdio_output@@IAE_NXZ 10062380 f i libucrtd:output.obj
 0001:00061500       ?update_precision@?$positional_parameter_base@_WV?$string_output_adapter@_W@__crt_stdio_output@@@__crt_stdio_output@@IAE_NXZ 10062500 f i libucrtd:output.obj
 0001:00061680       ?update_precision@?$standard_base@DV?$stream_output_adapter@D@__crt_stdio_output@@@__crt_stdio_output@@IAE_NXZ 10062680 f i libucrtd:output.obj
 0001:000616b0       ?update_precision@?$standard_base@DV?$string_output_adapter@D@__crt_stdio_output@@@__crt_stdio_output@@IAE_NXZ 100626b0 f i libucrtd:output.obj
 0001:000616e0       ?update_precision@?$standard_base@_WV?$stream_output_adapter@_W@__crt_stdio_output@@@__crt_stdio_output@@IAE_NXZ 100626e0 f i libucrtd:output.obj
 0001:00061710       ?update_precision@?$standard_base@_WV?$string_output_adapter@_W@__crt_stdio_output@@@__crt_stdio_output@@IAE_NXZ 10062710 f i libucrtd:output.obj
 0001:00061740       ?valid@__crt_stdio_stream@@QBE_NXZ 10062740 f i libucrtd:output.obj
 0001:00061770       ?validate@?$stream_output_adapter@D@__crt_stdio_output@@QBE_NXZ 10062770 f i libucrtd:output.obj
 0001:00061810       ?validate@?$stream_output_adapter@_W@__crt_stdio_output@@QBE_NXZ 10062810 f i libucrtd:output.obj
 0001:000618b0       ?validate@?$string_output_adapter@D@__crt_stdio_output@@QBE_NXZ 100628b0 f i libucrtd:output.obj
 0001:00061940       ?validate@?$string_output_adapter@_W@__crt_stdio_output@@QBE_NXZ 10062940 f i libucrtd:output.obj
 0001:000619d0       ?validate_and_store_parameter_data@?$positional_parameter_base@DV?$stream_output_adapter@D@__crt_stdio_output@@@__crt_stdio_output@@AAE_NAAUparameter_data@12@W4parameter_type@12@DW4length_modifier@2@@Z 100629d0 f i libucrtd:output.obj
 0001:00061aa0       ?validate_and_store_parameter_data@?$positional_parameter_base@DV?$string_output_adapter@D@__crt_stdio_output@@@__crt_stdio_output@@AAE_NAAUparameter_data@12@W4parameter_type@12@DW4length_modifier@2@@Z 10062aa0 f i libucrtd:output.obj
 0001:00061b70       ?validate_and_store_parameter_data@?$positional_parameter_base@_WV?$stream_output_adapter@_W@__crt_stdio_output@@@__crt_stdio_output@@AAE_NAAUparameter_data@12@W4parameter_type@12@_WW4length_modifier@2@@Z 10062b70 f i libucrtd:output.obj
 0001:00061c50       ?validate_and_store_parameter_data@?$positional_parameter_base@_WV?$string_output_adapter@_W@__crt_stdio_output@@@__crt_stdio_output@@AAE_NAAUparameter_data@12@W4parameter_type@12@_WW4length_modifier@2@@Z 10062c50 f i libucrtd:output.obj
 0001:00061d30       ?validate_and_update_state_at_beginning_of_format_character@?$positional_parameter_base@DV?$stream_output_adapter@D@__crt_stdio_output@@@__crt_stdio_output@@IAE_NXZ 10062d30 f i libucrtd:output.obj
 0001:00061f50       ?validate_and_update_state_at_beginning_of_format_character@?$positional_parameter_base@DV?$string_output_adapter@D@__crt_stdio_output@@@__crt_stdio_output@@IAE_NXZ 10062f50 f i libucrtd:output.obj
 0001:00062170       ?validate_and_update_state_at_beginning_of_format_character@?$positional_parameter_base@_WV?$stream_output_adapter@_W@__crt_stdio_output@@@__crt_stdio_output@@IAE_NXZ 10063170 f i libucrtd:output.obj
 0001:00062390       ?validate_and_update_state_at_beginning_of_format_character@?$positional_parameter_base@_WV?$string_output_adapter@_W@__crt_stdio_output@@@__crt_stdio_output@@IAE_NXZ 10063390 f i libucrtd:output.obj
 0001:000625b0       ?validate_and_update_state_at_beginning_of_format_character@?$standard_base@DV?$stream_output_adapter@D@__crt_stdio_output@@@__crt_stdio_output@@IAE_NXZ 100635b0 f i libucrtd:output.obj
 0001:000625c0       ?validate_and_update_state_at_beginning_of_format_character@?$standard_base@DV?$string_output_adapter@D@__crt_stdio_output@@@__crt_stdio_output@@IAE_NXZ 100635c0 f i libucrtd:output.obj
 0001:000625d0       ?validate_and_update_state_at_beginning_of_format_character@?$standard_base@_WV?$stream_output_adapter@_W@__crt_stdio_output@@@__crt_stdio_output@@IAE_NXZ 100635d0 f i libucrtd:output.obj
 0001:000625e0       ?validate_and_update_state_at_beginning_of_format_character@?$standard_base@_WV?$string_output_adapter@_W@__crt_stdio_output@@@__crt_stdio_output@@IAE_NXZ 100635e0 f i libucrtd:output.obj
 0001:000625f0       ?validate_and_update_state_at_end_of_format_string@?$format_validation_base@DV?$stream_output_adapter@D@__crt_stdio_output@@@__crt_stdio_output@@IBE_NXZ 100635f0 f i libucrtd:output.obj
 0001:00062690       ?validate_and_update_state_at_end_of_format_string@?$format_validation_base@DV?$string_output_adapter@D@__crt_stdio_output@@@__crt_stdio_output@@IBE_NXZ 10063690 f i libucrtd:output.obj
 0001:00062730       ?validate_and_update_state_at_end_of_format_string@?$format_validation_base@_WV?$stream_output_adapter@_W@__crt_stdio_output@@@__crt_stdio_output@@IBE_NXZ 10063730 f i libucrtd:output.obj
 0001:000627d0       ?validate_and_update_state_at_end_of_format_string@?$format_validation_base@_WV?$string_output_adapter@_W@__crt_stdio_output@@@__crt_stdio_output@@IBE_NXZ 100637d0 f i libucrtd:output.obj
 0001:00062870       ?validate_and_update_state_at_end_of_format_string@?$positional_parameter_base@DV?$stream_output_adapter@D@__crt_stdio_output@@@__crt_stdio_output@@IAE_NXZ 10063870 f i libucrtd:output.obj
 0001:00062a10       ?validate_and_update_state_at_end_of_format_string@?$positional_parameter_base@DV?$string_output_adapter@D@__crt_stdio_output@@@__crt_stdio_output@@IAE_NXZ 10063a10 f i libucrtd:output.obj
 0001:00062bb0       ?validate_and_update_state_at_end_of_format_string@?$positional_parameter_base@_WV?$stream_output_adapter@_W@__crt_stdio_output@@@__crt_stdio_output@@IAE_NXZ 10063bb0 f i libucrtd:output.obj
 0001:00062d50       ?validate_and_update_state_at_end_of_format_string@?$positional_parameter_base@_WV?$string_output_adapter@_W@__crt_stdio_output@@@__crt_stdio_output@@IAE_NXZ 10063d50 f i libucrtd:output.obj
 0001:00062ef0       ?validate_and_update_state_at_end_of_format_string@?$standard_base@DV?$stream_output_adapter@D@__crt_stdio_output@@@__crt_stdio_output@@IBE_NXZ 10063ef0 f i libucrtd:output.obj
 0001:00062f00       ?validate_and_update_state_at_end_of_format_string@?$standard_base@DV?$string_output_adapter@D@__crt_stdio_output@@@__crt_stdio_output@@IBE_NXZ 10063f00 f i libucrtd:output.obj
 0001:00062f10       ?validate_and_update_state_at_end_of_format_string@?$standard_base@_WV?$stream_output_adapter@_W@__crt_stdio_output@@@__crt_stdio_output@@IBE_NXZ 10063f10 f i libucrtd:output.obj
 0001:00062f20       ?validate_and_update_state_at_end_of_format_string@?$standard_base@_WV?$string_output_adapter@_W@__crt_stdio_output@@@__crt_stdio_output@@IBE_NXZ 10063f20 f i libucrtd:output.obj
 0001:00062f30       ?validate_state_for_type_case_a@?$positional_parameter_base@DV?$stream_output_adapter@D@__crt_stdio_output@@@__crt_stdio_output@@IAE_NXZ 10063f30 f i libucrtd:output.obj
 0001:00063020       ?validate_state_for_type_case_a@?$positional_parameter_base@DV?$string_output_adapter@D@__crt_stdio_output@@@__crt_stdio_output@@IAE_NXZ 10064020 f i libucrtd:output.obj
 0001:00063110       ?validate_state_for_type_case_a@?$positional_parameter_base@_WV?$stream_output_adapter@_W@__crt_stdio_output@@@__crt_stdio_output@@IAE_NXZ 10064110 f i libucrtd:output.obj
 0001:00063200       ?validate_state_for_type_case_a@?$positional_parameter_base@_WV?$string_output_adapter@_W@__crt_stdio_output@@@__crt_stdio_output@@IAE_NXZ 10064200 f i libucrtd:output.obj
 0001:000632f0       ?validate_state_for_type_case_a@?$standard_base@DV?$stream_output_adapter@D@__crt_stdio_output@@@__crt_stdio_output@@IBE_NXZ 100642f0 f i libucrtd:output.obj
 0001:00063300       ?validate_state_for_type_case_a@?$standard_base@DV?$string_output_adapter@D@__crt_stdio_output@@@__crt_stdio_output@@IBE_NXZ 10064300 f i libucrtd:output.obj
 0001:00063310       ?validate_state_for_type_case_a@?$standard_base@_WV?$stream_output_adapter@_W@__crt_stdio_output@@@__crt_stdio_output@@IBE_NXZ 10064310 f i libucrtd:output.obj
 0001:00063320       ?validate_state_for_type_case_a@?$standard_base@_WV?$string_output_adapter@_W@__crt_stdio_output@@@__crt_stdio_output@@IBE_NXZ 10064320 f i libucrtd:output.obj
 0001:00063330       ?validate_stream_is_ansi_if_required@?$__acrt_stdio_char_traits@D@@SA_NQAU_iobuf@@@Z 10064330 f i libucrtd:output.obj
 0001:00063460       ?validate_stream_is_ansi_if_required@?$__acrt_stdio_char_traits@_W@@SA_NQAU_iobuf@@@Z 10064460 f i libucrtd:output.obj
 0001:00063470       ?wide_null_string@?$output_processor@DV?$stream_output_adapter@D@__crt_stdio_output@@V?$format_validation_base@DV?$stream_output_adapter@D@__crt_stdio_output@@@2@@__crt_stdio_output@@CAPA_WXZ 10064470 f i libucrtd:output.obj
 0001:00063480       ?wide_null_string@?$output_processor@DV?$stream_output_adapter@D@__crt_stdio_output@@V?$positional_parameter_base@DV?$stream_output_adapter@D@__crt_stdio_output@@@2@@__crt_stdio_output@@CAPA_WXZ 10064480 f i libucrtd:output.obj
 0001:00063490       ?wide_null_string@?$output_processor@DV?$stream_output_adapter@D@__crt_stdio_output@@V?$standard_base@DV?$stream_output_adapter@D@__crt_stdio_output@@@2@@__crt_stdio_output@@CAPA_WXZ 10064490 f i libucrtd:output.obj
 0001:000634a0       ?wide_null_string@?$output_processor@DV?$string_output_adapter@D@__crt_stdio_output@@V?$format_validation_base@DV?$string_output_adapter@D@__crt_stdio_output@@@2@@__crt_stdio_output@@CAPA_WXZ 100644a0 f i libucrtd:output.obj
 0001:000634b0       ?wide_null_string@?$output_processor@DV?$string_output_adapter@D@__crt_stdio_output@@V?$positional_parameter_base@DV?$string_output_adapter@D@__crt_stdio_output@@@2@@__crt_stdio_output@@CAPA_WXZ 100644b0 f i libucrtd:output.obj
 0001:000634c0       ?wide_null_string@?$output_processor@DV?$string_output_adapter@D@__crt_stdio_output@@V?$standard_base@DV?$string_output_adapter@D@__crt_stdio_output@@@2@@__crt_stdio_output@@CAPA_WXZ 100644c0 f i libucrtd:output.obj
 0001:000634d0       ?wide_null_string@?$output_processor@_WV?$stream_output_adapter@_W@__crt_stdio_output@@V?$format_validation_base@_WV?$stream_output_adapter@_W@__crt_stdio_output@@@2@@__crt_stdio_output@@CAPA_WXZ 100644d0 f i libucrtd:output.obj
 0001:000634e0       ?wide_null_string@?$output_processor@_WV?$stream_output_adapter@_W@__crt_stdio_output@@V?$positional_parameter_base@_WV?$stream_output_adapter@_W@__crt_stdio_output@@@2@@__crt_stdio_output@@CAPA_WXZ 100644e0 f i libucrtd:output.obj
 0001:000634f0       ?wide_null_string@?$output_processor@_WV?$stream_output_adapter@_W@__crt_stdio_output@@V?$standard_base@_WV?$stream_output_adapter@_W@__crt_stdio_output@@@2@@__crt_stdio_output@@CAPA_WXZ 100644f0 f i libucrtd:output.obj
 0001:00063500       ?wide_null_string@?$output_processor@_WV?$string_output_adapter@_W@__crt_stdio_output@@V?$format_validation_base@_WV?$string_output_adapter@_W@__crt_stdio_output@@@2@@__crt_stdio_output@@CAPA_WXZ 10064500 f i libucrtd:output.obj
 0001:00063510       ?wide_null_string@?$output_processor@_WV?$string_output_adapter@_W@__crt_stdio_output@@V?$positional_parameter_base@_WV?$string_output_adapter@_W@__crt_stdio_output@@@2@@__crt_stdio_output@@CAPA_WXZ 10064510 f i libucrtd:output.obj
 0001:00063520       ?wide_null_string@?$output_processor@_WV?$string_output_adapter@_W@__crt_stdio_output@@V?$standard_base@_WV?$string_output_adapter@_W@__crt_stdio_output@@@2@@__crt_stdio_output@@CAPA_WXZ 10064520 f i libucrtd:output.obj
 0001:00063530       ?write_character@?$stream_output_adapter@D@__crt_stdio_output@@QBEXDQAH@Z 10064530 f i libucrtd:output.obj
 0001:000635b0       ?write_character@?$stream_output_adapter@_W@__crt_stdio_output@@QBEX_WQAH@Z 100645b0 f i libucrtd:output.obj
 0001:00063630       ?write_character@?$string_output_adapter@D@__crt_stdio_output@@QBE_NDQAH@Z 10064630 f i libucrtd:output.obj
 0001:000636c0       ?write_character@?$string_output_adapter@_W@__crt_stdio_output@@QBE_N_WQAH@Z 100646c0 f i libucrtd:output.obj
 0001:00063760       ?write_stored_string_tchar@?$output_processor@DV?$stream_output_adapter@D@__crt_stdio_output@@V?$format_validation_base@DV?$stream_output_adapter@D@__crt_stdio_output@@@2@@__crt_stdio_output@@AAE_ND@Z 10064760 f i libucrtd:output.obj
 0001:00063870       ?write_stored_string_tchar@?$output_processor@DV?$stream_output_adapter@D@__crt_stdio_output@@V?$positional_parameter_base@DV?$stream_output_adapter@D@__crt_stdio_output@@@2@@__crt_stdio_output@@AAE_ND@Z 10064870 f i libucrtd:output.obj
 0001:00063980       ?write_stored_string_tchar@?$output_processor@DV?$stream_output_adapter@D@__crt_stdio_output@@V?$standard_base@DV?$stream_output_adapter@D@__crt_stdio_output@@@2@@__crt_stdio_output@@AAE_ND@Z 10064980 f i libucrtd:output.obj
 0001:00063a90       ?write_stored_string_tchar@?$output_processor@DV?$string_output_adapter@D@__crt_stdio_output@@V?$format_validation_base@DV?$string_output_adapter@D@__crt_stdio_output@@@2@@__crt_stdio_output@@AAE_ND@Z 10064a90 f i libucrtd:output.obj
 0001:00063ba0       ?write_stored_string_tchar@?$output_processor@DV?$string_output_adapter@D@__crt_stdio_output@@V?$positional_parameter_base@DV?$string_output_adapter@D@__crt_stdio_output@@@2@@__crt_stdio_output@@AAE_ND@Z 10064ba0 f i libucrtd:output.obj
 0001:00063cb0       ?write_stored_string_tchar@?$output_processor@DV?$string_output_adapter@D@__crt_stdio_output@@V?$standard_base@DV?$string_output_adapter@D@__crt_stdio_output@@@2@@__crt_stdio_output@@AAE_ND@Z 10064cb0 f i libucrtd:output.obj
 0001:00063dc0       ?write_stored_string_tchar@?$output_processor@_WV?$stream_output_adapter@_W@__crt_stdio_output@@V?$format_validation_base@_WV?$stream_output_adapter@_W@__crt_stdio_output@@@2@@__crt_stdio_output@@AAE_N_W@Z 10064dc0 f i libucrtd:output.obj
 0001:00063eb0       ?write_stored_string_tchar@?$output_processor@_WV?$stream_output_adapter@_W@__crt_stdio_output@@V?$positional_parameter_base@_WV?$stream_output_adapter@_W@__crt_stdio_output@@@2@@__crt_stdio_output@@AAE_N_W@Z 10064eb0 f i libucrtd:output.obj
 0001:00063fa0       ?write_stored_string_tchar@?$output_processor@_WV?$stream_output_adapter@_W@__crt_stdio_output@@V?$standard_base@_WV?$stream_output_adapter@_W@__crt_stdio_output@@@2@@__crt_stdio_output@@AAE_N_W@Z 10064fa0 f i libucrtd:output.obj
 0001:00064090       ?write_stored_string_tchar@?$output_processor@_WV?$string_output_adapter@_W@__crt_stdio_output@@V?$format_validation_base@_WV?$string_output_adapter@_W@__crt_stdio_output@@@2@@__crt_stdio_output@@AAE_N_W@Z 10065090 f i libucrtd:output.obj
 0001:00064180       ?write_stored_string_tchar@?$output_processor@_WV?$string_output_adapter@_W@__crt_stdio_output@@V?$positional_parameter_base@_WV?$string_output_adapter@_W@__crt_stdio_output@@@2@@__crt_stdio_output@@AAE_N_W@Z 10065180 f i libucrtd:output.obj
 0001:00064270       ?write_stored_string_tchar@?$output_processor@_WV?$string_output_adapter@_W@__crt_stdio_output@@V?$standard_base@_WV?$string_output_adapter@_W@__crt_stdio_output@@@2@@__crt_stdio_output@@AAE_N_W@Z 10065270 f i libucrtd:output.obj
 0001:00064360       ?write_string@?$stream_output_adapter@D@__crt_stdio_output@@QBEXQBDHQAH1@Z 10065360 f i libucrtd:output.obj
 0001:00064410       ?write_string@?$stream_output_adapter@_W@__crt_stdio_output@@QBEXQB_WHQAH1@Z 10065410 f i libucrtd:output.obj
 0001:000644d0       ?write_string@?$string_output_adapter@D@__crt_stdio_output@@QBEXQBDHQAH1@Z 100654d0 f i libucrtd:output.obj
 0001:000645e0       ?write_string@?$string_output_adapter@_W@__crt_stdio_output@@QBEXQB_WHQAH1@Z 100655e0 f i libucrtd:output.obj
 0001:00064700       ___acrt_isleadbyte_l_noupdate 10065700 f i libucrtd:output.obj
 0001:00064720       ___acrt_locale_changed     10065720 f i libucrtd:output.obj
 0001:00064750       ___stdio_common_vfprintf   10065750 f   libucrtd:output.obj
 0001:00064780       ___stdio_common_vfprintf_p 10065780 f   libucrtd:output.obj
 0001:000647b0       ___stdio_common_vfprintf_s 100657b0 f   libucrtd:output.obj
 0001:000647e0       ___stdio_common_vfwprintf  100657e0 f   libucrtd:output.obj
 0001:00064810       ___stdio_common_vfwprintf_p 10065810 f   libucrtd:output.obj
 0001:00064840       ___stdio_common_vfwprintf_s 10065840 f   libucrtd:output.obj
 0001:00064870       ___stdio_common_vsnprintf_s 10065870 f   libucrtd:output.obj
 0001:000648a0       ___stdio_common_vsnwprintf_s 100658a0 f   libucrtd:output.obj
 0001:000648d0       ___stdio_common_vsprintf   100658d0 f   libucrtd:output.obj
 0001:00064900       ___stdio_common_vsprintf_p 10065900 f   libucrtd:output.obj
 0001:00064930       ___stdio_common_vsprintf_s 10065930 f   libucrtd:output.obj
 0001:00064960       ___stdio_common_vswprintf  10065960 f   libucrtd:output.obj
 0001:00064990       ___stdio_common_vswprintf_p 10065990 f   libucrtd:output.obj
 0001:000649c0       ___stdio_common_vswprintf_s 100659c0 f   libucrtd:output.obj
 0001:000649f0       _free                      100659f0 f   libucrtd:free.obj
 0001:00064a10       _malloc                    10065a10 f   libucrtd:malloc.obj
 0001:00064a30       ??$?RU?$__crt_report_hook_node@D@@@__crt_internal_free_policy@@QBEXQBU?$__crt_report_hook_node@D@@@Z 10065a30 f i libucrtd:dbgrpt.obj
 0001:00064a50       ??$?RU?$__crt_report_hook_node@_W@@@__crt_internal_free_policy@@QBEXQBU?$__crt_report_hook_node@_W@@@Z 10065a50 f i libucrtd:dbgrpt.obj
 0001:00064a70       ??$?RV<lambda_4385efabcfedf7d3ecea3114bb4d80a3>@@AAV<lambda_0e04737ef8baea6dabca2b8414b05b67>@@V<lambda_d865d276f220a9fa71140df531e906d8>@@@?$__crt_seh_guarded_call@H@@QAEH$$QAV<lambda_4385efabcfedf7d3ecea3114bb4d80a3>@@AAV<lambda_0e04737ef8baea6dabca2b8414b05b67>@@$$QAV<lambda_d865d276f220a9fa71140df531e906d8>@@@Z 10065a70 f i libucrtd:dbgrpt.obj
 0001:00064b00       ??$?RV<lambda_cc3a1c0f52e01ba2b29fe175588291fc>@@AAV<lambda_fe667bea668416e0f0232b481cd5c955>@@V<lambda_bb8fdd70844b93de4445abd0f0332611>@@@?$__crt_seh_guarded_call@H@@QAEH$$QAV<lambda_cc3a1c0f52e01ba2b29fe175588291fc>@@AAV<lambda_fe667bea668416e0f0232b481cd5c955>@@$$QAV<lambda_bb8fdd70844b93de4445abd0f0332611>@@@Z 10065b00 f i libucrtd:dbgrpt.obj
 0001:00064b90       ??$__acrt_lock_and_call@V<lambda_0e04737ef8baea6dabca2b8414b05b67>@@@@YAHW4__acrt_lock_id@@$$QAV<lambda_0e04737ef8baea6dabca2b8414b05b67>@@@Z 10065b90 f i libucrtd:dbgrpt.obj
 0001:00064bd0       ??$__acrt_lock_and_call@V<lambda_fe667bea668416e0f0232b481cd5c955>@@@@YAHW4__acrt_lock_id@@$$QAV<lambda_fe667bea668416e0f0232b481cd5c955>@@@Z 10065bd0 f i libucrtd:dbgrpt.obj
 0001:00064c10       ??$__vcrt_va_start_verify_argument_type@QBD@@YAXXZ 10065c10 f i libucrtd:dbgrpt.obj
 0001:00064c20       ??$__vcrt_va_start_verify_argument_type@QB_W@@YAXXZ 10065c20 f i libucrtd:dbgrpt.obj
 0001:00065820       ??$get_module_file_name@AAPAUHINSTANCE__@@AAY0BAF@DK@?$__crt_char_traits@D@@SAKAAPAUHINSTANCE__@@AAY0BAF@D$$QAK@Z 10066820 f i libucrtd:dbgrpt.obj
 0001:00065840       ??$get_module_file_name@AAPAUHINSTANCE__@@AAY0BAF@_WK@?$__crt_char_traits@_W@@SAKAAPAUHINSTANCE__@@AAY0BAF@_W$$QAK@Z 10066840 f i libucrtd:dbgrpt.obj
 0001:00065860       ??$tcscpy_s@AAY0BAF@DIPBD@?$__crt_char_traits@D@@SAHAAY0BAF@D$$QAI$$QAPBD@Z 10066860 f i libucrtd:dbgrpt.obj
 0001:00065880       ??$tcscpy_s@AAY0BAF@_WIPB_W@?$__crt_char_traits@_W@@SAHAAY0BAF@_W$$QAI$$QAPB_W@Z 10066880 f i libucrtd:dbgrpt.obj
 0001:000658a0       ??$tcslen@AAY0BAF@D@?$__crt_char_traits@D@@SAIAAY0BAF@D@Z 100668a0 f i libucrtd:dbgrpt.obj
 0001:000658c0       ??$tcslen@AAY0BAF@_W@?$__crt_char_traits@_W@@SAIAAY0BAF@_W@Z 100668c0 f i libucrtd:dbgrpt.obj
 0001:000658e0       ??$tcslen@ABQBD@?$__crt_char_traits@D@@SAIABQBD@Z 100668e0 f i libucrtd:dbgrpt.obj
 0001:00065900       ??$tcslen@ABQB_W@?$__crt_char_traits@_W@@SAIABQB_W@Z 10066900 f i libucrtd:dbgrpt.obj
 0001:00065a00       ??0?$__crt_unique_heap_ptr@U?$__crt_report_hook_node@D@@U__crt_internal_free_policy@@@@QAE@QAU?$__crt_report_hook_node@D@@@Z 10066a00 f i libucrtd:dbgrpt.obj
 0001:00065a20       ??0?$__crt_unique_heap_ptr@U?$__crt_report_hook_node@_W@@U__crt_internal_free_policy@@@@QAE@QAU?$__crt_report_hook_node@_W@@@Z 10066a20 f i libucrtd:dbgrpt.obj
 0001:00065a40       ??1?$__crt_unique_heap_ptr@U?$__crt_report_hook_node@D@@U__crt_internal_free_policy@@@@QAE@XZ 10066a40 f i libucrtd:dbgrpt.obj
 0001:00065a60       ??1?$__crt_unique_heap_ptr@U?$__crt_report_hook_node@_W@@U__crt_internal_free_policy@@@@QAE@XZ 10066a60 f i libucrtd:dbgrpt.obj
 0001:00065a80       ??B?$__crt_unique_heap_ptr@U?$__crt_report_hook_node@D@@U__crt_internal_free_policy@@@@QBE_NXZ 10066a80 f i libucrtd:dbgrpt.obj
 0001:00065aa0       ??B?$__crt_unique_heap_ptr@U?$__crt_report_hook_node@_W@@U__crt_internal_free_policy@@@@QBE_NXZ 10066aa0 f i libucrtd:dbgrpt.obj
 0001:00065fe0       ?detach@?$__crt_unique_heap_ptr@U?$__crt_report_hook_node@D@@U__crt_internal_free_policy@@@@QAEPAU?$__crt_report_hook_node@D@@XZ 10066fe0 f i libucrtd:dbgrpt.obj
 0001:00066010       ?detach@?$__crt_unique_heap_ptr@U?$__crt_report_hook_node@_W@@U__crt_internal_free_policy@@@@QAEPAU?$__crt_report_hook_node@_W@@XZ 10067010 f i libucrtd:dbgrpt.obj
 0001:00066040       ?get@?$__crt_unique_heap_ptr@U?$__crt_report_hook_node@D@@U__crt_internal_free_policy@@@@QBEPAU?$__crt_report_hook_node@D@@XZ 10067040 f i libucrtd:dbgrpt.obj
 0001:00066060       ?get@?$__crt_unique_heap_ptr@U?$__crt_report_hook_node@_W@@U__crt_internal_free_policy@@@@QBEPAU?$__crt_report_hook_node@_W@@XZ 10067060 f i libucrtd:dbgrpt.obj
 0001:000660e0       ?is_valid@?$__crt_unique_heap_ptr@U?$__crt_report_hook_node@D@@U__crt_internal_free_policy@@@@QBE_NXZ 100670e0 f i libucrtd:dbgrpt.obj
 0001:00066110       ?is_valid@?$__crt_unique_heap_ptr@U?$__crt_report_hook_node@_W@@U__crt_internal_free_policy@@@@QBE_NXZ 10067110 f i libucrtd:dbgrpt.obj
 0001:00066140       ?release@?$__crt_unique_heap_ptr@U?$__crt_report_hook_node@D@@U__crt_internal_free_policy@@@@QAEXXZ 10067140 f i libucrtd:dbgrpt.obj
 0001:00066170       ?release@?$__crt_unique_heap_ptr@U?$__crt_report_hook_node@_W@@U__crt_internal_free_policy@@@@QAEXXZ 10067170 f i libucrtd:dbgrpt.obj
 0001:000661a0       __CrtDbgReport             100671a0 f   libucrtd:dbgrpt.obj
 0001:000661f0       __CrtDbgReportW            100671f0 f   libucrtd:dbgrpt.obj
 0001:00066240       __CrtSetReportHook2        10067240 f   libucrtd:dbgrpt.obj
 0001:00066260       __CrtSetReportHookW2       10067260 f   libucrtd:dbgrpt.obj
 0001:00066280       ___acrt_MessageWindowA     10067280 f   libucrtd:dbgrpt.obj
 0001:000662b0       ___acrt_MessageWindowW     100672b0 f   libucrtd:dbgrpt.obj
 0001:000662e0       __invoke_watson_if_error   100672e0 f i libucrtd:dbgrpt.obj
 0001:00066310       __invoke_watson_if_oneof   10067310 f i libucrtd:dbgrpt.obj
 0001:00066350       __snwprintf_s              10067350 f i libucrtd:dbgrpt.obj
 0001:000663a0       __vsnwprintf_s_l           100673a0 f i libucrtd:dbgrpt.obj
 0001:00066720       _wcscpy_s                  10067720 f   libucrtd:wcscpy_s.obj
 0001:00066740       _wcslen                    10067740 f   libucrtd:wcslen.obj
 0001:00066780       ??$__crt_fast_decode_pointer@P6AXPB_W00II@Z@@YAP6AXPB_W00II@ZQ6AX000II@Z@Z 10067780 f i libucrtd:invalid_parameter.obj
 0001:000667b0       ??$__crt_fast_encode_pointer@P6AXPB_W00II@Z@@YAP6AXPB_W00II@ZQ6AX000II@Z@Z 100677b0 f i libucrtd:invalid_parameter.obj
 0001:000667e0       ?get_current_state_index@__crt_state_management@@YAIXZ 100677e0 f i libucrtd:invalid_parameter.obj
 0001:000667f0       ?initialize@?$dual_state_global@P6AXPB_W00II@Z@__crt_state_management@@QAEXQ6AXPB_W00II@Z@Z 100677f0 f i libucrtd:invalid_parameter.obj
 0001:00066830       ?value@?$dual_state_global@P6AXPB_W00II@Z@__crt_state_management@@QAEAAP6AXPB_W00II@ZXZ 10067830 f i libucrtd:invalid_parameter.obj
 0001:00066850       ___acrt_call_reportfault   10067850 f   libucrtd:invalid_parameter.obj
 0001:000669b0       ___acrt_initialize_invalid_parameter_handler 100679b0 f   libucrtd:invalid_parameter.obj
 0001:000669d0       __get_invalid_parameter_handler 100679d0 f   libucrtd:invalid_parameter.obj
 0001:000669f0       __get_thread_local_invalid_parameter_handler 100679f0 f   libucrtd:invalid_parameter.obj
 0001:00066a20       __invalid_parameter        10067a20 f   libucrtd:invalid_parameter.obj
 0001:00066af0       __invalid_parameter_noinfo 10067af0 f   libucrtd:invalid_parameter.obj
 0001:00066b10       __invalid_parameter_noinfo_noreturn 10067b10 f   libucrtd:invalid_parameter.obj
 0001:00066b40       __invoke_watson            10067b40 f   libucrtd:invalid_parameter.obj
 0001:00066b80       __set_invalid_parameter_handler 10067b80 f   libucrtd:invalid_parameter.obj
 0001:00066bd0       __set_thread_local_invalid_parameter_handler 10067bd0 f   libucrtd:invalid_parameter.obj
 0001:00066c00       ___acrt_errno_from_os_error 10067c00 f   libucrtd:errno.obj
 0001:00066c80       ___acrt_errno_map_os_error 10067c80 f   libucrtd:errno.obj
 0001:00066cb0       ___doserrno                10067cb0 f   libucrtd:errno.obj
 0001:00066ce0       __errno                    10067ce0 f   libucrtd:errno.obj
 0001:00066d10       __get_doserrno             10067d10 f   libucrtd:errno.obj
 0001:00066da0       __get_errno                10067da0 f   libucrtd:errno.obj
 0001:00066e30       __set_doserrno             10067e30 f   libucrtd:errno.obj
 0001:00066e60       __set_errno                10067e60 f   libucrtd:errno.obj
 0001:00066e90       _calloc                    10067e90 f   libucrtd:calloc.obj
 0001:00066eb0       __recalloc                 10067eb0 f   libucrtd:recalloc.obj
 0001:00066ee0       __recalloc_base            10067ee0 f   libucrtd:recalloc.obj
 0001:00066f7a       __resetstkoflw             10067f7a f   libucrtd:resetstk.obj
 0001:00067470       _wcscat_s                  10068470 f   libucrtd:wcscat_s.obj
 0001:000678c0       _wcsncpy_s                 100688c0 f   libucrtd:wcsncpy_s.obj
 0001:00067900       ___acrt_get_locale_data_prefix 10068900 f i libucrtd:_ctype.obj
 0001:00067920       ___isascii                 10068920 f i libucrtd:_ctype.obj
 0001:00067950       ___iscsym                  10068950 f i libucrtd:_ctype.obj
 0001:00067990       ___iscsymf                 10068990 f i libucrtd:_ctype.obj
 0001:000679d0       ___toascii                 100689d0 f i libucrtd:_ctype.obj
 0001:000679e0       __chvalidchk_l             100689e0 f i libucrtd:_ctype.obj
 0001:00067a00       __isalnum_l                10068a00 f i libucrtd:_ctype.obj
 0001:00067a40       __isalpha_l                10068a40 f i libucrtd:_ctype.obj
 0001:00067a80       __isblank_l                10068a80 f i libucrtd:_ctype.obj
 0001:00067ae0       __ischartype_l             10068ae0 f i libucrtd:_ctype.obj
 0001:00067b30       __iscntrl_l                10068b30 f i libucrtd:_ctype.obj
 0001:00067b70       __iscsym_l                 10068b70 f i libucrtd:_ctype.obj
 0001:00067bb0       __iscsymf_l                10068bb0 f i libucrtd:_ctype.obj
 0001:00067bf0       __isdigit_l                10068bf0 f i libucrtd:_ctype.obj
 0001:00067c30       __isgraph_l                10068c30 f i libucrtd:_ctype.obj
 0001:00067c70       __islower_l                10068c70 f i libucrtd:_ctype.obj
 0001:00067cb0       __isprint_l                10068cb0 f i libucrtd:_ctype.obj
 0001:00067cf0       __ispunct_l                10068cf0 f i libucrtd:_ctype.obj
 0001:00067d30       __isspace_l                10068d30 f i libucrtd:_ctype.obj
 0001:00067d70       __isupper_l                10068d70 f i libucrtd:_ctype.obj
 0001:00067db0       __isxdigit_l               10068db0 f i libucrtd:_ctype.obj
 0001:00067df0       _isalnum                   10068df0 f i libucrtd:_ctype.obj
 0001:00067e30       _isalpha                   10068e30 f i libucrtd:_ctype.obj
 0001:00067e70       _isblank                   10068e70 f i libucrtd:_ctype.obj
 0001:00067ed0       _iscntrl                   10068ed0 f i libucrtd:_ctype.obj
 0001:00067f10       _isdigit                   10068f10 f i libucrtd:_ctype.obj
 0001:00067f50       _isgraph                   10068f50 f i libucrtd:_ctype.obj
 0001:00067f90       _islower                   10068f90 f i libucrtd:_ctype.obj
 0001:00067fd0       _isprint                   10068fd0 f i libucrtd:_ctype.obj
 0001:00068010       _ispunct                   10069010 f i libucrtd:_ctype.obj
 0001:00068050       _isspace                   10069050 f i libucrtd:_ctype.obj
 0001:00068090       _isupper                   10069090 f i libucrtd:_ctype.obj
 0001:000680d0       _isxdigit                  100690d0 f i libucrtd:_ctype.obj
 0001:00068110       _wcscat                    10069110 f   libucrtd:wcscat.obj
 0001:00068170       _wcscpy                    10069170 f   libucrtd:wcscpy.obj
 0001:00068800       ??$open_file@ABQBDABQBDABHPAU_iobuf@@@?$__crt_char_traits@D@@SAPAU_iobuf@@ABQBD0ABH$$QAPAU1@@Z 10069800 f i libucrtd:fopen.obj
 0001:00068830       ??$open_file@ABQB_WABQB_WABHPAU_iobuf@@@?$__crt_char_traits@_W@@SAPAU_iobuf@@ABQB_W0ABH$$QAPAU1@@Z 10069830 f i libucrtd:fopen.obj
 0001:00068860       ?unlock@__crt_stdio_stream@@QBEXXZ 10069860 f i libucrtd:fopen.obj
 0001:00068880       __fsopen                   10069880 f   libucrtd:fopen.obj
 0001:000688a0       __wfopen                   100698a0 f   libucrtd:fopen.obj
 0001:000688c0       __wfopen_s                 100698c0 f   libucrtd:fopen.obj
 0001:000688e0       __wfsopen                  100698e0 f   libucrtd:fopen.obj
 0001:00068900       _fopen                     10069900 f   libucrtd:fopen.obj
 0001:00068920       _fopen_s                   10069920 f   libucrtd:fopen.obj
 0001:00068940       ?is_in_use@__crt_stdio_stream@@QBE_NXZ 10069940 f i libucrtd:fclose.obj
 0001:00068980       __fclose_nolock            10069980 f   libucrtd:fclose.obj
 0001:00068ac0       _fclose                    10069ac0 f   libucrtd:fclose.obj
 0001:00068c10       __fputc_nolock             10069c10 f   libucrtd:fputc.obj
 0001:00068ca0       __fputchar                 10069ca0 f   libucrtd:fputc.obj
 0001:00068cc0       __putc_nolock              10069cc0 f   libucrtd:fputc.obj
 0001:00068ce0       _fputc                     10069ce0 f   libucrtd:fputc.obj
 0001:00068f20       _putc                      10069f20 f   libucrtd:fputc.obj
 0001:00068f40       _putchar                   10069f40 f   libucrtd:fputc.obj
 0001:00068fb0       __seh_filter_dll           10069fb0 f   libucrtd:exception_filter.obj
 0001:00068fe0       __seh_filter_exe           10069fe0 f   libucrtd:exception_filter.obj
 0001:00069200       ??$?B$$A6GXPAXK0@Z@__crt_fast_encoded_nullptr_t@@QBEP6GXPAXK0@ZXZ 1006a200 f i libucrtd:exit.obj
 0001:00069220       ??$__crt_fast_decode_pointer@P6GXPAXK0@Z@@YAP6GXPAXK0@ZQ6GX0K0@Z@Z 1006a220 f i libucrtd:exit.obj
 0001:00069250       ??$__crt_fast_encode_pointer@P6GXPAXK0@Z@@YAP6GXPAXK0@ZQ6GX0K0@Z@Z 1006a250 f i libucrtd:exit.obj
 0001:00069280       ??$__crt_get_proc_address@P6GXI@Z@@YAP6GXI@ZQAUHINSTANCE__@@QBD@Z 1006a280 f i libucrtd:exit.obj
 0001:000692a0       ??0?$__crt_unique_handle_t@U__crt_hmodule_traits@@@@QAE@QAUHINSTANCE__@@@Z 1006a2a0 f i libucrtd:exit.obj
 0001:000692c0       ??1?$__crt_unique_handle_t@U__crt_hmodule_traits@@@@QAE@XZ 1006a2c0 f i libucrtd:exit.obj
 0001:00069300       ?close@?$__crt_unique_handle_t@U__crt_hmodule_traits@@@@QAEXXZ 1006a300 f i libucrtd:exit.obj
 0001:00069340       ?close@__crt_hmodule_traits@@SA_NPAUHINSTANCE__@@@Z 1006a340 f i libucrtd:exit.obj
 0001:00069570       ?get@?$__crt_unique_handle_t@U__crt_hmodule_traits@@@@QBEPAUHINSTANCE__@@XZ 1006a570 f i libucrtd:exit.obj
 0001:00069590       ?get_address_of@?$__crt_unique_handle_t@U__crt_hmodule_traits@@@@QAEPAPAUHINSTANCE__@@XZ 1006a590 f i libucrtd:exit.obj
 0001:000695a0       ?get_invalid_value@__crt_hmodule_traits@@SAPAUHINSTANCE__@@XZ 1006a5a0 f i libucrtd:exit.obj
 0001:00069730       __Exit                     1006a730 f   libucrtd:exit.obj
 0001:00069750       ___acrt_initialize_thread_local_exit_callback 1006a750 f   libucrtd:exit.obj
 0001:00069760       __c_exit                   1006a760 f   libucrtd:exit.obj
 0001:00069780       __cexit                    1006a780 f   libucrtd:exit.obj
 0001:000697a0       __exit                     1006a7a0 f   libucrtd:exit.obj
 0001:000697c0       __is_c_termination_complete 1006a7c0 f   libucrtd:exit.obj
 0001:000697e0       __register_thread_local_exe_atexit_callback 1006a7e0 f   libucrtd:exit.obj
 0001:00069820       _exit                      1006a820 f   libucrtd:exit.obj
 0001:00069840       _quick_exit                1006a840 f   libucrtd:exit.obj
 0001:00069860       ??$?RE@__crt_internal_free_policy@@QBEXQBE@Z 1006a860 f i libucrtd:argv_parsing.obj
 0001:00069880       ??$?RPAD@__crt_internal_free_policy@@QBEXQBQAD@Z 1006a880 f i libucrtd:argv_parsing.obj
 0001:000698a0       ??$?RPA_W@__crt_internal_free_policy@@QBEXQBQA_W@Z 1006a8a0 f i libucrtd:argv_parsing.obj
 0001:00069de0       ??$get_module_file_name@$$TAAY0BAF@DH@?$__crt_char_traits@D@@SAK$$QA$$TAAY0BAF@D$$QAH@Z 1006ade0 f i libucrtd:argv_parsing.obj
 0001:00069e00       ??$get_module_file_name@$$TAAY0BAF@_WH@?$__crt_char_traits@_W@@SAK$$QA$$TAAY0BAF@_W$$QAH@Z 1006ae00 f i libucrtd:argv_parsing.obj
 0001:0006a520       ??$set_program_name@PAD@?$__crt_char_traits@D@@SAX$$QAPAD@Z 1006b520 f i libucrtd:argv_parsing.obj
 0001:0006a540       ??$set_program_name@PA_W@?$__crt_char_traits@_W@@SAX$$QAPA_W@Z 1006b540 f i libucrtd:argv_parsing.obj
 0001:0006a5a0       ??0?$__crt_unique_heap_ptr@EU__crt_internal_free_policy@@@@QAE@QAE@Z 1006b5a0 f i libucrtd:argv_parsing.obj
 0001:0006a5c0       ??0?$__crt_unique_heap_ptr@PADU__crt_internal_free_policy@@@@QAE@QAPAD@Z 1006b5c0 f i libucrtd:argv_parsing.obj
 0001:0006a5e0       ??0?$__crt_unique_heap_ptr@PA_WU__crt_internal_free_policy@@@@QAE@QAPA_W@Z 1006b5e0 f i libucrtd:argv_parsing.obj
 0001:0006a600       ??1?$__crt_unique_heap_ptr@EU__crt_internal_free_policy@@@@QAE@XZ 1006b600 f i libucrtd:argv_parsing.obj
 0001:0006a620       ??1?$__crt_unique_heap_ptr@PADU__crt_internal_free_policy@@@@QAE@XZ 1006b620 f i libucrtd:argv_parsing.obj
 0001:0006a640       ??1?$__crt_unique_heap_ptr@PA_WU__crt_internal_free_policy@@@@QAE@XZ 1006b640 f i libucrtd:argv_parsing.obj
 0001:0006a660       ??B?$__crt_unique_heap_ptr@EU__crt_internal_free_policy@@@@QBE_NXZ 1006b660 f i libucrtd:argv_parsing.obj
 0001:0006a720       ?detach@?$__crt_unique_heap_ptr@EU__crt_internal_free_policy@@@@QAEPAEXZ 1006b720 f i libucrtd:argv_parsing.obj
 0001:0006a750       ?detach@?$__crt_unique_heap_ptr@PADU__crt_internal_free_policy@@@@QAEPAPADXZ 1006b750 f i libucrtd:argv_parsing.obj
 0001:0006a780       ?detach@?$__crt_unique_heap_ptr@PA_WU__crt_internal_free_policy@@@@QAEPAPA_WXZ 1006b780 f i libucrtd:argv_parsing.obj
 0001:0006a810       ?get@?$__crt_unique_heap_ptr@EU__crt_internal_free_policy@@@@QBEPAEXZ 1006b810 f i libucrtd:argv_parsing.obj
 0001:0006a830       ?get@?$__crt_unique_heap_ptr@PADU__crt_internal_free_policy@@@@QBEPAPADXZ 1006b830 f i libucrtd:argv_parsing.obj
 0001:0006a850       ?get@?$__crt_unique_heap_ptr@PA_WU__crt_internal_free_policy@@@@QBEPAPA_WXZ 1006b850 f i libucrtd:argv_parsing.obj
 0001:0006a870       ?get_address_of@?$__crt_unique_heap_ptr@PADU__crt_internal_free_policy@@@@QAEPAPAPADXZ 1006b870 f i libucrtd:argv_parsing.obj
 0001:0006a880       ?get_address_of@?$__crt_unique_heap_ptr@PA_WU__crt_internal_free_policy@@@@QAEPAPAPA_WXZ 1006b880 f i libucrtd:argv_parsing.obj
 0001:0006a8d0       ?is_valid@?$__crt_unique_heap_ptr@EU__crt_internal_free_policy@@@@QBE_NXZ 1006b8d0 f i libucrtd:argv_parsing.obj
 0001:0006a900       ?release@?$__crt_unique_heap_ptr@EU__crt_internal_free_policy@@@@QAEXXZ 1006b900 f i libucrtd:argv_parsing.obj
 0001:0006a930       ?release@?$__crt_unique_heap_ptr@PADU__crt_internal_free_policy@@@@QAEXXZ 1006b930 f i libucrtd:argv_parsing.obj
 0001:0006a960       ?release@?$__crt_unique_heap_ptr@PA_WU__crt_internal_free_policy@@@@QAEXXZ 1006b960 f i libucrtd:argv_parsing.obj
 0001:0006a9d0       ___acrt_allocate_buffer_for_argv 1006b9d0 f   libucrtd:argv_parsing.obj
 0001:0006aa90       __configure_narrow_argv    1006ba90 f   libucrtd:argv_parsing.obj
 0001:0006aab0       __configure_wide_argv      1006bab0 f   libucrtd:argv_parsing.obj
 0001:0006aad0       __set_pgmptr               1006bad0 f i libucrtd:argv_parsing.obj
 0001:0006aae0       __set_wpgmptr              1006bae0 f i libucrtd:argv_parsing.obj
 0001:0006aaef       ??$?R_W@__crt_internal_free_policy@@QBEXQB_W@Z 1006baef f i libucrtd:environment_initialization.obj
 0001:0006af56       ??$get_environment_from_os@$$$V@?$__crt_char_traits@D@@SAPADXZ 1006bf56 f i libucrtd:environment_initialization.obj
 0001:0006af5b       ??$get_environment_from_os@$$$V@?$__crt_char_traits@_W@@SAPA_WXZ 1006bf5b f i libucrtd:environment_initialization.obj
 0001:0006b07c       ??$set_variable_in_environment_nolock@PADH@?$__crt_char_traits@D@@SAH$$QAPAD$$QAH@Z 1006c07c f i libucrtd:environment_initialization.obj
 0001:0006b094       ??$set_variable_in_environment_nolock@PA_WH@?$__crt_char_traits@_W@@SAH$$QAPA_W$$QAH@Z 1006c094 f i libucrtd:environment_initialization.obj
 0001:0006b0ac       ??$tcscpy_s@PADABIAAPAD@?$__crt_char_traits@D@@SAH$$QAPADABIAAPAD@Z 1006c0ac f i libucrtd:environment_initialization.obj
 0001:0006b0ca       ??$tcscpy_s@PA_WABIAAPA_W@?$__crt_char_traits@_W@@SAH$$QAPA_WABIAAPA_W@Z 1006c0ca f i libucrtd:environment_initialization.obj
 0001:0006b0e8       ??$tcslen@AAPAD@?$__crt_char_traits@D@@SAIAAPAD@Z 1006c0e8 f i libucrtd:environment_initialization.obj
 0001:0006b100       ??$tcslen@AAPA_W@?$__crt_char_traits@_W@@SAIAAPA_W@Z 1006c100 f i libucrtd:environment_initialization.obj
 0001:0006b11e       ??$uninitialize@A6AXAAPAPAD@Z@?$dual_state_global@PAPAD@__crt_state_management@@QAEXA6AXAAPAPAD@Z@Z 1006c11e f i libucrtd:environment_initialization.obj
 0001:0006b15e       ??$uninitialize@A6AXAAPAPA_W@Z@?$dual_state_global@PAPA_W@__crt_state_management@@QAEXA6AXAAPAPA_W@Z@Z 1006c15e f i libucrtd:environment_initialization.obj
 0001:0006b1d4       ??0?$__crt_unique_heap_ptr@_WU__crt_internal_free_policy@@@@QAE@QA_W@Z 1006c1d4 f i libucrtd:environment_initialization.obj
 0001:0006b1e4       ??1?$__crt_unique_heap_ptr@_WU__crt_internal_free_policy@@@@QAE@XZ 1006c1e4 f i libucrtd:environment_initialization.obj
 0001:0006b1f9       ??B?$__crt_unique_heap_ptr@PADU__crt_internal_free_policy@@@@QBE_NXZ 1006c1f9 f i libucrtd:environment_initialization.obj
 0001:0006b201       ??B?$__crt_unique_heap_ptr@PA_WU__crt_internal_free_policy@@@@QBE_NXZ 1006c201 f i libucrtd:environment_initialization.obj
 0001:0006b209       ??B?$__crt_unique_heap_ptr@_WU__crt_internal_free_policy@@@@QBE_NXZ 1006c209 f i libucrtd:environment_initialization.obj
 0001:0006b211       ?__crt_compute_required_transform_buffer_count@@YAIIQBD@Z 1006c211 f i libucrtd:environment_initialization.obj
 0001:0006b22b       ?__crt_compute_required_transform_buffer_count@@YAIIQB_W@Z 1006c22b f i libucrtd:environment_initialization.obj
 0001:0006b247       ?__crt_transform_string@@YAIIQBDQA_WI@Z 1006c247 f i libucrtd:environment_initialization.obj
 0001:0006b264       ?__crt_transform_string@@YAIIQB_WQADI@Z 1006c264 f i libucrtd:environment_initialization.obj
 0001:0006b284       ?detach@?$__crt_unique_heap_ptr@DU__crt_internal_free_policy@@@@QAEPADXZ 1006c284 f i libucrtd:environment_initialization.obj
 0001:0006b28a       ?detach@?$__crt_unique_heap_ptr@_WU__crt_internal_free_policy@@@@QAEPA_WXZ 1006c28a f i libucrtd:environment_initialization.obj
 0001:0006b290       ?get@?$__crt_unique_heap_ptr@_WU__crt_internal_free_policy@@@@QBEPA_WXZ 1006c290 f i libucrtd:environment_initialization.obj
 0001:0006b2b7       ?initialize@?$dual_state_global@PAPAD@__crt_state_management@@QAEXQAPAD@Z 1006c2b7 f i libucrtd:environment_initialization.obj
 0001:0006b2e8       ?initialize@?$dual_state_global@PAPA_W@__crt_state_management@@QAEXQAPA_W@Z 1006c2e8 f i libucrtd:environment_initialization.obj
 0001:0006b319       ?is_valid@?$__crt_unique_heap_ptr@PADU__crt_internal_free_policy@@@@QBE_NXZ 1006c319 f i libucrtd:environment_initialization.obj
 0001:0006b321       ?is_valid@?$__crt_unique_heap_ptr@PA_WU__crt_internal_free_policy@@@@QBE_NXZ 1006c321 f i libucrtd:environment_initialization.obj
 0001:0006b329       ?is_valid@?$__crt_unique_heap_ptr@_WU__crt_internal_free_policy@@@@QBE_NXZ 1006c329 f i libucrtd:environment_initialization.obj
 0001:0006b337       ?release@?$__crt_unique_heap_ptr@_WU__crt_internal_free_policy@@@@QAEXXZ 1006c337 f i libucrtd:environment_initialization.obj
 0001:0006b34c       ?value@?$dual_state_global@PAPAD@__crt_state_management@@QAEAAPAPADXZ 1006c34c f i libucrtd:environment_initialization.obj
 0001:0006b34f       ?value@?$dual_state_global@PAPA_W@__crt_state_management@@QAEAAPAPA_WXZ 1006c34f f i libucrtd:environment_initialization.obj
 0001:0006b352       ___dcrt_get_or_create_narrow_environment_nolock 1006c352 f   libucrtd:environment_initialization.obj
 0001:0006b357       ___dcrt_get_or_create_wide_environment_nolock 1006c357 f   libucrtd:environment_initialization.obj
 0001:0006b35c       ___dcrt_uninitialize_environments_nolock 1006c35c f   libucrtd:environment_initialization.obj
 0001:0006b393       ___p__environ              1006c393 f   libucrtd:environment_initialization.obj
 0001:0006b399       ___p__wenviron             1006c399 f   libucrtd:environment_initialization.obj
 0001:0006b39f       __get_initial_narrow_environment 1006c39f f   libucrtd:environment_initialization.obj
 0001:0006b3b3       __get_initial_wide_environment 1006c3b3 f   libucrtd:environment_initialization.obj
 0001:0006b3c7       __initialize_narrow_environment 1006c3c7 f   libucrtd:environment_initialization.obj
 0001:0006b3cc       __initialize_wide_environment 1006c3cc f   libucrtd:environment_initialization.obj
 0001:0006b3e0       ??$?BP6AXXZ@__crt_fast_encoded_nullptr_t@@QBEPAP6AXXZXZ 1006c3e0 f i libucrtd:onexit.obj
 0001:0006b400       ??$?RP6AXXZ@__crt_internal_free_policy@@QBEXQBQ6AXXZ@Z 1006c400 f i libucrtd:onexit.obj
 0001:0006b420       ??$?RV<lambda_821a00fc0e15a7fd532972332124005d>@@AAV<lambda_942beefa13ab35ff55f86422493ffd6a>@@V<lambda_3ab53bf64df1f1ff33dbc5b1929ce7a7>@@@?$__crt_seh_guarded_call@H@@QAEH$$QAV<lambda_821a00fc0e15a7fd532972332124005d>@@AAV<lambda_942beefa13ab35ff55f86422493ffd6a>@@$$QAV<lambda_3ab53bf64df1f1ff33dbc5b1929ce7a7>@@@Z 1006c420 f i libucrtd:onexit.obj
 0001:0006b4b0       ??$?RV<lambda_a12890e7f9ac9927a62bd0bbd5044c78>@@AAV<lambda_e971338317bfa523bb8920b43d823727>@@V<lambda_e618b16d59e79e236350cab8485990d2>@@@?$__crt_seh_guarded_call@H@@QAEH$$QAV<lambda_a12890e7f9ac9927a62bd0bbd5044c78>@@AAV<lambda_e971338317bfa523bb8920b43d823727>@@$$QAV<lambda_e618b16d59e79e236350cab8485990d2>@@@Z 1006c4b0 f i libucrtd:onexit.obj
 0001:0006b540       ??$__acrt_lock_and_call@V<lambda_942beefa13ab35ff55f86422493ffd6a>@@@@YAHW4__acrt_lock_id@@$$QAV<lambda_942beefa13ab35ff55f86422493ffd6a>@@@Z 1006c540 f i libucrtd:onexit.obj
 0001:0006b580       ??$__acrt_lock_and_call@V<lambda_e971338317bfa523bb8920b43d823727>@@@@YAHW4__acrt_lock_id@@$$QAV<lambda_e971338317bfa523bb8920b43d823727>@@@Z 1006c580 f i libucrtd:onexit.obj
 0001:0006b5c0       ??$__crt_fast_encode_pointer@P6AHXZ@@YAP6AHXZQ6AHXZ@Z 1006c5c0 f i libucrtd:onexit.obj
 0001:0006b6c0       ??0?$__crt_unique_heap_ptr@P6AXXZU__crt_internal_free_policy@@@@QAE@QAP6AXXZ@Z 1006c6c0 f i libucrtd:onexit.obj
 0001:0006b6e0       ??1?$__crt_unique_heap_ptr@P6AXXZU__crt_internal_free_policy@@@@QAE@XZ 1006c6e0 f i libucrtd:onexit.obj
 0001:0006bb30       ?detach@?$__crt_unique_heap_ptr@P6AXXZU__crt_internal_free_policy@@@@QAEPAP6AXXZXZ 1006cb30 f i libucrtd:onexit.obj
 0001:0006bb60       ?release@?$__crt_unique_heap_ptr@P6AXXZU__crt_internal_free_policy@@@@QAEXXZ 1006cb60 f i libucrtd:onexit.obj
 0001:0006bb90       __crt_at_quick_exit        1006cb90 f   libucrtd:onexit.obj
 0001:0006bbb0       __crt_atexit               1006cbb0 f   libucrtd:onexit.obj
 0001:0006bbd0       __execute_onexit_table     1006cbd0 f   libucrtd:onexit.obj
 0001:0006bc00       __initialize_onexit_table  1006cc00 f   libucrtd:onexit.obj
 0001:0006bc60       __register_onexit_function 1006cc60 f   libucrtd:onexit.obj
 0001:0006beb0       ?initialize@?$dual_state_global@PAU__crt_locale_data@@@__crt_state_management@@QAEXQAU__crt_locale_data@@@Z 1006ceb0 f i libucrtd:initialization.obj
 0001:0006bef0       ___acrt_initialize         1006cef0 f   libucrtd:initialization.obj
 0001:0006bf10       ___acrt_thread_attach      1006cf10 f   libucrtd:initialization.obj
 0001:0006bf30       ___acrt_thread_detach      1006cf30 f   libucrtd:initialization.obj
 0001:0006bf40       ___acrt_uninitialize       1006cf40 f   libucrtd:initialization.obj
 0001:0006bf60       ___acrt_uninitialize_critical 1006cf60 f   libucrtd:initialization.obj
 0001:0006d810       __CrtCheckMemory           1006e810 f   libucrtd:debug_heap.obj
 0001:0006d9a0       __CrtDoForAllClientObjects 1006e9a0 f   libucrtd:debug_heap.obj
 0001:0006db00       __CrtDumpMemoryLeaks       1006eb00 f   libucrtd:debug_heap.obj
 0001:0006dba0       __CrtGetAllocHook          1006eba0 f   libucrtd:debug_heap.obj
 0001:0006dbb0       __CrtGetDumpClient         1006ebb0 f   libucrtd:debug_heap.obj
 0001:0006dbc0       __CrtIsMemoryBlock         1006ebc0 f   libucrtd:debug_heap.obj
 0001:0006dd10       __CrtIsValidHeapPointer    1006ed10 f   libucrtd:debug_heap.obj
 0001:0006dd40       __CrtIsValidPointer        1006ed40 f   libucrtd:debug_heap.obj
 0001:0006dd70       __CrtMemCheckpoint         1006ed70 f   libucrtd:debug_heap.obj
 0001:0006dfa0       __CrtMemDifference         1006efa0 f   libucrtd:debug_heap.obj
 0001:0006e210       __CrtMemDumpAllObjectsSince 1006f210 f   libucrtd:debug_heap.obj
 0001:0006e2b0       __CrtMemDumpStatistics     1006f2b0 f   libucrtd:debug_heap.obj
 0001:0006e3e0       __CrtReportBlockType       1006f3e0 f   libucrtd:debug_heap.obj
 0001:0006e410       __CrtSetAllocHook          1006f410 f   libucrtd:debug_heap.obj
 0001:0006e430       __CrtSetBreakAlloc         1006f430 f   libucrtd:debug_heap.obj
 0001:0006e450       __CrtSetDbgBlockType       1006f450 f   libucrtd:debug_heap.obj
 0001:0006e530       __CrtSetDbgFlag            1006f530 f   libucrtd:debug_heap.obj
 0001:0006e6a0       __CrtSetDumpClient         1006f6a0 f   libucrtd:debug_heap.obj
 0001:0006e6c0       ___p__crtBreakAlloc        1006f6c0 f   libucrtd:debug_heap.obj
 0001:0006e6d0       ___p__crtDbgFlag           1006f6d0 f   libucrtd:debug_heap.obj
 0001:0006e6e0       __aligned_free_dbg         1006f6e0 f   libucrtd:debug_heap.obj
 0001:0006e790       __aligned_malloc_dbg       1006f790 f   libucrtd:debug_heap.obj
 0001:0006e7c0       __aligned_msize_dbg        1006f7c0 f   libucrtd:debug_heap.obj
 0001:0006e8f0       __aligned_offset_malloc_dbg 1006f8f0 f   libucrtd:debug_heap.obj
 0001:0006ead0       __aligned_offset_realloc_dbg 1006fad0 f   libucrtd:debug_heap.obj
 0001:0006ede0       __aligned_offset_recalloc_dbg 1006fde0 f   libucrtd:debug_heap.obj
 0001:0006eea0       __aligned_realloc_dbg      1006fea0 f   libucrtd:debug_heap.obj
 0001:0006eed0       __aligned_recalloc_dbg     1006fed0 f   libucrtd:debug_heap.obj
 0001:0006ef00       __calloc_dbg               1006ff00 f   libucrtd:debug_heap.obj
 0001:0006ef70       __expand_dbg               1006ff70 f   libucrtd:debug_heap.obj
 0001:0006f0a0       __free_dbg                 100700a0 f   libucrtd:debug_heap.obj
 0001:0006f150       __malloc_dbg               10070150 f   libucrtd:debug_heap.obj
 0001:0006f170       __msize_dbg                10070170 f   libucrtd:debug_heap.obj
 0001:0006f300       __realloc_dbg              10070300 f   libucrtd:debug_heap.obj
 0001:0006f3a0       __recalloc_dbg             100703a0 f   libucrtd:debug_heap.obj
 0001:0006f450       __initterm                 10070450 f   libucrtd:initterm.obj
 0001:0006f4b0       __initterm_e               100704b0 f   libucrtd:initterm.obj
 0001:0006f830       _strcpy_s                  10070830 f   libucrtd:strcpy_s.obj
 0001:0006fc60       _strcat_s                  10070c60 f   libucrtd:strcat_s.obj
 0001:0006fc80       ??$?B$$A6AHI@Z@__crt_fast_encoded_nullptr_t@@QBEP6AHI@ZXZ 10070c80 f i libucrtd:new_handler.obj
 0001:0006fca0       ??$__crt_fast_decode_pointer@P6AHI@Z@@YAP6AHI@ZQ6AHI@Z@Z 10070ca0 f i libucrtd:new_handler.obj
 0001:0006fcd0       ??$__crt_fast_encode_pointer@P6AHI@Z@@YAP6AHI@ZQ6AHI@Z@Z 10070cd0 f i libucrtd:new_handler.obj
 0001:0006fd00       ?_set_new_handler@@YAP6AHI@ZH@Z 10070d00 f   libucrtd:new_handler.obj
 0001:0006fd60       ?initialize@?$dual_state_global@P6AHI@Z@__crt_state_management@@QAEXQ6AHI@Z@Z 10070d60 f i libucrtd:new_handler.obj
 0001:0006fda0       ?value@?$dual_state_global@P6AHI@Z@__crt_state_management@@QAEAAP6AHI@ZXZ 10070da0 f i libucrtd:new_handler.obj
 0001:0006fdc0       ___acrt_initialize_new_handler 10070dc0 f   libucrtd:new_handler.obj
 0001:0006fde0       __callnewh                 10070de0 f   libucrtd:new_handler.obj
 0001:0006fe40       __query_new_handler        10070e40 f   libucrtd:new_handler.obj
 0001:0006fed0       __set_new_handler          10070ed0 f   libucrtd:new_handler.obj
 0001:0006ffb0       __get_terminate            10070fb0 f   libucrtd:terminate.obj
 0001:0006ffd0       _set_terminate             10070fd0 f   libucrtd:terminate.obj
 0001:00070000       _terminate                 10071000 f   libucrtd:terminate.obj
 0001:000709e0       __makepath                 100719e0 f   libucrtd:makepath.obj
 0001:00070a10       __makepath_s               10071a10 f   libucrtd:makepath.obj
 0001:00070a40       __wmakepath                10071a40 f   libucrtd:makepath.obj
 0001:00070a70       __wmakepath_s              10071a70 f   libucrtd:makepath.obj
 0001:000722e0       ??$tcsncpy_s@AAPADIAAPBDABI@?$__crt_char_traits@D@@SAHAAPAD$$QAIAAPBDABI@Z 100732e0 f i libucrtd:splitpath.obj
 0001:00072310       ??$tcsncpy_s@AAPADIAAPBDH@?$__crt_char_traits@D@@SAHAAPAD$$QAIAAPBD$$QAH@Z 10073310 f i libucrtd:splitpath.obj
 0001:00072340       ??$tcsncpy_s@AAPA_WIAAPB_WABI@?$__crt_char_traits@_W@@SAHAAPA_W$$QAIAAPB_WABI@Z 10073340 f i libucrtd:splitpath.obj
 0001:00072370       ??$tcsncpy_s@AAPA_WIAAPB_WH@?$__crt_char_traits@_W@@SAHAAPA_W$$QAIAAPB_W$$QAH@Z 10073370 f i libucrtd:splitpath.obj
 0001:00072570       __splitpath                10073570 f   libucrtd:splitpath.obj
 0001:000725a0       __splitpath_s              100735a0 f   libucrtd:splitpath.obj
 0001:000725f0       __wsplitpath               100735f0 f   libucrtd:splitpath.obj
 0001:00072620       __wsplitpath_s             10073620 f   libucrtd:splitpath.obj
 0001:00072670       __set_abort_behavior       10073670 f   libucrtd:abort.obj
 0001:000726a0       _abort                     100736a0 f   libucrtd:abort.obj
 0001:00072710       _strcmp                    10073710 f   libucrtd:strcmp.obj
 0001:000727a0       _strlen                    100737a0 f   libucrtd:strlen.obj
 0001:00072830       _wcsncmp                   10073830 f   libucrtd:wcsncmp.obj
 0001:00072890       ??$is_overflow_condition@K@__crt_strtox@@YA_NIK@Z 10073890 f i libucrtd:atox.obj
 0001:000728f0       ??$is_overflow_condition@_K@__crt_strtox@@YA_NI_K@Z 100738f0 f i libucrtd:atox.obj
 0001:00072980       ??$make_c_string_character_source@D$$T@__crt_strtox@@YA?AV?$c_string_character_source@D@0@QBD$$T@Z 10073980 f i libucrtd:atox.obj
 0001:000729a0       ??$make_c_string_character_source@_W$$T@__crt_strtox@@YA?AV?$c_string_character_source@_W@0@QB_W$$T@Z 100739a0 f i libucrtd:atox.obj
 0001:000729c0       ??$parse_integer@KV?$c_string_character_source@D@__crt_strtox@@@__crt_strtox@@YAKQAU__crt_locale_pointers@@V?$c_string_character_source@D@0@H_N@Z 100739c0 f i libucrtd:atox.obj
 0001:00072d30       ??$parse_integer@KV?$c_string_character_source@_W@__crt_strtox@@@__crt_strtox@@YAKQAU__crt_locale_pointers@@V?$c_string_character_source@_W@0@H_N@Z 10073d30 f i libucrtd:atox.obj
 0001:000730a0       ??$parse_integer@_KV?$c_string_character_source@D@__crt_strtox@@@__crt_strtox@@YA_KQAU__crt_locale_pointers@@V?$c_string_character_source@D@0@H_N@Z 100740a0 f i libucrtd:atox.obj
 0001:000734c0       ??$parse_integer@_KV?$c_string_character_source@_W@__crt_strtox@@@__crt_strtox@@YA_KQAU__crt_locale_pointers@@V?$c_string_character_source@_W@0@H_N@Z 100744c0 f i libucrtd:atox.obj
 0001:000738f0       ??$parse_integer_from_string@JD$$T@__crt_strtox@@YAJQBD$$THQAU__crt_locale_pointers@@@Z 100748f0 f i libucrtd:atox.obj
 0001:00073930       ??$parse_integer_from_string@J_W$$T@__crt_strtox@@YAJQB_W$$THQAU__crt_locale_pointers@@@Z 10074930 f i libucrtd:atox.obj
 0001:00073970       ??$parse_integer_from_string@_JD$$T@__crt_strtox@@YA_JQBD$$THQAU__crt_locale_pointers@@@Z 10074970 f i libucrtd:atox.obj
 0001:000739b0       ??$parse_integer_from_string@_J_W$$T@__crt_strtox@@YA_JQB_W$$THQAU__crt_locale_pointers@@@Z 100749b0 f i libucrtd:atox.obj
 0001:000739f0       ??0?$c_string_character_source@D@__crt_strtox@@QAE@QBDQAPBD@Z 100749f0 f i libucrtd:atox.obj
 0001:00073a30       ??0?$c_string_character_source@_W@__crt_strtox@@QAE@QB_WQAPB_W@Z 10074a30 f i libucrtd:atox.obj
 0001:00073a70       ??1?$c_string_character_source@D@__crt_strtox@@QAE@XZ 10074a70 f i libucrtd:atox.obj
 0001:00073aa0       ??1?$c_string_character_source@_W@__crt_strtox@@QAE@XZ 10074aa0 f i libucrtd:atox.obj
 0001:00073ad0       ?get@?$c_string_character_source@D@__crt_strtox@@QAEDXZ 10074ad0 f i libucrtd:atox.obj
 0001:00073b00       ?get@?$c_string_character_source@_W@__crt_strtox@@QAE_WXZ 10074b00 f i libucrtd:atox.obj
 0001:00073b30       ?is_space@__crt_strtox@@YA_NDQAU__crt_locale_pointers@@@Z 10074b30 f i libucrtd:atox.obj
 0001:00073b70       ?is_space@__crt_strtox@@YA_N_WPAU__crt_locale_pointers@@@Z 10074b70 f i libucrtd:atox.obj
 0001:00073ba0       ?maximum_signed_value@__crt_strtox@@YAJK@Z 10074ba0 f i libucrtd:atox.obj
 0001:00073bb0       ?maximum_signed_value@__crt_strtox@@YA_J_K@Z 10074bb0 f i libucrtd:atox.obj
 0001:00073bc0       ?minimum_signed_value@__crt_strtox@@YAJK@Z 10074bc0 f i libucrtd:atox.obj
 0001:00073bd0       ?minimum_signed_value@__crt_strtox@@YA_J_K@Z 10074bd0 f i libucrtd:atox.obj
 0001:00073be0       ?parse_digit@__crt_strtox@@YAID@Z 10074be0 f i libucrtd:atox.obj
 0001:00073c40       ?parse_digit@__crt_strtox@@YAI_W@Z 10074c40 f i libucrtd:atox.obj
 0001:00073cc0       ?restore_state@?$c_string_character_source@D@__crt_strtox@@QAE_NQBD@Z 10074cc0 f i libucrtd:atox.obj
 0001:00073ce0       ?restore_state@?$c_string_character_source@_W@__crt_strtox@@QAE_NQB_W@Z 10074ce0 f i libucrtd:atox.obj
 0001:00073d00       ?save_state@?$c_string_character_source@D@__crt_strtox@@QBEPBDXZ 10074d00 f i libucrtd:atox.obj
 0001:00073d20       ?save_state@?$c_string_character_source@_W@__crt_strtox@@QBEPB_WXZ 10074d20 f i libucrtd:atox.obj
 0001:00073d40       ?unget@?$c_string_character_source@D@__crt_strtox@@QAEXD@Z 10074d40 f i libucrtd:atox.obj
 0001:00073df0       ?unget@?$c_string_character_source@_W@__crt_strtox@@QAEX_W@Z 10074df0 f i libucrtd:atox.obj
 0001:00073ea0       ?validate@?$c_string_character_source@D@__crt_strtox@@QBE_NXZ 10074ea0 f i libucrtd:atox.obj
 0001:00073f30       ?validate@?$c_string_character_source@_W@__crt_strtox@@QBE_NXZ 10074f30 f i libucrtd:atox.obj
 0001:00073fc0       ?wide_character_to_digit@__crt_strtox@@YAH_W@Z 10074fc0 f i libucrtd:atox.obj
 0001:000742f0       __atoi64                   100752f0 f   libucrtd:atox.obj
 0001:00074310       __atoi64_l                 10075310 f   libucrtd:atox.obj
 0001:00074330       __atoi_l                   10075330 f   libucrtd:atox.obj
 0001:00074350       __atol_l                   10075350 f   libucrtd:atox.obj
 0001:00074370       __atoll_l                  10075370 f   libucrtd:atox.obj
 0001:00074390       __wtoi                     10075390 f   libucrtd:atox.obj
 0001:000743b0       __wtoi64                   100753b0 f   libucrtd:atox.obj
 0001:000743d0       __wtoi64_l                 100753d0 f   libucrtd:atox.obj
 0001:000743f0       __wtoi_l                   100753f0 f   libucrtd:atox.obj
 0001:00074410       __wtol                     10075410 f   libucrtd:atox.obj
 0001:00074430       __wtol_l                   10075430 f   libucrtd:atox.obj
 0001:00074450       __wtoll                    10075450 f   libucrtd:atox.obj
 0001:00074470       __wtoll_l                  10075470 f   libucrtd:atox.obj
 0001:00074490       _atoi                      10075490 f   libucrtd:atox.obj
 0001:000744b0       _atol                      100754b0 f   libucrtd:atox.obj
 0001:000744d0       _atoll                     100754d0 f   libucrtd:atox.obj
 0001:000744f0       _strncmp                   100754f0 f   libucrtd:strncmp.obj
 0001:00074a50       __tolower                  10075a50 f   libucrtd:tolower_toupper.obj
 0001:00074a60       __tolower_l                10075a60 f   libucrtd:tolower_toupper.obj
 0001:00074a80       __toupper                  10075a80 f   libucrtd:tolower_toupper.obj
 0001:00074a90       __toupper_l                10075a90 f   libucrtd:tolower_toupper.obj
 0001:00074ab0       _tolower                   10075ab0 f   libucrtd:tolower_toupper.obj
 0001:00074b10       _toupper                   10075b10 f   libucrtd:tolower_toupper.obj
 0001:00074b70       __CrtGetDebugFillThreshold 10075b70 f   libucrtd:debug_fill_threshold.obj
 0001:00074b80       __CrtSetDebugFillThreshold 10075b80 f   libucrtd:debug_fill_threshold.obj
 0001:00074ba0       ??$make_c_string_character_source@DPAPAD@__crt_strtox@@YA?AV?$c_string_character_source@D@0@QBDQAPAD@Z 10075ba0 f i libucrtd:strtox.obj
 0001:00074bc0       ??$make_c_string_character_source@_WPAPA_W@__crt_strtox@@YA?AV?$c_string_character_source@_W@0@QB_WQAPA_W@Z 10075bc0 f i libucrtd:strtox.obj
 0001:00074be0       ??$parse_integer_from_string@JDPAPAD@__crt_strtox@@YAJQBDQAPADHQAU__crt_locale_pointers@@@Z 10075be0 f i libucrtd:strtox.obj
 0001:00074c20       ??$parse_integer_from_string@J_WPAPA_W@__crt_strtox@@YAJQB_WQAPA_WHQAU__crt_locale_pointers@@@Z 10075c20 f i libucrtd:strtox.obj
 0001:00074c60       ??$parse_integer_from_string@KDPAPAD@__crt_strtox@@YAKQBDQAPADHQAU__crt_locale_pointers@@@Z 10075c60 f i libucrtd:strtox.obj
 0001:00074ca0       ??$parse_integer_from_string@K_WPAPA_W@__crt_strtox@@YAKQB_WQAPA_WHQAU__crt_locale_pointers@@@Z 10075ca0 f i libucrtd:strtox.obj
 0001:00074ce0       ??$parse_integer_from_string@_JDPAPAD@__crt_strtox@@YA_JQBDQAPADHQAU__crt_locale_pointers@@@Z 10075ce0 f i libucrtd:strtox.obj
 0001:00074d20       ??$parse_integer_from_string@_J_WPAPA_W@__crt_strtox@@YA_JQB_WQAPA_WHQAU__crt_locale_pointers@@@Z 10075d20 f i libucrtd:strtox.obj
 0001:00074d60       ??$parse_integer_from_string@_KDPAPAD@__crt_strtox@@YA_KQBDQAPADHQAU__crt_locale_pointers@@@Z 10075d60 f i libucrtd:strtox.obj
 0001:00074da0       ??$parse_integer_from_string@_K_WPAPA_W@__crt_strtox@@YA_KQB_WQAPA_WHQAU__crt_locale_pointers@@@Z 10075da0 f i libucrtd:strtox.obj
 0001:00074de0       __strtoi64                 10075de0 f   libucrtd:strtox.obj
 0001:00074e00       __strtoi64_l               10075e00 f   libucrtd:strtox.obj
 0001:00074e20       __strtoimax_l              10075e20 f   libucrtd:strtox.obj
 0001:00074e40       __strtol_l                 10075e40 f   libucrtd:strtox.obj
 0001:00074e60       __strtoll_l                10075e60 f   libucrtd:strtox.obj
 0001:00074e80       __strtoui64                10075e80 f   libucrtd:strtox.obj
 0001:00074ea0       __strtoui64_l              10075ea0 f   libucrtd:strtox.obj
 0001:00074ec0       __strtoul_l                10075ec0 f   libucrtd:strtox.obj
 0001:00074ee0       __strtoull_l               10075ee0 f   libucrtd:strtox.obj
 0001:00074f00       __strtoumax_l              10075f00 f   libucrtd:strtox.obj
 0001:00074f20       __wcstoi64                 10075f20 f   libucrtd:strtox.obj
 0001:00074f40       __wcstoi64_l               10075f40 f   libucrtd:strtox.obj
 0001:00074f60       __wcstoimax_l              10075f60 f   libucrtd:strtox.obj
 0001:00074f80       __wcstol_l                 10075f80 f   libucrtd:strtox.obj
 0001:00074fa0       __wcstoll_l                10075fa0 f   libucrtd:strtox.obj
 0001:00074fc0       __wcstoui64                10075fc0 f   libucrtd:strtox.obj
 0001:00074fe0       __wcstoui64_l              10075fe0 f   libucrtd:strtox.obj
 0001:00075000       __wcstoul_l                10076000 f   libucrtd:strtox.obj
 0001:00075020       __wcstoull_l               10076020 f   libucrtd:strtox.obj
 0001:00075040       __wcstoumax_l              10076040 f   libucrtd:strtox.obj
 0001:00075060       _strtoimax                 10076060 f   libucrtd:strtox.obj
 0001:00075080       _strtol                    10076080 f   libucrtd:strtox.obj
 0001:000750a0       _strtoll                   100760a0 f   libucrtd:strtox.obj
 0001:000750c0       _strtoul                   100760c0 f   libucrtd:strtox.obj
 0001:000750e0       _strtoull                  100760e0 f   libucrtd:strtox.obj
 0001:00075100       _strtoumax                 10076100 f   libucrtd:strtox.obj
 0001:00075120       _wcstoimax                 10076120 f   libucrtd:strtox.obj
 0001:00075140       _wcstol                    10076140 f   libucrtd:strtox.obj
 0001:00075160       _wcstoll                   10076160 f   libucrtd:strtox.obj
 0001:00075180       _wcstoul                   10076180 f   libucrtd:strtox.obj
 0001:000751a0       _wcstoull                  100761a0 f   libucrtd:strtox.obj
 0001:000751c0       _wcstoumax                 100761c0 f   libucrtd:strtox.obj
 0001:000751e0       __mbtowc_l                 100761e0 f   libucrtd:mbtowc.obj
 0001:00075420       _mbtowc                    10076420 f   libucrtd:mbtowc.obj
 0001:00075440       __wctomb_l                 10076440 f   libucrtd:wctomb.obj
 0001:000754c0       __wctomb_s_l               100764c0 f   libucrtd:wctomb.obj
 0001:00075800       _wctomb                    10076800 f   libucrtd:wctomb.obj
 0001:00075850       _wctomb_s                  10076850 f   libucrtd:wctomb.obj
 0001:00076050       ??1?$__crt_simd_cleanup_guard@$00@@QAE@XZ 10077050 f i libucrtd:strnlen.obj
 0001:00076060       ??1?$__crt_simd_cleanup_guard@$0A@@@QAE@XZ 10077060 f i libucrtd:strnlen.obj
 0001:00076070       ?compare_equals@?$__crt_simd_traits@$00E@@SA?AT__m256i@@T2@0@Z 10077070 f i libucrtd:strnlen.obj
 0001:000760b0       ?compare_equals@?$__crt_simd_traits@$00G@@SA?AT__m256i@@T2@0@Z 100770b0 f i libucrtd:strnlen.obj
 0001:000760f0       ?compare_equals@?$__crt_simd_traits@$0A@E@@SA?AT__m128i@@T2@0@Z 100770f0 f i libucrtd:strnlen.obj
 0001:00076130       ?compare_equals@?$__crt_simd_traits@$0A@G@@SA?AT__m128i@@T2@0@Z 10077130 f i libucrtd:strnlen.obj
 0001:00076170       ?compute_byte_mask@?$__crt_simd_pack_traits@$00@@SAHT__m256i@@@Z 10077170 f i libucrtd:strnlen.obj
 0001:000761a0       ?compute_byte_mask@?$__crt_simd_pack_traits@$0A@@@SAHT__m128i@@@Z 100771a0 f i libucrtd:strnlen.obj
 0001:000761d0       ?get_zero_pack@?$__crt_simd_pack_traits@$00@@SA?AT__m256i@@XZ 100771d0 f i libucrtd:strnlen.obj
 0001:00076200       ?get_zero_pack@?$__crt_simd_pack_traits@$0A@@@SA?AT__m128i@@XZ 10077200 f i libucrtd:strnlen.obj
 0001:00076230       _strnlen                   10077230 f   libucrtd:strnlen.obj
 0001:00076250       _wcsnlen                   10077250 f   libucrtd:strnlen.obj
 0001:00076270       ??$?RU__acrt_ptd@@@__crt_internal_free_policy@@QBEXQBU__acrt_ptd@@@Z 10077270 f i libucrtd:per_thread_data.obj
 0001:00076290       ??$?RV<lambda_3518db117f0e7cdb002338c5d3c47b6c>@@AAV<lambda_b2ea41f6bbb362cd97d94c6828d90b61>@@V<lambda_abdedf541bb04549bc734292b4a045d4>@@@?$__crt_seh_guarded_call@X@@QAEX$$QAV<lambda_3518db117f0e7cdb002338c5d3c47b6c>@@AAV<lambda_b2ea41f6bbb362cd97d94c6828d90b61>@@$$QAV<lambda_abdedf541bb04549bc734292b4a045d4>@@@Z 10077290 f i libucrtd:per_thread_data.obj
 0001:00076310       ??$?RV<lambda_5b71d36f03204c0beab531769a5b5694>@@AAV<lambda_be2b3da3f62db62e9dad5dc70221a656>@@V<lambda_8f9ce462984622f9bf76b59e2aaaf805>@@@?$__crt_seh_guarded_call@X@@QAEX$$QAV<lambda_5b71d36f03204c0beab531769a5b5694>@@AAV<lambda_be2b3da3f62db62e9dad5dc70221a656>@@$$QAV<lambda_8f9ce462984622f9bf76b59e2aaaf805>@@@Z 10077310 f i libucrtd:per_thread_data.obj
 0001:00076390       ??$?RV<lambda_952b238c83a62ef8e81c72265e1e9aa0>@@AAV<lambda_801f60a70ab65355beb13c41cbe335bb>@@V<lambda_84d84f98815add542a0d6e6ca338feb2>@@@?$__crt_seh_guarded_call@X@@QAEX$$QAV<lambda_952b238c83a62ef8e81c72265e1e9aa0>@@AAV<lambda_801f60a70ab65355beb13c41cbe335bb>@@$$QAV<lambda_84d84f98815add542a0d6e6ca338feb2>@@@Z 10077390 f i libucrtd:per_thread_data.obj
 0001:00076410       ??$?RV<lambda_9df27f884b057bc3edfc946cb5b7cf47>@@AAV<lambda_e69574bed617af4e071282c136b37893>@@V<lambda_cc0d902bcbbeb830f749456577db4721>@@@?$__crt_seh_guarded_call@X@@QAEX$$QAV<lambda_9df27f884b057bc3edfc946cb5b7cf47>@@AAV<lambda_e69574bed617af4e071282c136b37893>@@$$QAV<lambda_cc0d902bcbbeb830f749456577db4721>@@@Z 10077410 f i libucrtd:per_thread_data.obj
 0001:00076490       ??$__acrt_lock_and_call@V<lambda_801f60a70ab65355beb13c41cbe335bb>@@@@YAXW4__acrt_lock_id@@$$QAV<lambda_801f60a70ab65355beb13c41cbe335bb>@@@Z 10077490 f i libucrtd:per_thread_data.obj
 0001:000764d0       ??$__acrt_lock_and_call@V<lambda_b2ea41f6bbb362cd97d94c6828d90b61>@@@@YAXW4__acrt_lock_id@@$$QAV<lambda_b2ea41f6bbb362cd97d94c6828d90b61>@@@Z 100774d0 f i libucrtd:per_thread_data.obj
 0001:00076510       ??$__acrt_lock_and_call@V<lambda_be2b3da3f62db62e9dad5dc70221a656>@@@@YAXW4__acrt_lock_id@@$$QAV<lambda_be2b3da3f62db62e9dad5dc70221a656>@@@Z 10077510 f i libucrtd:per_thread_data.obj
 0001:00076550       ??$__acrt_lock_and_call@V<lambda_e69574bed617af4e071282c136b37893>@@@@YAXW4__acrt_lock_id@@$$QAV<lambda_e69574bed617af4e071282c136b37893>@@@Z 10077550 f i libucrtd:per_thread_data.obj
 0001:00076720       ??0?$__crt_unique_heap_ptr@U__acrt_ptd@@U__crt_internal_free_policy@@@@QAE@QAU__acrt_ptd@@@Z 10077720 f i libucrtd:per_thread_data.obj
 0001:00076740       ??0__crt_scoped_get_last_error_reset@@QAE@XZ 10077740 f i libucrtd:per_thread_data.obj
 0001:00076760       ??1?$__crt_unique_heap_ptr@U__acrt_ptd@@U__crt_internal_free_policy@@@@QAE@XZ 10077760 f i libucrtd:per_thread_data.obj
 0001:00076780       ??1__crt_scoped_get_last_error_reset@@QAE@XZ 10077780 f i libucrtd:per_thread_data.obj
 0001:000767a0       ??B?$__crt_unique_heap_ptr@U__acrt_ptd@@U__crt_internal_free_policy@@@@QBE_NXZ 100777a0 f i libucrtd:per_thread_data.obj
 0001:00076a80       ?dangerous_get_state_array@?$dual_state_global@PAU__crt_locale_data@@@__crt_state_management@@QAEPAPAU__crt_locale_data@@XZ 10077a80 f i libucrtd:per_thread_data.obj
 0001:00076c00       ?detach@?$__crt_unique_heap_ptr@U__acrt_ptd@@U__crt_internal_free_policy@@@@QAEPAU__acrt_ptd@@XZ 10077c00 f i libucrtd:per_thread_data.obj
 0001:00076c30       ?get@?$__crt_unique_heap_ptr@U__acrt_ptd@@U__crt_internal_free_policy@@@@QBEPAU__acrt_ptd@@XZ 10077c30 f i libucrtd:per_thread_data.obj
 0001:00076d70       ?is_valid@?$__crt_unique_heap_ptr@U__acrt_ptd@@U__crt_internal_free_policy@@@@QBE_NXZ 10077d70 f i libucrtd:per_thread_data.obj
 0001:00076da0       ?release@?$__crt_unique_heap_ptr@U__acrt_ptd@@U__crt_internal_free_policy@@@@QAEXXZ 10077da0 f i libucrtd:per_thread_data.obj
 0001:00076e90       ?value@?$dual_state_global@PAU__crt_locale_data@@@__crt_state_management@@QAEAAPAU__crt_locale_data@@XZ 10077e90 f i libucrtd:per_thread_data.obj
 0001:00076eb0       ___acrt_freeptd            10077eb0 f   libucrtd:per_thread_data.obj
 0001:00076ee0       ___acrt_getptd             10077ee0 f   libucrtd:per_thread_data.obj
 0001:00076f00       ___acrt_getptd_noexit      10077f00 f   libucrtd:per_thread_data.obj
 0001:00076f10       ___acrt_initialize_ptd     10077f10 f   libucrtd:per_thread_data.obj
 0001:00076f50       ___acrt_uninitialize_ptd   10077f50 f   libucrtd:per_thread_data.obj
 0001:00076f80       ___threadhandle            10077f80 f   libucrtd:per_thread_data.obj
 0001:00076f90       ___threadid                10077f90 f   libucrtd:per_thread_data.obj
 0001:00076fa0       ___acrt_update_locale_info 10077fa0 f   libucrtd:locale_update.obj
 0001:00076fe0       ___acrt_update_multibyte_info 10077fe0 f   libucrtd:locale_update.obj
 0001:00077010       ?__acrt_fp_classify@@YA?AW4__acrt_fp_class@@ABN@Z 10078010 f i libucrtd:cvt.obj
 0001:00077130       ?__acrt_fp_is_negative@@YA_NABN@Z 10078130 f i libucrtd:cvt.obj
 0001:000781d0       ?strrchr@@YAPADQADH@Z      100791d0 f i libucrtd:cvt.obj
 0001:000781f0       ___acrt_fp_format          100791f0 f   libucrtd:cvt.obj
 0001:00078680       __fputwc_nolock            10079680 f   libucrtd:fputwc.obj
 0001:00078860       __fputwchar                10079860 f   libucrtd:fputwc.obj
 0001:00078880       __putwc_nolock             10079880 f   libucrtd:fputwc.obj
 0001:000788a0       _fputwc                    100798a0 f   libucrtd:fputwc.obj
 0001:000789b0       _putwc                     100799b0 f   libucrtd:fputwc.obj
 0001:000789d0       _putwchar                  100799d0 f   libucrtd:fputwc.obj
 0001:000789f0       ?lowio_handle@__crt_stdio_stream@@QBEHXZ 100799f0 f i libucrtd:fileno.obj
 0001:00078a10       __fileno                   10079a10 f   libucrtd:fileno.obj
 0001:00078ab0       ??$?RPAU__crt_stdio_stream_data@@@__crt_internal_free_policy@@QBEXQBQAU__crt_stdio_stream_data@@@Z 10079ab0 f i libucrtd:_file.obj
 0001:00078ad0       ??0?$__crt_unique_heap_ptr@PAU__crt_stdio_stream_data@@U__crt_internal_free_policy@@@@QAE@QAPAU__crt_stdio_stream_data@@@Z 10079ad0 f i libucrtd:_file.obj
 0001:00078af0       ??1?$__crt_unique_heap_ptr@PAU__crt_stdio_stream_data@@U__crt_internal_free_policy@@@@QAE@XZ 10079af0 f i libucrtd:_file.obj
 0001:00078b10       ?detach@?$__crt_unique_heap_ptr@PAU__crt_stdio_stream_data@@U__crt_internal_free_policy@@@@QAEPAPAU__crt_stdio_stream_data@@XZ 10079b10 f i libucrtd:_file.obj
 0001:00078b40       ?release@?$__crt_unique_heap_ptr@PAU__crt_stdio_stream_data@@U__crt_internal_free_policy@@@@QAEXXZ 10079b40 f i libucrtd:_file.obj
 0001:00078b70       ___acrt_initialize_stdio   10079b70 f   libucrtd:_file.obj
 0001:00078ce0       ___acrt_iob_func           10079ce0 f   libucrtd:_file.obj
 0001:00078cf0       ___acrt_uninitialize_stdio 10079cf0 f   libucrtd:_file.obj
 0001:00078d70       __get_stream_buffer_pointers 10079d70 f   libucrtd:_file.obj
 0001:00078e50       __lock_file                10079e50 f   libucrtd:_file.obj
 0001:00078e80       __unlock_file              10079e80 f   libucrtd:_file.obj
 0001:00078eb0       __get_printf_count_output  10079eb0 f   libucrtd:printf_count_output.obj
 0001:00078ee0       __set_printf_count_output  10079ee0 f   libucrtd:printf_count_output.obj
 0001:00078f40       ?has_any_buffer@__crt_stdio_stream@@QBE_NXZ 10079f40 f i libucrtd:_sftbuf.obj
 0001:00078f60       ?has_any_of@__crt_stdio_stream@@QBE_NJ@Z 10079f60 f i libucrtd:_sftbuf.obj
 0001:00078fa0       ?has_temporary_buffer@__crt_stdio_stream@@QBE_NXZ 10079fa0 f i libucrtd:_sftbuf.obj
 0001:00078fc0       ?set_flags@__crt_stdio_stream@@QBE_NJ@Z 10079fc0 f i libucrtd:_sftbuf.obj
 0001:00079010       ?unset_flags@__crt_stdio_stream@@QBE_NJ@Z 1007a010 f i libucrtd:_sftbuf.obj
 0001:00079060       ___acrt_stdio_begin_temporary_buffering_nolock 1007a060 f   libucrtd:_sftbuf.obj
 0001:00079220       ___acrt_stdio_end_temporary_buffering_nolock 1007a220 f   libucrtd:_sftbuf.obj
 0001:000792b0       ??$?RU__crt_locale_data@@@__crt_internal_free_policy@@QBEXQBU__crt_locale_data@@@Z 1007a2b0 f i libucrtd:wsetlocale.obj
 0001:000792d0       ??$?RU__crt_locale_pointers@@@__crt_internal_free_policy@@QBEXQBU__crt_locale_pointers@@@Z 1007a2d0 f i libucrtd:wsetlocale.obj
 0001:000792f0       ??$?RU__crt_multibyte_data@@@__crt_internal_free_policy@@QBEXQBU__crt_multibyte_data@@@Z 1007a2f0 f i libucrtd:wsetlocale.obj
 0001:00079310       ??$?RV<lambda_0f92d0c5a8007722f95b3b6c71cd8e3e>@@AAV<lambda_321f9d61c14d59ff00145e45db1313e0>@@V<lambda_3298c911d7b53f44106027a7fde9a80a>@@@?$__crt_seh_guarded_call@X@@QAEX$$QAV<lambda_0f92d0c5a8007722f95b3b6c71cd8e3e>@@AAV<lambda_321f9d61c14d59ff00145e45db1313e0>@@$$QAV<lambda_3298c911d7b53f44106027a7fde9a80a>@@@Z 1007a310 f i libucrtd:wsetlocale.obj
 0001:00079390       ??$?RV<lambda_507d9fd6b66e39451a8852ba73f804a7>@@AAV<lambda_565169b3e3b494427ce1bebdd17b54ac>@@AAV<lambda_f51fe5fd7c79a33db34fc9310f277369>@@@?$__crt_seh_guarded_call@X@@QAEX$$QAV<lambda_507d9fd6b66e39451a8852ba73f804a7>@@AAV<lambda_565169b3e3b494427ce1bebdd17b54ac>@@AAV<lambda_f51fe5fd7c79a33db34fc9310f277369>@@@Z 1007a390 f i libucrtd:wsetlocale.obj
 0001:00079410       ??$?RV<lambda_76aaead6e312921abc834cb00a638bdd>@@AAV<lambda_176e34f99554166dd2fac165c457248c>@@V<lambda_998ee1c9f4290b119b936bcd6215875a>@@@?$__crt_seh_guarded_call@X@@QAEX$$QAV<lambda_76aaead6e312921abc834cb00a638bdd>@@AAV<lambda_176e34f99554166dd2fac165c457248c>@@$$QAV<lambda_998ee1c9f4290b119b936bcd6215875a>@@@Z 1007a410 f i libucrtd:wsetlocale.obj
 0001:00079490       ??$?RV<lambda_c9469061b39d205f0f236529d4a41659>@@AAV<lambda_b7fb1a997d3ebc0cc0186c5835178808>@@V<lambda_14b92c79d699846b5cc916cd4cf280e4>@@@?$__crt_seh_guarded_call@X@@QAEX$$QAV<lambda_c9469061b39d205f0f236529d4a41659>@@AAV<lambda_b7fb1a997d3ebc0cc0186c5835178808>@@$$QAV<lambda_14b92c79d699846b5cc916cd4cf280e4>@@@Z 1007a490 f i libucrtd:wsetlocale.obj
 0001:00079510       ??$__acrt_lock_and_call@V<lambda_176e34f99554166dd2fac165c457248c>@@@@YAXW4__acrt_lock_id@@$$QAV<lambda_176e34f99554166dd2fac165c457248c>@@@Z 1007a510 f i libucrtd:wsetlocale.obj
 0001:00079550       ??$__acrt_lock_and_call@V<lambda_321f9d61c14d59ff00145e45db1313e0>@@@@YAXW4__acrt_lock_id@@$$QAV<lambda_321f9d61c14d59ff00145e45db1313e0>@@@Z 1007a550 f i libucrtd:wsetlocale.obj
 0001:00079590       ??$__acrt_lock_and_call@V<lambda_b7fb1a997d3ebc0cc0186c5835178808>@@@@YAXW4__acrt_lock_id@@$$QAV<lambda_b7fb1a997d3ebc0cc0186c5835178808>@@@Z 1007a590 f i libucrtd:wsetlocale.obj
 0001:000795d0       ??$__crt_call_and_cleanup@V<lambda_565169b3e3b494427ce1bebdd17b54ac>@@V<lambda_f51fe5fd7c79a33db34fc9310f277369>@@@@YAX$$QAV<lambda_565169b3e3b494427ce1bebdd17b54ac>@@$$QAV<lambda_f51fe5fd7c79a33db34fc9310f277369>@@@Z 1007a5d0 f i libucrtd:wsetlocale.obj
 0001:00079600       ??$__vcrt_va_start_verify_argument_type@H@@YAXXZ 1007a600 f i libucrtd:wsetlocale.obj
 0001:000797b0       ??0?$__crt_unique_heap_ptr@U__crt_locale_data@@U__crt_internal_free_policy@@@@QAE@QAU__crt_locale_data@@@Z 1007a7b0 f i libucrtd:wsetlocale.obj
 0001:000797d0       ??0?$__crt_unique_heap_ptr@U__crt_locale_pointers@@U__crt_internal_free_policy@@@@QAE@QAU__crt_locale_pointers@@@Z 1007a7d0 f i libucrtd:wsetlocale.obj
 0001:000797f0       ??0?$__crt_unique_heap_ptr@U__crt_multibyte_data@@U__crt_internal_free_policy@@@@QAE@QAU__crt_multibyte_data@@@Z 1007a7f0 f i libucrtd:wsetlocale.obj
 0001:00079810       ??1?$__crt_unique_heap_ptr@U__crt_locale_data@@U__crt_internal_free_policy@@@@QAE@XZ 1007a810 f i libucrtd:wsetlocale.obj
 0001:00079830       ??1?$__crt_unique_heap_ptr@U__crt_locale_pointers@@U__crt_internal_free_policy@@@@QAE@XZ 1007a830 f i libucrtd:wsetlocale.obj
 0001:00079850       ??1?$__crt_unique_heap_ptr@U__crt_multibyte_data@@U__crt_internal_free_policy@@@@QAE@XZ 1007a850 f i libucrtd:wsetlocale.obj
 0001:00079870       ??B?$__crt_unique_heap_ptr@U__crt_locale_data@@U__crt_internal_free_policy@@@@QBE_NXZ 1007a870 f i libucrtd:wsetlocale.obj
 0001:00079890       ??B?$__crt_unique_heap_ptr@U__crt_locale_pointers@@U__crt_internal_free_policy@@@@QBE_NXZ 1007a890 f i libucrtd:wsetlocale.obj
 0001:000798b0       ??B?$__crt_unique_heap_ptr@U__crt_multibyte_data@@U__crt_internal_free_policy@@@@QBE_NXZ 1007a8b0 f i libucrtd:wsetlocale.obj
 0001:00079bf0       ?detach@?$__crt_unique_heap_ptr@U__crt_locale_data@@U__crt_internal_free_policy@@@@QAEPAU__crt_locale_data@@XZ 1007abf0 f i libucrtd:wsetlocale.obj
 0001:00079c20       ?detach@?$__crt_unique_heap_ptr@U__crt_locale_pointers@@U__crt_internal_free_policy@@@@QAEPAU__crt_locale_pointers@@XZ 1007ac20 f i libucrtd:wsetlocale.obj
 0001:00079c50       ?detach@?$__crt_unique_heap_ptr@U__crt_multibyte_data@@U__crt_internal_free_policy@@@@QAEPAU__crt_multibyte_data@@XZ 1007ac50 f i libucrtd:wsetlocale.obj
 0001:00079c80       ?get@?$__crt_unique_heap_ptr@U__crt_locale_data@@U__crt_internal_free_policy@@@@QBEPAU__crt_locale_data@@XZ 1007ac80 f i libucrtd:wsetlocale.obj
 0001:00079ca0       ?get@?$__crt_unique_heap_ptr@U__crt_locale_pointers@@U__crt_internal_free_policy@@@@QBEPAU__crt_locale_pointers@@XZ 1007aca0 f i libucrtd:wsetlocale.obj
 0001:00079cc0       ?get@?$__crt_unique_heap_ptr@U__crt_multibyte_data@@U__crt_internal_free_policy@@@@QBEPAU__crt_multibyte_data@@XZ 1007acc0 f i libucrtd:wsetlocale.obj
 0001:00079ce0       ?is_valid@?$__crt_unique_heap_ptr@U__crt_locale_data@@U__crt_internal_free_policy@@@@QBE_NXZ 1007ace0 f i libucrtd:wsetlocale.obj
 0001:00079d10       ?is_valid@?$__crt_unique_heap_ptr@U__crt_locale_pointers@@U__crt_internal_free_policy@@@@QBE_NXZ 1007ad10 f i libucrtd:wsetlocale.obj
 0001:00079d40       ?is_valid@?$__crt_unique_heap_ptr@U__crt_multibyte_data@@U__crt_internal_free_policy@@@@QBE_NXZ 1007ad40 f i libucrtd:wsetlocale.obj
 0001:00079d70       ?release@?$__crt_unique_heap_ptr@U__crt_locale_data@@U__crt_internal_free_policy@@@@QAEXXZ 1007ad70 f i libucrtd:wsetlocale.obj
 0001:00079da0       ?release@?$__crt_unique_heap_ptr@U__crt_locale_pointers@@U__crt_internal_free_policy@@@@QAEXXZ 1007ada0 f i libucrtd:wsetlocale.obj
 0001:00079dd0       ?release@?$__crt_unique_heap_ptr@U__crt_multibyte_data@@U__crt_internal_free_policy@@@@QAEXXZ 1007add0 f i libucrtd:wsetlocale.obj
 0001:00079e00       ___acrt_copy_locale_name   1007ae00 f   libucrtd:wsetlocale.obj
 0001:00079ea0       ___acrt_set_locale_changed 1007aea0 f   libucrtd:wsetlocale.obj
 0001:00079ec0       ___acrt_uninitialize_locale 1007aec0 f   libucrtd:wsetlocale.obj
 0001:00079f70       ___lc_lctowcs              1007af70 f   libucrtd:wsetlocale.obj
 0001:0007a020       ___lc_wcstolc              1007b020 f   libucrtd:wsetlocale.obj
 0001:0007a240       __configthreadlocale       1007b240 f   libucrtd:wsetlocale.obj
 0001:0007a3c0       __create_locale            1007b3c0 f   libucrtd:wsetlocale.obj
 0001:0007a430       __expandlocale             1007b430 f   libucrtd:wsetlocale.obj
 0001:0007a900       __free_locale              1007b900 f   libucrtd:wsetlocale.obj
 0001:0007aa30       __get_current_locale       1007ba30 f   libucrtd:wsetlocale.obj
 0001:0007ab00       __wcreate_locale           1007bb00 f   libucrtd:wsetlocale.obj
 0001:0007ad40       __wcscats                  1007bd40 f   libucrtd:wsetlocale.obj
 0001:0007adc0       __wsetlocale               1007bdc0 f   libucrtd:wsetlocale.obj
 0001:0007bd10       ___p___mb_cur_max          1007cd10 f   libucrtd:nlsdata.obj
 0001:0007c010       ___acrt_initialize_lowio   1007d010 f   libucrtd:ioinit.obj
 0001:0007c0b0       ___acrt_uninitialize_lowio 1007d0b0 f   libucrtd:ioinit.obj
 0001:0007c110       __CrtGetReportHook         1007d110 f   libucrtd:dbgrptt.obj
 0001:0007c120       __CrtSetReportFile         1007d120 f   libucrtd:dbgrptt.obj
 0001:0007c220       __CrtSetReportHook         1007d220 f   libucrtd:dbgrptt.obj
 0001:0007c240       __CrtSetReportMode         1007d240 f   libucrtd:dbgrptt.obj
 0001:0007c380       __VCrtDbgReportA           1007d380 f   libucrtd:dbgrptt.obj
 0001:0007cc20       __VCrtDbgReportW           1007dc20 f   libucrtd:dbgrptt.obj
 0001:0007d5e0       __snprintf_s               1007e5e0 f i libucrtd:dbgrptt.obj
 0001:0007d630       __vsnprintf_s              1007e630 f i libucrtd:dbgrptt.obj
 0001:0007d660       __vsnprintf_s_l            1007e660 f i libucrtd:dbgrptt.obj
 0001:0007d6c0       __vsnwprintf_s             1007e6c0 f i libucrtd:dbgrptt.obj
 0001:0007d9f0       ??$message_box@$$TAAPBDAAPBDAAI@?$__crt_char_traits@D@@SAH$$QA$$TAAPBD1AAI@Z 1007e9f0 f i libucrtd:crtmbox.obj
 0001:0007da20       ??$message_box@$$TAAPB_WAAPB_WAAI@?$__crt_char_traits@_W@@SAH$$QA$$TAAPB_W1AAI@Z 1007ea20 f i libucrtd:crtmbox.obj
 0001:0007da50       ??$message_box@$$TABQBDABQBDK@?$__crt_char_traits@D@@SAH$$QA$$TABQBD1$$QAK@Z 1007ea50 f i libucrtd:crtmbox.obj
 0001:0007da80       ??$message_box@$$TABQB_WABQB_WK@?$__crt_char_traits@_W@@SAH$$QA$$TABQB_W1$$QAK@Z 1007ea80 f i libucrtd:crtmbox.obj
 0001:0007dab0       ??$message_box@PAUHWND__@@ABQBDABQBDABI@?$__crt_char_traits@D@@SAH$$QAPAUHWND__@@ABQBD1ABI@Z 1007eab0 f i libucrtd:crtmbox.obj
 0001:0007dae0       ??$message_box@PAUHWND__@@ABQB_WABQB_WABI@?$__crt_char_traits@_W@@SAH$$QAPAUHWND__@@ABQB_W1ABI@Z 1007eae0 f i libucrtd:crtmbox.obj
 0001:0007dbb0       ??$output_debug_string@ABQBD@?$__crt_char_traits@D@@SAXABQBD@Z 1007ebb0 f i libucrtd:crtmbox.obj
 0001:0007dbd0       ??$output_debug_string@ABQB_W@?$__crt_char_traits@_W@@SAXABQB_W@Z 1007ebd0 f i libucrtd:crtmbox.obj
 0001:0007dbf0       ??0?$__crt_unique_handle_t@U__crt_handle_traits@@@@QAE@QAX@Z 1007ebf0 f i libucrtd:crtmbox.obj
 0001:0007dc10       ??1?$__crt_unique_handle_t@U__crt_handle_traits@@@@QAE@XZ 1007ec10 f i libucrtd:crtmbox.obj
 0001:0007dc30       ??B?$__crt_unique_handle_t@U__crt_handle_traits@@@@QBE_NXZ 1007ec30 f i libucrtd:crtmbox.obj
 0001:0007dc50       ?close@?$__crt_unique_handle_t@U__crt_handle_traits@@@@QAEXXZ 1007ec50 f i libucrtd:crtmbox.obj
 0001:0007dc90       ?close@__crt_handle_traits@@SA_NPAX@Z 1007ec90 f i libucrtd:crtmbox.obj
 0001:0007dcc0       ?get@?$__crt_unique_handle_t@U__crt_handle_traits@@@@QBEPAXXZ 1007ecc0 f i libucrtd:crtmbox.obj
 0001:0007dce0       ?get_invalid_value@__crt_handle_traits@@SAPAXXZ 1007ece0 f i libucrtd:crtmbox.obj
 0001:0007dcf0       ?is_valid@?$__crt_unique_handle_t@U__crt_handle_traits@@@@QBE_NXZ 1007ecf0 f i libucrtd:crtmbox.obj
 0001:0007dd20       ___acrt_show_narrow_message_box 1007ed20 f   libucrtd:crtmbox.obj
 0001:0007dd40       ___acrt_show_wide_message_box 1007ed40 f   libucrtd:crtmbox.obj
 0001:0007dd60       ___acrt_initialize_locks   1007ed60 f   libucrtd:locks.obj
 0001:0007ddc0       ___acrt_lock               1007edc0 f   libucrtd:locks.obj
 0001:0007dde0       ___acrt_uninitialize_locks 1007ede0 f   libucrtd:locks.obj
 0001:0007de30       ___acrt_unlock             1007ee30 f   libucrtd:locks.obj
 0001:0007de50       __lock_locales             1007ee50 f   libucrtd:locks.obj
 0001:0007de70       __unlock_locales           1007ee70 f   libucrtd:locks.obj
 0001:0007de90       ??$?B$$A6AXH@Z@__crt_fast_encoded_nullptr_t@@QBEP6AXH@ZXZ 1007ee90 f i libucrtd:signal.obj
 0001:0007deb0       ??$?RV<lambda_a048d3beccc847880fc8490e18b82769>@@AAV<lambda_ec61778202f4f5fc7e7711acc23c3bca>@@V<lambda_f7496a158712204296dd6628a163878e>@@@?$__crt_seh_guarded_call@P6AXH@Z@@QAEP6AXH@Z$$QAV<lambda_a048d3beccc847880fc8490e18b82769>@@AAV<lambda_ec61778202f4f5fc7e7711acc23c3bca>@@$$QAV<lambda_f7496a158712204296dd6628a163878e>@@@Z 1007eeb0 f i libucrtd:signal.obj
 0001:0007df40       ??$__acrt_lock_and_call@V<lambda_ec61778202f4f5fc7e7711acc23c3bca>@@@@YAP6AXH@ZW4__acrt_lock_id@@$$QAV<lambda_ec61778202f4f5fc7e7711acc23c3bca>@@@Z 1007ef40 f i libucrtd:signal.obj
 0001:0007df80       ??$__crt_fast_decode_pointer@P6AXH@Z@@YAP6AXH@ZQ6AXH@Z@Z 1007ef80 f i libucrtd:signal.obj
 0001:0007dfb0       ??$__crt_fast_encode_pointer@P6AXH@Z@@YAP6AXH@ZQ6AXH@Z@Z 1007efb0 f i libucrtd:signal.obj
 0001:0007e270       ?initialize@?$dual_state_global@P6AXH@Z@__crt_state_management@@QAEXQ6AXH@Z@Z 1007f270 f i libucrtd:signal.obj
 0001:0007e350       ?value@?$dual_state_global@P6AXH@Z@__crt_state_management@@QAEAAP6AXH@ZXZ 1007f350 f i libucrtd:signal.obj
 0001:0007e370       ___acrt_get_sigabrt_handler 1007f370 f   libucrtd:signal.obj
 0001:0007e390       ___acrt_initialize_signal_handlers 1007f390 f   libucrtd:signal.obj
 0001:0007e3d0       ___fpecode                 1007f3d0 f   libucrtd:signal.obj
 0001:0007e3e0       ___pxcptinfoptrs           1007f3e0 f   libucrtd:signal.obj
 0001:0007e3f0       _raise                     1007f3f0 f   libucrtd:signal.obj
 0001:0007e7d0       _signal                    1007f7d0 f   libucrtd:signal.obj
 0001:0007ea60       __msize                    1007fa60 f   libucrtd:msize.obj
 0001:0007ea80       __realloc_base             1007fa80 f   libucrtd:realloc_base.obj
 0001:0007eb70       ??$?B$$A6GHPA_WKJ@Z@__crt_fast_encoded_nullptr_t@@QBEP6GHPA_WKJ@ZXZ 1007fb70 f i libucrtd:winapi_thunks.obj
 0001:0007eb90       ??$?RV<lambda_9227be29367c048ad7fd93a717dcb1a1>@@AAV<lambda_a463b7b0560cfcaf9b17f27c6ef46564>@@V<lambda_ccea11b5727ccf69be64f5f5d9a08d9f>@@@?$__crt_seh_guarded_call@H@@QAEH$$QAV<lambda_9227be29367c048ad7fd93a717dcb1a1>@@AAV<lambda_a463b7b0560cfcaf9b17f27c6ef46564>@@$$QAV<lambda_ccea11b5727ccf69be64f5f5d9a08d9f>@@@Z 1007fb90 f i libucrtd:winapi_thunks.obj
 0001:0007ec20       ??$__acrt_lock_and_call@V<lambda_a463b7b0560cfcaf9b17f27c6ef46564>@@@@YAHW4__acrt_lock_id@@$$QAV<lambda_a463b7b0560cfcaf9b17f27c6ef46564>@@@Z 1007fc20 f i libucrtd:winapi_thunks.obj
 0001:0007ec60       ??$__crt_fast_decode_pointer@P6GHPA_WKJ@Z@@YAP6GHPA_WKJ@ZQ6GH0KJ@Z@Z 1007fc60 f i libucrtd:winapi_thunks.obj
 0001:0007ec90       ??$__crt_fast_encode_pointer@P6GHPA_WKJ@Z@@YAP6GHPA_WKJ@ZQ6GH0KJ@Z@Z 1007fc90 f i libucrtd:winapi_thunks.obj
 0001:0007f530       ___acrt_AreFileApisANSI@0  10080530 f   libucrtd:winapi_thunks.obj
 0001:0007f580       ___acrt_CompareStringEx@36 10080580 f   libucrtd:winapi_thunks.obj
 0001:0007f610       ___acrt_EnumSystemLocalesEx@16 10080610 f   libucrtd:winapi_thunks.obj
 0001:0007f680       ___acrt_FlsAlloc@4         10080680 f   libucrtd:winapi_thunks.obj
 0001:0007f6d0       ___acrt_FlsFree@4          100806d0 f   libucrtd:winapi_thunks.obj
 0001:0007f730       ___acrt_FlsGetValue@4      10080730 f   libucrtd:winapi_thunks.obj
 0001:0007f790       ___acrt_FlsSetValue@8      10080790 f   libucrtd:winapi_thunks.obj
 0001:0007f7f0       ___acrt_GetDateFormatEx@28 100807f0 f   libucrtd:winapi_thunks.obj
 0001:0007f880       ___acrt_GetEnabledXStateFeatures@0 10080880 f   libucrtd:winapi_thunks.obj
 0001:0007f8d0       ___acrt_GetFileInformationByHandleEx@16 100808d0 f   libucrtd:winapi_thunks.obj
 0001:0007f930       ___acrt_GetLocaleInfoEx@16 10080930 f   libucrtd:winapi_thunks.obj
 0001:0007f9b0       ___acrt_GetSystemTimePreciseAsFileTime@4 100809b0 f   libucrtd:winapi_thunks.obj
 0001:0007fa10       ___acrt_GetTimeFormatEx@24 10080a10 f   libucrtd:winapi_thunks.obj
 0001:0007faa0       ___acrt_GetUserDefaultLocaleName@8 10080aa0 f   libucrtd:winapi_thunks.obj
 0001:0007fb10       ___acrt_GetXStateFeaturesMask@8 10080b10 f   libucrtd:winapi_thunks.obj
 0001:0007fb70       ___acrt_InitializeCriticalSectionEx@12 10080b70 f   libucrtd:winapi_thunks.obj
 0001:0007fbd0       ___acrt_IsValidLocaleName@4 10080bd0 f   libucrtd:winapi_thunks.obj
 0001:0007fc30       ___acrt_LCIDToLocaleName@16 10080c30 f   libucrtd:winapi_thunks.obj
 0001:0007fca0       ___acrt_LCMapStringEx@36   10080ca0 f   libucrtd:winapi_thunks.obj
 0001:0007fd30       ___acrt_LocaleNameToLCID@8 10080d30 f   libucrtd:winapi_thunks.obj
 0001:0007fd90       ___acrt_LocateXStateFeature@12 10080d90 f   libucrtd:winapi_thunks.obj
 0001:0007fdf0       ___acrt_MessageBoxA@16     10080df0 f   libucrtd:winapi_thunks.obj
 0001:0007fe50       ___acrt_MessageBoxW@16     10080e50 f   libucrtd:winapi_thunks.obj
 0001:0007feb0       ___acrt_RoInitialize@4     10080eb0 f   libucrtd:winapi_thunks.obj
 0001:0007ff00       ___acrt_RoUninitialize@0   10080f00 f   libucrtd:winapi_thunks.obj
 0001:0007ff40       ___acrt_RtlGenRandom@8     10080f40 f   libucrtd:winapi_thunks.obj
 0001:0007ffa0       ___acrt_SetThreadStackGuarantee@4 10080fa0 f   libucrtd:winapi_thunks.obj
 0001:0007fff0       ___acrt_can_show_message_box 10080ff0 f   libucrtd:winapi_thunks.obj
 0001:00080020       ___acrt_can_use_vista_locale_apis 10081020 f   libucrtd:winapi_thunks.obj
 0001:00080050       ___acrt_can_use_xstate_apis 10081050 f   libucrtd:winapi_thunks.obj
 0001:00080080       ___acrt_get_parent_window  10081080 f   libucrtd:winapi_thunks.obj
 0001:00080100       ___acrt_initialize_winapi_thunks 10081100 f   libucrtd:winapi_thunks.obj
 0001:00080170       ___acrt_is_interactive     10081170 f   libucrtd:winapi_thunks.obj
 0001:00080220       ___acrt_is_packaged_app    10081220 f   libucrtd:winapi_thunks.obj
 0001:00080330       ___acrt_uninitialize_winapi_thunks 10081330 f   libucrtd:winapi_thunks.obj
 0001:000803a0       __chvalidator              100813a0 f   libucrtd:isctype.obj
 0001:000803f0       __chvalidator_l            100813f0 f   libucrtd:isctype.obj
 0001:00080490       __isctype                  10081490 f   libucrtd:isctype.obj
 0001:000804d0       __isctype_l                100814d0 f   libucrtd:isctype.obj
 0001:00080650       ??$?RU__crt_stdio_stream_data@@@__crt_internal_free_policy@@QBEXQBU__crt_stdio_stream_data@@@Z 10081650 f i libucrtd:stream.obj
 0001:00080670       ??0?$__crt_unique_heap_ptr@U__crt_stdio_stream_data@@U__crt_internal_free_policy@@@@QAE@QAU__crt_stdio_stream_data@@@Z 10081670 f i libucrtd:stream.obj
 0001:00080690       ??0__crt_stdio_stream@@QAE@QAU__crt_stdio_stream_data@@@Z 10081690 f i libucrtd:stream.obj
 0001:000806b0       ??0__crt_stdio_stream@@QAE@XZ 100816b0 f i libucrtd:stream.obj
 0001:000806d0       ??1?$__crt_unique_heap_ptr@U__crt_stdio_stream_data@@U__crt_internal_free_policy@@@@QAE@XZ 100816d0 f i libucrtd:stream.obj
 0001:000806f0       ?__acrt_stdio_allocate_stream@@YA?AV__crt_stdio_stream@@XZ 100816f0 f   libucrtd:stream.obj
 0001:000807e0       ?__acrt_stdio_free_stream@@YAXV__crt_stdio_stream@@@Z 100817e0 f   libucrtd:stream.obj
 0001:00080860       ?deallocate@__crt_stdio_stream@@QAEXXZ 10081860 f i libucrtd:stream.obj
 0001:00080880       ?detach@?$__crt_unique_heap_ptr@U__crt_stdio_stream_data@@U__crt_internal_free_policy@@@@QAEPAU__crt_stdio_stream_data@@XZ 10081880 f i libucrtd:stream.obj
 0001:000809f0       ?lock@__crt_stdio_stream@@QBEXXZ 100819f0 f i libucrtd:stream.obj
 0001:00080a10       ?release@?$__crt_unique_heap_ptr@U__crt_stdio_stream_data@@U__crt_internal_free_policy@@@@QAEXXZ 10081a10 f i libucrtd:stream.obj
 0001:00080a40       ?try_allocate@__crt_stdio_stream@@QAE_NXZ 10081a40 f i libucrtd:stream.obj
 0001:00080a90       ??$__acrt_stdio_parse_mode@D@@YA?AU__acrt_stdio_stream_mode@@QBD@Z 10081a90 f i libucrtd:openfile.obj
 0001:000812f0       ??$__acrt_stdio_parse_mode@_W@@YA?AU__acrt_stdio_stream_mode@@QB_W@Z 100822f0 f i libucrtd:openfile.obj
 0001:00081e80       ??$tcsncmp@AAPBDAAY02$$CBDI@?$__crt_char_traits@D@@SAHAAPBDAAY02$$CBD$$QAI@Z 10082e80 f i libucrtd:openfile.obj
 0001:00081ea0       ??$tcsncmp@AAPB_WAAY02$$CB_WI@?$__crt_char_traits@_W@@SAHAAPB_WAAY02$$CB_W$$QAI@Z 10082ea0 f i libucrtd:openfile.obj
 0001:00081ec0       ??$tcsnicmp@AAPBDAAY04$$CBDI@?$__crt_char_traits@D@@SAHAAPBDAAY04$$CBD$$QAI@Z 10082ec0 f i libucrtd:openfile.obj
 0001:00081ee0       ??$tcsnicmp@AAPBDAAY06$$CBDI@?$__crt_char_traits@D@@SAHAAPBDAAY06$$CBD$$QAI@Z 10082ee0 f i libucrtd:openfile.obj
 0001:00081f00       ??$tcsnicmp@AAPBDAAY07$$CBDI@?$__crt_char_traits@D@@SAHAAPBDAAY07$$CBD$$QAI@Z 10082f00 f i libucrtd:openfile.obj
 0001:00081f20       ??$tcsnicmp@AAPB_WAAY04$$CB_WI@?$__crt_char_traits@_W@@SAHAAPB_WAAY04$$CB_W$$QAI@Z 10082f20 f i libucrtd:openfile.obj
 0001:00081f40       ??$tcsnicmp@AAPB_WAAY06$$CB_WI@?$__crt_char_traits@_W@@SAHAAPB_WAAY06$$CB_W$$QAI@Z 10082f40 f i libucrtd:openfile.obj
 0001:00081f60       ??$tcsnicmp@AAPB_WAAY07$$CB_WI@?$__crt_char_traits@_W@@SAHAAPB_WAAY07$$CB_W$$QAI@Z 10082f60 f i libucrtd:openfile.obj
 0001:00081f80       ??$tsopen_s@PAHABQBDABHABHH@?$__crt_char_traits@D@@SAH$$QAPAHABQBDABH2$$QAH@Z 10082f80 f i libucrtd:openfile.obj
 0001:00081fb0       ??$tsopen_s@PAHABQB_WABHABHH@?$__crt_char_traits@_W@@SAH$$QAPAHABQB_WABH2$$QAH@Z 10082fb0 f i libucrtd:openfile.obj
 0001:00081fe0       ?__acrt_stdio_parse_mode_D@@YA_NAAU__acrt_stdio_stream_mode@@@Z 10082fe0 f i libucrtd:openfile.obj
 0001:00082010       ?__acrt_stdio_parse_mode_N@@YA_NAAU__acrt_stdio_stream_mode@@@Z 10083010 f i libucrtd:openfile.obj
 0001:00082030       ?__acrt_stdio_parse_mode_R@@YA_NAAU__acrt_stdio_stream_mode@@AA_N@Z 10083030 f i libucrtd:openfile.obj
 0001:00082060       ?__acrt_stdio_parse_mode_S@@YA_NAAU__acrt_stdio_stream_mode@@AA_N@Z 10083060 f i libucrtd:openfile.obj
 0001:00082090       ?__acrt_stdio_parse_mode_T@@YA_NAAU__acrt_stdio_stream_mode@@@Z 10083090 f i libucrtd:openfile.obj
 0001:000820c0       ?__acrt_stdio_parse_mode_b@@YA_NAAU__acrt_stdio_stream_mode@@@Z 100830c0 f i libucrtd:openfile.obj
 0001:000820f0       ?__acrt_stdio_parse_mode_c@@YA_NAAU__acrt_stdio_stream_mode@@AA_N@Z 100830f0 f i libucrtd:openfile.obj
 0001:00082120       ?__acrt_stdio_parse_mode_n@@YA_NAAU__acrt_stdio_stream_mode@@AA_N@Z 10083120 f i libucrtd:openfile.obj
 0001:00082150       ?__acrt_stdio_parse_mode_plus@@YA_NAAU__acrt_stdio_stream_mode@@AA_N@Z 10083150 f i libucrtd:openfile.obj
 0001:000821c0       ?__acrt_stdio_parse_mode_t@@YA_NAAU__acrt_stdio_stream_mode@@@Z 100831c0 f i libucrtd:openfile.obj
 0001:000821f0       __openfile                 100831f0 f   libucrtd:openfile.obj
 0001:00082220       __wopenfile                10083220 f   libucrtd:openfile.obj
 0001:00082250       ??$?RV<lambda_4d8dda1ac129e11742d77ae5e3bbda74>@@AAV<lambda_a8f98972ebaa5f7148d35bffe53bd70d>@@V<lambda_5193b64c98d743723bd5dcf162a72339>@@@?$__crt_seh_guarded_call@H@@QAEH$$QAV<lambda_4d8dda1ac129e11742d77ae5e3bbda74>@@AAV<lambda_a8f98972ebaa5f7148d35bffe53bd70d>@@$$QAV<lambda_5193b64c98d743723bd5dcf162a72339>@@@Z 10083250 f i libucrtd:close.obj
 0001:000822e0       ??$__acrt_lowio_lock_fh_and_call@V<lambda_a8f98972ebaa5f7148d35bffe53bd70d>@@@@YAHH$$QAV<lambda_a8f98972ebaa5f7148d35bffe53bd70d>@@@Z 100832e0 f i libucrtd:close.obj
 0001:00082500       __close                    10083500 f   libucrtd:close.obj
 0001:00082680       __close_nolock             10083680 f   libucrtd:close.obj
 0001:000826e0       ?has_crt_buffer@__crt_stdio_stream@@QBE_NXZ 100836e0 f i libucrtd:_freebuf.obj
 0001:00082700       ___acrt_stdio_free_buffer_nolock 10083700 f   libucrtd:_freebuf.obj
 0001:000827b0       ?__acrt_stdio_reset_buffer@@YAXV__crt_stdio_stream@@@Z 100837b0 f i libucrtd:fflush.obj
 0001:000827e0       ?has_all_of@__crt_stdio_stream@@QBE_NJ@Z 100837e0 f i libucrtd:fflush.obj
 0001:00082820       ?has_big_buffer@__crt_stdio_stream@@QBE_NXZ 10083820 f i libucrtd:fflush.obj
 0001:00082840       ___acrt_stdio_flush_nolock 10083840 f   libucrtd:fflush.obj
 0001:00082920       __fflush_nolock            10083920 f   libucrtd:fflush.obj
 0001:000829a0       __flushall                 100839a0 f   libucrtd:fflush.obj
 0001:00082b50       _fflush                    10083b50 f   libucrtd:fflush.obj
 0001:00083320       ___acrt_stdio_flush_and_write_narrow_nolock 10084320 f   libucrtd:_flsbuf.obj
 0001:00083350       ___acrt_stdio_flush_and_write_wide_nolock 10084350 f   libucrtd:_flsbuf.obj
 0001:000842c0       ??$find_first_file_ex@ABQADW4_FINDEX_INFO_LEVELS@@PAU_WIN32_FIND_DATAA@@W4_FINDEX_SEARCH_OPS@@$$TH@?$__crt_char_traits@D@@SAPAXABQAD$$QAW4_FINDEX_INFO_LEVELS@@$$QAPAU_WIN32_FIND_DATAA@@$$QAW4_FINDEX_SEARCH_OPS@@$$QA$$T$$QAH@Z 100852c0 f i libucrtd:argv_wildcards.obj
 0001:00084300       ??$find_first_file_ex@ABQA_WW4_FINDEX_INFO_LEVELS@@PAU_WIN32_FIND_DATAW@@W4_FINDEX_SEARCH_OPS@@$$TH@?$__crt_char_traits@_W@@SAPAXABQA_W$$QAW4_FINDEX_INFO_LEVELS@@$$QAPAU_WIN32_FIND_DATAW@@$$QAW4_FINDEX_SEARCH_OPS@@$$QA$$T$$QAH@Z 10085300 f i libucrtd:argv_wildcards.obj
 0001:00084340       ??$find_next_file@PAXPAU_WIN32_FIND_DATAA@@@?$__crt_char_traits@D@@SAH$$QAPAX$$QAPAU_WIN32_FIND_DATAA@@@Z 10085340 f i libucrtd:argv_wildcards.obj
 0001:00084360       ??$find_next_file@PAXPAU_WIN32_FIND_DATAW@@@?$__crt_char_traits@_W@@SAH$$QAPAX$$QAPAU_WIN32_FIND_DATAW@@@Z 10085360 f i libucrtd:argv_wildcards.obj
 0001:00084380       ??$tcsncpy_s@AAPADIAAPADABI@?$__crt_char_traits@D@@SAHAAPAD$$QAI0ABI@Z 10085380 f i libucrtd:argv_wildcards.obj
 0001:000843b0       ??$tcsncpy_s@AAPA_WIAAPA_WABI@?$__crt_char_traits@_W@@SAHAAPA_W$$QAI0ABI@Z 100853b0 f i libucrtd:argv_wildcards.obj
 0001:000843e0       ??$tcsncpy_s@PAD$$CBIABQBDABI@?$__crt_char_traits@D@@SAH$$QAPAD$$QBIABQBDABI@Z 100853e0 f i libucrtd:argv_wildcards.obj
 0001:00084410       ??$tcsncpy_s@PADABIABQBDABI@?$__crt_char_traits@D@@SAH$$QAPADABIABQBD1@Z 10085410 f i libucrtd:argv_wildcards.obj
 0001:00084440       ??$tcsncpy_s@PA_W$$CBIABQB_WABI@?$__crt_char_traits@_W@@SAH$$QAPA_W$$QBIABQB_WABI@Z 10085440 f i libucrtd:argv_wildcards.obj
 0001:00084470       ??$tcsncpy_s@PA_WABIABQB_WABI@?$__crt_char_traits@_W@@SAH$$QAPA_WABIABQB_W1@Z 10085470 f i libucrtd:argv_wildcards.obj
 0001:000844a0       ??$tcspbrk@AAPADAAY02$$CBD@?$__crt_char_traits@D@@SAPADAAPADAAY02$$CBD@Z 100854a0 f i libucrtd:argv_wildcards.obj
 0001:000844c0       ??$tcspbrk@AAPA_WAAY02$$CB_W@?$__crt_char_traits@_W@@SAPA_WAAPA_WAAY02$$CB_W@Z 100854c0 f i libucrtd:argv_wildcards.obj
 0001:000844e0       ??0?$__crt_unique_handle_t@U__crt_findfile_traits@@@@QAE@QAX@Z 100854e0 f i libucrtd:argv_wildcards.obj
 0001:00084500       ??0?$argument_list@D@?A0x536e2c96@@QAE@XZ 10085500 f i libucrtd:argv_wildcards.obj
 0001:00084530       ??0?$argument_list@_W@?A0x536e2c96@@QAE@XZ 10085530 f i libucrtd:argv_wildcards.obj
 0001:00084560       ??1?$__crt_unique_handle_t@U__crt_findfile_traits@@@@QAE@XZ 10085560 f i libucrtd:argv_wildcards.obj
 0001:00084580       ??1?$argument_list@D@?A0x536e2c96@@QAE@XZ 10085580 f i libucrtd:argv_wildcards.obj
 0001:000845d0       ??1?$argument_list@_W@?A0x536e2c96@@QAE@XZ 100855d0 f i libucrtd:argv_wildcards.obj
 0001:000846e0       ?append@?$argument_list@D@?A0x536e2c96@@QAEHQAD@Z 100856e0 f i libucrtd:argv_wildcards.obj
 0001:00084740       ?append@?$argument_list@_W@?A0x536e2c96@@QAEHQA_W@Z 10085740 f i libucrtd:argv_wildcards.obj
 0001:000847a0       ?begin@?$argument_list@D@?A0x536e2c96@@QBEPAPADXZ 100857a0 f i libucrtd:argv_wildcards.obj
 0001:000847c0       ?begin@?$argument_list@_W@?A0x536e2c96@@QBEPAPA_WXZ 100857c0 f i libucrtd:argv_wildcards.obj
 0001:000847e0       ?close@?$__crt_unique_handle_t@U__crt_findfile_traits@@@@QAEXXZ 100857e0 f i libucrtd:argv_wildcards.obj
 0001:00084820       ?close@__crt_findfile_traits@@SA_NPAX@Z 10085820 f i libucrtd:argv_wildcards.obj
 0001:00084850       ?end@?$argument_list@D@?A0x536e2c96@@QBEPAPADXZ 10085850 f i libucrtd:argv_wildcards.obj
 0001:00084870       ?end@?$argument_list@_W@?A0x536e2c96@@QBEPAPA_WXZ 10085870 f i libucrtd:argv_wildcards.obj
 0001:00084890       ?expand_if_necessary@?$argument_list@D@?A0x536e2c96@@AAEHXZ 10085890 f i libucrtd:argv_wildcards.obj
 0001:000849f0       ?expand_if_necessary@?$argument_list@_W@?A0x536e2c96@@AAEHXZ 100859f0 f i libucrtd:argv_wildcards.obj
 0001:00084b50       ?get@?$__crt_unique_handle_t@U__crt_findfile_traits@@@@QBEPAXXZ 10085b50 f i libucrtd:argv_wildcards.obj
 0001:00084b70       ?get_invalid_value@__crt_findfile_traits@@SAPAXXZ 10085b70 f i libucrtd:argv_wildcards.obj
 0001:00084bb0       ?size@?$argument_list@D@?A0x536e2c96@@QBEIXZ 10085bb0 f i libucrtd:argv_wildcards.obj
 0001:00084bd0       ?size@?$argument_list@_W@?A0x536e2c96@@QBEIXZ 10085bd0 f i libucrtd:argv_wildcards.obj
 0001:00084bf0       ?strpbrk@@YAPADQADQBD@Z    10085bf0 f i libucrtd:argv_wildcards.obj
 0001:00084c10       ?wcspbrk@@YAPA_WPA_WPB_W@Z 10085c10 f i libucrtd:argv_wildcards.obj
 0001:00084c30       ___acrt_expand_narrow_argv_wildcards 10085c30 f   libucrtd:argv_wildcards.obj
 0001:00084c50       ___acrt_expand_wide_argv_wildcards 10085c50 f   libucrtd:argv_wildcards.obj
 0001:00084c70       ??$?RV<lambda_694f386f8d9a4d7d5afe1ac229f209db>@@AAV<lambda_2f900415df1f7f624cdaaefe86d0b1c0>@@V<lambda_17c2d007e408fdf31ce10a4c853c6ffa>@@@?$__crt_seh_guarded_call@X@@QAEX$$QAV<lambda_694f386f8d9a4d7d5afe1ac229f209db>@@AAV<lambda_2f900415df1f7f624cdaaefe86d0b1c0>@@$$QAV<lambda_17c2d007e408fdf31ce10a4c853c6ffa>@@@Z 10085c70 f i libucrtd:mbctype.obj
 0001:00084cf0       ??$__acrt_lock_and_call@V<lambda_2f900415df1f7f624cdaaefe86d0b1c0>@@@@YAXW4__acrt_lock_id@@$$QAV<lambda_2f900415df1f7f624cdaaefe86d0b1c0>@@@Z 10085cf0 f i libucrtd:mbctype.obj
 0001:00085620       ___acrt_initialize_multibyte 10086620 f   libucrtd:mbctype.obj
 0001:00085650       ___acrt_update_thread_multibyte_data 10086650 f   libucrtd:mbctype.obj
 0001:00085760       ___p__mbcasemap            10086760 f   libucrtd:mbctype.obj
 0001:00085780       ___p__mbctype              10086780 f   libucrtd:mbctype.obj
 0001:000857a0       __getmbcp                  100867a0 f   libucrtd:mbctype.obj
 0001:00085810       __setmbcp                  10086810 f   libucrtd:mbctype.obj
 0001:00085830       __setmbcp_nolock           10086830 f   libucrtd:mbctype.obj
 0001:00085d13       __ismbbalnum               10086d13 f   libucrtd:ismbbyte.obj
 0001:00085d2e       __ismbbalnum_l             10086d2e f   libucrtd:ismbbyte.obj
 0001:00085d4a       __ismbbalpha               10086d4a f   libucrtd:ismbbyte.obj
 0001:00085d65       __ismbbalpha_l             10086d65 f   libucrtd:ismbbyte.obj
 0001:00085d81       __ismbbblank               10086d81 f   libucrtd:ismbbyte.obj
 0001:00085da4       __ismbbblank_l             10086da4 f   libucrtd:ismbbyte.obj
 0001:00085dc8       __ismbbgraph               10086dc8 f   libucrtd:ismbbyte.obj
 0001:00085de3       __ismbbgraph_l             10086de3 f   libucrtd:ismbbyte.obj
 0001:00085dff       __ismbbkalnum              10086dff f   libucrtd:ismbbyte.obj
 0001:00085e17       __ismbbkalnum_l            10086e17 f   libucrtd:ismbbyte.obj
 0001:00085e30       __ismbbkana                10086e30 f   libucrtd:ismbbyte.obj
 0001:00085e43       __ismbbkana_l              10086e43 f   libucrtd:ismbbyte.obj
 0001:00085e94       __ismbbkprint              10086e94 f   libucrtd:ismbbyte.obj
 0001:00085eac       __ismbbkprint_l            10086eac f   libucrtd:ismbbyte.obj
 0001:00085ec5       __ismbbkpunct              10086ec5 f   libucrtd:ismbbyte.obj
 0001:00085edd       __ismbbkpunct_l            10086edd f   libucrtd:ismbbyte.obj
