 Opos_Internals

 Timestamp is 5d42a04e (Thu Aug  1 17:18:22 2019)

 Preferred load address is 10000000

 Start         Length     Name                   Class
 0001:00000000 000006d0H .text$di                CODE
 0001:000006d0 00083760H .text$mn                CODE
 0001:00083e30 000001c0H .text$x                 CODE
 0001:00083ff0 000000a0H .text$yd                CODE
 0002:00000000 000001d4H .idata$5                DATA
 0002:000001d4 00000004H .00cfg                  DATA
 0002:000001d8 00000004H .CRT$XCA                DATA
 0002:000001dc 00000004H .CRT$XCL                DATA
 0002:000001e0 00000068H .CRT$XCU                DATA
 0002:00000248 00000004H .CRT$XCZ                DATA
 0002:0000024c 00000004H .CRT$XIA                DATA
 0002:00000250 0000000cH .CRT$XIC                DATA
 0002:0000025c 00000004H .CRT$XIZ                DATA
 0002:00000260 00000004H .CRT$XPA                DATA
 0002:00000264 00000008H .CRT$XPX                DATA
 0002:0000026c 00000004H .CRT$XPXA               DATA
 0002:00000270 00000004H .CRT$XPZ                DATA
 0002:00000274 00000004H .CRT$XTA                DATA
 0002:00000278 00000008H .CRT$XTZ                DATA
 0002:0000027c 00000000H .gfids$y                DATA
 0002:00000280 00023c5cH .rdata                  DATA
 0002:00023edc 00000344H .rdata$r                DATA
 0002:00024220 00000044H .rdata$sxdata           DATA
 0002:00024264 00000394H .rdata$zzzdbg           DATA
 0002:000245f8 00000004H .rtc$IAA                DATA
 0002:000245fc 00000008H .rtc$IMZ                DATA
 0002:00024604 00000004H .rtc$IZZ                DATA
 0002:00024608 00000004H .rtc$TAA                DATA
 0002:0002460c 00000008H .rtc$TMZ                DATA
 0002:00024614 00000004H .rtc$TZZ                DATA
 0002:00024618 00000d24H .xdata$x                DATA
 0002:0002533c 00000004H ATL$__a                 DATA
 0002:00025340 00000010H ATL$__z                 DATA
 0002:00025350 000000acH .edata                  DATA
 0002:000253fc 00000064H .idata$2                DATA
 0002:00025460 00000014H .idata$3                DATA
 0002:00025474 000001d4H .idata$4                DATA
 0002:00025648 000007dcH .idata$6                DATA
 0003:00000000 00000910H .data                   DATA
 0003:00000910 00000138H .data$r                 DATA
 0003:00000a48 0000353cH .bss                    DATA
 0004:00000000 00000140H .rsrc$01                DATA
 0004:00000140 00013360H .rsrc$02                DATA

  Address         Publics by Value              Rva+Base       Lib:Object

 0000:00000000       ___guard_longjmp_table     00000000     <absolute>
 0000:00000000       ___volatile_metadata       00000000     <absolute>
 0000:00000000       ___guard_fids_table        00000000     <absolute>
 0000:00000000       ___guard_iat_count         00000000     <absolute>
 0000:00000000       ___dynamic_value_reloc_table 00000000     <absolute>
 0000:00000000       ___guard_fids_count        00000000     <absolute>
 0000:00000000       ___enclave_config          00000000     <absolute>
 0000:00000000       ___guard_longjmp_count     00000000     <absolute>
 0000:00000000       ___hybrid_code_map_count   00000000     <absolute>
 0000:00000000       ___hybrid_auxiliary_iat    00000000     <absolute>
 0000:00000000       ___hybrid_code_map         00000000     <absolute>
 0000:00000000       ___guard_iat_table         00000000     <absolute>
 0000:00000000       ___AbsoluteZero            00000000     <absolute>
 0000:00000000       __except_list              00000000     <absolute>
 0000:00000011       ___safe_se_handler_count   00000011     <absolute>
 0000:00000100       ___guard_flags             00000100     <absolute>
 0000:00000000       ___ImageBase               10000000     <linker-defined>
 0001:000006d0       ??$AtlMultiply@I@ATL@@YAJPAIII@Z 100016d0 f i StdAfx.obj
 0001:00000730       ??0?$CHeapPtr@_WVCCRTAllocator@ATL@@@ATL@@QAE@XZ 10001730 f i StdAfx.obj
 0001:00000760       ??0?$CHeapPtrBase@_WVCCRTAllocator@ATL@@@ATL@@IAE@XZ 10001760 f i StdAfx.obj
 0001:00000780       ??0?$CSimpleArray@GV?$CSimpleArrayEqualHelper@G@ATL@@@ATL@@QAE@XZ 10001780 f i StdAfx.obj
 0001:000007c0       ??0?$CTraceCategoryEx@$00$0A@@ATL@@QAE@PB_W@Z 100017c0 f i StdAfx.obj
 0001:000007f0       ??0?$CTraceCategoryEx@$01$0A@@ATL@@QAE@PB_W@Z 100017f0 f i StdAfx.obj
 0001:00000820       ??0?$CTraceCategoryEx@$03$0A@@ATL@@QAE@PB_W@Z 10001820 f i StdAfx.obj
 0001:00000850       ??0?$CTraceCategoryEx@$07$0A@@ATL@@QAE@PB_W@Z 10001850 f i StdAfx.obj
 0001:00000880       ??0?$CTraceCategoryEx@$0BA@$0A@@ATL@@QAE@PB_W@Z 10001880 f i StdAfx.obj
 0001:000008b0       ??0?$CTraceCategoryEx@$0BAA@$0A@@ATL@@QAE@PB_W@Z 100018b0 f i StdAfx.obj
 0001:000008f0       ??0?$CTraceCategoryEx@$0BAAA@$0A@@ATL@@QAE@PB_W@Z 100018f0 f i StdAfx.obj
 0001:00000930       ??0?$CTraceCategoryEx@$0BAAAA@$0A@@ATL@@QAE@PB_W@Z 10001930 f i StdAfx.obj
 0001:00000970       ??0?$CTraceCategoryEx@$0BAAAAA@$0A@@ATL@@QAE@PB_W@Z 10001970 f i StdAfx.obj
 0001:000009b0       ??0?$CTraceCategoryEx@$0CA@$0A@@ATL@@QAE@PB_W@Z 100019b0 f i StdAfx.obj
 0001:000009e0       ??0?$CTraceCategoryEx@$0CAA@$0A@@ATL@@QAE@PB_W@Z 100019e0 f i StdAfx.obj
 0001:00000a20       ??0?$CTraceCategoryEx@$0CAAA@$0A@@ATL@@QAE@PB_W@Z 10001a20 f i StdAfx.obj
 0001:00000a60       ??0?$CTraceCategoryEx@$0CAAAA@$0A@@ATL@@QAE@PB_W@Z 10001a60 f i StdAfx.obj
 0001:00000aa0       ??0?$CTraceCategoryEx@$0CAAAAA@$0A@@ATL@@QAE@PB_W@Z 10001aa0 f i StdAfx.obj
 0001:00000ae0       ??0?$CTraceCategoryEx@$0EA@$0A@@ATL@@QAE@PB_W@Z 10001ae0 f i StdAfx.obj
 0001:00000b10       ??0?$CTraceCategoryEx@$0EAA@$0A@@ATL@@QAE@PB_W@Z 10001b10 f i StdAfx.obj
 0001:00000b50       ??0?$CTraceCategoryEx@$0EAAA@$0A@@ATL@@QAE@PB_W@Z 10001b50 f i StdAfx.obj
 0001:00000b90       ??0?$CTraceCategoryEx@$0EAAAA@$0A@@ATL@@QAE@PB_W@Z 10001b90 f i StdAfx.obj
 0001:00000bd0       ??0?$CTraceCategoryEx@$0EAAAAA@$0A@@ATL@@QAE@PB_W@Z 10001bd0 f i StdAfx.obj
 0001:00000c10       ??0?$CTraceCategoryEx@$0IA@$0A@@ATL@@QAE@PB_W@Z 10001c10 f i StdAfx.obj
 0001:00000c50       ??0?$CTraceCategoryEx@$0IAA@$0A@@ATL@@QAE@PB_W@Z 10001c50 f i StdAfx.obj
 0001:00000c90       ??0?$CTraceCategoryEx@$0IAAA@$0A@@ATL@@QAE@PB_W@Z 10001c90 f i StdAfx.obj
 0001:00000cd0       ??0?$CTraceCategoryEx@$0IAAAA@$0A@@ATL@@QAE@PB_W@Z 10001cd0 f i StdAfx.obj
 0001:00000d10       ??0CAtlComModule@ATL@@QAE@XZ 10001d10 f i StdAfx.obj
 0001:00000df0       ??0CAtlWinModule@ATL@@QAE@XZ 10001df0 f i StdAfx.obj
 0001:00000e80       ??0CComCriticalSection@ATL@@QAE@XZ 10001e80 f i StdAfx.obj
 0001:00000eb0       ??0CPreserveLastError@ATL@@QAE@XZ 10001eb0 f i StdAfx.obj
 0001:00000ef0       ??0CTraceFileAndLineInfo@ATL@@QAE@PBDH@Z 10001ef0 f i StdAfx.obj
 0001:00000f20       ??0_ATL_COM_MODULE70@ATL@@QAE@XZ 10001f20 f i StdAfx.obj
 0001:00000f50       ??0_ATL_WIN_MODULE70@ATL@@QAE@XZ 10001f50 f i StdAfx.obj
 0001:00000f90       ??1?$CHeapPtr@_WVCCRTAllocator@ATL@@@ATL@@QAE@XZ 10001f90 f i StdAfx.obj
 0001:00000fc0       ??1?$CHeapPtrBase@_WVCCRTAllocator@ATL@@@ATL@@QAE@XZ 10001fc0 f i StdAfx.obj
 0001:00000ff0       ??1?$CSimpleArray@GV?$CSimpleArrayEqualHelper@G@ATL@@@ATL@@QAE@XZ 10001ff0 f i StdAfx.obj
 0001:00001020       ??1CAtlComModule@ATL@@QAE@XZ 10002020 f i StdAfx.obj
 0001:00001050       ??1CAtlWinModule@ATL@@QAE@XZ 10002050 f i StdAfx.obj
 0001:00001080       ??1CComBSTR@ATL@@QAE@XZ    10002080 f i StdAfx.obj
 0001:000010c0       ??1CComCriticalSection@ATL@@QAE@XZ 100020c0 f i StdAfx.obj
 0001:000010e0       ??1CPreserveLastError@ATL@@QAE@XZ 100020e0 f i StdAfx.obj
 0001:00001120       ??1_ATL_COM_MODULE70@ATL@@QAE@XZ 10002120 f i StdAfx.obj
 0001:00001150       ??1_ATL_WIN_MODULE70@ATL@@QAE@XZ 10002150 f i StdAfx.obj
 0001:00001190       ??1stringdispid@CComTypeInfoHolder@ATL@@QAE@XZ 10002190 f i StdAfx.obj
 0001:000011c0       ??A?$CSimpleArray@GV?$CSimpleArrayEqualHelper@G@ATL@@@ATL@@QAEAAGH@Z 100021c0 f i StdAfx.obj
 0001:00001240       ??B?$CHeapPtrBase@_WVCCRTAllocator@ATL@@@ATL@@QBEPA_WXZ 10002240 f i StdAfx.obj
 0001:00001260       ??B?$CTraceCategoryEx@$01$0A@@ATL@@QAEIXZ 10002260 f i StdAfx.obj
 0001:00001280       ??B?$CTraceCategoryEx@$0CA@$0A@@ATL@@QAEIXZ 10002280 f i StdAfx.obj
 0001:000012a0       ??RCTraceFileAndLineInfo@ATL@@QBAXHIPB_WZZ 100022a0 f i StdAfx.obj
 0001:00001340       ??_Estringdispid@CComTypeInfoHolder@ATL@@QAEPAXI@Z 10002340 f i StdAfx.obj
 0001:000013d0       ??_H@YGXPAXIIP6EPAX0@Z@Z   100023d0 f i StdAfx.obj
 0001:00001440       ??_I@YGXPAXIIP6EX0@Z@Z     10002440 f i StdAfx.obj
 0001:000014c0       ?Allocate@?$CHeapPtr@_WVCCRTAllocator@ATL@@@ATL@@QAE_NI@Z 100024c0 f i StdAfx.obj
 0001:00001550       ?Allocate@CCRTAllocator@ATL@@SAPAXI@Z 10002550 f i StdAfx.obj
 0001:00001570       ?AllocateBytes@?$CHeapPtrBase@_WVCCRTAllocator@ATL@@@ATL@@QAE_NI@Z 10002570 f i StdAfx.obj
 0001:000015e0       ?AtlWinModuleInit@ATL@@YGJPAU_ATL_WIN_MODULE70@1@@Z 100025e0 f i StdAfx.obj
 0001:000016b0       ?AtlWinModuleTerm@ATL@@YGJPAU_ATL_WIN_MODULE70@1@PAUHINSTANCE__@@@Z 100026b0 f i StdAfx.obj
 0001:00001770       ?Free@?$CHeapPtrBase@_WVCCRTAllocator@ATL@@@ATL@@QAEXXZ 10002770 f i StdAfx.obj
 0001:000017b0       ?Free@CCRTAllocator@ATL@@SAXPAX@Z 100027b0 f i StdAfx.obj
 0001:000017d0       ?GetCategoryName@CTrace@ATL@@CAPA_WI@Z 100027d0 f i StdAfx.obj
 0001:00001820       ?GetModuleInstance@CAtlBaseModule@ATL@@QAEPAUHINSTANCE__@@XZ 10002820 f i StdAfx.obj
 0001:00001840       ?GetSize@?$CSimpleArray@GV?$CSimpleArrayEqualHelper@G@ATL@@@ATL@@QBEHXZ 10002840 f i StdAfx.obj
 0001:00001860       ?Init@CComCriticalSection@ATL@@QAEJXZ 10002860 f i StdAfx.obj
 0001:000018c0       ?RegisterCategory@CTrace@ATL@@SAXPB_WI@Z 100028c0 f i StdAfx.obj
 0001:00001950       ?RemoveAll@?$CSimpleArray@GV?$CSimpleArrayEqualHelper@G@ATL@@@ATL@@QAEXXZ 10002950 f i StdAfx.obj
 0001:000019d0       ?Term@CAtlComModule@ATL@@QAEXXZ 100029d0 f i StdAfx.obj
 0001:00001a90       ?Term@CAtlWinModule@ATL@@QAEXXZ 10002a90 f i StdAfx.obj
 0001:00001ac0       ?Term@CComCriticalSection@ATL@@QAEJXZ 10002ac0 f i StdAfx.obj
 0001:00001b00       ?TraceV@CTrace@ATL@@CAXPBDHIIPB_W@Z 10002b00 f i StdAfx.obj
 0001:00001d80       ?TraceV@CTrace@ATL@@SAXPBDHIIPB_WPAD@Z 10002d80 f i StdAfx.obj
 0001:00001ec0       ?_AtlInitializeCriticalSectionEx@ATL@@YAHPAU_RTL_CRITICAL_SECTION@@KK@Z 10002ec0 f i StdAfx.obj
 0001:00001ef0       ?_AtlRaiseException@ATL@@YAXKK@Z 10002ef0 f i StdAfx.obj
 0001:00001f20       _HRESULT_FROM_WIN32        10002f20 f i StdAfx.obj
 0001:00001f60       ___local_stdio_printf_options 10002f60 f i StdAfx.obj
 0001:00001f70       __vswprintf_s_l            10002f70 f i StdAfx.obj
 0001:00001fe0       _swprintf_s                10002fe0 f i StdAfx.obj
 0001:00002170       _DllGetClassObject@12      10003170 f   OposInternals.obj
 0001:000021a0       _DllCanUnloadNow@0         100031a0 f   OposInternals.obj
 0001:000021e0       _DllRegisterServer@0       100031e0 f   OposInternals.obj
 0001:00002200       _DllUnregisterServer@0     10003200 f   OposInternals.obj
 0001:00002390       _DllMain@12                10003390 f   OposInternals.obj
 0001:000023f0       ??$?2PA_W@?$Wrapper@PA_W@?$CSimpleMap@PA_WPA_WVCExpansionVectorEqualHelper@ATL@@@ATL@@SAPAXIPAPA_W@Z 100033f0 f i OposInternals.obj
 0001:00002400       ??$AtlMultiply@K@ATL@@YAJPAKKK@Z 10003400 f i OposInternals.obj
 0001:00002460       ??$AtlMultiplyThrow@I@ATL@@YAIII@Z 10003460 f i OposInternals.obj
 0001:000024e0       ??0?$CAtlModuleT@VCComModule@ATL@@@ATL@@QAE@XZ 100034e0 f i OposInternals.obj
 0001:00002510       ??0?$CAtlSafeAllocBufferManager@VCCRTAllocator@ATL@@@_ATL_SAFE_ALLOCA_IMPL@ATL@@QAE@XZ 10003510 f i OposInternals.obj
 0001:00002530       ??0?$CAutoVectorPtr@_W@ATL@@QAE@XZ 10003530 f i OposInternals.obj
 0001:00002550       ??0?$CComCritSecLock@VCComCriticalSection@ATL@@@ATL@@QAE@AAVCComCriticalSection@1@_N@Z 10003550 f i OposInternals.obj
 0001:000025b0       ??0?$CComPtr@UICatRegister@@@ATL@@QAE@XZ 100035b0 f i OposInternals.obj
 0001:000025e0       ??0?$CComPtr@UITypeLib@@@ATL@@QAE@XZ 100035e0 f i OposInternals.obj
 0001:00002610       ??0?$CComPtrBase@UICatRegister@@@ATL@@IAE@XZ 10003610 f i OposInternals.obj
 0001:00002630       ??0?$CComPtrBase@UITypeLib@@@ATL@@IAE@XZ 10003630 f i OposInternals.obj
 0001:00002650       ??0?$CSimpleMap@PA_WPA_WVCExpansionVectorEqualHelper@ATL@@@ATL@@QAE@XZ 10003650 f i OposInternals.obj
 0001:00002690       ??0?$CTempBuffer@E$0BAA@VCCRTAllocator@ATL@@@ATL@@QAE@XZ 10003690 f i OposInternals.obj
 0001:000026b0       ??0?$CTempBuffer@_W$0BAA@VCCRTAllocator@ATL@@@ATL@@QAE@XZ 100036b0 f i OposInternals.obj
 0001:000026d0       ??0?$CTempBuffer@_W$0EAA@VCCRTAllocator@ATL@@@ATL@@QAE@XZ 100036d0 f i OposInternals.obj
 0001:000026f0       ??0?$Wrapper@PA_W@?$CSimpleMap@PA_WPA_WVCExpansionVectorEqualHelper@ATL@@@ATL@@QAE@ABQA_W@Z 100036f0 f i OposInternals.obj
 0001:00002720       ??0CAtlModule@ATL@@QAE@XZ  10003720 f i OposInternals.obj
 0001:00002840       ??0CComBSTR@ATL@@QAE@XZ    10003840 f i OposInternals.obj
 0001:00002860       ??0CComModule@ATL@@QAE@XZ  10003860 f i OposInternals.obj
 0001:000028d0       ??0CExpansionVector@ATL@@QAE@XZ 100038d0 f i OposInternals.obj
 0001:00002900       ??0CParseBuffer@CRegParser@ATL@@QAE@H@Z 10003900 f i OposInternals.obj
 0001:00002970       ??0CRegKey@ATL@@QAE@PAUHKEY__@@@Z 10003970 f i OposInternals.obj
 0001:000029b0       ??0CRegKey@ATL@@QAE@PAVCAtlTransactionManager@1@@Z 100039b0 f i OposInternals.obj
 0001:000029f0       ??0CRegObject@ATL@@QAE@XZ  100039f0 f i OposInternals.obj
 0001:00002a30       ??0CRegParser@ATL@@QAE@PAVCRegObject@1@@Z 10003a30 f i OposInternals.obj
 0001:00002a60       ??0IRegistrarBase@@QAE@XZ  10003a60 f i OposInternals.obj
 0001:00002a90       ??0IUnknown@@QAE@XZ        10003a90 f i OposInternals.obj
 0001:00002ab0       ??0_ATL_MODULE70@ATL@@QAE@XZ 10003ab0 f i OposInternals.obj
 0001:00002ae0       ??1?$CAtlModuleT@VCComModule@ATL@@@ATL@@UAE@XZ 10003ae0 f i OposInternals.obj
 0001:00002b10       ??1?$CAtlSafeAllocBufferManager@VCCRTAllocator@ATL@@@_ATL_SAFE_ALLOCA_IMPL@ATL@@QAE@XZ 10003b10 f i OposInternals.obj
 0001:00002b60       ??1?$CAutoVectorPtr@_W@ATL@@QAE@XZ 10003b60 f i OposInternals.obj
 0001:00002b90       ??1?$CComCritSecLock@VCComCriticalSection@ATL@@@ATL@@QAE@XZ 10003b90 f i OposInternals.obj
 0001:00002bc0       ??1?$CComPtr@UICatRegister@@@ATL@@QAE@XZ 10003bc0 f i OposInternals.obj
 0001:00002bf0       ??1?$CComPtr@UITypeLib@@@ATL@@QAE@XZ 10003bf0 f i OposInternals.obj
 0001:00002c20       ??1?$CComPtrBase@UICatRegister@@@ATL@@QAE@XZ 10003c20 f i OposInternals.obj
 0001:00002c70       ??1?$CComPtrBase@UITypeLib@@@ATL@@QAE@XZ 10003c70 f i OposInternals.obj
 0001:00002cc0       ??1?$CSimpleMap@PA_WPA_WVCExpansionVectorEqualHelper@ATL@@@ATL@@QAE@XZ 10003cc0 f i OposInternals.obj
 0001:00002cf0       ??1?$CTempBuffer@E$0BAA@VCCRTAllocator@ATL@@@ATL@@QAE@XZ 10003cf0 f i OposInternals.obj
 0001:00002d30       ??1?$CTempBuffer@_W$0BAA@VCCRTAllocator@ATL@@@ATL@@QAE@XZ 10003d30 f i OposInternals.obj
 0001:00002d70       ??1?$CTempBuffer@_W$0EAA@VCCRTAllocator@ATL@@@ATL@@QAE@XZ 10003d70 f i OposInternals.obj
 0001:00002db0       ??1CAtlModule@ATL@@UAE@XZ  10003db0 f i OposInternals.obj
 0001:00002de0       ??1CComModule@ATL@@UAE@XZ  10003de0 f i OposInternals.obj
 0001:00002e10       ??1CExpansionVector@ATL@@QAE@XZ 10003e10 f i OposInternals.obj
 0001:00002e40       ??1CParseBuffer@CRegParser@ATL@@QAE@XZ 10003e40 f i OposInternals.obj
 0001:00002e80       ??1CRegKey@ATL@@QAE@XZ     10003e80 f i OposInternals.obj
 0001:00002eb0       ??1CRegObject@ATL@@UAE@XZ  10003eb0 f i OposInternals.obj
 0001:00002ef0       ??1_ATL_MODULE70@ATL@@QAE@XZ 10003ef0 f i OposInternals.obj
 0001:00002f20       ??7CComBSTR@ATL@@QBE_NXZ   10003f20 f i OposInternals.obj
 0001:00002f60       ??8CComBSTR@ATL@@QBE_NH@Z  10003f60 f i OposInternals.obj
 0001:00002fc0       ??9CComBSTR@ATL@@QBE_NH@Z  10003fc0 f i OposInternals.obj
 0001:00003010       ??B?$CComPtrBase@UITypeLib@@@ATL@@QBEPAUITypeLib@@XZ 10004010 f i OposInternals.obj
 0001:00003030       ??B?$CTempBuffer@E$0BAA@VCCRTAllocator@ATL@@@ATL@@QBEPAEXZ 10004030 f i OposInternals.obj
 0001:00003050       ??B?$CTempBuffer@_W$0BAA@VCCRTAllocator@ATL@@@ATL@@QBEPA_WXZ 10004050 f i OposInternals.obj
 0001:00003070       ??B?$CTempBuffer@_W$0EAA@VCCRTAllocator@ATL@@@ATL@@QBEPA_WXZ 10004070 f i OposInternals.obj
 0001:00003090       ??B?$CTraceCategoryEx@$00$0A@@ATL@@QAEIXZ 10004090 f i OposInternals.obj
 0001:000030b0       ??B?$CTraceCategoryEx@$07$0A@@ATL@@QAEIXZ 100040b0 f i OposInternals.obj
 0001:000030d0       ??B?$CTraceCategoryEx@$0CAAA@$0A@@ATL@@QAEIXZ 100040d0 f i OposInternals.obj
 0001:000030f0       ??BCComBSTR@ATL@@QBEPA_WXZ 100040f0 f i OposInternals.obj
 0001:00003110       ??BCRegKey@ATL@@QBEPAUHKEY__@@XZ 10004110 f i OposInternals.obj
 0001:00003130       ??C?$CComPtrBase@UICatRegister@@@ATL@@QBEPAV?$_NoAddRefReleaseOnCComPtr@UICatRegister@@@1@XZ 10004130 f i OposInternals.obj
 0001:00003180       ??C?$CComPtrBase@UITypeLib@@@ATL@@QBEPAV?$_NoAddRefReleaseOnCComPtr@UITypeLib@@@1@XZ 10004180 f i OposInternals.obj
 0001:000031d0       ??I?$CComPtrBase@UICatRegister@@@ATL@@QAEPAPAUICatRegister@@XZ 100041d0 f i OposInternals.obj
 0001:00003220       ??I?$CComPtrBase@UITypeLib@@@ATL@@QAEPAPAUITypeLib@@XZ 10004220 f i OposInternals.obj
 0001:00003270       ??ICComBSTR@ATL@@QAEPAPA_WXZ 10004270 f i OposInternals.obj
 0001:00003290       ??_ECComModule@ATL@@UAEPAXI@Z 10004290 f i OposInternals.obj
 0001:00003290       ??_GCComModule@ATL@@UAEPAXI@Z 10004290 f i OposInternals.obj
 0001:000032d0       ??_ECRegObject@ATL@@UAEPAXI@Z 100042d0 f i OposInternals.obj
 0001:000032d0       ??_GCRegObject@ATL@@UAEPAXI@Z 100042d0 f i OposInternals.obj
 0001:00003310       ?Add@?$CSimpleMap@PA_WPA_WVCExpansionVectorEqualHelper@ATL@@@ATL@@QAEHABQA_W0@Z 10004310 f i OposInternals.obj
 0001:000033d0       ?Add@CExpansionVector@ATL@@QAEHPB_W0@Z 100043d0 f i OposInternals.obj
 0001:00003660       ?AddChar@CParseBuffer@CRegParser@ATL@@QAEHPB_W@Z 10004660 f i OposInternals.obj
 0001:000036a0       ?AddCommonRGSReplacements@?$CAtlModuleT@VCComModule@ATL@@@ATL@@UAEJPAUIRegistrarBase@@@Z 100046a0 f i OposInternals.obj
 0001:000036f0       ?AddRef@CRegObject@ATL@@UAGKXZ 100046f0 f i OposInternals.obj
 0001:00003740       ?AddReplacement@CRegObject@ATL@@UAGJPB_W0@Z 10004740 f i OposInternals.obj
 0001:00003850       ?AddString@CParseBuffer@CRegParser@ATL@@QAEHPB_W@Z 10004850 f i OposInternals.obj
 0001:00003940       ?AddValue@CRegParser@ATL@@IAEJAAVCRegKey@2@PB_WPA_W@Z 10004940 f i OposInternals.obj
 0001:000040d0       ?Allocate@?$CTempBuffer@E$0BAA@VCCRTAllocator@ATL@@@ATL@@QAEPAEI@Z 100050d0 f i OposInternals.obj
 0001:00004110       ?Allocate@?$CTempBuffer@_W$0BAA@VCCRTAllocator@ATL@@@ATL@@QAEPA_WI@Z 10005110 f i OposInternals.obj
 0001:00004150       ?Allocate@?$CTempBuffer@_W$0EAA@VCCRTAllocator@ATL@@@ATL@@QAEPA_WI@Z 10005150 f i OposInternals.obj
 0001:00004190       ?AllocateBytes@?$CTempBuffer@E$0BAA@VCCRTAllocator@ATL@@@ATL@@QAEPAEI@Z 10005190 f i OposInternals.obj
 0001:00004210       ?AllocateBytes@?$CTempBuffer@_W$0BAA@VCCRTAllocator@ATL@@@ATL@@QAEPA_WI@Z 10005210 f i OposInternals.obj
 0001:00004290       ?AllocateBytes@?$CTempBuffer@_W$0EAA@VCCRTAllocator@ATL@@@ATL@@QAEPA_WI@Z 10005290 f i OposInternals.obj
 0001:00004310       ?AllocateHeap@?$CTempBuffer@E$0BAA@VCCRTAllocator@ATL@@@ATL@@AAEXI@Z 10005310 f i OposInternals.obj
 0001:00004360       ?AllocateHeap@?$CTempBuffer@_W$0BAA@VCCRTAllocator@ATL@@@ATL@@AAEXI@Z 10005360 f i OposInternals.obj
 0001:000043b0       ?AllocateHeap@?$CTempBuffer@_W$0EAA@VCCRTAllocator@ATL@@@ATL@@AAEXI@Z 100053b0 f i OposInternals.obj
 0001:00004400       ?Append@CParseBuffer@CRegParser@ATL@@QAEHPB_WH@Z 10005400 f i OposInternals.obj
 0001:000045a0       ?AtlCallTermFunc@ATL@@YGXPAU_ATL_MODULE70@1@@Z 100055a0 f i OposInternals.obj
 0001:00004640       ?AtlCoTaskMemCAlloc@ATL@@YAPAXKK@Z 10005640 f i OposInternals.obj
 0001:000046d0       ?AtlCoTaskMemRecalloc@ATL@@YAPAXPAXKK@Z 100056d0 f i OposInternals.obj
 0001:00004770       ?AtlComModuleGetClassObject@ATL@@YGJPAU_ATL_COM_MODULE70@1@ABU_GUID@@1PAPAX@Z 10005770 f i OposInternals.obj
 0001:00004a00       ?AtlComModuleRegisterServer@ATL@@YGJPAU_ATL_COM_MODULE70@1@HPBU_GUID@@@Z 10005a00 f i OposInternals.obj
 0001:00004b90       ?AtlComModuleUnregisterServer@ATL@@YGJPAU_ATL_COM_MODULE70@1@HPBU_GUID@@@Z 10005b90 f i OposInternals.obj
 0001:00004cc0       ?AtlCrtErrorCheck@ATL@@YAHH@Z 10005cc0 f i OposInternals.obj
 0001:00004d90       ?AtlGetPerUserRegistration@ATL@@YGJPA_N@Z 10005d90 f i OposInternals.obj
 0001:00004dc0       ?AtlHresultFromLastError@ATL@@YAJXZ 10005dc0 f i OposInternals.obj
 0001:00004e00       ?AtlHresultFromWin32@ATL@@YAJK@Z 10005e00 f i OposInternals.obj
 0001:00004e20       ?AtlLoadTypeLib@ATL@@YGJPAUHINSTANCE__@@PB_WPAPA_WPAPAUITypeLib@@@Z 10005e20 f i OposInternals.obj
 0001:00005280       ?AtlRegisterClassCategoriesHelper@ATL@@YGJABU_GUID@@PBU_ATL_CATMAP_ENTRY@1@H@Z 10006280 f i OposInternals.obj
 0001:00005960       ?AtlRegisterTypeLib@ATL@@YGJPAUHINSTANCE__@@PB_W@Z 10006960 f i OposInternals.obj
 0001:00005ca0       ?AtlThrowImpl@ATL@@YGXJ@Z  10006ca0 f i OposInternals.obj
 0001:00005d50       ?AtlUnRegisterTypeLib@ATL@@YGJPAUHINSTANCE__@@PB_W@Z 10006d50 f i OposInternals.obj
 0001:00005f60       ?Attach@?$CAutoVectorPtr@_W@ATL@@QAEXPA_W@Z 10006f60 f i OposInternals.obj
 0001:00005fc0       ?Attach@CRegKey@ATL@@QAEXPAUHKEY__@@@Z 10006fc0 f i OposInternals.obj
 0001:00006030       ?CanForceRemoveKey@CRegParser@ATL@@IAEHPB_W@Z 10007030 f i OposInternals.obj
 0001:000060a0       ?ChToByte@CRegParser@ATL@@KAE_W@Z 100070a0 f i OposInternals.obj
 0001:000061c0       ?ClearReplacements@CExpansionVector@ATL@@QAEJXZ 100071c0 f i OposInternals.obj
 0001:00006250       ?ClearReplacements@CRegObject@ATL@@UAGJXZ 10007250 f i OposInternals.obj
 0001:000062a0       ?Close@CRegKey@ATL@@QAEJXZ 100072a0 f i OposInternals.obj
 0001:00006310       ?Decrement@CComMultiThreadModel@ATL@@SGKPAJ@Z 10007310 f i OposInternals.obj
 0001:00006330       ?DeleteSubKey@CRegKey@ATL@@QAEJPB_W@Z 10007330 f i OposInternals.obj
 0001:00006440       ?DeleteValue@CRegKey@ATL@@QAEJPB_W@Z 10007440 f i OposInternals.obj
 0001:000064b0       ?Detach@?$CAutoVectorPtr@_W@ATL@@QAEPA_WXZ 100074b0 f i OposInternals.obj
 0001:000064e0       ?Detach@CParseBuffer@CRegParser@ATL@@QAEPA_WXZ 100074e0 f i OposInternals.obj
 0001:00006530       ?Detach@CRegKey@ATL@@QAEPAUHKEY__@@XZ 10007530 f i OposInternals.obj
 0001:00006580       ?EndOfVar@CRegParser@ATL@@IAEHXZ 10007580 f i OposInternals.obj
 0001:000065f0       ?EscapeSingleQuote@CAtlModule@ATL@@SAXPA_WIPB_W@Z 100075f0 f i OposInternals.obj
 0001:000066a0       ?FinalConstruct@CRegObject@ATL@@QAEJXZ 100076a0 f i OposInternals.obj
 0001:000066d0       ?FindKey@?$CSimpleMap@PA_WPA_WVCExpansionVectorEqualHelper@ATL@@@ATL@@QBEHABQA_W@Z 100076d0 f i OposInternals.obj
 0001:00006740       ?Free@?$CAutoVectorPtr@_W@ATL@@QAEXXZ 10007740 f i OposInternals.obj
 0001:00006790       ?FreeHeap@?$CTempBuffer@E$0BAA@VCCRTAllocator@ATL@@@ATL@@AAEXXZ 10007790 f i OposInternals.obj
 0001:000067c0       ?FreeHeap@?$CTempBuffer@_W$0BAA@VCCRTAllocator@ATL@@@ATL@@AAEXXZ 100077c0 f i OposInternals.obj
 0001:000067f0       ?FreeHeap@?$CTempBuffer@_W$0EAA@VCCRTAllocator@ATL@@@ATL@@AAEXXZ 100077f0 f i OposInternals.obj
 0001:00006820       ?GenerateError@CRegParser@ATL@@IAEJI@Z 10007820 f i OposInternals.obj
 0001:00006840       ?GetAppId@?$CAtlModuleT@VCComModule@ATL@@@ATL@@SAPB_WXZ 10007840 f i OposInternals.obj
 0001:00006850       ?GetClassObject@CComModule@ATL@@QAEJABU_GUID@@0PAPAX@Z 10007850 f i OposInternals.obj
 0001:00006a50       ?GetGITPtr@CAtlModule@ATL@@UAEJPAPAUIGlobalInterfaceTable@@@Z 10007a50 f i OposInternals.obj
 0001:00006b50       ?GetKeyAt@?$CSimpleMap@PA_WPA_WVCExpansionVectorEqualHelper@ATL@@@ATL@@QBEAAPA_WH@Z 10007b50 f i OposInternals.obj
 0001:00006bd0       ?GetLockCount@CAtlModule@ATL@@UAEJXZ 10007bd0 f i OposInternals.obj
 0001:00006bf0       ?GetSize@?$CSimpleMap@PA_WPA_WVCExpansionVectorEqualHelper@ATL@@@ATL@@QBEHXZ 10007bf0 f i OposInternals.obj
 0001:00006c10       ?GetValueAt@?$CSimpleMap@PA_WPA_WVCExpansionVectorEqualHelper@ATL@@@ATL@@QBEAAPA_WH@Z 10007c10 f i OposInternals.obj
 0001:00006c90       ?HKeyFromString@CRegParser@ATL@@KAPAUHKEY__@@PA_W@Z 10007c90 f i OposInternals.obj
 0001:00006d00       ?HasSubKeys@CRegParser@ATL@@IAEHPAUHKEY__@@@Z 10007d00 f i OposInternals.obj
 0001:00006e10       ?Increment@CComMultiThreadModel@ATL@@SGKPAJ@Z 10007e10 f i OposInternals.obj
 0001:00006e30       ?Init@CComFakeCriticalSection@ATL@@QAEJXZ 10007e30 f i OposInternals.obj
 0001:00006e50       ?Init@CComModule@ATL@@QAEJPAU_ATL_OBJMAP_ENTRY30@2@PAUHINSTANCE__@@PBU_GUID@@@Z 10007e50 f i OposInternals.obj
 0001:00006f40       ?InitLibId@?$CAtlModuleT@VCComModule@ATL@@@ATL@@SAXXZ 10007f40 f i OposInternals.obj
 0001:00006f50       ?InternalSetAtIndex@?$CSimpleMap@PA_WPA_WVCExpansionVectorEqualHelper@ATL@@@ATL@@QAEXHABQA_W0@Z 10007f50 f i OposInternals.obj
 0001:00006ff0       ?IsEqualKey@CExpansionVectorEqualHelper@ATL@@SA_NQA_W0@Z 10007ff0 f i OposInternals.obj
 0001:00007020       ?IsSpace@CRegParser@ATL@@IAEH_W@Z 10008020 f i OposInternals.obj
 0001:00007090       ?Length@CComBSTR@ATL@@QBEIXZ 10008090 f i OposInternals.obj
 0001:000070d0       ?Lock@?$CComCritSecLock@VCComCriticalSection@ATL@@@ATL@@QAEJXZ 100080d0 f i OposInternals.obj
 0001:00007180       ?Lock@CAtlModule@ATL@@UAEJXZ 10008180 f i OposInternals.obj
 0001:000071b0       ?Lock@CComCriticalSection@ATL@@QAEJXZ 100081b0 f i OposInternals.obj
 0001:000071f0       ?Lock@CComFakeCriticalSection@ATL@@QAEJXZ 100081f0 f i OposInternals.obj
 0001:00007210       ?Lookup@?$CSimpleMap@PA_WPA_WVCExpansionVectorEqualHelper@ATL@@@ATL@@QBEPA_WABQA_W@Z 10008210 f i OposInternals.obj
 0001:00007260       ?NextToken@CRegParser@ATL@@IAEJPA_W@Z 10008260 f i OposInternals.obj
 0001:00007500       ?OLE2CT_EX@@YAPB_WPB_WI@Z  10008500 f i OposInternals.obj
 0001:00007510       ?OLE2T_EX@@YAPA_WPA_WI@Z   10008510 f i OposInternals.obj
 0001:00007520       ?Open@CRegKey@ATL@@QAEJPAUHKEY__@@PB_WK@Z 10008520 f i OposInternals.obj
 0001:00007670       ?PreProcessBuffer@CRegParser@ATL@@QAEJPA_WPAPA_W@Z 10008670 f i OposInternals.obj
 0001:00007bb0       ?QueryInterface@CRegObject@ATL@@UAGJABU_GUID@@PAPAX@Z 10008bb0 f i OposInternals.obj
 0001:00007c00       ?RecurseDeleteKey@CRegKey@ATL@@QAEJPB_W@Z 10008c00 f i OposInternals.obj
 0001:00007de0       ?RegCreateKeyExW@CAtlTransactionManager@ATL@@QAEJPAUHKEY__@@PB_WKPA_WKKQAU_SECURITY_ATTRIBUTES@@PAPAU3@PAK@Z 10008de0 f i OposInternals.obj
 0001:00007f10       ?RegDeleteKeyW@CAtlTransactionManager@ATL@@QAEJPAUHKEY__@@PB_W@Z 10008f10 f i OposInternals.obj
 0001:00008010       ?RegOpenKeyExW@CAtlTransactionManager@ATL@@QAEJPAUHKEY__@@PB_WKKPAPAU3@@Z 10009010 f i OposInternals.obj
 0001:00008120       ?RegisterBuffer@CRegParser@ATL@@QAEJPA_WH@Z 10009120 f i OposInternals.obj
 0001:00008450       ?RegisterFromResource@CRegObject@ATL@@IAEJPB_W00H@Z 10009450 f i OposInternals.obj
 0001:000087e0       ?RegisterServer@?$CAtlModuleT@VCComModule@ATL@@@ATL@@QAEJHPBU_GUID@@@Z 100097e0 f i OposInternals.obj
 0001:00008860       ?RegisterServer@CAtlComModule@ATL@@QAEJHPBU_GUID@@@Z 10009860 f i OposInternals.obj
 0001:00008890       ?RegisterServer@CComModule@ATL@@QAEJHPBU_GUID@@@Z 10009890 f i OposInternals.obj
 0001:00008970       ?RegisterSubkeys@CRegParser@ATL@@IAEJPA_WPAUHKEY__@@HH@Z 10009970 f i OposInternals.obj
 0001:00009490       ?Release@CRegObject@ATL@@UAGKXZ 1000a490 f i OposInternals.obj
 0001:000094d0       ?RemoveAll@?$CSimpleMap@PA_WPA_WVCExpansionVectorEqualHelper@ATL@@@ATL@@QAEXXZ 1000a4d0 f i OposInternals.obj
 0001:00009560       ?ResourceRegister@CRegObject@ATL@@QAGJPB_WI0@Z 1000a560 f i OposInternals.obj
 0001:00009640       ?ResourceRegisterSz@CRegObject@ATL@@QAGJPB_W00@Z 1000a640 f i OposInternals.obj
 0001:00009740       ?ResourceUnregister@CRegObject@ATL@@QAGJPB_WI0@Z 1000a740 f i OposInternals.obj
 0001:00009820       ?ResourceUnregisterSz@CRegObject@ATL@@QAGJPB_W00@Z 1000a820 f i OposInternals.obj
 0001:00009920       ?SetDWORDValue@CRegKey@ATL@@QAEJPB_WK@Z 1000a920 f i OposInternals.obj
 0001:000099a0       ?SetMultiStringValue@CRegKey@ATL@@QAEJPB_W0@Z 1000a9a0 f i OposInternals.obj
 0001:00009ac0       ?SetStringValue@CRegKey@ATL@@QAEJPB_W0K@Z 1000aac0 f i OposInternals.obj
 0001:00009bf0       ?SkipAssignment@CRegParser@ATL@@IAEJPA_W@Z 1000abf0 f i OposInternals.obj
 0001:00009cd0       ?SkipWhiteSpace@CRegParser@ATL@@IAEXXZ 1000acd0 f i OposInternals.obj
 0001:00009d20       ?StrChrW@CRegParser@ATL@@KAPA_WPA_W_W@Z 1000ad20 f i OposInternals.obj
 0001:00009d90       ?StrFromMap@CRegObject@ATL@@QAEPB_WPA_W@Z 1000ad90 f i OposInternals.obj
 0001:00009e20       ?T2COLE_EX@@YAPB_WPB_WI@Z  1000ae20 f i OposInternals.obj
 0001:00009e30       ?T2OLE_EX@@YAPA_WPA_WI@Z   1000ae30 f i OposInternals.obj
 0001:00009e40       ?Term@CAtlModule@ATL@@QAEXXZ 1000ae40 f i OposInternals.obj
 0001:00009ef0       ?Term@CComModule@ATL@@QAEXXZ 1000aef0 f i OposInternals.obj
 0001:00009fe0       ?Unlock@?$CComCritSecLock@VCComCriticalSection@ATL@@@ATL@@QAEXXZ 1000afe0 f i OposInternals.obj
 0001:0000a050       ?Unlock@CAtlModule@ATL@@UAEJXZ 1000b050 f i OposInternals.obj
 0001:0000a080       ?Unlock@CComCriticalSection@ATL@@QAEJXZ 1000b080 f i OposInternals.obj
 0001:0000a0c0       ?Unlock@CComFakeCriticalSection@ATL@@QAEJXZ 1000b0c0 f i OposInternals.obj
 0001:0000a0e0       ?UnregisterServer@?$CAtlModuleT@VCComModule@ATL@@@ATL@@QAEJHPBU_GUID@@@Z 1000b0e0 f i OposInternals.obj
 0001:0000a150       ?UnregisterServer@CAtlComModule@ATL@@QAEJHPBU_GUID@@@Z 1000b150 f i OposInternals.obj
 0001:0000a180       ?UnregisterServer@CComModule@ATL@@QAEJHPBU_GUID@@@Z 1000b180 f i OposInternals.obj
 0001:0000a260       ?UpdateRegistryFromResource@CAtlModule@ATL@@QAGJIHPAU_ATL_REGMAP_ENTRY@2@@Z 1000b260 f i OposInternals.obj
 0001:0000a730       ?UpdateRegistryFromResource@CAtlModule@ATL@@QAGJPB_WHPAU_ATL_REGMAP_ENTRY@2@@Z 1000b730 f i OposInternals.obj
 0001:0000ac20       ?UpdateRegistryFromResource@CComModule@ATL@@UAGJIHPAU_ATL_REGMAP_ENTRY@2@@Z 1000bc20 f i OposInternals.obj
 0001:0000ac50       ?UpdateRegistryFromResource@CComModule@ATL@@UAGJPB_WHPAU_ATL_REGMAP_ENTRY@2@@Z 1000bc50 f i OposInternals.obj
 0001:0000ac80       ?UpdateRegistryFromResourceD@CComModule@ATL@@UAGJIHPAU_ATL_REGMAP_ENTRY@2@@Z 1000bc80 f i OposInternals.obj
 0001:0000ac90       ?UpdateRegistryFromResourceD@CComModule@ATL@@UAGJPB_WHPAU_ATL_REGMAP_ENTRY@2@@Z 1000bc90 f i OposInternals.obj
 0001:0000aca0       ?VTFromRegType@CRegParser@ATL@@KAHPB_WAAG@Z 1000bca0 f i OposInternals.obj
 0001:0000ad80       ?_AtlGetConversionACP@ATL@@YGIXZ 1000bd80 f i OposInternals.obj
 0001:0000ad90       ?atlCreate@CRegKey@ATL@@QAEJPAUHKEY__@@PB_WPA_WKKPAU_SECURITY_ATTRIBUTES@@PAK@Z 1000bd90 f i OposInternals.obj
 0001:0000aef0       ?memcpy_s@Checked@ATL@@YAXPAXIPBXI@Z 1000bef0 f i OposInternals.obj
 0001:0000af20       ?ocscpy_s@@YA_NPA_WIPB_W@Z 1000bf20 f i OposInternals.obj
 0001:0000af80       ?ocslen@@YAHPB_W@Z         1000bf80 f i OposInternals.obj
 0001:0000afb0       ?tcsncpy_s@Checked@ATL@@YAHPA_WIPB_WI@Z 1000bfb0 f i OposInternals.obj
 0001:0000afe0       ?wcscat_s@Checked@ATL@@YAXPA_WIPB_W@Z 1000bfe0 f i OposInternals.obj
 0001:0000b010       ?wcscpy_s@Checked@ATL@@YAXPA_WIPB_W@Z 1000c010 f i OposInternals.obj
 0001:0000b040       ?wcsncpy_s@Checked@ATL@@YAHPA_WIPB_WI@Z 1000c040 f i OposInternals.obj
 0001:0000b070       ?wcsstr@@YAPA_WPA_WPB_W@Z  1000c070 f i OposInternals.obj
 0001:0000b090       _InlineIsEqualGUID         1000c090 f i OposInternals.obj
 0001:0000b130       _IsEqualGUID               1000c130 f i OposInternals.obj
 0001:0000b172       _DecodePointer@4           1000c172 f   kernel32:KERNEL32.dll
 0001:0000b178       _RaiseException@16         1000c178 f   kernel32:KERNEL32.dll
 0001:0000b17e       _GetLastError@0            1000c17e f   kernel32:KERNEL32.dll
 0001:0000b184       _SetLastError@4            1000c184 f   kernel32:KERNEL32.dll
 0001:0000b18a       _InitializeCriticalSectionEx@12 1000c18a f   kernel32:KERNEL32.dll
 0001:0000b190       _DeleteCriticalSection@4   1000c190 f   kernel32:KERNEL32.dll
 0001:0000b196       _EncodePointer@4           1000c196 f   kernel32:KERNEL32.dll
 0001:0000b19c       _EnterCriticalSection@4    1000c19c f   kernel32:KERNEL32.dll
 0001:0000b1a2       _LeaveCriticalSection@4    1000c1a2 f   kernel32:KERNEL32.dll
 0001:0000b1a8       _DisableThreadLibraryCalls@4 1000c1a8 f   kernel32:KERNEL32.dll
 0001:0000b1ae       _FreeLibrary@4             1000c1ae f   kernel32:KERNEL32.dll
 0001:0000b1b4       _GetModuleFileNameW@12     1000c1b4 f   kernel32:KERNEL32.dll
 0001:0000b1ba       _GetModuleHandleW@4        1000c1ba f   kernel32:KERNEL32.dll
 0001:0000b1c0       _GetProcAddress@8          1000c1c0 f   kernel32:KERNEL32.dll
 0001:0000b1c6       _LoadLibraryExW@12         1000c1c6 f   kernel32:KERNEL32.dll
 0001:0000b1cc       _LoadResource@8            1000c1cc f   kernel32:KERNEL32.dll
 0001:0000b1d2       _SizeofResource@8          1000c1d2 f   kernel32:KERNEL32.dll
 0001:0000b1d8       _FindResourceW@12          1000c1d8 f   kernel32:KERNEL32.dll
 0001:0000b1de       _lstrcmpiW@8               1000c1de f   kernel32:KERNEL32.dll
 0001:0000b1e4       _MultiByteToWideChar@24    1000c1e4 f   kernel32:KERNEL32.dll
 0001:0000b1ea       _UnregisterClassW@8        1000c1ea f   user32:USER32.dll
 0001:0000b1f0       _CharNextW@4               1000c1f0 f   user32:USER32.dll
 0001:0000b1f6       _RegCloseKey@4             1000c1f6 f   advapi32:ADVAPI32.dll
 0001:0000b1fc       _RegCreateKeyExW@36        1000c1fc f   advapi32:ADVAPI32.dll
 0001:0000b202       _RegDeleteKeyW@8           1000c202 f   advapi32:ADVAPI32.dll
 0001:0000b208       _RegDeleteValueW@8         1000c208 f   advapi32:ADVAPI32.dll
 0001:0000b20e       _RegEnumKeyExW@32          1000c20e f   advapi32:ADVAPI32.dll
 0001:0000b214       _RegOpenKeyExW@20          1000c214 f   advapi32:ADVAPI32.dll
 0001:0000b21a       _RegQueryInfoKeyW@48       1000c21a f   advapi32:ADVAPI32.dll
 0001:0000b220       _RegSetValueExW@24         1000c220 f   advapi32:ADVAPI32.dll
 0001:0000b226       _CoCreateInstance@20       1000c226 f   ole32:ole32.dll
 0001:0000b22c       _StringFromGUID2@12        1000c22c f   ole32:ole32.dll
 0001:0000b232       _CoTaskMemAlloc@4          1000c232 f   ole32:ole32.dll
 0001:0000b238       _CoTaskMemRealloc@8        1000c238 f   ole32:ole32.dll
 0001:0000b23e       _CoTaskMemFree@4           1000c23e f   ole32:ole32.dll
 0001:0000b244       _SysFreeString@4           1000c244 f   oleaut32:OLEAUT32.dll
 0001:0000b24a       _SysAllocString@4          1000c24a f   oleaut32:OLEAUT32.dll
 0001:0000b250       _SysStringLen@4            1000c250 f   oleaut32:OLEAUT32.dll
 0001:0000b256       _VarUI4FromStr@16          1000c256 f   oleaut32:OLEAUT32.dll
 0001:0000b25c       _LoadTypeLib@8             1000c25c f   oleaut32:OLEAUT32.dll
 0001:0000b262       _RegisterTypeLib@12        1000c262 f   oleaut32:OLEAUT32.dll
 0001:0000b268       _UnRegisterTypeLib@20      1000c268 f   oleaut32:OLEAUT32.dll
 0001:0000b26e       ??$?2PAUHINSTANCE__@@@Wrapper@?$CSimpleArray@PAUHINSTANCE__@@V?$CSimpleArrayEqualHelper@PAUHINSTANCE__@@@ATL@@@ATL@@SAPAXIPAPAUHINSTANCE__@@@Z 1000c26e f i atls:atlbase.obj
 0001:0000b276       ??0?$CSimpleArray@PAUHINSTANCE__@@V?$CSimpleArrayEqualHelper@PAUHINSTANCE__@@@ATL@@@ATL@@QAE@XZ 1000c276 f i atls:atlbase.obj
 0001:0000b283       ??0CAtlBaseModule@ATL@@QAE@XZ 1000c283 f   atls:atlbase.obj
 0001:0000b2d6       ??0Wrapper@?$CSimpleArray@PAUHINSTANCE__@@V?$CSimpleArrayEqualHelper@PAUHINSTANCE__@@@ATL@@@ATL@@QAE@ABQAUHINSTANCE__@@@Z 1000c2d6 f i atls:atlbase.obj
 0001:0000b2e6       ??0_ATL_BASE_MODULE70@ATL@@QAE@XZ 1000c2e6 f i atls:atlbase.obj
 0001:0000b309       ??1?$CSimpleArray@PAUHINSTANCE__@@V?$CSimpleArrayEqualHelper@PAUHINSTANCE__@@@ATL@@@ATL@@QAE@XZ 1000c309 f i atls:atlbase.obj
 0001:0000b30e       ??1CAtlBaseModule@ATL@@QAE@XZ 1000c30e f   atls:atlbase.obj
 0001:0000b324       ??1_ATL_BASE_MODULE70@ATL@@QAE@XZ 1000c324 f i atls:atlbase.obj
 0001:0000b32c       ??A?$CSimpleArray@PAUHINSTANCE__@@V?$CSimpleArrayEqualHelper@PAUHINSTANCE__@@@ATL@@@ATL@@QAEAAPAUHINSTANCE__@@H@Z 1000c32c f i atls:atlbase.obj
 0001:0000b351       ?Add@?$CSimpleArray@PAUHINSTANCE__@@V?$CSimpleArrayEqualHelper@PAUHINSTANCE__@@@ATL@@@ATL@@QAEHABQAUHINSTANCE__@@@Z 1000c351 f i atls:atlbase.obj
 0001:0000b3d3       ?AddResourceInstance@CAtlBaseModule@ATL@@QAE_NPAUHINSTANCE__@@@Z 1000c3d3 f   atls:atlbase.obj
 0001:0000b406       ?GetHInstanceAt@CAtlBaseModule@ATL@@QAEPAUHINSTANCE__@@H@Z 1000c406 f   atls:atlbase.obj
 0001:0000b44b       ?GetSize@?$CSimpleArray@PAUHINSTANCE__@@V?$CSimpleArrayEqualHelper@PAUHINSTANCE__@@@ATL@@@ATL@@QBEHXZ 1000c44b f i atls:atlbase.obj
 0001:0000b44f       ?InternalSetAtIndex@?$CSimpleArray@PAUHINSTANCE__@@V?$CSimpleArrayEqualHelper@PAUHINSTANCE__@@@ATL@@@ATL@@QAEXHABQAUHINSTANCE__@@@Z 1000c44f f i atls:atlbase.obj
 0001:0000b469       ?RemoveAll@?$CSimpleArray@PAUHINSTANCE__@@V?$CSimpleArrayEqualHelper@PAUHINSTANCE__@@@ATL@@@ATL@@QAEXXZ 1000c469 f i atls:atlbase.obj
 0001:0000b486       ?RemoveAt@?$CSimpleArray@PAUHINSTANCE__@@V?$CSimpleArrayEqualHelper@PAUHINSTANCE__@@@ATL@@@ATL@@QAEHH@Z 1000c486 f i atls:atlbase.obj
 0001:0000b4d4       ?RemoveResourceInstance@CAtlBaseModule@ATL@@QAE_NPAUHINSTANCE__@@@Z 1000c4d4 f   atls:atlbase.obj
 0001:0000b531       ?memmove_s@Checked@ATL@@YAXPAXIPBXI@Z 1000c531 f i atls:atlbase.obj
 0001:0000b5d0       ??3@YAXPAXI@Z              1000c5d0 f   LIBCMTD:delete_scalar_size.obj
 0001:0000b5f0       ??_V@YAXPAXI@Z             1000c5f0 f   LIBCMTD:delete_array_size.obj
 0001:0000b610       ?configure_argv@__scrt_narrow_argv_policy@@SAHXZ 1000c610 f i LIBCMTD:utility.obj
 0001:0000b6c0       ?initialize_environment@__scrt_narrow_environment_policy@@SAHXZ 1000c6c0 f i LIBCMTD:utility.obj
 0001:0000b740       _NtCurrentTeb              1000c740 f i LIBCMTD:utility.obj
 0001:0000b750       ___scrt_acquire_startup_lock 1000c750 f   LIBCMTD:utility.obj
 0001:0000b7a0       ___scrt_dllmain_after_initialize_c 1000c7a0 f   LIBCMTD:utility.obj
 0001:0000b7d0       ___scrt_dllmain_before_initialize_c 1000c7d0 f   LIBCMTD:utility.obj
 0001:0000b7f0       ___scrt_dllmain_crt_thread_attach 1000c7f0 f   LIBCMTD:utility.obj
 0001:0000b820       ___scrt_dllmain_crt_thread_detach 1000c820 f   LIBCMTD:utility.obj
 0001:0000b840       ___scrt_dllmain_exception_filter 1000c840 f   LIBCMTD:utility.obj
 0001:0000b890       ___scrt_dllmain_uninitialize_c 1000c890 f   LIBCMTD:utility.obj
 0001:0000b8c0       ___scrt_dllmain_uninitialize_critical 1000c8c0 f   LIBCMTD:utility.obj
 0001:0000b8e0       ___scrt_initialize_crt     1000c8e0 f   LIBCMTD:utility.obj
 0001:0000b930       ___scrt_initialize_onexit_tables 1000c930 f   LIBCMTD:utility.obj
 0001:0000ba10       ___scrt_is_nonwritable_in_current_image 1000ca10 f   LIBCMTD:utility.obj
 0001:0000bb40       ___scrt_release_startup_lock 1000cb40 f   LIBCMTD:utility.obj
 0001:0000bb70       ___scrt_uninitialize_crt   1000cb70 f   LIBCMTD:utility.obj
 0001:0000bbb0       __onexit                   1000cbb0 f   LIBCMTD:utility.obj
 0001:0000bc20       _at_quick_exit             1000cc20 f   LIBCMTD:utility.obj
 0001:0000bc60       _atexit                    1000cc60 f   LIBCMTD:utility.obj
 0001:0000bc90       @_RTC_AllocaHelper@12      1000cc90 f   LIBCMTD:stack.obj
 0001:0000bcd0       @_RTC_CheckStackVars2@12   1000ccd0 f   LIBCMTD:stack.obj
 0001:0000bdb0       @_RTC_CheckStackVars@8     1000cdb0 f   LIBCMTD:stack.obj
 0001:0000be20       __RTC_CheckEsp             1000ce20 f   LIBCMTD:stack.obj
 0001:0000be60       @__security_check_cookie@4 1000ce60 f   LIBCMTD:secchk.obj
 0001:0000be80       __CRT_RTC_INIT             1000ce80 f   LIBCMTD:init.obj
 0001:0000be90       __CRT_RTC_INITW            1000ce90 f   LIBCMTD:init.obj
 0001:0000bea0       __RTC_InitBase             1000cea0 f   LIBCMTD:init.obj
 0001:0000bed0       __RTC_Shutdown             1000ced0 f   LIBCMTD:init.obj
 0001:0000bef0       ??3@YAXPAX@Z               1000cef0 f   LIBCMTD:delete_scalar.obj
 0001:0000bf10       ??_V@YAXPAX@Z              1000cf10 f   LIBCMTD:delete_array.obj
 0001:0000bf30       ___raise_securityfailure   1000cf30 f   LIBCMTD:gs_report.obj
 0001:0000bf60       ___report_gsfailure        1000cf60 f   LIBCMTD:gs_report.obj
 0001:0000c070       ___report_rangecheckfailure 1000d070 f   LIBCMTD:gs_report.obj
 0001:0000c080       ___report_securityfailure  1000d080 f   LIBCMTD:gs_report.obj
 0001:0000c160       ___report_securityfailureEx 1000d160 f   LIBCMTD:gs_report.obj
 0001:0000c290       ??_U@YAPAXIABUnothrow_t@std@@@Z 1000d290 f   LIBCMTD:new_array_nothrow.obj
 0001:0000c2b0       __chkstk                   1000d2b0 f   LIBCMTD:chkstk.obj
 0001:0000c2b0       __alloca_probe             1000d2b0 f   LIBCMTD:chkstk.obj
 0001:0000c790       __CRT_INIT@12              1000d790 f   LIBCMTD:dll_dllmain.obj
 0001:0000c7b0       __DllMainCRTStartup@12     1000d7b0 f   LIBCMTD:dll_dllmain.obj
 0001:0000c7e0       @_guard_check_icall_nop@4  1000d7e0 f i LIBCMTD:guard_support.obj
 0001:0000c7f0       _ReadNoFence               1000d7f0 f i LIBCMTD:guard_support.obj
 0001:0000c810       _ReadPointerNoFence        1000d810 f i LIBCMTD:guard_support.obj
 0001:0000c830       __guard_icall_checks_enforced 1000d830 f i LIBCMTD:guard_support.obj
 0001:0000c860       ___isa_available_init      1000d860 f   LIBCMTD:cpu_disp.obj
 0001:0000cb40       __get_startup_argv_mode    1000db40 f   LIBCMTD:argv_mode.obj
 0001:0000cb50       ___scrt_is_ucrt_dll_in_use 1000db50 f   LIBCMTD:ucrt_detection.obj
 0001:0000cb80       ___scrt_fastfail           1000db80 f   LIBCMTD:utility_desktop.obj
 0001:0000ccc0       ___scrt_get_show_window_mode 1000dcc0 f   LIBCMTD:utility_desktop.obj
 0001:0000cd00       ___scrt_initialize_mta     1000dd00 f   LIBCMTD:utility_desktop.obj
 0001:0000cd10       ___scrt_initialize_winrt   1000dd10 f   LIBCMTD:utility_desktop.obj
 0001:0000cd20       ___scrt_is_managed_app     1000dd20 f   LIBCMTD:utility_desktop.obj
 0001:0000cdb0       ___scrt_set_unhandled_exception_filter 1000ddb0 f   LIBCMTD:utility_desktop.obj
 0001:0000cdc0       ___scrt_exe_initialize_mta 1000ddc0 f   LIBCMTD:utility_desktop.obj
 0001:0000cdc0       ___scrt_stub_for_initialize_mta 1000ddc0 f   LIBCMTD:utility_desktop.obj
 0001:0000cdd0       ___scrt_unhandled_exception_filter@4 1000ddd0 f   LIBCMTD:utility_desktop.obj
 0001:0000ce30       __crt_debugger_hook        1000de30 f   LIBCMTD:utility_desktop.obj
 0001:0000ced0       ?_RTC_AllocaFailure@@YAXPAXPAU_RTC_ALLOCA_NODE@@H@Z 1000ded0 f   LIBCMTD:error.obj
 0001:0000cfc0       ?_RTC_Failure@@YAXPAXH@Z   1000dfc0 f   LIBCMTD:error.obj
 0001:0000d010       ?_RTC_StackFailure@@YAXPAXPBD@Z 1000e010 f   LIBCMTD:error.obj
 0001:0000d3d0       __RTC_UninitUse            1000e3d0 f   LIBCMTD:error.obj
 0001:0000d480       __vsprintf_s_l             1000e480 f i LIBCMTD:error.obj
 0001:0000d4b0       _sprintf_s                 1000e4b0 f i LIBCMTD:error.obj
 0001:0000d4d0       ?_RTC_GetErrorFunc@@YAP6AHHPBDH00ZZPBX@Z 1000e4d0 f   LIBCMTD:userapi.obj
 0001:0000d4e0       ?_RTC_GetErrorFuncW@@YAP6AHHPB_WH00ZZPBX@Z 1000e4e0 f   LIBCMTD:userapi.obj
 0001:0000d4f0       __RTC_GetErrDesc           1000e4f0 f   LIBCMTD:userapi.obj
 0001:0000d510       __RTC_NumErrors            1000e510 f   LIBCMTD:userapi.obj
 0001:0000d520       __RTC_SetErrorFunc         1000e520 f   LIBCMTD:userapi.obj
 0001:0000d540       __RTC_SetErrorFuncW        1000e540 f   LIBCMTD:userapi.obj
 0001:0000d560       __RTC_SetErrorType         1000e560 f   LIBCMTD:userapi.obj
 0001:0000d590       ??2@YAPAXIABUnothrow_t@std@@@Z 1000e590 f   LIBCMTD:new_scalar_nothrow.obj
 0001:0000d680       ___security_init_cookie    1000e680 f   LIBCMTD:gs_support.obj
 0001:0000d700       ?__scrt_initialize_type_info@@YAXXZ 1000e700 f   LIBCMTD:tncleanup.obj
 0001:0000d710       ?__scrt_uninitialize_type_info@@YAXXZ 1000e710 f   LIBCMTD:tncleanup.obj
 0001:0000d730       ___local_stdio_scanf_options 1000e730 f i LIBCMTD:default_local_stdio_options.obj
 0001:0000d740       ___scrt_initialize_default_local_stdio_options 1000e740 f   LIBCMTD:default_local_stdio_options.obj
 0001:0000d780       ___scrt_get_dyn_tls_init_callback 1000e780 f   LIBCMTD:dyn_tls_init.obj
 0001:0000d790       __RTC_Initialize           1000e790 f   LIBCMTD:initsect.obj
 0001:0000d7c0       __RTC_Terminate            1000e7c0 f   LIBCMTD:initsect.obj
 0001:0000dc70       ?_RTC_GetSrcLine@@YAHPAEPA_WKPAH1K@Z 1000ec70 f   LIBCMTD:pdblkup.obj
 0001:0000e000       __except_handler4_noexcept 1000f000 f   LIBCMTD:chandler4_noexcept.obj
 0001:0000e050       ??2@YAPAXI@Z               1000f050 f   LIBCMTD:new_scalar.obj
 0001:0000e0a0       ??0bad_alloc@std@@AAE@QBD@Z 1000f0a0 f i LIBCMTD:throw_bad_alloc.obj
 0001:0000e0d0       ??0bad_alloc@std@@QAE@ABV01@@Z 1000f0d0 f i LIBCMTD:throw_bad_alloc.obj
 0001:0000e100       ??0bad_alloc@std@@QAE@XZ   1000f100 f i LIBCMTD:throw_bad_alloc.obj
 0001:0000e130       ??0bad_array_new_length@std@@QAE@ABV01@@Z 1000f130 f i LIBCMTD:throw_bad_alloc.obj
 0001:0000e160       ??0bad_array_new_length@std@@QAE@XZ 1000f160 f i LIBCMTD:throw_bad_alloc.obj
 0001:0000e190       ??0exception@std@@QAE@ABV01@@Z 1000f190 f i LIBCMTD:throw_bad_alloc.obj
 0001:0000e1d0       ??0exception@std@@QAE@QBDH@Z 1000f1d0 f i LIBCMTD:throw_bad_alloc.obj
 0001:0000e200       ??1bad_alloc@std@@UAE@XZ   1000f200 f i LIBCMTD:throw_bad_alloc.obj
 0001:0000e220       ??1bad_array_new_length@std@@UAE@XZ 1000f220 f i LIBCMTD:throw_bad_alloc.obj
 0001:0000e240       ??1exception@std@@UAE@XZ   1000f240 f i LIBCMTD:throw_bad_alloc.obj
 0001:0000e270       ??_Ebad_alloc@std@@UAEPAXI@Z 1000f270 f i LIBCMTD:throw_bad_alloc.obj
 0001:0000e270       ??_Gbad_alloc@std@@UAEPAXI@Z 1000f270 f i LIBCMTD:throw_bad_alloc.obj
 0001:0000e2a0       ??_Ebad_array_new_length@std@@UAEPAXI@Z 1000f2a0 f i LIBCMTD:throw_bad_alloc.obj
 0001:0000e2a0       ??_Gbad_array_new_length@std@@UAEPAXI@Z 1000f2a0 f i LIBCMTD:throw_bad_alloc.obj
 0001:0000e2d0       ??_Eexception@std@@UAEPAXI@Z 1000f2d0 f i LIBCMTD:throw_bad_alloc.obj
 0001:0000e2d0       ??_Gexception@std@@UAEPAXI@Z 1000f2d0 f i LIBCMTD:throw_bad_alloc.obj
 0001:0000e300       ?__scrt_throw_std_bad_alloc@@YAXXZ 1000f300 f   LIBCMTD:throw_bad_alloc.obj
 0001:0000e320       ?__scrt_throw_std_bad_array_new_length@@YAXXZ 1000f320 f   LIBCMTD:throw_bad_alloc.obj
 0001:0000e340       ?what@exception@std@@UBEPBDXZ 1000f340 f i LIBCMTD:throw_bad_alloc.obj
 0001:0000e370       ??1type_info@@UAE@XZ       1000f370 f   LIBCMTD:std_type_info_static.obj
 0001:0000e390       ??_Gtype_info@@UAEPAXI@Z   1000f390 f i LIBCMTD:std_type_info_static.obj
 0001:0000e390       ??_Etype_info@@UAEPAXI@Z   1000f390 f i LIBCMTD:std_type_info_static.obj
 0001:0000e3c0       _memset                    1000f3c0 f   libvcruntimed:memset.obj
 0001:0000e6d0       _memcmp                    1000f6d0 f   libvcruntimed:memcmp.obj
 0001:0000efa0       _memcpy                    1000ffa0 f   libvcruntimed:memcpy.obj
 0001:0000f520       _wcsstr                    10010520 f   libvcruntimed:wcsstr.obj
 0001:0000f9f0       _memmove                   100109f0 f   libvcruntimed:memmove.obj
 0001:0000ff70       ___vcrt_initialize         10010f70 f   libvcruntimed:initialization.obj
 0001:0000ffb0       ___vcrt_thread_attach      10010fb0 f   libvcruntimed:initialization.obj
 0001:0000ffd0       ___vcrt_thread_detach      10010fd0 f   libvcruntimed:initialization.obj
 0001:0000fff0       ___vcrt_uninitialize       10010ff0 f   libvcruntimed:initialization.obj
 0001:00010010       ___vcrt_uninitialize_critical 10011010 f   libvcruntimed:initialization.obj
 0001:00010090       __except_handler4          10011090 f   libvcruntimed:chandler4.obj
 0001:00010280       ??$?0AAViterator@TryBlockMap@__FrameHandler3@@AAV012@$0A@@?$pair@Viterator@TryBlockMap@__FrameHandler3@@V123@@std@@QAE@AAViterator@TryBlockMap@__FrameHandler3@@0@Z 10011280 f i libvcruntimed:trnsctrl.obj
 0001:000102d0       ??$forward@AAViterator@TryBlockMap@__FrameHandler3@@@std@@YAAAViterator@TryBlockMap@__FrameHandler3@@AAV123@@Z 100112d0 f i libvcruntimed:trnsctrl.obj
 0001:000102e0       ??0iterator@TryBlockMap@__FrameHandler3@@QAE@AAV12@I@Z 100112e0 f i libvcruntimed:trnsctrl.obj
 0001:00010310       ?GetRangeOfTrysToCheck@__FrameHandler3@@SA?AU?$pair@Viterator@TryBlockMap@__FrameHandler3@@V123@@std@@AAVTryBlockMap@1@HPAXPBU_s_FuncInfo@@H@Z 10011310 f   libvcruntimed:trnsctrl.obj
 0001:000103f0       ?_CallCatchBlock2@@YAPAXPAUEHRegistrationNode@@PBU_s_FuncInfo@@PAXHK@Z 100113f0 f   libvcruntimed:trnsctrl.obj
 0001:00010460       ?_CallSETranslator@@YAHPAUEHExceptionRecord@@PAUEHRegistrationNode@@PAX2PBU_s_FuncInfo@@H1@Z 10011460 f   libvcruntimed:trnsctrl.obj
 0001:00010560       ?_JumpToContinuation@@YGXPAXPAUEHRegistrationNode@@@Z 10011560 f   libvcruntimed:trnsctrl.obj
 0001:000105a0       ?_UnwindNestedFrames@@YGXPAUEHRegistrationNode@@PAUEHExceptionRecord@@@Z 100115a0 f   libvcruntimed:trnsctrl.obj
 0001:00010600       __CatchGuardHandler        10011600 f   libvcruntimed:trnsctrl.obj
 0001:00010650       __CreateFrameInfo          10011650 f   libvcruntimed:trnsctrl.obj
 0001:00010680       __FindAndUnlinkFrame       10011680 f   libvcruntimed:trnsctrl.obj
 0001:00010700       __TranslatorGuardHandler   10011700 f   libvcruntimed:trnsctrl.obj
 0001:000107b0       ___CxxFrameHandler         100117b0 f   libvcruntimed:trnsctrl.obj
 0001:000107f0       ___CxxFrameHandler2        100117f0 f   libvcruntimed:trnsctrl.obj
 0001:00010830       ___CxxFrameHandler3        10011830 f   libvcruntimed:trnsctrl.obj
 0001:00010870       ___CxxLongjmpUnwind@4      10011870 f   libvcruntimed:trnsctrl.obj
 0001:000108b0       ?<lambda_invoker_cdecl>@_Closure_wrapper_b3626920_1@@CAPAXI@Z 100118b0 f i libvcruntimed:std_type_info.obj
 0001:000108c0       ?<lambda_invoker_cdecl>@_Closure_wrapper_b3626920_2@@CAXQAX@Z 100118c0 f i libvcruntimed:std_type_info.obj
 0001:000108d0       ??$?RD@__crt_internal_free_policy@@QBEXQBD@Z 100118d0 f i libvcruntimed:std_type_info.obj
 0001:000108f0       ??$?RX@__crt_internal_free_policy@@QBEXQBX@Z 100118f0 f i libvcruntimed:std_type_info.obj
 0001:00010910       ??$__crt_interlocked_compare_exchange_pointer@$$CBDPAD$$T@@YAPBDPDSBDQAD$$T@Z 10011910 f i libvcruntimed:std_type_info.obj
 0001:00010930       ??$__crt_interlocked_read_pointer@$$CBD@@YAPBDPDSBD@Z 10011930 f i libvcruntimed:std_type_info.obj
 0001:00010950       ??0?$__crt_unique_heap_ptr@DU__crt_internal_free_policy@@@@QAE@QAD@Z 10011950 f i libvcruntimed:std_type_info.obj
 0001:00010970       ??0?$__crt_unique_heap_ptr@XU__crt_internal_free_policy@@@@QAE@QAX@Z 10011970 f i libvcruntimed:std_type_info.obj
 0001:00010990       ??1?$__crt_unique_heap_ptr@DU__crt_internal_free_policy@@@@QAE@XZ 10011990 f i libvcruntimed:std_type_info.obj
 0001:000109b0       ??1?$__crt_unique_heap_ptr@XU__crt_internal_free_policy@@@@QAE@XZ 100119b0 f i libvcruntimed:std_type_info.obj
 0001:000109d0       ??B?$__crt_unique_heap_ptr@DU__crt_internal_free_policy@@@@QBE_NXZ 100119d0 f i libvcruntimed:std_type_info.obj
 0001:000109f0       ??B?$__crt_unique_heap_ptr@XU__crt_internal_free_policy@@@@QBE_NXZ 100119f0 f i libvcruntimed:std_type_info.obj
 0001:00010a10       ??B_Closure_wrapper_b3626920_1@@QBEP6APAXI@ZXZ 10011a10 f i libvcruntimed:std_type_info.obj
 0001:00010a20       ??B_Closure_wrapper_b3626920_2@@QBEP6AXQAX@ZXZ 10011a20 f i libvcruntimed:std_type_info.obj
 0001:00010a80       ?__crt_interlocked_read_32@@YAHPDH@Z 10011a80 f i libvcruntimed:std_type_info.obj
 0001:00010aa0       ?detach@?$__crt_unique_heap_ptr@XU__crt_internal_free_policy@@@@QAEPAXXZ 10011aa0 f i libvcruntimed:std_type_info.obj
 0001:00010ad0       ?get@?$__crt_unique_heap_ptr@DU__crt_internal_free_policy@@@@QBEPADXZ 10011ad0 f i libvcruntimed:std_type_info.obj
 0001:00010ae0       ?get@?$__crt_unique_heap_ptr@XU__crt_internal_free_policy@@@@QBEPAXXZ 10011ae0 f i libvcruntimed:std_type_info.obj
 0001:00010af0       ?is_valid@?$__crt_unique_heap_ptr@DU__crt_internal_free_policy@@@@QBE_NXZ 10011af0 f i libvcruntimed:std_type_info.obj
 0001:00010b20       ?is_valid@?$__crt_unique_heap_ptr@XU__crt_internal_free_policy@@@@QBE_NXZ 10011b20 f i libvcruntimed:std_type_info.obj
 0001:00010b50       ?release@?$__crt_unique_heap_ptr@DU__crt_internal_free_policy@@@@QAEXXZ 10011b50 f i libvcruntimed:std_type_info.obj
 0001:00010b80       ?release@?$__crt_unique_heap_ptr@XU__crt_internal_free_policy@@@@QAEXXZ 10011b80 f i libvcruntimed:std_type_info.obj
 0001:00010bb0       ___std_type_info_compare   10011bb0 f   libvcruntimed:std_type_info.obj
 0001:00010be0       ___std_type_info_destroy_list 10011be0 f   libvcruntimed:std_type_info.obj
 0001:00010c20       ___std_type_info_hash      10011c20 f   libvcruntimed:std_type_info.obj
 0001:00010c80       ___std_type_info_name      10011c80 f   libvcruntimed:std_type_info.obj
 0001:00010e60       ___vcrt_GetModuleFileNameW 10011e60 f   libvcruntimed:winapi_thunks.obj
 0001:00010e80       ___vcrt_GetModuleHandleW   10011e80 f   libvcruntimed:winapi_thunks.obj
 0001:00010e90       ___vcrt_LoadLibraryExW     10011e90 f   libvcruntimed:winapi_thunks.obj
 0001:00010eb0       ??$?RD@__crt_public_free_policy@@QBEXQBD@Z 10011eb0 f i libvcruntimed:std_exception.obj
 0001:00010ed0       ??0?$__crt_unique_heap_ptr@DU__crt_public_free_policy@@@@QAE@QAD@Z 10011ed0 f i libvcruntimed:std_exception.obj
 0001:00010ef0       ??1?$__crt_unique_heap_ptr@DU__crt_public_free_policy@@@@QAE@XZ 10011ef0 f i libvcruntimed:std_exception.obj
 0001:00010f10       ??B?$__crt_unique_heap_ptr@DU__crt_public_free_policy@@@@QBE_NXZ 10011f10 f i libvcruntimed:std_exception.obj
 0001:00010f30       ?detach@?$__crt_unique_heap_ptr@DU__crt_public_free_policy@@@@QAEPADXZ 10011f30 f i libvcruntimed:std_exception.obj
 0001:00010f60       ?get@?$__crt_unique_heap_ptr@DU__crt_public_free_policy@@@@QBEPADXZ 10011f60 f i libvcruntimed:std_exception.obj
 0001:00010f70       ?is_valid@?$__crt_unique_heap_ptr@DU__crt_public_free_policy@@@@QBE_NXZ 10011f70 f i libvcruntimed:std_exception.obj
 0001:00010fa0       ?release@?$__crt_unique_heap_ptr@DU__crt_public_free_policy@@@@QAEXXZ 10011fa0 f i libvcruntimed:std_exception.obj
 0001:00010fd0       ___std_exception_copy      10011fd0 f   libvcruntimed:std_exception.obj
 0001:000110c0       ___std_exception_destroy   100120c0 f   libvcruntimed:std_exception.obj
 0001:000110f0       __CxxThrowException@8      100120f0 f   libvcruntimed:throw.obj
 0001:000111b0       ??$?RU__vcrt_ptd@@@__crt_internal_free_policy@@QBEXQBU__vcrt_ptd@@@Z 100121b0 f i libvcruntimed:per_thread_data.obj
 0001:000111d0       ??0?$__crt_unique_heap_ptr@U__vcrt_ptd@@U__crt_internal_free_policy@@@@QAE@QAU__vcrt_ptd@@@Z 100121d0 f i libvcruntimed:per_thread_data.obj
 0001:00011210       ??1?$__crt_unique_heap_ptr@U__vcrt_ptd@@U__crt_internal_free_policy@@@@QAE@XZ 10012210 f i libvcruntimed:per_thread_data.obj
 0001:00011250       ??B?$__crt_unique_heap_ptr@U__vcrt_ptd@@U__crt_internal_free_policy@@@@QBE_NXZ 10012250 f i libvcruntimed:per_thread_data.obj
 0001:00011270       ?detach@?$__crt_unique_heap_ptr@U__vcrt_ptd@@U__crt_internal_free_policy@@@@QAEPAU__vcrt_ptd@@XZ 10012270 f i libvcruntimed:per_thread_data.obj
 0001:000112a0       ?get@?$__crt_unique_heap_ptr@U__vcrt_ptd@@U__crt_internal_free_policy@@@@QBEPAU__vcrt_ptd@@XZ 100122a0 f i libvcruntimed:per_thread_data.obj
 0001:000112b0       ?is_valid@?$__crt_unique_heap_ptr@U__vcrt_ptd@@U__crt_internal_free_policy@@@@QBE_NXZ 100122b0 f i libvcruntimed:per_thread_data.obj
 0001:000112e0       ?release@?$__crt_unique_heap_ptr@U__vcrt_ptd@@U__crt_internal_free_policy@@@@QAEXXZ 100122e0 f i libvcruntimed:per_thread_data.obj
 0001:00011340       ___vcrt_freefls@4          10012340 f   libvcruntimed:per_thread_data.obj
 0001:00011370       ___vcrt_freeptd            10012370 f   libvcruntimed:per_thread_data.obj
 0001:000113d0       ___vcrt_getptd             100123d0 f   libvcruntimed:per_thread_data.obj
 0001:000113f0       ___vcrt_getptd_noexit      100123f0 f   libvcruntimed:per_thread_data.obj
 0001:00011550       ___vcrt_getptd_noinit      10012550 f   libvcruntimed:per_thread_data.obj
 0001:000115b0       ___vcrt_initialize_ptd     100125b0 f   libvcruntimed:per_thread_data.obj
 0001:00011600       ___vcrt_uninitialize_ptd   10012600 f   libvcruntimed:per_thread_data.obj
 0001:00011630       ___vcrt_initialize_locks   10012630 f   libvcruntimed:locks.obj
 0001:00011690       ___vcrt_lock               10012690 f   libvcruntimed:locks.obj
 0001:000116b0       ___vcrt_uninitialize_locks 100126b0 f   libvcruntimed:locks.obj
 0001:00011700       ___vcrt_unlock             10012700 f   libvcruntimed:locks.obj
 0001:00011720       __local_unwind4            10012720 f   libvcruntimed:exsup4.obj
 0001:000117f8       __seh_longjmp_unwind4@4    100127f8 f   libvcruntimed:exsup4.obj
 0001:00011820       @_EH4_CallFilterFunc@8     10012820 f   libvcruntimed:exsup4.obj
 0001:00011838       @_EH4_TransferToHandler@8  10012838 f   libvcruntimed:exsup4.obj
 0001:00011854       @_EH4_GlobalUnwind2@8      10012854 f   libvcruntimed:exsup4.obj
 0001:00011870       @_EH4_LocalUnwind@16       10012870 f   libvcruntimed:exsup4.obj
 0001:000118a0       ___except_validate_context_record 100128a0 f   libvcruntimed:jbcxrval.obj
 0001:000118f0       ___except_validate_jump_buffer 100128f0 f   libvcruntimed:jbcxrval.obj
 0001:00011910       ___except_validate_jump_buffer_common 10012910 f i libvcruntimed:jbcxrval.obj
 0001:00012580       ??$TypeMatchHelper@V__FrameHandler3@@@@YAHPBU_s_HandlerType@@PBU_s_CatchableType@@PBU_s_ThrowInfo@@@Z 10013580 f i libvcruntimed:frame.obj
 0001:00012660       ??$__InternalCxxFrameHandler@V__FrameHandler3@@@@YA?AW4_EXCEPTION_DISPOSITION@@PAUEHExceptionRecord@@PAUEHRegistrationNode@@PAU_CONTEXT@@PAXPBU_s_FuncInfo@@H1E@Z 10013660 f i libvcruntimed:frame.obj
 0001:00012840       ??0HandlerMap@__FrameHandler3@@QAE@PBU_s_TryBlockMapEntry@@II@Z 10013840 f i libvcruntimed:frame.obj
 0001:00012870       ??0TryBlockMap@__FrameHandler3@@QAE@PBU_s_FuncInfo@@I@Z 10013870 f i libvcruntimed:frame.obj
 0001:000128a0       ??0bad_exception@std@@QAE@ABV01@@Z 100138a0 f i libvcruntimed:frame.obj
 0001:000128d0       ??0bad_exception@std@@QAE@XZ 100138d0 f i libvcruntimed:frame.obj
 0001:00012900       ??0iterator@HandlerMap@__FrameHandler3@@QAE@AAV12@I@Z 10013900 f i libvcruntimed:frame.obj
 0001:00012930       ??1bad_exception@std@@UAE@XZ 10013930 f i libvcruntimed:frame.obj
 0001:00012950       ??8iterator@HandlerMap@__FrameHandler3@@QBE_NABV012@@Z 10013950 f i libvcruntimed:frame.obj
 0001:00012980       ??8type_info@@QBE_NABV0@@Z 10013980 f i libvcruntimed:frame.obj
 0001:000129c0       ??9iterator@HandlerMap@__FrameHandler3@@QBE_NABV012@@Z 100139c0 f i libvcruntimed:frame.obj
 0001:00012a00       ??Diterator@HandlerMap@__FrameHandler3@@QAE?BU_s_HandlerType@@XZ 10013a00 f i libvcruntimed:frame.obj
 0001:00012a40       ??Diterator@TryBlockMap@__FrameHandler3@@QAE?BU_s_TryBlockMapEntry@@XZ 10013a40 f i libvcruntimed:frame.obj
 0001:00012a90       ??Eiterator@HandlerMap@__FrameHandler3@@QAEAAV012@XZ 10013a90 f i libvcruntimed:frame.obj
 0001:00012ab0       ??Eiterator@TryBlockMap@__FrameHandler3@@QAEAAV012@XZ 10013ab0 f i libvcruntimed:frame.obj
 0001:00012ad0       ??Miterator@TryBlockMap@__FrameHandler3@@QBE_NABV012@@Z 10013ad0 f i libvcruntimed:frame.obj
 0001:00012b00       ??_Gbad_exception@std@@UAEPAXI@Z 10013b00 f i libvcruntimed:frame.obj
 0001:00012b00       ??_Ebad_exception@std@@UAEPAXI@Z 10013b00 f i libvcruntimed:frame.obj
 0001:00012b30       ?BuildCatchObject@__FrameHandler3@@SAXPAUEHExceptionRecord@@PAXPBU_s_HandlerType@@PBU_s_CatchableType@@@Z 10013b30 f   libvcruntimed:frame.obj
 0001:00012b50       ?BuildCatchObjectHelper@__FrameHandler3@@SAHPAUEHExceptionRecord@@PAXPBU_s_HandlerType@@PBU_s_CatchableType@@@Z 10013b50 f   libvcruntimed:frame.obj
 0001:00012ef0       ?FrameUnwindToEmptyState@__FrameHandler3@@SAXPAUEHRegistrationNode@@PAXPBU_s_FuncInfo@@@Z 10013ef0 f   libvcruntimed:frame.obj
 0001:00012f10       ?FrameUnwindToState@__FrameHandler3@@SAXPAUEHRegistrationNode@@PAXPBU_s_FuncInfo@@H@Z 10013f10 f   libvcruntimed:frame.obj
 0001:00013090       ?GetMaxState@__FrameHandler3@@SAHPAXPBU_s_FuncInfo@@@Z 10014090 f i libvcruntimed:frame.obj
 0001:000131c0       ?TypeMatch@__FrameHandler3@@SAHPBU_s_HandlerType@@PBU_s_CatchableType@@PBU_s_ThrowInfo@@@Z 100141c0 f   libvcruntimed:frame.obj
 0001:000131e0       ?_CallMemberFunction1@@YGXQAX00@Z 100141e0 f i libvcruntimed:frame.obj
 0001:00013210       ?_CallMemberFunction2@@YGXQAX00H@Z 10014210 f i libvcruntimed:frame.obj
 0001:00013240       ?_ValidateExecute@@YA_NP6GHXZ@Z 10014240 f i libvcruntimed:frame.obj
 0001:00013260       ?_ValidateRead@@YA_NPBXI@Z 10014260 f i libvcruntimed:frame.obj
 0001:00013280       ?_ValidateWrite@@YA_NPAXI@Z 10014280 f i libvcruntimed:frame.obj
 0001:000132a0       ?begin@HandlerMap@__FrameHandler3@@QAE?AViterator@12@XZ 100142a0 f i libvcruntimed:frame.obj
 0001:000132c0       ?end@HandlerMap@__FrameHandler3@@QAE?AViterator@12@XZ 100142c0 f i libvcruntimed:frame.obj
 0001:000132f0       ?getESTypes@__FrameHandler3@@SAPBU_s_ESTypeList@@PBU_s_FuncInfo@@@Z 100142f0 f i libvcruntimed:frame.obj
 0001:00013300       ?getLastEntry@HandlerMap@__FrameHandler3@@QAEPBU_s_HandlerType@@XZ 10014300 f i libvcruntimed:frame.obj
 0001:00013320       ?getMagicNum@__FrameHandler3@@SAIPBU_s_FuncInfo@@@Z 10014320 f i libvcruntimed:frame.obj
 0001:00013330       ?getNumTryBlocks@TryBlockMap@__FrameHandler3@@QAEIXZ 10014330 f i libvcruntimed:frame.obj
 0001:00013350       ?isEHs@__FrameHandler3@@SA_NPBU_s_FuncInfo@@@Z 10014350 f i libvcruntimed:frame.obj
 0001:00013380       ?isNoExcept@__FrameHandler3@@SA_NPBU_s_FuncInfo@@@Z 10014380 f i libvcruntimed:frame.obj
 0001:000133b0       ___BuildCatchObject        100143b0 f   libvcruntimed:frame.obj
 0001:000133d0       ___BuildCatchObjectHelper  100143d0 f   libvcruntimed:frame.obj
 0001:000133f0       ___TypeMatch               100143f0 f   libvcruntimed:frame.obj
 0001:00013410       ___vcrt_EncodePointer      10014410 f i libvcruntimed:frame.obj
 0001:00013420       __CallSettingFrame@12      10014420 f   libvcruntimed:lowhelpr.obj
 0001:00013447       __NLG_Return               10014447     libvcruntimed:lowhelpr.obj
 0001:00013470       ??0Block@_HeapManager@@QAE@XZ 10014470 f i libvcruntimed:undname.obj
 0001:00013490       ??0DName@@QAE@AAPBDD@Z     10014490 f   libvcruntimed:undname.obj
 0001:000136c0       ??0DName@@QAE@ABV0@@Z      100146c0 f i libvcruntimed:undname.obj
 0001:000136f0       ??0DName@@QAE@D@Z          100146f0 f   libvcruntimed:undname.obj
 0001:00013730       ??0DName@@QAE@PAV0@@Z      10014730 f   libvcruntimed:undname.obj
 0001:000137e0       ??0DName@@QAE@PBD@Z        100147e0 f   libvcruntimed:undname.obj
 0001:00013830       ??0DName@@QAE@W4DNameStatus@@@Z 10014830 f   libvcruntimed:undname.obj
 0001:000138d0       ??0DName@@QAE@XZ           100148d0 f i libvcruntimed:undname.obj
 0001:00013900       ??0DName@@QAE@_J@Z         10014900 f   libvcruntimed:undname.obj
 0001:000139f0       ??0DName@@QAE@_K@Z         100149f0 f   libvcruntimed:undname.obj
 0001:00013aa0       ??0DNameNode@@IAE@XZ       10014aa0 f i libvcruntimed:undname.obj
 0001:00013ac0       ??0Replicator@@QAE@XZ      10014ac0 f i libvcruntimed:undname.obj
 0001:00013b00       ??0UnDecorator@@QAE@PBDP6APADJ@ZK@Z 10014b00 f i libvcruntimed:undname.obj
 0001:00013b80       ??0charNode@@QAE@D@Z       10014b80 f i libvcruntimed:undname.obj
 0001:00013bb0       ??0pDNameNode@@QAE@PAVDName@@@Z 10014bb0 f   libvcruntimed:undname.obj
 0001:00013c10       ??0pairNode@@QAE@PBVDNameNode@@0@Z 10014c10 f i libvcruntimed:undname.obj
 0001:00013c50       ??0pcharNode@@QAE@PBDH@Z   10014c50 f   libvcruntimed:undname.obj
 0001:00013d10       ??2@YAPAXIAAV_HeapManager@@H@Z 10014d10 f i libvcruntimed:undname.obj
 0001:00013d30       ??4DName@@QAEAAV0@ABV0@@Z  10014d30 f   libvcruntimed:undname.obj
 0001:00013d60       ??4DName@@QAEAAV0@D@Z      10014d60 f i libvcruntimed:undname.obj
 0001:00013da0       ??4DName@@QAEAAV0@PAV0@@Z  10014da0 f   libvcruntimed:undname.obj
 0001:00013e40       ??4DName@@QAEAAV0@PBD@Z    10014e40 f   libvcruntimed:undname.obj
 0001:00013e80       ??4DName@@QAEAAV0@W4DNameStatus@@@Z 10014e80 f   libvcruntimed:undname.obj
 0001:00013f00       ??AReplicator@@QBE?AVDName@@H@Z 10014f00 f   libvcruntimed:undname.obj
 0001:00013f70       ??H@YA?AVDName@@DABV0@@Z   10014f70 f i libvcruntimed:undname.obj
 0001:00013fa0       ??H@YA?AVDName@@PBDABV0@@Z 10014fa0 f i libvcruntimed:undname.obj
 0001:00013fd0       ??H@YA?AVDName@@W4DNameStatus@@ABV0@@Z 10014fd0 f i libvcruntimed:undname.obj
 0001:00014000       ??HDName@@QBE?AV0@ABV0@@Z  10015000 f   libvcruntimed:undname.obj
 0001:00014040       ??HDName@@QBE?AV0@D@Z      10015040 f   libvcruntimed:undname.obj
 0001:00014080       ??HDName@@QBE?AV0@PAV0@@Z  10015080 f   libvcruntimed:undname.obj
 0001:000140c0       ??HDName@@QBE?AV0@PBD@Z    100150c0 f   libvcruntimed:undname.obj
 0001:00014100       ??HDName@@QBE?AV0@W4DNameStatus@@@Z 10015100 f   libvcruntimed:undname.obj
 0001:00014140       ??YDName@@QAEAAV0@ABV0@@Z  10015140 f   libvcruntimed:undname.obj
 0001:000141b0       ??YDName@@QAEAAV0@D@Z      100151b0 f   libvcruntimed:undname.obj
 0001:00014230       ??YDName@@QAEAAV0@PAV0@@Z  10015230 f   libvcruntimed:undname.obj
 0001:000142e0       ??YDName@@QAEAAV0@PBD@Z    100152e0 f   libvcruntimed:undname.obj
 0001:00014380       ??YDName@@QAEAAV0@W4DNameStatus@@@Z 10015380 f   libvcruntimed:undname.obj
 0001:000143e0       ??YReplicator@@QAEAAV0@ABVDName@@@Z 100153e0 f   libvcruntimed:undname.obj
 0001:00014470       ??_5DName@@QAEAAV0@ABV0@@Z 10015470 f   libvcruntimed:undname.obj
 0001:000144d0       ?Constructor@_HeapManager@@QAEXP6APAXI@ZP6AXPAX@Z@Z 100154d0 f i libvcruntimed:undname.obj
 0001:00014510       ?Destructor@_HeapManager@@QAEXXZ 10015510 f i libvcruntimed:undname.obj
 0001:00014570       ?UScore@UnDecorator@@SAPBDW4Tokens@@@Z 10015570 f   libvcruntimed:undname.obj
 0001:000145a0       ?append@DName@@AAEXPBVDNameNode@@@Z 100155a0 f   libvcruntimed:undname.obj
 0001:00014630       ?composeDeclaration@UnDecorator@@CA?AVDName@@ABV2@@Z 10015630 f i libvcruntimed:undname.obj
 0001:000163b0       ?dbGetString@DName@@QBEPADXZ 100173b0 f   libvcruntimed:undname.obj
 0001:000163d0       ?doAccessSpecifiers@UnDecorator@@SAHXZ 100173d0 f i libvcruntimed:undname.obj
 0001:00016400       ?doAllocationLanguage@UnDecorator@@SAHXZ 10017400 f i libvcruntimed:undname.obj
 0001:00016430       ?doAllocationModel@UnDecorator@@SAHXZ 10017430 f i libvcruntimed:undname.obj
 0001:00016460       ?doEcsu@UnDecorator@@SAHXZ 10017460 f i libvcruntimed:undname.obj
 0001:00016490       ?doEllipsis@UnDecorator@@SAHXZ 10017490 f i libvcruntimed:undname.obj
 0001:000164c0       ?doFunctionReturns@UnDecorator@@SAHXZ 100174c0 f i libvcruntimed:undname.obj
 0001:000164f0       ?doMSKeywords@UnDecorator@@SAHXZ 100174f0 f i libvcruntimed:undname.obj
 0001:00016520       ?doMemberTypes@UnDecorator@@SAHXZ 10017520 f i libvcruntimed:undname.obj
 0001:00016550       ?doNameOnly@UnDecorator@@SAHXZ 10017550 f i libvcruntimed:undname.obj
 0001:00016560       ?doNoIdentCharCheck@UnDecorator@@SAHXZ 10017560 f i libvcruntimed:undname.obj
 0001:00016570       ?doPchar@DName@@AAEXPBDH@Z 10017570 f   libvcruntimed:undname.obj
 0001:000166b0       ?doPtr64@UnDecorator@@SAHXZ 100176b0 f i libvcruntimed:undname.obj
 0001:000166e0       ?doRestrictionSpec@UnDecorator@@SAHXZ 100176e0 f i libvcruntimed:undname.obj
 0001:00016710       ?doThisTypes@UnDecorator@@SAHXZ 10017710 f i libvcruntimed:undname.obj
 0001:00016740       ?doThrowTypes@UnDecorator@@SAHXZ 10017740 f i libvcruntimed:undname.obj
 0001:00016770       ?doTypeOnly@UnDecorator@@SAHXZ 10017770 f i libvcruntimed:undname.obj
 0001:00016780       ?doUnderScore@UnDecorator@@SAHXZ 10017780 f i libvcruntimed:undname.obj
 0001:000167b0       ?getArgumentList@UnDecorator@@CA?AVDName@@XZ 100177b0 f   libvcruntimed:undname.obj
 0001:00016900       ?getArgumentTypes@UnDecorator@@CA?AVDName@@XZ 10017900 f   libvcruntimed:undname.obj
 0001:00016a50       ?getArrayType@UnDecorator@@CA?AVDName@@ABV2@@Z 10017a50 f i libvcruntimed:undname.obj
 0001:00016cc0       ?getBasedType@UnDecorator@@CA?AVDName@@XZ 10017cc0 f   libvcruntimed:undname.obj
 0001:00016d80       ?getBasicDataType@UnDecorator@@CA?AVDName@@ABV2@@Z 10017d80 f   libvcruntimed:undname.obj
 0001:00017380       ?getCHPEName@UnDecorator@@QAEPADPADH@Z 10018380 f i libvcruntimed:undname.obj
 0001:000174e0       ?getCallIndex@UnDecorator@@CA?AVDName@@XZ 100184e0 f i libvcruntimed:undname.obj
 0001:00017500       ?getCallingConvention@UnDecorator@@CA?AVDName@@XZ 10018500 f   libvcruntimed:undname.obj
 0001:000176e0       ?getDataIndirectType@UnDecorator@@CA?AVDName@@ABV2@PBD0H@Z 100186e0 f   libvcruntimed:undname.obj
 0001:00017f00       ?getDataIndirectType@UnDecorator@@CA?AVDName@@XZ 10018f00 f i libvcruntimed:undname.obj
 0001:00017f50       ?getDataType@UnDecorator@@CA?AVDName@@PAV2@@Z 10018f50 f   libvcruntimed:undname.obj
 0001:00018070       ?getDecoratedName@UnDecorator@@CA?AVDName@@XZ 10019070 f   libvcruntimed:undname.obj
 0001:00018470       ?getDimension@UnDecorator@@CA?AVDName@@_N@Z 10019470 f   libvcruntimed:undname.obj
 0001:00018720       ?getDispatchTarget@UnDecorator@@CA?AVDName@@XZ 10019720 f   libvcruntimed:undname.obj
 0001:000187c0       ?getDisplacement@UnDecorator@@CA?AVDName@@XZ 100197c0 f i libvcruntimed:undname.obj
 0001:000187e0       ?getECSUDataType@UnDecorator@@CA?AVDName@@XZ 100197e0 f   libvcruntimed:undname.obj
 0001:000189b0       ?getECSUName@UnDecorator@@CA?AVDName@@XZ 100199b0 f i libvcruntimed:undname.obj
 0001:000189d0       ?getEnumType@UnDecorator@@CA?AVDName@@XZ 100199d0 f i libvcruntimed:undname.obj
 0001:00018b20       ?getExtendedDataIndirectType@UnDecorator@@CA?AVDName@@AAPBDAA_NH@Z 10019b20 f   libvcruntimed:undname.obj
 0001:00018d70       ?getExternalDataType@UnDecorator@@CA?AVDName@@ABV2@@Z 10019d70 f i libvcruntimed:undname.obj
 0001:00018e10       ?getFunctionIndirectType@UnDecorator@@CA?AVDName@@ABV2@@Z 10019e10 f   libvcruntimed:undname.obj
 0001:000192e0       ?getGuardNumber@UnDecorator@@CA?AVDName@@XZ 1001a2e0 f i libvcruntimed:undname.obj
 0001:00019300       ?getLastChar@DName@@QBEDXZ 1001a300 f i libvcruntimed:undname.obj
 0001:00019340       ?getLastChar@DNameStatusNode@@UBEDXZ 1001a340 f i libvcruntimed:undname.obj
 0001:00019370       ?getLastChar@charNode@@UBEDXZ 1001a370 f i libvcruntimed:undname.obj
 0001:00019390       ?getLastChar@pDNameNode@@UBEDXZ 1001a390 f i libvcruntimed:undname.obj
 0001:000193c0       ?getLastChar@pairNode@@UBEDXZ 1001a3c0 f i libvcruntimed:undname.obj
 0001:00019430       ?getLastChar@pcharNode@@UBEDXZ 1001a430 f i libvcruntimed:undname.obj
 0001:00019470       ?getLexicalFrame@UnDecorator@@CA?AVDName@@XZ 1001a470 f i libvcruntimed:undname.obj
 0001:000194b0       ?getMemory@_HeapManager@@QAEPAXIH@Z 1001a4b0 f   libvcruntimed:undname.obj
 0001:000195d0       ?getNoexcept@UnDecorator@@CA?AVDName@@XZ 1001a5d0 f   libvcruntimed:undname.obj
 0001:00019640       ?getNumberOfDimensions@UnDecorator@@CAHXZ 1001a640 f   libvcruntimed:undname.obj
 0001:00019740       ?getOperatorName@UnDecorator@@CA?AVDName@@_NPA_N@Z 1001a740 f i libvcruntimed:undname.obj
 0001:0001a1b0       ?getPointerType@UnDecorator@@CA?AVDName@@ABV2@0@Z 1001b1b0 f i libvcruntimed:undname.obj
 0001:0001a1e0       ?getPointerTypeArray@UnDecorator@@CA?AVDName@@ABV2@0@Z 1001b1e0 f i libvcruntimed:undname.obj
 0001:0001a210       ?getPrimaryDataType@UnDecorator@@CA?AVDName@@ABV2@@Z 1001b210 f   libvcruntimed:undname.obj
 0001:0001a610       ?getPtrRefDataType@UnDecorator@@CA?AVDName@@ABV2@H@Z 1001b610 f   libvcruntimed:undname.obj
 0001:0001a840       ?getPtrRefType@UnDecorator@@CA?AVDName@@ABV2@0PBD@Z 1001b840 f   libvcruntimed:undname.obj
 0001:0001a9b0       ?getReferenceType@UnDecorator@@CA?AVDName@@ABV2@0PBD@Z 1001b9b0 f i libvcruntimed:undname.obj
 0001:0001a9d0       ?getRestrictionSpec@UnDecorator@@CA?AVDName@@XZ 1001b9d0 f   libvcruntimed:undname.obj
 0001:0001ab40       ?getReturnType@UnDecorator@@CA?AVDName@@PAV2@@Z 1001bb40 f   libvcruntimed:undname.obj
 0001:0001ab90       ?getScope@UnDecorator@@CA?AVDName@@XZ 1001bb90 f   libvcruntimed:undname.obj
 0001:0001b0c0       ?getScopedName@UnDecorator@@CA?AVDName@@XZ 1001c0c0 f   libvcruntimed:undname.obj
 0001:0001b1f0       ?getSignedDimension@UnDecorator@@CA?AVDName@@XZ 1001c1f0 f   libvcruntimed:undname.obj
 0001:0001b270       ?getStorageConvention@UnDecorator@@CA?AVDName@@XZ 1001c270 f i libvcruntimed:undname.obj
 0001:0001b290       ?getString@DName@@QBEPADPAD0@Z 1001c290 f i libvcruntimed:undname.obj
 0001:0001b2f0       ?getString@DName@@QBEPADPADH@Z 1001c2f0 f i libvcruntimed:undname.obj
 0001:0001b380       ?getString@DNameStatusNode@@UBEPADPAD0@Z 1001c380 f i libvcruntimed:undname.obj
 0001:0001b3c0       ?getString@charNode@@UBEPADPAD0@Z 1001c3c0 f i libvcruntimed:undname.obj
 0001:0001b3f0       ?getString@pDNameNode@@UBEPADPAD0@Z 1001c3f0 f i libvcruntimed:undname.obj
 0001:0001b430       ?getString@pairNode@@UBEPADPAD0@Z 1001c430 f i libvcruntimed:undname.obj
 0001:0001b4c0       ?getString@pcharNode@@UBEPADPAD0@Z 1001c4c0 f i libvcruntimed:undname.obj
 0001:0001b4f0       ?getStringEncoding@UnDecorator@@CA?AVDName@@PBDH@Z 1001c4f0 f   libvcruntimed:undname.obj
 0001:0001b600       ?getStringHelper@@YAPADPADPBD1H@Z 1001c600 f i libvcruntimed:undname.obj
 0001:0001b640       ?getSymbolName@UnDecorator@@CA?AVDName@@XZ 1001c640 f i libvcruntimed:undname.obj
 0001:0001b6d0       ?getTemplateArgumentList@UnDecorator@@CA?AVDName@@XZ 1001c6d0 f   libvcruntimed:undname.obj
 0001:0001b990       ?getTemplateName@UnDecorator@@CA?AVDName@@_N@Z 1001c990 f   libvcruntimed:undname.obj
 0001:0001bb60       ?getTemplateNonTypeArgument@UnDecorator@@CA?AVDName@@XZ 1001cb60 f   libvcruntimed:undname.obj
 0001:0001c190       ?getTemplateTypeArgument@UnDecorator@@CA?AVDName@@XZ 1001d190 f   libvcruntimed:undname.obj
 0001:0001c2f0       ?getThisType@UnDecorator@@CA?AVDName@@XZ 1001d2f0 f i libvcruntimed:undname.obj
 0001:0001c340       ?getThrowTypes@UnDecorator@@CA?AVDName@@XZ 1001d340 f   libvcruntimed:undname.obj
 0001:0001c380       ?getTypeEncoding@UnDecorator@@CAHXZ 1001d380 f i libvcruntimed:undname.obj
 0001:0001ce10       ?getUndecoratedName@UnDecorator@@QAEPADPADH@Z 1001de10 f i libvcruntimed:undname.obj
 0001:0001cf60       ?getVCallThunkType@UnDecorator@@CA?AVDName@@XZ 1001df60 f i libvcruntimed:undname.obj
 0001:0001cfc0       ?getVbTableType@UnDecorator@@CA?AVDName@@ABV2@@Z 1001dfc0 f i libvcruntimed:undname.obj
 0001:0001cfe0       ?getVdispMapType@UnDecorator@@CA?AVDName@@ABV2@@Z 1001dfe0 f i libvcruntimed:undname.obj
 0001:0001d050       ?getVfTableType@UnDecorator@@CA?AVDName@@ABV2@@Z 1001e050 f i libvcruntimed:undname.obj
 0001:0001d220       ?getZName@UnDecorator@@CA?AVDName@@_N0@Z 1001e220 f   libvcruntimed:undname.obj
 0001:0001d500       ?haveTemplateParameters@UnDecorator@@SAHXZ 1001e500 f i libvcruntimed:undname.obj
 0001:0001d510       ?isArray@DName@@QBEHXZ     1001e510 f i libvcruntimed:undname.obj
 0001:0001d530       ?isComArray@DName@@QBEHXZ  1001e530 f i libvcruntimed:undname.obj
 0001:0001d550       ?isEmpty@DName@@QBEHXZ     1001e550 f i libvcruntimed:undname.obj
 0001:0001d580       ?isFull@Replicator@@QBEHXZ 1001e580 f i libvcruntimed:undname.obj
 0001:0001d5b0       ?isNoTE@DName@@QBEHXZ      1001e5b0 f i libvcruntimed:undname.obj
 0001:0001d5d0       ?isPinPtr@DName@@QBEHXZ    1001e5d0 f i libvcruntimed:undname.obj
 0001:0001d5f0       ?isPtrRef@DName@@QBEHXZ    1001e5f0 f i libvcruntimed:undname.obj
 0001:0001d610       ?isUDC@DName@@QBEHXZ       1001e610 f i libvcruntimed:undname.obj
 0001:0001d650       ?isUDTThunk@DName@@QBEHXZ  1001e650 f i libvcruntimed:undname.obj
 0001:0001d690       ?isVCallThunk@DName@@QBEHXZ 1001e690 f i libvcruntimed:undname.obj
 0001:0001d6b0       ?isValid@DName@@QBEHXZ     1001e6b0 f i libvcruntimed:undname.obj
 0001:0001d6f0       ?length@DName@@QBEHXZ      1001e6f0 f i libvcruntimed:undname.obj
 0001:0001d730       ?length@DNameStatusNode@@UBEHXZ 1001e730 f i libvcruntimed:undname.obj
 0001:0001d750       ?length@charNode@@UBEHXZ   1001e750 f i libvcruntimed:undname.obj
 0001:0001d760       ?length@pDNameNode@@UBEHXZ 1001e760 f i libvcruntimed:undname.obj
 0001:0001d790       ?length@pairNode@@UBEHXZ   1001e790 f i libvcruntimed:undname.obj
 0001:0001d800       ?length@pcharNode@@UBEHXZ  1001e800 f i libvcruntimed:undname.obj
 0001:0001d820       ?make@DNameStatusNode@@SAPBV1@W4DNameStatus@@@Z 1001e820 f i libvcruntimed:undname.obj
 0001:0001d850       ?parseDecoratedName@UnDecorator@@CA?AVDName@@XZ 1001e850 f   libvcruntimed:undname.obj
 0001:0001d9d0       ?setIsArray@DName@@QAEXXZ  1001e9d0 f i libvcruntimed:undname.obj
 0001:0001d9f0       ?setIsComArray@DName@@QAEXXZ 1001e9f0 f i libvcruntimed:undname.obj
 0001:0001da10       ?setIsNoTE@DName@@QAEXXZ   1001ea10 f i libvcruntimed:undname.obj
 0001:0001da30       ?setIsPinPtr@DName@@QAEXXZ 1001ea30 f i libvcruntimed:undname.obj
 0001:0001da50       ?setIsUDC@DName@@QAEXXZ    1001ea50 f i libvcruntimed:undname.obj
 0001:0001da80       ?setIsVCallThunk@DName@@QAEXXZ 1001ea80 f i libvcruntimed:undname.obj
 0001:0001daa0       ?setPtrRef@DName@@QAEAAV1@XZ 1001eaa0 f i libvcruntimed:undname.obj
 0001:0001dac0       ?status@DName@@QBE?AW4DNameStatus@@XZ 1001eac0 f i libvcruntimed:undname.obj
 0001:0001dbc0       ___unDName                 1001ebc0 f   libvcruntimed:undname.obj
 0001:0001dbf0       ___unDNameEx               1001ebf0 f   libvcruntimed:undname.obj
 0001:0001dcc0       _unDNameGenerateCHPE       1001ecc0 f   libvcruntimed:undname.obj
 0001:0001dd20       ??$__crt_interlocked_exchange_pointer@UHINSTANCE__@@PAU1@@@YAPAUHINSTANCE__@@PDSAU0@QAU0@@Z 1001ed20 f i libvcruntimed:winapi_downlevel.obj
 0001:0001dd30       ??$__crt_interlocked_exchange_pointer@UHINSTANCE__@@PAX@@YAPAUHINSTANCE__@@PDSAU0@QAX@Z 1001ed30 f i libvcruntimed:winapi_downlevel.obj
 0001:0001dd40       ??$__crt_interlocked_exchange_pointer@XPAX@@YAPAXPDSAXQAX@Z 1001ed40 f i libvcruntimed:winapi_downlevel.obj
 0001:0001dd50       ??$__crt_interlocked_read_pointer@UHINSTANCE__@@@@YAPAUHINSTANCE__@@PDSAU0@@Z 1001ed50 f i libvcruntimed:winapi_downlevel.obj
 0001:0001dd70       ??$__crt_interlocked_read_pointer@X@@YAPAXPDSAX@Z 1001ed70 f i libvcruntimed:winapi_downlevel.obj
 0001:0001e140       ___vcrt_FlsAlloc           1001f140 f   libvcruntimed:winapi_downlevel.obj
 0001:0001e180       ___vcrt_FlsFree            1001f180 f   libvcruntimed:winapi_downlevel.obj
 0001:0001e1c0       ___vcrt_FlsGetValue        1001f1c0 f   libvcruntimed:winapi_downlevel.obj
 0001:0001e200       ___vcrt_FlsSetValue        1001f200 f   libvcruntimed:winapi_downlevel.obj
 0001:0001e250       ___vcrt_InitializeCriticalSectionEx 1001f250 f   libvcruntimed:winapi_downlevel.obj
 0001:0001e2a0       __global_unwind2           1001f2a0 f   libvcruntimed:exsup.obj
 0001:0001e306       __local_unwind2            1001f306 f   libvcruntimed:exsup.obj
 0001:0001e38a       __abnormal_termination     1001f38a f   libvcruntimed:exsup.obj
 0001:0001e3b0       __NLG_Notify1              1001f3b0 f   libvcruntimed:exsup.obj
 0001:0001e3bc       __NLG_Notify               1001f3bc f   libvcruntimed:exsup.obj
 0001:0001e3d3       __NLG_Dispatch2            1001f3d3     libvcruntimed:exsup.obj
 0001:0001e3d3       __NLG_Dispatch             1001f3d3     libvcruntimed:exsup.obj
 0001:0001e3db       __NLG_Call                 1001f3db f   libvcruntimed:exsup.obj
 0001:0001e3dd       __NLG_Return2              1001f3dd     libvcruntimed:exsup.obj
 0001:0001e410       __get_unexpected           1001f410 f   libvcruntimed:unexpected.obj
 0001:0001e430       _set_unexpected            1001f430 f   libvcruntimed:unexpected.obj
 0001:0001e460       _unexpected                1001f460 f   libvcruntimed:unexpected.obj
 0001:0001e4a0       ?GetCurrentState@__FrameHandler3@@SAHPAUEHRegistrationNode@@PAXPBU_s_FuncInfo@@@Z 1001f4a0 f   libvcruntimed:ehstate.obj
 0001:0001e4d0       ?SetState@__FrameHandler3@@SAXPAUEHRegistrationNode@@PBU_s_FuncInfo@@H@Z 1001f4d0 f   libvcruntimed:ehstate.obj
 0001:0001e4e0       ___DestructExceptionObject 1001f4e0 f   libvcruntimed:ehhelpers.obj
 0001:0001e610       ?_CallMemberFunction0@@YGXQAX0@Z 1001f610 f i libvcruntimed:ehhelpers.obj
 0001:0001e630       ?raw_name@type_info@@QBEPBDXZ 1001f630 f i libvcruntimed:ehhelpers.obj
 0001:0001e650       __IsExceptionObjectToBeDestroyed 1001f650 f   libvcruntimed:ehhelpers.obj
 0001:0001e690       __SetWinRTOutOfMemoryExceptionCallback 1001f690 f   libvcruntimed:ehhelpers.obj
 0001:0001e6a0       ___AdjustPointer           1001f6a0 f   libvcruntimed:ehhelpers.obj
 0001:0001e6f0       ___FrameUnwindFilter       1001f6f0 f   libvcruntimed:ehhelpers.obj
 0001:0001e770       ___GetPlatformExceptionInfo 1001f770 f   libvcruntimed:ehhelpers.obj
 0001:0001e7f0       ___current_exception       1001f7f0 f   libvcruntimed:ehhelpers.obj
 0001:0001e800       ___current_exception_context 1001f800 f   libvcruntimed:ehhelpers.obj
 0001:0001e810       ___processing_throw        1001f810 f   libvcruntimed:ehhelpers.obj
 0001:0001e820       ___std_terminate           1001f820 f   libvcruntimed:ehhelpers.obj
 0001:0001e830       __is_exception_typeof      1001f830 f   libvcruntimed:ehhelpers.obj
 0001:0001e910       ??$__crt_interlocked_exchange_pointer@$$A6AXXZP6AXXZ@@YAP6AXXZPDS6AXXZQ6AXXZ@Z 1001f910 f i libvcruntimed:purevirt.obj
 0001:0001e920       ??$__crt_interlocked_read_pointer@$$A6AXXZ@@YAP6AXXZPDS6AXXZ@Z 1001f920 f i libvcruntimed:purevirt.obj
 0001:0001e940       __get_purecall_handler     1001f940 f   libvcruntimed:purevirt.obj
 0001:0001e960       __purecall                 1001f960 f   libvcruntimed:purevirt.obj
 0001:0001e990       __set_purecall_handler     1001f990 f   libvcruntimed:purevirt.obj
 0001:0001e9b0       _free                      1001f9b0 f   libucrtd:free.obj
 0001:0001e9e0       _malloc                    1001f9e0 f   libucrtd:malloc.obj
 0001:0001ea00       ??$?RU?$__crt_report_hook_node@D@@@__crt_internal_free_policy@@QBEXQBU?$__crt_report_hook_node@D@@@Z 1001fa00 f i libucrtd:dbgrpt.obj
 0001:0001ea20       ??$?RU?$__crt_report_hook_node@_W@@@__crt_internal_free_policy@@QBEXQBU?$__crt_report_hook_node@_W@@@Z 1001fa20 f i libucrtd:dbgrpt.obj
 0001:0001f810       ??$get_module_file_name@AAPAUHINSTANCE__@@AAY0BAF@DK@?$__crt_char_traits@D@@SAKAAPAUHINSTANCE__@@AAY0BAF@D$$QAK@Z 10020810 f i libucrtd:dbgrpt.obj
 0001:0001f830       ??$get_module_file_name@AAPAUHINSTANCE__@@AAY0BAF@_WK@?$__crt_char_traits@_W@@SAKAAPAUHINSTANCE__@@AAY0BAF@_W$$QAK@Z 10020830 f i libucrtd:dbgrpt.obj
 0001:0001f850       ??$tcscpy_s@AAY0BAF@DIPBD@?$__crt_char_traits@D@@SAHAAY0BAF@D$$QAI$$QAPBD@Z 10020850 f i libucrtd:dbgrpt.obj
 0001:0001f870       ??$tcscpy_s@AAY0BAF@_WIPB_W@?$__crt_char_traits@_W@@SAHAAY0BAF@_W$$QAI$$QAPB_W@Z 10020870 f i libucrtd:dbgrpt.obj
 0001:0001f890       ??$tcslen@AAY0BAF@D@?$__crt_char_traits@D@@SAIAAY0BAF@D@Z 10020890 f i libucrtd:dbgrpt.obj
 0001:0001f8b0       ??$tcslen@AAY0BAF@_W@?$__crt_char_traits@_W@@SAIAAY0BAF@_W@Z 100208b0 f i libucrtd:dbgrpt.obj
 0001:0001f8d0       ??$tcslen@ABQBD@?$__crt_char_traits@D@@SAIABQBD@Z 100208d0 f i libucrtd:dbgrpt.obj
 0001:0001f8f0       ??$tcslen@ABQB_W@?$__crt_char_traits@_W@@SAIABQB_W@Z 100208f0 f i libucrtd:dbgrpt.obj
 0001:0001f9f0       ??0?$__crt_unique_heap_ptr@U?$__crt_report_hook_node@D@@U__crt_internal_free_policy@@@@QAE@QAU?$__crt_report_hook_node@D@@@Z 100209f0 f i libucrtd:dbgrpt.obj
 0001:0001fa10       ??0?$__crt_unique_heap_ptr@U?$__crt_report_hook_node@_W@@U__crt_internal_free_policy@@@@QAE@QAU?$__crt_report_hook_node@_W@@@Z 10020a10 f i libucrtd:dbgrpt.obj
 0001:0001fa30       ??1?$__crt_unique_heap_ptr@U?$__crt_report_hook_node@D@@U__crt_internal_free_policy@@@@QAE@XZ 10020a30 f i libucrtd:dbgrpt.obj
 0001:0001fa50       ??1?$__crt_unique_heap_ptr@U?$__crt_report_hook_node@_W@@U__crt_internal_free_policy@@@@QAE@XZ 10020a50 f i libucrtd:dbgrpt.obj
 0001:0001fa70       ??B?$__crt_unique_heap_ptr@U?$__crt_report_hook_node@D@@U__crt_internal_free_policy@@@@QBE_NXZ 10020a70 f i libucrtd:dbgrpt.obj
 0001:0001fa90       ??B?$__crt_unique_heap_ptr@U?$__crt_report_hook_node@_W@@U__crt_internal_free_policy@@@@QBE_NXZ 10020a90 f i libucrtd:dbgrpt.obj
 0001:0001ffd0       ?detach@?$__crt_unique_heap_ptr@U?$__crt_report_hook_node@D@@U__crt_internal_free_policy@@@@QAEPAU?$__crt_report_hook_node@D@@XZ 10020fd0 f i libucrtd:dbgrpt.obj
 0001:00020000       ?detach@?$__crt_unique_heap_ptr@U?$__crt_report_hook_node@_W@@U__crt_internal_free_policy@@@@QAEPAU?$__crt_report_hook_node@_W@@XZ 10021000 f i libucrtd:dbgrpt.obj
 0001:00020030       ?get@?$__crt_unique_heap_ptr@U?$__crt_report_hook_node@D@@U__crt_internal_free_policy@@@@QBEPAU?$__crt_report_hook_node@D@@XZ 10021030 f i libucrtd:dbgrpt.obj
 0001:00020050       ?get@?$__crt_unique_heap_ptr@U?$__crt_report_hook_node@_W@@U__crt_internal_free_policy@@@@QBEPAU?$__crt_report_hook_node@_W@@XZ 10021050 f i libucrtd:dbgrpt.obj
 0001:000200d0       ?is_valid@?$__crt_unique_heap_ptr@U?$__crt_report_hook_node@D@@U__crt_internal_free_policy@@@@QBE_NXZ 100210d0 f i libucrtd:dbgrpt.obj
 0001:00020100       ?is_valid@?$__crt_unique_heap_ptr@U?$__crt_report_hook_node@_W@@U__crt_internal_free_policy@@@@QBE_NXZ 10021100 f i libucrtd:dbgrpt.obj
 0001:00020130       ?release@?$__crt_unique_heap_ptr@U?$__crt_report_hook_node@D@@U__crt_internal_free_policy@@@@QAEXXZ 10021130 f i libucrtd:dbgrpt.obj
 0001:00020160       ?release@?$__crt_unique_heap_ptr@U?$__crt_report_hook_node@_W@@U__crt_internal_free_policy@@@@QAEXXZ 10021160 f i libucrtd:dbgrpt.obj
 0001:00020190       __CrtDbgReport             10021190 f   libucrtd:dbgrpt.obj
 0001:000201e0       __CrtDbgReportW            100211e0 f   libucrtd:dbgrpt.obj
 0001:00020230       __CrtSetReportHook2        10021230 f   libucrtd:dbgrpt.obj
 0001:00020250       __CrtSetReportHookW2       10021250 f   libucrtd:dbgrpt.obj
 0001:00020270       ___acrt_MessageWindowA     10021270 f   libucrtd:dbgrpt.obj
 0001:000202a0       ___acrt_MessageWindowW     100212a0 f   libucrtd:dbgrpt.obj
 0001:000202d0       __invoke_watson_if_error   100212d0 f i libucrtd:dbgrpt.obj
 0001:00020300       __invoke_watson_if_oneof   10021300 f i libucrtd:dbgrpt.obj
 0001:00020340       __snwprintf_s              10021340 f i libucrtd:dbgrpt.obj
 0001:00020380       __vsnwprintf_s_l           10021380 f i libucrtd:dbgrpt.obj
 0001:00020700       _wcscpy_s                  10021700 f   libucrtd:wcscpy_s.obj
 0001:00021420       ??1?$__crt_simd_cleanup_guard@$00@@QAE@XZ 10022420 f i libucrtd:strnlen.obj
 0001:00021430       ??1?$__crt_simd_cleanup_guard@$0A@@@QAE@XZ 10022430 f i libucrtd:strnlen.obj
 0001:00021440       ?compare_equals@?$__crt_simd_traits@$00E@@SA?AT__m256i@@T2@0@Z 10022440 f i libucrtd:strnlen.obj
 0001:00021480       ?compare_equals@?$__crt_simd_traits@$00G@@SA?AT__m256i@@T2@0@Z 10022480 f i libucrtd:strnlen.obj
 0001:000214c0       ?compare_equals@?$__crt_simd_traits@$0A@E@@SA?AT__m128i@@T2@0@Z 100224c0 f i libucrtd:strnlen.obj
 0001:00021500       ?compare_equals@?$__crt_simd_traits@$0A@G@@SA?AT__m128i@@T2@0@Z 10022500 f i libucrtd:strnlen.obj
 0001:00021540       ?compute_byte_mask@?$__crt_simd_pack_traits@$00@@SAHT__m256i@@@Z 10022540 f i libucrtd:strnlen.obj
 0001:00021570       ?compute_byte_mask@?$__crt_simd_pack_traits@$0A@@@SAHT__m128i@@@Z 10022570 f i libucrtd:strnlen.obj
 0001:000215a0       ?get_zero_pack@?$__crt_simd_pack_traits@$00@@SA?AT__m256i@@XZ 100225a0 f i libucrtd:strnlen.obj
 0001:000215d0       ?get_zero_pack@?$__crt_simd_pack_traits@$0A@@@SA?AT__m128i@@XZ 100225d0 f i libucrtd:strnlen.obj
 0001:00021600       _strnlen                   10022600 f   libucrtd:strnlen.obj
 0001:00021620       _wcslen                    10022620 f   libucrtd:strnlen.obj
 0001:00021640       _wcsnlen                   10022640 f   libucrtd:strnlen.obj
 0001:00021660       ??$?0ABV?$stream_output_adapter@D@__crt_stdio_output@@AB_KABQBDABQAU__crt_locale_pointers@@ABQAD@?$format_validation_base@DV?$stream_output_adapter@D@__crt_stdio_output@@@__crt_stdio_output@@IAE@ABV?$stream_output_adapter@D@1@AB_KABQBDABQAU__crt_locale_pointers@@ABQAD@Z 10022660 f i libucrtd:output.obj
 0001:00021690       ??$?0ABV?$stream_output_adapter@D@__crt_stdio_output@@AB_KABQBDABQAU__crt_locale_pointers@@ABQAD@?$positional_parameter_base@DV?$stream_output_adapter@D@__crt_stdio_output@@@__crt_stdio_output@@IAE@ABV?$stream_output_adapter@D@1@AB_KABQBDABQAU__crt_locale_pointers@@ABQAD@Z 10022690 f i libucrtd:output.obj
 0001:00021710       ??$?0ABV?$stream_output_adapter@D@__crt_stdio_output@@AB_KABQBDABQAU__crt_locale_pointers@@ABQAD@?$standard_base@DV?$stream_output_adapter@D@__crt_stdio_output@@@__crt_stdio_output@@IAE@ABV?$stream_output_adapter@D@1@AB_KABQBDABQAU__crt_locale_pointers@@ABQAD@Z 10022710 f i libucrtd:output.obj
 0001:00021760       ??$?0ABV?$stream_output_adapter@_W@__crt_stdio_output@@AB_KABQB_WABQAU__crt_locale_pointers@@ABQAD@?$format_validation_base@_WV?$stream_output_adapter@_W@__crt_stdio_output@@@__crt_stdio_output@@IAE@ABV?$stream_output_adapter@_W@1@AB_KABQB_WABQAU__crt_locale_pointers@@ABQAD@Z 10022760 f i libucrtd:output.obj
 0001:00021790       ??$?0ABV?$stream_output_adapter@_W@__crt_stdio_output@@AB_KABQB_WABQAU__crt_locale_pointers@@ABQAD@?$positional_parameter_base@_WV?$stream_output_adapter@_W@__crt_stdio_output@@@__crt_stdio_output@@IAE@ABV?$stream_output_adapter@_W@1@AB_KABQB_WABQAU__crt_locale_pointers@@ABQAD@Z 10022790 f i libucrtd:output.obj
 0001:00021810       ??$?0ABV?$stream_output_adapter@_W@__crt_stdio_output@@AB_KABQB_WABQAU__crt_locale_pointers@@ABQAD@?$standard_base@_WV?$stream_output_adapter@_W@__crt_stdio_output@@@__crt_stdio_output@@IAE@ABV?$stream_output_adapter@_W@1@AB_KABQB_WABQAU__crt_locale_pointers@@ABQAD@Z 10022810 f i libucrtd:output.obj
 0001:00021860       ??$?0ABV?$string_output_adapter@D@__crt_stdio_output@@AB_KABQBDABQAU__crt_locale_pointers@@ABQAD@?$format_validation_base@DV?$string_output_adapter@D@__crt_stdio_output@@@__crt_stdio_output@@IAE@ABV?$string_output_adapter@D@1@AB_KABQBDABQAU__crt_locale_pointers@@ABQAD@Z 10022860 f i libucrtd:output.obj
 0001:00021890       ??$?0ABV?$string_output_adapter@D@__crt_stdio_output@@AB_KABQBDABQAU__crt_locale_pointers@@ABQAD@?$positional_parameter_base@DV?$string_output_adapter@D@__crt_stdio_output@@@__crt_stdio_output@@IAE@ABV?$string_output_adapter@D@1@AB_KABQBDABQAU__crt_locale_pointers@@ABQAD@Z 10022890 f i libucrtd:output.obj
 0001:00021910       ??$?0ABV?$string_output_adapter@D@__crt_stdio_output@@AB_KABQBDABQAU__crt_locale_pointers@@ABQAD@?$standard_base@DV?$string_output_adapter@D@__crt_stdio_output@@@__crt_stdio_output@@IAE@ABV?$string_output_adapter@D@1@AB_KABQBDABQAU__crt_locale_pointers@@ABQAD@Z 10022910 f i libucrtd:output.obj
 0001:00021960       ??$?0ABV?$string_output_adapter@_W@__crt_stdio_output@@AB_KABQB_WABQAU__crt_locale_pointers@@ABQAD@?$format_validation_base@_WV?$string_output_adapter@_W@__crt_stdio_output@@@__crt_stdio_output@@IAE@ABV?$string_output_adapter@_W@1@AB_KABQB_WABQAU__crt_locale_pointers@@ABQAD@Z 10022960 f i libucrtd:output.obj
 0001:00021990       ??$?0ABV?$string_output_adapter@_W@__crt_stdio_output@@AB_KABQB_WABQAU__crt_locale_pointers@@ABQAD@?$positional_parameter_base@_WV?$string_output_adapter@_W@__crt_stdio_output@@@__crt_stdio_output@@IAE@ABV?$string_output_adapter@_W@1@AB_KABQB_WABQAU__crt_locale_pointers@@ABQAD@Z 10022990 f i libucrtd:output.obj
 0001:00021a10       ??$?0ABV?$string_output_adapter@_W@__crt_stdio_output@@AB_KABQB_WABQAU__crt_locale_pointers@@ABQAD@?$standard_base@_WV?$string_output_adapter@_W@__crt_stdio_output@@@__crt_stdio_output@@IAE@ABV?$string_output_adapter@_W@1@AB_KABQB_WABQAU__crt_locale_pointers@@ABQAD@Z 10022a10 f i libucrtd:output.obj
 0001:00021f40       ??$__crt_interlocked_read@J@@YAJPDJ@Z 10022f40 f i libucrtd:output.obj
 0001:00024ce0       ??$count@D@formatting_buffer@__crt_stdio_output@@QBEIXZ 10025ce0 f i libucrtd:output.obj
 0001:00024d20       ??$count@_W@formatting_buffer@__crt_stdio_output@@QBEIXZ 10025d20 f i libucrtd:output.obj
 0001:00024d60       ??$data@D@formatting_buffer@__crt_stdio_output@@QAEPADXZ 10025d60 f i libucrtd:output.obj
 0001:00024da0       ??$data@_W@formatting_buffer@__crt_stdio_output@@QAEPA_WXZ 10025da0 f i libucrtd:output.obj
 0001:00024de0       ??$ensure_buffer_is_big_enough@D@formatting_buffer@__crt_stdio_output@@QAE_NI@Z 10025de0 f i libucrtd:output.obj
 0001:00024ec0       ??$ensure_buffer_is_big_enough@_W@formatting_buffer@__crt_stdio_output@@QAE_NI@Z 10025ec0 f i libucrtd:output.obj
 0001:00024fb0       ??$extract_argument_from_va_list@C_J@?$positional_parameter_base@DV?$stream_output_adapter@D@__crt_stdio_output@@@__crt_stdio_output@@IAE_NAA_J@Z 10025fb0 f i libucrtd:output.obj
 0001:000250f0       ??$extract_argument_from_va_list@C_J@?$positional_parameter_base@DV?$string_output_adapter@D@__crt_stdio_output@@@__crt_stdio_output@@IAE_NAA_J@Z 100260f0 f i libucrtd:output.obj
 0001:00025230       ??$extract_argument_from_va_list@C_J@?$positional_parameter_base@_WV?$stream_output_adapter@_W@__crt_stdio_output@@@__crt_stdio_output@@IAE_NAA_J@Z 10026230 f i libucrtd:output.obj
 0001:00025370       ??$extract_argument_from_va_list@C_J@?$positional_parameter_base@_WV?$string_output_adapter@_W@__crt_stdio_output@@@__crt_stdio_output@@IAE_NAA_J@Z 10026370 f i libucrtd:output.obj
 0001:000254b0       ??$extract_argument_from_va_list@C_J@?$standard_base@DV?$stream_output_adapter@D@__crt_stdio_output@@@__crt_stdio_output@@IAE_NAA_J@Z 100264b0 f i libucrtd:output.obj
 0001:000254e0       ??$extract_argument_from_va_list@C_J@?$standard_base@DV?$string_output_adapter@D@__crt_stdio_output@@@__crt_stdio_output@@IAE_NAA_J@Z 100264e0 f i libucrtd:output.obj
 0001:00025510       ??$extract_argument_from_va_list@C_J@?$standard_base@_WV?$stream_output_adapter@_W@__crt_stdio_output@@@__crt_stdio_output@@IAE_NAA_J@Z 10026510 f i libucrtd:output.obj
 0001:00025540       ??$extract_argument_from_va_list@C_J@?$standard_base@_WV?$string_output_adapter@_W@__crt_stdio_output@@@__crt_stdio_output@@IAE_NAA_J@Z 10026540 f i libucrtd:output.obj
 0001:00025570       ??$extract_argument_from_va_list@E_J@?$positional_parameter_base@DV?$stream_output_adapter@D@__crt_stdio_output@@@__crt_stdio_output@@IAE_NAA_J@Z 10026570 f i libucrtd:output.obj
 0001:000256b0       ??$extract_argument_from_va_list@E_J@?$positional_parameter_base@DV?$string_output_adapter@D@__crt_stdio_output@@@__crt_stdio_output@@IAE_NAA_J@Z 100266b0 f i libucrtd:output.obj
 0001:000257f0       ??$extract_argument_from_va_list@E_J@?$positional_parameter_base@_WV?$stream_output_adapter@_W@__crt_stdio_output@@@__crt_stdio_output@@IAE_NAA_J@Z 100267f0 f i libucrtd:output.obj
 0001:00025930       ??$extract_argument_from_va_list@E_J@?$positional_parameter_base@_WV?$string_output_adapter@_W@__crt_stdio_output@@@__crt_stdio_output@@IAE_NAA_J@Z 10026930 f i libucrtd:output.obj
 0001:00025a70       ??$extract_argument_from_va_list@E_J@?$standard_base@DV?$stream_output_adapter@D@__crt_stdio_output@@@__crt_stdio_output@@IAE_NAA_J@Z 10026a70 f i libucrtd:output.obj
 0001:00025aa0       ??$extract_argument_from_va_list@E_J@?$standard_base@DV?$string_output_adapter@D@__crt_stdio_output@@@__crt_stdio_output@@IAE_NAA_J@Z 10026aa0 f i libucrtd:output.obj
 0001:00025ad0       ??$extract_argument_from_va_list@E_J@?$standard_base@_WV?$stream_output_adapter@_W@__crt_stdio_output@@@__crt_stdio_output@@IAE_NAA_J@Z 10026ad0 f i libucrtd:output.obj
 0001:00025b00       ??$extract_argument_from_va_list@E_J@?$standard_base@_WV?$string_output_adapter@_W@__crt_stdio_output@@@__crt_stdio_output@@IAE_NAA_J@Z 10026b00 f i libucrtd:output.obj
 0001:00025b30       ??$extract_argument_from_va_list@F_J@?$positional_parameter_base@DV?$stream_output_adapter@D@__crt_stdio_output@@@__crt_stdio_output@@IAE_NAA_J@Z 10026b30 f i libucrtd:output.obj
 0001:00025c60       ??$extract_argument_from_va_list@F_J@?$positional_parameter_base@DV?$string_output_adapter@D@__crt_stdio_output@@@__crt_stdio_output@@IAE_NAA_J@Z 10026c60 f i libucrtd:output.obj
 0001:00025d90       ??$extract_argument_from_va_list@F_J@?$positional_parameter_base@_WV?$stream_output_adapter@_W@__crt_stdio_output@@@__crt_stdio_output@@IAE_NAA_J@Z 10026d90 f i libucrtd:output.obj
 0001:00025ec0       ??$extract_argument_from_va_list@F_J@?$positional_parameter_base@_WV?$string_output_adapter@_W@__crt_stdio_output@@@__crt_stdio_output@@IAE_NAA_J@Z 10026ec0 f i libucrtd:output.obj
 0001:00025ff0       ??$extract_argument_from_va_list@F_J@?$standard_base@DV?$stream_output_adapter@D@__crt_stdio_output@@@__crt_stdio_output@@IAE_NAA_J@Z 10026ff0 f i libucrtd:output.obj
 0001:00026020       ??$extract_argument_from_va_list@F_J@?$standard_base@DV?$string_output_adapter@D@__crt_stdio_output@@@__crt_stdio_output@@IAE_NAA_J@Z 10027020 f i libucrtd:output.obj
 0001:00026050       ??$extract_argument_from_va_list@F_J@?$standard_base@_WV?$stream_output_adapter@_W@__crt_stdio_output@@@__crt_stdio_output@@IAE_NAA_J@Z 10027050 f i libucrtd:output.obj
 0001:00026080       ??$extract_argument_from_va_list@F_J@?$standard_base@_WV?$string_output_adapter@_W@__crt_stdio_output@@@__crt_stdio_output@@IAE_NAA_J@Z 10027080 f i libucrtd:output.obj
 0001:000260b0       ??$extract_argument_from_va_list@GD@?$positional_parameter_base@DV?$stream_output_adapter@D@__crt_stdio_output@@@__crt_stdio_output@@IAE_NAAD@Z 100270b0 f i libucrtd:output.obj
 0001:000261e0       ??$extract_argument_from_va_list@GD@?$positional_parameter_base@DV?$string_output_adapter@D@__crt_stdio_output@@@__crt_stdio_output@@IAE_NAAD@Z 100271e0 f i libucrtd:output.obj
 0001:00026310       ??$extract_argument_from_va_list@GD@?$standard_base@DV?$stream_output_adapter@D@__crt_stdio_output@@@__crt_stdio_output@@IAE_NAAD@Z 10027310 f i libucrtd:output.obj
 0001:00026340       ??$extract_argument_from_va_list@GD@?$standard_base@DV?$string_output_adapter@D@__crt_stdio_output@@@__crt_stdio_output@@IAE_NAAD@Z 10027340 f i libucrtd:output.obj
 0001:00026370       ??$extract_argument_from_va_list@G_J@?$positional_parameter_base@DV?$stream_output_adapter@D@__crt_stdio_output@@@__crt_stdio_output@@IAE_NAA_J@Z 10027370 f i libucrtd:output.obj
 0001:000264b0       ??$extract_argument_from_va_list@G_J@?$positional_parameter_base@DV?$string_output_adapter@D@__crt_stdio_output@@@__crt_stdio_output@@IAE_NAA_J@Z 100274b0 f i libucrtd:output.obj
 0001:000265f0       ??$extract_argument_from_va_list@G_J@?$positional_parameter_base@_WV?$stream_output_adapter@_W@__crt_stdio_output@@@__crt_stdio_output@@IAE_NAA_J@Z 100275f0 f i libucrtd:output.obj
 0001:00026730       ??$extract_argument_from_va_list@G_J@?$positional_parameter_base@_WV?$string_output_adapter@_W@__crt_stdio_output@@@__crt_stdio_output@@IAE_NAA_J@Z 10027730 f i libucrtd:output.obj
 0001:00026870       ??$extract_argument_from_va_list@G_J@?$standard_base@DV?$stream_output_adapter@D@__crt_stdio_output@@@__crt_stdio_output@@IAE_NAA_J@Z 10027870 f i libucrtd:output.obj
 0001:000268a0       ??$extract_argument_from_va_list@G_J@?$standard_base@DV?$string_output_adapter@D@__crt_stdio_output@@@__crt_stdio_output@@IAE_NAA_J@Z 100278a0 f i libucrtd:output.obj
 0001:000268d0       ??$extract_argument_from_va_list@G_J@?$standard_base@_WV?$stream_output_adapter@_W@__crt_stdio_output@@@__crt_stdio_output@@IAE_NAA_J@Z 100278d0 f i libucrtd:output.obj
 0001:00026900       ??$extract_argument_from_va_list@G_J@?$standard_base@_WV?$string_output_adapter@_W@__crt_stdio_output@@@__crt_stdio_output@@IAE_NAA_J@Z 10027900 f i libucrtd:output.obj
 0001:00026930       ??$extract_argument_from_va_list@H_J@?$positional_parameter_base@DV?$stream_output_adapter@D@__crt_stdio_output@@@__crt_stdio_output@@IAE_NAA_J@Z 10027930 f i libucrtd:output.obj
 0001:00026a60       ??$extract_argument_from_va_list@H_J@?$positional_parameter_base@DV?$string_output_adapter@D@__crt_stdio_output@@@__crt_stdio_output@@IAE_NAA_J@Z 10027a60 f i libucrtd:output.obj
 0001:00026b90       ??$extract_argument_from_va_list@H_J@?$positional_parameter_base@_WV?$stream_output_adapter@_W@__crt_stdio_output@@@__crt_stdio_output@@IAE_NAA_J@Z 10027b90 f i libucrtd:output.obj
 0001:00026cc0       ??$extract_argument_from_va_list@H_J@?$positional_parameter_base@_WV?$string_output_adapter@_W@__crt_stdio_output@@@__crt_stdio_output@@IAE_NAA_J@Z 10027cc0 f i libucrtd:output.obj
 0001:00026df0       ??$extract_argument_from_va_list@H_J@?$standard_base@DV?$stream_output_adapter@D@__crt_stdio_output@@@__crt_stdio_output@@IAE_NAA_J@Z 10027df0 f i libucrtd:output.obj
 0001:00026e20       ??$extract_argument_from_va_list@H_J@?$standard_base@DV?$string_output_adapter@D@__crt_stdio_output@@@__crt_stdio_output@@IAE_NAA_J@Z 10027e20 f i libucrtd:output.obj
 0001:00026e50       ??$extract_argument_from_va_list@H_J@?$standard_base@_WV?$stream_output_adapter@_W@__crt_stdio_output@@@__crt_stdio_output@@IAE_NAA_J@Z 10027e50 f i libucrtd:output.obj
 0001:00026e80       ??$extract_argument_from_va_list@H_J@?$standard_base@_WV?$string_output_adapter@_W@__crt_stdio_output@@@__crt_stdio_output@@IAE_NAA_J@Z 10027e80 f i libucrtd:output.obj
 0001:00026eb0       ??$extract_argument_from_va_list@I_J@?$positional_parameter_base@DV?$stream_output_adapter@D@__crt_stdio_output@@@__crt_stdio_output@@IAE_NAA_J@Z 10027eb0 f i libucrtd:output.obj
 0001:00026fe0       ??$extract_argument_from_va_list@I_J@?$positional_parameter_base@DV?$string_output_adapter@D@__crt_stdio_output@@@__crt_stdio_output@@IAE_NAA_J@Z 10027fe0 f i libucrtd:output.obj
 0001:00027110       ??$extract_argument_from_va_list@I_J@?$positional_parameter_base@_WV?$stream_output_adapter@_W@__crt_stdio_output@@@__crt_stdio_output@@IAE_NAA_J@Z 10028110 f i libucrtd:output.obj
 0001:00027240       ??$extract_argument_from_va_list@I_J@?$positional_parameter_base@_WV?$string_output_adapter@_W@__crt_stdio_output@@@__crt_stdio_output@@IAE_NAA_J@Z 10028240 f i libucrtd:output.obj
 0001:00027370       ??$extract_argument_from_va_list@I_J@?$standard_base@DV?$stream_output_adapter@D@__crt_stdio_output@@@__crt_stdio_output@@IAE_NAA_J@Z 10028370 f i libucrtd:output.obj
 0001:000273a0       ??$extract_argument_from_va_list@I_J@?$standard_base@DV?$string_output_adapter@D@__crt_stdio_output@@@__crt_stdio_output@@IAE_NAA_J@Z 100283a0 f i libucrtd:output.obj
 0001:000273d0       ??$extract_argument_from_va_list@I_J@?$standard_base@_WV?$stream_output_adapter@_W@__crt_stdio_output@@@__crt_stdio_output@@IAE_NAA_J@Z 100283d0 f i libucrtd:output.obj
 0001:00027400       ??$extract_argument_from_va_list@I_J@?$standard_base@_WV?$string_output_adapter@_W@__crt_stdio_output@@@__crt_stdio_output@@IAE_NAA_J@Z 10028400 f i libucrtd:output.obj
 0001:00027430       ??$extract_argument_from_va_list@PADPAD@?$positional_parameter_base@DV?$stream_output_adapter@D@__crt_stdio_output@@@__crt_stdio_output@@IAE_NAAPAD@Z 10028430 f i libucrtd:output.obj
 0001:00027560       ??$extract_argument_from_va_list@PADPAD@?$positional_parameter_base@DV?$string_output_adapter@D@__crt_stdio_output@@@__crt_stdio_output@@IAE_NAAPAD@Z 10028560 f i libucrtd:output.obj
 0001:00027690       ??$extract_argument_from_va_list@PADPAD@?$positional_parameter_base@_WV?$stream_output_adapter@_W@__crt_stdio_output@@@__crt_stdio_output@@IAE_NAAPAD@Z 10028690 f i libucrtd:output.obj
 0001:000277c0       ??$extract_argument_from_va_list@PADPAD@?$positional_parameter_base@_WV?$string_output_adapter@_W@__crt_stdio_output@@@__crt_stdio_output@@IAE_NAAPAD@Z 100287c0 f i libucrtd:output.obj
 0001:000278f0       ??$extract_argument_from_va_list@PADPAD@?$standard_base@DV?$stream_output_adapter@D@__crt_stdio_output@@@__crt_stdio_output@@IAE_NAAPAD@Z 100288f0 f i libucrtd:output.obj
 0001:00027920       ??$extract_argument_from_va_list@PADPAD@?$standard_base@DV?$string_output_adapter@D@__crt_stdio_output@@@__crt_stdio_output@@IAE_NAAPAD@Z 10028920 f i libucrtd:output.obj
 0001:00027950       ??$extract_argument_from_va_list@PADPAD@?$standard_base@_WV?$stream_output_adapter@_W@__crt_stdio_output@@@__crt_stdio_output@@IAE_NAAPAD@Z 10028950 f i libucrtd:output.obj
 0001:00027980       ??$extract_argument_from_va_list@PADPAD@?$standard_base@_WV?$string_output_adapter@_W@__crt_stdio_output@@@__crt_stdio_output@@IAE_NAAPAD@Z 10028980 f i libucrtd:output.obj
 0001:000280b0       ??$extract_argument_from_va_list@PAXPAX@?$positional_parameter_base@DV?$stream_output_adapter@D@__crt_stdio_output@@@__crt_stdio_output@@IAE_NAAPAX@Z 100290b0 f i libucrtd:output.obj
 0001:000281e0       ??$extract_argument_from_va_list@PAXPAX@?$positional_parameter_base@DV?$string_output_adapter@D@__crt_stdio_output@@@__crt_stdio_output@@IAE_NAAPAX@Z 100291e0 f i libucrtd:output.obj
 0001:00028310       ??$extract_argument_from_va_list@PAXPAX@?$positional_parameter_base@_WV?$stream_output_adapter@_W@__crt_stdio_output@@@__crt_stdio_output@@IAE_NAAPAX@Z 10029310 f i libucrtd:output.obj
 0001:00028440       ??$extract_argument_from_va_list@PAXPAX@?$positional_parameter_base@_WV?$string_output_adapter@_W@__crt_stdio_output@@@__crt_stdio_output@@IAE_NAAPAX@Z 10029440 f i libucrtd:output.obj
 0001:00028570       ??$extract_argument_from_va_list@PAXPAX@?$standard_base@DV?$stream_output_adapter@D@__crt_stdio_output@@@__crt_stdio_output@@IAE_NAAPAX@Z 10029570 f i libucrtd:output.obj
 0001:000285a0       ??$extract_argument_from_va_list@PAXPAX@?$standard_base@DV?$string_output_adapter@D@__crt_stdio_output@@@__crt_stdio_output@@IAE_NAAPAX@Z 100295a0 f i libucrtd:output.obj
 0001:000285d0       ??$extract_argument_from_va_list@PAXPAX@?$standard_base@_WV?$stream_output_adapter@_W@__crt_stdio_output@@@__crt_stdio_output@@IAE_NAAPAX@Z 100295d0 f i libucrtd:output.obj
 0001:00028600       ??$extract_argument_from_va_list@PAXPAX@?$standard_base@_WV?$string_output_adapter@_W@__crt_stdio_output@@@__crt_stdio_output@@IAE_NAAPAX@Z 10029600 f i libucrtd:output.obj
 0001:00028630       ??$extract_argument_from_va_list@U_CRT_DOUBLE@@U1@@?$positional_parameter_base@DV?$stream_output_adapter@D@__crt_stdio_output@@@__crt_stdio_output@@IAE_NAAU_CRT_DOUBLE@@@Z 10029630 f i libucrtd:output.obj
 0001:00028790       ??$extract_argument_from_va_list@U_CRT_DOUBLE@@U1@@?$positional_parameter_base@DV?$string_output_adapter@D@__crt_stdio_output@@@__crt_stdio_output@@IAE_NAAU_CRT_DOUBLE@@@Z 10029790 f i libucrtd:output.obj
 0001:000288f0       ??$extract_argument_from_va_list@U_CRT_DOUBLE@@U1@@?$positional_parameter_base@_WV?$stream_output_adapter@_W@__crt_stdio_output@@@__crt_stdio_output@@IAE_NAAU_CRT_DOUBLE@@@Z 100298f0 f i libucrtd:output.obj
 0001:00028a50       ??$extract_argument_from_va_list@U_CRT_DOUBLE@@U1@@?$positional_parameter_base@_WV?$string_output_adapter@_W@__crt_stdio_output@@@__crt_stdio_output@@IAE_NAAU_CRT_DOUBLE@@@Z 10029a50 f i libucrtd:output.obj
 0001:00028bb0       ??$extract_argument_from_va_list@U_CRT_DOUBLE@@U1@@?$standard_base@DV?$stream_output_adapter@D@__crt_stdio_output@@@__crt_stdio_output@@IAE_NAAU_CRT_DOUBLE@@@Z 10029bb0 f i libucrtd:output.obj
 0001:00028c00       ??$extract_argument_from_va_list@U_CRT_DOUBLE@@U1@@?$standard_base@DV?$string_output_adapter@D@__crt_stdio_output@@@__crt_stdio_output@@IAE_NAAU_CRT_DOUBLE@@@Z 10029c00 f i libucrtd:output.obj
 0001:00028c50       ??$extract_argument_from_va_list@U_CRT_DOUBLE@@U1@@?$standard_base@_WV?$stream_output_adapter@_W@__crt_stdio_output@@@__crt_stdio_output@@IAE_NAAU_CRT_DOUBLE@@@Z 10029c50 f i libucrtd:output.obj
 0001:00028ca0       ??$extract_argument_from_va_list@U_CRT_DOUBLE@@U1@@?$standard_base@_WV?$string_output_adapter@_W@__crt_stdio_output@@@__crt_stdio_output@@IAE_NAAU_CRT_DOUBLE@@@Z 10029ca0 f i libucrtd:output.obj
 0001:00028cf0       ??$extract_argument_from_va_list@_J_J@?$positional_parameter_base@DV?$stream_output_adapter@D@__crt_stdio_output@@@__crt_stdio_output@@IAE_NAA_J@Z 10029cf0 f i libucrtd:output.obj
 0001:00028e20       ??$extract_argument_from_va_list@_J_J@?$positional_parameter_base@DV?$string_output_adapter@D@__crt_stdio_output@@@__crt_stdio_output@@IAE_NAA_J@Z 10029e20 f i libucrtd:output.obj
 0001:00028f50       ??$extract_argument_from_va_list@_J_J@?$positional_parameter_base@_WV?$stream_output_adapter@_W@__crt_stdio_output@@@__crt_stdio_output@@IAE_NAA_J@Z 10029f50 f i libucrtd:output.obj
 0001:00029080       ??$extract_argument_from_va_list@_J_J@?$positional_parameter_base@_WV?$string_output_adapter@_W@__crt_stdio_output@@@__crt_stdio_output@@IAE_NAA_J@Z 1002a080 f i libucrtd:output.obj
 0001:000291b0       ??$extract_argument_from_va_list@_J_J@?$standard_base@DV?$stream_output_adapter@D@__crt_stdio_output@@@__crt_stdio_output@@IAE_NAA_J@Z 1002a1b0 f i libucrtd:output.obj
 0001:000291e0       ??$extract_argument_from_va_list@_J_J@?$standard_base@DV?$string_output_adapter@D@__crt_stdio_output@@@__crt_stdio_output@@IAE_NAA_J@Z 1002a1e0 f i libucrtd:output.obj
 0001:00029210       ??$extract_argument_from_va_list@_J_J@?$standard_base@_WV?$stream_output_adapter@_W@__crt_stdio_output@@@__crt_stdio_output@@IAE_NAA_J@Z 1002a210 f i libucrtd:output.obj
 0001:00029240       ??$extract_argument_from_va_list@_J_J@?$standard_base@_WV?$string_output_adapter@_W@__crt_stdio_output@@@__crt_stdio_output@@IAE_NAA_J@Z 1002a240 f i libucrtd:output.obj
 0001:00029270       ??$extract_argument_from_va_list@_K_J@?$positional_parameter_base@DV?$stream_output_adapter@D@__crt_stdio_output@@@__crt_stdio_output@@IAE_NAA_J@Z 1002a270 f i libucrtd:output.obj
 0001:000293a0       ??$extract_argument_from_va_list@_K_J@?$positional_parameter_base@DV?$string_output_adapter@D@__crt_stdio_output@@@__crt_stdio_output@@IAE_NAA_J@Z 1002a3a0 f i libucrtd:output.obj
 0001:000294d0       ??$extract_argument_from_va_list@_K_J@?$positional_parameter_base@_WV?$stream_output_adapter@_W@__crt_stdio_output@@@__crt_stdio_output@@IAE_NAA_J@Z 1002a4d0 f i libucrtd:output.obj
 0001:00029600       ??$extract_argument_from_va_list@_K_J@?$positional_parameter_base@_WV?$string_output_adapter@_W@__crt_stdio_output@@@__crt_stdio_output@@IAE_NAA_J@Z 1002a600 f i libucrtd:output.obj
 0001:00029730       ??$extract_argument_from_va_list@_K_J@?$standard_base@DV?$stream_output_adapter@D@__crt_stdio_output@@@__crt_stdio_output@@IAE_NAA_J@Z 1002a730 f i libucrtd:output.obj
 0001:00029760       ??$extract_argument_from_va_list@_K_J@?$standard_base@DV?$string_output_adapter@D@__crt_stdio_output@@@__crt_stdio_output@@IAE_NAA_J@Z 1002a760 f i libucrtd:output.obj
 0001:00029790       ??$extract_argument_from_va_list@_K_J@?$standard_base@_WV?$stream_output_adapter@_W@__crt_stdio_output@@@__crt_stdio_output@@IAE_NAA_J@Z 1002a790 f i libucrtd:output.obj
 0001:000297c0       ??$extract_argument_from_va_list@_K_J@?$standard_base@_WV?$string_output_adapter@_W@__crt_stdio_output@@@__crt_stdio_output@@IAE_NAA_J@Z 1002a7c0 f i libucrtd:output.obj
 0001:000297f0       ??$extract_argument_from_va_list@_W_W@?$positional_parameter_base@DV?$stream_output_adapter@D@__crt_stdio_output@@@__crt_stdio_output@@IAE_NAA_W@Z 1002a7f0 f i libucrtd:output.obj
 0001:00029920       ??$extract_argument_from_va_list@_W_W@?$positional_parameter_base@DV?$string_output_adapter@D@__crt_stdio_output@@@__crt_stdio_output@@IAE_NAA_W@Z 1002a920 f i libucrtd:output.obj
 0001:00029a50       ??$extract_argument_from_va_list@_W_W@?$positional_parameter_base@_WV?$stream_output_adapter@_W@__crt_stdio_output@@@__crt_stdio_output@@IAE_NAA_W@Z 1002aa50 f i libucrtd:output.obj
 0001:00029b80       ??$extract_argument_from_va_list@_W_W@?$positional_parameter_base@_WV?$string_output_adapter@_W@__crt_stdio_output@@@__crt_stdio_output@@IAE_NAA_W@Z 1002ab80 f i libucrtd:output.obj
 0001:00029cb0       ??$extract_argument_from_va_list@_W_W@?$standard_base@DV?$stream_output_adapter@D@__crt_stdio_output@@@__crt_stdio_output@@IAE_NAA_W@Z 1002acb0 f i libucrtd:output.obj
 0001:00029ce0       ??$extract_argument_from_va_list@_W_W@?$standard_base@DV?$string_output_adapter@D@__crt_stdio_output@@@__crt_stdio_output@@IAE_NAA_W@Z 1002ace0 f i libucrtd:output.obj
 0001:00029d10       ??$extract_argument_from_va_list@_W_W@?$standard_base@_WV?$stream_output_adapter@_W@__crt_stdio_output@@@__crt_stdio_output@@IAE_NAA_W@Z 1002ad10 f i libucrtd:output.obj
 0001:00029d40       ??$extract_argument_from_va_list@_W_W@?$standard_base@_WV?$string_output_adapter@_W@__crt_stdio_output@@@__crt_stdio_output@@IAE_NAA_W@Z 1002ad40 f i libucrtd:output.obj
 0001:00029d70       ??$get_parameter_type@D@?$positional_parameter_base@DV?$stream_output_adapter@D@__crt_stdio_output@@@__crt_stdio_output@@CA?AW4parameter_type@01@PAD@Z 1002ad70 f i libucrtd:output.obj
 0001:00029d80       ??$get_parameter_type@D@?$positional_parameter_base@DV?$string_output_adapter@D@__crt_stdio_output@@@__crt_stdio_output@@CA?AW4parameter_type@01@PAD@Z 1002ad80 f i libucrtd:output.obj
 0001:00029d90       ??$get_parameter_type@D@?$positional_parameter_base@_WV?$stream_output_adapter@_W@__crt_stdio_output@@@__crt_stdio_output@@CA?AW4parameter_type@01@PAD@Z 1002ad90 f i libucrtd:output.obj
 0001:00029da0       ??$get_parameter_type@D@?$positional_parameter_base@_WV?$string_output_adapter@_W@__crt_stdio_output@@@__crt_stdio_output@@CA?AW4parameter_type@01@PAD@Z 1002ada0 f i libucrtd:output.obj
 0001:00029df0       ??$get_parameter_type@X@?$positional_parameter_base@DV?$stream_output_adapter@D@__crt_stdio_output@@@__crt_stdio_output@@CA?AW4parameter_type@01@PAX@Z 1002adf0 f i libucrtd:output.obj
 0001:00029e00       ??$get_parameter_type@X@?$positional_parameter_base@DV?$string_output_adapter@D@__crt_stdio_output@@@__crt_stdio_output@@CA?AW4parameter_type@01@PAX@Z 1002ae00 f i libucrtd:output.obj
 0001:00029e10       ??$get_parameter_type@X@?$positional_parameter_base@_WV?$stream_output_adapter@_W@__crt_stdio_output@@@__crt_stdio_output@@CA?AW4parameter_type@01@PAX@Z 1002ae10 f i libucrtd:output.obj
 0001:00029e20       ??$get_parameter_type@X@?$positional_parameter_base@_WV?$string_output_adapter@_W@__crt_stdio_output@@@__crt_stdio_output@@CA?AW4parameter_type@01@PAX@Z 1002ae20 f i libucrtd:output.obj
 0001:00029e30       ??$is_character_specifier@D@?$positional_parameter_base@DV?$stream_output_adapter@D@__crt_stdio_output@@@__crt_stdio_output@@CA_ND@Z 1002ae30 f i libucrtd:output.obj
 0001:00029e60       ??$is_character_specifier@D@?$positional_parameter_base@DV?$string_output_adapter@D@__crt_stdio_output@@@__crt_stdio_output@@CA_ND@Z 1002ae60 f i libucrtd:output.obj
 0001:00029e90       ??$is_character_specifier@_W@?$positional_parameter_base@_WV?$stream_output_adapter@_W@__crt_stdio_output@@@__crt_stdio_output@@CA_N_W@Z 1002ae90 f i libucrtd:output.obj
 0001:00029ec0       ??$is_character_specifier@_W@?$positional_parameter_base@_WV?$string_output_adapter@_W@__crt_stdio_output@@@__crt_stdio_output@@CA_N_W@Z 1002aec0 f i libucrtd:output.obj
 0001:00029ef0       ??$is_integral_specifier@D@?$positional_parameter_base@DV?$stream_output_adapter@D@__crt_stdio_output@@@__crt_stdio_output@@CA_ND@Z 1002aef0 f i libucrtd:output.obj
 0001:00029f50       ??$is_integral_specifier@D@?$positional_parameter_base@DV?$string_output_adapter@D@__crt_stdio_output@@@__crt_stdio_output@@CA_ND@Z 1002af50 f i libucrtd:output.obj
 0001:00029fb0       ??$is_integral_specifier@_W@?$positional_parameter_base@_WV?$stream_output_adapter@_W@__crt_stdio_output@@@__crt_stdio_output@@CA_N_W@Z 1002afb0 f i libucrtd:output.obj
 0001:0002a010       ??$is_integral_specifier@_W@?$positional_parameter_base@_WV?$string_output_adapter@_W@__crt_stdio_output@@@__crt_stdio_output@@CA_N_W@Z 1002b010 f i libucrtd:output.obj
 0001:0002a070       ??$is_pointer_specifier@D@?$positional_parameter_base@DV?$stream_output_adapter@D@__crt_stdio_output@@@__crt_stdio_output@@CA_ND@Z 1002b070 f i libucrtd:output.obj
 0001:0002a0a0       ??$is_pointer_specifier@D@?$positional_parameter_base@DV?$string_output_adapter@D@__crt_stdio_output@@@__crt_stdio_output@@CA_ND@Z 1002b0a0 f i libucrtd:output.obj
 0001:0002a0d0       ??$is_pointer_specifier@_W@?$positional_parameter_base@_WV?$stream_output_adapter@_W@__crt_stdio_output@@@__crt_stdio_output@@CA_N_W@Z 1002b0d0 f i libucrtd:output.obj
 0001:0002a100       ??$is_pointer_specifier@_W@?$positional_parameter_base@_WV?$string_output_adapter@_W@__crt_stdio_output@@@__crt_stdio_output@@CA_N_W@Z 1002b100 f i libucrtd:output.obj
 0001:0002a130       ??$is_string_specifier@D@?$positional_parameter_base@DV?$stream_output_adapter@D@__crt_stdio_output@@@__crt_stdio_output@@CA_ND@Z 1002b130 f i libucrtd:output.obj
 0001:0002a160       ??$is_string_specifier@D@?$positional_parameter_base@DV?$string_output_adapter@D@__crt_stdio_output@@@__crt_stdio_output@@CA_ND@Z 1002b160 f i libucrtd:output.obj
 0001:0002a190       ??$is_string_specifier@_W@?$positional_parameter_base@_WV?$stream_output_adapter@_W@__crt_stdio_output@@@__crt_stdio_output@@CA_N_W@Z 1002b190 f i libucrtd:output.obj
 0001:0002a1c0       ??$is_string_specifier@_W@?$positional_parameter_base@_WV?$string_output_adapter@_W@__crt_stdio_output@@@__crt_stdio_output@@CA_N_W@Z 1002b1c0 f i libucrtd:output.obj
 0001:0002a1f0       ??$is_wide_character_specifier@D@__crt_stdio_output@@YA_N_KDW4length_modifier@0@@Z 1002b1f0 f i libucrtd:output.obj
 0001:0002a270       ??$is_wide_character_specifier@_W@__crt_stdio_output@@YA_N_K_WW4length_modifier@0@@Z 1002b270 f i libucrtd:output.obj
 0001:0002a330       ??$peek_va_arg@C@__crt_stdio_output@@YACPAD@Z 1002b330 f i libucrtd:output.obj
 0001:0002a350       ??$peek_va_arg@E@__crt_stdio_output@@YAEPAD@Z 1002b350 f i libucrtd:output.obj
 0001:0002a370       ??$peek_va_arg@F@__crt_stdio_output@@YAFPAD@Z 1002b370 f i libucrtd:output.obj
 0001:0002a390       ??$peek_va_arg@G@__crt_stdio_output@@YAGPAD@Z 1002b390 f i libucrtd:output.obj
 0001:0002a3b0       ??$peek_va_arg@H@__crt_stdio_output@@YAHPAD@Z 1002b3b0 f i libucrtd:output.obj
 0001:0002a3d0       ??$peek_va_arg@I@__crt_stdio_output@@YAIPAD@Z 1002b3d0 f i libucrtd:output.obj
 0001:0002a3f0       ??$peek_va_arg@PAD@__crt_stdio_output@@YAPADPAD@Z 1002b3f0 f i libucrtd:output.obj
 0001:0002a490       ??$peek_va_arg@PAX@__crt_stdio_output@@YAPAXPAD@Z 1002b490 f i libucrtd:output.obj
 0001:0002a4b0       ??$peek_va_arg@U_CRT_DOUBLE@@@__crt_stdio_output@@YA?AU_CRT_DOUBLE@@PAD@Z 1002b4b0 f i libucrtd:output.obj
 0001:0002a4d0       ??$peek_va_arg@_J@__crt_stdio_output@@YA_JPAD@Z 1002b4d0 f i libucrtd:output.obj
 0001:0002a4f0       ??$peek_va_arg@_K@__crt_stdio_output@@YA_KPAD@Z 1002b4f0 f i libucrtd:output.obj
 0001:0002a510       ??$peek_va_arg@_W@__crt_stdio_output@@YA_WPAD@Z 1002b510 f i libucrtd:output.obj
 0001:0002a530       ??$puttc_nolock@ABDPAU_iobuf@@@?$__crt_char_traits@D@@SAHABD$$QAPAU_iobuf@@@Z 1002b530 f i libucrtd:output.obj
 0001:0002a550       ??$puttc_nolock@AB_WPAU_iobuf@@@?$__crt_char_traits@_W@@SAGAB_W$$QAPAU_iobuf@@@Z 1002b550 f i libucrtd:output.obj
 0001:0002a570       ??$read_va_arg@C@__crt_stdio_output@@YACAAPAD@Z 1002b570 f i libucrtd:output.obj
 0001:0002a590       ??$read_va_arg@E@__crt_stdio_output@@YAEAAPAD@Z 1002b590 f i libucrtd:output.obj
 0001:0002a5b0       ??$read_va_arg@F@__crt_stdio_output@@YAFAAPAD@Z 1002b5b0 f i libucrtd:output.obj
 0001:0002a5d0       ??$read_va_arg@G@__crt_stdio_output@@YAGAAPAD@Z 1002b5d0 f i libucrtd:output.obj
 0001:0002a5f0       ??$read_va_arg@H@__crt_stdio_output@@YAHAAPAD@Z 1002b5f0 f i libucrtd:output.obj
 0001:0002a610       ??$read_va_arg@I@__crt_stdio_output@@YAIAAPAD@Z 1002b610 f i libucrtd:output.obj
 0001:0002a630       ??$read_va_arg@PAD@__crt_stdio_output@@YAPADAAPAD@Z 1002b630 f i libucrtd:output.obj
 0001:0002a7d0       ??$read_va_arg@PAX@__crt_stdio_output@@YAPAXAAPAD@Z 1002b7d0 f i libucrtd:output.obj
 0001:0002a7f0       ??$read_va_arg@U_CRT_DOUBLE@@@__crt_stdio_output@@YA?AU_CRT_DOUBLE@@AAPAD@Z 1002b7f0 f i libucrtd:output.obj
 0001:0002a810       ??$read_va_arg@_J@__crt_stdio_output@@YA_JAAPAD@Z 1002b810 f i libucrtd:output.obj
 0001:0002a830       ??$read_va_arg@_K@__crt_stdio_output@@YA_KAAPAD@Z 1002b830 f i libucrtd:output.obj
 0001:0002a850       ??$read_va_arg@_W@__crt_stdio_output@@YA_WAAPAD@Z 1002b850 f i libucrtd:output.obj
 0001:0002a870       ??$scratch_count@D@formatting_buffer@__crt_stdio_output@@QBEIXZ 1002b870 f i libucrtd:output.obj
 0001:0002a890       ??$scratch_data@D@formatting_buffer@__crt_stdio_output@@QAEPADXZ 1002b890 f i libucrtd:output.obj
 0001:0002a8e0       ??$tcstol@AAPBDPAPADH@?$__crt_char_traits@D@@SAJAAPBD$$QAPAPAD$$QAH@Z 1002b8e0 f i libucrtd:output.obj
 0001:0002a910       ??$tcstol@AAPB_WPAPA_WH@?$__crt_char_traits@_W@@SAJAAPB_W$$QAPAPA_W$$QAH@Z 1002b910 f i libucrtd:output.obj
 0001:0002a940       ??$tcstol@PBDPAPADH@?$__crt_char_traits@D@@SAJ$$QAPBD$$QAPAPAD$$QAH@Z 1002b940 f i libucrtd:output.obj
 0001:0002a970       ??$tcstol@PB_WPAPA_WH@?$__crt_char_traits@_W@@SAJ$$QAPB_W$$QAPAPA_W$$QAH@Z 1002b970 f i libucrtd:output.obj
 0001:0002a9a0       ??$type_case_integer_parse_into_buffer@I@?$output_processor@DV?$stream_output_adapter@D@__crt_stdio_output@@V?$format_validation_base@DV?$stream_output_adapter@D@__crt_stdio_output@@@2@@__crt_stdio_output@@AAEXII_N@Z 1002b9a0 f i libucrtd:output.obj
 0001:0002aa70       ??$type_case_integer_parse_into_buffer@I@?$output_processor@DV?$stream_output_adapter@D@__crt_stdio_output@@V?$positional_parameter_base@DV?$stream_output_adapter@D@__crt_stdio_output@@@2@@__crt_stdio_output@@AAEXII_N@Z 1002ba70 f i libucrtd:output.obj
 0001:0002ab40       ??$type_case_integer_parse_into_buffer@I@?$output_processor@DV?$stream_output_adapter@D@__crt_stdio_output@@V?$standard_base@DV?$stream_output_adapter@D@__crt_stdio_output@@@2@@__crt_stdio_output@@AAEXII_N@Z 1002bb40 f i libucrtd:output.obj
 0001:0002ac10       ??$type_case_integer_parse_into_buffer@I@?$output_processor@DV?$string_output_adapter@D@__crt_stdio_output@@V?$format_validation_base@DV?$string_output_adapter@D@__crt_stdio_output@@@2@@__crt_stdio_output@@AAEXII_N@Z 1002bc10 f i libucrtd:output.obj
 0001:0002ace0       ??$type_case_integer_parse_into_buffer@I@?$output_processor@DV?$string_output_adapter@D@__crt_stdio_output@@V?$positional_parameter_base@DV?$string_output_adapter@D@__crt_stdio_output@@@2@@__crt_stdio_output@@AAEXII_N@Z 1002bce0 f i libucrtd:output.obj
 0001:0002adb0       ??$type_case_integer_parse_into_buffer@I@?$output_processor@DV?$string_output_adapter@D@__crt_stdio_output@@V?$standard_base@DV?$string_output_adapter@D@__crt_stdio_output@@@2@@__crt_stdio_output@@AAEXII_N@Z 1002bdb0 f i libucrtd:output.obj
 0001:0002ae80       ??$type_case_integer_parse_into_buffer@I@?$output_processor@_WV?$stream_output_adapter@_W@__crt_stdio_output@@V?$format_validation_base@_WV?$stream_output_adapter@_W@__crt_stdio_output@@@2@@__crt_stdio_output@@AAEXII_N@Z 1002be80 f i libucrtd:output.obj
 0001:0002af60       ??$type_case_integer_parse_into_buffer@I@?$output_processor@_WV?$stream_output_adapter@_W@__crt_stdio_output@@V?$positional_parameter_base@_WV?$stream_output_adapter@_W@__crt_stdio_output@@@2@@__crt_stdio_output@@AAEXII_N@Z 1002bf60 f i libucrtd:output.obj
 0001:0002b040       ??$type_case_integer_parse_into_buffer@I@?$output_processor@_WV?$stream_output_adapter@_W@__crt_stdio_output@@V?$standard_base@_WV?$stream_output_adapter@_W@__crt_stdio_output@@@2@@__crt_stdio_output@@AAEXII_N@Z 1002c040 f i libucrtd:output.obj
 0001:0002b120       ??$type_case_integer_parse_into_buffer@I@?$output_processor@_WV?$string_output_adapter@_W@__crt_stdio_output@@V?$format_validation_base@_WV?$string_output_adapter@_W@__crt_stdio_output@@@2@@__crt_stdio_output@@AAEXII_N@Z 1002c120 f i libucrtd:output.obj
 0001:0002b200       ??$type_case_integer_parse_into_buffer@I@?$output_processor@_WV?$string_output_adapter@_W@__crt_stdio_output@@V?$positional_parameter_base@_WV?$string_output_adapter@_W@__crt_stdio_output@@@2@@__crt_stdio_output@@AAEXII_N@Z 1002c200 f i libucrtd:output.obj
 0001:0002b2e0       ??$type_case_integer_parse_into_buffer@I@?$output_processor@_WV?$string_output_adapter@_W@__crt_stdio_output@@V?$standard_base@_WV?$string_output_adapter@_W@__crt_stdio_output@@@2@@__crt_stdio_output@@AAEXII_N@Z 1002c2e0 f i libucrtd:output.obj
 0001:0002b3c0       ??$type_case_integer_parse_into_buffer@_K@?$output_processor@DV?$stream_output_adapter@D@__crt_stdio_output@@V?$format_validation_base@DV?$stream_output_adapter@D@__crt_stdio_output@@@2@@__crt_stdio_output@@AAEX_KI_N@Z 1002c3c0 f i libucrtd:output.obj
 0001:0002b4b0       ??$type_case_integer_parse_into_buffer@_K@?$output_processor@DV?$stream_output_adapter@D@__crt_stdio_output@@V?$positional_parameter_base@DV?$stream_output_adapter@D@__crt_stdio_output@@@2@@__crt_stdio_output@@AAEX_KI_N@Z 1002c4b0 f i libucrtd:output.obj
 0001:0002b5a0       ??$type_case_integer_parse_into_buffer@_K@?$output_processor@DV?$stream_output_adapter@D@__crt_stdio_output@@V?$standard_base@DV?$stream_output_adapter@D@__crt_stdio_output@@@2@@__crt_stdio_output@@AAEX_KI_N@Z 1002c5a0 f i libucrtd:output.obj
 0001:0002b690       ??$type_case_integer_parse_into_buffer@_K@?$output_processor@DV?$string_output_adapter@D@__crt_stdio_output@@V?$format_validation_base@DV?$string_output_adapter@D@__crt_stdio_output@@@2@@__crt_stdio_output@@AAEX_KI_N@Z 1002c690 f i libucrtd:output.obj
 0001:0002b780       ??$type_case_integer_parse_into_buffer@_K@?$output_processor@DV?$string_output_adapter@D@__crt_stdio_output@@V?$positional_parameter_base@DV?$string_output_adapter@D@__crt_stdio_output@@@2@@__crt_stdio_output@@AAEX_KI_N@Z 1002c780 f i libucrtd:output.obj
 0001:0002b870       ??$type_case_integer_parse_into_buffer@_K@?$output_processor@DV?$string_output_adapter@D@__crt_stdio_output@@V?$standard_base@DV?$string_output_adapter@D@__crt_stdio_output@@@2@@__crt_stdio_output@@AAEX_KI_N@Z 1002c870 f i libucrtd:output.obj
 0001:0002b960       ??$type_case_integer_parse_into_buffer@_K@?$output_processor@_WV?$stream_output_adapter@_W@__crt_stdio_output@@V?$format_validation_base@_WV?$stream_output_adapter@_W@__crt_stdio_output@@@2@@__crt_stdio_output@@AAEX_KI_N@Z 1002c960 f i libucrtd:output.obj
 0001:0002ba60       ??$type_case_integer_parse_into_buffer@_K@?$output_processor@_WV?$stream_output_adapter@_W@__crt_stdio_output@@V?$positional_parameter_base@_WV?$stream_output_adapter@_W@__crt_stdio_output@@@2@@__crt_stdio_output@@AAEX_KI_N@Z 1002ca60 f i libucrtd:output.obj
 0001:0002bb60       ??$type_case_integer_parse_into_buffer@_K@?$output_processor@_WV?$stream_output_adapter@_W@__crt_stdio_output@@V?$standard_base@_WV?$stream_output_adapter@_W@__crt_stdio_output@@@2@@__crt_stdio_output@@AAEX_KI_N@Z 1002cb60 f i libucrtd:output.obj
 0001:0002bc60       ??$type_case_integer_parse_into_buffer@_K@?$output_processor@_WV?$string_output_adapter@_W@__crt_stdio_output@@V?$format_validation_base@_WV?$string_output_adapter@_W@__crt_stdio_output@@@2@@__crt_stdio_output@@AAEX_KI_N@Z 1002cc60 f i libucrtd:output.obj
 0001:0002bd60       ??$type_case_integer_parse_into_buffer@_K@?$output_processor@_WV?$string_output_adapter@_W@__crt_stdio_output@@V?$positional_parameter_base@_WV?$string_output_adapter@_W@__crt_stdio_output@@@2@@__crt_stdio_output@@AAEX_KI_N@Z 1002cd60 f i libucrtd:output.obj
 0001:0002be60       ??$type_case_integer_parse_into_buffer@_K@?$output_processor@_WV?$string_output_adapter@_W@__crt_stdio_output@@V?$standard_base@_WV?$string_output_adapter@_W@__crt_stdio_output@@@2@@__crt_stdio_output@@AAEX_KI_N@Z 1002ce60 f i libucrtd:output.obj
 0001:0002bf60       ??$write_multiple_characters@V?$stream_output_adapter@D@__crt_stdio_output@@D@__crt_stdio_output@@YAXABV?$stream_output_adapter@D@0@DHQAH@Z 1002cf60 f i libucrtd:output.obj
 0001:0002bfb0       ??$write_multiple_characters@V?$stream_output_adapter@_W@__crt_stdio_output@@D@__crt_stdio_output@@YAXABV?$stream_output_adapter@_W@0@DHQAH@Z 1002cfb0 f i libucrtd:output.obj
 0001:0002c000       ??$write_multiple_characters@V?$string_output_adapter@D@__crt_stdio_output@@D@__crt_stdio_output@@YAXABV?$string_output_adapter@D@0@DHQAH@Z 1002d000 f i libucrtd:output.obj
 0001:0002c050       ??$write_multiple_characters@V?$string_output_adapter@_W@__crt_stdio_output@@D@__crt_stdio_output@@YAXABV?$string_output_adapter@_W@0@DHQAH@Z 1002d050 f i libucrtd:output.obj
 0001:0002c3a0       ??0?$common_data@D@__crt_stdio_output@@IAE@XZ 1002d3a0 f i libucrtd:output.obj
 0001:0002c450       ??0?$common_data@_W@__crt_stdio_output@@IAE@XZ 1002d450 f i libucrtd:output.obj
 0001:0002c500       ??0?$output_adapter_data@DV?$stream_output_adapter@D@__crt_stdio_output@@@__crt_stdio_output@@IAE@ABV?$stream_output_adapter@D@1@_KQBDQAU__crt_locale_pointers@@QAD@Z 1002d500 f i libucrtd:output.obj
 0001:0002c560       ??0?$output_adapter_data@DV?$string_output_adapter@D@__crt_stdio_output@@@__crt_stdio_output@@IAE@ABV?$string_output_adapter@D@1@_KQBDQAU__crt_locale_pointers@@QAD@Z 1002d560 f i libucrtd:output.obj
 0001:0002c5c0       ??0?$output_adapter_data@_WV?$stream_output_adapter@_W@__crt_stdio_output@@@__crt_stdio_output@@IAE@ABV?$stream_output_adapter@_W@1@_KQB_WQAU__crt_locale_pointers@@QAD@Z 1002d5c0 f i libucrtd:output.obj
 0001:0002c620       ??0?$output_adapter_data@_WV?$string_output_adapter@_W@__crt_stdio_output@@@__crt_stdio_output@@IAE@ABV?$string_output_adapter@_W@1@_KQB_WQAU__crt_locale_pointers@@QAD@Z 1002d620 f i libucrtd:output.obj
 0001:0002c680       ??0?$output_processor@DV?$stream_output_adapter@D@__crt_stdio_output@@V?$format_validation_base@DV?$stream_output_adapter@D@__crt_stdio_output@@@2@@__crt_stdio_output@@QAE@ABV?$stream_output_adapter@D@1@_KQBDQAU__crt_locale_pointers@@QAD@Z 1002d680 f i libucrtd:output.obj
 0001:0002c6b0       ??0?$output_processor@DV?$stream_output_adapter@D@__crt_stdio_output@@V?$positional_parameter_base@DV?$stream_output_adapter@D@__crt_stdio_output@@@2@@__crt_stdio_output@@QAE@ABV?$stream_output_adapter@D@1@_KQBDQAU__crt_locale_pointers@@QAD@Z 1002d6b0 f i libucrtd:output.obj
 0001:0002c6e0       ??0?$output_processor@DV?$stream_output_adapter@D@__crt_stdio_output@@V?$standard_base@DV?$stream_output_adapter@D@__crt_stdio_output@@@2@@__crt_stdio_output@@QAE@ABV?$stream_output_adapter@D@1@_KQBDQAU__crt_locale_pointers@@QAD@Z 1002d6e0 f i libucrtd:output.obj
 0001:0002c710       ??0?$output_processor@DV?$string_output_adapter@D@__crt_stdio_output@@V?$format_validation_base@DV?$string_output_adapter@D@__crt_stdio_output@@@2@@__crt_stdio_output@@QAE@ABV?$string_output_adapter@D@1@_KQBDQAU__crt_locale_pointers@@QAD@Z 1002d710 f i libucrtd:output.obj
 0001:0002c740       ??0?$output_processor@DV?$string_output_adapter@D@__crt_stdio_output@@V?$positional_parameter_base@DV?$string_output_adapter@D@__crt_stdio_output@@@2@@__crt_stdio_output@@QAE@ABV?$string_output_adapter@D@1@_KQBDQAU__crt_locale_pointers@@QAD@Z 1002d740 f i libucrtd:output.obj
 0001:0002c770       ??0?$output_processor@DV?$string_output_adapter@D@__crt_stdio_output@@V?$standard_base@DV?$string_output_adapter@D@__crt_stdio_output@@@2@@__crt_stdio_output@@QAE@ABV?$string_output_adapter@D@1@_KQBDQAU__crt_locale_pointers@@QAD@Z 1002d770 f i libucrtd:output.obj
 0001:0002c7a0       ??0?$output_processor@_WV?$stream_output_adapter@_W@__crt_stdio_output@@V?$format_validation_base@_WV?$stream_output_adapter@_W@__crt_stdio_output@@@2@@__crt_stdio_output@@QAE@ABV?$stream_output_adapter@_W@1@_KQB_WQAU__crt_locale_pointers@@QAD@Z 1002d7a0 f i libucrtd:output.obj
 0001:0002c7d0       ??0?$output_processor@_WV?$stream_output_adapter@_W@__crt_stdio_output@@V?$positional_parameter_base@_WV?$stream_output_adapter@_W@__crt_stdio_output@@@2@@__crt_stdio_output@@QAE@ABV?$stream_output_adapter@_W@1@_KQB_WQAU__crt_locale_pointers@@QAD@Z 1002d7d0 f i libucrtd:output.obj
 0001:0002c800       ??0?$output_processor@_WV?$stream_output_adapter@_W@__crt_stdio_output@@V?$standard_base@_WV?$stream_output_adapter@_W@__crt_stdio_output@@@2@@__crt_stdio_output@@QAE@ABV?$stream_output_adapter@_W@1@_KQB_WQAU__crt_locale_pointers@@QAD@Z 1002d800 f i libucrtd:output.obj
 0001:0002c830       ??0?$output_processor@_WV?$string_output_adapter@_W@__crt_stdio_output@@V?$format_validation_base@_WV?$string_output_adapter@_W@__crt_stdio_output@@@2@@__crt_stdio_output@@QAE@ABV?$string_output_adapter@_W@1@_KQB_WQAU__crt_locale_pointers@@QAD@Z 1002d830 f i libucrtd:output.obj
 0001:0002c860       ??0?$output_processor@_WV?$string_output_adapter@_W@__crt_stdio_output@@V?$positional_parameter_base@_WV?$string_output_adapter@_W@__crt_stdio_output@@@2@@__crt_stdio_output@@QAE@ABV?$string_output_adapter@_W@1@_KQB_WQAU__crt_locale_pointers@@QAD@Z 1002d860 f i libucrtd:output.obj
 0001:0002c890       ??0?$output_processor@_WV?$string_output_adapter@_W@__crt_stdio_output@@V?$standard_base@_WV?$string_output_adapter@_W@__crt_stdio_output@@@2@@__crt_stdio_output@@QAE@ABV?$string_output_adapter@_W@1@_KQB_WQAU__crt_locale_pointers@@QAD@Z 1002d890 f i libucrtd:output.obj
 0001:0002c8c0       ??0?$stream_output_adapter@D@__crt_stdio_output@@QAE@QAU_iobuf@@@Z 1002d8c0 f i libucrtd:output.obj
 0001:0002c8e0       ??0?$stream_output_adapter@_W@__crt_stdio_output@@QAE@QAU_iobuf@@@Z 1002d8e0 f i libucrtd:output.obj
 0001:0002c900       ??0?$string_output_adapter@D@__crt_stdio_output@@QAE@QAU?$string_output_adapter_context@D@1@@Z 1002d900 f i libucrtd:output.obj
 0001:0002c920       ??0?$string_output_adapter@_W@__crt_stdio_output@@QAE@QAU?$string_output_adapter_context@_W@1@@Z 1002d920 f i libucrtd:output.obj
 0001:0002c940       ??0_LocaleUpdate@@QAE@QAU__crt_locale_pointers@@@Z 1002d940 f i libucrtd:output.obj
 0001:0002ca20       ??0__acrt_stdio_temporary_buffering_guard@@QAE@QAU_iobuf@@@Z 1002da20 f i libucrtd:output.obj
 0001:0002ca50       ??0__crt_deferred_errno_cache@@QAE@XZ 1002da50 f i libucrtd:output.obj
 0001:0002ca70       ??0__crt_errno_guard@@QAE@QAH@Z 1002da70 f i libucrtd:output.obj
 0001:0002caa0       ??0__crt_stdio_stream@@QAE@QAU_iobuf@@@Z 1002daa0 f i libucrtd:output.obj
 0001:0002cac0       ??0formatting_buffer@__crt_stdio_output@@QAE@XZ 1002dac0 f i libucrtd:output.obj
 0001:0002caf0       ??1?$common_data@D@__crt_stdio_output@@QAE@XZ 1002daf0 f i libucrtd:output.obj
 0001:0002cb10       ??1?$common_data@_W@__crt_stdio_output@@QAE@XZ 1002db10 f i libucrtd:output.obj
 0001:0002cb30       ??1?$format_validation_base@DV?$stream_output_adapter@D@__crt_stdio_output@@@__crt_stdio_output@@QAE@XZ 1002db30 f i libucrtd:output.obj
 0001:0002cb50       ??1?$format_validation_base@DV?$string_output_adapter@D@__crt_stdio_output@@@__crt_stdio_output@@QAE@XZ 1002db50 f i libucrtd:output.obj
 0001:0002cb70       ??1?$format_validation_base@_WV?$stream_output_adapter@_W@__crt_stdio_output@@@__crt_stdio_output@@QAE@XZ 1002db70 f i libucrtd:output.obj
 0001:0002cb90       ??1?$format_validation_base@_WV?$string_output_adapter@_W@__crt_stdio_output@@@__crt_stdio_output@@QAE@XZ 1002db90 f i libucrtd:output.obj
 0001:0002cbb0       ??1?$output_adapter_data@DV?$stream_output_adapter@D@__crt_stdio_output@@@__crt_stdio_output@@QAE@XZ 1002dbb0 f i libucrtd:output.obj
 0001:0002cbd0       ??1?$output_adapter_data@DV?$string_output_adapter@D@__crt_stdio_output@@@__crt_stdio_output@@QAE@XZ 1002dbd0 f i libucrtd:output.obj
 0001:0002cbf0       ??1?$output_adapter_data@_WV?$stream_output_adapter@_W@__crt_stdio_output@@@__crt_stdio_output@@QAE@XZ 1002dbf0 f i libucrtd:output.obj
 0001:0002cc10       ??1?$output_adapter_data@_WV?$string_output_adapter@_W@__crt_stdio_output@@@__crt_stdio_output@@QAE@XZ 1002dc10 f i libucrtd:output.obj
 0001:0002cc30       ??1?$output_processor@DV?$stream_output_adapter@D@__crt_stdio_output@@V?$format_validation_base@DV?$stream_output_adapter@D@__crt_stdio_output@@@2@@__crt_stdio_output@@QAE@XZ 1002dc30 f i libucrtd:output.obj
 0001:0002cc50       ??1?$output_processor@DV?$stream_output_adapter@D@__crt_stdio_output@@V?$positional_parameter_base@DV?$stream_output_adapter@D@__crt_stdio_output@@@2@@__crt_stdio_output@@QAE@XZ 1002dc50 f i libucrtd:output.obj
 0001:0002cc70       ??1?$output_processor@DV?$stream_output_adapter@D@__crt_stdio_output@@V?$standard_base@DV?$stream_output_adapter@D@__crt_stdio_output@@@2@@__crt_stdio_output@@QAE@XZ 1002dc70 f i libucrtd:output.obj
 0001:0002cc90       ??1?$output_processor@DV?$string_output_adapter@D@__crt_stdio_output@@V?$format_validation_base@DV?$string_output_adapter@D@__crt_stdio_output@@@2@@__crt_stdio_output@@QAE@XZ 1002dc90 f i libucrtd:output.obj
 0001:0002ccb0       ??1?$output_processor@DV?$string_output_adapter@D@__crt_stdio_output@@V?$positional_parameter_base@DV?$string_output_adapter@D@__crt_stdio_output@@@2@@__crt_stdio_output@@QAE@XZ 1002dcb0 f i libucrtd:output.obj
 0001:0002ccd0       ??1?$output_processor@DV?$string_output_adapter@D@__crt_stdio_output@@V?$standard_base@DV?$string_output_adapter@D@__crt_stdio_output@@@2@@__crt_stdio_output@@QAE@XZ 1002dcd0 f i libucrtd:output.obj
 0001:0002ccf0       ??1?$output_processor@_WV?$stream_output_adapter@_W@__crt_stdio_output@@V?$format_validation_base@_WV?$stream_output_adapter@_W@__crt_stdio_output@@@2@@__crt_stdio_output@@QAE@XZ 1002dcf0 f i libucrtd:output.obj
 0001:0002cd10       ??1?$output_processor@_WV?$stream_output_adapter@_W@__crt_stdio_output@@V?$positional_parameter_base@_WV?$stream_output_adapter@_W@__crt_stdio_output@@@2@@__crt_stdio_output@@QAE@XZ 1002dd10 f i libucrtd:output.obj
 0001:0002cd30       ??1?$output_processor@_WV?$stream_output_adapter@_W@__crt_stdio_output@@V?$standard_base@_WV?$stream_output_adapter@_W@__crt_stdio_output@@@2@@__crt_stdio_output@@QAE@XZ 1002dd30 f i libucrtd:output.obj
 0001:0002cd50       ??1?$output_processor@_WV?$string_output_adapter@_W@__crt_stdio_output@@V?$format_validation_base@_WV?$string_output_adapter@_W@__crt_stdio_output@@@2@@__crt_stdio_output@@QAE@XZ 1002dd50 f i libucrtd:output.obj
 0001:0002cd70       ??1?$output_processor@_WV?$string_output_adapter@_W@__crt_stdio_output@@V?$positional_parameter_base@_WV?$string_output_adapter@_W@__crt_stdio_output@@@2@@__crt_stdio_output@@QAE@XZ 1002dd70 f i libucrtd:output.obj
 0001:0002cd90       ??1?$output_processor@_WV?$string_output_adapter@_W@__crt_stdio_output@@V?$standard_base@_WV?$string_output_adapter@_W@__crt_stdio_output@@@2@@__crt_stdio_output@@QAE@XZ 1002dd90 f i libucrtd:output.obj
 0001:0002cdb0       ??1?$positional_parameter_base@DV?$stream_output_adapter@D@__crt_stdio_output@@@__crt_stdio_output@@QAE@XZ 1002ddb0 f i libucrtd:output.obj
 0001:0002cdd0       ??1?$positional_parameter_base@DV?$string_output_adapter@D@__crt_stdio_output@@@__crt_stdio_output@@QAE@XZ 1002ddd0 f i libucrtd:output.obj
 0001:0002cdf0       ??1?$positional_parameter_base@_WV?$stream_output_adapter@_W@__crt_stdio_output@@@__crt_stdio_output@@QAE@XZ 1002ddf0 f i libucrtd:output.obj
 0001:0002ce10       ??1?$positional_parameter_base@_WV?$string_output_adapter@_W@__crt_stdio_output@@@__crt_stdio_output@@QAE@XZ 1002de10 f i libucrtd:output.obj
 0001:0002ce30       ??1?$standard_base@DV?$stream_output_adapter@D@__crt_stdio_output@@@__crt_stdio_output@@QAE@XZ 1002de30 f i libucrtd:output.obj
 0001:0002ce50       ??1?$standard_base@DV?$string_output_adapter@D@__crt_stdio_output@@@__crt_stdio_output@@QAE@XZ 1002de50 f i libucrtd:output.obj
 0001:0002ce70       ??1?$standard_base@_WV?$stream_output_adapter@_W@__crt_stdio_output@@@__crt_stdio_output@@QAE@XZ 1002de70 f i libucrtd:output.obj
 0001:0002ce90       ??1?$standard_base@_WV?$string_output_adapter@_W@__crt_stdio_output@@@__crt_stdio_output@@QAE@XZ 1002de90 f i libucrtd:output.obj
 0001:0002ceb0       ??1_LocaleUpdate@@QAE@XZ   1002deb0 f i libucrtd:output.obj
 0001:0002cef0       ??1__acrt_stdio_temporary_buffering_guard@@QAE@XZ 1002def0 f i libucrtd:output.obj
 0001:0002cf20       ??1__crt_errno_guard@@QAE@XZ 1002df20 f i libucrtd:output.obj
 0001:0002cf50       ??1formatting_buffer@__crt_stdio_output@@QAE@XZ 1002df50 f i libucrtd:output.obj
 0001:0002cf70       ??4?$__crt_unique_heap_ptr@DU__crt_internal_free_policy@@@@QAEAAV0@$$QAV0@@Z 1002df70 f i libucrtd:output.obj
 0001:0002cfa0       ??C__crt_stdio_stream@@QBEPAU__crt_stdio_stream_data@@XZ 1002dfa0 f i libucrtd:output.obj
 0001:0002d6e0       ?GetLocaleT@_LocaleUpdate@@QAEPAU__crt_locale_pointers@@XZ 1002e6e0 f i libucrtd:output.obj
 0001:0002d700       ?adjust_hexit@?$output_processor@DV?$stream_output_adapter@D@__crt_stdio_output@@V?$format_validation_base@DV?$stream_output_adapter@D@__crt_stdio_output@@@2@@__crt_stdio_output@@CADH_N@Z 1002e700 f i libucrtd:output.obj
 0001:0002d740       ?adjust_hexit@?$output_processor@DV?$stream_output_adapter@D@__crt_stdio_output@@V?$positional_parameter_base@DV?$stream_output_adapter@D@__crt_stdio_output@@@2@@__crt_stdio_output@@CADH_N@Z 1002e740 f i libucrtd:output.obj
 0001:0002d780       ?adjust_hexit@?$output_processor@DV?$stream_output_adapter@D@__crt_stdio_output@@V?$standard_base@DV?$stream_output_adapter@D@__crt_stdio_output@@@2@@__crt_stdio_output@@CADH_N@Z 1002e780 f i libucrtd:output.obj
 0001:0002d7c0       ?adjust_hexit@?$output_processor@DV?$string_output_adapter@D@__crt_stdio_output@@V?$format_validation_base@DV?$string_output_adapter@D@__crt_stdio_output@@@2@@__crt_stdio_output@@CADH_N@Z 1002e7c0 f i libucrtd:output.obj
 0001:0002d800       ?adjust_hexit@?$output_processor@DV?$string_output_adapter@D@__crt_stdio_output@@V?$positional_parameter_base@DV?$string_output_adapter@D@__crt_stdio_output@@@2@@__crt_stdio_output@@CADH_N@Z 1002e800 f i libucrtd:output.obj
 0001:0002d840       ?adjust_hexit@?$output_processor@DV?$string_output_adapter@D@__crt_stdio_output@@V?$standard_base@DV?$string_output_adapter@D@__crt_stdio_output@@@2@@__crt_stdio_output@@CADH_N@Z 1002e840 f i libucrtd:output.obj
 0001:0002d880       ?adjust_hexit@?$output_processor@_WV?$stream_output_adapter@_W@__crt_stdio_output@@V?$format_validation_base@_WV?$stream_output_adapter@_W@__crt_stdio_output@@@2@@__crt_stdio_output@@CADH_N@Z 1002e880 f i libucrtd:output.obj
 0001:0002d8c0       ?adjust_hexit@?$output_processor@_WV?$stream_output_adapter@_W@__crt_stdio_output@@V?$positional_parameter_base@_WV?$stream_output_adapter@_W@__crt_stdio_output@@@2@@__crt_stdio_output@@CADH_N@Z 1002e8c0 f i libucrtd:output.obj
 0001:0002d900       ?adjust_hexit@?$output_processor@_WV?$stream_output_adapter@_W@__crt_stdio_output@@V?$standard_base@_WV?$stream_output_adapter@_W@__crt_stdio_output@@@2@@__crt_stdio_output@@CADH_N@Z 1002e900 f i libucrtd:output.obj
 0001:0002d940       ?adjust_hexit@?$output_processor@_WV?$string_output_adapter@_W@__crt_stdio_output@@V?$format_validation_base@_WV?$string_output_adapter@_W@__crt_stdio_output@@@2@@__crt_stdio_output@@CADH_N@Z 1002e940 f i libucrtd:output.obj
 0001:0002d980       ?adjust_hexit@?$output_processor@_WV?$string_output_adapter@_W@__crt_stdio_output@@V?$positional_parameter_base@_WV?$string_output_adapter@_W@__crt_stdio_output@@@2@@__crt_stdio_output@@CADH_N@Z 1002e980 f i libucrtd:output.obj
 0001:0002d9c0       ?adjust_hexit@?$output_processor@_WV?$string_output_adapter@_W@__crt_stdio_output@@V?$standard_base@_WV?$string_output_adapter@_W@__crt_stdio_output@@@2@@__crt_stdio_output@@CADH_N@Z 1002e9c0 f i libucrtd:output.obj
 0001:0002da00       ?advance_to_next_pass@?$positional_parameter_base@DV?$stream_output_adapter@D@__crt_stdio_output@@@__crt_stdio_output@@IAE_NXZ 1002ea00 f i libucrtd:output.obj
 0001:0002daa0       ?advance_to_next_pass@?$positional_parameter_base@DV?$string_output_adapter@D@__crt_stdio_output@@@__crt_stdio_output@@IAE_NXZ 1002eaa0 f i libucrtd:output.obj
 0001:0002db40       ?advance_to_next_pass@?$positional_parameter_base@_WV?$stream_output_adapter@_W@__crt_stdio_output@@@__crt_stdio_output@@IAE_NXZ 1002eb40 f i libucrtd:output.obj
 0001:0002dbe0       ?advance_to_next_pass@?$positional_parameter_base@_WV?$string_output_adapter@_W@__crt_stdio_output@@@__crt_stdio_output@@IAE_NXZ 1002ebe0 f i libucrtd:output.obj
 0001:0002dc80       ?advance_to_next_pass@?$standard_base@DV?$stream_output_adapter@D@__crt_stdio_output@@@__crt_stdio_output@@IAE_NXZ 1002ec80 f i libucrtd:output.obj
 0001:0002dcd0       ?advance_to_next_pass@?$standard_base@DV?$string_output_adapter@D@__crt_stdio_output@@@__crt_stdio_output@@IAE_NXZ 1002ecd0 f i libucrtd:output.obj
 0001:0002dd20       ?advance_to_next_pass@?$standard_base@_WV?$stream_output_adapter@_W@__crt_stdio_output@@@__crt_stdio_output@@IAE_NXZ 1002ed20 f i libucrtd:output.obj
 0001:0002dd70       ?advance_to_next_pass@?$standard_base@_WV?$string_output_adapter@_W@__crt_stdio_output@@@__crt_stdio_output@@IAE_NXZ 1002ed70 f i libucrtd:output.obj
 0001:0002ddc0       ?crop_zeroes@__crt_stdio_output@@YAXPADQAU__crt_locale_pointers@@@Z 1002edc0 f i libucrtd:output.obj
 0001:0002dec0       ?find_next_state@?$output_processor@DV?$stream_output_adapter@D@__crt_stdio_output@@V?$format_validation_base@DV?$stream_output_adapter@D@__crt_stdio_output@@@2@@__crt_stdio_output@@ABE?AW4state@2@DW432@@Z 1002eec0 f i libucrtd:output.obj
 0001:0002df40       ?find_next_state@?$output_processor@DV?$stream_output_adapter@D@__crt_stdio_output@@V?$positional_parameter_base@DV?$stream_output_adapter@D@__crt_stdio_output@@@2@@__crt_stdio_output@@ABE?AW4state@2@DW432@@Z 1002ef40 f i libucrtd:output.obj
 0001:0002dfc0       ?find_next_state@?$output_processor@DV?$stream_output_adapter@D@__crt_stdio_output@@V?$standard_base@DV?$stream_output_adapter@D@__crt_stdio_output@@@2@@__crt_stdio_output@@ABE?AW4state@2@DW432@@Z 1002efc0 f i libucrtd:output.obj
 0001:0002e040       ?find_next_state@?$output_processor@DV?$string_output_adapter@D@__crt_stdio_output@@V?$format_validation_base@DV?$string_output_adapter@D@__crt_stdio_output@@@2@@__crt_stdio_output@@ABE?AW4state@2@DW432@@Z 1002f040 f i libucrtd:output.obj
 0001:0002e0c0       ?find_next_state@?$output_processor@DV?$string_output_adapter@D@__crt_stdio_output@@V?$positional_parameter_base@DV?$string_output_adapter@D@__crt_stdio_output@@@2@@__crt_stdio_output@@ABE?AW4state@2@DW432@@Z 1002f0c0 f i libucrtd:output.obj
 0001:0002e140       ?find_next_state@?$output_processor@DV?$string_output_adapter@D@__crt_stdio_output@@V?$standard_base@DV?$string_output_adapter@D@__crt_stdio_output@@@2@@__crt_stdio_output@@ABE?AW4state@2@DW432@@Z 1002f140 f i libucrtd:output.obj
 0001:0002e1c0       ?find_next_state@?$output_processor@_WV?$stream_output_adapter@_W@__crt_stdio_output@@V?$format_validation_base@_WV?$stream_output_adapter@_W@__crt_stdio_output@@@2@@__crt_stdio_output@@ABE?AW4state@2@_WW432@@Z 1002f1c0 f i libucrtd:output.obj
 0001:0002e240       ?find_next_state@?$output_processor@_WV?$stream_output_adapter@_W@__crt_stdio_output@@V?$positional_parameter_base@_WV?$stream_output_adapter@_W@__crt_stdio_output@@@2@@__crt_stdio_output@@ABE?AW4state@2@_WW432@@Z 1002f240 f i libucrtd:output.obj
 0001:0002e2c0       ?find_next_state@?$output_processor@_WV?$stream_output_adapter@_W@__crt_stdio_output@@V?$standard_base@_WV?$stream_output_adapter@_W@__crt_stdio_output@@@2@@__crt_stdio_output@@ABE?AW4state@2@_WW432@@Z 1002f2c0 f i libucrtd:output.obj
 0001:0002e340       ?find_next_state@?$output_processor@_WV?$string_output_adapter@_W@__crt_stdio_output@@V?$format_validation_base@_WV?$string_output_adapter@_W@__crt_stdio_output@@@2@@__crt_stdio_output@@ABE?AW4state@2@_WW432@@Z 1002f340 f i libucrtd:output.obj
 0001:0002e3c0       ?find_next_state@?$output_processor@_WV?$string_output_adapter@_W@__crt_stdio_output@@V?$positional_parameter_base@_WV?$string_output_adapter@_W@__crt_stdio_output@@@2@@__crt_stdio_output@@ABE?AW4state@2@_WW432@@Z 1002f3c0 f i libucrtd:output.obj
 0001:0002e440       ?find_next_state@?$output_processor@_WV?$string_output_adapter@_W@__crt_stdio_output@@V?$standard_base@_WV?$string_output_adapter@_W@__crt_stdio_output@@@2@@__crt_stdio_output@@ABE?AW4state@2@_WW432@@Z 1002f440 f i libucrtd:output.obj
 0001:0002e4c0       ?force_decimal_point@__crt_stdio_output@@YAXPADQAU__crt_locale_pointers@@@Z 1002f4c0 f i libucrtd:output.obj
 0001:0002e590       ?get@__crt_deferred_errno_cache@@QAEAAHXZ 1002f590 f i libucrtd:output.obj
 0001:0002e5c0       ?get_flags@__crt_stdio_stream@@QBEJXZ 1002f5c0 f i libucrtd:output.obj
 0001:0002e5e0       ?get_parameter_type@?$positional_parameter_base@DV?$stream_output_adapter@D@__crt_stdio_output@@@__crt_stdio_output@@CA?AW4parameter_type@12@F@Z 1002f5e0 f i libucrtd:output.obj
 0001:0002e5f0       ?get_parameter_type@?$positional_parameter_base@DV?$stream_output_adapter@D@__crt_stdio_output@@@__crt_stdio_output@@CA?AW4parameter_type@12@G@Z 1002f5f0 f i libucrtd:output.obj
 0001:0002e600       ?get_parameter_type@?$positional_parameter_base@DV?$stream_output_adapter@D@__crt_stdio_output@@@__crt_stdio_output@@CA?AW4parameter_type@12@H@Z 1002f600 f i libucrtd:output.obj
 0001:0002e610       ?get_parameter_type@?$positional_parameter_base@DV?$stream_output_adapter@D@__crt_stdio_output@@@__crt_stdio_output@@CA?AW4parameter_type@12@I@Z 1002f610 f i libucrtd:output.obj
 0001:0002e620       ?get_parameter_type@?$positional_parameter_base@DV?$stream_output_adapter@D@__crt_stdio_output@@@__crt_stdio_output@@CA?AW4parameter_type@12@U_CRT_DOUBLE@@@Z 1002f620 f i libucrtd:output.obj
 0001:0002e630       ?get_parameter_type@?$positional_parameter_base@DV?$stream_output_adapter@D@__crt_stdio_output@@@__crt_stdio_output@@CA?AW4parameter_type@12@_J@Z 1002f630 f i libucrtd:output.obj
 0001:0002e640       ?get_parameter_type@?$positional_parameter_base@DV?$stream_output_adapter@D@__crt_stdio_output@@@__crt_stdio_output@@CA?AW4parameter_type@12@_K@Z 1002f640 f i libucrtd:output.obj
 0001:0002e650       ?get_parameter_type@?$positional_parameter_base@DV?$stream_output_adapter@D@__crt_stdio_output@@@__crt_stdio_output@@CA?AW4parameter_type@12@_W@Z 1002f650 f i libucrtd:output.obj
 0001:0002e660       ?get_parameter_type@?$positional_parameter_base@DV?$string_output_adapter@D@__crt_stdio_output@@@__crt_stdio_output@@CA?AW4parameter_type@12@F@Z 1002f660 f i libucrtd:output.obj
 0001:0002e670       ?get_parameter_type@?$positional_parameter_base@DV?$string_output_adapter@D@__crt_stdio_output@@@__crt_stdio_output@@CA?AW4parameter_type@12@G@Z 1002f670 f i libucrtd:output.obj
 0001:0002e680       ?get_parameter_type@?$positional_parameter_base@DV?$string_output_adapter@D@__crt_stdio_output@@@__crt_stdio_output@@CA?AW4parameter_type@12@H@Z 1002f680 f i libucrtd:output.obj
 0001:0002e690       ?get_parameter_type@?$positional_parameter_base@DV?$string_output_adapter@D@__crt_stdio_output@@@__crt_stdio_output@@CA?AW4parameter_type@12@I@Z 1002f690 f i libucrtd:output.obj
 0001:0002e6a0       ?get_parameter_type@?$positional_parameter_base@DV?$string_output_adapter@D@__crt_stdio_output@@@__crt_stdio_output@@CA?AW4parameter_type@12@U_CRT_DOUBLE@@@Z 1002f6a0 f i libucrtd:output.obj
 0001:0002e6b0       ?get_parameter_type@?$positional_parameter_base@DV?$string_output_adapter@D@__crt_stdio_output@@@__crt_stdio_output@@CA?AW4parameter_type@12@_J@Z 1002f6b0 f i libucrtd:output.obj
 0001:0002e6c0       ?get_parameter_type@?$positional_parameter_base@DV?$string_output_adapter@D@__crt_stdio_output@@@__crt_stdio_output@@CA?AW4parameter_type@12@_K@Z 1002f6c0 f i libucrtd:output.obj
 0001:0002e6d0       ?get_parameter_type@?$positional_parameter_base@DV?$string_output_adapter@D@__crt_stdio_output@@@__crt_stdio_output@@CA?AW4parameter_type@12@_W@Z 1002f6d0 f i libucrtd:output.obj
 0001:0002e6e0       ?get_parameter_type@?$positional_parameter_base@_WV?$stream_output_adapter@_W@__crt_stdio_output@@@__crt_stdio_output@@CA?AW4parameter_type@12@F@Z 1002f6e0 f i libucrtd:output.obj
 0001:0002e6f0       ?get_parameter_type@?$positional_parameter_base@_WV?$stream_output_adapter@_W@__crt_stdio_output@@@__crt_stdio_output@@CA?AW4parameter_type@12@G@Z 1002f6f0 f i libucrtd:output.obj
 0001:0002e700       ?get_parameter_type@?$positional_parameter_base@_WV?$stream_output_adapter@_W@__crt_stdio_output@@@__crt_stdio_output@@CA?AW4parameter_type@12@H@Z 1002f700 f i libucrtd:output.obj
 0001:0002e710       ?get_parameter_type@?$positional_parameter_base@_WV?$stream_output_adapter@_W@__crt_stdio_output@@@__crt_stdio_output@@CA?AW4parameter_type@12@I@Z 1002f710 f i libucrtd:output.obj
 0001:0002e720       ?get_parameter_type@?$positional_parameter_base@_WV?$stream_output_adapter@_W@__crt_stdio_output@@@__crt_stdio_output@@CA?AW4parameter_type@12@U_CRT_DOUBLE@@@Z 1002f720 f i libucrtd:output.obj
 0001:0002e730       ?get_parameter_type@?$positional_parameter_base@_WV?$stream_output_adapter@_W@__crt_stdio_output@@@__crt_stdio_output@@CA?AW4parameter_type@12@_J@Z 1002f730 f i libucrtd:output.obj
 0001:0002e740       ?get_parameter_type@?$positional_parameter_base@_WV?$stream_output_adapter@_W@__crt_stdio_output@@@__crt_stdio_output@@CA?AW4parameter_type@12@_K@Z 1002f740 f i libucrtd:output.obj
 0001:0002e750       ?get_parameter_type@?$positional_parameter_base@_WV?$stream_output_adapter@_W@__crt_stdio_output@@@__crt_stdio_output@@CA?AW4parameter_type@12@_W@Z 1002f750 f i libucrtd:output.obj
 0001:0002e760       ?get_parameter_type@?$positional_parameter_base@_WV?$string_output_adapter@_W@__crt_stdio_output@@@__crt_stdio_output@@CA?AW4parameter_type@12@F@Z 1002f760 f i libucrtd:output.obj
 0001:0002e770       ?get_parameter_type@?$positional_parameter_base@_WV?$string_output_adapter@_W@__crt_stdio_output@@@__crt_stdio_output@@CA?AW4parameter_type@12@G@Z 1002f770 f i libucrtd:output.obj
 0001:0002e780       ?get_parameter_type@?$positional_parameter_base@_WV?$string_output_adapter@_W@__crt_stdio_output@@@__crt_stdio_output@@CA?AW4parameter_type@12@H@Z 1002f780 f i libucrtd:output.obj
 0001:0002e790       ?get_parameter_type@?$positional_parameter_base@_WV?$string_output_adapter@_W@__crt_stdio_output@@@__crt_stdio_output@@CA?AW4parameter_type@12@I@Z 1002f790 f i libucrtd:output.obj
 0001:0002e7a0       ?get_parameter_type@?$positional_parameter_base@_WV?$string_output_adapter@_W@__crt_stdio_output@@@__crt_stdio_output@@CA?AW4parameter_type@12@U_CRT_DOUBLE@@@Z 1002f7a0 f i libucrtd:output.obj
 0001:0002e7b0       ?get_parameter_type@?$positional_parameter_base@_WV?$string_output_adapter@_W@__crt_stdio_output@@@__crt_stdio_output@@CA?AW4parameter_type@12@_J@Z 1002f7b0 f i libucrtd:output.obj
 0001:0002e7c0       ?get_parameter_type@?$positional_parameter_base@_WV?$string_output_adapter@_W@__crt_stdio_output@@@__crt_stdio_output@@CA?AW4parameter_type@12@_K@Z 1002f7c0 f i libucrtd:output.obj
 0001:0002e7d0       ?get_parameter_type@?$positional_parameter_base@_WV?$string_output_adapter@_W@__crt_stdio_output@@@__crt_stdio_output@@CA?AW4parameter_type@12@_W@Z 1002f7d0 f i libucrtd:output.obj
 0001:0002e7e0       ?has_flag@?$output_processor@DV?$stream_output_adapter@D@__crt_stdio_output@@V?$format_validation_base@DV?$stream_output_adapter@D@__crt_stdio_output@@@2@@__crt_stdio_output@@ABE_NI@Z 1002f7e0 f i libucrtd:output.obj
 0001:0002e810       ?has_flag@?$output_processor@DV?$stream_output_adapter@D@__crt_stdio_output@@V?$positional_parameter_base@DV?$stream_output_adapter@D@__crt_stdio_output@@@2@@__crt_stdio_output@@ABE_NI@Z 1002f810 f i libucrtd:output.obj
 0001:0002e840       ?has_flag@?$output_processor@DV?$stream_output_adapter@D@__crt_stdio_output@@V?$standard_base@DV?$stream_output_adapter@D@__crt_stdio_output@@@2@@__crt_stdio_output@@ABE_NI@Z 1002f840 f i libucrtd:output.obj
 0001:0002e870       ?has_flag@?$output_processor@DV?$string_output_adapter@D@__crt_stdio_output@@V?$format_validation_base@DV?$string_output_adapter@D@__crt_stdio_output@@@2@@__crt_stdio_output@@ABE_NI@Z 1002f870 f i libucrtd:output.obj
 0001:0002e8a0       ?has_flag@?$output_processor@DV?$string_output_adapter@D@__crt_stdio_output@@V?$positional_parameter_base@DV?$string_output_adapter@D@__crt_stdio_output@@@2@@__crt_stdio_output@@ABE_NI@Z 1002f8a0 f i libucrtd:output.obj
 0001:0002e8d0       ?has_flag@?$output_processor@DV?$string_output_adapter@D@__crt_stdio_output@@V?$standard_base@DV?$string_output_adapter@D@__crt_stdio_output@@@2@@__crt_stdio_output@@ABE_NI@Z 1002f8d0 f i libucrtd:output.obj
 0001:0002e900       ?has_flag@?$output_processor@_WV?$stream_output_adapter@_W@__crt_stdio_output@@V?$format_validation_base@_WV?$stream_output_adapter@_W@__crt_stdio_output@@@2@@__crt_stdio_output@@ABE_NI@Z 1002f900 f i libucrtd:output.obj
 0001:0002e930       ?has_flag@?$output_processor@_WV?$stream_output_adapter@_W@__crt_stdio_output@@V?$positional_parameter_base@_WV?$stream_output_adapter@_W@__crt_stdio_output@@@2@@__crt_stdio_output@@ABE_NI@Z 1002f930 f i libucrtd:output.obj
 0001:0002e960       ?has_flag@?$output_processor@_WV?$stream_output_adapter@_W@__crt_stdio_output@@V?$standard_base@_WV?$stream_output_adapter@_W@__crt_stdio_output@@@2@@__crt_stdio_output@@ABE_NI@Z 1002f960 f i libucrtd:output.obj
 0001:0002e990       ?has_flag@?$output_processor@_WV?$string_output_adapter@_W@__crt_stdio_output@@V?$format_validation_base@_WV?$string_output_adapter@_W@__crt_stdio_output@@@2@@__crt_stdio_output@@ABE_NI@Z 1002f990 f i libucrtd:output.obj
 0001:0002e9c0       ?has_flag@?$output_processor@_WV?$string_output_adapter@_W@__crt_stdio_output@@V?$positional_parameter_base@_WV?$string_output_adapter@_W@__crt_stdio_output@@@2@@__crt_stdio_output@@ABE_NI@Z 1002f9c0 f i libucrtd:output.obj
 0001:0002e9f0       ?has_flag@?$output_processor@_WV?$string_output_adapter@_W@__crt_stdio_output@@V?$standard_base@_WV?$string_output_adapter@_W@__crt_stdio_output@@@2@@__crt_stdio_output@@ABE_NI@Z 1002f9f0 f i libucrtd:output.obj
 0001:0002ea20       ?is_positional_parameter_reappearance_consistent@?$positional_parameter_base@DV?$stream_output_adapter@D@__crt_stdio_output@@@__crt_stdio_output@@AAE_NABUparameter_data@12@W4parameter_type@12@DW4length_modifier@2@@Z 1002fa20 f i libucrtd:output.obj
 0001:0002ec50       ?is_positional_parameter_reappearance_consistent@?$positional_parameter_base@DV?$string_output_adapter@D@__crt_stdio_output@@@__crt_stdio_output@@AAE_NABUparameter_data@12@W4parameter_type@12@DW4length_modifier@2@@Z 1002fc50 f i libucrtd:output.obj
 0001:0002ee80       ?is_positional_parameter_reappearance_consistent@?$positional_parameter_base@_WV?$stream_output_adapter@_W@__crt_stdio_output@@@__crt_stdio_output@@AAE_NABUparameter_data@12@W4parameter_type@12@_WW4length_modifier@2@@Z 1002fe80 f i libucrtd:output.obj
 0001:0002f0b0       ?is_positional_parameter_reappearance_consistent@?$positional_parameter_base@_WV?$string_output_adapter@_W@__crt_stdio_output@@@__crt_stdio_output@@AAE_NABUparameter_data@12@W4parameter_type@12@_WW4length_modifier@2@@Z 100300b0 f i libucrtd:output.obj
 0001:0002f2e0       ?is_string_backed@__crt_stdio_stream@@QBE_NXZ 100302e0 f i libucrtd:output.obj
 0001:0002f320       ?narrow_null_string@?$output_processor@DV?$stream_output_adapter@D@__crt_stdio_output@@V?$format_validation_base@DV?$stream_output_adapter@D@__crt_stdio_output@@@2@@__crt_stdio_output@@CAPADXZ 10030320 f i libucrtd:output.obj
 0001:0002f330       ?narrow_null_string@?$output_processor@DV?$stream_output_adapter@D@__crt_stdio_output@@V?$positional_parameter_base@DV?$stream_output_adapter@D@__crt_stdio_output@@@2@@__crt_stdio_output@@CAPADXZ 10030330 f i libucrtd:output.obj
 0001:0002f340       ?narrow_null_string@?$output_processor@DV?$stream_output_adapter@D@__crt_stdio_output@@V?$standard_base@DV?$stream_output_adapter@D@__crt_stdio_output@@@2@@__crt_stdio_output@@CAPADXZ 10030340 f i libucrtd:output.obj
 0001:0002f350       ?narrow_null_string@?$output_processor@DV?$string_output_adapter@D@__crt_stdio_output@@V?$format_validation_base@DV?$string_output_adapter@D@__crt_stdio_output@@@2@@__crt_stdio_output@@CAPADXZ 10030350 f i libucrtd:output.obj
 0001:0002f360       ?narrow_null_string@?$output_processor@DV?$string_output_adapter@D@__crt_stdio_output@@V?$positional_parameter_base@DV?$string_output_adapter@D@__crt_stdio_output@@@2@@__crt_stdio_output@@CAPADXZ 10030360 f i libucrtd:output.obj
 0001:0002f370       ?narrow_null_string@?$output_processor@DV?$string_output_adapter@D@__crt_stdio_output@@V?$standard_base@DV?$string_output_adapter@D@__crt_stdio_output@@@2@@__crt_stdio_output@@CAPADXZ 10030370 f i libucrtd:output.obj
 0001:0002f380       ?narrow_null_string@?$output_processor@_WV?$stream_output_adapter@_W@__crt_stdio_output@@V?$format_validation_base@_WV?$stream_output_adapter@_W@__crt_stdio_output@@@2@@__crt_stdio_output@@CAPADXZ 10030380 f i libucrtd:output.obj
 0001:0002f390       ?narrow_null_string@?$output_processor@_WV?$stream_output_adapter@_W@__crt_stdio_output@@V?$positional_parameter_base@_WV?$stream_output_adapter@_W@__crt_stdio_output@@@2@@__crt_stdio_output@@CAPADXZ 10030390 f i libucrtd:output.obj
 0001:0002f3a0       ?narrow_null_string@?$output_processor@_WV?$stream_output_adapter@_W@__crt_stdio_output@@V?$standard_base@_WV?$stream_output_adapter@_W@__crt_stdio_output@@@2@@__crt_stdio_output@@CAPADXZ 100303a0 f i libucrtd:output.obj
 0001:0002f3b0       ?narrow_null_string@?$output_processor@_WV?$string_output_adapter@_W@__crt_stdio_output@@V?$format_validation_base@_WV?$string_output_adapter@_W@__crt_stdio_output@@@2@@__crt_stdio_output@@CAPADXZ 100303b0 f i libucrtd:output.obj
 0001:0002f3c0       ?narrow_null_string@?$output_processor@_WV?$string_output_adapter@_W@__crt_stdio_output@@V?$positional_parameter_base@_WV?$string_output_adapter@_W@__crt_stdio_output@@@2@@__crt_stdio_output@@CAPADXZ 100303c0 f i libucrtd:output.obj
 0001:0002f3d0       ?narrow_null_string@?$output_processor@_WV?$string_output_adapter@_W@__crt_stdio_output@@V?$standard_base@_WV?$string_output_adapter@_W@__crt_stdio_output@@@2@@__crt_stdio_output@@CAPADXZ 100303d0 f i libucrtd:output.obj
 0001:0002f3e0       ?parse_int_from_format_string@?$output_processor@DV?$stream_output_adapter@D@__crt_stdio_output@@V?$format_validation_base@DV?$stream_output_adapter@D@__crt_stdio_output@@@2@@__crt_stdio_output@@AAE_NQAH@Z 100303e0 f i libucrtd:output.obj
 0001:0002f4a0       ?parse_int_from_format_string@?$output_processor@DV?$stream_output_adapter@D@__crt_stdio_output@@V?$positional_parameter_base@DV?$stream_output_adapter@D@__crt_stdio_output@@@2@@__crt_stdio_output@@AAE_NQAH@Z 100304a0 f i libucrtd:output.obj
 0001:0002f560       ?parse_int_from_format_string@?$output_processor@DV?$stream_output_adapter@D@__crt_stdio_output@@V?$standard_base@DV?$stream_output_adapter@D@__crt_stdio_output@@@2@@__crt_stdio_output@@AAE_NQAH@Z 10030560 f i libucrtd:output.obj
 0001:0002f620       ?parse_int_from_format_string@?$output_processor@DV?$string_output_adapter@D@__crt_stdio_output@@V?$format_validation_base@DV?$string_output_adapter@D@__crt_stdio_output@@@2@@__crt_stdio_output@@AAE_NQAH@Z 10030620 f i libucrtd:output.obj
 0001:0002f6e0       ?parse_int_from_format_string@?$output_processor@DV?$string_output_adapter@D@__crt_stdio_output@@V?$positional_parameter_base@DV?$string_output_adapter@D@__crt_stdio_output@@@2@@__crt_stdio_output@@AAE_NQAH@Z 100306e0 f i libucrtd:output.obj
 0001:0002f7a0       ?parse_int_from_format_string@?$output_processor@DV?$string_output_adapter@D@__crt_stdio_output@@V?$standard_base@DV?$string_output_adapter@D@__crt_stdio_output@@@2@@__crt_stdio_output@@AAE_NQAH@Z 100307a0 f i libucrtd:output.obj
 0001:0002f860       ?parse_int_from_format_string@?$output_processor@_WV?$stream_output_adapter@_W@__crt_stdio_output@@V?$format_validation_base@_WV?$stream_output_adapter@_W@__crt_stdio_output@@@2@@__crt_stdio_output@@AAE_NQAH@Z 10030860 f i libucrtd:output.obj
 0001:0002f920       ?parse_int_from_format_string@?$output_processor@_WV?$stream_output_adapter@_W@__crt_stdio_output@@V?$positional_parameter_base@_WV?$stream_output_adapter@_W@__crt_stdio_output@@@2@@__crt_stdio_output@@AAE_NQAH@Z 10030920 f i libucrtd:output.obj
 0001:0002f9e0       ?parse_int_from_format_string@?$output_processor@_WV?$stream_output_adapter@_W@__crt_stdio_output@@V?$standard_base@_WV?$stream_output_adapter@_W@__crt_stdio_output@@@2@@__crt_stdio_output@@AAE_NQAH@Z 100309e0 f i libucrtd:output.obj
 0001:0002faa0       ?parse_int_from_format_string@?$output_processor@_WV?$string_output_adapter@_W@__crt_stdio_output@@V?$format_validation_base@_WV?$string_output_adapter@_W@__crt_stdio_output@@@2@@__crt_stdio_output@@AAE_NQAH@Z 10030aa0 f i libucrtd:output.obj
 0001:0002fb60       ?parse_int_from_format_string@?$output_processor@_WV?$string_output_adapter@_W@__crt_stdio_output@@V?$positional_parameter_base@_WV?$string_output_adapter@_W@__crt_stdio_output@@@2@@__crt_stdio_output@@AAE_NQAH@Z 10030b60 f i libucrtd:output.obj
 0001:0002fc20       ?parse_int_from_format_string@?$output_processor@_WV?$string_output_adapter@_W@__crt_stdio_output@@V?$standard_base@_WV?$string_output_adapter@_W@__crt_stdio_output@@@2@@__crt_stdio_output@@AAE_NQAH@Z 10030c20 f i libucrtd:output.obj
 0001:0002fce0       ?process@?$output_processor@DV?$stream_output_adapter@D@__crt_stdio_output@@V?$format_validation_base@DV?$stream_output_adapter@D@__crt_stdio_output@@@2@@__crt_stdio_output@@QAEHXZ 10030ce0 f i libucrtd:output.obj
 0001:0002ff90       ?process@?$output_processor@DV?$stream_output_adapter@D@__crt_stdio_output@@V?$positional_parameter_base@DV?$stream_output_adapter@D@__crt_stdio_output@@@2@@__crt_stdio_output@@QAEHXZ 10030f90 f i libucrtd:output.obj
 0001:00030240       ?process@?$output_processor@DV?$stream_output_adapter@D@__crt_stdio_output@@V?$standard_base@DV?$stream_output_adapter@D@__crt_stdio_output@@@2@@__crt_stdio_output@@QAEHXZ 10031240 f i libucrtd:output.obj
 0001:000304f0       ?process@?$output_processor@DV?$string_output_adapter@D@__crt_stdio_output@@V?$format_validation_base@DV?$string_output_adapter@D@__crt_stdio_output@@@2@@__crt_stdio_output@@QAEHXZ 100314f0 f i libucrtd:output.obj
 0001:000307a0       ?process@?$output_processor@DV?$string_output_adapter@D@__crt_stdio_output@@V?$positional_parameter_base@DV?$string_output_adapter@D@__crt_stdio_output@@@2@@__crt_stdio_output@@QAEHXZ 100317a0 f i libucrtd:output.obj
 0001:00030a50       ?process@?$output_processor@DV?$string_output_adapter@D@__crt_stdio_output@@V?$standard_base@DV?$string_output_adapter@D@__crt_stdio_output@@@2@@__crt_stdio_output@@QAEHXZ 10031a50 f i libucrtd:output.obj
 0001:00030d00       ?process@?$output_processor@_WV?$stream_output_adapter@_W@__crt_stdio_output@@V?$format_validation_base@_WV?$stream_output_adapter@_W@__crt_stdio_output@@@2@@__crt_stdio_output@@QAEHXZ 10031d00 f i libucrtd:output.obj
 0001:00030fb0       ?process@?$output_processor@_WV?$stream_output_adapter@_W@__crt_stdio_output@@V?$positional_parameter_base@_WV?$stream_output_adapter@_W@__crt_stdio_output@@@2@@__crt_stdio_output@@QAEHXZ 10031fb0 f i libucrtd:output.obj
 0001:00031260       ?process@?$output_processor@_WV?$stream_output_adapter@_W@__crt_stdio_output@@V?$standard_base@_WV?$stream_output_adapter@_W@__crt_stdio_output@@@2@@__crt_stdio_output@@QAEHXZ 10032260 f i libucrtd:output.obj
 0001:00031510       ?process@?$output_processor@_WV?$string_output_adapter@_W@__crt_stdio_output@@V?$format_validation_base@_WV?$string_output_adapter@_W@__crt_stdio_output@@@2@@__crt_stdio_output@@QAEHXZ 10032510 f i libucrtd:output.obj
 0001:000317c0       ?process@?$output_processor@_WV?$string_output_adapter@_W@__crt_stdio_output@@V?$positional_parameter_base@_WV?$string_output_adapter@_W@__crt_stdio_output@@@2@@__crt_stdio_output@@QAEHXZ 100327c0 f i libucrtd:output.obj
 0001:00031a70       ?process@?$output_processor@_WV?$string_output_adapter@_W@__crt_stdio_output@@V?$standard_base@_WV?$string_output_adapter@_W@__crt_stdio_output@@@2@@__crt_stdio_output@@QAEHXZ 10032a70 f i libucrtd:output.obj
 0001:00031d20       ?public_stream@__crt_stdio_stream@@QBEPAU_iobuf@@XZ 10032d20 f i libucrtd:output.obj
 0001:00031d40       ?set_flag@?$output_processor@DV?$stream_output_adapter@D@__crt_stdio_output@@V?$format_validation_base@DV?$stream_output_adapter@D@__crt_stdio_output@@@2@@__crt_stdio_output@@AAEXI@Z 10032d40 f i libucrtd:output.obj
 0001:00031d60       ?set_flag@?$output_processor@DV?$stream_output_adapter@D@__crt_stdio_output@@V?$positional_parameter_base@DV?$stream_output_adapter@D@__crt_stdio_output@@@2@@__crt_stdio_output@@AAEXI@Z 10032d60 f i libucrtd:output.obj
 0001:00031d80       ?set_flag@?$output_processor@DV?$stream_output_adapter@D@__crt_stdio_output@@V?$standard_base@DV?$stream_output_adapter@D@__crt_stdio_output@@@2@@__crt_stdio_output@@AAEXI@Z 10032d80 f i libucrtd:output.obj
 0001:00031da0       ?set_flag@?$output_processor@DV?$string_output_adapter@D@__crt_stdio_output@@V?$format_validation_base@DV?$string_output_adapter@D@__crt_stdio_output@@@2@@__crt_stdio_output@@AAEXI@Z 10032da0 f i libucrtd:output.obj
 0001:00031dc0       ?set_flag@?$output_processor@DV?$string_output_adapter@D@__crt_stdio_output@@V?$positional_parameter_base@DV?$string_output_adapter@D@__crt_stdio_output@@@2@@__crt_stdio_output@@AAEXI@Z 10032dc0 f i libucrtd:output.obj
 0001:00031de0       ?set_flag@?$output_processor@DV?$string_output_adapter@D@__crt_stdio_output@@V?$standard_base@DV?$string_output_adapter@D@__crt_stdio_output@@@2@@__crt_stdio_output@@AAEXI@Z 10032de0 f i libucrtd:output.obj
 0001:00031e00       ?set_flag@?$output_processor@_WV?$stream_output_adapter@_W@__crt_stdio_output@@V?$format_validation_base@_WV?$stream_output_adapter@_W@__crt_stdio_output@@@2@@__crt_stdio_output@@AAEXI@Z 10032e00 f i libucrtd:output.obj
 0001:00031e20       ?set_flag@?$output_processor@_WV?$stream_output_adapter@_W@__crt_stdio_output@@V?$positional_parameter_base@_WV?$stream_output_adapter@_W@__crt_stdio_output@@@2@@__crt_stdio_output@@AAEXI@Z 10032e20 f i libucrtd:output.obj
 0001:00031e40       ?set_flag@?$output_processor@_WV?$stream_output_adapter@_W@__crt_stdio_output@@V?$standard_base@_WV?$stream_output_adapter@_W@__crt_stdio_output@@@2@@__crt_stdio_output@@AAEXI@Z 10032e40 f i libucrtd:output.obj
 0001:00031e60       ?set_flag@?$output_processor@_WV?$string_output_adapter@_W@__crt_stdio_output@@V?$format_validation_base@_WV?$string_output_adapter@_W@__crt_stdio_output@@@2@@__crt_stdio_output@@AAEXI@Z 10032e60 f i libucrtd:output.obj
 0001:00031e80       ?set_flag@?$output_processor@_WV?$string_output_adapter@_W@__crt_stdio_output@@V?$positional_parameter_base@_WV?$string_output_adapter@_W@__crt_stdio_output@@@2@@__crt_stdio_output@@AAEXI@Z 10032e80 f i libucrtd:output.obj
 0001:00031ea0       ?set_flag@?$output_processor@_WV?$string_output_adapter@_W@__crt_stdio_output@@V?$standard_base@_WV?$string_output_adapter@_W@__crt_stdio_output@@@2@@__crt_stdio_output@@AAEXI@Z 10032ea0 f i libucrtd:output.obj
 0001:00031ec0       ?should_format@?$positional_parameter_base@DV?$stream_output_adapter@D@__crt_stdio_output@@@__crt_stdio_output@@IAE_NXZ 10032ec0 f i libucrtd:output.obj
 0001:00031f00       ?should_format@?$positional_parameter_base@DV?$string_output_adapter@D@__crt_stdio_output@@@__crt_stdio_output@@IAE_NXZ 10032f00 f i libucrtd:output.obj
 0001:00031f40       ?should_format@?$positional_parameter_base@_WV?$stream_output_adapter@_W@__crt_stdio_output@@@__crt_stdio_output@@IAE_NXZ 10032f40 f i libucrtd:output.obj
 0001:00031f80       ?should_format@?$positional_parameter_base@_WV?$string_output_adapter@_W@__crt_stdio_output@@@__crt_stdio_output@@IAE_NXZ 10032f80 f i libucrtd:output.obj
 0001:00031fc0       ?should_format@?$standard_base@DV?$stream_output_adapter@D@__crt_stdio_output@@@__crt_stdio_output@@IAE_NXZ 10032fc0 f i libucrtd:output.obj
 0001:00031fd0       ?should_format@?$standard_base@DV?$string_output_adapter@D@__crt_stdio_output@@@__crt_stdio_output@@IAE_NXZ 10032fd0 f i libucrtd:output.obj
 0001:00031fe0       ?should_format@?$standard_base@_WV?$stream_output_adapter@_W@__crt_stdio_output@@@__crt_stdio_output@@IAE_NXZ 10032fe0 f i libucrtd:output.obj
 0001:00031ff0       ?should_format@?$standard_base@_WV?$string_output_adapter@_W@__crt_stdio_output@@@__crt_stdio_output@@IAE_NXZ 10032ff0 f i libucrtd:output.obj
 0001:00032000       ?should_skip_normal_state_processing@?$positional_parameter_base@DV?$stream_output_adapter@D@__crt_stdio_output@@@__crt_stdio_output@@IAE_NXZ 10033000 f i libucrtd:output.obj
 0001:00032050       ?should_skip_normal_state_processing@?$positional_parameter_base@DV?$string_output_adapter@D@__crt_stdio_output@@@__crt_stdio_output@@IAE_NXZ 10033050 f i libucrtd:output.obj
 0001:000320a0       ?should_skip_normal_state_processing@?$positional_parameter_base@_WV?$stream_output_adapter@_W@__crt_stdio_output@@@__crt_stdio_output@@IAE_NXZ 100330a0 f i libucrtd:output.obj
 0001:000320f0       ?should_skip_normal_state_processing@?$positional_parameter_base@_WV?$string_output_adapter@_W@__crt_stdio_output@@@__crt_stdio_output@@IAE_NXZ 100330f0 f i libucrtd:output.obj
 0001:00032140       ?should_skip_normal_state_processing@?$standard_base@DV?$stream_output_adapter@D@__crt_stdio_output@@@__crt_stdio_output@@IAE_NXZ 10033140 f i libucrtd:output.obj
 0001:00032150       ?should_skip_normal_state_processing@?$standard_base@DV?$string_output_adapter@D@__crt_stdio_output@@@__crt_stdio_output@@IAE_NXZ 10033150 f i libucrtd:output.obj
 0001:00032160       ?should_skip_normal_state_processing@?$standard_base@_WV?$stream_output_adapter@_W@__crt_stdio_output@@@__crt_stdio_output@@IAE_NXZ 10033160 f i libucrtd:output.obj
 0001:00032170       ?should_skip_normal_state_processing@?$standard_base@_WV?$string_output_adapter@_W@__crt_stdio_output@@@__crt_stdio_output@@IAE_NXZ 10033170 f i libucrtd:output.obj
 0001:00032180       ?should_skip_type_state_output@?$positional_parameter_base@DV?$stream_output_adapter@D@__crt_stdio_output@@@__crt_stdio_output@@IBE_NXZ 10033180 f i libucrtd:output.obj
 0001:000321c0       ?should_skip_type_state_output@?$positional_parameter_base@DV?$string_output_adapter@D@__crt_stdio_output@@@__crt_stdio_output@@IBE_NXZ 100331c0 f i libucrtd:output.obj
 0001:00032200       ?should_skip_type_state_output@?$positional_parameter_base@_WV?$stream_output_adapter@_W@__crt_stdio_output@@@__crt_stdio_output@@IBE_NXZ 10033200 f i libucrtd:output.obj
 0001:00032240       ?should_skip_type_state_output@?$positional_parameter_base@_WV?$string_output_adapter@_W@__crt_stdio_output@@@__crt_stdio_output@@IBE_NXZ 10033240 f i libucrtd:output.obj
 0001:00032280       ?should_skip_type_state_output@?$standard_base@DV?$stream_output_adapter@D@__crt_stdio_output@@@__crt_stdio_output@@IBE_NXZ 10033280 f i libucrtd:output.obj
 0001:00032290       ?should_skip_type_state_output@?$standard_base@DV?$string_output_adapter@D@__crt_stdio_output@@@__crt_stdio_output@@IBE_NXZ 10033290 f i libucrtd:output.obj
 0001:000322a0       ?should_skip_type_state_output@?$standard_base@_WV?$stream_output_adapter@_W@__crt_stdio_output@@@__crt_stdio_output@@IBE_NXZ 100332a0 f i libucrtd:output.obj
 0001:000322b0       ?should_skip_type_state_output@?$standard_base@_WV?$string_output_adapter@_W@__crt_stdio_output@@@__crt_stdio_output@@IBE_NXZ 100332b0 f i libucrtd:output.obj
 0001:000322c0       ?state_case_dot@?$output_processor@DV?$stream_output_adapter@D@__crt_stdio_output@@V?$format_validation_base@DV?$stream_output_adapter@D@__crt_stdio_output@@@2@@__crt_stdio_output@@AAE_NXZ 100332c0 f i libucrtd:output.obj
 0001:000322e0       ?state_case_dot@?$output_processor@DV?$stream_output_adapter@D@__crt_stdio_output@@V?$positional_parameter_base@DV?$stream_output_adapter@D@__crt_stdio_output@@@2@@__crt_stdio_output@@AAE_NXZ 100332e0 f i libucrtd:output.obj
 0001:00032300       ?state_case_dot@?$output_processor@DV?$stream_output_adapter@D@__crt_stdio_output@@V?$standard_base@DV?$stream_output_adapter@D@__crt_stdio_output@@@2@@__crt_stdio_output@@AAE_NXZ 10033300 f i libucrtd:output.obj
 0001:00032320       ?state_case_dot@?$output_processor@DV?$string_output_adapter@D@__crt_stdio_output@@V?$format_validation_base@DV?$string_output_adapter@D@__crt_stdio_output@@@2@@__crt_stdio_output@@AAE_NXZ 10033320 f i libucrtd:output.obj
 0001:00032340       ?state_case_dot@?$output_processor@DV?$string_output_adapter@D@__crt_stdio_output@@V?$positional_parameter_base@DV?$string_output_adapter@D@__crt_stdio_output@@@2@@__crt_stdio_output@@AAE_NXZ 10033340 f i libucrtd:output.obj
 0001:00032360       ?state_case_dot@?$output_processor@DV?$string_output_adapter@D@__crt_stdio_output@@V?$standard_base@DV?$string_output_adapter@D@__crt_stdio_output@@@2@@__crt_stdio_output@@AAE_NXZ 10033360 f i libucrtd:output.obj
 0001:00032380       ?state_case_dot@?$output_processor@_WV?$stream_output_adapter@_W@__crt_stdio_output@@V?$format_validation_base@_WV?$stream_output_adapter@_W@__crt_stdio_output@@@2@@__crt_stdio_output@@AAE_NXZ 10033380 f i libucrtd:output.obj
 0001:000323a0       ?state_case_dot@?$output_processor@_WV?$stream_output_adapter@_W@__crt_stdio_output@@V?$positional_parameter_base@_WV?$stream_output_adapter@_W@__crt_stdio_output@@@2@@__crt_stdio_output@@AAE_NXZ 100333a0 f i libucrtd:output.obj
 0001:000323c0       ?state_case_dot@?$output_processor@_WV?$stream_output_adapter@_W@__crt_stdio_output@@V?$standard_base@_WV?$stream_output_adapter@_W@__crt_stdio_output@@@2@@__crt_stdio_output@@AAE_NXZ 100333c0 f i libucrtd:output.obj
 0001:000323e0       ?state_case_dot@?$output_processor@_WV?$string_output_adapter@_W@__crt_stdio_output@@V?$format_validation_base@_WV?$string_output_adapter@_W@__crt_stdio_output@@@2@@__crt_stdio_output@@AAE_NXZ 100333e0 f i libucrtd:output.obj
 0001:00032400       ?state_case_dot@?$output_processor@_WV?$string_output_adapter@_W@__crt_stdio_output@@V?$positional_parameter_base@_WV?$string_output_adapter@_W@__crt_stdio_output@@@2@@__crt_stdio_output@@AAE_NXZ 10033400 f i libucrtd:output.obj
 0001:00032420       ?state_case_dot@?$output_processor@_WV?$string_output_adapter@_W@__crt_stdio_output@@V?$standard_base@_WV?$string_output_adapter@_W@__crt_stdio_output@@@2@@__crt_stdio_output@@AAE_NXZ 10033420 f i libucrtd:output.obj
 0001:00032440       ?state_case_flag@?$output_processor@DV?$stream_output_adapter@D@__crt_stdio_output@@V?$format_validation_base@DV?$stream_output_adapter@D@__crt_stdio_output@@@2@@__crt_stdio_output@@AAE_NXZ 10033440 f i libucrtd:output.obj
 0001:000324f0       ?state_case_flag@?$output_processor@DV?$stream_output_adapter@D@__crt_stdio_output@@V?$positional_parameter_base@DV?$stream_output_adapter@D@__crt_stdio_output@@@2@@__crt_stdio_output@@AAE_NXZ 100334f0 f i libucrtd:output.obj
 0001:000325a0       ?state_case_flag@?$output_processor@DV?$stream_output_adapter@D@__crt_stdio_output@@V?$standard_base@DV?$stream_output_adapter@D@__crt_stdio_output@@@2@@__crt_stdio_output@@AAE_NXZ 100335a0 f i libucrtd:output.obj
 0001:00032650       ?state_case_flag@?$output_processor@DV?$string_output_adapter@D@__crt_stdio_output@@V?$format_validation_base@DV?$string_output_adapter@D@__crt_stdio_output@@@2@@__crt_stdio_output@@AAE_NXZ 10033650 f i libucrtd:output.obj
 0001:00032700       ?state_case_flag@?$output_processor@DV?$string_output_adapter@D@__crt_stdio_output@@V?$positional_parameter_base@DV?$string_output_adapter@D@__crt_stdio_output@@@2@@__crt_stdio_output@@AAE_NXZ 10033700 f i libucrtd:output.obj
 0001:000327b0       ?state_case_flag@?$output_processor@DV?$string_output_adapter@D@__crt_stdio_output@@V?$standard_base@DV?$string_output_adapter@D@__crt_stdio_output@@@2@@__crt_stdio_output@@AAE_NXZ 100337b0 f i libucrtd:output.obj
 0001:00032860       ?state_case_flag@?$output_processor@_WV?$stream_output_adapter@_W@__crt_stdio_output@@V?$format_validation_base@_WV?$stream_output_adapter@_W@__crt_stdio_output@@@2@@__crt_stdio_output@@AAE_NXZ 10033860 f i libucrtd:output.obj
 0001:00032910       ?state_case_flag@?$output_processor@_WV?$stream_output_adapter@_W@__crt_stdio_output@@V?$positional_parameter_base@_WV?$stream_output_adapter@_W@__crt_stdio_output@@@2@@__crt_stdio_output@@AAE_NXZ 10033910 f i libucrtd:output.obj
 0001:000329c0       ?state_case_flag@?$output_processor@_WV?$stream_output_adapter@_W@__crt_stdio_output@@V?$standard_base@_WV?$stream_output_adapter@_W@__crt_stdio_output@@@2@@__crt_stdio_output@@AAE_NXZ 100339c0 f i libucrtd:output.obj
 0001:00032a70       ?state_case_flag@?$output_processor@_WV?$string_output_adapter@_W@__crt_stdio_output@@V?$format_validation_base@_WV?$string_output_adapter@_W@__crt_stdio_output@@@2@@__crt_stdio_output@@AAE_NXZ 10033a70 f i libucrtd:output.obj
 0001:00032b20       ?state_case_flag@?$output_processor@_WV?$string_output_adapter@_W@__crt_stdio_output@@V?$positional_parameter_base@_WV?$string_output_adapter@_W@__crt_stdio_output@@@2@@__crt_stdio_output@@AAE_NXZ 10033b20 f i libucrtd:output.obj
 0001:00032bd0       ?state_case_flag@?$output_processor@_WV?$string_output_adapter@_W@__crt_stdio_output@@V?$standard_base@_WV?$string_output_adapter@_W@__crt_stdio_output@@@2@@__crt_stdio_output@@AAE_NXZ 10033bd0 f i libucrtd:output.obj
 0001:00032c80       ?state_case_normal@?$output_processor@DV?$stream_output_adapter@D@__crt_stdio_output@@V?$format_validation_base@DV?$stream_output_adapter@D@__crt_stdio_output@@@2@@__crt_stdio_output@@AAE_NXZ 10033c80 f i libucrtd:output.obj
 0001:00032d30       ?state_case_normal@?$output_processor@DV?$stream_output_adapter@D@__crt_stdio_output@@V?$positional_parameter_base@DV?$stream_output_adapter@D@__crt_stdio_output@@@2@@__crt_stdio_output@@AAE_NXZ 10033d30 f i libucrtd:output.obj
 0001:00032de0       ?state_case_normal@?$output_processor@DV?$stream_output_adapter@D@__crt_stdio_output@@V?$standard_base@DV?$stream_output_adapter@D@__crt_stdio_output@@@2@@__crt_stdio_output@@AAE_NXZ 10033de0 f i libucrtd:output.obj
 0001:00032e90       ?state_case_normal@?$output_processor@DV?$string_output_adapter@D@__crt_stdio_output@@V?$format_validation_base@DV?$string_output_adapter@D@__crt_stdio_output@@@2@@__crt_stdio_output@@AAE_NXZ 10033e90 f i libucrtd:output.obj
 0001:00032f40       ?state_case_normal@?$output_processor@DV?$string_output_adapter@D@__crt_stdio_output@@V?$positional_parameter_base@DV?$string_output_adapter@D@__crt_stdio_output@@@2@@__crt_stdio_output@@AAE_NXZ 10033f40 f i libucrtd:output.obj
 0001:00032ff0       ?state_case_normal@?$output_processor@DV?$string_output_adapter@D@__crt_stdio_output@@V?$standard_base@DV?$string_output_adapter@D@__crt_stdio_output@@@2@@__crt_stdio_output@@AAE_NXZ 10033ff0 f i libucrtd:output.obj
 0001:000330a0       ?state_case_normal@?$output_processor@_WV?$stream_output_adapter@_W@__crt_stdio_output@@V?$format_validation_base@_WV?$stream_output_adapter@_W@__crt_stdio_output@@@2@@__crt_stdio_output@@AAE_NXZ 100340a0 f i libucrtd:output.obj
 0001:00033150       ?state_case_normal@?$output_processor@_WV?$stream_output_adapter@_W@__crt_stdio_output@@V?$positional_parameter_base@_WV?$stream_output_adapter@_W@__crt_stdio_output@@@2@@__crt_stdio_output@@AAE_NXZ 10034150 f i libucrtd:output.obj
 0001:00033200       ?state_case_normal@?$output_processor@_WV?$stream_output_adapter@_W@__crt_stdio_output@@V?$standard_base@_WV?$stream_output_adapter@_W@__crt_stdio_output@@@2@@__crt_stdio_output@@AAE_NXZ 10034200 f i libucrtd:output.obj
 0001:000332b0       ?state_case_normal@?$output_processor@_WV?$string_output_adapter@_W@__crt_stdio_output@@V?$format_validation_base@_WV?$string_output_adapter@_W@__crt_stdio_output@@@2@@__crt_stdio_output@@AAE_NXZ 100342b0 f i libucrtd:output.obj
 0001:00033360       ?state_case_normal@?$output_processor@_WV?$string_output_adapter@_W@__crt_stdio_output@@V?$positional_parameter_base@_WV?$string_output_adapter@_W@__crt_stdio_output@@@2@@__crt_stdio_output@@AAE_NXZ 10034360 f i libucrtd:output.obj
 0001:00033410       ?state_case_normal@?$output_processor@_WV?$string_output_adapter@_W@__crt_stdio_output@@V?$standard_base@_WV?$string_output_adapter@_W@__crt_stdio_output@@@2@@__crt_stdio_output@@AAE_NXZ 10034410 f i libucrtd:output.obj
 0001:000334c0       ?state_case_normal_common@?$output_processor@DV?$stream_output_adapter@D@__crt_stdio_output@@V?$format_validation_base@DV?$stream_output_adapter@D@__crt_stdio_output@@@2@@__crt_stdio_output@@AAE_NXZ 100344c0 f i libucrtd:output.obj
 0001:00033510       ?state_case_normal_common@?$output_processor@DV?$stream_output_adapter@D@__crt_stdio_output@@V?$positional_parameter_base@DV?$stream_output_adapter@D@__crt_stdio_output@@@2@@__crt_stdio_output@@AAE_NXZ 10034510 f i libucrtd:output.obj
 0001:00033560       ?state_case_normal_common@?$output_processor@DV?$stream_output_adapter@D@__crt_stdio_output@@V?$standard_base@DV?$stream_output_adapter@D@__crt_stdio_output@@@2@@__crt_stdio_output@@AAE_NXZ 10034560 f i libucrtd:output.obj
 0001:000335b0       ?state_case_normal_common@?$output_processor@DV?$string_output_adapter@D@__crt_stdio_output@@V?$format_validation_base@DV?$string_output_adapter@D@__crt_stdio_output@@@2@@__crt_stdio_output@@AAE_NXZ 100345b0 f i libucrtd:output.obj
 0001:00033600       ?state_case_normal_common@?$output_processor@DV?$string_output_adapter@D@__crt_stdio_output@@V?$positional_parameter_base@DV?$string_output_adapter@D@__crt_stdio_output@@@2@@__crt_stdio_output@@AAE_NXZ 10034600 f i libucrtd:output.obj
 0001:00033650       ?state_case_normal_common@?$output_processor@DV?$string_output_adapter@D@__crt_stdio_output@@V?$standard_base@DV?$string_output_adapter@D@__crt_stdio_output@@@2@@__crt_stdio_output@@AAE_NXZ 10034650 f i libucrtd:output.obj
 0001:000336a0       ?state_case_normal_common@?$output_processor@_WV?$stream_output_adapter@_W@__crt_stdio_output@@V?$format_validation_base@_WV?$stream_output_adapter@_W@__crt_stdio_output@@@2@@__crt_stdio_output@@AAE_NXZ 100346a0 f i libucrtd:output.obj
 0001:000336f0       ?state_case_normal_common@?$output_processor@_WV?$stream_output_adapter@_W@__crt_stdio_output@@V?$positional_parameter_base@_WV?$stream_output_adapter@_W@__crt_stdio_output@@@2@@__crt_stdio_output@@AAE_NXZ 100346f0 f i libucrtd:output.obj
 0001:00033740       ?state_case_normal_common@?$output_processor@_WV?$stream_output_adapter@_W@__crt_stdio_output@@V?$standard_base@_WV?$stream_output_adapter@_W@__crt_stdio_output@@@2@@__crt_stdio_output@@AAE_NXZ 10034740 f i libucrtd:output.obj
 0001:00033790       ?state_case_normal_common@?$output_processor@_WV?$string_output_adapter@_W@__crt_stdio_output@@V?$format_validation_base@_WV?$string_output_adapter@_W@__crt_stdio_output@@@2@@__crt_stdio_output@@AAE_NXZ 10034790 f i libucrtd:output.obj
 0001:000337e0       ?state_case_normal_common@?$output_processor@_WV?$string_output_adapter@_W@__crt_stdio_output@@V?$positional_parameter_base@_WV?$string_output_adapter@_W@__crt_stdio_output@@@2@@__crt_stdio_output@@AAE_NXZ 100347e0 f i libucrtd:output.obj
 0001:00033830       ?state_case_normal_common@?$output_processor@_WV?$string_output_adapter@_W@__crt_stdio_output@@V?$standard_base@_WV?$string_output_adapter@_W@__crt_stdio_output@@@2@@__crt_stdio_output@@AAE_NXZ 10034830 f i libucrtd:output.obj
 0001:00033880       ?state_case_normal_tchar@?$output_processor@DV?$stream_output_adapter@D@__crt_stdio_output@@V?$format_validation_base@DV?$stream_output_adapter@D@__crt_stdio_output@@@2@@__crt_stdio_output@@AAE_ND@Z 10034880 f i libucrtd:output.obj
 0001:00033980       ?state_case_normal_tchar@?$output_processor@DV?$stream_output_adapter@D@__crt_stdio_output@@V?$positional_parameter_base@DV?$stream_output_adapter@D@__crt_stdio_output@@@2@@__crt_stdio_output@@AAE_ND@Z 10034980 f i libucrtd:output.obj
 0001:00033a80       ?state_case_normal_tchar@?$output_processor@DV?$stream_output_adapter@D@__crt_stdio_output@@V?$standard_base@DV?$stream_output_adapter@D@__crt_stdio_output@@@2@@__crt_stdio_output@@AAE_ND@Z 10034a80 f i libucrtd:output.obj
 0001:00033b80       ?state_case_normal_tchar@?$output_processor@DV?$string_output_adapter@D@__crt_stdio_output@@V?$format_validation_base@DV?$string_output_adapter@D@__crt_stdio_output@@@2@@__crt_stdio_output@@AAE_ND@Z 10034b80 f i libucrtd:output.obj
 0001:00033c80       ?state_case_normal_tchar@?$output_processor@DV?$string_output_adapter@D@__crt_stdio_output@@V?$positional_parameter_base@DV?$string_output_adapter@D@__crt_stdio_output@@@2@@__crt_stdio_output@@AAE_ND@Z 10034c80 f i libucrtd:output.obj
 0001:00033d80       ?state_case_normal_tchar@?$output_processor@DV?$string_output_adapter@D@__crt_stdio_output@@V?$standard_base@DV?$string_output_adapter@D@__crt_stdio_output@@@2@@__crt_stdio_output@@AAE_ND@Z 10034d80 f i libucrtd:output.obj
 0001:00033e80       ?state_case_normal_tchar@?$output_processor@_WV?$stream_output_adapter@_W@__crt_stdio_output@@V?$format_validation_base@_WV?$stream_output_adapter@_W@__crt_stdio_output@@@2@@__crt_stdio_output@@AAE_N_W@Z 10034e80 f i libucrtd:output.obj
 0001:00033ea0       ?state_case_normal_tchar@?$output_processor@_WV?$stream_output_adapter@_W@__crt_stdio_output@@V?$positional_parameter_base@_WV?$stream_output_adapter@_W@__crt_stdio_output@@@2@@__crt_stdio_output@@AAE_N_W@Z 10034ea0 f i libucrtd:output.obj
 0001:00033ec0       ?state_case_normal_tchar@?$output_processor@_WV?$stream_output_adapter@_W@__crt_stdio_output@@V?$standard_base@_WV?$stream_output_adapter@_W@__crt_stdio_output@@@2@@__crt_stdio_output@@AAE_N_W@Z 10034ec0 f i libucrtd:output.obj
 0001:00033ee0       ?state_case_normal_tchar@?$output_processor@_WV?$string_output_adapter@_W@__crt_stdio_output@@V?$format_validation_base@_WV?$string_output_adapter@_W@__crt_stdio_output@@@2@@__crt_stdio_output@@AAE_N_W@Z 10034ee0 f i libucrtd:output.obj
 0001:00033f00       ?state_case_normal_tchar@?$output_processor@_WV?$string_output_adapter@_W@__crt_stdio_output@@V?$positional_parameter_base@_WV?$string_output_adapter@_W@__crt_stdio_output@@@2@@__crt_stdio_output@@AAE_N_W@Z 10034f00 f i libucrtd:output.obj
 0001:00033f20       ?state_case_normal_tchar@?$output_processor@_WV?$string_output_adapter@_W@__crt_stdio_output@@V?$standard_base@_WV?$string_output_adapter@_W@__crt_stdio_output@@@2@@__crt_stdio_output@@AAE_N_W@Z 10034f20 f i libucrtd:output.obj
 0001:00033f40       ?state_case_percent@?$output_processor@DV?$stream_output_adapter@D@__crt_stdio_output@@V?$format_validation_base@DV?$stream_output_adapter@D@__crt_stdio_output@@@2@@__crt_stdio_output@@AAE_NXZ 10034f40 f i libucrtd:output.obj
 0001:00033f90       ?state_case_percent@?$output_processor@DV?$stream_output_adapter@D@__crt_stdio_output@@V?$positional_parameter_base@DV?$stream_output_adapter@D@__crt_stdio_output@@@2@@__crt_stdio_output@@AAE_NXZ 10034f90 f i libucrtd:output.obj
 0001:00033fe0       ?state_case_percent@?$output_processor@DV?$stream_output_adapter@D@__crt_stdio_output@@V?$standard_base@DV?$stream_output_adapter@D@__crt_stdio_output@@@2@@__crt_stdio_output@@AAE_NXZ 10034fe0 f i libucrtd:output.obj
 0001:00034030       ?state_case_percent@?$output_processor@DV?$string_output_adapter@D@__crt_stdio_output@@V?$format_validation_base@DV?$string_output_adapter@D@__crt_stdio_output@@@2@@__crt_stdio_output@@AAE_NXZ 10035030 f i libucrtd:output.obj
 0001:00034080       ?state_case_percent@?$output_processor@DV?$string_output_adapter@D@__crt_stdio_output@@V?$positional_parameter_base@DV?$string_output_adapter@D@__crt_stdio_output@@@2@@__crt_stdio_output@@AAE_NXZ 10035080 f i libucrtd:output.obj
 0001:000340d0       ?state_case_percent@?$output_processor@DV?$string_output_adapter@D@__crt_stdio_output@@V?$standard_base@DV?$string_output_adapter@D@__crt_stdio_output@@@2@@__crt_stdio_output@@AAE_NXZ 100350d0 f i libucrtd:output.obj
 0001:00034120       ?state_case_percent@?$output_processor@_WV?$stream_output_adapter@_W@__crt_stdio_output@@V?$format_validation_base@_WV?$stream_output_adapter@_W@__crt_stdio_output@@@2@@__crt_stdio_output@@AAE_NXZ 10035120 f i libucrtd:output.obj
 0001:00034170       ?state_case_percent@?$output_processor@_WV?$stream_output_adapter@_W@__crt_stdio_output@@V?$positional_parameter_base@_WV?$stream_output_adapter@_W@__crt_stdio_output@@@2@@__crt_stdio_output@@AAE_NXZ 10035170 f i libucrtd:output.obj
 0001:000341c0       ?state_case_percent@?$output_processor@_WV?$stream_output_adapter@_W@__crt_stdio_output@@V?$standard_base@_WV?$stream_output_adapter@_W@__crt_stdio_output@@@2@@__crt_stdio_output@@AAE_NXZ 100351c0 f i libucrtd:output.obj
 0001:00034210       ?state_case_percent@?$output_processor@_WV?$string_output_adapter@_W@__crt_stdio_output@@V?$format_validation_base@_WV?$string_output_adapter@_W@__crt_stdio_output@@@2@@__crt_stdio_output@@AAE_NXZ 10035210 f i libucrtd:output.obj
 0001:00034260       ?state_case_percent@?$output_processor@_WV?$string_output_adapter@_W@__crt_stdio_output@@V?$positional_parameter_base@_WV?$string_output_adapter@_W@__crt_stdio_output@@@2@@__crt_stdio_output@@AAE_NXZ 10035260 f i libucrtd:output.obj
 0001:000342b0       ?state_case_percent@?$output_processor@_WV?$string_output_adapter@_W@__crt_stdio_output@@V?$standard_base@_WV?$string_output_adapter@_W@__crt_stdio_output@@@2@@__crt_stdio_output@@AAE_NXZ 100352b0 f i libucrtd:output.obj
 0001:00034300       ?state_case_precision@?$output_processor@DV?$stream_output_adapter@D@__crt_stdio_output@@V?$format_validation_base@DV?$stream_output_adapter@D@__crt_stdio_output@@@2@@__crt_stdio_output@@AAE_NXZ 10035300 f i libucrtd:output.obj
 0001:00034370       ?state_case_precision@?$output_processor@DV?$stream_output_adapter@D@__crt_stdio_output@@V?$positional_parameter_base@DV?$stream_output_adapter@D@__crt_stdio_output@@@2@@__crt_stdio_output@@AAE_NXZ 10035370 f i libucrtd:output.obj
 0001:000343e0       ?state_case_precision@?$output_processor@DV?$stream_output_adapter@D@__crt_stdio_output@@V?$standard_base@DV?$stream_output_adapter@D@__crt_stdio_output@@@2@@__crt_stdio_output@@AAE_NXZ 100353e0 f i libucrtd:output.obj
 0001:00034450       ?state_case_precision@?$output_processor@DV?$string_output_adapter@D@__crt_stdio_output@@V?$format_validation_base@DV?$string_output_adapter@D@__crt_stdio_output@@@2@@__crt_stdio_output@@AAE_NXZ 10035450 f i libucrtd:output.obj
 0001:000344c0       ?state_case_precision@?$output_processor@DV?$string_output_adapter@D@__crt_stdio_output@@V?$positional_parameter_base@DV?$string_output_adapter@D@__crt_stdio_output@@@2@@__crt_stdio_output@@AAE_NXZ 100354c0 f i libucrtd:output.obj
 0001:00034530       ?state_case_precision@?$output_processor@DV?$string_output_adapter@D@__crt_stdio_output@@V?$standard_base@DV?$string_output_adapter@D@__crt_stdio_output@@@2@@__crt_stdio_output@@AAE_NXZ 10035530 f i libucrtd:output.obj
 0001:000345a0       ?state_case_precision@?$output_processor@_WV?$stream_output_adapter@_W@__crt_stdio_output@@V?$format_validation_base@_WV?$stream_output_adapter@_W@__crt_stdio_output@@@2@@__crt_stdio_output@@AAE_NXZ 100355a0 f i libucrtd:output.obj
 0001:00034610       ?state_case_precision@?$output_processor@_WV?$stream_output_adapter@_W@__crt_stdio_output@@V?$positional_parameter_base@_WV?$stream_output_adapter@_W@__crt_stdio_output@@@2@@__crt_stdio_output@@AAE_NXZ 10035610 f i libucrtd:output.obj
 0001:00034680       ?state_case_precision@?$output_processor@_WV?$stream_output_adapter@_W@__crt_stdio_output@@V?$standard_base@_WV?$stream_output_adapter@_W@__crt_stdio_output@@@2@@__crt_stdio_output@@AAE_NXZ 10035680 f i libucrtd:output.obj
 0001:000346f0       ?state_case_precision@?$output_processor@_WV?$string_output_adapter@_W@__crt_stdio_output@@V?$format_validation_base@_WV?$string_output_adapter@_W@__crt_stdio_output@@@2@@__crt_stdio_output@@AAE_NXZ 100356f0 f i libucrtd:output.obj
 0001:00034760       ?state_case_precision@?$output_processor@_WV?$string_output_adapter@_W@__crt_stdio_output@@V?$positional_parameter_base@_WV?$string_output_adapter@_W@__crt_stdio_output@@@2@@__crt_stdio_output@@AAE_NXZ 10035760 f i libucrtd:output.obj
 0001:000347d0       ?state_case_precision@?$output_processor@_WV?$string_output_adapter@_W@__crt_stdio_output@@V?$standard_base@_WV?$string_output_adapter@_W@__crt_stdio_output@@@2@@__crt_stdio_output@@AAE_NXZ 100357d0 f i libucrtd:output.obj
 0001:00034840       ?state_case_size@?$output_processor@DV?$stream_output_adapter@D@__crt_stdio_output@@V?$format_validation_base@DV?$stream_output_adapter@D@__crt_stdio_output@@@2@@__crt_stdio_output@@AAE_NXZ 10035840 f i libucrtd:output.obj
 0001:00034c10       ?state_case_size@?$output_processor@DV?$stream_output_adapter@D@__crt_stdio_output@@V?$positional_parameter_base@DV?$stream_output_adapter@D@__crt_stdio_output@@@2@@__crt_stdio_output@@AAE_NXZ 10035c10 f i libucrtd:output.obj
 0001:00034fe0       ?state_case_size@?$output_processor@DV?$stream_output_adapter@D@__crt_stdio_output@@V?$standard_base@DV?$stream_output_adapter@D@__crt_stdio_output@@@2@@__crt_stdio_output@@AAE_NXZ 10035fe0 f i libucrtd:output.obj
 0001:000353b0       ?state_case_size@?$output_processor@DV?$string_output_adapter@D@__crt_stdio_output@@V?$format_validation_base@DV?$string_output_adapter@D@__crt_stdio_output@@@2@@__crt_stdio_output@@AAE_NXZ 100363b0 f i libucrtd:output.obj
 0001:00035780       ?state_case_size@?$output_processor@DV?$string_output_adapter@D@__crt_stdio_output@@V?$positional_parameter_base@DV?$string_output_adapter@D@__crt_stdio_output@@@2@@__crt_stdio_output@@AAE_NXZ 10036780 f i libucrtd:output.obj
 0001:00035b50       ?state_case_size@?$output_processor@DV?$string_output_adapter@D@__crt_stdio_output@@V?$standard_base@DV?$string_output_adapter@D@__crt_stdio_output@@@2@@__crt_stdio_output@@AAE_NXZ 10036b50 f i libucrtd:output.obj
 0001:00035f20       ?state_case_size@?$output_processor@_WV?$stream_output_adapter@_W@__crt_stdio_output@@V?$format_validation_base@_WV?$stream_output_adapter@_W@__crt_stdio_output@@@2@@__crt_stdio_output@@AAE_NXZ 10036f20 f i libucrtd:output.obj
 0001:000362f0       ?state_case_size@?$output_processor@_WV?$stream_output_adapter@_W@__crt_stdio_output@@V?$positional_parameter_base@_WV?$stream_output_adapter@_W@__crt_stdio_output@@@2@@__crt_stdio_output@@AAE_NXZ 100372f0 f i libucrtd:output.obj
 0001:000366c0       ?state_case_size@?$output_processor@_WV?$stream_output_adapter@_W@__crt_stdio_output@@V?$standard_base@_WV?$stream_output_adapter@_W@__crt_stdio_output@@@2@@__crt_stdio_output@@AAE_NXZ 100376c0 f i libucrtd:output.obj
 0001:00036a90       ?state_case_size@?$output_processor@_WV?$string_output_adapter@_W@__crt_stdio_output@@V?$format_validation_base@_WV?$string_output_adapter@_W@__crt_stdio_output@@@2@@__crt_stdio_output@@AAE_NXZ 10037a90 f i libucrtd:output.obj
 0001:00036e60       ?state_case_size@?$output_processor@_WV?$string_output_adapter@_W@__crt_stdio_output@@V?$positional_parameter_base@_WV?$string_output_adapter@_W@__crt_stdio_output@@@2@@__crt_stdio_output@@AAE_NXZ 10037e60 f i libucrtd:output.obj
 0001:00037230       ?state_case_size@?$output_processor@_WV?$string_output_adapter@_W@__crt_stdio_output@@V?$standard_base@_WV?$string_output_adapter@_W@__crt_stdio_output@@@2@@__crt_stdio_output@@AAE_NXZ 10038230 f i libucrtd:output.obj
 0001:00037600       ?state_case_type@?$output_processor@DV?$stream_output_adapter@D@__crt_stdio_output@@V?$format_validation_base@DV?$stream_output_adapter@D@__crt_stdio_output@@@2@@__crt_stdio_output@@AAE_NXZ 10038600 f i libucrtd:output.obj
 0001:000379b0       ?state_case_type@?$output_processor@DV?$stream_output_adapter@D@__crt_stdio_output@@V?$positional_parameter_base@DV?$stream_output_adapter@D@__crt_stdio_output@@@2@@__crt_stdio_output@@AAE_NXZ 100389b0 f i libucrtd:output.obj
 0001:00037d60       ?state_case_type@?$output_processor@DV?$stream_output_adapter@D@__crt_stdio_output@@V?$standard_base@DV?$stream_output_adapter@D@__crt_stdio_output@@@2@@__crt_stdio_output@@AAE_NXZ 10038d60 f i libucrtd:output.obj
 0001:00038110       ?state_case_type@?$output_processor@DV?$string_output_adapter@D@__crt_stdio_output@@V?$format_validation_base@DV?$string_output_adapter@D@__crt_stdio_output@@@2@@__crt_stdio_output@@AAE_NXZ 10039110 f i libucrtd:output.obj
 0001:000384c0       ?state_case_type@?$output_processor@DV?$string_output_adapter@D@__crt_stdio_output@@V?$positional_parameter_base@DV?$string_output_adapter@D@__crt_stdio_output@@@2@@__crt_stdio_output@@AAE_NXZ 100394c0 f i libucrtd:output.obj
 0001:00038870       ?state_case_type@?$output_processor@DV?$string_output_adapter@D@__crt_stdio_output@@V?$standard_base@DV?$string_output_adapter@D@__crt_stdio_output@@@2@@__crt_stdio_output@@AAE_NXZ 10039870 f i libucrtd:output.obj
 0001:00038c20       ?state_case_type@?$output_processor@_WV?$stream_output_adapter@_W@__crt_stdio_output@@V?$format_validation_base@_WV?$stream_output_adapter@_W@__crt_stdio_output@@@2@@__crt_stdio_output@@AAE_NXZ 10039c20 f i libucrtd:output.obj
 0001:00039000       ?state_case_type@?$output_processor@_WV?$stream_output_adapter@_W@__crt_stdio_output@@V?$positional_parameter_base@_WV?$stream_output_adapter@_W@__crt_stdio_output@@@2@@__crt_stdio_output@@AAE_NXZ 1003a000 f i libucrtd:output.obj
 0001:000393e0       ?state_case_type@?$output_processor@_WV?$stream_output_adapter@_W@__crt_stdio_output@@V?$standard_base@_WV?$stream_output_adapter@_W@__crt_stdio_output@@@2@@__crt_stdio_output@@AAE_NXZ 1003a3e0 f i libucrtd:output.obj
 0001:000397c0       ?state_case_type@?$output_processor@_WV?$string_output_adapter@_W@__crt_stdio_output@@V?$format_validation_base@_WV?$string_output_adapter@_W@__crt_stdio_output@@@2@@__crt_stdio_output@@AAE_NXZ 1003a7c0 f i libucrtd:output.obj
 0001:00039ba0       ?state_case_type@?$output_processor@_WV?$string_output_adapter@_W@__crt_stdio_output@@V?$positional_parameter_base@_WV?$string_output_adapter@_W@__crt_stdio_output@@@2@@__crt_stdio_output@@AAE_NXZ 1003aba0 f i libucrtd:output.obj
 0001:00039f80       ?state_case_type@?$output_processor@_WV?$string_output_adapter@_W@__crt_stdio_output@@V?$standard_base@_WV?$string_output_adapter@_W@__crt_stdio_output@@@2@@__crt_stdio_output@@AAE_NXZ 1003af80 f i libucrtd:output.obj
 0001:0003a360       ?state_case_width@?$output_processor@DV?$stream_output_adapter@D@__crt_stdio_output@@V?$format_validation_base@DV?$stream_output_adapter@D@__crt_stdio_output@@@2@@__crt_stdio_output@@AAE_NXZ 1003b360 f i libucrtd:output.obj
 0001:0003a3e0       ?state_case_width@?$output_processor@DV?$stream_output_adapter@D@__crt_stdio_output@@V?$positional_parameter_base@DV?$stream_output_adapter@D@__crt_stdio_output@@@2@@__crt_stdio_output@@AAE_NXZ 1003b3e0 f i libucrtd:output.obj
 0001:0003a460       ?state_case_width@?$output_processor@DV?$stream_output_adapter@D@__crt_stdio_output@@V?$standard_base@DV?$stream_output_adapter@D@__crt_stdio_output@@@2@@__crt_stdio_output@@AAE_NXZ 1003b460 f i libucrtd:output.obj
 0001:0003a4e0       ?state_case_width@?$output_processor@DV?$string_output_adapter@D@__crt_stdio_output@@V?$format_validation_base@DV?$string_output_adapter@D@__crt_stdio_output@@@2@@__crt_stdio_output@@AAE_NXZ 1003b4e0 f i libucrtd:output.obj
 0001:0003a560       ?state_case_width@?$output_processor@DV?$string_output_adapter@D@__crt_stdio_output@@V?$positional_parameter_base@DV?$string_output_adapter@D@__crt_stdio_output@@@2@@__crt_stdio_output@@AAE_NXZ 1003b560 f i libucrtd:output.obj
 0001:0003a5e0       ?state_case_width@?$output_processor@DV?$string_output_adapter@D@__crt_stdio_output@@V?$standard_base@DV?$string_output_adapter@D@__crt_stdio_output@@@2@@__crt_stdio_output@@AAE_NXZ 1003b5e0 f i libucrtd:output.obj
 0001:0003a660       ?state_case_width@?$output_processor@_WV?$stream_output_adapter@_W@__crt_stdio_output@@V?$format_validation_base@_WV?$stream_output_adapter@_W@__crt_stdio_output@@@2@@__crt_stdio_output@@AAE_NXZ 1003b660 f i libucrtd:output.obj
 0001:0003a6e0       ?state_case_width@?$output_processor@_WV?$stream_output_adapter@_W@__crt_stdio_output@@V?$positional_parameter_base@_WV?$stream_output_adapter@_W@__crt_stdio_output@@@2@@__crt_stdio_output@@AAE_NXZ 1003b6e0 f i libucrtd:output.obj
 0001:0003a760       ?state_case_width@?$output_processor@_WV?$stream_output_adapter@_W@__crt_stdio_output@@V?$standard_base@_WV?$stream_output_adapter@_W@__crt_stdio_output@@@2@@__crt_stdio_output@@AAE_NXZ 1003b760 f i libucrtd:output.obj
 0001:0003a7e0       ?state_case_width@?$output_processor@_WV?$string_output_adapter@_W@__crt_stdio_output@@V?$format_validation_base@_WV?$string_output_adapter@_W@__crt_stdio_output@@@2@@__crt_stdio_output@@AAE_NXZ 1003b7e0 f i libucrtd:output.obj
 0001:0003a860       ?state_case_width@?$output_processor@_WV?$string_output_adapter@_W@__crt_stdio_output@@V?$positional_parameter_base@_WV?$string_output_adapter@_W@__crt_stdio_output@@@2@@__crt_stdio_output@@AAE_NXZ 1003b860 f i libucrtd:output.obj
 0001:0003a8e0       ?state_case_width@?$output_processor@_WV?$string_output_adapter@_W@__crt_stdio_output@@V?$standard_base@_WV?$string_output_adapter@_W@__crt_stdio_output@@@2@@__crt_stdio_output@@AAE_NXZ 1003b8e0 f i libucrtd:output.obj
 0001:0003a960       ?state_count@?$format_validation_base@DV?$stream_output_adapter@D@__crt_stdio_output@@@__crt_stdio_output@@KAIXZ 1003b960 f i libucrtd:output.obj
 0001:0003a970       ?state_count@?$format_validation_base@DV?$string_output_adapter@D@__crt_stdio_output@@@__crt_stdio_output@@KAIXZ 1003b970 f i libucrtd:output.obj
 0001:0003a980       ?state_count@?$format_validation_base@_WV?$stream_output_adapter@_W@__crt_stdio_output@@@__crt_stdio_output@@KAIXZ 1003b980 f i libucrtd:output.obj
 0001:0003a990       ?state_count@?$format_validation_base@_WV?$string_output_adapter@_W@__crt_stdio_output@@@__crt_stdio_output@@KAIXZ 1003b990 f i libucrtd:output.obj
 0001:0003a9a0       ?state_count@?$standard_base@DV?$stream_output_adapter@D@__crt_stdio_output@@@__crt_stdio_output@@KAIXZ 1003b9a0 f i libucrtd:output.obj
 0001:0003a9b0       ?state_count@?$standard_base@DV?$string_output_adapter@D@__crt_stdio_output@@@__crt_stdio_output@@KAIXZ 1003b9b0 f i libucrtd:output.obj
 0001:0003a9c0       ?state_count@?$standard_base@_WV?$stream_output_adapter@_W@__crt_stdio_output@@@__crt_stdio_output@@KAIXZ 1003b9c0 f i libucrtd:output.obj
 0001:0003a9d0       ?state_count@?$standard_base@_WV?$string_output_adapter@_W@__crt_stdio_output@@@__crt_stdio_output@@KAIXZ 1003b9d0 f i libucrtd:output.obj
 0001:0003a9e0       ?state_transition_table@?$format_validation_base@DV?$stream_output_adapter@D@__crt_stdio_output@@@__crt_stdio_output@@KAPBEXZ 1003b9e0 f i libucrtd:output.obj
 0001:0003a9f0       ?state_transition_table@?$format_validation_base@DV?$string_output_adapter@D@__crt_stdio_output@@@__crt_stdio_output@@KAPBEXZ 1003b9f0 f i libucrtd:output.obj
 0001:0003aa00       ?state_transition_table@?$format_validation_base@_WV?$stream_output_adapter@_W@__crt_stdio_output@@@__crt_stdio_output@@KAPBEXZ 1003ba00 f i libucrtd:output.obj
 0001:0003aa10       ?state_transition_table@?$format_validation_base@_WV?$string_output_adapter@_W@__crt_stdio_output@@@__crt_stdio_output@@KAPBEXZ 1003ba10 f i libucrtd:output.obj
 0001:0003aa20       ?state_transition_table@?$standard_base@DV?$stream_output_adapter@D@__crt_stdio_output@@@__crt_stdio_output@@KAPBEXZ 1003ba20 f i libucrtd:output.obj
 0001:0003aa30       ?state_transition_table@?$standard_base@DV?$string_output_adapter@D@__crt_stdio_output@@@__crt_stdio_output@@KAPBEXZ 1003ba30 f i libucrtd:output.obj
 0001:0003aa40       ?state_transition_table@?$standard_base@_WV?$stream_output_adapter@_W@__crt_stdio_output@@@__crt_stdio_output@@KAPBEXZ 1003ba40 f i libucrtd:output.obj
 0001:0003aa50       ?state_transition_table@?$standard_base@_WV?$string_output_adapter@_W@__crt_stdio_output@@@__crt_stdio_output@@KAPBEXZ 1003ba50 f i libucrtd:output.obj
 0001:0003aa60       ?tchar_string@?$common_data@D@__crt_stdio_output@@IAEAAPADD@Z 1003ba60 f i libucrtd:output.obj
 0001:0003aa80       ?tchar_string@?$common_data@D@__crt_stdio_output@@IAEAAPADXZ 1003ba80 f i libucrtd:output.obj
 0001:0003aaa0       ?tchar_string@?$common_data@_W@__crt_stdio_output@@IAEAAPA_WXZ 1003baa0 f i libucrtd:output.obj
 0001:0003aac0       ?tchar_string@?$common_data@_W@__crt_stdio_output@@IAEAAPA_W_W@Z 1003bac0 f i libucrtd:output.obj
 0001:0003aae0       ?to_integer_size@__crt_stdio_output@@YAIW4length_modifier@1@@Z 1003bae0 f i libucrtd:output.obj
 0001:0003ab80       ?type_case_X@?$output_processor@DV?$stream_output_adapter@D@__crt_stdio_output@@V?$format_validation_base@DV?$stream_output_adapter@D@__crt_stdio_output@@@2@@__crt_stdio_output@@AAE_NXZ 1003bb80 f i libucrtd:output.obj
 0001:0003aba0       ?type_case_X@?$output_processor@DV?$stream_output_adapter@D@__crt_stdio_output@@V?$positional_parameter_base@DV?$stream_output_adapter@D@__crt_stdio_output@@@2@@__crt_stdio_output@@AAE_NXZ 1003bba0 f i libucrtd:output.obj
 0001:0003abc0       ?type_case_X@?$output_processor@DV?$stream_output_adapter@D@__crt_stdio_output@@V?$standard_base@DV?$stream_output_adapter@D@__crt_stdio_output@@@2@@__crt_stdio_output@@AAE_NXZ 1003bbc0 f i libucrtd:output.obj
 0001:0003abe0       ?type_case_X@?$output_processor@DV?$string_output_adapter@D@__crt_stdio_output@@V?$format_validation_base@DV?$string_output_adapter@D@__crt_stdio_output@@@2@@__crt_stdio_output@@AAE_NXZ 1003bbe0 f i libucrtd:output.obj
 0001:0003ac00       ?type_case_X@?$output_processor@DV?$string_output_adapter@D@__crt_stdio_output@@V?$positional_parameter_base@DV?$string_output_adapter@D@__crt_stdio_output@@@2@@__crt_stdio_output@@AAE_NXZ 1003bc00 f i libucrtd:output.obj
 0001:0003ac20       ?type_case_X@?$output_processor@DV?$string_output_adapter@D@__crt_stdio_output@@V?$standard_base@DV?$string_output_adapter@D@__crt_stdio_output@@@2@@__crt_stdio_output@@AAE_NXZ 1003bc20 f i libucrtd:output.obj
 0001:0003ac40       ?type_case_X@?$output_processor@_WV?$stream_output_adapter@_W@__crt_stdio_output@@V?$format_validation_base@_WV?$stream_output_adapter@_W@__crt_stdio_output@@@2@@__crt_stdio_output@@AAE_NXZ 1003bc40 f i libucrtd:output.obj
 0001:0003ac60       ?type_case_X@?$output_processor@_WV?$stream_output_adapter@_W@__crt_stdio_output@@V?$positional_parameter_base@_WV?$stream_output_adapter@_W@__crt_stdio_output@@@2@@__crt_stdio_output@@AAE_NXZ 1003bc60 f i libucrtd:output.obj
 0001:0003ac80       ?type_case_X@?$output_processor@_WV?$stream_output_adapter@_W@__crt_stdio_output@@V?$standard_base@_WV?$stream_output_adapter@_W@__crt_stdio_output@@@2@@__crt_stdio_output@@AAE_NXZ 1003bc80 f i libucrtd:output.obj
 0001:0003aca0       ?type_case_X@?$output_processor@_WV?$string_output_adapter@_W@__crt_stdio_output@@V?$format_validation_base@_WV?$string_output_adapter@_W@__crt_stdio_output@@@2@@__crt_stdio_output@@AAE_NXZ 1003bca0 f i libucrtd:output.obj
 0001:0003acc0       ?type_case_X@?$output_processor@_WV?$string_output_adapter@_W@__crt_stdio_output@@V?$positional_parameter_base@_WV?$string_output_adapter@_W@__crt_stdio_output@@@2@@__crt_stdio_output@@AAE_NXZ 1003bcc0 f i libucrtd:output.obj
 0001:0003ace0       ?type_case_X@?$output_processor@_WV?$string_output_adapter@_W@__crt_stdio_output@@V?$standard_base@_WV?$string_output_adapter@_W@__crt_stdio_output@@@2@@__crt_stdio_output@@AAE_NXZ 1003bce0 f i libucrtd:output.obj
 0001:0003ad00       ?type_case_Z@?$output_processor@DV?$stream_output_adapter@D@__crt_stdio_output@@V?$format_validation_base@DV?$stream_output_adapter@D@__crt_stdio_output@@@2@@__crt_stdio_output@@AAE_NXZ 1003bd00 f i libucrtd:output.obj
 0001:0003adf0       ?type_case_Z@?$output_processor@DV?$stream_output_adapter@D@__crt_stdio_output@@V?$positional_parameter_base@DV?$stream_output_adapter@D@__crt_stdio_output@@@2@@__crt_stdio_output@@AAE_NXZ 1003bdf0 f i libucrtd:output.obj
 0001:0003aee0       ?type_case_Z@?$output_processor@DV?$stream_output_adapter@D@__crt_stdio_output@@V?$standard_base@DV?$stream_output_adapter@D@__crt_stdio_output@@@2@@__crt_stdio_output@@AAE_NXZ 1003bee0 f i libucrtd:output.obj
 0001:0003afd0       ?type_case_Z@?$output_processor@DV?$string_output_adapter@D@__crt_stdio_output@@V?$format_validation_base@DV?$string_output_adapter@D@__crt_stdio_output@@@2@@__crt_stdio_output@@AAE_NXZ 1003bfd0 f i libucrtd:output.obj
 0001:0003b0c0       ?type_case_Z@?$output_processor@DV?$string_output_adapter@D@__crt_stdio_output@@V?$positional_parameter_base@DV?$string_output_adapter@D@__crt_stdio_output@@@2@@__crt_stdio_output@@AAE_NXZ 1003c0c0 f i libucrtd:output.obj
 0001:0003b1b0       ?type_case_Z@?$output_processor@DV?$string_output_adapter@D@__crt_stdio_output@@V?$standard_base@DV?$string_output_adapter@D@__crt_stdio_output@@@2@@__crt_stdio_output@@AAE_NXZ 1003c1b0 f i libucrtd:output.obj
 0001:0003b2a0       ?type_case_Z@?$output_processor@_WV?$stream_output_adapter@_W@__crt_stdio_output@@V?$format_validation_base@_WV?$stream_output_adapter@_W@__crt_stdio_output@@@2@@__crt_stdio_output@@AAE_NXZ 1003c2a0 f i libucrtd:output.obj
 0001:0003b390       ?type_case_Z@?$output_processor@_WV?$stream_output_adapter@_W@__crt_stdio_output@@V?$positional_parameter_base@_WV?$stream_output_adapter@_W@__crt_stdio_output@@@2@@__crt_stdio_output@@AAE_NXZ 1003c390 f i libucrtd:output.obj
 0001:0003b480       ?type_case_Z@?$output_processor@_WV?$stream_output_adapter@_W@__crt_stdio_output@@V?$standard_base@_WV?$stream_output_adapter@_W@__crt_stdio_output@@@2@@__crt_stdio_output@@AAE_NXZ 1003c480 f i libucrtd:output.obj
 0001:0003b570       ?type_case_Z@?$output_processor@_WV?$string_output_adapter@_W@__crt_stdio_output@@V?$format_validation_base@_WV?$string_output_adapter@_W@__crt_stdio_output@@@2@@__crt_stdio_output@@AAE_NXZ 1003c570 f i libucrtd:output.obj
 0001:0003b660       ?type_case_Z@?$output_processor@_WV?$string_output_adapter@_W@__crt_stdio_output@@V?$positional_parameter_base@_WV?$string_output_adapter@_W@__crt_stdio_output@@@2@@__crt_stdio_output@@AAE_NXZ 1003c660 f i libucrtd:output.obj
 0001:0003b750       ?type_case_Z@?$output_processor@_WV?$string_output_adapter@_W@__crt_stdio_output@@V?$standard_base@_WV?$string_output_adapter@_W@__crt_stdio_output@@@2@@__crt_stdio_output@@AAE_NXZ 1003c750 f i libucrtd:output.obj
 0001:0003b840       ?type_case_a@?$output_processor@DV?$stream_output_adapter@D@__crt_stdio_output@@V?$format_validation_base@DV?$stream_output_adapter@D@__crt_stdio_output@@@2@@__crt_stdio_output@@AAE_NXZ 1003c840 f i libucrtd:output.obj
 0001:0003bab0       ?type_case_a@?$output_processor@DV?$stream_output_adapter@D@__crt_stdio_output@@V?$positional_parameter_base@DV?$stream_output_adapter@D@__crt_stdio_output@@@2@@__crt_stdio_output@@AAE_NXZ 1003cab0 f i libucrtd:output.obj
 0001:0003bd20       ?type_case_a@?$output_processor@DV?$stream_output_adapter@D@__crt_stdio_output@@V?$standard_base@DV?$stream_output_adapter@D@__crt_stdio_output@@@2@@__crt_stdio_output@@AAE_NXZ 1003cd20 f i libucrtd:output.obj
 0001:0003bf90       ?type_case_a@?$output_processor@DV?$string_output_adapter@D@__crt_stdio_output@@V?$format_validation_base@DV?$string_output_adapter@D@__crt_stdio_output@@@2@@__crt_stdio_output@@AAE_NXZ 1003cf90 f i libucrtd:output.obj
 0001:0003c200       ?type_case_a@?$output_processor@DV?$string_output_adapter@D@__crt_stdio_output@@V?$positional_parameter_base@DV?$string_output_adapter@D@__crt_stdio_output@@@2@@__crt_stdio_output@@AAE_NXZ 1003d200 f i libucrtd:output.obj
 0001:0003c470       ?type_case_a@?$output_processor@DV?$string_output_adapter@D@__crt_stdio_output@@V?$standard_base@DV?$string_output_adapter@D@__crt_stdio_output@@@2@@__crt_stdio_output@@AAE_NXZ 1003d470 f i libucrtd:output.obj
 0001:0003c6e0       ?type_case_a@?$output_processor@_WV?$stream_output_adapter@_W@__crt_stdio_output@@V?$format_validation_base@_WV?$stream_output_adapter@_W@__crt_stdio_output@@@2@@__crt_stdio_output@@AAE_NXZ 1003d6e0 f i libucrtd:output.obj
 0001:0003c950       ?type_case_a@?$output_processor@_WV?$stream_output_adapter@_W@__crt_stdio_output@@V?$positional_parameter_base@_WV?$stream_output_adapter@_W@__crt_stdio_output@@@2@@__crt_stdio_output@@AAE_NXZ 1003d950 f i libucrtd:output.obj
 0001:0003cbc0       ?type_case_a@?$output_processor@_WV?$stream_output_adapter@_W@__crt_stdio_output@@V?$standard_base@_WV?$stream_output_adapter@_W@__crt_stdio_output@@@2@@__crt_stdio_output@@AAE_NXZ 1003dbc0 f i libucrtd:output.obj
 0001:0003ce30       ?type_case_a@?$output_processor@_WV?$string_output_adapter@_W@__crt_stdio_output@@V?$format_validation_base@_WV?$string_output_adapter@_W@__crt_stdio_output@@@2@@__crt_stdio_output@@AAE_NXZ 1003de30 f i libucrtd:output.obj
 0001:0003d0a0       ?type_case_a@?$output_processor@_WV?$string_output_adapter@_W@__crt_stdio_output@@V?$positional_parameter_base@_WV?$string_output_adapter@_W@__crt_stdio_output@@@2@@__crt_stdio_output@@AAE_NXZ 1003e0a0 f i libucrtd:output.obj
 0001:0003d310       ?type_case_a@?$output_processor@_WV?$string_output_adapter@_W@__crt_stdio_output@@V?$standard_base@_WV?$string_output_adapter@_W@__crt_stdio_output@@@2@@__crt_stdio_output@@AAE_NXZ 1003e310 f i libucrtd:output.obj
 0001:0003d580       ?type_case_c@?$output_processor@DV?$stream_output_adapter@D@__crt_stdio_output@@V?$format_validation_base@DV?$stream_output_adapter@D@__crt_stdio_output@@@2@@__crt_stdio_output@@AAE_NXZ 1003e580 f i libucrtd:output.obj
 0001:0003d5a0       ?type_case_c@?$output_processor@DV?$stream_output_adapter@D@__crt_stdio_output@@V?$positional_parameter_base@DV?$stream_output_adapter@D@__crt_stdio_output@@@2@@__crt_stdio_output@@AAE_NXZ 1003e5a0 f i libucrtd:output.obj
 0001:0003d5c0       ?type_case_c@?$output_processor@DV?$stream_output_adapter@D@__crt_stdio_output@@V?$standard_base@DV?$stream_output_adapter@D@__crt_stdio_output@@@2@@__crt_stdio_output@@AAE_NXZ 1003e5c0 f i libucrtd:output.obj
 0001:0003d5e0       ?type_case_c@?$output_processor@DV?$string_output_adapter@D@__crt_stdio_output@@V?$format_validation_base@DV?$string_output_adapter@D@__crt_stdio_output@@@2@@__crt_stdio_output@@AAE_NXZ 1003e5e0 f i libucrtd:output.obj
 0001:0003d600       ?type_case_c@?$output_processor@DV?$string_output_adapter@D@__crt_stdio_output@@V?$positional_parameter_base@DV?$string_output_adapter@D@__crt_stdio_output@@@2@@__crt_stdio_output@@AAE_NXZ 1003e600 f i libucrtd:output.obj
 0001:0003d620       ?type_case_c@?$output_processor@DV?$string_output_adapter@D@__crt_stdio_output@@V?$standard_base@DV?$string_output_adapter@D@__crt_stdio_output@@@2@@__crt_stdio_output@@AAE_NXZ 1003e620 f i libucrtd:output.obj
 0001:0003d640       ?type_case_c@?$output_processor@_WV?$stream_output_adapter@_W@__crt_stdio_output@@V?$format_validation_base@_WV?$stream_output_adapter@_W@__crt_stdio_output@@@2@@__crt_stdio_output@@AAE_NXZ 1003e640 f i libucrtd:output.obj
 0001:0003d660       ?type_case_c@?$output_processor@_WV?$stream_output_adapter@_W@__crt_stdio_output@@V?$positional_parameter_base@_WV?$stream_output_adapter@_W@__crt_stdio_output@@@2@@__crt_stdio_output@@AAE_NXZ 1003e660 f i libucrtd:output.obj
 0001:0003d680       ?type_case_c@?$output_processor@_WV?$stream_output_adapter@_W@__crt_stdio_output@@V?$standard_base@_WV?$stream_output_adapter@_W@__crt_stdio_output@@@2@@__crt_stdio_output@@AAE_NXZ 1003e680 f i libucrtd:output.obj
 0001:0003d6a0       ?type_case_c@?$output_processor@_WV?$string_output_adapter@_W@__crt_stdio_output@@V?$format_validation_base@_WV?$string_output_adapter@_W@__crt_stdio_output@@@2@@__crt_stdio_output@@AAE_NXZ 1003e6a0 f i libucrtd:output.obj
 0001:0003d6c0       ?type_case_c@?$output_processor@_WV?$string_output_adapter@_W@__crt_stdio_output@@V?$positional_parameter_base@_WV?$string_output_adapter@_W@__crt_stdio_output@@@2@@__crt_stdio_output@@AAE_NXZ 1003e6c0 f i libucrtd:output.obj
 0001:0003d6e0       ?type_case_c@?$output_processor@_WV?$string_output_adapter@_W@__crt_stdio_output@@V?$standard_base@_WV?$string_output_adapter@_W@__crt_stdio_output@@@2@@__crt_stdio_output@@AAE_NXZ 1003e6e0 f i libucrtd:output.obj
 0001:0003d700       ?type_case_c_tchar@?$output_processor@DV?$stream_output_adapter@D@__crt_stdio_output@@V?$format_validation_base@DV?$stream_output_adapter@D@__crt_stdio_output@@@2@@__crt_stdio_output@@AAE_ND@Z 1003e700 f i libucrtd:output.obj
 0001:0003d810       ?type_case_c_tchar@?$output_processor@DV?$stream_output_adapter@D@__crt_stdio_output@@V?$positional_parameter_base@DV?$stream_output_adapter@D@__crt_stdio_output@@@2@@__crt_stdio_output@@AAE_ND@Z 1003e810 f i libucrtd:output.obj
 0001:0003d920       ?type_case_c_tchar@?$output_processor@DV?$stream_output_adapter@D@__crt_stdio_output@@V?$standard_base@DV?$stream_output_adapter@D@__crt_stdio_output@@@2@@__crt_stdio_output@@AAE_ND@Z 1003e920 f i libucrtd:output.obj
 0001:0003da30       ?type_case_c_tchar@?$output_processor@DV?$string_output_adapter@D@__crt_stdio_output@@V?$format_validation_base@DV?$string_output_adapter@D@__crt_stdio_output@@@2@@__crt_stdio_output@@AAE_ND@Z 1003ea30 f i libucrtd:output.obj
 0001:0003db40       ?type_case_c_tchar@?$output_processor@DV?$string_output_adapter@D@__crt_stdio_output@@V?$positional_parameter_base@DV?$string_output_adapter@D@__crt_stdio_output@@@2@@__crt_stdio_output@@AAE_ND@Z 1003eb40 f i libucrtd:output.obj
 0001:0003dc50       ?type_case_c_tchar@?$output_processor@DV?$string_output_adapter@D@__crt_stdio_output@@V?$standard_base@DV?$string_output_adapter@D@__crt_stdio_output@@@2@@__crt_stdio_output@@AAE_ND@Z 1003ec50 f i libucrtd:output.obj
 0001:0003dd60       ?type_case_c_tchar@?$output_processor@_WV?$stream_output_adapter@_W@__crt_stdio_output@@V?$format_validation_base@_WV?$stream_output_adapter@_W@__crt_stdio_output@@@2@@__crt_stdio_output@@AAE_N_W@Z 1003ed60 f i libucrtd:output.obj
 0001:0003de60       ?type_case_c_tchar@?$output_processor@_WV?$stream_output_adapter@_W@__crt_stdio_output@@V?$positional_parameter_base@_WV?$stream_output_adapter@_W@__crt_stdio_output@@@2@@__crt_stdio_output@@AAE_N_W@Z 1003ee60 f i libucrtd:output.obj
 0001:0003df60       ?type_case_c_tchar@?$output_processor@_WV?$stream_output_adapter@_W@__crt_stdio_output@@V?$standard_base@_WV?$stream_output_adapter@_W@__crt_stdio_output@@@2@@__crt_stdio_output@@AAE_N_W@Z 1003ef60 f i libucrtd:output.obj
 0001:0003e060       ?type_case_c_tchar@?$output_processor@_WV?$string_output_adapter@_W@__crt_stdio_output@@V?$format_validation_base@_WV?$string_output_adapter@_W@__crt_stdio_output@@@2@@__crt_stdio_output@@AAE_N_W@Z 1003f060 f i libucrtd:output.obj
 0001:0003e160       ?type_case_c_tchar@?$output_processor@_WV?$string_output_adapter@_W@__crt_stdio_output@@V?$positional_parameter_base@_WV?$string_output_adapter@_W@__crt_stdio_output@@@2@@__crt_stdio_output@@AAE_N_W@Z 1003f160 f i libucrtd:output.obj
 0001:0003e260       ?type_case_c_tchar@?$output_processor@_WV?$string_output_adapter@_W@__crt_stdio_output@@V?$standard_base@_WV?$string_output_adapter@_W@__crt_stdio_output@@@2@@__crt_stdio_output@@AAE_N_W@Z 1003f260 f i libucrtd:output.obj
 0001:0003e360       ?type_case_d@?$output_processor@DV?$stream_output_adapter@D@__crt_stdio_output@@V?$format_validation_base@DV?$stream_output_adapter@D@__crt_stdio_output@@@2@@__crt_stdio_output@@AAE_NXZ 1003f360 f i libucrtd:output.obj
 0001:0003e390       ?type_case_d@?$output_processor@DV?$stream_output_adapter@D@__crt_stdio_output@@V?$positional_parameter_base@DV?$stream_output_adapter@D@__crt_stdio_output@@@2@@__crt_stdio_output@@AAE_NXZ 1003f390 f i libucrtd:output.obj
 0001:0003e3c0       ?type_case_d@?$output_processor@DV?$stream_output_adapter@D@__crt_stdio_output@@V?$standard_base@DV?$stream_output_adapter@D@__crt_stdio_output@@@2@@__crt_stdio_output@@AAE_NXZ 1003f3c0 f i libucrtd:output.obj
 0001:0003e3f0       ?type_case_d@?$output_processor@DV?$string_output_adapter@D@__crt_stdio_output@@V?$format_validation_base@DV?$string_output_adapter@D@__crt_stdio_output@@@2@@__crt_stdio_output@@AAE_NXZ 1003f3f0 f i libucrtd:output.obj
 0001:0003e420       ?type_case_d@?$output_processor@DV?$string_output_adapter@D@__crt_stdio_output@@V?$positional_parameter_base@DV?$string_output_adapter@D@__crt_stdio_output@@@2@@__crt_stdio_output@@AAE_NXZ 1003f420 f i libucrtd:output.obj
 0001:0003e450       ?type_case_d@?$output_processor@DV?$string_output_adapter@D@__crt_stdio_output@@V?$standard_base@DV?$string_output_adapter@D@__crt_stdio_output@@@2@@__crt_stdio_output@@AAE_NXZ 1003f450 f i libucrtd:output.obj
 0001:0003e480       ?type_case_d@?$output_processor@_WV?$stream_output_adapter@_W@__crt_stdio_output@@V?$format_validation_base@_WV?$stream_output_adapter@_W@__crt_stdio_output@@@2@@__crt_stdio_output@@AAE_NXZ 1003f480 f i libucrtd:output.obj
 0001:0003e4b0       ?type_case_d@?$output_processor@_WV?$stream_output_adapter@_W@__crt_stdio_output@@V?$positional_parameter_base@_WV?$stream_output_adapter@_W@__crt_stdio_output@@@2@@__crt_stdio_output@@AAE_NXZ 1003f4b0 f i libucrtd:output.obj
 0001:0003e4e0       ?type_case_d@?$output_processor@_WV?$stream_output_adapter@_W@__crt_stdio_output@@V?$standard_base@_WV?$stream_output_adapter@_W@__crt_stdio_output@@@2@@__crt_stdio_output@@AAE_NXZ 1003f4e0 f i libucrtd:output.obj
 0001:0003e510       ?type_case_d@?$output_processor@_WV?$string_output_adapter@_W@__crt_stdio_output@@V?$format_validation_base@_WV?$string_output_adapter@_W@__crt_stdio_output@@@2@@__crt_stdio_output@@AAE_NXZ 1003f510 f i libucrtd:output.obj
 0001:0003e540       ?type_case_d@?$output_processor@_WV?$string_output_adapter@_W@__crt_stdio_output@@V?$positional_parameter_base@_WV?$string_output_adapter@_W@__crt_stdio_output@@@2@@__crt_stdio_output@@AAE_NXZ 1003f540 f i libucrtd:output.obj
 0001:0003e570       ?type_case_d@?$output_processor@_WV?$string_output_adapter@_W@__crt_stdio_output@@V?$standard_base@_WV?$string_output_adapter@_W@__crt_stdio_output@@@2@@__crt_stdio_output@@AAE_NXZ 1003f570 f i libucrtd:output.obj
 0001:0003e5a0       ?type_case_integer@?$output_processor@DV?$stream_output_adapter@D@__crt_stdio_output@@V?$format_validation_base@DV?$stream_output_adapter@D@__crt_stdio_output@@@2@@__crt_stdio_output@@AAE_NI_N@Z 1003f5a0 f i libucrtd:output.obj
 0001:0003e8f0       ?type_case_integer@?$output_processor@DV?$stream_output_adapter@D@__crt_stdio_output@@V?$positional_parameter_base@DV?$stream_output_adapter@D@__crt_stdio_output@@@2@@__crt_stdio_output@@AAE_NI_N@Z 1003f8f0 f i libucrtd:output.obj
 0001:0003ec40       ?type_case_integer@?$output_processor@DV?$stream_output_adapter@D@__crt_stdio_output@@V?$standard_base@DV?$stream_output_adapter@D@__crt_stdio_output@@@2@@__crt_stdio_output@@AAE_NI_N@Z 1003fc40 f i libucrtd:output.obj
 0001:0003ef90       ?type_case_integer@?$output_processor@DV?$string_output_adapter@D@__crt_stdio_output@@V?$format_validation_base@DV?$string_output_adapter@D@__crt_stdio_output@@@2@@__crt_stdio_output@@AAE_NI_N@Z 1003ff90 f i libucrtd:output.obj
 0001:0003f2e0       ?type_case_integer@?$output_processor@DV?$string_output_adapter@D@__crt_stdio_output@@V?$positional_parameter_base@DV?$string_output_adapter@D@__crt_stdio_output@@@2@@__crt_stdio_output@@AAE_NI_N@Z 100402e0 f i libucrtd:output.obj
 0001:0003f630       ?type_case_integer@?$output_processor@DV?$string_output_adapter@D@__crt_stdio_output@@V?$standard_base@DV?$string_output_adapter@D@__crt_stdio_output@@@2@@__crt_stdio_output@@AAE_NI_N@Z 10040630 f i libucrtd:output.obj
 0001:0003f980       ?type_case_integer@?$output_processor@_WV?$stream_output_adapter@_W@__crt_stdio_output@@V?$format_validation_base@_WV?$stream_output_adapter@_W@__crt_stdio_output@@@2@@__crt_stdio_output@@AAE_NI_N@Z 10040980 f i libucrtd:output.obj
 0001:0003fcd0       ?type_case_integer@?$output_processor@_WV?$stream_output_adapter@_W@__crt_stdio_output@@V?$positional_parameter_base@_WV?$stream_output_adapter@_W@__crt_stdio_output@@@2@@__crt_stdio_output@@AAE_NI_N@Z 10040cd0 f i libucrtd:output.obj
 0001:00040020       ?type_case_integer@?$output_processor@_WV?$stream_output_adapter@_W@__crt_stdio_output@@V?$standard_base@_WV?$stream_output_adapter@_W@__crt_stdio_output@@@2@@__crt_stdio_output@@AAE_NI_N@Z 10041020 f i libucrtd:output.obj
 0001:00040370       ?type_case_integer@?$output_processor@_WV?$string_output_adapter@_W@__crt_stdio_output@@V?$format_validation_base@_WV?$string_output_adapter@_W@__crt_stdio_output@@@2@@__crt_stdio_output@@AAE_NI_N@Z 10041370 f i libucrtd:output.obj
 0001:000406c0       ?type_case_integer@?$output_processor@_WV?$string_output_adapter@_W@__crt_stdio_output@@V?$positional_parameter_base@_WV?$string_output_adapter@_W@__crt_stdio_output@@@2@@__crt_stdio_output@@AAE_NI_N@Z 100416c0 f i libucrtd:output.obj
 0001:00040a10       ?type_case_integer@?$output_processor@_WV?$string_output_adapter@_W@__crt_stdio_output@@V?$standard_base@_WV?$string_output_adapter@_W@__crt_stdio_output@@@2@@__crt_stdio_output@@AAE_NI_N@Z 10041a10 f i libucrtd:output.obj
 0001:00040d60       ?type_case_n@?$output_processor@DV?$stream_output_adapter@D@__crt_stdio_output@@V?$format_validation_base@DV?$stream_output_adapter@D@__crt_stdio_output@@@2@@__crt_stdio_output@@AAE_NXZ 10041d60 f i libucrtd:output.obj
 0001:00040f50       ?type_case_n@?$output_processor@DV?$stream_output_adapter@D@__crt_stdio_output@@V?$positional_parameter_base@DV?$stream_output_adapter@D@__crt_stdio_output@@@2@@__crt_stdio_output@@AAE_NXZ 10041f50 f i libucrtd:output.obj
 0001:00041140       ?type_case_n@?$output_processor@DV?$stream_output_adapter@D@__crt_stdio_output@@V?$standard_base@DV?$stream_output_adapter@D@__crt_stdio_output@@@2@@__crt_stdio_output@@AAE_NXZ 10042140 f i libucrtd:output.obj
 0001:00041330       ?type_case_n@?$output_processor@DV?$string_output_adapter@D@__crt_stdio_output@@V?$format_validation_base@DV?$string_output_adapter@D@__crt_stdio_output@@@2@@__crt_stdio_output@@AAE_NXZ 10042330 f i libucrtd:output.obj
 0001:00041520       ?type_case_n@?$output_processor@DV?$string_output_adapter@D@__crt_stdio_output@@V?$positional_parameter_base@DV?$string_output_adapter@D@__crt_stdio_output@@@2@@__crt_stdio_output@@AAE_NXZ 10042520 f i libucrtd:output.obj
 0001:00041710       ?type_case_n@?$output_processor@DV?$string_output_adapter@D@__crt_stdio_output@@V?$standard_base@DV?$string_output_adapter@D@__crt_stdio_output@@@2@@__crt_stdio_output@@AAE_NXZ 10042710 f i libucrtd:output.obj
 0001:00041900       ?type_case_n@?$output_processor@_WV?$stream_output_adapter@_W@__crt_stdio_output@@V?$format_validation_base@_WV?$stream_output_adapter@_W@__crt_stdio_output@@@2@@__crt_stdio_output@@AAE_NXZ 10042900 f i libucrtd:output.obj
 0001:00041af0       ?type_case_n@?$output_processor@_WV?$stream_output_adapter@_W@__crt_stdio_output@@V?$positional_parameter_base@_WV?$stream_output_adapter@_W@__crt_stdio_output@@@2@@__crt_stdio_output@@AAE_NXZ 10042af0 f i libucrtd:output.obj
 0001:00041ce0       ?type_case_n@?$output_processor@_WV?$stream_output_adapter@_W@__crt_stdio_output@@V?$standard_base@_WV?$stream_output_adapter@_W@__crt_stdio_output@@@2@@__crt_stdio_output@@AAE_NXZ 10042ce0 f i libucrtd:output.obj
 0001:00041ed0       ?type_case_n@?$output_processor@_WV?$string_output_adapter@_W@__crt_stdio_output@@V?$format_validation_base@_WV?$string_output_adapter@_W@__crt_stdio_output@@@2@@__crt_stdio_output@@AAE_NXZ 10042ed0 f i libucrtd:output.obj
 0001:000420c0       ?type_case_n@?$output_processor@_WV?$string_output_adapter@_W@__crt_stdio_output@@V?$positional_parameter_base@_WV?$string_output_adapter@_W@__crt_stdio_output@@@2@@__crt_stdio_output@@AAE_NXZ 100430c0 f i libucrtd:output.obj
 0001:000422b0       ?type_case_n@?$output_processor@_WV?$string_output_adapter@_W@__crt_stdio_output@@V?$standard_base@_WV?$string_output_adapter@_W@__crt_stdio_output@@@2@@__crt_stdio_output@@AAE_NXZ 100432b0 f i libucrtd:output.obj
 0001:000424a0       ?type_case_o@?$output_processor@DV?$stream_output_adapter@D@__crt_stdio_output@@V?$format_validation_base@DV?$stream_output_adapter@D@__crt_stdio_output@@@2@@__crt_stdio_output@@AAE_NXZ 100434a0 f i libucrtd:output.obj
 0001:000424e0       ?type_case_o@?$output_processor@DV?$stream_output_adapter@D@__crt_stdio_output@@V?$positional_parameter_base@DV?$stream_output_adapter@D@__crt_stdio_output@@@2@@__crt_stdio_output@@AAE_NXZ 100434e0 f i libucrtd:output.obj
 0001:00042520       ?type_case_o@?$output_processor@DV?$stream_output_adapter@D@__crt_stdio_output@@V?$standard_base@DV?$stream_output_adapter@D@__crt_stdio_output@@@2@@__crt_stdio_output@@AAE_NXZ 10043520 f i libucrtd:output.obj
 0001:00042560       ?type_case_o@?$output_processor@DV?$string_output_adapter@D@__crt_stdio_output@@V?$format_validation_base@DV?$string_output_adapter@D@__crt_stdio_output@@@2@@__crt_stdio_output@@AAE_NXZ 10043560 f i libucrtd:output.obj
 0001:000425a0       ?type_case_o@?$output_processor@DV?$string_output_adapter@D@__crt_stdio_output@@V?$positional_parameter_base@DV?$string_output_adapter@D@__crt_stdio_output@@@2@@__crt_stdio_output@@AAE_NXZ 100435a0 f i libucrtd:output.obj
 0001:000425e0       ?type_case_o@?$output_processor@DV?$string_output_adapter@D@__crt_stdio_output@@V?$standard_base@DV?$string_output_adapter@D@__crt_stdio_output@@@2@@__crt_stdio_output@@AAE_NXZ 100435e0 f i libucrtd:output.obj
 0001:00042620       ?type_case_o@?$output_processor@_WV?$stream_output_adapter@_W@__crt_stdio_output@@V?$format_validation_base@_WV?$stream_output_adapter@_W@__crt_stdio_output@@@2@@__crt_stdio_output@@AAE_NXZ 10043620 f i libucrtd:output.obj
 0001:00042660       ?type_case_o@?$output_processor@_WV?$stream_output_adapter@_W@__crt_stdio_output@@V?$positional_parameter_base@_WV?$stream_output_adapter@_W@__crt_stdio_output@@@2@@__crt_stdio_output@@AAE_NXZ 10043660 f i libucrtd:output.obj
 0001:000426a0       ?type_case_o@?$output_processor@_WV?$stream_output_adapter@_W@__crt_stdio_output@@V?$standard_base@_WV?$stream_output_adapter@_W@__crt_stdio_output@@@2@@__crt_stdio_output@@AAE_NXZ 100436a0 f i libucrtd:output.obj
 0001:000426e0       ?type_case_o@?$output_processor@_WV?$string_output_adapter@_W@__crt_stdio_output@@V?$format_validation_base@_WV?$string_output_adapter@_W@__crt_stdio_output@@@2@@__crt_stdio_output@@AAE_NXZ 100436e0 f i libucrtd:output.obj
 0001:00042720       ?type_case_o@?$output_processor@_WV?$string_output_adapter@_W@__crt_stdio_output@@V?$positional_parameter_base@_WV?$string_output_adapter@_W@__crt_stdio_output@@@2@@__crt_stdio_output@@AAE_NXZ 10043720 f i libucrtd:output.obj
 0001:00042760       ?type_case_o@?$output_processor@_WV?$string_output_adapter@_W@__crt_stdio_output@@V?$standard_base@_WV?$string_output_adapter@_W@__crt_stdio_output@@@2@@__crt_stdio_output@@AAE_NXZ 10043760 f i libucrtd:output.obj
 0001:000427a0       ?type_case_p@?$output_processor@DV?$stream_output_adapter@D@__crt_stdio_output@@V?$format_validation_base@DV?$stream_output_adapter@D@__crt_stdio_output@@@2@@__crt_stdio_output@@AAE_NXZ 100437a0 f i libucrtd:output.obj
 0001:000427d0       ?type_case_p@?$output_processor@DV?$stream_output_adapter@D@__crt_stdio_output@@V?$positional_parameter_base@DV?$stream_output_adapter@D@__crt_stdio_output@@@2@@__crt_stdio_output@@AAE_NXZ 100437d0 f i libucrtd:output.obj
 0001:00042800       ?type_case_p@?$output_processor@DV?$stream_output_adapter@D@__crt_stdio_output@@V?$standard_base@DV?$stream_output_adapter@D@__crt_stdio_output@@@2@@__crt_stdio_output@@AAE_NXZ 10043800 f i libucrtd:output.obj
 0001:00042830       ?type_case_p@?$output_processor@DV?$string_output_adapter@D@__crt_stdio_output@@V?$format_validation_base@DV?$string_output_adapter@D@__crt_stdio_output@@@2@@__crt_stdio_output@@AAE_NXZ 10043830 f i libucrtd:output.obj
 0001:00042860       ?type_case_p@?$output_processor@DV?$string_output_adapter@D@__crt_stdio_output@@V?$positional_parameter_base@DV?$string_output_adapter@D@__crt_stdio_output@@@2@@__crt_stdio_output@@AAE_NXZ 10043860 f i libucrtd:output.obj
 0001:00042890       ?type_case_p@?$output_processor@DV?$string_output_adapter@D@__crt_stdio_output@@V?$standard_base@DV?$string_output_adapter@D@__crt_stdio_output@@@2@@__crt_stdio_output@@AAE_NXZ 10043890 f i libucrtd:output.obj
 0001:000428c0       ?type_case_p@?$output_processor@_WV?$stream_output_adapter@_W@__crt_stdio_output@@V?$format_validation_base@_WV?$stream_output_adapter@_W@__crt_stdio_output@@@2@@__crt_stdio_output@@AAE_NXZ 100438c0 f i libucrtd:output.obj
 0001:000428f0       ?type_case_p@?$output_processor@_WV?$stream_output_adapter@_W@__crt_stdio_output@@V?$positional_parameter_base@_WV?$stream_output_adapter@_W@__crt_stdio_output@@@2@@__crt_stdio_output@@AAE_NXZ 100438f0 f i libucrtd:output.obj
 0001:00042920       ?type_case_p@?$output_processor@_WV?$stream_output_adapter@_W@__crt_stdio_output@@V?$standard_base@_WV?$stream_output_adapter@_W@__crt_stdio_output@@@2@@__crt_stdio_output@@AAE_NXZ 10043920 f i libucrtd:output.obj
 0001:00042950       ?type_case_p@?$output_processor@_WV?$string_output_adapter@_W@__crt_stdio_output@@V?$format_validation_base@_WV?$string_output_adapter@_W@__crt_stdio_output@@@2@@__crt_stdio_output@@AAE_NXZ 10043950 f i libucrtd:output.obj
 0001:00042980       ?type_case_p@?$output_processor@_WV?$string_output_adapter@_W@__crt_stdio_output@@V?$positional_parameter_base@_WV?$string_output_adapter@_W@__crt_stdio_output@@@2@@__crt_stdio_output@@AAE_NXZ 10043980 f i libucrtd:output.obj
 0001:000429b0       ?type_case_p@?$output_processor@_WV?$string_output_adapter@_W@__crt_stdio_output@@V?$standard_base@_WV?$string_output_adapter@_W@__crt_stdio_output@@@2@@__crt_stdio_output@@AAE_NXZ 100439b0 f i libucrtd:output.obj
 0001:000429e0       ?type_case_s@?$output_processor@DV?$stream_output_adapter@D@__crt_stdio_output@@V?$format_validation_base@DV?$stream_output_adapter@D@__crt_stdio_output@@@2@@__crt_stdio_output@@AAE_NXZ 100439e0 f i libucrtd:output.obj
 0001:00042ad0       ?type_case_s@?$output_processor@DV?$stream_output_adapter@D@__crt_stdio_output@@V?$positional_parameter_base@DV?$stream_output_adapter@D@__crt_stdio_output@@@2@@__crt_stdio_output@@AAE_NXZ 10043ad0 f i libucrtd:output.obj
 0001:00042bc0       ?type_case_s@?$output_processor@DV?$stream_output_adapter@D@__crt_stdio_output@@V?$standard_base@DV?$stream_output_adapter@D@__crt_stdio_output@@@2@@__crt_stdio_output@@AAE_NXZ 10043bc0 f i libucrtd:output.obj
 0001:00042cb0       ?type_case_s@?$output_processor@DV?$string_output_adapter@D@__crt_stdio_output@@V?$format_validation_base@DV?$string_output_adapter@D@__crt_stdio_output@@@2@@__crt_stdio_output@@AAE_NXZ 10043cb0 f i libucrtd:output.obj
 0001:00042da0       ?type_case_s@?$output_processor@DV?$string_output_adapter@D@__crt_stdio_output@@V?$positional_parameter_base@DV?$string_output_adapter@D@__crt_stdio_output@@@2@@__crt_stdio_output@@AAE_NXZ 10043da0 f i libucrtd:output.obj
 0001:00042e90       ?type_case_s@?$output_processor@DV?$string_output_adapter@D@__crt_stdio_output@@V?$standard_base@DV?$string_output_adapter@D@__crt_stdio_output@@@2@@__crt_stdio_output@@AAE_NXZ 10043e90 f i libucrtd:output.obj
 0001:00042f80       ?type_case_s@?$output_processor@_WV?$stream_output_adapter@_W@__crt_stdio_output@@V?$format_validation_base@_WV?$stream_output_adapter@_W@__crt_stdio_output@@@2@@__crt_stdio_output@@AAE_NXZ 10043f80 f i libucrtd:output.obj
 0001:00043070       ?type_case_s@?$output_processor@_WV?$stream_output_adapter@_W@__crt_stdio_output@@V?$positional_parameter_base@_WV?$stream_output_adapter@_W@__crt_stdio_output@@@2@@__crt_stdio_output@@AAE_NXZ 10044070 f i libucrtd:output.obj
 0001:00043160       ?type_case_s@?$output_processor@_WV?$stream_output_adapter@_W@__crt_stdio_output@@V?$standard_base@_WV?$stream_output_adapter@_W@__crt_stdio_output@@@2@@__crt_stdio_output@@AAE_NXZ 10044160 f i libucrtd:output.obj
 0001:00043250       ?type_case_s@?$output_processor@_WV?$string_output_adapter@_W@__crt_stdio_output@@V?$format_validation_base@_WV?$string_output_adapter@_W@__crt_stdio_output@@@2@@__crt_stdio_output@@AAE_NXZ 10044250 f i libucrtd:output.obj
 0001:00043340       ?type_case_s@?$output_processor@_WV?$string_output_adapter@_W@__crt_stdio_output@@V?$positional_parameter_base@_WV?$string_output_adapter@_W@__crt_stdio_output@@@2@@__crt_stdio_output@@AAE_NXZ 10044340 f i libucrtd:output.obj
 0001:00043430       ?type_case_s@?$output_processor@_WV?$string_output_adapter@_W@__crt_stdio_output@@V?$standard_base@_WV?$string_output_adapter@_W@__crt_stdio_output@@@2@@__crt_stdio_output@@AAE_NXZ 10044430 f i libucrtd:output.obj
 0001:00043520       ?type_case_s_compute_narrow_string_length@?$output_processor@DV?$stream_output_adapter@D@__crt_stdio_output@@V?$format_validation_base@DV?$stream_output_adapter@D@__crt_stdio_output@@@2@@__crt_stdio_output@@ABEHHD@Z 10044520 f i libucrtd:output.obj
 0001:00043550       ?type_case_s_compute_narrow_string_length@?$output_processor@DV?$stream_output_adapter@D@__crt_stdio_output@@V?$positional_parameter_base@DV?$stream_output_adapter@D@__crt_stdio_output@@@2@@__crt_stdio_output@@ABEHHD@Z 10044550 f i libucrtd:output.obj
 0001:00043580       ?type_case_s_compute_narrow_string_length@?$output_processor@DV?$stream_output_adapter@D@__crt_stdio_output@@V?$standard_base@DV?$stream_output_adapter@D@__crt_stdio_output@@@2@@__crt_stdio_output@@ABEHHD@Z 10044580 f i libucrtd:output.obj
 0001:000435b0       ?type_case_s_compute_narrow_string_length@?$output_processor@DV?$string_output_adapter@D@__crt_stdio_output@@V?$format_validation_base@DV?$string_output_adapter@D@__crt_stdio_output@@@2@@__crt_stdio_output@@ABEHHD@Z 100445b0 f i libucrtd:output.obj
 0001:000435e0       ?type_case_s_compute_narrow_string_length@?$output_processor@DV?$string_output_adapter@D@__crt_stdio_output@@V?$positional_parameter_base@DV?$string_output_adapter@D@__crt_stdio_output@@@2@@__crt_stdio_output@@ABEHHD@Z 100445e0 f i libucrtd:output.obj
 0001:00043610       ?type_case_s_compute_narrow_string_length@?$output_processor@DV?$string_output_adapter@D@__crt_stdio_output@@V?$standard_base@DV?$string_output_adapter@D@__crt_stdio_output@@@2@@__crt_stdio_output@@ABEHHD@Z 10044610 f i libucrtd:output.obj
 0001:00043640       ?type_case_s_compute_narrow_string_length@?$output_processor@_WV?$stream_output_adapter@_W@__crt_stdio_output@@V?$format_validation_base@_WV?$stream_output_adapter@_W@__crt_stdio_output@@@2@@__crt_stdio_output@@ABEHH_W@Z 10044640 f i libucrtd:output.obj
 0001:000436b0       ?type_case_s_compute_narrow_string_length@?$output_processor@_WV?$stream_output_adapter@_W@__crt_stdio_output@@V?$positional_parameter_base@_WV?$stream_output_adapter@_W@__crt_stdio_output@@@2@@__crt_stdio_output@@ABEHH_W@Z 100446b0 f i libucrtd:output.obj
 0001:00043720       ?type_case_s_compute_narrow_string_length@?$output_processor@_WV?$stream_output_adapter@_W@__crt_stdio_output@@V?$standard_base@_WV?$stream_output_adapter@_W@__crt_stdio_output@@@2@@__crt_stdio_output@@ABEHH_W@Z 10044720 f i libucrtd:output.obj
 0001:00043790       ?type_case_s_compute_narrow_string_length@?$output_processor@_WV?$string_output_adapter@_W@__crt_stdio_output@@V?$format_validation_base@_WV?$string_output_adapter@_W@__crt_stdio_output@@@2@@__crt_stdio_output@@ABEHH_W@Z 10044790 f i libucrtd:output.obj
 0001:00043800       ?type_case_s_compute_narrow_string_length@?$output_processor@_WV?$string_output_adapter@_W@__crt_stdio_output@@V?$positional_parameter_base@_WV?$string_output_adapter@_W@__crt_stdio_output@@@2@@__crt_stdio_output@@ABEHH_W@Z 10044800 f i libucrtd:output.obj
 0001:00043870       ?type_case_s_compute_narrow_string_length@?$output_processor@_WV?$string_output_adapter@_W@__crt_stdio_output@@V?$standard_base@_WV?$string_output_adapter@_W@__crt_stdio_output@@@2@@__crt_stdio_output@@ABEHH_W@Z 10044870 f i libucrtd:output.obj
 0001:000438e0       ?type_case_u@?$output_processor@DV?$stream_output_adapter@D@__crt_stdio_output@@V?$format_validation_base@DV?$stream_output_adapter@D@__crt_stdio_output@@@2@@__crt_stdio_output@@AAE_NXZ 100448e0 f i libucrtd:output.obj
 0001:00043900       ?type_case_u@?$output_processor@DV?$stream_output_adapter@D@__crt_stdio_output@@V?$positional_parameter_base@DV?$stream_output_adapter@D@__crt_stdio_output@@@2@@__crt_stdio_output@@AAE_NXZ 10044900 f i libucrtd:output.obj
 0001:00043920       ?type_case_u@?$output_processor@DV?$stream_output_adapter@D@__crt_stdio_output@@V?$standard_base@DV?$stream_output_adapter@D@__crt_stdio_output@@@2@@__crt_stdio_output@@AAE_NXZ 10044920 f i libucrtd:output.obj
 0001:00043940       ?type_case_u@?$output_processor@DV?$string_output_adapter@D@__crt_stdio_output@@V?$format_validation_base@DV?$string_output_adapter@D@__crt_stdio_output@@@2@@__crt_stdio_output@@AAE_NXZ 10044940 f i libucrtd:output.obj
 0001:00043960       ?type_case_u@?$output_processor@DV?$string_output_adapter@D@__crt_stdio_output@@V?$positional_parameter_base@DV?$string_output_adapter@D@__crt_stdio_output@@@2@@__crt_stdio_output@@AAE_NXZ 10044960 f i libucrtd:output.obj
 0001:00043980       ?type_case_u@?$output_processor@DV?$string_output_adapter@D@__crt_stdio_output@@V?$standard_base@DV?$string_output_adapter@D@__crt_stdio_output@@@2@@__crt_stdio_output@@AAE_NXZ 10044980 f i libucrtd:output.obj
 0001:000439a0       ?type_case_u@?$output_processor@_WV?$stream_output_adapter@_W@__crt_stdio_output@@V?$format_validation_base@_WV?$stream_output_adapter@_W@__crt_stdio_output@@@2@@__crt_stdio_output@@AAE_NXZ 100449a0 f i libucrtd:output.obj
 0001:000439c0       ?type_case_u@?$output_processor@_WV?$stream_output_adapter@_W@__crt_stdio_output@@V?$positional_parameter_base@_WV?$stream_output_adapter@_W@__crt_stdio_output@@@2@@__crt_stdio_output@@AAE_NXZ 100449c0 f i libucrtd:output.obj
 0001:000439e0       ?type_case_u@?$output_processor@_WV?$stream_output_adapter@_W@__crt_stdio_output@@V?$standard_base@_WV?$stream_output_adapter@_W@__crt_stdio_output@@@2@@__crt_stdio_output@@AAE_NXZ 100449e0 f i libucrtd:output.obj
 0001:00043a00       ?type_case_u@?$output_processor@_WV?$string_output_adapter@_W@__crt_stdio_output@@V?$format_validation_base@_WV?$string_output_adapter@_W@__crt_stdio_output@@@2@@__crt_stdio_output@@AAE_NXZ 10044a00 f i libucrtd:output.obj
 0001:00043a20       ?type_case_u@?$output_processor@_WV?$string_output_adapter@_W@__crt_stdio_output@@V?$positional_parameter_base@_WV?$string_output_adapter@_W@__crt_stdio_output@@@2@@__crt_stdio_output@@AAE_NXZ 10044a20 f i libucrtd:output.obj
 0001:00043a40       ?type_case_u@?$output_processor@_WV?$string_output_adapter@_W@__crt_stdio_output@@V?$standard_base@_WV?$string_output_adapter@_W@__crt_stdio_output@@@2@@__crt_stdio_output@@AAE_NXZ 10044a40 f i libucrtd:output.obj
 0001:00043a60       ?type_case_x@?$output_processor@DV?$stream_output_adapter@D@__crt_stdio_output@@V?$format_validation_base@DV?$stream_output_adapter@D@__crt_stdio_output@@@2@@__crt_stdio_output@@AAE_NXZ 10044a60 f i libucrtd:output.obj
 0001:00043a80       ?type_case_x@?$output_processor@DV?$stream_output_adapter@D@__crt_stdio_output@@V?$positional_parameter_base@DV?$stream_output_adapter@D@__crt_stdio_output@@@2@@__crt_stdio_output@@AAE_NXZ 10044a80 f i libucrtd:output.obj
 0001:00043aa0       ?type_case_x@?$output_processor@DV?$stream_output_adapter@D@__crt_stdio_output@@V?$standard_base@DV?$stream_output_adapter@D@__crt_stdio_output@@@2@@__crt_stdio_output@@AAE_NXZ 10044aa0 f i libucrtd:output.obj
 0001:00043ac0       ?type_case_x@?$output_processor@DV?$string_output_adapter@D@__crt_stdio_output@@V?$format_validation_base@DV?$string_output_adapter@D@__crt_stdio_output@@@2@@__crt_stdio_output@@AAE_NXZ 10044ac0 f i libucrtd:output.obj
 0001:00043ae0       ?type_case_x@?$output_processor@DV?$string_output_adapter@D@__crt_stdio_output@@V?$positional_parameter_base@DV?$string_output_adapter@D@__crt_stdio_output@@@2@@__crt_stdio_output@@AAE_NXZ 10044ae0 f i libucrtd:output.obj
 0001:00043b00       ?type_case_x@?$output_processor@DV?$string_output_adapter@D@__crt_stdio_output@@V?$standard_base@DV?$string_output_adapter@D@__crt_stdio_output@@@2@@__crt_stdio_output@@AAE_NXZ 10044b00 f i libucrtd:output.obj
 0001:00043b20       ?type_case_x@?$output_processor@_WV?$stream_output_adapter@_W@__crt_stdio_output@@V?$format_validation_base@_WV?$stream_output_adapter@_W@__crt_stdio_output@@@2@@__crt_stdio_output@@AAE_NXZ 10044b20 f i libucrtd:output.obj
 0001:00043b40       ?type_case_x@?$output_processor@_WV?$stream_output_adapter@_W@__crt_stdio_output@@V?$positional_parameter_base@_WV?$stream_output_adapter@_W@__crt_stdio_output@@@2@@__crt_stdio_output@@AAE_NXZ 10044b40 f i libucrtd:output.obj
 0001:00043b60       ?type_case_x@?$output_processor@_WV?$stream_output_adapter@_W@__crt_stdio_output@@V?$standard_base@_WV?$stream_output_adapter@_W@__crt_stdio_output@@@2@@__crt_stdio_output@@AAE_NXZ 10044b60 f i libucrtd:output.obj
 0001:00043b80       ?type_case_x@?$output_processor@_WV?$string_output_adapter@_W@__crt_stdio_output@@V?$format_validation_base@_WV?$string_output_adapter@_W@__crt_stdio_output@@@2@@__crt_stdio_output@@AAE_NXZ 10044b80 f i libucrtd:output.obj
 0001:00043ba0       ?type_case_x@?$output_processor@_WV?$string_output_adapter@_W@__crt_stdio_output@@V?$positional_parameter_base@_WV?$string_output_adapter@_W@__crt_stdio_output@@@2@@__crt_stdio_output@@AAE_NXZ 10044ba0 f i libucrtd:output.obj
 0001:00043bc0       ?type_case_x@?$output_processor@_WV?$string_output_adapter@_W@__crt_stdio_output@@V?$standard_base@_WV?$string_output_adapter@_W@__crt_stdio_output@@@2@@__crt_stdio_output@@AAE_NXZ 10044bc0 f i libucrtd:output.obj
 0001:00043be0       ?unset_flag@?$output_processor@DV?$stream_output_adapter@D@__crt_stdio_output@@V?$format_validation_base@DV?$stream_output_adapter@D@__crt_stdio_output@@@2@@__crt_stdio_output@@AAEXI@Z 10044be0 f i libucrtd:output.obj
 0001:00043c00       ?unset_flag@?$output_processor@DV?$stream_output_adapter@D@__crt_stdio_output@@V?$positional_parameter_base@DV?$stream_output_adapter@D@__crt_stdio_output@@@2@@__crt_stdio_output@@AAEXI@Z 10044c00 f i libucrtd:output.obj
 0001:00043c20       ?unset_flag@?$output_processor@DV?$stream_output_adapter@D@__crt_stdio_output@@V?$standard_base@DV?$stream_output_adapter@D@__crt_stdio_output@@@2@@__crt_stdio_output@@AAEXI@Z 10044c20 f i libucrtd:output.obj
 0001:00043c40       ?unset_flag@?$output_processor@DV?$string_output_adapter@D@__crt_stdio_output@@V?$format_validation_base@DV?$string_output_adapter@D@__crt_stdio_output@@@2@@__crt_stdio_output@@AAEXI@Z 10044c40 f i libucrtd:output.obj
 0001:00043c60       ?unset_flag@?$output_processor@DV?$string_output_adapter@D@__crt_stdio_output@@V?$positional_parameter_base@DV?$string_output_adapter@D@__crt_stdio_output@@@2@@__crt_stdio_output@@AAEXI@Z 10044c60 f i libucrtd:output.obj
 0001:00043c80       ?unset_flag@?$output_processor@DV?$string_output_adapter@D@__crt_stdio_output@@V?$standard_base@DV?$string_output_adapter@D@__crt_stdio_output@@@2@@__crt_stdio_output@@AAEXI@Z 10044c80 f i libucrtd:output.obj
 0001:00043ca0       ?unset_flag@?$output_processor@_WV?$stream_output_adapter@_W@__crt_stdio_output@@V?$format_validation_base@_WV?$stream_output_adapter@_W@__crt_stdio_output@@@2@@__crt_stdio_output@@AAEXI@Z 10044ca0 f i libucrtd:output.obj
 0001:00043cc0       ?unset_flag@?$output_processor@_WV?$stream_output_adapter@_W@__crt_stdio_output@@V?$positional_parameter_base@_WV?$stream_output_adapter@_W@__crt_stdio_output@@@2@@__crt_stdio_output@@AAEXI@Z 10044cc0 f i libucrtd:output.obj
 0001:00043ce0       ?unset_flag@?$output_processor@_WV?$stream_output_adapter@_W@__crt_stdio_output@@V?$standard_base@_WV?$stream_output_adapter@_W@__crt_stdio_output@@@2@@__crt_stdio_output@@AAEXI@Z 10044ce0 f i libucrtd:output.obj
 0001:00043d00       ?unset_flag@?$output_processor@_WV?$string_output_adapter@_W@__crt_stdio_output@@V?$format_validation_base@_WV?$string_output_adapter@_W@__crt_stdio_output@@@2@@__crt_stdio_output@@AAEXI@Z 10044d00 f i libucrtd:output.obj
 0001:00043d20       ?unset_flag@?$output_processor@_WV?$string_output_adapter@_W@__crt_stdio_output@@V?$positional_parameter_base@_WV?$string_output_adapter@_W@__crt_stdio_output@@@2@@__crt_stdio_output@@AAEXI@Z 10044d20 f i libucrtd:output.obj
 0001:00043d40       ?unset_flag@?$output_processor@_WV?$string_output_adapter@_W@__crt_stdio_output@@V?$standard_base@_WV?$string_output_adapter@_W@__crt_stdio_output@@@2@@__crt_stdio_output@@AAEXI@Z 10044d40 f i libucrtd:output.obj
 0001:00043d60       ?update_field_width@?$positional_parameter_base@DV?$stream_output_adapter@D@__crt_stdio_output@@@__crt_stdio_output@@IAE_NXZ 10044d60 f i libucrtd:output.obj
 0001:00043ee0       ?update_field_width@?$positional_parameter_base@DV?$string_output_adapter@D@__crt_stdio_output@@@__crt_stdio_output@@IAE_NXZ 10044ee0 f i libucrtd:output.obj
 0001:00044060       ?update_field_width@?$positional_parameter_base@_WV?$stream_output_adapter@_W@__crt_stdio_output@@@__crt_stdio_output@@IAE_NXZ 10045060 f i libucrtd:output.obj
 0001:000441e0       ?update_field_width@?$positional_parameter_base@_WV?$string_output_adapter@_W@__crt_stdio_output@@@__crt_stdio_output@@IAE_NXZ 100451e0 f i libucrtd:output.obj
 0001:00044360       ?update_field_width@?$standard_base@DV?$stream_output_adapter@D@__crt_stdio_output@@@__crt_stdio_output@@IAE_NXZ 10045360 f i libucrtd:output.obj
 0001:00044390       ?update_field_width@?$standard_base@DV?$string_output_adapter@D@__crt_stdio_output@@@__crt_stdio_output@@IAE_NXZ 10045390 f i libucrtd:output.obj
 0001:000443c0       ?update_field_width@?$standard_base@_WV?$stream_output_adapter@_W@__crt_stdio_output@@@__crt_stdio_output@@IAE_NXZ 100453c0 f i libucrtd:output.obj
 0001:000443f0       ?update_field_width@?$standard_base@_WV?$string_output_adapter@_W@__crt_stdio_output@@@__crt_stdio_output@@IAE_NXZ 100453f0 f i libucrtd:output.obj
 0001:00044420       ?update_precision@?$positional_parameter_base@DV?$stream_output_adapter@D@__crt_stdio_output@@@__crt_stdio_output@@IAE_NXZ 10045420 f i libucrtd:output.obj
 0001:000445a0       ?update_precision@?$positional_parameter_base@DV?$string_output_adapter@D@__crt_stdio_output@@@__crt_stdio_output@@IAE_NXZ 100455a0 f i libucrtd:output.obj
 0001:00044720       ?update_precision@?$positional_parameter_base@_WV?$stream_output_adapter@_W@__crt_stdio_output@@@__crt_stdio_output@@IAE_NXZ 10045720 f i libucrtd:output.obj
 0001:000448a0       ?update_precision@?$positional_parameter_base@_WV?$string_output_adapter@_W@__crt_stdio_output@@@__crt_stdio_output@@IAE_NXZ 100458a0 f i libucrtd:output.obj
 0001:00044a20       ?update_precision@?$standard_base@DV?$stream_output_adapter@D@__crt_stdio_output@@@__crt_stdio_output@@IAE_NXZ 10045a20 f i libucrtd:output.obj
 0001:00044a50       ?update_precision@?$standard_base@DV?$string_output_adapter@D@__crt_stdio_output@@@__crt_stdio_output@@IAE_NXZ 10045a50 f i libucrtd:output.obj
 0001:00044a80       ?update_precision@?$standard_base@_WV?$stream_output_adapter@_W@__crt_stdio_output@@@__crt_stdio_output@@IAE_NXZ 10045a80 f i libucrtd:output.obj
 0001:00044ab0       ?update_precision@?$standard_base@_WV?$string_output_adapter@_W@__crt_stdio_output@@@__crt_stdio_output@@IAE_NXZ 10045ab0 f i libucrtd:output.obj
 0001:00044ae0       ?valid@__crt_stdio_stream@@QBE_NXZ 10045ae0 f i libucrtd:output.obj
 0001:00044b10       ?validate@?$stream_output_adapter@D@__crt_stdio_output@@QBE_NXZ 10045b10 f i libucrtd:output.obj
 0001:00044bc0       ?validate@?$stream_output_adapter@_W@__crt_stdio_output@@QBE_NXZ 10045bc0 f i libucrtd:output.obj
 0001:00044c70       ?validate@?$string_output_adapter@D@__crt_stdio_output@@QBE_NXZ 10045c70 f i libucrtd:output.obj
 0001:00044d00       ?validate@?$string_output_adapter@_W@__crt_stdio_output@@QBE_NXZ 10045d00 f i libucrtd:output.obj
 0001:00044d90       ?validate_and_store_parameter_data@?$positional_parameter_base@DV?$stream_output_adapter@D@__crt_stdio_output@@@__crt_stdio_output@@AAE_NAAUparameter_data@12@W4parameter_type@12@DW4length_modifier@2@@Z 10045d90 f i libucrtd:output.obj
 0001:00044e60       ?validate_and_store_parameter_data@?$positional_parameter_base@DV?$string_output_adapter@D@__crt_stdio_output@@@__crt_stdio_output@@AAE_NAAUparameter_data@12@W4parameter_type@12@DW4length_modifier@2@@Z 10045e60 f i libucrtd:output.obj
 0001:00044f30       ?validate_and_store_parameter_data@?$positional_parameter_base@_WV?$stream_output_adapter@_W@__crt_stdio_output@@@__crt_stdio_output@@AAE_NAAUparameter_data@12@W4parameter_type@12@_WW4length_modifier@2@@Z 10045f30 f i libucrtd:output.obj
 0001:00045010       ?validate_and_store_parameter_data@?$positional_parameter_base@_WV?$string_output_adapter@_W@__crt_stdio_output@@@__crt_stdio_output@@AAE_NAAUparameter_data@12@W4parameter_type@12@_WW4length_modifier@2@@Z 10046010 f i libucrtd:output.obj
 0001:000450f0       ?validate_and_update_state_at_beginning_of_format_character@?$positional_parameter_base@DV?$stream_output_adapter@D@__crt_stdio_output@@@__crt_stdio_output@@IAE_NXZ 100460f0 f i libucrtd:output.obj
 0001:00045310       ?validate_and_update_state_at_beginning_of_format_character@?$positional_parameter_base@DV?$string_output_adapter@D@__crt_stdio_output@@@__crt_stdio_output@@IAE_NXZ 10046310 f i libucrtd:output.obj
 0001:00045530       ?validate_and_update_state_at_beginning_of_format_character@?$positional_parameter_base@_WV?$stream_output_adapter@_W@__crt_stdio_output@@@__crt_stdio_output@@IAE_NXZ 10046530 f i libucrtd:output.obj
 0001:00045750       ?validate_and_update_state_at_beginning_of_format_character@?$positional_parameter_base@_WV?$string_output_adapter@_W@__crt_stdio_output@@@__crt_stdio_output@@IAE_NXZ 10046750 f i libucrtd:output.obj
 0001:00045970       ?validate_and_update_state_at_beginning_of_format_character@?$standard_base@DV?$stream_output_adapter@D@__crt_stdio_output@@@__crt_stdio_output@@IAE_NXZ 10046970 f i libucrtd:output.obj
 0001:00045980       ?validate_and_update_state_at_beginning_of_format_character@?$standard_base@DV?$string_output_adapter@D@__crt_stdio_output@@@__crt_stdio_output@@IAE_NXZ 10046980 f i libucrtd:output.obj
 0001:00045990       ?validate_and_update_state_at_beginning_of_format_character@?$standard_base@_WV?$stream_output_adapter@_W@__crt_stdio_output@@@__crt_stdio_output@@IAE_NXZ 10046990 f i libucrtd:output.obj
 0001:000459a0       ?validate_and_update_state_at_beginning_of_format_character@?$standard_base@_WV?$string_output_adapter@_W@__crt_stdio_output@@@__crt_stdio_output@@IAE_NXZ 100469a0 f i libucrtd:output.obj
 0001:000459b0       ?validate_and_update_state_at_end_of_format_string@?$format_validation_base@DV?$stream_output_adapter@D@__crt_stdio_output@@@__crt_stdio_output@@IBE_NXZ 100469b0 f i libucrtd:output.obj
 0001:00045a50       ?validate_and_update_state_at_end_of_format_string@?$format_validation_base@DV?$string_output_adapter@D@__crt_stdio_output@@@__crt_stdio_output@@IBE_NXZ 10046a50 f i libucrtd:output.obj
 0001:00045af0       ?validate_and_update_state_at_end_of_format_string@?$format_validation_base@_WV?$stream_output_adapter@_W@__crt_stdio_output@@@__crt_stdio_output@@IBE_NXZ 10046af0 f i libucrtd:output.obj
 0001:00045b90       ?validate_and_update_state_at_end_of_format_string@?$format_validation_base@_WV?$string_output_adapter@_W@__crt_stdio_output@@@__crt_stdio_output@@IBE_NXZ 10046b90 f i libucrtd:output.obj
 0001:00045c30       ?validate_and_update_state_at_end_of_format_string@?$positional_parameter_base@DV?$stream_output_adapter@D@__crt_stdio_output@@@__crt_stdio_output@@IAE_NXZ 10046c30 f i libucrtd:output.obj
 0001:00045dd0       ?validate_and_update_state_at_end_of_format_string@?$positional_parameter_base@DV?$string_output_adapter@D@__crt_stdio_output@@@__crt_stdio_output@@IAE_NXZ 10046dd0 f i libucrtd:output.obj
 0001:00045f70       ?validate_and_update_state_at_end_of_format_string@?$positional_parameter_base@_WV?$stream_output_adapter@_W@__crt_stdio_output@@@__crt_stdio_output@@IAE_NXZ 10046f70 f i libucrtd:output.obj
 0001:00046110       ?validate_and_update_state_at_end_of_format_string@?$positional_parameter_base@_WV?$string_output_adapter@_W@__crt_stdio_output@@@__crt_stdio_output@@IAE_NXZ 10047110 f i libucrtd:output.obj
 0001:000462b0       ?validate_and_update_state_at_end_of_format_string@?$standard_base@DV?$stream_output_adapter@D@__crt_stdio_output@@@__crt_stdio_output@@IBE_NXZ 100472b0 f i libucrtd:output.obj
 0001:000462c0       ?validate_and_update_state_at_end_of_format_string@?$standard_base@DV?$string_output_adapter@D@__crt_stdio_output@@@__crt_stdio_output@@IBE_NXZ 100472c0 f i libucrtd:output.obj
 0001:000462d0       ?validate_and_update_state_at_end_of_format_string@?$standard_base@_WV?$stream_output_adapter@_W@__crt_stdio_output@@@__crt_stdio_output@@IBE_NXZ 100472d0 f i libucrtd:output.obj
 0001:000462e0       ?validate_and_update_state_at_end_of_format_string@?$standard_base@_WV?$string_output_adapter@_W@__crt_stdio_output@@@__crt_stdio_output@@IBE_NXZ 100472e0 f i libucrtd:output.obj
 0001:000462f0       ?validate_state_for_type_case_a@?$positional_parameter_base@DV?$stream_output_adapter@D@__crt_stdio_output@@@__crt_stdio_output@@IAE_NXZ 100472f0 f i libucrtd:output.obj
 0001:000463e0       ?validate_state_for_type_case_a@?$positional_parameter_base@DV?$string_output_adapter@D@__crt_stdio_output@@@__crt_stdio_output@@IAE_NXZ 100473e0 f i libucrtd:output.obj
 0001:000464d0       ?validate_state_for_type_case_a@?$positional_parameter_base@_WV?$stream_output_adapter@_W@__crt_stdio_output@@@__crt_stdio_output@@IAE_NXZ 100474d0 f i libucrtd:output.obj
 0001:000465c0       ?validate_state_for_type_case_a@?$positional_parameter_base@_WV?$string_output_adapter@_W@__crt_stdio_output@@@__crt_stdio_output@@IAE_NXZ 100475c0 f i libucrtd:output.obj
 0001:000466b0       ?validate_state_for_type_case_a@?$standard_base@DV?$stream_output_adapter@D@__crt_stdio_output@@@__crt_stdio_output@@IBE_NXZ 100476b0 f i libucrtd:output.obj
 0001:000466c0       ?validate_state_for_type_case_a@?$standard_base@DV?$string_output_adapter@D@__crt_stdio_output@@@__crt_stdio_output@@IBE_NXZ 100476c0 f i libucrtd:output.obj
 0001:000466d0       ?validate_state_for_type_case_a@?$standard_base@_WV?$stream_output_adapter@_W@__crt_stdio_output@@@__crt_stdio_output@@IBE_NXZ 100476d0 f i libucrtd:output.obj
 0001:000466e0       ?validate_state_for_type_case_a@?$standard_base@_WV?$string_output_adapter@_W@__crt_stdio_output@@@__crt_stdio_output@@IBE_NXZ 100476e0 f i libucrtd:output.obj
 0001:000466f0       ?validate_stream_is_ansi_if_required@?$__acrt_stdio_char_traits@D@@SA_NQAU_iobuf@@@Z 100476f0 f i libucrtd:output.obj
 0001:00046820       ?validate_stream_is_ansi_if_required@?$__acrt_stdio_char_traits@_W@@SA_NQAU_iobuf@@@Z 10047820 f i libucrtd:output.obj
 0001:00046830       ?wide_null_string@?$output_processor@DV?$stream_output_adapter@D@__crt_stdio_output@@V?$format_validation_base@DV?$stream_output_adapter@D@__crt_stdio_output@@@2@@__crt_stdio_output@@CAPA_WXZ 10047830 f i libucrtd:output.obj
 0001:00046840       ?wide_null_string@?$output_processor@DV?$stream_output_adapter@D@__crt_stdio_output@@V?$positional_parameter_base@DV?$stream_output_adapter@D@__crt_stdio_output@@@2@@__crt_stdio_output@@CAPA_WXZ 10047840 f i libucrtd:output.obj
 0001:00046850       ?wide_null_string@?$output_processor@DV?$stream_output_adapter@D@__crt_stdio_output@@V?$standard_base@DV?$stream_output_adapter@D@__crt_stdio_output@@@2@@__crt_stdio_output@@CAPA_WXZ 10047850 f i libucrtd:output.obj
 0001:00046860       ?wide_null_string@?$output_processor@DV?$string_output_adapter@D@__crt_stdio_output@@V?$format_validation_base@DV?$string_output_adapter@D@__crt_stdio_output@@@2@@__crt_stdio_output@@CAPA_WXZ 10047860 f i libucrtd:output.obj
 0001:00046870       ?wide_null_string@?$output_processor@DV?$string_output_adapter@D@__crt_stdio_output@@V?$positional_parameter_base@DV?$string_output_adapter@D@__crt_stdio_output@@@2@@__crt_stdio_output@@CAPA_WXZ 10047870 f i libucrtd:output.obj
 0001:00046880       ?wide_null_string@?$output_processor@DV?$string_output_adapter@D@__crt_stdio_output@@V?$standard_base@DV?$string_output_adapter@D@__crt_stdio_output@@@2@@__crt_stdio_output@@CAPA_WXZ 10047880 f i libucrtd:output.obj
 0001:00046890       ?wide_null_string@?$output_processor@_WV?$stream_output_adapter@_W@__crt_stdio_output@@V?$format_validation_base@_WV?$stream_output_adapter@_W@__crt_stdio_output@@@2@@__crt_stdio_output@@CAPA_WXZ 10047890 f i libucrtd:output.obj
 0001:000468a0       ?wide_null_string@?$output_processor@_WV?$stream_output_adapter@_W@__crt_stdio_output@@V?$positional_parameter_base@_WV?$stream_output_adapter@_W@__crt_stdio_output@@@2@@__crt_stdio_output@@CAPA_WXZ 100478a0 f i libucrtd:output.obj
 0001:000468b0       ?wide_null_string@?$output_processor@_WV?$stream_output_adapter@_W@__crt_stdio_output@@V?$standard_base@_WV?$stream_output_adapter@_W@__crt_stdio_output@@@2@@__crt_stdio_output@@CAPA_WXZ 100478b0 f i libucrtd:output.obj
 0001:000468c0       ?wide_null_string@?$output_processor@_WV?$string_output_adapter@_W@__crt_stdio_output@@V?$format_validation_base@_WV?$string_output_adapter@_W@__crt_stdio_output@@@2@@__crt_stdio_output@@CAPA_WXZ 100478c0 f i libucrtd:output.obj
 0001:000468d0       ?wide_null_string@?$output_processor@_WV?$string_output_adapter@_W@__crt_stdio_output@@V?$positional_parameter_base@_WV?$string_output_adapter@_W@__crt_stdio_output@@@2@@__crt_stdio_output@@CAPA_WXZ 100478d0 f i libucrtd:output.obj
 0001:000468e0       ?wide_null_string@?$output_processor@_WV?$string_output_adapter@_W@__crt_stdio_output@@V?$standard_base@_WV?$string_output_adapter@_W@__crt_stdio_output@@@2@@__crt_stdio_output@@CAPA_WXZ 100478e0 f i libucrtd:output.obj
 0001:000468f0       ?write_character@?$output_adapter_common@DV?$stream_output_adapter@D@__crt_stdio_output@@@__crt_stdio_output@@QBEXDQAH@Z 100478f0 f i libucrtd:output.obj
 0001:00046930       ?write_character@?$output_adapter_common@_WV?$stream_output_adapter@_W@__crt_stdio_output@@@__crt_stdio_output@@QBEX_WQAH@Z 10047930 f i libucrtd:output.obj
 0001:00046970       ?write_character@?$string_output_adapter@D@__crt_stdio_output@@QBE_NDQAH@Z 10047970 f i libucrtd:output.obj
 0001:00046a00       ?write_character@?$string_output_adapter@_W@__crt_stdio_output@@QBE_N_WQAH@Z 10047a00 f i libucrtd:output.obj
 0001:00046aa0       ?write_character_without_count_update@?$stream_output_adapter@D@__crt_stdio_output@@QBE_ND@Z 10047aa0 f i libucrtd:output.obj
 0001:00046b10       ?write_character_without_count_update@?$stream_output_adapter@_W@__crt_stdio_output@@QBE_N_W@Z 10047b10 f i libucrtd:output.obj
 0001:00046b80       ?write_stored_string_tchar@?$output_processor@DV?$stream_output_adapter@D@__crt_stdio_output@@V?$format_validation_base@DV?$stream_output_adapter@D@__crt_stdio_output@@@2@@__crt_stdio_output@@AAE_ND@Z 10047b80 f i libucrtd:output.obj
 0001:00046c90       ?write_stored_string_tchar@?$output_processor@DV?$stream_output_adapter@D@__crt_stdio_output@@V?$positional_parameter_base@DV?$stream_output_adapter@D@__crt_stdio_output@@@2@@__crt_stdio_output@@AAE_ND@Z 10047c90 f i libucrtd:output.obj
 0001:00046da0       ?write_stored_string_tchar@?$output_processor@DV?$stream_output_adapter@D@__crt_stdio_output@@V?$standard_base@DV?$stream_output_adapter@D@__crt_stdio_output@@@2@@__crt_stdio_output@@AAE_ND@Z 10047da0 f i libucrtd:output.obj
 0001:00046eb0       ?write_stored_string_tchar@?$output_processor@DV?$string_output_adapter@D@__crt_stdio_output@@V?$format_validation_base@DV?$string_output_adapter@D@__crt_stdio_output@@@2@@__crt_stdio_output@@AAE_ND@Z 10047eb0 f i libucrtd:output.obj
 0001:00046fc0       ?write_stored_string_tchar@?$output_processor@DV?$string_output_adapter@D@__crt_stdio_output@@V?$positional_parameter_base@DV?$string_output_adapter@D@__crt_stdio_output@@@2@@__crt_stdio_output@@AAE_ND@Z 10047fc0 f i libucrtd:output.obj
 0001:000470d0       ?write_stored_string_tchar@?$output_processor@DV?$string_output_adapter@D@__crt_stdio_output@@V?$standard_base@DV?$string_output_adapter@D@__crt_stdio_output@@@2@@__crt_stdio_output@@AAE_ND@Z 100480d0 f i libucrtd:output.obj
 0001:000471e0       ?write_stored_string_tchar@?$output_processor@_WV?$stream_output_adapter@_W@__crt_stdio_output@@V?$format_validation_base@_WV?$stream_output_adapter@_W@__crt_stdio_output@@@2@@__crt_stdio_output@@AAE_N_W@Z 100481e0 f i libucrtd:output.obj
 0001:000472d0       ?write_stored_string_tchar@?$output_processor@_WV?$stream_output_adapter@_W@__crt_stdio_output@@V?$positional_parameter_base@_WV?$stream_output_adapter@_W@__crt_stdio_output@@@2@@__crt_stdio_output@@AAE_N_W@Z 100482d0 f i libucrtd:output.obj
 0001:000473c0       ?write_stored_string_tchar@?$output_processor@_WV?$stream_output_adapter@_W@__crt_stdio_output@@V?$standard_base@_WV?$stream_output_adapter@_W@__crt_stdio_output@@@2@@__crt_stdio_output@@AAE_N_W@Z 100483c0 f i libucrtd:output.obj
 0001:000474b0       ?write_stored_string_tchar@?$output_processor@_WV?$string_output_adapter@_W@__crt_stdio_output@@V?$format_validation_base@_WV?$string_output_adapter@_W@__crt_stdio_output@@@2@@__crt_stdio_output@@AAE_N_W@Z 100484b0 f i libucrtd:output.obj
 0001:000475a0       ?write_stored_string_tchar@?$output_processor@_WV?$string_output_adapter@_W@__crt_stdio_output@@V?$positional_parameter_base@_WV?$string_output_adapter@_W@__crt_stdio_output@@@2@@__crt_stdio_output@@AAE_N_W@Z 100485a0 f i libucrtd:output.obj
 0001:00047690       ?write_stored_string_tchar@?$output_processor@_WV?$string_output_adapter@_W@__crt_stdio_output@@V?$standard_base@_WV?$string_output_adapter@_W@__crt_stdio_output@@@2@@__crt_stdio_output@@AAE_N_W@Z 10048690 f i libucrtd:output.obj
 0001:00047780       ?write_string@?$stream_output_adapter@D@__crt_stdio_output@@QBEXQBDHQAHAAV__crt_deferred_errno_cache@@@Z 10048780 f i libucrtd:output.obj
 0001:000477e0       ?write_string@?$stream_output_adapter@_W@__crt_stdio_output@@QBEXQB_WHQAHAAV__crt_deferred_errno_cache@@@Z 100487e0 f i libucrtd:output.obj
 0001:00047840       ?write_string@?$string_output_adapter@D@__crt_stdio_output@@QBEXQBDHQAHAAV__crt_deferred_errno_cache@@@Z 10048840 f i libucrtd:output.obj
 0001:00047940       ?write_string@?$string_output_adapter@_W@__crt_stdio_output@@QBEXQB_WHQAHAAV__crt_deferred_errno_cache@@@Z 10048940 f i libucrtd:output.obj
 0001:00047a50       ?write_string_impl@?$output_adapter_common@DV?$stream_output_adapter@D@__crt_stdio_output@@@__crt_stdio_output@@IBEXQBDHQAHAAV__crt_deferred_errno_cache@@@Z 10048a50 f i libucrtd:output.obj
 0001:00047af0       ?write_string_impl@?$output_adapter_common@_WV?$stream_output_adapter@_W@__crt_stdio_output@@@__crt_stdio_output@@IBEXQB_WHQAHAAV__crt_deferred_errno_cache@@@Z 10048af0 f i libucrtd:output.obj
 0001:00047b90       ___acrt_isleadbyte_l_noupdate 10048b90 f i libucrtd:output.obj
 0001:00047bb0       ___acrt_locale_changed     10048bb0 f i libucrtd:output.obj
 0001:00047be0       ___acrt_locale_get_ctype_array_value 10048be0 f i libucrtd:output.obj
 0001:00047c10       ___stdio_common_vfprintf   10048c10 f   libucrtd:output.obj
 0001:00047c40       ___stdio_common_vfprintf_p 10048c40 f   libucrtd:output.obj
 0001:00047c70       ___stdio_common_vfprintf_s 10048c70 f   libucrtd:output.obj
 0001:00047ca0       ___stdio_common_vfwprintf  10048ca0 f   libucrtd:output.obj
 0001:00047cd0       ___stdio_common_vfwprintf_p 10048cd0 f   libucrtd:output.obj
 0001:00047d00       ___stdio_common_vfwprintf_s 10048d00 f   libucrtd:output.obj
 0001:00047d30       ___stdio_common_vsnprintf_s 10048d30 f   libucrtd:output.obj
 0001:00047d60       ___stdio_common_vsnwprintf_s 10048d60 f   libucrtd:output.obj
 0001:00047d90       ___stdio_common_vsprintf   10048d90 f   libucrtd:output.obj
 0001:00047dc0       ___stdio_common_vsprintf_p 10048dc0 f   libucrtd:output.obj
 0001:00047df0       ___stdio_common_vsprintf_s 10048df0 f   libucrtd:output.obj
 0001:00047e20       ___stdio_common_vswprintf  10048e20 f   libucrtd:output.obj
 0001:00047e50       ___stdio_common_vswprintf_p 10048e50 f   libucrtd:output.obj
 0001:00047e80       ___stdio_common_vswprintf_s 10048e80 f   libucrtd:output.obj
 0001:00047eb0       __ctype_fast_check_internal 10048eb0 f i libucrtd:output.obj
 0001:00047ed0       __isdigit_fast_internal    10048ed0 f i libucrtd:output.obj
 0001:00047ef0       __tolower_fast_internal    10048ef0 f i libucrtd:output.obj
 0001:00047f10       ??$__crt_fast_decode_pointer@P6AXPB_W00II@Z@@YAP6AXPB_W00II@ZQ6AX000II@Z@Z 10048f10 f i libucrtd:invalid_parameter.obj
 0001:00047f40       ??$__crt_fast_encode_pointer@P6AXPB_W00II@Z@@YAP6AXPB_W00II@ZQ6AX000II@Z@Z 10048f40 f i libucrtd:invalid_parameter.obj
 0001:00047f70       ??$initialize_from_array@$$BY00Q6AXPB_W00II@Z@?$dual_state_global@P6AXPB_W00II@Z@__crt_state_management@@QAAXAAY00Q6AXPB_W00II@Z@Z 10048f70 f i libucrtd:invalid_parameter.obj
 0001:00047fc0       ?__crt_rotate_pointer_value@@YAIIH@Z 10048fc0 f i libucrtd:invalid_parameter.obj
 0001:00047fd0       ?dangerous_get_state_array@?$dual_state_global@P6AXPB_W00II@Z@__crt_state_management@@QAEPAP6AXPB_W00II@ZXZ 10048fd0 f i libucrtd:invalid_parameter.obj
 0001:00047fe0       ?get_current_state_index@__crt_state_management@@YAIXZ 10048fe0 f i libucrtd:invalid_parameter.obj
 0001:00047ff0       ?value@?$dual_state_global@P6AXPB_W00II@Z@__crt_state_management@@QAEAAP6AXPB_W00II@ZXZ 10048ff0 f i libucrtd:invalid_parameter.obj
 0001:00048010       ___acrt_call_reportfault   10049010 f   libucrtd:invalid_parameter.obj
 0001:00048170       ___acrt_initialize_invalid_parameter_handler 10049170 f   libucrtd:invalid_parameter.obj
 0001:000481a0       __get_invalid_parameter_handler 100491a0 f   libucrtd:invalid_parameter.obj
 0001:000481c0       __get_thread_local_invalid_parameter_handler 100491c0 f   libucrtd:invalid_parameter.obj
 0001:000481f0       __invalid_parameter        100491f0 f   libucrtd:invalid_parameter.obj
 0001:000482b0       __invalid_parameter_noinfo 100492b0 f   libucrtd:invalid_parameter.obj
 0001:000482d0       __invalid_parameter_noinfo_noreturn 100492d0 f   libucrtd:invalid_parameter.obj
 0001:00048300       __invoke_watson            10049300 f   libucrtd:invalid_parameter.obj
 0001:00048340       __set_invalid_parameter_handler 10049340 f   libucrtd:invalid_parameter.obj
 0001:00048390       __set_thread_local_invalid_parameter_handler 10049390 f   libucrtd:invalid_parameter.obj
 0001:000483c0       ___acrt_errno_from_os_error 100493c0 f   libucrtd:errno.obj
 0001:00048440       ___acrt_errno_map_os_error 10049440 f   libucrtd:errno.obj
 0001:00048470       ___doserrno                10049470 f   libucrtd:errno.obj
 0001:000484a0       __errno                    100494a0 f   libucrtd:errno.obj
 0001:000484d0       __get_doserrno             100494d0 f   libucrtd:errno.obj
 0001:00048560       __get_errno                10049560 f   libucrtd:errno.obj
 0001:000485f0       __set_doserrno             100495f0 f   libucrtd:errno.obj
 0001:00048620       __set_errno                10049620 f   libucrtd:errno.obj
 0001:00048650       __recalloc                 10049650 f   libucrtd:recalloc.obj
 0001:00048680       __recalloc_base            10049680 f   libucrtd:recalloc.obj
 0001:00048b40       _wcscat_s                  10049b40 f   libucrtd:wcscat_s.obj
 0001:00048f90       _wcsncpy_s                 10049f90 f   libucrtd:wcsncpy_s.obj
 0001:00049000       __seh_filter_dll           1004a000 f   libucrtd:exception_filter.obj
 0001:00049030       __seh_filter_exe           1004a030 f   libucrtd:exception_filter.obj
 0001:00049240       ??$?B$$A6GXPAXK0@Z@__crt_fast_encoded_nullptr_t@@QBEP6GXPAXK0@ZXZ 1004a240 f i libucrtd:exit.obj
 0001:00049320       ??$__crt_fast_decode_pointer@P6GXPAXK0@Z@@YAP6GXPAXK0@ZQ6GX0K0@Z@Z 1004a320 f i libucrtd:exit.obj
 0001:00049350       ??$__crt_fast_encode_pointer@P6GXPAXK0@Z@@YAP6GXPAXK0@ZQ6GX0K0@Z@Z 1004a350 f i libucrtd:exit.obj
 0001:00049380       ??$__crt_get_proc_address@P6GXI@Z@@YAP6GXI@ZQAUHINSTANCE__@@QBD@Z 1004a380 f i libucrtd:exit.obj
 0001:00049410       ??0?$__crt_unique_handle_t@U__crt_hmodule_traits@@@@QAE@QAUHINSTANCE__@@@Z 1004a410 f i libucrtd:exit.obj
 0001:00049430       ??1?$__crt_unique_handle_t@U__crt_hmodule_traits@@@@QAE@XZ 1004a430 f i libucrtd:exit.obj
 0001:000495f0       ?__acrt_select_exit_lock@@YA?AW4__acrt_lock_id@@XZ 1004a5f0 f i libucrtd:exit.obj
 0001:00049600       ?__crt_fast_encode_pointer@@YA?AU__crt_fast_encoded_nullptr_t@@$$T@Z 1004a600 f i libucrtd:exit.obj
 0001:00049630       ?close@?$__crt_unique_handle_t@U__crt_hmodule_traits@@@@QAEXXZ 1004a630 f i libucrtd:exit.obj
 0001:00049670       ?close@__crt_hmodule_traits@@SA_NPAUHINSTANCE__@@@Z 1004a670 f i libucrtd:exit.obj
 0001:00049760       ?get@?$__crt_unique_handle_t@U__crt_hmodule_traits@@@@QBEPAUHINSTANCE__@@XZ 1004a760 f i libucrtd:exit.obj
 0001:00049780       ?get_address_of@?$__crt_unique_handle_t@U__crt_hmodule_traits@@@@QAEPAPAUHINSTANCE__@@XZ 1004a780 f i libucrtd:exit.obj
 0001:00049790       ?get_invalid_value@__crt_hmodule_traits@@SAPAUHINSTANCE__@@XZ 1004a790 f i libucrtd:exit.obj
 0001:00049910       __Exit                     1004a910 f   libucrtd:exit.obj
 0001:00049930       ___acrt_initialize_thread_local_exit_callback 1004a930 f   libucrtd:exit.obj
 0001:00049940       __c_exit                   1004a940 f   libucrtd:exit.obj
 0001:00049960       __cexit                    1004a960 f   libucrtd:exit.obj
 0001:00049980       __exit                     1004a980 f   libucrtd:exit.obj
 0001:000499a0       __is_c_termination_complete 1004a9a0 f   libucrtd:exit.obj
 0001:000499c0       __register_thread_local_exe_atexit_callback 1004a9c0 f   libucrtd:exit.obj
 0001:00049a00       _exit                      1004aa00 f   libucrtd:exit.obj
 0001:00049a20       _quick_exit                1004aa20 f   libucrtd:exit.obj
 0001:00049a40       ??$?RE@__crt_internal_free_policy@@QBEXQBE@Z 1004aa40 f i libucrtd:argv_parsing.obj
 0001:00049a60       ??$?RPAD@__crt_internal_free_policy@@QBEXQBQAD@Z 1004aa60 f i libucrtd:argv_parsing.obj
 0001:00049a80       ??$?RPA_W@__crt_internal_free_policy@@QBEXQBQA_W@Z 1004aa80 f i libucrtd:argv_parsing.obj
 0001:00049fe0       ??$get_module_file_name@$$TAAY0BAF@DH@?$__crt_char_traits@D@@SAK$$QA$$TAAY0BAF@D$$QAH@Z 1004afe0 f i libucrtd:argv_parsing.obj
 0001:0004a000       ??$get_module_file_name@$$TAAY0BAF@_WH@?$__crt_char_traits@_W@@SAK$$QA$$TAAY0BAF@_W$$QAH@Z 1004b000 f i libucrtd:argv_parsing.obj
 0001:0004a720       ??$set_program_name@PAD@?$__crt_char_traits@D@@SAX$$QAPAD@Z 1004b720 f i libucrtd:argv_parsing.obj
 0001:0004a740       ??$set_program_name@PA_W@?$__crt_char_traits@_W@@SAX$$QAPA_W@Z 1004b740 f i libucrtd:argv_parsing.obj
 0001:0004a7a0       ??0?$__crt_unique_heap_ptr@EU__crt_internal_free_policy@@@@QAE@QAE@Z 1004b7a0 f i libucrtd:argv_parsing.obj
 0001:0004a7c0       ??0?$__crt_unique_heap_ptr@PADU__crt_internal_free_policy@@@@QAE@QAPAD@Z 1004b7c0 f i libucrtd:argv_parsing.obj
 0001:0004a7e0       ??0?$__crt_unique_heap_ptr@PA_WU__crt_internal_free_policy@@@@QAE@QAPA_W@Z 1004b7e0 f i libucrtd:argv_parsing.obj
 0001:0004a800       ??1?$__crt_unique_heap_ptr@EU__crt_internal_free_policy@@@@QAE@XZ 1004b800 f i libucrtd:argv_parsing.obj
 0001:0004a820       ??1?$__crt_unique_heap_ptr@PADU__crt_internal_free_policy@@@@QAE@XZ 1004b820 f i libucrtd:argv_parsing.obj
 0001:0004a840       ??1?$__crt_unique_heap_ptr@PA_WU__crt_internal_free_policy@@@@QAE@XZ 1004b840 f i libucrtd:argv_parsing.obj
 0001:0004a860       ??B?$__crt_unique_heap_ptr@EU__crt_internal_free_policy@@@@QBE_NXZ 1004b860 f i libucrtd:argv_parsing.obj
 0001:0004a920       ?detach@?$__crt_unique_heap_ptr@EU__crt_internal_free_policy@@@@QAEPAEXZ 1004b920 f i libucrtd:argv_parsing.obj
 0001:0004a950       ?detach@?$__crt_unique_heap_ptr@PADU__crt_internal_free_policy@@@@QAEPAPADXZ 1004b950 f i libucrtd:argv_parsing.obj
 0001:0004a980       ?detach@?$__crt_unique_heap_ptr@PA_WU__crt_internal_free_policy@@@@QAEPAPA_WXZ 1004b980 f i libucrtd:argv_parsing.obj
 0001:0004aa10       ?get@?$__crt_unique_heap_ptr@EU__crt_internal_free_policy@@@@QBEPAEXZ 1004ba10 f i libucrtd:argv_parsing.obj
 0001:0004aa30       ?get@?$__crt_unique_heap_ptr@PADU__crt_internal_free_policy@@@@QBEPAPADXZ 1004ba30 f i libucrtd:argv_parsing.obj
 0001:0004aa50       ?get@?$__crt_unique_heap_ptr@PA_WU__crt_internal_free_policy@@@@QBEPAPA_WXZ 1004ba50 f i libucrtd:argv_parsing.obj
 0001:0004aa70       ?get_address_of@?$__crt_unique_heap_ptr@PADU__crt_internal_free_policy@@@@QAEPAPAPADXZ 1004ba70 f i libucrtd:argv_parsing.obj
 0001:0004aa80       ?get_address_of@?$__crt_unique_heap_ptr@PA_WU__crt_internal_free_policy@@@@QAEPAPAPA_WXZ 1004ba80 f i libucrtd:argv_parsing.obj
 0001:0004aad0       ?is_valid@?$__crt_unique_heap_ptr@EU__crt_internal_free_policy@@@@QBE_NXZ 1004bad0 f i libucrtd:argv_parsing.obj
 0001:0004ab00       ?release@?$__crt_unique_heap_ptr@EU__crt_internal_free_policy@@@@QAEXXZ 1004bb00 f i libucrtd:argv_parsing.obj
 0001:0004ab30       ?release@?$__crt_unique_heap_ptr@PADU__crt_internal_free_policy@@@@QAEXXZ 1004bb30 f i libucrtd:argv_parsing.obj
 0001:0004ab60       ?release@?$__crt_unique_heap_ptr@PA_WU__crt_internal_free_policy@@@@QAEXXZ 1004bb60 f i libucrtd:argv_parsing.obj
 0001:0004abd0       ___acrt_allocate_buffer_for_argv 1004bbd0 f   libucrtd:argv_parsing.obj
 0001:0004ac90       __configure_narrow_argv    1004bc90 f   libucrtd:argv_parsing.obj
 0001:0004acb0       __configure_wide_argv      1004bcb0 f   libucrtd:argv_parsing.obj
 0001:0004acd0       __set_pgmptr               1004bcd0 f i libucrtd:argv_parsing.obj
 0001:0004ace0       __set_wpgmptr              1004bce0 f i libucrtd:argv_parsing.obj
 0001:0004acef       ??$?R_W@__crt_internal_free_policy@@QBEXQB_W@Z 1004bcef f i libucrtd:environment_initialization.obj
 0001:0004b158       ??$get_environment_from_os@$$V@?$__crt_char_traits@D@@SAPADXZ 1004c158 f i libucrtd:environment_initialization.obj
 0001:0004b15d       ??$get_environment_from_os@$$V@?$__crt_char_traits@_W@@SAPA_WXZ 1004c15d f i libucrtd:environment_initialization.obj
 0001:0004b286       ??$set_variable_in_environment_nolock@PADH@?$__crt_char_traits@D@@SAH$$QAPAD$$QAH@Z 1004c286 f i libucrtd:environment_initialization.obj
 0001:0004b29e       ??$set_variable_in_environment_nolock@PA_WH@?$__crt_char_traits@_W@@SAH$$QAPA_W$$QAH@Z 1004c29e f i libucrtd:environment_initialization.obj
 0001:0004b2b6       ??$tcscpy_s@PADABIAAPAD@?$__crt_char_traits@D@@SAH$$QAPADABIAAPAD@Z 1004c2b6 f i libucrtd:environment_initialization.obj
 0001:0004b2d4       ??$tcscpy_s@PA_WABIAAPA_W@?$__crt_char_traits@_W@@SAH$$QAPA_WABIAAPA_W@Z 1004c2d4 f i libucrtd:environment_initialization.obj
 0001:0004b2f2       ??$tcslen@AAPAD@?$__crt_char_traits@D@@SAIAAPAD@Z 1004c2f2 f i libucrtd:environment_initialization.obj
 0001:0004b30a       ??$tcslen@AAPA_W@?$__crt_char_traits@_W@@SAIAAPA_W@Z 1004c30a f i libucrtd:environment_initialization.obj
 0001:0004b328       ??$uninitialize@A6AXAAPAPAD@Z@?$dual_state_global@PAPAD@__crt_state_management@@QAEXA6AXAAPAPAD@Z@Z 1004c328 f i libucrtd:environment_initialization.obj
 0001:0004b351       ??$uninitialize@A6AXAAPAPA_W@Z@?$dual_state_global@PAPA_W@__crt_state_management@@QAEXA6AXAAPAPA_W@Z@Z 1004c351 f i libucrtd:environment_initialization.obj
 0001:0004b3b0       ??0?$__crt_unique_heap_ptr@_WU__crt_internal_free_policy@@@@QAE@QA_W@Z 1004c3b0 f i libucrtd:environment_initialization.obj
 0001:0004b3c0       ??1?$__crt_unique_heap_ptr@_WU__crt_internal_free_policy@@@@QAE@XZ 1004c3c0 f i libucrtd:environment_initialization.obj
 0001:0004b3d5       ??B?$__crt_unique_heap_ptr@PADU__crt_internal_free_policy@@@@QBE_NXZ 1004c3d5 f i libucrtd:environment_initialization.obj
 0001:0004b3dc       ??B?$__crt_unique_heap_ptr@PA_WU__crt_internal_free_policy@@@@QBE_NXZ 1004c3dc f i libucrtd:environment_initialization.obj
 0001:0004b3e3       ??B?$__crt_unique_heap_ptr@_WU__crt_internal_free_policy@@@@QBE_NXZ 1004c3e3 f i libucrtd:environment_initialization.obj
 0001:0004b3ea       ?__crt_compute_required_transform_buffer_count@@YAIIQBD@Z 1004c3ea f i libucrtd:environment_initialization.obj
 0001:0004b406       ?__crt_compute_required_transform_buffer_count@@YAIIQB_W@Z 1004c406 f i libucrtd:environment_initialization.obj
 0001:0004b424       ?__crt_transform_string@@YAIIQBDQA_WI@Z 1004c424 f i libucrtd:environment_initialization.obj
 0001:0004b443       ?__crt_transform_string@@YAIIQB_WQADI@Z 1004c443 f i libucrtd:environment_initialization.obj
 0001:0004b465       ?detach@?$__crt_unique_heap_ptr@DU__crt_internal_free_policy@@@@QAEPADXZ 1004c465 f i libucrtd:environment_initialization.obj
 0001:0004b46b       ?detach@?$__crt_unique_heap_ptr@_WU__crt_internal_free_policy@@@@QAEPA_WXZ 1004c46b f i libucrtd:environment_initialization.obj
 0001:0004b471       ?get@?$__crt_unique_heap_ptr@_WU__crt_internal_free_policy@@@@QBEPA_WXZ 1004c471 f i libucrtd:environment_initialization.obj
 0001:0004b498       ?initialize@?$dual_state_global@PAPAD@__crt_state_management@@QAEXQAPAD@Z 1004c498 f i libucrtd:environment_initialization.obj
 0001:0004b4be       ?initialize@?$dual_state_global@PAPA_W@__crt_state_management@@QAEXQAPA_W@Z 1004c4be f i libucrtd:environment_initialization.obj
 0001:0004b4e4       ?is_valid@?$__crt_unique_heap_ptr@PADU__crt_internal_free_policy@@@@QBE_NXZ 1004c4e4 f i libucrtd:environment_initialization.obj
 0001:0004b4eb       ?is_valid@?$__crt_unique_heap_ptr@PA_WU__crt_internal_free_policy@@@@QBE_NXZ 1004c4eb f i libucrtd:environment_initialization.obj
 0001:0004b4f2       ?is_valid@?$__crt_unique_heap_ptr@_WU__crt_internal_free_policy@@@@QBE_NXZ 1004c4f2 f i libucrtd:environment_initialization.obj
 0001:0004b501       ?release@?$__crt_unique_heap_ptr@_WU__crt_internal_free_policy@@@@QAEXXZ 1004c501 f i libucrtd:environment_initialization.obj
 0001:0004b516       ?value@?$dual_state_global@PAPAD@__crt_state_management@@QAEAAPAPADXZ 1004c516 f i libucrtd:environment_initialization.obj
 0001:0004b519       ?value@?$dual_state_global@PAPA_W@__crt_state_management@@QAEAAPAPA_WXZ 1004c519 f i libucrtd:environment_initialization.obj
 0001:0004b51c       ___dcrt_get_or_create_narrow_environment_nolock 1004c51c f   libucrtd:environment_initialization.obj
 0001:0004b521       ___dcrt_get_or_create_wide_environment_nolock 1004c521 f   libucrtd:environment_initialization.obj
 0001:0004b526       ___dcrt_uninitialize_environments_nolock 1004c526 f   libucrtd:environment_initialization.obj
 0001:0004b55d       ___p__environ              1004c55d f   libucrtd:environment_initialization.obj
 0001:0004b563       ___p__wenviron             1004c563 f   libucrtd:environment_initialization.obj
 0001:0004b569       __get_initial_narrow_environment 1004c569 f   libucrtd:environment_initialization.obj
 0001:0004b57d       __get_initial_wide_environment 1004c57d f   libucrtd:environment_initialization.obj
 0001:0004b591       __initialize_narrow_environment 1004c591 f   libucrtd:environment_initialization.obj
 0001:0004b596       __initialize_wide_environment 1004c596 f   libucrtd:environment_initialization.obj
 0001:0004b5a0       ??$?B$$A6AXXZ@__crt_fast_encoded_nullptr_t@@QBEP6AXXZXZ 1004c5a0 f i libucrtd:onexit.obj
 0001:0004b5c0       ??$?BP6AXXZ@__crt_fast_encoded_nullptr_t@@QBEPAP6AXXZXZ 1004c5c0 f i libucrtd:onexit.obj
 0001:0004b5e0       ??$?RP6AXXZ@__crt_internal_free_policy@@QBEXQBQ6AXXZ@Z 1004c5e0 f i libucrtd:onexit.obj
 0001:0004b7a0       ??$__crt_fast_decode_pointer@P6AXXZ@@YAP6AXXZQ6AXXZ@Z 1004c7a0 f i libucrtd:onexit.obj
 0001:0004b7d0       ??$__crt_fast_decode_pointer@PAP6AXXZ@@YAPAP6AXXZQAP6AXXZ@Z 1004c7d0 f i libucrtd:onexit.obj
 0001:0004b800       ??$__crt_fast_encode_pointer@P6AHXZ@@YAP6AHXZQ6AHXZ@Z 1004c800 f i libucrtd:onexit.obj
 0001:0004b830       ??$__crt_fast_encode_pointer@P6AXXZ@@YAP6AXXZQ6AXXZ@Z 1004c830 f i libucrtd:onexit.obj
 0001:0004b860       ??$__crt_fast_encode_pointer@PAP6AXXZ@@YAPAP6AXXZQAP6AXXZ@Z 1004c860 f i libucrtd:onexit.obj
 0001:0004b960       ??0?$__crt_unique_heap_ptr@P6AXXZU__crt_internal_free_policy@@@@QAE@QAP6AXXZ@Z 1004c960 f i libucrtd:onexit.obj
 0001:0004b980       ??1?$__crt_unique_heap_ptr@P6AXXZU__crt_internal_free_policy@@@@QAE@XZ 1004c980 f i libucrtd:onexit.obj
 0001:0004b9a0       ??1scoped_global_state_reset@__crt_state_management@@QAE@XZ 1004c9a0 f i libucrtd:onexit.obj
 0001:0004be10       ?detach@?$__crt_unique_heap_ptr@P6AXXZU__crt_internal_free_policy@@@@QAEPAP6AXXZXZ 1004ce10 f i libucrtd:onexit.obj
 0001:0004be40       ?release@?$__crt_unique_heap_ptr@P6AXXZU__crt_internal_free_policy@@@@QAEXXZ 1004ce40 f i libucrtd:onexit.obj
 0001:0004be70       __crt_at_quick_exit        1004ce70 f   libucrtd:onexit.obj
 0001:0004be90       __crt_atexit               1004ce90 f   libucrtd:onexit.obj
 0001:0004beb0       __execute_onexit_table     1004ceb0 f   libucrtd:onexit.obj
 0001:0004bee0       __initialize_onexit_table  1004cee0 f   libucrtd:onexit.obj
 0001:0004bf40       __register_onexit_function 1004cf40 f   libucrtd:onexit.obj
 0001:0004c180       ??$?BX@__crt_fast_encoded_nullptr_t@@QBEPAXXZ 1004d180 f i libucrtd:initialization.obj
 0001:0004c1a0       ??$__crt_fast_encode_pointer@PAX@@YAPAXQAX@Z 1004d1a0 f i libucrtd:initialization.obj
 0001:0004c260       ?initialize@?$dual_state_global@PAU__crt_locale_data@@@__crt_state_management@@QAEXQAU__crt_locale_data@@@Z 1004d260 f i libucrtd:initialization.obj
 0001:0004c2a0       ___acrt_initialize         1004d2a0 f   libucrtd:initialization.obj
 0001:0004c2c0       ___acrt_thread_attach      1004d2c0 f   libucrtd:initialization.obj
 0001:0004c2e0       ___acrt_thread_detach      1004d2e0 f   libucrtd:initialization.obj
 0001:0004c2f0       ___acrt_uninitialize       1004d2f0 f   libucrtd:initialization.obj
 0001:0004c310       ___acrt_uninitialize_critical 1004d310 f   libucrtd:initialization.obj
 0001:0004db80       __CrtCheckMemory           1004eb80 f   libucrtd:debug_heap.obj
 0001:0004dd10       __CrtDoForAllClientObjects 1004ed10 f   libucrtd:debug_heap.obj
 0001:0004de60       __CrtDumpMemoryLeaks       1004ee60 f   libucrtd:debug_heap.obj
 0001:0004df00       __CrtGetAllocHook          1004ef00 f   libucrtd:debug_heap.obj
 0001:0004df10       __CrtGetDumpClient         1004ef10 f   libucrtd:debug_heap.obj
 0001:0004df20       __CrtIsMemoryBlock         1004ef20 f   libucrtd:debug_heap.obj
 0001:0004e070       __CrtIsValidHeapPointer    1004f070 f   libucrtd:debug_heap.obj
 0001:0004e0a0       __CrtIsValidPointer        1004f0a0 f   libucrtd:debug_heap.obj
 0001:0004e0d0       __CrtMemCheckpoint         1004f0d0 f   libucrtd:debug_heap.obj
 0001:0004e300       __CrtMemDifference         1004f300 f   libucrtd:debug_heap.obj
 0001:0004e570       __CrtMemDumpAllObjectsSince 1004f570 f   libucrtd:debug_heap.obj
 0001:0004e610       __CrtMemDumpStatistics     1004f610 f   libucrtd:debug_heap.obj
 0001:0004e740       __CrtReportBlockType       1004f740 f   libucrtd:debug_heap.obj
 0001:0004e770       __CrtSetAllocHook          1004f770 f   libucrtd:debug_heap.obj
 0001:0004e790       __CrtSetBreakAlloc         1004f790 f   libucrtd:debug_heap.obj
 0001:0004e7b0       __CrtSetDbgBlockType       1004f7b0 f   libucrtd:debug_heap.obj
 0001:0004e890       __CrtSetDbgFlag            1004f890 f   libucrtd:debug_heap.obj
 0001:0004ea00       __CrtSetDumpClient         1004fa00 f   libucrtd:debug_heap.obj
 0001:0004ea20       ___acrt_get_locale_data_prefix 1004fa20 f i libucrtd:debug_heap.obj
 0001:0004ea40       ___p__crtBreakAlloc        1004fa40 f   libucrtd:debug_heap.obj
 0001:0004ea50       ___p__crtDbgFlag           1004fa50 f   libucrtd:debug_heap.obj
 0001:0004ea60       __aligned_free_dbg         1004fa60 f   libucrtd:debug_heap.obj
 0001:0004eb10       __aligned_malloc_dbg       1004fb10 f   libucrtd:debug_heap.obj
 0001:0004eb40       __aligned_msize_dbg        1004fb40 f   libucrtd:debug_heap.obj
 0001:0004ec70       __aligned_offset_malloc_dbg 1004fc70 f   libucrtd:debug_heap.obj
 0001:0004ee50       __aligned_offset_realloc_dbg 1004fe50 f   libucrtd:debug_heap.obj
 0001:0004f160       __aligned_offset_recalloc_dbg 10050160 f   libucrtd:debug_heap.obj
 0001:0004f220       __aligned_realloc_dbg      10050220 f   libucrtd:debug_heap.obj
 0001:0004f250       __aligned_recalloc_dbg     10050250 f   libucrtd:debug_heap.obj
 0001:0004f280       __calloc_dbg               10050280 f   libucrtd:debug_heap.obj
 0001:0004f2f0       __chvalidchk_l             100502f0 f i libucrtd:debug_heap.obj
 0001:0004f310       __expand_dbg               10050310 f   libucrtd:debug_heap.obj
 0001:0004f440       __free_dbg                 10050440 f   libucrtd:debug_heap.obj
 0001:0004f4f0       __ischartype_l             100504f0 f i libucrtd:debug_heap.obj
 0001:0004f570       __malloc_dbg               10050570 f   libucrtd:debug_heap.obj
 0001:0004f590       __msize_dbg                10050590 f   libucrtd:debug_heap.obj
 0001:0004f720       __realloc_dbg              10050720 f   libucrtd:debug_heap.obj
 0001:0004f7c0       __recalloc_dbg             100507c0 f   libucrtd:debug_heap.obj
 0001:0004f870       __initterm                 10050870 f   libucrtd:initterm.obj
 0001:0004f8c0       __initterm_e               100508c0 f   libucrtd:initterm.obj
 0001:0004f950       __get_terminate            10050950 f   libucrtd:terminate.obj
 0001:0004f970       _set_terminate             10050970 f   libucrtd:terminate.obj
 0001:0004f9a0       _terminate                 100509a0 f   libucrtd:terminate.obj
 0001:0004fd40       _strcpy_s                  10050d40 f   libucrtd:strcpy_s.obj
 0001:00050170       _strcat_s                  10051170 f   libucrtd:strcat_s.obj
 0001:00050ad0       __makepath                 10051ad0 f   libucrtd:makepath.obj
 0001:00050b00       __makepath_s               10051b00 f   libucrtd:makepath.obj
 0001:00050b30       __wmakepath                10051b30 f   libucrtd:makepath.obj
 0001:00050b60       __wmakepath_s              10051b60 f   libucrtd:makepath.obj
 0001:000524b0       ??$tcsncpy_s@AAPADIAAPBDABI@?$__crt_char_traits@D@@SAHAAPAD$$QAIAAPBDABI@Z 100534b0 f i libucrtd:splitpath.obj
 0001:000524e0       ??$tcsncpy_s@AAPADIAAPBDH@?$__crt_char_traits@D@@SAHAAPAD$$QAIAAPBD$$QAH@Z 100534e0 f i libucrtd:splitpath.obj
 0001:00052510       ??$tcsncpy_s@AAPA_WIAAPB_WABI@?$__crt_char_traits@_W@@SAHAAPA_W$$QAIAAPB_WABI@Z 10053510 f i libucrtd:splitpath.obj
 0001:00052540       ??$tcsncpy_s@AAPA_WIAAPB_WH@?$__crt_char_traits@_W@@SAHAAPA_W$$QAIAAPB_W$$QAH@Z 10053540 f i libucrtd:splitpath.obj
 0001:00052780       __splitpath                10053780 f   libucrtd:splitpath.obj
 0001:000527b0       __splitpath_s              100537b0 f   libucrtd:splitpath.obj
 0001:00052800       __wsplitpath               10053800 f   libucrtd:splitpath.obj
 0001:00052830       __wsplitpath_s             10053830 f   libucrtd:splitpath.obj
 0001:00052880       ??$?B$$A6AHI@Z@__crt_fast_encoded_nullptr_t@@QBEP6AHI@ZXZ 10053880 f i libucrtd:new_handler.obj
 0001:000528a0       ??$__crt_fast_decode_pointer@P6AHI@Z@@YAP6AHI@ZQ6AHI@Z@Z 100538a0 f i libucrtd:new_handler.obj
 0001:000528d0       ??$__crt_fast_encode_pointer@P6AHI@Z@@YAP6AHI@ZQ6AHI@Z@Z 100538d0 f i libucrtd:new_handler.obj
 0001:00052900       ?_set_new_handler@@YAP6AHI@ZH@Z 10053900 f   libucrtd:new_handler.obj
 0001:00052960       ?initialize@?$dual_state_global@P6AHI@Z@__crt_state_management@@QAEXQ6AHI@Z@Z 10053960 f i libucrtd:new_handler.obj
 0001:000529a0       ?value@?$dual_state_global@P6AHI@Z@__crt_state_management@@QAEAAP6AHI@ZXZ 100539a0 f i libucrtd:new_handler.obj
 0001:000529c0       ___acrt_initialize_new_handler 100539c0 f   libucrtd:new_handler.obj
 0001:000529e0       __callnewh                 100539e0 f   libucrtd:new_handler.obj
 0001:00052a20       __query_new_handler        10053a20 f   libucrtd:new_handler.obj
 0001:00052ab0       __set_new_handler          10053ab0 f   libucrtd:new_handler.obj
 0001:00052b60       _strcmp                    10053b60 f   libucrtd:strcmp.obj
 0001:00052bf0       _strlen                    10053bf0 f   libucrtd:strlen.obj
 0001:00052c80       __set_abort_behavior       10053c80 f   libucrtd:abort.obj
 0001:00052cb0       _abort                     10053cb0 f   libucrtd:abort.obj
 0001:00052d20       ??$is_overflow_condition@K@__crt_strtox@@YA_NIK@Z 10053d20 f i libucrtd:atox.obj
 0001:00052d80       ??$is_overflow_condition@_K@__crt_strtox@@YA_NI_K@Z 10053d80 f i libucrtd:atox.obj
 0001:00052e10       ??$make_c_string_character_source@D$$T@__crt_strtox@@YA?AV?$c_string_character_source@D@0@QBD$$T@Z 10053e10 f i libucrtd:atox.obj
 0001:00052e30       ??$make_c_string_character_source@_W$$T@__crt_strtox@@YA?AV?$c_string_character_source@_W@0@QB_W$$T@Z 10053e30 f i libucrtd:atox.obj
 0001:00052e50       ??$parse_integer@KV?$c_string_character_source@D@__crt_strtox@@@__crt_strtox@@YAKQAU__crt_locale_pointers@@V?$c_string_character_source@D@0@H_N@Z 10053e50 f i libucrtd:atox.obj
 0001:000531c0       ??$parse_integer@KV?$c_string_character_source@_W@__crt_strtox@@@__crt_strtox@@YAKQAU__crt_locale_pointers@@V?$c_string_character_source@_W@0@H_N@Z 100541c0 f i libucrtd:atox.obj
 0001:00053530       ??$parse_integer@_KV?$c_string_character_source@D@__crt_strtox@@@__crt_strtox@@YA_KQAU__crt_locale_pointers@@V?$c_string_character_source@D@0@H_N@Z 10054530 f i libucrtd:atox.obj
 0001:00053950       ??$parse_integer@_KV?$c_string_character_source@_W@__crt_strtox@@@__crt_strtox@@YA_KQAU__crt_locale_pointers@@V?$c_string_character_source@_W@0@H_N@Z 10054950 f i libucrtd:atox.obj
 0001:00053d80       ??$parse_integer_from_string@JD$$T@__crt_strtox@@YAJQBD$$THQAU__crt_locale_pointers@@@Z 10054d80 f i libucrtd:atox.obj
 0001:00053dc0       ??$parse_integer_from_string@J_W$$T@__crt_strtox@@YAJQB_W$$THQAU__crt_locale_pointers@@@Z 10054dc0 f i libucrtd:atox.obj
 0001:00053e00       ??$parse_integer_from_string@_JD$$T@__crt_strtox@@YA_JQBD$$THQAU__crt_locale_pointers@@@Z 10054e00 f i libucrtd:atox.obj
 0001:00053e40       ??$parse_integer_from_string@_J_W$$T@__crt_strtox@@YA_JQB_W$$THQAU__crt_locale_pointers@@@Z 10054e40 f i libucrtd:atox.obj
 0001:00053e80       ??0?$c_string_character_source@D@__crt_strtox@@QAE@QBDQAPBD@Z 10054e80 f i libucrtd:atox.obj
 0001:00053ec0       ??0?$c_string_character_source@_W@__crt_strtox@@QAE@QB_WQAPB_W@Z 10054ec0 f i libucrtd:atox.obj
 0001:00053f00       ??1?$c_string_character_source@D@__crt_strtox@@QAE@XZ 10054f00 f i libucrtd:atox.obj
 0001:00053f30       ??1?$c_string_character_source@_W@__crt_strtox@@QAE@XZ 10054f30 f i libucrtd:atox.obj
 0001:00053f60       ?get@?$c_string_character_source@D@__crt_strtox@@QAEDXZ 10054f60 f i libucrtd:atox.obj
 0001:00053f90       ?get@?$c_string_character_source@_W@__crt_strtox@@QAE_WXZ 10054f90 f i libucrtd:atox.obj
 0001:00053fc0       ?is_space@__crt_strtox@@YA_NDQAU__crt_locale_pointers@@@Z 10054fc0 f i libucrtd:atox.obj
 0001:00054000       ?is_space@__crt_strtox@@YA_N_WPAU__crt_locale_pointers@@@Z 10055000 f i libucrtd:atox.obj
 0001:00054030       ?maximum_signed_value@__crt_strtox@@YAJK@Z 10055030 f i libucrtd:atox.obj
 0001:00054040       ?maximum_signed_value@__crt_strtox@@YA_J_K@Z 10055040 f i libucrtd:atox.obj
 0001:00054050       ?minimum_signed_value@__crt_strtox@@YAJK@Z 10055050 f i libucrtd:atox.obj
 0001:00054060       ?minimum_signed_value@__crt_strtox@@YA_J_K@Z 10055060 f i libucrtd:atox.obj
 0001:00054070       ?parse_digit@__crt_strtox@@YAID@Z 10055070 f i libucrtd:atox.obj
 0001:000540d0       ?parse_digit@__crt_strtox@@YAI_W@Z 100550d0 f i libucrtd:atox.obj
 0001:00054120       ?restore_state@?$c_string_character_source@D@__crt_strtox@@QAE_NQBD@Z 10055120 f i libucrtd:atox.obj
 0001:00054140       ?restore_state@?$c_string_character_source@_W@__crt_strtox@@QAE_NQB_W@Z 10055140 f i libucrtd:atox.obj
 0001:00054160       ?save_state@?$c_string_character_source@D@__crt_strtox@@QBEPBDXZ 10055160 f i libucrtd:atox.obj
 0001:00054180       ?save_state@?$c_string_character_source@_W@__crt_strtox@@QBEPB_WXZ 10055180 f i libucrtd:atox.obj
 0001:000541a0       ?unget@?$c_string_character_source@D@__crt_strtox@@QAEXD@Z 100551a0 f i libucrtd:atox.obj
 0001:00054250       ?unget@?$c_string_character_source@_W@__crt_strtox@@QAEX_W@Z 10055250 f i libucrtd:atox.obj
 0001:00054300       ?validate@?$c_string_character_source@D@__crt_strtox@@QBE_NXZ 10055300 f i libucrtd:atox.obj
 0001:00054390       ?validate@?$c_string_character_source@_W@__crt_strtox@@QBE_NXZ 10055390 f i libucrtd:atox.obj
 0001:00054420       ?wide_character_to_digit@__crt_strtox@@YAH_W@Z 10055420 f i libucrtd:atox.obj
 0001:00054750       ___ascii_iswalpha          10055750 f i libucrtd:atox.obj
 0001:00054790       ___ascii_toupper           10055790 f i libucrtd:atox.obj
 0001:000547b0       ___ascii_towupper          100557b0 f i libucrtd:atox.obj
 0001:000547d0       __atoi64                   100557d0 f   libucrtd:atox.obj
 0001:000547f0       __atoi64_l                 100557f0 f   libucrtd:atox.obj
 0001:00054810       __atoi_l                   10055810 f   libucrtd:atox.obj
 0001:00054830       __atol_l                   10055830 f   libucrtd:atox.obj
 0001:00054850       __atoll_l                  10055850 f   libucrtd:atox.obj
 0001:00054870       __wtoi                     10055870 f   libucrtd:atox.obj
 0001:00054890       __wtoi64                   10055890 f   libucrtd:atox.obj
 0001:000548b0       __wtoi64_l                 100558b0 f   libucrtd:atox.obj
 0001:000548d0       __wtoi_l                   100558d0 f   libucrtd:atox.obj
 0001:000548f0       __wtol                     100558f0 f   libucrtd:atox.obj
 0001:00054910       __wtol_l                   10055910 f   libucrtd:atox.obj
 0001:00054930       __wtoll                    10055930 f   libucrtd:atox.obj
 0001:00054950       __wtoll_l                  10055950 f   libucrtd:atox.obj
 0001:00054970       _atoi                      10055970 f   libucrtd:atox.obj
 0001:00054990       _atol                      10055990 f   libucrtd:atox.obj
 0001:000549b0       _atoll                     100559b0 f   libucrtd:atox.obj
 0001:000549d0       _strncmp                   100559d0 f   libucrtd:strncmp.obj
 0001:00054a50       _wcsncmp                   10055a50 f   libucrtd:wcsncmp.obj
 0001:00054ab0       __CrtGetReportHook         10055ab0 f   libucrtd:dbgrptt.obj
 0001:00054ac0       __CrtSetReportFile         10055ac0 f   libucrtd:dbgrptt.obj
 0001:00054bc0       __CrtSetReportHook         10055bc0 f   libucrtd:dbgrptt.obj
 0001:00054be0       __CrtSetReportMode         10055be0 f   libucrtd:dbgrptt.obj
 0001:00054d20       __VCrtDbgReportA           10055d20 f   libucrtd:dbgrptt.obj
 0001:000555a0       __VCrtDbgReportW           100565a0 f   libucrtd:dbgrptt.obj
 0001:00055f50       __snprintf_s               10056f50 f i libucrtd:dbgrptt.obj
 0001:00055f90       __vsnprintf_s              10056f90 f i libucrtd:dbgrptt.obj
 0001:00055fc0       __vsnprintf_s_l            10056fc0 f i libucrtd:dbgrptt.obj
 0001:00056150       ??$__acrt_wcs_to_mbs_cp@U__crt_win32_buffer_no_resizing@@@@YAHQB_WAAV?$__crt_win32_buffer@DU__crt_win32_buffer_no_resizing@@@@I@Z 10057150 f i libucrtd:getmodulefilenamea.obj
 0001:00056180       ??0?$__crt_win32_buffer@DU__crt_win32_buffer_no_resizing@@@@QAE@QADI@Z 10057180 f i libucrtd:getmodulefilenamea.obj
 0001:000561d0       ??1?$__crt_win32_buffer@DU__crt_win32_buffer_no_resizing@@@@QAE@XZ 100571d0 f i libucrtd:getmodulefilenamea.obj
 0001:00056240       ?__acrt_get_utf8_acp_compatibility_codepage@@YAIXZ 10057240 f i libucrtd:getmodulefilenamea.obj
 0001:000562d0       ?_deallocate@?$__crt_win32_buffer@DU__crt_win32_buffer_no_resizing@@@@AAEXXZ 100572d0 f i libucrtd:getmodulefilenamea.obj
 0001:00056310       ?allocate@?$__crt_win32_buffer@DU__crt_win32_buffer_no_resizing@@@@QAEHI@Z 10057310 f i libucrtd:getmodulefilenamea.obj
 0001:00056380       ?allocate@__crt_win32_buffer_no_resizing@@SAHQAPAXIABV__crt_win32_buffer_empty_debug_info@@@Z 10057380 f i libucrtd:getmodulefilenamea.obj
 0001:000563a0       ?capacity@?$__crt_win32_buffer@DU__crt_win32_buffer_no_resizing@@@@QBEIXZ 100573a0 f i libucrtd:getmodulefilenamea.obj
 0001:000563c0       ?data@?$__crt_win32_buffer@DU__crt_win32_buffer_no_resizing@@@@QAEPADXZ 100573c0 f i libucrtd:getmodulefilenamea.obj
 0001:000563e0       ?deallocate@__crt_win32_buffer_no_resizing@@SAXQAXABV__crt_win32_buffer_empty_debug_info@@@Z 100573e0 f i libucrtd:getmodulefilenamea.obj
 0001:000563f0       ?debug_info@?$__crt_win32_buffer@DU__crt_win32_buffer_no_resizing@@@@QBEABV__crt_win32_buffer_empty_debug_info@@XZ 100573f0 f i libucrtd:getmodulefilenamea.obj
 0001:00056400       ?set_to_nullptr@?$__crt_win32_buffer@DU__crt_win32_buffer_no_resizing@@@@QAEXXZ 10057400 f i libucrtd:getmodulefilenamea.obj
 0001:00056440       ?size@?$__crt_win32_buffer@DU__crt_win32_buffer_no_resizing@@@@QAEXI@Z 10057440 f i libucrtd:getmodulefilenamea.obj
 0001:00056460       ?size@?$__crt_win32_buffer@DU__crt_win32_buffer_no_resizing@@@@QBEIXZ 10057460 f i libucrtd:getmodulefilenamea.obj
 0001:00056480       ___acrt_GetModuleFileNameA 10057480 f   libucrtd:getmodulefilenamea.obj
 0001:00056760       ??$message_box@$$TABQBDABQBDK@?$__crt_char_traits@D@@SAH$$QA$$TABQBD1$$QAK@Z 10057760 f i libucrtd:crtmbox.obj
 0001:00056790       ??$message_box@$$TABQB_WABQB_WK@?$__crt_char_traits@_W@@SAH$$QA$$TABQB_W1$$QAK@Z 10057790 f i libucrtd:crtmbox.obj
 0001:000567c0       ??$message_box@PAUHWND__@@ABQBDABQBDABI@?$__crt_char_traits@D@@SAH$$QAPAUHWND__@@ABQBD1ABI@Z 100577c0 f i libucrtd:crtmbox.obj
 0001:000567f0       ??$message_box@PAUHWND__@@ABQB_WABQB_WABI@?$__crt_char_traits@_W@@SAH$$QAPAUHWND__@@ABQB_W1ABI@Z 100577f0 f i libucrtd:crtmbox.obj
 0001:00056820       ??$output_debug_string@ABQBD@?$__crt_char_traits@D@@SAXABQBD@Z 10057820 f i libucrtd:crtmbox.obj
 0001:00056840       ??$output_debug_string@ABQB_W@?$__crt_char_traits@_W@@SAXABQB_W@Z 10057840 f i libucrtd:crtmbox.obj
 0001:00056860       ___acrt_show_narrow_message_box 10057860 f   libucrtd:crtmbox.obj
 0001:00056880       ___acrt_show_wide_message_box 10057880 f   libucrtd:crtmbox.obj
 0001:000568a0       ___acrt_initialize_locks   100578a0 f   libucrtd:locks.obj
 0001:00056900       ___acrt_lock               10057900 f   libucrtd:locks.obj
 0001:00056920       ___acrt_uninitialize_locks 10057920 f   libucrtd:locks.obj
 0001:00056970       ___acrt_unlock             10057970 f   libucrtd:locks.obj
 0001:00056990       __lock_locales             10057990 f   libucrtd:locks.obj
 0001:000569b0       __unlock_locales           100579b0 f   libucrtd:locks.obj
 0001:000569d0       ??$?B$$A6AXH@Z@__crt_fast_encoded_nullptr_t@@QBEP6AXH@ZXZ 100579d0 f i libucrtd:signal.obj
 0001:00056ac0       ??$__crt_fast_decode_pointer@P6AXH@Z@@YAP6AXH@ZQ6AXH@Z@Z 10057ac0 f i libucrtd:signal.obj
 0001:00056af0       ??$__crt_fast_encode_pointer@P6AXH@Z@@YAP6AXH@ZQ6AXH@Z@Z 10057af0 f i libucrtd:signal.obj
 0001:00056da0       ?initialize@?$dual_state_global@P6AXH@Z@__crt_state_management@@QAEXQ6AXH@Z@Z 10057da0 f i libucrtd:signal.obj
 0001:00056ee0       ?value@?$dual_state_global@P6AXH@Z@__crt_state_management@@QAEAAP6AXH@ZXZ 10057ee0 f i libucrtd:signal.obj
 0001:00056f00       ___acrt_get_sigabrt_handler 10057f00 f   libucrtd:signal.obj
 0001:00056f20       ___acrt_initialize_signal_handlers 10057f20 f   libucrtd:signal.obj
 0001:00056f60       ___fpecode                 10057f60 f   libucrtd:signal.obj
 0001:00056f70       ___pxcptinfoptrs           10057f70 f   libucrtd:signal.obj
 0001:00056f80       _raise                     10057f80 f   libucrtd:signal.obj
 0001:00057350       _signal                    10058350 f   libucrtd:signal.obj
 0001:000575d0       __CrtGetDebugFillThreshold 100585d0 f   libucrtd:debug_fill_threshold.obj
 0001:000575e0       __CrtSetDebugFillThreshold 100585e0 f   libucrtd:debug_fill_threshold.obj
 0001:00057600       ??$make_c_string_character_source@DPAPAD@__crt_strtox@@YA?AV?$c_string_character_source@D@0@QBDQAPAD@Z 10058600 f i libucrtd:strtox.obj
 0001:00057620       ??$make_c_string_character_source@_WPAPA_W@__crt_strtox@@YA?AV?$c_string_character_source@_W@0@QB_WQAPA_W@Z 10058620 f i libucrtd:strtox.obj
 0001:00057640       ??$parse_integer_from_string@JDPAPAD@__crt_strtox@@YAJQBDQAPADHQAU__crt_locale_pointers@@@Z 10058640 f i libucrtd:strtox.obj
 0001:00057680       ??$parse_integer_from_string@J_WPAPA_W@__crt_strtox@@YAJQB_WQAPA_WHQAU__crt_locale_pointers@@@Z 10058680 f i libucrtd:strtox.obj
 0001:000576c0       ??$parse_integer_from_string@KDPAPAD@__crt_strtox@@YAKQBDQAPADHQAU__crt_locale_pointers@@@Z 100586c0 f i libucrtd:strtox.obj
 0001:00057700       ??$parse_integer_from_string@K_WPAPA_W@__crt_strtox@@YAKQB_WQAPA_WHQAU__crt_locale_pointers@@@Z 10058700 f i libucrtd:strtox.obj
 0001:00057740       ??$parse_integer_from_string@_JDPAPAD@__crt_strtox@@YA_JQBDQAPADHQAU__crt_locale_pointers@@@Z 10058740 f i libucrtd:strtox.obj
 0001:00057780       ??$parse_integer_from_string@_J_WPAPA_W@__crt_strtox@@YA_JQB_WQAPA_WHQAU__crt_locale_pointers@@@Z 10058780 f i libucrtd:strtox.obj
 0001:000577c0       ??$parse_integer_from_string@_KDPAPAD@__crt_strtox@@YA_KQBDQAPADHQAU__crt_locale_pointers@@@Z 100587c0 f i libucrtd:strtox.obj
 0001:00057800       ??$parse_integer_from_string@_K_WPAPA_W@__crt_strtox@@YA_KQB_WQAPA_WHQAU__crt_locale_pointers@@@Z 10058800 f i libucrtd:strtox.obj
 0001:00057840       __strtoi64                 10058840 f   libucrtd:strtox.obj
 0001:00057860       __strtoi64_l               10058860 f   libucrtd:strtox.obj
 0001:00057880       __strtoimax_l              10058880 f   libucrtd:strtox.obj
 0001:000578a0       __strtol_l                 100588a0 f   libucrtd:strtox.obj
 0001:000578c0       __strtoll_l                100588c0 f   libucrtd:strtox.obj
 0001:000578e0       __strtoui64                100588e0 f   libucrtd:strtox.obj
 0001:00057900       __strtoui64_l              10058900 f   libucrtd:strtox.obj
 0001:00057920       __strtoul_l                10058920 f   libucrtd:strtox.obj
 0001:00057940       __strtoull_l               10058940 f   libucrtd:strtox.obj
 0001:00057960       __strtoumax_l              10058960 f   libucrtd:strtox.obj
 0001:00057980       __wcstoi64                 10058980 f   libucrtd:strtox.obj
 0001:000579a0       __wcstoi64_l               100589a0 f   libucrtd:strtox.obj
 0001:000579c0       __wcstoimax_l              100589c0 f   libucrtd:strtox.obj
 0001:000579e0       __wcstol_l                 100589e0 f   libucrtd:strtox.obj
 0001:00057a00       __wcstoll_l                10058a00 f   libucrtd:strtox.obj
 0001:00057a20       __wcstoui64                10058a20 f   libucrtd:strtox.obj
 0001:00057a40       __wcstoui64_l              10058a40 f   libucrtd:strtox.obj
 0001:00057a60       __wcstoul_l                10058a60 f   libucrtd:strtox.obj
 0001:00057a80       __wcstoull_l               10058a80 f   libucrtd:strtox.obj
 0001:00057aa0       __wcstoumax_l              10058aa0 f   libucrtd:strtox.obj
 0001:00057ac0       _strtoimax                 10058ac0 f   libucrtd:strtox.obj
 0001:00057ae0       _strtol                    10058ae0 f   libucrtd:strtox.obj
 0001:00057b00       _strtoll                   10058b00 f   libucrtd:strtox.obj
 0001:00057b20       _strtoul                   10058b20 f   libucrtd:strtox.obj
 0001:00057b40       _strtoull                  10058b40 f   libucrtd:strtox.obj
 0001:00057b60       _strtoumax                 10058b60 f   libucrtd:strtox.obj
 0001:00057b80       _wcstoimax                 10058b80 f   libucrtd:strtox.obj
 0001:00057ba0       _wcstol                    10058ba0 f   libucrtd:strtox.obj
 0001:00057bc0       _wcstoll                   10058bc0 f   libucrtd:strtox.obj
 0001:00057be0       _wcstoul                   10058be0 f   libucrtd:strtox.obj
 0001:00057c00       _wcstoull                  10058c00 f   libucrtd:strtox.obj
 0001:00057c20       _wcstoumax                 10058c20 f   libucrtd:strtox.obj
 0001:00057c40       __mbtowc_l                 10058c40 f   libucrtd:mbtowc.obj
 0001:00057f60       _mbtowc                    10058f60 f   libucrtd:mbtowc.obj
 0001:00057f80       __wctomb_l                 10058f80 f   libucrtd:wctomb.obj
 0001:00058000       __wctomb_s_l               10059000 f   libucrtd:wctomb.obj
 0001:000583c0       _wctomb                    100593c0 f   libucrtd:wctomb.obj
 0001:00058410       _wctomb_s                  10059410 f   libucrtd:wctomb.obj
 0001:00058440       ??$?RU__acrt_ptd@@@__crt_internal_free_policy@@QBEXQBU__acrt_ptd@@@Z 10059440 f i libucrtd:per_thread_data.obj
 0001:000588f0       ??0?$__crt_unique_heap_ptr@U__acrt_ptd@@U__crt_internal_free_policy@@@@QAE@QAU__acrt_ptd@@@Z 100598f0 f i libucrtd:per_thread_data.obj
 0001:00058910       ??0__crt_scoped_get_last_error_reset@@QAE@XZ 10059910 f i libucrtd:per_thread_data.obj
 0001:00058930       ??1?$__crt_unique_heap_ptr@U__acrt_ptd@@U__crt_internal_free_policy@@@@QAE@XZ 10059930 f i libucrtd:per_thread_data.obj
 0001:00058950       ??1__crt_scoped_get_last_error_reset@@QAE@XZ 10059950 f i libucrtd:per_thread_data.obj
 0001:00058970       ??B?$__crt_unique_heap_ptr@U__acrt_ptd@@U__crt_internal_free_policy@@@@QBE_NXZ 10059970 f i libucrtd:per_thread_data.obj
 0001:00058c50       ?dangerous_get_state_array@?$dual_state_global@PAU__crt_locale_data@@@__crt_state_management@@QAEPAPAU__crt_locale_data@@XZ 10059c50 f i libucrtd:per_thread_data.obj
 0001:00058dd0       ?detach@?$__crt_unique_heap_ptr@U__acrt_ptd@@U__crt_internal_free_policy@@@@QAEPAU__acrt_ptd@@XZ 10059dd0 f i libucrtd:per_thread_data.obj
 0001:00058e00       ?get@?$__crt_unique_heap_ptr@U__acrt_ptd@@U__crt_internal_free_policy@@@@QBEPAU__acrt_ptd@@XZ 10059e00 f i libucrtd:per_thread_data.obj
 0001:00058e20       ?get_current_state_index@__crt_state_management@@YAIABV__crt_scoped_get_last_error_reset@@@Z 10059e20 f i libucrtd:per_thread_data.obj
 0001:00058f90       ?is_valid@?$__crt_unique_heap_ptr@U__acrt_ptd@@U__crt_internal_free_policy@@@@QBE_NXZ 10059f90 f i libucrtd:per_thread_data.obj
 0001:00058fc0       ?release@?$__crt_unique_heap_ptr@U__acrt_ptd@@U__crt_internal_free_policy@@@@QAEXXZ 10059fc0 f i libucrtd:per_thread_data.obj
 0001:000590b0       ?value@?$dual_state_global@PAU__crt_locale_data@@@__crt_state_management@@QAEAAPAU__crt_locale_data@@XZ 1005a0b0 f i libucrtd:per_thread_data.obj
 0001:000590d0       ___acrt_freeptd            1005a0d0 f   libucrtd:per_thread_data.obj
 0001:00059100       ___acrt_getptd             1005a100 f   libucrtd:per_thread_data.obj
 0001:00059120       ___acrt_getptd_head        1005a120 f   libucrtd:per_thread_data.obj
 0001:00059140       ___acrt_getptd_noexit      1005a140 f   libucrtd:per_thread_data.obj
 0001:00059150       ___acrt_initialize_ptd     1005a150 f   libucrtd:per_thread_data.obj
 0001:00059190       ___acrt_uninitialize_ptd   1005a190 f   libucrtd:per_thread_data.obj
 0001:000591c0       ___threadhandle            1005a1c0 f   libucrtd:per_thread_data.obj
 0001:000591d0       ___threadid                1005a1d0 f   libucrtd:per_thread_data.obj
 0001:000591e0       ?value@?$dual_state_global@PAU__crt_multibyte_data@@@__crt_state_management@@QAEAAPAU__crt_multibyte_data@@XZ 1005a1e0 f i libucrtd:locale_update.obj
 0001:00059200       ___acrt_update_locale_info 1005a200 f   libucrtd:locale_update.obj
 0001:00059240       ___acrt_update_multibyte_info 1005a240 f   libucrtd:locale_update.obj
 0001:00059280       ?__acrt_fp_classify@@YA?AW4__acrt_fp_class@@ABN@Z 1005a280 f i libucrtd:cvt.obj
 0001:000593a0       ?__acrt_fp_is_negative@@YA_NABN@Z 1005a3a0 f i libucrtd:cvt.obj
 0001:0005a3f0       ?strrchr@@YAPADQADH@Z      1005b3f0 f i libucrtd:cvt.obj
 0001:0005a410       ___acrt_fp_format          1005b410 f   libucrtd:cvt.obj
 0001:0005a8a0       __fputwc_nolock            1005b8a0 f   libucrtd:fputwc.obj
 0001:0005aa90       __fputwchar                1005ba90 f   libucrtd:fputwc.obj
 0001:0005aab0       __putwc_nolock             1005bab0 f   libucrtd:fputwc.obj
 0001:0005aad0       _fputwc                    1005bad0 f   libucrtd:fputwc.obj
 0001:0005abe0       _putwc                     1005bbe0 f   libucrtd:fputwc.obj
 0001:0005ac00       _putwchar                  1005bc00 f   libucrtd:fputwc.obj
 0001:0005ac20       ?lowio_handle@__crt_stdio_stream@@QBEHXZ 1005bc20 f i libucrtd:fileno.obj
 0001:0005ac40       __fileno                   1005bc40 f   libucrtd:fileno.obj
 0001:0005ace0       ??$?RPAU__crt_stdio_stream_data@@@__crt_internal_free_policy@@QBEXQBQAU__crt_stdio_stream_data@@@Z 1005bce0 f i libucrtd:_file.obj
 0001:0005ad00       ??0?$__crt_unique_heap_ptr@PAU__crt_stdio_stream_data@@U__crt_internal_free_policy@@@@QAE@QAPAU__crt_stdio_stream_data@@@Z 1005bd00 f i libucrtd:_file.obj
 0001:0005ad20       ??1?$__crt_unique_heap_ptr@PAU__crt_stdio_stream_data@@U__crt_internal_free_policy@@@@QAE@XZ 1005bd20 f i libucrtd:_file.obj
 0001:0005ad40       ?detach@?$__crt_unique_heap_ptr@PAU__crt_stdio_stream_data@@U__crt_internal_free_policy@@@@QAEPAPAU__crt_stdio_stream_data@@XZ 1005bd40 f i libucrtd:_file.obj
 0001:0005ad70       ?release@?$__crt_unique_heap_ptr@PAU__crt_stdio_stream_data@@U__crt_internal_free_policy@@@@QAEXXZ 1005bd70 f i libucrtd:_file.obj
 0001:0005ada0       ___acrt_initialize_stdio   1005bda0 f   libucrtd:_file.obj
 0001:0005af10       ___acrt_iob_func           1005bf10 f   libucrtd:_file.obj
 0001:0005af20       ___acrt_uninitialize_stdio 1005bf20 f   libucrtd:_file.obj
 0001:0005afa0       __get_stream_buffer_pointers 1005bfa0 f   libucrtd:_file.obj
 0001:0005b080       __lock_file                1005c080 f   libucrtd:_file.obj
 0001:0005b0b0       __unlock_file              1005c0b0 f   libucrtd:_file.obj
 0001:0005b0e0       __fputc_nolock             1005c0e0 f   libucrtd:fputc.obj
 0001:0005b170       __fputchar                 1005c170 f   libucrtd:fputc.obj
 0001:0005b190       __putc_nolock              1005c190 f   libucrtd:fputc.obj
 0001:0005b1b0       _fputc                     1005c1b0 f   libucrtd:fputc.obj
 0001:0005b3f0       _putc                      1005c3f0 f   libucrtd:fputc.obj
 0001:0005b410       _putchar                   1005c410 f   libucrtd:fputc.obj
 0001:0005b430       __get_printf_count_output  1005c430 f   libucrtd:printf_count_output.obj
 0001:0005b460       __set_printf_count_output  1005c460 f   libucrtd:printf_count_output.obj
 0001:0005b4c0       ?has_any_buffer@__crt_stdio_stream@@QBE_NXZ 1005c4c0 f i libucrtd:_sftbuf.obj
 0001:0005b4e0       ?has_any_of@__crt_stdio_stream@@QBE_NJ@Z 1005c4e0 f i libucrtd:_sftbuf.obj
 0001:0005b520       ?has_temporary_buffer@__crt_stdio_stream@@QBE_NXZ 1005c520 f i libucrtd:_sftbuf.obj
 0001:0005b540       ?set_flags@__crt_stdio_stream@@QBE_NJ@Z 1005c540 f i libucrtd:_sftbuf.obj
 0001:0005b590       ?unset_flags@__crt_stdio_stream@@QBE_NJ@Z 1005c590 f i libucrtd:_sftbuf.obj
 0001:0005b5e0       ___acrt_stdio_begin_temporary_buffering_nolock 1005c5e0 f   libucrtd:_sftbuf.obj
 0001:0005b7a0       ___acrt_stdio_end_temporary_buffering_nolock 1005c7a0 f   libucrtd:_sftbuf.obj
 0001:0005b830       ??$?RU__crt_locale_data@@@__crt_internal_free_policy@@QBEXQBU__crt_locale_data@@@Z 1005c830 f i libucrtd:wsetlocale.obj
 0001:0005b850       ??$?RU__crt_locale_pointers@@@__crt_internal_free_policy@@QBEXQBU__crt_locale_pointers@@@Z 1005c850 f i libucrtd:wsetlocale.obj
 0001:0005b870       ??$?RU__crt_multibyte_data@@@__crt_internal_free_policy@@QBEXQBU__crt_multibyte_data@@@Z 1005c870 f i libucrtd:wsetlocale.obj
 0001:0005be60       ??0?$__crt_unique_heap_ptr@U__crt_locale_data@@U__crt_internal_free_policy@@@@QAE@QAU__crt_locale_data@@@Z 1005ce60 f i libucrtd:wsetlocale.obj
 0001:0005be80       ??0?$__crt_unique_heap_ptr@U__crt_locale_pointers@@U__crt_internal_free_policy@@@@QAE@QAU__crt_locale_pointers@@@Z 1005ce80 f i libucrtd:wsetlocale.obj
 0001:0005bea0       ??0?$__crt_unique_heap_ptr@U__crt_multibyte_data@@U__crt_internal_free_policy@@@@QAE@QAU__crt_multibyte_data@@@Z 1005cea0 f i libucrtd:wsetlocale.obj
 0001:0005bec0       ??0_expandlocale_locale_name_cache@@QAE@QA_WIQAU__crt_qualified_locale_data@@@Z 1005cec0 f i libucrtd:wsetlocale.obj
 0001:0005bf30       ??1?$__crt_unique_heap_ptr@U__crt_locale_data@@U__crt_internal_free_policy@@@@QAE@XZ 1005cf30 f i libucrtd:wsetlocale.obj
 0001:0005bf50       ??1?$__crt_unique_heap_ptr@U__crt_locale_pointers@@U__crt_internal_free_policy@@@@QAE@XZ 1005cf50 f i libucrtd:wsetlocale.obj
 0001:0005bf70       ??1?$__crt_unique_heap_ptr@U__crt_multibyte_data@@U__crt_internal_free_policy@@@@QAE@XZ 1005cf70 f i libucrtd:wsetlocale.obj
 0001:0005bf90       ??1_expandlocale_locale_name_cache@@QAE@XZ 1005cf90 f i libucrtd:wsetlocale.obj
 0001:0005bff0       ??B?$__crt_unique_heap_ptr@U__crt_locale_data@@U__crt_internal_free_policy@@@@QBE_NXZ 1005cff0 f i libucrtd:wsetlocale.obj
 0001:0005c010       ??B?$__crt_unique_heap_ptr@U__crt_locale_pointers@@U__crt_internal_free_policy@@@@QBE_NXZ 1005d010 f i libucrtd:wsetlocale.obj
 0001:0005c030       ??B?$__crt_unique_heap_ptr@U__crt_multibyte_data@@U__crt_internal_free_policy@@@@QBE_NXZ 1005d030 f i libucrtd:wsetlocale.obj
 0001:0005c420       ?commit_locale_name@_expandlocale_locale_name_cache@@QAEXQB_WI@Z 1005d420 f i libucrtd:wsetlocale.obj
 0001:0005c480       ?commit_locale_name_cache_already_updated@_expandlocale_locale_name_cache@@QAEXQB_WI@Z 1005d480 f i libucrtd:wsetlocale.obj
 0001:0005c4e0       ?detach@?$__crt_unique_heap_ptr@U__crt_locale_data@@U__crt_internal_free_policy@@@@QAEPAU__crt_locale_data@@XZ 1005d4e0 f i libucrtd:wsetlocale.obj
 0001:0005c510       ?detach@?$__crt_unique_heap_ptr@U__crt_locale_pointers@@U__crt_internal_free_policy@@@@QAEPAU__crt_locale_pointers@@XZ 1005d510 f i libucrtd:wsetlocale.obj
 0001:0005c540       ?detach@?$__crt_unique_heap_ptr@U__crt_multibyte_data@@U__crt_internal_free_policy@@@@QAEPAU__crt_multibyte_data@@XZ 1005d540 f i libucrtd:wsetlocale.obj
 0001:0005c570       ?get@?$__crt_unique_heap_ptr@U__crt_locale_data@@U__crt_internal_free_policy@@@@QBEPAU__crt_locale_data@@XZ 1005d570 f i libucrtd:wsetlocale.obj
 0001:0005c590       ?get@?$__crt_unique_heap_ptr@U__crt_locale_pointers@@U__crt_internal_free_policy@@@@QBEPAU__crt_locale_pointers@@XZ 1005d590 f i libucrtd:wsetlocale.obj
 0001:0005c5b0       ?get@?$__crt_unique_heap_ptr@U__crt_multibyte_data@@U__crt_internal_free_policy@@@@QBEPAU__crt_multibyte_data@@XZ 1005d5b0 f i libucrtd:wsetlocale.obj
 0001:0005c5d0       ?is_valid@?$__crt_unique_heap_ptr@U__crt_locale_data@@U__crt_internal_free_policy@@@@QBE_NXZ 1005d5d0 f i libucrtd:wsetlocale.obj
 0001:0005c600       ?is_valid@?$__crt_unique_heap_ptr@U__crt_locale_pointers@@U__crt_internal_free_policy@@@@QBE_NXZ 1005d600 f i libucrtd:wsetlocale.obj
 0001:0005c630       ?is_valid@?$__crt_unique_heap_ptr@U__crt_multibyte_data@@U__crt_internal_free_policy@@@@QBE_NXZ 1005d630 f i libucrtd:wsetlocale.obj
 0001:0005c660       ?release@?$__crt_unique_heap_ptr@U__crt_locale_data@@U__crt_internal_free_policy@@@@QAEXXZ 1005d660 f i libucrtd:wsetlocale.obj
 0001:0005c690       ?release@?$__crt_unique_heap_ptr@U__crt_locale_pointers@@U__crt_internal_free_policy@@@@QAEXXZ 1005d690 f i libucrtd:wsetlocale.obj
 0001:0005c6c0       ?release@?$__crt_unique_heap_ptr@U__crt_multibyte_data@@U__crt_internal_free_policy@@@@QAEXXZ 1005d6c0 f i libucrtd:wsetlocale.obj
 0001:0005c6f0       ___acrt_copy_locale_name   1005d6f0 f   libucrtd:wsetlocale.obj
 0001:0005c790       ___acrt_set_locale_changed 1005d790 f   libucrtd:wsetlocale.obj
 0001:0005c7b0       ___acrt_uninitialize_locale 1005d7b0 f   libucrtd:wsetlocale.obj
 0001:0005c7d0       ___ascii_tolower           1005d7d0 f i libucrtd:wsetlocale.obj
 0001:0005c7f0       ___ascii_towlower          1005d7f0 f i libucrtd:wsetlocale.obj
 0001:0005c810       ___lc_lctowcs              1005d810 f   libucrtd:wsetlocale.obj
 0001:0005c8c0       ___lc_wcstolc              1005d8c0 f   libucrtd:wsetlocale.obj
 0001:0005caf0       __configthreadlocale       1005daf0 f   libucrtd:wsetlocale.obj
 0001:0005cc70       __create_locale            1005dc70 f   libucrtd:wsetlocale.obj
 0001:0005d2b0       __free_locale              1005e2b0 f   libucrtd:wsetlocale.obj
 0001:0005d3e0       __get_current_locale       1005e3e0 f   libucrtd:wsetlocale.obj
 0001:0005d4b0       __wcreate_locale           1005e4b0 f   libucrtd:wsetlocale.obj
 0001:0005d6f0       __wcscats                  1005e6f0 f   libucrtd:wsetlocale.obj
 0001:0005d770       __wsetlocale               1005e770 f   libucrtd:wsetlocale.obj
 0001:0005ee70       ___p___mb_cur_max          1005fe70 f   libucrtd:nlsdata.obj
 0001:0005f170       ___acrt_initialize_lowio   10060170 f   libucrtd:ioinit.obj
 0001:0005f210       ___acrt_uninitialize_lowio 10060210 f   libucrtd:ioinit.obj
 0001:0005f270       __msize                    10060270 f   libucrtd:msize.obj
 0001:0005f290       __msize_base               10060290 f   libucrtd:msize.obj
 0001:0005f330       __realloc_base             10060330 f   libucrtd:realloc_base.obj
 0001:0005f6d0       ___acrt_get_begin_thread_init_policy 100606d0 f   libucrtd:win_policies.obj
 0001:0005f6f0       ___acrt_get_developer_information_policy 100606f0 f   libucrtd:win_policies.obj
 0001:0005f710       ___acrt_get_process_end_policy 10060710 f   libucrtd:win_policies.obj
 0001:0005f730       ___acrt_get_windowing_model_policy 10060730 f   libucrtd:win_policies.obj
 0001:0005fa00       ??$__acrt_mbs_to_wcs_cp@U__crt_win32_buffer_internal_dynamic_resizing@@@@YAHQBDAAV?$__crt_win32_buffer@_WU__crt_win32_buffer_internal_dynamic_resizing@@@@I@Z 10060a00 f i libucrtd:argv_wildcards.obj
 0001:0005fa30       ??$__acrt_wcs_to_mbs_cp@U__crt_win32_buffer_internal_dynamic_resizing@@@@YAHQB_WAAV?$__crt_win32_buffer@DU__crt_win32_buffer_internal_dynamic_resizing@@@@I@Z 10060a30 f i libucrtd:argv_wildcards.obj
 0001:00060980       ??$tcsncpy_s@AAPADIAAPADABI@?$__crt_char_traits@D@@SAHAAPAD$$QAI0ABI@Z 10061980 f i libucrtd:argv_wildcards.obj
 0001:000609b0       ??$tcsncpy_s@AAPA_WIAAPA_WABI@?$__crt_char_traits@_W@@SAHAAPA_W$$QAI0ABI@Z 100619b0 f i libucrtd:argv_wildcards.obj
 0001:000609e0       ??$tcsncpy_s@PADABIABQBDABI@?$__crt_char_traits@D@@SAH$$QAPADABIABQBD1@Z 100619e0 f i libucrtd:argv_wildcards.obj
 0001:00060a10       ??$tcsncpy_s@PADIABQBDABI@?$__crt_char_traits@D@@SAH$$QAPAD$$QAIABQBDABI@Z 10061a10 f i libucrtd:argv_wildcards.obj
 0001:00060a40       ??$tcsncpy_s@PA_WABIABQB_WABI@?$__crt_char_traits@_W@@SAH$$QAPA_WABIABQB_W1@Z 10061a40 f i libucrtd:argv_wildcards.obj
 0001:00060a70       ??$tcsncpy_s@PA_WIABQB_WABI@?$__crt_char_traits@_W@@SAH$$QAPA_W$$QAIABQB_WABI@Z 10061a70 f i libucrtd:argv_wildcards.obj
 0001:00060aa0       ??$tcspbrk@AAPADAAY02$$CBD@?$__crt_char_traits@D@@SAPADAAPADAAY02$$CBD@Z 10061aa0 f i libucrtd:argv_wildcards.obj
 0001:00060ac0       ??$tcspbrk@AAPA_WAAY02$$CB_W@?$__crt_char_traits@_W@@SAPA_WAAPA_WAAY02$$CB_W@Z 10061ac0 f i libucrtd:argv_wildcards.obj
 0001:00060ae0       ??0?$__crt_unique_handle_t@U__crt_findfile_traits@@@@QAE@QAX@Z 10061ae0 f i libucrtd:argv_wildcards.obj
 0001:00060b00       ??0?$__crt_win32_buffer@DU__crt_win32_buffer_internal_dynamic_resizing@@@@QAE@XZ 10061b00 f i libucrtd:argv_wildcards.obj
 0001:00060b50       ??0?$__crt_win32_buffer@_WU__crt_win32_buffer_internal_dynamic_resizing@@@@QAE@XZ 10061b50 f i libucrtd:argv_wildcards.obj
 0001:00060c00       ??1?$__crt_unique_handle_t@U__crt_findfile_traits@@@@QAE@XZ 10061c00 f i libucrtd:argv_wildcards.obj
 0001:00060c20       ??1?$__crt_win32_buffer@DU__crt_win32_buffer_internal_dynamic_resizing@@@@QAE@XZ 10061c20 f i libucrtd:argv_wildcards.obj
 0001:00060c60       ??1?$__crt_win32_buffer@_WU__crt_win32_buffer_internal_dynamic_resizing@@@@QAE@XZ 10061c60 f i libucrtd:argv_wildcards.obj
 0001:00060ec0       ?_deallocate@?$__crt_win32_buffer@DU__crt_win32_buffer_internal_dynamic_resizing@@@@AAEXXZ 10061ec0 f i libucrtd:argv_wildcards.obj
 0001:00060f00       ?_deallocate@?$__crt_win32_buffer@_WU__crt_win32_buffer_internal_dynamic_resizing@@@@AAEXXZ 10061f00 f i libucrtd:argv_wildcards.obj
 0001:00060f40       ?allocate@?$__crt_win32_buffer@DU__crt_win32_buffer_internal_dynamic_resizing@@@@QAEHI@Z 10061f40 f i libucrtd:argv_wildcards.obj
 0001:00060fb0       ?allocate@?$__crt_win32_buffer@_WU__crt_win32_buffer_internal_dynamic_resizing@@@@QAEHI@Z 10061fb0 f i libucrtd:argv_wildcards.obj
 0001:00061020       ?allocate@__crt_win32_buffer_internal_dynamic_resizing@@SAHQAPAXIABV__crt_win32_buffer_empty_debug_info@@@Z 10062020 f i libucrtd:argv_wildcards.obj
 0001:00061160       ?capacity@?$__crt_win32_buffer@DU__crt_win32_buffer_internal_dynamic_resizing@@@@QBEIXZ 10062160 f i libucrtd:argv_wildcards.obj
 0001:00061180       ?capacity@?$__crt_win32_buffer@_WU__crt_win32_buffer_internal_dynamic_resizing@@@@QBEIXZ 10062180 f i libucrtd:argv_wildcards.obj
 0001:000611a0       ?close@?$__crt_unique_handle_t@U__crt_findfile_traits@@@@QAEXXZ 100621a0 f i libucrtd:argv_wildcards.obj
 0001:000611e0       ?close@__crt_findfile_traits@@SA_NPAX@Z 100621e0 f i libucrtd:argv_wildcards.obj
 0001:00061210       ?data@?$__crt_win32_buffer@DU__crt_win32_buffer_internal_dynamic_resizing@@@@QAEPADXZ 10062210 f i libucrtd:argv_wildcards.obj
 0001:00061230       ?data@?$__crt_win32_buffer@_WU__crt_win32_buffer_internal_dynamic_resizing@@@@QAEPA_WXZ 10062230 f i libucrtd:argv_wildcards.obj
 0001:00061250       ?deallocate@__crt_win32_buffer_internal_dynamic_resizing@@SAXQAXABV__crt_win32_buffer_empty_debug_info@@@Z 10062250 f i libucrtd:argv_wildcards.obj
 0001:00061270       ?debug_info@?$__crt_win32_buffer@DU__crt_win32_buffer_internal_dynamic_resizing@@@@QBEABV__crt_win32_buffer_empty_debug_info@@XZ 10062270 f i libucrtd:argv_wildcards.obj
 0001:00061280       ?debug_info@?$__crt_win32_buffer@_WU__crt_win32_buffer_internal_dynamic_resizing@@@@QBEABV__crt_win32_buffer_empty_debug_info@@XZ 10062280 f i libucrtd:argv_wildcards.obj
 0001:00061590       ?get@?$__crt_unique_handle_t@U__crt_findfile_traits@@@@QBEPAXXZ 10062590 f i libucrtd:argv_wildcards.obj
 0001:00061600       ?get_invalid_value@__crt_findfile_traits@@SAPAXXZ 10062600 f i libucrtd:argv_wildcards.obj
 0001:00061690       ?set_to_nullptr@?$__crt_win32_buffer@DU__crt_win32_buffer_internal_dynamic_resizing@@@@QAEXXZ 10062690 f i libucrtd:argv_wildcards.obj
 0001:000616d0       ?set_to_nullptr@?$__crt_win32_buffer@_WU__crt_win32_buffer_internal_dynamic_resizing@@@@QAEXXZ 100626d0 f i libucrtd:argv_wildcards.obj
 0001:00061710       ?size@?$__crt_win32_buffer@DU__crt_win32_buffer_internal_dynamic_resizing@@@@QAEXI@Z 10062710 f i libucrtd:argv_wildcards.obj
 0001:00061730       ?size@?$__crt_win32_buffer@_WU__crt_win32_buffer_internal_dynamic_resizing@@@@QAEXI@Z 10062730 f i libucrtd:argv_wildcards.obj
 0001:00061790       ?strpbrk@@YAPADQADQBD@Z    10062790 f i libucrtd:argv_wildcards.obj
 0001:000617b0       ?wcspbrk@@YAPA_WPA_WPB_W@Z 100627b0 f i libucrtd:argv_wildcards.obj
 0001:000617d0       ___acrt_expand_narrow_argv_wildcards 100627d0 f   libucrtd:argv_wildcards.obj
 0001:000617f0       ___acrt_expand_wide_argv_wildcards 100627f0 f   libucrtd:argv_wildcards.obj
 0001:000618d0       ??$initialize_from_array@$$BY10BAA@E@?$dual_state_global@PAE@__crt_state_management@@QAAXAAY10BAA@E@Z 100628d0 f i libucrtd:mbctype.obj
 0001:00061920       ??$initialize_from_array@$$BY10BAB@E@?$dual_state_global@PAE@__crt_state_management@@QAAXAAY10BAB@E@Z 10062920 f i libucrtd:mbctype.obj
 0001:00061b90       ?dangerous_get_state_array@?$dual_state_global@PAE@__crt_state_management@@QAEPAPAEXZ 10062b90 f i libucrtd:mbctype.obj
 0001:00061ba0       ?dangerous_get_state_array@?$dual_state_global@PAU__crt_multibyte_data@@@__crt_state_management@@QAEPAPAU__crt_multibyte_data@@XZ 10062ba0 f i libucrtd:mbctype.obj
 0001:00061c70       ?initialize@?$dual_state_global@PAU__crt_multibyte_data@@@__crt_state_management@@QAEXQAU__crt_multibyte_data@@@Z 10062c70 f i libucrtd:mbctype.obj
 0001:000623d0       ?value@?$dual_state_global@PAE@__crt_state_management@@QAEAAPAEXZ 100633d0 f i libucrtd:mbctype.obj
 0001:000623f0       ___acrt_initialize_multibyte 100633f0 f   libucrtd:mbctype.obj
 0001:000624a0       ___acrt_update_thread_multibyte_data 100634a0 f   libucrtd:mbctype.obj
 0001:000624c0       ___p__mbcasemap            100634c0 f   libucrtd:mbctype.obj
 0001:000624e0       ___p__mbctype              100634e0 f   libucrtd:mbctype.obj
 0001:00062500       __getmbcp                  10063500 f   libucrtd:mbctype.obj
 0001:00062570       __setmbcp                  10063570 f   libucrtd:mbctype.obj
 0001:000625a0       __setmbcp_nolock           100635a0 f   libucrtd:mbctype.obj
 0001:00062b11       __ismbbalnum               10063b11 f   libucrtd:ismbbyte.obj
 0001:00062b2c       __ismbbalnum_l             10063b2c f   libucrtd:ismbbyte.obj
 0001:00062b48       __ismbbalpha               10063b48 f   libucrtd:ismbbyte.obj
 0001:00062b63       __ismbbalpha_l             10063b63 f   libucrtd:ismbbyte.obj
 0001:00062b7f       __ismbbblank               10063b7f f   libucrtd:ismbbyte.obj
 0001:00062ba2       __ismbbblank_l             10063ba2 f   libucrtd:ismbbyte.obj
 0001:00062bc6       __ismbbgraph               10063bc6 f   libucrtd:ismbbyte.obj
 0001:00062be1       __ismbbgraph_l             10063be1 f   libucrtd:ismbbyte.obj
 0001:00062bfd       __ismbbkalnum              10063bfd f   libucrtd:ismbbyte.obj
 0001:00062c15       __ismbbkalnum_l            10063c15 f   libucrtd:ismbbyte.obj
 0001:00062c2e       __ismbbkana                10063c2e f   libucrtd:ismbbyte.obj
 0001:00062c41       __ismbbkana_l              10063c41 f   libucrtd:ismbbyte.obj
 0001:00062c90       __ismbbkprint              10063c90 f   libucrtd:ismbbyte.obj
 0001:00062ca8       __ismbbkprint_l            10063ca8 f   libucrtd:ismbbyte.obj
 0001:00062cc1       __ismbbkpunct              10063cc1 f   libucrtd:ismbbyte.obj
 0001:00062cd9       __ismbbkpunct_l            10063cd9 f   libucrtd:ismbbyte.obj
 0001:00062cf2       __ismbblead                10063cf2 f   libucrtd:ismbbyte.obj
 0001:00062d0a       __ismbblead_l              10063d0a f   libucrtd:ismbbyte.obj
 0001:00062d23       __ismbbprint               10063d23 f   libucrtd:ismbbyte.obj
 0001:00062d3e       __ismbbprint_l             10063d3e f   libucrtd:ismbbyte.obj
 0001:00062d5a       __ismbbpunct               10063d5a f   libucrtd:ismbbyte.obj
 0001:00062d72       __ismbbpunct_l             10063d72 f   libucrtd:ismbbyte.obj
 0001:00062d8b       __ismbbtrail               10063d8b f   libucrtd:ismbbyte.obj
 0001:00062da3       __ismbbtrail_l             10063da3 f   libucrtd:ismbbyte.obj
 0001:00062dc0       ___acrt_initialize_command_line 10063dc0 f   libucrtd:argv_data.obj
 0001:00062de0       ___acrt_uninitialize_command_line 10063de0 f   libucrtd:argv_data.obj
 0001:00062df0       ___p___argc                10063df0 f   libucrtd:argv_data.obj
 0001:00062e00       ___p___argv                10063e00 f   libucrtd:argv_data.obj
 0001:00062e10       ___p___wargv               10063e10 f   libucrtd:argv_data.obj
 0001:00062e20       ___p__acmdln               10063e20 f   libucrtd:argv_data.obj
 0001:00062e30       ___p__pgmptr               10063e30 f   libucrtd:argv_data.obj
 0001:00062e40       ___p__wcmdln               10063e40 f   libucrtd:argv_data.obj
 0001:00062e50       ___p__wpgmptr              10063e50 f   libucrtd:argv_data.obj
 0001:00062e60       __get_pgmptr               10063e60 f   libucrtd:argv_data.obj
 0001:00062f70       __get_wpgmptr              10063f70 f   libucrtd:argv_data.obj
 0001:00063130       ___acrt_MultiByteToWideChar 10064130 f   libucrtd:multibytetowidechar.obj
 0001:00063230       ___acrt_WideCharToMultiByte 10064230 f   libucrtd:widechartomultibyte.obj
 0001:00063372       ___dcrt_get_narrow_environment_from_os 10064372 f   libucrtd:get_environment_from_os.obj
 0001:00063404       ___dcrt_get_wide_environment_from_os 10064404 f   libucrtd:get_environment_from_os.obj
 0001:00063d99       ??$get_or_create_environment_nolock@$$V@?$__crt_char_traits@D@@SAPAPADXZ 10064d99 f i libucrtd:setenv.obj
 0001:00063d9e       ??$get_or_create_environment_nolock@$$V@?$__crt_char_traits@_W@@SAPAPA_WXZ 10064d9e f i libucrtd:setenv.obj
 0001:00063da3       ??$set_environment_variable@ABQADQAD@?$__crt_char_traits@D@@SAHABQAD$$QBQAD@Z 10064da3 f i libucrtd:setenv.obj
 0001:00063dbb       ??$set_environment_variable@ABQA_WQA_W@?$__crt_char_traits@_W@@SAHABQA_W$$QBQA_W@Z 10064dbb f i libucrtd:setenv.obj
 0001:00063dd2       ??$tcschr@ABQADD@?$__crt_char_traits@D@@SAPADABQAD$$QAD@Z 10064dd2 f i libucrtd:setenv.obj
 0001:00063dec       ??$tcschr@ABQA_WD@?$__crt_char_traits@_W@@SAPA_WABQA_W$$QAD@Z 10064dec f i libucrtd:setenv.obj
 0001:00063e0a       ??$tcscpy_s@AAPADABIAAPAD@?$__crt_char_traits@D@@SAHAAPADABI0@Z 10064e0a f i libucrtd:setenv.obj
 0001:00063e28       ??$tcscpy_s@AAPA_WABIAAPA_W@?$__crt_char_traits@_W@@SAHAAPA_WABI0@Z 10064e28 f i libucrtd:setenv.obj
 0001:00063e46       ??$tcscpy_s@ABQADABIABQAD@?$__crt_char_traits@D@@SAHABQADABI0@Z 10064e46 f i libucrtd:setenv.obj
 0001:00063e64       ??$tcscpy_s@ABQA_WABIABQA_W@?$__crt_char_traits@_W@@SAHABQA_WABI0@Z 10064e64 f i libucrtd:setenv.obj
 0001:00063e82       ??$tcslen@ABQAD@?$__crt_char_traits@D@@SAIABQAD@Z 10064e82 f i libucrtd:setenv.obj
 0001:00063e9a       ??$tcslen@ABQA_W@?$__crt_char_traits@_W@@SAIABQA_W@Z 10064e9a f i libucrtd:setenv.obj
 0001:00063eb8       ??$tcsnicoll@ABQBDAAPADABI@?$__crt_char_traits@D@@SAHABQBDAAPADABI@Z 10064eb8 f i libucrtd:setenv.obj
 0001:00063ed6       ??$tcsnicoll@ABQB_WAAPA_WABI@?$__crt_char_traits@_W@@SAHABQB_WAAPA_WABI@Z 10064ed6 f i libucrtd:setenv.obj
 0001:00063ef4       ??$tcsnlen@PADH@?$__crt_char_traits@D@@SAI$$QAPAD$$QAH@Z 10064ef4 f i libucrtd:setenv.obj
 0001:00063f0c       ??$tcsnlen@PA_WH@?$__crt_char_traits@_W@@SAI$$QAPA_W$$QAH@Z 10064f0c f i libucrtd:setenv.obj
 0001:00063f48       ?strchr@@YAPADQADH@Z       10064f48 f i libucrtd:setenv.obj
 0001:00063f53       ?wcschr@@YAPA_WPA_W_W@Z    10064f53 f i libucrtd:setenv.obj
 0001:00063f5e       ___dcrt_set_variable_in_narrow_environment_nolock 10064f5e f   libucrtd:setenv.obj
 0001:00063f69       ___dcrt_set_variable_in_wide_environment_nolock 10064f69 f   libucrtd:setenv.obj
 0001:00063fa0       ??$?B$$A6GHPA_WKJ@Z@__crt_fast_encoded_nullptr_t@@QBEP6GHPA_WKJ@ZXZ 10064fa0 f i libucrtd:winapi_thunks.obj
 0001:00064090       ??$__crt_fast_decode_pointer@P6GHPA_WKJ@Z@@YAP6GHPA_WKJ@ZQ6GH0KJ@Z@Z 10065090 f i libucrtd:winapi_thunks.obj
 0001:000640c0       ??$__crt_fast_decode_pointer@PAX@@YAPAXQAX@Z 100650c0 f i libucrtd:winapi_thunks.obj
 0001:000640f0       ??$__crt_fast_encode_pointer@P6GHPA_WKJ@Z@@YAP6GHPA_WKJ@ZQ6GH0KJ@Z@Z 100650f0 f i libucrtd:winapi_thunks.obj
 0001:00064a50       _GetCurrentThreadEffectiveToken 10065a50 f i libucrtd:winapi_thunks.obj
 0001:00064a60       ___acrt_AppPolicyGetProcessTerminationMethodInternal@4 10065a60 f   libucrtd:winapi_thunks.obj
 0001:00064aa0       ___acrt_AppPolicyGetShowDeveloperDiagnosticInternal@4 10065aa0 f   libucrtd:winapi_thunks.obj
 0001:00064ae0       ___acrt_AppPolicyGetThreadInitializationTypeInternal@4 10065ae0 f   libucrtd:winapi_thunks.obj
 0001:00064b20       ___acrt_AppPolicyGetWindowingModelInternal@4 10065b20 f   libucrtd:winapi_thunks.obj
 0001:00064b60       ___acrt_AreFileApisANSI@0  10065b60 f   libucrtd:winapi_thunks.obj
 0001:00064ba0       ___acrt_CompareStringEx@36 10065ba0 f   libucrtd:winapi_thunks.obj
 0001:00064c20       ___acrt_EnumSystemLocalesEx@16 10065c20 f   libucrtd:winapi_thunks.obj
 0001:00064c80       ___acrt_FlsAlloc@4         10065c80 f   libucrtd:winapi_thunks.obj
 0001:00064cc0       ___acrt_FlsFree@4          10065cc0 f   libucrtd:winapi_thunks.obj
 0001:00064d00       ___acrt_FlsGetValue@4      10065d00 f   libucrtd:winapi_thunks.obj
 0001:00064d40       ___acrt_FlsSetValue@8      10065d40 f   libucrtd:winapi_thunks.obj
 0001:00064d90       ___acrt_GetDateFormatEx@28 10065d90 f   libucrtd:winapi_thunks.obj
 0001:00064e10       ___acrt_GetEnabledXStateFeatures@0 10065e10 f   libucrtd:winapi_thunks.obj
 0001:00064e50       ___acrt_GetLocaleInfoEx@16 10065e50 f   libucrtd:winapi_thunks.obj
 0001:00064eb0       ___acrt_GetSystemTimePreciseAsFileTime@4 10065eb0 f   libucrtd:winapi_thunks.obj
 0001:00064ef0       ___acrt_GetTimeFormatEx@24 10065ef0 f   libucrtd:winapi_thunks.obj
 0001:00064f60       ___acrt_GetUserDefaultLocaleName@8 10065f60 f   libucrtd:winapi_thunks.obj
 0001:00064fb0       ___acrt_GetXStateFeaturesMask@8 10065fb0 f   libucrtd:winapi_thunks.obj
 0001:00064ff0       ___acrt_InitializeCriticalSectionEx@12 10065ff0 f   libucrtd:winapi_thunks.obj
 0001:00065040       ___acrt_IsValidLocaleName@4 10066040 f   libucrtd:winapi_thunks.obj
 0001:00065090       ___acrt_LCIDToLocaleName@16 10066090 f   libucrtd:winapi_thunks.obj
 0001:000650f0       ___acrt_LCMapStringEx@36   100660f0 f   libucrtd:winapi_thunks.obj
 0001:00065170       ___acrt_LocaleNameToLCID@8 10066170 f   libucrtd:winapi_thunks.obj
 0001:000651c0       ___acrt_LocateXStateFeature@12 100661c0 f   libucrtd:winapi_thunks.obj
 0001:00065210       ___acrt_MessageBoxA@16     10066210 f   libucrtd:winapi_thunks.obj
 0001:00065260       ___acrt_MessageBoxW@16     10066260 f   libucrtd:winapi_thunks.obj
 0001:000652b0       ___acrt_RoInitialize@4     100662b0 f   libucrtd:winapi_thunks.obj
 0001:000652f0       ___acrt_RoUninitialize@0   100662f0 f   libucrtd:winapi_thunks.obj
 0001:00065320       ___acrt_RtlGenRandom@8     10066320 f   libucrtd:winapi_thunks.obj
 0001:00065360       ___acrt_SetThreadStackGuarantee@4 10066360 f   libucrtd:winapi_thunks.obj
 0001:000653a0       ___acrt_can_show_message_box 100663a0 f   libucrtd:winapi_thunks.obj
 0001:000653e0       ___acrt_can_use_vista_locale_apis 100663e0 f   libucrtd:winapi_thunks.obj
 0001:00065410       ___acrt_can_use_xstate_apis 10066410 f   libucrtd:winapi_thunks.obj
 0001:00065440       ___acrt_eagerly_load_locale_apis 10066440 f   libucrtd:winapi_thunks.obj
 0001:00065480       ___acrt_get_parent_window  10066480 f   libucrtd:winapi_thunks.obj
 0001:000654f0       ___acrt_initialize_winapi_thunks 100664f0 f   libucrtd:winapi_thunks.obj
 0001:00065560       ___acrt_is_interactive     10066560 f   libucrtd:winapi_thunks.obj
 0001:00065610       ___acrt_uninitialize_winapi_thunks 10066610 f   libucrtd:winapi_thunks.obj
 0001:00065680       ___acrt_getheap            10066680 f   libucrtd:heap_handle.obj
 0001:000656c0       ___acrt_initialize_heap    100666c0 f   libucrtd:heap_handle.obj
 0001:000656f0       ___acrt_uninitialize_heap  100666f0 f   libucrtd:heap_handle.obj
 0001:00065710       __get_heap_handle          10066710 f   libucrtd:heap_handle.obj
 0001:00065750       ___acrt_execute_initializers 10066750 f   libucrtd:shared_initialization.obj
 0001:00065800       ___acrt_execute_uninitializers 10066800 f   libucrtd:shared_initialization.obj
 0001:00065860       ??$__crt_fast_decode_pointer@P6AHPAU_exception@@@Z@@YAP6AHPAU_exception@@@ZQ6AH0@Z@Z 10066860 f i libucrtd:matherr.obj
 0001:00065890       ??$__crt_fast_encode_pointer@P6AHPAU_exception@@@Z@@YAP6AHPAU_exception@@@ZQ6AH0@Z@Z 10066890 f i libucrtd:matherr.obj
 0001:000658c0       ?initialize@?$dual_state_global@P6AHPAU_exception@@@Z@__crt_state_management@@QAEXQ6AHPAU_exception@@@Z@Z 100668c0 f i libucrtd:matherr.obj
 0001:00065900       ?value@?$dual_state_global@P6AHPAU_exception@@@Z@__crt_state_management@@QAEAAP6AHPAU_exception@@@ZXZ 10066900 f i libucrtd:matherr.obj
 0001:00065920       ___acrt_has_user_matherr   10066920 f   libucrtd:matherr.obj
 0001:00065960       ___acrt_initialize_user_matherr 10066960 f   libucrtd:matherr.obj
 0001:00065980       ___acrt_invoke_user_matherr 10066980 f   libucrtd:matherr.obj
 0001:000659d0       ___setusermatherr          100669d0 f   libucrtd:matherr.obj
 0001:00065a00       __chvalidator              10066a00 f   libucrtd:isctype.obj
 0001:00065a50       __chvalidator_l            10066a50 f   libucrtd:isctype.obj
 0001:00065ad0       __isctype                  10066ad0 f   libucrtd:isctype.obj
 0001:00065b10       __isctype_l                10066b10 f   libucrtd:isctype.obj
 0001:00065c90       __isleadbyte_fast_internal 10066c90 f i libucrtd:isctype.obj
 0001:00065cc0       __free_base                10066cc0 f   libucrtd:free_base.obj
 0001:00065d70       __expand                   10066d70 f   libucrtd:expand.obj
 0001:00065d90       __expand_base              10066d90 f   libucrtd:expand.obj
 0001:00065ec0       ?value@?$dual_state_global@J@__crt_state_management@@QAEAAJXZ 10066ec0 f i libucrtd:new_mode.obj
 0001:00065ee0       __query_new_mode           10066ee0 f   libucrtd:new_mode.obj
 0001:00065f00       __set_new_mode             10066f00 f   libucrtd:new_mode.obj
 0001:00065fa0       __CrtDefaultAllocHook      10066fa0 f   libucrtd:debug_heap_hook.obj
 0001:00065fac       __mbsdec                   10066fac f   libucrtd:mbsdec.obj
 0001:00065fc3       __mbsdec_l                 10066fc3 f   libucrtd:mbsdec.obj
 0001:000664b0       _strncpy_s                 100674b0 f   libucrtd:strncpy_s.obj
 0001:00066680       ___acrt_report_runtime_error 10067680 f   libucrtd:report_runtime_error.obj
 0001:00066870       __query_app_type           10067870 f   libucrtd:report_runtime_error.obj
 0001:00066880       __set_app_type             10067880 f   libucrtd:report_runtime_error.obj
 0001:00066890       __iswctype_l               10067890 f   libucrtd:iswctype.obj
 0001:000668b0       _iswctype                  100678b0 f   libucrtd:iswctype.obj
 0001:00067a30       __i64toa                   10068a30 f   libucrtd:xtoa.obj
 0001:00067a80       __i64toa_s                 10068a80 f   libucrtd:xtoa.obj
 0001:00067ad0       __i64tow                   10068ad0 f   libucrtd:xtoa.obj
 0001:00067b20       __i64tow_s                 10068b20 f   libucrtd:xtoa.obj
 0001:00067b70       __itoa                     10068b70 f   libucrtd:xtoa.obj
 0001:00067bc0       __itoa_s                   10068bc0 f   libucrtd:xtoa.obj
 0001:00067c10       __itow                     10068c10 f   libucrtd:xtoa.obj
 0001:00067c60       __itow_s                   10068c60 f   libucrtd:xtoa.obj
 0001:00067cb0       __ltoa                     10068cb0 f   libucrtd:xtoa.obj
 0001:00067d00       __ltoa_s                   10068d00 f   libucrtd:xtoa.obj
 0001:00067d50       __ltow                     10068d50 f   libucrtd:xtoa.obj
 0001:00067da0       __ltow_s                   10068da0 f   libucrtd:xtoa.obj
 0001:00067df0       __ui64toa                  10068df0 f   libucrtd:xtoa.obj
 0001:00067e20       __ui64toa_s                10068e20 f   libucrtd:xtoa.obj
 0001:00067e50       __ui64tow                  10068e50 f   libucrtd:xtoa.obj
 0001:00067e80       __ui64tow_s                10068e80 f   libucrtd:xtoa.obj
 0001:00067eb0       __ultoa                    10068eb0 f   libucrtd:xtoa.obj
 0001:00067ee0       __ultoa_s                  10068ee0 f   libucrtd:xtoa.obj
 0001:00067f10       __ultow                    10068f10 f   libucrtd:xtoa.obj
 0001:00067f40       __ultow_s                  10068f40 f   libucrtd:xtoa.obj
 0001:00068350       __mbstowcs_l               10069350 f   libucrtd:mbstowcs.obj
 0001:00068370       __mbstowcs_s_l             10069370 f   libucrtd:mbstowcs.obj
 0001:00068730       _mbstowcs                  10069730 f   libucrtd:mbstowcs.obj
 0001:00068780       _mbstowcs_s                10069780 f   libucrtd:mbstowcs.obj
 0001:00068e70       __wcstombs_l               10069e70 f   libucrtd:wcstombs.obj
 0001:00068e90       __wcstombs_s_l             10069e90 f   libucrtd:wcstombs.obj
 0001:00069200       _wcstombs                  1006a200 f   libucrtd:wcstombs.obj
 0001:00069220       _wcstombs_s                1006a220 f   libucrtd:wcstombs.obj
 0001:00069250       ___acrt_OutputDebugStringA@4 1006a250 f   libucrtd:outputdebugstringa.obj
 0001:000692e0       ___iswcsym                 1006a2e0 f i libucrtd:_wctype.obj
 0001:00069320       ___iswcsymf                1006a320 f i libucrtd:_wctype.obj
 0001:00069360       __isleadbyte_l             1006a360 f i libucrtd:_wctype.obj
 0001:000693b0       __iswalnum_l               1006a3b0 f i libucrtd:_wctype.obj
 0001:000693d0       __iswalpha_l               1006a3d0 f i libucrtd:_wctype.obj
 0001:000693f0       __iswblank_l               1006a3f0 f i libucrtd:_wctype.obj
 0001:00069430       __iswcntrl_l               1006a430 f i libucrtd:_wctype.obj
 0001:00069450       __iswcsym_l                1006a450 f i libucrtd:_wctype.obj
 0001:00069490       __iswcsymf_l               1006a490 f i libucrtd:_wctype.obj
 0001:000694d0       __iswdigit_l               1006a4d0 f i libucrtd:_wctype.obj
 0001:000694f0       __iswgraph_l               1006a4f0 f i libucrtd:_wctype.obj
 0001:00069510       __iswlower_l               1006a510 f i libucrtd:_wctype.obj
 0001:00069530       __iswprint_l               1006a530 f i libucrtd:_wctype.obj
 0001:00069550       __iswpunct_l               1006a550 f i libucrtd:_wctype.obj
 0001:00069570       __iswspace_l               1006a570 f i libucrtd:_wctype.obj
 0001:00069590       __iswupper_l               1006a590 f i libucrtd:_wctype.obj
 0001:000695b0       __iswxdigit_l              1006a5b0 f i libucrtd:_wctype.obj
 0001:000695d0       _isleadbyte                1006a5d0 f i libucrtd:_wctype.obj
 0001:000695f0       _iswalnum                  1006a5f0 f i libucrtd:_wctype.obj
 0001:00069610       _iswalpha                  1006a610 f i libucrtd:_wctype.obj
 0001:00069630       _iswascii                  1006a630 f i libucrtd:_wctype.obj
 0001:00069660       _iswblank                  1006a660 f i libucrtd:_wctype.obj
 0001:000696a0       _iswcntrl                  1006a6a0 f i libucrtd:_wctype.obj
 0001:000696c0       _iswdigit                  1006a6c0 f i libucrtd:_wctype.obj
 0001:000696e0       _iswgraph                  1006a6e0 f i libucrtd:_wctype.obj
 0001:00069700       _iswlower                  1006a700 f i libucrtd:_wctype.obj
 0001:00069720       _iswprint                  1006a720 f i libucrtd:_wctype.obj
 0001:00069740       _iswpunct                  1006a740 f i libucrtd:_wctype.obj
 0001:00069760       _iswspace                  1006a760 f i libucrtd:_wctype.obj
 0001:00069780       _iswupper                  1006a780 f i libucrtd:_wctype.obj
 0001:000697a0       _iswxdigit                 1006a7a0 f i libucrtd:_wctype.obj
 0001:00069830       ?__mbrtowc_utf8@__crt_mbstring@@YAIPA_WPBDIPAU_Mbstatet@@@Z 1006a830 f   libucrtd:mbrtowc.obj
 0001:00069880       ?__mbsrtowcs_utf8@__crt_mbstring@@YAIPA_WPAPBDIPAU_Mbstatet@@@Z 1006a880 f   libucrtd:mbrtowc.obj
 0001:0006a0f0       _btowc                     1006b0f0 f   libucrtd:mbrtowc.obj
 0001:0006a160       _mbrlen                    1006b160 f   libucrtd:mbrtowc.obj
 0001:0006a1b0       _mbrtowc                   1006b1b0 f   libucrtd:mbrtowc.obj
 0001:0006a240       _mbsrtowcs                 1006b240 f   libucrtd:mbrtowc.obj
 0001:0006a260       _mbsrtowcs_s               1006b260 f   libucrtd:mbrtowc.obj
 0001:0006a5b0       ??$?RG@__crt_internal_free_policy@@QBEXQBG@Z 1006b5b0 f i libucrtd:initctype.obj
 0001:0006a5d0       ??$?RJ@__crt_internal_free_policy@@QBEXQBJ@Z 1006b5d0 f i libucrtd:initctype.obj
 0001:0006a5f0       ??0?$__crt_unique_heap_ptr@GU__crt_internal_free_policy@@@@QAE@QAG@Z 1006b5f0 f i libucrtd:initctype.obj
 0001:0006a610       ??0?$__crt_unique_heap_ptr@JU__crt_internal_free_policy@@@@QAE@QAJ@Z 1006b610 f i libucrtd:initctype.obj
 0001:0006a630       ??1?$__crt_unique_heap_ptr@GU__crt_internal_free_policy@@@@QAE@XZ 1006b630 f i libucrtd:initctype.obj
 0001:0006a650       ??1?$__crt_unique_heap_ptr@JU__crt_internal_free_policy@@@@QAE@XZ 1006b650 f i libucrtd:initctype.obj
 0001:0006a670       ?detach@?$__crt_unique_heap_ptr@GU__crt_internal_free_policy@@@@QAEPAGXZ 1006b670 f i libucrtd:initctype.obj
 0001:0006a6a0       ?detach@?$__crt_unique_heap_ptr@JU__crt_internal_free_policy@@@@QAEPAJXZ 1006b6a0 f i libucrtd:initctype.obj
 0001:0006a6d0       ?release@?$__crt_unique_heap_ptr@GU__crt_internal_free_policy@@@@QAEXXZ 1006b6d0 f i libucrtd:initctype.obj
 0001:0006a700       ?release@?$__crt_unique_heap_ptr@JU__crt_internal_free_policy@@@@QAEXXZ 1006b700 f i libucrtd:initctype.obj
 0001:0006a730       ____lc_codepage_func       1006b730 f   libucrtd:initctype.obj
 0001:0006a770       ____lc_collate_cp_func     1006b770 f   libucrtd:initctype.obj
 0001:0006a7b0       ____lc_locale_name_func    1006b7b0 f   libucrtd:initctype.obj
 0001:0006a7f0       ____mb_cur_max_func        1006b7f0 f   libucrtd:initctype.obj
 0001:0006a830       ____mb_cur_max_l_func      1006b830 f   libucrtd:initctype.obj
 0001:0006a860       ___acrt_locale_initialize_ctype 1006b860 f   libucrtd:initctype.obj
 0001:0006afe0       ?__c32rtomb_utf8@__crt_mbstring@@YAIPAD_UPAU_Mbstatet@@@Z 1006bfe0 f   libucrtd:c32rtomb.obj
 0001:0006b1c0       ?reset_and_return@__crt_mbstring@@YAIIPAU_Mbstatet@@@Z 1006c1c0 f i libucrtd:c32rtomb.obj
 0001:0006b1f0       ?return_illegal_sequence@__crt_mbstring@@YAIPAU_Mbstatet@@@Z 1006c1f0 f i libucrtd:c32rtomb.obj
 0001:0006b220       _c32rtomb                  1006c220 f   libucrtd:c32rtomb.obj
 0001:0006b240       ___acrt_add_locale_ref     1006c240 f   libucrtd:locale_refcounting.obj
 0001:0006b350       ___acrt_free_locale        1006c350 f   libucrtd:locale_refcounting.obj
 0001:0006b620       ___acrt_locale_add_lc_time_reference 1006c620 f   libucrtd:locale_refcounting.obj
 0001:0006b660       ___acrt_locale_free_lc_time_if_unreferenced 1006c660 f   libucrtd:locale_refcounting.obj
 0001:0006b6b0       ___acrt_locale_release_lc_time_reference 1006c6b0 f   libucrtd:locale_refcounting.obj
 0001:0006b6e0       ___acrt_release_locale_ref 1006c6e0 f   libucrtd:locale_refcounting.obj
 0001:0006b7f0       ___acrt_update_thread_locale_data 1006c7f0 f   libucrtd:locale_refcounting.obj
 0001:0006b8c0       __updatetlocinfoEx_nolock  1006c8c0 f   libucrtd:locale_refcounting.obj
 0001:0006b940       ___acrt_fp_strflt_to_string 1006c940 f   libucrtd:_fptostr.obj
 0001:0006c280       ??0big_integer@__crt_strtox@@QAE@ABU01@@Z 1006d280 f i libucrtd:cfout.obj
 0001:0006c2c0       ??0big_integer@__crt_strtox@@QAE@XZ 1006d2c0 f i libucrtd:cfout.obj
 0001:0006c380       ??4big_integer@__crt_strtox@@QAEAAU01@ABU01@@Z 1006d380 f i libucrtd:cfout.obj
 0001:0006c3c0       ??8__crt_strtox@@YA_NABUbig_integer@0@0@Z 1006d3c0 f i libucrtd:cfout.obj
 0001:0006c420       ??9__crt_strtox@@YA_NABUbig_integer@0@0@Z 1006d420 f i libucrtd:cfout.obj
 0001:0006c460       ?add_carry@__crt_strtox@@YAIAAIII@Z 1006d460 f i libucrtd:cfout.obj
 0001:0006c4a0       ?add_multiply_carry@__crt_strtox@@YAIAAIIII@Z 1006d4a0 f i libucrtd:cfout.obj
 0001:0006c4e0       ?bit_scan_reverse@__crt_strtox@@YAII@Z 1006d4e0 f i libucrtd:cfout.obj
 0001:0006c510       ?count_sequential_high_zeroes@__crt_strtox@@YAII@Z 1006d510 f i libucrtd:cfout.obj
 0001:0006c550       ?divide@__crt_strtox@@YA_KAAUbig_integer@1@ABU21@@Z 1006d550 f i libucrtd:cfout.obj
 0001:0006cfd0       ?is_zero@__crt_strtox@@YA_NABUbig_integer@1@@Z 1006dfd0 f i libucrtd:cfout.obj
 0001:0006d000       ?make_big_integer@__crt_strtox@@YA?AUbig_integer@1@_K@Z 1006e000 f i libucrtd:cfout.obj
 0001:0006d0b0       ?make_big_integer_power_of_two@__crt_strtox@@YA?AUbig_integer@1@I@Z 1006e0b0 f i libucrtd:cfout.obj
 0001:0006d160       ?multiply@__crt_strtox@@YA_NAAUbig_integer@1@ABU21@@Z 1006e160 f i libucrtd:cfout.obj
 0001:0006d4e0       ?multiply@__crt_strtox@@YA_NAAUbig_integer@1@I@Z 1006e4e0 f i libucrtd:cfout.obj
 0001:0006d5b0       ?multiply_64_32@__crt_strtox@@YA_K_KI@Z 1006e5b0 f i libucrtd:cfout.obj
 0001:0006d5d0       ?multiply_by_power_of_ten@__crt_strtox@@YA_NAAUbig_integer@1@I@Z 1006e5d0 f i libucrtd:cfout.obj
 0001:0006d770       ?multiply_core@__crt_strtox@@YAIQAIII@Z 1006e770 f i libucrtd:cfout.obj
 0001:0006d7e0       ?shift_left@__crt_strtox@@YA_NAAUbig_integer@1@I@Z 1006e7e0 f i libucrtd:cfout.obj
 0001:0006db30       ___acrt_fltout             1006eb30 f   libucrtd:cfout.obj
 0001:0006e620       ?has_big_buffer@__crt_stdio_stream@@QBE_NXZ 1006f620 f i libucrtd:_flsbuf.obj
 0001:0006e720       ___acrt_stdio_flush_and_write_narrow_nolock 1006f720 f   libucrtd:_flsbuf.obj
 0001:0006e750       ___acrt_stdio_flush_and_write_wide_nolock 1006f750 f   libucrtd:_flsbuf.obj
 0001:0006e780       ??0__crt_stdio_stream@@QAE@QAU__crt_stdio_stream_data@@@Z 1006f780 f i libucrtd:closeall.obj
 0001:0006e7a0       ?is_in_use@__crt_stdio_stream@@QBE_NXZ 1006f7a0 f i libucrtd:closeall.obj
 0001:0006e7e0       __fcloseall                1006f7e0 f   libucrtd:closeall.obj
 0001:0006eec0       ?__acrt_stdio_reset_buffer@@YAXV__crt_stdio_stream@@@Z 1006fec0 f i libucrtd:fflush.obj
 0001:0006efc0       ?has_all_of@__crt_stdio_stream@@QBE_NJ@Z 1006ffc0 f i libucrtd:fflush.obj
 0001:0006f090       ___acrt_stdio_flush_nolock 10070090 f   libucrtd:fflush.obj
 0001:0006f160       __fflush_nolock            10070160 f   libucrtd:fflush.obj
 0001:0006f1e0       __flushall                 100701e0 f   libucrtd:fflush.obj
 0001:0006f200       _fflush                    10070200 f   libucrtd:fflush.obj
 0001:0006f270       ?has_crt_buffer@__crt_stdio_stream@@QBE_NXZ 10070270 f i libucrtd:_freebuf.obj
 0001:0006f290       ___acrt_stdio_free_buffer_nolock 10070290 f   libucrtd:_freebuf.obj
 0001:0006f340       __isatty                   10070340 f   libucrtd:isatty.obj
 0001:0006f410       ??$?RUlconv@@@__crt_internal_free_policy@@QBEXQBUlconv@@@Z 10070410 f i libucrtd:initmon.obj
 0001:0006f430       ??0?$__crt_unique_heap_ptr@Ulconv@@U__crt_internal_free_policy@@@@QAE@QAUlconv@@@Z 10070430 f i libucrtd:initmon.obj
 0001:0006f450       ??1?$__crt_unique_heap_ptr@Ulconv@@U__crt_internal_free_policy@@@@QAE@XZ 10070450 f i libucrtd:initmon.obj
 0001:0006f470       ?detach@?$__crt_unique_heap_ptr@Ulconv@@U__crt_internal_free_policy@@@@QAEPAUlconv@@XZ 10070470 f i libucrtd:initmon.obj
 0001:0006f4a0       ?release@?$__crt_unique_heap_ptr@Ulconv@@U__crt_internal_free_policy@@@@QAEXXZ 100704a0 f i libucrtd:initmon.obj
 0001:0006f4d0       ___acrt_locale_free_monetary 100704d0 f   libucrtd:initmon.obj
 0001:0006f680       ___acrt_locale_initialize_monetary 10070680 f   libucrtd:initmon.obj
 0001:0006fd20       ___acrt_locale_free_numeric 10070d20 f   libucrtd:initnum.obj
 0001:0006fdd0       ___acrt_locale_initialize_numeric 10070dd0 f   libucrtd:initnum.obj
 0001:00070220       ??$?RU__crt_lc_time_data@@@__crt_internal_free_policy@@QBEXQBU__crt_lc_time_data@@@Z 10071220 f i libucrtd:inittime.obj
 0001:00070300       ??0?$__crt_unique_heap_ptr@U__crt_lc_time_data@@U__crt_internal_free_policy@@@@QAE@QAU__crt_lc_time_data@@@Z 10071300 f i libucrtd:inittime.obj
 0001:00070320       ??1?$__crt_unique_heap_ptr@U__crt_lc_time_data@@U__crt_internal_free_policy@@@@QAE@XZ 10071320 f i libucrtd:inittime.obj
 0001:00070340       ??B?$__crt_unique_heap_ptr@U__crt_lc_time_data@@U__crt_internal_free_policy@@@@QBE_NXZ 10071340 f i libucrtd:inittime.obj
 0001:00070360       ?detach@?$__crt_unique_heap_ptr@U__crt_lc_time_data@@U__crt_internal_free_policy@@@@QAEPAU__crt_lc_time_data@@XZ 10071360 f i libucrtd:inittime.obj
 0001:000703d0       ?get@?$__crt_unique_heap_ptr@U__crt_lc_time_data@@U__crt_internal_free_policy@@@@QBEPAU__crt_lc_time_data@@XZ 100713d0 f i libucrtd:inittime.obj
 0001:000708a0       ?is_valid@?$__crt_unique_heap_ptr@U__crt_lc_time_data@@U__crt_internal_free_policy@@@@QBE_NXZ 100718a0 f i libucrtd:inittime.obj
 0001:000708d0       ?release@?$__crt_unique_heap_ptr@U__crt_lc_time_data@@U__crt_internal_free_policy@@@@QAEXXZ 100718d0 f i libucrtd:inittime.obj
 0001:00070900       ___acrt_locale_free_time   10071900 f   libucrtd:inittime.obj
 0001:00070a50       ___acrt_locale_initialize_time 10071a50 f   libucrtd:inittime.obj
 0001:00070ad0       ___pctype_func             10071ad0 f   libucrtd:ctype.obj
 0001:00070b10       ___pwctype_func            10071b10 f   libucrtd:ctype.obj
 0001:00070ff0       _wcsncat_s                 10071ff0 f   libucrtd:wcsncat_s.obj
 0001:00071010       _wcscmp                    10072010 f   libucrtd:wcscmp.obj
 0001:00071090       _wcscspn                   10072090 f   libucrtd:wcscspn.obj
 0001:00071100       _wcspbrk                   10072100 f   libucrtd:wcspbrk.obj
 0001:00071160       ??0?$__crt_scoped_stack_ptr@_W@@QAE@U?$__crt_scoped_stack_ptr_tag@_W@@@Z 10072160 f i libucrtd:getstringtypea.obj
 0001:00071180       ??0?$__crt_scoped_stack_ptr_tag@_W@@QAE@QA_W@Z 10072180 f i libucrtd:getstringtypea.obj
 0001:000711a0       ??1?$__crt_scoped_stack_ptr@_W@@QAE@XZ 100721a0 f i libucrtd:getstringtypea.obj
 0001:000711c0       ?get@?$__crt_scoped_stack_ptr@_W@@QBEPA_WXZ 100721c0 f i libucrtd:getstringtypea.obj
 0001:000711e0       __MallocaComputeSize       100721e0 f i libucrtd:getstringtypea.obj
 0001:00071210       __MarkAllocaS              10072210 f i libucrtd:getstringtypea.obj
 0001:00071240       ___acrt_GetStringTypeA     10072240 f   libucrtd:getstringtypea.obj
 0001:000713f0       __freea_crt                100723f0 f i libucrtd:getstringtypea.obj
 0001:00071fc0       ___acrt_get_qualified_locale 10072fc0 f   libucrtd:get_qualified_locale.obj
 0001:00072fd0       ___acrt_get_qualified_locale_downlevel 10073fd0 f   libucrtd:getqloc_downlevel.obj
 0001:00073270       _localeconv                10074270 f   libucrtd:localeconv.obj
 0001:000732b0       ??$?RU__crt_lowio_handle_data@@@__crt_internal_free_policy@@QBEXQBU__crt_lowio_handle_data@@@Z 100742b0 f i libucrtd:osfinfo.obj
 0001:000732d0       ??0?$__crt_unique_heap_ptr@U__crt_lowio_handle_data@@U__crt_internal_free_policy@@@@QAE@QAU__crt_lowio_handle_data@@@Z 100742d0 f i libucrtd:osfinfo.obj
 0001:000732f0       ??1?$__crt_unique_heap_ptr@U__crt_lowio_handle_data@@U__crt_internal_free_policy@@@@QAE@XZ 100742f0 f i libucrtd:osfinfo.obj
 0001:00073310       ??B?$__crt_unique_heap_ptr@U__crt_lowio_handle_data@@U__crt_internal_free_policy@@@@QBE_NXZ 10074310 f i libucrtd:osfinfo.obj
 0001:00073330       ?detach@?$__crt_unique_heap_ptr@U__crt_lowio_handle_data@@U__crt_internal_free_policy@@@@QAEPAU__crt_lowio_handle_data@@XZ 10074330 f i libucrtd:osfinfo.obj
 0001:00073360       ?get@?$__crt_unique_heap_ptr@U__crt_lowio_handle_data@@U__crt_internal_free_policy@@@@QBEPAU__crt_lowio_handle_data@@XZ 10074360 f i libucrtd:osfinfo.obj
 0001:00073380       ?is_valid@?$__crt_unique_heap_ptr@U__crt_lowio_handle_data@@U__crt_internal_free_policy@@@@QBE_NXZ 10074380 f i libucrtd:osfinfo.obj
 0001:000733b0       ?release@?$__crt_unique_heap_ptr@U__crt_lowio_handle_data@@U__crt_internal_free_policy@@@@QAEXXZ 100743b0 f i libucrtd:osfinfo.obj
 0001:000733e0       ___acrt_lowio_create_handle_array 100743e0 f   libucrtd:osfinfo.obj
 0001:00073540       ___acrt_lowio_destroy_handle_array 10074540 f   libucrtd:osfinfo.obj
 0001:000735a0       ___acrt_lowio_ensure_fh_exists 100745a0 f   libucrtd:osfinfo.obj
 0001:00073700       ___acrt_lowio_lock_fh      10074700 f   libucrtd:osfinfo.obj
 0001:00073730       ___acrt_lowio_set_os_handle 10074730 f   libucrtd:osfinfo.obj
 0001:00073800       ___acrt_lowio_unlock_fh    10074800 f   libucrtd:osfinfo.obj
 0001:00073830       __alloc_osfhnd             10074830 f   libucrtd:osfinfo.obj
 0001:00073a10       __free_osfhnd              10074a10 f   libucrtd:osfinfo.obj
 0001:00073b00       __get_osfhandle            10074b00 f   libucrtd:osfinfo.obj
 0001:00073c80       __open_osfhandle           10074c80 f   libucrtd:osfinfo.obj
 0001:00073e80       __malloc_base              10074e80 f   libucrtd:malloc_base.obj
 0001:00074030       _qsort                     10075030 f   libucrtd:qsort.obj
 0001:000746b0       _strpbrk                   100756b0 f   libucrtd:strpbrk.obj
 0001:000746f0       ??B?$__crt_scoped_stack_ptr@_W@@QBE_NXZ 100756f0 f i libucrtd:lcmapstringa.obj
 0001:00074ae0       ___acrt_LCMapStringA       10075ae0 f   libucrtd:lcmapstringa.obj
 0001:00074b70       __wcsnicoll                10075b70 f   libucrtd:wcsnicol.obj
 0001:00074d30       __wcsnicoll_l              10075d30 f   libucrtd:wcsnicol.obj
 0001:00074f80       __strnicoll                10075f80 f   libucrtd:strnicol.obj
 0001:00074fd0       __strnicoll_l              10075fd0 f   libucrtd:strnicol.obj
 0001:000753f0       ___acrt_SetEnvironmentVariableA 100763f0 f   libucrtd:setenvironmentvariablea.obj
 0001:000755b0       ___acrt_DownlevelLCIDToLocaleName 100765b0 f   libucrtd:lcidtoname_downlevel.obj
 0001:00075680       ___acrt_DownlevelLocaleNameToLCID 10076680 f   libucrtd:lcidtoname_downlevel.obj
 0001:000756c0       __set_error_mode           100766c0 f   libucrtd:set_error_mode.obj
 0001:00075780       ___acrt_GetStringTypeW     10076780 f   libucrtd:getstringtypew.obj
 0001:000757a0       ?__wcsrtombs_utf8@__crt_mbstring@@YAIPADPAPB_WIPAU_Mbstatet@@@Z 100767a0 f   libucrtd:wcrtomb.obj
 0001:00075f80       _wcrtomb                   10076f80 f   libucrtd:wcrtomb.obj
 0001:00075fd0       _wcrtomb_s                 10076fd0 f   libucrtd:wcrtomb.obj
 0001:000760f0       _wcsrtombs                 100770f0 f   libucrtd:wcrtomb.obj
 0001:00076110       _wcsrtombs_s               10077110 f   libucrtd:wcrtomb.obj
 0001:00076460       _wctob                     10077460 f   libucrtd:wcrtomb.obj
 0001:000764e0       ?__mbrtoc32_utf8@__crt_mbstring@@YAIPA_UPBDIPAU_Mbstatet@@@Z 100774e0 f   libucrtd:mbrtoc32.obj
 0001:000767b0       _mbrtoc32                  100777b0 f   libucrtd:mbrtoc32.obj
 0001:00076950       ___acrt_GetLocaleInfoA     10077950 f   libucrtd:getlocaleinfoa.obj
 0001:00076d10       _log10                     10077d10 f   libucrtd:log10.obj
 0001:00076d60       _ceil                      10077d60 f   libucrtd:ceil_pentium4.obj
 0001:00076da0       __ceil_pentium4            10077da0 f   libucrtd:ceil_pentium4.obj
 0001:00076e80       _fegetenv                  10077e80 f   libucrtd:fegetenv.obj
 0001:00076ea0       _fesetenv                  10077ea0 f   libucrtd:fesetenv.obj
 0001:00076f10       _feholdexcept              10077f10 f   libucrtd:feholdexcept.obj
 0001:000784e0       __utf8_no_of_trailbytes    100794e0 f i libucrtd:write.obj
 0001:00078500       __write                    10079500 f   libucrtd:write.obj
 0001:00078750       __write_nolock             10079750 f   libucrtd:write.obj
 0001:00079310       __lseek                    1007a310 f   libucrtd:lseek.obj
 0001:00079330       __lseek_nolock             1007a330 f   libucrtd:lseek.obj
 0001:00079350       __lseeki64                 1007a350 f   libucrtd:lseek.obj
 0001:00079370       __lseeki64_nolock          1007a370 f   libucrtd:lseek.obj
 0001:00079390       ___acrt_stdio_allocate_buffer_nolock 1007a390 f   libucrtd:_getbuf.obj
 0001:000794a0       __fclose_nolock            1007a4a0 f   libucrtd:fclose.obj
 0001:000795e0       _fclose                    1007a5e0 f   libucrtd:fclose.obj
 0001:00079940       __commit                   1007a940 f   libucrtd:commit.obj
 0001:00079aa0       ___ascii_wcsicmp           1007aaa0 f   libucrtd:wcsicmp.obj
 0001:00079b10       __towlower_fast_internal   1007ab10 f i libucrtd:wcsicmp.obj
 0001:00079b50       __towlower_internal        1007ab50 f i libucrtd:wcsicmp.obj
 0001:00079b90       __wcsicmp                  1007ab90 f   libucrtd:wcsicmp.obj
 0001:00079cd0       __wcsicmp_l                1007acd0 f   libucrtd:wcsicmp.obj
 0001:00079eb0       ___ascii_wcsnicmp          1007aeb0 f   libucrtd:wcsnicmp.obj
 0001:00079f40       __wcsnicmp                 1007af40 f   libucrtd:wcsnicmp.obj
 0001:0007a080       __wcsnicmp_l               1007b080 f   libucrtd:wcsnicmp.obj
 0001:0007a280       ___strncnt                 1007b280 f   libucrtd:strncnt.obj
 0001:0007a2d0       ___acrt_CompareStringW     1007b2d0 f   libucrtd:comparestringw.obj
 0001:0007a380       __strnicmp                 1007b380 f   libucrtd:strnicmp.obj
 0001:0007a540       __strnicmp_l               1007b540 f   libucrtd:strnicmp.obj
 0001:0007ac10       ___acrt_CompareStringA     1007bc10 f   libucrtd:comparestringa.obj
 0001:0007ac70       ?__c16rtomb_utf8@__crt_mbstring@@YAIPAD_SPAU_Mbstatet@@@Z 1007bc70 f   libucrtd:c16rtomb.obj
 0001:0007ae70       _c16rtomb                  1007be70 f   libucrtd:c16rtomb.obj
 0001:0007ae90       ___acrt_initialize_sse2    1007be90 f   libucrtd:mathfcns.obj
 0001:0007aeb0       __set_SSE2_enable          1007beb0 f   libucrtd:mathfcns.obj
 0001:0007af00       __CIlog10                  1007bf00 f   libucrtd:log10_impl.obj
 0001:0007af3b       __CIlog10_default          1007bf3b f   libucrtd:log10_impl.obj
 0001:0007af4f       __log10_default            1007bf4f     libucrtd:log10_impl.obj
 0001:0007b010       __CIlog10_pentium4         1007c010 f   libucrtd:log10_pentium4.obj
 0001:0007b028       __log10_pentium4           1007c028     libucrtd:log10_pentium4.obj
 0001:0007b2a0       ___libm_error_support      1007c2a0 f   libucrtd:libm_error.obj
 0001:0007b860       ___libm_setusermatherr     1007c860 f   libucrtd:libm_error.obj
 0001:0007b8a0       __ceil_default             1007c8a0 f   libucrtd:ceil.obj
 0001:0007b9c0       ??$__acrt_fenv_shift_bits@W4__acrt_fenv_abstract_control@@@@YA?AW4__acrt_fenv_abstract_control@@W40@0I@Z 1007c9c0 f i libucrtd:_fenvutils.obj
 0001:0007b9e0       ??$__acrt_fenv_shift_bits@W4__acrt_fenv_abstract_status@@@@YA?AW4__acrt_fenv_abstract_status@@W40@0I@Z 1007c9e0 f i libucrtd:_fenvutils.obj
 0001:0007ba00       ??$__acrt_fenv_translate_bit@W4__acrt_fenv_abstract_control@@W4__acrt_fenv_machine_sse_control@@@@YA?AW4__acrt_fenv_abstract_control@@W4__acrt_fenv_machine_sse_control@@0W40@1@Z 1007ca00 f i libucrtd:_fenvutils.obj
 0001:0007ba40       ??$__acrt_fenv_translate_bit@W4__acrt_fenv_abstract_control@@W4__acrt_fenv_machine_x87_control@@@@YA?AW4__acrt_fenv_abstract_control@@W4__acrt_fenv_machine_x87_control@@0W40@1@Z 1007ca40 f i libucrtd:_fenvutils.obj
 0001:0007ba80       ??$__acrt_fenv_translate_bit@W4__acrt_fenv_abstract_status@@W4__acrt_fenv_machine_sse_status@@@@YA?AW4__acrt_fenv_abstract_status@@W4__acrt_fenv_machine_sse_status@@0W40@1@Z 1007ca80 f i libucrtd:_fenvutils.obj
 0001:0007bac0       ??$__acrt_fenv_translate_bit@W4__acrt_fenv_abstract_status@@W4__acrt_fenv_machine_x87_status@@@@YA?AW4__acrt_fenv_abstract_status@@W4__acrt_fenv_machine_x87_status@@0W40@1@Z 1007cac0 f i libucrtd:_fenvutils.obj
 0001:0007bb00       ??$__acrt_fenv_translate_bit@W4__acrt_fenv_machine_sse_control@@W4__acrt_fenv_abstract_control@@@@YA?AW4__acrt_fenv_machine_sse_control@@W4__acrt_fenv_abstract_control@@0W40@1@Z 1007cb00 f i libucrtd:_fenvutils.obj
 0001:0007bb40       ??$__acrt_fenv_translate_bit@W4__acrt_fenv_machine_sse_status@@W4__acrt_fenv_abstract_status@@@@YA?AW4__acrt_fenv_machine_sse_status@@W4__acrt_fenv_abstract_status@@0W40@1@Z 1007cb40 f i libucrtd:_fenvutils.obj
 0001:0007bb80       ??$__acrt_fenv_translate_bit@W4__acrt_fenv_machine_x87_control@@W4__acrt_fenv_abstract_control@@@@YA?AW4__acrt_fenv_machine_x87_control@@W4__acrt_fenv_abstract_control@@0W40@1@Z 1007cb80 f i libucrtd:_fenvutils.obj
 0001:0007bbc0       ??$__acrt_fenv_translate_bit@W4__acrt_fenv_machine_x87_status@@W4__acrt_fenv_abstract_status@@@@YA?AW4__acrt_fenv_machine_x87_status@@W4__acrt_fenv_abstract_status@@0W40@1@Z 1007cbc0 f i libucrtd:_fenvutils.obj
 0001:0007bc00       ??$__acrt_fenv_unshift_bits@W4__acrt_fenv_abstract_control@@@@YA?AW4__acrt_fenv_abstract_control@@W40@0I@Z 1007cc00 f i libucrtd:_fenvutils.obj
 0001:0007bc20       ??$__acrt_fenv_unshift_bits@W4__acrt_fenv_abstract_status@@@@YA?AW4__acrt_fenv_abstract_status@@W40@0I@Z 1007cc20 f i libucrtd:_fenvutils.obj
 0001:0007c650       ??I@YA?AW4__acrt_fenv_abstract_control@@W40@0@Z 1007d650 f i libucrtd:_fenvutils.obj
 0001:0007c660       ??I@YA?AW4__acrt_fenv_abstract_status@@W40@0@Z 1007d660 f i libucrtd:_fenvutils.obj
 0001:0007c670       ??I@YA?AW4__acrt_fenv_machine_sse_control@@W40@0@Z 1007d670 f i libucrtd:_fenvutils.obj
 0001:0007c690       ??I@YA?AW4__acrt_fenv_machine_sse_status@@W40@0@Z 1007d690 f i libucrtd:_fenvutils.obj
 0001:0007c6a0       ??I@YA?AW4__acrt_fenv_machine_x87_control@@W40@0@Z 1007d6a0 f i libucrtd:_fenvutils.obj
 0001:0007c6c0       ??I@YA?AW4__acrt_fenv_machine_x87_status@@W40@0@Z 1007d6c0 f i libucrtd:_fenvutils.obj
 0001:0007c6d0       ??U@YA?AW4__acrt_fenv_abstract_control@@W40@0@Z 1007d6d0 f i libucrtd:_fenvutils.obj
 0001:0007c6e0       ??U@YA?AW4__acrt_fenv_abstract_status@@W40@0@Z 1007d6e0 f i libucrtd:_fenvutils.obj
 0001:0007c6f0       ??U@YA?AW4__acrt_fenv_machine_sse_control@@W40@0@Z 1007d6f0 f i libucrtd:_fenvutils.obj
 0001:0007c710       ??U@YA?AW4__acrt_fenv_machine_x87_control@@W40@0@Z 1007d710 f i libucrtd:_fenvutils.obj
 0001:0007c730       ??_5@YAAAW4__acrt_fenv_abstract_control@@AAW40@W40@@Z 1007d730 f i libucrtd:_fenvutils.obj
 0001:0007c750       ??_5@YAAAW4__acrt_fenv_abstract_status@@AAW40@W40@@Z 1007d750 f i libucrtd:_fenvutils.obj
 0001:0007c770       ??_5@YAAAW4__acrt_fenv_machine_sse_control@@AAW40@W40@@Z 1007d770 f i libucrtd:_fenvutils.obj
 0001:0007c790       ??_5@YAAAW4__acrt_fenv_machine_sse_status@@AAW40@W40@@Z 1007d790 f i libucrtd:_fenvutils.obj
 0001:0007c7b0       ??_5@YAAAW4__acrt_fenv_machine_x87_control@@AAW40@W40@@Z 1007d7b0 f i libucrtd:_fenvutils.obj
 0001:0007c7d0       ??_5@YAAAW4__acrt_fenv_machine_x87_status@@AAW40@W40@@Z 1007d7d0 f i libucrtd:_fenvutils.obj
 0001:0007c7f0       ?__acrt_fenv_shift_abstract_sse_control@@YA?AW4__acrt_fenv_abstract_control@@W41@@Z 1007d7f0 f i libucrtd:_fenvutils.obj
 0001:0007c830       ?__acrt_fenv_shift_abstract_sse_status@@YA?AW4__acrt_fenv_abstract_status@@W41@@Z 1007d830 f i libucrtd:_fenvutils.obj
 0001:0007c850       ?__acrt_fenv_shift_abstract_x87_control@@YA?AW4__acrt_fenv_abstract_control@@W41@@Z 1007d850 f i libucrtd:_fenvutils.obj
 0001:0007c890       ?__acrt_fenv_shift_abstract_x87_status@@YA?AW4__acrt_fenv_abstract_status@@W41@@Z 1007d890 f i libucrtd:_fenvutils.obj
 0001:0007c8b0       ?__acrt_fenv_unshift_abstract_sse_control@@YA?AW4__acrt_fenv_abstract_control@@W41@@Z 1007d8b0 f i libucrtd:_fenvutils.obj
 0001:0007c8f0       ?__acrt_fenv_unshift_abstract_sse_status@@YA?AW4__acrt_fenv_abstract_status@@W41@@Z 1007d8f0 f i libucrtd:_fenvutils.obj
 0001:0007c910       ?__acrt_fenv_unshift_abstract_x87_control@@YA?AW4__acrt_fenv_abstract_control@@W41@@Z 1007d910 f i libucrtd:_fenvutils.obj
 0001:0007c950       ?__acrt_fenv_unshift_abstract_x87_status@@YA?AW4__acrt_fenv_abstract_status@@W41@@Z 1007d950 f i libucrtd:_fenvutils.obj
 0001:0007ce80       ___acrt_fenv_expand_round_control 1007de80 f   libucrtd:_fenvutils.obj
 0001:0007cec0       ___acrt_fenv_get_common_round_control 1007dec0 f   libucrtd:_fenvutils.obj
 0001:0007cf20       ___acrt_fenv_get_control   1007df20 f   libucrtd:_fenvutils.obj
 0001:0007cfa0       ___acrt_fenv_get_fp_status_word_from_exception_mask 1007dfa0 f   libucrtd:_fenvutils.obj
 0001:0007cfe0       ___acrt_fenv_get_status    1007dfe0 f   libucrtd:_fenvutils.obj
 0001:0007d050       ___acrt_fenv_set_control   1007e050 f   libucrtd:_fenvutils.obj
 0001:0007d090       ___acrt_fenv_set_status    1007e090 f   libucrtd:_fenvutils.obj
 0001:0007d2e0       ___control87_2             1007e2e0 f   libucrtd:ieee87.obj
 0001:0007d410       ___fpreset_sse2            1007e410 f   libucrtd:ieee87.obj
 0001:0007d780       __clearfp                  1007e780 f   libucrtd:ieee87.obj
 0001:0007d7d0       __control87                1007e7d0 f   libucrtd:ieee87.obj
 0001:0007d880       __controlfp                1007e880 f   libucrtd:ieee87.obj
 0001:0007d8a0       __fpreset                  1007e8a0 f   libucrtd:ieee87.obj
 0001:0007da60       __set_controlfp            1007ea60 f   libucrtd:ieee87.obj
 0001:0007daf0       __statusfp                 1007eaf0 f   libucrtd:ieee87.obj
 0001:0007db40       __statusfp2                1007eb40 f   libucrtd:ieee87.obj
 0001:0007dc57       __putwch                   1007ec57 f   libucrtd:putwch.obj
 0001:0007dc84       __putwch_nolock            1007ec84 f   libucrtd:putwch.obj
 0001:0007e6c0       __read                     1007f6c0 f   libucrtd:read.obj
 0001:0007e9a0       __read_nolock              1007f9a0 f   libucrtd:read.obj
 0001:0007f5f0       __close                    100805f0 f   libucrtd:close.obj
 0001:0007f770       __close_nolock             10080770 f   libucrtd:close.obj
 0001:0007f7d0       ??$?RU__crt_stdio_stream_data@@@__crt_internal_free_policy@@QBEXQBU__crt_stdio_stream_data@@@Z 100807d0 f i libucrtd:stream.obj
 0001:0007f7f0       ??0?$__crt_unique_heap_ptr@U__crt_stdio_stream_data@@U__crt_internal_free_policy@@@@QAE@QAU__crt_stdio_stream_data@@@Z 100807f0 f i libucrtd:stream.obj
 0001:0007f810       ??0__crt_stdio_stream@@QAE@XZ 10080810 f i libucrtd:stream.obj
 0001:0007f830       ??1?$__crt_unique_heap_ptr@U__crt_stdio_stream_data@@U__crt_internal_free_policy@@@@QAE@XZ 10080830 f i libucrtd:stream.obj
 0001:0007f850       ?__acrt_stdio_allocate_stream@@YA?AV__crt_stdio_stream@@XZ 10080850 f   libucrtd:stream.obj
 0001:0007f940       ?__acrt_stdio_free_stream@@YAXV__crt_stdio_stream@@@Z 10080940 f   libucrtd:stream.obj
 0001:0007f9c0       ?deallocate@__crt_stdio_stream@@QAEXXZ 100809c0 f i libucrtd:stream.obj
 0001:0007f9e0       ?detach@?$__crt_unique_heap_ptr@U__crt_stdio_stream_data@@U__crt_internal_free_policy@@@@QAEPAU__crt_stdio_stream_data@@XZ 100809e0 f i libucrtd:stream.obj
 0001:0007fb50       ?lock@__crt_stdio_stream@@QBEXXZ 10080b50 f i libucrtd:stream.obj
 0001:0007fb70       ?release@?$__crt_unique_heap_ptr@U__crt_stdio_stream_data@@U__crt_internal_free_policy@@@@QAEXXZ 10080b70 f i libucrtd:stream.obj
 0001:0007fba0       ?try_allocate@__crt_stdio_stream@@QAE_NXZ 10080ba0 f i libucrtd:stream.obj
 0001:0007fbf0       ?unlock@__crt_stdio_stream@@QBEXXZ 10080bf0 f i libucrtd:stream.obj
 0001:0007fc10       __towlower_l               10080c10 f   libucrtd:towlower.obj
 0001:0007fd10       _towlower                  10080d10 f   libucrtd:towlower.obj
 0001:0007fd30       ___ascii_strnicmp          10080d30 f   libucrtd:_strnicm.obj
 0001:0007fdc0       __fFEXP                    10080dc0 f   libucrtd:87tran.obj
 0001:0007fe17       __rtinfpopse               10080e17     libucrtd:87tran.obj
 0001:0007fe19       __rtinfnpopse              10080e19     libucrtd:87tran.obj
 0001:0007fe29       __fFLN                     10080e29     libucrtd:87tran.obj
 0001:0007fede       __rtinfpop                 10080ede     libucrtd:87tran.obj
 0001:0007fee0       __rtinfnpop                10080ee0     libucrtd:87tran.obj
 0001:0007fef0       __rtforexpinf              10080ef0 f   libucrtd:87tran.obj
 0001:0007fefd       __ffexpm1                  10080efd     libucrtd:87tran.obj
 0001:0007ffb0       __trandisp1                10080fb0 f   libucrtd:87disp.obj
 0001:00080025       __trandisp2                10081025 f   libucrtd:87disp.obj
 0001:000800bf       __rttospopde               100810bf     libucrtd:87disp.obj
 0001:000800c4       __rttospop                 100810c4     libucrtd:87disp.obj
 0001:000800d0       __rtnospop                 100810d0 f   libucrtd:87disp.obj
 0001:000800e0       __rttosnpop                100810e0 f   libucrtd:87disp.obj
 0001:000800e1       __rtnospopde               100810e1     libucrtd:87disp.obj
 0001:000800e8       __rtzeropop                100810e8     libucrtd:87disp.obj
 0001:000800ea       __rtzeronpop               100810ea     libucrtd:87disp.obj
 0001:000800f0       __rtzerospop               100810f0 f   libucrtd:87disp.obj
 0001:000800fd       __rtonepop                 100810fd     libucrtd:87disp.obj
 0001:00080100       __rtonenpop                10081100 f   libucrtd:87disp.obj
 0001:00080110       __tosnan1                  10081110 f   libucrtd:87disp.obj
 0001:00080140       __nosnan2                  10081140 f   libucrtd:87disp.obj
 0001:00080150       __tosnan2                  10081150 f   libucrtd:87disp.obj
 0001:00080180       __nan2                     10081180 f   libucrtd:87disp.obj
 0001:000801c0       __rtindfpop                100811c0 f   libucrtd:87disp.obj
 0001:000801c2       __rtindfnpop               100811c2     libucrtd:87disp.obj
 0001:000801d3       __rttosnpopde              100811d3     libucrtd:87disp.obj
 0001:000801e0       __rtatan2inf               100811e0 f   libucrtd:87disp.obj
 0001:000801fd       __rtchsifneg               100811fd     libucrtd:87disp.obj
 0001:00080210       ___setfflag                10081210 f   libucrtd:fp_flags.obj
 0001:00080230       __twoToTOS                 10081230 f   libucrtd:common.obj
 0001:00080245       __load_CW                  10081245 f   libucrtd:common.obj
 0001:0008025c       __convertTOStoQNaN         1008125c f   libucrtd:common.obj
 0001:00080275       __fload_withFB             10081275 f   libucrtd:common.obj
 0001:000802b8       __checkTOS_withFB          100812b8 f   libucrtd:common.obj
 0001:000802ce       __fast_exit                100812ce f   libucrtd:common.obj
 0001:000802db       __math_exit                100812db f   libucrtd:common.obj
 0001:00080305       __check_overflow_exit      10081305 f   libucrtd:common.obj
 0001:00080319       __check_range_exit         10081319 f   libucrtd:common.obj
 0001:000803c0       __startTwoArgErrorHandling 100813c0 f   libucrtd:genexcep.obj
 0001:000803d7       __startOneArgErrorHandling 100813d7 f   libucrtd:genexcep.obj
 0001:00080420       __frnd                     10081420 f   libucrtd:frnd.obj
 0001:00080440       __errcode                  10081440 f   libucrtd:fpexcept.obj
 0001:000804b0       __except1                  100814b0 f   libucrtd:fpexcept.obj
 0001:000805b0       __except2                  100815b0 f   libucrtd:fpexcept.obj
 0001:00080710       __handle_exc               10081710 f   libucrtd:fpexcept.obj
 0001:00080a30       __handle_qnan2             10081a30 f   libucrtd:fpexcept.obj
 0001:00080a50       __raise_exc                10081a50 f   libucrtd:fpexcept.obj
 0001:00080a80       __raise_exc_ex             10081a80 f   libucrtd:fpexcept.obj
 0001:00081000       __raise_excf               10082000 f   libucrtd:fpexcept.obj
 0001:00081030       __set_errno_from_matherr   10082030 f   libucrtd:fpexcept.obj
 0001:00081070       __umatherr                 10082070 f   libucrtd:fpexcept.obj
 0001:00081110       __add_exp                  10082110 f   libucrtd:util.obj
 0001:00081150       __decomp                   10082150 f   libucrtd:util.obj
 0001:00081280       __get_exp                  10082280 f   libucrtd:util.obj
 0001:000812b0       __set_bexp                 100822b0 f   libucrtd:util.obj
 0001:000812e0       __set_exp                  100822e0 f   libucrtd:util.obj
 0001:00081320       __sptype                   10082320 f   libucrtd:util.obj
 0001:000813a0       ___clrfp_sse2              100823a0 f   libucrtd:fpctrl.obj
 0001:000813e0       ___ctrlfp_sse2             100823e0 f   libucrtd:fpctrl.obj
 0001:00081440       ___fclrf_sse2              10082440 f   libucrtd:fpctrl.obj
 0001:00081460       ___get_fpsr_sse2           10082460 f   libucrtd:fpctrl.obj
 0001:00081490       ___set_fpsr_sse2           10082490 f   libucrtd:fpctrl.obj
 0001:00081570       ___set_statfp_sse2         10082570 f   libucrtd:fpctrl.obj
 0001:000815a0       ___statfp_sse2             100825a0 f   libucrtd:fpctrl.obj
 0001:000815d0       __clrfp                    100825d0 f   libucrtd:fpctrl.obj
 0001:000815f0       __ctrlfp                   100825f0 f   libucrtd:fpctrl.obj
 0001:00081620       __set_statfp               10082620 f   libucrtd:fpctrl.obj
 0001:00081690       __statfp                   10082690 f   libucrtd:fpctrl.obj
 0001:000816b0       __controlfp_s              100826b0 f   libucrtd:contrlfp.obj
 0001:00081845       ___dcrt_lowio_ensure_console_output_initialized 10082845 f   libucrtd:initcon.obj
 0001:00081864       ___dcrt_terminate_console_output 10082864 f   libucrtd:initcon.obj
 0001:0008187b       ___dcrt_write_console      1008287b f   libucrtd:initcon.obj
 0001:000818d0       ___acrt_LCMapStringW       100828d0 f   libucrtd:lcmapstringw.obj
 0001:00081930       __d_inttype                10082930 f   libucrtd:powhlp.obj
 0001:000819c0       __powhlp                   100829c0 f   libucrtd:powhlp.obj
 0001:00081b60       __87except                 10082b60 f   libucrtd:87except.obj
 0001:00081d50       __chgsign                  10082d50 f   libucrtd:ieeemisc.obj
 0001:00081d90       __chgsignf                 10082d90 f   libucrtd:ieeemisc.obj
 0001:00081dd0       __copysign                 10082dd0 f   libucrtd:ieeemisc.obj
 0001:00081e10       __copysignf                10082e10 f   libucrtd:ieeemisc.obj
 0001:00081e60       __finite                   10082e60 f   libucrtd:ieeemisc.obj
 0001:00081e80       __fpclass                  10082e80 f   libucrtd:ieeemisc.obj
 0001:00081f80       __isnan                    10082f80 f   libucrtd:ieeemisc.obj
 0001:00081fd0       __logb                     10082fd0 f   libucrtd:ieeemisc.obj
 0001:000820f0       __nextafter                100830f0 f   libucrtd:ieeemisc.obj
 0001:00082120       __scalb                    10083120 f   libucrtd:ieeemisc.obj
 0001:00082140       _ldexp                     10083140 f   libucrtd:ldexp.obj
 0001:00082440       _nextafter                 10083440 f   libucrtd:nextafter.obj
 0001:00082470       _nexttoward                10083470 f   libucrtd:nexttoward.obj
 0001:000828a0       __d_int                    100838a0 f   libucrtd:_test.obj
 0001:00082b50       __dtest                    10083b50 f   libucrtd:_test.obj
 0001:00082c70       __fd_int                   10083c70 f   libucrtd:_test.obj
 0001:00082e50       __fdtest                   10083e50 f   libucrtd:_test.obj
 0001:00082f20       __fperrraise               10083f20 f   libucrtd:_test.obj
 0001:00082f50       __ld_int                   10083f50 f   libucrtd:_test.obj
 0001:00082f70       __ldtest                   10083f70 f   libucrtd:_test.obj
 0001:00082f90       ??_4@YAAAW4__acrt_fenv_abstract_status@@AAW40@W40@@Z 10083f90 f i libucrtd:fegetexceptflag.obj
 0001:00082fb0       _fegetexceptflag           10083fb0 f   libucrtd:fegetexceptflag.obj
 0001:00083000       ??S@YA?AW4__acrt_fenv_abstract_status@@W40@@Z 10084000 f i libucrtd:fesetexceptflag.obj
 0001:00083010       _fesetexceptflag           10084010 f   libucrtd:fesetexceptflag.obj
 0001:000830d0       _fetestexcept              100840d0 f   libucrtd:fetestexcept.obj
 0001:000830f7       _IsDebuggerPresent@0       100840f7 f   kernel32:KERNEL32.dll
 0001:000830fd       _OutputDebugStringW@4      100840fd f   kernel32:KERNEL32.dll
 0001:00083103       _UnhandledExceptionFilter@4 10084103 f   kernel32:KERNEL32.dll
 0001:00083109       _SetUnhandledExceptionFilter@4 10084109 f   kernel32:KERNEL32.dll
 0001:0008310f       _GetCurrentProcess@0       1008410f f   kernel32:KERNEL32.dll
 0001:00083115       _TerminateProcess@8        10084115 f   kernel32:KERNEL32.dll
 0001:0008311b       _IsProcessorFeaturePresent@4 1008411b f   kernel32:KERNEL32.dll
 0001:00083121       _GetStartupInfoW@4         10084121 f   kernel32:KERNEL32.dll
 0001:00083127       _WideCharToMultiByte@32    10084127 f   kernel32:KERNEL32.dll
 0001:0008312d       _QueryPerformanceCounter@4 1008412d f   kernel32:KERNEL32.dll
 0001:00083133       _GetCurrentProcessId@0     10084133 f   kernel32:KERNEL32.dll
 0001:00083139       _GetCurrentThreadId@0      10084139 f   kernel32:KERNEL32.dll
 0001:0008313f       _GetSystemTimeAsFileTime@4 1008413f f   kernel32:KERNEL32.dll
 0001:00083145       _InitializeSListHead@4     10084145 f   kernel32:KERNEL32.dll
 0001:0008314b       _HeapAlloc@12              1008414b f   kernel32:KERNEL32.dll
 0001:00083151       _HeapFree@12               10084151 f   kernel32:KERNEL32.dll
 0001:00083157       _GetProcessHeap@0          10084157 f   kernel32:KERNEL32.dll
 0001:0008315d       _VirtualQuery@12           1008415d f   kernel32:KERNEL32.dll
 0001:00083163       _RtlUnwind@16              10084163 f   kernel32:KERNEL32.dll
 0001:00083169       _InterlockedPushEntrySList@8 10084169 f   kernel32:KERNEL32.dll
 0001:0008316f       _InterlockedFlushSList@4   1008416f f   kernel32:KERNEL32.dll
 0001:00083175       _InitializeCriticalSectionAndSpinCount@8 10084175 f   kernel32:KERNEL32.dll
 0001:0008317b       _TlsAlloc@0                1008417b f   kernel32:KERNEL32.dll
 0001:00083181       _TlsGetValue@4             10084181 f   kernel32:KERNEL32.dll
 0001:00083187       _TlsSetValue@8             10084187 f   kernel32:KERNEL32.dll
 0001:0008318d       _TlsFree@4                 1008418d f   kernel32:KERNEL32.dll
 0001:00083193       _GetModuleHandleExW@12     10084193 f   kernel32:KERNEL32.dll
 0001:00083199       _ExitProcess@4             10084199 f   kernel32:KERNEL32.dll
 0001:0008319f       _HeapValidate@12           1008419f f   kernel32:KERNEL32.dll
 0001:000831a5       _GetSystemInfo@4           100841a5 f   kernel32:KERNEL32.dll
 0001:000831ab       _GetStdHandle@4            100841ab f   kernel32:KERNEL32.dll
 0001:000831b1       _GetFileType@4             100841b1 f   kernel32:KERNEL32.dll
 0001:000831b7       _WriteFile@20              100841b7 f   kernel32:KERNEL32.dll
 0001:000831bd       _WriteConsoleW@20          100841bd f   kernel32:KERNEL32.dll
 0001:000831c3       _SetConsoleCtrlHandler@8   100841c3 f   kernel32:KERNEL32.dll
 0001:000831c9       _GetCurrentThread@0        100841c9 f   kernel32:KERNEL32.dll
 0001:000831cf       _HeapSize@12               100841cf f   kernel32:KERNEL32.dll
 0001:000831d5       _HeapReAlloc@16            100841d5 f   kernel32:KERNEL32.dll
 0001:000831db       _FindClose@4               100841db f   kernel32:KERNEL32.dll
 0001:000831e1       _FindFirstFileExW@24       100841e1 f   kernel32:KERNEL32.dll
 0001:000831e7       _FindNextFileW@8           100841e7 f   kernel32:KERNEL32.dll
 0001:000831ed       _IsValidCodePage@4         100841ed f   kernel32:KERNEL32.dll
 0001:000831f3       _GetACP@0                  100841f3 f   kernel32:KERNEL32.dll
 0001:000831f9       _GetOEMCP@0                100841f9 f   kernel32:KERNEL32.dll
 0001:000831ff       _GetCPInfo@8               100841ff f   kernel32:KERNEL32.dll
 0001:00083205       _GetCommandLineA@0         10084205 f   kernel32:KERNEL32.dll
 0001:0008320b       _GetCommandLineW@0         1008420b f   kernel32:KERNEL32.dll
 0001:00083211       _GetEnvironmentStringsW@0  10084211 f   kernel32:KERNEL32.dll
 0001:00083217       _FreeEnvironmentStringsW@4 10084217 f   kernel32:KERNEL32.dll
 0001:0008321d       _SetEnvironmentVariableW@8 1008421d f   kernel32:KERNEL32.dll
 0001:00083223       _GetDateFormatW@24         10084223 f   kernel32:KERNEL32.dll
 0001:00083229       _GetTimeFormatW@24         10084229 f   kernel32:KERNEL32.dll
 0001:0008322f       _CompareStringW@24         1008422f f   kernel32:KERNEL32.dll
 0001:00083235       _LCMapStringW@24           10084235 f   kernel32:KERNEL32.dll
 0001:0008323b       _GetLocaleInfoW@16         1008423b f   kernel32:KERNEL32.dll
 0001:00083241       _IsValidLocale@8           10084241 f   kernel32:KERNEL32.dll
 0001:00083247       _GetUserDefaultLCID@0      10084247 f   kernel32:KERNEL32.dll
 0001:0008324d       _EnumSystemLocalesW@8      1008424d f   kernel32:KERNEL32.dll
 0001:00083253       _HeapQueryInformation@20   10084253 f   kernel32:KERNEL32.dll
 0001:00083259       _GetFileSizeEx@8           10084259 f   kernel32:KERNEL32.dll
 0001:0008325f       _SetFilePointerEx@20       1008425f f   kernel32:KERNEL32.dll
 0001:00083265       _GetStringTypeW@16         10084265 f   kernel32:KERNEL32.dll
 0001:0008326b       _SetStdHandle@8            1008426b f   kernel32:KERNEL32.dll
 0001:00083271       _GetConsoleCP@0            10084271 f   kernel32:KERNEL32.dll
 0001:00083277       _GetConsoleMode@8          10084277 f   kernel32:KERNEL32.dll
 0001:0008327d       _FlushFileBuffers@4        1008427d f   kernel32:KERNEL32.dll
 0001:00083283       _ReadFile@20               10084283 f   kernel32:KERNEL32.dll
 0001:00083289       _ReadConsoleW@20           10084289 f   kernel32:KERNEL32.dll
 0001:0008328f       _CloseHandle@4             1008428f f   kernel32:KERNEL32.dll
 0001:00083295       _CreateFileW@28            10084295 f   kernel32:KERNEL32.dll
 0001:000832a0       __FindPESection            100842a0 f   LIBCMTD:pesect.obj
 0001:00083320       __IsNonwritableInCurrentImage 10084320 f   LIBCMTD:pesect.obj
 0001:00083450       __ValidateImageBase        10084450 f   LIBCMTD:pesect.obj
 0001:000834b0       __allshl                   100844b0 f   LIBCMTD:llshl.obj
 0001:000834d0       __aulldiv                  100844d0 f   LIBCMTD:ulldiv.obj
 0001:00083540       __aullrem                  10084540 f   LIBCMTD:ullrem.obj
 0001:000835c0       __allmul                   100845c0 f   LIBCMTD:llmul.obj
 0001:00083600       __alldiv                   10084600 f   LIBCMTD:lldiv.obj
 0001:000836b0       __allrem                   100846b0 f   LIBCMTD:llrem.obj
 0001:00083770       __aullshr                  10084770 f   LIBCMTD:ullshr.obj
 0001:00083790       __alloca_probe_16          10084790 f   LIBCMTD:alloca16.obj
 0001:000837a6       __alloca_probe_8           100847a6     LIBCMTD:alloca16.obj
 0001:000837c0       __ftol2_sse                100847c0 f   LIBCMTD:ftol2.obj
 0001:000837c9       __ftol2_pentium4           100847c9 f   LIBCMTD:ftol2.obj
 0001:000837dc       __ftol2_sse_excpt          100847dc f   LIBCMTD:ftol2.obj
 0001:00083800       __ftol2                    10084800 f   LIBCMTD:ftol2.obj
 0001:00083880       __initialize_default_precision 10084880 f   LIBCMTD:default_precision.obj
 0001:000838b0       __SEH_prolog4              100848b0 f   LIBCMTD:sehprolg4.obj
 0001:000838f6       __SEH_epilog4              100848f6 f   LIBCMTD:sehprolg4.obj
 0001:00083910       _strrchr                   10084910 f   libvcruntimed:strrchr.obj
 0001:00083a50       _strchr                    10084a50 f   libvcruntimed:strchr.obj
 0001:00083abe       ___from_strstr_to_strchr   10084abe     libvcruntimed:strchr.obj
 0001:00083b80       _wcschr                    10084b80 f   libvcruntimed:wcschr.obj
 0001:00083cf0       __filter_x86_sse2_floating_point_exception 10084cf0 f   LIBCMTD:x86_exception_filter.obj
 0001:00083cf0       __filter_x86_sse2_floating_point_exception_default 10084cf0 f   LIBCMTD:x86_exception_filter.obj
 0002:00000000       __imp__RegQueryInfoKeyW@48 10086000     advapi32:ADVAPI32.dll
 0002:00000004       __imp__RegOpenKeyExW@20    10086004     advapi32:ADVAPI32.dll
 0002:00000008       __imp__RegEnumKeyExW@32    10086008     advapi32:ADVAPI32.dll
 0002:0000000c       __imp__RegDeleteValueW@8   1008600c     advapi32:ADVAPI32.dll
 0002:00000010       __imp__RegDeleteKeyW@8     10086010     advapi32:ADVAPI32.dll
 0002:00000014       __imp__RegCreateKeyExW@36  10086014     advapi32:ADVAPI32.dll
 0002:00000018       __imp__RegCloseKey@4       10086018     advapi32:ADVAPI32.dll
 0002:0000001c       __imp__RegSetValueExW@24   1008601c     advapi32:ADVAPI32.dll
 0002:00000020       \177ADVAPI32_NULL_THUNK_DATA 10086020     advapi32:ADVAPI32.dll
 0002:00000024       __imp__DisableThreadLibraryCalls@4 10086024     kernel32:KERNEL32.dll
 0002:00000028       __imp__FreeLibrary@4       10086028     kernel32:KERNEL32.dll
 0002:0000002c       __imp__GetModuleFileNameW@12 1008602c     kernel32:KERNEL32.dll
 0002:00000030       __imp__GetModuleHandleW@4  10086030     kernel32:KERNEL32.dll
 0002:00000034       __imp__GetProcAddress@8    10086034     kernel32:KERNEL32.dll
 0002:00000038       __imp__LoadLibraryExW@12   10086038     kernel32:KERNEL32.dll
 0002:0000003c       __imp__LoadResource@8      1008603c     kernel32:KERNEL32.dll
 0002:00000040       __imp__LeaveCriticalSection@4 10086040     kernel32:KERNEL32.dll
 0002:00000044       __imp__FindResourceW@12    10086044     kernel32:KERNEL32.dll
 0002:00000048       __imp__lstrcmpiW@8         10086048     kernel32:KERNEL32.dll
 0002:0000004c       __imp__MultiByteToWideChar@24 1008604c     kernel32:KERNEL32.dll
 0002:00000050       __imp__CloseHandle@4       10086050     kernel32:KERNEL32.dll
 0002:00000054       __imp__ReadConsoleW@20     10086054     kernel32:KERNEL32.dll
 0002:00000058       __imp__ReadFile@20         10086058     kernel32:KERNEL32.dll
 0002:0000005c       __imp__FlushFileBuffers@4  1008605c     kernel32:KERNEL32.dll
 0002:00000060       __imp__EnterCriticalSection@4 10086060     kernel32:KERNEL32.dll
 0002:00000064       __imp__EncodePointer@4     10086064     kernel32:KERNEL32.dll
 0002:00000068       __imp__DeleteCriticalSection@4 10086068     kernel32:KERNEL32.dll
 0002:0000006c       __imp__InitializeCriticalSectionEx@12 1008606c     kernel32:KERNEL32.dll
 0002:00000070       __imp__SetLastError@4      10086070     kernel32:KERNEL32.dll
 0002:00000074       __imp__GetLastError@0      10086074     kernel32:KERNEL32.dll
 0002:00000078       __imp__RaiseException@16   10086078     kernel32:KERNEL32.dll
 0002:0000007c       __imp__SizeofResource@8    1008607c     kernel32:KERNEL32.dll
 0002:00000080       __imp__DecodePointer@4     10086080     kernel32:KERNEL32.dll
 0002:00000084       __imp__GetConsoleMode@8    10086084     kernel32:KERNEL32.dll
 0002:00000088       __imp__GetConsoleCP@0      10086088     kernel32:KERNEL32.dll
 0002:0000008c       __imp__SetStdHandle@8      1008608c     kernel32:KERNEL32.dll
 0002:00000090       __imp__GetStringTypeW@16   10086090     kernel32:KERNEL32.dll
 0002:00000094       __imp__SetFilePointerEx@20 10086094     kernel32:KERNEL32.dll
 0002:00000098       __imp__GetFileSizeEx@8     10086098     kernel32:KERNEL32.dll
 0002:0000009c       __imp__HeapQueryInformation@20 1008609c     kernel32:KERNEL32.dll
 0002:000000a0       __imp__EnumSystemLocalesW@8 100860a0     kernel32:KERNEL32.dll
 0002:000000a4       __imp__GetUserDefaultLCID@0 100860a4     kernel32:KERNEL32.dll
 0002:000000a8       __imp__IsValidLocale@8     100860a8     kernel32:KERNEL32.dll
 0002:000000ac       __imp__GetLocaleInfoW@16   100860ac     kernel32:KERNEL32.dll
 0002:000000b0       __imp__LCMapStringW@24     100860b0     kernel32:KERNEL32.dll
 0002:000000b4       __imp__CompareStringW@24   100860b4     kernel32:KERNEL32.dll
 0002:000000b8       __imp__GetTimeFormatW@24   100860b8     kernel32:KERNEL32.dll
 0002:000000bc       __imp__IsDebuggerPresent@0 100860bc     kernel32:KERNEL32.dll
 0002:000000c0       __imp__OutputDebugStringW@4 100860c0     kernel32:KERNEL32.dll
 0002:000000c4       __imp__UnhandledExceptionFilter@4 100860c4     kernel32:KERNEL32.dll
 0002:000000c8       __imp__SetUnhandledExceptionFilter@4 100860c8     kernel32:KERNEL32.dll
 0002:000000cc       __imp__GetCurrentProcess@0 100860cc     kernel32:KERNEL32.dll
 0002:000000d0       __imp__TerminateProcess@8  100860d0     kernel32:KERNEL32.dll
 0002:000000d4       __imp__IsProcessorFeaturePresent@4 100860d4     kernel32:KERNEL32.dll
 0002:000000d8       __imp__GetStartupInfoW@4   100860d8     kernel32:KERNEL32.dll
 0002:000000dc       __imp__WideCharToMultiByte@32 100860dc     kernel32:KERNEL32.dll
 0002:000000e0       __imp__QueryPerformanceCounter@4 100860e0     kernel32:KERNEL32.dll
 0002:000000e4       __imp__GetCurrentProcessId@0 100860e4     kernel32:KERNEL32.dll
 0002:000000e8       __imp__GetCurrentThreadId@0 100860e8     kernel32:KERNEL32.dll
 0002:000000ec       __imp__GetSystemTimeAsFileTime@4 100860ec     kernel32:KERNEL32.dll
 0002:000000f0       __imp__InitializeSListHead@4 100860f0     kernel32:KERNEL32.dll
 0002:000000f4       __imp__HeapAlloc@12        100860f4     kernel32:KERNEL32.dll
 0002:000000f8       __imp__HeapFree@12         100860f8     kernel32:KERNEL32.dll
 0002:000000fc       __imp__GetProcessHeap@0    100860fc     kernel32:KERNEL32.dll
 0002:00000100       __imp__VirtualQuery@12     10086100     kernel32:KERNEL32.dll
 0002:00000104       __imp__RtlUnwind@16        10086104     kernel32:KERNEL32.dll
 0002:00000108       __imp__InterlockedPushEntrySList@8 10086108     kernel32:KERNEL32.dll
 0002:0000010c       __imp__InterlockedFlushSList@4 1008610c     kernel32:KERNEL32.dll
 0002:00000110       __imp__InitializeCriticalSectionAndSpinCount@8 10086110     kernel32:KERNEL32.dll
 0002:00000114       __imp__TlsAlloc@0          10086114     kernel32:KERNEL32.dll
 0002:00000118       __imp__TlsGetValue@4       10086118     kernel32:KERNEL32.dll
 0002:0000011c       __imp__TlsSetValue@8       1008611c     kernel32:KERNEL32.dll
 0002:00000120       __imp__TlsFree@4           10086120     kernel32:KERNEL32.dll
 0002:00000124       __imp__GetModuleHandleExW@12 10086124     kernel32:KERNEL32.dll
 0002:00000128       __imp__ExitProcess@4       10086128     kernel32:KERNEL32.dll
 0002:0000012c       __imp__HeapValidate@12     1008612c     kernel32:KERNEL32.dll
 0002:00000130       __imp__GetSystemInfo@4     10086130     kernel32:KERNEL32.dll
 0002:00000134       __imp__GetStdHandle@4      10086134     kernel32:KERNEL32.dll
 0002:00000138       __imp__GetFileType@4       10086138     kernel32:KERNEL32.dll
 0002:0000013c       __imp__WriteFile@20        1008613c     kernel32:KERNEL32.dll
 0002:00000140       __imp__WriteConsoleW@20    10086140     kernel32:KERNEL32.dll
 0002:00000144       __imp__SetConsoleCtrlHandler@8 10086144     kernel32:KERNEL32.dll
 0002:00000148       __imp__GetCurrentThread@0  10086148     kernel32:KERNEL32.dll
 0002:0000014c       __imp__HeapSize@12         1008614c     kernel32:KERNEL32.dll
 0002:00000150       __imp__HeapReAlloc@16      10086150     kernel32:KERNEL32.dll
 0002:00000154       __imp__FindClose@4         10086154     kernel32:KERNEL32.dll
 0002:00000158       __imp__FindFirstFileExW@24 10086158     kernel32:KERNEL32.dll
 0002:0000015c       __imp__FindNextFileW@8     1008615c     kernel32:KERNEL32.dll
 0002:00000160       __imp__IsValidCodePage@4   10086160     kernel32:KERNEL32.dll
 0002:00000164       __imp__GetACP@0            10086164     kernel32:KERNEL32.dll
 0002:00000168       __imp__GetOEMCP@0          10086168     kernel32:KERNEL32.dll
 0002:0000016c       __imp__GetCPInfo@8         1008616c     kernel32:KERNEL32.dll
 0002:00000170       __imp__GetCommandLineA@0   10086170     kernel32:KERNEL32.dll
 0002:00000174       __imp__GetCommandLineW@0   10086174     kernel32:KERNEL32.dll
 0002:00000178       __imp__GetEnvironmentStringsW@0 10086178     kernel32:KERNEL32.dll
 0002:0000017c       __imp__FreeEnvironmentStringsW@4 1008617c     kernel32:KERNEL32.dll
 0002:00000180       __imp__SetEnvironmentVariableW@8 10086180     kernel32:KERNEL32.dll
 0002:00000184       __imp__GetDateFormatW@24   10086184     kernel32:KERNEL32.dll
 0002:00000188       __imp__CreateFileW@28      10086188     kernel32:KERNEL32.dll
 0002:0000018c       \177KERNEL32_NULL_THUNK_DATA 1008618c     kernel32:KERNEL32.dll
 0002:00000190       __imp__LoadTypeLib@8       10086190     oleaut32:OLEAUT32.dll
 0002:00000194       __imp__UnRegisterTypeLib@20 10086194     oleaut32:OLEAUT32.dll
 0002:00000198       __imp__SysStringLen@4      10086198     oleaut32:OLEAUT32.dll
 0002:0000019c       __imp__SysAllocString@4    1008619c     oleaut32:OLEAUT32.dll
 0002:000001a0       __imp__SysFreeString@4     100861a0     oleaut32:OLEAUT32.dll
 0002:000001a4       __imp__VarUI4FromStr@16    100861a4     oleaut32:OLEAUT32.dll
 0002:000001a8       __imp__RegisterTypeLib@12  100861a8     oleaut32:OLEAUT32.dll
 0002:000001ac       \177OLEAUT32_NULL_THUNK_DATA 100861ac     oleaut32:OLEAUT32.dll
 0002:000001b0       __imp__UnregisterClassW@8  100861b0     user32:USER32.dll
 0002:000001b4       __imp__CharNextW@4         100861b4     user32:USER32.dll
 0002:000001b8       \177USER32_NULL_THUNK_DATA 100861b8     user32:USER32.dll
 0002:000001bc       __imp__CoTaskMemRealloc@8  100861bc     ole32:ole32.dll
 0002:000001c0       __imp__CoCreateInstance@20 100861c0     ole32:ole32.dll
 0002:000001c4       __imp__StringFromGUID2@12  100861c4     ole32:ole32.dll
 0002:000001c8       __imp__CoTaskMemAlloc@4    100861c8     ole32:ole32.dll
 0002:000001cc       __imp__CoTaskMemFree@4     100861cc     ole32:ole32.dll
 0002:000001d0       \177ole32_NULL_THUNK_DATA  100861d0     ole32:ole32.dll
 0002:000001d4       ___guard_check_icall_fptr  100861d4     LIBCMTD:guard_support.obj
 0002:000001d8       ___xc_a                    100861d8     LIBCMTD:initializers.obj
 0002:00000248       ___xc_z                    10086248     LIBCMTD:initializers.obj
 0002:0000024c       ___xi_a                    1008624c     LIBCMTD:initializers.obj
 0002:00000250       ___acrt_stdio_initializer  10086250     libucrtd:stdio_initializer.obj
 0002:00000254       ___acrt_multibyte_initializer 10086254     libucrtd:multibyte_initializer.obj
 0002:00000258       ___acrt_tran_sse2_initializer 10086258     libucrtd:sse2_initializer.obj
 0002:0000025c       ___xi_z                    1008625c     LIBCMTD:initializers.obj
 0002:00000260       ___xp_a                    10086260     LIBCMTD:initializers.obj
 0002:00000264       ___acrt_locale_terminator  10086264     libucrtd:locale_initializer.obj
 0002:00000268       ___dcrt_console_output_terminator 10086268     libucrtd:console_output_initializer.obj
 0002:0000026c       ___acrt_stdio_terminator   1008626c     libucrtd:stdio_initializer.obj
 0002:00000270       ___xp_z                    10086270     LIBCMTD:initializers.obj
 0002:00000274       ___xt_a                    10086274     LIBCMTD:initializers.obj
 0002:00000278       ___xt_z                    10086278     LIBCMTD:initializers.obj
 0002:0000207c       _LIBID_ATLLib              1008807c     StdAfx.obj
 0002:0000208c       ?chDirSep@ATL@@3_WB        1008808c     StdAfx.obj
 0002:00002090       ?chRightBracket@ATL@@3_WB  10088090     StdAfx.obj
 0002:00002094       ?chLeftBracket@ATL@@3_WB   10088094     StdAfx.obj
 0002:00002098       ?chQuote@ATL@@3_WB         10088098     StdAfx.obj
 0002:0000209c       ?chEquals@ATL@@3_WB        1008809c     StdAfx.obj
 0002:000020a0       ?szStringVal@ATL@@3QB_WB   100880a0     StdAfx.obj
 0002:000020a4       ?multiszStringVal@ATL@@3QB_WB 100880a4     StdAfx.obj
 0002:000020a8       ?szDwordVal@ATL@@3QB_WB    100880a8     StdAfx.obj
 0002:000020ac       ?szBinaryVal@ATL@@3QB_WB   100880ac     StdAfx.obj
 0002:000020b0       ?szValToken@ATL@@3QB_WB    100880b0     StdAfx.obj
 0002:000020b4       ?szForceRemove@ATL@@3QB_WB 100880b4     StdAfx.obj
 0002:000020b8       ?szNoRemove@ATL@@3QB_WB    100880b8     StdAfx.obj
 0002:000020bc       ?szDelete@ATL@@3QB_WB      100880bc     StdAfx.obj
 0002:000020c0       _CLSID_Registrar           100880c0     StdAfx.obj
 0002:000020d0       _IID_IRegistrar            100880d0     StdAfx.obj
 0002:000020e0       _IID_IDocHostUIHandlerDispatch 100880e0     StdAfx.obj
 0002:000020f0       _IID_IAxWinHostWindow      100880f0     StdAfx.obj
 0002:00002100       _IID_IAxWinHostWindowLic   10088100     StdAfx.obj
 0002:00002110       _IID_IAxWinAmbientDispatch 10088110     StdAfx.obj
 0002:00002120       _IID_IAxWinAmbientDispatchEx 10088120     StdAfx.obj
 0002:00002130       _IID_IInternalConnection   10088130     StdAfx.obj
 0002:00002140       ??_C@_13COJANIEC@?$AA0@    10088140     StdAfx.obj
 0002:00002144       ??_C@_17CNPHIMPH@?$AA?$CF?$AAl?$AAs@ 10088144     StdAfx.obj
 0002:00002150       ??_C@_1OE@JOBBNNDF@?$AAC?$AA?3?$AA?2?$AAP?$AAr?$AAo?$AAg?$AAr?$AAa?$AAm?$AA?5?$AAF?$AAi?$AAl?$AAe@ 10088150     StdAfx.obj
 0002:00002234       ??_C@_1O@LFNDFEBP@?$AA?$CF?$AAl?$AAs?$AA?5?$AA?9?$AA?5@ 10088234     StdAfx.obj
 0002:00002244       ??_C@_1M@PGKOAACE@?$AA?$CF?$AAu?$AA?5?$AA?9?$AA?5@ 10088244     StdAfx.obj
 0002:00002250       ??_C@_1O@OAIPCDPO@?$AA?$CF?$AAl?$AAs?$AA?$CF?$AAl?$AAs@ 10088250     StdAfx.obj
 0002:00002260       ??_C@_17LGGGMOOB@?$AA?$CF?$AAh?$AAs@ 10088260     StdAfx.obj
 0002:00002268       ??_C@_1EO@EBPPKGOM@?$AAf?$AAa?$AAl?$AAs?$AAe?$AA?5?$AA?$CG?$AA?$CG?$AA?5?$AA?$CC?$AAT?$AAo?$AAo?$AA?5?$AAm@ 10088268     StdAfx.obj
 0002:000022b8       ??_C@_1OE@ONLKLPLG@?$AAC?$AA?3?$AA?2?$AAP?$AAr?$AAo?$AAg?$AAr?$AAa?$AAm?$AA?5?$AAF?$AAi?$AAl?$AAe@ 100882b8     StdAfx.obj
 0002:000023a0       ??_C@_1OC@CHADIGKG@?$AAC?$AA?3?$AA?2?$AAP?$AAr?$AAo?$AAg?$AAr?$AAa?$AAm?$AA?5?$AAF?$AAi?$AAl?$AAe@ 100883a0     StdAfx.obj
 0002:00002488       ??_C@_0HB@MCHNLOIM@C?3?2Program?5Files?5?$CIx86?$CJ?2Microsof@ 10088488     StdAfx.obj
 0002:00002500       ??_C@_1IA@KEEOONGN@?$AAE?$AAR?$AAR?$AAO?$AAR?$AA?5?$AA?3?$AA?5?$AAU?$AAn?$AAa?$AAb?$AAl?$AAe?$AA?5@ 10088500     StdAfx.obj
 0002:00002580       ??_C@_1IG@OPJAFKJH@?$AAE?$AAR?$AAR?$AAO?$AAR?$AA?5?$AA?3?$AA?5?$AAU?$AAn?$AAa?$AAb?$AAl?$AAe?$AA?5@ 10088580     StdAfx.obj
 0002:00002608       ??_C@_1EA@JHMKKLFC@?$AAn?$AAI?$AAn?$AAd?$AAe?$AAx?$AA?5?$AA?$DO?$AA?$DN?$AA?5?$AA0?$AA?5?$AA?$CG?$AA?$CG?$AA?5@ 10088608     StdAfx.obj
 0002:00002648       ??_C@_1OK@PHBFGBNG@?$AAC?$AA?3?$AA?2?$AAP?$AAr?$AAo?$AAg?$AAr?$AAa?$AAm?$AA?5?$AAF?$AAi?$AAl?$AAe@ 10088648     StdAfx.obj
 0002:00002734       ??_C@_1BK@NHECDDNK@?$AAm?$AA_?$AAp?$AAD?$AAa?$AAt?$AAa?$AA?5?$AA?$DN?$AA?$DN?$AA?5?$AA0@ 10088734     StdAfx.obj
 0002:0000454c       _LIBID_OPOSINTERNALSLib    1008a54c     OposInternals.obj
 0002:00004560       ??_C@_0HD@NJLPEDHO@C?3?2Program?5Files?5?$CIx86?$CJ?2Microsof@ 1008a560     OposInternals.obj
 0002:000045d4       ??_C@_1CK@DFMKPFAK@?$AAA?$AAt?$AAl?$AAT?$AAh?$AAr?$AAo?$AAw?$AA?3?$AA?5?$AAh?$AAr?$AA?5?$AA?$DN?$AA?5@ 1008a5d4     OposInternals.obj
 0002:00004600       ??_C@_1M@HLGKFCJM@?$AAf?$AAa?$AAl?$AAs?$AAe@ 1008a600     OposInternals.obj
 0002:00004610       ??_C@_1OG@PAKCOIDO@?$AAC?$AA?3?$AA?2?$AAP?$AAr?$AAo?$AAg?$AAr?$AAa?$AAm?$AA?5?$AAF?$AAi?$AAl?$AAe@ 1008a610     OposInternals.obj
 0002:000046f8       ??_C@_1BM@GBBOFEAE@?$AA_?$AA_?$AAa?$AAt?$AAl?$AA_?$AAc?$AAo?$AAn?$AAd?$AAV?$AAa?$AAl@ 1008a6f8     OposInternals.obj
 0002:00004718       ??_C@_1OG@BLIKCHKM@?$AAC?$AA?3?$AA?2?$AAP?$AAr?$AAo?$AAg?$AAr?$AAa?$AAm?$AA?5?$AAF?$AAi?$AAl?$AAe@ 1008a718     OposInternals.obj
 0002:00004800       __GUID_00000000_0000_0000_c000_000000000046 1008a800     OposInternals.obj
 0002:00004810       ??_C@_1BG@ILBPLEEF@?$AAn?$AAN?$AAu?$AAl?$AAl?$AA?5?$AA?$DN?$AA?$DN?$AA?5?$AA0@ 1008a810     OposInternals.obj
 0002:00004828       ??_C@_1PO@BMFEKDOK@?$AAC?$AA?3?$AA?2?$AAP?$AAr?$AAo?$AAg?$AAr?$AAa?$AAm?$AA?5?$AAF?$AAi?$AAl?$AAe@ 1008a828     OposInternals.obj
 0002:00004928       ??_C@_1BK@BIGILECK@?$AAA?$AAd?$AAv?$AAa?$AAp?$AAi?$AA3?$AA2?$AA?4?$AAd?$AAl?$AAl@ 1008a928     OposInternals.obj
 0002:00004944       ??_C@_1BO@KNMGNOCJ@?$AAh?$AAA?$AAd?$AAv?$AAA?$AAP?$AAI?$AA3?$AA2?$AA?5?$AA?$CB?$AA?$DN?$AA?5?$AA0@ 1008a944     OposInternals.obj
 0002:00004964       ??_C@_0BG@EKFFMJIO@RegOpenKeyTransactedW@ 1008a964     OposInternals.obj
 0002:0000497c       ??_C@_0BI@MNCFCPFK@RegCreateKeyTransactedW@ 1008a97c     OposInternals.obj
 0002:00004994       ??_C@_0BI@HAKLOOGP@RegDeleteKeyTransactedW@ 1008a994     OposInternals.obj
 0002:000049ac       ??_C@_1BG@OHCCAGNO@?$AA?$CB?$AAm?$AA_?$AAb?$AAL?$AAo?$AAc?$AAk?$AAe?$AAd@ 1008a9ac     OposInternals.obj
 0002:000049c4       ??_C@_1BE@NPGJNKLA@?$AAm?$AA_?$AAb?$AAL?$AAo?$AAc?$AAk?$AAe?$AAd@ 1008a9c4     OposInternals.obj
 0002:000049d8       ??_C@_1CC@DNHFMIHP@?$AA_?$AAp?$AAA?$AAt?$AAl?$AAM?$AAo?$AAd?$AAu?$AAl?$AAe?$AA?5?$AA?$DN?$AA?$DN?$AA?5@ 1008a9d8     OposInternals.obj
 0002:00004a00       ??_C@_1HK@DFMOIGDB@?$AAE?$AAR?$AAR?$AAO?$AAR?$AA?5?$AA?3?$AA?5?$AAU?$AAn?$AAa?$AAb?$AAl?$AAe?$AA?5@ 1008aa00     OposInternals.obj
 0002:00004a7c       __GUID_00000146_0000_0000_c000_000000000046 1008aa7c     OposInternals.obj
 0002:00004a8c       ??_C@_1BG@LENCCAOJ@?$AAp?$AAp?$AAG?$AAI?$AAT?$AA?5?$AA?$CB?$AA?$DN?$AA?5?$AA0@ 1008aa8c     OposInternals.obj
 0002:00004aa4       ??_C@_1BI@JBLBCKD@?$AAm?$AA_?$AAp?$AAG?$AAI?$AAT?$AA?5?$AA?$CB?$AA?$DN?$AA?5?$AA0@ 1008aaa4     OposInternals.obj
 0002:00004abc       ??_7CComModule@ATL@@6B@    1008aabc     OposInternals.obj
 0002:00004ae4       ??_C@_1BM@NFPICFEL@?$AA_?$AAp?$AAM?$AAo?$AAd?$AAu?$AAl?$AAe?$AA?5?$AA?$DN?$AA?$DN?$AA?5?$AA0@ 1008aae4     OposInternals.obj
 0002:00004b00       ??_C@_1BI@JPOONHGO@?$AAm?$AA_?$AAh?$AAK?$AAe?$AAy?$AA?5?$AA?$DN?$AA?$DN?$AA?5?$AA0@ 1008ab00     OposInternals.obj
 0002:00004b18       ??_C@_1BI@KCHMLGAI@?$AAm?$AA_?$AAh?$AAK?$AAe?$AAy?$AA?5?$AA?$CB?$AA?$DN?$AA?5?$AA0@ 1008ab18     OposInternals.obj
 0002:00004b30       ??_C@_0BA@LILAPHGE@RegDeleteKeyExW@ 1008ab30     OposInternals.obj
 0002:00004b40       ??_C@_1CA@JAHJEEHI@?$AAh?$AAK?$AAe?$AAy?$AAP?$AAa?$AAr?$AAe?$AAn?$AAt?$AA?5?$AA?$CB?$AA?$DN?$AA?5?$AA0@ 1008ab40     OposInternals.obj
 0002:00004b60       ??_C@_1BG@OMKLFNDM@?$AAl?$AAR?$AAe?$AAs?$AA?5?$AA?$DN?$AA?$DN?$AA?5?$AA0?$AAL@ 1008ab60     OposInternals.obj
 0002:00004b78       ??_C@_1FG@MAMCHIIA@?$AA?$CI?$AAd?$AAw?$AAT?$AAy?$AAp?$AAe?$AA?5?$AA?$DN?$AA?$DN?$AA?5?$AA?$CI?$AA?5?$AA1?$AAu@ 1008ab78     OposInternals.obj
 0002:00004bd0       ??_C@_1IA@CIKBLAHF@?$AAC?$AAR?$AAe?$AAg?$AAK?$AAe?$AAy?$AA?3?$AA?3?$AAR?$AAe?$AAc?$AAu?$AAr?$AAs@ 1008abd0     OposInternals.obj
 0002:00004c50       ??_C@_1DO@EIGOLNAA@?$AAl?$AAp?$AAs?$AAz?$AAK?$AAe?$AAy?$AA?5?$AA?$CB?$AA?$DN?$AA?5?$AA0?$AA?5?$AA?$CG?$AA?$CG@ 1008ac50     OposInternals.obj
 0002:00004c90       ??_C@_1OC@IJCCKHFC@?$AAC?$AA?3?$AA?2?$AAP?$AAr?$AAo?$AAg?$AAr?$AAa?$AAm?$AA?5?$AAF?$AAi?$AAl?$AAe@ 1008ac90     OposInternals.obj
 0002:00004d74       ??_C@_1BG@MMFPEKL@?$AAs?$AAz?$AAK?$AAe?$AAy?$AA?5?$AA?$CB?$AA?$DN?$AA?5?$AA0@ 1008ad74     OposInternals.obj
 0002:00004d8c       ??_C@_1BK@LDPHGFPN@?$AAs?$AAz?$AAV?$AAa?$AAl?$AAu?$AAe?$AA?5?$AA?$CB?$AA?$DN?$AA?5?$AA0@ 1008ad8c     OposInternals.obj
 0002:00004da8       ?rgszNeverDelete@CRegParser@ATL@@1QBQB_WB 1008ada8     OposInternals.obj
 0002:00004dd8       ??_C@_1O@JFMKDNFA@?$AAp?$AA?5?$AA?$CB?$AA?$DN?$AA?5?$AA0@ 1008add8     OposInternals.obj
 0002:00004de8       ??_7CRegObject@ATL@@6B@    1008ade8     OposInternals.obj
 0002:00004e00       ??_C@_1JM@PMKLGAKF@?$AAs?$AAt?$AAa?$AAt?$AAi?$AAc?$AAa?$AAl?$AAl?$AAy?$AA?5?$AAl?$AAi?$AAn?$AAk@ 1008ae00     OposInternals.obj
 0002:00004ea0       ??_C@_1KC@MLBIPPDL@?$AAL?$AA?$CC?$AAs?$AAt?$AAa?$AAt?$AAi?$AAc?$AAa?$AAl?$AAl?$AAy?$AA?5?$AAl?$AAi@ 1008aea0     OposInternals.obj
 0002:00004f48       ??_C@_0HB@LOMGIJOA@C?3?2Program?5Files?5?$CIx86?$CJ?2Microsof@ 1008af48     OposInternals.obj
 0002:00004fbc       ??_C@_1DM@JBIDINMA@?$AAF?$AAa?$AAi?$AAl?$AAe?$AAd?$AA?5?$AAt?$AAo?$AA?5?$AAL?$AAo?$AAa?$AAd?$AAL@ 1008afbc     OposInternals.obj
 0002:00004ff8       ??_C@_1FE@HJDAOHJE@?$AAF?$AAa?$AAi?$AAl?$AAe?$AAd?$AA?5?$AAt?$AAo?$AA?5?$AAF?$AAi?$AAn?$AAd?$AAR@ 1008aff8     OposInternals.obj
 0002:00005050       ??_C@_1FG@BBJFPKL@?$AAF?$AAa?$AAi?$AAl?$AAe?$AAd?$AA?5?$AAt?$AAo?$AA?5?$AAF?$AAi?$AAn?$AAd?$AAR@ 1008b050     OposInternals.obj
 0002:000050a8       ??_C@_1DA@KJKEAFMD@?$AAF?$AAa?$AAi?$AAl?$AAe?$AAd?$AA?5?$AAt?$AAo?$AA?5?$AAL?$AAo?$AAa?$AAd?$AAR@ 1008b0a8     OposInternals.obj
 0002:000050d8       ??_C@_1CK@BCPDHANH@?$AAM?$AAa?$AAp?$AA?5?$AAE?$AAn?$AAt?$AAr?$AAy?$AA?5?$AAn?$AAo?$AAt?$AA?5?$AAf@ 1008b0d8     OposInternals.obj
 0002:00005108       ??_C@_1FI@KMIOGKOO@?$AAB?$AAo?$AAg?$AAu?$AAs?$AA?5?$AAv?$AAa?$AAl?$AAu?$AAe?$AA?5?$AA?$CF?$AAT?$AAc@ 1008b108     OposInternals.obj
 0002:00005160       ?map@?1??HKeyFromString@CRegParser@ATL@@KAPAUHKEY__@@PA_W@Z@4QBUkeymap@?1??123@KAPAU4@0@Z@B 1008b160     OposInternals.obj
 0002:000051d0       ??_C@_19NCHLBIN@?$AAH?$AAK?$AAC?$AAR@ 1008b1d0     OposInternals.obj
 0002:000051dc       ??_C@_19JAPAIJDE@?$AAH?$AAK?$AAC?$AAU@ 1008b1dc     OposInternals.obj
 0002:000051e8       ??_C@_19PEALEEJB@?$AAH?$AAK?$AAL?$AAM@ 1008b1e8     OposInternals.obj
 0002:000051f4       ??_C@_17PJOJPMPB@?$AAH?$AAK?$AAU@ 1008b1f4     OposInternals.obj
 0002:000051fc       ??_C@_19PNBHMJPL@?$AAH?$AAK?$AAP?$AAD@ 1008b1fc     OposInternals.obj
 0002:00005208       ??_C@_19GFFAIJHG@?$AAH?$AAK?$AAD?$AAD@ 1008b208     OposInternals.obj
 0002:00005214       ??_C@_19OFICIBHH@?$AAH?$AAK?$AAC?$AAC@ 1008b214     OposInternals.obj
 0002:00005220       ??_C@_1CE@PACHPJFI@?$AAH?$AAK?$AAE?$AAY?$AA_?$AAC?$AAL?$AAA?$AAS?$AAS?$AAE?$AAS?$AA_?$AAR?$AAO@ 1008b220     OposInternals.obj
 0002:00005244       ??_C@_1CE@HLHNCBPM@?$AAH?$AAK?$AAE?$AAY?$AA_?$AAC?$AAU?$AAR?$AAR?$AAE?$AAN?$AAT?$AA_?$AAU?$AAS@ 1008b244     OposInternals.obj
 0002:00005268       ??_C@_1CG@GFBEANJL@?$AAH?$AAK?$AAE?$AAY?$AA_?$AAL?$AAO?$AAC?$AAA?$AAL?$AA_?$AAM?$AAA?$AAC?$AAH@ 1008b268     OposInternals.obj
 0002:00005290       ??_C@_1BG@BGODANIO@?$AAH?$AAK?$AAE?$AAY?$AA_?$AAU?$AAS?$AAE?$AAR?$AAS@ 1008b290     OposInternals.obj
 0002:000052a8       ??_C@_1CM@KHNNAOIC@?$AAH?$AAK?$AAE?$AAY?$AA_?$AAP?$AAE?$AAR?$AAF?$AAO?$AAR?$AAM?$AAA?$AAN?$AAC@ 1008b2a8     OposInternals.obj
 0002:000052d4       ??_C@_1BM@HAGMMHIA@?$AAH?$AAK?$AAE?$AAY?$AA_?$AAD?$AAY?$AAN?$AA_?$AAD?$AAA?$AAT?$AAA@ 1008b2d4     OposInternals.obj
 0002:000052f0       ??_C@_1CI@BBJOACGG@?$AAH?$AAK?$AAE?$AAY?$AA_?$AAC?$AAU?$AAR?$AAR?$AAE?$AAN?$AAT?$AA_?$AAC?$AAO@ 1008b2f0     OposInternals.obj
 0002:00005318       ??_C@_1EI@CDDJHMMA@?$AAN?$AAe?$AAx?$AAt?$AAT?$AAo?$AAk?$AAe?$AAn?$AA?5?$AA?3?$AA?5?$AAU?$AAn?$AAe@ 1008b318     OposInternals.obj
 0002:00005360       ??_C@_1DA@BDBPEMM@?$AA?$CF?$AAT?$AAs?$AA?5?$AAT?$AAy?$AAp?$AAe?$AA?5?$AAn?$AAo?$AAt?$AA?5?$AAs?$AAu@ 1008b360     OposInternals.obj
 0002:00005390       ??_C@_1BA@HANLFFFG@?$AAd?$AAe?$AAf?$AAa?$AAu?$AAl?$AAt@ 1008b390     OposInternals.obj
 0002:000053a0       ??_C@_1DE@GENBDOHF@?$AAS?$AAe?$AAt?$AAt?$AAi?$AAn?$AAg?$AA?5?$AAV?$AAa?$AAl?$AAu?$AAe?$AA?5?$AA?$CF@ 1008b3a0     OposInternals.obj
 0002:000053d4       ??_C@_1DC@OPMJCKIB@?$AAS?$AAe?$AAt?$AAt?$AAi?$AAn?$AAg?$AA?5?$AAV?$AAa?$AAl?$AAu?$AAe?$AA?5?$AA?$CF@ 1008b3d4     OposInternals.obj
 0002:00005408       ??_C@_1FK@OIDGAAMP@?$AAB?$AAi?$AAn?$AAa?$AAr?$AAy?$AA?5?$AAD?$AAa?$AAt?$AAa?$AA?5?$AAd?$AAo?$AAe@ 1008b408     OposInternals.obj
 0002:00005464       ??_C@_1CM@LNIALBHN@?$AAS?$AAh?$AAo?$AAu?$AAl?$AAd?$AA?5?$AAn?$AAo?$AAt?$AA?5?$AAb?$AAe?$AA?5?$AAh@ 1008b464     OposInternals.obj
 0002:00005490       ??_C@_1BK@ODFKMBGC@?$AAl?$AAp?$AAs?$AAz?$AAR?$AAe?$AAg?$AA?5?$AA?$CB?$AA?$DN?$AA?5?$AA0@ 1008b490     OposInternals.obj
 0002:000054ac       ??_C@_1BK@DGLFCBHI@?$AAp?$AAp?$AAs?$AAz?$AAR?$AAe?$AAg?$AA?5?$AA?$CB?$AA?$DN?$AA?5?$AA0@ 1008b4ac     OposInternals.obj
 0002:000054c8       ??_C@_1EA@NHKLICFA@?$AAH?$AAK?$AAC?$AAU?$AA?$AN?$AA?6?$AA?$HL?$AA?7?$AAS?$AAo?$AAf?$AAt?$AAw?$AAa?$AAr@ 1008b4c8     OposInternals.obj
 0002:00005508       ??_C@_1BE@LJOLIMEM@?$AA?$AN?$AA?6?$AA?7?$AA?$HN?$AA?$AN?$AA?6?$AA?$HN?$AA?$AN?$AA?6@ 1008b508     OposInternals.obj
 0002:0000551c       ??_C@_1DG@KOLNJMBJ@?$AAE?$AAr?$AAr?$AAo?$AAr?$AA?5?$AAn?$AAo?$AA?5?$AAc?$AAl?$AAo?$AAs?$AAi?$AAn@ 1008b51c     OposInternals.obj
 0002:00005554       ??_C@_19IGGGDNCK@?$AA?$CF?$AAT?$AAs?$AA?6@ 1008b554     OposInternals.obj
 0002:00005560       ??_C@_1DM@JFHAPNGI@?$AAH?$AAK?$AAe?$AAy?$AAF?$AAr?$AAo?$AAm?$AAS?$AAt?$AAr?$AAi?$AAn?$AAg?$AA?5@ 1008b560     OposInternals.obj
 0002:000055a0       ??_C@_1FE@MCPBFDLN@?$AAS?$AAy?$AAn?$AAt?$AAa?$AAx?$AA?5?$AAe?$AAr?$AAr?$AAo?$AAr?$AA?0?$AA?5?$AAe@ 1008b5a0     OposInternals.obj
 0002:000055f8       ??_C@_1EE@EMAKHHOG@?$AAF?$AAa?$AAi?$AAl?$AAe?$AAd?$AA?5?$AAt?$AAo?$AA?5?$AAr?$AAe?$AAg?$AAi?$AAs@ 1008b5f8     OposInternals.obj
 0002:0000563c       ??_C@_1BM@KJDIPNJ@?$AAN?$AAu?$AAm?$AA?5?$AAE?$AAl?$AAs?$AA?5?$AA?$DN?$AA?5?$AA?$CF?$AAd?$AA?6@ 1008b63c     OposInternals.obj
 0002:00005658       ??_C@_1BM@BEOOHDFB@?$AAD?$AAe?$AAl?$AAe?$AAt?$AAi?$AAn?$AAg?$AA?5?$AA?$CF?$AAT?$AAs?$AA?6@ 1008b658     OposInternals.obj
 0002:00005674       ??_C@_1CE@NOBELHPC@?$AAC?$AAr?$AAe?$AAa?$AAt?$AAi?$AAn?$AAg?$AA?5?$AAk?$AAe?$AAy?$AA?5?$AA?$CF?$AAT@ 1008b674     OposInternals.obj
 0002:00005698       ??_C@_1CA@MKECKMBH@?$AAO?$AAp?$AAe?$AAn?$AAe?$AAd?$AA?5?$AAK?$AAe?$AAy?$AA?5?$AA?$CF?$AAT?$AAs?$AA?6@ 1008b698     OposInternals.obj
 0002:000056b8       ??_C@_1FK@OAJHMKAA@?$AAI?$AAg?$AAn?$AAo?$AAr?$AAi?$AAn?$AAg?$AA?5?$AAO?$AAp?$AAe?$AAn?$AA?5?$AAk@ 1008b6b8     OposInternals.obj
 0002:00005714       ??_C@_1CM@OHCCCDHD@?$AAE?$AAn?$AAd?$AAi?$AAn?$AAg?$AA?5?$AAR?$AAe?$AAc?$AAo?$AAv?$AAe?$AAr?$AAy@ 1008b714     OposInternals.obj
 0002:00005740       ??_C@_1FA@ECAJCMBE@?$AAD?$AAe?$AAl?$AAe?$AAt?$AAi?$AAn?$AAg?$AA?5?$AAn?$AAo?$AAn?$AA?9?$AAe?$AAm@ 1008b740     OposInternals.obj
 0002:00005790       ??_C@_1CE@OGJGDPFE@?$AAD?$AAe?$AAl?$AAe?$AAt?$AAi?$AAn?$AAg?$AA?5?$AAK?$AAe?$AAy?$AA?5?$AA?$CF?$AAT@ 1008b790     OposInternals.obj
 0002:000057b4       ??_C@_1DC@HEJCCJC@?$AA0?$AA?5?$AA?$CB?$AA?$DN?$AA?5?$AAp?$AAM?$AAa?$AAp?$AAE?$AAn?$AAt?$AAr?$AAi?$AAe@ 1008b7b4     OposInternals.obj
 0002:000057e8       ??_C@_1O@MNLDABAF@?$AAM?$AAo?$AAd?$AAu?$AAl?$AAe@ 1008b7e8     OposInternals.obj
 0002:000057f8       ??_C@_1BG@JBACFMF@?$AAM?$AAo?$AAd?$AAu?$AAl?$AAe?$AA_?$AAR?$AAa?$AAw@ 1008b7f8     OposInternals.obj
 0002:00005810       ??_C@_1BC@KAILKFFG@?$AAR?$AAE?$AAG?$AAI?$AAS?$AAT?$AAR?$AAY@ 1008b810     OposInternals.obj
 0002:00005824       ??_C@_11LOCGONAA@@         1008b824     OposInternals.obj
 0002:00005828       ??_C@_1EC@GOCPDDCL@?$AAp?$AAb?$AAs?$AAt?$AAr?$AAP?$AAa?$AAt?$AAh?$AA?5?$AA?$CB?$AA?$DN?$AA?5?$AA0?$AA?5@ 1008b828     OposInternals.obj
 0002:0000586c       ??_C@_1CE@MNLFIKHJ@?$AAh?$AAI?$AAn?$AAs?$AAt?$AAT?$AAy?$AAp?$AAe?$AAL?$AAi?$AAb?$AA?5?$AA?$CB?$AA?$DN@ 1008b86c     OposInternals.obj
 0002:00005890       ??_C@_19ILOCMLCJ@?$AA?4?$AAt?$AAl?$AAb@ 1008b890     OposInternals.obj
 0002:0000589c       __GUID_0002e012_0000_0000_c000_000000000046 1008b89c     OposInternals.obj
 0002:000058b0       ??_C@_1OK@NEECLFPA@?$AA0?$AA?5?$AA?$CG?$AA?$CG?$AA?5?$AAL?$AA?$CC?$AAU?$AAs?$AAe?$AA?5?$AAO?$AAB?$AAJ?$AAE@ 1008b8b0     OposInternals.obj
 0002:0000599c       ??_C@_1CG@IDMIONOG@?$AAp?$AAE?$AAn?$AAt?$AAr?$AAy?$AA?9?$AA?$DO?$AAi?$AAT?$AAy?$AAp?$AAe?$AA?5?$AA?$DN@ 1008b99c     OposInternals.obj
 0002:000059c4       ??_C@_1O@FHBGLCIO@?$AAC?$AAL?$AAS?$AAI?$AAD?$AA?2@ 1008b9c4     OposInternals.obj
 0002:000059d4       ??_C@_1CK@IFBKBFAA@?$AA?2?$AAR?$AAe?$AAq?$AAu?$AAi?$AAr?$AAe?$AAd?$AA?5?$AAC?$AAa?$AAt?$AAe?$AAg@ 1008b9d4     OposInternals.obj
 0002:00005a00       ??_C@_1DA@BIHALFED@?$AA?2?$AAI?$AAm?$AAp?$AAl?$AAe?$AAm?$AAe?$AAn?$AAt?$AAe?$AAd?$AA?5?$AAC?$AAa@ 1008ba00     OposInternals.obj
 0002:00005a30       ??_C@_1BK@EDKOLFBJ@?$AAO?$AAL?$AAE?$AAA?$AAU?$AAT?$AA3?$AA2?$AA?4?$AAD?$AAL?$AAL@ 1008ba30     OposInternals.obj
 0002:00005a4c       ??_C@_0BJ@CNLFOMHB@UnRegisterTypeLibForUser@ 1008ba4c     OposInternals.obj
 0002:00005a68       ??_C@_0BH@LBOMMKPJ@RegisterTypeLibForUser@ 1008ba68     OposInternals.obj
 0002:00005a80       ??_C@_1CA@GAOMIJFK@?$AAp?$AAC?$AAo?$AAm?$AAM?$AAo?$AAd?$AAu?$AAl?$AAe?$AA?5?$AA?$CB?$AA?$DN?$AA?5?$AA0@ 1008ba80     OposInternals.obj
 0002:00005aa0       ??_C@_1EA@JIHAIGJA@?$AAp?$AAC?$AAo?$AAm?$AAM?$AAo?$AAd?$AAu?$AAl?$AAe?$AA?9?$AA?$DO?$AAm?$AA_?$AAh@ 1008baa0     OposInternals.obj
 0002:00005ae0       ??_C@_1IO@OONIPMJC@?$AAE?$AAR?$AAR?$AAO?$AAR?$AA?5?$AA?3?$AA?5?$AAU?$AAn?$AAa?$AAb?$AAl?$AAe?$AA?5@ 1008bae0     OposInternals.obj
 0002:00005b70       ??_C@_1IO@BDEIDBOP@?$AAE?$AAR?$AAR?$AAO?$AAR?$AA?5?$AA?3?$AA?5?$AAU?$AAn?$AAa?$AAb?$AAl?$AAe?$AA?5@ 1008bb70     OposInternals.obj
 0002:00005c00       ??_C@_19LMDLLIGP@?$AAp?$AA?$DN?$AA?$DN?$AA0@ 1008bc00     OposInternals.obj
 0002:00005c0c       ??_C@_19JHCPJMAL@?$AAp?$AA?$CB?$AA?$DN?$AA0@ 1008bc0c     OposInternals.obj
 0002:00005c18       ??_C@_1BC@EMCLECFJ@?$AAm?$AA_?$AAp?$AA?5?$AA?$DN?$AA?$DN?$AA?5?$AA0@ 1008bc18     OposInternals.obj
 0002:00005c2c       ??_C@_1M@PPPPCDEP@?$AAA?$AAP?$AAP?$AAI?$AAD@ 1008bc2c     OposInternals.obj
 0002:00005c38       _GUID_NULL                 1008bc38     uuid:cguid_i.obj
 0002:00005c48       _CATID_MARSHALER           1008bc48     uuid:cguid_i.obj
 0002:00005c58       _IID_IRpcChannel           1008bc58     uuid:cguid_i.obj
 0002:00005c68       _IID_IRpcStub              1008bc68     uuid:cguid_i.obj
 0002:00005c78       _IID_IStubManager          1008bc78     uuid:cguid_i.obj
 0002:00005c88       _IID_IRpcProxy             1008bc88     uuid:cguid_i.obj
 0002:00005c98       _IID_IProxyManager         1008bc98     uuid:cguid_i.obj
 0002:00005ca8       _IID_IPSFactory            1008bca8     uuid:cguid_i.obj
 0002:00005cb8       _IID_IInternalMoniker      1008bcb8     uuid:cguid_i.obj
 0002:00005cc8       _IID_IDfReserved1          1008bcc8     uuid:cguid_i.obj
 0002:00005cd8       _IID_IDfReserved2          1008bcd8     uuid:cguid_i.obj
 0002:00005ce8       _IID_IDfReserved3          1008bce8     uuid:cguid_i.obj
 0002:00005cf8       _CLSID_StdMarshal          1008bcf8     uuid:cguid_i.obj
 0002:00005d08       _IID_IStub                 1008bd08     uuid:cguid_i.obj
 0002:00005d18       _IID_IProxy                1008bd18     uuid:cguid_i.obj
 0002:00005d28       _IID_IEnumGeneric          1008bd28     uuid:cguid_i.obj
 0002:00005d38       _IID_IEnumHolder           1008bd38     uuid:cguid_i.obj
 0002:00005d48       _IID_IEnumCallback         1008bd48     uuid:cguid_i.obj
 0002:00005d58       _IID_IOleManager           1008bd58     uuid:cguid_i.obj
 0002:00005d68       _IID_IOlePresObj           1008bd68     uuid:cguid_i.obj
 0002:00005d78       _IID_IDebug                1008bd78     uuid:cguid_i.obj
 0002:00005d88       _IID_IDebugStream          1008bd88     uuid:cguid_i.obj
 0002:00005d98       _CLSID_PSGenObject         1008bd98     uuid:cguid_i.obj
 0002:00005da8       _CLSID_PSClientSite        1008bda8     uuid:cguid_i.obj
 0002:00005db8       _CLSID_PSClassObject       1008bdb8     uuid:cguid_i.obj
 0002:00005dc8       _CLSID_PSInPlaceActive     1008bdc8     uuid:cguid_i.obj
 0002:00005dd8       _CLSID_PSInPlaceFrame      1008bdd8     uuid:cguid_i.obj
 0002:00005de8       _CLSID_PSDragDrop          1008bde8     uuid:cguid_i.obj
 0002:00005df8       _CLSID_PSBindCtx           1008bdf8     uuid:cguid_i.obj
 0002:00005e08       _CLSID_PSEnumerators       1008be08     uuid:cguid_i.obj
 0002:00005e18       _CLSID_StaticMetafile      1008be18     uuid:cguid_i.obj
 0002:00005e28       _CLSID_StaticDib           1008be28     uuid:cguid_i.obj
 0002:00005e38       _CLSID_Picture_Metafile    1008be38     uuid:cguid_i.obj
 0002:00005e48       _CLSID_Picture_EnhMetafile 1008be48     uuid:cguid_i.obj
 0002:00005e58       _CLSID_Picture_Dib         1008be58     uuid:cguid_i.obj
 0002:00005e68       _CLSID_DCOMAccessControl   1008be68     uuid:cguid_i.obj
 0002:00005e78       _CLSID_StdGlobalInterfaceTable 1008be78     uuid:cguid_i.obj
 0002:00005e88       _CLSID_ManualResetEvent    1008be88     uuid:cguid_i.obj
 0002:00005e98       _CLSID_StdEvent            1008be98     uuid:cguid_i.obj
 0002:00005ea8       _CLSID_SynchronizeContainer 1008bea8     uuid:cguid_i.obj
 0002:00005eb8       _CLSID_ComBinding          1008beb8     uuid:cguid_i.obj
 0002:00005ec8       _CLSID_StdAsyncActManager  1008bec8     uuid:cguid_i.obj
 0002:00005ed8       _CLSID_InProcFreeMarshaler 1008bed8     uuid:cguid_i.obj
 0002:00005ee8       _CLSID_RemoteUnknownPSFactory 1008bee8     uuid:cguid_i.obj
 0002:00005ef8       _IID_IRichEditOle          1008bef8     uuid:cguid_i.obj
 0002:00005f08       _IID_IRichEditOleCallback  1008bf08     uuid:cguid_i.obj
 0002:00005f18       _CLSID_AllClasses          1008bf18     uuid:cguid_i.obj
 0002:00005f28       _CLSID_LocalMachineClasses 1008bf28     uuid:cguid_i.obj
 0002:00005f38       _CLSID_CurrentUserClasses  1008bf38     uuid:cguid_i.obj
 0002:00005f48       _CLSID_AddrControl         1008bf48     uuid:cguid_i.obj
 0002:00005f58       _CLSID_GlobalOptions       1008bf58     uuid:cguid_i.obj
 0002:00005f68       _CLSID_SurrogateManager    1008bf68     uuid:cguid_i.obj
 0002:00005f78       _CLSID_ContextSwitcher     1008bf78     uuid:cguid_i.obj
 0002:00005f88       _CLSID_ActivationStore     1008bf88     uuid:cguid_i.obj
 0002:00005f98       _IID_IPropertyFrame        1008bf98     uuid:cguid_i.obj
 0002:00005fa8       _CLSID_CFontPropPage       1008bfa8     uuid:cguid_i.obj
 0002:00005fb8       _CLSID_CColorPropPage      1008bfb8     uuid:cguid_i.obj
 0002:00005fc8       _CLSID_CPicturePropPage    1008bfc8     uuid:cguid_i.obj
 0002:00005fd8       _CLSID_StockFontPage       1008bfd8     uuid:cguid_i.obj
 0002:00005fe8       _CLSID_StockColorPage      1008bfe8     uuid:cguid_i.obj
 0002:00005ff8       _CLSID_StockPicturePage    1008bff8     uuid:cguid_i.obj
 0002:00006008       _CLSID_PersistPropset      1008c008     uuid:cguid_i.obj
 0002:00006018       _CLSID_ConvertVBX          1008c018     uuid:cguid_i.obj
 0002:00006028       _CLSID_StdFont             1008c028     uuid:cguid_i.obj
 0002:00006038       _CLSID_StdPicture          1008c038     uuid:cguid_i.obj
 0002:00006048       _GUID_HIMETRIC             1008c048     uuid:cguid_i.obj
 0002:00006058       _GUID_COLOR                1008c058     uuid:cguid_i.obj
 0002:00006068       _GUID_XPOSPIXEL            1008c068     uuid:cguid_i.obj
 0002:00006078       _GUID_YPOSPIXEL            1008c078     uuid:cguid_i.obj
 0002:00006088       _GUID_XSIZEPIXEL           1008c088     uuid:cguid_i.obj
 0002:00006098       _GUID_YSIZEPIXEL           1008c098     uuid:cguid_i.obj
 0002:000060a8       _GUID_XPOS                 1008c0a8     uuid:cguid_i.obj
 0002:000060b8       _GUID_YPOS                 1008c0b8     uuid:cguid_i.obj
 0002:000060c8       _GUID_XSIZE                1008c0c8     uuid:cguid_i.obj
 0002:000060d8       _GUID_YSIZE                1008c0d8     uuid:cguid_i.obj
 0002:000060e8       _GUID_TRISTATE             1008c0e8     uuid:cguid_i.obj
 0002:000060f8       _GUID_OPTIONVALUEEXCLUSIVE 1008c0f8     uuid:cguid_i.obj
 0002:00006108       _GUID_CHECKVALUEEXCLUSIVE  1008c108     uuid:cguid_i.obj
 0002:00006118       _GUID_FONTNAME             1008c118     uuid:cguid_i.obj
 0002:00006128       _GUID_FONTSIZE             1008c128     uuid:cguid_i.obj
 0002:00006138       _GUID_FONTBOLD             1008c138     uuid:cguid_i.obj
 0002:00006148       _GUID_FONTITALIC           1008c148     uuid:cguid_i.obj
 0002:00006158       _GUID_FONTUNDERSCORE       1008c158     uuid:cguid_i.obj
 0002:00006168       _GUID_FONTSTRIKETHROUGH    1008c168     uuid:cguid_i.obj
 0002:00006178       _GUID_HANDLE               1008c178     uuid:cguid_i.obj
 0002:00006188       _IID_StdOle                1008c188     uuid:cguid_i.obj
 0002:00006198       _IID_ICursor               1008c198     uuid:cguid_i.obj
 0002:000061a8       _IID_ICursorMove           1008c1a8     uuid:cguid_i.obj
 0002:000061b8       _IID_ICursorScroll         1008c1b8     uuid:cguid_i.obj
 0002:000061c8       _IID_ICursorUpdateARow     1008c1c8     uuid:cguid_i.obj
 0002:000061d8       _IID_INotifyDBEvents       1008c1d8     uuid:cguid_i.obj
 0002:000061e8       _IID_ICursorFind           1008c1e8     uuid:cguid_i.obj
 0002:000061f8       _IID_IEntryID              1008c1f8     uuid:cguid_i.obj
 0002:00006208       __GUID_NAMEONLY            1008c208     uuid:cguid_i.obj
 0002:00006218       __DBBMKGUID                1008c218     uuid:cguid_i.obj
 0002:00006228       __DBCIDGUID                1008c228     uuid:cguid_i.obj
 0002:00006238       _IID_IBoundObject          1008c238     uuid:cguid_i.obj
 0002:00006248       _IID_IBoundObjectSite      1008c248     uuid:cguid_i.obj
 0002:00006258       _CLSID_GblComponentCategoriesMgr 1008c258     uuid:cguid_i.obj
 0002:00006268       _CLSID_ThumbnailFCNHandler 1008c268     uuid:cguid_i.obj
 0002:00006278       _CLSID_ThumbnailUpdater    1008c278     uuid:cguid_i.obj
 0002:00006288       _IID_ICallbackWithNoReentrancyToApplicationSTA 1008c288     uuid:cguid_i.obj
 0002:00006298       _CLSID_TypeLibRegistrationReader 1008c298     uuid:cguid_i.obj
 0002:000062a8       _GUID_DEVCLASS_1394        1008c2a8     uuid:cguid_i.obj
 0002:000062b8       _GUID_DEVCLASS_1394DEBUG   1008c2b8     uuid:cguid_i.obj
 0002:000062c8       _GUID_DEVCLASS_61883       1008c2c8     uuid:cguid_i.obj
 0002:000062d8       _GUID_DEVCLASS_ADAPTER     1008c2d8     uuid:cguid_i.obj
 0002:000062e8       _GUID_DEVCLASS_APMSUPPORT  1008c2e8     uuid:cguid_i.obj
 0002:000062f8       _GUID_DEVCLASS_AVC         1008c2f8     uuid:cguid_i.obj
 0002:00006308       _GUID_DEVCLASS_BATTERY     1008c308     uuid:cguid_i.obj
 0002:00006318       _GUID_DEVCLASS_BIOMETRIC   1008c318     uuid:cguid_i.obj
 0002:00006328       _GUID_DEVCLASS_BLUETOOTH   1008c328     uuid:cguid_i.obj
 0002:00006338       _GUID_DEVCLASS_CAMERA      1008c338     uuid:cguid_i.obj
 0002:00006348       _GUID_DEVCLASS_CDROM       1008c348     uuid:cguid_i.obj
 0002:00006358       _GUID_DEVCLASS_COMPUTER    1008c358     uuid:cguid_i.obj
 0002:00006368       _GUID_DEVCLASS_DECODER     1008c368     uuid:cguid_i.obj
 0002:00006378       _GUID_DEVCLASS_DISKDRIVE   1008c378     uuid:cguid_i.obj
 0002:00006388       _GUID_DEVCLASS_DISPLAY     1008c388     uuid:cguid_i.obj
 0002:00006398       _GUID_DEVCLASS_DOT4        1008c398     uuid:cguid_i.obj
 0002:000063a8       _GUID_DEVCLASS_DOT4PRINT   1008c3a8     uuid:cguid_i.obj
 0002:000063b8       _GUID_DEVCLASS_EHSTORAGESILO 1008c3b8     uuid:cguid_i.obj
 0002:000063c8       _GUID_DEVCLASS_ENUM1394    1008c3c8     uuid:cguid_i.obj
 0002:000063d8       _GUID_DEVCLASS_EXTENSION   1008c3d8     uuid:cguid_i.obj
 0002:000063e8       _GUID_DEVCLASS_FDC         1008c3e8     uuid:cguid_i.obj
 0002:000063f8       _GUID_DEVCLASS_FIRMWARE    1008c3f8     uuid:cguid_i.obj
 0002:00006408       _GUID_DEVCLASS_FLOPPYDISK  1008c408     uuid:cguid_i.obj
 0002:00006418       _GUID_DEVCLASS_GPS         1008c418     uuid:cguid_i.obj
 0002:00006428       _GUID_DEVCLASS_HDC         1008c428     uuid:cguid_i.obj
 0002:00006438       _GUID_DEVCLASS_HIDCLASS    1008c438     uuid:cguid_i.obj
 0002:00006448       _GUID_DEVCLASS_HOLOGRAPHIC 1008c448     uuid:cguid_i.obj
 0002:00006458       _GUID_DEVCLASS_IMAGE       1008c458     uuid:cguid_i.obj
 0002:00006468       _GUID_DEVCLASS_INFINIBAND  1008c468     uuid:cguid_i.obj
 0002:00006478       _GUID_DEVCLASS_INFRARED    1008c478     uuid:cguid_i.obj
 0002:00006488       _GUID_DEVCLASS_KEYBOARD    1008c488     uuid:cguid_i.obj
 0002:00006498       _GUID_DEVCLASS_LEGACYDRIVER 1008c498     uuid:cguid_i.obj
 0002:000064a8       _GUID_DEVCLASS_MEDIA       1008c4a8     uuid:cguid_i.obj
 0002:000064b8       _GUID_DEVCLASS_MEDIUM_CHANGER 1008c4b8     uuid:cguid_i.obj
 0002:000064c8       _GUID_DEVCLASS_MEMORY      1008c4c8     uuid:cguid_i.obj
 0002:000064d8       _GUID_DEVCLASS_MODEM       1008c4d8     uuid:cguid_i.obj
 0002:000064e8       _GUID_DEVCLASS_MONITOR     1008c4e8     uuid:cguid_i.obj
 0002:000064f8       _GUID_DEVCLASS_MOUSE       1008c4f8     uuid:cguid_i.obj
 0002:00006508       _GUID_DEVCLASS_MTD         1008c508     uuid:cguid_i.obj
 0002:00006518       _GUID_DEVCLASS_MULTIFUNCTION 1008c518     uuid:cguid_i.obj
 0002:00006528       _GUID_DEVCLASS_MULTIPORTSERIAL 1008c528     uuid:cguid_i.obj
 0002:00006538       _GUID_DEVCLASS_NET         1008c538     uuid:cguid_i.obj
 0002:00006548       _GUID_DEVCLASS_NETCLIENT   1008c548     uuid:cguid_i.obj
 0002:00006558       _GUID_DEVCLASS_NETDRIVER   1008c558     uuid:cguid_i.obj
 0002:00006568       _GUID_DEVCLASS_NETSERVICE  1008c568     uuid:cguid_i.obj
 0002:00006578       _GUID_DEVCLASS_NETTRANS    1008c578     uuid:cguid_i.obj
 0002:00006588       _GUID_DEVCLASS_NODRIVER    1008c588     uuid:cguid_i.obj
 0002:00006598       _GUID_DEVCLASS_PCMCIA      1008c598     uuid:cguid_i.obj
 0002:000065a8       _GUID_DEVCLASS_PNPPRINTERS 1008c5a8     uuid:cguid_i.obj
 0002:000065b8       _GUID_DEVCLASS_PORTS       1008c5b8     uuid:cguid_i.obj
 0002:000065c8       _GUID_DEVCLASS_PRINTER     1008c5c8     uuid:cguid_i.obj
 0002:000065d8       _GUID_DEVCLASS_PRINTERUPGRADE 1008c5d8     uuid:cguid_i.obj
 0002:000065e8       _GUID_DEVCLASS_PRINTQUEUE  1008c5e8     uuid:cguid_i.obj
 0002:000065f8       _GUID_DEVCLASS_PROCESSOR   1008c5f8     uuid:cguid_i.obj
 0002:00006608       _GUID_DEVCLASS_SBP2        1008c608     uuid:cguid_i.obj
 0002:00006618       _GUID_DEVCLASS_SCMDISK     1008c618     uuid:cguid_i.obj
 0002:00006628       _GUID_DEVCLASS_SCMVOLUME   1008c628     uuid:cguid_i.obj
 0002:00006638       _GUID_DEVCLASS_SCSIADAPTER 1008c638     uuid:cguid_i.obj
 0002:00006648       _GUID_DEVCLASS_SECURITYACCELERATOR 1008c648     uuid:cguid_i.obj
 0002:00006658       _GUID_DEVCLASS_SENSOR      1008c658     uuid:cguid_i.obj
 0002:00006668       _GUID_DEVCLASS_SIDESHOW    1008c668     uuid:cguid_i.obj
 0002:00006678       _GUID_DEVCLASS_SMARTCARDREADER 1008c678     uuid:cguid_i.obj
 0002:00006688       _GUID_DEVCLASS_SMRDISK     1008c688     uuid:cguid_i.obj
 0002:00006698       _GUID_DEVCLASS_SMRVOLUME   1008c698     uuid:cguid_i.obj
 0002:000066a8       _GUID_DEVCLASS_SOFTWARECOMPONENT 1008c6a8     uuid:cguid_i.obj
 0002:000066b8       _GUID_DEVCLASS_SOUND       1008c6b8     uuid:cguid_i.obj
 0002:000066c8       _GUID_DEVCLASS_SYSTEM      1008c6c8     uuid:cguid_i.obj
 0002:000066d8       _GUID_DEVCLASS_TAPEDRIVE   1008c6d8     uuid:cguid_i.obj
 0002:000066e8       _GUID_DEVCLASS_UNKNOWN     1008c6e8     uuid:cguid_i.obj
 0002:000066f8       _GUID_DEVCLASS_UCM         1008c6f8     uuid:cguid_i.obj
 0002:00006708       _GUID_DEVCLASS_USB         1008c708     uuid:cguid_i.obj
 0002:00006718       _GUID_DEVCLASS_VOLUME      1008c718     uuid:cguid_i.obj
 0002:00006728       _GUID_DEVCLASS_VOLUMESNAPSHOT 1008c728     uuid:cguid_i.obj
 0002:00006738       _GUID_DEVCLASS_WCEUSBS     1008c738     uuid:cguid_i.obj
 0002:00006748       _GUID_DEVCLASS_WPD         1008c748     uuid:cguid_i.obj
 0002:00006758       _GUID_DEVCLASS_FSFILTER_TOP 1008c758     uuid:cguid_i.obj
 0002:00006768       _GUID_DEVCLASS_FSFILTER_ACTIVITYMONITOR 1008c768     uuid:cguid_i.obj
 0002:00006778       _GUID_DEVCLASS_FSFILTER_UNDELETE 1008c778     uuid:cguid_i.obj
 0002:00006788       _GUID_DEVCLASS_FSFILTER_ANTIVIRUS 1008c788     uuid:cguid_i.obj
 0002:00006798       _GUID_DEVCLASS_FSFILTER_REPLICATION 1008c798     uuid:cguid_i.obj
 0002:000067a8       _GUID_DEVCLASS_FSFILTER_CONTINUOUSBACKUP 1008c7a8     uuid:cguid_i.obj
 0002:000067b8       _GUID_DEVCLASS_FSFILTER_CONTENTSCREENER 1008c7b8     uuid:cguid_i.obj
 0002:000067c8       _GUID_DEVCLASS_FSFILTER_QUOTAMANAGEMENT 1008c7c8     uuid:cguid_i.obj
 0002:000067d8       _GUID_DEVCLASS_FSFILTER_SYSTEMRECOVERY 1008c7d8     uuid:cguid_i.obj
 0002:000067e8       _GUID_DEVCLASS_FSFILTER_CFSMETADATASERVER 1008c7e8     uuid:cguid_i.obj
 0002:000067f8       _GUID_DEVCLASS_FSFILTER_HSM 1008c7f8     uuid:cguid_i.obj
 0002:00006808       _GUID_DEVCLASS_FSFILTER_COMPRESSION 1008c808     uuid:cguid_i.obj
 0002:00006818       _GUID_DEVCLASS_FSFILTER_ENCRYPTION 1008c818     uuid:cguid_i.obj
 0002:00006828       _GUID_DEVCLASS_FSFILTER_VIRTUALIZATION 1008c828     uuid:cguid_i.obj
 0002:00006838       _GUID_DEVCLASS_FSFILTER_PHYSICALQUOTAMANAGEMENT 1008c838     uuid:cguid_i.obj
 0002:00006848       _GUID_DEVCLASS_FSFILTER_OPENFILEBACKUP 1008c848     uuid:cguid_i.obj
 0002:00006858       _GUID_DEVCLASS_FSFILTER_SECURITYENHANCER 1008c858     uuid:cguid_i.obj
 0002:00006868       _GUID_DEVCLASS_FSFILTER_COPYPROTECTION 1008c868     uuid:cguid_i.obj
 0002:00006878       _GUID_DEVCLASS_FSFILTER_BOTTOM 1008c878     uuid:cguid_i.obj
 0002:00006888       _GUID_DEVCLASS_FSFILTER_SYSTEM 1008c888     uuid:cguid_i.obj
 0002:00006898       _GUID_DEVCLASS_FSFILTER_INFRASTRUCTURE 1008c898     uuid:cguid_i.obj
 0002:000068a8       _GUID_DEVINTERFACE_DISK    1008c8a8     uuid:cguid_i.obj
 0002:000068b8       _GUID_DEVINTERFACE_CDROM   1008c8b8     uuid:cguid_i.obj
 0002:000068c8       _GUID_DEVINTERFACE_PARTITION 1008c8c8     uuid:cguid_i.obj
 0002:000068d8       _GUID_DEVINTERFACE_TAPE    1008c8d8     uuid:cguid_i.obj
 0002:000068e8       _GUID_DEVINTERFACE_WRITEONCEDISK 1008c8e8     uuid:cguid_i.obj
 0002:000068f8       _GUID_DEVINTERFACE_VOLUME  1008c8f8     uuid:cguid_i.obj
 0002:00006908       _GUID_DEVINTERFACE_MEDIUMCHANGER 1008c908     uuid:cguid_i.obj
 0002:00006918       _GUID_DEVINTERFACE_FLOPPY  1008c918     uuid:cguid_i.obj
 0002:00006928       _GUID_DEVINTERFACE_CDCHANGER 1008c928     uuid:cguid_i.obj
 0002:00006938       _GUID_DEVINTERFACE_STORAGEPORT 1008c938     uuid:cguid_i.obj
 0002:00006948       _GUID_DEVINTERFACE_VMLUN   1008c948     uuid:cguid_i.obj
 0002:00006958       _GUID_DEVINTERFACE_SES     1008c958     uuid:cguid_i.obj
 0002:00006968       _GUID_DEVINTERFACE_SERVICE_VOLUME 1008c968     uuid:cguid_i.obj
 0002:00006978       _GUID_DEVINTERFACE_HIDDEN_VOLUME 1008c978     uuid:cguid_i.obj
 0002:00006988       _GUID_DEVINTERFACE_UNIFIED_ACCESS_RPMB 1008c988     uuid:cguid_i.obj
 0002:00006998       _GUID_DEVINTERFACE_SCM_PHYSICAL_DEVICE 1008c998     uuid:cguid_i.obj
 0002:000069a8       _GUID_SCM_PD_HEALTH_NOTIFICATION 1008c9a8     uuid:cguid_i.obj
 0002:000069b8       _GUID_SCM_PD_PASSTHROUGH_INVDIMM 1008c9b8     uuid:cguid_i.obj
 0002:000069c8       _GUID_DEVINTERFACE_COMPORT 1008c9c8     uuid:cguid_i.obj
 0002:000069d8       _GUID_DEVINTERFACE_SERENUM_BUS_ENUMERATOR 1008c9d8     uuid:cguid_i.obj
 0002:000069e8       _CLSID_StdURLMoniker       1008c9e8     uuid:ieguids.obj
 0002:000069f8       _CLSID_StdURLProtocol      1008c9f8     uuid:ieguids.obj
 0002:00006a08       _CLSID_HttpProtocol        1008ca08     uuid:ieguids.obj
 0002:00006a18       _CLSID_FtpProtocol         1008ca18     uuid:ieguids.obj
 0002:00006a28       _CLSID_GopherProtocol      1008ca28     uuid:ieguids.obj
 0002:00006a38       _CLSID_HttpSProtocol       1008ca38     uuid:ieguids.obj
 0002:00006a48       _CLSID_MkProtocol          1008ca48     uuid:ieguids.obj
 0002:00006a58       _CLSID_FileProtocol        1008ca58     uuid:ieguids.obj
 0002:00006a68       _CLSID_PSUrlMonProxy       1008ca68     uuid:ieguids.obj
 0002:00006a78       _CLSID_UrlMkBindCtx        1008ca78     uuid:ieguids.obj
 0002:00006a88       _CLSID_ResProtocol         1008ca88     uuid:ieguids.obj
 0002:00006a98       _CLSID_AboutProtocol       1008ca98     uuid:ieguids.obj
 0002:00006aa8       _CLSID_JSProtocol          1008caa8     uuid:ieguids.obj
 0002:00006ab8       _CLSID_MailtoProtocol      1008cab8     uuid:ieguids.obj
 0002:00006ac8       _CLSID_TBAuthProtocol      1008cac8     uuid:ieguids.obj
 0002:00006ad8       _CLSID_IE4_PROTOCOLS       1008cad8     uuid:ieguids.obj
 0002:00006ae8       _IID_IAsyncMoniker         1008cae8     uuid:ieguids.obj
 0002:00006af8       _IID_IBindStatusCallbackHolder 1008caf8     uuid:ieguids.obj
 0002:00006b08       _IID_IAsyncBindCtx         1008cb08     uuid:ieguids.obj
 0002:00006b18       _IID_IBindStatusCallbackMsg 1008cb18     uuid:ieguids.obj
 0002:00006b28       _IID_IDebugRegister        1008cb28     uuid:ieguids.obj
 0002:00006b38       _IID_IDebugOut             1008cb38     uuid:ieguids.obj
 0002:00006b48       _CLSID_StdNotificationMgr  1008cb48     uuid:ieguids.obj
 0002:00006b58       _CLSID_WebCheckDefaultProcess 1008cb58     uuid:ieguids.obj
 0002:00006b68       _IID_IEnumPropertyMap      1008cb68     uuid:ieguids.obj
 0002:00006b78       _IID_IPropertyMap          1008cb78     uuid:ieguids.obj
 0002:00006b88       _IID_INotification         1008cb88     uuid:ieguids.obj
 0002:00006b98       _IID_INotificationMgr      1008cb98     uuid:ieguids.obj
 0002:00006ba8       _IID_INotificationSink     1008cba8     uuid:ieguids.obj
 0002:00006bb8       _IID_IScheduleGroup        1008cbb8     uuid:ieguids.obj
 0002:00006bc8       _IID_INotificationReport   1008cbc8     uuid:ieguids.obj
 0002:00006bd8       _IID_IEnumNotification     1008cbd8     uuid:ieguids.obj
 0002:00006be8       _IID_IEnumScheduleGroup    1008cbe8     uuid:ieguids.obj
 0002:00006bf8       _IID_IEnumNotificationSinkItem 1008cbf8     uuid:ieguids.obj
 0002:00006c08       _IID_INotificationHelper   1008cc08     uuid:ieguids.obj
 0002:00006c18       _IID_INotificationPing     1008cc18     uuid:ieguids.obj
 0002:00006c28       _IID_INotificationRunning  1008cc28     uuid:ieguids.obj
 0002:00006c38       _IID_INotificationProcessMgr0 1008cc38     uuid:ieguids.obj
 0002:00006c48       _IID_IOInet                1008cc48     uuid:ieguids.obj
 0002:00006c58       _IID_IOInetBindInfo        1008cc58     uuid:ieguids.obj
 0002:00006c68       _IID_IOInetBindClient      1008cc68     uuid:ieguids.obj
 0002:00006c78       _IID_IOInetProtocolRoot    1008cc78     uuid:ieguids.obj
 0002:00006c88       _IID_IOInetProtocol        1008cc88     uuid:ieguids.obj
 0002:00006c98       _IID_IOInetProtocolSink    1008cc98     uuid:ieguids.obj
 0002:00006ca8       _IID_IOInetSession         1008cca8     uuid:ieguids.obj
 0002:00006cb8       _IID_IOInetThreadSwitch    1008ccb8     uuid:ieguids.obj
 0002:00006cc8       _IID_IOInetCache           1008ccc8     uuid:ieguids.obj
 0002:00006cd8       _IID_IOInetPriority        1008ccd8     uuid:ieguids.obj
 0002:00006ce8       _IID_IOInetProtocolInfo    1008cce8     uuid:ieguids.obj
 0002:00006cf8       _CLSID_GLOBAL_BROADCAST    1008ccf8     uuid:ieguids.obj
 0002:00006d08       _CLSID_PROCESS_BROADCAST   1008cd08     uuid:ieguids.obj
 0002:00006d18       _CLSID_THREAD_BROADCAST    1008cd18     uuid:ieguids.obj
 0002:00006d28       _CLSID_1                   1008cd28     uuid:ieguids.obj
 0002:00006d38       _CLSID_2                   1008cd38     uuid:ieguids.obj
 0002:00006d48       _CLSID_3                   1008cd48     uuid:ieguids.obj
 0002:00006d58       _CLSID_4                   1008cd58     uuid:ieguids.obj
 0002:00006d68       _CLSID_5                   1008cd68     uuid:ieguids.obj
 0002:00006d78       _CLSID_6                   1008cd78     uuid:ieguids.obj
 0002:00006d88       _CLSID_7                   1008cd88     uuid:ieguids.obj
 0002:00006d98       _CLSID_8                   1008cd98     uuid:ieguids.obj
 0002:00006da8       _CLSID_9                   1008cda8     uuid:ieguids.obj
 0002:00006db8       _CLSID_a                   1008cdb8     uuid:ieguids.obj
 0002:00006dc8       _CLSID_b                   1008cdc8     uuid:ieguids.obj
 0002:00006dd8       _CLSID_c                   1008cdd8     uuid:ieguids.obj
 0002:00006de8       _CLSID_d                   1008cde8     uuid:ieguids.obj
 0002:00006df8       _NOTIFICATIONTYPE_ITEM_START 1008cdf8     uuid:ieguids.obj
 0002:00006e08       _NOTIFICATIONTYPE_ITEM_RESTART 1008ce08     uuid:ieguids.obj
 0002:00006e18       _NOTIFICATIONTYPE_ITEM_DONE 1008ce18     uuid:ieguids.obj
 0002:00006e28       _NOTIFICATIONTYPE_GROUP_START 1008ce28     uuid:ieguids.obj
 0002:00006e38       _NOTIFICATIONTYPE_GROUP_RESTART 1008ce38     uuid:ieguids.obj
 0002:00006e48       _NOTIFICATIONTYPE_GROUP_DONE 1008ce48     uuid:ieguids.obj
 0002:00006e58       _NOTIFICATIONTYPE_i6       1008ce58     uuid:ieguids.obj
 0002:00006e68       _NOTIFICATIONTYPE_i7       1008ce68     uuid:ieguids.obj
 0002:00006e78       _NOTIFICATIONTYPE_i8       1008ce78     uuid:ieguids.obj
 0002:00006e88       _NOTIFICATIONTYPE_i9       1008ce88     uuid:ieguids.obj
 0002:00006e98       _NOTIFICATIONTYPE_iA       1008ce98     uuid:ieguids.obj
 0002:00006ea8       _NOTIFICATIONTYPE_iB       1008cea8     uuid:ieguids.obj
 0002:00006eb8       _NOTIFICATIONTYPE_iC       1008ceb8     uuid:ieguids.obj
 0002:00006ec8       _NOTIFICATIONTYPE_iD       1008cec8     uuid:ieguids.obj
 0002:00006ed8       _NOTIFICATIONTYPE_iE       1008ced8     uuid:ieguids.obj
 0002:00006ee8       _NOTIFICATIONTYPE_iF       1008cee8     uuid:ieguids.obj
 0002:00006ef8       _NOTFCOOKIE_SCHEDULE_GROUP_DAILY 1008cef8     uuid:ieguids.obj
 0002:00006f08       _NOTFCOOKIE_SCHEDULE_GROUP_WEEKLY 1008cf08     uuid:ieguids.obj
 0002:00006f18       _NOTFCOOKIE_SCHEDULE_GROUP_MONTHLY 1008cf18     uuid:ieguids.obj
 0002:00006f28       _NOTFCOOKIE_SCHEDULE_GROUP_MANUAL 1008cf28     uuid:ieguids.obj
 0002:00006f38       _NOTIFICATIONTYPE_NULL     1008cf38     uuid:ieguids.obj
 0002:00006f48       _NOTIFICATIONTYPE_ANOUNCMENT 1008cf48     uuid:ieguids.obj
 0002:00006f58       _NOTIFICATIONTYPE_TASK     1008cf58     uuid:ieguids.obj
 0002:00006f68       _NOTIFICATIONTYPE_ALERT    1008cf68     uuid:ieguids.obj
 0002:00006f78       _NOTIFICATIONTYPE_INET_IDLE 1008cf78     uuid:ieguids.obj
 0002:00006f88       _NOTIFICATIONTYPE_INET_OFFLINE 1008cf88     uuid:ieguids.obj
 0002:00006f98       _NOTIFICATIONTYPE_INET_ONLINE 1008cf98     uuid:ieguids.obj
 0002:00006fa8       _NOTIFICATIONTYPE_TASKS_SUSPEND 1008cfa8     uuid:ieguids.obj
 0002:00006fb8       _NOTIFICATIONTYPE_TASKS_RESUME 1008cfb8     uuid:ieguids.obj
 0002:00006fc8       _NOTIFICATIONTYPE_TASKS_ABORT 1008cfc8     uuid:ieguids.obj
 0002:00006fd8       _NOTIFICATIONTYPE_TASKS_COMPLETED 1008cfd8     uuid:ieguids.obj
 0002:00006fe8       _NOTIFICATIONTYPE_TASKS_PROGRESS 1008cfe8     uuid:ieguids.obj
 0002:00006ff8       _NOTIFICATIONTYPE_AGENT_START 1008cff8     uuid:ieguids.obj
 0002:00007008       _NOTIFICATIONTYPE_BEGIN_REPORT 1008d008     uuid:ieguids.obj
 0002:00007018       _NOTIFICATIONTYPE_END_REPORT 1008d018     uuid:ieguids.obj
 0002:00007028       _NOTIFICATIONTYPE_AGENT_INIT 1008d028     uuid:ieguids.obj
 0002:00007038       _NOTIFICATIONTYPE_CONNECT_TO_INTERNET 1008d038     uuid:ieguids.obj
 0002:00007048       _NOTIFICATIONTYPE_DISCONNECT_FROM_INTERNET 1008d048     uuid:ieguids.obj
 0002:00007058       _NOTIFICATIONTYPE_CONFIG_CHANGED 1008d058     uuid:ieguids.obj
 0002:00007068       _NOTIFICATIONTYPE_PROGRESS_REPORT 1008d068     uuid:ieguids.obj
 0002:00007078       _NOTIFICATIONTYPE_USER_IDLE_BEGIN 1008d078     uuid:ieguids.obj
 0002:00007088       _NOTIFICATIONTYPE_USER_IDLE_END 1008d088     uuid:ieguids.obj
 0002:00007098       _NOTIFICATIONTYPE_TASKS_STARTED 1008d098     uuid:ieguids.obj
 0002:000070a8       _NOTIFICATIONTYPE_TASKS_ERROR 1008d0a8     uuid:ieguids.obj
 0002:000070b8       _NOTIFICATIONTYPE_d        1008d0b8     uuid:ieguids.obj
 0002:000070c8       _NOTIFICATIONTYPE_e        1008d0c8     uuid:ieguids.obj
 0002:000070d8       _NOTIFICATIONTYPE_f        1008d0d8     uuid:ieguids.obj
 0002:000070e8       _NOTIFICATIONTYPE_11       1008d0e8     uuid:ieguids.obj
 0002:000070f8       _NOTIFICATIONTYPE_12       1008d0f8     uuid:ieguids.obj
 0002:00007108       _NOTIFICATIONTYPE_13       1008d108     uuid:ieguids.obj
 0002:00007118       _NOTIFICATIONTYPE_14       1008d118     uuid:ieguids.obj
 0002:00007128       _NOTIFICATIONTYPE_15       1008d128     uuid:ieguids.obj
 0002:00007138       _NOTIFICATIONTYPE_START_0  1008d138     uuid:ieguids.obj
 0002:00007148       _NOTIFICATIONTYPE_START_1  1008d148     uuid:ieguids.obj
 0002:00007158       _NOTIFICATIONTYPE_START_2  1008d158     uuid:ieguids.obj
 0002:00007168       _NOTIFICATIONTYPE_START_3  1008d168     uuid:ieguids.obj
 0002:00007178       _NOTIFICATIONTYPE_START_4  1008d178     uuid:ieguids.obj
 0002:00007188       _NOTIFICATIONTYPE_START_5  1008d188     uuid:ieguids.obj
 0002:00007198       _NOTIFICATIONTYPE_START_6  1008d198     uuid:ieguids.obj
 0002:000071a8       _NOTIFICATIONTYPE_START_7  1008d1a8     uuid:ieguids.obj
 0002:000071b8       _NOTIFICATIONTYPE_START_8  1008d1b8     uuid:ieguids.obj
 0002:000071c8       _NOTIFICATIONTYPE_START_9  1008d1c8     uuid:ieguids.obj
 0002:000071d8       _NOTIFICATIONTYPE_START_A  1008d1d8     uuid:ieguids.obj
 0002:000071e8       _NOTIFICATIONTYPE_START_B  1008d1e8     uuid:ieguids.obj
 0002:000071f8       _NOTIFICATIONTYPE_START_C  1008d1f8     uuid:ieguids.obj
 0002:00007208       _NOTIFICATIONTYPE_START_D  1008d208     uuid:ieguids.obj
 0002:00007218       _NOTIFICATIONTYPE_START_E  1008d218     uuid:ieguids.obj
 0002:00007228       _NOTIFICATIONTYPE_START_F  1008d228     uuid:ieguids.obj
 0002:00007238       _CLSID_NotificaitonTest1   1008d238     uuid:ieguids.obj
 0002:00007248       _CLSID_NotificaitonTest2   1008d248     uuid:ieguids.obj
 0002:00007258       _CLSID_NotificaitonTest3   1008d258     uuid:ieguids.obj
 0002:00007268       _CLSID_NotificaitonTest4   1008d268     uuid:ieguids.obj
 0002:00007278       _CLSID_CdlProtocol         1008d278     uuid:ieguids.obj
 0002:00007288       _CLSID_ClassInstallFilter  1008d288     uuid:ieguids.obj
 0002:00007298       _LIBID_Accessibility       1008d298     uuid:ieguids.obj
 0002:000072a8       _IID_IAccessible           1008d2a8     uuid:ieguids.obj
 0002:000072b8       _IIS_ControlAccessible     1008d2b8     uuid:ieguids.obj
 0002:000072c8       _SID_SContainerDispatch    1008d2c8     uuid:ieguids.obj
 0002:000072d8       _SID_SDataPathBrowser      1008d2d8     uuid:ieguids.obj
 0002:000072e8       _GUID_PathProperty         1008d2e8     uuid:ieguids.obj
 0002:000072f8       _GUID_HasPathProperties    1008d2f8     uuid:ieguids.obj
 0002:00007308       _CLSID_StdHlink            1008d308     uuid:ieguids.obj
 0002:00007318       _CLSID_StdHlinkBrowseContext 1008d318     uuid:ieguids.obj
 0002:00007328       _OLE_DATAPATH_BMP          1008d328     uuid:ieguids.obj
 0002:00007338       _OLE_DATAPATH_DIB          1008d338     uuid:ieguids.obj
 0002:00007348       _OLE_DATAPATH_WMF          1008d348     uuid:ieguids.obj
 0002:00007358       _OLE_DATAPATH_ENHMF        1008d358     uuid:ieguids.obj
 0002:00007368       _OLE_DATAPATH_GIF          1008d368     uuid:ieguids.obj
 0002:00007378       _OLE_DATAPATH_JPEG         1008d378     uuid:ieguids.obj
 0002:00007388       _OLE_DATAPATH_TIFF         1008d388     uuid:ieguids.obj
 0002:00007398       _OLE_DATAPATH_XBM          1008d398     uuid:ieguids.obj
 0002:000073a8       _OLE_DATAPATH_PCX          1008d3a8     uuid:ieguids.obj
 0002:000073b8       _OLE_DATAPATH_PICT         1008d3b8     uuid:ieguids.obj
 0002:000073c8       _OLE_DATAPATH_CGM          1008d3c8     uuid:ieguids.obj
 0002:000073d8       _OLE_DATAPATH_EPS          1008d3d8     uuid:ieguids.obj
 0002:000073e8       _OLE_DATAPATH_COMMONIMAGE  1008d3e8     uuid:ieguids.obj
 0002:000073f8       _OLE_DATAPATH_ALLIMAGE     1008d3f8     uuid:ieguids.obj
 0002:00007408       _OLE_DATAPATH_AVI          1008d408     uuid:ieguids.obj
 0002:00007418       _OLE_DATAPATH_MPEG         1008d418     uuid:ieguids.obj
 0002:00007428       _OLE_DATAPATH_QUICKTIME    1008d428     uuid:ieguids.obj
 0002:00007438       _OLE_DATAPATH_BASICAUDIO   1008d438     uuid:ieguids.obj
 0002:00007448       _OLE_DATAPATH_MIDI         1008d448     uuid:ieguids.obj
 0002:00007458       _OLE_DATAPATH_WAV          1008d458     uuid:ieguids.obj
 0002:00007468       _OLE_DATAPATH_RIFF         1008d468     uuid:ieguids.obj
 0002:00007478       _OLE_DATAPATH_SOUND        1008d478     uuid:ieguids.obj
 0002:00007488       _OLE_DATAPATH_VIDEO        1008d488     uuid:ieguids.obj
 0002:00007498       _OLE_DATAPATH_ALLMM        1008d498     uuid:ieguids.obj
 0002:000074a8       _OLE_DATAPATH_ANSITEXT     1008d4a8     uuid:ieguids.obj
 0002:000074b8       _OLE_DATAPATH_UNICODE      1008d4b8     uuid:ieguids.obj
 0002:000074c8       _OLE_DATAPATH_RTF          1008d4c8     uuid:ieguids.obj
 0002:000074d8       _OLE_DATAPATH_HTML         1008d4d8     uuid:ieguids.obj
 0002:000074e8       _OLE_DATAPATH_POSTSCRIPT   1008d4e8     uuid:ieguids.obj
 0002:000074f8       _OLE_DATAPATH_ALLTEXT      1008d4f8     uuid:ieguids.obj
 0002:00007508       _OLE_DATAPATH_DIF          1008d508     uuid:ieguids.obj
 0002:00007518       _OLE_DATAPATH_SYLK         1008d518     uuid:ieguids.obj
 0002:00007528       _OLE_DATAPATH_BIFF         1008d528     uuid:ieguids.obj
 0002:00007538       _OLE_DATAPATH_PALETTE      1008d538     uuid:ieguids.obj
 0002:00007548       _OLE_DATAPATH_PENDATA      1008d548     uuid:ieguids.obj
 0002:00007558       _FLAGID_Internet           1008d558     uuid:ieguids.obj
 0002:00007568       _ARRAYID_PathProperties    1008d568     uuid:ieguids.obj
 0002:00007578       _CLSID_StdComponentCategoriesMgr 1008d578     uuid:ieguids.obj
 0002:00007588       _CATID_Insertable          1008d588     uuid:ieguids.obj
 0002:00007598       _CATID_Control             1008d598     uuid:ieguids.obj
 0002:000075a8       _CATID_Programmable        1008d5a8     uuid:ieguids.obj
 0002:000075b8       _CATID_IsShortcut          1008d5b8     uuid:ieguids.obj
 0002:000075c8       _CATID_NeverShowExt        1008d5c8     uuid:ieguids.obj
 0002:000075d8       _CATID_DocObject           1008d5d8     uuid:ieguids.obj
 0002:000075e8       _CATID_Printable           1008d5e8     uuid:ieguids.obj
 0002:000075f8       _CATID_RequiresDataPathHost 1008d5f8     uuid:ieguids.obj
 0002:00007608       _CATID_PersistsToMoniker   1008d608     uuid:ieguids.obj
 0002:00007618       _CATID_PersistsToStorage   1008d618     uuid:ieguids.obj
 0002:00007628       _CATID_PersistsToStreamInit 1008d628     uuid:ieguids.obj
 0002:00007638       _CATID_PersistsToStream    1008d638     uuid:ieguids.obj
 0002:00007648       _CATID_PersistsToMemory    1008d648     uuid:ieguids.obj
 0002:00007658       _CATID_PersistsToFile      1008d658     uuid:ieguids.obj
 0002:00007668       _CATID_PersistsToPropertyBag 1008d668     uuid:ieguids.obj
 0002:00007678       _CATID_InternetAware       1008d678     uuid:ieguids.obj
 0002:00007688       _CATID_SafeForScripting    1008d688     uuid:ieguids.obj
 0002:00007698       _CATID_SafeForInitializing 1008d698     uuid:ieguids.obj
 0002:000076a8       _CATID_DesignTimeUIActivatableControl 1008d6a8     uuid:ieguids.obj
 0002:000076b8       _CATID_AppContainerCompatible 1008d6b8     uuid:ieguids.obj
 0002:000076c8       _CATID_ExtensionValidation 1008d6c8     uuid:ieguids.obj
 0002:000076d8       _CLSID_IImgCtx             1008d6d8     uuid:ieguids.obj
 0002:000076e8       _IID_IImgCtx               1008d6e8     uuid:ieguids.obj
 0002:000076f8       _CLSID_IImageDecodeFilter  1008d6f8     uuid:ieguids.obj
 0002:00007708       _CGID_MSHTML               1008d708     uuid:ieguids.obj
 0002:00007718       _CLSID_MHTMLDocument       1008d718     uuid:ieguids.obj
 0002:00007728       _CLSID_HTADocument         1008d728     uuid:ieguids.obj
 0002:00007738       _CLSID_HTMLApplication     1008d738     uuid:ieguids.obj
 0002:00007748       _CLSID_HTMLPluginDocument  1008d748     uuid:ieguids.obj
 0002:00007758       _CGID_DocHostCommandHandler 1008d758     uuid:ieguids.obj
 0002:00007768       _SID_SHTMLEditServices     1008d768     uuid:ieguids.obj
 0002:00007778       _CGID_ScriptSite           1008d778     uuid:ieguids.obj
 0002:00007788       _CLSID_IEXMLDocument       1008d788     uuid:ieguids.obj
 0002:00007798       _CLSID_SVGDocument         1008d798     uuid:ieguids.obj
 0002:000077a8       _CLSID_XHTMLDocument       1008d7a8     uuid:ieguids.obj
 0002:000077b8       _CLSID_TDC                 1008d7b8     uuid:ieguids.obj
 0002:000077c8       _BFID_MONOCHROME           1008d7c8     uuid:ieguids.obj
 0002:000077d8       _BFID_RGB_4                1008d7d8     uuid:ieguids.obj
 0002:000077e8       _BFID_RGB_8                1008d7e8     uuid:ieguids.obj
 0002:000077f8       _BFID_RGB_555              1008d7f8     uuid:ieguids.obj
 0002:00007808       _BFID_RGB_565              1008d808     uuid:ieguids.obj
 0002:00007818       _BFID_RGB_24               1008d818     uuid:ieguids.obj
 0002:00007828       _BFID_RGB_32               1008d828     uuid:ieguids.obj
 0002:00007838       _BFID_RGBA_32              1008d838     uuid:ieguids.obj
 0002:00007848       _BFID_GRAY_8               1008d848     uuid:ieguids.obj
 0002:00007858       _BFID_GRAY_16              1008d858     uuid:ieguids.obj
 0002:00007868       _CLSID_IntDitherer         1008d868     uuid:ieguids.obj
 0002:00007878       _IID_IIntDitherer          1008d878     uuid:ieguids.obj
 0002:00007888       _NAMEDTIMER_DRAW           1008d888     uuid:ieguids.obj
 0002:00007898       _CLSID_SoftDistExt         1008d898     uuid:ieguids.obj
 0002:000078a8       _CLSID_IActiveXSafetyProvider 1008d8a8     uuid:ieguids.obj
 0002:000078b8       _CLSID_InternetSecurityManager 1008d8b8     uuid:ieguids.obj
 0002:000078c8       _CLSID_InternetZoneManager 1008d8c8     uuid:ieguids.obj
 0002:000078d8       _GUID_CUSTOM_LOCALMACHINEZONEUNLOCKED 1008d8d8     uuid:ieguids.obj
 0002:000078e8       _CLSID_PersistentZoneIdentifier 1008d8e8     uuid:ieguids.obj
 0002:000078f8       _CLSID_HTMLLoadOptions     1008d8f8     uuid:ieguids.obj
 0002:00007908       _CLSID_SubscriptionThrottler 1008d908     uuid:ieguids.obj
 0002:00007918       _CGID_DownloadHost         1008d918     uuid:ieguids.obj
 0002:00007928       _CGID_InternetExplorer     1008d928     uuid:ieguids.obj
 0002:00007938       _SID_SVersionHost          1008d938     uuid:ieguids.obj
 0002:00007948       _CLSID_XFeedsManager       1008d948     uuid:ieguids.obj
 0002:00007958       _OID_INIPropStorage        1008d958     uuid:ieguids.obj
 0002:00007968       _SID_SNewWindowManagerDown 1008d968     uuid:ieguids.obj
 0002:00007978       _IID_IDocObjectService     1008d978     uuid:ieguids.obj
 0002:00007988       _IID_IOpsProfileSimple     1008d988     uuid:ieguids.obj
 0002:00007998       _IID_ITridentService3      1008d998     uuid:ieguids.obj
 0002:000079a8       _IID_ITridentService4      1008d9a8     uuid:ieguids.obj
 0002:000079b8       _IID_ITridentService5      1008d9b8     uuid:ieguids.obj
 0002:000079c8       _UUID_SharedRendertargetData 1008d9c8     uuid:ieguids.obj
 0002:000079d8       _GUID_ATLVer30             1008d9d8     atls:atlbase.obj
 0002:000079e8       _GUID_ATLVer70             1008d9e8     atls:atlbase.obj
 0002:000079f8       _GUID_ATLVer100            1008d9f8     atls:atlbase.obj
 0002:00007a08       _GUID_ATLVer110            1008da08     atls:atlbase.obj
 0002:00007a18       ??_C@_1IC@ONKHOIDK@?$AAE?$AAR?$AAR?$AAO?$AAR?$AA?5?$AA?3?$AA?5?$AAU?$AAn?$AAa?$AAb?$AAl?$AAe?$AA?5@ 1008da18     atls:atlbase.obj
 0002:00007a9c       ??_C@_13HADIAKP@?$AAS@     1008da9c     atls:stdafx.obj
 0002:00007aa0       ??_C@_13LHMFKAAD@?$AAM@    1008daa0     atls:stdafx.obj
 0002:00007aa4       ??_C@_13MKMNOPIJ@?$AAD@    1008daa4     atls:stdafx.obj
 0002:00007aa8       ??_C@_13OPKGLAFF@?$AAB@    1008daa8     atls:stdafx.obj
 0002:00007aac       ??_C@_17LLMMEOJD@?$AAV?$AAa?$AAl@ 1008daac     atls:stdafx.obj
 0002:00007ab4       ??_C@_1BI@JFAIJMHL@?$AAF?$AAo?$AAr?$AAc?$AAe?$AAR?$AAe?$AAm?$AAo?$AAv?$AAe@ 1008dab4     atls:stdafx.obj
 0002:00007acc       ??_C@_1BC@GCKHIPE@?$AAN?$AAo?$AAR?$AAe?$AAm?$AAo?$AAv?$AAe@ 1008dacc     atls:stdafx.obj
 0002:00007ae0       ??_C@_1O@JDLOHAN@?$AAD?$AAe?$AAl?$AAe?$AAt?$AAe@ 1008dae0     atls:stdafx.obj
 0002:00007af0       ??_C@_1CA@ONGMEOAB@?$AAa?$AAt?$AAl?$AAT?$AAr?$AAa?$AAc?$AAe?$AAG?$AAe?$AAn?$AAe?$AAr?$AAa?$AAl@ 1008daf0     atls:stdafx.obj
 0002:00007b10       ??_C@_1BI@MAFGHOEE@?$AAa?$AAt?$AAl?$AAT?$AAr?$AAa?$AAc?$AAe?$AAC?$AAO?$AAM@ 1008db10     atls:stdafx.obj
 0002:00007b28       ??_C@_1BG@FPLJJEMF@?$AAa?$AAt?$AAl?$AAT?$AAr?$AAa?$AAc?$AAe?$AAQ?$AAI@ 1008db28     atls:stdafx.obj
 0002:00007b40       ??_C@_1CE@NIAEAIDK@?$AAa?$AAt?$AAl?$AAT?$AAr?$AAa?$AAc?$AAe?$AAR?$AAe?$AAg?$AAi?$AAs?$AAt?$AAr@ 1008db40     atls:stdafx.obj
 0002:00007b64       ??_C@_1CC@BNHGJFNK@?$AAa?$AAt?$AAl?$AAT?$AAr?$AAa?$AAc?$AAe?$AAR?$AAe?$AAf?$AAc?$AAo?$AAu?$AAn@ 1008db64     atls:stdafx.obj
 0002:00007b88       ??_C@_1CE@NAJDPMNB@?$AAa?$AAt?$AAl?$AAT?$AAr?$AAa?$AAc?$AAe?$AAW?$AAi?$AAn?$AAd?$AAo?$AAw?$AAi@ 1008db88     atls:stdafx.obj
 0002:00007bac       ??_C@_1CC@IMNJGBED@?$AAa?$AAt?$AAl?$AAT?$AAr?$AAa?$AAc?$AAe?$AAC?$AAo?$AAn?$AAt?$AAr?$AAo?$AAl@ 1008dbac     atls:stdafx.obj
 0002:00007bd0       ??_C@_1CA@OMOMONMN@?$AAa?$AAt?$AAl?$AAT?$AAr?$AAa?$AAc?$AAe?$AAH?$AAo?$AAs?$AAt?$AAi?$AAn?$AAg@ 1008dbd0     atls:stdafx.obj
 0002:00007bf0       ??_C@_1CC@JNJJDOOH@?$AAa?$AAt?$AAl?$AAT?$AAr?$AAa?$AAc?$AAe?$AAD?$AAB?$AAC?$AAl?$AAi?$AAe?$AAn@ 1008dbf0     atls:stdafx.obj
 0002:00007c14       ??_C@_1CG@MNMMIOOI@?$AAa?$AAt?$AAl?$AAT?$AAr?$AAa?$AAc?$AAe?$AAD?$AAB?$AAP?$AAr?$AAo?$AAv?$AAi@ 1008dc14     atls:stdafx.obj
 0002:00007c3c       ??_C@_1BO@EFPHNHHN@?$AAa?$AAt?$AAl?$AAT?$AAr?$AAa?$AAc?$AAe?$AAS?$AAn?$AAa?$AAp?$AAi?$AAn@ 1008dc3c     atls:stdafx.obj
 0002:00007c5c       ??_C@_1CA@DMHPIODO@?$AAa?$AAt?$AAl?$AAT?$AAr?$AAa?$AAc?$AAe?$AAN?$AAo?$AAt?$AAI?$AAm?$AAp?$AAl@ 1008dc5c     atls:stdafx.obj
 0002:00007c7c       ??_C@_1CG@KFEEMCDH@?$AAa?$AAt?$AAl?$AAT?$AAr?$AAa?$AAc?$AAe?$AAA?$AAl?$AAl?$AAo?$AAc?$AAa?$AAt@ 1008dc7c     atls:stdafx.obj
 0002:00007ca4       ??_C@_1CE@IMMADNAP@?$AAa?$AAt?$AAl?$AAT?$AAr?$AAa?$AAc?$AAe?$AAE?$AAx?$AAc?$AAe?$AAp?$AAt?$AAi@ 1008dca4     atls:stdafx.obj
 0002:00007cc8       ??_C@_1BK@NCJHOFCL@?$AAa?$AAt?$AAl?$AAT?$AAr?$AAa?$AAc?$AAe?$AAT?$AAi?$AAm?$AAe@ 1008dcc8     atls:stdafx.obj
 0002:00007ce4       ??_C@_1BM@GIKLHLFD@?$AAa?$AAt?$AAl?$AAT?$AAr?$AAa?$AAc?$AAe?$AAC?$AAa?$AAc?$AAh?$AAe@ 1008dce4     atls:stdafx.obj
 0002:00007d00       ??_C@_1CA@PBPHANCD@?$AAa?$AAt?$AAl?$AAT?$AAr?$AAa?$AAc?$AAe?$AAS?$AAt?$AAe?$AAn?$AAc?$AAi?$AAl@ 1008dd00     atls:stdafx.obj
 0002:00007d20       ??_C@_1BO@GMLILNDJ@?$AAa?$AAt?$AAl?$AAT?$AAr?$AAa?$AAc?$AAe?$AAS?$AAt?$AAr?$AAi?$AAn?$AAg@ 1008dd20     atls:stdafx.obj
 0002:00007d40       ??_C@_1BI@OKDLCIEM@?$AAa?$AAt?$AAl?$AAT?$AAr?$AAa?$AAc?$AAe?$AAM?$AAa?$AAp@ 1008dd40     atls:stdafx.obj
 0002:00007d58       ??_C@_1BK@DMHCKHHD@?$AAa?$AAt?$AAl?$AAT?$AAr?$AAa?$AAc?$AAe?$AAU?$AAt?$AAi?$AAl@ 1008dd58     atls:stdafx.obj
 0002:00007d74       ??_C@_1CC@DMMBNCFG@?$AAa?$AAt?$AAl?$AAT?$AAr?$AAa?$AAc?$AAe?$AAS?$AAe?$AAc?$AAu?$AAr?$AAi?$AAt@ 1008dd74     atls:stdafx.obj
 0002:00007d98       ??_C@_1BK@OPAPOCAL@?$AAa?$AAt?$AAl?$AAT?$AAr?$AAa?$AAc?$AAe?$AAS?$AAy?$AAn?$AAc@ 1008dd98     atls:stdafx.obj
 0002:00007db4       ??_C@_1BM@FHAEDBFK@?$AAa?$AAt?$AAl?$AAT?$AAr?$AAa?$AAc?$AAe?$AAI?$AAS?$AAA?$AAP?$AAI@ 1008ddb4     atls:stdafx.obj
 0002:00007dd8       ?nothrow@std@@3Unothrow_t@1@B 1008ddd8     LIBCMTD:std_nothrow.obj
 0002:00007ddc       __pDefaultRawDllMain       1008dddc     LIBCMTD:dll_dllmain.obj
 0002:00007ddc       __pRawDllMain              1008dddc     LIBCMTD:dll_dllmain.obj
 0002:00007e80       ??_C@_0NN@NGPKDKPD@The?5value?5of?5ESP?5was?5not?5proper@ 1008de80     LIBCMTD:error.obj
 0002:00007f60       ??_C@_0BBN@GPMLNJCF@A?5cast?5to?5a?5smaller?5data?5type?5h@ 1008df60     LIBCMTD:error.obj
 0002:00008080       ??_C@_0BN@FFOINMNJ@Stack?5memory?5was?5corrupted?6?$AN@ 1008e080     LIBCMTD:error.obj
 0002:000080a0       ??_C@_0DG@HKJMLLLP@A?5local?5variable?5was?5used?5befor@ 1008e0a0     LIBCMTD:error.obj
 0002:000080d8       ??_C@_0CM@NGINOKPC@Stack?5memory?5around?5_alloca?5was@ 1008e0d8     LIBCMTD:error.obj
 0002:00008104       ??_C@_0BO@GNIAFIKK@Unknown?5Runtime?5Check?5Error?6?$AN@ 1008e104     LIBCMTD:error.obj
 0002:00008128       ??_C@_1GM@OLMCBDMB@?$AAR?$AAu?$AAn?$AAt?$AAi?$AAm?$AAe?$AA?5?$AAC?$AAh?$AAe?$AAc?$AAk?$AA?5?$AAE@ 1008e128     LIBCMTD:error.obj
 0002:00008198       ??_C@_1EA@NFKNIFJP@?$AAR?$AAu?$AAn?$AA?9?$AAT?$AAi?$AAm?$AAe?$AA?5?$AAC?$AAh?$AAe?$AAc?$AAk?$AA?5@ 1008e198     LIBCMTD:error.obj
 0002:000081d8       ??_C@_0BB@PFFGGCJP@Unknown?5Filename@ 1008e1d8     LIBCMTD:error.obj
 0002:000081ec       ??_C@_0BE@GNBOBNCK@Unknown?5Module?5Name@ 1008e1ec     LIBCMTD:error.obj
 0002:00008200       ??_C@_0CA@IODNCDPG@Run?9Time?5Check?5Failure?5?$CD?$CFd?5?9?5?$CFs@ 1008e200     LIBCMTD:error.obj
 0002:00008220       ??_C@_0CG@IAFNJNEE@Stack?5corrupted?5near?5unknown?5va@ 1008e220     LIBCMTD:error.obj
 0002:00008248       ??_C@_05MKKEDADM@?$CF?42X?5@ 1008e248     LIBCMTD:error.obj
 0002:00008250       ??_C@_0EJ@LJKNEOLN@Stack?5area?5around?5_alloca?5memor@ 1008e250     LIBCMTD:error.obj
 0002:0000829c       ??_C@_01EEMJAFIK@?6@       1008e29c     LIBCMTD:error.obj
 0002:000082a0       ??_C@_02LLMPMKNF@?$DO?5@   1008e2a0     LIBCMTD:error.obj
 0002:000082a4       ??_C@_08OMAHNMHJ@?6Data?3?5?$DM@ 1008e2a4     LIBCMTD:error.obj
 0002:000082b0       ??_C@_0CK@DKGBICFE@?6Allocation?5number?5within?5this?5@ 1008e2b0     LIBCMTD:error.obj
 0002:000082dc       ??_C@_07DFDJCKFN@?6Size?3?5@ 1008e2dc     LIBCMTD:error.obj
 0002:000082e4       ??_C@_0N@MHFFIMFG@?6Address?3?50x@ 1008e2e4     LIBCMTD:error.obj
 0002:000082f8       ??_C@_0EI@CLEPFNGI@Stack?5area?5around?5_alloca?5memor@ 1008e2f8     LIBCMTD:error.obj
 0002:00008340       ??_C@_0BK@ODNDAGKB@?$CFs?$CFs?$CFp?$CFs?$CFzd?$CFs?$CFd?$CFs?$CFs?$CFs?$CFs?$CFs@ 1008e340     LIBCMTD:error.obj
 0002:0000835c       ??_C@_0DE@OHJBPMBP@A?5variable?5is?5being?5used?5withou@ 1008e35c     LIBCMTD:error.obj
 0002:000083a4       ??_C@_0BJ@HEGAHDFO@Stack?5pointer?5corruption@ 1008e3a4     LIBCMTD:userapi.obj
 0002:000083c0       ??_C@_0CK@FEGOIOPB@Cast?5to?5smaller?5type?5causing?5lo@ 1008e3c0     LIBCMTD:userapi.obj
 0002:000083ec       ??_C@_0BI@CIGMDCBH@Stack?5memory?5corruption@ 1008e3ec     LIBCMTD:userapi.obj
 0002:00008404       ??_C@_0CK@CNLNOEPB@Local?5variable?5used?5before?5init@ 1008e404     LIBCMTD:userapi.obj
 0002:00008430       ??_C@_0BP@OGBCLIBO@Stack?5around?5_alloca?5corrupted@ 1008e430     LIBCMTD:userapi.obj
 0002:00008498       ??_C@_1EI@MLPKHBGE@?$AAa?$AAp?$AAi?$AA?9?$AAm?$AAs?$AA?9?$AAw?$AAi?$AAn?$AA?9?$AAc?$AAo?$AAr?$AAe@ 1008e498     LIBCMTD:pdblkup.obj
 0002:000084e0       ??_C@_1BK@JHLNAEJL@?$AAa?$AAd?$AAv?$AAa?$AAp?$AAi?$AA3?$AA2?$AA?4?$AAd?$AAl?$AAl@ 1008e4e0     LIBCMTD:pdblkup.obj
 0002:000084fc       ??_C@_0O@COHOBMLB@RegOpenKeyExW@ 1008e4fc     LIBCMTD:pdblkup.obj
 0002:0000850c       ??_C@_0BB@GLNAEDBD@RegQueryValueExW@ 1008e50c     LIBCMTD:pdblkup.obj
 0002:00008520       ??_C@_0M@HLOHPNFA@RegCloseKey@ 1008e520     LIBCMTD:pdblkup.obj
 0002:00008530       ??_C@_1HE@EBEAGLFB@?$AAS?$AAO?$AAF?$AAT?$AAW?$AAA?$AAR?$AAE?$AA?2?$AAW?$AAo?$AAw?$AA6?$AA4?$AA3@ 1008e530     LIBCMTD:pdblkup.obj
 0002:000085a4       ??_C@_1BG@EABPBLLF@?$AAP?$AAr?$AAo?$AAd?$AAu?$AAc?$AAt?$AAD?$AAi?$AAr@ 1008e5a4     LIBCMTD:pdblkup.obj
 0002:000085d8       ??_C@_1BC@JINFINNJ@?$AAM?$AAS?$AAP?$AAD?$AAB?$AA1?$AA4?$AA0@ 1008e5d8     LIBCMTD:pdblkup.obj
 0002:000085ec       ??_C@_0BB@KCIACLNC@PDBOpenValidate5@ 1008e5ec     LIBCMTD:pdblkup.obj
 0002:00008600       ??_C@_01KDCPPGHE@r@        1008e600     LIBCMTD:pdblkup.obj
 0002:00008608       ??_7exception@std@@6B@     1008e608     LIBCMTD:throw_bad_alloc.obj
 0002:00008610       ??_C@_0BC@EOODALEL@Unknown?5exception@ 1008e610     LIBCMTD:throw_bad_alloc.obj
 0002:00008628       ??_7bad_alloc@std@@6B@     1008e628     LIBCMTD:throw_bad_alloc.obj
 0002:00008630       ??_C@_0P@GHFPNOJB@bad?5allocation@ 1008e630     LIBCMTD:throw_bad_alloc.obj
 0002:00008644       ??_7bad_array_new_length@std@@6B@ 1008e644     LIBCMTD:throw_bad_alloc.obj
 0002:0000864c       ??_C@_0BF@KINCDENJ@bad?5array?5new?5length@ 1008e64c     LIBCMTD:throw_bad_alloc.obj
 0002:00008668       ??_7type_info@@6B@         1008e668     LIBCMTD:std_type_info_static.obj
 0002:00008670       ??_C@_0EG@JFCNJADL@d?3?2agent?2_work?23?2s?2src?2vctools?2@ 1008e670     libvcruntimed:std_type_info.obj
 0002:000086b8       ??_C@_1FK@OACNEHHA@?$AAt?$AAo?$AA?9?$AA?$DO?$AA_?$AAW?$AAh?$AAa?$AAt?$AA?5?$AA?$DN?$AA?$DN?$AA?5?$AAn?$AAu@ 1008e6b8     libvcruntimed:std_exception.obj
 0002:00008718       ??_C@_1IM@JDJIHKNJ@?$AAd?$AA?3?$AA?2?$AAa?$AAg?$AAe?$AAn?$AAt?$AA?2?$AA_?$AAw?$AAo?$AAr?$AAk?$AA?2@ 1008e718     libvcruntimed:std_exception.obj
 0002:000087c8       ??_C@_0EO@OEGLKFCL@d?3?2agent?2_work?23?2s?2src?2vctools?2@ 1008e7c8     libvcruntimed:per_thread_data.obj
 0002:0000881c       ??_7bad_exception@std@@6B@ 1008e81c     libvcruntimed:frame.obj
 0002:00008824       ??_C@_0O@DPKOEFFH@bad?5exception@ 1008e824     libvcruntimed:frame.obj
 0002:000089d8       ??_C@_08EHJDFFNH@__based?$CI@ 1008e9d8     libvcruntimed:undname.obj
 0002:000089e4       ??_C@_07KOLFKCDI@__cdecl@  1008e9e4     libvcruntimed:undname.obj
 0002:000089ec       ??_C@_08GHMPAG@__pascal@   1008e9ec     libvcruntimed:undname.obj
 0002:000089f8       ??_C@_09IFJBGAPI@__stdcall@ 1008e9f8     libvcruntimed:undname.obj
 0002:00008a04       ??_C@_0L@NPHFGOKO@__thiscall@ 1008ea04     libvcruntimed:undname.obj
 0002:00008a10       ??_C@_0L@JMKHOMEK@__fastcall@ 1008ea10     libvcruntimed:undname.obj
 0002:00008a1c       ??_C@_0N@BCKKPABJ@__vectorcall@ 1008ea1c     libvcruntimed:undname.obj
 0002:00008a2c       ??_C@_09HIJEGCPM@__clrcall@ 1008ea2c     libvcruntimed:undname.obj
 0002:00008a38       ??_C@_06GHPCKEAG@__eabi@   1008ea38     libvcruntimed:undname.obj
 0002:00008a40       ??_C@_09IOPIDJLG@__swift_1@ 1008ea40     libvcruntimed:undname.obj
 0002:00008a4c       ??_C@_09KFNFGKHF@__swift_2@ 1008ea4c     libvcruntimed:undname.obj
 0002:00008a58       ??_C@_07JOMMBBKO@__ptr64@  1008ea58     libvcruntimed:undname.obj
 0002:00008a60       ??_C@_0L@PILCLIHE@__restrict@ 1008ea60     libvcruntimed:undname.obj
 0002:00008a6c       ??_C@_0M@GFIIJFMG@__unaligned@ 1008ea6c     libvcruntimed:undname.obj
 0002:00008a78       ??_C@_09DHDLOLLB@restrict?$CI@ 1008ea78     libvcruntimed:undname.obj
 0002:00008a82       ??_C@_00CNPNBAHC@@         1008ea82     libvcruntimed:undname.obj
 0002:00008a84       ??_C@_04NIHEBCM@?5new@     1008ea84     libvcruntimed:undname.obj
 0002:00008a8c       ??_C@_07FPCDHGMM@?5delete@ 1008ea8c     libvcruntimed:undname.obj
 0002:00008a94       ??_C@_01NEMOKFLO@?$DN@     1008ea94     libvcruntimed:undname.obj
 0002:00008a98       ??_C@_02GPIOPFAK@?$DO?$DO@ 1008ea98     libvcruntimed:undname.obj
 0002:00008a9c       ??_C@_02FODMEDOG@?$DM?$DM@ 1008ea9c     libvcruntimed:undname.obj
 0002:00008aa0       ??_C@_01DCLJPIOD@?$CB@     1008eaa0     libvcruntimed:undname.obj
 0002:00008aa4       ??_C@_02EGOFBIJA@?$DN?$DN@ 1008eaa4     libvcruntimed:undname.obj
 0002:00008aa8       ??_C@_02FDNJECIE@?$CB?$DN@ 1008eaa8     libvcruntimed:undname.obj
 0002:00008aac       ??_C@_02GPECMEKF@?$FL?$FN@ 1008eaac     libvcruntimed:undname.obj
 0002:00008ab0       ??_C@_08LHJFAFGD@operator@ 1008eab0     libvcruntimed:undname.obj
 0002:00008abc       ??_C@_02HBOOOICD@?9?$DO@   1008eabc     libvcruntimed:undname.obj
 0002:00008ac0       ??_C@_01NBENCBCI@?$CK@     1008eac0     libvcruntimed:undname.obj
 0002:00008ac4       ??_C@_02ECNGHCIF@?$CL?$CL@ 1008eac4     libvcruntimed:undname.obj
 0002:00008ac8       ??_C@_02BAABKJLB@?9?9@     1008eac8     libvcruntimed:undname.obj
 0002:00008acc       ??_C@_01JOAMLHOP@?9@       1008eacc     libvcruntimed:undname.obj
 0002:00008ad0       ??_C@_01MIFGBAGJ@?$CL@     1008ead0     libvcruntimed:undname.obj
 0002:00008ad4       ??_C@_01HNPIGOCE@?$CG@     1008ead4     libvcruntimed:undname.obj
 0002:00008ad8       ??_C@_03MNHNFDLC@?9?$DO?$CK@ 1008ead8     libvcruntimed:undname.obj
 0002:00008adc       ??_C@_01KMDKNFGN@?1@       1008eadc     libvcruntimed:undname.obj
 0002:00008ae0       ??_C@_01FGNFDNOH@?$CF@     1008eae0     libvcruntimed:undname.obj
 0002:00008ae4       ??_C@_01MNNFJEPP@?$DM@     1008eae4     libvcruntimed:undname.obj
 0002:00008ae8       ??_C@_02EHCHHCKH@?$DM?$DN@ 1008eae8     libvcruntimed:undname.obj
 0002:00008aec       ??_C@_01PPODPGHN@?$DO@     1008eaec     libvcruntimed:undname.obj
 0002:00008af0       ??_C@_02EEKDKGMJ@?$DO?$DN@ 1008eaf0     libvcruntimed:undname.obj
 0002:00008af4       ??_C@_01IHBHIGKO@?0@       1008eaf4     libvcruntimed:undname.obj
 0002:00008af8       ??_C@_02HCKGKOFO@?$CI?$CJ@ 1008eaf8     libvcruntimed:undname.obj
 0002:00008afc       ??_C@_01PJKLJHI@?$HO@      1008eafc     libvcruntimed:undname.obj
 0002:00008b00       ??_C@_01JKBOJNNK@?$FO@     1008eb00     libvcruntimed:undname.obj
 0002:00008b04       ??_C@_01DNKMNLPK@?$HM@     1008eb04     libvcruntimed:undname.obj
 0002:00008b08       ??_C@_02PPKAJPJL@?$CG?$CG@ 1008eb08     libvcruntimed:undname.obj
 0002:00008b0c       ??_C@_02NONPIBCD@?$HM?$HM@ 1008eb0c     libvcruntimed:undname.obj
 0002:00008b10       ??_C@_02FPIMKNGF@?$CK?$DN@ 1008eb10     libvcruntimed:undname.obj
 0002:00008b14       ??_C@_02FOEOMHFC@?$CL?$DN@ 1008eb14     libvcruntimed:undname.obj
 0002:00008b18       ??_C@_02FKMDLLOA@?9?$DN@   1008eb18     libvcruntimed:undname.obj
 0002:00008b1c       ??_C@_02FJEHGPIO@?1?$DN@   1008eb1c     libvcruntimed:undname.obj
 0002:00008b20       ??_C@_02FENAOKFI@?$CF?$DN@ 1008eb20     libvcruntimed:undname.obj
 0002:00008b24       ??_C@_03IKFCCPFF@?$DO?$DO?$DN@ 1008eb24     libvcruntimed:undname.obj
 0002:00008b28       ??_C@_03CDNPDDLA@?$DM?$DM?$DN@ 1008eb28     libvcruntimed:undname.obj
 0002:00008b2c       ??_C@_02FGJGFEAB@?$CG?$DN@ 1008eb2c     libvcruntimed:undname.obj
 0002:00008b30       ??_C@_02DHLNPPGH@?$HM?$DN@ 1008eb30     libvcruntimed:undname.obj
 0002:00008b34       ??_C@_02MHEGNOJ@?$FO?$DN@  1008eb34     libvcruntimed:undname.obj
 0002:00008b38       ??_C@_09IFPLHPGF@?$GAvftable?8@ 1008eb38     libvcruntimed:undname.obj
 0002:00008b44       ??_C@_09BLBHBJP@?$GAvbtable?8@ 1008eb44     libvcruntimed:undname.obj
 0002:00008b50       ??_C@_07FEEIOKP@?$GAvcall?8@ 1008eb50     libvcruntimed:undname.obj
 0002:00008b58       ??_C@_08LLFFHHDJ@?$GAtypeof?8@ 1008eb58     libvcruntimed:undname.obj
 0002:00008b64       ??_C@_0BF@KDPPACIK@?$GAlocal?5static?5guard?8@ 1008eb64     libvcruntimed:undname.obj
 0002:00008b7c       ??_C@_08OBABFOLI@?$GAstring?8@ 1008eb7c     libvcruntimed:undname.obj
 0002:00008b88       ??_C@_0BD@JDLKDPAB@?$GAvbase?5destructor?8@ 1008eb88     libvcruntimed:undname.obj
 0002:00008b9c       ??_C@_0BN@DEGPLNFK@?$GAvector?5deleting?5destructor?8@ 1008eb9c     libvcruntimed:undname.obj
 0002:00008bbc       ??_C@_0BO@OBMKPJIG@?$GAdefault?5constructor?5closure?8@ 1008ebbc     libvcruntimed:undname.obj
 0002:00008bdc       ??_C@_0BN@IMDCHIKM@?$GAscalar?5deleting?5destructor?8@ 1008ebdc     libvcruntimed:undname.obj
 0002:00008bfc       ??_C@_0BO@PFGOCPJJ@?$GAvector?5constructor?5iterator?8@ 1008ebfc     libvcruntimed:undname.obj
 0002:00008c1c       ??_C@_0BN@LFPFMEDL@?$GAvector?5destructor?5iterator?8@ 1008ec1c     libvcruntimed:undname.obj
 0002:00008c3c       ??_C@_0CE@IKBNEHA@?$GAvector?5vbase?5constructor?5itera@ 1008ec3c     libvcruntimed:undname.obj
 0002:00008c60       ??_C@_0BL@NILFHHPC@?$GAvirtual?5displacement?5map?8@ 1008ec60     libvcruntimed:undname.obj
 0002:00008c7c       ??_C@_0CB@JONCMFFK@?$GAeh?5vector?5constructor?5iterator@ 1008ec7c     libvcruntimed:undname.obj
 0002:00008ca0       ??_C@_0CA@GCEOPDGL@?$GAeh?5vector?5destructor?5iterator?8@ 1008eca0     libvcruntimed:undname.obj
 0002:00008cc0       ??_C@_0CH@OOJPLCPH@?$GAeh?5vector?5vbase?5constructor?5it@ 1008ecc0     libvcruntimed:undname.obj
 0002:00008ce8       ??_C@_0BL@LLKPOHJI@?$GAcopy?5constructor?5closure?8@ 1008ece8     libvcruntimed:undname.obj
 0002:00008d04       ??_C@_0BA@KBCDOMBN@?$GAudt?5returning?8@ 1008ed04     libvcruntimed:undname.obj
 0002:00008d14       ??_C@_03KLGMFNMG@?$GAEH@   1008ed14     libvcruntimed:undname.obj
 0002:00008d18       ??_C@_05KHLCHHI@?$GARTTI@  1008ed18     libvcruntimed:undname.obj
 0002:00008d20       ??_C@_0BA@KKLDJDLB@?$GAlocal?5vftable?8@ 1008ed20     libvcruntimed:undname.obj
 0002:00008d30       ??_C@_0CE@IIHCMGGL@?$GAlocal?5vftable?5constructor?5clos@ 1008ed30     libvcruntimed:undname.obj
 0002:00008d54       ??_C@_06FHBGPFGH@?5new?$FL?$FN@ 1008ed54     libvcruntimed:undname.obj
 0002:00008d5c       ??_C@_09LBNFPBCA@?5delete?$FL?$FN@ 1008ed5c     libvcruntimed:undname.obj
 0002:00008d68       ??_C@_0P@HJKNJFNN@?$GAomni?5callsig?8@ 1008ed68     libvcruntimed:undname.obj
 0002:00008d78       ??_C@_0BL@CNOONJFP@?$GAplacement?5delete?5closure?8@ 1008ed78     libvcruntimed:undname.obj
 0002:00008d94       ??_C@_0BN@CKNJLHMB@?$GAplacement?5delete?$FL?$FN?5closure?8@ 1008ed94     libvcruntimed:undname.obj
 0002:00008db4       ??_C@_0CG@CFDHKGGD@?$GAmanaged?5vector?5constructor?5ite@ 1008edb4     libvcruntimed:undname.obj
 0002:00008ddc       ??_C@_0CF@IMGKMJNO@?$GAmanaged?5vector?5destructor?5iter@ 1008eddc     libvcruntimed:undname.obj
 0002:00008e04       ??_C@_0CG@HLDDJMAG@?$GAeh?5vector?5copy?5constructor?5ite@ 1008ee04     libvcruntimed:undname.obj
 0002:00008e2c       ??_C@_0CM@FCBBDIGB@?$GAeh?5vector?5vbase?5copy?5construct@ 1008ee2c     libvcruntimed:undname.obj
 0002:00008e58       ??_C@_0BL@CLIPGLGB@?$GAdynamic?5initializer?5for?5?8@ 1008ee58     libvcruntimed:undname.obj
 0002:00008e74       ??_C@_0CB@PDBIFEP@?$GAdynamic?5atexit?5destructor?5for?5@ 1008ee74     libvcruntimed:undname.obj
 0002:00008e98       ??_C@_0CD@CGAJBKEJ@?$GAvector?5copy?5constructor?5iterat@ 1008ee98     libvcruntimed:undname.obj
 0002:00008ebc       ??_C@_0CJ@GJELGAMM@?$GAvector?5vbase?5copy?5constructor?5@ 1008eebc     libvcruntimed:undname.obj
 0002:00008ee8       ??_C@_0CL@FGIJHLCE@?$GAmanaged?5vector?5copy?5constructo@ 1008eee8     libvcruntimed:undname.obj
 0002:00008f14       ??_C@_0BM@PMGGMLDN@?$GAlocal?5static?5thread?5guard?8@ 1008ef14     libvcruntimed:undname.obj
 0002:00008f30       ??_C@_0N@BDNMDMOL@operator?5?$CC?$CC?5@ 1008ef30     libvcruntimed:undname.obj
 0002:00008f40       ??_C@_0BC@GGEBGALA@operator?5co_await@ 1008ef40     libvcruntimed:undname.obj
 0002:00008f54       ??_C@_0M@GAAIMMOH@operator?$DM?$DN?$DO@ 1008ef54     libvcruntimed:undname.obj
 0002:00008f60       ??_C@_0BC@DAFEJGAK@?5Type?5Descriptor?8@ 1008ef60     libvcruntimed:undname.obj
 0002:00008f74       ??_C@_0BM@LDKODKLH@?5Base?5Class?5Descriptor?5at?5?$CI@ 1008ef74     libvcruntimed:undname.obj
 0002:00008f90       ??_C@_0BD@LGICGFMM@?5Base?5Class?5Array?8@ 1008ef90     libvcruntimed:undname.obj
 0002:00008fa4       ??_C@_0BN@MECKDCOJ@?5Class?5Hierarchy?5Descriptor?8@ 1008efa4     libvcruntimed:undname.obj
 0002:00008fc4       ??_C@_0BK@CFCOFLF@?5Complete?5Object?5Locator?8@ 1008efc4     libvcruntimed:undname.obj
 0002:00008fe0       ??_C@_04HEJADOOB@CV?3?5@   1008efe0     libvcruntimed:undname.obj
 0002:00008fe8       ??_C@_03GDILBHBJ@$$h@      1008efe8     libvcruntimed:undname.obj
 0002:00008fec       ??_C@_02MOLJINC@?3?3@      1008efec     libvcruntimed:undname.obj
 0002:00008ff0       ??_C@_0BE@JAEOCHPE@template?9parameter?9@ 1008eff0     libvcruntimed:undname.obj
 0002:00009004       ??_C@_0O@KHGCOMHP@generic?9type?9@ 1008f004     libvcruntimed:undname.obj
 0002:00009014       ??_C@_01NLNLIGKH@?$GA@     1008f014     libvcruntimed:undname.obj
 0002:00009018       ??_C@_01GEODFPGF@?8@       1008f018     libvcruntimed:undname.obj
 0002:0000901c       ??_C@_0BG@JNJLAMPM@?$GAanonymous?5namespace?8@ 1008f01c     libvcruntimed:undname.obj
 0002:00009034       ??_C@_02OHHJMEON@?8?8@     1008f034     libvcruntimed:undname.obj
 0002:00009038       ??_C@_0BN@IBLMMFAP@?$GAnon?9type?9template?9parameter@ 1008f038     libvcruntimed:undname.obj
 0002:00009058       ??_C@_03KHICJKCI@?4?4?4@   1008f058     libvcruntimed:undname.obj
 0002:0000905c       ??_C@_04HIBGFPH@NULL@      1008f05c     libvcruntimed:undname.obj
 0002:00009064       ??_C@_02DPKJAMEF@?$CFd@    1008f064     libvcruntimed:undname.obj
 0002:00009068       ??_C@_0BK@IHCCFNEL@?$GAtemplate?9type?9parameter?9@ 1008f068     libvcruntimed:undname.obj
 0002:00009084       ??_C@_0BK@OFCNNNKO@?$GAgeneric?9class?9parameter?9@ 1008f084     libvcruntimed:undname.obj
 0002:000090a0       ??_C@_0BL@NGJBLFIL@?$GAgeneric?9method?9parameter?9@ 1008f0a0     libvcruntimed:undname.obj
 0002:000090bc       ??_C@_04GKJNKENE@void@     1008f0bc     libvcruntimed:undname.obj
 0002:000090c4       ??_C@_0BE@EODMJLIF@?$GAtemplate?9parameter@ 1008f0c4     libvcruntimed:undname.obj
 0002:000090d8       ??_C@_03OPGICMGF@?$HN?8?5@ 1008f0d8     libvcruntimed:undname.obj
 0002:000090dc       ??_C@_02IGFCGPIL@?$HN?8@   1008f0dc     libvcruntimed:undname.obj
 0002:000090e0       ??_C@_01CLKCMJKC@?5@       1008f0e0     libvcruntimed:undname.obj
 0002:000090e4       ??_C@_0N@CBHHHENL@?$GAvtordispex?$HL@ 1008f0e4     libvcruntimed:undname.obj
 0002:000090f4       ??_C@_0L@GHPFDFH@?$GAvtordisp?$HL@ 1008f0f4     libvcruntimed:undname.obj
 0002:00009100       ??_C@_0L@HNGCOGAE@?$GAadjustor?$HL@ 1008f100     libvcruntimed:undname.obj
 0002:0000910c       ??_C@_0CB@KJDOOODE@?$GAlocal?5static?5destructor?5helper@ 1008f10c     libvcruntimed:undname.obj
 0002:00009130       ??_C@_0DB@ILEFOCIJ@?$GAtemplate?5static?5data?5member?5co@ 1008f130     libvcruntimed:undname.obj
 0002:00009164       ??_C@_0DA@HGFJFBBE@?$GAtemplate?5static?5data?5member?5de@ 1008f164     libvcruntimed:undname.obj
 0002:00009194       ??_C@_07PGOEDBHP@static?5@ 1008f194     libvcruntimed:undname.obj
 0002:0000919c       ??_C@_08NIEOINHE@virtual?5@ 1008f19c     libvcruntimed:undname.obj
 0002:000091a8       ??_C@_09LAPHOOG@private?3?5@ 1008f1a8     libvcruntimed:undname.obj
 0002:000091b4       ??_C@_0M@GAIFPFIP@protected?3?5@ 1008f1b4     libvcruntimed:undname.obj
 0002:000091c0       ??_C@_08GPDDCMKI@public?3?5@ 1008f1c0     libvcruntimed:undname.obj
 0002:000091cc       ??_C@_08KJLFOPNE@?$FLthunk?$FN?3@ 1008f1cc     libvcruntimed:undname.obj
 0002:000091d8       ??_C@_0M@DHNBOJMP@extern?5?$CCC?$CC?5@ 1008f1d8     libvcruntimed:undname.obj
 0002:000091e4       ??_C@_02KCKGHPCA@?$CJ?5@   1008f1e4     libvcruntimed:undname.obj
 0002:000091e8       ??_C@_05CIHEBHNO@char?5@   1008f1e8     libvcruntimed:undname.obj
 0002:000091f0       ??_C@_06EHJMALKF@short?5@  1008f1f0     libvcruntimed:undname.obj
 0002:000091f8       ??_C@_04LAHKHJMA@int?5@    1008f1f8     libvcruntimed:undname.obj
 0002:00009200       ??_C@_05CJIMAING@long?5@   1008f200     libvcruntimed:undname.obj
 0002:00009208       ??_C@_09EBBEKKIH@unsigned?5@ 1008f208     libvcruntimed:undname.obj
 0002:00009214       ??_C@_05BEFAKPML@void?5@   1008f214     libvcruntimed:undname.obj
 0002:0000921c       ??_C@_08PABEKFH@volatile@  1008f21c     libvcruntimed:undname.obj
 0002:00009228       ??_C@_0BA@LKIJLKPP@std?3?3nullptr_t?5@ 1008f228     libvcruntimed:undname.obj
 0002:00009238       ??_C@_0P@GCOCNKDM@std?3?3nullptr_t@ 1008f238     libvcruntimed:undname.obj
 0002:00009248       ??_C@_0L@EGPHHEKN@?$DMellipsis?$DO@ 1008f248     libvcruntimed:undname.obj
 0002:00009254       ??_C@_04EENFHACM@?0?4?4?4@ 1008f254     libvcruntimed:undname.obj
 0002:0000925c       ??_C@_0M@ELJOJFFH@?0?$DMellipsis?$DO@ 1008f25c     libvcruntimed:undname.obj
 0002:00009268       ??_C@_09DNHFEOJI@?5noexcept@ 1008f268     libvcruntimed:undname.obj
 0002:00009274       ??_C@_03PBJBJNON@cpu@      1008f274     libvcruntimed:undname.obj
 0002:00009278       ??_C@_03DCBBJBAA@amp@      1008f278     libvcruntimed:undname.obj
 0002:0000927c       ??_C@_02KEGNLNML@?0?5@     1008f27c     libvcruntimed:undname.obj
 0002:00009280       ??_C@_04ENMBGAPA@char@     1008f280     libvcruntimed:undname.obj
 0002:00009288       ??_C@_05BFKKPKCG@short@    1008f288     libvcruntimed:undname.obj
 0002:00009290       ??_C@_03JBIPMCLC@int@      1008f290     libvcruntimed:undname.obj
 0002:00009294       ??_C@_04GOKPGOLB@long@     1008f294     libvcruntimed:undname.obj
 0002:0000929c       ??_C@_05KNFBNCOH@float@    1008f29c     libvcruntimed:undname.obj
 0002:000092a4       ??_C@_06BNJCAIGJ@double@   1008f2a4     libvcruntimed:undname.obj
 0002:000092ac       ??_C@_04DDKJGDCM@bool@     1008f2ac     libvcruntimed:undname.obj
 0002:000092b4       ??_C@_06EBGKOKIG@__int8@   1008f2b4     libvcruntimed:undname.obj
 0002:000092bc       ??_C@_07ICFHOGAF@__int16@  1008f2bc     libvcruntimed:undname.obj
 0002:000092c4       ??_C@_07OFLPPHGP@__int32@  1008f2c4     libvcruntimed:undname.obj
 0002:000092cc       ??_C@_07LFCOJCAC@__int64@  1008f2cc     libvcruntimed:undname.obj
 0002:000092d4       ??_C@_08GAHOLHEO@__int128@ 1008f2d4     libvcruntimed:undname.obj
 0002:000092e0       ??_C@_09EEKGDCPH@?$DMunknown?$DO@ 1008f2e0     libvcruntimed:undname.obj
 0002:000092ec       ??_C@_07CFHGOPCN@char8_t@  1008f2ec     libvcruntimed:undname.obj
 0002:000092f4       ??_C@_08HBIPOFJB@char16_t@ 1008f2f4     libvcruntimed:undname.obj
 0002:00009300       ??_C@_08IECNCBKG@char32_t@ 1008f300     libvcruntimed:undname.obj
 0002:0000930c       ??_C@_07CLGGIAMF@wchar_t@  1008f30c     libvcruntimed:undname.obj
 0002:00009314       ??_C@_06GCICPBLB@__w64?5@  1008f314     libvcruntimed:undname.obj
 0002:0000931c       ??_C@_07NFANNNEC@UNKNOWN@  1008f31c     libvcruntimed:undname.obj
 0002:00009324       ??_C@_07EDHNAJHC@signed?5@ 1008f324     libvcruntimed:undname.obj
 0002:0000932c       ??_C@_05BNCCCJPP@const@    1008f32c     libvcruntimed:undname.obj
 0002:00009334       ??_C@_09EFNPDFFP@?5volatile@ 1008f334     libvcruntimed:undname.obj
 0002:00009340       ??_C@_0P@GCIFDJCJ@?$GAunknown?5ecsu?8@ 1008f340     libvcruntimed:undname.obj
 0002:00009350       ??_C@_06MOJHIBMG@union?5@  1008f350     libvcruntimed:undname.obj
 0002:00009358       ??_C@_07DIBCDNGL@struct?5@ 1008f358     libvcruntimed:undname.obj
 0002:00009360       ??_C@_06LJBABKPM@class?5@  1008f360     libvcruntimed:undname.obj
 0002:00009368       ??_C@_08KOFANOFK@coclass?5@ 1008f368     libvcruntimed:undname.obj
 0002:00009374       ??_C@_0N@DLIEFKNA@cointerface?5@ 1008f374     libvcruntimed:undname.obj
 0002:00009384       ??_C@_05LJGMCFOG@enum?5@   1008f384     libvcruntimed:undname.obj
 0002:0000938c       ??_C@_09GAIEOBLP@volatile?5@ 1008f38c     libvcruntimed:undname.obj
 0002:00009398       ??_C@_06LIJLOJAG@const?5@  1008f398     libvcruntimed:undname.obj
 0002:000093a0       ??_C@_02KJPKDIBN@?$CG?5@   1008f3a0     libvcruntimed:undname.obj
 0002:000093a4       ??_C@_03PCKGMOPB@?$CG?$CG?5@ 1008f3a4     libvcruntimed:undname.obj
 0002:000093a8       ??_C@_0M@EALIELKG@cli?3?3array?$DM@ 1008f3a8     libvcruntimed:undname.obj
 0002:000093b4       ??_C@_0O@GKABPPIF@cli?3?3pin_ptr?$DM@ 1008f3b4     libvcruntimed:undname.obj
 0002:000093c4       ??_C@_02GOGNNPBN@?$CJ?$FL@ 1008f3c4     libvcruntimed:undname.obj
 0002:000093c8       ??_C@_06EEGAIFAK@?$HLflat?$HN@ 1008f3c8     libvcruntimed:undname.obj
 0002:000093d0       ??_C@_05JIBOFOHK@?$HLfor?5@ 1008f3d0     libvcruntimed:undname.obj
 0002:000093d8       ??_C@_02MDINNEEG@s?5@      1008f3d8     libvcruntimed:undname.obj
 0002:000093e0       ??_7DNameNode@@6B@         1008f3e0     libvcruntimed:undname.obj
 0002:000093f0       ??_7charNode@@6B@          1008f3f0     libvcruntimed:undname.obj
 0002:00009400       ??_7pcharNode@@6B@         1008f400     libvcruntimed:undname.obj
 0002:00009410       ??_7pDNameNode@@6B@        1008f410     libvcruntimed:undname.obj
 0002:00009420       ??_7DNameStatusNode@@6B@   1008f420     libvcruntimed:undname.obj
 0002:00009430       ??_7pairNode@@6B@          1008f430     libvcruntimed:undname.obj
 0002:0000943c       ??_C@_04OKOHEJBO@?5?$DP?$DP?5@ 1008f43c     libvcruntimed:undname.obj
 0002:00009444       ?nodes@?1??make@DNameStatusNode@@SAPBV2@W4DNameStatus@@@Z@4QBV2@B 1008f444     libvcruntimed:undname.obj
 0002:00009480       ??_C@_1DM@KHCHBNEB@?$AAa?$AAp?$AAi?$AA?9?$AAm?$AAs?$AA?9?$AAw?$AAi?$AAn?$AA?9?$AAc?$AAo?$AAr?$AAe@ 1008f480     libvcruntimed:winapi_downlevel.obj
 0002:000094bc       ??_C@_1DK@LPPGFMPP@?$AAa?$AAp?$AAi?$AA?9?$AAm?$AAs?$AA?9?$AAw?$AAi?$AAn?$AA?9?$AAc?$AAo?$AAr?$AAe@ 1008f4bc     libvcruntimed:winapi_downlevel.obj
 0002:000094f8       ??_C@_1BC@GDMECMAK@?$AAk?$AAe?$AAr?$AAn?$AAe?$AAl?$AA3?$AA2@ 1008f4f8     libvcruntimed:winapi_downlevel.obj
 0002:0000950c       ??_C@_1BA@PFFKHIOG@?$AAa?$AAp?$AAi?$AA?9?$AAm?$AAs?$AA?9@ 1008f50c     libvcruntimed:winapi_downlevel.obj
 0002:00009520       ??_C@_1EM@LBIFGLGH@?$AAc?$AAa?$AAc?$AAh?$AAe?$AAd?$AA_?$AAh?$AAa?$AAn?$AAd?$AAl?$AAe?$AA?5?$AA?$DN@ 1008f520     libvcruntimed:winapi_downlevel.obj
 0002:00009570       ??_C@_1JO@BBNDOBIB@?$AAd?$AA?3?$AA?2?$AAa?$AAg?$AAe?$AAn?$AAt?$AA?2?$AA_?$AAw?$AAo?$AAr?$AAk?$AA?2@ 1008f570     libvcruntimed:winapi_downlevel.obj
 0002:00009610       ??_C@_1DI@MAHEDLDB@?$AAc?$AAa?$AAc?$AAh?$AAe?$AAd?$AA_?$AAh?$AAa?$AAn?$AAd?$AAl?$AAe?$AA?5?$AA?$DN@ 1008f610     libvcruntimed:winapi_downlevel.obj
 0002:00009648       ??_C@_1FC@IBNCGNKL@?$AAc?$AAa?$AAc?$AAh?$AAe?$AAd?$AA_?$AAf?$AAp?$AA?5?$AA?$DN?$AA?$DN?$AA?5?$AAi?$AAn@ 1008f648     libvcruntimed:winapi_downlevel.obj
 0002:0000969c       ??_C@_1CI@GDJBAGLP@?$AAc?$AAa?$AAc?$AAh?$AAe?$AAd?$AA_?$AAf?$AAp?$AA?5?$AA?$DN?$AA?$DN?$AA?5?$AAn?$AAe@ 1008f69c     libvcruntimed:winapi_downlevel.obj
 0002:000096cc       ??_C@_08KNHFBNJ@FlsAlloc@  1008f6cc     libvcruntimed:winapi_downlevel.obj
 0002:000096e0       ??_C@_07PEJMOBNF@FlsFree@  1008f6e0     libvcruntimed:winapi_downlevel.obj
 0002:000096f0       ??_C@_0M@GDNOONDI@FlsGetValue@ 1008f6f0     libvcruntimed:winapi_downlevel.obj
 0002:00009704       ??_C@_0M@JCPCPOEF@FlsSetValue@ 1008f704     libvcruntimed:winapi_downlevel.obj
 0002:00009718       ??_C@_0BM@HCFOFFN@InitializeCriticalSectionEx@ 1008f718     libvcruntimed:winapi_downlevel.obj
 0002:00009734       __pDestructExceptionObject 1008f734     libvcruntimed:ehhelpers.obj
 0002:00009744       ??_C@_1BA@GLMCNLEM@?$AAW?$AAa?$AAr?$AAn?$AAi?$AAn?$AAg@ 1008f744     libucrtd:dbgrpt.obj
 0002:00009754       ??_C@_1M@ILHOPKA@?$AAE?$AAr?$AAr?$AAo?$AAr@ 1008f754     libucrtd:dbgrpt.obj
 0002:00009760       ??_C@_1CC@CGHMNGDG@?$AAA?$AAs?$AAs?$AAe?$AAr?$AAt?$AAi?$AAo?$AAn?$AA?5?$AAF?$AAa?$AAi?$AAl?$AAe@ 1008f760     libucrtd:dbgrpt.obj
 0002:00009788       ??_C@_1OG@PMPPFHAF@?$AA?6?$AA?6?$AAF?$AAo?$AAr?$AA?5?$AAi?$AAn?$AAf?$AAo?$AAr?$AAm?$AAa?$AAt?$AAi@ 1008f788     libucrtd:dbgrpt.obj
 0002:00009870       ??_C@_1MG@LJLILFFD@?$AAD?$AAe?$AAb?$AAu?$AAg?$AA?5?$AA?$CF?$AAl?$AAs?$AA?$CB?$AA?6?$AA?6?$AAP?$AAr?$AAo@ 1008f870     libucrtd:dbgrpt.obj
 0002:00009938       ??_C@_1MG@OODCADGL@?$AAD?$AAe?$AAb?$AAu?$AAg?$AA?5?$AA?$CF?$AAl?$AAs?$AA?$CB?$AA?6?$AA?6?$AAP?$AAr?$AAo@ 1008f938     libucrtd:dbgrpt.obj
 0002:00009a00       ??_C@_0BH@DNAGHKFM@?$DMprogram?5name?5unknown?$DO@ 1008fa00     libucrtd:dbgrpt.obj
 0002:00009a18       ??_C@_1CO@EAEJAADC@?$AA?$DM?$AAp?$AAr?$AAo?$AAg?$AAr?$AAa?$AAm?$AA?5?$AAn?$AAa?$AAm?$AAe?$AA?5?$AAu@ 1008fa18     libucrtd:dbgrpt.obj
 0002:00009a48       ??_C@_1FK@BNNDOGMN@?$AA?$CI?$AA?$CC?$AAT?$AAh?$AAe?$AA?5?$AAh?$AAo?$AAo?$AAk?$AA?5?$AAf?$AAu?$AAn?$AAc@ 1008fa48     libucrtd:dbgrpt.obj
 0002:00009aa8       ??_C@_1FO@GMJDLAJD@?$AAm?$AAi?$AAn?$AAk?$AAe?$AAr?$AAn?$AAe?$AAl?$AA?2?$AAc?$AAr?$AAt?$AAs?$AA?2@ 1008faa8     libucrtd:dbgrpt.obj
 0002:00009b08       ??_C@_0CP@HDJNPEFB@minkernel?2crts?2ucrt?2src?2appcrt?2@ 1008fb08     libucrtd:dbgrpt.obj
 0002:00009b38       ??_C@_1HI@OFEHGPPC@?$AAm?$AAo?$AAd?$AAe?$AA?5?$AA?$DN?$AA?$DN?$AA?5?$AA_?$AAC?$AAR?$AAT?$AA_?$AAR?$AAP@ 1008fb38     libucrtd:dbgrpt.obj
 0002:00009bb0       ??_C@_1CO@FFNKOJOG@?$AAc?$AAo?$AAm?$AAm?$AAo?$AAn?$AA_?$AAs?$AAe?$AAt?$AA_?$AAr?$AAe?$AAp?$AAo@ 1008fbb0     libucrtd:dbgrpt.obj
 0002:00009be0       ??_C@_1CI@ONEHFNHD@?$AAn?$AAe?$AAw?$AA_?$AAh?$AAo?$AAo?$AAk?$AA?5?$AA?$CB?$AA?$DN?$AA?5?$AAn?$AAu?$AAl@ 1008fbe0     libucrtd:dbgrpt.obj
 0002:00009c0c       ??_C@_1CM@EHMOGBJJ@?$AAc?$AAo?$AAm?$AAm?$AAo?$AAn?$AA_?$AAm?$AAe?$AAs?$AAs?$AAa?$AAg?$AAe?$AA_@ 1008fc0c     libucrtd:dbgrpt.obj
 0002:00009c38       ??_C@_1PE@ECNALGCA@?$AAt?$AAr?$AAa?$AAi?$AAt?$AAs?$AA?3?$AA?3?$AAt?$AAc?$AAs?$AAc?$AAp?$AAy?$AA_@ 1008fc38     libucrtd:dbgrpt.obj
 0002:00009d2c       ??_C@_1BK@PEDCIPMA@?$AAE?$AAx?$AAp?$AAr?$AAe?$AAs?$AAs?$AAi?$AAo?$AAn?$AA?3?$AA?5@ 1008fd2c     libucrtd:dbgrpt.obj
 0002:00009d48       ??_C@_15IABLJNFO@?$AA?6?$AA?6@ 1008fd48     libucrtd:dbgrpt.obj
 0002:00009d50       ??_C@_1BA@GLLGCPCK@?$AA?6?$AAL?$AAi?$AAn?$AAe?$AA?3?$AA?5@ 1008fd50     libucrtd:dbgrpt.obj
 0002:00009d60       ??_C@_1BA@LNHECFIM@?$AA?6?$AAF?$AAi?$AAl?$AAe?$AA?3?$AA?5@ 1008fd60     libucrtd:dbgrpt.obj
 0002:00009d70       ??_C@_17LGKOMLJ@?$AA?4?$AA?4?$AA?4@ 1008fd70     libucrtd:dbgrpt.obj
 0002:00009d78       ??_C@_1BE@CGCJKGHI@?$AA?6?$AAM?$AAo?$AAd?$AAu?$AAl?$AAe?$AA?3?$AA?5@ 1008fd78     libucrtd:dbgrpt.obj
 0002:00009d8c       ??_C@_1BI@KALLJECN@?$AA?$CI?$AA?$CK?$AA_?$AAe?$AAr?$AAr?$AAn?$AAo?$AA?$CI?$AA?$CJ?$AA?$CJ@ 1008fd8c     libucrtd:dbgrpt.obj
 0002:00009da8       ??_C@_1JM@IBOIJEOO@?$AAw?$AAc?$AAs?$AAc?$AAp?$AAy?$AA_?$AAs?$AA?$CI?$AAm?$AAe?$AAs?$AAs?$AAa?$AAg@ 1008fda8     libucrtd:dbgrpt.obj
 0002:00009e48       ??_C@_1FG@BBOLDHGF@?$AA_?$AAC?$AAr?$AAt?$AAD?$AAb?$AAg?$AAR?$AAe?$AAp?$AAo?$AAr?$AAt?$AA?3?$AA?5@ 1008fe48     libucrtd:dbgrpt.obj
 0002:00009ea0       ??_C@_1EK@MBDPDCGA@?$AAM?$AAi?$AAc?$AAr?$AAo?$AAs?$AAo?$AAf?$AAt?$AA?5?$AAV?$AAi?$AAs?$AAu?$AAa@ 1008fea0     libucrtd:dbgrpt.obj
 0002:00009ef0       ??_C@_1GI@BBAEIKL@?$AA?$CI?$AA?$CI?$AAd?$AAe?$AAs?$AAt?$AAi?$AAn?$AAa?$AAt?$AAi?$AAo?$AAn?$AA?$CJ?$AA?$CJ@ 1008fef0     libucrtd:wcscpy_s.obj
 0002:00009f58       ??_C@_1HI@PBJPCEBC@?$AAm?$AAi?$AAn?$AAk?$AAe?$AAr?$AAn?$AAe?$AAl?$AA?2?$AAc?$AAr?$AAt?$AAs?$AA?2@ 1008ff58     libucrtd:wcscpy_s.obj
 0002:00009fd0       ??_C@_1CA@FHIAGDFH@?$AAc?$AAo?$AAm?$AAm?$AAo?$AAn?$AA_?$AAt?$AAc?$AAs?$AAc?$AAp?$AAy?$AA_?$AAs@ 1008ffd0     libucrtd:wcscpy_s.obj
 0002:00009ff0       ??_C@_1CK@EIOKGPJL@?$AA?$CI?$AA?$CI?$AA?$CI?$AAs?$AAo?$AAu?$AAr?$AAc?$AAe?$AA?$CJ?$AA?$CJ?$AA?$CJ?$AA?5?$AA?$CB?$AA?$DN@ 1008fff0     libucrtd:wcscpy_s.obj
 0002:0000a01c       ??_C@_1CI@HCPHDDLE@?$AAB?$AAu?$AAf?$AAf?$AAe?$AAr?$AA?5?$AAi?$AAs?$AA?5?$AAt?$AAo?$AAo?$AA?5?$AAs@ 1009001c     libucrtd:wcscpy_s.obj
 0002:0000a044       ??_C@_1DM@MADKGDLO@?$AA?$CI?$AAL?$AA?$CC?$AAB?$AAu?$AAf?$AAf?$AAe?$AAr?$AA?5?$AAi?$AAs?$AA?5?$AAt?$AAo@ 10090044     libucrtd:wcscpy_s.obj
 0002:0000a080       _standard_lookup_table     10090080     libucrtd:output.obj
 0002:0000a0e0       _format_validation_lookup_table 100900e0     libucrtd:output.obj
 0002:0000a140       ??_C@_1BDG@MKBKGHOH@?$AA?$CI?$AA?5?$AA?$CI?$AA_?$AAS?$AAt?$AAr?$AAe?$AAa?$AAm?$AA?4?$AAi?$AAs?$AA_?$AAs@ 10090140     libucrtd:output.obj
 0002:0000a278       ??_C@_1GC@LCDLABEA@?$AAm?$AAi?$AAn?$AAk?$AAe?$AAr?$AAn?$AAe?$AAl?$AA?2?$AAc?$AAr?$AAt?$AAs?$AA?2@ 10090278     libucrtd:output.obj
 0002:0000a2e0       ??_C@_1II@DIIMCJOK@?$AA_?$AA_?$AAa?$AAc?$AAr?$AAt?$AA_?$AAs?$AAt?$AAd?$AAi?$AAo?$AA_?$AAc?$AAh@ 100902e0     libucrtd:output.obj
 0002:0000a368       ??_C@_1CE@JLIJLEKO@?$AAs?$AAt?$AAr?$AAe?$AAa?$AAm?$AA?5?$AA?$CB?$AA?$DN?$AA?5?$AAn?$AAu?$AAl?$AAl?$AAp@ 10090368     libucrtd:output.obj
 0002:0000a390       ??_C@_1GA@MOBAPGIO@?$AAm?$AAi?$AAn?$AAk?$AAe?$AAr?$AAn?$AAe?$AAl?$AA?2?$AAc?$AAr?$AAt?$AAs?$AA?2@ 10090390     libucrtd:output.obj
 0002:0000a3f0       ??_C@_1CA@GELIJBMC@?$AAc?$AAo?$AAm?$AAm?$AAo?$AAn?$AA_?$AAv?$AAf?$AAp?$AAr?$AAi?$AAn?$AAt?$AAf@ 100903f0     libucrtd:output.obj
 0002:0000a410       ??_C@_1CE@EAKLPBKK@?$AAf?$AAo?$AAr?$AAm?$AAa?$AAt?$AA?5?$AA?$CB?$AA?$DN?$AA?5?$AAn?$AAu?$AAl?$AAl?$AAp@ 10090410     libucrtd:output.obj
 0002:0000a434       ??_C@_1CA@PIMGHCEK@?$AAc?$AAo?$AAm?$AAm?$AAo?$AAn?$AA_?$AAv?$AAs?$AAp?$AAr?$AAi?$AAn?$AAt?$AAf@ 10090434     libucrtd:output.obj
 0002:0000a458       ??_C@_1EO@EGEEFEFM@?$AAb?$AAu?$AAf?$AAf?$AAe?$AAr?$AA_?$AAc?$AAo?$AAu?$AAn?$AAt?$AA?5?$AA?$DN?$AA?$DN@ 10090458     libucrtd:output.obj
 0002:0000a4a8       ??_C@_1CE@JEILLNB@?$AAc?$AAo?$AAm?$AAm?$AAo?$AAn?$AA_?$AAv?$AAs?$AAp?$AAr?$AAi?$AAn?$AAt?$AAf@ 100904a8     libucrtd:output.obj
 0002:0000a4d0       ??_C@_1EM@OAFHAOLH@?$AAb?$AAu?$AAf?$AAf?$AAe?$AAr?$AA?5?$AA?$CB?$AA?$DN?$AA?5?$AAn?$AAu?$AAl?$AAl?$AAp@ 100904d0     libucrtd:output.obj
 0002:0000a51c       ??_C@_1DA@HPBFKMEB@?$AA?$CI?$AA?$CC?$AAB?$AAu?$AAf?$AAf?$AAe?$AAr?$AA?5?$AAt?$AAo?$AAo?$AA?5?$AAs?$AAm@ 1009051c     libucrtd:output.obj
 0002:0000a54c       ??_C@_1CG@LHFJHFBB@?$AAc?$AAo?$AAm?$AAm?$AAo?$AAn?$AA_?$AAv?$AAs?$AAn?$AAp?$AAr?$AAi?$AAn?$AAt@ 1009054c     libucrtd:output.obj
 0002:0000a574       ??_C@_1CM@JOIJBMEM@?$AA_?$AAf?$AAo?$AAr?$AAm?$AAa?$AAt?$AA_?$AAi?$AAt?$AA?5?$AA?$CB?$AA?$DN?$AA?5?$AAn@ 10090574     libucrtd:output.obj
 0002:0000a5a0       ??_C@_1HA@DMAAKIJP@?$AAm?$AAi?$AAn?$AAk?$AAe?$AAr?$AAn?$AAe?$AAl?$AA?2?$AAc?$AAr?$AAt?$AAs?$AA?2@ 100905a0     libucrtd:output.obj
 0002:0000a610       ??_C@_1BNA@OIIAGHJI@?$AA_?$AA_?$AAc?$AAr?$AAt?$AA_?$AAs?$AAt?$AAd?$AAi?$AAo?$AA_?$AAo?$AAu?$AAt@ 10090610     libucrtd:output.obj
 0002:0000a7e0       ??_C@_1EE@DMAIGNBG@?$AA?$CI?$AA?$CC?$AAI?$AAn?$AAc?$AAo?$AAr?$AAr?$AAe?$AAc?$AAt?$AA?5?$AAf?$AAo?$AAr@ 100907e0     libucrtd:output.obj
 0002:0000a828       ??_C@_1BLI@EGFICANE@?$AA_?$AA_?$AAc?$AAr?$AAt?$AA_?$AAs?$AAt?$AAd?$AAi?$AAo?$AA_?$AAo?$AAu?$AAt@ 10090828     libucrtd:output.obj
 0002:0000a9e0       ??_C@_1BLI@IKDKMDHI@?$AA_?$AA_?$AAc?$AAr?$AAt?$AA_?$AAs?$AAt?$AAd?$AAi?$AAo?$AA_?$AAo?$AAu?$AAt@ 100909e0     libucrtd:output.obj
 0002:0000ab98       ??_C@_1BKA@DNADAJMC@?$AA_?$AA_?$AAc?$AAr?$AAt?$AA_?$AAs?$AAt?$AAd?$AAi?$AAo?$AA_?$AAo?$AAu?$AAt@ 10090b98     libucrtd:output.obj
 0002:0000ad38       ??_C@_1BNA@HGLCOOBP@?$AA_?$AA_?$AAc?$AAr?$AAt?$AA_?$AAs?$AAt?$AAd?$AAi?$AAo?$AA_?$AAo?$AAu?$AAt@ 10090d38     libucrtd:output.obj
 0002:0000af08       ??_C@_1BLI@FOCNEPKJ@?$AA_?$AA_?$AAc?$AAr?$AAt?$AA_?$AAs?$AAt?$AAd?$AAi?$AAo?$AA_?$AAo?$AAu?$AAt@ 10090f08     libucrtd:output.obj
 0002:0000b0c0       ??_C@_1BMK@CPBKHDIH@?$AA_?$AA_?$AAc?$AAr?$AAt?$AA_?$AAs?$AAt?$AAd?$AAi?$AAo?$AA_?$AAo?$AAu?$AAt@ 100910c0     libucrtd:output.obj
 0002:0000b290       ??_C@_1BLC@PMCLHHAE@?$AA_?$AA_?$AAc?$AAr?$AAt?$AA_?$AAs?$AAt?$AAd?$AAi?$AAo?$AA_?$AAo?$AAu?$AAt@ 10091290     libucrtd:output.obj
 0002:0000b448       ??_C@_1BLI@EEAAPJD@?$AA_?$AA_?$AAc?$AAr?$AAt?$AA_?$AAs?$AAt?$AAd?$AAi?$AAo?$AA_?$AAo?$AAu?$AAt@ 10091448     libucrtd:output.obj
 0002:0000b600       ??_C@_1BKA@IIAAOGBO@?$AA_?$AA_?$AAc?$AAr?$AAt?$AA_?$AAs?$AAt?$AAd?$AAi?$AAo?$AA_?$AAo?$AAu?$AAt@ 10091600     libucrtd:output.obj
 0002:0000b7a0       ??_C@_1FG@OBJBDPAC@?$AA?$CI?$AA?$CC?$AAN?$AA?5?$AAl?$AAe?$AAn?$AAg?$AAt?$AAh?$AA?5?$AAm?$AAo?$AAd?$AAi@ 100917a0     libucrtd:output.obj
 0002:0000b7f8       ??_C@_1BOA@BMEGDMHF@?$AA_?$AA_?$AAc?$AAr?$AAt?$AA_?$AAs?$AAt?$AAd?$AAi?$AAo?$AA_?$AAo?$AAu?$AAt@ 100917f8     libucrtd:output.obj
 0002:0000b9d8       ??_C@_1EC@GJPNJDCN@?$AA_?$AAl?$AAe?$AAn?$AAg?$AAt?$AAh?$AA?5?$AA?$DN?$AA?$DN?$AA?5?$AAl?$AAe?$AAn?$AAg@ 100919d8     libucrtd:output.obj
 0002:0000ba1c       ??_C@_1DG@CEJKFDMO@?$AAs?$AAt?$AAa?$AAt?$AAe?$AA_?$AAc?$AAa?$AAs?$AAe?$AA_?$AAn?$AAo?$AAr?$AAm@ 10091a1c     libucrtd:output.obj
 0002:0000ba58       ??_C@_1BOE@IPKNNOEE@?$AA_?$AA_?$AAc?$AAr?$AAt?$AA_?$AAs?$AAt?$AAd?$AAi?$AAo?$AA_?$AAo?$AAu?$AAt@ 10091a58     libucrtd:output.obj
 0002:0000bc40       ??_C@_1IC@NLEOMCDL@?$AA_?$AAt?$AAy?$AAp?$AAe?$AA_?$AAi?$AAn?$AAd?$AAe?$AAx?$AA?5?$AA?$DO?$AA?$DN?$AA?5@ 10091c40     libucrtd:output.obj
 0002:0000bcc8       ??_C@_1BFK@KNCMELHH@?$AA_?$AA_?$AAc?$AAr?$AAt?$AA_?$AAs?$AAt?$AAd?$AAi?$AAo?$AA_?$AAo?$AAu?$AAt@ 10091cc8     libucrtd:output.obj
 0002:0000be28       ??_C@_1FK@BCPANIEK@?$AA?$CI?$AA?$CC?$AAM?$AAi?$AAs?$AAs?$AAi?$AAn?$AAg?$AA?5?$AAp?$AAo?$AAs?$AAi?$AAt@ 10091e28     libucrtd:output.obj
 0002:0000be88       ??_C@_1BEI@IHLBHMLJ@?$AA_?$AA_?$AAc?$AAr?$AAt?$AA_?$AAs?$AAt?$AAd?$AAi?$AAo?$AA_?$AAo?$AAu?$AAt@ 10091e88     libucrtd:output.obj
 0002:0000bfd0       ??_C@_1BMI@LKDDDFDL@?$AA_?$AA_?$AAc?$AAr?$AAt?$AA_?$AAs?$AAt?$AAd?$AAi?$AAo?$AA_?$AAo?$AAu?$AAt@ 10091fd0     libucrtd:output.obj
 0002:0000c198       ??_C@_1BMM@JGEKEBKL@?$AA_?$AA_?$AAc?$AAr?$AAt?$AA_?$AAs?$AAt?$AAd?$AAi?$AAo?$AA_?$AAo?$AAu?$AAt@ 10092198     libucrtd:output.obj
 0002:0000c368       ??_C@_1BEO@ODGKIOAL@?$AA_?$AA_?$AAc?$AAr?$AAt?$AA_?$AAs?$AAt?$AAd?$AAi?$AAo?$AA_?$AAo?$AAu?$AAt@ 10092368     libucrtd:output.obj
 0002:0000c4b8       ??_C@_1BDM@GFCGMNL@?$AA_?$AA_?$AAc?$AAr?$AAt?$AA_?$AAs?$AAt?$AAd?$AAi?$AAo?$AA_?$AAo?$AAu?$AAt@ 100924b8     libucrtd:output.obj
 0002:0000c5f8       ??_C@_1BMI@KBPJOJJI@?$AA_?$AA_?$AAc?$AAr?$AAt?$AA_?$AAs?$AAt?$AAd?$AAi?$AAo?$AA_?$AAo?$AAu?$AAt@ 100925f8     libucrtd:output.obj
 0002:0000c7c0       ??_C@_1BMM@PGHHMNDM@?$AA_?$AA_?$AAc?$AAr?$AAt?$AA_?$AAs?$AAt?$AAd?$AAi?$AAo?$AA_?$AAo?$AAu?$AAt@ 100927c0     libucrtd:output.obj
 0002:0000c98c       ??_C@_1CI@DDKMNCPP@?$AA_?$AAc?$AAo?$AAn?$AAt?$AAe?$AAx?$AAt?$AA?5?$AA?$CB?$AA?$DN?$AA?5?$AAn?$AAu?$AAl@ 1009298c     libucrtd:output.obj
 0002:0000c9b8       ??_C@_1HK@IIPGOADH@?$AA_?$AA_?$AAc?$AAr?$AAt?$AA_?$AAs?$AAt?$AAd?$AAi?$AAo?$AA_?$AAo?$AAu?$AAt@ 100929b8     libucrtd:output.obj
 0002:0000ca38       ??_C@_1BLA@MEDMHIOH@?$AA_?$AA_?$AAc?$AAr?$AAt?$AA_?$AAs?$AAt?$AAd?$AAi?$AAo?$AA_?$AAo?$AAu?$AAt@ 10092a38     libucrtd:output.obj
 0002:0000cbe8       ??_C@_1BLE@LCKPBJON@?$AA_?$AA_?$AAc?$AAr?$AAt?$AA_?$AAs?$AAt?$AAd?$AAi?$AAo?$AA_?$AAo?$AAu?$AAt@ 10092be8     libucrtd:output.obj
 0002:0000cda0       ??_C@_1HE@IACOMEJF@?$AA_?$AA_?$AAc?$AAr?$AAt?$AA_?$AAs?$AAt?$AAd?$AAi?$AAo?$AA_?$AAo?$AAu?$AAt@ 10092da0     libucrtd:output.obj
 0002:0000ce18       ??_C@_1BOA@CBIEMBEE@?$AA_?$AA_?$AAc?$AAr?$AAt?$AA_?$AAs?$AAt?$AAd?$AAi?$AAo?$AA_?$AAo?$AAu?$AAt@ 10092e18     libucrtd:output.obj
 0002:0000cff8       ??_C@_1BOE@NLICFINO@?$AA_?$AA_?$AAc?$AAr?$AAt?$AA_?$AAs?$AAt?$AAd?$AAi?$AAo?$AA_?$AAo?$AAu?$AAt@ 10092ff8     libucrtd:output.obj
 0002:0000d1e0       ??_C@_1BFK@IOIDDMPJ@?$AA_?$AA_?$AAc?$AAr?$AAt?$AA_?$AAs?$AAt?$AAd?$AAi?$AAo?$AA_?$AAo?$AAu?$AAt@ 100931e0     libucrtd:output.obj
 0002:0000d340       ??_C@_1BEI@JNJAFAD@?$AA_?$AA_?$AAc?$AAr?$AAt?$AA_?$AAs?$AAt?$AAd?$AAi?$AAo?$AA_?$AAo?$AAu?$AAt@ 10093340     libucrtd:output.obj
 0002:0000d488       ??_C@_1BMI@PKGBOKJK@?$AA_?$AA_?$AAc?$AAr?$AAt?$AA_?$AAs?$AAt?$AAd?$AAi?$AAo?$AA_?$AAo?$AAu?$AAt@ 10093488     libucrtd:output.obj
 0002:0000d650       ??_C@_1BMM@BLBJDDIA@?$AA_?$AA_?$AAc?$AAr?$AAt?$AA_?$AAs?$AAt?$AAd?$AAi?$AAo?$AA_?$AAo?$AAu?$AAt@ 10093650     libucrtd:output.obj
 0002:0000d820       ??_C@_1BEO@JEHLMMKB@?$AA_?$AA_?$AAc?$AAr?$AAt?$AA_?$AAs?$AAt?$AAd?$AAi?$AAo?$AA_?$AAo?$AAu?$AAt@ 10093820     libucrtd:output.obj
 0002:0000d970       ??_C@_1BDM@FDOLKCHK@?$AA_?$AA_?$AAc?$AAr?$AAt?$AA_?$AAs?$AAt?$AAd?$AAi?$AAo?$AA_?$AAo?$AAu?$AAt@ 10093970     libucrtd:output.obj
 0002:0000dab0       ??_C@_1BNK@ONPHCEAM@?$AA_?$AA_?$AAc?$AAr?$AAt?$AA_?$AAs?$AAt?$AAd?$AAi?$AAo?$AA_?$AAo?$AAu?$AAt@ 10093ab0     libucrtd:output.obj
 0002:0000dc90       ??_C@_1BNO@LMMLJOOJ@?$AA_?$AA_?$AAc?$AAr?$AAt?$AA_?$AAs?$AAt?$AAd?$AAi?$AAo?$AA_?$AAo?$AAu?$AAt@ 10093c90     libucrtd:output.obj
 0002:0000de70       ??_C@_1GC@BNMHNGKM@?$AA_?$AAs?$AAt?$AAa?$AAt?$AAe?$AA?5?$AA?$DN?$AA?$DN?$AA?5?$AAs?$AAt?$AAa?$AAt?$AAe@ 10093e70     libucrtd:output.obj
 0002:0000ded8       ??_C@_1BEC@FNIGNBHI@?$AA_?$AA_?$AAc?$AAr?$AAt?$AA_?$AAs?$AAt?$AAd?$AAi?$AAo?$AA_?$AAo?$AAu?$AAt@ 10093ed8     libucrtd:output.obj
 0002:0000e020       ??_C@_1BMC@DAENMDAD@?$AA_?$AA_?$AAc?$AAr?$AAt?$AA_?$AAs?$AAt?$AAd?$AAi?$AAo?$AA_?$AAo?$AAu?$AAt@ 10094020     libucrtd:output.obj
 0002:0000e1e8       ??_C@_1BMG@KOENKAMB@?$AA_?$AA_?$AAc?$AAr?$AAt?$AA_?$AAs?$AAt?$AAd?$AAi?$AAo?$AA_?$AAo?$AAu?$AAt@ 100941e8     libucrtd:output.obj
 0002:0000e3b0       ??_C@_1BDG@PLANJEFE@?$AA_?$AA_?$AAc?$AAr?$AAt?$AA_?$AAs?$AAt?$AAd?$AAi?$AAo?$AA_?$AAo?$AAu?$AAt@ 100943b0     libucrtd:output.obj
 0002:0000e4e8       ??_C@_1BMI@DNMDMAAN@?$AA_?$AA_?$AAc?$AAr?$AAt?$AA_?$AAs?$AAt?$AAd?$AAi?$AAo?$AA_?$AAo?$AAu?$AAt@ 100944e8     libucrtd:output.obj
 0002:0000e6b0       ??_C@_1BMM@JHGFKAND@?$AA_?$AA_?$AAc?$AAr?$AAt?$AA_?$AAs?$AAt?$AAd?$AAi?$AAo?$AA_?$AAo?$AAu?$AAt@ 100946b0     libucrtd:output.obj
 0002:0000e87c       ??_C@_1CA@ONEGMNAN@?$AA_?$AAs?$AAt?$AAr?$AAe?$AAa?$AAm?$AA?4?$AAv?$AAa?$AAl?$AAi?$AAd?$AA?$CI?$AA?$CJ@ 1009487c     libucrtd:output.obj
 0002:0000e8a0       ??_C@_1HK@MPBCDOK@?$AA_?$AA_?$AAc?$AAr?$AAt?$AA_?$AAs?$AAt?$AAd?$AAi?$AAo?$AA_?$AAo?$AAu?$AAt@ 100948a0     libucrtd:output.obj
 0002:0000e920       ??_C@_1BLA@GJNGKGIK@?$AA_?$AA_?$AAc?$AAr?$AAt?$AA_?$AAs?$AAt?$AAd?$AAi?$AAo?$AA_?$AAo?$AAu?$AAt@ 10094920     libucrtd:output.obj
 0002:0000ead0       ??_C@_1BLE@PAACOKDK@?$AA_?$AA_?$AAc?$AAr?$AAt?$AA_?$AAs?$AAt?$AAd?$AAi?$AAo?$AA_?$AAo?$AAu?$AAt@ 10094ad0     libucrtd:output.obj
 0002:0000ec88       ??_C@_1HE@FGKHNBNL@?$AA_?$AA_?$AAc?$AAr?$AAt?$AA_?$AAs?$AAt?$AAd?$AAi?$AAo?$AA_?$AAo?$AAu?$AAt@ 10094c88     libucrtd:output.obj
 0002:0000ed00       ??_C@_1BEC@NDOOKIMC@?$AA_?$AA_?$AAc?$AAr?$AAt?$AA_?$AAs?$AAt?$AAd?$AAi?$AAo?$AA_?$AAo?$AAu?$AAt@ 10094d00     libucrtd:output.obj
 0002:0000ee48       ??_C@_1EK@PNGFDECN@?$AA?$CI?$AA?$CC?$AA?8?$AAn?$AA?8?$AA?5?$AAf?$AAo?$AAr?$AAm?$AAa?$AAt?$AA?5?$AAs?$AAp@ 10094e48     libucrtd:output.obj
 0002:0000ee98       ??_C@_1BNI@OPBGCNOB@?$AA_?$AA_?$AAc?$AAr?$AAt?$AA_?$AAs?$AAt?$AAd?$AAi?$AAo?$AA_?$AAo?$AAu?$AAt@ 10094e98     libucrtd:output.obj
 0002:0000f070       ??_C@_1EO@GHKFGFKL@?$AA?$CI?$AA?$CC?$AAI?$AAn?$AAv?$AAa?$AAl?$AAi?$AAd?$AA?5?$AAi?$AAn?$AAt?$AAe?$AAg@ 10095070     libucrtd:output.obj
 0002:0000f0c0       ??_C@_1JC@PMCLKCOC@?$AAp?$AAr?$AAe?$AAc?$AAi?$AAs?$AAi?$AAo?$AAn?$AA_?$AAi?$AAn?$AAd?$AAe?$AAx@ 100950c0     libucrtd:output.obj
 0002:0000f158       ??_C@_1BAG@GKCGGKOF@?$AA_?$AA_?$AAc?$AAr?$AAt?$AA_?$AAs?$AAt?$AAd?$AAi?$AAo?$AA_?$AAo?$AAu?$AAt@ 10095158     libucrtd:output.obj
 0002:0000f260       ??_C@_1IC@KGDNLBNC@?$AAw?$AAi?$AAd?$AAt?$AAh?$AA_?$AAi?$AAn?$AAd?$AAe?$AAx?$AA?5?$AA?$DO?$AA?$DN?$AA?5@ 10095260     libucrtd:output.obj
 0002:0000f2e8       ??_C@_1BAK@CDLANFGA@?$AA_?$AA_?$AAc?$AAr?$AAt?$AA_?$AAs?$AAt?$AAd?$AAi?$AAo?$AA_?$AAo?$AAu?$AAt@ 100952e8     libucrtd:output.obj
 0002:0000f3f8       ??_C@_1BDG@KOLEFKPF@?$AA_?$AA_?$AAc?$AAr?$AAt?$AA_?$AAs?$AAt?$AAd?$AAi?$AAo?$AA_?$AAo?$AAu?$AAt@ 100953f8     libucrtd:output.obj
 0002:0000f530       ??_C@_1BMA@CBPCAOAB@?$AA_?$AA_?$AAc?$AAr?$AAt?$AA_?$AAs?$AAt?$AAd?$AAi?$AAo?$AA_?$AAo?$AAu?$AAt@ 10095530     libucrtd:output.obj
 0002:0000f6f0       ??_C@_1PK@KBJLALII@?$AA_?$AA_?$AAc?$AAr?$AAt?$AA_?$AAs?$AAt?$AAd?$AAi?$AAo?$AA_?$AAo?$AAu?$AAt@ 100956f0     libucrtd:output.obj
 0002:0000f7f0       ??_C@_1PO@PODEJAGE@?$AA_?$AA_?$AAc?$AAr?$AAt?$AA_?$AAs?$AAt?$AAd?$AAi?$AAo?$AA_?$AAo?$AAu?$AAt@ 100957f0     libucrtd:output.obj
 0002:0000f8f0       ??_C@_1BMA@IHIBOLMD@?$AA_?$AA_?$AAc?$AAr?$AAt?$AA_?$AAs?$AAt?$AAd?$AAi?$AAo?$AA_?$AAo?$AAu?$AAt@ 100958f0     libucrtd:output.obj
 0002:0000fab0       ??_C@_1BKI@CJEIGDAI@?$AA_?$AA_?$AAc?$AAr?$AAt?$AA_?$AAs?$AAt?$AAd?$AAi?$AAo?$AA_?$AAo?$AAu?$AAt@ 10095ab0     libucrtd:output.obj
 0002:0000fc58       ??_C@_1BNI@IMOCDBNE@?$AA_?$AA_?$AAc?$AAr?$AAt?$AA_?$AAs?$AAt?$AAd?$AAi?$AAo?$AA_?$AAo?$AAu?$AAt@ 10095c58     libucrtd:output.obj
 0002:0000fe30       ??_C@_1BAG@DOFNHDMF@?$AA_?$AA_?$AAc?$AAr?$AAt?$AA_?$AAs?$AAt?$AAd?$AAi?$AAo?$AA_?$AAo?$AAu?$AAt@ 10095e30     libucrtd:output.obj
 0002:0000ff38       ??_C@_1BAK@DALINHHB@?$AA_?$AA_?$AAc?$AAr?$AAt?$AA_?$AAs?$AAt?$AAd?$AAi?$AAo?$AA_?$AAo?$AAu?$AAt@ 10095f38     libucrtd:output.obj
 0002:00010048       ??_C@_1BMA@GACGPGHN@?$AA_?$AA_?$AAc?$AAr?$AAt?$AA_?$AAs?$AAt?$AAd?$AAi?$AAo?$AA_?$AAo?$AAu?$AAt@ 10096048     libucrtd:output.obj
 0002:00010208       ??_C@_1PK@KBJECIEM@?$AA_?$AA_?$AAc?$AAr?$AAt?$AA_?$AAs?$AAt?$AAd?$AAi?$AAo?$AA_?$AAo?$AAu?$AAt@ 10096208     libucrtd:output.obj
 0002:00010308       ??_C@_1PO@LKIIANED@?$AA_?$AA_?$AAc?$AAr?$AAt?$AA_?$AAs?$AAt?$AAd?$AAi?$AAo?$AA_?$AAo?$AAu?$AAt@ 10096308     libucrtd:output.obj
 0002:00010408       ??_C@_1BNC@DONELHFF@?$AA_?$AA_?$AAc?$AAr?$AAt?$AA_?$AAs?$AAt?$AAd?$AAi?$AAo?$AA_?$AAo?$AAu?$AAt@ 10096408     libucrtd:output.obj
 0002:000105e0       ??_C@_1BLK@BGFMMAPO@?$AA_?$AA_?$AAc?$AAr?$AAt?$AA_?$AAs?$AAt?$AAd?$AAi?$AAo?$AA_?$AAo?$AAu?$AAt@ 100965e0     libucrtd:output.obj
 0002:000107a0       ??_C@_1BMA@PGOJAHFP@?$AA_?$AA_?$AAc?$AAr?$AAt?$AA_?$AAs?$AAt?$AAd?$AAi?$AAo?$AA_?$AAo?$AAu?$AAt@ 100967a0     libucrtd:output.obj
 0002:00010960       ??_C@_1BKI@NDKBCDGP@?$AA_?$AA_?$AAc?$AAr?$AAt?$AA_?$AAs?$AAt?$AAd?$AAi?$AAo?$AA_?$AAo?$AAu?$AAt@ 10096960     libucrtd:output.obj
 0002:00010b08       ??_C@_1O@CEDCILHN@?$AA?$CI?$AAn?$AAu?$AAl?$AAl?$AA?$CJ@ 10096b08     libucrtd:output.obj
 0002:00010b18       ??_C@_06OJHGLDPL@?$CInull?$CJ@ 10096b18     libucrtd:output.obj
 0002:00010b20       ??_C@_1BOE@LIBLDKPN@?$AA_?$AA_?$AAc?$AAr?$AAt?$AA_?$AAs?$AAt?$AAd?$AAi?$AAo?$AA_?$AAo?$AAu?$AAt@ 10096b20     libucrtd:output.obj
 0002:00010d08       ??_C@_1LO@HECDHMMI@?$AAi?$AAs?$AA_?$AAp?$AAo?$AAs?$AAi?$AAt?$AAi?$AAo?$AAn?$AAa?$AAl?$AA_?$AAp@ 10096d08     libucrtd:output.obj
 0002:00010dc8       ??_C@_1BCI@OBMMNJKK@?$AA_?$AA_?$AAc?$AAr?$AAt?$AA_?$AAs?$AAt?$AAd?$AAi?$AAo?$AA_?$AAo?$AAu?$AAt@ 10096dc8     libucrtd:output.obj
 0002:00010ef0       ??_C@_1FE@IAFJEKN@?$AA_?$AAt?$AAy?$AAp?$AAe?$AA_?$AAi?$AAn?$AAd?$AAe?$AAx?$AA?5?$AA?$DO?$AA?$DN?$AA?5@ 10096ef0     libucrtd:output.obj
 0002:00010f48       ??_C@_1BCC@GJLKCHIG@?$AA_?$AA_?$AAc?$AAr?$AAt?$AA_?$AAs?$AAt?$AAd?$AAi?$AAo?$AA_?$AAo?$AAu?$AAt@ 10096f48     libucrtd:output.obj
 0002:00011070       ??_C@_1BMM@KBPMKFBC@?$AA_?$AA_?$AAc?$AAr?$AAt?$AA_?$AAs?$AAt?$AAd?$AAi?$AAo?$AA_?$AAo?$AAu?$AAt@ 10097070     libucrtd:output.obj
 0002:0001123c       ??_C@_1CK@LGDCECDH@?$AA_?$AAf?$AAo?$AAr?$AAm?$AAa?$AAt?$AA_?$AAc?$AAh?$AAa?$AAr?$AA?5?$AA?$CB?$AA?$DN@ 1009723c     libucrtd:output.obj
 0002:00011268       ??_C@_1BNI@EDCGAPJB@?$AA_?$AA_?$AAc?$AAr?$AAt?$AA_?$AAs?$AAt?$AAd?$AAi?$AAo?$AA_?$AAo?$AAu?$AAt@ 10097268     libucrtd:output.obj
 0002:00011440       ??_C@_1BBM@CBBAFMPJ@?$AA_?$AA_?$AAc?$AAr?$AAt?$AA_?$AAs?$AAt?$AAd?$AAi?$AAo?$AA_?$AAo?$AAu?$AAt@ 10097440     libucrtd:output.obj
 0002:00011560       ??_C@_1BBG@KIHCHFIM@?$AA_?$AA_?$AAc?$AAr?$AAt?$AA_?$AAs?$AAt?$AAd?$AAi?$AAo?$AA_?$AAo?$AAu?$AAt@ 10097560     libucrtd:output.obj
 0002:00011678       ??_C@_1BMM@MBMBCJIF@?$AA_?$AA_?$AAc?$AAr?$AAt?$AA_?$AAs?$AAt?$AAd?$AAi?$AAo?$AA_?$AAo?$AAu?$AAt@ 10097678     libucrtd:output.obj
 0002:00011848       ??_C@_1BLE@IFBJPNFE@?$AA_?$AA_?$AAc?$AAr?$AAt?$AA_?$AAs?$AAt?$AAd?$AAi?$AAo?$AA_?$AAo?$AAu?$AAt@ 10097848     libucrtd:output.obj
 0002:00011a00       ??_C@_1BMA@FANDDEHK@?$AA_?$AA_?$AAc?$AAr?$AAt?$AA_?$AAs?$AAt?$AAd?$AAi?$AAo?$AA_?$AAo?$AAu?$AAt@ 10097a00     libucrtd:output.obj
 0002:00011bc0       ??_C@_1BOE@OMDELMGH@?$AA_?$AA_?$AAc?$AAr?$AAt?$AA_?$AAs?$AAt?$AAd?$AAi?$AAo?$AA_?$AAo?$AAu?$AAt@ 10097bc0     libucrtd:output.obj
 0002:00011da8       ??_C@_1BCI@ILAANKJG@?$AA_?$AA_?$AAc?$AAr?$AAt?$AA_?$AAs?$AAt?$AAd?$AAi?$AAo?$AA_?$AAo?$AAu?$AAt@ 10097da8     libucrtd:output.obj
 0002:00011ed0       ??_C@_1BCC@PDNLFIHK@?$AA_?$AA_?$AAc?$AAr?$AAt?$AA_?$AAs?$AAt?$AAd?$AAi?$AAo?$AA_?$AAo?$AAu?$AAt@ 10097ed0     libucrtd:output.obj
 0002:00011ff8       ??_C@_1BMM@CMKPNHDJ@?$AA_?$AA_?$AAc?$AAr?$AAt?$AA_?$AAs?$AAt?$AAd?$AAi?$AAo?$AA_?$AAo?$AAu?$AAt@ 10097ff8     libucrtd:output.obj
 0002:000121c8       ??_C@_1BNI@EJPCEBAG@?$AA_?$AA_?$AAc?$AAr?$AAt?$AA_?$AAs?$AAt?$AAd?$AAi?$AAo?$AA_?$AAo?$AAu?$AAt@ 100981c8     libucrtd:output.obj
 0002:000123a0       ??_C@_1BBM@LLHBCDAF@?$AA_?$AA_?$AAc?$AAr?$AAt?$AA_?$AAs?$AAt?$AAd?$AAi?$AAo?$AA_?$AAo?$AAu?$AAt@ 100983a0     libucrtd:output.obj
 0002:000124c0       ??_C@_1BBG@JLLDGFML@?$AA_?$AA_?$AAc?$AAr?$AAt?$AA_?$AAs?$AAt?$AAd?$AAi?$AAo?$AA_?$AAo?$AAu?$AAt@ 100984c0     libucrtd:output.obj
 0002:000125d8       ??_C@_1BNO@ILHNHKFA@?$AA_?$AA_?$AAc?$AAr?$AAt?$AA_?$AAs?$AAt?$AAd?$AAi?$AAo?$AA_?$AAo?$AAu?$AAt@ 100985d8     libucrtd:output.obj
 0002:000127b8       ??_C@_1BMG@JJPLEEHI@?$AA_?$AA_?$AAc?$AAr?$AAt?$AA_?$AAs?$AAt?$AAd?$AAi?$AAo?$AA_?$AAo?$AAu?$AAt@ 100987b8     libucrtd:output.obj
 0002:00012980       ??_C@_1BNC@BAMNIOCM@?$AA_?$AA_?$AAc?$AAr?$AAt?$AA_?$AAs?$AAt?$AAd?$AAi?$AAo?$AA_?$AAo?$AAu?$AAt@ 10098980     libucrtd:output.obj
 0002:00012b58       ??_C@_1BMM@KANDEEGK@?$AA_?$AA_?$AAc?$AAr?$AAt?$AA_?$AAs?$AAt?$AAd?$AAi?$AAo?$AA_?$AAo?$AAu?$AAt@ 10098b58     libucrtd:output.obj
 0002:00012d28       ??_C@_1BLE@MHLEAOID@?$AA_?$AA_?$AAc?$AAr?$AAt?$AA_?$AAs?$AAt?$AAd?$AAi?$AAo?$AA_?$AAo?$AAu?$AAt@ 10098d28     libucrtd:output.obj
 0002:00012ee0       ??_C@_1BMA@MEBEEDJE@?$AA_?$AA_?$AAc?$AAr?$AAt?$AA_?$AAs?$AAt?$AAd?$AAi?$AAo?$AA_?$AAo?$AAu?$AAt@ 10098ee0     libucrtd:output.obj
 0002:000130a0       ??_C@_1BCA@HCPCJFGA@?$AA_?$AA_?$AAc?$AAr?$AAt?$AA_?$AAs?$AAt?$AAd?$AAi?$AAo?$AA_?$AAo?$AAu?$AAt@ 100990a0     libucrtd:output.obj
 0002:000131c0       ??_C@_0DI@KIFBHMNO@minkernel?2crts?2ucrt?2inc?2corecrt@ 100991c0     libucrtd:output.obj
 0002:000131f8       ??_C@_1BBE@IBPNPIIM@?$AA_?$AA_?$AAc?$AAr?$AAt?$AA_?$AAs?$AAt?$AAd?$AAi?$AAo?$AA_?$AAo?$AAu?$AAt@ 100991f8     libucrtd:output.obj
 0002:00013310       ??_C@_1BCA@FCGNBIN@?$AA_?$AA_?$AAc?$AAr?$AAt?$AA_?$AAs?$AAt?$AAd?$AAi?$AAo?$AA_?$AAo?$AAu?$AAt@ 10099310     libucrtd:output.obj
 0002:00013430       ??_C@_1BBE@FLKADCDA@?$AA_?$AA_?$AAc?$AAr?$AAt?$AA_?$AAs?$AAt?$AAd?$AAi?$AAo?$AA_?$AAo?$AAu?$AAt@ 10099430     libucrtd:output.obj
 0002:00013548       ??_C@_1BMK@JGIBNIA@?$AA_?$AA_?$AAc?$AAr?$AAt?$AA_?$AAs?$AAt?$AAd?$AAi?$AAo?$AA_?$AAo?$AAu?$AAt@ 10099548     libucrtd:output.obj
 0002:00013718       ??_C@_1BLC@INKIGOCN@?$AA_?$AA_?$AAc?$AAr?$AAt?$AA_?$AAs?$AAt?$AAd?$AAi?$AAo?$AA_?$AAo?$AAu?$AAt@ 10099718     libucrtd:output.obj
 0002:000138d0       ??_C@_1BNK@KHNJGCCP@?$AA_?$AA_?$AAc?$AAr?$AAt?$AA_?$AAs?$AAt?$AAd?$AAi?$AAo?$AA_?$AAo?$AAu?$AAt@ 100998d0     libucrtd:output.obj
 0002:00013ab0       ??_C@_1BNO@OHFFMOOJ@?$AA_?$AA_?$AAc?$AAr?$AAt?$AA_?$AAs?$AAt?$AAd?$AAi?$AAo?$AA_?$AAo?$AAu?$AAt@ 10099ab0     libucrtd:output.obj
 0002:00013c90       ??_C@_1BMC@FAGJFBLI@?$AA_?$AA_?$AAc?$AAr?$AAt?$AA_?$AAs?$AAt?$AAd?$AAi?$AAo?$AA_?$AAo?$AAu?$AAt@ 10099c90     libucrtd:output.obj
 0002:00013e58       ??_C@_1BMG@CGPDIFDK@?$AA_?$AA_?$AAc?$AAr?$AAt?$AA_?$AAs?$AAt?$AAd?$AAi?$AAo?$AA_?$AAo?$AAu?$AAt@ 10099e58     libucrtd:output.obj
 0002:00014020       ??_C@_1BNC@OHPDPPJK@?$AA_?$AA_?$AAc?$AAr?$AAt?$AA_?$AAs?$AAt?$AAd?$AAi?$AAo?$AA_?$AAo?$AAu?$AAt@ 1009a020     libucrtd:output.obj
 0002:000141f8       ??_C@_1BLK@FOLFMPJH@?$AA_?$AA_?$AAc?$AAr?$AAt?$AA_?$AAs?$AAt?$AAd?$AAi?$AAo?$AA_?$AAo?$AAu?$AAt@ 1009a1f8     libucrtd:output.obj
 0002:000143b8       ??_C@_1BNO@NAODCKFA@?$AA_?$AA_?$AAc?$AAr?$AAt?$AA_?$AAs?$AAt?$AAd?$AAi?$AAo?$AA_?$AAo?$AAu?$AAt@ 1009a3b8     libucrtd:output.obj
 0002:00014598       ??_C@_1BMG@BBEFGBID@?$AA_?$AA_?$AAc?$AAr?$AAt?$AA_?$AAs?$AAt?$AAd?$AAi?$AAo?$AA_?$AAo?$AAu?$AAt@ 1009a598     libucrtd:output.obj
 0002:00014760       ??_C@_1BNC@JPKLPOHO@?$AA_?$AA_?$AAc?$AAr?$AAt?$AA_?$AAs?$AAt?$AAd?$AAi?$AAo?$AA_?$AAo?$AAu?$AAt@ 1009a760     libucrtd:output.obj
 0002:00014aa0       ??_C@_1CE@JMFACANE@?$AAr?$AAe?$AAs?$AAu?$AAl?$AAt?$AA?5?$AA?$CB?$AA?$DN?$AA?5?$AAn?$AAu?$AAl?$AAl?$AAp@ 1009aaa0     libucrtd:errno.obj
 0002:00014ac8       ??_C@_1FM@MJJGEFKM@?$AAm?$AAi?$AAn?$AAk?$AAe?$AAr?$AAn?$AAe?$AAl?$AA?2?$AAc?$AAr?$AAt?$AAs?$AA?2@ 1009aac8     libucrtd:errno.obj
 0002:00014b24       ??_C@_1BG@KCMPBBDK@?$AA_?$AAg?$AAe?$AAt?$AA_?$AAe?$AAr?$AAr?$AAn?$AAo@ 1009ab24     libucrtd:errno.obj
 0002:00014b3c       ??_C@_1BM@INIPHHDD@?$AA_?$AAg?$AAe?$AAt?$AA_?$AAd?$AAo?$AAs?$AAe?$AAr?$AAr?$AAn?$AAo@ 1009ab3c     libucrtd:errno.obj
 0002:00014b58       ??_C@_1CA@EOJJMFA@?$AAc?$AAo?$AAm?$AAm?$AAo?$AAn?$AA_?$AAt?$AAc?$AAs?$AAc?$AAa?$AAt?$AA_?$AAs@ 1009ab58     libucrtd:wcscat_s.obj
 0002:00014b78       ??_C@_1DM@FHLMIEG@?$AAS?$AAt?$AAr?$AAi?$AAn?$AAg?$AA?5?$AAi?$AAs?$AA?5?$AAn?$AAo?$AAt?$AA?5?$AAn@ 1009ab78     libucrtd:wcscat_s.obj
 0002:00014bb8       ??_C@_1FA@MJKDNFFB@?$AA?$CI?$AAL?$AA?$CC?$AAS?$AAt?$AAr?$AAi?$AAn?$AAg?$AA?5?$AAi?$AAs?$AA?5?$AAn?$AAo@ 1009abb8     libucrtd:wcscat_s.obj
 0002:00014c08       ??_C@_1CC@CHNFGJIC@?$AAc?$AAo?$AAm?$AAm?$AAo?$AAn?$AA_?$AAt?$AAc?$AAs?$AAn?$AAc?$AAp?$AAy?$AA_@ 1009ac08     libucrtd:wcsncpy_s.obj
 0002:00014c30       ___acrt_exception_action_table 1009ac30     libucrtd:exception_filter.obj
 0002:00014cc0       ___acrt_signal_action_table_count 1009acc0     libucrtd:exception_filter.obj
 0002:00014cc4       ___acrt_signal_action_table_size 1009acc4     libucrtd:exception_filter.obj
 0002:00014cc8       ___acrt_signal_action_first_fpe_index 1009acc8     libucrtd:exception_filter.obj
 0002:00014ccc       ___acrt_signal_action_fpe_count 1009accc     libucrtd:exception_filter.obj
 0002:00014cd0       _RtlNtPathSeperatorString  1009acd0     libucrtd:exit.obj
 0002:00014cd8       ??_C@_13FPGAJAPJ@?$AA?2@   1009acd8     libucrtd:exit.obj
 0002:00014cdc       _RtlDosPathSeperatorsString 1009acdc     libucrtd:exit.obj
 0002:00014ce4       ??_C@_15MNCACJLI@?$AA?2?$AA?1@ 1009ace4     libucrtd:exit.obj
 0002:00014cec       _RtlAlternateDosPathSeperatorString 1009acec     libucrtd:exit.obj
 0002:00014cf4       ??_C@_13CGOKJPIL@?$AA?1@   1009acf4     libucrtd:exit.obj
 0002:00014cf8       ??_C@_1BI@BGOHAHKC@?$AAm?$AAs?$AAc?$AAo?$AAr?$AAe?$AAe?$AA?4?$AAd?$AAl?$AAl@ 1009acf8     libucrtd:exit.obj
 0002:00014d10       ??_C@_0P@MIGLKIOC@CorExitProcess@ 1009ad10     libucrtd:exit.obj
 0002:00014d20       ??_C@_0DI@KNDIGDEP@minkernel?2crts?2ucrt?2src?2appcrt?2@ 1009ad20     libucrtd:argv_parsing.obj
 0002:00014d58       ??_C@_1JO@PGBIJBAM@?$AAm?$AAo?$AAd?$AAe?$AA?5?$AA?$DN?$AA?$DN?$AA?5?$AA_?$AAc?$AAr?$AAt?$AA_?$AAa?$AAr@ 1009ad58     libucrtd:argv_parsing.obj
 0002:00014df8       ??_C@_1HA@JMLCANEE@?$AAm?$AAi?$AAn?$AAk?$AAe?$AAr?$AAn?$AAe?$AAl?$AA?2?$AAc?$AAr?$AAt?$AAs?$AA?2@ 1009adf8     libucrtd:argv_parsing.obj
 0002:00014e68       ??_C@_1CM@LHOJELIC@?$AAc?$AAo?$AAm?$AAm?$AAo?$AAn?$AA_?$AAc?$AAo?$AAn?$AAf?$AAi?$AAg?$AAu?$AAr@ 1009ae68     libucrtd:argv_parsing.obj
 0002:00014e98       ??_C@_0EG@LEHKHOEH@minkernel?2crts?2ucrt?2src?2desktop@ 1009ae98     libucrtd:environment_initialization.obj
 0002:00014ee0       ??_C@_1IM@IMOFFPLG@?$AAm?$AAi?$AAn?$AAk?$AAe?$AAr?$AAn?$AAe?$AAl?$AA?2?$AAc?$AAr?$AAt?$AAs?$AA?2@ 1009aee0     libucrtd:environment_initialization.obj
 0002:00014f6c       ??_C@_1CG@MNNNBNAK@?$AAc?$AAr?$AAe?$AAa?$AAt?$AAe?$AA_?$AAe?$AAn?$AAv?$AAi?$AAr?$AAo?$AAn?$AAm@ 1009af6c     libucrtd:environment_initialization.obj
 0002:00014f98       ??_C@_1HI@OOPIFFGA@?$AAt?$AAr?$AAa?$AAi?$AAt?$AAs?$AA?3?$AA?3?$AAt?$AAc?$AAs?$AAc?$AAp?$AAy?$AA_@ 1009af98     libucrtd:environment_initialization.obj
 0002:00015010       ??_C@_0DC@NBHMIIKL@minkernel?2crts?2ucrt?2src?2appcrt?2@ 1009b010     libucrtd:onexit.obj
 0002:000150dc       ??_C@_04HJMOFLDF@Free@     1009b0dc     libucrtd:debug_heap.obj
 0002:000150e4       ??_C@_06EFAGIKOH@Normal@   1009b0e4     libucrtd:debug_heap.obj
 0002:000150ec       ??_C@_03OGPFLFLO@CRT@      1009b0ec     libucrtd:debug_heap.obj
 0002:000150f0       ??_C@_06KMEJCCGM@Ignore@   1009b0f0     libucrtd:debug_heap.obj
 0002:000150f8       ??_C@_06PJIGMIJB@Client@   1009b0f8     libucrtd:debug_heap.obj
 0002:00015100       ??_C@_1CE@LJFEPPMP@?$AA_?$AAC?$AAr?$AAt?$AAC?$AAh?$AAe?$AAc?$AAk?$AAM?$AAe?$AAm?$AAo?$AAr?$AAy@ 1009b100     libucrtd:debug_heap.obj
 0002:00015128       ??_C@_1GG@OCLHPJPK@?$AAm?$AAi?$AAn?$AAk?$AAe?$AAr?$AAn?$AAe?$AAl?$AA?2?$AAc?$AAr?$AAt?$AAs?$AA?2@ 1009b128     libucrtd:debug_heap.obj
 0002:00015190       ??_C@_0DF@BBEGIFEK@Client?5hook?5allocation?5failure?5@ 1009b190     libucrtd:debug_heap.obj
 0002:000151c8       ??_C@_0CB@CCLOLAHO@Client?5hook?5allocation?5failure?4@ 1009b1c8     libucrtd:debug_heap.obj
 0002:000151ec       ??_C@_02DKCKIIND@?$CFs@    1009b1ec     libucrtd:debug_heap.obj
 0002:000151f0       ??_C@_0DC@JEMAGEKG@Error?3?5memory?5allocation?3?5bad?5m@ 1009b1f0     libucrtd:debug_heap.obj
 0002:00015224       ??_C@_0DI@KKJPDPGM@Client?5hook?5re?9allocation?5failu@ 1009b224     libucrtd:debug_heap.obj
 0002:0001525c       ??_C@_0CE@DOFMDOL@Client?5hook?5re?9allocation?5failu@ 1009b25c     libucrtd:debug_heap.obj
 0002:00015280       ??_C@_0FA@EFEIGJKG@Error?3?5memory?5allocation?3?5bad?5m@ 1009b280     libucrtd:debug_heap.obj
 0002:000152d0       ??_C@_0EM@LGFLMAGJ@The?5Block?5at?50x?$CFp?5was?5allocated@ 1009b2d0     libucrtd:debug_heap.obj
 0002:0001531c       ??_C@_1DM@DEDLGNML@?$AA_?$AAC?$AAr?$AAt?$AAI?$AAs?$AAV?$AAa?$AAl?$AAi?$AAd?$AAH?$AAe?$AAa?$AAp@ 1009b31c     libucrtd:debug_heap.obj
 0002:00015358       ??_C@_1PC@MCGKJLN@?$AAo?$AAl?$AAd?$AA_?$AAh?$AAe?$AAa?$AAd?$AA?9?$AA?$DO?$AA_?$AAl?$AAi?$AAn?$AAe@ 1009b358     libucrtd:debug_heap.obj
 0002:0001544c       ??_C@_0DA@HFBKENN@Error?3?5possible?5heap?5corruption@ 1009b44c     libucrtd:debug_heap.obj
 0002:00015480       ??_C@_1JM@MCMEPJEP@?$AAr?$AAe?$AAa?$AAl?$AAl?$AAo?$AAc?$AAa?$AAt?$AAi?$AAo?$AAn?$AA_?$AAi?$AAs@ 1009b480     libucrtd:debug_heap.obj
 0002:0001551c       ??_C@_1DM@LNOPKAIJ@?$AA_?$AA_?$AAa?$AAc?$AAr?$AAt?$AA_?$AAl?$AAa?$AAs?$AAt?$AA_?$AAb?$AAl?$AAo@ 1009b51c     libucrtd:debug_heap.obj
 0002:00015558       ??_C@_1DO@HABCJBHO@?$AA_?$AA_?$AAa?$AAc?$AAr?$AAt?$AA_?$AAf?$AAi?$AAr?$AAs?$AAt?$AA_?$AAb?$AAl@ 1009b558     libucrtd:debug_heap.obj
 0002:00015598       ??_C@_1CC@CKEAHJPH@?$AAb?$AAl?$AAo?$AAc?$AAk?$AA?5?$AA?$CB?$AA?$DN?$AA?5?$AAn?$AAu?$AAl?$AAl?$AAp?$AAt@ 1009b598     libucrtd:debug_heap.obj
 0002:000155bc       ??_C@_1BI@HAPNGHDP@?$AA_?$AAe?$AAx?$AAp?$AAa?$AAn?$AAd?$AA_?$AAd?$AAb?$AAg@ 1009b5bc     libucrtd:debug_heap.obj
 0002:000155d8       ??_C@_0EJ@HEIBCIMJ@The?5Block?5at?50x?$CFp?5was?5allocated@ 1009b5d8     libucrtd:debug_heap.obj
 0002:00015624       ??_C@_0BL@KEIPLFAC@Client?5hook?5free?5failure?4?6@ 1009b624     libucrtd:debug_heap.obj
 0002:00015640       ??_C@_1FA@KDNEBILF@?$AAi?$AAs?$AA_?$AAb?$AAl?$AAo?$AAc?$AAk?$AA_?$AAt?$AAy?$AAp?$AAe?$AA_?$AAv@ 1009b640     libucrtd:debug_heap.obj
 0002:00015690       ??_C@_0KI@JGFOHMEB@HEAP?5CORRUPTION?5DETECTED?3?5befor@ 1009b690     libucrtd:debug_heap.obj
 0002:00015738       ??_C@_0IK@PJCGLBOB@HEAP?5CORRUPTION?5DETECTED?3?5befor@ 1009b738     libucrtd:debug_heap.obj
 0002:000157c8       ??_C@_0KE@MBMNHHHN@HEAP?5CORRUPTION?5DETECTED?3?5after@ 1009b7c8     libucrtd:debug_heap.obj
 0002:00015870       ??_C@_0IG@LEMBDCJK@HEAP?5CORRUPTION?5DETECTED?3?5after@ 1009b870     libucrtd:debug_heap.obj
 0002:000158f8       ??_C@_1OK@GFEOEJAF@?$AAh?$AAe?$AAa?$AAd?$AAe?$AAr?$AA?9?$AA?$DO?$AA_?$AAl?$AAi?$AAn?$AAe?$AA_?$AAn@ 1009b8f8     libucrtd:debug_heap.obj
 0002:000159e8       ??_C@_1ME@GFALMLNA@?$AAh?$AAe?$AAa?$AAd?$AAe?$AAr?$AA?9?$AA?$DO?$AA_?$AAb?$AAl?$AAo?$AAc?$AAk?$AA_@ 1009b9e8     libucrtd:debug_heap.obj
 0002:00015aac       ??_C@_1DI@ILNOPEPI@?$AA_?$AA_?$AAa?$AAc?$AAr?$AAt?$AA_?$AAl?$AAa?$AAs?$AAt?$AA_?$AAb?$AAl?$AAo@ 1009baac     libucrtd:debug_heap.obj
 0002:00015ae4       ??_C@_1DK@KEHFGDIJ@?$AA_?$AA_?$AAa?$AAc?$AAr?$AAt?$AA_?$AAf?$AAi?$AAr?$AAs?$AAt?$AA_?$AAb?$AAl@ 1009bae4     libucrtd:debug_heap.obj
 0002:00015b20       ??_C@_1BG@MBKOGDLD@?$AA_?$AAm?$AAs?$AAi?$AAz?$AAe?$AA_?$AAd?$AAb?$AAg@ 1009bb20     libucrtd:debug_heap.obj
 0002:00015b38       ??_C@_07OHKEFPKJ@DAMAGED@  1009bb38     libucrtd:debug_heap.obj
 0002:00015b40       ??_C@_0KA@IHNJJKPL@HEAP?5CORRUPTION?5DETECTED?3?5on?5to@ 1009bb40     libucrtd:debug_heap.obj
 0002:00015be0       ??_C@_0IC@BBJIOOJH@HEAP?5CORRUPTION?5DETECTED?3?5on?5to@ 1009bbe0     libucrtd:debug_heap.obj
 0002:00015c68       ??_C@_0EG@DGJMPDBH@?$CFhs?5located?5at?50x?$CFp?5is?5?$CFIu?5byte@ 1009bc68     libucrtd:debug_heap.obj
 0002:00015cb0       ??_C@_0CI@JMLBEDHJ@?$CFhs?5located?5at?50x?$CFp?5is?5?$CFIu?5byte@ 1009bcb0     libucrtd:debug_heap.obj
 0002:00015cd8       ??_C@_0EG@GPFHANHO@Cycle?5in?5block?5list?5detected?5wh@ 1009bcd8     libucrtd:debug_heap.obj
 0002:00015d20       ??_C@_0BJ@ELMAOCAJ@Heap?5validation?5failed?4?6@ 1009bd20     libucrtd:debug_heap.obj
 0002:00015d40       ??_C@_1IE@BBIFDGEB@?$AAn?$AAe?$AAw?$AA_?$AAb?$AAi?$AAt?$AAs?$AA?5?$AA?$DN?$AA?$DN?$AA?5?$AA_?$AAC?$AAR@ 1009bd40     libucrtd:debug_heap.obj
 0002:00015dc4       ??_C@_1BO@GJFDNMNF@?$AA_?$AAC?$AAr?$AAt?$AAS?$AAe?$AAt?$AAD?$AAb?$AAg?$AAF?$AAl?$AAa?$AAg@ 1009bdc4     libucrtd:debug_heap.obj
 0002:00015de4       ??_C@_1CI@CEIBPAIA@?$AAc?$AAa?$AAl?$AAl?$AAb?$AAa?$AAc?$AAk?$AA?5?$AA?$CB?$AA?$DN?$AA?5?$AAn?$AAu?$AAl@ 1009bde4     libucrtd:debug_heap.obj
 0002:00015e0c       ??_C@_1DE@GJCKCKEC@?$AA_?$AAC?$AAr?$AAt?$AAD?$AAo?$AAF?$AAo?$AAr?$AAA?$AAl?$AAl?$AAC?$AAl?$AAi@ 1009be0c     libucrtd:debug_heap.obj
 0002:00015e40       ??_C@_1CC@BBKMONGA@?$AAs?$AAt?$AAa?$AAt?$AAe?$AA?5?$AA?$CB?$AA?$DN?$AA?5?$AAn?$AAu?$AAl?$AAl?$AAp?$AAt@ 1009be40     libucrtd:debug_heap.obj
 0002:00015e64       ??_C@_1CE@NJJKELF@?$AA_?$AAC?$AAr?$AAt?$AAM?$AAe?$AAm?$AAC?$AAh?$AAe?$AAc?$AAk?$AAp?$AAo?$AAi@ 1009be64     libucrtd:debug_heap.obj
 0002:00015e88       ??_C@_0DP@LEFMFBOD@Bad?5memory?5block?5found?5at?50x?$CFp?4@ 1009be88     libucrtd:debug_heap.obj
 0002:00015ec8       ??_C@_0CB@EAAIGELO@Bad?5memory?5block?5found?5at?50x?$CFp?4@ 1009bec8     libucrtd:debug_heap.obj
 0002:00015eec       ??_C@_1CE@PDIENACM@?$AA_?$AAC?$AAr?$AAt?$AAM?$AAe?$AAm?$AAD?$AAi?$AAf?$AAf?$AAe?$AAr?$AAe?$AAn@ 1009beec     libucrtd:debug_heap.obj
 0002:00015f10       ??_C@_1CK@FFKLBHMD@?$AAo?$AAl?$AAd?$AA_?$AAs?$AAt?$AAa?$AAt?$AAe?$AA?5?$AA?$CB?$AA?$DN?$AA?5?$AAn?$AAu@ 1009bf10     libucrtd:debug_heap.obj
 0002:00015f3c       ??_C@_1CK@NJPPHDJP@?$AAn?$AAe?$AAw?$AA_?$AAs?$AAt?$AAa?$AAt?$AAe?$AA?5?$AA?$CB?$AA?$DN?$AA?5?$AAn?$AAu@ 1009bf3c     libucrtd:debug_heap.obj
 0002:00015f68       ??_C@_1CC@DIJAHFFJ@?$AAp?$AAr?$AAi?$AAn?$AAt?$AA_?$AAb?$AAl?$AAo?$AAc?$AAk?$AA_?$AAd?$AAa?$AAt@ 1009bf68     libucrtd:debug_heap.obj
 0002:00015f8c       ??_C@_0BA@HJBKCELP@?5Data?3?5?$DM?$CFs?$DO?5?$CFs?6@ 1009bf8c     libucrtd:debug_heap.obj
 0002:00015f9c       ??_C@_0BE@KCIPKCIA@Dumping?5objects?5?9?$DO?6@ 1009bf9c     libucrtd:debug_heap.obj
 0002:00015fb0       ??_C@_0BE@OIEFNFL@?$CDFile?5Error?$CD?$CI?$CFd?$CJ?5?3?5@ 1009bfb0     libucrtd:debug_heap.obj
 0002:00015fc4       ??_C@_0L@JMEFFCCJ@?$CFhs?$CI?$CFd?$CJ?5?3?5@ 1009bfc4     libucrtd:debug_heap.obj
 0002:00015fd0       ??_C@_06PKLGBFGM@?$HL?$CFld?$HN?5@ 1009bfd0     libucrtd:debug_heap.obj
 0002:00015fd8       ??_C@_0DD@GHNAAKBB@client?5block?5at?50x?$CFp?0?5subtype?5?$CF@ 1009bfd8     libucrtd:debug_heap.obj
 0002:0001600c       ??_C@_0CH@FAGDDGPN@normal?5block?5at?50x?$CFp?0?5?$CFIu?5bytes@ 1009c00c     libucrtd:debug_heap.obj
 0002:00016034       ??_C@_0DA@MDLBNIBM@crt?5block?5at?50x?$CFp?0?5subtype?5?$CFx?0?5@ 1009c034     libucrtd:debug_heap.obj
 0002:00016064       ??_C@_0BH@GFGKJDCO@Object?5dump?5complete?4?6@ 1009c064     libucrtd:debug_heap.obj
 0002:0001607c       ??_C@_0BI@JBFPOEJA@Detected?5memory?5leaks?$CB?6@ 1009c07c     libucrtd:debug_heap.obj
 0002:00016094       ??_C@_1CM@MPNIBKGK@?$AA_?$AAC?$AAr?$AAt?$AAM?$AAe?$AAm?$AAD?$AAu?$AAm?$AAp?$AAS?$AAt?$AAa?$AAt@ 1009c094     libucrtd:debug_heap.obj
 0002:000160c0       ??_C@_0BO@DACNIABB@?$CFId?5bytes?5in?5?$CFId?5?$CFhs?5Blocks?4?6@ 1009c0c0     libucrtd:debug_heap.obj
 0002:000160e0       ??_C@_0CB@BLHDAFNE@Largest?5number?5used?3?5?$CFId?5bytes?4@ 1009c0e0     libucrtd:debug_heap.obj
 0002:00016104       ??_C@_0BP@DEDHGGGI@Total?5allocations?3?5?$CFId?5bytes?4?6@ 1009c104     libucrtd:debug_heap.obj
 0002:00016124       ??_C@_1CM@JKMDHENJ@?$AAI?$AAS?$AA_?$AA2?$AA_?$AAP?$AAO?$AAW?$AA_?$AAN?$AA?$CI?$AAa?$AAl?$AAi?$AAg@ 1009c124     libucrtd:debug_heap.obj
 0002:00016150       ??_C@_1DG@DONCJBBJ@?$AA_?$AAa?$AAl?$AAi?$AAg?$AAn?$AAe?$AAd?$AA_?$AAo?$AAf?$AAf?$AAs?$AAe?$AAt@ 1009c150     libucrtd:debug_heap.obj
 0002:00016188       ??_C@_1DK@LFLKFPDA@?$AAo?$AAf?$AAf?$AAs?$AAe?$AAt?$AA?5?$AA?$DN?$AA?$DN?$AA?5?$AA0?$AA?5?$AA?$HM?$AA?$HM?$AA?5@ 1009c188     libucrtd:debug_heap.obj
 0002:000161c8       ??_C@_0EI@NDNJMAJK@The?5block?5at?50x?$CFp?5was?5not?5alloc@ 1009c1c8     libucrtd:debug_heap.obj
 0002:00016210       ??_C@_0DL@PGHMMKNE@Damage?5before?50x?$CFp?5which?5was?5al@ 1009c210     libucrtd:debug_heap.obj
 0002:0001624c       ??_C@_1DI@NINIKFFK@?$AA_?$AAa?$AAl?$AAi?$AAg?$AAn?$AAe?$AAd?$AA_?$AAo?$AAf?$AAf?$AAs?$AAe?$AAt@ 1009c24c     libucrtd:debug_heap.obj
 0002:00016284       ??_C@_1CG@CEGMHIMN@?$AA_?$AAa?$AAl?$AAi?$AAg?$AAn?$AAe?$AAd?$AA_?$AAm?$AAs?$AAi?$AAz?$AAe?$AA_@ 1009c284     libucrtd:debug_heap.obj
 0002:000162b0       ??_C@_0EF@PGELACII@The?5block?5at?50x?$CFp?5was?5not?5alloc@ 1009c2b0     libucrtd:debug_heap.obj
 0002:000162f8       ??_C@_1GE@IHIGNC@?$AA?$CI?$AA?$CI?$AAr?$AAe?$AAs?$AAu?$AAl?$AAt?$AA_?$AAb?$AAu?$AAf?$AAf?$AAe?$AAr@ 1009c2f8     libucrtd:makepath.obj
 0002:00016360       ??_C@_1GO@CPMBDHKK@?$AAm?$AAi?$AAn?$AAk?$AAe?$AAr?$AAn?$AAe?$AAl?$AA?2?$AAc?$AAr?$AAt?$AAs?$AA?2@ 1009c360     libucrtd:makepath.obj
 0002:000163d0       ??_C@_1CE@GNNMAAIL@?$AAc?$AAo?$AAm?$AAm?$AAo?$AAn?$AA_?$AAm?$AAa?$AAk?$AAe?$AAp?$AAa?$AAt?$AAh@ 1009c3d0     libucrtd:makepath.obj
 0002:000163f4       ??_C@_1CI@KGHCCPCN@?$AAc?$AAl?$AAe?$AAa?$AAn?$AAu?$AAp?$AA_?$AAa?$AAf?$AAt?$AAe?$AAr?$AA_?$AAe@ 1009c3f4     libucrtd:makepath.obj
 0002:00016420       ??_C@_1HA@BEJINBHO@?$AAm?$AAi?$AAn?$AAk?$AAe?$AAr?$AAn?$AAe?$AAl?$AA?2?$AAc?$AAr?$AAt?$AAs?$AA?2@ 1009c420     libucrtd:splitpath.obj
 0002:00016490       ??_C@_1DE@EEECINKG@?$AAc?$AAo?$AAm?$AAm?$AAo?$AAn?$AA_?$AAs?$AAp?$AAl?$AAi?$AAt?$AAp?$AAa?$AAt@ 1009c490     libucrtd:splitpath.obj
 0002:000164c4       ??_C@_1CC@LLFJPCJO@?$AAn?$AAe?$AAw?$AA_?$AAh?$AAa?$AAn?$AAd?$AAl?$AAe?$AAr?$AA?5?$AA?$DN?$AA?$DN?$AA?5@ 1009c4c4     libucrtd:new_handler.obj
 0002:000164e8       ??_C@_1GI@GALDAPMM@?$AAm?$AAi?$AAn?$AAk?$AAe?$AAr?$AAn?$AAe?$AAl?$AA?2?$AAc?$AAr?$AAt?$AAs?$AA?2@ 1009c4e8     libucrtd:new_handler.obj
 0002:00016550       ??_C@_1DA@LLLMNMKI@?$AAa?$AAb?$AAo?$AAr?$AAt?$AA?$CI?$AA?$CJ?$AA?5?$AAh?$AAa?$AAs?$AA?5?$AAb?$AAe?$AAe@ 1009c550     libucrtd:abort.obj
 0002:00016580       __Fenv1                    1009c580     libucrtd:atox.obj
 0002:00016588       ??_C@_1GE@DPGDJKLM@?$AAm?$AAi?$AAn?$AAk?$AAe?$AAr?$AAn?$AAe?$AAl?$AA?2?$AAc?$AAr?$AAt?$AAs?$AA?2@ 1009c588     libucrtd:atox.obj
 0002:000165f0       ??_C@_1EO@MLJCKPIB@?$AAb?$AAa?$AAs?$AAe?$AA?5?$AA?$DN?$AA?$DN?$AA?5?$AA0?$AA?5?$AA?$HM?$AA?$HM?$AA?5?$AA?$CI?$AA2@ 1009c5f0     libucrtd:atox.obj
 0002:00016640       ??_C@_1DI@BANODKFL@?$AA_?$AA_?$AAc?$AAr?$AAt?$AA_?$AAs?$AAt?$AAr?$AAt?$AAo?$AAx?$AA?3?$AA?3?$AAp@ 1009c640     libucrtd:atox.obj
 0002:00016678       ??_C@_1CM@GJENOOEJ@?$AAc?$AA?5?$AA?$DN?$AA?$DN?$AA?5?$AA?8?$AA?2?$AA0?$AA?8?$AA?5?$AA?$HM?$AA?$HM?$AA?5?$AA?$CK?$AA_@ 1009c678     libucrtd:atox.obj
 0002:000166a8       ??_C@_1HA@CONLANFI@?$AA_?$AA_?$AAc?$AAr?$AAt?$AA_?$AAs?$AAt?$AAr?$AAt?$AAo?$AAx?$AA?3?$AA?3?$AAc@ 1009c6a8     libucrtd:atox.obj
 0002:00016718       ??_C@_1BM@PNEBBBDO@?$AA_?$AAp?$AA?5?$AA?$CB?$AA?$DN?$AA?5?$AAn?$AAu?$AAl?$AAl?$AAp?$AAt?$AAr@ 1009c718     libucrtd:atox.obj
 0002:00016738       ??_C@_1HG@FCDBLOEG@?$AA_?$AA_?$AAc?$AAr?$AAt?$AA_?$AAs?$AAt?$AAr?$AAt?$AAo?$AAx?$AA?3?$AA?3?$AAc@ 1009c738     libucrtd:atox.obj
 0002:000167b0       ??_C@_1GK@MNHIDABG@?$AA_?$AA_?$AAc?$AAr?$AAt?$AA_?$AAs?$AAt?$AAr?$AAt?$AAo?$AAx?$AA?3?$AA?3?$AAc@ 1009c7b0     libucrtd:atox.obj
 0002:00016820       ??_C@_1HA@MKKIHBHP@?$AA_?$AA_?$AAc?$AAr?$AAt?$AA_?$AAs?$AAt?$AAr?$AAt?$AAo?$AAx?$AA?3?$AA?3?$AAc@ 1009c820     libucrtd:atox.obj
 0002:00016890       ??_C@_1FA@IFFFOLDJ@?$AAn?$AAR?$AAp?$AAt?$AAT?$AAy?$AAp?$AAe?$AA?5?$AA?$DO?$AA?$DN?$AA?5?$AA0?$AA?5?$AA?$CG@ 1009c890     libucrtd:dbgrptt.obj
 0002:000168e0       ??_C@_1GA@LFAOKOOP@?$AAm?$AAi?$AAn?$AAk?$AAe?$AAr?$AAn?$AAe?$AAl?$AA?2?$AAc?$AAr?$AAt?$AAs?$AA?2@ 1009c8e0     libucrtd:dbgrptt.obj
 0002:00016940       ??_C@_1CE@FIHIECNJ@?$AA_?$AAC?$AAr?$AAt?$AAS?$AAe?$AAt?$AAR?$AAe?$AAp?$AAo?$AAr?$AAt?$AAM?$AAo@ 1009c940     libucrtd:dbgrptt.obj
 0002:00016968       ??_C@_1NK@LOFHIHFC@?$AAf?$AAM?$AAo?$AAd?$AAe?$AA?5?$AA?$DN?$AA?$DN?$AA?5?$AA_?$AAC?$AAR?$AAT?$AAD?$AAB@ 1009c968     libucrtd:dbgrptt.obj
 0002:00016a44       ??_C@_1CE@IKKEDCME@?$AA_?$AAC?$AAr?$AAt?$AAS?$AAe?$AAt?$AAR?$AAe?$AAp?$AAo?$AAr?$AAt?$AAF?$AAi@ 1009ca44     libucrtd:dbgrptt.obj
 0002:00016a68       ??_C@_1CA@KHJHLKA@?$AA_?$AAV?$AAC?$AAr?$AAt?$AAD?$AAb?$AAg?$AAR?$AAe?$AAp?$AAo?$AAr?$AAt?$AAA@ 1009ca68     libucrtd:dbgrptt.obj
 0002:00016a88       ??_C@_1FA@JPHJBHEM@?$AA_?$AAi?$AAt?$AAo?$AAa?$AA_?$AAs?$AA?$CI?$AAn?$AAL?$AAi?$AAn?$AAe?$AA?0?$AA?5@ 1009ca88     libucrtd:dbgrptt.obj
 0002:00016ad8       ??_C@_0CG@BNGLOCEO@Second?5Chance?5Assertion?5Failed?3@ 1009cad8     libucrtd:dbgrptt.obj
 0002:00016b00       ??_C@_0P@DFJNDPOP@?$DMfile?5unknown?$DO@ 1009cb00     libucrtd:dbgrptt.obj
 0002:00016b10       ??_C@_07BHGABMGB@?0?5Line?5@ 1009cb10     libucrtd:dbgrptt.obj
 0002:00016b18       ??_C@_1JI@GAALPGBM@?$AAs?$AAt?$AAr?$AAc?$AAp?$AAy?$AA_?$AAs?$AA?$CI?$AAs?$AAz?$AAU?$AAs?$AAe?$AAr@ 1009cb18     libucrtd:dbgrptt.obj
 0002:00016bb0       ??_C@_0CL@EACFGMNB@_CrtDbgReport?3?5String?5too?5long?5@ 1009cbb0     libucrtd:dbgrptt.obj
 0002:00016be0       ??_C@_1KK@GIGAEDMO@?$AAs?$AAt?$AAr?$AAc?$AAp?$AAy?$AA_?$AAs?$AA?$CI?$AAs?$AAz?$AAL?$AAi?$AAn?$AAe@ 1009cbe0     libucrtd:dbgrptt.obj
 0002:00016c8c       ??_C@_0BD@CAENFOHP@Assertion?5failed?3?5@ 1009cc8c     libucrtd:dbgrptt.obj
 0002:00016ca0       ??_C@_0BC@LAIDCHCH@Assertion?5failed?$CB@ 1009cca0     libucrtd:dbgrptt.obj
 0002:00016cb8       ??_C@_1FK@NPGBPOFO@?$AAs?$AAt?$AAr?$AAc?$AAa?$AAt?$AA_?$AAs?$AA?$CI?$AAs?$AAz?$AAL?$AAi?$AAn?$AAe@ 1009ccb8     libucrtd:dbgrptt.obj
 0002:00016d18       ??_C@_1EI@CACDLAFK@?$AAs?$AAt?$AAr?$AAc?$AAa?$AAt?$AA_?$AAs?$AA?$CI?$AAs?$AAz?$AAL?$AAi?$AAn?$AAe@ 1009cd18     libucrtd:dbgrptt.obj
 0002:00016d60       ??_C@_01LIIJDEN@?$AN@      1009cd60     libucrtd:dbgrptt.obj
 0002:00016d68       ??_C@_1EI@LDHJEDO@?$AAs?$AAt?$AAr?$AAc?$AAa?$AAt?$AA_?$AAs?$AA?$CI?$AAs?$AAz?$AAL?$AAi?$AAn?$AAe@ 1009cd68     libucrtd:dbgrptt.obj
 0002:00016db0       ??_C@_0M@IPILFDFN@?$CFs?$CI?$CFd?$CJ?5?3?5?$CFs@ 1009cdb0     libucrtd:dbgrptt.obj
 0002:00016dc0       ??_C@_1JG@CPKCIOEE@?$AAs?$AAt?$AAr?$AAc?$AAp?$AAy?$AA_?$AAs?$AA?$CI?$AAs?$AAz?$AAO?$AAu?$AAt?$AAM@ 1009cdc0     libucrtd:dbgrptt.obj
 0002:00016e58       ??_C@_1FI@IBIOIHEG@?$AAs?$AAt?$AAr?$AAc?$AAp?$AAy?$AA_?$AAs?$AA?$CI?$AAs?$AAz?$AAO?$AAu?$AAt?$AAM@ 1009ce58     libucrtd:dbgrptt.obj
 0002:00016eb0       ??_C@_1IM@OOKIFKOH@?$AAe?$AA?5?$AA?$DN?$AA?5?$AAm?$AAb?$AAs?$AAt?$AAo?$AAw?$AAc?$AAs?$AA_?$AAs?$AA?$CI@ 1009ceb0     libucrtd:dbgrptt.obj
 0002:00016f40       ??_C@_1MC@IGEECMDB@?$AAw?$AAc?$AAs?$AAc?$AAp?$AAy?$AA_?$AAs?$AA?$CI?$AAs?$AAz?$AAO?$AAu?$AAt?$AAM@ 1009cf40     libucrtd:dbgrptt.obj
 0002:00017008       ??_C@_1HO@PJOFIKFE@?$AA_?$AAC?$AAr?$AAt?$AAD?$AAb?$AAg?$AAR?$AAe?$AAp?$AAo?$AAr?$AAt?$AA?3?$AA?5@ 1009d008     libucrtd:dbgrptt.obj
 0002:00017088       ??_C@_1CA@HPALHDOD@?$AA_?$AAV?$AAC?$AAr?$AAt?$AAD?$AAb?$AAg?$AAR?$AAe?$AAp?$AAo?$AAr?$AAt?$AAW@ 1009d088     libucrtd:dbgrptt.obj
 0002:000170a8       ??_C@_1FA@CNLLOMHI@?$AA_?$AAi?$AAt?$AAo?$AAw?$AA_?$AAs?$AA?$CI?$AAn?$AAL?$AAi?$AAn?$AAe?$AA?0?$AA?5@ 1009d0a8     libucrtd:dbgrptt.obj
 0002:000170f8       ??_C@_1EM@MJFLEDMB@?$AAS?$AAe?$AAc?$AAo?$AAn?$AAd?$AA?5?$AAC?$AAh?$AAa?$AAn?$AAc?$AAe?$AA?5?$AAA@ 1009d0f8     libucrtd:dbgrptt.obj
 0002:00017144       ??_C@_1BO@OCHMLCAG@?$AA?$DM?$AAf?$AAi?$AAl?$AAe?$AA?5?$AAu?$AAn?$AAk?$AAn?$AAo?$AAw?$AAn?$AA?$DO@ 1009d144     libucrtd:dbgrptt.obj
 0002:00017164       ??_C@_1BA@ELMMDCFC@?$AA?0?$AA?5?$AAL?$AAi?$AAn?$AAe?$AA?5@ 1009d164     libucrtd:dbgrptt.obj
 0002:00017174       ??_C@_13LBAGMAIH@?$AA?6@   1009d174     libucrtd:dbgrptt.obj
 0002:00017178       ??_C@_1JK@KHFABAEO@?$AAw?$AAc?$AAs?$AAc?$AAp?$AAy?$AA_?$AAs?$AA?$CI?$AAs?$AAz?$AAU?$AAs?$AAe?$AAr@ 1009d178     libucrtd:dbgrptt.obj
 0002:00017218       ??_C@_1KO@DGAHENCH@?$AAw?$AAc?$AAs?$AAc?$AAp?$AAy?$AA_?$AAs?$AA?$CI?$AAs?$AAz?$AAL?$AAi?$AAn?$AAe@ 1009d218     libucrtd:dbgrptt.obj
 0002:000172c8       ??_C@_1CG@FFFGGODN@?$AAA?$AAs?$AAs?$AAe?$AAr?$AAt?$AAi?$AAo?$AAn?$AA?5?$AAf?$AAa?$AAi?$AAl?$AAe@ 1009d2c8     libucrtd:dbgrptt.obj
 0002:000172f0       ??_C@_1CE@OJBNHDMO@?$AAA?$AAs?$AAs?$AAe?$AAr?$AAt?$AAi?$AAo?$AAn?$AA?5?$AAf?$AAa?$AAi?$AAl?$AAe@ 1009d2f0     libucrtd:dbgrptt.obj
 0002:00017318       ??_C@_1FK@HPADHBBD@?$AAw?$AAc?$AAs?$AAc?$AAa?$AAt?$AA_?$AAs?$AA?$CI?$AAs?$AAz?$AAL?$AAi?$AAn?$AAe@ 1009d318     libucrtd:dbgrptt.obj
 0002:00017378       ??_C@_1EK@NMDFGHMF@?$AAw?$AAc?$AAs?$AAc?$AAa?$AAt?$AA_?$AAs?$AA?$CI?$AAs?$AAz?$AAL?$AAi?$AAn?$AAe@ 1009d378     libucrtd:dbgrptt.obj
 0002:000173c4       ??_C@_13CMNBPIDO@?$AA?$AN@ 1009d3c4     libucrtd:dbgrptt.obj
 0002:000173c8       ??_C@_1EK@PHCBEDKB@?$AAw?$AAc?$AAs?$AAc?$AAa?$AAt?$AA_?$AAs?$AA?$CI?$AAs?$AAz?$AAL?$AAi?$AAn?$AAe@ 1009d3c8     libucrtd:dbgrptt.obj
 0002:00017414       ??_C@_1BM@GIBPMLNL@?$AA?$CF?$AAl?$AAs?$AA?$CI?$AA?$CF?$AAd?$AA?$CJ?$AA?5?$AA?3?$AA?5?$AA?$CF?$AAl?$AAs@ 1009d414     libucrtd:dbgrptt.obj
 0002:00017430       ??_C@_1JI@EACPGHID@?$AAw?$AAc?$AAs?$AAc?$AAp?$AAy?$AA_?$AAs?$AA?$CI?$AAs?$AAz?$AAO?$AAu?$AAt?$AAM@ 1009d430     libucrtd:dbgrptt.obj
 0002:000174c8       ??_C@_1FI@DBAIJPJE@?$AAw?$AAc?$AAs?$AAc?$AAp?$AAy?$AA_?$AAs?$AA?$CI?$AAs?$AAz?$AAO?$AAu?$AAt?$AAM@ 1009d4c8     libucrtd:dbgrptt.obj
 0002:00017520       ??_C@_1IK@LEBMBAP@?$AAw?$AAc?$AAs?$AAt?$AAo?$AAm?$AAb?$AAs?$AA_?$AAs?$AA?$CI?$AAn?$AAu?$AAl?$AAl@ 1009d520     libucrtd:dbgrptt.obj
 0002:000175b0       ??_C@_1MA@LBAMNNOB@?$AAs?$AAt?$AAr?$AAc?$AAp?$AAy?$AA_?$AAs?$AA?$CI?$AAs?$AAz?$AAO?$AAu?$AAt?$AAM@ 1009d5b0     libucrtd:dbgrptt.obj
 0002:00017670       ??_C@_0DP@GNPEPHJD@_CrtDbgReport?3?5String?5too?5long?5@ 1009d670     libucrtd:dbgrptt.obj
 0002:000176b0       ??_C@_1IE@CPGKIAGP@?$AAw?$AAc?$AAs?$AAt?$AAo?$AAm?$AAb?$AAs?$AA_?$AAs?$AA?$CI?$AA?$CG?$AAr?$AAe?$AAt@ 1009d6b0     libucrtd:dbgrptt.obj
 0002:00017734       ??_C@_0CP@JIIONAG@minkernel?2crts?2ucrt?2src?2appcrt?2@ 1009d734     libucrtd:signal.obj
 0002:00017764       ??_C@_1DA@NBILLKNO@?$AAl?$AAo?$AAc?$AAa?$AAl?$AA_?$AAa?$AAc?$AAt?$AAi?$AAo?$AAn?$AA?5?$AA?$CB?$AA?$DN@ 1009d764     libucrtd:signal.obj
 0002:00017798       ??_C@_1FO@CCGDPEKE@?$AAm?$AAi?$AAn?$AAk?$AAe?$AAr?$AAn?$AAe?$AAl?$AA?2?$AAc?$AAr?$AAt?$AAs?$AA?2@ 1009d798     libucrtd:signal.obj
 0002:000177f8       ??_C@_1M@DMJEIKHL@?$AAr?$AAa?$AAi?$AAs?$AAe@ 1009d7f8     libucrtd:signal.obj
 0002:00017804       ??_C@_1DO@MLNEDKGB@?$AA?$CI?$AA?$CC?$AAI?$AAn?$AAv?$AAa?$AAl?$AAi?$AAd?$AA?5?$AAs?$AAi?$AAg?$AAn?$AAa@ 1009d804     libucrtd:signal.obj
 0002:00017848       ??_C@_1BBC@DECGKMGJ@?$AA_?$AAl?$AAo?$AAc?$AA_?$AAu?$AAp?$AAd?$AAa?$AAt?$AAe?$AA?4?$AAG?$AAe?$AAt@ 1009d848     libucrtd:mbtowc.obj
 0002:00017960       ??_C@_1GE@CGIHMDEJ@?$AAm?$AAi?$AAn?$AAk?$AAe?$AAr?$AAn?$AAe?$AAl?$AA?2?$AAc?$AAr?$AAt?$AAs?$AA?2@ 1009d960     libucrtd:mbtowc.obj
 0002:000179c8       ??_C@_1HA@KNBGJAIN@?$AAU?$AAT?$AAF?$AA?9?$AA8?$AA?5?$AAi?$AAs?$AAn?$AA?8?$AAt?$AA?5?$AAs?$AAu?$AAp@ 1009d9c8     libucrtd:mbtowc.obj
 0002:00017a38       ??_C@_1BBA@EIIJPPL@?$AA_?$AAl?$AAo?$AAc?$AA_?$AAu?$AAp?$AAd?$AAa?$AAt?$AAe?$AA?4?$AAG?$AAe?$AAt@ 1009da38     libucrtd:mbtowc.obj
 0002:00017b48       ??_C@_1IE@CDCHDACI@?$AA_?$AAl?$AAo?$AAc?$AA_?$AAu?$AAp?$AAd?$AAa?$AAt?$AAe?$AA?4?$AAG?$AAe?$AAt@ 1009db48     libucrtd:mbtowc.obj
 0002:00017bcc       ??_C@_1DK@NBNOAGKB@?$AAd?$AAe?$AAs?$AAt?$AAi?$AAn?$AAa?$AAt?$AAi?$AAo?$AAn?$AA_?$AAc?$AAo?$AAu@ 1009dbcc     libucrtd:wctomb.obj
 0002:00017c08       ??_C@_1GE@FCCEPHFG@?$AAm?$AAi?$AAn?$AAk?$AAe?$AAr?$AAn?$AAe?$AAl?$AA?2?$AAc?$AAr?$AAt?$AAs?$AA?2@ 1009dc08     libucrtd:wctomb.obj
 0002:00017c6c       ??_C@_1BI@IEADNOHF@?$AA_?$AAw?$AAc?$AAt?$AAo?$AAm?$AAb?$AA_?$AAs?$AA_?$AAl@ 1009dc6c     libucrtd:wctomb.obj
 0002:00017c84       ??_C@_1CM@ENFEGCNE@?$AAd?$AAe?$AAs?$AAt?$AAi?$AAn?$AAa?$AAt?$AAi?$AAo?$AAn?$AA_?$AAc?$AAo?$AAu@ 1009dc84     libucrtd:wctomb.obj
 0002:00017cb0       ??_C@_0DM@DKIFNNOL@minkernel?2crts?2ucrt?2src?2appcrt?2@ 1009dcb0     libucrtd:per_thread_data.obj
 0002:00017d30       ??_C@_03OEIAHPBN@INF@      1009dd30     libucrtd:cvt.obj
 0002:00017d34       ??_C@_03OJHLLCGB@inf@      1009dd34     libucrtd:cvt.obj
 0002:00017d38       ??_C@_03LKNCIKJB@NAN@      1009dd38     libucrtd:cvt.obj
 0002:00017d3c       ??_C@_03LHCJEHON@nan@      1009dd3c     libucrtd:cvt.obj
 0002:00017d40       ??_C@_09OFJJIMPC@NAN?$CISNAN?$CJ@ 1009dd40     libucrtd:cvt.obj
 0002:00017d4c       ??_C@_09IPFBKMDL@nan?$CIsnan?$CJ@ 1009dd4c     libucrtd:cvt.obj
 0002:00017d58       ??_C@_08IKHNHAJ@NAN?$CIIND?$CJ@ 1009dd58     libucrtd:cvt.obj
 0002:00017d64       ??_C@_08OFCDMILK@nan?$CIind?$CJ@ 1009dd64     libucrtd:cvt.obj
 0002:00017d70       ??_C@_1FO@GKAKAPLI@?$AAm?$AAi?$AAn?$AAk?$AAe?$AAr?$AAn?$AAe?$AAl?$AA?2?$AAc?$AAr?$AAt?$AAs?$AA?2@ 1009dd70     libucrtd:cvt.obj
 0002:00017dd0       ??_C@_1DE@EHGIGIDK@?$AAf?$AAp?$AA_?$AAf?$AAo?$AAr?$AAm?$AAa?$AAt?$AA_?$AAn?$AAa?$AAn?$AA_?$AAo@ 1009ddd0     libucrtd:cvt.obj
 0002:00017e08       ??_C@_1LI@PCMLJPCO@?$AAs?$AAt?$AAr?$AAc?$AAp?$AAy?$AA_?$AAs?$AA?$CI?$AA?5?$AAr?$AAe?$AAs?$AAu?$AAl@ 1009de08     libucrtd:cvt.obj
 0002:00017ec0       ??_C@_1KO@LJHOFBCD@?$AAr?$AAe?$AAs?$AAu?$AAl?$AAt?$AA_?$AAb?$AAu?$AAf?$AAf?$AAe?$AAr?$AA_?$AAc@ 1009dec0     libucrtd:cvt.obj
 0002:00017f70       ??_C@_1CK@BOLHOMFO@?$AAf?$AAp?$AA_?$AAf?$AAo?$AAr?$AAm?$AAa?$AAt?$AA_?$AAe?$AA_?$AAi?$AAn?$AAt@ 1009df70     libucrtd:cvt.obj
 0002:00017fa0       ??_C@_1BBE@LHDOMEDC@?$AAs?$AAt?$AAr?$AAc?$AAp?$AAy?$AA_?$AAs?$AA?$CI?$AA?5?$AAp?$AA?0?$AA?5?$AAr?$AAe@ 1009dfa0     libucrtd:cvt.obj
 0002:000180b4       ??_C@_05KLBDPFGC@e?$CL000@ 1009e0b4     libucrtd:cvt.obj
 0002:000180c0       ??_C@_1IC@FILKPBAB@?$AAr?$AAe?$AAs?$AAu?$AAl?$AAt?$AA_?$AAb?$AAu?$AAf?$AAf?$AAe?$AAr?$AA_?$AAc@ 1009e0c0     libucrtd:cvt.obj
 0002:00018144       ??_C@_1BI@PNBDLNBB@?$AAf?$AAp?$AA_?$AAf?$AAo?$AAr?$AAm?$AAa?$AAt?$AA_?$AAa@ 1009e144     libucrtd:cvt.obj
 0002:0001815c       ??_C@_1DC@MGKAFPFD@?$AAr?$AAe?$AAs?$AAu?$AAl?$AAt?$AA_?$AAb?$AAu?$AAf?$AAf?$AAe?$AAr?$AA?5?$AA?$CB@ 1009e15c     libucrtd:cvt.obj
 0002:00018190       ??_C@_1CC@LDAHJAKK@?$AA_?$AA_?$AAa?$AAc?$AAr?$AAt?$AA_?$AAf?$AAp?$AA_?$AAf?$AAo?$AAr?$AAm?$AAa@ 1009e190     libucrtd:cvt.obj
 0002:000181b4       ??_C@_1DA@NMLJJOCO@?$AAr?$AAe?$AAs?$AAu?$AAl?$AAt?$AA_?$AAb?$AAu?$AAf?$AAf?$AAe?$AAr?$AA_?$AAc@ 1009e1b4     libucrtd:cvt.obj
 0002:000181e4       ??_C@_1DE@MNOPBCOK@?$AAs?$AAc?$AAr?$AAa?$AAt?$AAc?$AAh?$AA_?$AAb?$AAu?$AAf?$AAf?$AAe?$AAr?$AA?5@ 1009e1e4     libucrtd:cvt.obj
 0002:00018218       ??_C@_1DC@CKBKNFKH@?$AAs?$AAc?$AAr?$AAa?$AAt?$AAc?$AAh?$AA_?$AAb?$AAu?$AAf?$AAf?$AAe?$AAr?$AA_@ 1009e218     libucrtd:cvt.obj
 0002:00018250       ??_C@_1EI@JAHBOGIM@?$AA?$CI?$AA?$CC?$AAU?$AAn?$AAs?$AAu?$AAp?$AAp?$AAo?$AAr?$AAt?$AAe?$AAd?$AA?5?$AAf@ 1009e250     libucrtd:cvt.obj
 0002:00018298       ??_C@_1GA@OJHMFOOJ@?$AAm?$AAi?$AAn?$AAk?$AAe?$AAr?$AAn?$AAe?$AAl?$AA?2?$AAc?$AAr?$AAt?$AAs?$AA?2@ 1009e298     libucrtd:fputwc.obj
 0002:000182f8       ??_C@_1O@HJNPHHHB@?$AAf?$AAp?$AAu?$AAt?$AAw?$AAc@ 1009e2f8     libucrtd:fputwc.obj
 0002:00018308       ??_C@_1BO@MHPFFFJJ@?$AAs?$AAt?$AAr?$AAe?$AAa?$AAm?$AA?4?$AAv?$AAa?$AAl?$AAi?$AAd?$AA?$CI?$AA?$CJ@ 1009e308     libucrtd:fileno.obj
 0002:00018328       ??_C@_1GA@KCAHHNGP@?$AAm?$AAi?$AAn?$AAk?$AAe?$AAr?$AAn?$AAe?$AAl?$AA?2?$AAc?$AAr?$AAt?$AAs?$AA?2@ 1009e328     libucrtd:fileno.obj
 0002:00018388       ??_C@_1BA@JGHIEKKM@?$AA_?$AAf?$AAi?$AAl?$AAe?$AAn?$AAo@ 1009e388     libucrtd:fileno.obj
 0002:00018398       ??_C@_0CP@GDJHIDC@minkernel?2crts?2ucrt?2src?2appcrt?2@ 1009e398     libucrtd:_file.obj
 0002:000183c8       ??_C@_1DC@OGOLMDEL@?$AAp?$AAu?$AAb?$AAl?$AAi?$AAc?$AA_?$AAs?$AAt?$AAr?$AAe?$AAa?$AAm?$AA?5?$AA?$CB@ 1009e3c8     libucrtd:_file.obj
 0002:00018400       ??_C@_1FO@IEGKHABE@?$AAm?$AAi?$AAn?$AAk?$AAe?$AAr?$AAn?$AAe?$AAl?$AA?2?$AAc?$AAr?$AAt?$AAs?$AA?2@ 1009e400     libucrtd:_file.obj
 0002:00018460       ??_C@_1DI@PJGMCDLC@?$AA_?$AAg?$AAe?$AAt?$AA_?$AAs?$AAt?$AAr?$AAe?$AAa?$AAm?$AA_?$AAb?$AAu?$AAf@ 1009e460     libucrtd:_file.obj
 0002:00018498       ??_C@_1FO@FNOAOMLP@?$AAm?$AAi?$AAn?$AAk?$AAe?$AAr?$AAn?$AAe?$AAl?$AA?2?$AAc?$AAr?$AAt?$AAs?$AA?2@ 1009e498     libucrtd:fputc.obj
 0002:000184f8       ??_C@_1M@OIJMPNCO@?$AAf?$AAp?$AAu?$AAt?$AAc@ 1009e4f8     libucrtd:fputc.obj
 0002:00018508       ??_C@_1GC@GBMDABED@?$AAm?$AAi?$AAn?$AAk?$AAe?$AAr?$AAn?$AAe?$AAl?$AA?2?$AAc?$AAr?$AAt?$AAs?$AA?2@ 1009e508     libucrtd:_sftbuf.obj
 0002:0001856c       ??_C@_0DB@EPIHMFLB@minkernel?2crts?2ucrt?2src?2appcrt?2@ 1009e56c     libucrtd:_sftbuf.obj
 0002:00018620       ___lc_category             1009e620     libucrtd:wsetlocale.obj
 0002:00018668       ??_C@_1O@GIFLHMA@?$AAL?$AAC?$AA_?$AAA?$AAL?$AAL@ 1009e668     libucrtd:wsetlocale.obj
 0002:00018678       ??_C@_1BG@PPOMIBNJ@?$AAL?$AAC?$AA_?$AAC?$AAO?$AAL?$AAL?$AAA?$AAT?$AAE@ 1009e678     libucrtd:wsetlocale.obj
 0002:00018690       ??_C@_1BC@FFJGAPJM@?$AAL?$AAC?$AA_?$AAC?$AAT?$AAY?$AAP?$AAE@ 1009e690     libucrtd:wsetlocale.obj
 0002:000186a4       ??_C@_1BI@PCKFNJFB@?$AAL?$AAC?$AA_?$AAM?$AAO?$AAN?$AAE?$AAT?$AAA?$AAR?$AAY@ 1009e6a4     libucrtd:wsetlocale.obj
 0002:000186bc       ??_C@_1BG@ENIEDKID@?$AAL?$AAC?$AA_?$AAN?$AAU?$AAM?$AAE?$AAR?$AAI?$AAC@ 1009e6bc     libucrtd:wsetlocale.obj
 0002:000186d4       ??_C@_1BA@HAAOMIIG@?$AAL?$AAC?$AA_?$AAT?$AAI?$AAM?$AAE@ 1009e6d4     libucrtd:wsetlocale.obj
 0002:000186e8       ??_C@_1GA@LDEGDKD@?$AA?$CI?$AA?$CC?$AAI?$AAn?$AAv?$AAa?$AAl?$AAi?$AAd?$AA?5?$AAp?$AAa?$AAr?$AAa?$AAm@ 1009e6e8     libucrtd:wsetlocale.obj
 0002:00018748       ??_C@_1GK@DPKNLBIE@?$AAm?$AAi?$AAn?$AAk?$AAe?$AAr?$AAn?$AAe?$AAl?$AA?2?$AAc?$AAr?$AAt?$AAs?$AA?2@ 1009e748     libucrtd:wsetlocale.obj
 0002:000187b4       ??_C@_1CI@FGIONOJM@?$AA_?$AAc?$AAo?$AAn?$AAf?$AAi?$AAg?$AAt?$AAh?$AAr?$AAe?$AAa?$AAd?$AAl?$AAo@ 1009e7b4     libucrtd:wsetlocale.obj
 0002:000187dc       ??_C@_0DF@MKMHJGEJ@minkernel?2crts?2ucrt?2src?2appcrt?2@ 1009e7dc     libucrtd:wsetlocale.obj
 0002:00018818       ??_C@_1FG@OHLFEKMC@?$AAL?$AAC?$AA_?$AAM?$AAI?$AAN?$AA?5?$AA?$DM?$AA?$DN?$AA?5?$AA_?$AAc?$AAa?$AAt?$AAe@ 1009e818     libucrtd:wsetlocale.obj
 0002:00018870       ??_C@_1BI@KJNPAEHL@?$AA_?$AAw?$AAs?$AAe?$AAt?$AAl?$AAo?$AAc?$AAa?$AAl?$AAe@ 1009e870     libucrtd:wsetlocale.obj
 0002:00018888       ??_C@_15NBPDDFIP@?$AA?$DN?$AA?$DL@ 1009e888     libucrtd:wsetlocale.obj
 0002:00018890       ??_C@_13PJJBFPED@?$AA?$DL@ 1009e890     libucrtd:wsetlocale.obj
 0002:00018894       ??_C@_1CG@DKJCBBPP@?$AA_?$AAw?$AAs?$AAe?$AAt?$AAl?$AAo?$AAc?$AAa?$AAl?$AAe?$AA_?$AAn?$AAo?$AAl@ 1009e894     libucrtd:wsetlocale.obj
 0002:000188c0       ??_C@_1IG@NGDCPCDE@?$AAw?$AAc?$AAs?$AAn?$AAc?$AAp?$AAy?$AA_?$AAs?$AA?$CI?$AAl?$AAc?$AAt?$AAe?$AAm@ 1009e8c0     libucrtd:wsetlocale.obj
 0002:00018948       ??_C@_1CI@ODOPEMNJ@?$AA_?$AAw?$AAs?$AAe?$AAt?$AAl?$AAo?$AAc?$AAa?$AAl?$AAe?$AA_?$AAs?$AAe?$AAt@ 1009e948     libucrtd:wsetlocale.obj
 0002:00018970       ??_C@_1EM@MHOCNIAA@?$AAw?$AAc?$AAs?$AAc?$AAp?$AAy?$AA_?$AAs?$AA?$CI?$AAp?$AAc?$AAh?$AA_?$AAc?$AAa@ 1009e970     libucrtd:wsetlocale.obj
 0002:000189bc       ??_C@_13NMPKAAJP@?$AA?$DN@ 1009e9bc     libucrtd:wsetlocale.obj
 0002:000189c0       ??_C@_1CI@LKOPFFBD@?$AA_?$AAw?$AAs?$AAe?$AAt?$AAl?$AAo?$AAc?$AAa?$AAl?$AAe?$AA_?$AAg?$AAe?$AAt@ 1009e9c0     libucrtd:wsetlocale.obj
 0002:000189e8       ??_C@_1DC@HMLJMODP@?$AAw?$AAc?$AAs?$AAc?$AAa?$AAt?$AA_?$AAs?$AA?$CI?$AAp?$AAc?$AAh?$AA?0?$AA?5?$AAc@ 1009e9e8     libucrtd:wsetlocale.obj
 0002:00018a1c       ??_C@_1CK@ENLABMHL@?$AAp?$AAa?$AAr?$AAs?$AAe?$AA_?$AAb?$AAc?$AAp?$AA4?$AA7?$AA_?$AAl?$AAa?$AAn@ 1009ea1c     libucrtd:wsetlocale.obj
 0002:00018a48       ??_C@_1NM@HLCCHHMI@?$AAw?$AAc?$AAs?$AAn?$AAc?$AAp?$AAy?$AA_?$AAs?$AA?$CI?$AAn?$AAa?$AAm?$AAe?$AAs@ 1009ea48     libucrtd:wsetlocale.obj
 0002:00018b28       ??_C@_1OE@CBMMNIKI@?$AAw?$AAc?$AAs?$AAn?$AAc?$AAp?$AAy?$AA_?$AAs?$AA?$CI?$AAn?$AAa?$AAm?$AAe?$AAs@ 1009eb28     libucrtd:wsetlocale.obj
 0002:00018c0c       ??_C@_1CG@EJAKMGFL@?$AAp?$AAa?$AAr?$AAs?$AAe?$AA_?$AAb?$AAc?$AAp?$AA4?$AA7?$AA_?$AAs?$AAc?$AAr@ 1009ec0c     libucrtd:wsetlocale.obj
 0002:00018c38       ??_C@_1LM@BMOGFEFE@?$AAw?$AAc?$AAs?$AAn?$AAc?$AAa?$AAt?$AA_?$AAs?$AA?$CI?$AAn?$AAa?$AAm?$AAe?$AAs@ 1009ec38     libucrtd:wsetlocale.obj
 0002:00018cf4       ??_C@_13IMODFHAA@?$AA?9@   1009ecf4     libucrtd:wsetlocale.obj
 0002:00018cf8       ??_C@_1OE@EBFAEEFC@?$AAw?$AAc?$AAs?$AAn?$AAc?$AAa?$AAt?$AA_?$AAs?$AA?$CI?$AAn?$AAa?$AAm?$AAe?$AAs@ 1009ecf8     libucrtd:wsetlocale.obj
 0002:00018ddc       ??_C@_1CG@DHJLMPNE@?$AAp?$AAa?$AAr?$AAs?$AAe?$AA_?$AAb?$AAc?$AAp?$AA4?$AA7?$AA_?$AAr?$AAe?$AAg@ 1009eddc     libucrtd:wsetlocale.obj
 0002:00018e08       ??_C@_1NI@HCNCOMAB@?$AAw?$AAc?$AAs?$AAn?$AAc?$AAp?$AAy?$AA_?$AAs?$AA?$CI?$AAn?$AAa?$AAm?$AAe?$AAs@ 1009ee08     libucrtd:wsetlocale.obj
 0002:00018ee0       ??_C@_1CM@BFJANLBJ@?$AAp?$AAa?$AAr?$AAs?$AAe?$AA_?$AAb?$AAc?$AAp?$AA4?$AA7?$AA_?$AAc?$AAo?$AAd@ 1009eee0     libucrtd:wsetlocale.obj
 0002:00018f10       ??_C@_1NM@EHBAOOJF@?$AAw?$AAc?$AAs?$AAn?$AAc?$AAp?$AAy?$AA_?$AAs?$AA?$CI?$AAn?$AAa?$AAm?$AAe?$AAs@ 1009ef10     libucrtd:wsetlocale.obj
 0002:00018fec       ??_C@_17EFJLDFDO@?$AA?9?$AA_?$AA?4@ 1009efec     libucrtd:wsetlocale.obj
 0002:00018ff8       ??_C@_1IC@GOFECMPC@?$AA_?$AAe?$AAx?$AAp?$AAa?$AAn?$AAd?$AAl?$AAo?$AAc?$AAa?$AAl?$AAe?$AA_?$AAl@ 1009eff8     libucrtd:wsetlocale.obj
 0002:00019080       ??_C@_1BCI@NFIGLKLE@?$AAw?$AAc?$AAs?$AAn?$AAc?$AAp?$AAy?$AA_?$AAs?$AA?$CI?$AAl?$AAo?$AAc?$AAa?$AAl@ 1009f080     libucrtd:wsetlocale.obj
 0002:000191a8       ??_C@_1IE@NLIFNJDL@?$AA_?$AAe?$AAx?$AAp?$AAa?$AAn?$AAd?$AAl?$AAo?$AAc?$AAa?$AAl?$AAe?$AA_?$AAl@ 1009f1a8     libucrtd:wsetlocale.obj
 0002:00019230       ??_C@_1BDA@BKILNJJG@?$AAw?$AAc?$AAs?$AAn?$AAc?$AAp?$AAy?$AA_?$AAs?$AA?$CI?$AA_?$AAp?$AAs?$AAe?$AAt@ 1009f230     libucrtd:wsetlocale.obj
 0002:00019360       ??_C@_1GI@FBIHHKPD@?$AA_?$AAe?$AAx?$AAp?$AAa?$AAn?$AAd?$AAl?$AAo?$AAc?$AAa?$AAl?$AAe?$AA_?$AAl@ 1009f360     libucrtd:wsetlocale.obj
 0002:000193c8       ??_C@_1BCM@CLIFPJEI@?$AAw?$AAc?$AAs?$AAn?$AAc?$AAp?$AAy?$AA_?$AAs?$AA?$CI?$AA_?$AAp?$AAs?$AAe?$AAt@ 1009f3c8     libucrtd:wsetlocale.obj
 0002:000194f8       ??_C@_1JE@NMNMNJCJ@?$AA_?$AAe?$AAx?$AAp?$AAa?$AAn?$AAd?$AAl?$AAo?$AAc?$AAa?$AAl?$AAe?$AA_?$AAl@ 1009f4f8     libucrtd:wsetlocale.obj
 0002:00019590       ??_C@_1LM@FAJKEGBG@?$AAw?$AAc?$AAs?$AAn?$AAc?$AAp?$AAy?$AA_?$AAs?$AA?$CI?$AA_?$AAl?$AAo?$AAc?$AAa@ 1009f590     libucrtd:wsetlocale.obj
 0002:0001964c       ??_C@_1BM@OIIBLEFG@?$AA_?$AAe?$AAx?$AAp?$AAa?$AAn?$AAd?$AAl?$AAo?$AAc?$AAa?$AAl?$AAe@ 1009f64c     libucrtd:wsetlocale.obj
 0002:00019668       ??_C@_1EI@OCINLCHN@?$AAw?$AAc?$AAs?$AAc?$AAp?$AAy?$AA_?$AAs?$AA?$CI?$AAo?$AAu?$AAt?$AAp?$AAu?$AAt@ 1009f668     libucrtd:wsetlocale.obj
 0002:000196b0       ??_C@_13FHBKNHDA@?$AAC@    1009f6b0     libucrtd:wsetlocale.obj
 0002:000196b8       ??_C@_1IG@MKDIEKFD@?$AAw?$AAc?$AAs?$AAn?$AAc?$AAp?$AAy?$AA_?$AAs?$AA?$CI?$AAc?$AAa?$AAc?$AAh?$AAe@ 1009f6b8     libucrtd:wsetlocale.obj
 0002:00019740       ??_C@_1IC@FCCDBGLL@?$AAw?$AAc?$AAs?$AAn?$AAc?$AAp?$AAy?$AA_?$AAs?$AA?$CI?$AAc?$AAa?$AAc?$AAh?$AAe@ 1009f740     libucrtd:wsetlocale.obj
 0002:000197c8       ??_C@_1FA@HOOAAHFF@?$AAw?$AAc?$AAs?$AAc?$AAp?$AAy?$AA_?$AAs?$AA?$CI?$AAo?$AAu?$AAt?$AAp?$AAu?$AAt@ 1009f7c8     libucrtd:wsetlocale.obj
 0002:00019818       ??_C@_1BC@LEOKFFML@?$AA_?$AAw?$AAc?$AAs?$AAc?$AAa?$AAt?$AAs@ 1009f818     libucrtd:wsetlocale.obj
 0002:00019830       ??_C@_1BHK@BGMBCJOP@?$AAw?$AAc?$AAs?$AAc?$AAa?$AAt?$AA_?$AAs?$AA?$CI?$AAo?$AAu?$AAt?$AAs?$AAt?$AAr@ 1009f830     libucrtd:wsetlocale.obj
 0002:000199ac       ??_C@_1BK@GNCHCGCN@?$AA_?$AA_?$AAl?$AAc?$AA_?$AAw?$AAc?$AAs?$AAt?$AAo?$AAl?$AAc@ 1009f9ac     libucrtd:wsetlocale.obj
 0002:000199c8       ??_C@_1MI@MGHKCMFH@?$AAw?$AAc?$AAs?$AAn?$AAc?$AAp?$AAy?$AA_?$AAs?$AA?$CI?$AAn?$AAa?$AAm?$AAe?$AAs@ 1009f9c8     libucrtd:wsetlocale.obj
 0002:00019a90       ??_C@_17MBJJLFDM@?$AA_?$AA?4?$AA?0@ 1009fa90     libucrtd:wsetlocale.obj
 0002:00019a98       ??_C@_1LO@GGCCDNLJ@?$AAw?$AAc?$AAs?$AAn?$AAc?$AAp?$AAy?$AA_?$AAs?$AA?$CI?$AAn?$AAa?$AAm?$AAe?$AAs@ 1009fa98     libucrtd:wsetlocale.obj
 0002:00019b58       ??_C@_1LK@JOIOCOID@?$AAw?$AAc?$AAs?$AAn?$AAc?$AAp?$AAy?$AA_?$AAs?$AA?$CI?$AAn?$AAa?$AAm?$AAe?$AAs@ 1009fb58     libucrtd:wsetlocale.obj
 0002:00019c18       ??_C@_1LO@OJICFEP@?$AAw?$AAc?$AAs?$AAn?$AAc?$AAp?$AAy?$AA_?$AAs?$AA?$CI?$AAn?$AAa?$AAm?$AAe?$AAs@ 1009fc18     libucrtd:wsetlocale.obj
 0002:00019cd8       ??_C@_1BK@HEBMGPEK@?$AA_?$AA_?$AAl?$AAc?$AA_?$AAl?$AAc?$AAt?$AAo?$AAw?$AAc?$AAs@ 1009fcd8     libucrtd:wsetlocale.obj
 0002:00019cf8       ??_C@_1GM@FOFMGOEK@?$AAw?$AAc?$AAs?$AAc?$AAp?$AAy?$AA_?$AAs?$AA?$CI?$AAl?$AAo?$AAc?$AAa?$AAl?$AAe@ 1009fcf8     libucrtd:wsetlocale.obj
 0002:00019d64       ??_C@_13ENNFDPBH@?$AA_@    1009fd64     libucrtd:wsetlocale.obj
 0002:00019d68       ??_C@_13JOFGPIOO@?$AA?4@   1009fd68     libucrtd:wsetlocale.obj
 0002:00019d6c       ??_C@_1DA@BBIOOKDN@?$AA_?$AA_?$AAa?$AAc?$AAr?$AAt?$AA_?$AAc?$AAo?$AAp?$AAy?$AA_?$AAl?$AAo?$AAc@ 1009fd6c     libucrtd:wsetlocale.obj
 0002:00019da0       ??_C@_1GI@HBNMCKGD@?$AAw?$AAc?$AAs?$AAn?$AAc?$AAp?$AAy?$AA_?$AAs?$AA?$CI?$AAl?$AAo?$AAc?$AAa?$AAl@ 1009fda0     libucrtd:wsetlocale.obj
 0002:00019e08       ___lc_time_c               1009fe08     libucrtd:nlsdata.obj
 0002:00019f6c       ??_C@_03KOEHGMDN@Sun@      1009ff6c     libucrtd:nlsdata.obj
 0002:00019f70       ??_C@_03PDAGKDH@Mon@       1009ff70     libucrtd:nlsdata.obj
 0002:00019f74       ??_C@_03NAGEINEP@Tue@      1009ff74     libucrtd:nlsdata.obj
 0002:00019f78       ??_C@_03MHOMLAJA@Wed@      1009ff78     libucrtd:nlsdata.obj
 0002:00019f7c       ??_C@_03IOFIKPDN@Thu@      1009ff7c     libucrtd:nlsdata.obj
 0002:00019f80       ??_C@_03IDIOELNC@Fri@      1009ff80     libucrtd:nlsdata.obj
 0002:00019f84       ??_C@_03FEFJNEK@Sat@       1009ff84     libucrtd:nlsdata.obj
 0002:00019f88       ??_C@_06OOPIFAJ@Sunday@    1009ff88     libucrtd:nlsdata.obj
 0002:00019f90       ??_C@_06JLEDEDGH@Monday@   1009ff90     libucrtd:nlsdata.obj
 0002:00019f98       ??_C@_07BAAGCFCM@Tuesday@  1009ff98     libucrtd:nlsdata.obj
 0002:00019fa0       ??_C@_09DLIGFAKA@Wednesday@ 1009ffa0     libucrtd:nlsdata.obj
 0002:00019fac       ??_C@_08HACCIKIA@Thursday@ 1009ffac     libucrtd:nlsdata.obj
 0002:00019fb8       ??_C@_06JECMNKMI@Friday@   1009ffb8     libucrtd:nlsdata.obj
 0002:00019fc0       ??_C@_08INBOOONO@Saturday@ 1009ffc0     libucrtd:nlsdata.obj
 0002:00019fcc       ??_C@_03JIHJHPIE@Jan@      1009ffcc     libucrtd:nlsdata.obj
 0002:00019fd0       ??_C@_03HJBDCHOM@Feb@      1009ffd0     libucrtd:nlsdata.obj
 0002:00019fd4       ??_C@_03ODNJBKGA@Mar@      1009ffd4     libucrtd:nlsdata.obj
 0002:00019fd8       ??_C@_03LEOLGMJP@Apr@      1009ffd8     libucrtd:nlsdata.obj
 0002:00019fdc       ??_C@_03CNMDKL@May@        1009ffdc     libucrtd:nlsdata.obj
 0002:00019fe0       ??_C@_03IDFGHECI@Jun@      1009ffe0     libucrtd:nlsdata.obj
 0002:00019fe4       ??_C@_03LBGABGKK@Jul@      1009ffe4     libucrtd:nlsdata.obj
 0002:00019fe8       ??_C@_03IFJFEIGA@Aug@      1009ffe8     libucrtd:nlsdata.obj
 0002:00019fec       ??_C@_03GGCAPAJC@Sep@      1009ffec     libucrtd:nlsdata.obj
 0002:00019ff0       ??_C@_03BMAOKBAD@Oct@      1009fff0     libucrtd:nlsdata.obj
 0002:00019ff4       ??_C@_03JPJOFNIA@Nov@      1009fff4     libucrtd:nlsdata.obj
 0002:00019ff8       ??_C@_03MKABNOCG@Dec@      1009fff8     libucrtd:nlsdata.obj
 0002:00019ffc       ??_C@_07CGJPFGJA@January@  1009fffc     libucrtd:nlsdata.obj
 0002:0001a004       ??_C@_08GNJGEPFN@February@ 100a0004     libucrtd:nlsdata.obj
 0002:0001a010       ??_C@_05HPCKOFNC@March@    100a0010     libucrtd:nlsdata.obj
 0002:0001a018       ??_C@_05DMJDNLEJ@April@    100a0018     libucrtd:nlsdata.obj
 0002:0001a020       ??_C@_04CNLMGBGM@June@     100a0020     libucrtd:nlsdata.obj
 0002:0001a028       ??_C@_04MIEPOIFP@July@     100a0028     libucrtd:nlsdata.obj
 0002:0001a030       ??_C@_06LBBHFDDG@August@   100a0030     libucrtd:nlsdata.obj
 0002:0001a038       ??_C@_09BHHEALKD@September@ 100a0038     libucrtd:nlsdata.obj
 0002:0001a044       ??_C@_07JJNFCEND@October@  100a0044     libucrtd:nlsdata.obj
 0002:0001a04c       ??_C@_08HCHEGEOA@November@ 100a004c     libucrtd:nlsdata.obj
 0002:0001a058       ??_C@_08EDHMEBNP@December@ 100a0058     libucrtd:nlsdata.obj
 0002:0001a064       ??_C@_02DEDBPAFC@AM@       100a0064     libucrtd:nlsdata.obj
 0002:0001a068       ??_C@_02CJNFDJBF@PM@       100a0068     libucrtd:nlsdata.obj
 0002:0001a06c       ??_C@_08BPBNCDIB@MM?1dd?1yy@ 100a006c     libucrtd:nlsdata.obj
 0002:0001a078       ??_C@_0BE@CKGJFCPC@dddd?0?5MMMM?5dd?0?5yyyy@ 100a0078     libucrtd:nlsdata.obj
 0002:0001a08c       ??_C@_08JCCMCCIL@HH?3mm?3ss@ 100a008c     libucrtd:nlsdata.obj
 0002:0001a098       ??_C@_17MBGCMIPB@?$AAS?$AAu?$AAn@ 100a0098     libucrtd:nlsdata.obj
 0002:0001a0a0       ??_C@_17KBOMKBF@?$AAM?$AAo?$AAn@ 100a00a0     libucrtd:nlsdata.obj
 0002:0001a0a8       ??_C@_17BMKGEGOJ@?$AAT?$AAu?$AAe@ 100a00a8     libucrtd:nlsdata.obj
 0002:0001a0b0       ??_C@_17CJEDCEPE@?$AAW?$AAe?$AAd@ 100a00b0     libucrtd:nlsdata.obj
 0002:0001a0b8       ??_C@_17PDPHAADD@?$AAT?$AAh?$AAu@ 100a00b8     libucrtd:nlsdata.obj
 0002:0001a0c0       ??_C@_17HFOLPPLP@?$AAF?$AAr?$AAi@ 100a00c0     libucrtd:nlsdata.obj
 0002:0001a0c8       ??_C@_17GGIBDPIH@?$AAS?$AAa?$AAt@ 100a00c8     libucrtd:nlsdata.obj
 0002:0001a0d0       ??_C@_1O@IHNHDHPB@?$AAS?$AAu?$AAn?$AAd?$AAa?$AAy@ 100a00d0     libucrtd:nlsdata.obj
 0002:0001a0e0       ??_C@_1O@MMNBFLIA@?$AAM?$AAo?$AAn?$AAd?$AAa?$AAy@ 100a00e0     libucrtd:nlsdata.obj
 0002:0001a0f0       ??_C@_1BA@ENFBFFEK@?$AAT?$AAu?$AAe?$AAs?$AAd?$AAa?$AAy@ 100a00f0     libucrtd:nlsdata.obj
 0002:0001a100       ??_C@_1BE@EBOGMDOH@?$AAW?$AAe?$AAd?$AAn?$AAe?$AAs?$AAd?$AAa?$AAy@ 100a0100     libucrtd:nlsdata.obj
 0002:0001a114       ??_C@_1BC@HHMNLIHE@?$AAT?$AAh?$AAu?$AAr?$AAs?$AAd?$AAa?$AAy@ 100a0114     libucrtd:nlsdata.obj
 0002:0001a128       ??_C@_1O@PDICJHAG@?$AAF?$AAr?$AAi?$AAd?$AAa?$AAy@ 100a0128     libucrtd:nlsdata.obj
 0002:0001a138       ??_C@_1BC@ENMNNPAJ@?$AAS?$AAa?$AAt?$AAu?$AAr?$AAd?$AAa?$AAy@ 100a0138     libucrtd:nlsdata.obj
 0002:0001a14c       ??_C@_17DKNBKCHM@?$AAJ?$AAa?$AAn@ 100a014c     libucrtd:nlsdata.obj
 0002:0001a154       ??_C@_17LMDJEKJN@?$AAF?$AAe?$AAb@ 100a0154     libucrtd:nlsdata.obj
 0002:0001a15c       ??_C@_17CKNLEDEC@?$AAM?$AAa?$AAr@ 100a015c     libucrtd:nlsdata.obj
 0002:0001a164       ??_C@_17LFPOIHDD@?$AAA?$AAp?$AAr@ 100a0164     libucrtd:nlsdata.obj
 0002:0001a16c       ??_C@_17PNNKMEED@?$AAM?$AAa?$AAy@ 100a016c     libucrtd:nlsdata.obj
 0002:0001a174       ??_C@_17KCJGOCPB@?$AAJ?$AAu?$AAn@ 100a0174     libucrtd:nlsdata.obj
 0002:0001a17c       ??_C@_17IJPCKHK@?$AAJ?$AAu?$AAl@ 100a017c     libucrtd:nlsdata.obj
 0002:0001a184       ??_C@_17ICPELBCN@?$AAA?$AAu?$AAg@ 100a0184     libucrtd:nlsdata.obj
 0002:0001a18c       ??_C@_17HCHCOKMG@?$AAS?$AAe?$AAp@ 100a018c     libucrtd:nlsdata.obj
 0002:0001a194       ??_C@_17FNLKOI@?$AAO?$AAc?$AAt@ 100a0194     libucrtd:nlsdata.obj
 0002:0001a19c       ??_C@_17BBDMLCIG@?$AAN?$AAo?$AAv@ 100a019c     libucrtd:nlsdata.obj
 0002:0001a1a4       ??_C@_17EGKACKIF@?$AAD?$AAe?$AAc@ 100a01a4     libucrtd:nlsdata.obj
 0002:0001a1ac       ??_C@_1BA@EFMEIEBA@?$AAJ?$AAa?$AAn?$AAu?$AAa?$AAr?$AAy@ 100a01ac     libucrtd:nlsdata.obj
 0002:0001a1bc       ??_C@_1BC@JGDDFFAM@?$AAF?$AAe?$AAb?$AAr?$AAu?$AAa?$AAr?$AAy@ 100a01bc     libucrtd:nlsdata.obj
 0002:0001a1d0       ??_C@_1M@IKEENEDF@?$AAM?$AAa?$AAr?$AAc?$AAh@ 100a01d0     libucrtd:nlsdata.obj
 0002:0001a1dc       ??_C@_1M@GJNLMHFD@?$AAA?$AAp?$AAr?$AAi?$AAl@ 100a01dc     libucrtd:nlsdata.obj
 0002:0001a1e8       ??_C@_19EPFLPGAP@?$AAJ?$AAu?$AAn?$AAe@ 100a01e8     libucrtd:nlsdata.obj
 0002:0001a1f4       ??_C@_19BIFMLPCD@?$AAJ?$AAu?$AAl?$AAy@ 100a01f4     libucrtd:nlsdata.obj
 0002:0001a200       ??_C@_1O@PAHLKOAC@?$AAA?$AAu?$AAg?$AAu?$AAs?$AAt@ 100a0200     libucrtd:nlsdata.obj
 0002:0001a210       ??_C@_1BE@DKAAMBJL@?$AAS?$AAe?$AAp?$AAt?$AAe?$AAm?$AAb?$AAe?$AAr@ 100a0210     libucrtd:nlsdata.obj
 0002:0001a224       ??_C@_1BA@EPANDLNG@?$AAO?$AAc?$AAt?$AAo?$AAb?$AAe?$AAr@ 100a0224     libucrtd:nlsdata.obj
 0002:0001a234       ??_C@_1BC@BGLIFPF@?$AAN?$AAo?$AAv?$AAe?$AAm?$AAb?$AAe?$AAr@ 100a0234     libucrtd:nlsdata.obj
 0002:0001a248       ??_C@_1BC@FEMKIFH@?$AAD?$AAe?$AAc?$AAe?$AAm?$AAb?$AAe?$AAr@ 100a0248     libucrtd:nlsdata.obj
 0002:0001a25c       ??_C@_15ODEHAHHF@?$AAA?$AAM@ 100a025c     libucrtd:nlsdata.obj
 0002:0001a264       ??_C@_15CLMNNGEL@?$AAP?$AAM@ 100a0264     libucrtd:nlsdata.obj
 0002:0001a26c       ??_C@_1BC@IEBCMHCM@?$AAM?$AAM?$AA?1?$AAd?$AAd?$AA?1?$AAy?$AAy@ 100a026c     libucrtd:nlsdata.obj
 0002:0001a280       ??_C@_1CI@KNAKOEBC@?$AAd?$AAd?$AAd?$AAd?$AA?0?$AA?5?$AAM?$AAM?$AAM?$AAM?$AA?5?$AAd?$AAd?$AA?0?$AA?5@ 100a0280     libucrtd:nlsdata.obj
 0002:0001a2a8       ??_C@_1BC@GDGBMEMK@?$AAH?$AAH?$AA?3?$AAm?$AAm?$AA?3?$AAs?$AAs@ 100a02a8     libucrtd:nlsdata.obj
 0002:0001a2bc       ??_C@_1M@BMHNFIME@?$AAe?$AAn?$AA?9?$AAU?$AAS@ 100a02bc     libucrtd:nlsdata.obj
 0002:0001a2c8       ??_C@_1FM@MMDMNOHM@?$AAm?$AAi?$AAn?$AAk?$AAe?$AAr?$AAn?$AAe?$AAl?$AA?2?$AAc?$AAr?$AAt?$AAs?$AA?2@ 100a02c8     libucrtd:msize.obj
 0002:0001a324       ??_C@_1BI@MHNDMCP@?$AA_?$AAm?$AAs?$AAi?$AAz?$AAe?$AA_?$AAb?$AAa?$AAs?$AAe@ 100a0324     libucrtd:msize.obj
 0002:0001a340       ??_C@_1FO@NMANMHOD@?$AAc?$AAa?$AAc?$AAh?$AAe?$AAd?$AA_?$AAs?$AAt?$AAa?$AAt?$AAe?$AA?5?$AA?$DN?$AA?$DN@ 100a0340     libucrtd:win_policies.obj
 0002:0001a3a0       ??_C@_1HC@GHLNKBJK@?$AAm?$AAi?$AAn?$AAk?$AAe?$AAr?$AAn?$AAe?$AAl?$AA?2?$AAc?$AAr?$AAt?$AAs?$AA?2@ 100a03a0     libucrtd:win_policies.obj
 0002:0001a414       ??_C@_0DI@DNFGFCIK@minkernel?2crts?2ucrt?2inc?2corecrt@ 100a0414     libucrtd:argv_wildcards.obj
 0002:0001a450       ??_C@_1HE@CEMHPOHH@?$AAm?$AAi?$AAn?$AAk?$AAe?$AAr?$AAn?$AAe?$AAl?$AA?2?$AAc?$AAr?$AAt?$AAs?$AA?2@ 100a0450     libucrtd:argv_wildcards.obj
 0002:0001a4c4       ??_C@_1DK@IBFFOJGB@?$AAc?$AAo?$AAm?$AAm?$AAo?$AAn?$AA_?$AAe?$AAx?$AAp?$AAa?$AAn?$AAd?$AA_?$AAa@ 100a04c4     libucrtd:argv_wildcards.obj
 0002:0001a500       ??_C@_1MC@FLPKOFON@?$AAt?$AAr?$AAa?$AAi?$AAt?$AAs?$AA?3?$AA?3?$AAt?$AAc?$AAs?$AAn?$AAc?$AAp?$AAy@ 100a0500     libucrtd:argv_wildcards.obj
 0002:0001a5c4       ??_C@_0DK@FPFMIIJB@minkernel?2crts?2ucrt?2src?2appcrt?2@ 100a05c4     libucrtd:argv_wildcards.obj
 0002:0001a600       ??_C@_1EA@KOCCBLAD@?$AAc?$AAo?$AAp?$AAy?$AA_?$AAa?$AAn?$AAd?$AA_?$AAa?$AAd?$AAd?$AA_?$AAa?$AAr@ 100a0600     libucrtd:argv_wildcards.obj
 0002:0001a640       ??_C@_1KM@GDJIGAGL@?$AAt?$AAr?$AAa?$AAi?$AAt?$AAs?$AA?3?$AA?3?$AAt?$AAc?$AAs?$AAn?$AAc?$AAp?$AAy@ 100a0640     libucrtd:argv_wildcards.obj
 0002:0001a6f0       ??_C@_1PI@FGFLAGCC@?$AAt?$AAr?$AAa?$AAi?$AAt?$AAs?$AA?3?$AA?3?$AAt?$AAc?$AAs?$AAn?$AAc?$AAp?$AAy@ 100a06f0     libucrtd:argv_wildcards.obj
 0002:0001a7f8       ??_C@_1M@HPNHIDJI@?$AAj?$AAa?$AA?9?$AAJ?$AAP@ 100a07f8     libucrtd:mbctype.obj
 0002:0001a804       ??_C@_1M@BIBDDEMK@?$AAz?$AAh?$AA?9?$AAC?$AAN@ 100a0804     libucrtd:mbctype.obj
 0002:0001a810       ??_C@_1M@JLOOOEGK@?$AAk?$AAo?$AA?9?$AAK?$AAR@ 100a0810     libucrtd:mbctype.obj
 0002:0001a81c       ??_C@_1M@CLNBBOPM@?$AAz?$AAh?$AA?9?$AAT?$AAW@ 100a081c     libucrtd:mbctype.obj
 0002:0001a828       ??_C@_0DE@HGDKNBFD@minkernel?2crts?2ucrt?2src?2appcrt?2@ 100a0828     libucrtd:mbctype.obj
 0002:0001a860       ??_C@_1GK@EMNILMBI@?$AAm?$AAi?$AAn?$AAk?$AAe?$AAr?$AAn?$AAe?$AAl?$AA?2?$AAc?$AAr?$AAt?$AAs?$AA?2@ 100a0860     libucrtd:argv_data.obj
 0002:0001a8cc       ??_C@_1BK@PNLDCCDP@?$AA_?$AAg?$AAe?$AAt?$AA_?$AAw?$AAp?$AAg?$AAm?$AAp?$AAt?$AAr@ 100a08cc     libucrtd:argv_data.obj
 0002:0001a8e8       ??_C@_1CI@ENCADPBF@?$AA_?$AAw?$AAp?$AAg?$AAm?$AAp?$AAt?$AAr?$AA?5?$AA?$CB?$AA?$DN?$AA?5?$AAn?$AAu?$AAl@ 100a08e8     libucrtd:argv_data.obj
 0002:0001a910       ??_C@_1BI@COAAPHJK@?$AA_?$AAg?$AAe?$AAt?$AA_?$AAp?$AAg?$AAm?$AAp?$AAt?$AAr@ 100a0910     libucrtd:argv_data.obj
 0002:0001a928       ??_C@_1CG@CKJHPBDG@?$AA_?$AAp?$AAg?$AAm?$AAp?$AAt?$AAr?$AA?5?$AA?$CB?$AA?$DN?$AA?5?$AAn?$AAu?$AAl?$AAl@ 100a0928     libucrtd:argv_data.obj
 0002:0001a950       ??_C@_0ED@BLPEHJAI@minkernel?2crts?2ucrt?2src?2desktop@ 100a0950     libucrtd:get_environment_from_os.obj
 0002:0001a994       ??_C@_1DO@PANKIJNP@?$AAe?$AAq?$AAu?$AAa?$AAl?$AA_?$AAs?$AAi?$AAg?$AAn?$AA?5?$AA?9?$AA?5?$AAo?$AAp@ 100a0994     libucrtd:setenv.obj
 0002:0001a9d8       ??_C@_1GE@MMOHBENP@?$AAm?$AAi?$AAn?$AAk?$AAe?$AAr?$AAn?$AAe?$AAl?$AA?2?$AAc?$AAr?$AAt?$AAs?$AA?2@ 100a09d8     libucrtd:setenv.obj
 0002:0001aa40       ??_C@_1GK@KBABANDM@?$AAt?$AAr?$AAa?$AAi?$AAt?$AAs?$AA?3?$AA?3?$AAt?$AAc?$AAs?$AAn?$AAl?$AAe?$AAn@ 100a0a40     libucrtd:setenv.obj
 0002:0001aaac       ??_C@_0DC@NJKMKCIL@minkernel?2crts?2ucrt?2src?2desktop@ 100a0aac     libucrtd:setenv.obj
 0002:0001aae0       ??_C@_1EC@IKJPFBIM@?$AA?$CI?$AA?$CC?$AAC?$AAR?$AAT?$AA?5?$AAl?$AAo?$AAg?$AAi?$AAc?$AA?5?$AAe?$AAr?$AAr@ 100a0ae0     libucrtd:setenv.obj
 0002:0001ab28       ??_C@_1FE@KHMDCEEJ@?$AAc?$AAo?$AAm?$AAm?$AAo?$AAn?$AA_?$AAs?$AAe?$AAt?$AA_?$AAv?$AAa?$AAr?$AAi@ 100a0b28     libucrtd:setenv.obj
 0002:0001ab80       ??_C@_1EM@NIOJJLEA@?$AAt?$AAr?$AAa?$AAi?$AAt?$AAs?$AA?3?$AA?3?$AAt?$AAc?$AAs?$AAc?$AAp?$AAy?$AA_@ 100a0b80     libucrtd:setenv.obj
 0002:0001abcc       ??_C@_1CC@PIMGMDJH@?$AAc?$AAo?$AAp?$AAy?$AA_?$AAe?$AAn?$AAv?$AAi?$AAr?$AAo?$AAn?$AAm?$AAe?$AAn@ 100a0bcc     libucrtd:setenv.obj
 0002:0001abf0       ??_C@_1GG@EDHOMIDL@?$AAt?$AAr?$AAa?$AAi?$AAt?$AAs?$AA?3?$AA?3?$AAt?$AAc?$AAs?$AAc?$AAp?$AAy?$AA_@ 100a0bf0     libucrtd:setenv.obj
 0002:0001aca8       ??_C@_1EA@JGEFHKEI@?$AAa?$AAp?$AAi?$AA?9?$AAm?$AAs?$AA?9?$AAw?$AAi?$AAn?$AA?9?$AAc?$AAo?$AAr?$AAe@ 100a0ca8     libucrtd:winapi_thunks.obj
 0002:0001ace8       ??_C@_1DI@IJCEHOCB@?$AAa?$AAp?$AAi?$AA?9?$AAm?$AAs?$AA?9?$AAw?$AAi?$AAn?$AA?9?$AAc?$AAo?$AAr?$AAe@ 100a0ce8     libucrtd:winapi_thunks.obj
 0002:0001ad20       ??_C@_1EI@MPIAOHOC@?$AAa?$AAp?$AAi?$AA?9?$AAm?$AAs?$AA?9?$AAw?$AAi?$AAn?$AA?9?$AAc?$AAo?$AAr?$AAe@ 100a0d20     libucrtd:winapi_thunks.obj
 0002:0001ad68       ??_C@_1FK@FPHCKFIE@?$AAa?$AAp?$AAi?$AA?9?$AAm?$AAs?$AA?9?$AAw?$AAi?$AAn?$AA?9?$AAc?$AAo?$AAr?$AAe@ 100a0d68     libucrtd:winapi_thunks.obj
 0002:0001adc8       ??_C@_1EM@DILCGIIO@?$AAa?$AAp?$AAi?$AA?9?$AAm?$AAs?$AA?9?$AAw?$AAi?$AAn?$AA?9?$AAc?$AAo?$AAr?$AAe@ 100a0dc8     libucrtd:winapi_thunks.obj
 0002:0001ae14       ??_C@_1DM@LNCGDDPN@?$AAa?$AAp?$AAi?$AA?9?$AAm?$AAs?$AA?9?$AAw?$AAi?$AAn?$AA?9?$AAc?$AAo?$AAr?$AAe@ 100a0e14     libucrtd:winapi_thunks.obj
 0002:0001ae50       ??_C@_1DO@FPAPJEMD@?$AAa?$AAp?$AAi?$AA?9?$AAm?$AAs?$AA?9?$AAw?$AAi?$AAn?$AA?9?$AAc?$AAo?$AAr?$AAe@ 100a0e50     libucrtd:winapi_thunks.obj
 0002:0001ae90       ??_C@_1DK@NDHNAHIO@?$AAa?$AAp?$AAi?$AA?9?$AAm?$AAs?$AA?9?$AAw?$AAi?$AAn?$AA?9?$AAc?$AAo?$AAr?$AAe@ 100a0e90     libucrtd:winapi_thunks.obj
 0002:0001aecc       ??_C@_1DM@KGHDGBCM@?$AAa?$AAp?$AAi?$AA?9?$AAm?$AAs?$AA?9?$AAw?$AAi?$AAn?$AA?9?$AAc?$AAo?$AAr?$AAe@ 100a0ecc     libucrtd:winapi_thunks.obj
 0002:0001af08       ??_C@_1EO@IJIOEFOH@?$AAa?$AAp?$AAi?$AA?9?$AAm?$AAs?$AA?9?$AAw?$AAi?$AAn?$AA?9?$AAr?$AAt?$AAc?$AAo@ 100a0f08     libucrtd:winapi_thunks.obj
 0002:0001af58       ??_C@_1FG@HHGEKANL@?$AAa?$AAp?$AAi?$AA?9?$AAm?$AAs?$AA?9?$AAw?$AAi?$AAn?$AA?9?$AAs?$AAe?$AAc?$AAu@ 100a0f58     libucrtd:winapi_thunks.obj
 0002:0001afb0       ??_C@_1EG@DBIOJECG@?$AAe?$AAx?$AAt?$AA?9?$AAm?$AAs?$AA?9?$AAw?$AAi?$AAn?$AA?9?$AAn?$AAt?$AAu?$AAs@ 100a0fb0     libucrtd:winapi_thunks.obj
 0002:0001aff8       ??_C@_1EO@FIHMJCLF@?$AAe?$AAx?$AAt?$AA?9?$AAm?$AAs?$AA?9?$AAw?$AAi?$AAn?$AA?9?$AAn?$AAt?$AAu?$AAs@ 100a0ff8     libucrtd:winapi_thunks.obj
 0002:0001b048       ??_C@_1BC@DNHGCMLG@?$AAa?$AAd?$AAv?$AAa?$AAp?$AAi?$AA3?$AA2@ 100a1048     libucrtd:winapi_thunks.obj
 0002:0001b05c       ??_C@_1M@OAIMIKLP@?$AAn?$AAt?$AAd?$AAl?$AAl@ 100a105c     libucrtd:winapi_thunks.obj
 0002:0001b068       ??_C@_1EG@DPGNFKGC@?$AAa?$AAp?$AAi?$AA?9?$AAm?$AAs?$AA?9?$AAw?$AAi?$AAn?$AA?9?$AAa?$AAp?$AAp?$AAm@ 100a1068     libucrtd:winapi_thunks.obj
 0002:0001b0b0       ??_C@_1O@BCCLBEOE@?$AAu?$AAs?$AAe?$AAr?$AA3?$AA2@ 100a10b0     libucrtd:winapi_thunks.obj
 0002:0001b0c0       ??_C@_1BA@IAIFMGEF@?$AAe?$AAx?$AAt?$AA?9?$AAm?$AAs?$AA?9@ 100a10c0     libucrtd:winapi_thunks.obj
 0002:0001b0d0       ??_C@_1HE@OILMBOBA@?$AAm?$AAi?$AAn?$AAk?$AAe?$AAr?$AAn?$AAe?$AAl?$AA?2?$AAc?$AAr?$AAt?$AAs?$AA?2@ 100a10d0     libucrtd:winapi_thunks.obj
 0002:0001b148       ??_C@_0BA@FHFNEAED@AreFileApisANSI@ 100a1148     libucrtd:winapi_thunks.obj
 0002:0001b160       ??_C@_0BA@IHGNDAEB@CompareStringEx@ 100a1160     libucrtd:winapi_thunks.obj
 0002:0001b178       ??_C@_0BE@LJANKFHF@EnumSystemLocalesEx@ 100a1178     libucrtd:winapi_thunks.obj
 0002:0001b1b4       ??_C@_0BA@HNOPNCHB@GetActiveWindow@ 100a11b4     libucrtd:winapi_thunks.obj
 0002:0001b1cc       ??_C@_0BA@EPCJIIPD@GetDateFormatEx@ 100a11cc     libucrtd:winapi_thunks.obj
 0002:0001b1e4       ??_C@_0BJ@DIBIJBHA@GetEnabledXStateFeatures@ 100a11e4     libucrtd:winapi_thunks.obj
 0002:0001b208       ??_C@_0BD@HHGDFDBJ@GetLastActivePopup@ 100a1208     libucrtd:winapi_thunks.obj
 0002:0001b224       ??_C@_0BA@ONOKGCMP@GetLocaleInfoEx@ 100a1224     libucrtd:winapi_thunks.obj
 0002:0001b23c       ??_C@_0BI@DFKBFLJE@GetProcessWindowStation@ 100a123c     libucrtd:winapi_thunks.obj
 0002:0001b258       ??_C@_0BP@FPNJPEJC@GetSystemTimePreciseAsFileTime@ 100a1258     libucrtd:winapi_thunks.obj
 0002:0001b280       ??_C@_0BA@CIJJKCJJ@GetTimeFormatEx@ 100a1280     libucrtd:winapi_thunks.obj
 0002:0001b298       ??_C@_0BJ@PBCCBIPI@GetUserDefaultLocaleName@ 100a1298     libucrtd:winapi_thunks.obj
 0002:0001b2bc       ??_C@_0BK@DEKFELLI@GetUserObjectInformationW@ 100a12bc     libucrtd:winapi_thunks.obj
 0002:0001b2e0       ??_C@_0BG@IKLDMBLM@GetXStateFeaturesMask@ 100a12e0     libucrtd:winapi_thunks.obj
 0002:0001b308       ??_C@_0BC@CELBKLLA@IsValidLocaleName@ 100a1308     libucrtd:winapi_thunks.obj
 0002:0001b324       ??_C@_0O@KKBNKAPF@LCMapStringEx@ 100a1324     libucrtd:winapi_thunks.obj
 0002:0001b33c       ??_C@_0BB@CDHDDLLP@LCIDToLocaleName@ 100a133c     libucrtd:winapi_thunks.obj
 0002:0001b358       ??_C@_0BB@HBDEELFH@LocaleNameToLCID@ 100a1358     libucrtd:winapi_thunks.obj
 0002:0001b374       ??_C@_0BE@KINNKFDA@LocateXStateFeature@ 100a1374     libucrtd:winapi_thunks.obj
 0002:0001b390       ??_C@_0M@CHKKJDAI@MessageBoxA@ 100a1390     libucrtd:winapi_thunks.obj
 0002:0001b3a4       ??_C@_0M@DLDCCGNP@MessageBoxW@ 100a13a4     libucrtd:winapi_thunks.obj
 0002:0001b3b4       ??_C@_0N@PPOMPGGK@RoInitialize@ 100a13b4     libucrtd:winapi_thunks.obj
 0002:0001b3c8       ??_C@_0P@LLFHBIJD@RoUninitialize@ 100a13c8     libucrtd:winapi_thunks.obj
 0002:0001b3dc       ??_C@_0CF@OJOFEIGO@AppPolicyGetProcessTerminationM@ 100a13dc     libucrtd:winapi_thunks.obj
 0002:0001b408       ??_C@_0CF@NNDFDCOC@AppPolicyGetThreadInitializatio@ 100a1408     libucrtd:winapi_thunks.obj
 0002:0001b434       ??_C@_0CE@OICFMIKE@AppPolicyGetShowDeveloperDiagno@ 100a1434     libucrtd:winapi_thunks.obj
 0002:0001b45c       ??_C@_0BL@ODDJNEDA@AppPolicyGetWindowingModel@ 100a145c     libucrtd:winapi_thunks.obj
 0002:0001b480       ??_C@_0BI@BKLFFAPO@SetThreadStackGuarantee@ 100a1480     libucrtd:winapi_thunks.obj
 0002:0001b4a0       ??_C@_0BC@JEAENNKH@SystemFunction036@ 100a14a0     libucrtd:winapi_thunks.obj
 0002:0001b4b4       ??_C@_1CO@HCPPKOH@?$AA_?$AA_?$AAa?$AAc?$AAr?$AAt?$AA_?$AAh?$AAe?$AAa?$AAp?$AA?5?$AA?$CB?$AA?$DN?$AA?5@ 100a14b4     libucrtd:heap_handle.obj
 0002:0001b4e8       ??_C@_1GI@OADBAEGE@?$AAm?$AAi?$AAn?$AAk?$AAe?$AAr?$AAn?$AAe?$AAl?$AA?2?$AAc?$AAr?$AAt?$AAs?$AA?2@ 100a14e8     libucrtd:heap_handle.obj
 0002:0001b550       ??_C@_1CI@JELMFMDH@?$AAc?$AA?5?$AA?$DO?$AA?$DN?$AA?5?$AA?9?$AA1?$AA?5?$AA?$CG?$AA?$CG?$AA?5?$AAc?$AA?5?$AA?$DM?$AA?$DN@ 100a1550     libucrtd:isctype.obj
 0002:0001b578       ??_C@_1GG@KPBGDFHJ@?$AAm?$AAi?$AAn?$AAk?$AAe?$AAr?$AAn?$AAe?$AAl?$AA?2?$AAc?$AAr?$AAt?$AAs?$AA?2@ 100a1578     libucrtd:isctype.obj
 0002:0001b5e0       ??_C@_1FO@GEKPJHID@?$AAm?$AAi?$AAn?$AAk?$AAe?$AAr?$AAn?$AAe?$AAl?$AA?2?$AAc?$AAr?$AAt?$AAs?$AA?2@ 100a15e0     libucrtd:expand.obj
 0002:0001b640       ??_C@_1BK@JMCGJOCC@?$AA_?$AAe?$AAx?$AAp?$AAa?$AAn?$AAd?$AA_?$AAb?$AAa?$AAs?$AAe@ 100a1640     libucrtd:expand.obj
 0002:0001b65c       ??_C@_1CO@JKFLNGDK@?$AAm?$AAo?$AAd?$AAe?$AA?5?$AA?$DN?$AA?$DN?$AA?5?$AA0?$AA?5?$AA?$HM?$AA?$HM?$AA?5?$AAm?$AAo@ 100a165c     libucrtd:new_mode.obj
 0002:0001b690       ??_C@_1GC@PJMKBHEK@?$AAm?$AAi?$AAn?$AAk?$AAe?$AAr?$AAn?$AAe?$AAl?$AA?2?$AAc?$AAr?$AAt?$AAs?$AA?2@ 100a1690     libucrtd:new_mode.obj
 0002:0001b6f4       ??_C@_1BM@PDPAKJNF@?$AA_?$AAs?$AAe?$AAt?$AA_?$AAn?$AAe?$AAw?$AA_?$AAm?$AAo?$AAd?$AAe@ 100a16f4     libucrtd:new_mode.obj
 0002:0001b710       ??_C@_1CE@BLLJFLOH@?$AAs?$AAt?$AAr?$AAi?$AAn?$AAg?$AA?5?$AA?$CB?$AA?$DN?$AA?5?$AAn?$AAu?$AAl?$AAl?$AAp@ 100a1710     libucrtd:mbsdec.obj
 0002:0001b738       ??_C@_1GO@DDOMFNGF@?$AAm?$AAi?$AAn?$AAk?$AAe?$AAr?$AAn?$AAe?$AAl?$AA?2?$AAc?$AAr?$AAt?$AAs?$AA?2@ 100a1738     libucrtd:mbsdec.obj
 0002:0001b7a8       ??_C@_1BE@KLNCOLCD@?$AA_?$AAm?$AAb?$AAs?$AAd?$AAe?$AAc?$AA_?$AAl@ 100a17a8     libucrtd:mbsdec.obj
 0002:0001b7bc       ??_C@_1CG@CMGPGAOD@?$AAc?$AAu?$AAr?$AAr?$AAe?$AAn?$AAt?$AA?5?$AA?$CB?$AA?$DN?$AA?5?$AAn?$AAu?$AAl?$AAl@ 100a17bc     libucrtd:mbsdec.obj
 0002:0001b7e8       ??_C@_1IC@DCNEKBE@?$AAm?$AAi?$AAn?$AAk?$AAe?$AAr?$AAn?$AAe?$AAl?$AA?2?$AAc?$AAr?$AAt?$AAs?$AA?2@ 100a17e8     libucrtd:report_runtime_error.obj
 0002:0001b86c       ??_C@_1DI@BLFJHKKP@?$AA_?$AA_?$AAa?$AAc?$AAr?$AAt?$AA_?$AAr?$AAe?$AAp?$AAo?$AAr?$AAt?$AA_?$AAr@ 100a186c     libucrtd:report_runtime_error.obj
 0002:0001b8a8       ??_C@_1LE@MHPGJGKE@?$AAw?$AAc?$AAs?$AAc?$AAp?$AAy?$AA_?$AAs?$AA?$CI?$AAo?$AAu?$AAt?$AAm?$AAs?$AAg@ 100a18a8     libucrtd:report_runtime_error.obj
 0002:0001b95c       ??_C@_1DE@JNGNBFGO@?$AAR?$AAu?$AAn?$AAt?$AAi?$AAm?$AAe?$AA?5?$AAE?$AAr?$AAr?$AAo?$AAr?$AA?$CB?$AA?6@ 100a195c     libucrtd:report_runtime_error.obj
 0002:0001b990       ??_C@_1HK@FJJNAABO@?$AAw?$AAc?$AAs?$AAc?$AAp?$AAy?$AA_?$AAs?$AA?$CI?$AAp?$AAr?$AAo?$AAg?$AAn?$AAa@ 100a1990     libucrtd:report_runtime_error.obj
 0002:0001ba10       ??_C@_1HI@FLHKGEBE@?$AAw?$AAc?$AAs?$AAn?$AAc?$AAp?$AAy?$AA_?$AAs?$AA?$CI?$AAp?$AAc?$AAh?$AA?0?$AA?5@ 100a1a10     libucrtd:report_runtime_error.obj
 0002:0001ba88       ??_C@_1IG@MNNKBLBI@?$AAw?$AAc?$AAs?$AAc?$AAa?$AAt?$AA_?$AAs?$AA?$CI?$AAo?$AAu?$AAt?$AAm?$AAs?$AAg@ 100a1a88     libucrtd:report_runtime_error.obj
 0002:0001bb10       ??_C@_1IG@DFBBBDAN@?$AAw?$AAc?$AAs?$AAc?$AAa?$AAt?$AA_?$AAs?$AA?$CI?$AAo?$AAu?$AAt?$AAm?$AAs?$AAg@ 100a1b10     libucrtd:report_runtime_error.obj
 0002:0001bb98       ??_C@_1CE@MCCHPLBM@?$AAb?$AAu?$AAf?$AAf?$AAe?$AAr?$AA?5?$AA?$CB?$AA?$DN?$AA?5?$AAn?$AAu?$AAl?$AAl?$AAp@ 100a1b98     libucrtd:xtoa.obj
 0002:0001bbc0       ??_C@_1GA@HBEFGMHK@?$AAm?$AAi?$AAn?$AAk?$AAe?$AAr?$AAn?$AAe?$AAl?$AA?2?$AAc?$AAr?$AAt?$AAs?$AA?2@ 100a1bc0     libucrtd:xtoa.obj
 0002:0001bc20       ??_C@_1BM@HMPEMLNP@?$AAc?$AAo?$AAm?$AAm?$AAo?$AAn?$AA_?$AAx?$AAt?$AAo?$AAx?$AA_?$AAs@ 100a1c20     libucrtd:xtoa.obj
 0002:0001bc3c       ??_C@_1CC@ONIJBMJF@?$AAb?$AAu?$AAf?$AAf?$AAe?$AAr?$AA_?$AAc?$AAo?$AAu?$AAn?$AAt?$AA?5?$AA?$DO?$AA?5@ 100a1c3c     libucrtd:xtoa.obj
 0002:0001bc60       ??_C@_1HA@JFIOFNKD@?$AAb?$AAu?$AAf?$AAf?$AAe?$AAr?$AA_?$AAc?$AAo?$AAu?$AAn?$AAt?$AA?5?$AA?$DO?$AA?5@ 100a1c60     libucrtd:xtoa.obj
 0002:0001bcd0       ??_C@_1DE@PCJGDBBD@?$AA2?$AA?5?$AA?$DM?$AA?$DN?$AA?5?$AAr?$AAa?$AAd?$AAi?$AAx?$AA?5?$AA?$CG?$AA?$CG?$AA?5?$AAr@ 100a1cd0     libucrtd:xtoa.obj
 0002:0001bd04       ??_C@_1CM@LONILNIJ@?$AAl?$AAe?$AAn?$AAg?$AAt?$AAh?$AA?5?$AA?$DM?$AA?5?$AAb?$AAu?$AAf?$AAf?$AAe?$AAr@ 100a1d04     libucrtd:xtoa.obj
 0002:0001bd30       ??_C@_1BI@OLPLFKOE@?$AAc?$AAo?$AAm?$AAm?$AAo?$AAn?$AA_?$AAx?$AAt?$AAo?$AAx@ 100a1d30     libucrtd:xtoa.obj
 0002:0001bd48       ??_C@_1BK@FPAMLIDG@?$AAs?$AA?5?$AA?$CB?$AA?$DN?$AA?5?$AAn?$AAu?$AAl?$AAl?$AAp?$AAt?$AAr@ 100a1d48     libucrtd:mbstowcs.obj
 0002:0001bd68       ??_C@_1GI@KABMHNPH@?$AAm?$AAi?$AAn?$AAk?$AAe?$AAr?$AAn?$AAe?$AAl?$AA?2?$AAc?$AAr?$AAt?$AAs?$AA?2@ 100a1d68     libucrtd:mbstowcs.obj
 0002:0001bdd0       ??_C@_1CG@JEHFHLNG@?$AA_?$AAm?$AAb?$AAs?$AAt?$AAo?$AAw?$AAc?$AAs?$AA_?$AAl?$AA_?$AAh?$AAe?$AAl@ 100a1dd0     libucrtd:mbstowcs.obj
 0002:0001bdf8       ??_C@_1JM@MEKBACIG@?$AA?$CI?$AAp?$AAw?$AAc?$AAs?$AA?5?$AA?$DN?$AA?$DN?$AA?5?$AAn?$AAu?$AAl?$AAl?$AAp?$AAt@ 100a1df8     libucrtd:mbstowcs.obj
 0002:0001be94       ??_C@_1BM@PHENIGHD@?$AA_?$AAm?$AAb?$AAs?$AAt?$AAo?$AAw?$AAc?$AAs?$AA_?$AAs?$AA_?$AAl@ 100a1e94     libucrtd:mbstowcs.obj
 0002:0001beb0       ??_C@_1CM@LLECFMFH@?$AAb?$AAu?$AAf?$AAf?$AAe?$AAr?$AAS?$AAi?$AAz?$AAe?$AA?5?$AA?$DM?$AA?$DN?$AA?5?$AAI@ 100a1eb0     libucrtd:mbstowcs.obj
 0002:0001bedc       ??_C@_1CO@JNPEPJAL@?$AAr?$AAe?$AAt?$AAs?$AAi?$AAz?$AAe?$AA?5?$AA?$DM?$AA?$DN?$AA?5?$AAs?$AAi?$AAz?$AAe@ 100a1edc     libucrtd:mbstowcs.obj
 0002:0001bf0c       ??_C@_1CA@NOKNKDIG@?$AAp?$AAw?$AAc?$AAs?$AA?5?$AA?$CB?$AA?$DN?$AA?5?$AAn?$AAu?$AAl?$AAl?$AAp?$AAt?$AAr@ 100a1f0c     libucrtd:wcstombs.obj
 0002:0001bf30       ??_C@_1GI@EEJDEALP@?$AAm?$AAi?$AAn?$AAk?$AAe?$AAr?$AAn?$AAe?$AAl?$AA?2?$AAc?$AAr?$AAt?$AAs?$AA?2@ 100a1f30     libucrtd:wcstombs.obj
 0002:0001bf98       ??_C@_1CG@LLJCAOHF@?$AA_?$AAw?$AAc?$AAs?$AAt?$AAo?$AAm?$AAb?$AAs?$AA_?$AAl?$AA_?$AAh?$AAe?$AAl@ 100a1f98     libucrtd:wcstombs.obj
 0002:0001bfc0       ??_C@_1JI@DFNKFCLG@?$AA?$CI?$AAd?$AAs?$AAt?$AA?5?$AA?$CB?$AA?$DN?$AA?5?$AAn?$AAu?$AAl?$AAl?$AAp?$AAt?$AAr@ 100a1fc0     libucrtd:wcstombs.obj
 0002:0001c058       ??_C@_1BM@BDMCLLDL@?$AA_?$AAw?$AAc?$AAs?$AAt?$AAo?$AAm?$AAb?$AAs?$AA_?$AAs?$AA_?$AAl@ 100a2058     libucrtd:wcstombs.obj
 0002:0001c074       ??_C@_1CM@KEOGBFLI@?$AAs?$AAi?$AAz?$AAe?$AAI?$AAn?$AAB?$AAy?$AAt?$AAe?$AAs?$AA?5?$AA?$DO?$AA?5?$AAr@ 100a2074     libucrtd:wcstombs.obj
 0002:0001c0a0       ??_C@_1CC@HOFKGKIJ@?$AAp?$AAm?$AAb?$AAs?$AAt?$AA?5?$AA?$CB?$AA?$DN?$AA?5?$AAn?$AAu?$AAl?$AAl?$AAp?$AAt@ 100a20a0     libucrtd:mbrtowc.obj
 0002:0001c0c8       ??_C@_1GG@MCCIENJO@?$AAm?$AAi?$AAn?$AAk?$AAe?$AAr?$AAn?$AAe?$AAl?$AA?2?$AAc?$AAr?$AAt?$AAs?$AA?2@ 100a20c8     libucrtd:mbrtowc.obj
 0002:0001c130       ??_C@_1GC@GKDIDINO@?$AAl?$AAo?$AAc?$AAa?$AAl?$AAe?$AA_?$AAm?$AAb?$AA_?$AAc?$AAu?$AAr?$AA_?$AAm@ 100a2130     libucrtd:mbrtowc.obj
 0002:0001c194       ??_C@_1BM@DAAPEENN@?$AAp?$AAs?$AA?5?$AA?$CB?$AA?$DN?$AA?5?$AAn?$AAu?$AAl?$AAl?$AAp?$AAt?$AAr@ 100a2194     libucrtd:mbrtowc.obj
 0002:0001c1b0       ??_C@_1CE@GMDJEGCL@?$AA_?$AAm?$AAb?$AAs?$AAr?$AAt?$AAo?$AAw?$AAc?$AAs?$AA_?$AAh?$AAe?$AAl?$AAp@ 100a21b0     libucrtd:mbrtowc.obj
 0002:0001c1d8       ??_C@_1JI@OGEJMCOI@?$AA?$CI?$AAd?$AAs?$AAt?$AA?5?$AA?$DN?$AA?$DN?$AA?5?$AAn?$AAu?$AAl?$AAl?$AAp?$AAt?$AAr@ 100a21d8     libucrtd:mbrtowc.obj
 0002:0001c270       ??_C@_1BI@GDNNFHAB@?$AAm?$AAb?$AAs?$AAr?$AAt?$AAo?$AAw?$AAc?$AAs?$AA_?$AAs@ 100a2270     libucrtd:mbrtowc.obj
 0002:0001c288       ??_C@_1CO@EPBLOHBA@?$AAs?$AAi?$AAz?$AAe?$AAI?$AAn?$AAW?$AAo?$AAr?$AAd?$AAs?$AA?5?$AA?$DM?$AA?$DN?$AA?5@ 100a2288     libucrtd:mbrtowc.obj
 0002:0001c2b8       ??_C@_1EK@MCEFBPIK@?$AAr?$AAe?$AAt?$AAv?$AAa?$AAl?$AA?5?$AA?$CB?$AA?$DN?$AA?5?$AA_?$AA_?$AAc?$AAr?$AAt@ 100a22b8     libucrtd:mbrtowc.obj
 0002:0001c304       ??_C@_0DE@PKCHMIOF@minkernel?2crts?2ucrt?2src?2appcrt?2@ 100a2304     libucrtd:initctype.obj
 0002:0001c338       ??_C@_1GI@DPHPBMAL@?$AAm?$AAi?$AAn?$AAk?$AAe?$AAr?$AAn?$AAe?$AAl?$AA?2?$AAc?$AAr?$AAt?$AAs?$AA?2@ 100a2338     libucrtd:initctype.obj
 0002:0001c3a0       ??_C@_1DG@NMBGBDM@?$AAp?$AAl?$AAo?$AAc?$AAi?$AA?9?$AA?$DO?$AAc?$AAt?$AAy?$AAp?$AAe?$AA1?$AA_?$AAr@ 100a23a0     libucrtd:initctype.obj
 0002:0001c3d8       ??_C@_1EK@OANGPA@?$AA1?$AA?5?$AA?$DM?$AA?$DN?$AA?5?$AAt?$AAr?$AAa?$AAi?$AAl?$AA_?$AAb?$AAy?$AAt?$AAe@ 100a23d8     libucrtd:c32rtomb.obj
 0002:0001c428       ??_C@_1GI@FBFKMNDD@?$AAm?$AAi?$AAn?$AAk?$AAe?$AAr?$AAn?$AAe?$AAl?$AA?2?$AAc?$AAr?$AAt?$AAs?$AA?2@ 100a2428     libucrtd:c32rtomb.obj
 0002:0001c490       ??_C@_1EA@DDDCIHI@?$AAc?$AA3?$AA2?$AA?5?$AA?$DM?$AA?5?$AA?$CI?$AA1?$AAu?$AA?5?$AA?$DM?$AA?$DM?$AA?5?$AA?$CI?$AA7@ 100a2490     libucrtd:c32rtomb.obj
 0002:0001c4d0       ??_C@_1BKC@NBNHJIDM@?$AA?$CI?$AAp?$AAt?$AAl?$AAo?$AAc?$AAi?$AA?9?$AA?$DO?$AAl?$AAc?$AA_?$AAc?$AAa?$AAt@ 100a24d0     libucrtd:locale_refcounting.obj
 0002:0001c678       ??_C@_1HK@HCNMEOLA@?$AAm?$AAi?$AAn?$AAk?$AAe?$AAr?$AAn?$AAe?$AAl?$AA?2?$AAc?$AAr?$AAt?$AAs?$AA?2@ 100a2678     libucrtd:locale_refcounting.obj
 0002:0001c6f8       ??_C@_1GI@IMEEHIAK@?$AAm?$AAi?$AAn?$AAk?$AAe?$AAr?$AAn?$AAe?$AAl?$AA?2?$AAc?$AAr?$AAt?$AAs?$AA?2@ 100a26f8     libucrtd:_fptostr.obj
 0002:0001c760       ??_C@_1DG@NMGBKPMI@?$AA_?$AA_?$AAa?$AAc?$AAr?$AAt?$AA_?$AAf?$AAp?$AA_?$AAs?$AAt?$AAr?$AAf?$AAl@ 100a2760     libucrtd:_fptostr.obj
 0002:0001c798       ??_C@_1IE@EAOKIIFP@?$AAb?$AAu?$AAf?$AAf?$AAe?$AAr?$AA_?$AAc?$AAo?$AAu?$AAn?$AAt?$AA?5?$AA?$DO?$AA?5@ 100a2798     libucrtd:_fptostr.obj
 0002:0001c81c       ??_C@_1CA@EDEEBMBB@?$AAp?$AAf?$AAl?$AAt?$AA?5?$AA?$CB?$AA?$DN?$AA?5?$AAn?$AAu?$AAl?$AAl?$AAp?$AAt?$AAr@ 100a281c     libucrtd:_fptostr.obj
 0002:0001c840       ?large_power_data@?1??multiply_by_power_of_ten@__crt_strtox@@YA_NAAUbig_integer@2@I@Z@4QBIB 100a2840     libucrtd:cfout.obj
 0002:0001d1e0       ?small_powers_of_ten@?1??multiply_by_power_of_ten@__crt_strtox@@YA_NAAUbig_integer@2@I@Z@4QBIB 100a31e0     libucrtd:cfout.obj
 0002:0001d204       ??_C@_1DI@GICAMMFM@?$AA?$CI?$AA?$CC?$AAD?$AAi?$AAv?$AAi?$AAs?$AAi?$AAo?$AAn?$AA?5?$AAb?$AAy?$AA?5?$AAz@ 100a3204     libucrtd:cfout.obj
 0002:0001d240       ??_C@_1GO@BFGDDONN@?$AAm?$AAi?$AAn?$AAk?$AAe?$AAr?$AAn?$AAe?$AAl?$AA?2?$AAc?$AAr?$AAt?$AAs?$AA?2@ 100a3240     libucrtd:cfout.obj
 0002:0001d2b0       ??_C@_1GC@DDAKNBNC@?$AAm?$AAi?$AAn?$AAk?$AAe?$AAr?$AAn?$AAe?$AAl?$AA?2?$AAc?$AAr?$AAt?$AAs?$AA?2@ 100a32b0     libucrtd:cfout.obj
 0002:0001d314       ??_C@_1BM@FAAOAKKO@?$AA_?$AA_?$AAa?$AAc?$AAr?$AAt?$AA_?$AAf?$AAl?$AAt?$AAo?$AAu?$AAt@ 100a3314     libucrtd:cfout.obj
 0002:0001d330       ??_C@_1EI@OACEJKEP@?$AAs?$AAt?$AAr?$AAc?$AAp?$AAy?$AA_?$AAs?$AA?$CI?$AAr?$AAe?$AAs?$AAu?$AAl?$AAt@ 100a3330     libucrtd:cfout.obj
 0002:0001d378       ??_C@_01GBGANLPD@0@        100a3378     libucrtd:cfout.obj
 0002:0001d380       ??_C@_1FC@KIECGFMP@?$AAs?$AAt?$AAr?$AAc?$AAp?$AAy?$AA_?$AAs?$AA?$CI?$AAr?$AAe?$AAs?$AAu?$AAl?$AAt@ 100a3380     libucrtd:cfout.obj
 0002:0001d3d4       ??_C@_05DNEBIAHO@1?$CDINF@ 100a33d4     libucrtd:cfout.obj
 0002:0001d3e0       ??_C@_1FC@NFPJEIBD@?$AAs?$AAt?$AAr?$AAc?$AAp?$AAy?$AA_?$AAs?$AA?$CI?$AAr?$AAe?$AAs?$AAu?$AAl?$AAt@ 100a33e0     libucrtd:cfout.obj
 0002:0001d434       ??_C@_06IMKFLFPG@1?$CDQNAN@ 100a3434     libucrtd:cfout.obj
 0002:0001d440       ??_C@_1FC@DEJHIMLO@?$AAs?$AAt?$AAr?$AAc?$AAp?$AAy?$AA_?$AAs?$AA?$CI?$AAr?$AAe?$AAs?$AAu?$AAl?$AAt@ 100a3440     libucrtd:cfout.obj
 0002:0001d494       ??_C@_06PGGFOGJG@1?$CDSNAN@ 100a3494     libucrtd:cfout.obj
 0002:0001d4a0       ??_C@_1FC@KMLHLFPC@?$AAs?$AAt?$AAr?$AAc?$AAp?$AAy?$AA_?$AAs?$AA?$CI?$AAr?$AAe?$AAs?$AAu?$AAl?$AAt@ 100a34a0     libucrtd:cfout.obj
 0002:0001d4f4       ??_C@_05PHHOCPM@1?$CDIND@  100a34f4     libucrtd:cfout.obj
 0002:0001d4fc       ??_C@_1DE@KHKADFOO@?$AAm?$AAa?$AAn?$AAt?$AAi?$AAs?$AAs?$AAa?$AA_?$AAb?$AAu?$AAf?$AAf?$AAe?$AAr@ 100a34fc     libucrtd:cfout.obj
 0002:0001d530       ??_C@_1FI@LFKLOPAC@?$AA?$CI?$AA?$CC?$AAu?$AAn?$AAe?$AAx?$AAp?$AAe?$AAc?$AAt?$AAe?$AAd?$AA?5?$AAi?$AAn@ 100a3530     libucrtd:cfout.obj
 0002:0001d588       ??_C@_1FG@MLHBDPBG@?$AAq?$AAu?$AAo?$AAt?$AAi?$AAe?$AAn?$AAt?$AA?5?$AA?$DM?$AA?5?$AAd?$AAi?$AAg?$AAi@ 100a3588     libucrtd:cfout.obj
 0002:0001d5e0       ??_C@_1GC@DFIGBGJI@?$AAm?$AAi?$AAn?$AAk?$AAe?$AAr?$AAn?$AAe?$AAl?$AA?2?$AAc?$AAr?$AAt?$AAs?$AA?2@ 100a35e0     libucrtd:_flsbuf.obj
 0002:0001d648       ??_C@_1HO@MLMGPAFH@?$AA?$CI?$AA?$CC?$AAi?$AAn?$AAc?$AAo?$AAn?$AAs?$AAi?$AAs?$AAt?$AAe?$AAn?$AAt?$AA?5@ 100a3648     libucrtd:_flsbuf.obj
 0002:0001d6c8       ??_C@_1GE@GPOPIOIG@?$AAm?$AAi?$AAn?$AAk?$AAe?$AAr?$AAn?$AAe?$AAl?$AA?2?$AAc?$AAr?$AAt?$AAs?$AA?2@ 100a36c8     libucrtd:_freebuf.obj
 0002:0001d730       ??_C@_1FO@LPCLHKGE@?$AA?$CI?$AAf?$AAh?$AA?5?$AA?$DO?$AA?$DN?$AA?5?$AA0?$AA?5?$AA?$CG?$AA?$CG?$AA?5?$AA?$CI?$AAu?$AAn@ 100a3730     libucrtd:isatty.obj
 0002:0001d790       ??_C@_1GA@DEPMKPD@?$AAm?$AAi?$AAn?$AAk?$AAe?$AAr?$AAn?$AAe?$AAl?$AA?2?$AAc?$AAr?$AAt?$AAs?$AA?2@ 100a3790     libucrtd:isatty.obj
 0002:0001d7f0       ??_C@_1BA@LEBDGIHM@?$AA_?$AAi?$AAs?$AAa?$AAt?$AAt?$AAy@ 100a37f0     libucrtd:isatty.obj
 0002:0001d800       ??_C@_0DC@GMDOHFAP@minkernel?2crts?2ucrt?2src?2appcrt?2@ 100a3800     libucrtd:initmon.obj
 0002:0001d834       ??_C@_1DM@GKAPAMDO@?$AAp?$AAl?$AAo?$AAc?$AAi?$AA?9?$AA?$DO?$AAl?$AAc?$AAo?$AAn?$AAv?$AA_?$AAm?$AAo@ 100a3834     libucrtd:initmon.obj
 0002:0001d870       ??_C@_1GE@IEFGCKMH@?$AAm?$AAi?$AAn?$AAk?$AAe?$AAr?$AAn?$AAe?$AAl?$AA?2?$AAc?$AAr?$AAt?$AAs?$AA?2@ 100a3870     libucrtd:initmon.obj
 0002:0001d8d4       ??_C@_0DC@KHILMDMC@minkernel?2crts?2ucrt?2src?2appcrt?2@ 100a38d4     libucrtd:initnum.obj
 0002:0001d908       ??_C@_1DM@IFKAINNE@?$AAp?$AAl?$AAo?$AAc?$AAi?$AA?9?$AA?$DO?$AAl?$AAc?$AAo?$AAn?$AAv?$AA_?$AAn?$AAu@ 100a3908     libucrtd:initnum.obj
 0002:0001d948       ??_C@_1GE@GOIFKKDC@?$AAm?$AAi?$AAn?$AAk?$AAe?$AAr?$AAn?$AAe?$AAl?$AA?2?$AAc?$AAr?$AAt?$AAs?$AA?2@ 100a3948     libucrtd:initnum.obj
 0002:0001d9ac       ??_C@_0DD@MPFICDAE@minkernel?2crts?2ucrt?2src?2appcrt?2@ 100a39ac     libucrtd:inittime.obj
 0002:0001d9e0       ??_C@_1HK@HACABKKK@?$AA?$CI?$AA?$CC?$AAl?$AAc?$AA_?$AAt?$AAi?$AAm?$AAe?$AA_?$AAc?$AAu?$AAr?$AAr?$AA?5@ 100a39e0     libucrtd:inittime.obj
 0002:0001da60       ??_C@_1GG@BFOOANHJ@?$AAm?$AAi?$AAn?$AAk?$AAe?$AAr?$AAn?$AAe?$AAl?$AA?2?$AAc?$AAr?$AAt?$AAs?$AA?2@ 100a3a60     libucrtd:inittime.obj
 0002:0001dac8       ___newctype                100a3ac8     libucrtd:ctype.obj
 0002:0001ddc8       ___newclmap                100a3dc8     libucrtd:ctype.obj
 0002:0001df48       ___newcumap                100a3f48     libucrtd:ctype.obj
 0002:0001e0c8       __wctype                   100a40c8     libucrtd:ctype.obj
 0002:0001e2cc       ??_C@_1CC@HELMJGIF@?$AAc?$AAo?$AAm?$AAm?$AAo?$AAn?$AA_?$AAt?$AAc?$AAs?$AAn?$AAc?$AAa?$AAt?$AA_@ 100a42cc     libucrtd:wcsncat_s.obj
 0002:0001e2f0       ??_C@_1FE@KNPCCODH@?$AA?$CI?$AA?$CC?$AAC?$AAo?$AAr?$AAr?$AAu?$AAp?$AAt?$AAe?$AAd?$AA?5?$AAp?$AAo?$AAi@ 100a42f0     libucrtd:getstringtypea.obj
 0002:0001e348       ??_C@_1EM@NOKMBKND@?$AAv?$AAc?$AAc?$AAr?$AAt?$AA?2?$AAv?$AAc?$AAr?$AAu?$AAn?$AAt?$AAi?$AAm?$AAe@ 100a4348     libucrtd:getstringtypea.obj
 0002:0001e394       ??_C@_0DJ@HCPJODDK@minkernel?2crts?2ucrt?2src?2appcrt?2@ 100a4394     libucrtd:getstringtypea.obj
 0002:0001e3d0       ___acrt_rg_language        100a43d0     libucrtd:get_qualified_locale.obj
 0002:0001e6dc       ___acrt_rg_language_count  100a46dc     libucrtd:get_qualified_locale.obj
 0002:0001e6e0       ___acrt_rg_country         100a46e0     libucrtd:get_qualified_locale.obj
 0002:0001e7f4       ___acrt_rg_country_count   100a47f4     libucrtd:get_qualified_locale.obj
 0002:0001e7f8       ??_C@_1BC@LLOKLNP@?$AAa?$AAm?$AAe?$AAr?$AAi?$AAc?$AAa?$AAn@ 100a47f8     libucrtd:get_qualified_locale.obj
 0002:0001e80c       ??_C@_1CC@HEIGCDGG@?$AAa?$AAm?$AAe?$AAr?$AAi?$AAc?$AAa?$AAn?$AA?5?$AAe?$AAn?$AAg?$AAl?$AAi?$AAs@ 100a480c     libucrtd:get_qualified_locale.obj
 0002:0001e830       ??_C@_1CC@IHCNOMIN@?$AAa?$AAm?$AAe?$AAr?$AAi?$AAc?$AAa?$AAn?$AA?9?$AAe?$AAn?$AAg?$AAl?$AAi?$AAs@ 100a4830     libucrtd:get_qualified_locale.obj
 0002:0001e854       ??_C@_1BG@GKAGPCGG@?$AAa?$AAu?$AAs?$AAt?$AAr?$AAa?$AAl?$AAi?$AAa?$AAn@ 100a4854     libucrtd:get_qualified_locale.obj
 0002:0001e86c       ??_C@_1BA@GMENCENF@?$AAb?$AAe?$AAl?$AAg?$AAi?$AAa?$AAn@ 100a486c     libucrtd:get_qualified_locale.obj
 0002:0001e87c       ??_C@_1BC@PJMIIAAN@?$AAc?$AAa?$AAn?$AAa?$AAd?$AAi?$AAa?$AAn@ 100a487c     libucrtd:get_qualified_locale.obj
 0002:0001e890       ??_C@_17NOIMNFBF@?$AAc?$AAh?$AAh@ 100a4890     libucrtd:get_qualified_locale.obj
 0002:0001e898       ??_C@_17GGDALCHA@?$AAc?$AAh?$AAi@ 100a4898     libucrtd:get_qualified_locale.obj
 0002:0001e8a0       ??_C@_1BA@NPNJKIBL@?$AAc?$AAh?$AAi?$AAn?$AAe?$AAs?$AAe@ 100a48a0     libucrtd:get_qualified_locale.obj
 0002:0001e8b0       ??_C@_1CC@DINBAMMJ@?$AAc?$AAh?$AAi?$AAn?$AAe?$AAs?$AAe?$AA?9?$AAh?$AAo?$AAn?$AAg?$AAk?$AAo?$AAn@ 100a48b0     libucrtd:get_qualified_locale.obj
 0002:0001e8d4       ??_C@_1CG@IOBJPACO@?$AAc?$AAh?$AAi?$AAn?$AAe?$AAs?$AAe?$AA?9?$AAs?$AAi?$AAm?$AAp?$AAl?$AAi?$AAf@ 100a48d4     libucrtd:get_qualified_locale.obj
 0002:0001e8fc       ??_C@_1CE@GAJNDCKG@?$AAc?$AAh?$AAi?$AAn?$AAe?$AAs?$AAe?$AA?9?$AAs?$AAi?$AAn?$AAg?$AAa?$AAp?$AAo@ 100a48fc     libucrtd:get_qualified_locale.obj
 0002:0001e920       ??_C@_1CI@PAJPIOOD@?$AAc?$AAh?$AAi?$AAn?$AAe?$AAs?$AAe?$AA?9?$AAt?$AAr?$AAa?$AAd?$AAi?$AAt?$AAi@ 100a4920     libucrtd:get_qualified_locale.obj
 0002:0001e948       ??_C@_1BM@NILJBMMD@?$AAd?$AAu?$AAt?$AAc?$AAh?$AA?9?$AAb?$AAe?$AAl?$AAg?$AAi?$AAa?$AAn@ 100a4948     libucrtd:get_qualified_locale.obj
 0002:0001e964       ??_C@_1CC@OOJPJNEJ@?$AAe?$AAn?$AAg?$AAl?$AAi?$AAs?$AAh?$AA?9?$AAa?$AAm?$AAe?$AAr?$AAi?$AAc?$AAa@ 100a4964     libucrtd:get_qualified_locale.obj
 0002:0001e988       ??_C@_1BI@IOLFEEM@?$AAe?$AAn?$AAg?$AAl?$AAi?$AAs?$AAh?$AA?9?$AAa?$AAu?$AAs@ 100a4988     libucrtd:get_qualified_locale.obj
 0002:0001e9a0       ??_C@_1BO@HFFNLENJ@?$AAe?$AAn?$AAg?$AAl?$AAi?$AAs?$AAh?$AA?9?$AAb?$AAe?$AAl?$AAi?$AAz?$AAe@ 100a49a0     libucrtd:get_qualified_locale.obj
 0002:0001e9c0       ??_C@_1BI@HAPKJMPO@?$AAe?$AAn?$AAg?$AAl?$AAi?$AAs?$AAh?$AA?9?$AAc?$AAa?$AAn@ 100a49c0     libucrtd:get_qualified_locale.obj
 0002:0001e9d8       ??_C@_1CE@HLNDMIOJ@?$AAe?$AAn?$AAg?$AAl?$AAi?$AAs?$AAh?$AA?9?$AAc?$AAa?$AAr?$AAi?$AAb?$AAb?$AAe@ 100a49d8     libucrtd:get_qualified_locale.obj
 0002:0001e9fc       ??_C@_1BI@LDHJHHAC@?$AAe?$AAn?$AAg?$AAl?$AAi?$AAs?$AAh?$AA?9?$AAi?$AAr?$AAe@ 100a49fc     libucrtd:get_qualified_locale.obj
 0002:0001ea14       ??_C@_1CA@NJMMCFOC@?$AAe?$AAn?$AAg?$AAl?$AAi?$AAs?$AAh?$AA?9?$AAj?$AAa?$AAm?$AAa?$AAi?$AAc?$AAa@ 100a4a14     libucrtd:get_qualified_locale.obj
 0002:0001ea34       ??_C@_1BG@BHJEBBGG@?$AAe?$AAn?$AAg?$AAl?$AAi?$AAs?$AAh?$AA?9?$AAn?$AAz@ 100a4a34     libucrtd:get_qualified_locale.obj
 0002:0001ea4c       ??_C@_1CK@FGOEJJCO@?$AAe?$AAn?$AAg?$AAl?$AAi?$AAs?$AAh?$AA?9?$AAs?$AAo?$AAu?$AAt?$AAh?$AA?5?$AAa@ 100a4a4c     libucrtd:get_qualified_locale.obj
 0002:0001ea78       ??_C@_1DE@PDBJPCJ@?$AAe?$AAn?$AAg?$AAl?$AAi?$AAs?$AAh?$AA?9?$AAt?$AAr?$AAi?$AAn?$AAi?$AAd?$AAa@ 100a4a78     libucrtd:get_qualified_locale.obj
 0002:0001eaac       ??_C@_1BG@JGCANDME@?$AAe?$AAn?$AAg?$AAl?$AAi?$AAs?$AAh?$AA?9?$AAu?$AAk@ 100a4aac     libucrtd:get_qualified_locale.obj
 0002:0001eac4       ??_C@_1BG@DINKMLE@?$AAe?$AAn?$AAg?$AAl?$AAi?$AAs?$AAh?$AA?9?$AAu?$AAs@ 100a4ac4     libucrtd:get_qualified_locale.obj
 0002:0001eadc       ??_C@_1BI@NMFDBHJE@?$AAe?$AAn?$AAg?$AAl?$AAi?$AAs?$AAh?$AA?9?$AAu?$AAs?$AAa@ 100a4adc     libucrtd:get_qualified_locale.obj
 0002:0001eaf4       ??_C@_1BO@OIHKJKII@?$AAf?$AAr?$AAe?$AAn?$AAc?$AAh?$AA?9?$AAb?$AAe?$AAl?$AAg?$AAi?$AAa?$AAn@ 100a4af4     libucrtd:get_qualified_locale.obj
 0002:0001eb14       ??_C@_1CA@NKAELJKI@?$AAf?$AAr?$AAe?$AAn?$AAc?$AAh?$AA?9?$AAc?$AAa?$AAn?$AAa?$AAd?$AAi?$AAa?$AAn@ 100a4b14     libucrtd:get_qualified_locale.obj
 0002:0001eb34       ??_C@_1CE@MGKCNLGN@?$AAf?$AAr?$AAe?$AAn?$AAc?$AAh?$AA?9?$AAl?$AAu?$AAx?$AAe?$AAm?$AAb?$AAo?$AAu@ 100a4b34     libucrtd:get_qualified_locale.obj
 0002:0001eb58       ??_C@_1BK@CEGEAILM@?$AAf?$AAr?$AAe?$AAn?$AAc?$AAh?$AA?9?$AAs?$AAw?$AAi?$AAs?$AAs@ 100a4b58     libucrtd:get_qualified_locale.obj
 0002:0001eb74       ??_C@_1CA@PAFKEOCC@?$AAg?$AAe?$AAr?$AAm?$AAa?$AAn?$AA?9?$AAa?$AAu?$AAs?$AAt?$AAr?$AAi?$AAa?$AAn@ 100a4b74     libucrtd:get_qualified_locale.obj
 0002:0001eb94       ??_C@_1CI@HCFHGOFD@?$AAg?$AAe?$AAr?$AAm?$AAa?$AAn?$AA?9?$AAl?$AAi?$AAc?$AAh?$AAt?$AAe?$AAn?$AAs@ 100a4b94     libucrtd:get_qualified_locale.obj
 0002:0001ebbc       ??_C@_1CE@FEDDNPDG@?$AAg?$AAe?$AAr?$AAm?$AAa?$AAn?$AA?9?$AAl?$AAu?$AAx?$AAe?$AAm?$AAb?$AAo?$AAu@ 100a4bbc     libucrtd:get_qualified_locale.obj
 0002:0001ebe0       ??_C@_1BK@LIMINNMN@?$AAg?$AAe?$AAr?$AAm?$AAa?$AAn?$AA?9?$AAs?$AAw?$AAi?$AAs?$AAs@ 100a4be0     libucrtd:get_qualified_locale.obj
 0002:0001ebfc       ??_C@_1BM@LGMDBEPD@?$AAi?$AAr?$AAi?$AAs?$AAh?$AA?9?$AAe?$AAn?$AAg?$AAl?$AAi?$AAs?$AAh@ 100a4bfc     libucrtd:get_qualified_locale.obj
 0002:0001ec18       ??_C@_1BM@NNCFBAEE@?$AAi?$AAt?$AAa?$AAl?$AAi?$AAa?$AAn?$AA?9?$AAs?$AAw?$AAi?$AAs?$AAs@ 100a4c18     libucrtd:get_qualified_locale.obj
 0002:0001ec34       ??_C@_1BE@FEDJNPIB@?$AAn?$AAo?$AAr?$AAw?$AAe?$AAg?$AAi?$AAa?$AAn@ 100a4c34     libucrtd:get_qualified_locale.obj
 0002:0001ec48       ??_C@_1CC@CILKDEIE@?$AAn?$AAo?$AAr?$AAw?$AAe?$AAg?$AAi?$AAa?$AAn?$AA?9?$AAb?$AAo?$AAk?$AAm?$AAa@ 100a4c48     libucrtd:get_qualified_locale.obj
 0002:0001ec6c       ??_C@_1CE@DHMMHEPL@?$AAn?$AAo?$AAr?$AAw?$AAe?$AAg?$AAi?$AAa?$AAn?$AA?9?$AAn?$AAy?$AAn?$AAo?$AAr@ 100a4c6c     libucrtd:get_qualified_locale.obj
 0002:0001ec90       ??_C@_1CK@OPNMHECD@?$AAp?$AAo?$AAr?$AAt?$AAu?$AAg?$AAu?$AAe?$AAs?$AAe?$AA?9?$AAb?$AAr?$AAa?$AAz@ 100a4c90     libucrtd:get_qualified_locale.obj
 0002:0001ecbc       ??_C@_1CE@KEEHCDB@?$AAs?$AAp?$AAa?$AAn?$AAi?$AAs?$AAh?$AA?9?$AAa?$AAr?$AAg?$AAe?$AAn?$AAt?$AAi@ 100a4cbc     libucrtd:get_qualified_locale.obj
 0002:0001ece0       ??_C@_1CA@GIAOLHJD@?$AAs?$AAp?$AAa?$AAn?$AAi?$AAs?$AAh?$AA?9?$AAb?$AAo?$AAl?$AAi?$AAv?$AAi?$AAa@ 100a4ce0     libucrtd:get_qualified_locale.obj
 0002:0001ed00       ??_C@_1BM@OJNDFNPD@?$AAs?$AAp?$AAa?$AAn?$AAi?$AAs?$AAh?$AA?9?$AAc?$AAh?$AAi?$AAl?$AAe@ 100a4d00     libucrtd:get_qualified_locale.obj
 0002:0001ed1c       ??_C@_1CC@OCOLPALL@?$AAs?$AAp?$AAa?$AAn?$AAi?$AAs?$AAh?$AA?9?$AAc?$AAo?$AAl?$AAo?$AAm?$AAb?$AAi@ 100a4d1c     libucrtd:get_qualified_locale.obj
 0002:0001ed40       ??_C@_1CG@BPOFMKBB@?$AAs?$AAp?$AAa?$AAn?$AAi?$AAs?$AAh?$AA?9?$AAc?$AAo?$AAs?$AAt?$AAa?$AA?5?$AAr@ 100a4d40     libucrtd:get_qualified_locale.obj
 0002:0001ed68       ??_C@_1DG@IGOBAPBB@?$AAs?$AAp?$AAa?$AAn?$AAi?$AAs?$AAh?$AA?9?$AAd?$AAo?$AAm?$AAi?$AAn?$AAi?$AAc@ 100a4d68     libucrtd:get_qualified_locale.obj
 0002:0001eda0       ??_C@_1CA@JHAPGEGI@?$AAs?$AAp?$AAa?$AAn?$AAi?$AAs?$AAh?$AA?9?$AAe?$AAc?$AAu?$AAa?$AAd?$AAo?$AAr@ 100a4da0     libucrtd:get_qualified_locale.obj
 0002:0001edc0       ??_C@_1CI@LAPALJPP@?$AAs?$AAp?$AAa?$AAn?$AAi?$AAs?$AAh?$AA?9?$AAe?$AAl?$AA?5?$AAs?$AAa?$AAl?$AAv@ 100a4dc0     libucrtd:get_qualified_locale.obj
 0002:0001ede8       ??_C@_1CE@PDGBOFOM@?$AAs?$AAp?$AAa?$AAn?$AAi?$AAs?$AAh?$AA?9?$AAg?$AAu?$AAa?$AAt?$AAe?$AAm?$AAa@ 100a4de8     libucrtd:get_qualified_locale.obj
 0002:0001ee0c       ??_C@_1CC@NBEBAODI@?$AAs?$AAp?$AAa?$AAn?$AAi?$AAs?$AAh?$AA?9?$AAh?$AAo?$AAn?$AAd?$AAu?$AAr?$AAa@ 100a4e0c     libucrtd:get_qualified_locale.obj
 0002:0001ee30       ??_C@_1CA@LLKGHBMF@?$AAs?$AAp?$AAa?$AAn?$AAi?$AAs?$AAh?$AA?9?$AAm?$AAe?$AAx?$AAi?$AAc?$AAa?$AAn@ 100a4e30     libucrtd:get_qualified_locale.obj
 0002:0001ee50       ??_C@_1BO@LKNDOIGD@?$AAs?$AAp?$AAa?$AAn?$AAi?$AAs?$AAh?$AA?9?$AAm?$AAo?$AAd?$AAe?$AAr?$AAn@ 100a4e50     libucrtd:get_qualified_locale.obj
 0002:0001ee70       ??_C@_1CE@NMDMOEEB@?$AAs?$AAp?$AAa?$AAn?$AAi?$AAs?$AAh?$AA?9?$AAn?$AAi?$AAc?$AAa?$AAr?$AAa?$AAg@ 100a4e70     libucrtd:get_qualified_locale.obj
 0002:0001ee94       ??_C@_1BO@LLCBEJGB@?$AAs?$AAp?$AAa?$AAn?$AAi?$AAs?$AAh?$AA?9?$AAp?$AAa?$AAn?$AAa?$AAm?$AAa@ 100a4e94     libucrtd:get_qualified_locale.obj
 0002:0001eeb4       ??_C@_1CC@FKPGGIHO@?$AAs?$AAp?$AAa?$AAn?$AAi?$AAs?$AAh?$AA?9?$AAp?$AAa?$AAr?$AAa?$AAg?$AAu?$AAa@ 100a4eb4     libucrtd:get_qualified_locale.obj
 0002:0001eed8       ??_C@_1BK@CDEIHOOP@?$AAs?$AAp?$AAa?$AAn?$AAi?$AAs?$AAh?$AA?9?$AAp?$AAe?$AAr?$AAu@ 100a4ed8     libucrtd:get_qualified_locale.obj
 0002:0001eef4       ??_C@_1CI@GAHAKKGP@?$AAs?$AAp?$AAa?$AAn?$AAi?$AAs?$AAh?$AA?9?$AAp?$AAu?$AAe?$AAr?$AAt?$AAo?$AA?5@ 100a4ef4     libucrtd:get_qualified_locale.obj
 0002:0001ef1c       ??_C@_1CA@NKJBCAGP@?$AAs?$AAp?$AAa?$AAn?$AAi?$AAs?$AAh?$AA?9?$AAu?$AAr?$AAu?$AAg?$AAu?$AAa?$AAy@ 100a4f1c     libucrtd:get_qualified_locale.obj
 0002:0001ef3c       ??_C@_1CE@ODILCONM@?$AAs?$AAp?$AAa?$AAn?$AAi?$AAs?$AAh?$AA?9?$AAv?$AAe?$AAn?$AAe?$AAz?$AAu?$AAe@ 100a4f3c     libucrtd:get_qualified_locale.obj
 0002:0001ef60       ??_C@_1CA@OBNMCGFO@?$AAs?$AAw?$AAe?$AAd?$AAi?$AAs?$AAh?$AA?9?$AAf?$AAi?$AAn?$AAl?$AAa?$AAn?$AAd@ 100a4f60     libucrtd:get_qualified_locale.obj
 0002:0001ef80       ??_C@_1M@PIPDDPPI@?$AAs?$AAw?$AAi?$AAs?$AAs@ 100a4f80     libucrtd:get_qualified_locale.obj
 0002:0001ef8c       ??_C@_15PJPFLCCM@?$AAu?$AAk@ 100a4f8c     libucrtd:get_qualified_locale.obj
 0002:0001ef94       ??_C@_15GMFIMNFM@?$AAu?$AAs@ 100a4f94     libucrtd:get_qualified_locale.obj
 0002:0001ef9c       ??_C@_17HAEBFAGL@?$AAu?$AAs?$AAa@ 100a4f9c     libucrtd:get_qualified_locale.obj
 0002:0001efa4       ??_C@_1BA@DPFJEPHB@?$AAa?$AAm?$AAe?$AAr?$AAi?$AAc?$AAa@ 100a4fa4     libucrtd:get_qualified_locale.obj
 0002:0001efb4       ??_C@_1BA@ELOGGFK@?$AAb?$AAr?$AAi?$AAt?$AAa?$AAi?$AAn@ 100a4fb4     libucrtd:get_qualified_locale.obj
 0002:0001efc4       ??_C@_1M@GHBGIGDA@?$AAc?$AAh?$AAi?$AAn?$AAa@ 100a4fc4     libucrtd:get_qualified_locale.obj
 0002:0001efd0       ??_C@_1M@NCHEJOPO@?$AAc?$AAz?$AAe?$AAc?$AAh@ 100a4fd0     libucrtd:get_qualified_locale.obj
 0002:0001efdc       ??_C@_1BA@BKPAPBLA@?$AAe?$AAn?$AAg?$AAl?$AAa?$AAn?$AAd@ 100a4fdc     libucrtd:get_qualified_locale.obj
 0002:0001efec       ??_C@_1BM@HKBCKIPC@?$AAg?$AAr?$AAe?$AAa?$AAt?$AA?5?$AAb?$AAr?$AAi?$AAt?$AAa?$AAi?$AAn@ 100a4fec     libucrtd:get_qualified_locale.obj
 0002:0001f008       ??_C@_1BA@PPCHPGJB@?$AAh?$AAo?$AAl?$AAl?$AAa?$AAn?$AAd@ 100a5008     libucrtd:get_qualified_locale.obj
 0002:0001f018       ??_C@_1BE@JBMPEGDG@?$AAh?$AAo?$AAn?$AAg?$AA?9?$AAk?$AAo?$AAn?$AAg@ 100a5018     libucrtd:get_qualified_locale.obj
 0002:0001f02c       ??_C@_1BI@KOELBBPJ@?$AAn?$AAe?$AAw?$AA?9?$AAz?$AAe?$AAa?$AAl?$AAa?$AAn?$AAd@ 100a502c     libucrtd:get_qualified_locale.obj
 0002:0001f044       ??_C@_15HIEBHAIO@?$AAn?$AAz@ 100a5044     libucrtd:get_qualified_locale.obj
 0002:0001f04c       ??_C@_1BC@CHBCPFPI@?$AAp?$AAr?$AA?5?$AAc?$AAh?$AAi?$AAn?$AAa@ 100a504c     libucrtd:get_qualified_locale.obj
 0002:0001f060       ??_C@_1BC@JAOIIFKD@?$AAp?$AAr?$AA?9?$AAc?$AAh?$AAi?$AAn?$AAa@ 100a5060     libucrtd:get_qualified_locale.obj
 0002:0001f074       ??_C@_1BI@BEHPPHKC@?$AAp?$AAu?$AAe?$AAr?$AAt?$AAo?$AA?9?$AAr?$AAi?$AAc?$AAo@ 100a5074     libucrtd:get_qualified_locale.obj
 0002:0001f08c       ??_C@_1O@PAEOFKDI@?$AAs?$AAl?$AAo?$AAv?$AAa?$AAk@ 100a508c     libucrtd:get_qualified_locale.obj
 0002:0001f09c       ??_C@_1BK@FIHMCKAM@?$AAs?$AAo?$AAu?$AAt?$AAh?$AA?5?$AAa?$AAf?$AAr?$AAi?$AAc?$AAa@ 100a509c     libucrtd:get_qualified_locale.obj
 0002:0001f0b8       ??_C@_1BI@NAEOODKB@?$AAs?$AAo?$AAu?$AAt?$AAh?$AA?5?$AAk?$AAo?$AAr?$AAe?$AAa@ 100a50b8     libucrtd:get_qualified_locale.obj
 0002:0001f0d0       ??_C@_1BK@FBDGGIFF@?$AAs?$AAo?$AAu?$AAt?$AAh?$AA?9?$AAa?$AAf?$AAr?$AAi?$AAc?$AAa@ 100a50d0     libucrtd:get_qualified_locale.obj
 0002:0001f0ec       ??_C@_1BI@GHLEJDPK@?$AAs?$AAo?$AAu?$AAt?$AAh?$AA?9?$AAk?$AAo?$AAr?$AAe?$AAa@ 100a50ec     libucrtd:get_qualified_locale.obj
 0002:0001f104       ??_C@_1CE@PLHLOMJF@?$AAt?$AAr?$AAi?$AAn?$AAi?$AAd?$AAa?$AAd?$AA?5?$AA?$CG?$AA?5?$AAt?$AAo?$AAb?$AAa@ 100a5104     libucrtd:get_qualified_locale.obj
 0002:0001f128       ??_C@_1BO@MODIMHHI@?$AAu?$AAn?$AAi?$AAt?$AAe?$AAd?$AA?9?$AAk?$AAi?$AAn?$AAg?$AAd?$AAo?$AAm@ 100a5128     libucrtd:get_qualified_locale.obj
 0002:0001f148       ??_C@_1BM@FFHJONBJ@?$AAu?$AAn?$AAi?$AAt?$AAe?$AAd?$AA?9?$AAs?$AAt?$AAa?$AAt?$AAe?$AAs@ 100a5148     libucrtd:get_qualified_locale.obj
 0002:0001f168       ??_C@_1HO@CKHMGCFN@?$AAm?$AAi?$AAn?$AAk?$AAe?$AAr?$AAn?$AAe?$AAl?$AA?2?$AAc?$AAr?$AAt?$AAs?$AA?2@ 100a5168     libucrtd:get_qualified_locale.obj
 0002:0001f1e8       ??_C@_1DI@HCPCNHHP@?$AA_?$AA_?$AAa?$AAc?$AAr?$AAt?$AA_?$AAg?$AAe?$AAt?$AA_?$AAq?$AAu?$AAa?$AAl@ 100a51e8     libucrtd:get_qualified_locale.obj
 0002:0001f220       ??_C@_1BFC@DEALMEIM@?$AAw?$AAc?$AAs?$AAn?$AAc?$AAp?$AAy?$AA_?$AAs?$AA?$CI?$AAl?$AAp?$AAO?$AAu?$AAt@ 100a5220     libucrtd:get_qualified_locale.obj
 0002:0001f378       ??_C@_1MG@JCGKALNH@?$AAw?$AAc?$AAs?$AAn?$AAc?$AAp?$AAy?$AA_?$AAs?$AA?$CI?$AAl?$AAp?$AAO?$AAu?$AAt@ 100a5378     libucrtd:get_qualified_locale.obj
 0002:0001f440       ??_C@_19MPDNHKDG@?$AAu?$AAt?$AAf?$AA8@ 100a5440     libucrtd:get_qualified_locale.obj
 0002:0001f44c       ??_C@_1CM@OGEMFJNJ@?$AAL?$AAa?$AAn?$AAg?$AAC?$AAo?$AAu?$AAn?$AAt?$AAr?$AAy?$AAE?$AAn?$AAu?$AAm@ 100a544c     libucrtd:get_qualified_locale.obj
 0002:0001f478       ??_C@_1BDC@CGCEDIGP@?$AAw?$AAc?$AAs?$AAn?$AAc?$AAp?$AAy?$AA_?$AAs?$AA?$CI?$AA_?$AAp?$AAs?$AAe?$AAt@ 100a5478     libucrtd:get_qualified_locale.obj
 0002:0001f5ac       ??_C@_1CG@PGLLICHO@?$AAL?$AAa?$AAn?$AAg?$AAu?$AAa?$AAg?$AAe?$AAE?$AAn?$AAu?$AAm?$AAP?$AAr?$AAo@ 100a55ac     libucrtd:get_qualified_locale.obj
 0002:0001f5d4       ??_C@_1DC@CPKFANGP@?$AAG?$AAe?$AAt?$AAL?$AAo?$AAc?$AAa?$AAl?$AAe?$AAN?$AAa?$AAm?$AAe?$AAF?$AAr@ 100a55d4     libucrtd:get_qualified_locale.obj
 0002:0001f608       ??_C@_1BCC@GMJIFDHO@?$AAw?$AAc?$AAs?$AAn?$AAc?$AAp?$AAy?$AA_?$AAs?$AA?$CI?$AA_?$AAp?$AAs?$AAe?$AAt@ 100a5608     libucrtd:get_qualified_locale.obj
 0002:0001f72c       ??_C@_17DNCLJFIF@?$AAA?$AAC?$AAP@ 100a572c     libucrtd:get_qualified_locale.obj
 0002:0001f734       ??_C@_1M@FPEIIFAM@?$AAu?$AAt?$AAf?$AA?9?$AA8@ 100a5734     libucrtd:get_qualified_locale.obj
 0002:0001f740       ??_C@_17CIKBIHLH@?$AAO?$AAC?$AAP@ 100a5740     libucrtd:get_qualified_locale.obj
 0002:0001f748       ___rglangidNotDefault      100a5748     libucrtd:getqloc_downlevel.obj
 0002:0001f75c       ??_C@_0DB@JFFPGLDM@minkernel?2crts?2ucrt?2src?2appcrt?2@ 100a575c     libucrtd:osfinfo.obj
 0002:0001f790       ??_C@_1EM@BPODPNEJ@?$AAs?$AAt?$AAa?$AAt?$AAi?$AAc?$AA_?$AAc?$AAa?$AAs?$AAt?$AA?$DM?$AAu?$AAn?$AAs@ 100a5790     libucrtd:osfinfo.obj
 0002:0001f7e0       ??_C@_1GC@LDGKBAFM@?$AAm?$AAi?$AAn?$AAk?$AAe?$AAr?$AAn?$AAe?$AAl?$AA?2?$AAc?$AAr?$AAt?$AAs?$AA?2@ 100a57e0     libucrtd:osfinfo.obj
 0002:0001f844       ??_C@_1DM@JELNOMLN@?$AA_?$AA_?$AAa?$AAc?$AAr?$AAt?$AA_?$AAl?$AAo?$AAw?$AAi?$AAo?$AA_?$AAe?$AAn@ 100a5844     libucrtd:osfinfo.obj
 0002:0001f880       ??_C@_1FK@MGHFJLAL@?$AAf?$AAh?$AA?5?$AA?$DO?$AA?$DN?$AA?5?$AA0?$AA?5?$AA?$CG?$AA?$CG?$AA?5?$AA?$CI?$AAu?$AAn?$AAs@ 100a5880     libucrtd:osfinfo.obj
 0002:0001f8dc       ??_C@_1BO@EMBOBGKE@?$AA_?$AAg?$AAe?$AAt?$AA_?$AAo?$AAs?$AAf?$AAh?$AAa?$AAn?$AAd?$AAl?$AAe@ 100a58dc     libucrtd:osfinfo.obj
 0002:0001f8fc       ??_C@_1CI@ILOIOBLM@?$AA_?$AAo?$AAs?$AAf?$AAi?$AAl?$AAe?$AA?$CI?$AAf?$AAh?$AA?$CJ?$AA?5?$AA?$CG?$AA?5?$AAF@ 100a58fc     libucrtd:osfinfo.obj
 0002:0001f924       ??_C@_1DI@OOEEHOBJ@?$AAb?$AAa?$AAs?$AAe?$AA?5?$AA?$CB?$AA?$DN?$AA?5?$AAn?$AAu?$AAl?$AAl?$AAp?$AAt?$AAr@ 100a5924     libucrtd:qsort.obj
 0002:0001f960       ??_C@_1GA@KPPCKKGE@?$AAm?$AAi?$AAn?$AAk?$AAe?$AAr?$AAn?$AAe?$AAl?$AA?2?$AAc?$AAr?$AAt?$AAs?$AA?2@ 100a5960     libucrtd:qsort.obj
 0002:0001f9c0       ??_C@_1M@INMHODIG@?$AAq?$AAs?$AAo?$AAr?$AAt@ 100a59c0     libucrtd:qsort.obj
 0002:0001f9cc       ??_C@_1BE@NJBEBBME@?$AAw?$AAi?$AAd?$AAt?$AAh?$AA?5?$AA?$DO?$AA?5?$AA0@ 100a59cc     libucrtd:qsort.obj
 0002:0001f9e0       ??_C@_1CA@LIDFOMIN@?$AAc?$AAo?$AAm?$AAp?$AA?5?$AA?$CB?$AA?$DN?$AA?5?$AAn?$AAu?$AAl?$AAl?$AAp?$AAt?$AAr@ 100a59e0     libucrtd:qsort.obj
 0002:0001fa00       ??_C@_0DH@IKPCBLP@minkernel?2crts?2ucrt?2src?2appcrt?2@ 100a5a00     libucrtd:lcmapstringa.obj
 0002:0001fa38       ??_C@_1CI@CCKDLILB@?$AA_?$AAs?$AAt?$AAr?$AAi?$AAn?$AAg?$AA1?$AA?5?$AA?$CB?$AA?$DN?$AA?5?$AAn?$AAu?$AAl@ 100a5a38     libucrtd:wcsnicol.obj
 0002:0001fa60       ??_C@_1GG@MDOKJCAE@?$AAm?$AAi?$AAn?$AAk?$AAe?$AAr?$AAn?$AAe?$AAl?$AA?2?$AAc?$AAr?$AAt?$AAs?$AA?2@ 100a5a60     libucrtd:wcsnicol.obj
 0002:0001fac8       ??_C@_1BK@EONLMOKH@?$AA_?$AAw?$AAc?$AAs?$AAn?$AAi?$AAc?$AAo?$AAl?$AAl?$AA_?$AAl@ 100a5ac8     libucrtd:wcsnicol.obj
 0002:0001fae4       ??_C@_1CI@NAPEFFEJ@?$AA_?$AAs?$AAt?$AAr?$AAi?$AAn?$AAg?$AA2?$AA?5?$AA?$CB?$AA?$DN?$AA?5?$AAn?$AAu?$AAl@ 100a5ae4     libucrtd:wcsnicol.obj
 0002:0001fb0c       ??_C@_1CC@JLPHKJPH@?$AAc?$AAo?$AAu?$AAn?$AAt?$AA?5?$AA?$DM?$AA?$DN?$AA?5?$AAI?$AAN?$AAT?$AA_?$AAM?$AAA@ 100a5b0c     libucrtd:wcsnicol.obj
 0002:0001fb30       ??_C@_1BG@PCPANGGF@?$AA_?$AAw?$AAc?$AAs?$AAn?$AAi?$AAc?$AAo?$AAl?$AAl@ 100a5b30     libucrtd:wcsnicol.obj
 0002:0001fb48       ??_C@_1GG@LACFCIFA@?$AAm?$AAi?$AAn?$AAk?$AAe?$AAr?$AAn?$AAe?$AAl?$AA?2?$AAc?$AAr?$AAt?$AAs?$AA?2@ 100a5b48     libucrtd:strnicol.obj
 0002:0001fbb0       ??_C@_1BK@IOJEBPLP@?$AA_?$AAs?$AAt?$AAr?$AAn?$AAi?$AAc?$AAo?$AAl?$AAl?$AA_?$AAl@ 100a5bb0     libucrtd:strnicol.obj
 0002:000202f0       ??_C@_15EMKDOKLE@?$AAa?$AAr@ 100a62f0     libucrtd:lcidtoname_downlevel.obj
 0002:000202f8       ??_C@_15KNPADPLH@?$AAb?$AAg@ 100a62f8     libucrtd:lcidtoname_downlevel.obj
 0002:00020300       ??_C@_15EDMHLDMO@?$AAc?$AAa@ 100a6300     libucrtd:lcidtoname_downlevel.obj
 0002:00020308       ??_C@_1O@BPEAJADD@?$AAz?$AAh?$AA?9?$AAC?$AAH?$AAS@ 100a6308     libucrtd:lcidtoname_downlevel.obj
 0002:00020318       ??_C@_15LJNHCMNK@?$AAc?$AAs@ 100a6318     libucrtd:lcidtoname_downlevel.obj
 0002:00020320       ??_C@_15FOMCIDHG@?$AAd?$AAa@ 100a6320     libucrtd:lcidtoname_downlevel.obj
 0002:00020328       ??_C@_15NBKABECB@?$AAd?$AAe@ 100a6328     libucrtd:lcidtoname_downlevel.obj
 0002:00020330       ??_C@_15GHPEIIAO@?$AAe?$AAl@ 100a6330     libucrtd:lcidtoname_downlevel.obj
 0002:00020338       ??_C@_15MNPNEAIF@?$AAe?$AAn@ 100a6338     libucrtd:lcidtoname_downlevel.obj
 0002:00020340       ??_C@_15GPIOMPMH@?$AAe?$AAs@ 100a6340     libucrtd:lcidtoname_downlevel.obj
 0002:00020348       ??_C@_15NGLOAKJC@?$AAf?$AAi@ 100a6348     libucrtd:lcidtoname_downlevel.obj
 0002:00020350       ??_C@_15FBKGNKAM@?$AAf?$AAr@ 100a6350     libucrtd:lcidtoname_downlevel.obj
 0002:00020358       ??_C@_15KGGCNEFK@?$AAh?$AAe@ 100a6358     libucrtd:lcidtoname_downlevel.obj
 0002:00020360       ??_C@_15PGHLIDMF@?$AAh?$AAu@ 100a6360     libucrtd:lcidtoname_downlevel.obj
 0002:00020368       ??_C@_15BIEMAPLM@?$AAi?$AAs@ 100a6368     libucrtd:lcidtoname_downlevel.obj
 0002:00020370       ??_C@_15IFJLDHAF@?$AAi?$AAt@ 100a6370     libucrtd:lcidtoname_downlevel.obj
 0002:00020378       ??_C@_15GEMIOCAG@?$AAj?$AAa@ 100a6378     libucrtd:lcidtoname_downlevel.obj
 0002:00020380       ??_C@_15EPELEGJA@?$AAk?$AAo@ 100a6380     libucrtd:lcidtoname_downlevel.obj
 0002:00020388       ??_C@_15NDDHIMN@?$AAn?$AAl@ 100a6388     libucrtd:lcidtoname_downlevel.obj
 0002:00020390       ??_C@_15BPIGNHCD@?$AAn?$AAo@ 100a6390     libucrtd:lcidtoname_downlevel.obj
 0002:00020398       ??_C@_15DEOPBLCG@?$AAp?$AAl@ 100a6398     libucrtd:lcidtoname_downlevel.obj
 0002:000203a0       ??_C@_15KBECGEFG@?$AAp?$AAt@ 100a63a0     libucrtd:lcidtoname_downlevel.obj
 0002:000203a8       ??_C@_15GLJCBFMD@?$AAr?$AAo@ 100a63a8     libucrtd:lcidtoname_downlevel.obj
 0002:000203b0       ??_C@_15FEDGKCDI@?$AAr?$AAu@ 100a63b0     libucrtd:lcidtoname_downlevel.obj
 0002:000203b8       ??_C@_15GLKMLLHM@?$AAh?$AAr@ 100a63b8     libucrtd:lcidtoname_downlevel.obj
 0002:000203c0       ??_C@_15CPKMFBDB@?$AAs?$AAk@ 100a63c0     libucrtd:lcidtoname_downlevel.obj
 0002:000203c8       ??_C@_15BAAIOGMK@?$AAs?$AAq@ 100a63c8     libucrtd:lcidtoname_downlevel.obj
 0002:000203d0       ??_C@_15INNPNOHD@?$AAs?$AAv@ 100a63d0     libucrtd:lcidtoname_downlevel.obj
 0002:000203d8       ??_C@_15CABMMOGH@?$AAt?$AAh@ 100a63d8     libucrtd:lcidtoname_downlevel.obj
 0002:000203e0       ??_C@_15BPLIHJJM@?$AAt?$AAr@ 100a63e0     libucrtd:lcidtoname_downlevel.obj
 0002:000203e8       ??_C@_15NEOEKKDJ@?$AAu?$AAr@ 100a63e8     libucrtd:lcidtoname_downlevel.obj
 0002:000203f0       ??_C@_15NFICGAJK@?$AAi?$AAd@ 100a63f0     libucrtd:lcidtoname_downlevel.obj
 0002:000203f8       ??_C@_15HPJPHDM@?$AAb?$AAe@ 100a63f8     libucrtd:lcidtoname_downlevel.obj
 0002:00020400       ??_C@_15LCHLGJII@?$AAs?$AAl@ 100a6400     libucrtd:lcidtoname_downlevel.obj
 0002:00020408       ??_C@_15PCFJPHHO@?$AAe?$AAt@ 100a6408     libucrtd:lcidtoname_downlevel.obj
 0002:00020410       ??_C@_15HPFPGODN@?$AAl?$AAv@ 100a6410     libucrtd:lcidtoname_downlevel.obj
 0002:00020418       ??_C@_15NFFGKGLG@?$AAl?$AAt@ 100a6418     libucrtd:lcidtoname_downlevel.obj
 0002:00020420       ??_C@_15BDAKCCHN@?$AAf?$AAa@ 100a6420     libucrtd:lcidtoname_downlevel.obj
 0002:00020428       ??_C@_15NFGIAIAJ@?$AAv?$AAi@ 100a6428     libucrtd:lcidtoname_downlevel.obj
 0002:00020430       ??_C@_15LMKNDMHN@?$AAh?$AAy@ 100a6430     libucrtd:lcidtoname_downlevel.obj
 0002:00020438       ??_C@_15IJBHMCFL@?$AAa?$AAz@ 100a6438     libucrtd:lcidtoname_downlevel.obj
 0002:00020440       ??_C@_15EKOFJABL@?$AAe?$AAu@ 100a6440     libucrtd:lcidtoname_downlevel.obj
 0002:00020448       ??_C@_15BGHADCNK@?$AAm?$AAk@ 100a6448     libucrtd:lcidtoname_downlevel.obj
 0002:00020450       ??_C@_15JDNICKHM@?$AAa?$AAf@ 100a6450     libucrtd:lcidtoname_downlevel.obj
 0002:00020458       ??_C@_15KPJEDBKD@?$AAk?$AAa@ 100a6458     libucrtd:lcidtoname_downlevel.obj
 0002:00020460       ??_C@_15PDNFFFEO@?$AAf?$AAo@ 100a6460     libucrtd:lcidtoname_downlevel.obj
 0002:00020468       ??_C@_15OMLEGLOC@?$AAh?$AAi@ 100a6468     libucrtd:lcidtoname_downlevel.obj
 0002:00020470       ??_C@_15IDNNENKK@?$AAm?$AAs@ 100a6470     libucrtd:lcidtoname_downlevel.obj
 0002:00020478       ??_C@_15MACJNBMH@?$AAk?$AAk@ 100a6478     libucrtd:lcidtoname_downlevel.obj
 0002:00020480       ??_C@_15DKDJEOND@?$AAk?$AAy@ 100a6480     libucrtd:lcidtoname_downlevel.obj
 0002:00020488       ??_C@_15DFGDLJBG@?$AAs?$AAw@ 100a6488     libucrtd:lcidtoname_downlevel.obj
 0002:00020490       ??_C@_15BBFAICNG@?$AAu?$AAz@ 100a6490     libucrtd:lcidtoname_downlevel.obj
 0002:00020498       ??_C@_15DKNDCGEA@?$AAt?$AAt@ 100a6498     libucrtd:lcidtoname_downlevel.obj
 0002:000204a0       ??_C@_15MGIFMDPL@?$AAp?$AAa@ 100a64a0     libucrtd:lcidtoname_downlevel.obj
 0002:000204a8       ??_C@_15HCNDBBA@?$AAg?$AAu@ 100a64a8     libucrtd:lcidtoname_downlevel.obj
 0002:000204b0       ??_C@_15FNBEIBON@?$AAt?$AAa@ 100a64b0     libucrtd:lcidtoname_downlevel.obj
 0002:000204b8       ??_C@_15NCHGBGLK@?$AAt?$AAe@ 100a64b8     libucrtd:lcidtoname_downlevel.obj
 0002:000204c0       ??_C@_15PHPHCBPF@?$AAk?$AAn@ 100a64c0     libucrtd:lcidtoname_downlevel.obj
 0002:000204c8       ??_C@_15DLGBCKMP@?$AAm?$AAr@ 100a64c8     libucrtd:lcidtoname_downlevel.obj
 0002:000204d0       ??_C@_15EABBLBFF@?$AAs?$AAa@ 100a64d0     libucrtd:lcidtoname_downlevel.obj
 0002:000204d8       ??_C@_15CBKOMCOI@?$AAm?$AAn@ 100a64d8     libucrtd:lcidtoname_downlevel.obj
 0002:000204e0       ??_C@_15CKDMCJAF@?$AAg?$AAl@ 100a64e0     libucrtd:lcidtoname_downlevel.obj
 0002:000204e8       ??_C@_17CNJFBPG@?$AAk?$AAo?$AAk@ 100a64e8     libucrtd:lcidtoname_downlevel.obj
 0002:000204f0       ??_C@_17FFBJICPL@?$AAs?$AAy?$AAr@ 100a64f0     libucrtd:lcidtoname_downlevel.obj
 0002:000204f8       ??_C@_17KPNDCPAF@?$AAd?$AAi?$AAv@ 100a64f8     libucrtd:lcidtoname_downlevel.obj
 0002:00020500       ??_C@_1M@OKAHONE@?$AAa?$AAr?$AA?9?$AAS?$AAA@ 100a6500     libucrtd:lcidtoname_downlevel.obj
 0002:0002050c       ??_C@_1M@FFFIGIGK@?$AAb?$AAg?$AA?9?$AAB?$AAG@ 100a650c     libucrtd:lcidtoname_downlevel.obj
 0002:00020518       ??_C@_1M@BJNKEDC@?$AAc?$AAa?$AA?9?$AAE?$AAS@ 100a6518     libucrtd:lcidtoname_downlevel.obj
 0002:00020524       ??_C@_1M@IJJHFJHA@?$AAc?$AAs?$AA?9?$AAC?$AAZ@ 100a6524     libucrtd:lcidtoname_downlevel.obj
 0002:00020530       ??_C@_1M@CLPEOBGI@?$AAd?$AAa?$AA?9?$AAD?$AAK@ 100a6530     libucrtd:lcidtoname_downlevel.obj
 0002:0002053c       ??_C@_1M@MCMADGCB@?$AAd?$AAe?$AA?9?$AAD?$AAE@ 100a653c     libucrtd:lcidtoname_downlevel.obj
 0002:00020548       ??_C@_1M@OOCKEMAM@?$AAe?$AAl?$AA?9?$AAG?$AAR@ 100a6548     libucrtd:lcidtoname_downlevel.obj
 0002:00020554       ??_C@_1M@DDNJFGID@?$AAf?$AAi?$AA?9?$AAF?$AAI@ 100a6554     libucrtd:lcidtoname_downlevel.obj
 0002:00020560       ??_C@_1M@GLIPPMAC@?$AAf?$AAr?$AA?9?$AAF?$AAR@ 100a6560     libucrtd:lcidtoname_downlevel.obj
 0002:0002056c       ??_C@_1M@GFMCHPE@?$AAh?$AAe?$AA?9?$AAI?$AAL@ 100a656c     libucrtd:lcidtoname_downlevel.obj
 0002:00020578       ??_C@_1M@MHLPGNKM@?$AAh?$AAu?$AA?9?$AAH?$AAU@ 100a6578     libucrtd:lcidtoname_downlevel.obj
 0002:00020584       ??_C@_1M@LPDDNNPN@?$AAi?$AAs?$AA?9?$AAI?$AAS@ 100a6584     libucrtd:lcidtoname_downlevel.obj
 0002:00020590       ??_C@_1M@MADIPODN@?$AAi?$AAt?$AA?9?$AAI?$AAT@ 100a6590     libucrtd:lcidtoname_downlevel.obj
 0002:0002059c       ??_C@_1M@IHBJJGG@?$AAn?$AAl?$AA?9?$AAN?$AAL@ 100a659c     libucrtd:lcidtoname_downlevel.obj
 0002:000205a8       ??_C@_1M@EANAGDL@?$AAn?$AAb?$AA?9?$AAN?$AAO@ 100a65a8     libucrtd:lcidtoname_downlevel.obj
 0002:000205b4       ??_C@_1M@NEIEMEGP@?$AAp?$AAl?$AA?9?$AAP?$AAL@ 100a65b4     libucrtd:lcidtoname_downlevel.obj
 0002:000205c0       ??_C@_1M@BOCFIGEP@?$AAp?$AAt?$AA?9?$AAB?$AAR@ 100a65c0     libucrtd:lcidtoname_downlevel.obj
 0002:000205cc       ??_C@_1M@IMPFOPBG@?$AAr?$AAo?$AA?9?$AAR?$AAO@ 100a65cc     libucrtd:lcidtoname_downlevel.obj
 0002:000205d8       ??_C@_1M@IDNNEJMM@?$AAr?$AAu?$AA?9?$AAR?$AAU@ 100a65d8     libucrtd:lcidtoname_downlevel.obj
 0002:000205e4       ??_C@_1M@LILEEOGM@?$AAh?$AAr?$AA?9?$AAH?$AAR@ 100a65e4     libucrtd:lcidtoname_downlevel.obj
 0002:000205f0       ??_C@_1M@FKIFEHPB@?$AAs?$AAk?$AA?9?$AAS?$AAK@ 100a65f0     libucrtd:lcidtoname_downlevel.obj
 0002:000205fc       ??_C@_1M@LJMAMNPJ@?$AAs?$AAq?$AA?9?$AAA?$AAL@ 100a65fc     libucrtd:lcidtoname_downlevel.obj
 0002:00020608       ??_C@_1M@GIAKDKJK@?$AAs?$AAv?$AA?9?$AAS?$AAE@ 100a6608     libucrtd:lcidtoname_downlevel.obj
 0002:00020614       ??_C@_1M@MKJKIKCL@?$AAt?$AAh?$AA?9?$AAT?$AAH@ 100a6614     libucrtd:lcidtoname_downlevel.obj
 0002:00020620       ??_C@_1M@MFLCCMPB@?$AAt?$AAr?$AA?9?$AAT?$AAR@ 100a6620     libucrtd:lcidtoname_downlevel.obj
 0002:0002062c       ??_C@_1M@OIJHDKJN@?$AAu?$AAr?$AA?9?$AAP?$AAK@ 100a662c     libucrtd:lcidtoname_downlevel.obj
 0002:00020638       ??_C@_1M@LHIPCIEK@?$AAi?$AAd?$AA?9?$AAI?$AAD@ 100a6638     libucrtd:lcidtoname_downlevel.obj
 0002:00020644       ??_C@_1M@MFMOBGI@?$AAu?$AAk?$AA?9?$AAU?$AAA@ 100a6644     libucrtd:lcidtoname_downlevel.obj
 0002:00020650       ??_C@_1M@OBGLJIPL@?$AAb?$AAe?$AA?9?$AAB?$AAY@ 100a6650     libucrtd:lcidtoname_downlevel.obj
 0002:0002065c       ??_C@_1M@BCFAJEAD@?$AAs?$AAl?$AA?9?$AAS?$AAI@ 100a665c     libucrtd:lcidtoname_downlevel.obj
 0002:00020668       ??_C@_1M@FKFFEDDN@?$AAe?$AAt?$AA?9?$AAE?$AAE@ 100a6668     libucrtd:lcidtoname_downlevel.obj
 0002:00020674       ??_C@_1M@KGKKAACI@?$AAl?$AAv?$AA?9?$AAL?$AAV@ 100a6674     libucrtd:lcidtoname_downlevel.obj
 0002:00020680       ??_C@_1M@IFGBIJO@?$AAl?$AAt?$AA?9?$AAL?$AAT@ 100a6680     libucrtd:lcidtoname_downlevel.obj
 0002:0002068c       ??_C@_1M@FGEAHEDM@?$AAf?$AAa?$AA?9?$AAI?$AAR@ 100a668c     libucrtd:lcidtoname_downlevel.obj
 0002:00020698       ??_C@_1M@KBMAIBFN@?$AAv?$AAi?$AA?9?$AAV?$AAN@ 100a6698     libucrtd:lcidtoname_downlevel.obj
 0002:000206a4       ??_C@_1M@GPCBKDJK@?$AAh?$AAy?$AA?9?$AAA?$AAM@ 100a66a4     libucrtd:lcidtoname_downlevel.obj
 0002:000206b0       ??_C@_1BG@BECMDDJB@?$AAa?$AAz?$AA?9?$AAA?$AAZ?$AA?9?$AAL?$AAa?$AAt?$AAn@ 100a66b0     libucrtd:lcidtoname_downlevel.obj
 0002:000206c8       ??_C@_1M@MAOFCAEA@?$AAe?$AAu?$AA?9?$AAE?$AAS@ 100a66c8     libucrtd:lcidtoname_downlevel.obj
 0002:000206d4       ??_C@_1M@IGHABKPI@?$AAm?$AAk?$AA?9?$AAM?$AAK@ 100a66d4     libucrtd:lcidtoname_downlevel.obj
 0002:000206e0       ??_C@_1M@IAIGNEJG@?$AAt?$AAn?$AA?9?$AAZ?$AAA@ 100a66e0     libucrtd:lcidtoname_downlevel.obj
 0002:000206ec       ??_C@_1M@IIJCOJFA@?$AAx?$AAh?$AA?9?$AAZ?$AAA@ 100a66ec     libucrtd:lcidtoname_downlevel.obj
 0002:000206f8       ??_C@_1M@LGPJHNJH@?$AAz?$AAu?$AA?9?$AAZ?$AAA@ 100a66f8     libucrtd:lcidtoname_downlevel.obj
 0002:00020704       ??_C@_1M@HOKAOIO@?$AAa?$AAf?$AA?9?$AAZ?$AAA@ 100a6704     libucrtd:lcidtoname_downlevel.obj
 0002:00020710       ??_C@_1M@DPCLHLIE@?$AAk?$AAa?$AA?9?$AAG?$AAE@ 100a6710     libucrtd:lcidtoname_downlevel.obj
 0002:0002071c       ??_C@_1M@BLKMHJBI@?$AAf?$AAo?$AA?9?$AAF?$AAO@ 100a671c     libucrtd:lcidtoname_downlevel.obj
 0002:00020728       ??_C@_1M@LGGJAPPB@?$AAh?$AAi?$AA?9?$AAI?$AAN@ 100a6728     libucrtd:lcidtoname_downlevel.obj
 0002:00020734       ??_C@_1M@FIKPIHFE@?$AAm?$AAt?$AA?9?$AAM?$AAT@ 100a6734     libucrtd:lcidtoname_downlevel.obj
 0002:00020740       ??_C@_1M@HEGGPBFA@?$AAs?$AAe?$AA?9?$AAN?$AAO@ 100a6740     libucrtd:lcidtoname_downlevel.obj
 0002:0002074c       ??_C@_1M@EIBJEEPA@?$AAm?$AAs?$AA?9?$AAM?$AAY@ 100a674c     libucrtd:lcidtoname_downlevel.obj
 0002:00020758       ??_C@_1M@FHLBGMPP@?$AAk?$AAk?$AA?9?$AAK?$AAZ@ 100a6758     libucrtd:lcidtoname_downlevel.obj
 0002:00020764       ??_C@_1M@NGJJLCGI@?$AAk?$AAy?$AA?9?$AAK?$AAG@ 100a6764     libucrtd:lcidtoname_downlevel.obj
 0002:00020770       ??_C@_1M@GIENNBFC@?$AAs?$AAw?$AA?9?$AAK?$AAE@ 100a6770     libucrtd:lcidtoname_downlevel.obj
 0002:0002077c       ??_C@_1BG@NDGMJIMJ@?$AAu?$AAz?$AA?9?$AAU?$AAZ?$AA?9?$AAL?$AAa?$AAt?$AAn@ 100a677c     libucrtd:lcidtoname_downlevel.obj
 0002:00020794       ??_C@_1M@IDCCIHBC@?$AAt?$AAt?$AA?9?$AAR?$AAU@ 100a6794     libucrtd:lcidtoname_downlevel.obj
 0002:000207a0       ??_C@_1M@LOICPMOJ@?$AAb?$AAn?$AA?9?$AAI?$AAN@ 100a67a0     libucrtd:lcidtoname_downlevel.obj
 0002:000207ac       ??_C@_1M@KPKKNEAH@?$AAp?$AAa?$AA?9?$AAI?$AAN@ 100a67ac     libucrtd:lcidtoname_downlevel.obj
 0002:000207b8       ??_C@_1M@PJGPPBOG@?$AAg?$AAu?$AA?9?$AAI?$AAN@ 100a67b8     libucrtd:lcidtoname_downlevel.obj
 0002:000207c4       ??_C@_1M@KMKMOPHI@?$AAt?$AAa?$AA?9?$AAI?$AAN@ 100a67c4     libucrtd:lcidtoname_downlevel.obj
 0002:000207d0       ??_C@_1M@KFEHEPAC@?$AAt?$AAe?$AA?9?$AAI?$AAN@ 100a67d0     libucrtd:lcidtoname_downlevel.obj
 0002:000207dc       ??_C@_1M@CDCLMGHI@?$AAk?$AAn?$AA?9?$AAI?$AAN@ 100a67dc     libucrtd:lcidtoname_downlevel.obj
 0002:000207e8       ??_C@_1M@MIODLDKF@?$AAm?$AAl?$AA?9?$AAI?$AAN@ 100a67e8     libucrtd:lcidtoname_downlevel.obj
 0002:000207f4       ??_C@_1M@PBIEACPO@?$AAm?$AAr?$AA?9?$AAI?$AAN@ 100a67f4     libucrtd:lcidtoname_downlevel.obj
 0002:00020800       ??_C@_1M@NIDEAGPH@?$AAs?$AAa?$AA?9?$AAI?$AAN@ 100a6800     libucrtd:lcidtoname_downlevel.obj
 0002:0002080c       ??_C@_1M@FHIHCBIO@?$AAm?$AAn?$AA?9?$AAM?$AAN@ 100a680c     libucrtd:lcidtoname_downlevel.obj
 0002:00020818       ??_C@_1M@JAIJPENP@?$AAc?$AAy?$AA?9?$AAG?$AAB@ 100a6818     libucrtd:lcidtoname_downlevel.obj
 0002:00020824       ??_C@_1M@PHGFBEPN@?$AAg?$AAl?$AA?9?$AAE?$AAS@ 100a6824     libucrtd:lcidtoname_downlevel.obj
 0002:00020830       ??_C@_1O@KPIPDNCP@?$AAk?$AAo?$AAk?$AA?9?$AAI?$AAN@ 100a6830     libucrtd:lcidtoname_downlevel.obj
 0002:00020840       ??_C@_1O@KNHJLDJA@?$AAs?$AAy?$AAr?$AA?9?$AAS?$AAY@ 100a6840     libucrtd:lcidtoname_downlevel.obj
 0002:00020850       ??_C@_1O@MKEKBLAH@?$AAd?$AAi?$AAv?$AA?9?$AAM?$AAV@ 100a6850     libucrtd:lcidtoname_downlevel.obj
 0002:00020860       ??_C@_1O@OHDCKDDF@?$AAq?$AAu?$AAz?$AA?9?$AAB?$AAO@ 100a6860     libucrtd:lcidtoname_downlevel.obj
 0002:00020870       ??_C@_1M@LEPJNLFD@?$AAn?$AAs?$AA?9?$AAZ?$AAA@ 100a6870     libucrtd:lcidtoname_downlevel.obj
 0002:0002087c       ??_C@_1M@OMLEIIJB@?$AAm?$AAi?$AA?9?$AAN?$AAZ@ 100a687c     libucrtd:lcidtoname_downlevel.obj
 0002:00020888       ??_C@_1M@PMPEAILG@?$AAa?$AAr?$AA?9?$AAI?$AAQ@ 100a6888     libucrtd:lcidtoname_downlevel.obj
 0002:00020894       ??_C@_1M@CNKPNOEE@?$AAd?$AAe?$AA?9?$AAC?$AAH@ 100a6894     libucrtd:lcidtoname_downlevel.obj
 0002:000208a0       ??_C@_1M@LKMGMLKO@?$AAe?$AAn?$AA?9?$AAG?$AAB@ 100a68a0     libucrtd:lcidtoname_downlevel.obj
 0002:000208ac       ??_C@_1M@PGKJFFGL@?$AAe?$AAs?$AA?9?$AAM?$AAX@ 100a68ac     libucrtd:lcidtoname_downlevel.obj
 0002:000208b8       ??_C@_1M@DNNANBDC@?$AAf?$AAr?$AA?9?$AAB?$AAE@ 100a68b8     libucrtd:lcidtoname_downlevel.obj
 0002:000208c4       ??_C@_1M@HLGMDFHM@?$AAi?$AAt?$AA?9?$AAC?$AAH@ 100a68c4     libucrtd:lcidtoname_downlevel.obj
 0002:000208d0       ??_C@_1M@CLLBGJH@?$AAn?$AAl?$AA?9?$AAB?$AAE@ 100a68d0     libucrtd:lcidtoname_downlevel.obj
 0002:000208dc       ??_C@_1M@BODBOGLF@?$AAn?$AAn?$AA?9?$AAN?$AAO@ 100a68dc     libucrtd:lcidtoname_downlevel.obj
 0002:000208e8       ??_C@_1M@HFFAHKAD@?$AAp?$AAt?$AA?9?$AAP?$AAT@ 100a68e8     libucrtd:lcidtoname_downlevel.obj
 0002:000208f4       ??_C@_1BG@LNOAKHIE@?$AAs?$AAr?$AA?9?$AAS?$AAP?$AA?9?$AAL?$AAa?$AAt?$AAn@ 100a68f4     libucrtd:lcidtoname_downlevel.obj
 0002:0002090c       ??_C@_1M@HBMHBGAK@?$AAs?$AAv?$AA?9?$AAF?$AAI@ 100a690c     libucrtd:lcidtoname_downlevel.obj
 0002:00020918       ??_C@_1BG@DGCJGJBE@?$AAa?$AAz?$AA?9?$AAA?$AAZ?$AA?9?$AAC?$AAy?$AAr?$AAl@ 100a6918     libucrtd:lcidtoname_downlevel.obj
 0002:00020930       ??_C@_1M@KEJDAAHB@?$AAs?$AAe?$AA?9?$AAS?$AAE@ 100a6930     libucrtd:lcidtoname_downlevel.obj
 0002:0002093c       ??_C@_1M@HEIBJJAD@?$AAm?$AAs?$AA?9?$AAB?$AAN@ 100a693c     libucrtd:lcidtoname_downlevel.obj
 0002:00020948       ??_C@_1BG@PBGJMCEM@?$AAu?$AAz?$AA?9?$AAU?$AAZ?$AA?9?$AAC?$AAy?$AAr?$AAl@ 100a6948     libucrtd:lcidtoname_downlevel.obj
 0002:00020960       ??_C@_1O@LAOBCMDF@?$AAq?$AAu?$AAz?$AA?9?$AAE?$AAC@ 100a6960     libucrtd:lcidtoname_downlevel.obj
 0002:00020970       ??_C@_1M@POEEMAIO@?$AAa?$AAr?$AA?9?$AAE?$AAG@ 100a6970     libucrtd:lcidtoname_downlevel.obj
 0002:0002097c       ??_C@_1M@EFAKDEDL@?$AAz?$AAh?$AA?9?$AAH?$AAK@ 100a697c     libucrtd:lcidtoname_downlevel.obj
 0002:00020988       ??_C@_1M@HKKIJHGI@?$AAd?$AAe?$AA?9?$AAA?$AAT@ 100a6988     libucrtd:lcidtoname_downlevel.obj
 0002:00020994       ??_C@_1M@KBFBEHJF@?$AAe?$AAn?$AA?9?$AAA?$AAU@ 100a6994     libucrtd:lcidtoname_downlevel.obj
 0002:000209a0       ??_C@_1M@MNPLFAAH@?$AAe?$AAs?$AA?9?$AAE?$AAS@ 100a69a0     libucrtd:lcidtoname_downlevel.obj
 0002:000209ac       ??_C@_1M@HJOOJFMA@?$AAf?$AAr?$AA?9?$AAC?$AAA@ 100a69ac     libucrtd:lcidtoname_downlevel.obj
 0002:000209b8       ??_C@_1BG@JPOFPNAB@?$AAs?$AAr?$AA?9?$AAS?$AAP?$AA?9?$AAC?$AAy?$AAr?$AAl@ 100a69b8     libucrtd:lcidtoname_downlevel.obj
 0002:000209d0       ??_C@_1M@LNFOCMOB@?$AAs?$AAe?$AA?9?$AAF?$AAI@ 100a69d0     libucrtd:lcidtoname_downlevel.obj
 0002:000209dc       ??_C@_1O@MGJBOAMB@?$AAq?$AAu?$AAz?$AA?9?$AAP?$AAE@ 100a69dc     libucrtd:lcidtoname_downlevel.obj
 0002:000209ec       ??_C@_1M@GJINLBOK@?$AAa?$AAr?$AA?9?$AAL?$AAY@ 100a69ec     libucrtd:lcidtoname_downlevel.obj
 0002:000209f8       ??_C@_1M@GGMNHJNL@?$AAz?$AAh?$AA?9?$AAS?$AAG@ 100a69f8     libucrtd:lcidtoname_downlevel.obj
 0002:00020a04       ??_C@_1M@HOIKODND@?$AAd?$AAe?$AA?9?$AAL?$AAU@ 100a6a04     libucrtd:lcidtoname_downlevel.obj
 0002:00020a10       ??_C@_1M@DDOCCGFG@?$AAe?$AAn?$AA?9?$AAC?$AAA@ 100a6a10     libucrtd:lcidtoname_downlevel.obj
 0002:00020a1c       ??_C@_1M@BNOEMJLF@?$AAe?$AAs?$AA?9?$AAG?$AAT@ 100a6a1c     libucrtd:lcidtoname_downlevel.obj
 0002:00020a28       ??_C@_1M@EOGNKEK@?$AAf?$AAr?$AA?9?$AAC?$AAH@ 100a6a28     libucrtd:lcidtoname_downlevel.obj
 0002:00020a34       ??_C@_1M@FLIDJFHL@?$AAh?$AAr?$AA?9?$AAB?$AAA@ 100a6a34     libucrtd:lcidtoname_downlevel.obj
 0002:00020a40       ??_C@_1O@FMCELNAJ@?$AAs?$AAm?$AAj?$AA?9?$AAN?$AAO@ 100a6a40     libucrtd:lcidtoname_downlevel.obj
 0002:00020a50       ??_C@_1M@JHGLJMGJ@?$AAa?$AAr?$AA?9?$AAD?$AAZ@ 100a6a50     libucrtd:lcidtoname_downlevel.obj
 0002:00020a5c       ??_C@_1M@JKKFDCNP@?$AAz?$AAh?$AA?9?$AAM?$AAO@ 100a6a5c     libucrtd:lcidtoname_downlevel.obj
 0002:00020a68       ??_C@_1M@GEEFALPE@?$AAd?$AAe?$AA?9?$AAL?$AAI@ 100a6a68     libucrtd:lcidtoname_downlevel.obj
 0002:00020a74       ??_C@_1M@IGEOFBG@?$AAe?$AAn?$AA?9?$AAN?$AAZ@ 100a6a74     libucrtd:lcidtoname_downlevel.obj
 0002:00020a80       ??_C@_1M@KDBONEHP@?$AAe?$AAs?$AA?9?$AAC?$AAR@ 100a6a80     libucrtd:lcidtoname_downlevel.obj
 0002:00020a8c       ??_C@_1M@FHMDOHNN@?$AAf?$AAr?$AA?9?$AAL?$AAU@ 100a6a8c     libucrtd:lcidtoname_downlevel.obj
 0002:00020a98       ??_C@_1BG@NFKKMAFG@?$AAb?$AAs?$AA?9?$AAB?$AAA?$AA?9?$AAL?$AAa?$AAt?$AAn@ 100a6a98     libucrtd:lcidtoname_downlevel.obj
 0002:00020ab0       ??_C@_1O@IMNBEMCI@?$AAs?$AAm?$AAj?$AA?9?$AAS?$AAE@ 100a6ab0     libucrtd:lcidtoname_downlevel.obj
 0002:00020ac0       ??_C@_1M@DHHMBNDP@?$AAa?$AAr?$AA?9?$AAM?$AAA@ 100a6ac0     libucrtd:lcidtoname_downlevel.obj
 0002:00020acc       ??_C@_1M@BNBLJCGH@?$AAe?$AAn?$AA?9?$AAI?$AAE@ 100a6acc     libucrtd:lcidtoname_downlevel.obj
 0002:00020ad8       ??_C@_1M@GEPAFMDL@?$AAe?$AAs?$AA?9?$AAP?$AAA@ 100a6ad8     libucrtd:lcidtoname_downlevel.obj
 0002:00020ae4       ??_C@_1M@OJONDMDL@?$AAf?$AAr?$AA?9?$AAM?$AAC@ 100a6ae4     libucrtd:lcidtoname_downlevel.obj
 0002:00020af0       ??_C@_1BG@OBCNFJB@?$AAs?$AAr?$AA?9?$AAB?$AAA?$AA?9?$AAL?$AAa?$AAt?$AAn@ 100a6af0     libucrtd:lcidtoname_downlevel.obj
 0002:00020b08       ??_C@_1O@KEMEEGPO@?$AAs?$AAm?$AAa?$AA?9?$AAN?$AAO@ 100a6b08     libucrtd:lcidtoname_downlevel.obj
 0002:00020b18       ??_C@_1M@ELMGFODK@?$AAa?$AAr?$AA?9?$AAT?$AAN@ 100a6b18     libucrtd:lcidtoname_downlevel.obj
 0002:00020b24       ??_C@_1M@BHDLHFAF@?$AAe?$AAn?$AA?9?$AAZ?$AAA@ 100a6b24     libucrtd:lcidtoname_downlevel.obj
 0002:00020b30       ??_C@_1M@BMGIGLIF@?$AAe?$AAs?$AA?9?$AAD?$AAO@ 100a6b30     libucrtd:lcidtoname_downlevel.obj
 0002:00020b3c       ??_C@_1BG@CMBHIPBE@?$AAs?$AAr?$AA?9?$AAB?$AAA?$AA?9?$AAC?$AAy?$AAr?$AAl@ 100a6b3c     libucrtd:lcidtoname_downlevel.obj
 0002:00020b54       ??_C@_1O@HEDBLHNP@?$AAs?$AAm?$AAa?$AA?9?$AAS?$AAE@ 100a6b54     libucrtd:lcidtoname_downlevel.obj
 0002:00020b64       ??_C@_1M@DAGCADIM@?$AAa?$AAr?$AA?9?$AAO?$AAM@ 100a6b64     libucrtd:lcidtoname_downlevel.obj
 0002:00020b70       ??_C@_1M@FODLMICG@?$AAe?$AAn?$AA?9?$AAJ?$AAM@ 100a6b70     libucrtd:lcidtoname_downlevel.obj
 0002:00020b7c       ??_C@_1M@DNMLCIHB@?$AAe?$AAs?$AA?9?$AAV?$AAE@ 100a6b7c     libucrtd:lcidtoname_downlevel.obj
 0002:00020b88       ??_C@_1O@EOKHMKJK@?$AAs?$AAm?$AAs?$AA?9?$AAF?$AAI@ 100a6b88     libucrtd:lcidtoname_downlevel.obj
 0002:00020b98       ??_C@_1M@CAFJMKOF@?$AAa?$AAr?$AA?9?$AAY?$AAE@ 100a6b98     libucrtd:lcidtoname_downlevel.obj
 0002:00020ba4       ??_C@_1M@CBFHIJLI@?$AAe?$AAn?$AA?9?$AAC?$AAB@ 100a6ba4     libucrtd:lcidtoname_downlevel.obj
 0002:00020bb0       ??_C@_1M@BGNFLDN@?$AAe?$AAs?$AA?9?$AAC?$AAO@ 100a6bb0     libucrtd:lcidtoname_downlevel.obj
 0002:00020bbc       ??_C@_1O@JMPHMAMC@?$AAs?$AAm?$AAn?$AA?9?$AAF?$AAI@ 100a6bbc     libucrtd:lcidtoname_downlevel.obj
 0002:00020bcc       ??_C@_1M@JLANABKE@?$AAa?$AAr?$AA?9?$AAS?$AAY@ 100a6bcc     libucrtd:lcidtoname_downlevel.obj
 0002:00020bd8       ??_C@_1M@HPKGCFGN@?$AAe?$AAn?$AA?9?$AAB?$AAZ@ 100a6bd8     libucrtd:lcidtoname_downlevel.obj
 0002:00020be4       ??_C@_1M@OLJCMLGM@?$AAe?$AAs?$AA?9?$AAP?$AAE@ 100a6be4     libucrtd:lcidtoname_downlevel.obj
 0002:00020bf0       ??_C@_1M@MKKGFKLE@?$AAa?$AAr?$AA?9?$AAJ?$AAO@ 100a6bf0     libucrtd:lcidtoname_downlevel.obj
 0002:00020bfc       ??_C@_1M@EKPGLDNI@?$AAe?$AAn?$AA?9?$AAT?$AAT@ 100a6bfc     libucrtd:lcidtoname_downlevel.obj
 0002:00020c08       ??_C@_1M@OONGHFHE@?$AAe?$AAs?$AA?9?$AAA?$AAR@ 100a6c08     libucrtd:lcidtoname_downlevel.obj
 0002:00020c14       ??_C@_1M@OOJFGBHE@?$AAa?$AAr?$AA?9?$AAL?$AAB@ 100a6c14     libucrtd:lcidtoname_downlevel.obj
 0002:00020c20       ??_C@_1M@GCEJHNEG@?$AAe?$AAn?$AA?9?$AAZ?$AAW@ 100a6c20     libucrtd:lcidtoname_downlevel.obj
 0002:00020c2c       ??_C@_1M@JNOCAHJI@?$AAe?$AAs?$AA?9?$AAE?$AAC@ 100a6c2c     libucrtd:lcidtoname_downlevel.obj
 0002:00020c38       ??_C@_1M@JEFHPGGB@?$AAa?$AAr?$AA?9?$AAK?$AAW@ 100a6c38     libucrtd:lcidtoname_downlevel.obj
 0002:00020c44       ??_C@_1M@MLKIBJOJ@?$AAe?$AAn?$AA?9?$AAP?$AAH@ 100a6c44     libucrtd:lcidtoname_downlevel.obj
 0002:00020c50       ??_C@_1M@BDNIPEND@?$AAe?$AAs?$AA?9?$AAC?$AAL@ 100a6c50     libucrtd:lcidtoname_downlevel.obj
 0002:00020c5c       ??_C@_1M@MPNMEKBD@?$AAa?$AAr?$AA?9?$AAA?$AAE@ 100a6c5c     libucrtd:lcidtoname_downlevel.obj
 0002:00020c68       ??_C@_1M@KBJALCPI@?$AAe?$AAs?$AA?9?$AAU?$AAY@ 100a6c68     libucrtd:lcidtoname_downlevel.obj
 0002:00020c74       ??_C@_1M@LLCCOAGA@?$AAa?$AAr?$AA?9?$AAB?$AAH@ 100a6c74     libucrtd:lcidtoname_downlevel.obj
 0002:00020c80       ??_C@_1M@PBFNCDEL@?$AAe?$AAs?$AA?9?$AAP?$AAY@ 100a6c80     libucrtd:lcidtoname_downlevel.obj
 0002:00020c8c       ??_C@_1M@EDGINPNP@?$AAa?$AAr?$AA?9?$AAQ?$AAA@ 100a6c8c     libucrtd:lcidtoname_downlevel.obj
 0002:00020c98       ??_C@_1M@MKDBIIJI@?$AAe?$AAs?$AA?9?$AAB?$AAO@ 100a6c98     libucrtd:lcidtoname_downlevel.obj
 0002:00020ca4       ??_C@_1M@CPKKEBLD@?$AAe?$AAs?$AA?9?$AAS?$AAV@ 100a6ca4     libucrtd:lcidtoname_downlevel.obj
 0002:00020cb0       ??_C@_1M@NDBGMMJL@?$AAe?$AAs?$AA?9?$AAH?$AAN@ 100a6cb0     libucrtd:lcidtoname_downlevel.obj
 0002:00020cbc       ??_C@_1M@JIJIBHDP@?$AAe?$AAs?$AA?9?$AAN?$AAI@ 100a6cbc     libucrtd:lcidtoname_downlevel.obj
 0002:00020cc8       ??_C@_1M@CGFMKEEK@?$AAe?$AAs?$AA?9?$AAP?$AAR@ 100a6cc8     libucrtd:lcidtoname_downlevel.obj
 0002:00020cd4       ??_C@_1O@ICJHKIIK@?$AAz?$AAh?$AA?9?$AAC?$AAH?$AAT@ 100a6cd4     libucrtd:lcidtoname_downlevel.obj
 0002:00020ce4       ??_C@_15CLNEJCE@?$AAs?$AAr@ 100a6ce4     libucrtd:lcidtoname_downlevel.obj
 0002:00021410       ??_C@_1M@KAHEKEIG@?$AAa?$AAf?$AA?9?$AAz?$AAa@ 100a7410     libucrtd:lcidtoname_downlevel.obj
 0002:0002141c       ??_C@_1M@GIECOABL@?$AAa?$AAr?$AA?9?$AAa?$AAe@ 100a741c     libucrtd:lcidtoname_downlevel.obj
 0002:00021428       ??_C@_1M@BMLMEKGI@?$AAa?$AAr?$AA?9?$AAb?$AAh@ 100a7428     libucrtd:lcidtoname_downlevel.obj
 0002:00021434       ??_C@_1M@DAPFDGGB@?$AAa?$AAr?$AA?9?$AAd?$AAz@ 100a7434     libucrtd:lcidtoname_downlevel.obj
 0002:00021440       ??_C@_1M@FJNKGKIG@?$AAa?$AAr?$AA?9?$AAe?$AAg@ 100a7440     libucrtd:lcidtoname_downlevel.obj
 0002:0002144c       ??_C@_1M@FLGKKCLO@?$AAa?$AAr?$AA?9?$AAi?$AAq@ 100a744c     libucrtd:lcidtoname_downlevel.obj
 0002:00021458       ??_C@_1M@GNDIPALM@?$AAa?$AAr?$AA?9?$AAj?$AAo@ 100a7458     libucrtd:lcidtoname_downlevel.obj
 0002:00021464       ??_C@_1M@DDMJFMGJ@?$AAa?$AAr?$AA?9?$AAk?$AAw@ 100a7464     libucrtd:lcidtoname_downlevel.obj
 0002:00021470       ??_C@_1M@EJALMLHM@?$AAa?$AAr?$AA?9?$AAl?$AAb@ 100a7470     libucrtd:lcidtoname_downlevel.obj
 0002:0002147c       ??_C@_1M@MOBDBLOC@?$AAa?$AAr?$AA?9?$AAl?$AAy@ 100a747c     libucrtd:lcidtoname_downlevel.obj
 0002:00021488       ??_C@_1M@JAOCLHDH@?$AAa?$AAr?$AA?9?$AAm?$AAa@ 100a7488     libucrtd:lcidtoname_downlevel.obj
 0002:00021494       ??_C@_1M@JHPMKJIE@?$AAa?$AAr?$AA?9?$AAo?$AAm@ 100a7494     libucrtd:lcidtoname_downlevel.obj
 0002:000214a0       ??_C@_1M@OEPGHFNH@?$AAa?$AAr?$AA?9?$AAq?$AAa@ 100a74a0     libucrtd:lcidtoname_downlevel.obj
 0002:000214ac       ??_C@_1M@KJDONENM@?$AAa?$AAr?$AA?9?$AAs?$AAa@ 100a74ac     libucrtd:lcidtoname_downlevel.obj
 0002:000214b8       ??_C@_1M@DMJDKLKM@?$AAa?$AAr?$AA?9?$AAs?$AAy@ 100a74b8     libucrtd:lcidtoname_downlevel.obj
 0002:000214c4       ??_C@_1M@OMFIPEDC@?$AAa?$AAr?$AA?9?$AAt?$AAn@ 100a74c4     libucrtd:lcidtoname_downlevel.obj
 0002:000214d0       ??_C@_1M@IHMHGAON@?$AAa?$AAr?$AA?9?$AAy?$AAe@ 100a74d0     libucrtd:lcidtoname_downlevel.obj
 0002:000214dc       ??_C@_1BG@KDCPGJGB@?$AAa?$AAz?$AA?9?$AAa?$AAz?$AA?9?$AAc?$AAy?$AAr?$AAl@ 100a74dc     libucrtd:lcidtoname_downlevel.obj
 0002:000214f4       ??_C@_1BG@IBCKDDOE@?$AAa?$AAz?$AA?9?$AAa?$AAz?$AA?9?$AAl?$AAa?$AAt?$AAn@ 100a74f4     libucrtd:lcidtoname_downlevel.obj
 0002:0002150c       ??_C@_1M@EGPFDCPD@?$AAb?$AAe?$AA?9?$AAb?$AAy@ 100a750c     libucrtd:lcidtoname_downlevel.obj
 0002:00021518       ??_C@_1M@PCMGMCGC@?$AAb?$AAg?$AA?9?$AAb?$AAg@ 100a7518     libucrtd:lcidtoname_downlevel.obj
 0002:00021524       ??_C@_1M@BJBMFGOB@?$AAb?$AAn?$AA?9?$AAi?$AAn@ 100a7524     libucrtd:lcidtoname_downlevel.obj
 0002:00021530       ??_C@_1BG@EAKMMACD@?$AAb?$AAs?$AA?9?$AAb?$AAa?$AA?9?$AAl?$AAa?$AAt?$AAn@ 100a7530     libucrtd:lcidtoname_downlevel.obj
 0002:00021548       ??_C@_1M@KGADAODK@?$AAc?$AAa?$AA?9?$AAe?$AAs@ 100a7548     libucrtd:lcidtoname_downlevel.obj
 0002:00021554       ??_C@_1M@COAJPDHI@?$AAc?$AAs?$AA?9?$AAc?$AAz@ 100a7554     libucrtd:lcidtoname_downlevel.obj
 0002:00021560       ??_C@_1M@DHBHFONH@?$AAc?$AAy?$AA?9?$AAg?$AAb@ 100a7560     libucrtd:lcidtoname_downlevel.obj
 0002:0002156c       ??_C@_1M@IMGKELGA@?$AAd?$AAa?$AA?9?$AAd?$AAk@ 100a756c     libucrtd:lcidtoname_downlevel.obj
 0002:00021578       ??_C@_1M@NNDGDNGA@?$AAd?$AAe?$AA?9?$AAa?$AAt@ 100a7578     libucrtd:lcidtoname_downlevel.obj
 0002:00021584       ??_C@_1M@IKDBHEEM@?$AAd?$AAe?$AA?9?$AAc?$AAh@ 100a7584     libucrtd:lcidtoname_downlevel.obj
 0002:00021590       ??_C@_1M@GFFOJMCJ@?$AAd?$AAe?$AA?9?$AAd?$AAe@ 100a7590     libucrtd:lcidtoname_downlevel.obj
 0002:0002159c       ??_C@_1M@MDNLKBPM@?$AAd?$AAe?$AA?9?$AAl?$AAi@ 100a759c     libucrtd:lcidtoname_downlevel.obj
 0002:000215a8       ??_C@_1M@NJBEEJNL@?$AAd?$AAe?$AA?9?$AAl?$AAu@ 100a75a8     libucrtd:lcidtoname_downlevel.obj
 0002:000215b4       ??_C@_1O@GNNELBAP@?$AAd?$AAi?$AAv?$AA?9?$AAm?$AAv@ 100a75b4     libucrtd:lcidtoname_downlevel.obj
 0002:000215c4       ??_C@_1M@EJLEOGAE@?$AAe?$AAl?$AA?9?$AAg?$AAr@ 100a75c4     libucrtd:lcidtoname_downlevel.obj
 0002:000215d0       ??_C@_1M@GMPONJN@?$AAe?$AAn?$AA?9?$AAa?$AAu@ 100a75d0     libucrtd:lcidtoname_downlevel.obj
 0002:000215dc       ??_C@_1M@NIDIIPGF@?$AAe?$AAn?$AA?9?$AAb?$AAz@ 100a75dc     libucrtd:lcidtoname_downlevel.obj
 0002:000215e8       ??_C@_1M@JEHMIMFO@?$AAe?$AAn?$AA?9?$AAc?$AAa@ 100a75e8     libucrtd:lcidtoname_downlevel.obj
 0002:000215f4       ??_C@_1M@IGMJCDLA@?$AAe?$AAn?$AA?9?$AAc?$AAb@ 100a75f4     libucrtd:lcidtoname_downlevel.obj
 0002:00021600       ??_C@_1M@BNFIGBKG@?$AAe?$AAn?$AA?9?$AAg?$AAb@ 100a7600     libucrtd:lcidtoname_downlevel.obj
 0002:0002160c       ??_C@_1M@LKIFDIGP@?$AAe?$AAn?$AA?9?$AAi?$AAe@ 100a760c     libucrtd:lcidtoname_downlevel.obj
 0002:00021618       ??_C@_1M@PJKFGCCO@?$AAe?$AAn?$AA?9?$AAj?$AAm@ 100a7618     libucrtd:lcidtoname_downlevel.obj
 0002:00021624       ??_C@_1M@KPPKEPBO@?$AAe?$AAn?$AA?9?$AAn?$AAz@ 100a7624     libucrtd:lcidtoname_downlevel.obj
 0002:00021630       ??_C@_1M@GMDGLDOB@?$AAe?$AAn?$AA?9?$AAp?$AAh@ 100a7630     libucrtd:lcidtoname_downlevel.obj
 0002:0002163c       ??_C@_1M@ONGIBJNA@?$AAe?$AAn?$AA?9?$AAt?$AAt@ 100a763c     libucrtd:lcidtoname_downlevel.obj
 0002:00021648       ??_C@_1M@LLODPCMM@?$AAe?$AAn?$AA?9?$AAu?$AAs@ 100a7648     libucrtd:lcidtoname_downlevel.obj
 0002:00021654       ??_C@_1M@LAKFNPAN@?$AAe?$AAn?$AA?9?$AAz?$AAa@ 100a7654     libucrtd:lcidtoname_downlevel.obj
 0002:00021660       ??_C@_1M@MFNHNHEO@?$AAe?$AAn?$AA?9?$AAz?$AAw@ 100a7660     libucrtd:lcidtoname_downlevel.obj
 0002:0002166c       ??_C@_1M@EJEINPHM@?$AAe?$AAs?$AA?9?$AAa?$AAr@ 100a766c     libucrtd:lcidtoname_downlevel.obj
 0002:00021678       ??_C@_1M@GNKPCCJA@?$AAe?$AAs?$AA?9?$AAb?$AAo@ 100a7678     libucrtd:lcidtoname_downlevel.obj
 0002:00021684       ??_C@_1M@LEEGFONL@?$AAe?$AAs?$AA?9?$AAc?$AAl@ 100a7684     libucrtd:lcidtoname_downlevel.obj
 0002:00021690       ??_C@_1M@KGPDPBDF@?$AAe?$AAs?$AA?9?$AAc?$AAo@ 100a7690     libucrtd:lcidtoname_downlevel.obj
 0002:0002169c       ??_C@_1M@EIAHOHH@?$AAe?$AAs?$AA?9?$AAc?$AAr@ 100a769c     libucrtd:lcidtoname_downlevel.obj
 0002:000216a8       ??_C@_1M@LLPGMBIN@?$AAe?$AAs?$AA?9?$AAd?$AAo@ 100a76a8     libucrtd:lcidtoname_downlevel.obj
 0002:000216b4       ??_C@_1M@DKHMKNJA@?$AAe?$AAs?$AA?9?$AAe?$AAc@ 100a76b4     libucrtd:lcidtoname_downlevel.obj
 0002:000216c0       ??_C@_1M@GKGFPKAP@?$AAe?$AAs?$AA?9?$AAe?$AAs@ 100a76c0     libucrtd:lcidtoname_downlevel.obj
 0002:000216cc       ??_C@_1M@LKHKGDLN@?$AAe?$AAs?$AA?9?$AAg?$AAt@ 100a76cc     libucrtd:lcidtoname_downlevel.obj
 0002:000216d8       ??_C@_1M@HEIIGGJD@?$AAe?$AAs?$AA?9?$AAh?$AAn@ 100a76d8     libucrtd:lcidtoname_downlevel.obj
 0002:000216e4       ??_C@_1M@FBDHPPGD@?$AAe?$AAs?$AA?9?$AAm?$AAx@ 100a76e4     libucrtd:lcidtoname_downlevel.obj
 0002:000216f0       ??_C@_1M@DPAGLNDH@?$AAe?$AAs?$AA?9?$AAn?$AAi@ 100a76f0     libucrtd:lcidtoname_downlevel.obj
 0002:000216fc       ??_C@_1M@MDGOPGDD@?$AAe?$AAs?$AA?9?$AAp?$AAa@ 100a76fc     libucrtd:lcidtoname_downlevel.obj
 0002:00021708       ??_C@_1M@EMAMGBGE@?$AAe?$AAs?$AA?9?$AAp?$AAe@ 100a7708     libucrtd:lcidtoname_downlevel.obj
 0002:00021714       ??_C@_1M@IBMCAOEC@?$AAe?$AAs?$AA?9?$AAp?$AAr@ 100a7714     libucrtd:lcidtoname_downlevel.obj
 0002:00021720       ??_C@_1M@FGMDIJED@?$AAe?$AAs?$AA?9?$AAp?$AAy@ 100a7720     libucrtd:lcidtoname_downlevel.obj
 0002:0002172c       ??_C@_1M@IIDEOLLL@?$AAe?$AAs?$AA?9?$AAs?$AAv@ 100a772c     libucrtd:lcidtoname_downlevel.obj
 0002:00021738       ??_C@_1M@GAOBIPA@?$AAe?$AAs?$AA?9?$AAu?$AAy@ 100a7738     libucrtd:lcidtoname_downlevel.obj
 0002:00021744       ??_C@_1M@JKFFICHJ@?$AAe?$AAs?$AA?9?$AAv?$AAe@ 100a7744     libucrtd:lcidtoname_downlevel.obj
 0002:00021750       ??_C@_1M@PNMLOJDF@?$AAe?$AAt?$AA?9?$AAe?$AAe@ 100a7750     libucrtd:lcidtoname_downlevel.obj
 0002:0002175c       ??_C@_1M@GHHLIKEI@?$AAe?$AAu?$AA?9?$AAe?$AAs@ 100a775c     libucrtd:lcidtoname_downlevel.obj
 0002:00021768       ??_C@_1M@PBNONODE@?$AAf?$AAa?$AA?9?$AAi?$AAr@ 100a7768     libucrtd:lcidtoname_downlevel.obj
 0002:00021774       ??_C@_1M@JEEHPMIL@?$AAf?$AAi?$AA?9?$AAf?$AAi@ 100a7774     libucrtd:lcidtoname_downlevel.obj
 0002:00021780       ??_C@_1M@LMDCNDBA@?$AAf?$AAo?$AA?9?$AAf?$AAo@ 100a7780     libucrtd:lcidtoname_downlevel.obj
 0002:0002178c       ??_C@_1M@JKEOHLDK@?$AAf?$AAr?$AA?9?$AAb?$AAe@ 100a778c     libucrtd:lcidtoname_downlevel.obj
 0002:00021798       ??_C@_1M@NOHADPMI@?$AAf?$AAr?$AA?9?$AAc?$AAa@ 100a7798     libucrtd:lcidtoname_downlevel.obj
 0002:000217a4       ??_C@_1M@KDHIHAEC@?$AAf?$AAr?$AA?9?$AAc?$AAh@ 100a77a4     libucrtd:lcidtoname_downlevel.obj
 0002:000217b0       ??_C@_1M@MMBBFGAK@?$AAf?$AAr?$AA?9?$AAf?$AAr@ 100a77b0     libucrtd:lcidtoname_downlevel.obj
 0002:000217bc       ??_C@_1M@PAFNENNF@?$AAf?$AAr?$AA?9?$AAl?$AAu@ 100a77bc     libucrtd:lcidtoname_downlevel.obj
 0002:000217c8       ??_C@_1M@EOHDJGDD@?$AAf?$AAr?$AA?9?$AAm?$AAc@ 100a77c8     libucrtd:lcidtoname_downlevel.obj
 0002:000217d4       ??_C@_1M@FAPLLOPF@?$AAg?$AAl?$AA?9?$AAe?$AAs@ 100a77d4     libucrtd:lcidtoname_downlevel.obj
 0002:000217e0       ??_C@_1M@FOPBFLOO@?$AAg?$AAu?$AA?9?$AAi?$AAn@ 100a77e0     libucrtd:lcidtoname_downlevel.obj
 0002:000217ec       ??_C@_1M@KBMCINPM@?$AAh?$AAe?$AA?9?$AAi?$AAl@ 100a77ec     libucrtd:lcidtoname_downlevel.obj
 0002:000217f8       ??_C@_1M@BBPHKFPJ@?$AAh?$AAi?$AA?9?$AAi?$AAn@ 100a77f8     libucrtd:lcidtoname_downlevel.obj
 0002:00021804       ??_C@_1M@PMBNDPHD@?$AAh?$AAr?$AA?9?$AAb?$AAa@ 100a7804     libucrtd:lcidtoname_downlevel.obj
 0002:00021810       ??_C@_1M@BPCKOEGE@?$AAh?$AAr?$AA?9?$AAh?$AAr@ 100a7810     libucrtd:lcidtoname_downlevel.obj
 0002:0002181c       ??_C@_1M@GACBMHKE@?$AAh?$AAu?$AA?9?$AAh?$AAu@ 100a781c     libucrtd:lcidtoname_downlevel.obj
 0002:00021828       ??_C@_1M@MILPAJJC@?$AAh?$AAy?$AA?9?$AAa?$AAm@ 100a7828     libucrtd:lcidtoname_downlevel.obj
 0002:00021834       ??_C@_1M@BABBICEC@?$AAi?$AAd?$AA?9?$AAi?$AAd@ 100a7834     libucrtd:lcidtoname_downlevel.obj
 0002:00021840       ??_C@_1M@BIKNHHPF@?$AAi?$AAs?$AA?9?$AAi?$AAs@ 100a7840     libucrtd:lcidtoname_downlevel.obj
 0002:0002184c       ??_C@_1M@NMPCJPHE@?$AAi?$AAt?$AA?9?$AAc?$AAh@ 100a784c     libucrtd:lcidtoname_downlevel.obj
 0002:00021858       ??_C@_1M@GHKGFEDF@?$AAi?$AAt?$AA?9?$AAi?$AAt@ 100a7858     libucrtd:lcidtoname_downlevel.obj
 0002:00021864       ??_C@_1M@NIEJCJJA@?$AAj?$AAa?$AA?9?$AAj?$AAp@ 100a7864     libucrtd:lcidtoname_downlevel.obj
 0002:00021870       ??_C@_1M@JILFNBIM@?$AAk?$AAa?$AA?9?$AAg?$AAe@ 100a7870     libucrtd:lcidtoname_downlevel.obj
 0002:0002187c       ??_C@_1M@PACPMGPH@?$AAk?$AAk?$AA?9?$AAk?$AAz@ 100a787c     libucrtd:lcidtoname_downlevel.obj
 0002:00021888       ??_C@_1M@IELFGMHA@?$AAk?$AAn?$AA?9?$AAi?$AAn@ 100a7888     libucrtd:lcidtoname_downlevel.obj
 0002:00021894       ??_C@_1O@IBBJHCH@?$AAk?$AAo?$AAk?$AA?9?$AAi?$AAn@ 100a7894     libucrtd:lcidtoname_downlevel.obj
 0002:000218a4       ??_C@_1M@DMHAEOGC@?$AAk?$AAo?$AA?9?$AAk?$AAr@ 100a78a4     libucrtd:lcidtoname_downlevel.obj
 0002:000218b0       ??_C@_1M@HBAHBIGA@?$AAk?$AAy?$AA?9?$AAk?$AAg@ 100a78b0     libucrtd:lcidtoname_downlevel.obj
 0002:000218bc       ??_C@_1M@KPMILCJG@?$AAl?$AAt?$AA?9?$AAl?$AAt@ 100a78bc     libucrtd:lcidtoname_downlevel.obj
 0002:000218c8       ??_C@_1M@BDEKKCA@?$AAl?$AAv?$AA?9?$AAl?$AAv@ 100a78c8     libucrtd:lcidtoname_downlevel.obj
 0002:000218d4       ??_C@_1M@ELCKCCJJ@?$AAm?$AAi?$AA?9?$AAn?$AAz@ 100a78d4     libucrtd:lcidtoname_downlevel.obj
 0002:000218e0       ??_C@_1M@CBOOLAPA@?$AAm?$AAk?$AA?9?$AAm?$AAk@ 100a78e0     libucrtd:lcidtoname_downlevel.obj
 0002:000218ec       ??_C@_1M@GPHNBJKN@?$AAm?$AAl?$AA?9?$AAi?$AAn@ 100a78ec     libucrtd:lcidtoname_downlevel.obj
 0002:000218f8       ??_C@_1M@PABJILIG@?$AAm?$AAn?$AA?9?$AAm?$AAn@ 100a78f8     libucrtd:lcidtoname_downlevel.obj
 0002:00021904       ??_C@_1M@FGBKKIPG@?$AAm?$AAr?$AA?9?$AAi?$AAn@ 100a7904     libucrtd:lcidtoname_downlevel.obj
 0002:00021910       ??_C@_1M@NDBPDDAL@?$AAm?$AAs?$AA?9?$AAb?$AAn@ 100a7910     libucrtd:lcidtoname_downlevel.obj
 0002:0002191c       ??_C@_1M@OPIHOOPI@?$AAm?$AAs?$AA?9?$AAm?$AAy@ 100a791c     libucrtd:lcidtoname_downlevel.obj
 0002:00021928       ??_C@_1M@PPDBCNFM@?$AAm?$AAt?$AA?9?$AAm?$AAt@ 100a7928     libucrtd:lcidtoname_downlevel.obj
 0002:00021934       ??_C@_1M@KDJDKMDD@?$AAn?$AAb?$AA?9?$AAn?$AAo@ 100a7934     libucrtd:lcidtoname_downlevel.obj
 0002:00021940       ??_C@_1M@KFCFLMJP@?$AAn?$AAl?$AA?9?$AAb?$AAe@ 100a7940     libucrtd:lcidtoname_downlevel.obj
 0002:0002194c       ??_C@_1M@KPOPDDGO@?$AAn?$AAl?$AA?9?$AAn?$AAl@ 100a794c     libucrtd:lcidtoname_downlevel.obj
 0002:00021958       ??_C@_1M@LJKPEMLN@?$AAn?$AAn?$AA?9?$AAn?$AAo@ 100a7958     libucrtd:lcidtoname_downlevel.obj
 0002:00021964       ??_C@_1M@BDGHHBFL@?$AAn?$AAs?$AA?9?$AAz?$AAa@ 100a7964     libucrtd:lcidtoname_downlevel.obj
 0002:00021970       ??_C@_1M@IDEHOAP@?$AAp?$AAa?$AA?9?$AAi?$AAn@ 100a7970     libucrtd:lcidtoname_downlevel.obj
 0002:0002197c       ??_C@_1M@HDBKGOGH@?$AAp?$AAl?$AA?9?$AAp?$AAl@ 100a797c     libucrtd:lcidtoname_downlevel.obj
 0002:00021988       ??_C@_1M@LJLLCMEH@?$AAp?$AAt?$AA?9?$AAb?$AAr@ 100a7988     libucrtd:lcidtoname_downlevel.obj
 0002:00021994       ??_C@_1M@NCMONAAL@?$AAp?$AAt?$AA?9?$AAp?$AAt@ 100a7994     libucrtd:lcidtoname_downlevel.obj
 0002:000219a0       ??_C@_1O@EAKMAJDN@?$AAq?$AAu?$AAz?$AA?9?$AAb?$AAo@ 100a79a0     libucrtd:lcidtoname_downlevel.obj
 0002:000219b0       ??_C@_1O@BHHPIGDN@?$AAq?$AAu?$AAz?$AA?9?$AAe?$AAc@ 100a79b0     libucrtd:lcidtoname_downlevel.obj
 0002:000219c0       ??_C@_1O@GBAPEKMJ@?$AAq?$AAu?$AAz?$AA?9?$AAp?$AAe@ 100a79c0     libucrtd:lcidtoname_downlevel.obj
 0002:000219d0       ??_C@_1M@CLGLEFBO@?$AAr?$AAo?$AA?9?$AAr?$AAo@ 100a79d0     libucrtd:lcidtoname_downlevel.obj
 0002:000219dc       ??_C@_1M@CEEDODME@?$AAr?$AAu?$AA?9?$AAr?$AAu@ 100a79dc     libucrtd:lcidtoname_downlevel.obj
 0002:000219e8       ??_C@_1M@HPKKKMPP@?$AAs?$AAa?$AA?9?$AAi?$AAn@ 100a79e8     libucrtd:lcidtoname_downlevel.obj
 0002:000219f4       ??_C@_1M@BKMAIGOJ@?$AAs?$AAe?$AA?9?$AAf?$AAi@ 100a79f4     libucrtd:lcidtoname_downlevel.obj
 0002:00021a00       ??_C@_1M@NDPIFLFI@?$AAs?$AAe?$AA?9?$AAn?$AAo@ 100a7a00     libucrtd:lcidtoname_downlevel.obj
 0002:00021a0c       ??_C@_1M@DANKKHJ@?$AAs?$AAe?$AA?9?$AAs?$AAe@ 100a7a0c     libucrtd:lcidtoname_downlevel.obj
 0002:00021a18       ??_C@_1M@PNBLONPJ@?$AAs?$AAk?$AA?9?$AAs?$AAk@ 100a7a18     libucrtd:lcidtoname_downlevel.obj
 0002:00021a24       ??_C@_1M@LFMODOAL@?$AAs?$AAl?$AA?9?$AAs?$AAi@ 100a7a24     libucrtd:lcidtoname_downlevel.obj
 0002:00021a30       ??_C@_1O@DFKOMPG@?$AAs?$AAm?$AAa?$AA?9?$AAn?$AAo@ 100a7a30     libucrtd:lcidtoname_downlevel.obj
 0002:00021a40       ??_C@_1O@NDKPBNNH@?$AAs?$AAm?$AAa?$AA?9?$AAs?$AAe@ 100a7a40     libucrtd:lcidtoname_downlevel.obj
 0002:00021a50       ??_C@_1O@PLLKBHAB@?$AAs?$AAm?$AAj?$AA?9?$AAn?$AAo@ 100a7a50     libucrtd:lcidtoname_downlevel.obj
 0002:00021a60       ??_C@_1O@CLEPOGCA@?$AAs?$AAm?$AAj?$AA?9?$AAs?$AAe@ 100a7a60     libucrtd:lcidtoname_downlevel.obj
 0002:00021a70       ??_C@_1O@DLGJGKMK@?$AAs?$AAm?$AAn?$AA?9?$AAf?$AAi@ 100a7a70     libucrtd:lcidtoname_downlevel.obj
 0002:00021a80       ??_C@_1O@OJDJGAJC@?$AAs?$AAm?$AAs?$AA?9?$AAf?$AAi@ 100a7a80     libucrtd:lcidtoname_downlevel.obj
 0002:00021a90       ??_C@_1M@BOFOGHPB@?$AAs?$AAq?$AA?9?$AAa?$AAl@ 100a7a90     libucrtd:lcidtoname_downlevel.obj
 0002:00021a9c       ??_C@_1BG@LJBBIPGB@?$AAs?$AAr?$AA?9?$AAb?$AAa?$AA?9?$AAc?$AAy?$AAr?$AAl@ 100a7a9c     libucrtd:lcidtoname_downlevel.obj
 0002:00021ab4       ??_C@_1BG@JLBENFOE@?$AAs?$AAr?$AA?9?$AAb?$AAa?$AA?9?$AAl?$AAa?$AAt?$AAn@ 100a7ab4     libucrtd:lcidtoname_downlevel.obj
 0002:00021acc       ??_C@_1BG@KODPNHE@?$AAs?$AAr?$AA?9?$AAs?$AAp?$AA?9?$AAc?$AAy?$AAr?$AAl@ 100a7acc     libucrtd:lcidtoname_downlevel.obj
 0002:00021ae4       ??_C@_1BG@CIOGKHPB@?$AAs?$AAr?$AA?9?$AAs?$AAp?$AA?9?$AAl?$AAa?$AAt?$AAn@ 100a7ae4     libucrtd:lcidtoname_downlevel.obj
 0002:00021afc       ??_C@_1M@NGFJLMAC@?$AAs?$AAv?$AA?9?$AAf?$AAi@ 100a7afc     libucrtd:lcidtoname_downlevel.obj
 0002:00021b08       ??_C@_1M@MPJEJAJC@?$AAs?$AAv?$AA?9?$AAs?$AAe@ 100a7b08     libucrtd:lcidtoname_downlevel.obj
 0002:00021b14       ??_C@_1M@MPNDHLFK@?$AAs?$AAw?$AA?9?$AAk?$AAe@ 100a7b14     libucrtd:lcidtoname_downlevel.obj
 0002:00021b20       ??_C@_1O@KOHBJJI@?$AAs?$AAy?$AAr?$AA?9?$AAs?$AAy@ 100a7b20     libucrtd:lcidtoname_downlevel.obj
 0002:00021b30       ??_C@_1M@LDCEFHA@?$AAt?$AAa?$AA?9?$AAi?$AAn@ 100a7b30     libucrtd:lcidtoname_downlevel.obj
 0002:00021b3c       ??_C@_1M@CNJOFAK@?$AAt?$AAe?$AA?9?$AAi?$AAn@ 100a7b3c     libucrtd:lcidtoname_downlevel.obj
 0002:00021b48       ??_C@_1M@GNAECACD@?$AAt?$AAh?$AA?9?$AAt?$AAh@ 100a7b48     libucrtd:lcidtoname_downlevel.obj
 0002:00021b54       ??_C@_1M@CHBIHOJO@?$AAt?$AAn?$AA?9?$AAz?$AAa@ 100a7b54     libucrtd:lcidtoname_downlevel.obj
 0002:00021b60       ??_C@_1M@GCCMIGPJ@?$AAt?$AAr?$AA?9?$AAt?$AAr@ 100a7b60     libucrtd:lcidtoname_downlevel.obj
 0002:00021b6c       ??_C@_1M@CELMCNBK@?$AAt?$AAt?$AA?9?$AAr?$AAu@ 100a7b6c     libucrtd:lcidtoname_downlevel.obj
 0002:00021b78       ??_C@_1M@KLMCELGA@?$AAu?$AAk?$AA?9?$AAu?$AAa@ 100a7b78     libucrtd:lcidtoname_downlevel.obj
 0002:00021b84       ??_C@_1M@EPAJJAJF@?$AAu?$AAr?$AA?9?$AAp?$AAk@ 100a7b84     libucrtd:lcidtoname_downlevel.obj
 0002:00021b90       ??_C@_1BG@GEGPMCDJ@?$AAu?$AAz?$AA?9?$AAu?$AAz?$AA?9?$AAc?$AAy?$AAr?$AAl@ 100a7b90     libucrtd:lcidtoname_downlevel.obj
 0002:00021ba8       ??_C@_1BG@EGGKJILM@?$AAu?$AAz?$AA?9?$AAu?$AAz?$AA?9?$AAl?$AAa?$AAt?$AAn@ 100a7ba8     libucrtd:lcidtoname_downlevel.obj
 0002:00021bc0       ??_C@_1M@GFOCLFF@?$AAv?$AAi?$AA?9?$AAv?$AAn@ 100a7bc0     libucrtd:lcidtoname_downlevel.obj
 0002:00021bcc       ??_C@_1M@CPAMEDFI@?$AAx?$AAh?$AA?9?$AAz?$AAa@ 100a7bcc     libucrtd:lcidtoname_downlevel.obj
 0002:00021bd8       ??_C@_1O@EBKIFIGN@?$AAz?$AAh?$AA?9?$AAc?$AAh?$AAs@ 100a7bd8     libucrtd:lcidtoname_downlevel.obj
 0002:00021be8       ??_C@_1O@NMHPGANE@?$AAz?$AAh?$AA?9?$AAc?$AAh?$AAt@ 100a7be8     libucrtd:lcidtoname_downlevel.obj
 0002:00021bf8       ??_C@_1M@LPINJOMC@?$AAz?$AAh?$AA?9?$AAc?$AAn@ 100a7bf8     libucrtd:lcidtoname_downlevel.obj
 0002:00021c04       ??_C@_1M@OCJEJODD@?$AAz?$AAh?$AA?9?$AAh?$AAk@ 100a7c04     libucrtd:lcidtoname_downlevel.obj
 0002:00021c10       ??_C@_1M@DNDLJINH@?$AAz?$AAh?$AA?9?$AAm?$AAo@ 100a7c10     libucrtd:lcidtoname_downlevel.obj
 0002:00021c1c       ??_C@_1M@MBFDNDND@?$AAz?$AAh?$AA?9?$AAs?$AAg@ 100a7c1c     libucrtd:lcidtoname_downlevel.obj
 0002:00021c28       ??_C@_1M@IMEPLEPE@?$AAz?$AAh?$AA?9?$AAt?$AAw@ 100a7c28     libucrtd:lcidtoname_downlevel.obj
 0002:00021c34       ??_C@_1M@BBGHNHJP@?$AAz?$AAu?$AA?9?$AAz?$AAa@ 100a7c34     libucrtd:lcidtoname_downlevel.obj
 0002:00021c40       ??_C@_1HO@KHHMOCBO@?$AAm?$AAi?$AAn?$AAk?$AAe?$AAr?$AAn?$AAe?$AAl?$AA?2?$AAc?$AAr?$AAt?$AAs?$AA?2@ 100a7c40     libucrtd:lcidtoname_downlevel.obj
 0002:00021cc0       ??_C@_1EC@MDFDCHIL@?$AA_?$AA_?$AAa?$AAc?$AAr?$AAt?$AA_?$AAD?$AAo?$AAw?$AAn?$AAl?$AAe?$AAv?$AAe@ 100a7cc0     libucrtd:lcidtoname_downlevel.obj
 0002:00021d08       ??_C@_1FO@LFACCMJH@?$AAw?$AAc?$AAs?$AAc?$AAp?$AAy?$AA_?$AAs?$AA?$CI?$AAo?$AAu?$AAt?$AAL?$AAo?$AAc@ 100a7d08     libucrtd:lcidtoname_downlevel.obj
 0002:00021d68       ??_C@_1DE@BCNCAIK@?$AA?$CI?$AA?$CC?$AAI?$AAn?$AAv?$AAa?$AAl?$AAi?$AAd?$AA?5?$AAe?$AAr?$AAr?$AAo?$AAr@ 100a7d68     libucrtd:set_error_mode.obj
 0002:00021da0       ??_C@_1GO@EBFPMMIJ@?$AAm?$AAi?$AAn?$AAk?$AAe?$AAr?$AAn?$AAe?$AAl?$AA?2?$AAc?$AAr?$AAt?$AAs?$AA?2@ 100a7da0     libucrtd:set_error_mode.obj
 0002:00021e10       ??_C@_1CA@LFDHAMEM@?$AA_?$AAs?$AAe?$AAt?$AA_?$AAe?$AAr?$AAr?$AAo?$AAr?$AA_?$AAm?$AAo?$AAd?$AAe@ 100a7e10     libucrtd:set_error_mode.obj
 0002:00021e30       ??_C@_1GA@KCKCPAEB@?$AAd?$AAe?$AAs?$AAt?$AAi?$AAn?$AAa?$AAt?$AAi?$AAo?$AAn?$AA?5?$AA?$CB?$AA?$DN?$AA?5@ 100a7e30     libucrtd:wcrtomb.obj
 0002:00021e90       ??_C@_1GG@IOHNAMEK@?$AAm?$AAi?$AAn?$AAk?$AAe?$AAr?$AAn?$AAe?$AAl?$AA?2?$AAc?$AAr?$AAt?$AAs?$AA?2@ 100a7e90     libucrtd:wcrtomb.obj
 0002:00021ef8       ??_C@_1BLI@DMHDAJEI@?$AAl?$AAo?$AAc?$AAa?$AAl?$AAe?$AA_?$AAu?$AAp?$AAd?$AAa?$AAt?$AAe?$AA?4?$AAG@ 100a7ef8     libucrtd:wcrtomb.obj
 0002:000220b0       ??_C@_1JO@PEAMJHLL@?$AA?$CI?$AAd?$AAe?$AAs?$AAt?$AAi?$AAn?$AAa?$AAt?$AAi?$AAo?$AAn?$AA?5?$AA?$DN?$AA?$DN@ 100a80b0     libucrtd:wcrtomb.obj
 0002:00022150       ??_C@_1BE@BAKHEIOA@?$AAw?$AAc?$AAr?$AAt?$AAo?$AAm?$AAb?$AA_?$AAs@ 100a8150     libucrtd:wcrtomb.obj
 0002:00022164       ??_C@_1CE@HMDIBIP@?$AAs?$AAo?$AAu?$AAr?$AAc?$AAe?$AA?5?$AA?$CB?$AA?$DN?$AA?5?$AAn?$AAu?$AAl?$AAl?$AAp@ 100a8164     libucrtd:wcrtomb.obj
 0002:00022188       ??_C@_1CG@BMBAINBL@?$AAi?$AAn?$AAt?$AAe?$AAr?$AAn?$AAa?$AAl?$AA_?$AAw?$AAc?$AAs?$AAr?$AAt?$AAo@ 100a8188     libucrtd:wcrtomb.obj
 0002:000221b0       ??_C@_1NA@NLPIAHDO@?$AA?$CI?$AAd?$AAe?$AAs?$AAt?$AAi?$AAn?$AAa?$AAt?$AAi?$AAo?$AAn?$AA?5?$AA?$DN?$AA?$DN@ 100a81b0     libucrtd:wcrtomb.obj
 0002:00022280       ??_C@_1BI@JEFNCOO@?$AAw?$AAc?$AAs?$AAr?$AAt?$AAo?$AAm?$AAb?$AAs?$AA_?$AAs@ 100a8280     libucrtd:wcrtomb.obj
 0002:00022298       ??_C@_1DK@PNOJMGLM@?$AAr?$AAe?$AAt?$AAs?$AAi?$AAz?$AAe?$AA?5?$AA?$DM?$AA?$DN?$AA?5?$AAd?$AAe?$AAs?$AAt@ 100a8298     libucrtd:wcrtomb.obj
 0002:000222d4       ??_C@_0DJ@JBBOOIAE@minkernel?2crts?2ucrt?2src?2appcrt?2@ 100a82d4     libucrtd:getlocaleinfoa.obj
 0002:00022310       ??_C@_1HC@KAIIOBKJ@?$AAm?$AAi?$AAn?$AAk?$AAe?$AAr?$AAn?$AAe?$AAl?$AA?2?$AAc?$AAr?$AAt?$AAs?$AA?2@ 100a8310     libucrtd:getlocaleinfoa.obj
 0002:00022384       ??_C@_1CM@LGLMFNOK@?$AA_?$AA_?$AAa?$AAc?$AAr?$AAt?$AA_?$AAG?$AAe?$AAt?$AAL?$AAo?$AAc?$AAa?$AAl@ 100a8384     libucrtd:getlocaleinfoa.obj
 0002:000223b0       ??_C@_1IM@HJPPDDKJ@?$AAs?$AAt?$AAr?$AAn?$AAc?$AAp?$AAy?$AA_?$AAs?$AA?$CI?$AA?$CK?$AAc?$AAh?$AAa?$AAr@ 100a83b0     libucrtd:getlocaleinfoa.obj
 0002:00022488       ??_C@_1FO@CAMPMGCN@?$AAm?$AAi?$AAn?$AAk?$AAe?$AAr?$AAn?$AAe?$AAl?$AA?2?$AAc?$AAr?$AAt?$AAs?$AA?2@ 100a8488     libucrtd:write.obj
 0002:000224e8       ??_C@_1O@KOFKDHPL@?$AA_?$AAw?$AAr?$AAi?$AAt?$AAe@ 100a84e8     libucrtd:write.obj
 0002:000224f8       ??_C@_1CM@OKGMMMDH@?$AA?$CI?$AA_?$AAo?$AAs?$AAf?$AAi?$AAl?$AAe?$AA?$CI?$AAf?$AAh?$AA?$CJ?$AA?5?$AA?$CG?$AA?5@ 100a84f8     libucrtd:write.obj
 0002:00022528       ??_C@_1JE@ECKHFIFP@?$AA?$CI?$AA?$CC?$AAI?$AAn?$AAv?$AAa?$AAl?$AAi?$AAd?$AA?5?$AAf?$AAi?$AAl?$AAe?$AA?5@ 100a8528     libucrtd:write.obj
 0002:000225bc       ??_C@_1CK@MMEFCHHN@?$AA?$CB?$AA_?$AAd?$AAb?$AAc?$AAs?$AAB?$AAu?$AAf?$AAf?$AAe?$AAr?$AAU?$AAs?$AAe@ 100a85bc     libucrtd:write.obj
 0002:000225e8       ??_C@_1EG@LICJGLJJ@?$AA1?$AA?5?$AA?$DM?$AA?5?$AAm?$AAb?$AA_?$AAl?$AAe?$AAn?$AA?5?$AA?$CG?$AA?$CG?$AA?5?$AAm@ 100a85e8     libucrtd:write.obj
 0002:00022630       ??_C@_1FC@NFILPJB@?$AAm?$AAb?$AA_?$AAb?$AAu?$AAf?$AA_?$AAu?$AAs?$AAe?$AAd?$AA?5?$AA?$CL?$AA?5?$AAb@ 100a8630     libucrtd:write.obj
 0002:00022688       ??_C@_1FC@HEJOPHLA@?$AAa?$AAv?$AAa?$AAi?$AAl?$AAa?$AAb?$AAl?$AAe?$AA_?$AAb?$AAy?$AAt?$AAe?$AAs@ 100a8688     libucrtd:write.obj
 0002:000226dc       ??_C@_1DI@CNMHHHLG@?$AAi?$AAs?$AAl?$AAe?$AAa?$AAd?$AAb?$AAy?$AAt?$AAe?$AA?$CI?$AA_?$AAd?$AAb?$AAc@ 100a86dc     libucrtd:write.obj
 0002:00022714       ??_C@_1BM@NCANHCIP@?$AA_?$AAw?$AAr?$AAi?$AAt?$AAe?$AA_?$AAn?$AAo?$AAl?$AAo?$AAc?$AAk@ 100a8714     libucrtd:write.obj
 0002:00022730       ??_C@_1CK@CPEAGIIP@?$AAb?$AAu?$AAf?$AAf?$AAe?$AAr?$AA_?$AAs?$AAi?$AAz?$AAe?$AA?5?$AA?$CF?$AA?5?$AA2@ 100a8730     libucrtd:write.obj
 0002:00022760       ??_C@_1FO@KIIHJNFN@?$AAm?$AAi?$AAn?$AAk?$AAe?$AAr?$AAn?$AAe?$AAl?$AA?2?$AAc?$AAr?$AAt?$AAs?$AA?2@ 100a8760     libucrtd:lseek.obj
 0002:000227c0       ??_C@_1BK@JOMBNFIM@?$AAc?$AAo?$AAm?$AAm?$AAo?$AAn?$AA_?$AAl?$AAs?$AAe?$AAe?$AAk@ 100a87c0     libucrtd:lseek.obj
 0002:000227dc       ??_C@_1DM@LMLOLGJ@?$AA?$CI?$AA?$CC?$AAI?$AAn?$AAv?$AAa?$AAl?$AAi?$AAd?$AA?5?$AAf?$AAi?$AAl?$AAe?$AA?5@ 100a87dc     libucrtd:lseek.obj
 0002:00022818       ??_C@_1GC@DLDMJFMI@?$AAm?$AAi?$AAn?$AAk?$AAe?$AAr?$AAn?$AAe?$AAl?$AA?2?$AAc?$AAr?$AAt?$AAs?$AA?2@ 100a8818     libucrtd:_getbuf.obj
 0002:0002287c       ??_C@_0DB@LKJPMJPL@minkernel?2crts?2ucrt?2src?2appcrt?2@ 100a887c     libucrtd:_getbuf.obj
 0002:000228b0       ??_C@_1GA@DKNOMDCL@?$AAm?$AAi?$AAn?$AAk?$AAe?$AAr?$AAn?$AAe?$AAl?$AA?2?$AAc?$AAr?$AAt?$AAs?$AA?2@ 100a88b0     libucrtd:fclose.obj
 0002:00022910       ??_C@_1O@EGMJNCOI@?$AAf?$AAc?$AAl?$AAo?$AAs?$AAe@ 100a8910     libucrtd:fclose.obj
 0002:00022920       ??_C@_1BO@JINCABEC@?$AA_?$AAf?$AAc?$AAl?$AAo?$AAs?$AAe?$AA_?$AAn?$AAo?$AAl?$AAo?$AAc?$AAk@ 100a8920     libucrtd:fclose.obj
 0002:00022940       ??_C@_1GA@MPOOLHCO@?$AAm?$AAi?$AAn?$AAk?$AAe?$AAr?$AAn?$AAe?$AAl?$AA?2?$AAc?$AAr?$AAt?$AAs?$AA?2@ 100a8940     libucrtd:commit.obj
 0002:000229a0       ??_C@_1BA@FLNMBBIM@?$AA_?$AAc?$AAo?$AAm?$AAm?$AAi?$AAt@ 100a89a0     libucrtd:commit.obj
 0002:000229b0       ??_C@_1BO@JGGHCINF@?$AAl?$AAh?$AAs?$AA?5?$AA?$CB?$AA?$DN?$AA?5?$AAn?$AAu?$AAl?$AAl?$AAp?$AAt?$AAr@ 100a89b0     libucrtd:wcsicmp.obj
 0002:000229d0       ??_C@_1GE@FNNJGCGI@?$AAm?$AAi?$AAn?$AAk?$AAe?$AAr?$AAn?$AAe?$AAl?$AA?2?$AAc?$AAr?$AAt?$AAs?$AA?2@ 100a89d0     libucrtd:wcsicmp.obj
 0002:00022a34       ??_C@_1BG@EELGPCPD@?$AA_?$AAw?$AAc?$AAs?$AAi?$AAc?$AAm?$AAp?$AA_?$AAl@ 100a8a34     libucrtd:wcsicmp.obj
 0002:00022a4c       ??_C@_1BO@FHLPEAOG@?$AAr?$AAh?$AAs?$AA?5?$AA?$CB?$AA?$DN?$AA?5?$AAn?$AAu?$AAl?$AAl?$AAp?$AAt?$AAr@ 100a8a4c     libucrtd:wcsicmp.obj
 0002:00022a6c       ??_C@_1BC@NHIBDOMC@?$AA_?$AAw?$AAc?$AAs?$AAi?$AAc?$AAm?$AAp@ 100a8a6c     libucrtd:wcsicmp.obj
 0002:00022a80       ??_C@_1GG@CLJGPGNE@?$AAm?$AAi?$AAn?$AAk?$AAe?$AAr?$AAn?$AAe?$AAl?$AA?2?$AAc?$AAr?$AAt?$AAs?$AA?2@ 100a8a80     libucrtd:wcsnicmp.obj
 0002:00022ae8       ??_C@_1BI@KLMFNDBC@?$AA_?$AAw?$AAc?$AAs?$AAn?$AAi?$AAc?$AAm?$AAp?$AA_?$AAl@ 100a8ae8     libucrtd:wcsnicmp.obj
 0002:00022b00       ??_C@_1BE@JKOKKFEL@?$AA_?$AAw?$AAc?$AAs?$AAn?$AAi?$AAc?$AAm?$AAp@ 100a8b00     libucrtd:wcsnicmp.obj
 0002:00022b18       ??_C@_1GG@FIFJEMIA@?$AAm?$AAi?$AAn?$AAk?$AAe?$AAr?$AAn?$AAe?$AAl?$AA?2?$AAc?$AAr?$AAt?$AAs?$AA?2@ 100a8b18     libucrtd:strnicmp.obj
 0002:00022b80       ??_C@_1BI@BJLEPLEF@?$AA_?$AAs?$AAt?$AAr?$AAn?$AAi?$AAc?$AAm?$AAp?$AA_?$AAl@ 100a8b80     libucrtd:strnicmp.obj
 0002:00022b98       ??_C@_1BE@BHJDFFNA@?$AA_?$AAs?$AAt?$AAr?$AAn?$AAi?$AAc?$AAm?$AAp@ 100a8b98     libucrtd:strnicmp.obj
 0002:00022bb0       ??_C@_1HK@ELDMAMK@?$AAc?$AAc?$AAh?$AAC?$AAo?$AAu?$AAn?$AAt?$AA1?$AA?$DN?$AA?$DN?$AA0?$AA?5?$AA?$CG?$AA?$CG@ 100a8bb0     libucrtd:comparestringa.obj
 0002:00022c30       ??_C@_1HC@NLKDIKED@?$AAm?$AAi?$AAn?$AAk?$AAe?$AAr?$AAn?$AAe?$AAl?$AA?2?$AAc?$AAr?$AAt?$AAs?$AA?2@ 100a8c30     libucrtd:comparestringa.obj
 0002:00022ca4       ??_C@_0DJ@MBLHFEOE@minkernel?2crts?2ucrt?2src?2appcrt?2@ 100a8ca4     libucrtd:comparestringa.obj
 0002:00022e58       ??_C@_03MGHMBJCF@log@      100a8e58     libucrtd:libm_error.obj
 0002:00022e5c       ??_C@_05HGHHAHAP@log10@    100a8e5c     libucrtd:libm_error.obj
 0002:00022e64       ??_C@_03KHJOGHMM@exp@      100a8e64     libucrtd:libm_error.obj
 0002:00022e68       ??_C@_03JGHBODFD@pow@      100a8e68     libucrtd:libm_error.obj
 0002:00022e6c       ??_C@_04FIHNOPOL@asin@     100a8e6c     libucrtd:libm_error.obj
 0002:00022e74       ??_C@_04PDIFKINK@acos@     100a8e74     libucrtd:libm_error.obj
 0002:00022e7c       ??_C@_04EIAKFFMI@sqrt@     100a8e7c     libucrtd:libm_error.obj
 0002:00022e88       __real@3ff0000000000000    100a8e88     libucrtd:libm_error.obj
 0002:00022e98       ??_C@_1GE@KFPKEKCH@?$AAm?$AAi?$AAn?$AAk?$AAe?$AAr?$AAn?$AAe?$AAl?$AA?2?$AAc?$AAr?$AAt?$AAs?$AA?2@ 100a8e98     libucrtd:ieee87.obj
 0002:00022efc       ??_C@_1BO@OFDNCLL@?$AA_?$AAs?$AAe?$AAt?$AA_?$AAc?$AAo?$AAn?$AAt?$AAr?$AAo?$AAl?$AAf?$AAp@ 100a8efc     libucrtd:ieee87.obj
 0002:00022f20       ??_C@_1GO@OKJGOMCB@?$AA_?$AAc?$AAo?$AAn?$AAt?$AAr?$AAo?$AAl?$AAf?$AAp?$AA_?$AAs?$AA?$CI?$AA?$CI?$AA?$CI@ 100a8f20     libucrtd:ieee87.obj
 0002:00022f90       ??_C@_1FM@PHKGHLIO@?$AAm?$AAi?$AAn?$AAk?$AAe?$AAr?$AAn?$AAe?$AAl?$AA?2?$AAc?$AAr?$AAt?$AAs?$AA?2@ 100a8f90     libucrtd:read.obj
 0002:00022fec       ??_C@_1M@NHJOLLDM@?$AA_?$AAr?$AAe?$AAa?$AAd@ 100a8fec     libucrtd:read.obj
 0002:00022ff8       ??_C@_1CO@OPEPDLLF@?$AAb?$AAu?$AAf?$AAf?$AAe?$AAr?$AA_?$AAs?$AAi?$AAz?$AAe?$AA?5?$AA?$DM?$AA?$DN?$AA?5@ 100a8ff8     libucrtd:read.obj
 0002:00023028       ??_C@_1BK@JJBHNDKJ@?$AA_?$AAr?$AAe?$AAa?$AAd?$AA_?$AAn?$AAo?$AAl?$AAo?$AAc?$AAk@ 100a9028     libucrtd:read.obj
 0002:00023044       ??_C@_1DM@JEAHBMKI@?$AAr?$AAe?$AAs?$AAu?$AAl?$AAt?$AA_?$AAb?$AAu?$AAf?$AAf?$AAe?$AAr?$AA_?$AAs@ 100a9044     libucrtd:read.obj
 0002:00023080       ??_C@_1DI@CDGOMPDO@?$AAr?$AAe?$AAs?$AAu?$AAl?$AAt?$AA_?$AAb?$AAu?$AAf?$AAf?$AAe?$AAr?$AA_?$AAs@ 100a9080     libucrtd:read.obj
 0002:000230b8       ??_C@_0CO@JFNFJHLC@minkernel?2crts?2ucrt?2src?2appcrt?2@ 100a90b8     libucrtd:read.obj
 0002:000230e8       ??_C@_1DM@HGBOAKPP@?$AA?$CI?$AAr?$AAe?$AAs?$AAu?$AAl?$AAt?$AA_?$AAb?$AAu?$AAf?$AAf?$AAe?$AAr?$AA_@ 100a90e8     libucrtd:read.obj
 0002:00023128       ??_C@_1FO@IPDGALOE@?$AAm?$AAi?$AAn?$AAk?$AAe?$AAr?$AAn?$AAe?$AAl?$AA?2?$AAc?$AAr?$AAt?$AAs?$AA?2@ 100a9128     libucrtd:close.obj
 0002:00023188       ??_C@_1O@EDEJGJBM@?$AA_?$AAc?$AAl?$AAo?$AAs?$AAe@ 100a9188     libucrtd:close.obj
 0002:00023198       ??_C@_0DA@OGKFKCBE@minkernel?2crts?2ucrt?2src?2appcrt?2@ 100a9198     libucrtd:stream.obj
 0002:000231d0       __infinity                 100a91d0     libucrtd:87tran.obj
 0002:000231da       __minfinity                100a91da     libucrtd:87tran.obj
 0002:000231e4       __logemax                  100a91e4     libucrtd:87tran.obj
 0002:0002320a       __OP_EXPjmptab             100a920a     libucrtd:87tran.obj
 0002:00023230       __indefinite               100a9230     libucrtd:87disp.obj
 0002:0002323a       __piby2                    100a923a     libucrtd:87disp.obj
 0002:00023244       __piby4                    100a9244     libucrtd:87disp.obj
 0002:00023278       __DEFAULT_CW_in_mem        100a9278     libucrtd:common.obj
 0002:0002327a       __pi_by_2_to_61            100a927a     libucrtd:common.obj
 0002:000232c0       ___acrt_log10_table_t      100a92c0     libucrtd:log10_tables.obj
 0002:000236d0       ___acrt_log10_table_cb     100a96d0     libucrtd:log10_tables.obj
 0002:00023bc8       ??_C@_04COOMCNPB@sinh@     100a9bc8     libucrtd:fpexcept.obj
 0002:00023bd0       ??_C@_04HPJJNFIM@cosh@     100a9bd0     libucrtd:fpexcept.obj
 0002:00023bd8       ??_C@_04FJHINJAO@tanh@     100a9bd8     libucrtd:fpexcept.obj
 0002:00023be0       ??_C@_04MLLJIGOK@atan@     100a9be0     libucrtd:fpexcept.obj
 0002:00023be8       ??_C@_05KNGEOGJB@atan2@    100a9be8     libucrtd:fpexcept.obj
 0002:00023bf0       ??_C@_03BLEJJJBH@sin@      100a9bf0     libucrtd:fpexcept.obj
 0002:00023bf4       ??_C@_03LALBNOCG@cos@      100a9bf4     libucrtd:fpexcept.obj
 0002:00023bf8       ??_C@_03IIINPABG@tan@      100a9bf8     libucrtd:fpexcept.obj
 0002:00023bfc       ??_C@_04GFPJNGEK@ceil@     100a9bfc     libucrtd:fpexcept.obj
 0002:00023c04       ??_C@_05PBJFFIGL@floor@    100a9c04     libucrtd:fpexcept.obj
 0002:00023c0c       ??_C@_04ODHECPBC@fabs@     100a9c0c     libucrtd:fpexcept.obj
 0002:00023c14       ??_C@_04EHEDPDJG@modf@     100a9c14     libucrtd:fpexcept.obj
 0002:00023c1c       ??_C@_05CEJMAHNP@ldexp@    100a9c1c     libucrtd:fpexcept.obj
 0002:00023c24       ??_C@_05KBKMEMPO@_cabs@    100a9c24     libucrtd:fpexcept.obj
 0002:00023c2c       ??_C@_06MEIMCGCF@_hypot@   100a9c2c     libucrtd:fpexcept.obj
 0002:00023c34       ??_C@_04KEPJIHGP@fmod@     100a9c34     libucrtd:fpexcept.obj
 0002:00023c3c       ??_C@_05GKKHEGJL@frexp@    100a9c3c     libucrtd:fpexcept.obj
 0002:00023c44       ??_C@_03MJLDFKDL@_y0@      100a9c44     libucrtd:fpexcept.obj
 0002:00023c48       ??_C@_03NAKIGLHK@_y1@      100a9c48     libucrtd:fpexcept.obj
 0002:00023c4c       ??_C@_03ONILCKOB@_yn@      100a9c4c     libucrtd:fpexcept.obj
 0002:00023c50       ??_C@_05JGDBENOH@_logb@    100a9c50     libucrtd:fpexcept.obj
 0002:00023c58       ??_C@_0L@KDOEJCKC@_nextafter@ 100a9c58     libucrtd:fpexcept.obj
 0002:00023c68       __real@0000000000000000    100a9c68     libucrtd:fpexcept.obj
 0002:00023c70       __d_inf                    100a9c70     libucrtd:util.obj
 0002:00023c78       __d_ind                    100a9c78     libucrtd:util.obj
 0002:00023c80       __d_max                    100a9c80     libucrtd:util.obj
 0002:00023c88       __d_min                    100a9c88     libucrtd:util.obj
 0002:00023c90       __d_mzero                  100a9c90     libucrtd:util.obj
 0002:00023cb0       ??_C@_1DG@JNDMIEJL@?$AA?$CI?$AA?$CC?$AAI?$AAn?$AAv?$AAa?$AAl?$AAi?$AAd?$AA?5?$AAi?$AAn?$AAp?$AAu?$AAt@ 100a9cb0     libucrtd:contrlfp.obj
 0002:00023ce8       ??_C@_1FO@HHLKCIKB@?$AAm?$AAi?$AAn?$AAk?$AAe?$AAr?$AAn?$AAe?$AAl?$AA?2?$AAc?$AAr?$AAt?$AAs?$AA?2@ 100a9ce8     libucrtd:contrlfp.obj
 0002:00023d48       ??_C@_1BK@CDOALEA@?$AA_?$AAc?$AAo?$AAn?$AAt?$AAr?$AAo?$AAl?$AAf?$AAp?$AA_?$AAs@ 100a9d48     libucrtd:contrlfp.obj
 0002:00023d64       ??_C@_1BA@BALFACEM@?$AAC?$AAO?$AAN?$AAO?$AAU?$AAT?$AA$@ 100a9d64     libucrtd:initcon.obj
 0002:00023d78       __real@4000000000000000    100a9d78     libucrtd:powhlp.obj
 0002:00023d80       __real@00000000            100a9d80     libucrtd:ieeemisc.obj
 0002:00023e38       __load_config_used         100a9e38     LIBCMTD:loadcfg.obj
 0002:00023edc       ??_R4exception@std@@6B@    100a9edc     LIBCMTD:throw_bad_alloc.obj
 0002:00023ef0       ??_R3exception@std@@8      100a9ef0     LIBCMTD:throw_bad_alloc.obj
 0002:00023f00       ??_R2exception@std@@8      100a9f00     LIBCMTD:throw_bad_alloc.obj
 0002:00023f08       ??_R1A@?0A@EA@exception@std@@8 100a9f08     LIBCMTD:throw_bad_alloc.obj
 0002:00023f24       ??_R4bad_alloc@std@@6B@    100a9f24     LIBCMTD:throw_bad_alloc.obj
 0002:00023f38       ??_R3bad_alloc@std@@8      100a9f38     LIBCMTD:throw_bad_alloc.obj
 0002:00023f48       ??_R2bad_alloc@std@@8      100a9f48     LIBCMTD:throw_bad_alloc.obj
 0002:00023f54       ??_R1A@?0A@EA@bad_alloc@std@@8 100a9f54     LIBCMTD:throw_bad_alloc.obj
 0002:00023f70       ??_R4bad_array_new_length@std@@6B@ 100a9f70     LIBCMTD:throw_bad_alloc.obj
 0002:00023f84       ??_R3bad_array_new_length@std@@8 100a9f84     LIBCMTD:throw_bad_alloc.obj
 0002:00023f94       ??_R2bad_array_new_length@std@@8 100a9f94     LIBCMTD:throw_bad_alloc.obj
 0002:00023fa4       ??_R1A@?0A@EA@bad_array_new_length@std@@8 100a9fa4     LIBCMTD:throw_bad_alloc.obj
 0002:00023fc0       ??_R4type_info@@6B@        100a9fc0     LIBCMTD:std_type_info_static.obj
 0002:00023fd4       ??_R3type_info@@8          100a9fd4     LIBCMTD:std_type_info_static.obj
 0002:00023fe4       ??_R2type_info@@8          100a9fe4     LIBCMTD:std_type_info_static.obj
 0002:00023fec       ??_R1A@?0A@EA@type_info@@8 100a9fec     LIBCMTD:std_type_info_static.obj
 0002:00024008       ??_R4bad_exception@std@@6B@ 100aa008     libvcruntimed:frame.obj
 0002:0002401c       ??_R3bad_exception@std@@8  100aa01c     libvcruntimed:frame.obj
 0002:0002402c       ??_R2bad_exception@std@@8  100aa02c     libvcruntimed:frame.obj
 0002:00024038       ??_R1A@?0A@EA@bad_exception@std@@8 100aa038     libvcruntimed:frame.obj
 0002:00024054       ??_R4DNameNode@@6B@        100aa054     libvcruntimed:undname.obj
 0002:00024068       ??_R3DNameNode@@8          100aa068     libvcruntimed:undname.obj
 0002:00024078       ??_R2DNameNode@@8          100aa078     libvcruntimed:undname.obj
 0002:00024080       ??_R1A@?0A@EA@DNameNode@@8 100aa080     libvcruntimed:undname.obj
 0002:0002409c       ??_R4charNode@@6B@         100aa09c     libvcruntimed:undname.obj
 0002:000240b0       ??_R3charNode@@8           100aa0b0     libvcruntimed:undname.obj
 0002:000240c0       ??_R2charNode@@8           100aa0c0     libvcruntimed:undname.obj
 0002:000240cc       ??_R1A@?0A@EA@charNode@@8  100aa0cc     libvcruntimed:undname.obj
 0002:000240e8       ??_R4pcharNode@@6B@        100aa0e8     libvcruntimed:undname.obj
 0002:000240fc       ??_R3pcharNode@@8          100aa0fc     libvcruntimed:undname.obj
 0002:0002410c       ??_R2pcharNode@@8          100aa10c     libvcruntimed:undname.obj
 0002:00024118       ??_R1A@?0A@EA@pcharNode@@8 100aa118     libvcruntimed:undname.obj
 0002:00024134       ??_R4pDNameNode@@6B@       100aa134     libvcruntimed:undname.obj
 0002:00024148       ??_R3pDNameNode@@8         100aa148     libvcruntimed:undname.obj
 0002:00024158       ??_R2pDNameNode@@8         100aa158     libvcruntimed:undname.obj
 0002:00024164       ??_R1A@?0A@EA@pDNameNode@@8 100aa164     libvcruntimed:undname.obj
 0002:00024180       ??_R4DNameStatusNode@@6B@  100aa180     libvcruntimed:undname.obj
 0002:00024194       ??_R3DNameStatusNode@@8    100aa194     libvcruntimed:undname.obj
 0002:000241a4       ??_R2DNameStatusNode@@8    100aa1a4     libvcruntimed:undname.obj
 0002:000241b0       ??_R1A@?0A@EA@DNameStatusNode@@8 100aa1b0     libvcruntimed:undname.obj
 0002:000241cc       ??_R4pairNode@@6B@         100aa1cc     libvcruntimed:undname.obj
 0002:000241e0       ??_R3pairNode@@8           100aa1e0     libvcruntimed:undname.obj
 0002:000241f0       ??_R2pairNode@@8           100aa1f0     libvcruntimed:undname.obj
 0002:000241fc       ??_R1A@?0A@EA@pairNode@@8  100aa1fc     libvcruntimed:undname.obj
 0002:00024220       ___safe_se_handler_table   100aa220     <linker-defined>
 0002:000245f8       ___rtc_iaa                 100aa5f8     LIBCMTD:initsect.obj
 0002:00024604       ___rtc_izz                 100aa604     LIBCMTD:initsect.obj
 0002:00024608       ___rtc_taa                 100aa608     LIBCMTD:initsect.obj
 0002:00024614       ___rtc_tzz                 100aa614     LIBCMTD:initsect.obj
 0002:0002470c       __TI2?AVbad_alloc@std@@    100aa70c     LIBCMTD:throw_bad_alloc.obj
 0002:0002471c       __CTA2?AVbad_alloc@std@@   100aa71c     LIBCMTD:throw_bad_alloc.obj
 0002:00024728       __CT??_R0?AVbad_alloc@std@@@8??0bad_alloc@std@@QAE@ABV01@@Z12 100aa728     LIBCMTD:throw_bad_alloc.obj
 0002:00024744       __CT??_R0?AVexception@std@@@8??0exception@std@@QAE@ABV01@@Z12 100aa744     LIBCMTD:throw_bad_alloc.obj
 0002:00024760       __TI3?AVbad_array_new_length@std@@ 100aa760     LIBCMTD:throw_bad_alloc.obj
 0002:00024770       __CTA3?AVbad_array_new_length@std@@ 100aa770     LIBCMTD:throw_bad_alloc.obj
 0002:00024780       __CT??_R0?AVbad_array_new_length@std@@@8??0bad_array_new_length@std@@QAE@ABV01@@Z12 100aa780     LIBCMTD:throw_bad_alloc.obj
 0002:00024884       __TI2?AVbad_exception@std@@ 100aa884     libvcruntimed:frame.obj
 0002:00024894       __CTA2?AVbad_exception@std@@ 100aa894     libvcruntimed:frame.obj
 0002:000248a0       __CT??_R0?AVbad_exception@std@@@8??0bad_exception@std@@QAE@ABV01@@Z12 100aa8a0     libvcruntimed:frame.obj
 0002:0002533c       ___pobjMapEntryFirst       100ab33c     StdAfx.obj
 0002:00025340       ___pobjMapEntryLast        100ab340     StdAfx.obj
 0002:000253fc       __IMPORT_DESCRIPTOR_KERNEL32 100ab3fc     kernel32:KERNEL32.dll
 0002:00025410       __IMPORT_DESCRIPTOR_USER32 100ab410     user32:USER32.dll
 0002:00025424       __IMPORT_DESCRIPTOR_ADVAPI32 100ab424     advapi32:ADVAPI32.dll
 0002:00025438       __IMPORT_DESCRIPTOR_ole32  100ab438     ole32:ole32.dll
 0002:0002544c       __IMPORT_DESCRIPTOR_OLEAUT32 100ab44c     oleaut32:OLEAUT32.dll
 0002:00025460       __NULL_IMPORT_DESCRIPTOR   100ab460     kernel32:KERNEL32.dll
 0003:00000000       ?m_nCategory@CTrace@ATL@@1IA 100ac000     StdAfx.obj
 0003:00000004       ___scrt_native_dllmain_reason 100ac004     LIBCMTD:utility.obj
 0003:00000008       ___security_cookie_complement 100ac008     LIBCMTD:gs_cookie.obj
 0003:0000000c       ___security_cookie         100ac00c     LIBCMTD:gs_cookie.obj
 0003:00000010       ___isa_enabled             100ac010     LIBCMTD:cpu_disp.obj
 0003:00000014       ?_RTC_ErrorLevels@@3PAHA   100ac014     LIBCMTD:error.obj
 0003:00000040       __NLG_Destination          100ac040     libvcruntimed:exsup.obj
 0003:0000005c       __crtDbgFlag               100ac05c     libucrtd:debug_heap.obj
 0003:00000060       __crtBreakAlloc            100ac060     libucrtd:debug_heap.obj
 0003:00000070       ___abort_behavior          100ac070     libucrtd:abort.obj
 0003:00000080       __crtAssertBusy            100ac080     libucrtd:dbgrptt.obj
 0003:00000084       __CrtDbgMode               100ac084     libucrtd:dbgrptt.obj
 0003:00000090       __CrtDbgFile               100ac090     libucrtd:dbgrptt.obj
 0003:000000a8       __iob                      100ac0a8     libucrtd:_file.obj
 0003:00000158       ___acrt_initial_locale_data 100ac158     libucrtd:nlsdata.obj
 0003:00000210       ___acrt_initial_locale_pointers 100ac210     libucrtd:nlsdata.obj
 0003:00000218       ___acrt_wide_c_locale_string 100ac218     libucrtd:nlsdata.obj
 0003:0000021c       ___mb_cur_max              100ac21c     libucrtd:nlsdata.obj
 0003:00000220       ___badioinfo               100ac220     libucrtd:ioinit.obj
 0003:00000258       ___acrt_initial_multibyte_data 100ac258     libucrtd:mbctype.obj
 0003:00000778       __pfnAllocHook             100ac778     libucrtd:debug_heap_hook.obj
 0003:0000077c       ___globallocalestatus      100ac77c     libucrtd:glstatus.obj
 0003:00000780       __pctype                   100ac780     libucrtd:ctype.obj
 0003:00000784       __pwctype                  100ac784     libucrtd:ctype.obj
 0003:00000788       ___acrt_lconv_c            100ac788     libucrtd:localeconv.obj
 0003:000007d8       ___acrt_lconv              100ac7d8     libucrtd:localeconv.obj
 0003:000007dc       ___acrt_lconv_static_decimal 100ac7dc     libucrtd:localeconv.obj
 0003:000007e0       ___acrt_lconv_static_W_decimal 100ac7e0     libucrtd:localeconv.obj
 0003:000007f0       __lookuptrailbytes         100ac7f0     libucrtd:read.obj
 0003:00000900       __fltused                  100ac900     LIBCMTD:fltused.obj
 0003:00000910       ??_R0?AVbad_alloc@std@@@8  100ac910     LIBCMTD:throw_bad_alloc.obj
 0003:0000092c       ??_R0?AVexception@std@@@8  100ac92c     LIBCMTD:throw_bad_alloc.obj
 0003:00000948       ??_R0?AVbad_array_new_length@std@@@8 100ac948     LIBCMTD:throw_bad_alloc.obj
 0003:00000970       ??_R0?AVtype_info@@@8      100ac970     LIBCMTD:std_type_info_static.obj
 0003:00000988       ??_R0?AVbad_exception@std@@@8 100ac988     libvcruntimed:frame.obj
 0003:000009a8       ??_R0?AVDNameNode@@@8      100ac9a8     libvcruntimed:undname.obj
 0003:000009c0       ??_R0?AVcharNode@@@8       100ac9c0     libvcruntimed:undname.obj
 0003:000009d8       ??_R0?AVpcharNode@@@8      100ac9d8     libvcruntimed:undname.obj
 0003:000009f0       ??_R0?AVpDNameNode@@@8     100ac9f0     libvcruntimed:undname.obj
 0003:00000a0c       ??_R0?AVDNameStatusNode@@@8 100aca0c     libvcruntimed:undname.obj
 0003:00000a2c       ??_R0?AVpairNode@@@8       100aca2c     libvcruntimed:undname.obj
 0003:00000a48       ?_pPerfRegFunc@ATL@@3P6AJPAUHINSTANCE__@@@ZA 100aca48     StdAfx.obj
 0003:00000a4c       ?_pPerfUnRegFunc@ATL@@3P6AJXZA 100aca4c     StdAfx.obj
 0003:00000a50       ?_AtlRegisterPerUser@ATL@@3_NA 100aca50     StdAfx.obj
 0003:00000a54       ?_pAtlModule@ATL@@3PAVCAtlModule@1@A 100aca54     StdAfx.obj
 0003:00000a58       ?_pModule@ATL@@3PAVCComModule@1@A 100aca58     StdAfx.obj
 0003:00000a5c       ?_pAtlAutoThreadModule@ATL@@3PAUIAtlAutoThreadModule@1@A 100aca5c     StdAfx.obj
 0003:00000a60       ?WM_ATLGETHOST@ATL@@3IA    100aca60     StdAfx.obj
 0003:00000a64       ?WM_ATLGETCONTROL@ATL@@3IA 100aca64     StdAfx.obj
 0003:00000a68       ?_OptionsStorage@?1??__local_stdio_printf_options@@9@4_KA 100aca68     StdAfx.obj
 0003:00000a70       ?atlTraceGeneral@ATL@@3V?$CTraceCategoryEx@$00$0A@@1@A 100aca70     StdAfx.obj
 0003:00000a74       ?atlTraceCOM@ATL@@3V?$CTraceCategoryEx@$01$0A@@1@A 100aca74     StdAfx.obj
 0003:00000a78       ?atlTraceQI@ATL@@3V?$CTraceCategoryEx@$03$0A@@1@A 100aca78     StdAfx.obj
 0003:00000a7c       ?atlTraceRegistrar@ATL@@3V?$CTraceCategoryEx@$07$0A@@1@A 100aca7c     StdAfx.obj
 0003:00000a80       ?atlTraceRefcount@ATL@@3V?$CTraceCategoryEx@$0BA@$0A@@1@A 100aca80     StdAfx.obj
 0003:00000a84       ?atlTraceWindowing@ATL@@3V?$CTraceCategoryEx@$0CA@$0A@@1@A 100aca84     StdAfx.obj
 0003:00000a88       ?atlTraceControls@ATL@@3V?$CTraceCategoryEx@$0EA@$0A@@1@A 100aca88     StdAfx.obj
 0003:00000a8c       ?atlTraceHosting@ATL@@3V?$CTraceCategoryEx@$0IA@$0A@@1@A 100aca8c     StdAfx.obj
 0003:00000a90       ?atlTraceDBClient@ATL@@3V?$CTraceCategoryEx@$0BAA@$0A@@1@A 100aca90     StdAfx.obj
 0003:00000a94       ?atlTraceDBProvider@ATL@@3V?$CTraceCategoryEx@$0CAA@$0A@@1@A 100aca94     StdAfx.obj
 0003:00000a98       ?atlTraceSnapin@ATL@@3V?$CTraceCategoryEx@$0EAA@$0A@@1@A 100aca98     StdAfx.obj
 0003:00000a9c       ?atlTraceNotImpl@ATL@@3V?$CTraceCategoryEx@$0IAA@$0A@@1@A 100aca9c     StdAfx.obj
 0003:00000aa0       ?atlTraceAllocation@ATL@@3V?$CTraceCategoryEx@$0BAAA@$0A@@1@A 100acaa0     StdAfx.obj
 0003:00000aa4       ?atlTraceException@ATL@@3V?$CTraceCategoryEx@$0CAAA@$0A@@1@A 100acaa4     StdAfx.obj
 0003:00000aa8       ?atlTraceTime@ATL@@3V?$CTraceCategoryEx@$0EAAA@$0A@@1@A 100acaa8     StdAfx.obj
 0003:00000aac       ?atlTraceCache@ATL@@3V?$CTraceCategoryEx@$0IAAA@$0A@@1@A 100acaac     StdAfx.obj
 0003:00000ab0       ?atlTraceStencil@ATL@@3V?$CTraceCategoryEx@$0BAAAA@$0A@@1@A 100acab0     StdAfx.obj
 0003:00000ab4       ?atlTraceString@ATL@@3V?$CTraceCategoryEx@$0CAAAA@$0A@@1@A 100acab4     StdAfx.obj
 0003:00000ab8       ?atlTraceMap@ATL@@3V?$CTraceCategoryEx@$0EAAAA@$0A@@1@A 100acab8     StdAfx.obj
 0003:00000abc       ?atlTraceUtil@ATL@@3V?$CTraceCategoryEx@$0IAAAA@$0A@@1@A 100acabc     StdAfx.obj
 0003:00000ac0       ?atlTraceSecurity@ATL@@3V?$CTraceCategoryEx@$0BAAAAA@$0A@@1@A 100acac0     StdAfx.obj
 0003:00000ac4       ?atlTraceSync@ATL@@3V?$CTraceCategoryEx@$0CAAAAA@$0A@@1@A 100acac4     StdAfx.obj
 0003:00000ac8       ?atlTraceISAPI@ATL@@3V?$CTraceCategoryEx@$0EAAAAA@$0A@@1@A 100acac8     StdAfx.obj
 0003:00000acc       ?m_nLevel@CTrace@ATL@@1IA  100acacc     StdAfx.obj
 0003:00000ad0       ?m_nLastCategory@CTrace@ATL@@1IA 100acad0     StdAfx.obj
 0003:00000ad8       ?m_nMap@CTrace@ATL@@1PAUCategoryMap@12@A 100acad8     StdAfx.obj
 0003:00002b58       ?m_bInitFailed@CAtlBaseModule@ATL@@2_NA 100aeb58     StdAfx.obj
 0003:00002b5c       ?_AtlComModule@ATL@@3VCAtlComModule@1@A 100aeb5c     StdAfx.obj
 0003:00002b84       ?_AtlWinModule@ATL@@3VCAtlWinModule@1@A 100aeb84     StdAfx.obj
 0003:00002bb0       ?m_libid@CAtlModule@ATL@@2U_GUID@@A 100aebb0     OposInternals.obj
 0003:00002bc0       ?pfnRegDeleteKeyEx@?1??DeleteSubKey@CRegKey@ATL@@QAEJPB_W@Z@4P6GJPAUHKEY__@@0KK@ZA 100aebc0     OposInternals.obj
 0003:00002bc4       ?bInitialized@?1??DeleteSubKey@CRegKey@ATL@@QAEJPB_W@Z@4_NA 100aebc4     OposInternals.obj
 0003:00002bc8       ?_Module@@3VCComModule@ATL@@A 100aebc8     OposInternals.obj
 0003:00002c1c       ?_AtlBaseModule@ATL@@3VCAtlBaseModule@1@A 100aec1c     atls:atlbase.obj
 0003:00002c54       ___@@_PchSym_@00@UztvmgUPdlipUDUhUrmgvinvwrzgvUexgllohUzgohOmzgrevkilqPBACIAJCBDBUlyqiUcIGUhgwzucOlyq@4B2008FD98C1DD4 100aec54     atls:stdafx.obj
 0003:00002c58       ___scrt_current_native_startup_state 100aec58     LIBCMTD:utility.obj
 0003:00002c5c       ___scrt_native_startup_lock 100aec5c     LIBCMTD:utility.obj
 0003:00002fa0       ___isa_available           100aefa0     LIBCMTD:cpu_disp.obj
 0003:00002fa4       ___favor                   100aefa4     LIBCMTD:cpu_disp.obj
 0003:00002fa8       ___scrt_debugger_hook_flag 100aefa8     LIBCMTD:utility_desktop.obj
 0003:00002fb8       ?__type_info_root_node@@3U__type_info_node@@A 100aefb8     LIBCMTD:tncleanup.obj
 0003:00002fc0       ?_OptionsStorage@?1??__local_stdio_scanf_options@@9@4_KA 100aefc0     LIBCMTD:default_local_stdio_options.obj
 0003:00003014       ?pArgList@UnDecorator@@0PAVReplicator@@A 100af014     libvcruntimed:undname.obj
 0003:00003018       ?pZNameList@UnDecorator@@0PAVReplicator@@A 100af018     libvcruntimed:undname.obj
 0003:0000301c       ?pTemplateArgList@UnDecorator@@0PAVReplicator@@A 100af01c     libvcruntimed:undname.obj
 0003:00003020       ?gName@UnDecorator@@0PBDB  100af020     libvcruntimed:undname.obj
 0003:00003024       ?name@UnDecorator@@0PBDB   100af024     libvcruntimed:undname.obj
 0003:00003028       ?disableFlags@UnDecorator@@0KA 100af028     libvcruntimed:undname.obj
 0003:0000302c       ?fExplicitTemplateParams@UnDecorator@@0_NA 100af02c     libvcruntimed:undname.obj
 0003:0000302d       ?fGetTemplateArgumentList@UnDecorator@@0_NA 100af02d     libvcruntimed:undname.obj
 0003:00003030       ?m_pGetParameter@UnDecorator@@0P6APADJ@ZA 100af030     libvcruntimed:undname.obj
 0003:00003034       ?m_CHPENameOffset@UnDecorator@@0KA 100af034     libvcruntimed:undname.obj
 0003:00003038       ?m_recursionLevel@UnDecorator@@0KA 100af038     libvcruntimed:undname.obj
 0003:000030c0       ?__WinRTOutOfMemoryExceptionCallback@@3P6GPAXXZA 100af0c0     libvcruntimed:ehhelpers.obj
 0003:000030c4       ___pPurecall               100af0c4     libvcruntimed:purevirt_data.obj
 0003:000030d4       ?c_exit_complete@?1???R<lambda_6e4b09c48022b2350581041d5f6b0c4c>@@QBE@XZ@4_NA 100af0d4     libucrtd:exit.obj
 0003:000033ec       __environ_table            100af3ec     libucrtd:environment_initialization.obj
 0003:000033f0       __wenviron_table           100af3f0     libucrtd:environment_initialization.obj
 0003:000033f4       ___dcrt_initial_wide_environment 100af3f4     libucrtd:environment_initialization.obj
 0003:000033f8       ___dcrt_initial_narrow_environment 100af3f8     libucrtd:environment_initialization.obj
 0003:000033fc       ___acrt_atexit_table       100af3fc     libucrtd:onexit.obj
 0003:00003408       ___acrt_at_quick_exit_table 100af408     libucrtd:onexit.obj
 0003:00003430       __pfnDumpClient            100af430     libucrtd:debug_heap.obj
 0003:0000343c       __pfnReportHook            100af43c     libucrtd:dbgrptt.obj
 0003:00003440       __pReportHookList          100af440     libucrtd:dbgrptt.obj
 0003:00003444       __pReportHookListW         100af444     libucrtd:dbgrptt.obj
 0003:000035b8       __cflush                   100af5b8     libucrtd:_file.obj
 0003:000035bc       __nstream                  100af5bc     libucrtd:_file.obj
 0003:000035c0       ___piob                    100af5c0     libucrtd:_file.obj
 0003:000035c8       ___acrt_stdout_buffer      100af5c8     libucrtd:_sftbuf.obj
 0003:000035cc       ___acrt_stderr_buffer      100af5cc     libucrtd:_sftbuf.obj
 0003:000035d0       ___acrt_locale_changed_data 100af5d0     libucrtd:wsetlocale.obj
 0003:000035d4       ___acrt_current_locale_data 100af5d4     libucrtd:nlsdata.obj
 0003:000035d8       ___pioinfo                 100af5d8     libucrtd:ioinit.obj
 0003:000037d8       __nhandle                  100af7d8     libucrtd:ioinit.obj
 0003:000037e8       __mbctype                  100af7e8     libucrtd:mbctype.obj
 0003:000037ec       __mbcasemap                100af7ec     libucrtd:mbctype.obj
 0003:000037f0       ___acrt_current_multibyte_data 100af7f0     libucrtd:mbctype.obj
 0003:000037fc       __pgmptr                   100af7fc     libucrtd:argv_data.obj
 0003:00003800       __wpgmptr                  100af800     libucrtd:argv_data.obj
 0003:00003804       ___argc                    100af804     libucrtd:argv_data.obj
 0003:00003808       ___argv                    100af808     libucrtd:argv_data.obj
 0003:0000380c       ___wargv                   100af80c     libucrtd:argv_data.obj
 0003:00003810       __acmdln                   100af810     libucrtd:argv_data.obj
 0003:00003814       __wcmdln                   100af814     libucrtd:argv_data.obj
 0003:000038f4       ___acrt_heap               100af8f4     libucrtd:heap_handle.obj
 0003:00003f48       ___acrt_lconv_static_null  100aff48     libucrtd:localeconv.obj
 0003:00003f4c       ___acrt_lconv_static_W_null 100aff4c     libucrtd:localeconv.obj
 0003:00003f70       ___fastflag                100aff70     libucrtd:fp_flags.obj
 0003:00003f74       ___dyn_tls_init_callback   100aff74     <common>
 0003:00003f78       ___scrt_ucrt_dll_is_in_use 100aff78     <common>
 0003:00003f7c       __pmatherr                 100aff7c     <common>
 0003:00003f80       ___use_sse2_mathfcns       100aff80     <common>

 entry point at        0001:0000c7b0

 Static symbols

 0000:fff50000       _volmd                     10000000     libucrtd:dbgrpt.obj
 0000:fff36000       .debug$S                   10000000     oleaut32:OLEAUT32.dll
 0002:fff7a000       __guard_fids_??__E_AtlBaseModule@ATL@@YAXXZ 10000000     atls:atlbase.obj
 0002:fff7a000       __guard_fids__             10000000     atls:atlbase.obj
 0002:fff7a000       __guard_fids_??B_Closure_wrapper_b3626920_2@@QBEP6AXQAX@ZXZ 10000000     libvcruntimed:std_type_info.obj
 0002:fff7a000       __guard_fids___CRT_RTC_INIT 10000000     LIBCMTD:init.obj
 0000:fff50000       _volmd                     10000000     libucrtd:get_qualified_locale.obj
 0000:fff50000       _volmd                     10000000     libucrtd:initctype.obj
 0000:fff50000       _volmd                     10000000     libucrtd:get_qualified_locale.obj
 0000:fff50000       _volmd                     10000000     libucrtd:get_qualified_locale.obj
 0000:fff50000       _volmd                     10000000     libucrtd:locale_refcounting.obj
 0002:fff7a000       __guard_fids__GetLocaleNameFromLanguage 10000000     libucrtd:get_qualified_locale.obj
 0000:fff36000       .debug$S                   10000000     Opos_Internals.exp
 0000:fff50000       _volmd                     10000000     libucrtd:get_qualified_locale.obj
 0000:fff50000       _volmd                     10000000     libucrtd:locale_refcounting.obj
 0000:fff50000       _volmd                     10000000     libucrtd:locale_refcounting.obj
 0000:fff50000       _volmd                     10000000     libucrtd:locale_refcounting.obj
 0000:fff50000       _volmd                     10000000     libucrtd:locale_refcounting.obj
 0002:fff7a000       __guard_fids_??B_Closure_wrapper_b3626920_1@@QBEP6APAXI@ZXZ 10000000     libvcruntimed:std_type_info.obj
 0002:fff7a000       __guard_fids__GetLocaleNameFromLangCountry 10000000     libucrtd:get_qualified_locale.obj
 0000:fff50000       _volmd                     10000000     libucrtd:dbgrptt.obj
 0002:fff7a000       __guard_fids___CRT_RTC_INITW 10000000     LIBCMTD:init.obj
 0000:fff50000       _volmd                     10000000     libucrtd:output.obj
 0000:fff50000       _volmd                     10000000     libucrtd:output.obj
 0000:fff50000       _volmd                     10000000     libucrtd:cfout.obj
 0000:fff50000       _volmd                     10000000     libucrtd:cfout.obj
 0000:fff50000       _volmd                     10000000     libucrtd:cfout.obj
 0000:fff36000       .debug$S                   10000000     kernel32:KERNEL32.dll
 0000:fff36000       .debug$S                   10000000     kernel32:KERNEL32.dll
 0000:fff36000       .debug$S                   10000000     kernel32:KERNEL32.dll
 0000:fff36000       .debug$S                   10000000     kernel32:KERNEL32.dll
 0000:fff36000       .debug$S                   10000000     kernel32:KERNEL32.dll
 0000:fff36000       .debug$S                   10000000     kernel32:KERNEL32.dll
 0000:fff36000       .debug$S                   10000000     kernel32:KERNEL32.dll
 0000:fff36000       .debug$S                   10000000     kernel32:KERNEL32.dll
 0000:fff36000       .debug$S                   10000000     kernel32:KERNEL32.dll
 0000:fff36000       .debug$S                   10000000     kernel32:KERNEL32.dll
 0000:fff36000       .debug$S                   10000000     kernel32:KERNEL32.dll
 0000:fff36000       .debug$S                   10000000     kernel32:KERNEL32.dll
 0000:fff36000       .debug$S                   10000000     kernel32:KERNEL32.dll
 0000:fff36000       .debug$S                   10000000     kernel32:KERNEL32.dll
 0000:fff36000       .debug$S                   10000000     kernel32:KERNEL32.dll
 0000:fff36000       .debug$S                   10000000     kernel32:KERNEL32.dll
 0000:fff36000       .debug$S                   10000000     kernel32:KERNEL32.dll
 0000:fff36000       .debug$S                   10000000     kernel32:KERNEL32.dll
 0000:fff36000       .debug$S                   10000000     kernel32:KERNEL32.dll
 0000:fff36000       .debug$S                   10000000     kernel32:KERNEL32.dll
 0000:fff36000       .debug$S                   10000000     kernel32:KERNEL32.dll
 0000:fff36000       .debug$S                   10000000     kernel32:KERNEL32.dll
 0000:fff36000       .debug$S                   10000000     kernel32:KERNEL32.dll
 0000:fff36000       .debug$S                   10000000     kernel32:KERNEL32.dll
 0000:fff36000       .debug$S                   10000000     kernel32:KERNEL32.dll
 0000:fff36000       .debug$S                   10000000     kernel32:KERNEL32.dll
 0000:fff36000       .debug$S                   10000000     kernel32:KERNEL32.dll
 0000:fff36000       .debug$S                   10000000     kernel32:KERNEL32.dll
 0000:fff36000       .debug$S                   10000000     kernel32:KERNEL32.dll
 0000:fff36000       .debug$S                   10000000     kernel32:KERNEL32.dll
 0000:fff36000       .debug$S                   10000000     kernel32:KERNEL32.dll
 0000:fff36000       .debug$S                   10000000     kernel32:KERNEL32.dll
 0000:fff36000       .debug$S                   10000000     kernel32:KERNEL32.dll
 0000:fff36000       .debug$S                   10000000     kernel32:KERNEL32.dll
 0000:fff36000       .debug$S                   10000000     kernel32:KERNEL32.dll
 0000:fff36000       .debug$S                   10000000     kernel32:KERNEL32.dll
 0000:fff36000       .debug$S                   10000000     kernel32:KERNEL32.dll
 0000:fff36000       .debug$S                   10000000     kernel32:KERNEL32.dll
 0000:fff36000       .debug$S                   10000000     kernel32:KERNEL32.dll
 0000:fff36000       .debug$S                   10000000     kernel32:KERNEL32.dll
 0000:fff36000       .debug$S                   10000000     kernel32:KERNEL32.dll
 0000:fff36000       .debug$S                   10000000     kernel32:KERNEL32.dll
 0000:fff36000       .debug$S                   10000000     kernel32:KERNEL32.dll
 0000:fff36000       .debug$S                   10000000     kernel32:KERNEL32.dll
 0000:fff36000       .debug$S                   10000000     kernel32:KERNEL32.dll
 0000:fff36000       .debug$S                   10000000     kernel32:KERNEL32.dll
 0000:fff36000       .debug$S                   10000000     kernel32:KERNEL32.dll
 0000:fff36000       .debug$S                   10000000     kernel32:KERNEL32.dll
 0000:fff36000       .debug$S                   10000000     kernel32:KERNEL32.dll
 0000:fff36000       .debug$S                   10000000     kernel32:KERNEL32.dll
 0000:fff36000       .debug$S                   10000000     kernel32:KERNEL32.dll
 0000:fff36000       .debug$S                   10000000     kernel32:KERNEL32.dll
 0000:fff36000       .debug$S                   10000000     kernel32:KERNEL32.dll
 0000:fff36000       .debug$S                   10000000     kernel32:KERNEL32.dll
 0000:fff36000       .debug$S                   10000000     kernel32:KERNEL32.dll
 0000:fff36000       .debug$S                   10000000     kernel32:KERNEL32.dll
 0000:fff36000       .debug$S                   10000000     kernel32:KERNEL32.dll
 0000:fff36000       .debug$S                   10000000     kernel32:KERNEL32.dll
 0000:fff36000       .debug$S                   10000000     kernel32:KERNEL32.dll
 0000:fff36000       .debug$S                   10000000     kernel32:KERNEL32.dll
 0000:fff36000       .debug$S                   10000000     kernel32:KERNEL32.dll
 0000:fff36000       .debug$S                   10000000     kernel32:KERNEL32.dll
 0000:fff36000       .debug$S                   10000000     kernel32:KERNEL32.dll
 0000:fff36000       .debug$S                   10000000     kernel32:KERNEL32.dll
 0000:fff36000       .debug$S                   10000000     kernel32:KERNEL32.dll
 0000:fff36000       .debug$S                   10000000     kernel32:KERNEL32.dll
 0000:fff36000       .debug$S                   10000000     kernel32:KERNEL32.dll
 0000:fff36000       .debug$S                   10000000     kernel32:KERNEL32.dll
 0000:fff36000       .debug$S                   10000000     kernel32:KERNEL32.dll
 0000:fff36000       .debug$S                   10000000     kernel32:KERNEL32.dll
 0000:fff50000       _volmd                     10000000     libucrtd:debug_heap.obj
 0000:fff50000       _volmd                     10000000     libucrtd:output.obj
 0000:fff50000       _volmd                     10000000     libucrtd:cfout.obj
 0000:fff50000       _volmd                     10000000     libucrtd:output.obj
 0000:fff50000       _volmd                     10000000     libucrtd:cfout.obj
 0000:fff50000       _volmd                     10000000     libucrtd:ldexp.obj
 0002:fff7a000       __guard_fids__             10000000     libucrtd:console_output_initializer.obj
 0000:fff50000       _volmd                     10000000     libucrtd:87except.obj
 0000:fff50000       _volmd                     10000000     libucrtd:cfout.obj
 0000:fff50000       _volmd                     10000000     libucrtd:cfout.obj
 0000:fff50000       _volmd                     10000000     libucrtd:cfout.obj
 0000:fff50000       _volmd                     10000000     libucrtd:output.obj
 0000:fff50000       _volmd                     10000000     libucrtd:output.obj
 0000:fff50000       _volmd                     10000000     libucrtd:output.obj
 0000:fff50000       _volmd                     10000000     libucrtd:fpctrl.obj
 0000:fff50000       _volmd                     10000000     libucrtd:output.obj
 0000:fff50000       _volmd                     10000000     libucrtd:output.obj
 0000:fff50000       _volmd                     10000000     libucrtd:output.obj
 0000:fff50000       _volmd                     10000000     libucrtd:debug_heap.obj
 0000:fff50000       _volmd                     10000000     libucrtd:fpexcept.obj
 0000:fff50000       _volmd                     10000000     libucrtd:fpexcept.obj
 0000:fff50000       _volmd                     10000000     libucrtd:_flsbuf.obj
 0000:fff50000       _volmd                     10000000     libucrtd:_flsbuf.obj
 0000:fff50000       _volmd                     10000000     libucrtd:_flsbuf.obj
 0000:fff50000       _volmd                     10000000     libucrtd:closeall.obj
 0000:fff50000       _volmd                     10000000     libucrtd:debug_heap.obj
 0000:fff50000       _volmd                     10000000     libucrtd:initnum.obj
 0000:fff50000       _volmd                     10000000     libucrtd:terminate.obj
 0000:fff50000       _volmd                     10000000     libucrtd:initmon.obj
 0002:fff7a000       __guard_fids_?get_terminate_or_default@@YAP6AXXZQBU__acrt_ptd@@@Z 10000000     libucrtd:terminate.obj
 0000:fff50000       _volmd                     10000000     libucrtd:dbgrptt.obj
 0002:fff7a000       __guard_fids____vcrt_initialize_ptd 10000000     libvcruntimed:per_thread_data.obj
 0000:fff50000       _volmd                     10000000     libucrtd:outputdebugstringa.obj
 0002:fff7a000       __guard_fids__             10000000     LIBCMTD:std_type_info_static.obj
 0002:fff7a000       __guard_fids__             10000000     LIBCMTD:throw_bad_alloc.obj
 0000:fff50000       _volmd                     10000000     libucrtd:wcstombs.obj
 0000:fff50000       _volmd                     10000000     libucrtd:wcstombs.obj
 0000:fff50000       _volmd                     10000000     libucrtd:getmodulefilenamea.obj
 0002:fff7a000       __guard_fids__             10000000     LIBCMTD:throw_bad_alloc.obj
 0002:fff7a000       __guard_fids__             10000000     libvcruntimed:jbcxrval.obj
 0002:fff7a000       __guard_fids__             10000000     LIBCMTD:throw_bad_alloc.obj
 0002:fff7a000       __guard_fids__             10000000     libucrtd:sse2_initializer.obj
 0002:fff7a000       __guard_fids__             10000000     LIBCMTD:throw_bad_alloc.obj
 0000:fff50000       _volmd                     10000000     libucrtd:getmodulefilenamea.obj
 0000:fff50000       _volmd                     10000000     libucrtd:stream.obj
 0000:fff50000       _volmd                     10000000     libucrtd:stream.obj
 0000:fff50000       _volmd                     10000000     libucrtd:stream.obj
 0002:fff7a000       __guard_fids__             10000000     LIBCMTD:throw_bad_alloc.obj
 0002:fff7a000       __guard_fids___guard_icall_checks_enforced 10000000     libvcruntimed:jbcxrval.obj
 0002:fff7a000       __guard_fids__             10000000     LIBCMTD:throw_bad_alloc.obj
 0002:fff7a000       __guard_fids__             10000000     LIBCMTD:throw_bad_alloc.obj
 0002:fff7a000       __guard_fids____except_validate_jump_buffer 10000000     libvcruntimed:jbcxrval.obj
 0000:fff50000       _volmd                     10000000     libucrtd:_sftbuf.obj
 0000:fff50000       _volmd                     10000000     libucrtd:report_runtime_error.obj
 0002:fff7a000       __guard_fids__             10000000     libvcruntimed:frame.obj
 0002:fff7a000       __guard_fids__             10000000     libucrtd:debug_heap_hook.obj
 0002:fff7a000       __guard_fids__             10000000     libvcruntimed:frame.obj
 0000:fff50000       _volmd                     10000000     libucrtd:new_mode.obj
 0000:fff50000       _volmd                     10000000     libucrtd:new_mode.obj
 0002:fff7a000       __guard_fids__             10000000     libvcruntimed:frame.obj
 0002:fff7a000       __guard_fids__             10000000     libvcruntimed:frame.obj
 0000:fff50000       _volmd                     10000000     libucrtd:isctype.obj
 0002:fff7a000       __guard_fids__             10000000     libvcruntimed:frame.obj
 0002:fff7a000       __guard_fids_??B<lambda_29d3c280b90b41c2ae070ffca879996a>@@QBEP6GHPA_W@ZXZ 10000000     libucrtd:winapi_thunks.obj
 0000:fff50000       _volmd                     10000000     libucrtd:winapi_thunks.obj
 0000:fff50000       _volmd                     10000000     libucrtd:winapi_thunks.obj
 0000:fff50000       _volmd                     10000000     libucrtd:winapi_thunks.obj
 0000:fff50000       _volmd                     10000000     libucrtd:exit.obj
 0000:fff50000       _volmd                     10000000     libucrtd:exit.obj
 0000:fff50000       _volmd                     10000000     libucrtd:winapi_thunks.obj
 0000:fff50000       _volmd                     10000000     libucrtd:exit.obj
 0000:fff50000       _volmd                     10000000     libucrtd:winapi_thunks.obj
 0002:fff7a000       __guard_fids__signal       10000000     libucrtd:signal.obj
 0002:fff7a000       __guard_fids__             10000000     libvcruntimed:undname.obj
 0002:fff7a000       __guard_fids__             10000000     libvcruntimed:undname.obj
 0002:fff7a000       __guard_fids__             10000000     libvcruntimed:undname.obj
 0002:fff7a000       __guard_fids__             10000000     libvcruntimed:undname.obj
 0002:fff7a000       __guard_fids__             10000000     libvcruntimed:undname.obj
 0002:fff7a000       __guard_fids__             10000000     libvcruntimed:undname.obj
 0002:fff7a000       __guard_fids_?get_unexpected_or_default@@YAP6AXXZQBU__vcrt_ptd@@@Z 10000000     libvcruntimed:unexpected.obj
 0002:fff7a000       __guard_fids__             10000000     libvcruntimed:ehhelpers.obj
 0000:fff50000       _volmd                     10000000     libucrtd:free.obj
 0000:fff50000       _volmd                     10000000     libucrtd:dbgrpt.obj
 0002:fff7a000       __guard_fids__             10000000     LIBCMTD:throw_bad_alloc.obj
 0000:fff50000       _volmd                     10000000     libucrtd:_fenvutils.obj
 0000:fff50000       _volmd                     10000000     libucrtd:_fenvutils.obj
 0000:fff50000       _volmd                     10000000     libucrtd:_fenvutils.obj
 0000:fff50000       _volmd                     10000000     libucrtd:_fenvutils.obj
 0000:fff50000       _volmd                     10000000     libucrtd:_fenvutils.obj
 0000:fff50000       _volmd                     10000000     libucrtd:_fenvutils.obj
 0000:fff50000       _volmd                     10000000     libucrtd:_fenvutils.obj
 0000:fff50000       _volmd                     10000000     libucrtd:dbgrpt.obj
 0000:fff50000       _volmd                     10000000     libucrtd:dbgrpt.obj
 0000:fff50000       _volmd                     10000000     libucrtd:cvt.obj
 0000:fff50000       _volmd                     10000000     libucrtd:fputwc.obj
 0002:fff7a000       __guard_fids____acrt_initialize_ptd 10000000     libucrtd:per_thread_data.obj
 0000:fff50000       _volmd                     10000000     libucrtd:per_thread_data.obj
 0000:fff50000       _volmd                     10000000     libucrtd:per_thread_data.obj
 0000:fff50000       _volmd                     10000000     libucrtd:fputwc.obj
 0000:fff50000       _volmd                     10000000     libucrtd:fileno.obj
 0000:fff50000       _volmd                     10000000     libucrtd:invalid_parameter.obj
 0000:fff50000       _volmd                     10000000     libucrtd:fputc.obj
 0000:fff50000       _volmd                     10000000     libucrtd:_sftbuf.obj
 0000:fff50000       _volmd                     10000000     libucrtd:_sftbuf.obj
 0002:fff7a000       __guard_fids__             10000000     libucrtd:wsetlocale.obj
 0000:fff50000       _volmd                     10000000     libucrtd:wsetlocale.obj
 0000:fff50000       _volmd                     10000000     libucrtd:wsetlocale.obj
 0000:fff50000       _volmd                     10000000     libucrtd:wsetlocale.obj
 0000:fff50000       _volmd                     10000000     libucrtd:wsetlocale.obj
 0000:fff50000       _volmd                     10000000     libucrtd:wsetlocale.obj
 0000:fff50000       _volmd                     10000000     libucrtd:wsetlocale.obj
 0000:fff50000       _volmd                     10000000     libucrtd:wsetlocale.obj
 0000:fff50000       _volmd                     10000000     libucrtd:wsetlocale.obj
 0000:fff50000       _volmd                     10000000     libucrtd:wsetlocale.obj
 0000:fff50000       _volmd                     10000000     libucrtd:mbctype.obj
 0000:fff50000       _volmd                     10000000     libucrtd:mbctype.obj
 0000:fff50000       _volmd                     10000000     libucrtd:mbctype.obj
 0000:fff50000       _volmd                     10000000     libucrtd:mbctype.obj
 0000:fff50000       _volmd                     10000000     libucrtd:win_policies.obj
 0000:fff50000       _volmd                     10000000     libucrtd:mbctype.obj
 0002:fff7a000       ?atlTraceGeneral$initializer$@ATL@@3P6AXXZA 10000000     OposInternals.obj
 0002:fff7a000       ?atlTraceCOM$initializer$@ATL@@3P6AXXZA 10000000     OposInternals.obj
 0002:fff7a000       ?atlTraceQI$initializer$@ATL@@3P6AXXZA 10000000     OposInternals.obj
 0002:fff7a000       ?atlTraceRegistrar$initializer$@ATL@@3P6AXXZA 10000000     OposInternals.obj
 0002:fff7a000       ?atlTraceRefcount$initializer$@ATL@@3P6AXXZA 10000000     OposInternals.obj
 0002:fff7a000       ?atlTraceWindowing$initializer$@ATL@@3P6AXXZA 10000000     OposInternals.obj
 0002:fff7a000       ?atlTraceControls$initializer$@ATL@@3P6AXXZA 10000000     OposInternals.obj
 0002:fff7a000       __guard_fids____libm_error_support 10000000     libucrtd:libm_error.obj
 0002:fff7a000       ?atlTraceHosting$initializer$@ATL@@3P6AXXZA 10000000     OposInternals.obj
 0002:fff7a000       __guard_fids____dcrt_uninitialize_environments_nolock 10000000     libucrtd:environment_initialization.obj
 0002:fff7a000       ?atlTraceDBClient$initializer$@ATL@@3P6AXXZA 10000000     OposInternals.obj
 0002:fff7a000       ?atlTraceDBProvider$initializer$@ATL@@3P6AXXZA 10000000     OposInternals.obj
 0000:fff50000       _volmd                     10000000     libucrtd:win_policies.obj
 0002:fff7a000       ?atlTraceSnapin$initializer$@ATL@@3P6AXXZA 10000000     OposInternals.obj
 0002:fff7a000       ?atlTraceNotImpl$initializer$@ATL@@3P6AXXZA 10000000     OposInternals.obj
 0002:fff7a000       ?atlTraceAllocation$initializer$@ATL@@3P6AXXZA 10000000     OposInternals.obj
 0002:fff7a000       ?atlTraceException$initializer$@ATL@@3P6AXXZA 10000000     OposInternals.obj
 0000:fff50000       _volmd                     10000000     libucrtd:win_policies.obj
 0002:fff7a000       ?atlTraceTime$initializer$@ATL@@3P6AXXZA 10000000     OposInternals.obj
 0002:fff7a000       ?atlTraceCache$initializer$@ATL@@3P6AXXZA 10000000     OposInternals.obj
 0002:fff7a000       ?atlTraceStencil$initializer$@ATL@@3P6AXXZA 10000000     OposInternals.obj
 0002:fff7a000       ?atlTraceString$initializer$@ATL@@3P6AXXZA 10000000     OposInternals.obj
 0002:fff7a000       ?atlTraceMap$initializer$@ATL@@3P6AXXZA 10000000     OposInternals.obj
 0000:fff50000       _volmd                     10000000     libucrtd:win_policies.obj
 0002:fff7a000       ?atlTraceUtil$initializer$@ATL@@3P6AXXZA 10000000     OposInternals.obj
 0002:fff7a000       ?atlTraceSecurity$initializer$@ATL@@3P6AXXZA 10000000     OposInternals.obj
 0002:fff7a000       ?atlTraceSync$initializer$@ATL@@3P6AXXZA 10000000     OposInternals.obj
 0002:fff7a000       ?atlTraceISAPI$initializer$@ATL@@3P6AXXZA 10000000     OposInternals.obj
 0000:fff50000       _volmd                     10000000     libucrtd:win_policies.obj
 0000:fff50000       _volmd                     10000000     libucrtd:argv_wildcards.obj
 0000:fff50000       _volmd                     10000000     libucrtd:argv_wildcards.obj
 0000:fff50000       _volmd                     10000000     libucrtd:argv_wildcards.obj
 0002:fff7a000       ?_AtlComModule$initializer$@ATL@@3P6AXXZA 10000000     OposInternals.obj
 0000:fff50000       _volmd                     10000000     libucrtd:argv_wildcards.obj
 0000:fff50000       _volmd                     10000000     libucrtd:argv_wildcards.obj
 0002:fff7a000       ?_AtlWinModule$initializer$@ATL@@3P6AXXZA 10000000     OposInternals.obj
 0000:fff36000       .debug$S                   10000000     kernel32:KERNEL32.dll
 0000:fff36000       .debug$S                   10000000     kernel32:KERNEL32.dll
 0000:fff36000       .debug$S                   10000000     kernel32:KERNEL32.dll
 0000:fff36000       .debug$S                   10000000     kernel32:KERNEL32.dll
 0000:fff50000       _volmd                     10000000     libucrtd:comparestringa.obj
 0000:fff36000       .debug$S                   10000000     kernel32:KERNEL32.dll
 0002:fff7a000       __guard_fids_??B<lambda_838c7f62c73c983481e27c09e84b0b5d>@@QBEP6AHPBX0@ZXZ 10000000     libucrtd:argv_wildcards.obj
 0000:fff36000       .debug$S                   10000000     kernel32:KERNEL32.dll
 0000:fff36000       .debug$S                   10000000     kernel32:KERNEL32.dll
 0000:fff36000       .debug$S                   10000000     kernel32:KERNEL32.dll
 0000:fff36000       .debug$S                   10000000     kernel32:KERNEL32.dll
 0000:fff36000       .debug$S                   10000000     kernel32:KERNEL32.dll
 0000:fff36000       .debug$S                   10000000     kernel32:KERNEL32.dll
 0000:fff36000       .debug$S                   10000000     kernel32:KERNEL32.dll
 0000:fff36000       .debug$S                   10000000     kernel32:KERNEL32.dll
 0000:fff36000       .debug$S                   10000000     kernel32:KERNEL32.dll
 0000:fff50000       _volmd                     10000000     libucrtd:fclose.obj
 0000:fff50000       _volmd                     10000000     libucrtd:_getbuf.obj
 0000:fff36000       .debug$S                   10000000     kernel32:KERNEL32.dll
 0002:fff7a000       __guard_fids_??B<lambda_d388dc2bcbe6079ffc891eec49d9b3b2>@@QBEP6AHPBX0@ZXZ 10000000     libucrtd:argv_wildcards.obj
 0000:fff50000       _volmd                     10000000     libucrtd:output.obj
 0000:fff50000       _volmd                     10000000     libucrtd:output.obj
 0000:fff50000       _volmd                     10000000     libucrtd:onexit.obj
 0000:fff50000       _volmd                     10000000     libucrtd:output.obj
 0000:fff50000       _volmd                     10000000     libucrtd:output.obj
 0000:fff36000       .debug$S                   10000000     kernel32:KERNEL32.dll
 0000:fff50000       _volmd                     10000000     libucrtd:write.obj
 0000:fff50000       _volmd                     10000000     libucrtd:write.obj
 0000:fff50000       _volmd                     10000000     libucrtd:write.obj
 0000:fff50000       _volmd                     10000000     libucrtd:write.obj
 0000:fff50000       _volmd                     10000000     libucrtd:write.obj
 0000:fff50000       _volmd                     10000000     libucrtd:write.obj
 0000:fff50000       _volmd                     10000000     libucrtd:write.obj
 0002:fff7a000       __guard_fids____scrt_set_unhandled_exception_filter 10000000     LIBCMTD:utility_desktop.obj
 0000:fff36000       .debug$S                   10000000     kernel32:KERNEL32.dll
 0000:fff36000       .debug$S                   10000000     kernel32:KERNEL32.dll
 0000:fff36000       .debug$S                   10000000     kernel32:KERNEL32.dll
 0000:fff36000       .debug$S                   10000000     kernel32:KERNEL32.dll
 0000:fff36000       .debug$S                   10000000     user32:USER32.dll
 0000:fff36000       .debug$S                   10000000     user32:USER32.dll
 0000:fff36000       .debug$S                   10000000     advapi32:ADVAPI32.dll
 0000:fff36000       .debug$S                   10000000     advapi32:ADVAPI32.dll
 0002:fff7a000       __guard_fids___guard_icall_checks_enforced 10000000     LIBCMTD:guard_support.obj
 0000:fff50000       _volmd                     10000000     libucrtd:fflush.obj
 0002:fff7a000       __guard_fids__             10000000     libucrtd:stdio_initializer.obj
 0000:fff50000       _volmd                     10000000     libucrtd:fflush.obj
 0000:fff36000       .debug$S                   10000000     advapi32:ADVAPI32.dll
 0000:fff36000       .debug$S                   10000000     advapi32:ADVAPI32.dll
 0000:fff50000       _volmd                     10000000     libucrtd:getlocaleinfoa.obj
 0000:fff36000       .debug$S                   10000000     advapi32:ADVAPI32.dll
 0000:fff50000       _volmd                     10000000     libucrtd:fflush.obj
 0000:fff50000       _volmd                     10000000     libucrtd:mbrtoc32.obj
 0000:fff36000       .debug$S                   10000000     advapi32:ADVAPI32.dll
 0000:fff50000       _volmd                     10000000     libucrtd:wcrtomb.obj
 0000:fff50000       _volmd                     10000000     libucrtd:wcrtomb.obj
 0002:fff7a000       __guard_fids__             10000000     LIBCMTD:guard_support.obj
 0002:fff7a000       __guard_fids_?dllmain_dispatch@@YAHQAUHINSTANCE__@@KQAX@Z 10000000     LIBCMTD:dll_dllmain.obj
 0000:fff50000       _volmd                     10000000     libucrtd:wcrtomb.obj
 0000:fff50000       _volmd                     10000000     libucrtd:wcrtomb.obj
 0000:fff50000       _volmd                     10000000     libucrtd:wcrtomb.obj
 0000:fff36000       .debug$S                   10000000     advapi32:ADVAPI32.dll
 0000:fff50000       _volmd                     10000000     libucrtd:output.obj
 0002:fff7a000       __guard_fids__             10000000     libucrtd:initialization.obj
 0000:fff36000       .debug$S                   10000000     advapi32:ADVAPI32.dll
 0000:fff36000       .debug$S                   10000000     ole32:ole32.dll
 0000:fff50000       _volmd                     10000000     libucrtd:initialization.obj
 0000:fff50000       _volmd                     10000000     libucrtd:output.obj
 0000:fff36000       .debug$S                   10000000     ole32:ole32.dll
 0000:fff36000       .debug$S                   10000000     ole32:ole32.dll
 0000:fff50000       _volmd                     10000000     libucrtd:setenvironmentvariablea.obj
 0002:fff7a000       __ehfuncinfo$??1?$__crt_win32_buffer@_WU__crt_win32_buffer_internal_dynamic_resizing@@@@QAE@XZ 10000000     libucrtd:setenvironmentvariablea.obj
 0001:fffff000       __ehhandler$??1?$__crt_win32_buffer@_WU__crt_win32_buffer_internal_dynamic_resizing@@@@QAE@XZ 10000000 f   libucrtd:setenvironmentvariablea.obj
 0000:fff50000       _volmd                     10000000     libucrtd:output.obj
 0000:fff50000       _volmd                     10000000     libucrtd:output.obj
 0002:fff7a000       __guard_fids__             10000000     libucrtd:multibyte_initializer.obj
 0000:fff50000       _volmd                     10000000     libucrtd:output.obj
 0000:fff50000       _volmd                     10000000     libucrtd:output.obj
 0000:fff50000       _volmd                     10000000     libucrtd:output.obj
 0000:fff50000       _volmd                     10000000     libucrtd:qsort.obj
 0000:fff36000       .debug$S                   10000000     ole32:ole32.dll
 0000:fff50000       _volmd                     10000000     libucrtd:_freebuf.obj
 0000:fff50000       _volmd                     10000000     libucrtd:qsort.obj
 0000:fff50000       _volmd                     10000000     libucrtd:output.obj
 0000:fff50000       _volmd                     10000000     libucrtd:output.obj
 0000:fff50000       _volmd                     10000000     libucrtd:output.obj
 0000:fff50000       _volmd                     10000000     libucrtd:output.obj
 0000:fff36000       .debug$S                   10000000     ole32:ole32.dll
 0000:fff50000       _volmd                     10000000     libucrtd:_freebuf.obj
 0000:fff36000       .debug$S                   10000000     oleaut32:OLEAUT32.dll
 0002:fff7a000       __guard_fids__             10000000     libucrtd:locale_initializer.obj
 0000:fff50000       _volmd                     10000000     libucrtd:getqloc_downlevel.obj
 0002:fff7a000       __guard_fids__GetLcidFromCountry 10000000     libucrtd:getqloc_downlevel.obj
 0000:fff50000       _volmd                     10000000     libucrtd:getqloc_downlevel.obj
 0002:fff7a000       __guard_fids__GetLcidFromLanguage 10000000     libucrtd:getqloc_downlevel.obj
 0000:fff50000       _volmd                     10000000     libucrtd:getqloc_downlevel.obj
 0002:fff7a000       __guard_fids__GetLcidFromLangCountry 10000000     libucrtd:getqloc_downlevel.obj
 0000:fff50000       _volmd                     10000000     libucrtd:getqloc_downlevel.obj
 0000:fff36000       .debug$S                   10000000     oleaut32:OLEAUT32.dll
 0000:fff36000       .debug$S                   10000000     oleaut32:OLEAUT32.dll
 0000:fff36000       .debug$S                   10000000     oleaut32:OLEAUT32.dll
 0000:fff36000       .debug$S                   10000000     oleaut32:OLEAUT32.dll
 0000:fff36000       .debug$S                   10000000     oleaut32:OLEAUT32.dll
 0002:fff7a004       __guard_fids__             10000004     libucrtd:stdio_initializer.obj
 0001:fffff068       $LN6                       10000068     OposInternals.obj
 0001:fffff070       $LN5                       10000070     OposInternals.obj
 0001:fffff07c       $LN4                       1000007c     OposInternals.obj
 0001:fffff07c       $LN5                       1000007c     OposInternals.obj
 0001:fffff084       $LN4                       10000084     OposInternals.obj
 0001:fffff090       $LN3                       10000090     OposInternals.obj
 0001:fffff124       $LN8                       10000124     OposInternals.obj
 0001:fffff12c       $LN7                       1000012c     OposInternals.obj
 0001:fffff138       $LN6                       10000138     OposInternals.obj
 0001:fffff238       $LN16                      10000238     OposInternals.obj
 0001:fffff240       $LN15                      10000240     OposInternals.obj
 0001:fffff264       $LN14                      10000264     OposInternals.obj
 0001:fffff26d       $LN13                      1000026d     OposInternals.obj
 0001:fffff274       $LN12                      10000274     OposInternals.obj
 0001:00000000       ??__E_AtlComModule@ATL@@YAXXZ 10001000 f   StdAfx.obj
 0001:00000030       ??__E_AtlWinModule@ATL@@YAXXZ 10001030 f   StdAfx.obj
 0001:00000060       ??__EatlTraceAllocation@ATL@@YAXXZ 10001060 f   StdAfx.obj
 0001:00000080       ??__EatlTraceCOM@ATL@@YAXXZ 10001080 f   StdAfx.obj
 0001:000000a0       ??__EatlTraceCache@ATL@@YAXXZ 100010a0 f   StdAfx.obj
 0001:000000c0       ??__EatlTraceControls@ATL@@YAXXZ 100010c0 f   StdAfx.obj
 0001:000000e0       ??__EatlTraceDBClient@ATL@@YAXXZ 100010e0 f   StdAfx.obj
 0001:00000100       ??__EatlTraceDBProvider@ATL@@YAXXZ 10001100 f   StdAfx.obj
 0001:00000120       ??__EatlTraceException@ATL@@YAXXZ 10001120 f   StdAfx.obj
 0001:00000140       ??__EatlTraceGeneral@ATL@@YAXXZ 10001140 f   StdAfx.obj
 0001:00000160       ??__EatlTraceHosting@ATL@@YAXXZ 10001160 f   StdAfx.obj
 0001:00000180       ??__EatlTraceISAPI@ATL@@YAXXZ 10001180 f   StdAfx.obj
 0001:000001a0       ??__EatlTraceMap@ATL@@YAXXZ 100011a0 f   StdAfx.obj
 0001:000001c0       ??__EatlTraceNotImpl@ATL@@YAXXZ 100011c0 f   StdAfx.obj
 0001:000001e0       ??__EatlTraceQI@ATL@@YAXXZ 100011e0 f   StdAfx.obj
 0001:00000200       ??__EatlTraceRefcount@ATL@@YAXXZ 10001200 f   StdAfx.obj
 0001:00000220       ??__EatlTraceRegistrar@ATL@@YAXXZ 10001220 f   StdAfx.obj
 0001:00000240       ??__EatlTraceSecurity@ATL@@YAXXZ 10001240 f   StdAfx.obj
 0001:00000260       ??__EatlTraceSnapin@ATL@@YAXXZ 10001260 f   StdAfx.obj
 0001:00000280       ??__EatlTraceStencil@ATL@@YAXXZ 10001280 f   StdAfx.obj
 0001:000002a0       ??__EatlTraceString@ATL@@YAXXZ 100012a0 f   StdAfx.obj
 0001:000002c0       ??__EatlTraceSync@ATL@@YAXXZ 100012c0 f   StdAfx.obj
 0001:000002e0       ??__EatlTraceTime@ATL@@YAXXZ 100012e0 f   StdAfx.obj
 0001:00000300       ??__EatlTraceUtil@ATL@@YAXXZ 10001300 f   StdAfx.obj
 0001:00000320       ??__EatlTraceWindowing@ATL@@YAXXZ 10001320 f   StdAfx.obj
 0001:00000340       ??__E_AtlComModule@ATL@@YAXXZ 10001340 f   OposInternals.obj
 0001:00000370       ??__E_AtlWinModule@ATL@@YAXXZ 10001370 f   OposInternals.obj
 0001:000003a0       ??__E_Module@@YAXXZ        100013a0 f   OposInternals.obj
 0001:000003d0       ??__EatlTraceAllocation@ATL@@YAXXZ 100013d0 f   OposInternals.obj
 0001:000003f0       ??__EatlTraceCOM@ATL@@YAXXZ 100013f0 f   OposInternals.obj
 0001:00000410       ??__EatlTraceCache@ATL@@YAXXZ 10001410 f   OposInternals.obj
 0001:00000430       ??__EatlTraceControls@ATL@@YAXXZ 10001430 f   OposInternals.obj
 0001:00000450       ??__EatlTraceDBClient@ATL@@YAXXZ 10001450 f   OposInternals.obj
 0001:00000470       ??__EatlTraceDBProvider@ATL@@YAXXZ 10001470 f   OposInternals.obj
 0001:00000490       ??__EatlTraceException@ATL@@YAXXZ 10001490 f   OposInternals.obj
 0001:000004b0       ??__EatlTraceGeneral@ATL@@YAXXZ 100014b0 f   OposInternals.obj
 0001:000004d0       ??__EatlTraceHosting@ATL@@YAXXZ 100014d0 f   OposInternals.obj
 0001:000004f0       ??__EatlTraceISAPI@ATL@@YAXXZ 100014f0 f   OposInternals.obj
 0001:00000510       ??__EatlTraceMap@ATL@@YAXXZ 10001510 f   OposInternals.obj
 0001:00000530       ??__EatlTraceNotImpl@ATL@@YAXXZ 10001530 f   OposInternals.obj
 0001:00000550       ??__EatlTraceQI@ATL@@YAXXZ 10001550 f   OposInternals.obj
 0001:00000570       ??__EatlTraceRefcount@ATL@@YAXXZ 10001570 f   OposInternals.obj
 0001:00000590       ??__EatlTraceRegistrar@ATL@@YAXXZ 10001590 f   OposInternals.obj
 0001:000005b0       ??__EatlTraceSecurity@ATL@@YAXXZ 100015b0 f   OposInternals.obj
 0001:000005d0       ??__EatlTraceSnapin@ATL@@YAXXZ 100015d0 f   OposInternals.obj
 0001:000005f0       ??__EatlTraceStencil@ATL@@YAXXZ 100015f0 f   OposInternals.obj
 0001:00000610       ??__EatlTraceString@ATL@@YAXXZ 10001610 f   OposInternals.obj
 0001:00000630       ??__EatlTraceSync@ATL@@YAXXZ 10001630 f   OposInternals.obj
 0001:00000650       ??__EatlTraceTime@ATL@@YAXXZ 10001650 f   OposInternals.obj
 0001:00000670       ??__EatlTraceUtil@ATL@@YAXXZ 10001670 f   OposInternals.obj
 0001:00000690       ??__EatlTraceWindowing@ATL@@YAXXZ 10001690 f   OposInternals.obj
 0001:000006ab       ??__E_AtlBaseModule@ATL@@YAXXZ 100016ab f   atls:atlbase.obj
 0001:0000131c       $LN5                       1000231c     StdAfx.obj
 0001:00001324       $LN4                       10002324     StdAfx.obj
 0001:00001330       $LN3                       10002330     StdAfx.obj
 0001:00001528       $LN6                       10002528     StdAfx.obj
 0001:00001530       $LN5                       10002530     StdAfx.obj
 0001:0000153c       $LN4                       1000253c     StdAfx.obj
 0001:00001d38       $LN16                      10002d38     StdAfx.obj
 0001:00001d40       $LN15                      10002d40     StdAfx.obj
 0001:00001d64       $LN14                      10002d64     StdAfx.obj
 0001:00001d6d       $LN13                      10002d6d     StdAfx.obj
 0001:00001d74       $LN12                      10002d74     StdAfx.obj
 0001:00001ea4       $LN8                       10002ea4     StdAfx.obj
 0001:00001eac       $LN7                       10002eac     StdAfx.obj
 0001:00001eb8       $LN6                       10002eb8     StdAfx.obj
 0001:00002040       _memcpy_s                  10003040 f   OposInternals.obj
 0001:00002220       ?AtlFindExtension@ATL@@YAPA_WPB_W@Z 10003220 f   OposInternals.obj
 0001:000022c0       ?AtlGetDirLen@ATL@@YGIPB_W@Z 100032c0 f   OposInternals.obj
 0001:000024c0       $LN6                       100034c0     OposInternals.obj
 0001:000024c8       $LN5                       100034c8     OposInternals.obj
 0001:000024d4       $LN4                       100034d4     OposInternals.obj
 0001:00003608       $LN27                      10004608     OposInternals.obj
 0001:00003610       $LN26                      10004610     OposInternals.obj
 0001:00003640       $LN25                      10004640     OposInternals.obj
 0001:00003648       $LN24                      10004648     OposInternals.obj
 0001:00003650       $LN23                      10004650     OposInternals.obj
 0001:00003656       $LN22                      10004656     OposInternals.obj
 0001:0000381c       $LN9                       1000481c     OposInternals.obj
 0001:00003824       $LN8                       10004824     OposInternals.obj
 0001:00003830       $LN7                       10004830     OposInternals.obj
 0001:00003914       $LN7                       10004914     OposInternals.obj
 0001:0000391c       $LN6                       1000491c     OposInternals.obj
 0001:00003928       $LN5                       10004928     OposInternals.obj
 0001:00004038       $LN40                      10005038     OposInternals.obj
 0001:00004040       $LN39                      10005040     OposInternals.obj
 0001:00004088       $LN38                      10005088     OposInternals.obj
 0001:00004091       $LN37                      10005091     OposInternals.obj
 0001:000040a7       $LN36                      100050a7     OposInternals.obj
 0001:000040ad       $LN35                      100050ad     OposInternals.obj
 0001:000040ba       $LN34                      100050ba     OposInternals.obj
 0001:000040bd       $LN33                      100050bd     OposInternals.obj
 0001:000046b4       $LN6                       100056b4     OposInternals.obj
 0001:000046bc       $LN5                       100056bc     OposInternals.obj
 0001:000046c8       $LN4                       100056c8     OposInternals.obj
 0001:00004748       $LN6                       10005748     OposInternals.obj
 0001:00004750       $LN5                       10005750     OposInternals.obj
 0001:0000475c       $LN4                       1000575c     OposInternals.obj
 0001:000049cc       $LN22                      100059cc     OposInternals.obj
 0001:000049d4       $LN21                      100059d4     OposInternals.obj
 0001:000049ec       $LN20                      100059ec     OposInternals.obj
 0001:000049f4       $LN19                      100059f4     OposInternals.obj
 0001:00004d20       $LN10                      10005d20     OposInternals.obj
 0001:00004d30       $LN9                       10005d30     OposInternals.obj
 0001:00005228       $LN23                      10006228     OposInternals.obj
 0001:00005230       $LN22                      10006230     OposInternals.obj
 0001:00005254       $LN21                      10006254     OposInternals.obj
 0001:0000525a       $LN20                      1000625a     OposInternals.obj
 0001:00005263       $LN19                      10006263     OposInternals.obj
 0001:000058a4       $LN40                      100068a4     OposInternals.obj
 0001:000058ac       $LN39                      100068ac     OposInternals.obj
 0001:0000590c       $LN38                      1000690c     OposInternals.obj
 0001:00005916       $LN37                      10006916     OposInternals.obj
 0001:0000591a       $LN36                      1000691a     OposInternals.obj
 0001:0000591f       $LN35                      1000691f     OposInternals.obj
 0001:00005925       $LN34                      10006925     OposInternals.obj
 0001:0000593b       $LN33                      1000693b     OposInternals.obj
 0001:00005942       $LN32                      10006942     OposInternals.obj
 0001:00005948       $LN31                      10006948     OposInternals.obj
 0001:00005c1c       $LN19                      10006c1c     OposInternals.obj
 0001:00005c24       $LN18                      10006c24     OposInternals.obj
 0001:00005c60       $LN17                      10006c60     OposInternals.obj
 0001:00005c74       $LN16                      10006c74     OposInternals.obj
 0001:00005c81       $LN15                      10006c81     OposInternals.obj
 0001:00005c8d       $LN14                      10006c8d     OposInternals.obj
 0001:00005c96       $LN13                      10006c96     OposInternals.obj
 0001:00005ef4       $LN14                      10006ef4     OposInternals.obj
 0001:00005efc       $LN13                      10006efc     OposInternals.obj
 0001:00005f2c       $LN12                      10006f2c     OposInternals.obj
 0001:00005f40       $LN11                      10006f40     OposInternals.obj
 0001:00005f45       $LN10                      10006f45     OposInternals.obj
 0001:00005f4e       $LN9                       10006f4e     OposInternals.obj
 0001:0000616c       $LN11                      1000716c     OposInternals.obj
 0001:0000617c       $LN10                      1000717c     OposInternals.obj
 0001:00006a28       $LN15                      10007a28     OposInternals.obj
 0001:00006a30       $LN14                      10007a30     OposInternals.obj
 0001:00006a3c       $LN13                      10007a3c     OposInternals.obj
 0001:00006df0       $LN9                       10007df0     OposInternals.obj
 0001:00006df8       $LN8                       10007df8     OposInternals.obj
 0001:00006e04       $LN7                       10007e04     OposInternals.obj
 0001:00007070       $LN7                       10008070     OposInternals.obj
 0001:00007078       $LN6                       10008078     OposInternals.obj
 0001:00007648       $LN13                      10008648     OposInternals.obj
 0001:00007650       $LN12                      10008650     OposInternals.obj
 0001:0000765c       $LN11                      1000865c     OposInternals.obj
 0001:00007b68       $LN42                      10008b68     OposInternals.obj
 0001:00007b70       $LN41                      10008b70     OposInternals.obj
 0001:00007b94       $LN40                      10008b94     OposInternals.obj
 0001:00007b98       $LN39                      10008b98     OposInternals.obj
 0001:00007bac       $LN38                      10008bac     OposInternals.obj
 0001:00007d88       $LN13                      10008d88     OposInternals.obj
 0001:00007d90       $LN12                      10008d90     OposInternals.obj
 0001:00007dc0       $LN11                      10008dc0     OposInternals.obj
 0001:00007dc9       $LN10                      10008dc9     OposInternals.obj
 0001:00007dd0       $LN9                       10008dd0     OposInternals.obj
 0001:00007dd5       $LN8                       10008dd5     OposInternals.obj
 0001:0000841c       $LN17                      1000941c     OposInternals.obj
 0001:00008424       $LN16                      10009424     OposInternals.obj
 0001:0000843c       $LN15                      1000943c     OposInternals.obj
 0001:00008442       $LN14                      10009442     OposInternals.obj
 0001:00008790       $LN23                      10009790     OposInternals.obj
 0001:00008798       $LN22                      10009798     OposInternals.obj
 0001:000087bc       $LN21                      100097bc     OposInternals.obj
 0001:000087c2       $LN20                      100097c2     OposInternals.obj
 0001:000087c9       $LN19                      100097c9     OposInternals.obj
 0001:000093f4       $LN78                      1000a3f4     OposInternals.obj
 0001:000093fc       $LN77                      1000a3fc     OposInternals.obj
 0001:00009450       $LN76                      1000a450     OposInternals.obj
 0001:00009459       $LN75                      1000a459     OposInternals.obj
 0001:00009462       $LN74                      1000a462     OposInternals.obj
 0001:00009465       $LN73                      1000a465     OposInternals.obj
 0001:00009471       $LN72                      1000a471     OposInternals.obj
 0001:0000947f       $LN71                      1000a47f     OposInternals.obj
 0001:00009485       $LN70                      1000a485     OposInternals.obj
 0001:00009608       $LN5                       1000a608     OposInternals.obj
 0001:00009610       $LN4                       1000a610     OposInternals.obj
 0001:0000961c       $LN3                       1000a61c     OposInternals.obj
 0001:0000970c       $LN7                       1000a70c     OposInternals.obj
 0001:00009714       $LN6                       1000a714     OposInternals.obj
 0001:00009720       $LN5                       1000a720     OposInternals.obj
 0001:000097e8       $LN5                       1000a7e8     OposInternals.obj
 0001:000097f0       $LN4                       1000a7f0     OposInternals.obj
 0001:000097fc       $LN3                       1000a7fc     OposInternals.obj
 0001:000098ec       $LN7                       1000a8ec     OposInternals.obj
 0001:000098f4       $LN6                       1000a8f4     OposInternals.obj
 0001:00009900       $LN5                       1000a900     OposInternals.obj
 0001:00009cb4       $LN9                       1000acb4     OposInternals.obj
 0001:00009cbc       $LN8                       1000acbc     OposInternals.obj
 0001:00009cc8       $LN7                       1000acc8     OposInternals.obj
 0001:0000a69c       $LN31                      1000b69c     OposInternals.obj
 0001:0000a6a4       $LN30                      1000b6a4     OposInternals.obj
 0001:0000a6e0       $LN29                      1000b6e0     OposInternals.obj
 0001:0000a6ef       $LN28                      1000b6ef     OposInternals.obj
 0001:0000a701       $LN27                      1000b701     OposInternals.obj
 0001:0000a70a       $LN26                      1000b70a     OposInternals.obj
 0001:0000a720       $LN25                      1000b720     OposInternals.obj
 0001:0000ab8c       $LN31                      1000bb8c     OposInternals.obj
 0001:0000ab94       $LN30                      1000bb94     OposInternals.obj
 0001:0000abd0       $LN29                      1000bbd0     OposInternals.obj
 0001:0000abdf       $LN28                      1000bbdf     OposInternals.obj
 0001:0000abf1       $LN27                      1000bbf1     OposInternals.obj
 0001:0000abfa       $LN26                      1000bbfa     OposInternals.obj
 0001:0000ac10       $LN25                      1000bc10     OposInternals.obj
 0001:0000aebc       $LN11                      1000bebc     OposInternals.obj
 0001:0000aec4       $LN10                      1000bec4     OposInternals.obj
 0001:0000aedc       $LN9                       1000bedc     OposInternals.obj
 0001:0000aee1       $LN8                       1000bee1     OposInternals.obj
 0001:0000b582       _memmove_s                 1000c582 f   atls:atlbase.obj
 0001:0000b630       ?find_pe_section@@YAPAU_IMAGE_SECTION_HEADER@@QAEI@Z 1000c630 f   LIBCMTD:utility.obj
 0001:0000b6d0       ?is_potentially_valid_image_base@@YA_NQAX@Z 1000c6d0 f   LIBCMTD:utility.obj
 0001:0000c2b0       $$000000                   1000d2b0     LIBCMTD:chkstk.obj
 0001:0000c2e0       ?dllmain_crt_dispatch@@YGHQAUHINSTANCE__@@KQAX@Z 1000d2e0 f   LIBCMTD:dll_dllmain.obj
 0001:0000c34c       $LN11                      1000d34c     LIBCMTD:dll_dllmain.obj
 0001:0000c360       ?dllmain_crt_process_attach@@YAHQAUHINSTANCE__@@QAX@Z 1000d360 f   LIBCMTD:dll_dllmain.obj
 0001:0000c4d0       ?dllmain_crt_process_detach@@YAH_N@Z 1000d4d0 f   LIBCMTD:dll_dllmain.obj
 0001:0000c5b0       ?dllmain_dispatch@@YAHQAUHINSTANCE__@@KQAX@Z 1000d5b0 f   LIBCMTD:dll_dllmain.obj
 0001:0000c740       ?dllmain_raw@@YGHQAUHINSTANCE__@@KQAX@Z 1000d740 f   LIBCMTD:dll_dllmain.obj
 0001:0000ce40       ?DebuggerProbe@@YA_NK@Z    1000de40 f   LIBCMTD:error.obj
 0001:0000ce80       ?DebuggerRuntime@@YA_NKHPAXPB_W@Z 1000de80 f   LIBCMTD:error.obj
 0001:0000d0c0       ?_getMemBlockDataString@@YAXPAD0PBDI@Z 1000e0c0 f   LIBCMTD:error.obj
 0001:0000d130       ?_strlen_priv@@YAIPBD@Z    1000e130 f   LIBCMTD:error.obj
 0001:0000d150       ?failwithmessage@@YAXPAXHHPBD@Z 1000e150 f   LIBCMTD:error.obj
 0001:0000d350       ?notify_debugger@@YAXABUtagEXCEPTION_VISUALCPP_DEBUG_INFO@@@Z 1000e350 f   LIBCMTD:error.obj
 0001:0000d5d7       __catch$??2@YAPAXIABUnothrow_t@std@@@Z$0 1000e5d7 f   LIBCMTD:new_scalar_nothrow.obj
 0001:0000d610       ___get_entropy             1000e610 f   LIBCMTD:gs_support.obj
 0001:0000d7f0       ?GetPdbDll@@YAPAUHINSTANCE__@@XZ 1000e7f0 f   LIBCMTD:pdblkup.obj
 0001:0000d930       ?GetPdbDllFromInstallPath@@YAPAUHINSTANCE__@@XZ 1000e930 f   LIBCMTD:pdblkup.obj
 0001:0000db90       ?GetPdbDllPathFromFilePath@@YAHPB_WPA_WI@Z 1000eb90 f   LIBCMTD:pdblkup.obj
 0001:0000e3c0       $$000000                   1000f3c0     libvcruntimed:memset.obj
 0001:0000e520       _cmpBYTE                   1000f520 f   libvcruntimed:memcmp.obj
 0001:0000e550       _cmpDWORD                  1000f550 f   libvcruntimed:memcmp.obj
 0001:0000e620       _cmpResult                 1000f620 f   libvcruntimed:memcmp.obj
 0001:0000e650       _cmpWORD                   1000f650 f   libvcruntimed:memcmp.obj
 0001:0000e874       $LN22                      1000f874     libvcruntimed:memcmp.obj
 0001:0000e890       _unaligned_memcmp          1000f890 f   libvcruntimed:memcmp.obj
 0001:0000ef14       $LN79                      1000ff14     libvcruntimed:memcmp.obj
 0001:0000efa0       $$000000                   1000ffa0     libvcruntimed:memcpy.obj
 0001:0000f204       TrailingUpVec              10010204     libvcruntimed:memcpy.obj
 0001:0000f2b0       TrailingDownVec            100102b0     libvcruntimed:memcpy.obj
 0001:0000f9f0       $$000000                   100109f0     libvcruntimed:memmove.obj
 0001:0000fc54       TrailingUpVec              10010c54     libvcruntimed:memmove.obj
 0001:0000fd00       TrailingDownVec            10010d00     libvcruntimed:memmove.obj
 0001:00010020       _init_memcpy_functions     10011020 f   libvcruntimed:initialization.obj
 0001:00010030       _ValidateLocalCookies      10011030 f   libvcruntimed:chandler4.obj
 0001:00010a30       ??R<lambda_1>@?1??__std_type_info_name@@YAPBDPAU__std_type_info_data@@PAU__type_info_node@@@Z@QBEPAXI@Z 10011a30 f   libvcruntimed:std_type_info.obj
 0001:00010a60       ??R<lambda_2>@?1??__std_type_info_name@@YAPBDPAU__std_type_info_data@@PAU__type_info_node@@@Z@QBEXQAX@Z 10011a60 f   libvcruntimed:std_type_info.obj
 0001:000111f0       ??0scoped_get_last_error_reset@?A0x84d39541@@QAE@XZ 100121f0 f   libvcruntimed:per_thread_data.obj
 0001:00011230       ??1scoped_get_last_error_reset@?A0x84d39541@@QAE@XZ 10012230 f   libvcruntimed:per_thread_data.obj
 0001:00011310       ?store_and_initialize_ptd@@YA_NQAU__vcrt_ptd@@@Z 10012310 f   libvcruntimed:per_thread_data.obj
 0001:00011720       $$000000                   10012720     libvcruntimed:exsup4.obj
 0001:000117b0       __unwind_handler4          100127b0 f   libvcruntimed:exsup4.obj
 0001:00011890       ___except_get_jumpbuf_sp   10012890 f   libvcruntimed:jbcxrval.obj
 0001:00011970       ??$BuildCatchObjectHelperInternal@V__FrameHandler3@@@@YAHPAUEHExceptionRecord@@PAXPBU_s_HandlerType@@PBU_s_CatchableType@@@Z 10012970 f   libvcruntimed:frame.obj
 0001:00011cb0       ??$BuildCatchObjectInternal@V__FrameHandler3@@@@YAXPAUEHExceptionRecord@@PAXPBU_s_HandlerType@@PBU_s_CatchableType@@@Z 10012cb0 f   libvcruntimed:frame.obj
 0001:00011de0       ??$CatchIt@V__FrameHandler3@@@@YAXPAUEHExceptionRecord@@PAUEHRegistrationNode@@PAU_CONTEXT@@PAXPBU_s_FuncInfo@@PBU_s_HandlerType@@PBU_s_CatchableType@@PBU_s_TryBlockMapEntry@@H1EE@Z 10012de0 f   libvcruntimed:frame.obj
 0001:00011eb0       ??$FindHandler@V__FrameHandler3@@@@YAXPAUEHExceptionRecord@@PAUEHRegistrationNode@@PAU_CONTEXT@@PAXPBU_s_FuncInfo@@EH1@Z 10012eb0 f   libvcruntimed:frame.obj
 0001:000123e0       ??$FindHandlerForForeignException@V__FrameHandler3@@@@YAXPAUEHExceptionRecord@@PAUEHRegistrationNode@@PAU_CONTEXT@@PAXPBU_s_FuncInfo@@HH1@Z 100133e0 f   libvcruntimed:frame.obj
 0001:00012b70       ?CallCatchBlock@@YAPAXPAUEHExceptionRecord@@PAUEHRegistrationNode@@PAU_CONTEXT@@PBU_s_FuncInfo@@PAXHK@Z 10013b70 f   libvcruntimed:frame.obj
 0001:00012df0       ?CallUnexpected@@YAXPBU_s_ESTypeList@@@Z 10013df0 f   libvcruntimed:frame.obj
 0001:00012e37       __catch$?CallUnexpected@@YAXPBU_s_ESTypeList@@@Z$0 10013e37 f   libvcruntimed:frame.obj
 0001:00012e80       ?ExFilterRethrow@@YAHPAU_EXCEPTION_POINTERS@@@Z 10013e80 f   libvcruntimed:frame.obj
 0001:000130a0       ?IsInExceptionSpec@@YAEPAUEHExceptionRecord@@PBU_s_ESTypeList@@@Z 100140a0 f   libvcruntimed:frame.obj
 0001:00013160       ?Is_bad_exception_allowed@@YAEPBU_s_ESTypeList@@@Z 10014160 f   libvcruntimed:frame.obj
 0001:00013420       $$000000                   10014420     libvcruntimed:lowhelpr.obj
 0001:00013ae0       ??0TrackRecursion@?1??getDecoratedName@UnDecorator@@CA?AVDName@@XZ@QAE@XZ 10014ae0 f   libvcruntimed:undname.obj
 0001:00013cf0       ??1TrackRecursion@?1??getDecoratedName@UnDecorator@@CA?AVDName@@XZ@QAE@XZ 10014cf0 f   libvcruntimed:undname.obj
 0001:00017254       $LN57                      10018254     libvcruntimed:undname.obj
 0001:00017280       $LN56                      10018280     libvcruntimed:undname.obj
 0001:000172a0       $LN59                      100182a0     libvcruntimed:undname.obj
 0001:000172e0       $LN58                      100182e0     libvcruntimed:undname.obj
 0001:0001733c       $LN61                      1001833c     libvcruntimed:undname.obj
 0001:0001734c       $LN60                      1001834c     libvcruntimed:undname.obj
 0001:0001736c       $LN63                      1001836c     libvcruntimed:undname.obj
 0001:00017374       $LN62                      10018374     libvcruntimed:undname.obj
 0001:00017690       $LN21                      10018690     libvcruntimed:undname.obj
 0001:000176bc       $LN20                      100186bc     libvcruntimed:undname.obj
 0001:00017ee0       $LN79                      10018ee0     libvcruntimed:undname.obj
 0001:00018930       $LN16                      10019930     libvcruntimed:undname.obj
 0001:00018950       $LN15                      10019950     libvcruntimed:undname.obj
 0001:00018ae4       $LN16                      10019ae4     libvcruntimed:undname.obj
 0001:00018b04       $LN18                      10019b04     libvcruntimed:undname.obj
 0001:00018b0c       $LN17                      10019b0c     libvcruntimed:undname.obj
 0001:0001a064       $LN64                      1001b064     libvcruntimed:undname.obj
 0001:0001a080       $LN63                      1001b080     libvcruntimed:undname.obj
 0001:0001a0e0       $LN66                      1001b0e0     libvcruntimed:undname.obj
 0001:0001a114       $LN65                      1001b114     libvcruntimed:undname.obj
 0001:0001a174       $LN67                      1001b174     libvcruntimed:undname.obj
 0001:0001a188       $LN69                      1001b188     libvcruntimed:undname.obj
 0001:0001a194       $LN68                      1001b194     libvcruntimed:undname.obj
 0001:0001a528       $LN30                      1001b528     libvcruntimed:undname.obj
 0001:0001a53c       $LN29                      1001b53c     libvcruntimed:undname.obj
 0001:0001a580       $LN32                      1001b580     libvcruntimed:undname.obj
 0001:0001a5a8       $LN31                      1001b5a8     libvcruntimed:undname.obj
 0001:0001b074       $LN40                      1001c074     libvcruntimed:undname.obj
 0001:0001b08c       $LN39                      1001c08c     libvcruntimed:undname.obj
 0001:0001b938       $LN27                      1001c938     libvcruntimed:undname.obj
 0001:0001b94c       $LN26                      1001c94c     libvcruntimed:undname.obj
 0001:0001c0dc       $LN39                      1001d0dc     libvcruntimed:undname.obj
 0001:0001c108       $LN38                      1001d108     libvcruntimed:undname.obj
 0001:0001c160       $LN40                      1001d160     libvcruntimed:undname.obj
 0001:0001c174       $LN41                      1001d174     libvcruntimed:undname.obj
 0001:0001cccc       $LN117                     1001dccc     libvcruntimed:undname.obj
 0001:0001cce8       $LN119                     1001dce8     libvcruntimed:undname.obj
 0001:0001cd10       $LN118                     1001dd10     libvcruntimed:undname.obj
 0001:0001cd64       $LN121                     1001dd64     libvcruntimed:undname.obj
 0001:0001cd7c       $LN120                     1001dd7c     libvcruntimed:undname.obj
 0001:0001cde8       $LN122                     1001dde8     libvcruntimed:undname.obj
 0001:0001dae0       ?und_memcpy@@YAXPADPBDI@Z  1001eae0 f   libvcruntimed:undname.obj
 0001:0001db20       ?und_strlen@@YAIPBD@Z      1001eb20 f   libvcruntimed:undname.obj
 0001:0001db60       ?und_strncmp@@YAIPBD0I@Z   1001eb60 f   libvcruntimed:undname.obj
 0001:0001dd90       ?invalid_function_sentinel@@YAPAXXZ 1001ed90 f   libvcruntimed:winapi_downlevel.obj
 0001:0001dda0       ?try_get_FlsAlloc@@YAP6GKP6GXPAX@Z@ZXZ 1001eda0 f   libvcruntimed:winapi_downlevel.obj
 0001:0001ddc0       ?try_get_FlsFree@@YAP6GHK@ZXZ 1001edc0 f   libvcruntimed:winapi_downlevel.obj
 0001:0001dde0       ?try_get_FlsGetValue@@YAP6GPAXK@ZXZ 1001ede0 f   libvcruntimed:winapi_downlevel.obj
 0001:0001de00       ?try_get_FlsSetValue@@YAP6GHKPAX@ZXZ 1001ee00 f   libvcruntimed:winapi_downlevel.obj
 0001:0001de20       ?try_get_InitializeCriticalSectionEx@@YAP6GHPAU_RTL_CRITICAL_SECTION@@KK@ZXZ 1001ee20 f   libvcruntimed:winapi_downlevel.obj
 0001:0001de40       ?try_get_first_available_module@@YAPAUHINSTANCE__@@QBW4module_id@?A0x09dcfcb8@@0@Z 1001ee40 f   libvcruntimed:winapi_downlevel.obj
 0001:0001de90       ?try_get_function@@YAPAXW4function_id@?A0x09dcfcb8@@QBDQBW4module_id@2@2@Z 1001ee90 f   libvcruntimed:winapi_downlevel.obj
 0001:0001dfa0       ?try_get_module@@YAPAUHINSTANCE__@@W4module_id@?A0x09dcfcb8@@@Z 1001efa0 f   libvcruntimed:winapi_downlevel.obj
 0001:0001e0a0       ?try_get_proc_address_from_first_available_module@@YAPAXQBDQBW4module_id@?A0x09dcfcb8@@1@Z 1001f0a0 f   libvcruntimed:winapi_downlevel.obj
 0001:0001e0e0       ?try_load_library_from_system_directory@@YAPAUHINSTANCE__@@QB_W@Z 1001f0e0 f   libvcruntimed:winapi_downlevel.obj
 0001:0001e2a0       $$000000                   1001f2a0     libvcruntimed:exsup.obj
 0001:0001e2c1       __unwind_handler           1001f2c1 f   libvcruntimed:exsup.obj
 0001:0001e3e0       ?get_unexpected_or_default@@YAP6AXXZQBU__vcrt_ptd@@@Z 1001f3e0 f   libvcruntimed:unexpected.obj
 0001:0001ea40       ??$?RV<lambda_6b91fda0574d829f36484cbf4428f79d>@@AAV<lambda_a6a20e8ed7c4ffd287162f70e68c8000>@@V<lambda_6f6612a01283b279e88a3dda7d7a9d30>@@@?$__crt_seh_guarded_call@H@@QAEH$$QAV<lambda_6b91fda0574d829f36484cbf4428f79d>@@AAV<lambda_a6a20e8ed7c4ffd287162f70e68c8000>@@$$QAV<lambda_6f6612a01283b279e88a3dda7d7a9d30>@@@Z 1001fa40 f   libucrtd:dbgrpt.obj
 0001:0001ead0       ??$?RV<lambda_b3f2a7703f147ea4aca55ed56acde2ed>@@AAV<lambda_a222bbfdcf97c91f7d8030c20e23060e>@@V<lambda_069423356000c0f10f5fe96ac65db66d>@@@?$__crt_seh_guarded_call@H@@QAEH$$QAV<lambda_b3f2a7703f147ea4aca55ed56acde2ed>@@AAV<lambda_a222bbfdcf97c91f7d8030c20e23060e>@@$$QAV<lambda_069423356000c0f10f5fe96ac65db66d>@@@Z 1001fad0 f   libucrtd:dbgrpt.obj
 0001:0001eb60       ??$__acrt_lock_and_call@V<lambda_a222bbfdcf97c91f7d8030c20e23060e>@@@@YAHW4__acrt_lock_id@@$$QAV<lambda_a222bbfdcf97c91f7d8030c20e23060e>@@@Z 1001fb60 f   libucrtd:dbgrpt.obj
 0001:0001eba0       ??$__acrt_lock_and_call@V<lambda_a6a20e8ed7c4ffd287162f70e68c8000>@@@@YAHW4__acrt_lock_id@@$$QAV<lambda_a6a20e8ed7c4ffd287162f70e68c8000>@@@Z 1001fba0 f   libucrtd:dbgrpt.obj
 0001:0001ebe0       ??$common_message_window@D@@YAHHQAXQBD111@Z 1001fbe0 f   libucrtd:dbgrpt.obj
 0001:0001f0d0       ??$common_message_window@_W@@YAHHQAXQB_W111@Z 100200d0 f   libucrtd:dbgrpt.obj
 0001:0001f5d0       ??$common_set_report_hook@DP6AHHPADPAH@Z@@YAHHQ6AHHPADPAH@Z@Z 100205d0 f   libucrtd:dbgrpt.obj
 0001:0001f6f0       ??$common_set_report_hook@_WP6AHHPA_WPAH@Z@@YAHHQ6AHHPA_WPAH@Z@Z 100206f0 f   libucrtd:dbgrpt.obj
 0001:0001f910       ??0<lambda_069423356000c0f10f5fe96ac65db66d>@@QAE@ABW4__acrt_lock_id@@@Z 10020910 f   libucrtd:dbgrpt.obj
 0001:0001f930       ??0<lambda_6b91fda0574d829f36484cbf4428f79d>@@QAE@ABW4__acrt_lock_id@@@Z 10020930 f   libucrtd:dbgrpt.obj
 0001:0001f950       ??0<lambda_6f6612a01283b279e88a3dda7d7a9d30>@@QAE@ABW4__acrt_lock_id@@@Z 10020950 f   libucrtd:dbgrpt.obj
 0001:0001f970       ??0<lambda_a222bbfdcf97c91f7d8030c20e23060e>@@QAE@ABQ6AHHPADPAH@ZABH@Z 10020970 f   libucrtd:dbgrpt.obj
 0001:0001f9a0       ??0<lambda_a6a20e8ed7c4ffd287162f70e68c8000>@@QAE@ABQ6AHHPA_WPAH@ZABH@Z 100209a0 f   libucrtd:dbgrpt.obj
 0001:0001f9d0       ??0<lambda_b3f2a7703f147ea4aca55ed56acde2ed>@@QAE@ABW4__acrt_lock_id@@@Z 100209d0 f   libucrtd:dbgrpt.obj
 0001:0001fab0       ??R<lambda_069423356000c0f10f5fe96ac65db66d>@@QBEXXZ 10020ab0 f   libucrtd:dbgrpt.obj
 0001:0001fad0       ??R<lambda_6b91fda0574d829f36484cbf4428f79d>@@QBEXXZ 10020ad0 f   libucrtd:dbgrpt.obj
 0001:0001faf0       ??R<lambda_6f6612a01283b279e88a3dda7d7a9d30>@@QBEXXZ 10020af0 f   libucrtd:dbgrpt.obj
 0001:0001fb10       ??R<lambda_a222bbfdcf97c91f7d8030c20e23060e>@@QBEHXZ 10020b10 f   libucrtd:dbgrpt.obj
 0001:0001fd60       ??R<lambda_a6a20e8ed7c4ffd287162f70e68c8000>@@QBEHXZ 10020d60 f   libucrtd:dbgrpt.obj
 0001:0001ffb0       ??R<lambda_b3f2a7703f147ea4aca55ed56acde2ed>@@QBEXXZ 10020fb0 f   libucrtd:dbgrpt.obj
 0001:00020070       ?get_output_message_format@@YAPB_WD@Z 10021070 f   libucrtd:dbgrpt.obj
 0001:00020080       ?get_output_message_format@@YAPB_W_W@Z 10021080 f   libucrtd:dbgrpt.obj
 0001:00020090       ?get_program_name_unknown_text@@YAPBDD@Z 10021090 f   libucrtd:dbgrpt.obj
 0001:000200a0       ?get_program_name_unknown_text@@YAPB_W_W@Z 100210a0 f   libucrtd:dbgrpt.obj
 0001:000200b0       ?get_report_hook_list@@YAAAPAU?$__crt_report_hook_node@D@@D@Z 100210b0 f   libucrtd:dbgrpt.obj
 0001:000200c0       ?get_report_hook_list@@YAAAPAU?$__crt_report_hook_node@_W@@_W@Z 100210c0 f   libucrtd:dbgrpt.obj
 0001:000203e0       ??$common_tcscpy_s@_W@@YAHQA_WIQB_W@Z 100213e0 f   libucrtd:wcscpy_s.obj
 0001:00020720       ??$common_strnlen@$00G@@YAIQBGI@Z 10021720 f   libucrtd:strnlen.obj
 0001:00020770       ??$common_strnlen@$0A@E@@YAIQBEI@Z 10021770 f   libucrtd:strnlen.obj
 0001:000207c0       ??$common_strnlen@$0A@G@@YAIQBGI@Z 100217c0 f   libucrtd:strnlen.obj
 0001:00020810       ??$common_strnlen_c@$00G@@YAIQBGI@Z 10021810 f   libucrtd:strnlen.obj
 0001:00020870       ??$common_strnlen_c@$0A@E@@YAIQBEI@Z 10021870 f   libucrtd:strnlen.obj
 0001:000208c0       ??$common_strnlen_c@$0A@G@@YAIQBGI@Z 100218c0 f   libucrtd:strnlen.obj
 0001:00020920       ??$common_strnlen_simd@$00$00G@@YAIQBGI@Z 10021920 f   libucrtd:strnlen.obj
 0001:00020b00       ??$common_strnlen_simd@$00$0A@G@@YAIQBGI@Z 10021b00 f   libucrtd:strnlen.obj
 0001:00020cc0       ??$common_strnlen_simd@$0A@$00E@@YAIQBEI@Z 10021cc0 f   libucrtd:strnlen.obj
 0001:00020e90       ??$common_strnlen_simd@$0A@$00G@@YAIQBGI@Z 10021e90 f   libucrtd:strnlen.obj
 0001:00021070       ??$common_strnlen_simd@$0A@$0A@E@@YAIQBEI@Z 10022070 f   libucrtd:strnlen.obj
 0001:00021220       ??$common_strnlen_simd@$0A@$0A@G@@YAIQBGI@Z 10022220 f   libucrtd:strnlen.obj
 0001:000213e0       ??$last_reached@$00@@YA_NQBX0@Z 100223e0 f   libucrtd:strnlen.obj
 0001:000213f0       ??$last_reached@$0A@@@YA_NQBX0@Z 100223f0 f   libucrtd:strnlen.obj
 0001:00021a60       ??$?RV<lambda_3cfd252a7c5e244e8f20fc56fe35ebe9>@@AAV<lambda_d7427dbf72509eba5fa970998bac2a27>@@V<lambda_8f55a0afecd2292d47fde3ce68e72492>@@@?$__crt_seh_guarded_call@H@@QAEH$$QAV<lambda_3cfd252a7c5e244e8f20fc56fe35ebe9>@@AAV<lambda_d7427dbf72509eba5fa970998bac2a27>@@$$QAV<lambda_8f55a0afecd2292d47fde3ce68e72492>@@@Z 10022a60 f   libucrtd:output.obj
 0001:00021af0       ??$?RV<lambda_5d912c5eb12d68f7685796d855ab8da6>@@AAV<lambda_81587a929b95143618da2bd798ca9df2>@@V<lambda_bfd63e08e93a545639db6d324cf10d1a>@@@?$__crt_seh_guarded_call@H@@QAEH$$QAV<lambda_5d912c5eb12d68f7685796d855ab8da6>@@AAV<lambda_81587a929b95143618da2bd798ca9df2>@@$$QAV<lambda_bfd63e08e93a545639db6d324cf10d1a>@@@Z 10022af0 f   libucrtd:output.obj
 0001:00021b80       ??$?RV<lambda_9b2bd5c6bb91c5c032542faa5c3cb611>@@AAV<lambda_be68057ced330f874c40fe9612235e36>@@V<lambda_dbd837d1c0b7fc6e2d81c287c81c071b>@@@?$__crt_seh_guarded_call@H@@QAEH$$QAV<lambda_9b2bd5c6bb91c5c032542faa5c3cb611>@@AAV<lambda_be68057ced330f874c40fe9612235e36>@@$$QAV<lambda_dbd837d1c0b7fc6e2d81c287c81c071b>@@@Z 10022b80 f   libucrtd:output.obj
 0001:00021c10       ??$?RV<lambda_ba8264b40644a42074cedf043e7aa388>@@AAV<lambda_9dc9bc4853282e051506c0cc602abcf3>@@V<lambda_1c412e3457517a614fb7d0c137686c95>@@@?$__crt_seh_guarded_call@H@@QAEH$$QAV<lambda_ba8264b40644a42074cedf043e7aa388>@@AAV<lambda_9dc9bc4853282e051506c0cc602abcf3>@@$$QAV<lambda_1c412e3457517a614fb7d0c137686c95>@@@Z 10022c10 f   libucrtd:output.obj
 0001:00021ca0       ??$?RV<lambda_c29ee0499b841886b80d843682cc403a>@@AAV<lambda_0be4ab1c2a6918fda4e39227d83ea893>@@V<lambda_5a3ed3da325c8ea037a470278c0f2d16>@@@?$__crt_seh_guarded_call@H@@QAEH$$QAV<lambda_c29ee0499b841886b80d843682cc403a>@@AAV<lambda_0be4ab1c2a6918fda4e39227d83ea893>@@$$QAV<lambda_5a3ed3da325c8ea037a470278c0f2d16>@@@Z 10022ca0 f   libucrtd:output.obj
 0001:00021d30       ??$?RV<lambda_cae121c7667f229345c68b3f32b19755>@@AAV<lambda_b09925f738b1434f525bf50d3162636f>@@V<lambda_18d67e1eeb4dde13899af949c649d933>@@@?$__crt_seh_guarded_call@H@@QAEH$$QAV<lambda_cae121c7667f229345c68b3f32b19755>@@AAV<lambda_b09925f738b1434f525bf50d3162636f>@@$$QAV<lambda_18d67e1eeb4dde13899af949c649d933>@@@Z 10022d30 f   libucrtd:output.obj
 0001:00021dc0       ??$__acrt_lock_stream_and_call@V<lambda_0be4ab1c2a6918fda4e39227d83ea893>@@@@YAHQAU_iobuf@@$$QAV<lambda_0be4ab1c2a6918fda4e39227d83ea893>@@@Z 10022dc0 f   libucrtd:output.obj
 0001:00021e00       ??$__acrt_lock_stream_and_call@V<lambda_81587a929b95143618da2bd798ca9df2>@@@@YAHQAU_iobuf@@$$QAV<lambda_81587a929b95143618da2bd798ca9df2>@@@Z 10022e00 f   libucrtd:output.obj
 0001:00021e40       ??$__acrt_lock_stream_and_call@V<lambda_9dc9bc4853282e051506c0cc602abcf3>@@@@YAHQAU_iobuf@@$$QAV<lambda_9dc9bc4853282e051506c0cc602abcf3>@@@Z 10022e40 f   libucrtd:output.obj
 0001:00021e80       ??$__acrt_lock_stream_and_call@V<lambda_b09925f738b1434f525bf50d3162636f>@@@@YAHQAU_iobuf@@$$QAV<lambda_b09925f738b1434f525bf50d3162636f>@@@Z 10022e80 f   libucrtd:output.obj
 0001:00021ec0       ??$__acrt_lock_stream_and_call@V<lambda_be68057ced330f874c40fe9612235e36>@@@@YAHQAU_iobuf@@$$QAV<lambda_be68057ced330f874c40fe9612235e36>@@@Z 10022ec0 f   libucrtd:output.obj
 0001:00021f00       ??$__acrt_lock_stream_and_call@V<lambda_d7427dbf72509eba5fa970998bac2a27>@@@@YAHQAU_iobuf@@$$QAV<lambda_d7427dbf72509eba5fa970998bac2a27>@@@Z 10022f00 f   libucrtd:output.obj
 0001:00021f60       ??$common_vfprintf@Vformat_validation_base@__crt_stdio_output@@D@@YAH_KQAU_iobuf@@QBDQAU__crt_locale_pointers@@QAD@Z 10022f60 f   libucrtd:output.obj
 0001:00022090       ??$common_vfprintf@Vformat_validation_base@__crt_stdio_output@@_W@@YAH_KQAU_iobuf@@QB_WQAU__crt_locale_pointers@@QAD@Z 10023090 f   libucrtd:output.obj
 0001:000221c0       ??$common_vfprintf@Vpositional_parameter_base@__crt_stdio_output@@D@@YAH_KQAU_iobuf@@QBDQAU__crt_locale_pointers@@QAD@Z 100231c0 f   libucrtd:output.obj
 0001:000222f0       ??$common_vfprintf@Vpositional_parameter_base@__crt_stdio_output@@_W@@YAH_KQAU_iobuf@@QB_WQAU__crt_locale_pointers@@QAD@Z 100232f0 f   libucrtd:output.obj
 0001:00022420       ??$common_vfprintf@Vstandard_base@__crt_stdio_output@@D@@YAH_KQAU_iobuf@@QBDQAU__crt_locale_pointers@@QAD@Z 10023420 f   libucrtd:output.obj
 0001:00022550       ??$common_vfprintf@Vstandard_base@__crt_stdio_output@@_W@@YAH_KQAU_iobuf@@QB_WQAU__crt_locale_pointers@@QAD@Z 10023550 f   libucrtd:output.obj
 0001:00022680       ??$common_vsnprintf_s@D@@YAH_KQADIIQBDQAU__crt_locale_pointers@@1@Z 10023680 f   libucrtd:output.obj
 0001:00022a50       ??$common_vsnprintf_s@_W@@YAH_KQA_WIIQB_WQAU__crt_locale_pointers@@QAD@Z 10023a50 f   libucrtd:output.obj
 0001:00022e30       ??$common_vsprintf@Vformat_validation_base@__crt_stdio_output@@D@@YAH_KQADIQBDQAU__crt_locale_pointers@@1@Z 10023e30 f   libucrtd:output.obj
 0001:00023260       ??$common_vsprintf@Vformat_validation_base@__crt_stdio_output@@_W@@YAH_KQA_WIQB_WQAU__crt_locale_pointers@@QAD@Z 10024260 f   libucrtd:output.obj
 0001:000236b0       ??$common_vsprintf@Vpositional_parameter_base@__crt_stdio_output@@D@@YAH_KQADIQBDQAU__crt_locale_pointers@@1@Z 100246b0 f   libucrtd:output.obj
 0001:00023ae0       ??$common_vsprintf@Vpositional_parameter_base@__crt_stdio_output@@_W@@YAH_KQA_WIQB_WQAU__crt_locale_pointers@@QAD@Z 10024ae0 f   libucrtd:output.obj
 0001:00023f30       ??$common_vsprintf@Vstandard_base@__crt_stdio_output@@D@@YAH_KQADIQBDQAU__crt_locale_pointers@@1@Z 10024f30 f   libucrtd:output.obj
 0001:00024360       ??$common_vsprintf@Vstandard_base@__crt_stdio_output@@_W@@YAH_KQA_WIQB_WQAU__crt_locale_pointers@@QAD@Z 10025360 f   libucrtd:output.obj
 0001:000247b0       ??$common_vsprintf_s@D@@YAH_KQADIQBDQAU__crt_locale_pointers@@1@Z 100257b0 f   libucrtd:output.obj
 0001:00024a40       ??$common_vsprintf_s@_W@@YAH_KQA_WIQB_WQAU__crt_locale_pointers@@QAD@Z 10025a40 f   libucrtd:output.obj
 0001:000279b0       ??$extract_argument_from_va_list@PAUansi_string@?1??type_case_Z@?$output_processor@DV?$stream_output_adapter@D@__crt_stdio_output@@V?$format_validation_base@DV?$stream_output_adapter@D@__crt_stdio_output@@@2@@__crt_stdio_output@@AAE_NXZ@PAU1?1??234@AAE_NXZ@@?$standard_base@DV?$stream_output_adapter@D@__crt_stdio_output@@@__crt_stdio_output@@IAE_NAAPAUansi_string@?1??type_case_Z@?$output_processor@DV?$stream_output_adapter@D@__crt_stdio_output@@V?$format_validation_base@DV?$stream_output_adapter@D@__crt_stdio_output@@@2@@1@AAE_NXZ@@Z 100289b0 f   libucrtd:output.obj
 0001:000279e0       ??$extract_argument_from_va_list@PAUansi_string@?1??type_case_Z@?$output_processor@DV?$stream_output_adapter@D@__crt_stdio_output@@V?$positional_parameter_base@DV?$stream_output_adapter@D@__crt_stdio_output@@@2@@__crt_stdio_output@@AAE_NXZ@PAU1?1??234@AAE_NXZ@@?$positional_parameter_base@DV?$stream_output_adapter@D@__crt_stdio_output@@@__crt_stdio_output@@IAE_NAAPAUansi_string@?1??type_case_Z@?$output_processor@DV?$stream_output_adapter@D@__crt_stdio_output@@V?$positional_parameter_base@DV?$stream_output_adapter@D@__crt_stdio_output@@@2@@1@AAE_NXZ@@Z 100289e0 f   libucrtd:output.obj
 0001:00027b10       ??$extract_argument_from_va_list@PAUansi_string@?1??type_case_Z@?$output_processor@DV?$stream_output_adapter@D@__crt_stdio_output@@V?$positional_parameter_base@DV?$stream_output_adapter@D@__crt_stdio_output@@@2@@__crt_stdio_output@@AAE_NXZ@PAU1?1??234@AAE_NXZ@@?$standard_base@DV?$stream_output_adapter@D@__crt_stdio_output@@@__crt_stdio_output@@IAE_NAAPAUansi_string@?1??type_case_Z@?$output_processor@DV?$stream_output_adapter@D@__crt_stdio_output@@V?$positional_parameter_base@DV?$stream_output_adapter@D@__crt_stdio_output@@@2@@1@AAE_NXZ@@Z 10028b10 f   libucrtd:output.obj
 0001:00027b40       ??$extract_argument_from_va_list@PAUansi_string@?1??type_case_Z@?$output_processor@DV?$stream_output_adapter@D@__crt_stdio_output@@V?$standard_base@DV?$stream_output_adapter@D@__crt_stdio_output@@@2@@__crt_stdio_output@@AAE_NXZ@PAU1?1??234@AAE_NXZ@@?$standard_base@DV?$stream_output_adapter@D@__crt_stdio_output@@@__crt_stdio_output@@IAE_NAAPAUansi_string@?1??type_case_Z@?$output_processor@DV?$stream_output_adapter@D@__crt_stdio_output@@V?$standard_base@DV?$stream_output_adapter@D@__crt_stdio_output@@@2@@1@AAE_NXZ@@Z 10028b40 f   libucrtd:output.obj
 0001:00027b70       ??$extract_argument_from_va_list@PAUansi_string@?1??type_case_Z@?$output_processor@DV?$string_output_adapter@D@__crt_stdio_output@@V?$format_validation_base@DV?$string_output_adapter@D@__crt_stdio_output@@@2@@__crt_stdio_output@@AAE_NXZ@PAU1?1??234@AAE_NXZ@@?$standard_base@DV?$string_output_adapter@D@__crt_stdio_output@@@__crt_stdio_output@@IAE_NAAPAUansi_string@?1??type_case_Z@?$output_processor@DV?$string_output_adapter@D@__crt_stdio_output@@V?$format_validation_base@DV?$string_output_adapter@D@__crt_stdio_output@@@2@@1@AAE_NXZ@@Z 10028b70 f   libucrtd:output.obj
 0001:00027ba0       ??$extract_argument_from_va_list@PAUansi_string@?1??type_case_Z@?$output_processor@DV?$string_output_adapter@D@__crt_stdio_output@@V?$positional_parameter_base@DV?$string_output_adapter@D@__crt_stdio_output@@@2@@__crt_stdio_output@@AAE_NXZ@PAU1?1??234@AAE_NXZ@@?$positional_parameter_base@DV?$string_output_adapter@D@__crt_stdio_output@@@__crt_stdio_output@@IAE_NAAPAUansi_string@?1??type_case_Z@?$output_processor@DV?$string_output_adapter@D@__crt_stdio_output@@V?$positional_parameter_base@DV?$string_output_adapter@D@__crt_stdio_output@@@2@@1@AAE_NXZ@@Z 10028ba0 f   libucrtd:output.obj
 0001:00027cd0       ??$extract_argument_from_va_list@PAUansi_string@?1??type_case_Z@?$output_processor@DV?$string_output_adapter@D@__crt_stdio_output@@V?$positional_parameter_base@DV?$string_output_adapter@D@__crt_stdio_output@@@2@@__crt_stdio_output@@AAE_NXZ@PAU1?1??234@AAE_NXZ@@?$standard_base@DV?$string_output_adapter@D@__crt_stdio_output@@@__crt_stdio_output@@IAE_NAAPAUansi_string@?1??type_case_Z@?$output_processor@DV?$string_output_adapter@D@__crt_stdio_output@@V?$positional_parameter_base@DV?$string_output_adapter@D@__crt_stdio_output@@@2@@1@AAE_NXZ@@Z 10028cd0 f   libucrtd:output.obj
 0001:00027d00       ??$extract_argument_from_va_list@PAUansi_string@?1??type_case_Z@?$output_processor@DV?$string_output_adapter@D@__crt_stdio_output@@V?$standard_base@DV?$string_output_adapter@D@__crt_stdio_output@@@2@@__crt_stdio_output@@AAE_NXZ@PAU1?1??234@AAE_NXZ@@?$standard_base@DV?$string_output_adapter@D@__crt_stdio_output@@@__crt_stdio_output@@IAE_NAAPAUansi_string@?1??type_case_Z@?$output_processor@DV?$string_output_adapter@D@__crt_stdio_output@@V?$standard_base@DV?$string_output_adapter@D@__crt_stdio_output@@@2@@1@AAE_NXZ@@Z 10028d00 f   libucrtd:output.obj
 0001:00027d30       ??$extract_argument_from_va_list@PAUansi_string@?1??type_case_Z@?$output_processor@_WV?$stream_output_adapter@_W@__crt_stdio_output@@V?$format_validation_base@_WV?$stream_output_adapter@_W@__crt_stdio_output@@@2@@__crt_stdio_output@@AAE_NXZ@PAU1?1??234@AAE_NXZ@@?$standard_base@_WV?$stream_output_adapter@_W@__crt_stdio_output@@@__crt_stdio_output@@IAE_NAAPAUansi_string@?1??type_case_Z@?$output_processor@_WV?$stream_output_adapter@_W@__crt_stdio_output@@V?$format_validation_base@_WV?$stream_output_adapter@_W@__crt_stdio_output@@@2@@1@AAE_NXZ@@Z 10028d30 f   libucrtd:output.obj
 0001:00027d60       ??$extract_argument_from_va_list@PAUansi_string@?1??type_case_Z@?$output_processor@_WV?$stream_output_adapter@_W@__crt_stdio_output@@V?$positional_parameter_base@_WV?$stream_output_adapter@_W@__crt_stdio_output@@@2@@__crt_stdio_output@@AAE_NXZ@PAU1?1??234@AAE_NXZ@@?$positional_parameter_base@_WV?$stream_output_adapter@_W@__crt_stdio_output@@@__crt_stdio_output@@IAE_NAAPAUansi_string@?1??type_case_Z@?$output_processor@_WV?$stream_output_adapter@_W@__crt_stdio_output@@V?$positional_parameter_base@_WV?$stream_output_adapter@_W@__crt_stdio_output@@@2@@1@AAE_NXZ@@Z 10028d60 f   libucrtd:output.obj
 0001:00027e90       ??$extract_argument_from_va_list@PAUansi_string@?1??type_case_Z@?$output_processor@_WV?$stream_output_adapter@_W@__crt_stdio_output@@V?$positional_parameter_base@_WV?$stream_output_adapter@_W@__crt_stdio_output@@@2@@__crt_stdio_output@@AAE_NXZ@PAU1?1??234@AAE_NXZ@@?$standard_base@_WV?$stream_output_adapter@_W@__crt_stdio_output@@@__crt_stdio_output@@IAE_NAAPAUansi_string@?1??type_case_Z@?$output_processor@_WV?$stream_output_adapter@_W@__crt_stdio_output@@V?$positional_parameter_base@_WV?$stream_output_adapter@_W@__crt_stdio_output@@@2@@1@AAE_NXZ@@Z 10028e90 f   libucrtd:output.obj
 0001:00027ec0       ??$extract_argument_from_va_list@PAUansi_string@?1??type_case_Z@?$output_processor@_WV?$stream_output_adapter@_W@__crt_stdio_output@@V?$standard_base@_WV?$stream_output_adapter@_W@__crt_stdio_output@@@2@@__crt_stdio_output@@AAE_NXZ@PAU1?1??234@AAE_NXZ@@?$standard_base@_WV?$stream_output_adapter@_W@__crt_stdio_output@@@__crt_stdio_output@@IAE_NAAPAUansi_string@?1??type_case_Z@?$output_processor@_WV?$stream_output_adapter@_W@__crt_stdio_output@@V?$standard_base@_WV?$stream_output_adapter@_W@__crt_stdio_output@@@2@@1@AAE_NXZ@@Z 10028ec0 f   libucrtd:output.obj
 0001:00027ef0       ??$extract_argument_from_va_list@PAUansi_string@?1??type_case_Z@?$output_processor@_WV?$string_output_adapter@_W@__crt_stdio_output@@V?$format_validation_base@_WV?$string_output_adapter@_W@__crt_stdio_output@@@2@@__crt_stdio_output@@AAE_NXZ@PAU1?1??234@AAE_NXZ@@?$standard_base@_WV?$string_output_adapter@_W@__crt_stdio_output@@@__crt_stdio_output@@IAE_NAAPAUansi_string@?1??type_case_Z@?$output_processor@_WV?$string_output_adapter@_W@__crt_stdio_output@@V?$format_validation_base@_WV?$string_output_adapter@_W@__crt_stdio_output@@@2@@1@AAE_NXZ@@Z 10028ef0 f   libucrtd:output.obj
 0001:00027f20       ??$extract_argument_from_va_list@PAUansi_string@?1??type_case_Z@?$output_processor@_WV?$string_output_adapter@_W@__crt_stdio_output@@V?$positional_parameter_base@_WV?$string_output_adapter@_W@__crt_stdio_output@@@2@@__crt_stdio_output@@AAE_NXZ@PAU1?1??234@AAE_NXZ@@?$positional_parameter_base@_WV?$string_output_adapter@_W@__crt_stdio_output@@@__crt_stdio_output@@IAE_NAAPAUansi_string@?1??type_case_Z@?$output_processor@_WV?$string_output_adapter@_W@__crt_stdio_output@@V?$positional_parameter_base@_WV?$string_output_adapter@_W@__crt_stdio_output@@@2@@1@AAE_NXZ@@Z 10028f20 f   libucrtd:output.obj
 0001:00028050       ??$extract_argument_from_va_list@PAUansi_string@?1??type_case_Z@?$output_processor@_WV?$string_output_adapter@_W@__crt_stdio_output@@V?$positional_parameter_base@_WV?$string_output_adapter@_W@__crt_stdio_output@@@2@@__crt_stdio_output@@AAE_NXZ@PAU1?1??234@AAE_NXZ@@?$standard_base@_WV?$string_output_adapter@_W@__crt_stdio_output@@@__crt_stdio_output@@IAE_NAAPAUansi_string@?1??type_case_Z@?$output_processor@_WV?$string_output_adapter@_W@__crt_stdio_output@@V?$positional_parameter_base@_WV?$string_output_adapter@_W@__crt_stdio_output@@@2@@1@AAE_NXZ@@Z 10029050 f   libucrtd:output.obj
 0001:00028080       ??$extract_argument_from_va_list@PAUansi_string@?1??type_case_Z@?$output_processor@_WV?$string_output_adapter@_W@__crt_stdio_output@@V?$standard_base@_WV?$string_output_adapter@_W@__crt_stdio_output@@@2@@__crt_stdio_output@@AAE_NXZ@PAU1?1??234@AAE_NXZ@@?$standard_base@_WV?$string_output_adapter@_W@__crt_stdio_output@@@__crt_stdio_output@@IAE_NAAPAUansi_string@?1??type_case_Z@?$output_processor@_WV?$string_output_adapter@_W@__crt_stdio_output@@V?$standard_base@_WV?$string_output_adapter@_W@__crt_stdio_output@@@2@@1@AAE_NXZ@@Z 10029080 f   libucrtd:output.obj
 0001:00029db0       ??$get_parameter_type@Uansi_string@?1??type_case_Z@?$output_processor@DV?$stream_output_adapter@D@__crt_stdio_output@@V?$positional_parameter_base@DV?$stream_output_adapter@D@__crt_stdio_output@@@2@@__crt_stdio_output@@AAE_NXZ@@?$positional_parameter_base@DV?$stream_output_adapter@D@__crt_stdio_output@@@__crt_stdio_output@@CA?AW4parameter_type@01@PAUansi_string@?1??type_case_Z@?$output_processor@DV?$stream_output_adapter@D@__crt_stdio_output@@V?$positional_parameter_base@DV?$stream_output_adapter@D@__crt_stdio_output@@@2@@1@AAE_NXZ@@Z 1002adb0 f   libucrtd:output.obj
 0001:00029dc0       ??$get_parameter_type@Uansi_string@?1??type_case_Z@?$output_processor@DV?$string_output_adapter@D@__crt_stdio_output@@V?$positional_parameter_base@DV?$string_output_adapter@D@__crt_stdio_output@@@2@@__crt_stdio_output@@AAE_NXZ@@?$positional_parameter_base@DV?$string_output_adapter@D@__crt_stdio_output@@@__crt_stdio_output@@CA?AW4parameter_type@01@PAUansi_string@?1??type_case_Z@?$output_processor@DV?$string_output_adapter@D@__crt_stdio_output@@V?$positional_parameter_base@DV?$string_output_adapter@D@__crt_stdio_output@@@2@@1@AAE_NXZ@@Z 1002adc0 f   libucrtd:output.obj
 0001:00029dd0       ??$get_parameter_type@Uansi_string@?1??type_case_Z@?$output_processor@_WV?$stream_output_adapter@_W@__crt_stdio_output@@V?$positional_parameter_base@_WV?$stream_output_adapter@_W@__crt_stdio_output@@@2@@__crt_stdio_output@@AAE_NXZ@@?$positional_parameter_base@_WV?$stream_output_adapter@_W@__crt_stdio_output@@@__crt_stdio_output@@CA?AW4parameter_type@01@PAUansi_string@?1??type_case_Z@?$output_processor@_WV?$stream_output_adapter@_W@__crt_stdio_output@@V?$positional_parameter_base@_WV?$stream_output_adapter@_W@__crt_stdio_output@@@2@@1@AAE_NXZ@@Z 1002add0 f   libucrtd:output.obj
 0001:00029de0       ??$get_parameter_type@Uansi_string@?1??type_case_Z@?$output_processor@_WV?$string_output_adapter@_W@__crt_stdio_output@@V?$positional_parameter_base@_WV?$string_output_adapter@_W@__crt_stdio_output@@@2@@__crt_stdio_output@@AAE_NXZ@@?$positional_parameter_base@_WV?$string_output_adapter@_W@__crt_stdio_output@@@__crt_stdio_output@@CA?AW4parameter_type@01@PAUansi_string@?1??type_case_Z@?$output_processor@_WV?$string_output_adapter@_W@__crt_stdio_output@@V?$positional_parameter_base@_WV?$string_output_adapter@_W@__crt_stdio_output@@@2@@1@AAE_NXZ@@Z 1002ade0 f   libucrtd:output.obj
 0001:0002a410       ??$peek_va_arg@PAUansi_string@?1??type_case_Z@?$output_processor@DV?$stream_output_adapter@D@__crt_stdio_output@@V?$positional_parameter_base@DV?$stream_output_adapter@D@__crt_stdio_output@@@2@@__crt_stdio_output@@AAE_NXZ@@__crt_stdio_output@@YAPAUansi_string@?1??type_case_Z@?$output_processor@DV?$stream_output_adapter@D@__crt_stdio_output@@V?$positional_parameter_base@DV?$stream_output_adapter@D@__crt_stdio_output@@@2@@0@AAE_NXZ@PAD@Z 1002b410 f   libucrtd:output.obj
 0001:0002a430       ??$peek_va_arg@PAUansi_string@?1??type_case_Z@?$output_processor@DV?$string_output_adapter@D@__crt_stdio_output@@V?$positional_parameter_base@DV?$string_output_adapter@D@__crt_stdio_output@@@2@@__crt_stdio_output@@AAE_NXZ@@__crt_stdio_output@@YAPAUansi_string@?1??type_case_Z@?$output_processor@DV?$string_output_adapter@D@__crt_stdio_output@@V?$positional_parameter_base@DV?$string_output_adapter@D@__crt_stdio_output@@@2@@0@AAE_NXZ@PAD@Z 1002b430 f   libucrtd:output.obj
 0001:0002a450       ??$peek_va_arg@PAUansi_string@?1??type_case_Z@?$output_processor@_WV?$stream_output_adapter@_W@__crt_stdio_output@@V?$positional_parameter_base@_WV?$stream_output_adapter@_W@__crt_stdio_output@@@2@@__crt_stdio_output@@AAE_NXZ@@__crt_stdio_output@@YAPAUansi_string@?1??type_case_Z@?$output_processor@_WV?$stream_output_adapter@_W@__crt_stdio_output@@V?$positional_parameter_base@_WV?$stream_output_adapter@_W@__crt_stdio_output@@@2@@0@AAE_NXZ@PAD@Z 1002b450 f   libucrtd:output.obj
 0001:0002a470       ??$peek_va_arg@PAUansi_string@?1??type_case_Z@?$output_processor@_WV?$string_output_adapter@_W@__crt_stdio_output@@V?$positional_parameter_base@_WV?$string_output_adapter@_W@__crt_stdio_output@@@2@@__crt_stdio_output@@AAE_NXZ@@__crt_stdio_output@@YAPAUansi_string@?1??type_case_Z@?$output_processor@_WV?$string_output_adapter@_W@__crt_stdio_output@@V?$positional_parameter_base@_WV?$string_output_adapter@_W@__crt_stdio_output@@@2@@0@AAE_NXZ@PAD@Z 1002b470 f   libucrtd:output.obj
 0001:0002a650       ??$read_va_arg@PAUansi_string@?1??type_case_Z@?$output_processor@DV?$stream_output_adapter@D@__crt_stdio_output@@V?$format_validation_base@DV?$stream_output_adapter@D@__crt_stdio_output@@@2@@__crt_stdio_output@@AAE_NXZ@@__crt_stdio_output@@YAPAUansi_string@?1??type_case_Z@?$output_processor@DV?$stream_output_adapter@D@__crt_stdio_output@@V?$format_validation_base@DV?$stream_output_adapter@D@__crt_stdio_output@@@2@@0@AAE_NXZ@AAPAD@Z 1002b650 f   libucrtd:output.obj
 0001:0002a670       ??$read_va_arg@PAUansi_string@?1??type_case_Z@?$output_processor@DV?$stream_output_adapter@D@__crt_stdio_output@@V?$positional_parameter_base@DV?$stream_output_adapter@D@__crt_stdio_output@@@2@@__crt_stdio_output@@AAE_NXZ@@__crt_stdio_output@@YAPAUansi_string@?1??type_case_Z@?$output_processor@DV?$stream_output_adapter@D@__crt_stdio_output@@V?$positional_parameter_base@DV?$stream_output_adapter@D@__crt_stdio_output@@@2@@0@AAE_NXZ@AAPAD@Z 1002b670 f   libucrtd:output.obj
 0001:0002a690       ??$read_va_arg@PAUansi_string@?1??type_case_Z@?$output_processor@DV?$stream_output_adapter@D@__crt_stdio_output@@V?$standard_base@DV?$stream_output_adapter@D@__crt_stdio_output@@@2@@__crt_stdio_output@@AAE_NXZ@@__crt_stdio_output@@YAPAUansi_string@?1??type_case_Z@?$output_processor@DV?$stream_output_adapter@D@__crt_stdio_output@@V?$standard_base@DV?$stream_output_adapter@D@__crt_stdio_output@@@2@@0@AAE_NXZ@AAPAD@Z 1002b690 f   libucrtd:output.obj
 0001:0002a6b0       ??$read_va_arg@PAUansi_string@?1??type_case_Z@?$output_processor@DV?$string_output_adapter@D@__crt_stdio_output@@V?$format_validation_base@DV?$string_output_adapter@D@__crt_stdio_output@@@2@@__crt_stdio_output@@AAE_NXZ@@__crt_stdio_output@@YAPAUansi_string@?1??type_case_Z@?$output_processor@DV?$string_output_adapter@D@__crt_stdio_output@@V?$format_validation_base@DV?$string_output_adapter@D@__crt_stdio_output@@@2@@0@AAE_NXZ@AAPAD@Z 1002b6b0 f   libucrtd:output.obj
 0001:0002a6d0       ??$read_va_arg@PAUansi_string@?1??type_case_Z@?$output_processor@DV?$string_output_adapter@D@__crt_stdio_output@@V?$positional_parameter_base@DV?$string_output_adapter@D@__crt_stdio_output@@@2@@__crt_stdio_output@@AAE_NXZ@@__crt_stdio_output@@YAPAUansi_string@?1??type_case_Z@?$output_processor@DV?$string_output_adapter@D@__crt_stdio_output@@V?$positional_parameter_base@DV?$string_output_adapter@D@__crt_stdio_output@@@2@@0@AAE_NXZ@AAPAD@Z 1002b6d0 f   libucrtd:output.obj
 0001:0002a6f0       ??$read_va_arg@PAUansi_string@?1??type_case_Z@?$output_processor@DV?$string_output_adapter@D@__crt_stdio_output@@V?$standard_base@DV?$string_output_adapter@D@__crt_stdio_output@@@2@@__crt_stdio_output@@AAE_NXZ@@__crt_stdio_output@@YAPAUansi_string@?1??type_case_Z@?$output_processor@DV?$string_output_adapter@D@__crt_stdio_output@@V?$standard_base@DV?$string_output_adapter@D@__crt_stdio_output@@@2@@0@AAE_NXZ@AAPAD@Z 1002b6f0 f   libucrtd:output.obj
 0001:0002a710       ??$read_va_arg@PAUansi_string@?1??type_case_Z@?$output_processor@_WV?$stream_output_adapter@_W@__crt_stdio_output@@V?$format_validation_base@_WV?$stream_output_adapter@_W@__crt_stdio_output@@@2@@__crt_stdio_output@@AAE_NXZ@@__crt_stdio_output@@YAPAUansi_string@?1??type_case_Z@?$output_processor@_WV?$stream_output_adapter@_W@__crt_stdio_output@@V?$format_validation_base@_WV?$stream_output_adapter@_W@__crt_stdio_output@@@2@@0@AAE_NXZ@AAPAD@Z 1002b710 f   libucrtd:output.obj
 0001:0002a730       ??$read_va_arg@PAUansi_string@?1??type_case_Z@?$output_processor@_WV?$stream_output_adapter@_W@__crt_stdio_output@@V?$positional_parameter_base@_WV?$stream_output_adapter@_W@__crt_stdio_output@@@2@@__crt_stdio_output@@AAE_NXZ@@__crt_stdio_output@@YAPAUansi_string@?1??type_case_Z@?$output_processor@_WV?$stream_output_adapter@_W@__crt_stdio_output@@V?$positional_parameter_base@_WV?$stream_output_adapter@_W@__crt_stdio_output@@@2@@0@AAE_NXZ@AAPAD@Z 1002b730 f   libucrtd:output.obj
 0001:0002a750       ??$read_va_arg@PAUansi_string@?1??type_case_Z@?$output_processor@_WV?$stream_output_adapter@_W@__crt_stdio_output@@V?$standard_base@_WV?$stream_output_adapter@_W@__crt_stdio_output@@@2@@__crt_stdio_output@@AAE_NXZ@@__crt_stdio_output@@YAPAUansi_string@?1??type_case_Z@?$output_processor@_WV?$stream_output_adapter@_W@__crt_stdio_output@@V?$standard_base@_WV?$stream_output_adapter@_W@__crt_stdio_output@@@2@@0@AAE_NXZ@AAPAD@Z 1002b750 f   libucrtd:output.obj
 0001:0002a770       ??$read_va_arg@PAUansi_string@?1??type_case_Z@?$output_processor@_WV?$string_output_adapter@_W@__crt_stdio_output@@V?$format_validation_base@_WV?$string_output_adapter@_W@__crt_stdio_output@@@2@@__crt_stdio_output@@AAE_NXZ@@__crt_stdio_output@@YAPAUansi_string@?1??type_case_Z@?$output_processor@_WV?$string_output_adapter@_W@__crt_stdio_output@@V?$format_validation_base@_WV?$string_output_adapter@_W@__crt_stdio_output@@@2@@0@AAE_NXZ@AAPAD@Z 1002b770 f   libucrtd:output.obj
 0001:0002a790       ??$read_va_arg@PAUansi_string@?1??type_case_Z@?$output_processor@_WV?$string_output_adapter@_W@__crt_stdio_output@@V?$positional_parameter_base@_WV?$string_output_adapter@_W@__crt_stdio_output@@@2@@__crt_stdio_output@@AAE_NXZ@@__crt_stdio_output@@YAPAUansi_string@?1??type_case_Z@?$output_processor@_WV?$string_output_adapter@_W@__crt_stdio_output@@V?$positional_parameter_base@_WV?$string_output_adapter@_W@__crt_stdio_output@@@2@@0@AAE_NXZ@AAPAD@Z 1002b790 f   libucrtd:output.obj
 0001:0002a7b0       ??$read_va_arg@PAUansi_string@?1??type_case_Z@?$output_processor@_WV?$string_output_adapter@_W@__crt_stdio_output@@V?$standard_base@_WV?$string_output_adapter@_W@__crt_stdio_output@@@2@@__crt_stdio_output@@AAE_NXZ@@__crt_stdio_output@@YAPAUansi_string@?1??type_case_Z@?$output_processor@_WV?$string_output_adapter@_W@__crt_stdio_output@@V?$standard_base@_WV?$string_output_adapter@_W@__crt_stdio_output@@@2@@0@AAE_NXZ@AAPAD@Z 1002b7b0 f   libucrtd:output.obj
 0001:0002c0a0       ??0<lambda_0be4ab1c2a6918fda4e39227d83ea893>@@QAE@ABQAU_iobuf@@ABQAU__crt_locale_pointers@@AB_KABQBDABQAD@Z 1002d0a0 f   libucrtd:output.obj
 0001:0002c0e0       ??0<lambda_18d67e1eeb4dde13899af949c649d933>@@QAE@ABQAU_iobuf@@@Z 1002d0e0 f   libucrtd:output.obj
 0001:0002c100       ??0<lambda_1c412e3457517a614fb7d0c137686c95>@@QAE@ABQAU_iobuf@@@Z 1002d100 f   libucrtd:output.obj
 0001:0002c120       ??0<lambda_3cfd252a7c5e244e8f20fc56fe35ebe9>@@QAE@ABQAU_iobuf@@@Z 1002d120 f   libucrtd:output.obj
 0001:0002c140       ??0<lambda_5a3ed3da325c8ea037a470278c0f2d16>@@QAE@ABQAU_iobuf@@@Z 1002d140 f   libucrtd:output.obj
 0001:0002c160       ??0<lambda_5d912c5eb12d68f7685796d855ab8da6>@@QAE@ABQAU_iobuf@@@Z 1002d160 f   libucrtd:output.obj
 0001:0002c180       ??0<lambda_81587a929b95143618da2bd798ca9df2>@@QAE@ABQAU_iobuf@@ABQAU__crt_locale_pointers@@AB_KABQBDABQAD@Z 1002d180 f   libucrtd:output.obj
 0001:0002c1c0       ??0<lambda_8f55a0afecd2292d47fde3ce68e72492>@@QAE@ABQAU_iobuf@@@Z 1002d1c0 f   libucrtd:output.obj
 0001:0002c1e0       ??0<lambda_9b2bd5c6bb91c5c032542faa5c3cb611>@@QAE@ABQAU_iobuf@@@Z 1002d1e0 f   libucrtd:output.obj
 0001:0002c200       ??0<lambda_9dc9bc4853282e051506c0cc602abcf3>@@QAE@ABQAU_iobuf@@ABQAU__crt_locale_pointers@@AB_KABQBDABQAD@Z 1002d200 f   libucrtd:output.obj
 0001:0002c240       ??0<lambda_b09925f738b1434f525bf50d3162636f>@@QAE@ABQAU_iobuf@@ABQAU__crt_locale_pointers@@AB_KABQB_WABQAD@Z 1002d240 f   libucrtd:output.obj
 0001:0002c280       ??0<lambda_ba8264b40644a42074cedf043e7aa388>@@QAE@ABQAU_iobuf@@@Z 1002d280 f   libucrtd:output.obj
 0001:0002c2a0       ??0<lambda_be68057ced330f874c40fe9612235e36>@@QAE@ABQAU_iobuf@@ABQAU__crt_locale_pointers@@AB_KABQB_WABQAD@Z 1002d2a0 f   libucrtd:output.obj
 0001:0002c2e0       ??0<lambda_bfd63e08e93a545639db6d324cf10d1a>@@QAE@ABQAU_iobuf@@@Z 1002d2e0 f   libucrtd:output.obj
 0001:0002c300       ??0<lambda_c29ee0499b841886b80d843682cc403a>@@QAE@ABQAU_iobuf@@@Z 1002d300 f   libucrtd:output.obj
 0001:0002c320       ??0<lambda_cae121c7667f229345c68b3f32b19755>@@QAE@ABQAU_iobuf@@@Z 1002d320 f   libucrtd:output.obj
 0001:0002c340       ??0<lambda_d7427dbf72509eba5fa970998bac2a27>@@QAE@ABQAU_iobuf@@ABQAU__crt_locale_pointers@@AB_KABQB_WABQAD@Z 1002d340 f   libucrtd:output.obj
 0001:0002c380       ??0<lambda_dbd837d1c0b7fc6e2d81c287c81c071b>@@QAE@ABQAU_iobuf@@@Z 1002d380 f   libucrtd:output.obj
 0001:0002cfc0       ??R<lambda_0be4ab1c2a6918fda4e39227d83ea893>@@QBEHXZ 1002dfc0 f   libucrtd:output.obj
 0001:0002d0b0       ??R<lambda_18d67e1eeb4dde13899af949c649d933>@@QBEXXZ 1002e0b0 f   libucrtd:output.obj
 0001:0002d0d0       ??R<lambda_1c412e3457517a614fb7d0c137686c95>@@QBEXXZ 1002e0d0 f   libucrtd:output.obj
 0001:0002d0f0       ??R<lambda_3cfd252a7c5e244e8f20fc56fe35ebe9>@@QBEXXZ 1002e0f0 f   libucrtd:output.obj
 0001:0002d110       ??R<lambda_5a3ed3da325c8ea037a470278c0f2d16>@@QBEXXZ 1002e110 f   libucrtd:output.obj
 0001:0002d130       ??R<lambda_5d912c5eb12d68f7685796d855ab8da6>@@QBEXXZ 1002e130 f   libucrtd:output.obj
 0001:0002d150       ??R<lambda_81587a929b95143618da2bd798ca9df2>@@QBEHXZ 1002e150 f   libucrtd:output.obj
 0001:0002d240       ??R<lambda_8f55a0afecd2292d47fde3ce68e72492>@@QBEXXZ 1002e240 f   libucrtd:output.obj
 0001:0002d260       ??R<lambda_9b2bd5c6bb91c5c032542faa5c3cb611>@@QBEXXZ 1002e260 f   libucrtd:output.obj
 0001:0002d280       ??R<lambda_9dc9bc4853282e051506c0cc602abcf3>@@QBEHXZ 1002e280 f   libucrtd:output.obj
 0001:0002d370       ??R<lambda_b09925f738b1434f525bf50d3162636f>@@QBEHXZ 1002e370 f   libucrtd:output.obj
 0001:0002d460       ??R<lambda_ba8264b40644a42074cedf043e7aa388>@@QBEXXZ 1002e460 f   libucrtd:output.obj
 0001:0002d480       ??R<lambda_be68057ced330f874c40fe9612235e36>@@QBEHXZ 1002e480 f   libucrtd:output.obj
 0001:0002d570       ??R<lambda_bfd63e08e93a545639db6d324cf10d1a>@@QBEXXZ 1002e570 f   libucrtd:output.obj
 0001:0002d590       ??R<lambda_c29ee0499b841886b80d843682cc403a>@@QBEXXZ 1002e590 f   libucrtd:output.obj
 0001:0002d5b0       ??R<lambda_cae121c7667f229345c68b3f32b19755>@@QBEXXZ 1002e5b0 f   libucrtd:output.obj
 0001:0002d5d0       ??R<lambda_d7427dbf72509eba5fa970998bac2a27>@@QBEHXZ 1002e5d0 f   libucrtd:output.obj
 0001:0002d6c0       ??R<lambda_dbd837d1c0b7fc6e2d81c287c81c071b>@@QBEXXZ 1002e6c0 f   libucrtd:output.obj
 0001:0002ff64       $LN39                      10030f64     libucrtd:output.obj
 0001:00030214       $LN39                      10031214     libucrtd:output.obj
 0001:000304c4       $LN39                      100314c4     libucrtd:output.obj
 0001:00030774       $LN39                      10031774     libucrtd:output.obj
 0001:00030a24       $LN39                      10031a24     libucrtd:output.obj
 0001:00030cd4       $LN39                      10031cd4     libucrtd:output.obj
 0001:00030f84       $LN39                      10031f84     libucrtd:output.obj
 0001:00031234       $LN39                      10032234     libucrtd:output.obj
 0001:000314e4       $LN39                      100324e4     libucrtd:output.obj
 0001:00031794       $LN39                      10032794     libucrtd:output.obj
 0001:00031a44       $LN39                      10032a44     libucrtd:output.obj
 0001:00031cf4       $LN39                      10032cf4     libucrtd:output.obj
 0001:000324b8       $LN14                      100334b8     libucrtd:output.obj
 0001:000324d0       $LN13                      100334d0     libucrtd:output.obj
 0001:00032568       $LN14                      10033568     libucrtd:output.obj
 0001:00032580       $LN13                      10033580     libucrtd:output.obj
 0001:00032618       $LN14                      10033618     libucrtd:output.obj
 0001:00032630       $LN13                      10033630     libucrtd:output.obj
 0001:000326c8       $LN14                      100336c8     libucrtd:output.obj
 0001:000326e0       $LN13                      100336e0     libucrtd:output.obj
 0001:00032778       $LN14                      10033778     libucrtd:output.obj
 0001:00032790       $LN13                      10033790     libucrtd:output.obj
 0001:00032828       $LN14                      10033828     libucrtd:output.obj
 0001:00032840       $LN13                      10033840     libucrtd:output.obj
 0001:000328d8       $LN14                      100338d8     libucrtd:output.obj
 0001:000328f0       $LN13                      100338f0     libucrtd:output.obj
 0001:00032988       $LN14                      10033988     libucrtd:output.obj
 0001:000329a0       $LN13                      100339a0     libucrtd:output.obj
 0001:00032a38       $LN14                      10033a38     libucrtd:output.obj
 0001:00032a50       $LN13                      10033a50     libucrtd:output.obj
 0001:00032ae8       $LN14                      10033ae8     libucrtd:output.obj
 0001:00032b00       $LN13                      10033b00     libucrtd:output.obj
 0001:00032b98       $LN14                      10033b98     libucrtd:output.obj
 0001:00032bb0       $LN13                      10033bb0     libucrtd:output.obj
 0001:00032c48       $LN14                      10033c48     libucrtd:output.obj
 0001:00032c60       $LN13                      10033c60     libucrtd:output.obj
 0001:00034ba8       $LN54                      10035ba8     libucrtd:output.obj
 0001:00034bd0       $LN53                      10035bd0     libucrtd:output.obj
 0001:00034f78       $LN54                      10035f78     libucrtd:output.obj
 0001:00034fa0       $LN53                      10035fa0     libucrtd:output.obj
 0001:00035348       $LN54                      10036348     libucrtd:output.obj
 0001:00035370       $LN53                      10036370     libucrtd:output.obj
 0001:00035718       $LN54                      10036718     libucrtd:output.obj
 0001:00035740       $LN53                      10036740     libucrtd:output.obj
 0001:00035ae8       $LN54                      10036ae8     libucrtd:output.obj
 0001:00035b10       $LN53                      10036b10     libucrtd:output.obj
 0001:00035eb8       $LN54                      10036eb8     libucrtd:output.obj
 0001:00035ee0       $LN53                      10036ee0     libucrtd:output.obj
 0001:00036288       $LN54                      10037288     libucrtd:output.obj
 0001:000362b0       $LN53                      100372b0     libucrtd:output.obj
 0001:00036658       $LN54                      10037658     libucrtd:output.obj
 0001:00036680       $LN53                      10037680     libucrtd:output.obj
 0001:00036a28       $LN54                      10037a28     libucrtd:output.obj
 0001:00036a50       $LN53                      10037a50     libucrtd:output.obj
 0001:00036df8       $LN54                      10037df8     libucrtd:output.obj
 0001:00036e20       $LN53                      10037e20     libucrtd:output.obj
 0001:000371c8       $LN54                      100381c8     libucrtd:output.obj
 0001:000371f0       $LN53                      100381f0     libucrtd:output.obj
 0001:00037598       $LN54                      10038598     libucrtd:output.obj
 0001:000375c0       $LN53                      100385c0     libucrtd:output.obj
 0001:00037940       $LN44                      10038940     libucrtd:output.obj
 0001:00037970       $LN43                      10038970     libucrtd:output.obj
 0001:00037cf0       $LN44                      10038cf0     libucrtd:output.obj
 0001:00037d20       $LN43                      10038d20     libucrtd:output.obj
 0001:000380a0       $LN44                      100390a0     libucrtd:output.obj
 0001:000380d0       $LN43                      100390d0     libucrtd:output.obj
 0001:00038450       $LN44                      10039450     libucrtd:output.obj
 0001:00038480       $LN43                      10039480     libucrtd:output.obj
 0001:00038800       $LN44                      10039800     libucrtd:output.obj
 0001:00038830       $LN43                      10039830     libucrtd:output.obj
 0001:00038bb0       $LN44                      10039bb0     libucrtd:output.obj
 0001:00038be0       $LN43                      10039be0     libucrtd:output.obj
 0001:00038f90       $LN44                      10039f90     libucrtd:output.obj
 0001:00038fc0       $LN43                      10039fc0     libucrtd:output.obj
 0001:00039370       $LN44                      1003a370     libucrtd:output.obj
 0001:000393a0       $LN43                      1003a3a0     libucrtd:output.obj
 0001:00039750       $LN44                      1003a750     libucrtd:output.obj
 0001:00039780       $LN43                      1003a780     libucrtd:output.obj
 0001:00039b30       $LN44                      1003ab30     libucrtd:output.obj
 0001:00039b60       $LN43                      1003ab60     libucrtd:output.obj
 0001:00039f10       $LN44                      1003af10     libucrtd:output.obj
 0001:00039f40       $LN43                      1003af40     libucrtd:output.obj
 0001:0003a2f0       $LN44                      1003b2f0     libucrtd:output.obj
 0001:0003a320       $LN43                      1003b320     libucrtd:output.obj
 0001:0003ab50       $LN19                      1003bb50     libucrtd:output.obj
 0001:0003e8c8       $LN40                      1003f8c8     libucrtd:output.obj
 0001:0003ec18       $LN40                      1003fc18     libucrtd:output.obj
 0001:0003ef68       $LN40                      1003ff68     libucrtd:output.obj
 0001:0003f2b8       $LN40                      100402b8     libucrtd:output.obj
 0001:0003f608       $LN40                      10040608     libucrtd:output.obj
 0001:0003f958       $LN40                      10040958     libucrtd:output.obj
 0001:0003fcac       $LN40                      10040cac     libucrtd:output.obj
 0001:0003fffc       $LN40                      10040ffc     libucrtd:output.obj
 0001:0004034c       $LN40                      1004134c     libucrtd:output.obj
 0001:0004069c       $LN40                      1004169c     libucrtd:output.obj
 0001:000409ec       $LN40                      100419ec     libucrtd:output.obj
 0001:00040d3c       $LN40                      10041d3c     libucrtd:output.obj
 0001:00040f28       $LN29                      10041f28     libucrtd:output.obj
 0001:00041118       $LN29                      10042118     libucrtd:output.obj
 0001:00041308       $LN29                      10042308     libucrtd:output.obj
 0001:000414f8       $LN29                      100424f8     libucrtd:output.obj
 0001:000416e8       $LN29                      100426e8     libucrtd:output.obj
 0001:000418d8       $LN29                      100428d8     libucrtd:output.obj
 0001:00041ac8       $LN29                      10042ac8     libucrtd:output.obj
 0001:00041cb8       $LN29                      10042cb8     libucrtd:output.obj
 0001:00041ea8       $LN29                      10042ea8     libucrtd:output.obj
 0001:00042098       $LN29                      10043098     libucrtd:output.obj
 0001:00042288       $LN29                      10043288     libucrtd:output.obj
 0001:00042478       $LN29                      10043478     libucrtd:output.obj
 0001:00045db8       $LN26                      10046db8     libucrtd:output.obj
 0001:00045f58       $LN26                      10046f58     libucrtd:output.obj
 0001:000460f8       $LN26                      100470f8     libucrtd:output.obj
 0001:00046298       $LN26                      10047298     libucrtd:output.obj
 0001:00048720       ??$common_tcscat_s@_W@@YAHQA_WIQB_W@Z 10049720 f   libucrtd:wcscat_s.obj
 0001:00048b60       ??$common_tcsncpy_s@_W@@YAHQA_WIQB_WI@Z 10049b60 f   libucrtd:wcsncpy_s.obj
 0001:00048fb0       ?xcptlookup@@YAPAU__crt_signal_action_t@@KQAU1@@Z 10049fb0 f   libucrtd:exception_filter.obj
 0001:0004921c       $LN33                      1004a21c     libucrtd:exception_filter.obj
 0001:00049260       ??$?RV<lambda_03b1d95aef87969028cfba75ccab2455>@@AAV<lambda_6e4b09c48022b2350581041d5f6b0c4c>@@V<lambda_22bdf7517842c4b3e53723af5aa32b9e>@@@?$__crt_seh_guarded_call@X@@QAEX$$QAV<lambda_03b1d95aef87969028cfba75ccab2455>@@AAV<lambda_6e4b09c48022b2350581041d5f6b0c4c>@@$$QAV<lambda_22bdf7517842c4b3e53723af5aa32b9e>@@@Z 1004a260 f   libucrtd:exit.obj
 0001:000492e0       ??$__acrt_lock_and_call@V<lambda_6e4b09c48022b2350581041d5f6b0c4c>@@@@YAXW4__acrt_lock_id@@$$QAV<lambda_6e4b09c48022b2350581041d5f6b0c4c>@@@Z 1004a2e0 f   libucrtd:exit.obj
 0001:000493a0       ??0<lambda_03b1d95aef87969028cfba75ccab2455>@@QAE@ABW4__acrt_lock_id@@@Z 1004a3a0 f   libucrtd:exit.obj
 0001:000493c0       ??0<lambda_22bdf7517842c4b3e53723af5aa32b9e>@@QAE@ABW4__acrt_lock_id@@@Z 1004a3c0 f   libucrtd:exit.obj
 0001:000493e0       ??0<lambda_6e4b09c48022b2350581041d5f6b0c4c>@@QAE@ABW4_crt_exit_cleanup_mode@@ABW4_crt_exit_return_mode@@AA_N@Z 1004a3e0 f   libucrtd:exit.obj
 0001:00049450       ??R<lambda_03b1d95aef87969028cfba75ccab2455>@@QBEXXZ 1004a450 f   libucrtd:exit.obj
 0001:00049470       ??R<lambda_22bdf7517842c4b3e53723af5aa32b9e>@@QBEXXZ 1004a470 f   libucrtd:exit.obj
 0001:00049490       ??R<lambda_6e4b09c48022b2350581041d5f6b0c4c>@@QBE@XZ 1004a490 f   libucrtd:exit.obj
 0001:00049610       ?atexit_exception_filter@@YAHK@Z 1004a610 f   libucrtd:exit.obj
 0001:000496a0       ?common_exit@@YAXHW4_crt_exit_cleanup_mode@@W4_crt_exit_return_mode@@@Z 1004a6a0 f   libucrtd:exit.obj
 0001:00049720       ?exit_or_terminate_process@@YAXI@Z 1004a720 f   libucrtd:exit.obj
 0001:000497a0       ?is_managed_app@@YA_NXZ    1004a7a0 f   libucrtd:exit.obj
 0001:00049830       ?should_call_terminate_process@@YA_NXZ 1004a830 f   libucrtd:exit.obj
 0001:00049880       ?try_cor_exit_process@@YAXI@Z 1004a880 f   libucrtd:exit.obj
 0001:00049aa0       ??$common_configure_argv@D@@YAHW4_crt_argv_mode@@@Z 1004aaa0 f   libucrtd:argv_parsing.obj
 0001:00049d40       ??$common_configure_argv@_W@@YAHW4_crt_argv_mode@@@Z 1004ad40 f   libucrtd:argv_parsing.obj
 0001:0004a020       ??$parse_command_line@D@@YAXPADPAPAD0PAI2@Z 1004b020 f   libucrtd:argv_parsing.obj
 0001:0004a390       ??$parse_command_line@_W@@YAXPA_WPAPA_W0PAI2@Z 1004b390 f   libucrtd:argv_parsing.obj
 0001:0004a760       ??0<lambda_a36aafc41185bea294aaaa3896c79ecc>@@QAE@AAV?$__crt_unique_heap_ptr@PA_WU__crt_internal_free_policy@@@@@Z 1004b760 f   libucrtd:argv_parsing.obj
 0001:0004a780       ??0<lambda_df1553121bfa390f1154bd84936f2730>@@QAE@AAV?$__crt_unique_heap_ptr@PADU__crt_internal_free_policy@@@@@Z 1004b780 f   libucrtd:argv_parsing.obj
 0001:0004a880       ??R<lambda_a36aafc41185bea294aaaa3896c79ecc>@@QBEHXZ 1004b880 f   libucrtd:argv_parsing.obj
 0001:0004a8d0       ??R<lambda_df1553121bfa390f1154bd84936f2730>@@QBEHXZ 1004b8d0 f   libucrtd:argv_parsing.obj
 0001:0004a9b0       ?do_locale_initialization@@YAXD@Z 1004b9b0 f   libucrtd:argv_parsing.obj
 0001:0004a9c0       ?do_locale_initialization@@YAX_W@Z 1004b9c0 f   libucrtd:argv_parsing.obj
 0001:0004a9d0       ?expand_argv_wildcards@@YAHQAPADQAPAPAD@Z 1004b9d0 f   libucrtd:argv_parsing.obj
 0001:0004a9f0       ?expand_argv_wildcards@@YAHQAPA_WQAPAPA_W@Z 1004b9f0 f   libucrtd:argv_parsing.obj
 0001:0004aa90       ?get_argv@@YAAAPAPADD@Z    1004ba90 f   libucrtd:argv_parsing.obj
 0001:0004aaa0       ?get_argv@@YAAAPAPA_W_W@Z  1004baa0 f   libucrtd:argv_parsing.obj
 0001:0004aab0       ?get_command_line@@YAPADD@Z 1004bab0 f   libucrtd:argv_parsing.obj
 0001:0004aac0       ?get_command_line@@YAPA_W_W@Z 1004bac0 f   libucrtd:argv_parsing.obj
 0001:0004ab90       ?should_copy_another_character@@YA_ND@Z 1004bb90 f   libucrtd:argv_parsing.obj
 0001:0004abc0       ?should_copy_another_character@@YA_N_W@Z 1004bbc0 f   libucrtd:argv_parsing.obj
 0001:0004ad04       ??$common_get_initial_environment@D@@YAPAPADXZ 1004bd04 f   libucrtd:environment_initialization.obj
 0001:0004ad18       ??$common_get_initial_environment@_W@@YAPAPA_WXZ 1004bd18 f   libucrtd:environment_initialization.obj
 0001:0004ad2c       ??$common_get_or_create_environment_nolock@D@@YAPAPADXZ 1004bd2c f   libucrtd:environment_initialization.obj
 0001:0004ad58       ??$common_get_or_create_environment_nolock@_W@@YAPAPA_WXZ 1004bd58 f   libucrtd:environment_initialization.obj
 0001:0004ad84       ??$common_initialize_environment_nolock@D@@YAHXZ 1004bd84 f   libucrtd:environment_initialization.obj
 0001:0004addd       ??$common_initialize_environment_nolock@_W@@YAHXZ 1004bddd f   libucrtd:environment_initialization.obj
 0001:0004ae31       ??$count_variables_in_environment_block@D@@YA?BIQAD@Z 1004be31 f   libucrtd:environment_initialization.obj
 0001:0004ae65       ??$count_variables_in_environment_block@_W@@YA?BIQA_W@Z 1004be65 f   libucrtd:environment_initialization.obj
 0001:0004aeae       ??$create_environment@D@@YAQAPADQAD@Z 1004beae f   libucrtd:environment_initialization.obj
 0001:0004afb1       ??$create_environment@_W@@YAQAPA_WQA_W@Z 1004bfb1 f   libucrtd:environment_initialization.obj
 0001:0004b0f2       ??$free_environment@D@@YAXQAPAD@Z 1004c0f2 f   libucrtd:environment_initialization.obj
 0001:0004b125       ??$free_environment@_W@@YAXQAPA_W@Z 1004c125 f   libucrtd:environment_initialization.obj
 0001:0004b162       ??$initialize_environment_by_cloning_nolock@D@@YAHXZ 1004c162 f   libucrtd:environment_initialization.obj
 0001:0004b1f7       ??$initialize_environment_by_cloning_nolock@_W@@YAHXZ 1004c1f7 f   libucrtd:environment_initialization.obj
 0001:0004b37a       ??$uninitialize_environment_internal@D@@YAXAAPAPAD@Z 1004c37a f   libucrtd:environment_initialization.obj
 0001:0004b395       ??$uninitialize_environment_internal@_W@@YAXAAPAPA_W@Z 1004c395 f   libucrtd:environment_initialization.obj
 0001:0004b474       ?get_dual_state_environment_nolock@@YAAAV?$dual_state_global@PAPAD@__crt_state_management@@D@Z 1004c474 f   libucrtd:environment_initialization.obj
 0001:0004b47a       ?get_dual_state_environment_nolock@@YAAAV?$dual_state_global@PAPA_W@__crt_state_management@@_W@Z 1004c47a f   libucrtd:environment_initialization.obj
 0001:0004b480       ?get_environment_nolock@@YAAAPAPADD@Z 1004c480 f   libucrtd:environment_initialization.obj
 0001:0004b486       ?get_environment_nolock@@YAAAPAPA_W_W@Z 1004c486 f   libucrtd:environment_initialization.obj
 0001:0004b48c       ?get_initial_environment@@YAAAPAPADD@Z 1004c48c f   libucrtd:environment_initialization.obj
 0001:0004b492       ?get_initial_environment@@YAAAPAPA_W_W@Z 1004c492 f   libucrtd:environment_initialization.obj
 0001:0004b4f9       ?pre_initialize@@YAXD@Z    1004c4f9 f   libucrtd:environment_initialization.obj
 0001:0004b4fe       ?pre_initialize@@YAX_W@Z   1004c4fe f   libucrtd:environment_initialization.obj
 0001:0004b600       ??$?RV<lambda_b53b013fb8c6083c10bec37d2dacc554>@@AAV<lambda_3b83eb014488ad801d84acef5aaf14d3>@@V<lambda_121992cf5e0eae5719f6e4f596aaeb4f>@@@?$__crt_seh_guarded_call@H@@QAEH$$QAV<lambda_b53b013fb8c6083c10bec37d2dacc554>@@AAV<lambda_3b83eb014488ad801d84acef5aaf14d3>@@$$QAV<lambda_121992cf5e0eae5719f6e4f596aaeb4f>@@@Z 1004c600 f   libucrtd:onexit.obj
 0001:0004b690       ??$?RV<lambda_d74cd35c3df28f16c733e6755eb03555>@@AAV<lambda_d121dba8a4adeaf3a9819e48611155df>@@V<lambda_ade73ae6aee997c6ba47ce5901b340f9>@@@?$__crt_seh_guarded_call@H@@QAEH$$QAV<lambda_d74cd35c3df28f16c733e6755eb03555>@@AAV<lambda_d121dba8a4adeaf3a9819e48611155df>@@$$QAV<lambda_ade73ae6aee997c6ba47ce5901b340f9>@@@Z 1004c690 f   libucrtd:onexit.obj
 0001:0004b720       ??$__acrt_lock_and_call@V<lambda_3b83eb014488ad801d84acef5aaf14d3>@@@@YAHW4__acrt_lock_id@@$$QAV<lambda_3b83eb014488ad801d84acef5aaf14d3>@@@Z 1004c720 f   libucrtd:onexit.obj
 0001:0004b760       ??$__acrt_lock_and_call@V<lambda_d121dba8a4adeaf3a9819e48611155df>@@@@YAHW4__acrt_lock_id@@$$QAV<lambda_d121dba8a4adeaf3a9819e48611155df>@@@Z 1004c760 f   libucrtd:onexit.obj
 0001:0004b890       ??0<lambda_121992cf5e0eae5719f6e4f596aaeb4f>@@QAE@ABW4__acrt_lock_id@@@Z 1004c890 f   libucrtd:onexit.obj
 0001:0004b8b0       ??0<lambda_3b83eb014488ad801d84acef5aaf14d3>@@QAE@ABQAU_onexit_table_t@@ABQ6AHXZ@Z 1004c8b0 f   libucrtd:onexit.obj
 0001:0004b8e0       ??0<lambda_ade73ae6aee997c6ba47ce5901b340f9>@@QAE@ABW4__acrt_lock_id@@@Z 1004c8e0 f   libucrtd:onexit.obj
 0001:0004b900       ??0<lambda_b53b013fb8c6083c10bec37d2dacc554>@@QAE@ABW4__acrt_lock_id@@@Z 1004c900 f   libucrtd:onexit.obj
 0001:0004b920       ??0<lambda_d121dba8a4adeaf3a9819e48611155df>@@QAE@ABQAU_onexit_table_t@@@Z 1004c920 f   libucrtd:onexit.obj
 0001:0004b940       ??0<lambda_d74cd35c3df28f16c733e6755eb03555>@@QAE@ABW4__acrt_lock_id@@@Z 1004c940 f   libucrtd:onexit.obj
 0001:0004b9b0       ??R<lambda_121992cf5e0eae5719f6e4f596aaeb4f>@@QBEXXZ 1004c9b0 f   libucrtd:onexit.obj
 0001:0004b9d0       ??R<lambda_3b83eb014488ad801d84acef5aaf14d3>@@QBEHXZ 1004c9d0 f   libucrtd:onexit.obj
 0001:0004bbe0       ??R<lambda_ade73ae6aee997c6ba47ce5901b340f9>@@QBEXXZ 1004cbe0 f   libucrtd:onexit.obj
 0001:0004bc00       ??R<lambda_b53b013fb8c6083c10bec37d2dacc554>@@QBEXXZ 1004cc00 f   libucrtd:onexit.obj
 0001:0004bc20       ??R<lambda_d121dba8a4adeaf3a9819e48611155df>@@QBEHXZ 1004cc20 f   libucrtd:onexit.obj
 0001:0004bdf0       ??R<lambda_d74cd35c3df28f16c733e6755eb03555>@@QBEXXZ 1004cdf0 f   libucrtd:onexit.obj
 0001:0004bf70       _initialize_global_variables 1004cf70 f   libucrtd:initialization.obj
 0001:0004bf90       _initialize_c              1004cf90 f   libucrtd:initialization.obj
 0001:0004bfc0       _uninitialize_c            1004cfc0 f   libucrtd:initialization.obj
 0001:0004bfd0       _initialize_environment    1004cfd0 f   libucrtd:initialization.obj
 0001:0004bfe0       _uninitialize_environment  1004cfe0 f   libucrtd:initialization.obj
 0001:0004c000       _initialize_global_state_isolation 1004d000 f   libucrtd:initialization.obj
 0001:0004c010       _uninitialize_global_state_isolation 1004d010 f   libucrtd:initialization.obj
 0001:0004c020       _initialize_pointers       1004d020 f   libucrtd:initialization.obj
 0001:0004c090       _uninitialize_vcruntime    1004d090 f   libucrtd:initialization.obj
 0001:0004c0b0       _uninitialize_allocated_memory 1004d0b0 f   libucrtd:initialization.obj
 0001:0004c0d0       _uninitialize_allocated_io_buffers 1004d0d0 f   libucrtd:initialization.obj
 0001:0004c150       _report_memory_leaks       1004d150 f   libucrtd:initialization.obj
 0001:0004c1d0       ??$uninitialize@V<lambda_af27fe6ede5d83bbdbd622796c194e9c>@@@?$dual_state_global@PAU__crt_multibyte_data@@@__crt_state_management@@QAEX$$QAV<lambda_af27fe6ede5d83bbdbd622796c194e9c>@@@Z 1004d1d0 f   libucrtd:initialization.obj
 0001:0004c210       ??R<lambda_af27fe6ede5d83bbdbd622796c194e9c>@@QBEXAAPAU__crt_multibyte_data@@@Z 1004d210 f   libucrtd:initialization.obj
 0001:0004c330       ?block_from_header@@YAPAEQAU_CrtMemBlockHeader@@@Z 1004d330 f   libucrtd:debug_heap.obj
 0001:0004c340       ?check_block@@YA_NQAU_CrtMemBlockHeader@@@Z 1004d340 f   libucrtd:debug_heap.obj
 0001:0004c610       ?check_bytes@@YA_NQBEEI@Z  1004d610 f   libucrtd:debug_heap.obj
 0001:0004c660       ?dump_all_object_since_nolock@@YAXQBU_CrtMemState@@@Z 1004d660 f   libucrtd:debug_heap.obj
 0001:0004c950       ?free_dbg_nolock@@YAXQAXH@Z 1004d950 f   libucrtd:debug_heap.obj
 0001:0004ce00       ?header_from_block@@YAPAU_CrtMemBlockHeader@@QBX@Z 1004de00 f   libucrtd:debug_heap.obj
 0001:0004ce10       ?heap_alloc_dbg@@YAPAXIHQBDH@Z 1004de10 f   libucrtd:debug_heap.obj
 0001:0004ce90       ?heap_alloc_dbg_internal@@YAPAXIHQBDH@Z 1004de90 f   libucrtd:debug_heap.obj
 0001:0004d200       ?is_bad_read_pointer@@YA_NQBXI@Z 1004e200 f   libucrtd:debug_heap.obj
 0001:0004d320       ?is_block_an_aligned_allocation@@YA_NQBX@Z 1004e320 f   libucrtd:debug_heap.obj
 0001:0004d350       ?is_block_type_valid@@YA_NH@Z 1004e350 f   libucrtd:debug_heap.obj
 0001:0004d3a0       ?print_block_data@@YAXQAU__crt_locale_pointers@@QAU_CrtMemBlockHeader@@@Z 1004e3a0 f   libucrtd:debug_heap.obj
 0001:0004d520       ?realloc_dbg_nolock@@YAPAXQAXQAIHQBDH_N@Z 1004e520 f   libucrtd:debug_heap.obj
 0001:0004daa0       ?validate_heap_if_required_nolock@@YAXXZ 1004eaa0 f   libucrtd:debug_heap.obj
 0001:0004f920       ?get_terminate_or_default@@YAP6AXXZQBU__acrt_ptd@@@Z 10050920 f   libucrtd:terminate.obj
 0001:0004fa30       ??$common_tcscpy_s@D@@YAHQADIQBD@Z 10050a30 f   libucrtd:strcpy_s.obj
 0001:0004fd60       ??$common_tcscat_s@D@@YAHQADIQBD@Z 10050d60 f   libucrtd:strcat_s.obj
 0001:00050190       ??$cleanup_after_error@D@@YAHQADI@Z 10051190 f   libucrtd:makepath.obj
 0001:00050280       ??$cleanup_after_error@_W@@YAHQA_WI@Z 10051280 f   libucrtd:makepath.obj
 0001:00050370       ??$common_makepath_s@D@@YAHQADIQBD111@Z 10051370 f   libucrtd:makepath.obj
 0001:000506f0       ??$common_makepath_s@_W@@YAHQA_WIQB_W111@Z 100516f0 f   libucrtd:makepath.obj
 0001:00050aa0       ?previous_character@@YAPBDQBD0@Z 10051aa0 f   libucrtd:makepath.obj
 0001:00050ac0       ?previous_character@@YAPB_WPB_WQB_W@Z 10051ac0 f   libucrtd:makepath.obj
 0001:00050b90       ??$common_splitpath@D@@YAXQBDQAD111@Z 10051b90 f   libucrtd:splitpath.obj
 0001:00050c50       ??$common_splitpath@_W@@YAXQB_WQA_W111@Z 10051c50 f   libucrtd:splitpath.obj
 0001:00050d10       ??$common_splitpath_internal@DV<lambda_5c4ff32f5976a52201bac3fefe2d307c>@@V<lambda_f08ea5b68bbffb4b310393ee25ffbd6b>@@@@YAHQBDQAU?$component_buffers@D@?A0x95109fda@@V<lambda_5c4ff32f5976a52201bac3fefe2d307c>@@V<lambda_f08ea5b68bbffb4b310393ee25ffbd6b>@@@Z 10051d10 f   libucrtd:splitpath.obj
 0001:00051280       ??$common_splitpath_internal@DV<lambda_81dbc9fe9823f496b2e24900666b26ca>@@V<lambda_2fb3ae78730702381aca7250c89aa958>@@@@YAHQBDQAU?$component_buffers@D@?A0x95109fda@@V<lambda_81dbc9fe9823f496b2e24900666b26ca>@@V<lambda_2fb3ae78730702381aca7250c89aa958>@@@Z 10052280 f   libucrtd:splitpath.obj
 0001:000517f0       ??$common_splitpath_internal@_WV<lambda_8eb4cbd7e5fad28d6877d8a0675ba243>@@V<lambda_3a1c82f6b6432f82785f79f79d4ce8a8>@@@@YAHQB_WQAU?$component_buffers@_W@?A0x95109fda@@V<lambda_8eb4cbd7e5fad28d6877d8a0675ba243>@@V<lambda_3a1c82f6b6432f82785f79f79d4ce8a8>@@@Z 100527f0 f   libucrtd:splitpath.obj
 0001:00051d60       ??$common_splitpath_internal@_WV<lambda_a0d0e552789b48426595119677e26b2e>@@V<lambda_b4d07a523b4d373503b74dd7549a02ff>@@@@YAHQB_WQAU?$component_buffers@_W@?A0x95109fda@@V<lambda_a0d0e552789b48426595119677e26b2e>@@V<lambda_b4d07a523b4d373503b74dd7549a02ff>@@@Z 10052d60 f   libucrtd:splitpath.obj
 0001:000522d0       ??$common_splitpath_s@D@@YAHQBDQAU?$component_buffers@D@?A0x95109fda@@@Z 100532d0 f   libucrtd:splitpath.obj
 0001:00052300       ??$common_splitpath_s@_W@@YAHQB_WQAU?$component_buffers@_W@?A0x95109fda@@@Z 10053300 f   libucrtd:splitpath.obj
 0001:00052330       ??$reset_buffers@DV<lambda_5c4ff32f5976a52201bac3fefe2d307c>@@@@YAXQAU?$component_buffers@D@?A0x95109fda@@V<lambda_5c4ff32f5976a52201bac3fefe2d307c>@@@Z 10053330 f   libucrtd:splitpath.obj
 0001:00052390       ??$reset_buffers@DV<lambda_81dbc9fe9823f496b2e24900666b26ca>@@@@YAXQAU?$component_buffers@D@?A0x95109fda@@V<lambda_81dbc9fe9823f496b2e24900666b26ca>@@@Z 10053390 f   libucrtd:splitpath.obj
 0001:000523f0       ??$reset_buffers@_WV<lambda_8eb4cbd7e5fad28d6877d8a0675ba243>@@@@YAXQAU?$component_buffers@_W@?A0x95109fda@@V<lambda_8eb4cbd7e5fad28d6877d8a0675ba243>@@@Z 100533f0 f   libucrtd:splitpath.obj
 0001:00052450       ??$reset_buffers@_WV<lambda_a0d0e552789b48426595119677e26b2e>@@@@YAXQAU?$component_buffers@_W@?A0x95109fda@@V<lambda_a0d0e552789b48426595119677e26b2e>@@@Z 10053450 f   libucrtd:splitpath.obj
 0001:00052570       ??R<lambda_2fb3ae78730702381aca7250c89aa958>@@QBEII@Z 10053570 f   libucrtd:splitpath.obj
 0001:00052590       ??R<lambda_3a1c82f6b6432f82785f79f79d4ce8a8>@@QBEII@Z 10053590 f   libucrtd:splitpath.obj
 0001:000525b0       ??R<lambda_5c4ff32f5976a52201bac3fefe2d307c>@@QBEXQADI@Z 100535b0 f   libucrtd:splitpath.obj
 0001:00052620       ??R<lambda_81dbc9fe9823f496b2e24900666b26ca>@@QBEXQADI@Z 10053620 f   libucrtd:splitpath.obj
 0001:00052650       ??R<lambda_8eb4cbd7e5fad28d6877d8a0675ba243>@@QBEXQA_WI@Z 10053650 f   libucrtd:splitpath.obj
 0001:00052680       ??R<lambda_a0d0e552789b48426595119677e26b2e>@@QBEXQA_WI@Z 10053680 f   libucrtd:splitpath.obj
 0001:00052700       ??R<lambda_b4d07a523b4d373503b74dd7549a02ff>@@QBEII@Z 10053700 f   libucrtd:splitpath.obj
 0001:00052720       ??R<lambda_f08ea5b68bbffb4b310393ee25ffbd6b>@@QBEII@Z 10053720 f   libucrtd:splitpath.obj
 0001:00052740       ?needs_trail_byte@@YA_ND@Z 10053740 f   libucrtd:splitpath.obj
 0001:00052770       ?needs_trail_byte@@YA_N_W@Z 10053770 f   libucrtd:splitpath.obj
 0001:00052b60       $$000000                   10053b60     libucrtd:strcmp.obj
 0001:00052bf0       $$000000                   10053bf0     libucrtd:strlen.obj
 0001:000549d0       $$000000                   100559d0     libucrtd:strncmp.obj
 0001:00056020       ??$__acrt_convert_wcs_mbs_cp@_WDV<lambda_0fec1a7b3f42a53036604e18c2d5e07e>@@U__crt_win32_buffer_no_resizing@@@@YAHQB_WAAV?$__crt_win32_buffer@DU__crt_win32_buffer_no_resizing@@@@ABV<lambda_0fec1a7b3f42a53036604e18c2d5e07e>@@I@Z 10057020 f   libucrtd:getmodulefilenamea.obj
 0001:00056210       ??R<lambda_0fec1a7b3f42a53036604e18c2d5e07e>@@QBEHIQB_WQADI@Z 10057210 f   libucrtd:getmodulefilenamea.obj
 0001:00056540       ??$common_show_message_box@D@@YAHQBD0I@Z 10057540 f   libucrtd:crtmbox.obj
 0001:00056650       ??$common_show_message_box@_W@@YAHQB_W0I@Z 10057650 f   libucrtd:crtmbox.obj
 0001:000569f0       ??$?RV<lambda_cbab9ec6f41b0180b23cc171c22676b0>@@AAV<lambda_44731a7d0e6d81c3e6aa82d741081786>@@V<lambda_4b292cb8dd18144e164572427af410ab>@@@?$__crt_seh_guarded_call@P6AXH@Z@@QAEP6AXH@Z$$QAV<lambda_cbab9ec6f41b0180b23cc171c22676b0>@@AAV<lambda_44731a7d0e6d81c3e6aa82d741081786>@@$$QAV<lambda_4b292cb8dd18144e164572427af410ab>@@@Z 100579f0 f   libucrtd:signal.obj
 0001:00056a80       ??$__acrt_lock_and_call@V<lambda_44731a7d0e6d81c3e6aa82d741081786>@@@@YAP6AXH@ZW4__acrt_lock_id@@$$QAV<lambda_44731a7d0e6d81c3e6aa82d741081786>@@@Z 10057a80 f   libucrtd:signal.obj
 0001:00056b20       ??0<lambda_4b292cb8dd18144e164572427af410ab>@@QAE@ABW4__acrt_lock_id@@@Z 10057b20 f   libucrtd:signal.obj
 0001:00056b40       ??0<lambda_cbab9ec6f41b0180b23cc171c22676b0>@@QAE@ABW4__acrt_lock_id@@@Z 10057b40 f   libucrtd:signal.obj
 0001:00056b60       ??R<lambda_44731a7d0e6d81c3e6aa82d741081786>@@QBEP6AXH@ZXZ 10057b60 f   libucrtd:signal.obj
 0001:00056b90       ??R<lambda_4b292cb8dd18144e164572427af410ab>@@QBEXXZ 10057b90 f   libucrtd:signal.obj
 0001:00056bb0       ??R<lambda_cbab9ec6f41b0180b23cc171c22676b0>@@QBEXXZ 10057bb0 f   libucrtd:signal.obj
 0001:00056bd0       ?ctrlevent_capture@@YGHK@Z 10057bd0 f   libucrtd:signal.obj
 0001:00056d00       ?get_global_action_nolock@@YAPAP6AXH@ZH@Z 10057d00 f   libucrtd:signal.obj
 0001:00056d70       $LN14                      10057d70     libucrtd:signal.obj
 0001:00056d88       $LN13                      10057d88     libucrtd:signal.obj
 0001:00056de0       ?is_console_signal@@YAHH@Z 10057de0 f   libucrtd:signal.obj
 0001:00056e10       ?is_unsupported_signal@@YAHHQ6AXH@Z@Z 10057e10 f   libucrtd:signal.obj
 0001:00056e40       ?siglookup@@YAPAU__crt_signal_action_t@@HQAU1@@Z 10057e40 f   libucrtd:signal.obj
 0001:00056e80       ?signal_failed@@YAP6AXH@ZH@Z 10057e80 f   libucrtd:signal.obj
 0001:00056ec4       $LN10                      10057ec4     libucrtd:signal.obj
 0001:00056ecc       $LN9                       10057ecc     libucrtd:signal.obj
 0001:0005732c       $LN57                      1005832c     libucrtd:signal.obj
 0001:00057338       $LN55                      10058338     libucrtd:signal.obj
 0001:00058460       ??$?RV<lambda_15ade71b0218206bbe3333a0c9b79046>@@AAV<lambda_da44e0f8b0f19ba52fefafb335991732>@@V<lambda_207f2d024fc103971653565357d6cd41>@@@?$__crt_seh_guarded_call@X@@QAEX$$QAV<lambda_15ade71b0218206bbe3333a0c9b79046>@@AAV<lambda_da44e0f8b0f19ba52fefafb335991732>@@$$QAV<lambda_207f2d024fc103971653565357d6cd41>@@@Z 10059460 f   libucrtd:per_thread_data.obj
 0001:000584e0       ??$?RV<lambda_6affb1475c98b40b75cdec977db92e3c>@@AAV<lambda_b8d4b9c228a6ecc3f80208dbb4b4a104>@@V<lambda_608742c3c92a14382c1684fc64f96c88>@@@?$__crt_seh_guarded_call@X@@QAEX$$QAV<lambda_6affb1475c98b40b75cdec977db92e3c>@@AAV<lambda_b8d4b9c228a6ecc3f80208dbb4b4a104>@@$$QAV<lambda_608742c3c92a14382c1684fc64f96c88>@@@Z 100594e0 f   libucrtd:per_thread_data.obj
 0001:00058560       ??$?RV<lambda_a7e850c220f1c8d1e6efeecdedd162c6>@@AAV<lambda_46720907175c18b6c9d2717bc0d2d362>@@V<lambda_9048902d66e8d99359bc9897bbb930a8>@@@?$__crt_seh_guarded_call@X@@QAEX$$QAV<lambda_a7e850c220f1c8d1e6efeecdedd162c6>@@AAV<lambda_46720907175c18b6c9d2717bc0d2d362>@@$$QAV<lambda_9048902d66e8d99359bc9897bbb930a8>@@@Z 10059560 f   libucrtd:per_thread_data.obj
 0001:000585e0       ??$?RV<lambda_eb0e2b1d104b126d27395a74edba6f03>@@AAV<lambda_d51eb34c9f7d53dbc39f6b791b6a3e42>@@V<lambda_f7564ebddb1f0eaf818ab6f3eade8363>@@@?$__crt_seh_guarded_call@X@@QAEX$$QAV<lambda_eb0e2b1d104b126d27395a74edba6f03>@@AAV<lambda_d51eb34c9f7d53dbc39f6b791b6a3e42>@@$$QAV<lambda_f7564ebddb1f0eaf818ab6f3eade8363>@@@Z 100595e0 f   libucrtd:per_thread_data.obj
 0001:00058660       ??$__acrt_lock_and_call@V<lambda_46720907175c18b6c9d2717bc0d2d362>@@@@YAXW4__acrt_lock_id@@$$QAV<lambda_46720907175c18b6c9d2717bc0d2d362>@@@Z 10059660 f   libucrtd:per_thread_data.obj
 0001:000586a0       ??$__acrt_lock_and_call@V<lambda_b8d4b9c228a6ecc3f80208dbb4b4a104>@@@@YAXW4__acrt_lock_id@@$$QAV<lambda_b8d4b9c228a6ecc3f80208dbb4b4a104>@@@Z 100596a0 f   libucrtd:per_thread_data.obj
 0001:000586e0       ??$__acrt_lock_and_call@V<lambda_d51eb34c9f7d53dbc39f6b791b6a3e42>@@@@YAXW4__acrt_lock_id@@$$QAV<lambda_d51eb34c9f7d53dbc39f6b791b6a3e42>@@@Z 100596e0 f   libucrtd:per_thread_data.obj
 0001:00058720       ??$__acrt_lock_and_call@V<lambda_da44e0f8b0f19ba52fefafb335991732>@@@@YAXW4__acrt_lock_id@@$$QAV<lambda_da44e0f8b0f19ba52fefafb335991732>@@@Z 10059720 f   libucrtd:per_thread_data.obj
 0001:00058760       ??0<lambda_15ade71b0218206bbe3333a0c9b79046>@@QAE@ABW4__acrt_lock_id@@@Z 10059760 f   libucrtd:per_thread_data.obj
 0001:00058780       ??0<lambda_207f2d024fc103971653565357d6cd41>@@QAE@ABW4__acrt_lock_id@@@Z 10059780 f   libucrtd:per_thread_data.obj
 0001:000587a0       ??0<lambda_46720907175c18b6c9d2717bc0d2d362>@@QAE@ABQAU__acrt_ptd@@ABQAPAU__crt_locale_data@@@Z 100597a0 f   libucrtd:per_thread_data.obj
 0001:000587d0       ??0<lambda_608742c3c92a14382c1684fc64f96c88>@@QAE@ABW4__acrt_lock_id@@@Z 100597d0 f   libucrtd:per_thread_data.obj
 0001:000587f0       ??0<lambda_6affb1475c98b40b75cdec977db92e3c>@@QAE@ABW4__acrt_lock_id@@@Z 100597f0 f   libucrtd:per_thread_data.obj
 0001:00058810       ??0<lambda_9048902d66e8d99359bc9897bbb930a8>@@QAE@ABW4__acrt_lock_id@@@Z 10059810 f   libucrtd:per_thread_data.obj
 0001:00058830       ??0<lambda_a7e850c220f1c8d1e6efeecdedd162c6>@@QAE@ABW4__acrt_lock_id@@@Z 10059830 f   libucrtd:per_thread_data.obj
 0001:00058850       ??0<lambda_b8d4b9c228a6ecc3f80208dbb4b4a104>@@QAE@ABQAU__acrt_ptd@@@Z 10059850 f   libucrtd:per_thread_data.obj
 0001:00058870       ??0<lambda_d51eb34c9f7d53dbc39f6b791b6a3e42>@@QAE@ABQAU__acrt_ptd@@@Z 10059870 f   libucrtd:per_thread_data.obj
 0001:00058890       ??0<lambda_da44e0f8b0f19ba52fefafb335991732>@@QAE@ABQAU__acrt_ptd@@@Z 10059890 f   libucrtd:per_thread_data.obj
 0001:000588b0       ??0<lambda_eb0e2b1d104b126d27395a74edba6f03>@@QAE@ABW4__acrt_lock_id@@@Z 100598b0 f   libucrtd:per_thread_data.obj
 0001:000588d0       ??0<lambda_f7564ebddb1f0eaf818ab6f3eade8363>@@QAE@ABW4__acrt_lock_id@@@Z 100598d0 f   libucrtd:per_thread_data.obj
 0001:00058990       ??R<lambda_15ade71b0218206bbe3333a0c9b79046>@@QBEXXZ 10059990 f   libucrtd:per_thread_data.obj
 0001:000589b0       ??R<lambda_207f2d024fc103971653565357d6cd41>@@QBEXXZ 100599b0 f   libucrtd:per_thread_data.obj
 0001:000589d0       ??R<lambda_46720907175c18b6c9d2717bc0d2d362>@@QBEXXZ 100599d0 f   libucrtd:per_thread_data.obj
 0001:00058a00       ??R<lambda_608742c3c92a14382c1684fc64f96c88>@@QBEXXZ 10059a00 f   libucrtd:per_thread_data.obj
 0001:00058a20       ??R<lambda_6affb1475c98b40b75cdec977db92e3c>@@QBEXXZ 10059a20 f   libucrtd:per_thread_data.obj
 0001:00058a40       ??R<lambda_9048902d66e8d99359bc9897bbb930a8>@@QBEXXZ 10059a40 f   libucrtd:per_thread_data.obj
 0001:00058a60       ??R<lambda_a7e850c220f1c8d1e6efeecdedd162c6>@@QBEXXZ 10059a60 f   libucrtd:per_thread_data.obj
 0001:00058a80       ??R<lambda_b8d4b9c228a6ecc3f80208dbb4b4a104>@@QBEXXZ 10059a80 f   libucrtd:per_thread_data.obj
 0001:00058aa0       ??R<lambda_d51eb34c9f7d53dbc39f6b791b6a3e42>@@QBEXXZ 10059aa0 f   libucrtd:per_thread_data.obj
 0001:00058af0       ??R<lambda_da44e0f8b0f19ba52fefafb335991732>@@QBEXXZ 10059af0 f   libucrtd:per_thread_data.obj
 0001:00058b10       ??R<lambda_eb0e2b1d104b126d27395a74edba6f03>@@QBEXXZ 10059b10 f   libucrtd:per_thread_data.obj
 0001:00058b30       ??R<lambda_f7564ebddb1f0eaf818ab6f3eade8363>@@QBEXXZ 10059b30 f   libucrtd:per_thread_data.obj
 0001:00058b50       ?construct_ptd@@YAXQAU__acrt_ptd@@QAPAU__crt_locale_data@@@Z 10059b50 f   libucrtd:per_thread_data.obj
 0001:00058c00       ?construct_ptd_array@@YAXQAU__acrt_ptd@@@Z 10059c00 f   libucrtd:per_thread_data.obj
 0001:00058c60       ?destroy_fls@@YGXPAX@Z     10059c60 f   libucrtd:per_thread_data.obj
 0001:00058c90       ?destroy_ptd@@YAXQAU__acrt_ptd@@@Z 10059c90 f   libucrtd:per_thread_data.obj
 0001:00058d90       ?destroy_ptd_array@@YAXQAU__acrt_ptd@@@Z 10059d90 f   libucrtd:per_thread_data.obj
 0001:00058e30       ?internal_get_ptd_head@@YAPAU__acrt_ptd@@XZ 10059e30 f   libucrtd:per_thread_data.obj
 0001:00058f30       ?internal_getptd_noexit@@YAPAU__acrt_ptd@@XZ 10059f30 f   libucrtd:per_thread_data.obj
 0001:00058ff0       ?replace_current_thread_locale_nolock@@YAXQAU__acrt_ptd@@QAU__crt_locale_data@@@Z 10059ff0 f   libucrtd:per_thread_data.obj
 0001:00059070       ?try_get_ptd_head@@YAPAU__acrt_ptd@@XZ 1005a070 f   libucrtd:per_thread_data.obj
 0001:000593f0       ?fp_format_a@@YAHQBNPADIQADIH_NIQAU__crt_locale_pointers@@@Z 1005a3f0 f   libucrtd:cvt.obj
 0001:00059ac0       ?fp_format_e@@YAHQBNQADI1IH_NIQAU__crt_locale_pointers@@@Z 1005aac0 f   libucrtd:cvt.obj
 0001:00059c00       ?fp_format_e_internal@@YAHQADIH_NIQAU_strflt@@1QAU__crt_locale_pointers@@@Z 1005ac00 f   libucrtd:cvt.obj
 0001:00059ee0       ?fp_format_f@@YAHQBNQADI1IHQAU__crt_locale_pointers@@@Z 1005aee0 f   libucrtd:cvt.obj
 0001:00059fc0       ?fp_format_f_internal@@YAHQADIHQAU_strflt@@_NQAU__crt_locale_pointers@@@Z 1005afc0 f   libucrtd:cvt.obj
 0001:0005a150       ?fp_format_g@@YAHQBNQADI1IH_NIQAU__crt_locale_pointers@@@Z 1005b150 f   libucrtd:cvt.obj
 0001:0005a2b0       ?fp_format_nan_or_infinity@@YAHW4__acrt_fp_class@@_NPADI1@Z 1005b2b0 f   libucrtd:cvt.obj
 0001:0005a3c0       ?shift_bytes@@YAXQADI0H@Z  1005b3c0 f   libucrtd:cvt.obj
 0001:0005a7e0       $LN41                      1005b7e0     libucrtd:cvt.obj
 0001:0005a7f4       $LN40                      1005b7f4     libucrtd:cvt.obj
 0001:0005a820       ?fputwc_binary_nolock@@YAG_WV__crt_stdio_stream@@@Z 1005b820 f   libucrtd:fputwc.obj
 0001:0005b820       _no_op_initialize          1005c820 f   libucrtd:wsetlocale.obj
 0001:0005b890       ??$?RV<lambda_6673f7c4c09a5d469d0c27ae364621ce>@@AAV<lambda_ebab98244f73a74f49db879bf13fa982>@@V<lambda_be20789b7a146653eab82509ec35b419>@@@?$__crt_seh_guarded_call@X@@QAEX$$QAV<lambda_6673f7c4c09a5d469d0c27ae364621ce>@@AAV<lambda_ebab98244f73a74f49db879bf13fa982>@@$$QAV<lambda_be20789b7a146653eab82509ec35b419>@@@Z 1005c890 f   libucrtd:wsetlocale.obj
 0001:0005b910       ??$?RV<lambda_82aef432098b982f9ede325b418aa67a>@@AAV<lambda_862e9a3f04921db6ca1ce3faa2bf3edf>@@V<lambda_ffabc152e504b53d7492b9889b10c020>@@@?$__crt_seh_guarded_call@X@@QAEX$$QAV<lambda_82aef432098b982f9ede325b418aa67a>@@AAV<lambda_862e9a3f04921db6ca1ce3faa2bf3edf>@@$$QAV<lambda_ffabc152e504b53d7492b9889b10c020>@@@Z 1005c910 f   libucrtd:wsetlocale.obj
 0001:0005b990       ??$?RV<lambda_9999445f1d1b38a0f8f29d4373f335ea>@@AAV<lambda_5f1c740618ad432f4524ad6cff55e1c4>@@AAV<lambda_8dff2cf36a5417162780cd64fa2883ef>@@@?$__crt_seh_guarded_call@X@@QAEX$$QAV<lambda_9999445f1d1b38a0f8f29d4373f335ea>@@AAV<lambda_5f1c740618ad432f4524ad6cff55e1c4>@@AAV<lambda_8dff2cf36a5417162780cd64fa2883ef>@@@Z 1005c990 f   libucrtd:wsetlocale.obj
 0001:0005ba10       ??$?RV<lambda_b545cbda8c485e810b7370d302352e4d>@@AAV<lambda_94160f38b0d8062071ee1c24a2e06f16>@@V<lambda_d9cd10c6490e08215aac19302365fb86>@@@?$__crt_seh_guarded_call@X@@QAEX$$QAV<lambda_b545cbda8c485e810b7370d302352e4d>@@AAV<lambda_94160f38b0d8062071ee1c24a2e06f16>@@$$QAV<lambda_d9cd10c6490e08215aac19302365fb86>@@@Z 1005ca10 f   libucrtd:wsetlocale.obj
 0001:0005ba90       ??$?RV<lambda_e5124f882df8998aaf41531e079ba474>@@AAV<lambda_3e16ef9562a7dcce91392c22ab16ea36>@@V<lambda_e25ca0880e6ef98be67edffd8c599615>@@@?$__crt_seh_guarded_call@X@@QAEX$$QAV<lambda_e5124f882df8998aaf41531e079ba474>@@AAV<lambda_3e16ef9562a7dcce91392c22ab16ea36>@@$$QAV<lambda_e25ca0880e6ef98be67edffd8c599615>@@@Z 1005ca90 f   libucrtd:wsetlocale.obj
 0001:0005bb10       ??$__acrt_lock_and_call@V<lambda_3e16ef9562a7dcce91392c22ab16ea36>@@@@YAXW4__acrt_lock_id@@$$QAV<lambda_3e16ef9562a7dcce91392c22ab16ea36>@@@Z 1005cb10 f   libucrtd:wsetlocale.obj
 0001:0005bb50       ??$__acrt_lock_and_call@V<lambda_862e9a3f04921db6ca1ce3faa2bf3edf>@@@@YAXW4__acrt_lock_id@@$$QAV<lambda_862e9a3f04921db6ca1ce3faa2bf3edf>@@@Z 1005cb50 f   libucrtd:wsetlocale.obj
 0001:0005bb90       ??$__acrt_lock_and_call@V<lambda_94160f38b0d8062071ee1c24a2e06f16>@@@@YAXW4__acrt_lock_id@@$$QAV<lambda_94160f38b0d8062071ee1c24a2e06f16>@@@Z 1005cb90 f   libucrtd:wsetlocale.obj
 0001:0005bbd0       ??$__acrt_lock_and_call@V<lambda_ebab98244f73a74f49db879bf13fa982>@@@@YAXW4__acrt_lock_id@@$$QAV<lambda_ebab98244f73a74f49db879bf13fa982>@@@Z 1005cbd0 f   libucrtd:wsetlocale.obj
 0001:0005bc10       ??$__crt_call_and_cleanup@V<lambda_5f1c740618ad432f4524ad6cff55e1c4>@@V<lambda_8dff2cf36a5417162780cd64fa2883ef>@@@@YAX$$QAV<lambda_5f1c740618ad432f4524ad6cff55e1c4>@@$$QAV<lambda_8dff2cf36a5417162780cd64fa2883ef>@@@Z 1005cc10 f   libucrtd:wsetlocale.obj
 0001:0005bc40       ??$uninitialize@V<lambda_88ce03f932007f29bf8b8056cbaba4f3>@@@?$dual_state_global@PAU__crt_locale_data@@@__crt_state_management@@QAEX$$QAV<lambda_88ce03f932007f29bf8b8056cbaba4f3>@@@Z 1005cc40 f   libucrtd:wsetlocale.obj
 0001:0005bc80       ??0<lambda_5f1c740618ad432f4524ad6cff55e1c4>@@QAE@AAPAU__crt_locale_data@@ABQAU__acrt_ptd@@AAPA_WAAHAAPB_W@Z 1005cc80 f   libucrtd:wsetlocale.obj
 0001:0005bcc0       ??0<lambda_6673f7c4c09a5d469d0c27ae364621ce>@@QAE@ABW4__acrt_lock_id@@@Z 1005ccc0 f   libucrtd:wsetlocale.obj
 0001:0005bce0       ??0<lambda_82aef432098b982f9ede325b418aa67a>@@QAE@ABW4__acrt_lock_id@@@Z 1005cce0 f   libucrtd:wsetlocale.obj
 0001:0005bd00       ??0<lambda_862e9a3f04921db6ca1ce3faa2bf3edf>@@QAE@AAV?$__crt_unique_heap_ptr@U__crt_locale_pointers@@U__crt_internal_free_policy@@@@@Z 1005cd00 f   libucrtd:wsetlocale.obj
 0001:0005bd20       ??0<lambda_8dff2cf36a5417162780cd64fa2883ef>@@QAE@ABQAU__acrt_ptd@@@Z 1005cd20 f   libucrtd:wsetlocale.obj
 0001:0005bd40       ??0<lambda_94160f38b0d8062071ee1c24a2e06f16>@@QAE@AAPAU__crt_locale_data@@ABQAU__acrt_ptd@@AAPA_WAAHAAPB_W@Z 1005cd40 f   libucrtd:wsetlocale.obj
 0001:0005bd80       ??0<lambda_b545cbda8c485e810b7370d302352e4d>@@QAE@ABW4__acrt_lock_id@@@Z 1005cd80 f   libucrtd:wsetlocale.obj
 0001:0005bda0       ??0<lambda_be20789b7a146653eab82509ec35b419>@@QAE@ABW4__acrt_lock_id@@@Z 1005cda0 f   libucrtd:wsetlocale.obj
 0001:0005bdc0       ??0<lambda_d9cd10c6490e08215aac19302365fb86>@@QAE@ABW4__acrt_lock_id@@@Z 1005cdc0 f   libucrtd:wsetlocale.obj
 0001:0005bde0       ??0<lambda_e25ca0880e6ef98be67edffd8c599615>@@QAE@ABW4__acrt_lock_id@@@Z 1005cde0 f   libucrtd:wsetlocale.obj
 0001:0005be00       ??0<lambda_e5124f882df8998aaf41531e079ba474>@@QAE@ABW4__acrt_lock_id@@@Z 1005ce00 f   libucrtd:wsetlocale.obj
 0001:0005be20       ??0<lambda_ebab98244f73a74f49db879bf13fa982>@@QAE@AAV?$__crt_unique_heap_ptr@U__crt_locale_pointers@@U__crt_internal_free_policy@@@@@Z 1005ce20 f   libucrtd:wsetlocale.obj
 0001:0005be40       ??0<lambda_ffabc152e504b53d7492b9889b10c020>@@QAE@ABW4__acrt_lock_id@@@Z 1005ce40 f   libucrtd:wsetlocale.obj
 0001:0005c050       ??R<lambda_3e16ef9562a7dcce91392c22ab16ea36>@@QBE@XZ 1005d050 f   libucrtd:wsetlocale.obj
 0001:0005c080       ??R<lambda_5f1c740618ad432f4524ad6cff55e1c4>@@QBE@XZ 1005d080 f   libucrtd:wsetlocale.obj
 0001:0005c130       ??R<lambda_6673f7c4c09a5d469d0c27ae364621ce>@@QBEXXZ 1005d130 f   libucrtd:wsetlocale.obj
 0001:0005c150       ??R<lambda_82aef432098b982f9ede325b418aa67a>@@QBEXXZ 1005d150 f   libucrtd:wsetlocale.obj
 0001:0005c170       ??R<lambda_862e9a3f04921db6ca1ce3faa2bf3edf>@@QBEXXZ 1005d170 f   libucrtd:wsetlocale.obj
 0001:0005c1a0       ??R<lambda_88ce03f932007f29bf8b8056cbaba4f3>@@QBEXAAPAU__crt_locale_data@@@Z 1005d1a0 f   libucrtd:wsetlocale.obj
 0001:0005c1e0       ??R<lambda_8dff2cf36a5417162780cd64fa2883ef>@@QBEXXZ 1005d1e0 f   libucrtd:wsetlocale.obj
 0001:0005c210       ??R<lambda_94160f38b0d8062071ee1c24a2e06f16>@@QBEXXZ 1005d210 f   libucrtd:wsetlocale.obj
 0001:0005c330       ??R<lambda_9999445f1d1b38a0f8f29d4373f335ea>@@QBEXXZ 1005d330 f   libucrtd:wsetlocale.obj
 0001:0005c340       ??R<lambda_b545cbda8c485e810b7370d302352e4d>@@QBEXXZ 1005d340 f   libucrtd:wsetlocale.obj
 0001:0005c360       ??R<lambda_be20789b7a146653eab82509ec35b419>@@QBEXXZ 1005d360 f   libucrtd:wsetlocale.obj
 0001:0005c380       ??R<lambda_d9cd10c6490e08215aac19302365fb86>@@QBEXXZ 1005d380 f   libucrtd:wsetlocale.obj
 0001:0005c3a0       ??R<lambda_e25ca0880e6ef98be67edffd8c599615>@@QBEXXZ 1005d3a0 f   libucrtd:wsetlocale.obj
 0001:0005c3c0       ??R<lambda_e5124f882df8998aaf41531e079ba474>@@QBEXXZ 1005d3c0 f   libucrtd:wsetlocale.obj
 0001:0005c3e0       ??R<lambda_ebab98244f73a74f49db879bf13fa982>@@QBEXXZ 1005d3e0 f   libucrtd:wsetlocale.obj
 0001:0005c400       ??R<lambda_ffabc152e504b53d7492b9889b10c020>@@QBEXXZ 1005d400 f   libucrtd:wsetlocale.obj
 0001:0005cc04       $LN20                      1005dc04     libucrtd:wsetlocale.obj
 0001:0005cc20       __copytlocinfo_nolock      1005dc20 f   libucrtd:wsetlocale.obj
 0001:0005ccf0       __expandlocale             1005dcf0 f   libucrtd:wsetlocale.obj
 0001:0005d870       __wsetlocale_get_all       1005e870 f   libucrtd:wsetlocale.obj
 0001:0005dc30       __wsetlocale_nolock        1005ec30 f   libucrtd:wsetlocale.obj
 0001:0005e090       __wsetlocale_set_cat       1005f090 f   libucrtd:wsetlocale.obj
 0001:0005e680       _categorize_delimiter      1005f680 f   libucrtd:wsetlocale.obj
 0001:0005e6c0       _get_default_code_page     1005f6c0 f   libucrtd:wsetlocale.obj
 0001:0005e700       _parse_bcp47               1005f700 f   libucrtd:wsetlocale.obj
 0001:0005ea40       $LN29                      1005fa40     libucrtd:wsetlocale.obj
 0001:0005ea50       _parse_bcp47_code_page     1005fa50 f   libucrtd:wsetlocale.obj
 0001:0005eab0       _parse_bcp47_language      1005fab0 f   libucrtd:wsetlocale.obj
 0001:0005eb80       _parse_bcp47_region        1005fb80 f   libucrtd:wsetlocale.obj
 0001:0005ecb0       _parse_bcp47_script        1005fcb0 f   libucrtd:wsetlocale.obj
 0001:0005ed80       _string_is_alpha           1005fd80 f   libucrtd:wsetlocale.obj
 0001:0005edd0       _string_is_digit           1005fdd0 f   libucrtd:wsetlocale.obj
 0001:0005ee20       _sync_legacy_variables_lk  1005fe20 f   libucrtd:wsetlocale.obj
 0001:0005eeb0       ?get_std_handle_id@@YAKH@Z 1005feb0 f   libucrtd:ioinit.obj
 0001:0005eef0       ?initialize_inherited_file_handles_nolock@@YAXXZ 1005fef0 f   libucrtd:ioinit.obj
 0001:0005f020       ?initialize_stdio_handles_nolock@@YAXXZ 10060020 f   libucrtd:ioinit.obj
 0001:0005f3d0       ??$get_cached_win_policy@Ubegin_thread_init_policy_properties@?1??__acrt_get_begin_thread_init_policy@@YA?AW4begin_thread_init_policy@@XZ@@@YA?AW4begin_thread_init_policy@@W4AppPolicyThreadInitializationType@@@Z 100603d0 f   libucrtd:win_policies.obj
 0001:0005f470       ??$get_cached_win_policy@Udeveloper_information_policy_properties@?1??__acrt_get_developer_information_policy@@YA?AW4developer_information_policy@@XZ@@@YA?AW4developer_information_policy@@W4AppPolicyShowDeveloperDiagnostic@@@Z 10060470 f   libucrtd:win_policies.obj
 0001:0005f510       ??$get_cached_win_policy@Uwindowing_model_policy_properties@?1??__acrt_get_windowing_model_policy@@YA?AW4windowing_model_policy@@XZ@@@YA?AW4windowing_model_policy@@W4AppPolicyWindowingModel@@@Z 10060510 f   libucrtd:win_policies.obj
 0001:0005f5b0       ??$get_win_policy@Uprocess_end_policy_properties@?1??__acrt_get_process_end_policy@@YA?AW4process_end_policy@@XZ@@@YA?AW4process_end_policy@@W4AppPolicyProcessTerminationMethod@@@Z 100605b0 f   libucrtd:win_policies.obj
 0001:0005f5f0       ?appmodel_get_policy@begin_thread_init_policy_properties@?1??__acrt_get_begin_thread_init_policy@@YA?AW4begin_thread_init_policy@@XZ@SAJPAW4AppPolicyThreadInitializationType@@@Z 100605f0 f   libucrtd:win_policies.obj
 0001:0005f600       ?appmodel_get_policy@developer_information_policy_properties@?1??__acrt_get_developer_information_policy@@YA?AW4developer_information_policy@@XZ@SAJPAW4AppPolicyShowDeveloperDiagnostic@@@Z 10060600 f   libucrtd:win_policies.obj
 0001:0005f610       ?appmodel_get_policy@process_end_policy_properties@?1??__acrt_get_process_end_policy@@YA?AW4process_end_policy@@XZ@SAJPAW4AppPolicyProcessTerminationMethod@@@Z 10060610 f   libucrtd:win_policies.obj
 0001:0005f620       ?appmodel_get_policy@windowing_model_policy_properties@?1??__acrt_get_windowing_model_policy@@YA?AW4windowing_model_policy@@XZ@SAJPAW4AppPolicyWindowingModel@@@Z 10060620 f   libucrtd:win_policies.obj
 0001:0005f630       ?appmodel_policy_to_policy_type@begin_thread_init_policy_properties@?1??__acrt_get_begin_thread_init_policy@@YA?AW4begin_thread_init_policy@@XZ@SA?AW43@J@Z 10060630 f   libucrtd:win_policies.obj
 0001:0005f650       ?appmodel_policy_to_policy_type@developer_information_policy_properties@?1??__acrt_get_developer_information_policy@@YA?AW4developer_information_policy@@XZ@SA?AW43@J@Z 10060650 f   libucrtd:win_policies.obj
 0001:0005f670       ?appmodel_policy_to_policy_type@process_end_policy_properties@?1??__acrt_get_process_end_policy@@YA?AW4process_end_policy@@XZ@SA?AW43@W4AppPolicyProcessTerminationMethod@@@Z 10060670 f   libucrtd:win_policies.obj
 0001:0005f690       ?appmodel_policy_to_policy_type@windowing_model_policy_properties@?1??__acrt_get_windowing_model_policy@@YA?AW4windowing_model_policy@@XZ@SA?AW43@J@Z 10060690 f   libucrtd:win_policies.obj
 0001:0005f750       ?<lambda_invoker_cdecl>@<lambda_838c7f62c73c983481e27c09e84b0b5d>@@CAHPBX0@Z 10060750 f   libucrtd:argv_wildcards.obj
 0001:0005f770       ?<lambda_invoker_cdecl>@<lambda_d388dc2bcbe6079ffc891eec49d9b3b2>@@CAHPBX0@Z 10060770 f   libucrtd:argv_wildcards.obj
 0001:0005f790       ??$__acrt_convert_wcs_mbs_cp@D_WV<lambda_62f6974d9771e494a5ea317cc32e971c>@@U__crt_win32_buffer_internal_dynamic_resizing@@@@YAHQBDAAV?$__crt_win32_buffer@_WU__crt_win32_buffer_internal_dynamic_resizing@@@@ABV<lambda_62f6974d9771e494a5ea317cc32e971c>@@I@Z 10060790 f   libucrtd:argv_wildcards.obj
 0001:0005f8d0       ??$__acrt_convert_wcs_mbs_cp@_WDV<lambda_28bda7af82a03b66c1cb3803a755f95d>@@U__crt_win32_buffer_internal_dynamic_resizing@@@@YAHQB_WAAV?$__crt_win32_buffer@DU__crt_win32_buffer_internal_dynamic_resizing@@@@ABV<lambda_28bda7af82a03b66c1cb3803a755f95d>@@I@Z 100608d0 f   libucrtd:argv_wildcards.obj
 0001:0005fa60       ??$common_expand_argv_wildcards@D@@YAHQAPADQAPAPAD@Z 10060a60 f   libucrtd:argv_wildcards.obj
 0001:0005fd40       ??$common_expand_argv_wildcards@_W@@YAHQAPA_WQAPAPA_W@Z 10060d40 f   libucrtd:argv_wildcards.obj
 0001:00060040       ??$copy_and_add_argument_to_buffer@D@@YAHQBD0IAAV?$argument_list@D@?A0x5f5c8891@@@Z 10061040 f   libucrtd:argv_wildcards.obj
 0001:00060160       ??$copy_and_add_argument_to_buffer@_W@@YAHQB_W0IAAV?$argument_list@_W@?A0x5f5c8891@@@Z 10061160 f   libucrtd:argv_wildcards.obj
 0001:00060280       ??$expand_argument_wildcards@D@@YAHQAD0AAV?$argument_list@D@?A0x5f5c8891@@@Z 10061280 f   libucrtd:argv_wildcards.obj
 0001:00060600       ??$expand_argument_wildcards@_W@@YAHQA_W0AAV?$argument_list@_W@?A0x5f5c8891@@@Z 10061600 f   libucrtd:argv_wildcards.obj
 0001:00060ba0       ??0?$argument_list@D@?A0x5f5c8891@@QAE@XZ 10061ba0 f   libucrtd:argv_wildcards.obj
 0001:00060bd0       ??0?$argument_list@_W@?A0x5f5c8891@@QAE@XZ 10061bd0 f   libucrtd:argv_wildcards.obj
 0001:00060ca0       ??1?$argument_list@D@?A0x5f5c8891@@QAE@XZ 10061ca0 f   libucrtd:argv_wildcards.obj
 0001:00060cf0       ??1?$argument_list@_W@?A0x5f5c8891@@QAE@XZ 10061cf0 f   libucrtd:argv_wildcards.obj
 0001:00060d40       ??B<lambda_838c7f62c73c983481e27c09e84b0b5d>@@QBEP6AHPBX0@ZXZ 10061d40 f   libucrtd:argv_wildcards.obj
 0001:00060d60       ??B<lambda_d388dc2bcbe6079ffc891eec49d9b3b2>@@QBEP6AHPBX0@ZXZ 10061d60 f   libucrtd:argv_wildcards.obj
 0001:00060d80       ??R<lambda_28bda7af82a03b66c1cb3803a755f95d>@@QBEHIQB_WQADI@Z 10061d80 f   libucrtd:argv_wildcards.obj
 0001:00060db0       ??R<lambda_594f614a8947934b886943aa86a6498d>@@QBE_ND@Z 10061db0 f   libucrtd:argv_wildcards.obj
 0001:00060df0       ??R<lambda_62f6974d9771e494a5ea317cc32e971c>@@QBEHIQBDQA_WI@Z 10061df0 f   libucrtd:argv_wildcards.obj
 0001:00060e20       ??R<lambda_838c7f62c73c983481e27c09e84b0b5d>@@QBEHPBX0@Z 10061e20 f   libucrtd:argv_wildcards.obj
 0001:00060e50       ??R<lambda_d388dc2bcbe6079ffc891eec49d9b3b2>@@QBEHPBX0@Z 10061e50 f   libucrtd:argv_wildcards.obj
 0001:00060e80       ??R<lambda_d734a73e0f649ebd9d9b0eca0b8ca86a>@@QBE_N_W@Z 10061e80 f   libucrtd:argv_wildcards.obj
 0001:00061060       ?append@?$argument_list@D@?A0x5f5c8891@@QAEHQAD@Z 10062060 f   libucrtd:argv_wildcards.obj
 0001:000610c0       ?append@?$argument_list@_W@?A0x5f5c8891@@QAEHQA_W@Z 100620c0 f   libucrtd:argv_wildcards.obj
 0001:00061120       ?begin@?$argument_list@D@?A0x5f5c8891@@QBEPAPADXZ 10062120 f   libucrtd:argv_wildcards.obj
 0001:00061140       ?begin@?$argument_list@_W@?A0x5f5c8891@@QBEPAPA_WXZ 10062140 f   libucrtd:argv_wildcards.obj
 0001:00061290       ?end@?$argument_list@D@?A0x5f5c8891@@QBEPAPADXZ 10062290 f   libucrtd:argv_wildcards.obj
 0001:000612b0       ?end@?$argument_list@_W@?A0x5f5c8891@@QBEPAPA_WXZ 100622b0 f   libucrtd:argv_wildcards.obj
 0001:000612d0       ?expand_if_necessary@?$argument_list@D@?A0x5f5c8891@@AAEHXZ 100622d0 f   libucrtd:argv_wildcards.obj
 0001:00061430       ?expand_if_necessary@?$argument_list@_W@?A0x5f5c8891@@AAEHXZ 10062430 f   libucrtd:argv_wildcards.obj
 0001:000615b0       ?get_file_name@@YAPADQAV?$__crt_win32_buffer@DU__crt_win32_buffer_internal_dynamic_resizing@@@@QA_W@Z 100625b0 f   libucrtd:argv_wildcards.obj
 0001:000615f0       ?get_file_name@@YAPA_WPAV?$__crt_win32_buffer@_WU__crt_win32_buffer_internal_dynamic_resizing@@@@QA_W@Z 100625f0 f   libucrtd:argv_wildcards.obj
 0001:00061610       ?get_wide@@YAPA_WPAV?$__crt_win32_buffer@_WU__crt_win32_buffer_internal_dynamic_resizing@@@@QA_W@Z 10062610 f   libucrtd:argv_wildcards.obj
 0001:00061620       ?get_wide@@YAPA_WQAV?$__crt_win32_buffer@_WU__crt_win32_buffer_internal_dynamic_resizing@@@@QAD@Z 10062620 f   libucrtd:argv_wildcards.obj
 0001:00061660       ?previous_character@@YAPADQAD0@Z 10062660 f   libucrtd:argv_wildcards.obj
 0001:00061680       ?previous_character@@YAPA_WPA_WQA_W@Z 10062680 f   libucrtd:argv_wildcards.obj
 0001:00061750       ?size@?$argument_list@D@?A0x5f5c8891@@QBEIXZ 10062750 f   libucrtd:argv_wildcards.obj
 0001:00061770       ?size@?$argument_list@_W@?A0x5f5c8891@@QBEIXZ 10062770 f   libucrtd:argv_wildcards.obj
 0001:00061810       ??$?RV<lambda_b5fb591949065c3fa449bad279e8c939>@@AAV<lambda_6c10a39a819b864ce80acc26b314dcd3>@@V<lambda_e567670a9eae49807d365f3e9c117712>@@@?$__crt_seh_guarded_call@X@@QAEX$$QAV<lambda_b5fb591949065c3fa449bad279e8c939>@@AAV<lambda_6c10a39a819b864ce80acc26b314dcd3>@@$$QAV<lambda_e567670a9eae49807d365f3e9c117712>@@@Z 10062810 f   libucrtd:mbctype.obj
 0001:00061890       ??$__acrt_lock_and_call@V<lambda_6c10a39a819b864ce80acc26b314dcd3>@@@@YAXW4__acrt_lock_id@@$$QAV<lambda_6c10a39a819b864ce80acc26b314dcd3>@@@Z 10062890 f   libucrtd:mbctype.obj
 0001:00061970       ??0<lambda_6c10a39a819b864ce80acc26b314dcd3>@@QAE@ABQAU__acrt_ptd@@ABQAPAU__crt_multibyte_data@@@Z 10062970 f   libucrtd:mbctype.obj
 0001:000619a0       ??0<lambda_b5fb591949065c3fa449bad279e8c939>@@QAE@ABW4__acrt_lock_id@@@Z 100629a0 f   libucrtd:mbctype.obj
 0001:000619c0       ??0<lambda_e567670a9eae49807d365f3e9c117712>@@QAE@ABW4__acrt_lock_id@@@Z 100629c0 f   libucrtd:mbctype.obj
 0001:000619e0       ??R<lambda_6c10a39a819b864ce80acc26b314dcd3>@@QBEXXZ 100629e0 f   libucrtd:mbctype.obj
 0001:00061ab0       ??R<lambda_b5fb591949065c3fa449bad279e8c939>@@QBEXXZ 10062ab0 f   libucrtd:mbctype.obj
 0001:00061ad0       ??R<lambda_e567670a9eae49807d365f3e9c117712>@@QBEXXZ 10062ad0 f   libucrtd:mbctype.obj
 0001:00061af0       ?CPtoLocaleName@@YAPB_WH@Z 10062af0 f   libucrtd:mbctype.obj
 0001:00061b64       $LN13                      10062b64     libucrtd:mbctype.obj
 0001:00061b78       $LN12                      10062b78     libucrtd:mbctype.obj
 0001:00061bb0       ?getSystemCP@@YAHH@Z       10062bb0 f   libucrtd:mbctype.obj
 0001:00061cb0       ?setSBCS@@YAXPAU__crt_multibyte_data@@@Z 10062cb0 f   libucrtd:mbctype.obj
 0001:00061d90       ?setSBUpLow@@YAXPAU__crt_multibyte_data@@@Z 10062d90 f   libucrtd:mbctype.obj
 0001:00062100       ?setmbcp_internal@@YAHH_NQAU__acrt_ptd@@QAPAU__crt_multibyte_data@@@Z 10063100 f   libucrtd:mbctype.obj
 0001:000622c0       ?update_thread_multibyte_data_internal@@YAPAU__crt_multibyte_data@@QAU__acrt_ptd@@QAPAU1@@Z 100632c0 f   libucrtd:mbctype.obj
 0001:000629b0       _memcpy_s                  100639b0 f   libucrtd:mbctype.obj
 0001:00062aba       ?x_ismbbtype_l@@YAHPAU__crt_locale_pointers@@IHH@Z 10063aba f   libucrtd:ismbbyte.obj
 0001:00063080       ?filter_mbtowcs_flags@@YAKIK@Z 10064080 f   libucrtd:multibytetowidechar.obj
 0001:00063180       ?filter_wcstomb_flags@@YAKIK@Z 10064180 f   libucrtd:widechartomultibyte.obj
 0001:000632d7       ??0?$__crt_unique_handle_t@Uenvironment_strings_traits@?A0x1bf47908@@@@QAE@QA_W@Z 100642d7 f   libucrtd:get_environment_from_os.obj
 0001:000632e7       ??1?$__crt_unique_handle_t@Uenvironment_strings_traits@?A0x1bf47908@@@@QAE@XZ 100642e7 f   libucrtd:get_environment_from_os.obj
 0001:000632fe       ??B?$__crt_unique_handle_t@Uenvironment_strings_traits@?A0x1bf47908@@@@QBE_NXZ 100642fe f   libucrtd:get_environment_from_os.obj
 0001:00063305       ?close@?$__crt_unique_handle_t@Uenvironment_strings_traits@?A0x1bf47908@@@@QAEXXZ 10064305 f   libucrtd:get_environment_from_os.obj
 0001:0006331c       ?close@environment_strings_traits@?A0x1bf47908@@SA_NPA_W@Z 1006431c f   libucrtd:get_environment_from_os.obj
 0001:0006332e       ?find_end_of_double_null_terminated_sequence@@YAPB_WQB_W@Z 1006432e f   libucrtd:get_environment_from_os.obj
 0001:00063365       ?get@?$__crt_unique_handle_t@Uenvironment_strings_traits@?A0x1bf47908@@@@QBEPA_WXZ 10064365 f   libucrtd:get_environment_from_os.obj
 0001:00063368       ?get_invalid_value@environment_strings_traits@?A0x1bf47908@@SAPA_WXZ 10064368 f   libucrtd:get_environment_from_os.obj
 0001:0006336b       ?is_valid@?$__crt_unique_handle_t@Uenvironment_strings_traits@?A0x1bf47908@@@@QBE_NXZ 1006436b f   libucrtd:get_environment_from_os.obj
 0001:00063461       ??$common_set_variable_in_environment_nolock@D@@YAHQADH@Z 10064461 f   libucrtd:setenv.obj
 0001:0006379a       ??$common_set_variable_in_environment_nolock@_W@@YAHQA_WH@Z 1006479a f   libucrtd:setenv.obj
 0001:00063b01       ??$copy_environment@D@@YAPAPADQAPAD@Z 10064b01 f   libucrtd:setenv.obj
 0001:00063bd5       ??$copy_environment@_W@@YAPAPA_WQAPA_W@Z 10064bd5 f   libucrtd:setenv.obj
 0001:00063cb8       ??$ensure_current_environment_is_not_initial_environment_nolock@D@@YAXXZ 10064cb8 f   libucrtd:setenv.obj
 0001:00063cd2       ??$ensure_current_environment_is_not_initial_environment_nolock@_W@@YAXXZ 10064cd2 f   libucrtd:setenv.obj
 0001:00063cec       ??$find_in_environment_nolock@D@@YAHQBDI@Z 10064cec f   libucrtd:setenv.obj
 0001:00063d41       ??$find_in_environment_nolock@_W@@YAHQB_WI@Z 10064d41 f   libucrtd:setenv.obj
 0001:00063f24       ?get_environment@@YAAAPAPADD@Z 10064f24 f   libucrtd:setenv.obj
 0001:00063f2a       ?get_environment@@YAAAPAPA_W_W@Z 10064f2a f   libucrtd:setenv.obj
 0001:00063f30       ?get_initial_environment@@YAAAPAPADD@Z 10064f30 f   libucrtd:setenv.obj
 0001:00063f36       ?get_initial_environment@@YAAAPAPA_W_W@Z 10064f36 f   libucrtd:setenv.obj
 0001:00063f3c       ?get_other_environment@@YAAAPAPAD_W@Z 10064f3c f   libucrtd:setenv.obj
 0001:00063f42       ?get_other_environment@@YAAAPAPA_WD@Z 10064f42 f   libucrtd:setenv.obj
 0001:00063f80       ?<lambda_invoker_stdcall>@<lambda_29d3c280b90b41c2ae070ffca879996a>@@CGHPA_W@Z 10064f80 f   libucrtd:winapi_thunks.obj
 0001:00063fc0       ??$?RV<lambda_6b4b7855443974f2b4b77000ea21c99c>@@AAV<lambda_8f7d3b162ab39427f4fa9995c67a7986>@@V<lambda_cc9a5ba8a5d8428b9634eab82665e5dc>@@@?$__crt_seh_guarded_call@H@@QAEH$$QAV<lambda_6b4b7855443974f2b4b77000ea21c99c>@@AAV<lambda_8f7d3b162ab39427f4fa9995c67a7986>@@$$QAV<lambda_cc9a5ba8a5d8428b9634eab82665e5dc>@@@Z 10064fc0 f   libucrtd:winapi_thunks.obj
 0001:00064050       ??$__acrt_lock_and_call@V<lambda_8f7d3b162ab39427f4fa9995c67a7986>@@@@YAHW4__acrt_lock_id@@$$QAV<lambda_8f7d3b162ab39427f4fa9995c67a7986>@@@Z 10065050 f   libucrtd:winapi_thunks.obj
 0001:00064120       ??0<lambda_6b4b7855443974f2b4b77000ea21c99c>@@QAE@ABW4__acrt_lock_id@@@Z 10065120 f   libucrtd:winapi_thunks.obj
 0001:00064140       ??0<lambda_8f7d3b162ab39427f4fa9995c67a7986>@@QAE@ABQ6GHPA_WKJ@Z@Z 10065140 f   libucrtd:winapi_thunks.obj
 0001:00064160       ??0<lambda_cc9a5ba8a5d8428b9634eab82665e5dc>@@QAE@ABW4__acrt_lock_id@@@Z 10065160 f   libucrtd:winapi_thunks.obj
 0001:00064180       ??B<lambda_29d3c280b90b41c2ae070ffca879996a>@@QBEP6GHPA_W@ZXZ 10065180 f   libucrtd:winapi_thunks.obj
 0001:000641a0       ??R<lambda_29d3c280b90b41c2ae070ffca879996a>@@QBEHPA_W@Z 100651a0 f   libucrtd:winapi_thunks.obj
 0001:000641e0       ??R<lambda_6b4b7855443974f2b4b77000ea21c99c>@@QBEXXZ 100651e0 f   libucrtd:winapi_thunks.obj
 0001:00064200       ??R<lambda_8f7d3b162ab39427f4fa9995c67a7986>@@QBEHXZ 10065200 f   libucrtd:winapi_thunks.obj
 0001:00064220       ??R<lambda_cc9a5ba8a5d8428b9634eab82665e5dc>@@QBEXXZ 10065220 f   libucrtd:winapi_thunks.obj
 0001:00064240       ?enum_system_locales_ex_nolock@@YAHQ6GHPA_WKJ@Z@Z 10065240 f   libucrtd:winapi_thunks.obj
 0001:000642a0       ?invalid_function_sentinel@@YAPAXXZ 100652a0 f   libucrtd:winapi_thunks.obj
 0001:000642b0       ?try_get_AppPolicyGetProcessTerminationMethod@@YAP6GJPAXPAW4AppPolicyProcessTerminationMethod@@@ZXZ 100652b0 f   libucrtd:winapi_thunks.obj
 0001:000642d0       ?try_get_AppPolicyGetShowDeveloperDiagnostic@@YAP6GJPAXPAW4AppPolicyShowDeveloperDiagnostic@@@ZXZ 100652d0 f   libucrtd:winapi_thunks.obj
 0001:000642f0       ?try_get_AppPolicyGetThreadInitializationType@@YAP6GJPAXPAW4AppPolicyThreadInitializationType@@@ZXZ 100652f0 f   libucrtd:winapi_thunks.obj
 0001:00064310       ?try_get_AppPolicyGetWindowingModel@@YAP6GJPAXPAW4AppPolicyWindowingModel@@@ZXZ 10065310 f   libucrtd:winapi_thunks.obj
 0001:00064330       ?try_get_AreFileApisANSI@@YAP6GHXZXZ 10065330 f   libucrtd:winapi_thunks.obj
 0001:00064350       ?try_get_CompareStringEx@@YAP6GHPB_WK0H0HPAU_nlsversioninfo@@PAXJ@ZXZ 10065350 f   libucrtd:winapi_thunks.obj
 0001:00064370       ?try_get_EnumSystemLocalesEx@@YAP6GHP6GHPA_WKJ@ZKJPAX@ZXZ 10065370 f   libucrtd:winapi_thunks.obj
 0001:00064390       ?try_get_FlsAlloc@@YAP6GKP6GXPAX@Z@ZXZ 10065390 f   libucrtd:winapi_thunks.obj
 0001:000643b0       ?try_get_FlsFree@@YAP6GHK@ZXZ 100653b0 f   libucrtd:winapi_thunks.obj
 0001:000643d0       ?try_get_FlsGetValue@@YAP6GPAXK@ZXZ 100653d0 f   libucrtd:winapi_thunks.obj
 0001:000643f0       ?try_get_FlsSetValue@@YAP6GHKPAX@ZXZ 100653f0 f   libucrtd:winapi_thunks.obj
 0001:00064410       ?try_get_GetActiveWindow@@YAP6GPAUHWND__@@XZXZ 10065410 f   libucrtd:winapi_thunks.obj
 0001:00064430       ?try_get_GetDateFormatEx@@YAP6GHPB_WKPBU_SYSTEMTIME@@0PA_WH0@ZXZ 10065430 f   libucrtd:winapi_thunks.obj
 0001:00064450       ?try_get_GetEnabledXStateFeatures@@YAP6G_KXZXZ 10065450 f   libucrtd:winapi_thunks.obj
 0001:00064470       ?try_get_GetLastActivePopup@@YAP6GPAUHWND__@@PAU1@@ZXZ 10065470 f   libucrtd:winapi_thunks.obj
 0001:00064490       ?try_get_GetLocaleInfoEx@@YAP6GHPB_WKPA_WH@ZXZ 10065490 f   libucrtd:winapi_thunks.obj
 0001:000644b0       ?try_get_GetProcessWindowStation@@YAP6GPAUHWINSTA__@@XZXZ 100654b0 f   libucrtd:winapi_thunks.obj
 0001:000644d0       ?try_get_GetSystemTimePreciseAsFileTime@@YAP6GXPAU_FILETIME@@@ZXZ 100654d0 f   libucrtd:winapi_thunks.obj
 0001:000644f0       ?try_get_GetTimeFormatEx@@YAP6GHPB_WKPBU_SYSTEMTIME@@0PA_WH@ZXZ 100654f0 f   libucrtd:winapi_thunks.obj
 0001:00064510       ?try_get_GetUserDefaultLocaleName@@YAP6GHPA_WH@ZXZ 10065510 f   libucrtd:winapi_thunks.obj
 0001:00064530       ?try_get_GetUserObjectInformationW@@YAP6GHPAXH0KPAK@ZXZ 10065530 f   libucrtd:winapi_thunks.obj
 0001:00064550       ?try_get_GetXStateFeaturesMask@@YAP6GHPAU_CONTEXT@@PA_K@ZXZ 10065550 f   libucrtd:winapi_thunks.obj
 0001:00064570       ?try_get_InitializeCriticalSectionEx@@YAP6GHPAU_RTL_CRITICAL_SECTION@@KK@ZXZ 10065570 f   libucrtd:winapi_thunks.obj
 0001:00064590       ?try_get_IsValidLocaleName@@YAP6GHPB_W@ZXZ 10065590 f   libucrtd:winapi_thunks.obj
 0001:000645b0       ?try_get_LCIDToLocaleName@@YAP6GHKPA_WHK@ZXZ 100655b0 f   libucrtd:winapi_thunks.obj
 0001:000645d0       ?try_get_LCMapStringEx@@YAP6GHPB_WK0HPA_WHPAU_nlsversioninfo@@PAXJ@ZXZ 100655d0 f   libucrtd:winapi_thunks.obj
 0001:000645f0       ?try_get_LocaleNameToLCID@@YAP6GKPB_WK@ZXZ 100655f0 f   libucrtd:winapi_thunks.obj
 0001:00064610       ?try_get_LocateXStateFeature@@YAP6GPAXPAU_CONTEXT@@KPAK@ZXZ 10065610 f   libucrtd:winapi_thunks.obj
 0001:00064630       ?try_get_MessageBoxA@@YAP6GHPAUHWND__@@PBD1I@ZXZ 10065630 f   libucrtd:winapi_thunks.obj
 0001:00064650       ?try_get_MessageBoxW@@YAP6GHPAUHWND__@@PB_W1I@ZXZ 10065650 f   libucrtd:winapi_thunks.obj
 0001:00064670       ?try_get_RoInitialize@@YAP6GJW4RO_INIT_TYPE@@@ZXZ 10065670 f   libucrtd:winapi_thunks.obj
 0001:00064690       ?try_get_RoUninitialize@@YAP6GXXZXZ 10065690 f   libucrtd:winapi_thunks.obj
 0001:000646b0       ?try_get_SetThreadStackGuarantee@@YAP6GHPAK@ZXZ 100656b0 f   libucrtd:winapi_thunks.obj
 0001:000646d0       ?try_get_SystemFunction036@@YAP6GEPAXK@ZXZ 100656d0 f   libucrtd:winapi_thunks.obj
 0001:000646f0       ?try_get_first_available_module@@YAPAUHINSTANCE__@@QBW4module_id@?A0x391cf84c@@0@Z 100656f0 f   libucrtd:winapi_thunks.obj
 0001:00064740       ?try_get_function@@YAPAXW4function_id@?A0x391cf84c@@QBDQBW4module_id@2@2@Z 10065740 f   libucrtd:winapi_thunks.obj
 0001:00064880       ?try_get_module@@YAPAUHINSTANCE__@@W4module_id@?A0x391cf84c@@@Z 10065880 f   libucrtd:winapi_thunks.obj
 0001:00064990       ?try_get_proc_address_from_first_available_module@@YAPAXQBDQBW4module_id@?A0x391cf84c@@1@Z 10065990 f   libucrtd:winapi_thunks.obj
 0001:000649d0       ?try_load_library_from_system_directory@@YAPAUHINSTANCE__@@QB_W@Z 100659d0 f   libucrtd:winapi_thunks.obj
 0001:00065cb0       ?select_heap@@YAPAXQAX@Z   10066cb0 f   libucrtd:free_base.obj
 0001:00065d10       ?is_contraction_possible@@YA_NI@Z 10066d10 f   libucrtd:expand.obj
 0001:000660a0       ??$common_tcsncpy_s@D@@YAHQADIQBDI@Z 100670a0 f   libucrtd:strncpy_s.obj
 0001:000664d0       ?issue_debug_notification@@YA_NQB_W@Z 100674d0 f   libucrtd:report_runtime_error.obj
 0001:00066510       ?should_write_error_to_console@@YA_NXZ 10067510 f   libucrtd:report_runtime_error.obj
 0001:00066550       ?write_string_to_console@@YAXQB_W@Z 10067550 f   libucrtd:report_runtime_error.obj
 0001:00066920       ??$common_xtox@KD@@YAHKQADII_N@Z 10067920 f   libucrtd:xtoa.obj
 0001:00066ab0       ??$common_xtox@K_W@@YAHKQA_WII_N@Z 10067ab0 f   libucrtd:xtoa.obj
 0001:00066c50       ??$common_xtox@_KD@@YAH_KQADII_N@Z 10067c50 f   libucrtd:xtoa.obj
 0001:00066e10       ??$common_xtox@_K_W@@YAH_KQA_WII_N@Z 10067e10 f   libucrtd:xtoa.obj
 0001:00066fe0       ??$common_xtox_s@KD@@YAHKQADII_N@Z 10067fe0 f   libucrtd:xtoa.obj
 0001:00067270       ??$common_xtox_s@K_W@@YAHKQA_WII_N@Z 10068270 f   libucrtd:xtoa.obj
 0001:00067500       ??$common_xtox_s@_KD@@YAH_KQADII_N@Z 10068500 f   libucrtd:xtoa.obj
 0001:00067790       ??$common_xtox_s@_K_W@@YAH_KQA_WII_N@Z 10068790 f   libucrtd:xtoa.obj
 0001:00067f70       ?_mbstowcs_l_helper@@YAIPA_WPBDIPAU__crt_locale_pointers@@@Z 10068f70 f   libucrtd:mbstowcs.obj
 0001:000687b0       ?_wcstombs_l_helper@@YAIPADPB_WIPAU__crt_locale_pointers@@@Z 100697b0 f   libucrtd:wcstombs.obj
 0001:00068e10       ?wcsncnt@@YAIPB_WI@Z       10069e10 f   libucrtd:wcstombs.obj
 0001:000697c0       ??R<lambda_3d301b9e52f5099be73030e1f0bf487e>@@QBEIPBD@Z 1006a7c0 f   libucrtd:mbrtowc.obj
 0001:00069a90       ?_mbrtowc_s_l@@YAHPAHPA_WPBDIPAU_Mbstatet@@PAU__crt_locale_pointers@@@Z 1006aa90 f   libucrtd:mbrtowc.obj
 0001:00069ef0       ?_mbsrtowcs_helper@@YAIPA_WPAPBDIPAU_Mbstatet@@@Z 1006aef0 f   libucrtd:mbrtowc.obj
 0001:0006bc50       ??$convert_to_fos_high_precision@N@@YAXNIQAHQADI@Z 1006cc50 f   libucrtd:cfout.obj
 0001:0006c300       ??0scoped_fp_state_reset@?A0x71ca7cfb@@QAE@XZ 1006d300 f   libucrtd:cfout.obj
 0001:0006c350       ??1scoped_fp_state_reset@?A0x71ca7cfb@@QAE@XZ 1006d350 f   libucrtd:cfout.obj
 0001:0006ddb8       $LN19                      1006edb8     libucrtd:cfout.obj
 0001:0006ddd0       _memcpy_s                  1006edd0 f   libucrtd:cfout.obj
 0001:0006dee0       ??$common_flush_and_write_nolock@D@@YAHHV__crt_stdio_stream@@@Z 1006eee0 f   libucrtd:_flsbuf.obj
 0001:0006e0d0       ??$common_flush_and_write_nolock@_W@@YAHHV__crt_stdio_stream@@@Z 1006f0d0 f   libucrtd:_flsbuf.obj
 0001:0006e2c0       ??$write_buffer_nolock@D@@YA_NDV__crt_stdio_stream@@@Z 1006f2c0 f   libucrtd:_flsbuf.obj
 0001:0006e470       ??$write_buffer_nolock@_W@@YA_N_WV__crt_stdio_stream@@@Z 1006f470 f   libucrtd:_flsbuf.obj
 0001:0006e640       ?stream_is_at_end_of_file_nolock@@YA_NV__crt_stdio_stream@@@Z 1006f640 f   libucrtd:_flsbuf.obj
 0001:0006e910       ??$?RV<lambda_2866be3712abc81a800a822484c830d8>@@AAV<lambda_39ca0ed439415581b5b15c265174cece>@@V<lambda_2b24c74d71094a6cd0cb82e44167d71b>@@@?$__crt_seh_guarded_call@X@@QAEX$$QAV<lambda_2866be3712abc81a800a822484c830d8>@@AAV<lambda_39ca0ed439415581b5b15c265174cece>@@$$QAV<lambda_2b24c74d71094a6cd0cb82e44167d71b>@@@Z 1006f910 f   libucrtd:fflush.obj
 0001:0006e990       ??$?RV<lambda_2cc53f568c5a2bb6f192f930a45d44ea>@@AAV<lambda_ab61a845afdef5b7c387490eaf3616ee>@@V<lambda_c2ffc0b7726aa6be21d5f0026187e748>@@@?$__crt_seh_guarded_call@X@@QAEX$$QAV<lambda_2cc53f568c5a2bb6f192f930a45d44ea>@@AAV<lambda_ab61a845afdef5b7c387490eaf3616ee>@@$$QAV<lambda_c2ffc0b7726aa6be21d5f0026187e748>@@@Z 1006f990 f   libucrtd:fflush.obj
 0001:0006ea10       ??$?RV<lambda_6d20deecaf4856105ebacbad442d1079>@@AAV<lambda_9a32fed5bf61b6b509b2d3f6003082a1>@@V<lambda_63ea2239ed67c638ddbae41947fdf875>@@@?$__crt_seh_guarded_call@H@@QAEH$$QAV<lambda_6d20deecaf4856105ebacbad442d1079>@@AAV<lambda_9a32fed5bf61b6b509b2d3f6003082a1>@@$$QAV<lambda_63ea2239ed67c638ddbae41947fdf875>@@@Z 1006fa10 f   libucrtd:fflush.obj
 0001:0006eaa0       ??$__acrt_lock_and_call@V<lambda_ab61a845afdef5b7c387490eaf3616ee>@@@@YAXW4__acrt_lock_id@@$$QAV<lambda_ab61a845afdef5b7c387490eaf3616ee>@@@Z 1006faa0 f   libucrtd:fflush.obj
 0001:0006eae0       ??$__acrt_lock_stream_and_call@V<lambda_39ca0ed439415581b5b15c265174cece>@@@@YAXQAU_iobuf@@$$QAV<lambda_39ca0ed439415581b5b15c265174cece>@@@Z 1006fae0 f   libucrtd:fflush.obj
 0001:0006eb20       ??$__acrt_lock_stream_and_call@V<lambda_9a32fed5bf61b6b509b2d3f6003082a1>@@@@YAHQAU_iobuf@@$$QAV<lambda_9a32fed5bf61b6b509b2d3f6003082a1>@@@Z 1006fb20 f   libucrtd:fflush.obj
 0001:0006eb60       ??0<lambda_2866be3712abc81a800a822484c830d8>@@QAE@ABQAU_iobuf@@@Z 1006fb60 f   libucrtd:fflush.obj
 0001:0006eb80       ??0<lambda_2b24c74d71094a6cd0cb82e44167d71b>@@QAE@ABQAU_iobuf@@@Z 1006fb80 f   libucrtd:fflush.obj
 0001:0006eba0       ??0<lambda_2cc53f568c5a2bb6f192f930a45d44ea>@@QAE@ABW4__acrt_lock_id@@@Z 1006fba0 f   libucrtd:fflush.obj
 0001:0006ebc0       ??0<lambda_39ca0ed439415581b5b15c265174cece>@@QAE@ABV__crt_stdio_stream@@AAHAB_N1@Z 1006fbc0 f   libucrtd:fflush.obj
 0001:0006ec00       ??0<lambda_63ea2239ed67c638ddbae41947fdf875>@@QAE@ABQAU_iobuf@@@Z 1006fc00 f   libucrtd:fflush.obj
 0001:0006ec20       ??0<lambda_6d20deecaf4856105ebacbad442d1079>@@QAE@ABQAU_iobuf@@@Z 1006fc20 f   libucrtd:fflush.obj
 0001:0006ec40       ??0<lambda_9a32fed5bf61b6b509b2d3f6003082a1>@@QAE@ABV__crt_stdio_stream@@@Z 1006fc40 f   libucrtd:fflush.obj
 0001:0006ec60       ??0<lambda_ab61a845afdef5b7c387490eaf3616ee>@@QAE@AAHAB_N0@Z 1006fc60 f   libucrtd:fflush.obj
 0001:0006ec90       ??0<lambda_c2ffc0b7726aa6be21d5f0026187e748>@@QAE@ABW4__acrt_lock_id@@@Z 1006fc90 f   libucrtd:fflush.obj
 0001:0006ecb0       ??R<lambda_2866be3712abc81a800a822484c830d8>@@QBEXXZ 1006fcb0 f   libucrtd:fflush.obj
 0001:0006ecd0       ??R<lambda_2b24c74d71094a6cd0cb82e44167d71b>@@QBEXXZ 1006fcd0 f   libucrtd:fflush.obj
 0001:0006ecf0       ??R<lambda_2cc53f568c5a2bb6f192f930a45d44ea>@@QBEXXZ 1006fcf0 f   libucrtd:fflush.obj
 0001:0006ed10       ??R<lambda_39ca0ed439415581b5b15c265174cece>@@QBEXXZ 1006fd10 f   libucrtd:fflush.obj
 0001:0006eda0       ??R<lambda_63ea2239ed67c638ddbae41947fdf875>@@QBEXXZ 1006fda0 f   libucrtd:fflush.obj
 0001:0006edc0       ??R<lambda_6d20deecaf4856105ebacbad442d1079>@@QBEXXZ 1006fdc0 f   libucrtd:fflush.obj
 0001:0006ede0       ??R<lambda_9a32fed5bf61b6b509b2d3f6003082a1>@@QBEHXZ 1006fde0 f   libucrtd:fflush.obj
 0001:0006ee00       ??R<lambda_ab61a845afdef5b7c387490eaf3616ee>@@QBE@XZ 1006fe00 f   libucrtd:fflush.obj
 0001:0006eea0       ??R<lambda_c2ffc0b7726aa6be21d5f0026187e748>@@QBEXXZ 1006fea0 f   libucrtd:fflush.obj
 0001:0006eef0       ?common_flush_all@@YAH_N@Z 1006fef0 f   libucrtd:fflush.obj
 0001:0006ef50       ?common_flush_all_should_try_to_flush_stream@@YA_NV__crt_stdio_stream@@QAH@Z 1006ff50 f   libucrtd:fflush.obj
 0001:0006f000       ?is_stream_allocated@@YA_NJ@Z 10070000 f   libucrtd:fflush.obj
 0001:0006f030       ?is_stream_flushable@@YA_NJ@Z 10070030 f   libucrtd:fflush.obj
 0001:0006f060       ?is_stream_flushable_or_commitable@@YA_NJ@Z 10070060 f   libucrtd:fflush.obj
 0001:0006fca0       _fix_grouping              10070ca0 f   libucrtd:initmon.obj
 0001:000701a0       _fix_grouping              100711a0 f   libucrtd:initnum.obj
 0001:00070240       ??$free_crt_array@D$01@@YAXAAY01PAD@Z 10071240 f   libucrtd:inittime.obj
 0001:00070260       ??$free_crt_array@D$06@@YAXAAY06PAD@Z 10071260 f   libucrtd:inittime.obj
 0001:00070280       ??$free_crt_array@D$0M@@@YAXAAY0M@PAD@Z 10071280 f   libucrtd:inittime.obj
 0001:000702a0       ??$free_crt_array@_W$01@@YAXAAY01PA_W@Z 100712a0 f   libucrtd:inittime.obj
 0001:000702c0       ??$free_crt_array@_W$06@@YAXAAY06PA_W@Z 100712c0 f   libucrtd:inittime.obj
 0001:000702e0       ??$free_crt_array@_W$0M@@@YAXAAY0M@PA_W@Z 100712e0 f   libucrtd:inittime.obj
 0001:00070390       ?free_crt_array_internal@@YAXQAPBXI@Z 10071390 f   libucrtd:inittime.obj
 0001:000703f0       ?get_or_create_lc_time@@YAPBU__crt_lc_time_data@@QAU__crt_locale_data@@@Z 100713f0 f   libucrtd:inittime.obj
 0001:000704d0       ?initialize_lc_time@@YA_NQAU__crt_lc_time_data@@QAU__crt_locale_data@@@Z 100714d0 f   libucrtd:inittime.obj
 0001:00070b20       ??$common_tcsncat_s@_W@@YAHQA_WIQB_WI@Z 10071b20 f   libucrtd:wcsncat_s.obj
 0001:00071460       _GetLocaleNameFromDefault  10072460 f   libucrtd:get_qualified_locale.obj
 0001:00071500       _GetLocaleNameFromLangCountry 10072500 f   libucrtd:get_qualified_locale.obj
 0001:000715e0       _GetLocaleNameFromLanguage 100725e0 f   libucrtd:get_qualified_locale.obj
 0001:00071670       _GetPrimaryLen             10072670 f   libucrtd:get_qualified_locale.obj
 0001:000716f0       _LangCountryEnumProcEx@12  100726f0 f   libucrtd:get_qualified_locale.obj
 0001:00071c40       _LanguageEnumProcEx@12     10072c40 f   libucrtd:get_qualified_locale.obj
 0001:00071d70       _ProcessCodePage           10072d70 f   libucrtd:get_qualified_locale.obj
 0001:00071e70       _TestDefaultCountry        10072e70 f   libucrtd:get_qualified_locale.obj
 0001:00071ed0       _TestDefaultLanguage       10072ed0 f   libucrtd:get_qualified_locale.obj
 0001:00071f20       _TranslateName             10072f20 f   libucrtd:get_qualified_locale.obj
 0001:000722e0       _CountryEnumProc@4         100732e0 f   libucrtd:getqloc_downlevel.obj
 0001:00072420       _GetLcidFromCountry        10073420 f   libucrtd:getqloc_downlevel.obj
 0001:00072490       _GetLcidFromDefault        10073490 f   libucrtd:getqloc_downlevel.obj
 0001:000724d0       _GetLcidFromLangCountry    100734d0 f   libucrtd:getqloc_downlevel.obj
 0001:000725b0       _GetLcidFromLanguage       100735b0 f   libucrtd:getqloc_downlevel.obj
 0001:00072640       _GetPrimaryLen             10073640 f   libucrtd:getqloc_downlevel.obj
 0001:000726b0       _LangCountryEnumProc@4     100736b0 f   libucrtd:getqloc_downlevel.obj
 0001:00072b50       _LanguageEnumProc@4        10073b50 f   libucrtd:getqloc_downlevel.obj
 0001:00072d30       _LcidFromHexString         10073d30 f   libucrtd:getqloc_downlevel.obj
 0001:00072dc0       _ProcessCodePage           10073dc0 f   libucrtd:getqloc_downlevel.obj
 0001:00072e70       _TestDefaultCountry        10073e70 f   libucrtd:getqloc_downlevel.obj
 0001:00072ec0       _TestDefaultLanguage       10073ec0 f   libucrtd:getqloc_downlevel.obj
 0001:00072f50       _TranslateName             10073f50 f   libucrtd:getqloc_downlevel.obj
 0001:00073f10       ?shortsort@@YAXPAD0IP6AHPBX1@Z@Z 10074f10 f   libucrtd:qsort.obj
 0001:00073fd0       ?swap@@YAXPAD0I@Z          10074fd0 f   libucrtd:qsort.obj
 0001:000746b0       $$000000                   100756b0     libucrtd:strpbrk.obj
 0001:00074720       ?__acrt_LCMapStringA_stat@@YAHPAU__crt_locale_pointers@@PB_WKPBDHPADHHH@Z 10075720 f   libucrtd:lcmapstringa.obj
 0001:00074b40       ?initialize_multibyte@@YAHXZ 10075b40 f   libucrtd:multibyte_initializer.obj
 0001:00075280       ??$__acrt_convert_wcs_mbs_cp@D_WV<lambda_62f6974d9771e494a5ea317cc32e971c>@@U__crt_win32_buffer_internal_dynamic_resizing@@@@YAHQBDAAV?$__crt_win32_buffer@_WU__crt_win32_buffer_internal_dynamic_resizing@@@@ABV<lambda_62f6974d9771e494a5ea317cc32e971c>@@I@Z 10076280 f   libucrtd:setenvironmentvariablea.obj
 0001:000753c0       ??R<lambda_62f6974d9771e494a5ea317cc32e971c>@@QBEHIQBDQA_WI@Z 100763c0 f   libucrtd:setenvironmentvariablea.obj
 0001:000754b0       ?GetTableIndexFromLcid@@YAHK@Z 100764b0 f   libucrtd:lcidtoname_downlevel.obj
 0001:00075520       ?GetTableIndexFromLocaleName@@YAHPB_W@Z 10076520 f   libucrtd:lcidtoname_downlevel.obj
 0001:00075920       ?_wcrtomb_s_l@@YAHQAHQADI_WQAU_Mbstatet@@QAU__crt_locale_pointers@@@Z 10076920 f   libucrtd:wcrtomb.obj
 0001:00075bd0       _internal_wcsrtombs        10076bd0 f   libucrtd:wcrtomb.obj
 0001:00075e70       _memcpy_s                  10076e70 f   libucrtd:wcrtomb.obj
 0001:000767d0       ?InternalGetLocaleInfoA@@YAHQAU__crt_locale_pointers@@QB_WKQADH@Z 100777d0 f   libucrtd:getlocaleinfoa.obj
 0001:00076d10       $$000000                   10077d10     libucrtd:log10.obj
 0001:00076d60       $$000000                   10077d60     libucrtd:ceil_pentium4.obj
 0001:00076f80       ?write_binary_nolock@@YA?AUwrite_result@?A0x17268360@@HQBDI@Z 10077f80 f   libucrtd:write.obj
 0001:00077010       ?write_double_translated_ansi_nolock@@YA?AUwrite_result@?A0x17268360@@HQBDI@Z 10078010 f   libucrtd:write.obj
 0001:00077c50       ?write_double_translated_unicode_nolock@@YA?AUwrite_result@?A0x17268360@@QBDI@Z 10078c50 f   libucrtd:write.obj
 0001:00077d60       ?write_requires_double_translation_nolock@@YA_NH@Z 10078d60 f   libucrtd:write.obj
 0001:00077e40       ?write_text_ansi_nolock@@YA?AUwrite_result@?A0x17268360@@HQBDI@Z 10078e40 f   libucrtd:write.obj
 0001:00078040       ?write_text_utf16le_nolock@@YA?AUwrite_result@?A0x17268360@@HQBDI@Z 10079040 f   libucrtd:write.obj
 0001:00078250       ?write_text_utf8_nolock@@YA?AUwrite_result@?A0x17268360@@HQBDI@Z 10079250 f   libucrtd:write.obj
 0001:00078ba0       ??$common_lseek@J@@YAJHJH@Z 10079ba0 f   libucrtd:lseek.obj
 0001:00078df0       ??$common_lseek@_J@@YA_JH_JH@Z 10079df0 f   libucrtd:lseek.obj
 0001:00079050       ??$common_lseek_nolock@J@@YAJHJH@Z 1007a050 f   libucrtd:lseek.obj
 0001:00079110       ??$common_lseek_nolock@_J@@YA_JH_JH@Z 1007a110 f   libucrtd:lseek.obj
 0001:000791e0       ?common_lseek_do_seek_nolock@@YAJQAXJH@Z 1007a1e0 f   libucrtd:lseek.obj
 0001:000792c0       ?common_lseek_do_seek_nolock@@YA_JQAX_JH@Z 1007a2c0 f   libucrtd:lseek.obj
 0001:00079730       ??$?RV<lambda_73934b50d04267ee15484ada9e51f93a>@@AAV<lambda_5533cddd4bda0037814beee657757329>@@V<lambda_505f522a38cc75b1e009910344c75d09>@@@?$__crt_seh_guarded_call@H@@QAEH$$QAV<lambda_73934b50d04267ee15484ada9e51f93a>@@AAV<lambda_5533cddd4bda0037814beee657757329>@@$$QAV<lambda_505f522a38cc75b1e009910344c75d09>@@@Z 1007a730 f   libucrtd:commit.obj
 0001:000797c0       ??$__acrt_lowio_lock_fh_and_call@V<lambda_5533cddd4bda0037814beee657757329>@@@@YAHH$$QAV<lambda_5533cddd4bda0037814beee657757329>@@@Z 1007a7c0 f   libucrtd:commit.obj
 0001:00079800       ??0<lambda_505f522a38cc75b1e009910344c75d09>@@QAE@ABH@Z 1007a800 f   libucrtd:commit.obj
 0001:00079820       ??0<lambda_5533cddd4bda0037814beee657757329>@@QAE@ABH@Z 1007a820 f   libucrtd:commit.obj
 0001:00079840       ??0<lambda_73934b50d04267ee15484ada9e51f93a>@@QAE@ABH@Z 1007a840 f   libucrtd:commit.obj
 0001:00079860       ??R<lambda_505f522a38cc75b1e009910344c75d09>@@QBEXXZ 1007a860 f   libucrtd:commit.obj
 0001:00079880       ??R<lambda_5533cddd4bda0037814beee657757329>@@QBEHXZ 1007a880 f   libucrtd:commit.obj
 0001:00079920       ??R<lambda_73934b50d04267ee15484ada9e51f93a>@@QBEXXZ 1007a920 f   libucrtd:commit.obj
 0001:0007a780       ?InternalCompareStringA@@YAHPAU__crt_locale_pointers@@PB_WKPBDH2HH@Z 1007b780 f   libucrtd:comparestringa.obj
 0001:0007ad70       ?combine_second_surrogate@?A0xc60ee810@@YA_U_SPAU_Mbstatet@@@Z 1007bd70 f   libucrtd:c16rtomb.obj
 0001:0007ad90       ?has_surrogate@?A0xc60ee810@@YA_NPAU_Mbstatet@@@Z 1007bd90 f   libucrtd:c16rtomb.obj
 0001:0007adc0       ?is_first_surrogate@?A0xc60ee810@@YA_N_S@Z 1007bdc0 f   libucrtd:c16rtomb.obj
 0001:0007ae00       ?is_second_surrogate@?A0xc60ee810@@YA_N_S@Z 1007be00 f   libucrtd:c16rtomb.obj
 0001:0007ae40       ?store_first_surrogate@?A0xc60ee810@@YAX_SPAU_Mbstatet@@@Z 1007be40 f   libucrtd:c16rtomb.obj
 0001:0007af00       $$000000                   1007bf00     libucrtd:log10_impl.obj
 0001:0007b010       $$000000                   1007c010     libucrtd:log10_pentium4.obj
 0001:0007b7dc       $LN56                      1007c7dc     libucrtd:libm_error.obj
 0001:0007b818       $LN55                      1007c818     libucrtd:libm_error.obj
 0001:0007bc40       ??$to_abstract_status@W4__acrt_fenv_machine_sse_status@@@@YA?AW4__acrt_fenv_abstract_status@@W4__acrt_fenv_machine_sse_status@@@Z 1007cc40 f   libucrtd:_fenvutils.obj
 0001:0007bc60       ??$to_abstract_status@W4__acrt_fenv_machine_x87_status@@@@YA?AW4__acrt_fenv_abstract_status@@W4__acrt_fenv_machine_x87_status@@@Z 1007cc60 f   libucrtd:_fenvutils.obj
 0001:0007bc80       ??$translate_control_exception_mask@W4__acrt_fenv_abstract_control@@W4__acrt_fenv_machine_sse_control@@@@YA?AW4__acrt_fenv_abstract_control@@W4__acrt_fenv_machine_sse_control@@@Z 1007cc80 f   libucrtd:_fenvutils.obj
 0001:0007bd70       ??$translate_control_exception_mask@W4__acrt_fenv_abstract_control@@W4__acrt_fenv_machine_x87_control@@@@YA?AW4__acrt_fenv_abstract_control@@W4__acrt_fenv_machine_x87_control@@@Z 1007cd70 f   libucrtd:_fenvutils.obj
 0001:0007be50       ??$translate_control_exception_mask@W4__acrt_fenv_machine_sse_control@@W4__acrt_fenv_abstract_control@@@@YA?AW4__acrt_fenv_machine_sse_control@@W4__acrt_fenv_abstract_control@@@Z 1007ce50 f   libucrtd:_fenvutils.obj
 0001:0007bf50       ??$translate_control_exception_mask@W4__acrt_fenv_machine_x87_control@@W4__acrt_fenv_abstract_control@@@@YA?AW4__acrt_fenv_machine_x87_control@@W4__acrt_fenv_abstract_control@@@Z 1007cf50 f   libucrtd:_fenvutils.obj
 0001:0007c030       ??$translate_control_infinity_control@W4__acrt_fenv_abstract_control@@W4__acrt_fenv_machine_x87_control@@@@YA?AW4__acrt_fenv_abstract_control@@W4__acrt_fenv_machine_x87_control@@@Z 1007d030 f   libucrtd:_fenvutils.obj
 0001:0007c070       ??$translate_control_infinity_control@W4__acrt_fenv_machine_x87_control@@W4__acrt_fenv_abstract_control@@@@YA?AW4__acrt_fenv_machine_x87_control@@W4__acrt_fenv_abstract_control@@@Z 1007d070 f   libucrtd:_fenvutils.obj
 0001:0007c0b0       ??$translate_control_precision_control@W4__acrt_fenv_abstract_control@@W4__acrt_fenv_machine_x87_control@@@@YA?AW4__acrt_fenv_abstract_control@@W4__acrt_fenv_machine_x87_control@@@Z 1007d0b0 f   libucrtd:_fenvutils.obj
 0001:0007c100       ??$translate_control_precision_control@W4__acrt_fenv_machine_x87_control@@W4__acrt_fenv_abstract_control@@@@YA?AW4__acrt_fenv_machine_x87_control@@W4__acrt_fenv_abstract_control@@@Z 1007d100 f   libucrtd:_fenvutils.obj
 0001:0007c150       ??$translate_control_rounding_control@W4__acrt_fenv_abstract_control@@W4__acrt_fenv_machine_sse_control@@@@YA?AW4__acrt_fenv_abstract_control@@W4__acrt_fenv_machine_sse_control@@@Z 1007d150 f   libucrtd:_fenvutils.obj
 0001:0007c1c0       ??$translate_control_rounding_control@W4__acrt_fenv_abstract_control@@W4__acrt_fenv_machine_x87_control@@@@YA?AW4__acrt_fenv_abstract_control@@W4__acrt_fenv_machine_x87_control@@@Z 1007d1c0 f   libucrtd:_fenvutils.obj
 0001:0007c230       ??$translate_control_rounding_control@W4__acrt_fenv_machine_sse_control@@W4__acrt_fenv_abstract_control@@@@YA?AW4__acrt_fenv_machine_sse_control@@W4__acrt_fenv_abstract_control@@@Z 1007d230 f   libucrtd:_fenvutils.obj
 0001:0007c2a0       ??$translate_control_rounding_control@W4__acrt_fenv_machine_x87_control@@W4__acrt_fenv_abstract_control@@@@YA?AW4__acrt_fenv_machine_x87_control@@W4__acrt_fenv_abstract_control@@@Z 1007d2a0 f   libucrtd:_fenvutils.obj
 0001:0007c310       ??$translate_status@W4__acrt_fenv_abstract_status@@W4__acrt_fenv_machine_sse_status@@@@YA?AW4__acrt_fenv_abstract_status@@W4__acrt_fenv_machine_sse_status@@@Z 1007d310 f   libucrtd:_fenvutils.obj
 0001:0007c3e0       ??$translate_status@W4__acrt_fenv_abstract_status@@W4__acrt_fenv_machine_x87_status@@@@YA?AW4__acrt_fenv_abstract_status@@W4__acrt_fenv_machine_x87_status@@@Z 1007d3e0 f   libucrtd:_fenvutils.obj
 0001:0007c4b0       ??$translate_status@W4__acrt_fenv_machine_sse_status@@W4__acrt_fenv_abstract_status@@@@YA?AW4__acrt_fenv_machine_sse_status@@W4__acrt_fenv_abstract_status@@@Z 1007d4b0 f   libucrtd:_fenvutils.obj
 0001:0007c580       ??$translate_status@W4__acrt_fenv_machine_x87_status@@W4__acrt_fenv_abstract_status@@@@YA?AW4__acrt_fenv_machine_x87_status@@W4__acrt_fenv_abstract_status@@@Z 1007d580 f   libucrtd:_fenvutils.obj
 0001:0007c970       ?get_machine_sse_control@@YA?AW4__acrt_fenv_machine_sse_control@@XZ 1007d970 f   libucrtd:_fenvutils.obj
 0001:0007c9a0       ?get_machine_sse_status@@YA?AW4__acrt_fenv_machine_sse_status@@XZ 1007d9a0 f   libucrtd:_fenvutils.obj
 0001:0007c9d0       ?get_machine_x87_control@@YA?AW4__acrt_fenv_machine_x87_control@@XZ 1007d9d0 f   libucrtd:_fenvutils.obj
 0001:0007ca20       ?get_machine_x87_status@@YA?AW4__acrt_fenv_machine_x87_status@@XZ 1007da20 f   libucrtd:_fenvutils.obj
 0001:0007ca50       ?set_machine_sse_control@@YAXW4__acrt_fenv_machine_sse_control@@@Z 1007da50 f   libucrtd:_fenvutils.obj
 0001:0007cab0       ?set_machine_sse_status@@YAXW4__acrt_fenv_machine_sse_status@@@Z 1007dab0 f   libucrtd:_fenvutils.obj
 0001:0007cb00       ?set_machine_x87_control@@YAXW4__acrt_fenv_machine_x87_control@@@Z 1007db00 f   libucrtd:_fenvutils.obj
 0001:0007cb70       ?set_machine_x87_status@@YAXW4__acrt_fenv_machine_x87_status@@@Z 1007db70 f   libucrtd:_fenvutils.obj
 0001:0007cbd0       ?to_abstract_control@@YA?AW4__acrt_fenv_abstract_control@@W4__acrt_fenv_machine_sse_control@@@Z 1007dbd0 f   libucrtd:_fenvutils.obj
 0001:0007cc20       ?to_abstract_control@@YA?AW4__acrt_fenv_abstract_control@@W4__acrt_fenv_machine_x87_control@@@Z 1007dc20 f   libucrtd:_fenvutils.obj
 0001:0007cc80       ?to_machine_sse_control@@YA?AW4__acrt_fenv_machine_sse_control@@W4__acrt_fenv_abstract_control@@@Z 1007dc80 f   libucrtd:_fenvutils.obj
 0001:0007cce0       ?to_machine_sse_status@@YA?AW4__acrt_fenv_machine_sse_status@@W4__acrt_fenv_abstract_status@@@Z 1007dce0 f   libucrtd:_fenvutils.obj
 0001:0007cd00       ?to_machine_x87_control@@YA?AW4__acrt_fenv_machine_x87_control@@W4__acrt_fenv_abstract_control@@@Z 1007dd00 f   libucrtd:_fenvutils.obj
 0001:0007cd80       ?to_machine_x87_status@@YA?AW4__acrt_fenv_machine_x87_status@@W4__acrt_fenv_abstract_status@@@Z 1007dd80 f   libucrtd:_fenvutils.obj
 0001:0007cda0       ?translate_control_denormal_control_from_sse@@YA?AW4__acrt_fenv_abstract_control@@W4__acrt_fenv_machine_sse_control@@@Z 1007dda0 f   libucrtd:_fenvutils.obj
 0001:0007ce20       ?translate_control_denormal_control_to_sse@@YA?AW4__acrt_fenv_machine_sse_control@@W4__acrt_fenv_abstract_control@@@Z 1007de20 f   libucrtd:_fenvutils.obj
 0001:0007d0d0       ___abstract_cw_sse2        1007e0d0 f   libucrtd:ieee87.obj
 0001:0007d220       ___abstract_sw_sse2        1007e220 f   libucrtd:ieee87.obj
 0001:0007d2b0       ___clearfp_sse2            1007e2b0 f   libucrtd:ieee87.obj
 0001:0007d390       ___control87_sse2          1007e390 f   libucrtd:ieee87.obj
 0001:0007d430       ___hw_cw_sse2              1007e430 f   libucrtd:ieee87.obj
 0001:0007d580       ___statusfp_sse2           1007e580 f   libucrtd:ieee87.obj
 0001:0007d5a0       __abstract_cw              1007e5a0 f   libucrtd:ieee87.obj
 0001:0007d6f0       __abstract_sw              1007e6f0 f   libucrtd:ieee87.obj
 0001:0007d900       __hw_cw                    1007e900 f   libucrtd:ieee87.obj
 0001:0007db76       ??$?RV<lambda_f828341fbe69b7c0d4c527b01f22877f>@@AAV<lambda_9e0b6ab72a5b3ae37ad997d08b519f50>@@V<lambda_f01deac0a8d65d6e0411edf7e0af5775>@@@?$__crt_seh_guarded_call@G@@QAEG$$QAV<lambda_f828341fbe69b7c0d4c527b01f22877f>@@AAV<lambda_9e0b6ab72a5b3ae37ad997d08b519f50>@@$$QAV<lambda_f01deac0a8d65d6e0411edf7e0af5775>@@@Z 1007eb76 f   libucrtd:putwch.obj
 0001:0007dbde       ??$__acrt_lock_and_call@V<lambda_9e0b6ab72a5b3ae37ad997d08b519f50>@@@@YAGW4__acrt_lock_id@@$$QAV<lambda_9e0b6ab72a5b3ae37ad997d08b519f50>@@@Z 1007ebde f   libucrtd:putwch.obj
 0001:0007dc04       ??0<lambda_9e0b6ab72a5b3ae37ad997d08b519f50>@@QAE@AB_W@Z 1007ec04 f   libucrtd:putwch.obj
 0001:0007dc14       ??0<lambda_f01deac0a8d65d6e0411edf7e0af5775>@@QAE@ABW4__acrt_lock_id@@@Z 1007ec14 f   libucrtd:putwch.obj
 0001:0007dc26       ??0<lambda_f828341fbe69b7c0d4c527b01f22877f>@@QAE@ABW4__acrt_lock_id@@@Z 1007ec26 f   libucrtd:putwch.obj
 0001:0007dc38       ??R<lambda_9e0b6ab72a5b3ae37ad997d08b519f50>@@QBEGXZ 1007ec38 f   libucrtd:putwch.obj
 0001:0007dc45       ??R<lambda_f01deac0a8d65d6e0411edf7e0af5775>@@QBEXXZ 1007ec45 f   libucrtd:putwch.obj
 0001:0007dc4e       ??R<lambda_f828341fbe69b7c0d4c527b01f22877f>@@QBEXXZ 1007ec4e f   libucrtd:putwch.obj
 0001:0007dcc0       ??$translate_text_mode_nolock@D@@YAHHQADI@Z 1007ecc0 f   libucrtd:read.obj
 0001:0007df90       ??$translate_text_mode_nolock@_W@@YAHHQA_WI@Z 1007ef90 f   libucrtd:read.obj
 0001:0007e280       ?store_lookahead@@YAXHD@Z  1007f280 f   libucrtd:read.obj
 0001:0007e2b0       ?store_lookahead@@YAXH_W@Z 1007f2b0 f   libucrtd:read.obj
 0001:0007e350       ?translate_ansi_or_utf8_nolock@@YAHHQADIQA_WI@Z 1007f350 f   libucrtd:read.obj
 0001:0007e5d0       ?translate_utf16_from_console_nolock@@YAHHQA_WI@Z 1007f5d0 f   libucrtd:read.obj
 0001:0007f340       ??$?RV<lambda_e683defbe2e5a27c42b5544acbb13393>@@AAV<lambda_4e7105787b7b0e0227fbf2b2d883fa65>@@V<lambda_80a887151cae997482d53eaa74bb832b>@@@?$__crt_seh_guarded_call@H@@QAEH$$QAV<lambda_e683defbe2e5a27c42b5544acbb13393>@@AAV<lambda_4e7105787b7b0e0227fbf2b2d883fa65>@@$$QAV<lambda_80a887151cae997482d53eaa74bb832b>@@@Z 10080340 f   libucrtd:close.obj
 0001:0007f3d0       ??$__acrt_lowio_lock_fh_and_call@V<lambda_4e7105787b7b0e0227fbf2b2d883fa65>@@@@YAHH$$QAV<lambda_4e7105787b7b0e0227fbf2b2d883fa65>@@@Z 100803d0 f   libucrtd:close.obj
 0001:0007f410       ??0<lambda_4e7105787b7b0e0227fbf2b2d883fa65>@@QAE@ABH@Z 10080410 f   libucrtd:close.obj
 0001:0007f430       ??0<lambda_80a887151cae997482d53eaa74bb832b>@@QAE@ABH@Z 10080430 f   libucrtd:close.obj
 0001:0007f450       ??0<lambda_e683defbe2e5a27c42b5544acbb13393>@@QAE@ABH@Z 10080450 f   libucrtd:close.obj
 0001:0007f470       ??R<lambda_4e7105787b7b0e0227fbf2b2d883fa65>@@QBEHXZ 10080470 f   libucrtd:close.obj
 0001:0007f4f0       ??R<lambda_80a887151cae997482d53eaa74bb832b>@@QBEXXZ 100804f0 f   libucrtd:close.obj
 0001:0007f510       ??R<lambda_e683defbe2e5a27c42b5544acbb13393>@@QBEXXZ 10080510 f   libucrtd:close.obj
 0001:0007f530       ?close_os_handle_nolock@@YAKH@Z 10080530 f   libucrtd:close.obj
 0001:0007fa10       ?find_or_allocate_unused_stream_nolock@@YA?AV__crt_stdio_stream@@XZ 10080a10 f   libucrtd:stream.obj
 0001:0007fd30       $$000000                   10080d30     libucrtd:_strnicm.obj
 0001:0007fda0       $$000000                   10080da0     libucrtd:87tran.obj
 0001:0007ffb0       $$000000                   10080fb0     libucrtd:87disp.obj
 0001:00080230       $$000000                   10081230     libucrtd:common.obj
 0001:000803c0       $$000000                   100813c0     libucrtd:genexcep.obj
 0001:000806c0       __get_fname                100816c0 f   libucrtd:fpexcept.obj
 0001:00080fe8       $LN63                      10081fe8     libucrtd:fpexcept.obj
 0001:00081795       ??$console_output_reopen_and_retry@V<lambda_61c1b8a38cedca4df5fdc542e6ccae6d>@@@@YAHABV<lambda_61c1b8a38cedca4df5fdc542e6ccae6d>@@@Z 10082795 f   libucrtd:initcon.obj
 0001:000817ed       ??0<lambda_61c1b8a38cedca4df5fdc542e6ccae6d>@@QAE@ABQBXABKABQAK@Z 100827ed f   libucrtd:initcon.obj
 0001:0008180f       ??R<lambda_61c1b8a38cedca4df5fdc542e6ccae6d>@@QBEHXZ 1008280f f   libucrtd:initcon.obj
 0001:00081826       ?__dcrt_lowio_initialize_console_output@@YAXXZ 10082826 f   libucrtd:initcon.obj
 0001:00081d30       $LN20                      10082d30     libucrtd:87except.obj
 0001:000827c0       ?fperrraise_with@@YAXHK@Z  100837c0 f   libucrtd:_test.obj
 0001:000834b0       $$000000                   100844b0     LIBCMTD:llshl.obj
 0001:000834d0       $$000000                   100844d0     LIBCMTD:ulldiv.obj
 0001:00083540       $$000000                   10084540     LIBCMTD:ullrem.obj
 0001:000835c0       $$000000                   100845c0     LIBCMTD:llmul.obj
 0001:00083600       $$000000                   10084600     LIBCMTD:lldiv.obj
 0001:000836b0       $$000000                   100846b0     LIBCMTD:llrem.obj
 0001:00083770       $$000000                   10084770     LIBCMTD:ullshr.obj
 0001:00083790       $$000000                   10084790     LIBCMTD:alloca16.obj
 0001:000837c0       $$000000                   100847c0     LIBCMTD:ftol2.obj
 0001:000838b0       $$000000                   100848b0     LIBCMTD:sehprolg4.obj
 0001:00083910       $$000000                   10084910     libvcruntimed:strrchr.obj
 0001:00083a50       $$000000                   10084a50     libvcruntimed:strchr.obj
 0001:00083e30       __ehhandler$??2@YAPAXIABUnothrow_t@std@@@Z 10084e30 f   LIBCMTD:new_scalar_nothrow.obj
 0001:00083e50       __ehhandler$?CallUnexpected@@YAXPBU_s_ESTypeList@@@Z 10084e50 f   libvcruntimed:frame.obj
 0001:00083e70       __unwindfunclet$?getDecoratedName@UnDecorator@@CA?AVDName@@XZ$0 10084e70 f   libvcruntimed:undname.obj
 0001:00083e78       __ehhandler$?getDecoratedName@UnDecorator@@CA?AVDName@@XZ 10084e78 f   libvcruntimed:undname.obj
 0001:00083ea0       __unwindfunclet$??R<lambda_d121dba8a4adeaf3a9819e48611155df>@@QBEHXZ$0 10084ea0 f   libucrtd:onexit.obj
 0001:00083ea8       __ehhandler$??R<lambda_d121dba8a4adeaf3a9819e48611155df>@@QBEHXZ 10084ea8 f   libucrtd:onexit.obj
 0001:00083ed0       __ehhandler$??1?$__crt_win32_buffer@DU__crt_win32_buffer_no_resizing@@@@QAE@XZ 10084ed0 f   libucrtd:getmodulefilenamea.obj
 0001:00083ef0       __unwindfunclet$?fp_format_a@@YAHQBNPADIQADIH_NIQAU__crt_locale_pointers@@@Z$0 10084ef0 f   libucrtd:cvt.obj
 0001:00083efb       __ehhandler$?fp_format_a@@YAHQBNPADIQADIH_NIQAU__crt_locale_pointers@@@Z 10084efb f   libucrtd:cvt.obj
 0001:00083f20       __ehhandler$??1?$__crt_win32_buffer@DU__crt_win32_buffer_internal_dynamic_resizing@@@@QAE@XZ 10084f20 f   libucrtd:argv_wildcards.obj
 0001:00083f40       __ehhandler$??1?$__crt_win32_buffer@_WU__crt_win32_buffer_internal_dynamic_resizing@@@@QAE@XZ 10084f40 f   libucrtd:argv_wildcards.obj
 0001:00083f60       __unwindfunclet$?_wcstombs_l_helper@@YAIPADPB_WIPAU__crt_locale_pointers@@@Z$0 10084f60 f   libucrtd:wcstombs.obj
 0001:00083f68       __ehhandler$?_wcstombs_l_helper@@YAIPADPB_WIPAU__crt_locale_pointers@@@Z 10084f68 f   libucrtd:wcstombs.obj
 0001:00083f90       __unwindfunclet$?shortsort@@YAXPAD0IP6AHPBX1@Z@Z$0 10084f90 f   libucrtd:qsort.obj
 0001:00083f98       __ehhandler$?shortsort@@YAXPAD0IP6AHPBX1@Z@Z 10084f98 f   libucrtd:qsort.obj
 0001:00083fc0       __unwindfunclet$?_wcrtomb_s_l@@YAHQAHQADI_WQAU_Mbstatet@@QAU__crt_locale_pointers@@@Z$0 10084fc0 f   libucrtd:wcrtomb.obj
 0001:00083fc8       __ehhandler$?_wcrtomb_s_l@@YAHQAHQADI_WQAU_Mbstatet@@QAU__crt_locale_pointers@@@Z 10084fc8 f   libucrtd:wcrtomb.obj
 0001:00083ff0       ??__F_AtlComModule@ATL@@YAXXZ 10084ff0 f   StdAfx.obj
 0001:00084010       ??__F_AtlWinModule@ATL@@YAXXZ 10085010 f   StdAfx.obj
 0001:00084030       ??__F_AtlComModule@ATL@@YAXXZ 10085030 f   OposInternals.obj
 0001:00084050       ??__F_AtlWinModule@ATL@@YAXXZ 10085050 f   OposInternals.obj
 0001:00084070       ??__F_Module@@YAXXZ        10085070 f   OposInternals.obj
 0001:00084086       ??__F_AtlBaseModule@ATL@@YAXXZ 10085086 f   atls:atlbase.obj
 0002:000001dc       ?_AtlBaseModule$initializer$@ATL@@3P6AXXZA 100861dc     atls:atlbase.obj
 0002:000001e0       ?atlTraceGeneral$initializer$@ATL@@3P6AXXZA 100861e0     StdAfx.obj
 0002:000001e4       ?atlTraceCOM$initializer$@ATL@@3P6AXXZA 100861e4     StdAfx.obj
 0002:000001e8       ?atlTraceQI$initializer$@ATL@@3P6AXXZA 100861e8     StdAfx.obj
 0002:000001ec       ?atlTraceRegistrar$initializer$@ATL@@3P6AXXZA 100861ec     StdAfx.obj
 0002:000001f0       ?atlTraceRefcount$initializer$@ATL@@3P6AXXZA 100861f0     StdAfx.obj
 0002:000001f4       ?atlTraceWindowing$initializer$@ATL@@3P6AXXZA 100861f4     StdAfx.obj
 0002:000001f8       ?atlTraceControls$initializer$@ATL@@3P6AXXZA 100861f8     StdAfx.obj
 0002:000001fc       ?atlTraceHosting$initializer$@ATL@@3P6AXXZA 100861fc     StdAfx.obj
 0002:00000200       ?atlTraceDBClient$initializer$@ATL@@3P6AXXZA 10086200     StdAfx.obj
 0002:00000204       ?atlTraceDBProvider$initializer$@ATL@@3P6AXXZA 10086204     StdAfx.obj
 0002:00000208       ?atlTraceSnapin$initializer$@ATL@@3P6AXXZA 10086208     StdAfx.obj
 0002:0000020c       ?atlTraceNotImpl$initializer$@ATL@@3P6AXXZA 1008620c     StdAfx.obj
 0002:00000210       ?atlTraceAllocation$initializer$@ATL@@3P6AXXZA 10086210     StdAfx.obj
 0002:00000214       ?atlTraceException$initializer$@ATL@@3P6AXXZA 10086214     StdAfx.obj
 0002:00000218       ?atlTraceTime$initializer$@ATL@@3P6AXXZA 10086218     StdAfx.obj
 0002:0000021c       ?atlTraceCache$initializer$@ATL@@3P6AXXZA 1008621c     StdAfx.obj
 0002:00000220       ?atlTraceStencil$initializer$@ATL@@3P6AXXZA 10086220     StdAfx.obj
 0002:00000224       ?atlTraceString$initializer$@ATL@@3P6AXXZA 10086224     StdAfx.obj
 0002:00000228       ?atlTraceMap$initializer$@ATL@@3P6AXXZA 10086228     StdAfx.obj
 0002:0000022c       ?atlTraceUtil$initializer$@ATL@@3P6AXXZA 1008622c     StdAfx.obj
 0002:00000230       ?atlTraceSecurity$initializer$@ATL@@3P6AXXZA 10086230     StdAfx.obj
 0002:00000234       ?atlTraceSync$initializer$@ATL@@3P6AXXZA 10086234     StdAfx.obj
 0002:00000238       ?atlTraceISAPI$initializer$@ATL@@3P6AXXZA 10086238     StdAfx.obj
 0002:0000023c       ?_AtlComModule$initializer$@ATL@@3P6AXXZA 1008623c     StdAfx.obj
 0002:00000240       ?_AtlWinModule$initializer$@ATL@@3P6AXXZA 10086240     StdAfx.obj
 0002:00000244       ?_Module$initializer$@@3P6AXXZA 10086244     OposInternals.obj
 0002:00000280       $SG189245                  10086280     StdAfx.obj
 0002:00000298       $SG189246                  10086298     StdAfx.obj
 0002:000002a0       $SG189247                  100862a0     StdAfx.obj
 0002:00000380       $SG189250                  10086380     StdAfx.obj
 0002:000003f0       $SG189251                  100863f0     StdAfx.obj
 0002:00000440       $SG189270                  10086440     StdAfx.obj
 0002:0000047c       $SG189271                  1008647c     StdAfx.obj
 0002:00000484       $SG189307                  10086484     StdAfx.obj
 0002:000004a8       $SG189272                  100864a8     StdAfx.obj
 0002:00000588       $SG189308                  10086588     StdAfx.obj
 0002:00000590       $SG189309                  10086590     StdAfx.obj
 0002:00000670       $SG189314                  10086670     StdAfx.obj
 0002:0000069c       $SG189315                  1008669c     StdAfx.obj
 0002:000006a4       $SG189333                  100866a4     StdAfx.obj
 0002:000006c8       $SG189316                  100866c8     StdAfx.obj
 0002:000007a8       $SG189334                  100867a8     StdAfx.obj
 0002:000007b0       $SG189335                  100867b0     StdAfx.obj
 0002:00000890       $SG189336                  10086890     StdAfx.obj
 0002:000008b4       $SG189337                  100868b4     StdAfx.obj
 0002:000008bc       $SG189356                  100868bc     StdAfx.obj
 0002:000008e0       $SG189338                  100868e0     StdAfx.obj
 0002:000009c0       $SG189357                  100869c0     StdAfx.obj
 0002:000009c8       $SG189358                  100869c8     StdAfx.obj
 0002:00000aa8       $SG189380                  10086aa8     StdAfx.obj
 0002:00000ae4       $SG189381                  10086ae4     StdAfx.obj
 0002:00000aec       $SG189596                  10086aec     StdAfx.obj
 0002:00000b08       $SG189382                  10086b08     StdAfx.obj
 0002:00000be8       $SG189415                  10086be8     StdAfx.obj
 0002:00000bf8       $SG189416                  10086bf8     StdAfx.obj
 0002:00000c00       $SG189417                  10086c00     StdAfx.obj
 0002:00000c50       $SG189442                  10086c50     StdAfx.obj
 0002:00000c60       $SG189443                  10086c60     StdAfx.obj
 0002:00000c68       $SG189444                  10086c68     StdAfx.obj
 0002:00000cb8       $SG189597                  10086cb8     StdAfx.obj
 0002:00000cc0       $SG189598                  10086cc0     StdAfx.obj
 0002:00000d10       $SG189627                  10086d10     StdAfx.obj
 0002:00000d28       $SG189628                  10086d28     StdAfx.obj
 0002:00000d30       $SG189629                  10086d30     StdAfx.obj
 0002:00000e14       $SG189663                  10086e14     StdAfx.obj
 0002:00000e2c       $SG189664                  10086e2c     StdAfx.obj
 0002:00000e34       $SG183000                  10086e34     StdAfx.obj
 0002:00000e38       $SG189665                  10086e38     StdAfx.obj
 0002:00000f1c       $SG189699                  10086f1c     StdAfx.obj
 0002:00000f34       $SG189700                  10086f34     StdAfx.obj
 0002:00000f3c       $SG183004                  10086f3c     StdAfx.obj
 0002:00000f58       $SG189701                  10086f58     StdAfx.obj
 0002:0000103c       $SG189735                  1008703c     StdAfx.obj
 0002:00001054       $SG189736                  10087054     StdAfx.obj
 0002:0000105c       $SG183009                  1008705c     StdAfx.obj
 0002:00001070       $SG189737                  10087070     StdAfx.obj
 0002:00001154       $SG189959                  10087154     StdAfx.obj
 0002:00001164       $SG189960                  10087164     StdAfx.obj
 0002:0000116c       $SG183094                  1008716c     StdAfx.obj
 0002:00001170       $SG189961                  10087170     StdAfx.obj
 0002:000011c0       $SG92811                   100871c0     StdAfx.obj
 0002:000011e0       $SG92884                   100871e0     StdAfx.obj
 0002:000011f8       $SG183005                  100871f8     StdAfx.obj
 0002:00001200       $SG183006                  10087200     StdAfx.obj
 0002:000012e4       $SG183010                  100872e4     StdAfx.obj
 0002:000012ec       $SG92982                   100872ec     StdAfx.obj
 0002:00001310       $SG183011                  10087310     StdAfx.obj
 0002:000013f4       $SG183025                  100873f4     StdAfx.obj
 0002:000013fc       $SG183098                  100873fc     StdAfx.obj
 0002:00001418       $SG183013                  10087418     StdAfx.obj
 0002:0000148c       $SG183016                  1008748c     StdAfx.obj
 0002:000014bc       $SG183099                  100874bc     StdAfx.obj
 0002:000014c4       $SG183105                  100874c4     StdAfx.obj
 0002:000014d8       $SG183014                  100874d8     StdAfx.obj
 0002:00001520       $SG183015                  10087520     StdAfx.obj
 0002:00001594       $SG183024                  10087594     StdAfx.obj
 0002:000015a4       $SG183106                  100875a4     StdAfx.obj
 0002:000015ac       $SG93031                   100875ac     StdAfx.obj
 0002:000015d0       $SG183026                  100875d0     StdAfx.obj
 0002:000016b4       $SG92933                   100876b4     StdAfx.obj
 0002:000016cc       $SG183121                  100876cc     StdAfx.obj
 0002:000016d4       $SG93080                   100876d4     StdAfx.obj
 0002:000016f8       $SG183100                  100876f8     StdAfx.obj
 0002:000017dc       $SG93129                   100877dc     StdAfx.obj
 0002:00001800       $SG183107                  10087800     StdAfx.obj
 0002:000018e4       $SG93178                   100878e4     StdAfx.obj
 0002:00001904       $SG93227                   10087904     StdAfx.obj
 0002:00001928       $SG183109                  10087928     StdAfx.obj
 0002:0000199c       $SG183112                  1008799c     StdAfx.obj
 0002:000019cc       $SG93374                   100879cc     StdAfx.obj
 0002:000019ec       $SG93472                   100879ec     StdAfx.obj
 0002:00001a10       $SG183110                  10087a10     StdAfx.obj
 0002:00001a58       $SG183111                  10087a58     StdAfx.obj
 0002:00001acc       $SG183120                  10087acc     StdAfx.obj
 0002:00001adc       $SG93521                   10087adc     StdAfx.obj
 0002:00001af8       $SG183122                  10087af8     StdAfx.obj
 0002:00001bdc       $SG93276                   10087bdc     StdAfx.obj
 0002:00001c04       $SG93325                   10087c04     StdAfx.obj
 0002:00001c24       $SG93423                   10087c24     StdAfx.obj
 0002:00001c4c       $SG93570                   10087c4c     StdAfx.obj
 0002:00001c68       $SG93619                   10087c68     StdAfx.obj
 0002:00001c88       $SG93668                   10087c88     StdAfx.obj
 0002:00001ca8       $SG93717                   10087ca8     StdAfx.obj
 0002:00001cc0       $SG93722                   10087cc0     StdAfx.obj
 0002:00001cdc       $SG93771                   10087cdc     StdAfx.obj
 0002:00001d00       $SG93820                   10087d00     StdAfx.obj
 0002:00001d1c       $SG93869                   10087d1c     StdAfx.obj
 0002:00001d38       $SG110936                  10087d38     StdAfx.obj
 0002:00001d3c       $SG110938                  10087d3c     StdAfx.obj
 0002:00001d40       $SG110940                  10087d40     StdAfx.obj
 0002:00001d44       $SG110942                  10087d44     StdAfx.obj
 0002:00001d48       $SG110944                  10087d48     StdAfx.obj
 0002:00001d50       $SG110946                  10087d50     StdAfx.obj
 0002:00001d68       $SG110948                  10087d68     StdAfx.obj
 0002:00001d7c       $SG110950                  10087d7c     StdAfx.obj
 0002:00001d8c       $SG111646                  10087d8c     StdAfx.obj
 0002:00001d98       $SG111647                  10087d98     StdAfx.obj
 0002:00001da4       $SG111648                  10087da4     StdAfx.obj
 0002:00001dd0       $SG111649                  10087dd0     StdAfx.obj
 0002:00001de4       $SG111650                  10087de4     StdAfx.obj
 0002:00001df8       $SG111651                  10087df8     StdAfx.obj
 0002:00001e0c       $SG111652                  10087e0c     StdAfx.obj
 0002:00001e18       $SG111653                  10087e18     StdAfx.obj
 0002:00001e20       $SG111654                  10087e20     StdAfx.obj
 0002:00001e34       $SG111655                  10087e34     StdAfx.obj
 0002:00001e44       $SG111656                  10087e44     StdAfx.obj
 0002:00001e58       $SG111657                  10087e58     StdAfx.obj
 0002:00001e68       $SG112777                  10087e68     StdAfx.obj
 0002:00001e8c       $SG112778                  10087e8c     StdAfx.obj
 0002:00001e94       $SG178700                  10087e94     StdAfx.obj
 0002:00001e98       $SG112779                  10087e98     StdAfx.obj
 0002:00001f7c       $SG178683                  10087f7c     StdAfx.obj
 0002:00001f8c       $SG178684                  10087f8c     StdAfx.obj
 0002:00001f98       $SG178685                  10087f98     StdAfx.obj
 0002:00002750       $SG190271                  10088750     OposInternals.obj
 0002:00002768       $SG190272                  10088768     OposInternals.obj
 0002:00002770       $SG190273                  10088770     OposInternals.obj
 0002:00002850       $SG190276                  10088850     OposInternals.obj
 0002:000028c0       $SG190277                  100888c0     OposInternals.obj
 0002:00002910       $SG190296                  10088910     OposInternals.obj
 0002:0000294c       $SG190297                  1008894c     OposInternals.obj
 0002:00002954       $SG190333                  10088954     OposInternals.obj
 0002:00002978       $SG190298                  10088978     OposInternals.obj
 0002:00002a58       $SG190334                  10088a58     OposInternals.obj
 0002:00002a60       $SG190335                  10088a60     OposInternals.obj
 0002:00002b40       $SG190340                  10088b40     OposInternals.obj
 0002:00002b6c       $SG190341                  10088b6c     OposInternals.obj
 0002:00002b74       $SG190359                  10088b74     OposInternals.obj
 0002:00002b98       $SG190342                  10088b98     OposInternals.obj
 0002:00002c78       $SG190360                  10088c78     OposInternals.obj
 0002:00002c80       $SG190361                  10088c80     OposInternals.obj
 0002:00002d60       $SG190362                  10088d60     OposInternals.obj
 0002:00002d84       $SG190363                  10088d84     OposInternals.obj
 0002:00002d8c       $SG190382                  10088d8c     OposInternals.obj
 0002:00002db0       $SG190364                  10088db0     OposInternals.obj
 0002:00002e90       $SG190383                  10088e90     OposInternals.obj
 0002:00002e98       $SG190384                  10088e98     OposInternals.obj
 0002:00002f78       $SG190406                  10088f78     OposInternals.obj
 0002:00002fb4       $SG190407                  10088fb4     OposInternals.obj
 0002:00002fbc       $SG190622                  10088fbc     OposInternals.obj
 0002:00002fd8       $SG190408                  10088fd8     OposInternals.obj
 0002:000030b8       $SG190441                  100890b8     OposInternals.obj
 0002:000030c8       $SG190442                  100890c8     OposInternals.obj
 0002:000030d0       $SG190443                  100890d0     OposInternals.obj
 0002:00003120       $SG190468                  10089120     OposInternals.obj
 0002:00003130       $SG190469                  10089130     OposInternals.obj
 0002:00003138       $SG190470                  10089138     OposInternals.obj
 0002:00003188       $SG190623                  10089188     OposInternals.obj
 0002:00003190       $SG190624                  10089190     OposInternals.obj
 0002:000031e0       $SG190653                  100891e0     OposInternals.obj
 0002:000031f8       $SG190654                  100891f8     OposInternals.obj
 0002:00003200       $SG190655                  10089200     OposInternals.obj
 0002:000032e4       $SG190689                  100892e4     OposInternals.obj
 0002:000032fc       $SG190690                  100892fc     OposInternals.obj
 0002:00003304       $SG183000                  10089304     OposInternals.obj
 0002:00003308       $SG190691                  10089308     OposInternals.obj
 0002:000033ec       $SG190725                  100893ec     OposInternals.obj
 0002:00003404       $SG190726                  10089404     OposInternals.obj
 0002:0000340c       $SG183004                  1008940c     OposInternals.obj
 0002:00003428       $SG190727                  10089428     OposInternals.obj
 0002:0000350c       $SG190761                  1008950c     OposInternals.obj
 0002:00003524       $SG190762                  10089524     OposInternals.obj
 0002:0000352c       $SG183009                  1008952c     OposInternals.obj
 0002:00003540       $SG190763                  10089540     OposInternals.obj
 0002:00003624       $SG190985                  10089624     OposInternals.obj
 0002:00003634       $SG190986                  10089634     OposInternals.obj
 0002:0000363c       $SG183094                  1008963c     OposInternals.obj
 0002:00003640       $SG190987                  10089640     OposInternals.obj
 0002:00003690       $SG92811                   10089690     OposInternals.obj
 0002:000036b0       $SG92884                   100896b0     OposInternals.obj
 0002:000036c8       $SG183005                  100896c8     OposInternals.obj
 0002:000036d0       $SG183006                  100896d0     OposInternals.obj
 0002:000037b4       $SG183010                  100897b4     OposInternals.obj
 0002:000037bc       $SG92982                   100897bc     OposInternals.obj
 0002:000037e0       $SG183011                  100897e0     OposInternals.obj
 0002:000038c4       $SG183025                  100898c4     OposInternals.obj
 0002:000038cc       $SG183098                  100898cc     OposInternals.obj
 0002:000038e8       $SG183013                  100898e8     OposInternals.obj
 0002:0000395c       $SG183016                  1008995c     OposInternals.obj
 0002:0000398c       $SG183099                  1008998c     OposInternals.obj
 0002:00003994       $SG183105                  10089994     OposInternals.obj
 0002:000039a8       $SG183014                  100899a8     OposInternals.obj
 0002:000039f0       $SG183015                  100899f0     OposInternals.obj
 0002:00003a64       $SG183024                  10089a64     OposInternals.obj
 0002:00003a74       $SG183106                  10089a74     OposInternals.obj
 0002:00003a7c       $SG93031                   10089a7c     OposInternals.obj
 0002:00003aa0       $SG183026                  10089aa0     OposInternals.obj
 0002:00003b84       $SG92933                   10089b84     OposInternals.obj
 0002:00003b9c       $SG183121                  10089b9c     OposInternals.obj
 0002:00003ba4       $SG93080                   10089ba4     OposInternals.obj
 0002:00003bc8       $SG183100                  10089bc8     OposInternals.obj
 0002:00003cac       $SG93129                   10089cac     OposInternals.obj
 0002:00003cd0       $SG183107                  10089cd0     OposInternals.obj
 0002:00003db4       $SG93178                   10089db4     OposInternals.obj
 0002:00003dd4       $SG93227                   10089dd4     OposInternals.obj
 0002:00003df8       $SG183109                  10089df8     OposInternals.obj
 0002:00003e6c       $SG183112                  10089e6c     OposInternals.obj
 0002:00003e9c       $SG93374                   10089e9c     OposInternals.obj
 0002:00003ebc       $SG93472                   10089ebc     OposInternals.obj
 0002:00003ee0       $SG183110                  10089ee0     OposInternals.obj
 0002:00003f28       $SG183111                  10089f28     OposInternals.obj
 0002:00003f9c       $SG183120                  10089f9c     OposInternals.obj
 0002:00003fac       $SG93521                   10089fac     OposInternals.obj
 0002:00003fc8       $SG183122                  10089fc8     OposInternals.obj
 0002:000040ac       $SG93276                   1008a0ac     OposInternals.obj
 0002:000040d4       $SG93325                   1008a0d4     OposInternals.obj
 0002:000040f4       $SG93423                   1008a0f4     OposInternals.obj
 0002:0000411c       $SG93570                   1008a11c     OposInternals.obj
 0002:00004138       $SG93619                   1008a138     OposInternals.obj
 0002:00004158       $SG93668                   1008a158     OposInternals.obj
 0002:00004178       $SG93717                   1008a178     OposInternals.obj
 0002:00004190       $SG93722                   1008a190     OposInternals.obj
 0002:000041ac       $SG93771                   1008a1ac     OposInternals.obj
 0002:000041d0       $SG93820                   1008a1d0     OposInternals.obj
 0002:000041ec       $SG93869                   1008a1ec     OposInternals.obj
 0002:00004208       $SG110936                  1008a208     OposInternals.obj
 0002:0000420c       $SG110938                  1008a20c     OposInternals.obj
 0002:00004210       $SG110940                  1008a210     OposInternals.obj
 0002:00004214       $SG110942                  1008a214     OposInternals.obj
 0002:00004218       $SG110944                  1008a218     OposInternals.obj
 0002:00004220       $SG110946                  1008a220     OposInternals.obj
 0002:00004238       $SG110948                  1008a238     OposInternals.obj
 0002:0000424c       $SG110950                  1008a24c     OposInternals.obj
 0002:0000425c       $SG111646                  1008a25c     OposInternals.obj
 0002:00004268       $SG111647                  1008a268     OposInternals.obj
 0002:00004274       $SG111648                  1008a274     OposInternals.obj
 0002:000042a0       $SG111649                  1008a2a0     OposInternals.obj
 0002:000042b4       $SG111650                  1008a2b4     OposInternals.obj
 0002:000042c8       $SG111651                  1008a2c8     OposInternals.obj
 0002:000042dc       $SG111652                  1008a2dc     OposInternals.obj
 0002:000042e8       $SG111653                  1008a2e8     OposInternals.obj
 0002:000042f0       $SG111654                  1008a2f0     OposInternals.obj
 0002:00004304       $SG111655                  1008a304     OposInternals.obj
 0002:00004314       $SG111656                  1008a314     OposInternals.obj
 0002:00004328       $SG111657                  1008a328     OposInternals.obj
 0002:00004338       $SG112777                  1008a338     OposInternals.obj
 0002:0000435c       $SG112778                  1008a35c     OposInternals.obj
 0002:00004364       $SG178700                  1008a364     OposInternals.obj
 0002:00004368       $SG112779                  1008a368     OposInternals.obj
 0002:0000444c       $SG178683                  1008a44c     OposInternals.obj
 0002:0000445c       $SG178684                  1008a45c     OposInternals.obj
 0002:00004468       $SG178685                  1008a468     OposInternals.obj
 0002:00007dd0       _GS_ExceptionPointers      1008ddd0     LIBCMTD:gs_report.obj
 0002:00007de0       ?_RTC_ErrorMessages@@3QBQBDB 1008dde0     LIBCMTD:error.obj
 0002:00007df8       ?_RTC_NoFalsePositives@@3QBHB 1008ddf8     LIBCMTD:error.obj
 0002:00007e10       ?stack_premsg@@3QBDB       1008de10     LIBCMTD:error.obj
 0002:00007e2c       ?stack_postmsg@@3QBDB      1008de2c     LIBCMTD:error.obj
 0002:00007e40       ?uninit_premsg@@3QBDB      1008de40     LIBCMTD:error.obj
 0002:00007e50       ?uninit_postmsg@@3QBDB     1008de50     LIBCMTD:error.obj
 0002:00008390       ?_RTC_errlist@@3QBQBDB     1008e390     LIBCMTD:userapi.obj
 0002:00008450       ?mspdbName@@3QB_WB         1008e450     LIBCMTD:pdblkup.obj
 0002:00008474       ?debugCrtFileName@@3QB_WB  1008e474     LIBCMTD:pdblkup.obj
 0002:000085bc       ?dllExt@?1??GetPdbDllPathFromFilePath@@YAHPB_WPA_WI@Z@4QB_WB 1008e5bc     LIBCMTD:pdblkup.obj
 0002:000085c4       ?mspdbFilename@?1??GetPdbDllPathFromFilePath@@YAHPB_WPA_WI@Z@4QB_WB 1008e5c4     LIBCMTD:pdblkup.obj
 0002:000087a4       ?ExceptionTemplate@?1??_CxxThrowException@@9@8@4UEHExceptionRecord@@B 1008e7a4     libvcruntimed:throw.obj
 0002:00008838       ?tokenTable@@3QBQBDB       1008e838     libvcruntimed:undname.obj
 0002:00008878       ?nameTable@@3QBQBDB        1008e878     libvcruntimed:undname.obj
 0002:000089c4       ?rttiTable@@3QBQBDB        1008e9c4     libvcruntimed:undname.obj
 0002:00009474       ?module_names@?A0x09dcfcb8@@3QBQB_WB 1008f474     libvcruntimed:winapi_downlevel.obj
 0002:000096c4       ?candidate_modules@?1??try_get_FlsAlloc@@YAP6GKP6GXPAX@Z@ZXZ@4QBW4module_id@?A0x09dcfcb8@@B 1008f6c4     libvcruntimed:winapi_downlevel.obj
 0002:000096d8       ?candidate_modules@?1??try_get_FlsFree@@YAP6GHK@ZXZ@4QBW4module_id@?A0x09dcfcb8@@B 1008f6d8     libvcruntimed:winapi_downlevel.obj
 0002:000096e8       ?candidate_modules@?1??try_get_FlsGetValue@@YAP6GPAXK@ZXZ@4QBW4module_id@?A0x09dcfcb8@@B 1008f6e8     libvcruntimed:winapi_downlevel.obj
 0002:000096fc       ?candidate_modules@?1??try_get_FlsSetValue@@YAP6GHKPAX@ZXZ@4QBW4module_id@?A0x09dcfcb8@@B 1008f6fc     libvcruntimed:winapi_downlevel.obj
 0002:00009710       ?candidate_modules@?1??try_get_InitializeCriticalSectionEx@@YAP6GHPAU_RTL_CRITICAL_SECTION@@KK@ZXZ@4QBW4module_id@?A0x09dcfcb8@@B 1008f710     libvcruntimed:winapi_downlevel.obj
 0002:00009738       ?report_type_messages@@3QBQB_WB 1008f738     libucrtd:dbgrpt.obj
 0002:00009784       ?more_info_string@@3QB_WB  1008f784     libucrtd:dbgrpt.obj
 0002:00009c08       ?empty_string@?1???$common_message_window@D@@YAHHQAXQBD111@Z@4QBDB 1008fc08     libucrtd:dbgrpt.obj
 0002:00009eec       ?empty_string@?1???$common_message_window@_W@@YAHHQAXQB_W111@Z@4QB_WB 1008feec     libucrtd:dbgrpt.obj
 0002:00014938       ?errtable@@3QBUerrentry@?A0x31fdb9ec@@B 1009a938     libucrtd:errno.obj
 0002:00015048       ___acrt_initializers       1009b048     libucrtd:initialization.obj
 0002:000150c8       ?block_use_names@@3QBQBDB  1009b0c8     libucrtd:debug_heap.obj
 0002:00017cf0       ?strings@?1??fp_format_nan_or_infinity@@YAHW4__acrt_fp_class@@_NPADI1@Z@4QAY03QBDA 1009dcf0     libucrtd:cvt.obj
 0002:000185a0       __first_127char            1009e5a0     libucrtd:wsetlocale.obj
 0002:0001a7e8       ?_mb_locale_names@@3QBQB_WB 100a07e8     libucrtd:mbctype.obj
 0002:0001ac58       ?module_names@?A0x391cf84c@@3QBQB_WB 100a0c58     libucrtd:winapi_thunks.obj
 0002:0001b144       ?candidate_modules@?1??try_get_AreFileApisANSI@@YAP6GHXZXZ@4QBW4module_id@?A0x391cf84c@@B 100a1144     libucrtd:winapi_thunks.obj
 0002:0001b158       ?candidate_modules@?1??try_get_CompareStringEx@@YAP6GHPB_WK0H0HPAU_nlsversioninfo@@PAXJ@ZXZ@4QBW4module_id@?A0x391cf84c@@B 100a1158     libucrtd:winapi_thunks.obj
 0002:0001b170       ?candidate_modules@?1??try_get_EnumSystemLocalesEx@@YAP6GHP6GHPA_WKJ@ZKJPAX@ZXZ@4QBW4module_id@?A0x391cf84c@@B 100a1170     libucrtd:winapi_thunks.obj
 0002:0001b18c       ?candidate_modules@?1??try_get_FlsAlloc@@YAP6GKP6GXPAX@Z@ZXZ@4QBW4module_id@?A0x391cf84c@@B 100a118c     libucrtd:winapi_thunks.obj
 0002:0001b194       ?candidate_modules@?1??try_get_FlsFree@@YAP6GHK@ZXZ@4QBW4module_id@?A0x391cf84c@@B 100a1194     libucrtd:winapi_thunks.obj
 0002:0001b19c       ?candidate_modules@?1??try_get_FlsGetValue@@YAP6GPAXK@ZXZ@4QBW4module_id@?A0x391cf84c@@B 100a119c     libucrtd:winapi_thunks.obj
 0002:0001b1a4       ?candidate_modules@?1??try_get_FlsSetValue@@YAP6GHKPAX@ZXZ@4QBW4module_id@?A0x391cf84c@@B 100a11a4     libucrtd:winapi_thunks.obj
 0002:0001b1ac       ?candidate_modules@?1??try_get_GetActiveWindow@@YAP6GPAUHWND__@@XZXZ@4QBW4module_id@?A0x391cf84c@@B 100a11ac     libucrtd:winapi_thunks.obj
 0002:0001b1c4       ?candidate_modules@?1??try_get_GetDateFormatEx@@YAP6GHPB_WKPBU_SYSTEMTIME@@0PA_WH0@ZXZ@4QBW4module_id@?A0x391cf84c@@B 100a11c4     libucrtd:winapi_thunks.obj
 0002:0001b1dc       ?candidate_modules@?1??try_get_GetEnabledXStateFeatures@@YAP6G_KXZXZ@4QBW4module_id@?A0x391cf84c@@B 100a11dc     libucrtd:winapi_thunks.obj
 0002:0001b200       ?candidate_modules@?1??try_get_GetLastActivePopup@@YAP6GPAUHWND__@@PAU2@@ZXZ@4QBW4module_id@?A0x391cf84c@@B 100a1200     libucrtd:winapi_thunks.obj
 0002:0001b21c       ?candidate_modules@?1??try_get_GetLocaleInfoEx@@YAP6GHPB_WKPA_WH@ZXZ@4QBW4module_id@?A0x391cf84c@@B 100a121c     libucrtd:winapi_thunks.obj
 0002:0001b234       ?candidate_modules@?1??try_get_GetProcessWindowStation@@YAP6GPAUHWINSTA__@@XZXZ@4QBW4module_id@?A0x391cf84c@@B 100a1234     libucrtd:winapi_thunks.obj
 0002:0001b254       ?candidate_modules@?1??try_get_GetSystemTimePreciseAsFileTime@@YAP6GXPAU_FILETIME@@@ZXZ@4QBW4module_id@?A0x391cf84c@@B 100a1254     libucrtd:winapi_thunks.obj
 0002:0001b278       ?candidate_modules@?1??try_get_GetTimeFormatEx@@YAP6GHPB_WKPBU_SYSTEMTIME@@0PA_WH@ZXZ@4QBW4module_id@?A0x391cf84c@@B 100a1278     libucrtd:winapi_thunks.obj
 0002:0001b290       ?candidate_modules@?1??try_get_GetUserDefaultLocaleName@@YAP6GHPA_WH@ZXZ@4QBW4module_id@?A0x391cf84c@@B 100a1290     libucrtd:winapi_thunks.obj
 0002:0001b2b4       ?candidate_modules@?1??try_get_GetUserObjectInformationW@@YAP6GHPAXH0KPAK@ZXZ@4QBW4module_id@?A0x391cf84c@@B 100a12b4     libucrtd:winapi_thunks.obj
 0002:0001b2d8       ?candidate_modules@?1??try_get_GetXStateFeaturesMask@@YAP6GHPAU_CONTEXT@@PA_K@ZXZ@4QBW4module_id@?A0x391cf84c@@B 100a12d8     libucrtd:winapi_thunks.obj
 0002:0001b2f8       ?candidate_modules@?1??try_get_InitializeCriticalSectionEx@@YAP6GHPAU_RTL_CRITICAL_SECTION@@KK@ZXZ@4QBW4module_id@?A0x391cf84c@@B 100a12f8     libucrtd:winapi_thunks.obj
 0002:0001b300       ?candidate_modules@?1??try_get_IsValidLocaleName@@YAP6GHPB_W@ZXZ@4QBW4module_id@?A0x391cf84c@@B 100a1300     libucrtd:winapi_thunks.obj
 0002:0001b31c       ?candidate_modules@?1??try_get_LCMapStringEx@@YAP6GHPB_WK0HPA_WHPAU_nlsversioninfo@@PAXJ@ZXZ@4QBW4module_id@?A0x391cf84c@@B 100a131c     libucrtd:winapi_thunks.obj
 0002:0001b334       ?candidate_modules@?1??try_get_LCIDToLocaleName@@YAP6GHKPA_WHK@ZXZ@4QBW4module_id@?A0x391cf84c@@B 100a1334     libucrtd:winapi_thunks.obj
 0002:0001b350       ?candidate_modules@?1??try_get_LocaleNameToLCID@@YAP6GKPB_WK@ZXZ@4QBW4module_id@?A0x391cf84c@@B 100a1350     libucrtd:winapi_thunks.obj
 0002:0001b36c       ?candidate_modules@?1??try_get_LocateXStateFeature@@YAP6GPAXPAU_CONTEXT@@KPAK@ZXZ@4QBW4module_id@?A0x391cf84c@@B 100a136c     libucrtd:winapi_thunks.obj
 0002:0001b388       ?candidate_modules@?1??try_get_MessageBoxA@@YAP6GHPAUHWND__@@PBD1I@ZXZ@4QBW4module_id@?A0x391cf84c@@B 100a1388     libucrtd:winapi_thunks.obj
 0002:0001b39c       ?candidate_modules@?1??try_get_MessageBoxW@@YAP6GHPAUHWND__@@PB_W1I@ZXZ@4QBW4module_id@?A0x391cf84c@@B 100a139c     libucrtd:winapi_thunks.obj
 0002:0001b3b0       ?candidate_modules@?1??try_get_RoInitialize@@YAP6GJW4RO_INIT_TYPE@@@ZXZ@4QBW4module_id@?A0x391cf84c@@B 100a13b0     libucrtd:winapi_thunks.obj
 0002:0001b3c4       ?candidate_modules@?1??try_get_RoUninitialize@@YAP6GXXZXZ@4QBW4module_id@?A0x391cf84c@@B 100a13c4     libucrtd:winapi_thunks.obj
 0002:0001b3d8       ?candidate_modules@?1??try_get_AppPolicyGetProcessTerminationMethod@@YAP6GJPAXPAW4AppPolicyProcessTerminationMethod@@@ZXZ@4QBW4module_id@?A0x391cf84c@@B 100a13d8     libucrtd:winapi_thunks.obj
 0002:0001b404       ?candidate_modules@?1??try_get_AppPolicyGetThreadInitializationType@@YAP6GJPAXPAW4AppPolicyThreadInitializationType@@@ZXZ@4QBW4module_id@?A0x391cf84c@@B 100a1404     libucrtd:winapi_thunks.obj
 0002:0001b430       ?candidate_modules@?1??try_get_AppPolicyGetShowDeveloperDiagnostic@@YAP6GJPAXPAW4AppPolicyShowDeveloperDiagnostic@@@ZXZ@4QBW4module_id@?A0x391cf84c@@B 100a1430     libucrtd:winapi_thunks.obj
 0002:0001b458       ?candidate_modules@?1??try_get_AppPolicyGetWindowingModel@@YAP6GJPAXPAW4AppPolicyWindowingModel@@@ZXZ@4QBW4module_id@?A0x391cf84c@@B 100a1458     libucrtd:winapi_thunks.obj
 0002:0001b478       ?candidate_modules@?1??try_get_SetThreadStackGuarantee@@YAP6GHPAK@ZXZ@4QBW4module_id@?A0x391cf84c@@B 100a1478     libucrtd:winapi_thunks.obj
 0002:0001b498       ?candidate_modules@?1??try_get_SystemFunction036@@YAP6GEPAXK@ZXZ@4QBW4module_id@?A0x391cf84c@@B 100a1498     libucrtd:winapi_thunks.obj
 0002:0001d148       ?large_power_indices@?1??multiply_by_power_of_ten@__crt_strtox@@YA_NAAUbig_integer@2@I@Z@4QBUunpack_index@?1??12@YA_N0I@Z@B 100a3148     libucrtd:cfout.obj
 0002:0001fbd0       ?LcidToLocaleNameTable@?A0x881e4c05@@3QBULcidToLocaleName@1@B 100a5bd0     libucrtd:lcidtoname_downlevel.obj
 0002:00020cf0       ?LocaleNameToIndexTable@?A0x881e4c05@@3QBULocaleNameIndex@1@B 100a6cf0     libucrtd:lcidtoname_downlevel.obj
 0002:00022440       _One                       100a8440     libucrtd:ceil_pentium4.obj
 0002:00022450       _Bns                       100a8450     libucrtd:ceil_pentium4.obj
 0002:00022460       _Zero                      100a8460     libucrtd:ceil_pentium4.obj
 0002:00022470       _S                         100a8470     libucrtd:ceil_pentium4.obj
 0002:00022480       _NegZero                   100a8480     libucrtd:ceil_pentium4.obj
 0002:00022ce0       LOG_name                   100a8ce0     libucrtd:log10_impl.obj
 0002:00022cf0       emask                      100a8cf0     libucrtd:log10_pentium4.obj
 0002:00022d00       CC                         100a8d00     libucrtd:log10_pentium4.obj
 0002:00022d10       Magic                      100a8d10     libucrtd:log10_pentium4.obj
 0002:00022d20       hi_mask                    100a8d20     libucrtd:log10_pentium4.obj
 0002:00022d30       LOG10_2                    100a8d30     libucrtd:log10_pentium4.obj
 0002:00022d40       place_L                    100a8d40     libucrtd:log10_pentium4.obj
 0002:00022d60       One                        100a8d60     libucrtd:log10_pentium4.obj
 0002:00022d70       Zero                       100a8d70     libucrtd:log10_pentium4.obj
 0002:00022d80       Two52                      100a8d80     libucrtd:log10_pentium4.obj
 0002:00022d90       Infs                       100a8d90     libucrtd:log10_pentium4.obj
 0002:00022da0       NaN                        100a8da0     libucrtd:log10_pentium4.obj
 0002:00022db0       coeff                      100a8db0     libucrtd:log10_pentium4.obj
 0002:00022df0       _INF                       100a8df0     libucrtd:libm_error.obj
 0002:00022e00       _BIG                       100a8e00     libucrtd:libm_error.obj
 0002:00022e10       _ZERO                      100a8e10     libucrtd:libm_error.obj
 0002:00022e20       _INF_32                    100a8e20     libucrtd:libm_error.obj
 0002:00022e28       _NAN_32                    100a8e28     libucrtd:libm_error.obj
 0002:00022e30       _ZERO_32                   100a8e30     libucrtd:libm_error.obj
 0002:00022e38       _libm_largef               100a8e38     libucrtd:libm_error.obj
 0002:00022e40       _libm_smallf               100a8e40     libucrtd:libm_error.obj
 0002:00022e48       _libm_small                100a8e48     libucrtd:libm_error.obj
 0002:00022e90       _newcw                     100a8e90     libucrtd:ceil.obj
 0002:00022e94       ?commonFlags@?1??_control87@@9@9 100a8e94     libucrtd:ieee87.obj
 0002:000231ee       _log2max                   100a91ee     libucrtd:87tran.obj
 0002:000231f8       _smallarg                  100a91f8     libucrtd:87tran.obj
 0002:00023202       _half                      100a9202     libucrtd:87tran.obj
 0002:0002324e       One                        100a924e     libucrtd:87disp.obj
 0002:00023256       Three                      100a9256     libucrtd:87disp.obj
 0002:0002325e       XAMtoTagTab                100a925e     libucrtd:87disp.obj
 0002:00023270       One                        100a9270     libucrtd:common.obj
 0002:00023284       DblMax                     100a9284     libucrtd:common.obj
 0002:0002328c       DblMin                     100a928c     libucrtd:common.obj
 0002:00023294       IeeeAdjO                   100a9294     libucrtd:common.obj
 0002:0002329c       IeeeAdjU                   100a929c     libucrtd:common.obj
 0002:000232a4       _infinity                  100a92a4     libucrtd:common.obj
 0002:000232ac       _zero                      100a92ac     libucrtd:common.obj
 0002:00023ae0       ?_names@?1??_get_fname@@9@9 100a9ae0     libucrtd:fpexcept.obj
 0002:00023c98       _over                      100a9c98     libucrtd:fpctrl.obj
 0002:00023ca4       _under                     100a9ca4     libucrtd:fpctrl.obj
 0002:00023d84       ?mask@?P@??_d_int@@9@4QBGB 100a9d84     libucrtd:_test.obj
 0002:00023da4       ?sub@?P@??_d_int@@9@4QBIB  100a9da4     libucrtd:_test.obj
 0002:00023db4       ?mask@?P@??_fd_int@@9@4QBGB 100a9db4     libucrtd:_test.obj
 0002:00023dd4       ?sub@?P@??_fd_int@@9@4QBIB 100a9dd4     libucrtd:_test.obj
 0002:000245fc       __RTC_InitBase.rtc$IMZ     100aa5fc     StdAfx.obj
 0002:00024600       __RTC_InitBase.rtc$IMZ     100aa600     OposInternals.obj
 0002:0002460c       __RTC_Shutdown.rtc$TMZ     100aa60c     StdAfx.obj
 0002:00024610       __RTC_Shutdown.rtc$TMZ     100aa610     OposInternals.obj
 0002:00024618       __sehtable$___scrt_is_nonwritable_in_current_image 100aa618     LIBCMTD:utility.obj
 0002:00024638       __sehtable$?dllmain_crt_process_attach@@YAHQAUHINSTANCE__@@QAX@Z 100aa638     LIBCMTD:dll_dllmain.obj
 0002:00024658       __sehtable$?dllmain_crt_process_detach@@YAH_N@Z 100aa658     LIBCMTD:dll_dllmain.obj
 0002:00024678       __sehtable$?dllmain_dispatch@@YAHQAUHINSTANCE__@@KQAX@Z 100aa678     LIBCMTD:dll_dllmain.obj
 0002:00024698       __sehtable$?notify_debugger@@YAXABUtagEXCEPTION_VISUALCPP_DEBUG_INFO@@@Z 100aa698     LIBCMTD:error.obj
 0002:000246b4       __catchsym$??2@YAPAXIABUnothrow_t@std@@@Z$2 100aa6b4     LIBCMTD:new_scalar_nothrow.obj
 0002:000246c4       __unwindtable$??2@YAPAXIABUnothrow_t@std@@@Z 100aa6c4     LIBCMTD:new_scalar_nothrow.obj
 0002:000246d4       __tryblocktable$??2@YAPAXIABUnothrow_t@std@@@Z 100aa6d4     LIBCMTD:new_scalar_nothrow.obj
 0002:000246e8       __ehfuncinfo$??2@YAPAXIABUnothrow_t@std@@@Z 100aa6e8     LIBCMTD:new_scalar_nothrow.obj
 0002:000247a0       __sehtable$?FrameUnwindToState@__FrameHandler3@@SAXPAUEHRegistrationNode@@PAXPBU_s_FuncInfo@@H@Z 100aa7a0     libvcruntimed:frame.obj
 0002:000247c8       __sehtable$?CallCatchBlock@@YAPAXPAUEHExceptionRecord@@PAUEHRegistrationNode@@PAU_CONTEXT@@PBU_s_FuncInfo@@PAXHK@Z 100aa7c8     libvcruntimed:frame.obj
 0002:000247f0       __catchsym$?CallUnexpected@@YAXPBU_s_ESTypeList@@@Z$2 100aa7f0     libvcruntimed:frame.obj
 0002:00024800       __unwindtable$?CallUnexpected@@YAXPBU_s_ESTypeList@@@Z 100aa800     libvcruntimed:frame.obj
 0002:00024810       __tryblocktable$?CallUnexpected@@YAXPBU_s_ESTypeList@@@Z 100aa810     libvcruntimed:frame.obj
 0002:00024824       __ehfuncinfo$?CallUnexpected@@YAXPBU_s_ESTypeList@@@Z 100aa824     libvcruntimed:frame.obj
 0002:00024848       __sehtable$??$BuildCatchObjectHelperInternal@V__FrameHandler3@@@@YAHPAUEHExceptionRecord@@PAXPBU_s_HandlerType@@PBU_s_CatchableType@@@Z 100aa848     libvcruntimed:frame.obj
 0002:00024868       __sehtable$??$BuildCatchObjectInternal@V__FrameHandler3@@@@YAXPAUEHExceptionRecord@@PAXPBU_s_HandlerType@@PBU_s_CatchableType@@@Z 100aa868     libvcruntimed:frame.obj
 0002:000248c0       __sehtable$___unDNameEx    100aa8c0     libvcruntimed:undname.obj
 0002:000248dc       __unwindtable$?getDecoratedName@UnDecorator@@CA?AVDName@@XZ 100aa8dc     libvcruntimed:undname.obj
 0002:000248e4       __ehfuncinfo$?getDecoratedName@UnDecorator@@CA?AVDName@@XZ 100aa8e4     libvcruntimed:undname.obj
 0002:00024908       __sehtable$___DestructExceptionObject 100aa908     libvcruntimed:ehhelpers.obj
 0002:00024928       __sehtable$??$?RV<lambda_b3f2a7703f147ea4aca55ed56acde2ed>@@AAV<lambda_a222bbfdcf97c91f7d8030c20e23060e>@@V<lambda_069423356000c0f10f5fe96ac65db66d>@@@?$__crt_seh_guarded_call@H@@QAEH$$QAV<lambda_b3f2a7703f147ea4aca55ed56acde2ed>@@AAV<lambda_a222bbfdcf97c91f7d8030c20e23060e>@@$$QAV<lambda_069423356000c0f10f5fe96ac65db66d>@@@Z 100aa928     libucrtd:dbgrpt.obj
 0002:00024948       __sehtable$??$?RV<lambda_6b91fda0574d829f36484cbf4428f79d>@@AAV<lambda_a6a20e8ed7c4ffd287162f70e68c8000>@@V<lambda_6f6612a01283b279e88a3dda7d7a9d30>@@@?$__crt_seh_guarded_call@H@@QAEH$$QAV<lambda_6b91fda0574d829f36484cbf4428f79d>@@AAV<lambda_a6a20e8ed7c4ffd287162f70e68c8000>@@$$QAV<lambda_6f6612a01283b279e88a3dda7d7a9d30>@@@Z 100aa948     libucrtd:dbgrpt.obj
 0002:00024968       __sehtable$??$?RV<lambda_c29ee0499b841886b80d843682cc403a>@@AAV<lambda_0be4ab1c2a6918fda4e39227d83ea893>@@V<lambda_5a3ed3da325c8ea037a470278c0f2d16>@@@?$__crt_seh_guarded_call@H@@QAEH$$QAV<lambda_c29ee0499b841886b80d843682cc403a>@@AAV<lambda_0be4ab1c2a6918fda4e39227d83ea893>@@$$QAV<lambda_5a3ed3da325c8ea037a470278c0f2d16>@@@Z 100aa968     libucrtd:output.obj
 0002:00024988       __sehtable$??$?RV<lambda_9b2bd5c6bb91c5c032542faa5c3cb611>@@AAV<lambda_be68057ced330f874c40fe9612235e36>@@V<lambda_dbd837d1c0b7fc6e2d81c287c81c071b>@@@?$__crt_seh_guarded_call@H@@QAEH$$QAV<lambda_9b2bd5c6bb91c5c032542faa5c3cb611>@@AAV<lambda_be68057ced330f874c40fe9612235e36>@@$$QAV<lambda_dbd837d1c0b7fc6e2d81c287c81c071b>@@@Z 100aa988     libucrtd:output.obj
 0002:000249a8       __sehtable$??$?RV<lambda_5d912c5eb12d68f7685796d855ab8da6>@@AAV<lambda_81587a929b95143618da2bd798ca9df2>@@V<lambda_bfd63e08e93a545639db6d324cf10d1a>@@@?$__crt_seh_guarded_call@H@@QAEH$$QAV<lambda_5d912c5eb12d68f7685796d855ab8da6>@@AAV<lambda_81587a929b95143618da2bd798ca9df2>@@$$QAV<lambda_bfd63e08e93a545639db6d324cf10d1a>@@@Z 100aa9a8     libucrtd:output.obj
 0002:000249c8       __sehtable$??$?RV<lambda_3cfd252a7c5e244e8f20fc56fe35ebe9>@@AAV<lambda_d7427dbf72509eba5fa970998bac2a27>@@V<lambda_8f55a0afecd2292d47fde3ce68e72492>@@@?$__crt_seh_guarded_call@H@@QAEH$$QAV<lambda_3cfd252a7c5e244e8f20fc56fe35ebe9>@@AAV<lambda_d7427dbf72509eba5fa970998bac2a27>@@$$QAV<lambda_8f55a0afecd2292d47fde3ce68e72492>@@@Z 100aa9c8     libucrtd:output.obj
 0002:000249e8       __sehtable$??$?RV<lambda_ba8264b40644a42074cedf043e7aa388>@@AAV<lambda_9dc9bc4853282e051506c0cc602abcf3>@@V<lambda_1c412e3457517a614fb7d0c137686c95>@@@?$__crt_seh_guarded_call@H@@QAEH$$QAV<lambda_ba8264b40644a42074cedf043e7aa388>@@AAV<lambda_9dc9bc4853282e051506c0cc602abcf3>@@$$QAV<lambda_1c412e3457517a614fb7d0c137686c95>@@@Z 100aa9e8     libucrtd:output.obj
 0002:00024a08       __sehtable$??$?RV<lambda_cae121c7667f229345c68b3f32b19755>@@AAV<lambda_b09925f738b1434f525bf50d3162636f>@@V<lambda_18d67e1eeb4dde13899af949c649d933>@@@?$__crt_seh_guarded_call@H@@QAEH$$QAV<lambda_cae121c7667f229345c68b3f32b19755>@@AAV<lambda_b09925f738b1434f525bf50d3162636f>@@$$QAV<lambda_18d67e1eeb4dde13899af949c649d933>@@@Z 100aaa08     libucrtd:output.obj
 0002:00024a28       __sehtable$??R<lambda_6e4b09c48022b2350581041d5f6b0c4c>@@QBE@XZ 100aaa28     libucrtd:exit.obj
 0002:00024a48       __sehtable$??$?RV<lambda_03b1d95aef87969028cfba75ccab2455>@@AAV<lambda_6e4b09c48022b2350581041d5f6b0c4c>@@V<lambda_22bdf7517842c4b3e53723af5aa32b9e>@@@?$__crt_seh_guarded_call@X@@QAEX$$QAV<lambda_03b1d95aef87969028cfba75ccab2455>@@AAV<lambda_6e4b09c48022b2350581041d5f6b0c4c>@@$$QAV<lambda_22bdf7517842c4b3e53723af5aa32b9e>@@@Z 100aaa48     libucrtd:exit.obj
 0002:00024a64       __unwindtable$??R<lambda_d121dba8a4adeaf3a9819e48611155df>@@QBEHXZ 100aaa64     libucrtd:onexit.obj
 0002:00024a6c       __ehfuncinfo$??R<lambda_d121dba8a4adeaf3a9819e48611155df>@@QBEHXZ 100aaa6c     libucrtd:onexit.obj
 0002:00024a90       __sehtable$??$?RV<lambda_b53b013fb8c6083c10bec37d2dacc554>@@AAV<lambda_3b83eb014488ad801d84acef5aaf14d3>@@V<lambda_121992cf5e0eae5719f6e4f596aaeb4f>@@@?$__crt_seh_guarded_call@H@@QAEH$$QAV<lambda_b53b013fb8c6083c10bec37d2dacc554>@@AAV<lambda_3b83eb014488ad801d84acef5aaf14d3>@@$$QAV<lambda_121992cf5e0eae5719f6e4f596aaeb4f>@@@Z 100aaa90     libucrtd:onexit.obj
 0002:00024ab0       __sehtable$??$?RV<lambda_d74cd35c3df28f16c733e6755eb03555>@@AAV<lambda_d121dba8a4adeaf3a9819e48611155df>@@V<lambda_ade73ae6aee997c6ba47ce5901b340f9>@@@?$__crt_seh_guarded_call@H@@QAEH$$QAV<lambda_d74cd35c3df28f16c733e6755eb03555>@@AAV<lambda_d121dba8a4adeaf3a9819e48611155df>@@$$QAV<lambda_ade73ae6aee997c6ba47ce5901b340f9>@@@Z 100aaab0     libucrtd:onexit.obj
 0002:00024ad0       __sehtable$__CrtCheckMemory 100aaad0     libucrtd:debug_heap.obj
 0002:00024af0       __sehtable$__CrtDoForAllClientObjects 100aaaf0     libucrtd:debug_heap.obj
 0002:00024b10       __sehtable$__CrtIsMemoryBlock 100aab10     libucrtd:debug_heap.obj
 0002:00024b30       __sehtable$__CrtMemCheckpoint 100aab30     libucrtd:debug_heap.obj
 0002:00024b50       __sehtable$__CrtMemDumpAllObjectsSince 100aab50     libucrtd:debug_heap.obj
 0002:00024b70       __sehtable$__CrtSetDbgFlag 100aab70     libucrtd:debug_heap.obj
 0002:00024b90       __sehtable$__expand_dbg    100aab90     libucrtd:debug_heap.obj
 0002:00024bb0       __sehtable$__free_dbg      100aabb0     libucrtd:debug_heap.obj
 0002:00024bd0       __sehtable$__msize_dbg     100aabd0     libucrtd:debug_heap.obj
 0002:00024bf0       __sehtable$__realloc_dbg   100aabf0     libucrtd:debug_heap.obj
 0002:00024c10       __sehtable$?is_bad_read_pointer@@YA_NQBXI@Z 100aac10     libucrtd:debug_heap.obj
 0002:00024c30       __sehtable$?validate_heap_if_required_nolock@@YAXXZ 100aac30     libucrtd:debug_heap.obj
 0002:00024c50       __sehtable$?heap_alloc_dbg_internal@@YAPAXIHQBDH@Z 100aac50     libucrtd:debug_heap.obj
 0002:00024c70       __sehtable$__CrtSetDbgBlockType 100aac70     libucrtd:debug_heap.obj
 0002:00024c90       __sehtable$_terminate      100aac90     libucrtd:terminate.obj
 0002:00024cb0       __sehtable$__query_new_handler 100aacb0     libucrtd:new_handler.obj
 0002:00024cd0       __sehtable$__set_new_handler 100aacd0     libucrtd:new_handler.obj
 0002:00024cf0       __sehtable$__VCrtDbgReportA 100aacf0     libucrtd:dbgrptt.obj
 0002:00024d18       __sehtable$__VCrtDbgReportW 100aad18     libucrtd:dbgrptt.obj
 0002:00024d40       __ehfuncinfo$??1?$__crt_win32_buffer@DU__crt_win32_buffer_no_resizing@@@@QAE@XZ 100aad40     libucrtd:getmodulefilenamea.obj
 0002:00024d68       __sehtable$_signal         100aad68     libucrtd:signal.obj
 0002:00024d88       __sehtable$_raise          100aad88     libucrtd:signal.obj
 0002:00024da8       __sehtable$?ctrlevent_capture@@YGHK@Z 100aada8     libucrtd:signal.obj
 0002:00024dc8       __sehtable$??$?RV<lambda_cbab9ec6f41b0180b23cc171c22676b0>@@AAV<lambda_44731a7d0e6d81c3e6aa82d741081786>@@V<lambda_4b292cb8dd18144e164572427af410ab>@@@?$__crt_seh_guarded_call@P6AXH@Z@@QAEP6AXH@Z$$QAV<lambda_cbab9ec6f41b0180b23cc171c22676b0>@@AAV<lambda_44731a7d0e6d81c3e6aa82d741081786>@@$$QAV<lambda_4b292cb8dd18144e164572427af410ab>@@@Z 100aadc8     libucrtd:signal.obj
 0002:00024de8       __sehtable$??$?RV<lambda_15ade71b0218206bbe3333a0c9b79046>@@AAV<lambda_da44e0f8b0f19ba52fefafb335991732>@@V<lambda_207f2d024fc103971653565357d6cd41>@@@?$__crt_seh_guarded_call@X@@QAEX$$QAV<lambda_15ade71b0218206bbe3333a0c9b79046>@@AAV<lambda_da44e0f8b0f19ba52fefafb335991732>@@$$QAV<lambda_207f2d024fc103971653565357d6cd41>@@@Z 100aade8     libucrtd:per_thread_data.obj
 0002:00024e08       __sehtable$??$?RV<lambda_a7e850c220f1c8d1e6efeecdedd162c6>@@AAV<lambda_46720907175c18b6c9d2717bc0d2d362>@@V<lambda_9048902d66e8d99359bc9897bbb930a8>@@@?$__crt_seh_guarded_call@X@@QAEX$$QAV<lambda_a7e850c220f1c8d1e6efeecdedd162c6>@@AAV<lambda_46720907175c18b6c9d2717bc0d2d362>@@$$QAV<lambda_9048902d66e8d99359bc9897bbb930a8>@@@Z 100aae08     libucrtd:per_thread_data.obj
 0002:00024e28       __sehtable$??$?RV<lambda_eb0e2b1d104b126d27395a74edba6f03>@@AAV<lambda_d51eb34c9f7d53dbc39f6b791b6a3e42>@@V<lambda_f7564ebddb1f0eaf818ab6f3eade8363>@@@?$__crt_seh_guarded_call@X@@QAEX$$QAV<lambda_eb0e2b1d104b126d27395a74edba6f03>@@AAV<lambda_d51eb34c9f7d53dbc39f6b791b6a3e42>@@$$QAV<lambda_f7564ebddb1f0eaf818ab6f3eade8363>@@@Z 100aae28     libucrtd:per_thread_data.obj
 0002:00024e48       __sehtable$??$?RV<lambda_6affb1475c98b40b75cdec977db92e3c>@@AAV<lambda_b8d4b9c228a6ecc3f80208dbb4b4a104>@@V<lambda_608742c3c92a14382c1684fc64f96c88>@@@?$__crt_seh_guarded_call@X@@QAEX$$QAV<lambda_6affb1475c98b40b75cdec977db92e3c>@@AAV<lambda_b8d4b9c228a6ecc3f80208dbb4b4a104>@@$$QAV<lambda_608742c3c92a14382c1684fc64f96c88>@@@Z 100aae48     libucrtd:per_thread_data.obj
 0002:00024e64       __unwindtable$?fp_format_a@@YAHQBNPADIQADIH_NIQAU__crt_locale_pointers@@@Z 100aae64     libucrtd:cvt.obj
 0002:00024e6c       __ehfuncinfo$?fp_format_a@@YAHQBNPADIQADIH_NIQAU__crt_locale_pointers@@@Z 100aae6c     libucrtd:cvt.obj
 0002:00024e90       __sehtable$_fputwc         100aae90     libucrtd:fputwc.obj
 0002:00024eb0       __sehtable$_fputc          100aaeb0     libucrtd:fputc.obj
 0002:00024ed0       __sehtable$__free_locale   100aaed0     libucrtd:wsetlocale.obj
 0002:00024ef8       __sehtable$??$?RV<lambda_e5124f882df8998aaf41531e079ba474>@@AAV<lambda_3e16ef9562a7dcce91392c22ab16ea36>@@V<lambda_e25ca0880e6ef98be67edffd8c599615>@@@?$__crt_seh_guarded_call@X@@QAEX$$QAV<lambda_e5124f882df8998aaf41531e079ba474>@@AAV<lambda_3e16ef9562a7dcce91392c22ab16ea36>@@$$QAV<lambda_e25ca0880e6ef98be67edffd8c599615>@@@Z 100aaef8     libucrtd:wsetlocale.obj
 0002:00024f18       __sehtable$??$?RV<lambda_82aef432098b982f9ede325b418aa67a>@@AAV<lambda_862e9a3f04921db6ca1ce3faa2bf3edf>@@V<lambda_ffabc152e504b53d7492b9889b10c020>@@@?$__crt_seh_guarded_call@X@@QAEX$$QAV<lambda_82aef432098b982f9ede325b418aa67a>@@AAV<lambda_862e9a3f04921db6ca1ce3faa2bf3edf>@@$$QAV<lambda_ffabc152e504b53d7492b9889b10c020>@@@Z 100aaf18     libucrtd:wsetlocale.obj
 0002:00024f38       __sehtable$??$?RV<lambda_6673f7c4c09a5d469d0c27ae364621ce>@@AAV<lambda_ebab98244f73a74f49db879bf13fa982>@@V<lambda_be20789b7a146653eab82509ec35b419>@@@?$__crt_seh_guarded_call@X@@QAEX$$QAV<lambda_6673f7c4c09a5d469d0c27ae364621ce>@@AAV<lambda_ebab98244f73a74f49db879bf13fa982>@@$$QAV<lambda_be20789b7a146653eab82509ec35b419>@@@Z 100aaf38     libucrtd:wsetlocale.obj
 0002:00024f58       __sehtable$??$?RV<lambda_b545cbda8c485e810b7370d302352e4d>@@AAV<lambda_94160f38b0d8062071ee1c24a2e06f16>@@V<lambda_d9cd10c6490e08215aac19302365fb86>@@@?$__crt_seh_guarded_call@X@@QAEX$$QAV<lambda_b545cbda8c485e810b7370d302352e4d>@@AAV<lambda_94160f38b0d8062071ee1c24a2e06f16>@@$$QAV<lambda_d9cd10c6490e08215aac19302365fb86>@@@Z 100aaf58     libucrtd:wsetlocale.obj
 0002:00024f78       __sehtable$??$?RV<lambda_9999445f1d1b38a0f8f29d4373f335ea>@@AAV<lambda_5f1c740618ad432f4524ad6cff55e1c4>@@AAV<lambda_8dff2cf36a5417162780cd64fa2883ef>@@@?$__crt_seh_guarded_call@X@@QAEX$$QAV<lambda_9999445f1d1b38a0f8f29d4373f335ea>@@AAV<lambda_5f1c740618ad432f4524ad6cff55e1c4>@@AAV<lambda_8dff2cf36a5417162780cd64fa2883ef>@@@Z 100aaf78     libucrtd:wsetlocale.obj
 0002:00024f98       __sehtable$___acrt_initialize_lowio 100aaf98     libucrtd:ioinit.obj
 0002:00024fb4       __ehfuncinfo$??1?$__crt_win32_buffer@_WU__crt_win32_buffer_internal_dynamic_resizing@@@@QAE@XZ 100aafb4     libucrtd:argv_wildcards.obj
 0002:00024fd8       __ehfuncinfo$??1?$__crt_win32_buffer@DU__crt_win32_buffer_internal_dynamic_resizing@@@@QAE@XZ 100aafd8     libucrtd:argv_wildcards.obj
 0002:00025000       __sehtable$?update_thread_multibyte_data_internal@@YAPAU__crt_multibyte_data@@QAU__acrt_ptd@@QAPAU1@@Z 100ab000     libucrtd:mbctype.obj
 0002:00025020       __sehtable$??$?RV<lambda_b5fb591949065c3fa449bad279e8c939>@@AAV<lambda_6c10a39a819b864ce80acc26b314dcd3>@@V<lambda_e567670a9eae49807d365f3e9c117712>@@@?$__crt_seh_guarded_call@X@@QAEX$$QAV<lambda_b5fb591949065c3fa449bad279e8c939>@@AAV<lambda_6c10a39a819b864ce80acc26b314dcd3>@@$$QAV<lambda_e567670a9eae49807d365f3e9c117712>@@@Z 100ab020     libucrtd:mbctype.obj
 0002:00025040       __sehtable$??$?RV<lambda_6b4b7855443974f2b4b77000ea21c99c>@@AAV<lambda_8f7d3b162ab39427f4fa9995c67a7986>@@V<lambda_cc9a5ba8a5d8428b9634eab82665e5dc>@@@?$__crt_seh_guarded_call@H@@QAEH$$QAV<lambda_6b4b7855443974f2b4b77000ea21c99c>@@AAV<lambda_8f7d3b162ab39427f4fa9995c67a7986>@@$$QAV<lambda_cc9a5ba8a5d8428b9634eab82665e5dc>@@@Z 100ab040     libucrtd:winapi_thunks.obj
 0002:0002505c       __unwindtable$?_wcstombs_l_helper@@YAIPADPB_WIPAU__crt_locale_pointers@@@Z 100ab05c     libucrtd:wcstombs.obj
 0002:00025064       __ehfuncinfo$?_wcstombs_l_helper@@YAIPADPB_WIPAU__crt_locale_pointers@@@Z 100ab064     libucrtd:wcstombs.obj
 0002:00025088       __sehtable$___acrt_update_thread_locale_data 100ab088     libucrtd:locale_refcounting.obj
 0002:000250a8       __sehtable$__fcloseall     100ab0a8     libucrtd:closeall.obj
 0002:000250c8       __sehtable$??$?RV<lambda_2866be3712abc81a800a822484c830d8>@@AAV<lambda_39ca0ed439415581b5b15c265174cece>@@V<lambda_2b24c74d71094a6cd0cb82e44167d71b>@@@?$__crt_seh_guarded_call@X@@QAEX$$QAV<lambda_2866be3712abc81a800a822484c830d8>@@AAV<lambda_39ca0ed439415581b5b15c265174cece>@@$$QAV<lambda_2b24c74d71094a6cd0cb82e44167d71b>@@@Z 100ab0c8     libucrtd:fflush.obj
 0002:000250e8       __sehtable$??$?RV<lambda_2cc53f568c5a2bb6f192f930a45d44ea>@@AAV<lambda_ab61a845afdef5b7c387490eaf3616ee>@@V<lambda_c2ffc0b7726aa6be21d5f0026187e748>@@@?$__crt_seh_guarded_call@X@@QAEX$$QAV<lambda_2cc53f568c5a2bb6f192f930a45d44ea>@@AAV<lambda_ab61a845afdef5b7c387490eaf3616ee>@@$$QAV<lambda_c2ffc0b7726aa6be21d5f0026187e748>@@@Z 100ab0e8     libucrtd:fflush.obj
 0002:00025108       __sehtable$??$?RV<lambda_6d20deecaf4856105ebacbad442d1079>@@AAV<lambda_9a32fed5bf61b6b509b2d3f6003082a1>@@V<lambda_63ea2239ed67c638ddbae41947fdf875>@@@?$__crt_seh_guarded_call@H@@QAEH$$QAV<lambda_6d20deecaf4856105ebacbad442d1079>@@AAV<lambda_9a32fed5bf61b6b509b2d3f6003082a1>@@$$QAV<lambda_63ea2239ed67c638ddbae41947fdf875>@@@Z 100ab108     libucrtd:fflush.obj
 0002:00025128       __sehtable$__open_osfhandle 100ab128     libucrtd:osfinfo.obj
 0002:00025148       __sehtable$__alloc_osfhnd  100ab148     libucrtd:osfinfo.obj
 0002:00025168       __sehtable$___acrt_lowio_ensure_fh_exists 100ab168     libucrtd:osfinfo.obj
 0002:00025184       __unwindtable$?shortsort@@YAXPAD0IP6AHPBX1@Z@Z 100ab184     libucrtd:qsort.obj
 0002:0002518c       __ehfuncinfo$?shortsort@@YAXPAD0IP6AHPBX1@Z@Z 100ab18c     libucrtd:qsort.obj
 0002:000251b0       __unwindtable$?_wcrtomb_s_l@@YAHQAHQADI_WQAU_Mbstatet@@QAU__crt_locale_pointers@@@Z 100ab1b0     libucrtd:wcrtomb.obj
 0002:000251b8       __ehfuncinfo$?_wcrtomb_s_l@@YAHQAHQADI_WQAU_Mbstatet@@QAU__crt_locale_pointers@@@Z 100ab1b8     libucrtd:wcrtomb.obj
 0002:000251e0       __sehtable$__write         100ab1e0     libucrtd:write.obj
 0002:00025200       __sehtable$??$common_lseek@J@@YAJHJH@Z 100ab200     libucrtd:lseek.obj
 0002:00025220       __sehtable$??$common_lseek@_J@@YA_JH_JH@Z 100ab220     libucrtd:lseek.obj
 0002:00025240       __sehtable$_fclose         100ab240     libucrtd:fclose.obj
 0002:00025260       __sehtable$??$?RV<lambda_73934b50d04267ee15484ada9e51f93a>@@AAV<lambda_5533cddd4bda0037814beee657757329>@@V<lambda_505f522a38cc75b1e009910344c75d09>@@@?$__crt_seh_guarded_call@H@@QAEH$$QAV<lambda_73934b50d04267ee15484ada9e51f93a>@@AAV<lambda_5533cddd4bda0037814beee657757329>@@$$QAV<lambda_505f522a38cc75b1e009910344c75d09>@@@Z 100ab260     libucrtd:commit.obj
 0002:00025280       __sehtable$??$?RV<lambda_f828341fbe69b7c0d4c527b01f22877f>@@AAV<lambda_9e0b6ab72a5b3ae37ad997d08b519f50>@@V<lambda_f01deac0a8d65d6e0411edf7e0af5775>@@@?$__crt_seh_guarded_call@G@@QAEG$$QAV<lambda_f828341fbe69b7c0d4c527b01f22877f>@@AAV<lambda_9e0b6ab72a5b3ae37ad997d08b519f50>@@$$QAV<lambda_f01deac0a8d65d6e0411edf7e0af5775>@@@Z 100ab280     libucrtd:putwch.obj
 0002:000252a0       __sehtable$__read          100ab2a0     libucrtd:read.obj
 0002:000252c0       __sehtable$??$?RV<lambda_e683defbe2e5a27c42b5544acbb13393>@@AAV<lambda_4e7105787b7b0e0227fbf2b2d883fa65>@@V<lambda_80a887151cae997482d53eaa74bb832b>@@@?$__crt_seh_guarded_call@H@@QAEH$$QAV<lambda_e683defbe2e5a27c42b5544acbb13393>@@AAV<lambda_4e7105787b7b0e0227fbf2b2d883fa65>@@$$QAV<lambda_80a887151cae997482d53eaa74bb832b>@@@Z 100ab2c0     libucrtd:close.obj
 0002:000252e0       __sehtable$?__acrt_stdio_allocate_stream@@YA?AV__crt_stdio_stream@@XZ 100ab2e0     libucrtd:stream.obj
 0002:00025300       __sehtable$___set_fpsr_sse2 100ab300     libucrtd:fpctrl.obj
 0002:00025320       __sehtable$__IsNonwritableInCurrentImage 100ab320     LIBCMTD:pesect.obj
 0002:00025350       .edata                     100ab350     Opos_Internals.exp
 0002:00025378       rgpv                       100ab378     Opos_Internals.exp
 0002:00025388       rgszName                   100ab388     Opos_Internals.exp
 0002:00025398       rgwOrd                     100ab398     Opos_Internals.exp
 0002:000253a0       szName                     100ab3a0     Opos_Internals.exp
 0002:000253b3       $N00001                    100ab3b3     Opos_Internals.exp
 0002:000253c3       $N00002                    100ab3c3     Opos_Internals.exp
 0002:000253d5       $N00003                    100ab3d5     Opos_Internals.exp
 0002:000253e7       $N00004                    100ab3e7     Opos_Internals.exp
 0002:000257cc       .idata$6                   100ab7cc     kernel32:KERNEL32.dll
 0002:000257fa       .idata$6                   100ab7fa     user32:USER32.dll
 0002:0002588e       .idata$6                   100ab88e     advapi32:ADVAPI32.dll
 0002:000258f8       .idata$6                   100ab8f8     ole32:ole32.dll
 0002:00025902       .idata$6                   100ab902     oleaut32:OLEAUT32.dll
 0003:00000030       ?__vcrt_flsindex@@3KA      100ac030     libvcruntimed:per_thread_data.obj
 0003:00000050       ?errno_no_memory@@3HA      100ac050     libucrtd:errno.obj
 0003:00000054       ?doserrno_no_memory@@3KA   100ac054     libucrtd:errno.obj
 0003:00000058       ?__acrt_current_request_number@@3JA 100ac058     libucrtd:debug_heap.obj
 0003:0000009c       ?__acrt_debug_fill_threshold@@3IA 100ac09c     libucrtd:debug_fill_threshold.obj
 0003:000000a0       ?__acrt_flsindex@@3KA      100ac0a0     libucrtd:per_thread_data.obj
 0003:00000150       __ctype_loc_style          100ac150     libucrtd:wsetlocale.obj
 0003:00000478       __mbctypes                 100ac478     libucrtd:mbctype.obj
 0003:00000580       __mbcasemaps               100ac580     libucrtd:mbctype.obj
 0003:00000680       ?__rgctypeflag@@3PADA      100ac680     libucrtd:mbctype.obj
 0003:00000688       ?__rgcode_page_info@@3PAUcode_page_info@@A 100ac688     libucrtd:mbctype.obj
 0003:000008f0       ?__DAZ_ENABLED@?1??__set_fpsr_sse2@@9@9 100ac8f0     libucrtd:fpctrl.obj
 0003:000008f4       ?__dcrt_lowio_console_output_handle@@3PAXA 100ac8f4     libucrtd:initcon.obj
 0003:00002bf8       ?ObjectMap@@3PAU_ATL_OBJMAP_ENTRY30@ATL@@A 100aebf8     OposInternals.obj
 0003:00002c60       ?is_initialized_as_dll@@3_NA 100aec60     LIBCMTD:utility.obj
 0003:00002c61       ?module_local_atexit_table_initialized@@3_NA 100aec61     LIBCMTD:utility.obj
 0003:00002c64       ?module_local_atexit_table@@3U_onexit_table_t@@A 100aec64     LIBCMTD:utility.obj
 0003:00002c70       ?module_local_at_quick_exit_table@@3U_onexit_table_t@@A 100aec70     LIBCMTD:utility.obj
 0003:00002c7c       ?init@?1??_RTC_InitBase@@9@4_NA 100aec7c     LIBCMTD:init.obj
 0003:00002c80       _GS_ExceptionRecord        100aec80     LIBCMTD:gs_report.obj
 0003:00002cd0       _GS_ContextRecord          100aecd0     LIBCMTD:gs_report.obj
 0003:00002f9c       ?__proc_attached@@3HA      100aef9c     LIBCMTD:dll_dllmain.obj
 0003:00002fac       ?_RTC_ErrorReportFunc@@3P6AHHPBDH00ZZA 100aefac     LIBCMTD:userapi.obj
 0003:00002fb0       ?_RTC_ErrorReportFuncW@@3P6AHHPB_WH00ZZA 100aefb0     LIBCMTD:userapi.obj
 0003:00002fc8       ?mspdb@@3PAUHINSTANCE__@@A 100aefc8     LIBCMTD:pdblkup.obj
 0003:00002fcc       ?alreadyTried@?1??GetPdbDll@@YAPAUHINSTANCE__@@XZ@4_NA 100aefcc     LIBCMTD:pdblkup.obj
 0003:00002fcd       ?PDBOK@?1??_RTC_GetSrcLine@@YAHPAEPA_WKPAH1K@Z@4_NA 100aefcd     LIBCMTD:pdblkup.obj
 0003:00002fd0       ?__vcrt_startup_thread_ptd@@3U__vcrt_ptd@@A 100aefd0     libvcruntimed:per_thread_data.obj
 0003:00002ff8       ___vcrt_lock_table         100aeff8     libvcruntimed:locks.obj
 0003:00003010       ___vcrt_locks_initialized  100af010     libvcruntimed:locks.obj
 0003:0000303c       ?heap@@3V_HeapManager@@A   100af03c     libvcruntimed:undname.obj
 0003:00003050       ?buf@?1??dbGetString@DName@@QBEPADXZ@4PADA 100af050     libvcruntimed:undname.obj
 0003:000030a0       ?module_handles@@3PAPAUHINSTANCE__@@A 100af0a0     libvcruntimed:winapi_downlevel.obj
 0003:000030ac       ?function_pointers@@3PAPAXA 100af0ac     libvcruntimed:winapi_downlevel.obj
 0003:000030c8       ?__acrt_invalid_parameter_handler@@3V?$dual_state_global@P6AXPB_W00II@Z@__crt_state_management@@A 100af0c8     libucrtd:invalid_parameter.obj
 0003:000030cc       ?c_termination_complete@@3JA 100af0cc     libucrtd:exit.obj
 0003:000030d0       ?thread_local_exit_callback_func@@3P6GXPAXK0@ZA 100af0d0     libucrtd:exit.obj
 0003:000030d8       ?program_name@?1???$common_configure_argv@D@@YAHW4_crt_argv_mode@@@Z@4PADA 100af0d8     libucrtd:argv_parsing.obj
 0003:000031e0       ?program_name@?1???$common_configure_argv@_W@@YAHW4_crt_argv_mode@@@Z@4PA_WA 100af1e0     libucrtd:argv_parsing.obj
 0003:00003414       ?__acrt_first_block@@3PAU_CrtMemBlockHeader@@A 100af414     libucrtd:debug_heap.obj
 0003:00003418       ?__acrt_last_block@@3PAU_CrtMemBlockHeader@@A 100af418     libucrtd:debug_heap.obj
 0003:0000341c       ?__acrt_total_allocations@@3IA 100af41c     libucrtd:debug_heap.obj
 0003:00003420       ?__acrt_current_allocations@@3IA 100af420     libucrtd:debug_heap.obj
 0003:00003424       ?__acrt_max_allocations@@3IA 100af424     libucrtd:debug_heap.obj
 0003:00003428       ?__acrt_check_frequency@@3IA 100af428     libucrtd:debug_heap.obj
 0003:0000342c       ?__acrt_check_counter@@3IA 100af42c     libucrtd:debug_heap.obj
 0003:00003434       ?heap_validation_pending@@3_NA 100af434     libucrtd:debug_heap.obj
 0003:00003438       ?__acrt_new_handler@@3V?$dual_state_global@P6AHI@Z@__crt_state_management@@A 100af438     libucrtd:new_handler.obj
 0003:00003448       ?__acrt_lock_table@@3PAU_RTL_CRITICAL_SECTION@@A 100af448     libucrtd:locks.obj
 0003:00003598       ?__acrt_locks_initialized@@3IA 100af598     libucrtd:locks.obj
 0003:0000359c       ?console_ctrl_handler_installed@@3_NA 100af59c     libucrtd:signal.obj
 0003:000035a0       ?ctrlc_action@@3V?$dual_state_global@P6AXH@Z@__crt_state_management@@A 100af5a0     libucrtd:signal.obj
 0003:000035a4       ?ctrlbreak_action@@3V?$dual_state_global@P6AXH@Z@__crt_state_management@@A 100af5a4     libucrtd:signal.obj
 0003:000035a8       ?abort_action@@3V?$dual_state_global@P6AXH@Z@__crt_state_management@@A 100af5a8     libucrtd:signal.obj
 0003:000035ac       ?term_action@@3V?$dual_state_global@P6AXH@Z@__crt_state_management@@A 100af5ac     libucrtd:signal.obj
 0003:000035b0       ?internal_state@?1??_mbtowc_l@@9@4U_Mbstatet@@A 100af5b0     libucrtd:mbtowc.obj
 0003:000035c4       ?enable_percent_n@@3IA     100af5c4     libucrtd:printf_count_output.obj
 0003:000037dc       ?state_cache@?1???$get_cached_win_policy@Ubegin_thread_init_policy_properties@?1??__acrt_get_begin_thread_init_policy@@YA?AW4begin_thread_init_policy@@XZ@@@YA?AW4begin_thread_init_policy@@W4AppPolicyThreadInitializationType@@@Z@4JA 100af7dc     libucrtd:win_policies.obj
 0003:000037e0       ?state_cache@?1???$get_cached_win_policy@Udeveloper_information_policy_properties@?1??__acrt_get_developer_information_policy@@YA?AW4developer_information_policy@@XZ@@@YA?AW4developer_information_policy@@W4AppPolicyShowDeveloperDiagnostic@@@Z@4JA 100af7e0     libucrtd:win_policies.obj
 0003:000037e4       ?state_cache@?1???$get_cached_win_policy@Uwindowing_model_policy_properties@?1??__acrt_get_windowing_model_policy@@YA?AW4windowing_model_policy@@XZ@@@YA?AW4windowing_model_policy@@W4AppPolicyWindowingModel@@@Z@4JA 100af7e4     libucrtd:win_policies.obj
 0003:000037f4       ?fSystemSet@@3HA           100af7f4     libucrtd:mbctype.obj
 0003:000037f8       ?initialized@?1??__acrt_initialize_multibyte@@9@4_NA 100af7f8     libucrtd:mbctype.obj
 0003:00003818       ?module_handles@@3PAPAUHINSTANCE__@@A 100af818     libucrtd:winapi_thunks.obj
 0003:00003868       ?encoded_function_pointers@@3PAPAXA 100af868     libucrtd:winapi_thunks.obj
 0003:000038f0       ?static_enum_proc@?1??enum_system_locales_ex_nolock@@YAHQ6GHPA_WKJ@Z@Z@4P6GH0KJ@ZA 100af8f0     libucrtd:winapi_thunks.obj
 0003:000038f8       ?user_matherr@@3V?$dual_state_global@P6AHPAU_exception@@@Z@__crt_state_management@@A 100af8f8     libucrtd:matherr.obj
 0003:000038fc       ?__acrt_global_new_mode@@3V?$dual_state_global@J@__crt_state_management@@A 100af8fc     libucrtd:new_mode.obj
 0003:00003900       ?__acrt_app_type@@3W4_crt_app_type@@A 100af900     libucrtd:report_runtime_error.obj
 0003:00003908       ?outmsg@?9??__acrt_report_runtime_error@@9@4PA_WA 100af908     libucrtd:report_runtime_error.obj
 0003:00003f30       ?mbst@?1??mbrlen@@9@4U_Mbstatet@@A 100aff30     libucrtd:mbrtowc.obj
 0003:00003f38       ?mbst@?1??mbrtowc@@9@4U_Mbstatet@@A 100aff38     libucrtd:mbrtowc.obj
 0003:00003f40       ?mbst@?1??_mbsrtowcs_helper@@YAIPA_WPAPBDIPAU_Mbstatet@@@Z@4U2@A 100aff40     libucrtd:mbrtowc.obj
 0003:00003f50       ___acrt_error_mode         100aff50     libucrtd:set_error_mode.obj
 0003:00003f54       ?local_state@?6??_wcrtomb_s_l@@YAHQAHQADI_WQAU_Mbstatet@@QAU__crt_locale_pointers@@@Z@4U2@A 100aff54     libucrtd:wcrtomb.obj
 0003:00003f5c       ?internal_pst@?1??__mbrtoc32_utf8@__crt_mbstring@@YAIPA_UPBDIPAU_Mbstatet@@@Z@4U3@A 100aff5c     libucrtd:mbrtoc32.obj
 0003:00003f64       ?internal_pst@?1??__c16rtomb_utf8@__crt_mbstring@@YAIPAD_SPAU_Mbstatet@@@Z@4U3@A 100aff64     libucrtd:c16rtomb.obj
 0003:00003f6c       __pmatherr_set             100aff6c     libucrtd:libm_error.obj
 0004:00000140       $R000000                   100b0140     OposInternals.res
 0004:00000a20       $R0008E0                   100b0a20     OposInternals.res
 0004:000132e0       $R0131A0                   100c32e0     OposInternals.res
 0004:00013320       $R0131E0                   100c3320     OposInternals.res
