 OPOSBumpBar

 Timestamp is 5c44373c (Sun Jan 20 17:54:20 2019)

 Preferred load address is 10000000

 Start         Length     Name                   Class
 0001:00000000 00000d90H .text$di                CODE
 0001:00000d90 000a1fa0H .text$mn                CODE
 0001:000a2d30 00000140H .text$x                 CODE
 0001:000a2e70 00000120H .text$yd                CODE
 0002:00000000 0000036cH .idata$5                DATA
 0002:0000036c 00000004H .00cfg                  DATA
 0002:00000370 00000004H .CRT$XCA                DATA
 0002:00000374 00000004H .CRT$XCL                DATA
 0002:00000378 0000006cH .CRT$XCU                DATA
 0002:000003e4 00000004H .CRT$XCZ                DATA
 0002:000003e8 00000004H .CRT$XIA                DATA
 0002:000003ec 00000010H .CRT$XIC                DATA
 0002:000003fc 00000004H .CRT$XIZ                DATA
 0002:00000400 00000004H .CRT$XLA                DATA
 0002:00000404 00000004H .CRT$XLZ                DATA
 0002:00000408 00000004H .CRT$XPA                DATA
 0002:0000040c 00000008H .CRT$XPX                DATA
 0002:00000414 00000004H .CRT$XPXA               DATA
 0002:00000418 00000004H .CRT$XPZ                DATA
 0002:0000041c 00000004H .CRT$XTA                DATA
 0002:00000420 00000010H .CRT$XTZ                DATA
 0002:00000424 00000000H .gfids$x                DATA
 0002:00000424 00000000H .gfids$y                DATA
 0002:00000430 0002e088H .rdata                  DATA
 0002:0002e4b8 00000018H .rdata$T                DATA
 0002:0002e4d0 00000340H .rdata$r                DATA
 0002:0002e810 00000038H .rdata$sxdata           DATA
 0002:0002e848 00000400H .rdata$zzzdbg           DATA
 0002:0002ec48 00000004H .rtc$IAA                DATA
 0002:0002ec4c 00000018H .rtc$IMZ                DATA
 0002:0002ec64 00000004H .rtc$IZZ                DATA
 0002:0002ec68 00000004H .rtc$TAA                DATA
 0002:0002ec6c 00000018H .rtc$TMZ                DATA
 0002:0002ec84 00000004H .rtc$TZZ                DATA
 0002:0002ec88 00000004H .tls                    DATA
 0002:0002ec8c 00000004H .tls$                   DATA
 0002:0002ec90 00000008H .tls$ZZZ                DATA
 0002:0002ec98 00000d94H .xdata$x                DATA
 0002:0002fa2c 00000004H ATL$__a                 DATA
 0002:0002fa30 00000010H ATL$__z                 DATA
 0002:0002fa40 000000a8H .edata                  DATA
 0002:0002fae8 00000078H .idata$2                DATA
 0002:0002fb60 00000014H .idata$3                DATA
 0002:0002fb74 0000036cH .idata$4                DATA
 0002:0002fee0 00000dbaH .idata$6                DATA
 0003:00000000 00000b70H .data                   DATA
 0003:00000b70 00000138H .data$r                 DATA
 0003:00000ca8 00003530H .bss                    DATA
 0004:00000000 00000220H .rsrc$01                DATA
 0004:00000220 00004280H .rsrc$02                DATA

  Address         Publics by Value              Rva+Base       Lib:Object

 0000:00000000       ___guard_longjmp_table     00000000     <absolute>
 0000:00000000       ___hybrid_code_map         00000000     <absolute>
 0000:00000000       ___guard_iat_count         00000000     <absolute>
 0000:00000000       ___hybrid_auxiliary_iat    00000000     <absolute>
 0000:00000000       ___guard_fids_table        00000000     <absolute>
 0000:00000000       ___dynamic_value_reloc_table 00000000     <absolute>
 0000:00000000       ___enclave_config          00000000     <absolute>
 0000:00000000       ___guard_fids_count        00000000     <absolute>
 0000:00000000       ___hybrid_code_map_count   00000000     <absolute>
 0000:00000000       ___guard_longjmp_count     00000000     <absolute>
 0000:00000000       ___guard_iat_table         00000000     <absolute>
 0000:00000000       __except_list              00000000     <absolute>
 0000:00000000       ___volatile_metadata       00000000     <absolute>
 0000:0000000e       ___safe_se_handler_count   0000000e     <absolute>
 0000:0000002c       __tls_array                0000002c     <absolute>
 0000:00000100       ___guard_flags             00000100     <absolute>
 0000:00000000       ___ImageBase               10000000     <linker-defined>
 0001:00000d90       ?_assert@@YAXPB_W0I@Z      10001d90 f   Assert.obj
 0001:00000ec0       ___local_stdio_printf_options 10001ec0 f i Assert.obj
 0001:00000ed0       ___vswprintf_l             10001ed0 f i Assert.obj
 0001:00000f00       __swprintf                 10001f00 f i Assert.obj
 0001:00000f60       __vswprintf_c_l            10001f60 f i Assert.obj
 0001:00000fd0       __vswprintf_l              10001fd0 f i Assert.obj
 0001:00001000       ?cw_memcpy@@YGHPADPB_WH@Z  10002000 f   CWString.obj
 0001:00001060       ?cw_memcpy@@YGHPA_WPBDH@Z  10002060 f   CWString.obj
 0001:000010c0       ?cw_memcpy@@YGHPADPBDH@Z   100020c0 f   CWString.obj
 0001:00001110       ?cw_memcpy@@YGHPA_WPB_WH@Z 10002110 f   CWString.obj
 0001:00001150       ?cw_memset@@YAXPADDH@Z     10002150 f   CWString.obj
 0001:00001170       ?cw_memset@@YAXPA_W_WH@Z   10002170 f   CWString.obj
 0001:00001190       ?cw_strlen@@YAHPBD@Z       10002190 f   CWString.obj
 0001:000011e0       ?cw_strlen@@YAHPB_W@Z      100021e0 f   CWString.obj
 0001:00001230       ?cw_strcpy@@YAHPADPB_W@Z   10002230 f   CWString.obj
 0001:00001250       ?cw_strcpy@@YAHPA_WPBD@Z   10002250 f   CWString.obj
 0001:00001270       ?cw_strcpy@@YAHPADPBD@Z    10002270 f   CWString.obj
 0001:00001290       ?cw_strcpy@@YAHPA_WPB_W@Z  10002290 f   CWString.obj
 0001:000012b0       ?cw_strcat@@YAHPADPB_W@Z   100022b0 f   CWString.obj
 0001:000012e0       ?cw_strcat@@YAHPA_WPBD@Z   100022e0 f   CWString.obj
 0001:00001310       ?cw_strcat@@YAHPADPBD@Z    10002310 f   CWString.obj
 0001:00001340       ?cw_strcat@@YAHPA_WPB_W@Z  10002340 f   CWString.obj
 0001:00001370       ?cw_dup@@YGXPBDAAHAAPA_W1@Z 10002370 f   CWString.obj
 0001:00001430       ?cw_dup@@YGXPB_WAAHAAPAD1@Z 10002430 f   CWString.obj
 0001:000014e0       ?DupChar@_CW@@AAEXXZ       100024e0 f   CWString.obj
 0001:00001530       ?DupWide@_CW@@AAEXXZ       10002530 f   CWString.obj
 0001:00001580       ?GetCharsMbcs@_CW@@QAEHXZ  10002580 f   CWString.obj
 0001:000015e0       ?GetCharsWide@_CW@@QAEHXZ  100025e0 f   CWString.obj
 0001:00001640       ?SetVARIANT_BOOL@OposVariant@@QAEXF@Z 10002640 f   OposVariant.obj
 0001:000016a0       ?SetVARIANT_BOOL_Ptr@OposVariant@@QAEXPAFAAJ@Z 100026a0 f   OposVariant.obj
 0001:000016f0       ?GetLONG@OposVariant@@QAEJXZ 100026f0 f   OposVariant.obj
 0001:00001780       ?ChangeLONG@OposVariant@@QAEXPAJAAJ@Z 10002780 f   OposVariant.obj
 0001:00001840       ?SetLONG@OposVariant@@QAEXJ@Z 10002840 f   OposVariant.obj
 0001:00001880       ?SetLONG_Ptr@OposVariant@@QAEXPAJAAJ@Z 10002880 f   OposVariant.obj
 0001:000018d0       ?ChangeCURRENCY@OposVariant@@QAEXPATtagCY@@AAJ@Z 100028d0 f   OposVariant.obj
 0001:00001990       ?SetCURRENCY@OposVariant@@QAEXTtagCY@@@Z 10002990 f   OposVariant.obj
 0001:000019d0       ?SetCURRENCY_Ptr@OposVariant@@QAEXPATtagCY@@AAJ@Z 100029d0 f   OposVariant.obj
 0001:00001a20       ?ChangeBSTR@OposVariant@@QAEXPAPA_WAAJ@Z 10002a20 f   OposVariant.obj
 0001:00001ae0       ?SetBSTR@OposVariant@@QAEXPA_WAAJ@Z 10002ae0 f   OposVariant.obj
 0001:00001b30       ?SetBSTR_Copy@OposVariant@@QAEXPA_WAAJ@Z 10002b30 f   OposVariant.obj
 0001:00001bd0       ?SetBSTR_OutPtr@OposVariant@@QAE_NPAPA_WAAJ@Z 10002bd0 f   OposVariant.obj
 0001:00001c20       ?SetBSTR_InOutPtr@OposVariant@@QAE_NPAPA_WAAJ@Z 10002c20 f   OposVariant.obj
 0001:00001c70       ?SetVARIANT@OposVariant@@QAEXAAUtagVARIANT@@GAAJ@Z 10002c70 f   OposVariant.obj
 0001:00001cf0       ?SetVARIANT_Ptr@OposVariant@@QAEXAAPAUtagVARIANT@@GAAJ@Z 10002cf0 f   OposVariant.obj
 0001:00001d90       ?SetString@OposVariant@@QAEXPB_WAAJ@Z 10002d90 f   OposVariant.obj
 0001:00001e20       ?SetDispatch_Ptr@OposVariant@@QAEXPAUIDispatch@@AAJ@Z 10002e20 f   OposVariant.obj
 0001:00001e90       ??0OposDispParms@@QAE@PAVOposVariant@@H@Z 10002e90 f   OposVariant.obj
 0001:00001f60       ??1OposDispParms@@QAE@XZ   10002f60 f   OposVariant.obj
 0001:00001fb0       ??$AtlMultiply@I@ATL@@YAJPAIII@Z 10002fb0 f i OposVariant.obj
 0001:00002010       ??0?$CHeapPtr@_WVCCRTAllocator@ATL@@@ATL@@QAE@XZ 10003010 f i OposVariant.obj
 0001:00002040       ??0?$CHeapPtrBase@_WVCCRTAllocator@ATL@@@ATL@@IAE@XZ 10003040 f i OposVariant.obj
 0001:00002060       ??0?$CSimpleArray@GV?$CSimpleArrayEqualHelper@G@ATL@@@ATL@@QAE@XZ 10003060 f i OposVariant.obj
 0001:000020a0       ??0?$CTraceCategoryEx@$00$0A@@ATL@@QAE@PB_W@Z 100030a0 f i OposVariant.obj
 0001:000020d0       ??0?$CTraceCategoryEx@$01$0A@@ATL@@QAE@PB_W@Z 100030d0 f i OposVariant.obj
 0001:00002100       ??0?$CTraceCategoryEx@$03$0A@@ATL@@QAE@PB_W@Z 10003100 f i OposVariant.obj
 0001:00002130       ??0?$CTraceCategoryEx@$07$0A@@ATL@@QAE@PB_W@Z 10003130 f i OposVariant.obj
 0001:00002160       ??0?$CTraceCategoryEx@$0BA@$0A@@ATL@@QAE@PB_W@Z 10003160 f i OposVariant.obj
 0001:00002190       ??0?$CTraceCategoryEx@$0BAA@$0A@@ATL@@QAE@PB_W@Z 10003190 f i OposVariant.obj
 0001:000021d0       ??0?$CTraceCategoryEx@$0BAAA@$0A@@ATL@@QAE@PB_W@Z 100031d0 f i OposVariant.obj
 0001:00002210       ??0?$CTraceCategoryEx@$0BAAAA@$0A@@ATL@@QAE@PB_W@Z 10003210 f i OposVariant.obj
 0001:00002250       ??0?$CTraceCategoryEx@$0BAAAAA@$0A@@ATL@@QAE@PB_W@Z 10003250 f i OposVariant.obj
 0001:00002290       ??0?$CTraceCategoryEx@$0CA@$0A@@ATL@@QAE@PB_W@Z 10003290 f i OposVariant.obj
 0001:000022c0       ??0?$CTraceCategoryEx@$0CAA@$0A@@ATL@@QAE@PB_W@Z 100032c0 f i OposVariant.obj
 0001:00002300       ??0?$CTraceCategoryEx@$0CAAA@$0A@@ATL@@QAE@PB_W@Z 10003300 f i OposVariant.obj
 0001:00002340       ??0?$CTraceCategoryEx@$0CAAAA@$0A@@ATL@@QAE@PB_W@Z 10003340 f i OposVariant.obj
 0001:00002380       ??0?$CTraceCategoryEx@$0CAAAAA@$0A@@ATL@@QAE@PB_W@Z 10003380 f i OposVariant.obj
 0001:000023c0       ??0?$CTraceCategoryEx@$0EA@$0A@@ATL@@QAE@PB_W@Z 100033c0 f i OposVariant.obj
 0001:000023f0       ??0?$CTraceCategoryEx@$0EAA@$0A@@ATL@@QAE@PB_W@Z 100033f0 f i OposVariant.obj
 0001:00002430       ??0?$CTraceCategoryEx@$0EAAA@$0A@@ATL@@QAE@PB_W@Z 10003430 f i OposVariant.obj
 0001:00002470       ??0?$CTraceCategoryEx@$0EAAAA@$0A@@ATL@@QAE@PB_W@Z 10003470 f i OposVariant.obj
 0001:000024b0       ??0?$CTraceCategoryEx@$0EAAAAA@$0A@@ATL@@QAE@PB_W@Z 100034b0 f i OposVariant.obj
 0001:000024f0       ??0?$CTraceCategoryEx@$0IA@$0A@@ATL@@QAE@PB_W@Z 100034f0 f i OposVariant.obj
 0001:00002530       ??0?$CTraceCategoryEx@$0IAA@$0A@@ATL@@QAE@PB_W@Z 10003530 f i OposVariant.obj
 0001:00002570       ??0?$CTraceCategoryEx@$0IAAA@$0A@@ATL@@QAE@PB_W@Z 10003570 f i OposVariant.obj
 0001:000025b0       ??0?$CTraceCategoryEx@$0IAAAA@$0A@@ATL@@QAE@PB_W@Z 100035b0 f i OposVariant.obj
 0001:000025f0       ??0CAtlComModule@ATL@@QAE@XZ 100035f0 f i OposVariant.obj
 0001:000026d0       ??0CAtlWinModule@ATL@@QAE@XZ 100036d0 f i OposVariant.obj
 0001:00002760       ??0CComCriticalSection@ATL@@QAE@XZ 10003760 f i OposVariant.obj
 0001:00002790       ??0CPreserveLastError@ATL@@QAE@XZ 10003790 f i OposVariant.obj
 0001:000027d0       ??0CTraceFileAndLineInfo@ATL@@QAE@PBDH@Z 100037d0 f i OposVariant.obj
 0001:00002800       ??0_ATL_COM_MODULE70@ATL@@QAE@XZ 10003800 f i OposVariant.obj
 0001:00002830       ??0_ATL_WIN_MODULE70@ATL@@QAE@XZ 10003830 f i OposVariant.obj
 0001:00002870       ??1?$CHeapPtr@_WVCCRTAllocator@ATL@@@ATL@@QAE@XZ 10003870 f i OposVariant.obj
 0001:000028a0       ??1?$CHeapPtrBase@_WVCCRTAllocator@ATL@@@ATL@@QAE@XZ 100038a0 f i OposVariant.obj
 0001:000028d0       ??1?$CSimpleArray@GV?$CSimpleArrayEqualHelper@G@ATL@@@ATL@@QAE@XZ 100038d0 f i OposVariant.obj
 0001:00002900       ??1CAtlComModule@ATL@@QAE@XZ 10003900 f i OposVariant.obj
 0001:00002930       ??1CAtlWinModule@ATL@@QAE@XZ 10003930 f i OposVariant.obj
 0001:00002960       ??1CComBSTR@ATL@@QAE@XZ    10003960 f i OposVariant.obj
 0001:000029a0       ??1CComCriticalSection@ATL@@QAE@XZ 100039a0 f i OposVariant.obj
 0001:000029c0       ??1CPreserveLastError@ATL@@QAE@XZ 100039c0 f i OposVariant.obj
 0001:00002a00       ??1_ATL_COM_MODULE70@ATL@@QAE@XZ 10003a00 f i OposVariant.obj
 0001:00002a30       ??1_ATL_WIN_MODULE70@ATL@@QAE@XZ 10003a30 f i OposVariant.obj
 0001:00002a70       ??1stringdispid@CComTypeInfoHolder@ATL@@QAE@XZ 10003a70 f i OposVariant.obj
 0001:00002aa0       ??A?$CSimpleArray@GV?$CSimpleArrayEqualHelper@G@ATL@@@ATL@@QAEAAGH@Z 10003aa0 f i OposVariant.obj
 0001:00002b20       ??B?$CHeapPtrBase@_WVCCRTAllocator@ATL@@@ATL@@QBEPA_WXZ 10003b20 f i OposVariant.obj
 0001:00002b40       ??B?$CTraceCategoryEx@$01$0A@@ATL@@QAEIXZ 10003b40 f i OposVariant.obj
 0001:00002b60       ??B?$CTraceCategoryEx@$0CA@$0A@@ATL@@QAEIXZ 10003b60 f i OposVariant.obj
 0001:00002b80       ??RCTraceFileAndLineInfo@ATL@@QBAXHIPB_WZZ 10003b80 f i OposVariant.obj
 0001:00002c20       ??_Estringdispid@CComTypeInfoHolder@ATL@@QAEPAXI@Z 10003c20 f i OposVariant.obj
 0001:00002cb0       ??_H@YGXPAXIIP6EPAX0@Z@Z   10003cb0 f i OposVariant.obj
 0001:00002d20       ??_I@YGXPAXIIP6EX0@Z@Z     10003d20 f i OposVariant.obj
 0001:00002da0       ?Allocate@?$CHeapPtr@_WVCCRTAllocator@ATL@@@ATL@@QAE_NI@Z 10003da0 f i OposVariant.obj
 0001:00002e30       ?Allocate@CCRTAllocator@ATL@@SAPAXI@Z 10003e30 f i OposVariant.obj
 0001:00002e50       ?AllocateBytes@?$CHeapPtrBase@_WVCCRTAllocator@ATL@@@ATL@@QAE_NI@Z 10003e50 f i OposVariant.obj
 0001:00002ec0       ?AtlWinModuleInit@ATL@@YGJPAU_ATL_WIN_MODULE70@1@@Z 10003ec0 f i OposVariant.obj
 0001:00002f90       ?AtlWinModuleTerm@ATL@@YGJPAU_ATL_WIN_MODULE70@1@PAUHINSTANCE__@@@Z 10003f90 f i OposVariant.obj
 0001:00003050       ?Clear@OposVariant@@QAEJXZ 10004050 f i OposVariant.obj
 0001:00003090       ?Free@?$CHeapPtrBase@_WVCCRTAllocator@ATL@@@ATL@@QAEXXZ 10004090 f i OposVariant.obj
 0001:000030d0       ?Free@CCRTAllocator@ATL@@SAXPAX@Z 100040d0 f i OposVariant.obj
 0001:000030f0       ?GetCategoryName@CTrace@ATL@@CAPA_WI@Z 100040f0 f i OposVariant.obj
 0001:00003140       ?GetModuleInstance@CAtlBaseModule@ATL@@QAEPAUHINSTANCE__@@XZ 10004140 f i OposVariant.obj
 0001:00003160       ?GetSize@?$CSimpleArray@GV?$CSimpleArrayEqualHelper@G@ATL@@@ATL@@QBEHXZ 10004160 f i OposVariant.obj
 0001:00003180       ?Init@CComCriticalSection@ATL@@QAEJXZ 10004180 f i OposVariant.obj
 0001:000031e0       ?RegisterCategory@CTrace@ATL@@SAXPB_WI@Z 100041e0 f i OposVariant.obj
 0001:00003270       ?RemoveAll@?$CSimpleArray@GV?$CSimpleArrayEqualHelper@G@ATL@@@ATL@@QAEXXZ 10004270 f i OposVariant.obj
 0001:000032f0       ?Term@CAtlComModule@ATL@@QAEXXZ 100042f0 f i OposVariant.obj
 0001:000033b0       ?Term@CAtlWinModule@ATL@@QAEXXZ 100043b0 f i OposVariant.obj
 0001:000033e0       ?Term@CComCriticalSection@ATL@@QAEJXZ 100043e0 f i OposVariant.obj
 0001:00003420       ?TraceV@CTrace@ATL@@CAXPBDHIIPB_W@Z 10004420 f i OposVariant.obj
 0001:000036a0       ?TraceV@CTrace@ATL@@SAXPBDHIIPB_WPAD@Z 100046a0 f i OposVariant.obj
 0001:000037e0       ?_AtlInitializeCriticalSectionEx@ATL@@YAHPAU_RTL_CRITICAL_SECTION@@KK@Z 100047e0 f i OposVariant.obj
 0001:00003810       ?_AtlRaiseException@ATL@@YAXKK@Z 10004810 f i OposVariant.obj
 0001:00003840       _HRESULT_FROM_WIN32        10004840 f i OposVariant.obj
 0001:00003880       __vswprintf_s_l            10004880 f i OposVariant.obj
 0001:000038f0       _swprintf_s                100048f0 f i OposVariant.obj
 0001:00003950       ?CreateInstance@?$CComCreator@V?$CComObjectCached@VCComClassFactory@ATL@@@ATL@@@ATL@@SGJPAXABU_GUID@@PAPAX@Z 10004950 f i BumpBar.obj
 0001:00003ae0       ?CreateInstance@?$CComCreator2@V?$CComCreator@V?$CComObject@VCOPOSBumpBar@@@ATL@@@ATL@@V?$CComCreator@V?$CComAggObject@VCOPOSBumpBar@@@ATL@@@2@@ATL@@SGJPAXABU_GUID@@PAPAX@Z 10004ae0 f i BumpBar.obj
 0001:00003b60       ?ObjectMain@CComObjectRootBase@ATL@@SGX_N@Z 10004b60 f i BumpBar.obj
 0001:00003b70       ?GetCategoryMap@CComObjectRootBase@ATL@@SAPBU_ATL_CATMAP_ENTRY@2@XZ 10004b70 f i BumpBar.obj
 0001:00003b80       ?GetObjectDescription@?$CComCoClass@VCOPOSBumpBar@@$1?CLSID_OPOSBumpBar@@3U_GUID@@B@ATL@@SGPB_WXZ 10004b80 f i BumpBar.obj
 0001:00003b90       ?UpdateRegistry@COPOSBumpBar@@SGJH@Z 10004b90 f i BumpBar.obj
 0001:00003ce0       _DllGetClassObject@12      10004ce0 f   BumpBar.obj
 0001:00003d10       _DllCanUnloadNow@0         10004d10 f   BumpBar.obj
 0001:00003d50       _DllRegisterServer@0       10004d50 f   BumpBar.obj
 0001:00003d70       _DllUnregisterServer@0     10004d70 f   BumpBar.obj
 0001:00003f00       _DllMain@12                10004f00 f   BumpBar.obj
 0001:00003f60       ??$?2G@Wrapper@?$CSimpleArray@GV?$CSimpleArrayEqualHelper@G@ATL@@@ATL@@SAPAXIPAG@Z 10004f60 f i BumpBar.obj
 0001:00003f70       ??$?2PA_W@?$Wrapper@PA_W@?$CSimpleMap@PA_WPA_WVCExpansionVectorEqualHelper@ATL@@@ATL@@SAPAXIPAPA_W@Z 10004f70 f i BumpBar.obj
 0001:00003f80       ??$?4UITypeInfo2@@@?$CComPtr@UITypeInfo@@@ATL@@QAEPAUITypeInfo@@ABV?$CComPtr@UITypeInfo2@@@1@@Z 10004f80 f i BumpBar.obj
 0001:00003fe0       ??$AtlAdd@K@ATL@@YAJPAKKK@Z 10004fe0 f i BumpBar.obj
 0001:00004020       ??$AtlAdd@_K@ATL@@YAJPA_K_K1@Z 10005020 f i BumpBar.obj
 0001:00004090       ??$AtlAddThrow@K@ATL@@YAKKK@Z 10005090 f i BumpBar.obj
 0001:00004110       ??$AtlModuleRegisterWndClassInfoT@VAtlModuleRegisterWndClassInfoParamW@ATL@@@ATL@@YAGPAU_ATL_BASE_MODULE70@0@PAU_ATL_WIN_MODULE70@0@PAU_ATL_WNDCLASSINFOW@0@PAP6GJPAUHWND__@@IIJ@ZVAtlModuleRegisterWndClassInfoParamW@0@@Z 10005110 f i BumpBar.obj
 0001:00004520       ??$AtlMultiply@H@ATL@@YAJPAHHH@Z 10005520 f i BumpBar.obj
 0001:000045a0       ??$AtlMultiply@K@ATL@@YAJPAKKK@Z 100055a0 f i BumpBar.obj
 0001:00004600       ??$AtlMultiplyThrow@I@ATL@@YAIII@Z 10005600 f i BumpBar.obj
 0001:00004680       ??$QueryInterface@UIPersistStream@@@IUnknown@@QAGJPAPAUIPersistStream@@@Z 10005680 f i BumpBar.obj
 0001:000046b0       ??$QueryInterface@UITypeInfo2@@@IUnknown@@QAGJPAPAUITypeInfo2@@@Z 100056b0 f i BumpBar.obj
 0001:000046e0       ??0?$CAtlModuleT@VCComModule@ATL@@@ATL@@QAE@XZ 100056e0 f i BumpBar.obj
 0001:00004710       ??0?$CAtlSafeAllocBufferManager@VCCRTAllocator@ATL@@@_ATL_SAFE_ALLOCA_IMPL@ATL@@QAE@XZ 10005710 f i BumpBar.obj
 0001:00004730       ??0?$CAutoVectorPtr@_W@ATL@@QAE@XZ 10005730 f i BumpBar.obj
 0001:00004750       ??0?$CComAggObject@VCOPOSBumpBar@@@ATL@@QAE@PAX@Z 10005750 f i BumpBar.obj
 0001:000047c0       ??0?$CComContainedObject@VCOPOSBumpBar@@@ATL@@QAE@PAX@Z 100057c0 f i BumpBar.obj
 0001:000048d0       ??0?$CComCritSecLock@VCComCriticalSection@ATL@@@ATL@@QAE@AAVCComCriticalSection@1@_N@Z 100058d0 f i BumpBar.obj
 0001:00004930       ??0?$CComEnum@UIEnumConnectionPoints@@$1?_GUID_b196b285_bab4_101a_b69c_00aa00341d07@@3U__s_GUID@@BPAUIConnectionPoint@@V?$_CopyInterface@UIConnectionPoint@@@ATL@@VCComSingleThreadModel@6@@ATL@@QAE@XZ 10005930 f i BumpBar.obj
 0001:00004970       ??0?$CComEnum@UIEnumConnections@@$1?_GUID_b196b287_bab4_101a_b69c_00aa00341d07@@3U__s_GUID@@BUtagCONNECTDATA@@V?$_Copy@UtagCONNECTDATA@@@ATL@@VCComSingleThreadModel@6@@ATL@@QAE@XZ 10005970 f i BumpBar.obj
 0001:000049b0       ??0?$CComEnumImpl@UIEnumConnectionPoints@@$1?_GUID_b196b285_bab4_101a_b69c_00aa00341d07@@3U__s_GUID@@BPAUIConnectionPoint@@V?$_CopyInterface@UIConnectionPoint@@@ATL@@@ATL@@QAE@XZ 100059b0 f i BumpBar.obj
 0001:00004a10       ??0?$CComEnumImpl@UIEnumConnections@@$1?_GUID_b196b287_bab4_101a_b69c_00aa00341d07@@3U__s_GUID@@BUtagCONNECTDATA@@V?$_Copy@UtagCONNECTDATA@@@ATL@@@ATL@@QAE@XZ 10005a10 f i BumpBar.obj
 0001:00004a70       ??0?$CComObject@V?$CComEnum@UIEnumConnectionPoints@@$1?_GUID_b196b285_bab4_101a_b69c_00aa00341d07@@3U__s_GUID@@BPAUIConnectionPoint@@V?$_CopyInterface@UIConnectionPoint@@@ATL@@VCComSingleThreadModel@6@@ATL@@@ATL@@QAE@PAX@Z 10005a70 f i BumpBar.obj
 0001:00004ac0       ??0?$CComObject@V?$CComEnum@UIEnumConnections@@$1?_GUID_b196b287_bab4_101a_b69c_00aa00341d07@@3U__s_GUID@@BUtagCONNECTDATA@@V?$_Copy@UtagCONNECTDATA@@@ATL@@VCComSingleThreadModel@6@@ATL@@@ATL@@QAE@PAX@Z 10005ac0 f i BumpBar.obj
 0001:00004b10       ??0?$CComObject@VCOPOSBumpBar@@@ATL@@QAE@PAX@Z 10005b10 f i BumpBar.obj
 0001:00004c30       ??0?$CComObjectCached@VCComClassFactory@ATL@@@ATL@@QAE@PAX@Z 10005c30 f i BumpBar.obj
 0001:00004c70       ??0?$CComObjectRootEx@VCComMultiThreadModel@ATL@@@ATL@@QAE@XZ 10005c70 f i BumpBar.obj
 0001:00004cb0       ??0?$CComObjectRootEx@VCComSingleThreadModel@ATL@@@ATL@@QAE@XZ 10005cb0 f i BumpBar.obj
 0001:00004ce0       ??0?$CComPtr@UIAdviseSink@@@ATL@@QAE@PAUIAdviseSink@@@Z 10005ce0 f i BumpBar.obj
 0001:00004d10       ??0?$CComPtr@UICatRegister@@@ATL@@QAE@XZ 10005d10 f i BumpBar.obj
 0001:00004d40       ??0?$CComPtr@UIConnectionPoint@@@ATL@@QAE@XZ 10005d40 f i BumpBar.obj
 0001:00004d70       ??0?$CComPtr@UIConnectionPointContainer@@@ATL@@QAE@XZ 10005d70 f i BumpBar.obj
 0001:00004da0       ??0?$CComPtr@UIDataObject@@@ATL@@QAE@XZ 10005da0 f i BumpBar.obj
 0001:00004dd0       ??0?$CComPtr@UIDispatch@@@ATL@@QAE@XZ 10005dd0 f i BumpBar.obj
 0001:00004e00       ??0?$CComPtr@UIOleClientSite@@@ATL@@QAE@PAUIOleClientSite@@@Z 10005e00 f i BumpBar.obj
 0001:00004e30       ??0?$CComPtr@UIOleControlSite@@@ATL@@QAE@XZ 10005e30 f i BumpBar.obj
 0001:00004e60       ??0?$CComPtr@UIOleInPlaceActiveObject@@@ATL@@QAE@XZ 10005e60 f i BumpBar.obj
 0001:00004e90       ??0?$CComPtr@UIOleInPlaceFrame@@@ATL@@QAE@XZ 10005e90 f i BumpBar.obj
 0001:00004ec0       ??0?$CComPtr@UIOleInPlaceObject@@@ATL@@QAE@XZ 10005ec0 f i BumpBar.obj
 0001:00004ef0       ??0?$CComPtr@UIOleInPlaceUIWindow@@@ATL@@QAE@XZ 10005ef0 f i BumpBar.obj
 0001:00004f20       ??0?$CComPtr@UIOleObject@@@ATL@@QAE@XZ 10005f20 f i BumpBar.obj
 0001:00004f50       ??0?$CComPtr@UIPersistStream@@@ATL@@QAE@XZ 10005f50 f i BumpBar.obj
 0001:00004f80       ??0?$CComPtr@UIPersistStreamInit@@@ATL@@QAE@XZ 10005f80 f i BumpBar.obj
 0001:00004fb0       ??0?$CComPtr@UIPointerInactive@@@ATL@@QAE@XZ 10005fb0 f i BumpBar.obj
 0001:00004fe0       ??0?$CComPtr@UIProvideClassInfo2@@@ATL@@QAE@XZ 10005fe0 f i BumpBar.obj
 0001:00005010       ??0?$CComPtr@UISpecifyPropertyPages@@@ATL@@QAE@XZ 10006010 f i BumpBar.obj
 0001:00005040       ??0?$CComPtr@UIStream@@@ATL@@QAE@XZ 10006040 f i BumpBar.obj
 0001:00005070       ??0?$CComPtr@UITypeInfo2@@@ATL@@QAE@XZ 10006070 f i BumpBar.obj
 0001:000050a0       ??0?$CComPtr@UITypeInfo@@@ATL@@QAE@ABV01@@Z 100060a0 f i BumpBar.obj
 0001:000050d0       ??0?$CComPtr@UITypeInfo@@@ATL@@QAE@XZ 100060d0 f i BumpBar.obj
 0001:00005100       ??0?$CComPtr@UITypeLib@@@ATL@@QAE@XZ 10006100 f i BumpBar.obj
 0001:00005130       ??0?$CComPtr@UIUnknown@@@ATL@@QAE@ABV01@@Z 10006130 f i BumpBar.obj
 0001:00005160       ??0?$CComPtr@UIUnknown@@@ATL@@QAE@PAUIUnknown@@@Z 10006160 f i BumpBar.obj
 0001:00005190       ??0?$CComPtr@UIUnknown@@@ATL@@QAE@XZ 10006190 f i BumpBar.obj
 0001:000051c0       ??0?$CComPtr@UIViewObjectEx@@@ATL@@QAE@XZ 100061c0 f i BumpBar.obj
 0001:000051f0       ??0?$CComPtrBase@UIAdviseSink@@@ATL@@IAE@PAUIAdviseSink@@@Z 100061f0 f i BumpBar.obj
 0001:00005240       ??0?$CComPtrBase@UICatRegister@@@ATL@@IAE@XZ 10006240 f i BumpBar.obj
 0001:00005260       ??0?$CComPtrBase@UIConnectionPoint@@@ATL@@IAE@XZ 10006260 f i BumpBar.obj
 0001:00005280       ??0?$CComPtrBase@UIConnectionPointContainer@@@ATL@@IAE@XZ 10006280 f i BumpBar.obj
 0001:000052a0       ??0?$CComPtrBase@UIDataObject@@@ATL@@IAE@XZ 100062a0 f i BumpBar.obj
 0001:000052c0       ??0?$CComPtrBase@UIDispatch@@@ATL@@IAE@XZ 100062c0 f i BumpBar.obj
 0001:000052e0       ??0?$CComPtrBase@UIOleClientSite@@@ATL@@IAE@PAUIOleClientSite@@@Z 100062e0 f i BumpBar.obj
 0001:00005330       ??0?$CComPtrBase@UIOleControlSite@@@ATL@@IAE@XZ 10006330 f i BumpBar.obj
 0001:00005350       ??0?$CComPtrBase@UIOleInPlaceActiveObject@@@ATL@@IAE@XZ 10006350 f i BumpBar.obj
 0001:00005370       ??0?$CComPtrBase@UIOleInPlaceFrame@@@ATL@@IAE@XZ 10006370 f i BumpBar.obj
 0001:00005390       ??0?$CComPtrBase@UIOleInPlaceObject@@@ATL@@IAE@XZ 10006390 f i BumpBar.obj
 0001:000053b0       ??0?$CComPtrBase@UIOleInPlaceUIWindow@@@ATL@@IAE@XZ 100063b0 f i BumpBar.obj
 0001:000053d0       ??0?$CComPtrBase@UIOleObject@@@ATL@@IAE@XZ 100063d0 f i BumpBar.obj
 0001:000053f0       ??0?$CComPtrBase@UIPersistStream@@@ATL@@IAE@XZ 100063f0 f i BumpBar.obj
 0001:00005410       ??0?$CComPtrBase@UIPersistStreamInit@@@ATL@@IAE@XZ 10006410 f i BumpBar.obj
 0001:00005430       ??0?$CComPtrBase@UIPointerInactive@@@ATL@@IAE@XZ 10006430 f i BumpBar.obj
 0001:00005450       ??0?$CComPtrBase@UIProvideClassInfo2@@@ATL@@IAE@XZ 10006450 f i BumpBar.obj
 0001:00005470       ??0?$CComPtrBase@UISpecifyPropertyPages@@@ATL@@IAE@XZ 10006470 f i BumpBar.obj
 0001:00005490       ??0?$CComPtrBase@UIStream@@@ATL@@IAE@XZ 10006490 f i BumpBar.obj
 0001:000054b0       ??0?$CComPtrBase@UITypeInfo2@@@ATL@@IAE@XZ 100064b0 f i BumpBar.obj
 0001:000054d0       ??0?$CComPtrBase@UITypeInfo@@@ATL@@IAE@PAUITypeInfo@@@Z 100064d0 f i BumpBar.obj
 0001:00005520       ??0?$CComPtrBase@UITypeInfo@@@ATL@@IAE@XZ 10006520 f i BumpBar.obj
 0001:00005540       ??0?$CComPtrBase@UITypeLib@@@ATL@@IAE@XZ 10006540 f i BumpBar.obj
 0001:00005560       ??0?$CComPtrBase@UIUnknown@@@ATL@@IAE@PAUIUnknown@@@Z 10006560 f i BumpBar.obj
 0001:000055b0       ??0?$CComPtrBase@UIUnknown@@@ATL@@IAE@XZ 100065b0 f i BumpBar.obj
 0001:000055d0       ??0?$CComPtrBase@UIViewObjectEx@@@ATL@@IAE@XZ 100065d0 f i BumpBar.obj
 0001:000055f0       ??0?$CComQIPtr@UIOleControlSite@@$1?_GUID_b196b289_bab4_101a_b69c_00aa00341d07@@3U__s_GUID@@B@ATL@@QAE@PAUIUnknown@@@Z 100065f0 f i BumpBar.obj
 0001:00005650       ??0?$CComQIPtr@UIOleObject@@$1?_GUID_00000112_0000_0000_c000_000000000046@@3U__s_GUID@@B@ATL@@QAE@XZ 10006650 f i BumpBar.obj
 0001:00005680       ??0?$CComQIPtr@UISpecifyPropertyPages@@$1?_GUID_b196b28b_bab4_101a_b69c_00aa00341d07@@3U__s_GUID@@B@ATL@@QAE@XZ 10006680 f i BumpBar.obj
 0001:000056b0       ??0?$CSimpleMap@PA_WPA_WVCExpansionVectorEqualHelper@ATL@@@ATL@@QAE@XZ 100066b0 f i BumpBar.obj
 0001:000056f0       ??0?$CTempBuffer@E$0BAA@VCCRTAllocator@ATL@@@ATL@@QAE@XZ 100066f0 f i BumpBar.obj
 0001:00005710       ??0?$CTempBuffer@_W$0BAA@VCCRTAllocator@ATL@@@ATL@@QAE@XZ 10006710 f i BumpBar.obj
 0001:00005730       ??0?$CTempBuffer@_W$0EAA@VCCRTAllocator@ATL@@@ATL@@QAE@XZ 10006730 f i BumpBar.obj
 0001:00005750       ??0?$Wrapper@PA_W@?$CSimpleMap@PA_WPA_WVCExpansionVectorEqualHelper@ATL@@@ATL@@QAE@ABQA_W@Z 10006750 f i BumpBar.obj
 0001:00005780       ??0CAtlModule@ATL@@QAE@XZ  10006780 f i BumpBar.obj
 0001:000058a0       ??0CComAutoDeleteCriticalSection@ATL@@QAE@XZ 100068a0 f i BumpBar.obj
 0001:000058d0       ??0CComBSTR@ATL@@QAE@XZ    100068d0 f i BumpBar.obj
 0001:000058f0       ??0CComClassFactory@ATL@@QAE@XZ 100068f0 f i BumpBar.obj
 0001:00005930       ??0CComModule@ATL@@QAE@XZ  10006930 f i BumpBar.obj
 0001:000059a0       ??0CComObjectRootBase@ATL@@QAE@XZ 100069a0 f i BumpBar.obj
 0001:000059c0       ??0CComSafeDeleteCriticalSection@ATL@@QAE@XZ 100069c0 f i BumpBar.obj
 0001:000059f0       ??0CComVariant@ATL@@QAE@XZ 100069f0 f i BumpBar.obj
 0001:00005a40       ??0CExpansionVector@ATL@@QAE@XZ 10006a40 f i BumpBar.obj
 0001:00005a70       ??0CParseBuffer@CRegParser@ATL@@QAE@H@Z 10006a70 f i BumpBar.obj
 0001:00005ae0       ??0CRegKey@ATL@@QAE@PAUHKEY__@@@Z 10006ae0 f i BumpBar.obj
 0001:00005b20       ??0CRegKey@ATL@@QAE@PAVCAtlTransactionManager@1@@Z 10006b20 f i BumpBar.obj
 0001:00005b60       ??0CRegObject@ATL@@QAE@XZ  10006b60 f i BumpBar.obj
 0001:00005ba0       ??0CRegParser@ATL@@QAE@PAVCRegObject@1@@Z 10006ba0 f i BumpBar.obj
 0001:00005bd0       ??0IClassFactory@@QAE@XZ   10006bd0 f i BumpBar.obj
 0001:00005c00       ??0IEnumConnectionPoints@@QAE@XZ 10006c00 f i BumpBar.obj
 0001:00005c30       ??0IEnumConnections@@QAE@XZ 10006c30 f i BumpBar.obj
 0001:00005c60       ??0IRegistrarBase@@QAE@XZ  10006c60 f i BumpBar.obj
 0001:00005c90       ??0IUnknown@@QAE@XZ        10006c90 f i BumpBar.obj
 0001:00005cb0       ??0ModuleLockHelper@ATL@@QAE@XZ 10006cb0 f i BumpBar.obj
 0001:00005cf0       ??0OposVariant@@QAE@XZ     10006cf0 f i BumpBar.obj
 0001:00005d20       ??0Wrapper@?$CSimpleArray@GV?$CSimpleArrayEqualHelper@G@ATL@@@ATL@@QAE@ABG@Z 10006d20 f i BumpBar.obj
 0001:00005d50       ??0_ATL_MODULE70@ATL@@QAE@XZ 10006d50 f i BumpBar.obj
 0001:00005d80       ??0_ATL_MSG@ATL@@QAE@PAUHWND__@@IIJH@Z 10006d80 f i BumpBar.obj
 0001:00005df0       ??0_U_MENUorID@ATL@@QAE@I@Z 10006df0 f i BumpBar.obj
 0001:00005e10       ??0_U_RECT@ATL@@QAE@AAUtagRECT@@@Z 10006e10 f i BumpBar.obj
 0001:00005e30       ??0stringdispid@CComTypeInfoHolder@ATL@@QAE@XZ 10006e30 f i BumpBar.obj
 0001:00005e70       ??1?$CAtlModuleT@VCComModule@ATL@@@ATL@@UAE@XZ 10006e70 f i BumpBar.obj
 0001:00005ea0       ??1?$CAtlSafeAllocBufferManager@VCCRTAllocator@ATL@@@_ATL_SAFE_ALLOCA_IMPL@ATL@@QAE@XZ 10006ea0 f i BumpBar.obj
 0001:00005ef0       ??1?$CAutoVectorPtr@_W@ATL@@QAE@XZ 10006ef0 f i BumpBar.obj
 0001:00005f20       ??1?$CComAggObject@VCOPOSBumpBar@@@ATL@@UAE@XZ 10006f20 f i BumpBar.obj
 0001:00005f90       ??1?$CComContainedObject@VCOPOSBumpBar@@@ATL@@UAE@XZ 10006f90 f i BumpBar.obj
 0001:00005fc0       ??1?$CComCritSecLock@VCComCriticalSection@ATL@@@ATL@@QAE@XZ 10006fc0 f i BumpBar.obj
 0001:00005ff0       ??1?$CComEnum@UIEnumConnectionPoints@@$1?_GUID_b196b285_bab4_101a_b69c_00aa00341d07@@3U__s_GUID@@BPAUIConnectionPoint@@V?$_CopyInterface@UIConnectionPoint@@@ATL@@VCComSingleThreadModel@6@@ATL@@UAE@XZ 10006ff0 f i BumpBar.obj
 0001:00006020       ??1?$CComEnum@UIEnumConnections@@$1?_GUID_b196b287_bab4_101a_b69c_00aa00341d07@@3U__s_GUID@@BUtagCONNECTDATA@@V?$_Copy@UtagCONNECTDATA@@@ATL@@VCComSingleThreadModel@6@@ATL@@UAE@XZ 10007020 f i BumpBar.obj
 0001:00006050       ??1?$CComEnumImpl@UIEnumConnectionPoints@@$1?_GUID_b196b285_bab4_101a_b69c_00aa00341d07@@3U__s_GUID@@BPAUIConnectionPoint@@V?$_CopyInterface@UIConnectionPoint@@@ATL@@@ATL@@UAE@XZ 10007050 f i BumpBar.obj
 0001:000060e0       ??1?$CComEnumImpl@UIEnumConnections@@$1?_GUID_b196b287_bab4_101a_b69c_00aa00341d07@@3U__s_GUID@@BUtagCONNECTDATA@@V?$_Copy@UtagCONNECTDATA@@@ATL@@@ATL@@UAE@XZ 100070e0 f i BumpBar.obj
 0001:00006170       ??1?$CComObject@V?$CComEnum@UIEnumConnectionPoints@@$1?_GUID_b196b285_bab4_101a_b69c_00aa00341d07@@3U__s_GUID@@BPAUIConnectionPoint@@V?$_CopyInterface@UIConnectionPoint@@@ATL@@VCComSingleThreadModel@6@@ATL@@@ATL@@UAE@XZ 10007170 f i BumpBar.obj
 0001:000061d0       ??1?$CComObject@V?$CComEnum@UIEnumConnections@@$1?_GUID_b196b287_bab4_101a_b69c_00aa00341d07@@3U__s_GUID@@BUtagCONNECTDATA@@V?$_Copy@UtagCONNECTDATA@@@ATL@@VCComSingleThreadModel@6@@ATL@@@ATL@@UAE@XZ 100071d0 f i BumpBar.obj
 0001:00006230       ??1?$CComObject@VCOPOSBumpBar@@@ATL@@UAE@XZ 10007230 f i BumpBar.obj
 0001:00006370       ??1?$CComObjectCached@VCComClassFactory@ATL@@@ATL@@UAE@XZ 10007370 f i BumpBar.obj
 0001:000063c0       ??1?$CComObjectRootEx@VCComMultiThreadModel@ATL@@@ATL@@QAE@XZ 100073c0 f i BumpBar.obj
 0001:000063f0       ??1?$CComObjectRootEx@VCComSingleThreadModel@ATL@@@ATL@@QAE@XZ 100073f0 f i BumpBar.obj
 0001:00006420       ??1?$CComPtr@UIAdviseSink@@@ATL@@QAE@XZ 10007420 f i BumpBar.obj
 0001:00006450       ??1?$CComPtr@UICatRegister@@@ATL@@QAE@XZ 10007450 f i BumpBar.obj
 0001:00006480       ??1?$CComPtr@UIConnectionPoint@@@ATL@@QAE@XZ 10007480 f i BumpBar.obj
 0001:000064b0       ??1?$CComPtr@UIConnectionPointContainer@@@ATL@@QAE@XZ 100074b0 f i BumpBar.obj
 0001:000064e0       ??1?$CComPtr@UIDataObject@@@ATL@@QAE@XZ 100074e0 f i BumpBar.obj
 0001:00006510       ??1?$CComPtr@UIDispatch@@@ATL@@QAE@XZ 10007510 f i BumpBar.obj
 0001:00006540       ??1?$CComPtr@UIOleClientSite@@@ATL@@QAE@XZ 10007540 f i BumpBar.obj
 0001:00006570       ??1?$CComPtr@UIOleControlSite@@@ATL@@QAE@XZ 10007570 f i BumpBar.obj
 0001:000065a0       ??1?$CComPtr@UIOleInPlaceActiveObject@@@ATL@@QAE@XZ 100075a0 f i BumpBar.obj
 0001:000065d0       ??1?$CComPtr@UIOleInPlaceFrame@@@ATL@@QAE@XZ 100075d0 f i BumpBar.obj
 0001:00006600       ??1?$CComPtr@UIOleInPlaceObject@@@ATL@@QAE@XZ 10007600 f i BumpBar.obj
 0001:00006630       ??1?$CComPtr@UIOleInPlaceUIWindow@@@ATL@@QAE@XZ 10007630 f i BumpBar.obj
 0001:00006660       ??1?$CComPtr@UIOleObject@@@ATL@@QAE@XZ 10007660 f i BumpBar.obj
 0001:00006690       ??1?$CComPtr@UIPersistStream@@@ATL@@QAE@XZ 10007690 f i BumpBar.obj
 0001:000066c0       ??1?$CComPtr@UIPersistStreamInit@@@ATL@@QAE@XZ 100076c0 f i BumpBar.obj
 0001:000066f0       ??1?$CComPtr@UIPointerInactive@@@ATL@@QAE@XZ 100076f0 f i BumpBar.obj
 0001:00006720       ??1?$CComPtr@UIProvideClassInfo2@@@ATL@@QAE@XZ 10007720 f i BumpBar.obj
 0001:00006750       ??1?$CComPtr@UISpecifyPropertyPages@@@ATL@@QAE@XZ 10007750 f i BumpBar.obj
 0001:00006780       ??1?$CComPtr@UIStream@@@ATL@@QAE@XZ 10007780 f i BumpBar.obj
 0001:000067b0       ??1?$CComPtr@UITypeInfo2@@@ATL@@QAE@XZ 100077b0 f i BumpBar.obj
 0001:000067e0       ??1?$CComPtr@UITypeInfo@@@ATL@@QAE@XZ 100077e0 f i BumpBar.obj
 0001:00006810       ??1?$CComPtr@UITypeLib@@@ATL@@QAE@XZ 10007810 f i BumpBar.obj
 0001:00006840       ??1?$CComPtr@UIUnknown@@@ATL@@QAE@XZ 10007840 f i BumpBar.obj
 0001:00006870       ??1?$CComPtr@UIViewObjectEx@@@ATL@@QAE@XZ 10007870 f i BumpBar.obj
 0001:000068a0       ??1?$CComPtrBase@UIAdviseSink@@@ATL@@QAE@XZ 100078a0 f i BumpBar.obj
 0001:000068f0       ??1?$CComPtrBase@UICatRegister@@@ATL@@QAE@XZ 100078f0 f i BumpBar.obj
 0001:00006940       ??1?$CComPtrBase@UIConnectionPoint@@@ATL@@QAE@XZ 10007940 f i BumpBar.obj
 0001:00006990       ??1?$CComPtrBase@UIConnectionPointContainer@@@ATL@@QAE@XZ 10007990 f i BumpBar.obj
 0001:000069e0       ??1?$CComPtrBase@UIDataObject@@@ATL@@QAE@XZ 100079e0 f i BumpBar.obj
 0001:00006a30       ??1?$CComPtrBase@UIDispatch@@@ATL@@QAE@XZ 10007a30 f i BumpBar.obj
 0001:00006a80       ??1?$CComPtrBase@UIOleClientSite@@@ATL@@QAE@XZ 10007a80 f i BumpBar.obj
 0001:00006ad0       ??1?$CComPtrBase@UIOleControlSite@@@ATL@@QAE@XZ 10007ad0 f i BumpBar.obj
 0001:00006b20       ??1?$CComPtrBase@UIOleInPlaceActiveObject@@@ATL@@QAE@XZ 10007b20 f i BumpBar.obj
 0001:00006b70       ??1?$CComPtrBase@UIOleInPlaceFrame@@@ATL@@QAE@XZ 10007b70 f i BumpBar.obj
 0001:00006bc0       ??1?$CComPtrBase@UIOleInPlaceObject@@@ATL@@QAE@XZ 10007bc0 f i BumpBar.obj
 0001:00006c10       ??1?$CComPtrBase@UIOleInPlaceUIWindow@@@ATL@@QAE@XZ 10007c10 f i BumpBar.obj
 0001:00006c60       ??1?$CComPtrBase@UIOleObject@@@ATL@@QAE@XZ 10007c60 f i BumpBar.obj
 0001:00006cb0       ??1?$CComPtrBase@UIPersistStream@@@ATL@@QAE@XZ 10007cb0 f i BumpBar.obj
 0001:00006d00       ??1?$CComPtrBase@UIPersistStreamInit@@@ATL@@QAE@XZ 10007d00 f i BumpBar.obj
 0001:00006d50       ??1?$CComPtrBase@UIPointerInactive@@@ATL@@QAE@XZ 10007d50 f i BumpBar.obj
 0001:00006da0       ??1?$CComPtrBase@UIProvideClassInfo2@@@ATL@@QAE@XZ 10007da0 f i BumpBar.obj
 0001:00006df0       ??1?$CComPtrBase@UISpecifyPropertyPages@@@ATL@@QAE@XZ 10007df0 f i BumpBar.obj
 0001:00006e40       ??1?$CComPtrBase@UIStream@@@ATL@@QAE@XZ 10007e40 f i BumpBar.obj
 0001:00006e90       ??1?$CComPtrBase@UITypeInfo2@@@ATL@@QAE@XZ 10007e90 f i BumpBar.obj
 0001:00006ee0       ??1?$CComPtrBase@UITypeInfo@@@ATL@@QAE@XZ 10007ee0 f i BumpBar.obj
 0001:00006f30       ??1?$CComPtrBase@UITypeLib@@@ATL@@QAE@XZ 10007f30 f i BumpBar.obj
 0001:00006f80       ??1?$CComPtrBase@UIUnknown@@@ATL@@QAE@XZ 10007f80 f i BumpBar.obj
 0001:00006fd0       ??1?$CComPtrBase@UIViewObjectEx@@@ATL@@QAE@XZ 10007fd0 f i BumpBar.obj
 0001:00007020       ??1?$CComQIPtr@UIOleControlSite@@$1?_GUID_b196b289_bab4_101a_b69c_00aa00341d07@@3U__s_GUID@@B@ATL@@QAE@XZ 10008020 f i BumpBar.obj
 0001:00007050       ??1?$CComQIPtr@UIOleObject@@$1?_GUID_00000112_0000_0000_c000_000000000046@@3U__s_GUID@@B@ATL@@QAE@XZ 10008050 f i BumpBar.obj
 0001:00007080       ??1?$CComQIPtr@UISpecifyPropertyPages@@$1?_GUID_b196b28b_bab4_101a_b69c_00aa00341d07@@3U__s_GUID@@B@ATL@@QAE@XZ 10008080 f i BumpBar.obj
 0001:000070b0       ??1?$CSimpleMap@PA_WPA_WVCExpansionVectorEqualHelper@ATL@@@ATL@@QAE@XZ 100080b0 f i BumpBar.obj
 0001:000070e0       ??1?$CTempBuffer@E$0BAA@VCCRTAllocator@ATL@@@ATL@@QAE@XZ 100080e0 f i BumpBar.obj
 0001:00007120       ??1?$CTempBuffer@_W$0BAA@VCCRTAllocator@ATL@@@ATL@@QAE@XZ 10008120 f i BumpBar.obj
 0001:00007160       ??1?$CTempBuffer@_W$0EAA@VCCRTAllocator@ATL@@@ATL@@QAE@XZ 10008160 f i BumpBar.obj
 0001:000071a0       ??1CAtlModule@ATL@@UAE@XZ  100081a0 f i BumpBar.obj
 0001:000071d0       ??1CComAutoDeleteCriticalSection@ATL@@QAE@XZ 100081d0 f i BumpBar.obj
 0001:00007200       ??1CComClassFactory@ATL@@UAE@XZ 10008200 f i BumpBar.obj
 0001:00007230       ??1CComModule@ATL@@UAE@XZ  10008230 f i BumpBar.obj
 0001:00007260       ??1CComObjectRootBase@ATL@@QAE@XZ 10008260 f i BumpBar.obj
 0001:00007280       ??1CComSafeDeleteCriticalSection@ATL@@QAE@XZ 10008280 f i BumpBar.obj
 0001:000072c0       ??1CComVariant@ATL@@QAE@XZ 100082c0 f i BumpBar.obj
 0001:00007320       ??1CExpansionVector@ATL@@QAE@XZ 10008320 f i BumpBar.obj
 0001:00007350       ??1CParseBuffer@CRegParser@ATL@@QAE@XZ 10008350 f i BumpBar.obj
 0001:00007390       ??1CRegKey@ATL@@QAE@XZ     10008390 f i BumpBar.obj
 0001:000073c0       ??1CRegObject@ATL@@UAE@XZ  100083c0 f i BumpBar.obj
 0001:00007400       ??1ModuleLockHelper@ATL@@QAE@XZ 10008400 f i BumpBar.obj
 0001:00007440       ??1OposVariant@@QAE@XZ     10008440 f i BumpBar.obj
 0001:00007470       ??1_ATL_MODULE70@ATL@@QAE@XZ 10008470 f i BumpBar.obj
 0001:000074a0       ??4?$CComPtr@UIAdviseSink@@@ATL@@QAEPAUIAdviseSink@@PAU2@@Z 100084a0 f i BumpBar.obj
 0001:00007510       ??4?$CComPtr@UIOleClientSite@@@ATL@@QAEPAUIOleClientSite@@PAU2@@Z 10008510 f i BumpBar.obj
 0001:00007580       ??4?$CComPtr@UIUnknown@@@ATL@@QAEPAUIUnknown@@PAU2@@Z 10008580 f i BumpBar.obj
 0001:000075f0       ??4?$CComQIPtr@UIOleObject@@$1?_GUID_00000112_0000_0000_c000_000000000046@@3U__s_GUID@@B@ATL@@QAEPAUIOleObject@@PAUIUnknown@@@Z 100085f0 f i BumpBar.obj
 0001:00007640       ??4?$CComQIPtr@UISpecifyPropertyPages@@$1?_GUID_b196b28b_bab4_101a_b69c_00aa00341d07@@3U__s_GUID@@B@ATL@@QAEPAUISpecifyPropertyPages@@PAUIUnknown@@@Z 10008640 f i BumpBar.obj
 0001:00007690       ??7?$CComPtrBase@UIOleClientSite@@@ATL@@QBE_NXZ 10008690 f i BumpBar.obj
 0001:000076d0       ??7?$CComPtrBase@UIOleInPlaceSiteWindowless@@@ATL@@QBE_NXZ 100086d0 f i BumpBar.obj
 0001:00007710       ??7CComBSTR@ATL@@QBE_NXZ   10008710 f i BumpBar.obj
 0001:00007750       ??8?$CComPtrBase@UIAdviseSink@@@ATL@@QBE_NPAUIAdviseSink@@@Z 10008750 f i BumpBar.obj
 0001:00007790       ??8?$CComPtrBase@UIConnectionPointContainer@@@ATL@@QBE_NPAUIConnectionPointContainer@@@Z 10008790 f i BumpBar.obj
 0001:000077d0       ??8?$CComPtrBase@UIDataAdviseHolder@@@ATL@@QBE_NPAUIDataAdviseHolder@@@Z 100087d0 f i BumpBar.obj
 0001:00007810       ??8?$CComPtrBase@UIOleAdviseHolder@@@ATL@@QBE_NPAUIOleAdviseHolder@@@Z 10008810 f i BumpBar.obj
 0001:00007850       ??8?$CComPtrBase@UIOleClientSite@@@ATL@@QBE_NPAUIOleClientSite@@@Z 10008850 f i BumpBar.obj
 0001:00007890       ??8?$CComPtrBase@UIOleControlSite@@@ATL@@QBE_NPAUIOleControlSite@@@Z 10008890 f i BumpBar.obj
 0001:000078d0       ??8?$CComPtrBase@UIOleInPlaceObject@@@ATL@@QBE_NPAUIOleInPlaceObject@@@Z 100088d0 f i BumpBar.obj
 0001:00007910       ??8?$CComPtrBase@UIOleInPlaceSiteWindowless@@@ATL@@QBE_NPAUIOleInPlaceSiteWindowless@@@Z 10008910 f i BumpBar.obj
 0001:00007950       ??8?$CComPtrBase@UIOleObject@@@ATL@@QBE_NPAUIOleObject@@@Z 10008950 f i BumpBar.obj
 0001:00007990       ??8?$CComPtrBase@UIPersistStream@@@ATL@@QBE_NPAUIPersistStream@@@Z 10008990 f i BumpBar.obj
 0001:000079d0       ??8?$CComPtrBase@UIPersistStreamInit@@@ATL@@QBE_NPAUIPersistStreamInit@@@Z 100089d0 f i BumpBar.obj
 0001:00007a10       ??8?$CComPtrBase@UIPointerInactive@@@ATL@@QBE_NPAUIPointerInactive@@@Z 10008a10 f i BumpBar.obj
 0001:00007a50       ??8?$CComPtrBase@UIUnknown@@@ATL@@QBE_NPAUIUnknown@@@Z 10008a50 f i BumpBar.obj
 0001:00007a90       ??8?$CComPtrBase@UIViewObjectEx@@@ATL@@QBE_NPAUIViewObjectEx@@@Z 10008a90 f i BumpBar.obj
 0001:00007ad0       ??8CComBSTR@ATL@@QBE_NH@Z  10008ad0 f i BumpBar.obj
 0001:00007b30       ??9?$CComPtrBase@UIAdviseSink@@@ATL@@QBE_NPAUIAdviseSink@@@Z 10008b30 f i BumpBar.obj
 0001:00007b80       ??9?$CComPtrBase@UIConnectionPointContainer@@@ATL@@QBE_NPAUIConnectionPointContainer@@@Z 10008b80 f i BumpBar.obj
 0001:00007bd0       ??9?$CComPtrBase@UIDataAdviseHolder@@@ATL@@QBE_NPAUIDataAdviseHolder@@@Z 10008bd0 f i BumpBar.obj
 0001:00007c20       ??9?$CComPtrBase@UIOleAdviseHolder@@@ATL@@QBE_NPAUIOleAdviseHolder@@@Z 10008c20 f i BumpBar.obj
 0001:00007c70       ??9?$CComPtrBase@UIOleClientSite@@@ATL@@QBE_NPAUIOleClientSite@@@Z 10008c70 f i BumpBar.obj
 0001:00007cc0       ??9?$CComPtrBase@UIOleControlSite@@@ATL@@QBE_NPAUIOleControlSite@@@Z 10008cc0 f i BumpBar.obj
 0001:00007d10       ??9?$CComPtrBase@UIOleInPlaceObject@@@ATL@@QBE_NPAUIOleInPlaceObject@@@Z 10008d10 f i BumpBar.obj
 0001:00007d60       ??9?$CComPtrBase@UIOleInPlaceSiteWindowless@@@ATL@@QBE_NPAUIOleInPlaceSiteWindowless@@@Z 10008d60 f i BumpBar.obj
 0001:00007db0       ??9?$CComPtrBase@UIOleObject@@@ATL@@QBE_NPAUIOleObject@@@Z 10008db0 f i BumpBar.obj
 0001:00007e00       ??9?$CComPtrBase@UIPersistStream@@@ATL@@QBE_NPAUIPersistStream@@@Z 10008e00 f i BumpBar.obj
 0001:00007e50       ??9?$CComPtrBase@UIPersistStreamInit@@@ATL@@QBE_NPAUIPersistStreamInit@@@Z 10008e50 f i BumpBar.obj
 0001:00007ea0       ??9?$CComPtrBase@UIPointerInactive@@@ATL@@QBE_NPAUIPointerInactive@@@Z 10008ea0 f i BumpBar.obj
 0001:00007ef0       ??9?$CComPtrBase@UIUnknown@@@ATL@@QBE_NPAUIUnknown@@@Z 10008ef0 f i BumpBar.obj
 0001:00007f40       ??9?$CComPtrBase@UIViewObjectEx@@@ATL@@QBE_NPAUIViewObjectEx@@@Z 10008f40 f i BumpBar.obj
 0001:00007f90       ??9CComBSTR@ATL@@QBE_NH@Z  10008f90 f i BumpBar.obj
 0001:00007fe0       ??B?$CComPtrBase@UIAdviseSink@@@ATL@@QBEPAUIAdviseSink@@XZ 10008fe0 f i BumpBar.obj
 0001:00008000       ??B?$CComPtrBase@UIDataAdviseHolder@@@ATL@@QBEPAUIDataAdviseHolder@@XZ 10009000 f i BumpBar.obj
 0001:00008020       ??B?$CComPtrBase@UIDataObject@@@ATL@@QBEPAUIDataObject@@XZ 10009020 f i BumpBar.obj
 0001:00008040       ??B?$CComPtrBase@UIOleAdviseHolder@@@ATL@@QBEPAUIOleAdviseHolder@@XZ 10009040 f i BumpBar.obj
 0001:00008060       ??B?$CComPtrBase@UIOleClientSite@@@ATL@@QBEPAUIOleClientSite@@XZ 10009060 f i BumpBar.obj
 0001:00008080       ??B?$CComPtrBase@UIOleControlSite@@@ATL@@QBEPAUIOleControlSite@@XZ 10009080 f i BumpBar.obj
 0001:000080a0       ??B?$CComPtrBase@UIOleInPlaceActiveObject@@@ATL@@QBEPAUIOleInPlaceActiveObject@@XZ 100090a0 f i BumpBar.obj
 0001:000080c0       ??B?$CComPtrBase@UIOleInPlaceFrame@@@ATL@@QBEPAUIOleInPlaceFrame@@XZ 100090c0 f i BumpBar.obj
 0001:000080e0       ??B?$CComPtrBase@UIOleInPlaceSiteWindowless@@@ATL@@QBEPAUIOleInPlaceSiteWindowless@@XZ 100090e0 f i BumpBar.obj
 0001:00008100       ??B?$CComPtrBase@UIOleInPlaceUIWindow@@@ATL@@QBEPAUIOleInPlaceUIWindow@@XZ 10009100 f i BumpBar.obj
 0001:00008120       ??B?$CComPtrBase@UIOleObject@@@ATL@@QBEPAUIOleObject@@XZ 10009120 f i BumpBar.obj
 0001:00008140       ??B?$CComPtrBase@UIPersistStream@@@ATL@@QBEPAUIPersistStream@@XZ 10009140 f i BumpBar.obj
 0001:00008160       ??B?$CComPtrBase@UIProvideClassInfo2@@@ATL@@QBEPAUIProvideClassInfo2@@XZ 10009160 f i BumpBar.obj
 0001:00008180       ??B?$CComPtrBase@UISpecifyPropertyPages@@@ATL@@QBEPAUISpecifyPropertyPages@@XZ 10009180 f i BumpBar.obj
 0001:000081a0       ??B?$CComPtrBase@UIStream@@@ATL@@QBEPAUIStream@@XZ 100091a0 f i BumpBar.obj
 0001:000081c0       ??B?$CComPtrBase@UITypeInfo2@@@ATL@@QBEPAUITypeInfo2@@XZ 100091c0 f i BumpBar.obj
 0001:000081e0       ??B?$CComPtrBase@UITypeInfo@@@ATL@@QBEPAUITypeInfo@@XZ 100091e0 f i BumpBar.obj
 0001:00008200       ??B?$CComPtrBase@UITypeLib@@@ATL@@QBEPAUITypeLib@@XZ 10009200 f i BumpBar.obj
 0001:00008220       ??B?$CComPtrBase@UIUnknown@@@ATL@@QBEPAUIUnknown@@XZ 10009220 f i BumpBar.obj
 0001:00008240       ??B?$CTempBuffer@E$0BAA@VCCRTAllocator@ATL@@@ATL@@QBEPAEXZ 10009240 f i BumpBar.obj
 0001:00008260       ??B?$CTempBuffer@_W$0BAA@VCCRTAllocator@ATL@@@ATL@@QBEPA_WXZ 10009260 f i BumpBar.obj
 0001:00008280       ??B?$CTempBuffer@_W$0EAA@VCCRTAllocator@ATL@@@ATL@@QBEPA_WXZ 10009280 f i BumpBar.obj
 0001:000082a0       ??B?$CTraceCategoryEx@$00$0A@@ATL@@QAEIXZ 100092a0 f i BumpBar.obj
 0001:000082c0       ??B?$CTraceCategoryEx@$07$0A@@ATL@@QAEIXZ 100092c0 f i BumpBar.obj
 0001:000082e0       ??B?$CTraceCategoryEx@$0CAAA@$0A@@ATL@@QAEIXZ 100092e0 f i BumpBar.obj
 0001:00008300       ??B?$CTraceCategoryEx@$0EA@$0A@@ATL@@QAEIXZ 10009300 f i BumpBar.obj
 0001:00008320       ??B?$CTraceCategoryEx@$0IAA@$0A@@ATL@@QAEIXZ 10009320 f i BumpBar.obj
 0001:00008340       ??BCComBSTR@ATL@@QBEPA_WXZ 10009340 f i BumpBar.obj
 0001:00008360       ??BCRegKey@ATL@@QBEPAUHKEY__@@XZ 10009360 f i BumpBar.obj
 0001:00008380       ??C?$CComPtrBase@UIAdviseSink@@@ATL@@QBEPAV?$_NoAddRefReleaseOnCComPtr@UIAdviseSink@@@1@XZ 10009380 f i BumpBar.obj
 0001:000083d0       ??C?$CComPtrBase@UICatRegister@@@ATL@@QBEPAV?$_NoAddRefReleaseOnCComPtr@UICatRegister@@@1@XZ 100093d0 f i BumpBar.obj
 0001:00008420       ??C?$CComPtrBase@UIConnectionPoint@@@ATL@@QBEPAV?$_NoAddRefReleaseOnCComPtr@UIConnectionPoint@@@1@XZ 10009420 f i BumpBar.obj
 0001:00008470       ??C?$CComPtrBase@UIConnectionPointContainer@@@ATL@@QBEPAV?$_NoAddRefReleaseOnCComPtr@UIConnectionPointContainer@@@1@XZ 10009470 f i BumpBar.obj
 0001:000084c0       ??C?$CComPtrBase@UIDataAdviseHolder@@@ATL@@QBEPAV?$_NoAddRefReleaseOnCComPtr@UIDataAdviseHolder@@@1@XZ 100094c0 f i BumpBar.obj
 0001:00008510       ??C?$CComPtrBase@UIOleAdviseHolder@@@ATL@@QBEPAV?$_NoAddRefReleaseOnCComPtr@UIOleAdviseHolder@@@1@XZ 10009510 f i BumpBar.obj
 0001:00008560       ??C?$CComPtrBase@UIOleClientSite@@@ATL@@QBEPAV?$_NoAddRefReleaseOnCComPtr@UIOleClientSite@@@1@XZ 10009560 f i BumpBar.obj
 0001:000085b0       ??C?$CComPtrBase@UIOleControlSite@@@ATL@@QBEPAV?$_NoAddRefReleaseOnCComPtr@UIOleControlSite@@@1@XZ 100095b0 f i BumpBar.obj
 0001:00008600       ??C?$CComPtrBase@UIOleInPlaceFrame@@@ATL@@QBEPAV?$_NoAddRefReleaseOnCComPtr@UIOleInPlaceFrame@@@1@XZ 10009600 f i BumpBar.obj
 0001:00008650       ??C?$CComPtrBase@UIOleInPlaceObject@@@ATL@@QBEPAV?$_NoAddRefReleaseOnCComPtr@UIOleInPlaceObject@@@1@XZ 10009650 f i BumpBar.obj
 0001:000086a0       ??C?$CComPtrBase@UIOleInPlaceSiteWindowless@@@ATL@@QBEPAV?$_NoAddRefReleaseOnCComPtr@UIOleInPlaceSiteWindowless@@@1@XZ 100096a0 f i BumpBar.obj
 0001:000086f0       ??C?$CComPtrBase@UIOleInPlaceUIWindow@@@ATL@@QBEPAV?$_NoAddRefReleaseOnCComPtr@UIOleInPlaceUIWindow@@@1@XZ 100096f0 f i BumpBar.obj
 0001:00008740       ??C?$CComPtrBase@UIOleObject@@@ATL@@QBEPAV?$_NoAddRefReleaseOnCComPtr@UIOleObject@@@1@XZ 10009740 f i BumpBar.obj
 0001:00008790       ??C?$CComPtrBase@UIPersistStream@@@ATL@@QBEPAV?$_NoAddRefReleaseOnCComPtr@UIPersistStream@@@1@XZ 10009790 f i BumpBar.obj
 0001:000087e0       ??C?$CComPtrBase@UIPersistStreamInit@@@ATL@@QBEPAV?$_NoAddRefReleaseOnCComPtr@UIPersistStreamInit@@@1@XZ 100097e0 f i BumpBar.obj
 0001:00008830       ??C?$CComPtrBase@UIPointerInactive@@@ATL@@QBEPAV?$_NoAddRefReleaseOnCComPtr@UIPointerInactive@@@1@XZ 10009830 f i BumpBar.obj
 0001:00008880       ??C?$CComPtrBase@UIProvideClassInfo2@@@ATL@@QBEPAV?$_NoAddRefReleaseOnCComPtr@UIProvideClassInfo2@@@1@XZ 10009880 f i BumpBar.obj
 0001:000088d0       ??C?$CComPtrBase@UISpecifyPropertyPages@@@ATL@@QBEPAV?$_NoAddRefReleaseOnCComPtr@UISpecifyPropertyPages@@@1@XZ 100098d0 f i BumpBar.obj
 0001:00008920       ??C?$CComPtrBase@UITypeInfo@@@ATL@@QBEPAV?$_NoAddRefReleaseOnCComPtr@UITypeInfo@@@1@XZ 10009920 f i BumpBar.obj
 0001:00008970       ??C?$CComPtrBase@UITypeLib@@@ATL@@QBEPAV?$_NoAddRefReleaseOnCComPtr@UITypeLib@@@1@XZ 10009970 f i BumpBar.obj
 0001:000089c0       ??C?$CComPtrBase@UIUnknown@@@ATL@@QBEPAV?$_NoAddRefReleaseOnCComPtr@UIUnknown@@@1@XZ 100099c0 f i BumpBar.obj
 0001:00008a10       ??C?$CComPtrBase@UIViewObjectEx@@@ATL@@QBEPAV?$_NoAddRefReleaseOnCComPtr@UIViewObjectEx@@@1@XZ 10009a10 f i BumpBar.obj
 0001:00008a60       ??I?$CComPtrBase@UICatRegister@@@ATL@@QAEPAPAUICatRegister@@XZ 10009a60 f i BumpBar.obj
 0001:00008ab0       ??I?$CComPtrBase@UIConnectionPoint@@@ATL@@QAEPAPAUIConnectionPoint@@XZ 10009ab0 f i BumpBar.obj
 0001:00008b00       ??I?$CComPtrBase@UIConnectionPointContainer@@@ATL@@QAEPAPAUIConnectionPointContainer@@XZ 10009b00 f i BumpBar.obj
 0001:00008b50       ??I?$CComPtrBase@UIDataAdviseHolder@@@ATL@@QAEPAPAUIDataAdviseHolder@@XZ 10009b50 f i BumpBar.obj
 0001:00008ba0       ??I?$CComPtrBase@UIDataObject@@@ATL@@QAEPAPAUIDataObject@@XZ 10009ba0 f i BumpBar.obj
 0001:00008bf0       ??I?$CComPtrBase@UIDispatch@@@ATL@@QAEPAPAUIDispatch@@XZ 10009bf0 f i BumpBar.obj
 0001:00008c40       ??I?$CComPtrBase@UIOleAdviseHolder@@@ATL@@QAEPAPAUIOleAdviseHolder@@XZ 10009c40 f i BumpBar.obj
 0001:00008c90       ??I?$CComPtrBase@UIOleControlSite@@@ATL@@QAEPAPAUIOleControlSite@@XZ 10009c90 f i BumpBar.obj
 0001:00008ce0       ??I?$CComPtrBase@UIOleInPlaceActiveObject@@@ATL@@QAEPAPAUIOleInPlaceActiveObject@@XZ 10009ce0 f i BumpBar.obj
 0001:00008d30       ??I?$CComPtrBase@UIOleInPlaceFrame@@@ATL@@QAEPAPAUIOleInPlaceFrame@@XZ 10009d30 f i BumpBar.obj
 0001:00008d80       ??I?$CComPtrBase@UIOleInPlaceObject@@@ATL@@QAEPAPAUIOleInPlaceObject@@XZ 10009d80 f i BumpBar.obj
 0001:00008dd0       ??I?$CComPtrBase@UIOleInPlaceSiteWindowless@@@ATL@@QAEPAPAUIOleInPlaceSiteWindowless@@XZ 10009dd0 f i BumpBar.obj
 0001:00008e20       ??I?$CComPtrBase@UIOleInPlaceUIWindow@@@ATL@@QAEPAPAUIOleInPlaceUIWindow@@XZ 10009e20 f i BumpBar.obj
 0001:00008e70       ??I?$CComPtrBase@UIOleObject@@@ATL@@QAEPAPAUIOleObject@@XZ 10009e70 f i BumpBar.obj
 0001:00008ec0       ??I?$CComPtrBase@UIPersistStream@@@ATL@@QAEPAPAUIPersistStream@@XZ 10009ec0 f i BumpBar.obj
 0001:00008f10       ??I?$CComPtrBase@UIPointerInactive@@@ATL@@QAEPAPAUIPointerInactive@@XZ 10009f10 f i BumpBar.obj
 0001:00008f60       ??I?$CComPtrBase@UIProvideClassInfo2@@@ATL@@QAEPAPAUIProvideClassInfo2@@XZ 10009f60 f i BumpBar.obj
 0001:00008fb0       ??I?$CComPtrBase@UIStream@@@ATL@@QAEPAPAUIStream@@XZ 10009fb0 f i BumpBar.obj
 0001:00009000       ??I?$CComPtrBase@UITypeInfo2@@@ATL@@QAEPAPAUITypeInfo2@@XZ 1000a000 f i BumpBar.obj
 0001:00009050       ??I?$CComPtrBase@UITypeInfo@@@ATL@@QAEPAPAUITypeInfo@@XZ 1000a050 f i BumpBar.obj
 0001:000090a0       ??I?$CComPtrBase@UITypeLib@@@ATL@@QAEPAPAUITypeLib@@XZ 1000a0a0 f i BumpBar.obj
 0001:000090f0       ??I?$CComPtrBase@UIUnknown@@@ATL@@QAEPAPAUIUnknown@@XZ 1000a0f0 f i BumpBar.obj
 0001:00009140       ??I?$CComPtrBase@UIViewObjectEx@@@ATL@@QAEPAPAUIViewObjectEx@@XZ 1000a140 f i BumpBar.obj
 0001:00009190       ??ICComBSTR@ATL@@QAEPAPA_WXZ 1000a190 f i BumpBar.obj
 0001:000091a5       ??_E?$CComContainedObject@VCOPOSBumpBar@@@ATL@@W3AEPAXI@Z 1000a1a5 f i BumpBar.obj
 0001:000091ad       ??_E?$CComContainedObject@VCOPOSBumpBar@@@ATL@@WEM@AEPAXI@Z 1000a1ad f i BumpBar.obj
 0001:000091b5       ??_E?$CComObject@VCOPOSBumpBar@@@ATL@@W3AEPAXI@Z 1000a1b5 f i BumpBar.obj
 0001:000091bd       ??_E?$CComObject@VCOPOSBumpBar@@@ATL@@WEM@AEPAXI@Z 1000a1bd f i BumpBar.obj
 0001:000091d0       ??_E?$CComAggObject@VCOPOSBumpBar@@@ATL@@UAEPAXI@Z 1000a1d0 f i BumpBar.obj
 0001:000091d0       ??_G?$CComAggObject@VCOPOSBumpBar@@@ATL@@UAEPAXI@Z 1000a1d0 f i BumpBar.obj
 0001:00009220       ??_E?$CComContainedObject@VCOPOSBumpBar@@@ATL@@UAEPAXI@Z 1000a220 f i BumpBar.obj
 0001:00009220       ??_G?$CComContainedObject@VCOPOSBumpBar@@@ATL@@UAEPAXI@Z 1000a220 f i BumpBar.obj
 0001:00009270       ??_E?$CComObject@V?$CComEnum@UIEnumConnectionPoints@@$1?_GUID_b196b285_bab4_101a_b69c_00aa00341d07@@3U__s_GUID@@BPAUIConnectionPoint@@V?$_CopyInterface@UIConnectionPoint@@@ATL@@VCComSingleThreadModel@6@@ATL@@@ATL@@UAEPAXI@Z 1000a270 f i BumpBar.obj
 0001:00009270       ??_G?$CComObject@V?$CComEnum@UIEnumConnectionPoints@@$1?_GUID_b196b285_bab4_101a_b69c_00aa00341d07@@3U__s_GUID@@BPAUIConnectionPoint@@V?$_CopyInterface@UIConnectionPoint@@@ATL@@VCComSingleThreadModel@6@@ATL@@@ATL@@UAEPAXI@Z 1000a270 f i BumpBar.obj
 0001:000092b0       ??_E?$CComObject@V?$CComEnum@UIEnumConnections@@$1?_GUID_b196b287_bab4_101a_b69c_00aa00341d07@@3U__s_GUID@@BUtagCONNECTDATA@@V?$_Copy@UtagCONNECTDATA@@@ATL@@VCComSingleThreadModel@6@@ATL@@@ATL@@UAEPAXI@Z 1000a2b0 f i BumpBar.obj
 0001:000092b0       ??_G?$CComObject@V?$CComEnum@UIEnumConnections@@$1?_GUID_b196b287_bab4_101a_b69c_00aa00341d07@@3U__s_GUID@@BUtagCONNECTDATA@@V?$_Copy@UtagCONNECTDATA@@@ATL@@VCComSingleThreadModel@6@@ATL@@@ATL@@UAEPAXI@Z 1000a2b0 f i BumpBar.obj
 0001:000092f0       ??_G?$CComObject@VCOPOSBumpBar@@@ATL@@UAEPAXI@Z 1000a2f0 f i BumpBar.obj
 0001:000092f0       ??_E?$CComObject@VCOPOSBumpBar@@@ATL@@UAEPAXI@Z 1000a2f0 f i BumpBar.obj
 0001:00009340       ??_E?$CComObjectCached@VCComClassFactory@ATL@@@ATL@@UAEPAXI@Z 1000a340 f i BumpBar.obj
 0001:00009340       ??_G?$CComObjectCached@VCComClassFactory@ATL@@@ATL@@UAEPAXI@Z 1000a340 f i BumpBar.obj
 0001:00009380       ??_ECComClassFactory@ATL@@UAEPAXI@Z 1000a380 f i BumpBar.obj
 0001:00009380       ??_GCComClassFactory@ATL@@UAEPAXI@Z 1000a380 f i BumpBar.obj
 0001:000093c0       ??_ECComModule@ATL@@UAEPAXI@Z 1000a3c0 f i BumpBar.obj
 0001:000093c0       ??_GCComModule@ATL@@UAEPAXI@Z 1000a3c0 f i BumpBar.obj
 0001:00009400       ??_GCRegObject@ATL@@UAEPAXI@Z 1000a400 f i BumpBar.obj
 0001:00009400       ??_ECRegObject@ATL@@UAEPAXI@Z 1000a400 f i BumpBar.obj
 0001:00009440       ?Add@?$CSimpleArray@GV?$CSimpleArrayEqualHelper@G@ATL@@@ATL@@QAEHABG@Z 1000a440 f i BumpBar.obj
 0001:00009590       ?Add@?$CSimpleMap@PA_WPA_WVCExpansionVectorEqualHelper@ATL@@@ATL@@QAEHABQA_W0@Z 1000a590 f i BumpBar.obj
 0001:00009650       ?Add@CComDynamicUnkArray@ATL@@QAEKPAUIUnknown@@@Z 1000a650 f i BumpBar.obj
 0001:000097f0       ?Add@CExpansionVector@ATL@@QAEHPB_W0@Z 1000a7f0 f i BumpBar.obj
 0001:00009a80       ?AddChar@CParseBuffer@CRegParser@ATL@@QAEHPB_W@Z 1000aa80 f i BumpBar.obj
 0001:00009ac0       ?AddCommonRGSReplacements@?$CAtlModuleT@VCComModule@ATL@@@ATL@@UAEJPAUIRegistrarBase@@@Z 1000aac0 f i BumpBar.obj
 0001:00009b10       ?AddCreateWndData@CAtlWinModule@ATL@@QAEXPAU_AtlCreateWndData@2@PAX@Z 1000ab10 f i BumpBar.obj
 0001:00009b40       ?AddRef@?$CComAggObject@VCOPOSBumpBar@@@ATL@@UAGKXZ 1000ab40 f i BumpBar.obj
 0001:00009b60       ?AddRef@?$CComContainedObject@VCOPOSBumpBar@@@ATL@@UAGKXZ 1000ab60 f i BumpBar.obj
 0001:00009b7c       ?AddRef@?$CComContainedObject@VCOPOSBumpBar@@@ATL@@WHA@AGKXZ 1000ab7c f i BumpBar.obj
 0001:00009b86       ?AddRef@?$CComContainedObject@VCOPOSBumpBar@@@ATL@@WHE@AGKXZ 1000ab86 f i BumpBar.obj
 0001:00009b90       ?AddRef@?$CComContainedObject@VCOPOSBumpBar@@@ATL@@WHI@AGKXZ 1000ab90 f i BumpBar.obj
 0001:00009b9a       ?AddRef@?$CComContainedObject@VCOPOSBumpBar@@@ATL@@WHM@AGKXZ 1000ab9a f i BumpBar.obj
 0001:00009ba4       ?AddRef@?$CComContainedObject@VCOPOSBumpBar@@@ATL@@WIA@AGKXZ 1000aba4 f i BumpBar.obj
 0001:00009bb1       ?AddRef@?$CComContainedObject@VCOPOSBumpBar@@@ATL@@WIE@AGKXZ 1000abb1 f i BumpBar.obj
 0001:00009bbe       ?AddRef@?$CComContainedObject@VCOPOSBumpBar@@@ATL@@WII@AGKXZ 1000abbe f i BumpBar.obj
 0001:00009bcb       ?AddRef@?$CComContainedObject@VCOPOSBumpBar@@@ATL@@WIM@AGKXZ 1000abcb f i BumpBar.obj
 0001:00009bd8       ?AddRef@?$CComContainedObject@VCOPOSBumpBar@@@ATL@@WJA@AGKXZ 1000abd8 f i BumpBar.obj
 0001:00009be5       ?AddRef@?$CComContainedObject@VCOPOSBumpBar@@@ATL@@WJE@AGKXZ 1000abe5 f i BumpBar.obj
 0001:00009bf2       ?AddRef@?$CComContainedObject@VCOPOSBumpBar@@@ATL@@WJI@AGKXZ 1000abf2 f i BumpBar.obj
 0001:00009bff       ?AddRef@?$CComContainedObject@VCOPOSBumpBar@@@ATL@@WJM@AGKXZ 1000abff f i BumpBar.obj
 0001:00009c0c       ?AddRef@?$CComContainedObject@VCOPOSBumpBar@@@ATL@@WKA@AGKXZ 1000ac0c f i BumpBar.obj
 0001:00009c19       ?AddRef@?$CComContainedObject@VCOPOSBumpBar@@@ATL@@WKI@AGKXZ 1000ac19 f i BumpBar.obj
 0001:00009c26       ?AddRef@?$CComContainedObject@VCOPOSBumpBar@@@ATL@@WLE@AGKXZ 1000ac26 f i BumpBar.obj
 0001:00009c40       ?AddRef@?$CComObject@V?$CComEnum@UIEnumConnectionPoints@@$1?_GUID_b196b285_bab4_101a_b69c_00aa00341d07@@3U__s_GUID@@BPAUIConnectionPoint@@V?$_CopyInterface@UIConnectionPoint@@@ATL@@VCComSingleThreadModel@6@@ATL@@@ATL@@UAGKXZ 1000ac40 f i BumpBar.obj
 0001:00009c60       ?AddRef@?$CComObject@V?$CComEnum@UIEnumConnections@@$1?_GUID_b196b287_bab4_101a_b69c_00aa00341d07@@3U__s_GUID@@BUtagCONNECTDATA@@V?$_Copy@UtagCONNECTDATA@@@ATL@@VCComSingleThreadModel@6@@ATL@@@ATL@@UAGKXZ 1000ac60 f i BumpBar.obj
 0001:00009c80       ?AddRef@?$CComObject@VCOPOSBumpBar@@@ATL@@UAGKXZ 1000ac80 f i BumpBar.obj
 0001:00009c9c       ?AddRef@?$CComObject@VCOPOSBumpBar@@@ATL@@WHA@AGKXZ 1000ac9c f i BumpBar.obj
 0001:00009ca6       ?AddRef@?$CComObject@VCOPOSBumpBar@@@ATL@@WHE@AGKXZ 1000aca6 f i BumpBar.obj
 0001:00009cb0       ?AddRef@?$CComObject@VCOPOSBumpBar@@@ATL@@WHI@AGKXZ 1000acb0 f i BumpBar.obj
 0001:00009cba       ?AddRef@?$CComObject@VCOPOSBumpBar@@@ATL@@WHM@AGKXZ 1000acba f i BumpBar.obj
 0001:00009cc4       ?AddRef@?$CComObject@VCOPOSBumpBar@@@ATL@@WIA@AGKXZ 1000acc4 f i BumpBar.obj
 0001:00009cd1       ?AddRef@?$CComObject@VCOPOSBumpBar@@@ATL@@WIE@AGKXZ 1000acd1 f i BumpBar.obj
 0001:00009cde       ?AddRef@?$CComObject@VCOPOSBumpBar@@@ATL@@WII@AGKXZ 1000acde f i BumpBar.obj
 0001:00009ceb       ?AddRef@?$CComObject@VCOPOSBumpBar@@@ATL@@WIM@AGKXZ 1000aceb f i BumpBar.obj
 0001:00009cf8       ?AddRef@?$CComObject@VCOPOSBumpBar@@@ATL@@WJA@AGKXZ 1000acf8 f i BumpBar.obj
 0001:00009d05       ?AddRef@?$CComObject@VCOPOSBumpBar@@@ATL@@WJE@AGKXZ 1000ad05 f i BumpBar.obj
 0001:00009d12       ?AddRef@?$CComObject@VCOPOSBumpBar@@@ATL@@WJI@AGKXZ 1000ad12 f i BumpBar.obj
 0001:00009d1f       ?AddRef@?$CComObject@VCOPOSBumpBar@@@ATL@@WJM@AGKXZ 1000ad1f f i BumpBar.obj
 0001:00009d2c       ?AddRef@?$CComObject@VCOPOSBumpBar@@@ATL@@WKA@AGKXZ 1000ad2c f i BumpBar.obj
 0001:00009d39       ?AddRef@?$CComObject@VCOPOSBumpBar@@@ATL@@WKI@AGKXZ 1000ad39 f i BumpBar.obj
 0001:00009d46       ?AddRef@?$CComObject@VCOPOSBumpBar@@@ATL@@WLE@AGKXZ 1000ad46 f i BumpBar.obj
 0001:00009d60       ?AddRef@?$CComObjectCached@VCComClassFactory@ATL@@@ATL@@UAGKXZ 1000ad60 f i BumpBar.obj
 0001:00009db0       ?AddRef@CRegObject@ATL@@UAGKXZ 1000adb0 f i BumpBar.obj
 0001:00009e00       ?AddReplacement@CRegObject@ATL@@UAGJPB_W0@Z 1000ae00 f i BumpBar.obj
 0001:00009f10       ?AddString@CParseBuffer@CRegParser@ATL@@QAEHPB_W@Z 1000af10 f i BumpBar.obj
 0001:0000a000       ?AddTermFunc@CAtlModule@ATL@@QAEJP6GXK@ZK@Z 1000b000 f i BumpBar.obj
 0001:0000a050       ?AddValue@CRegParser@ATL@@IAEJAAVCRegKey@2@PB_WPA_W@Z 1000b050 f i BumpBar.obj
 0001:0000a7e0       ?Advise@?$CProxy_IOPOSEvents@VCOPOSBumpBar@@@@UAGJPAUIUnknown@@PAK@Z 1000b7e0 f i BumpBar.obj
 0001:0000a830       ?Advise@?$IConnectionPointImpl@VCOPOSBumpBar@@$1?DIID__IOPOSBumpBarEvents@@3U_GUID@@BVCComDynamicUnkArray@ATL@@@ATL@@UAGJPAUIUnknown@@PAK@Z 1000b830 f i BumpBar.obj
 0001:0000a9d0       ?Advise@?$IConnectionPointImpl@VCOPOSBumpBar@@$1?IID_IPropertyNotifySink@@3U_GUID@@BVCComDynamicUnkArray@ATL@@@ATL@@UAGJPAUIUnknown@@PAK@Z 1000b9d0 f i BumpBar.obj
 0001:0000ab70       ?Advise@?$IOleObjectImpl@VCOPOSBumpBar@@@ATL@@UAGJPAUIAdviseSink@@PAK@Z 1000bb70 f i BumpBar.obj
 0001:0000ac00       ?Allocate@?$CAtlSafeAllocBufferManager@VCCRTAllocator@ATL@@@_ATL_SAFE_ALLOCA_IMPL@ATL@@QAEPAXK@Z 1000bc00 f i BumpBar.obj
 0001:0000ac70       ?Allocate@?$CTempBuffer@E$0BAA@VCCRTAllocator@ATL@@@ATL@@QAEPAEI@Z 1000bc70 f i BumpBar.obj
 0001:0000acb0       ?Allocate@?$CTempBuffer@_W$0BAA@VCCRTAllocator@ATL@@@ATL@@QAEPA_WI@Z 1000bcb0 f i BumpBar.obj
 0001:0000acf0       ?Allocate@?$CTempBuffer@_W$0EAA@VCCRTAllocator@ATL@@@ATL@@QAEPA_WI@Z 1000bcf0 f i BumpBar.obj
 0001:0000ad30       ?AllocateBytes@?$CTempBuffer@E$0BAA@VCCRTAllocator@ATL@@@ATL@@QAEPAEI@Z 1000bd30 f i BumpBar.obj
 0001:0000adb0       ?AllocateBytes@?$CTempBuffer@_W$0BAA@VCCRTAllocator@ATL@@@ATL@@QAEPA_WI@Z 1000bdb0 f i BumpBar.obj
 0001:0000ae30       ?AllocateBytes@?$CTempBuffer@_W$0EAA@VCCRTAllocator@ATL@@@ATL@@QAEPA_WI@Z 1000be30 f i BumpBar.obj
 0001:0000aeb0       ?AllocateHeap@?$CTempBuffer@E$0BAA@VCCRTAllocator@ATL@@@ATL@@AAEXI@Z 1000beb0 f i BumpBar.obj
 0001:0000af00       ?AllocateHeap@?$CTempBuffer@_W$0BAA@VCCRTAllocator@ATL@@@ATL@@AAEXI@Z 1000bf00 f i BumpBar.obj
 0001:0000af50       ?AllocateHeap@?$CTempBuffer@_W$0EAA@VCCRTAllocator@ATL@@@ATL@@AAEXI@Z 1000bf50 f i BumpBar.obj
 0001:0000afa0       ?Append@CParseBuffer@CRegParser@ATL@@QAEHPB_WH@Z 1000bfa0 f i BumpBar.obj
 0001:0000b140       ?AtlCallTermFunc@ATL@@YGXPAU_ATL_MODULE70@1@@Z 1000c140 f i BumpBar.obj
 0001:0000b1e0       ?AtlCoTaskMemCAlloc@ATL@@YAPAXKK@Z 1000c1e0 f i BumpBar.obj
 0001:0000b270       ?AtlCoTaskMemRecalloc@ATL@@YAPAXPAXKK@Z 1000c270 f i BumpBar.obj
 0001:0000b310       ?AtlComModuleGetClassObject@ATL@@YGJPAU_ATL_COM_MODULE70@1@ABU_GUID@@1PAPAX@Z 1000c310 f i BumpBar.obj
 0001:0000b5a0       ?AtlComModuleRegisterServer@ATL@@YGJPAU_ATL_COM_MODULE70@1@HPBU_GUID@@@Z 1000c5a0 f i BumpBar.obj
 0001:0000b730       ?AtlComModuleUnregisterServer@ATL@@YGJPAU_ATL_COM_MODULE70@1@HPBU_GUID@@@Z 1000c730 f i BumpBar.obj
 0001:0000b860       ?AtlComQIPtrAssign2@ATL@@YAXPAPAUIUnknown@@PAU2@ABU_GUID@@@Z 1000c860 f i BumpBar.obj
 0001:0000b8e0       ?AtlCreateTargetDC@ATL@@YGPAUHDC__@@PAU2@PAUtagDVTARGETDEVICE@@@Z 1000c8e0 f i BumpBar.obj
 0001:0000ba80       ?AtlCrtErrorCheck@ATL@@YAHH@Z 1000ca80 f i BumpBar.obj
 0001:0000bb50       ?AtlGetPerUserRegistration@ATL@@YGJPA_N@Z 1000cb50 f i BumpBar.obj
 0001:0000bb80       ?AtlHiMetricToPixel@ATL@@YGXPBUtagSIZE@@PAU2@@Z 1000cb80 f i BumpBar.obj
 0001:0000bd50       ?AtlHresultFromLastError@ATL@@YAJXZ 1000cd50 f i BumpBar.obj
 0001:0000bd90       ?AtlHresultFromWin32@ATL@@YAJK@Z 1000cd90 f i BumpBar.obj
 0001:0000bdb0       ?AtlIPersistStreamInit_Load@ATL@@YGJPAUIStream@@PBUATL_PROPMAP_ENTRY@1@PAXPAUIUnknown@@@Z 1000cdb0 f i BumpBar.obj
 0001:0000c210       ?AtlIPersistStreamInit_Save@ATL@@YGJPAUIStream@@HPBUATL_PROPMAP_ENTRY@1@PAXPAUIUnknown@@@Z 1000d210 f i BumpBar.obj
 0001:0000c5f0       ?AtlInternalOleLoadFromStream@ATL@@YAJPAUIStream@@ABU_GUID@@PAPAXTClassesAllowedInStream@1@K@Z 1000d5f0 f i BumpBar.obj
 0001:0000c890       ?AtlInternalQueryInterface@ATL@@YGJPAXPBU_ATL_INTMAP_ENTRY@1@ABU_GUID@@PAPAX@Z 1000d890 f i BumpBar.obj
 0001:0000cac0       ?AtlLoadTypeLib@ATL@@YGJPAUHINSTANCE__@@PB_WPAPA_WPAPAUITypeLib@@@Z 1000dac0 f i BumpBar.obj
 0001:0000cf20       ?AtlModuleAddTermFunc@ATL@@YGJPAU_ATL_MODULE70@1@P6GXK@ZK@Z 1000df20 f i BumpBar.obj
 0001:0000d080       ?AtlRegisterClassCategoriesHelper@ATL@@YGJABU_GUID@@PBU_ATL_CATMAP_ENTRY@1@H@Z 1000e080 f i BumpBar.obj
 0001:0000d760       ?AtlRegisterTypeLib@ATL@@YGJPAUHINSTANCE__@@PB_W@Z 1000e760 f i BumpBar.obj
 0001:0000daa0       ?AtlThrowImpl@ATL@@YGXJ@Z  1000eaa0 f i BumpBar.obj
 0001:0000db50       ?AtlUnRegisterTypeLib@ATL@@YGJPAUHINSTANCE__@@PB_W@Z 1000eb50 f i BumpBar.obj
 0001:0000dd60       ?AtlWinModuleAddCreateWndData@ATL@@YGXPAU_ATL_WIN_MODULE70@1@PAU_AtlCreateWndData@1@PAX@Z 1000ed60 f i BumpBar.obj
 0001:0000ded0       ?AtlWinModuleExtractCreateWndData@ATL@@YGPAXPAU_ATL_WIN_MODULE70@1@@Z 1000eed0 f i BumpBar.obj
 0001:0000e050       ?AtlWinModuleRegisterClassExW@ATL@@YGGPAU_ATL_WIN_MODULE70@1@PBUtagWNDCLASSEXW@@@Z 1000f050 f i BumpBar.obj
 0001:0000e120       ?AtlWinModuleRegisterWndClassInfoW@ATL@@YGGPAU_ATL_WIN_MODULE70@1@PAU_ATL_BASE_MODULE70@1@PAU_ATL_WNDCLASSINFOW@1@PAP6GJPAUHWND__@@IIJ@Z@Z 1000f120 f i BumpBar.obj
 0001:0000e1b0       ?Attach@?$CAutoVectorPtr@_W@ATL@@QAEXPA_W@Z 1000f1b0 f i BumpBar.obj
 0001:0000e210       ?Attach@CComBSTR@ATL@@QAEXPA_W@Z 1000f210 f i BumpBar.obj
 0001:0000e260       ?Attach@CRegKey@ATL@@QAEXPAUHKEY__@@@Z 1000f260 f i BumpBar.obj
 0001:0000e2d0       ?CanForceRemoveKey@CRegParser@ATL@@IAEHPB_W@Z 1000f2d0 f i BumpBar.obj
 0001:0000e340       ?ChToByte@CRegParser@ATL@@KAE_W@Z 1000f340 f i BumpBar.obj
 0001:0000e460       ?ChangeType@CComVariant@ATL@@QAEJGPBUtagVARIANT@@@Z 1000f460 f i BumpBar.obj
 0001:0000e4c0       ?Cleanup@CComTypeInfoHolder@ATL@@SGXK@Z 1000f4c0 f i BumpBar.obj
 0001:0000e590       ?Clear@CComVariant@ATL@@QAEJXZ 1000f590 f i BumpBar.obj
 0001:0000e5d0       ?ClearReplacements@CExpansionVector@ATL@@QAEJXZ 1000f5d0 f i BumpBar.obj
 0001:0000e660       ?ClearReplacements@CRegObject@ATL@@UAGJXZ 1000f660 f i BumpBar.obj
 0001:0000e6b0       ?Clone@?$CComEnumImpl@UIEnumConnectionPoints@@$1?_GUID_b196b285_bab4_101a_b69c_00aa00341d07@@3U__s_GUID@@BPAUIConnectionPoint@@V?$_CopyInterface@UIConnectionPoint@@@ATL@@@ATL@@UAGJPAPAUIEnumConnectionPoints@@@Z 1000f6b0 f i BumpBar.obj
 0001:0000e830       ?Clone@?$CComEnumImpl@UIEnumConnections@@$1?_GUID_b196b287_bab4_101a_b69c_00aa00341d07@@3U__s_GUID@@BUtagCONNECTDATA@@V?$_Copy@UtagCONNECTDATA@@@ATL@@@ATL@@UAGJPAPAUIEnumConnections@@@Z 1000f830 f i BumpBar.obj
 0001:0000e9b0       ?Close@?$IOleObjectImpl@VCOPOSBumpBar@@@ATL@@UAGJK@Z 1000f9b0 f i BumpBar.obj
 0001:0000ea40       ?Close@CRegKey@ATL@@QAEJXZ 1000fa40 f i BumpBar.obj
 0001:0000eab0       ?ContextSensitiveHelp@?$IOleInPlaceActiveObjectImpl@VCOPOSBumpBar@@@ATL@@UAGJH@Z 1000fab0 f i BumpBar.obj
 0001:0000eb20       ?ContextSensitiveHelp@?$IOleInPlaceObjectWindowlessImpl@VCOPOSBumpBar@@@ATL@@UAGJH@Z 1000fb20 f i BumpBar.obj
 0001:0000eb90       ?ControlQueryInterface@?$CComControl@VCOPOSBumpBar@@V?$CWindowImpl@VCOPOSBumpBar@@VCWindow@ATL@@V?$CWinTraits@$0FGAAAAAA@$0A@@3@@ATL@@@ATL@@UAEJABU_GUID@@PAPAX@Z 1000fb90 f i BumpBar.obj
 0001:0000ec10       ?CreateControlWindow@?$CComControl@VCOPOSBumpBar@@V?$CWindowImpl@VCOPOSBumpBar@@VCWindow@ATL@@V?$CWinTraits@$0FGAAAAAA@$0A@@3@@ATL@@@ATL@@UAEPAUHWND__@@PAU3@AAUtagRECT@@@Z 1000fc10 f i BumpBar.obj
 0001:0000ec90       ?CreateInstance@?$CComCreator@V?$CComAggObject@VCOPOSBumpBar@@@ATL@@@ATL@@SGJPAXABU_GUID@@PAPAX@Z 1000fc90 f i BumpBar.obj
 0001:0000ee20       ?CreateInstance@?$CComCreator@V?$CComObject@VCOPOSBumpBar@@@ATL@@@ATL@@SGJPAXABU_GUID@@PAPAX@Z 1000fe20 f i BumpBar.obj
 0001:0000efb0       ?CreateInstance@?$CComObject@V?$CComEnum@UIEnumConnectionPoints@@$1?_GUID_b196b285_bab4_101a_b69c_00aa00341d07@@3U__s_GUID@@BPAUIConnectionPoint@@V?$_CopyInterface@UIConnectionPoint@@@ATL@@VCComSingleThreadModel@6@@ATL@@@ATL@@SGJPAPAV12@@Z 1000ffb0 f i BumpBar.obj
 0001:0000f120       ?CreateInstance@?$CComObject@V?$CComEnum@UIEnumConnections@@$1?_GUID_b196b287_bab4_101a_b69c_00aa00341d07@@3U__s_GUID@@BUtagCONNECTDATA@@V?$_Copy@UtagCONNECTDATA@@@ATL@@VCComSingleThreadModel@6@@ATL@@@ATL@@SGJPAPAV12@@Z 10010120 f i BumpBar.obj
 0001:0000f290       ?CreateInstance@CComClassFactory@ATL@@UAGJPAUIUnknown@@ABU_GUID@@PAPAX@Z 10010290 f i BumpBar.obj
 0001:0000f380       ?DAdvise@?$IDataObjectImpl@VCOPOSBumpBar@@@ATL@@UAGJPAUtagFORMATETC@@KPAUIAdviseSink@@PAK@Z 10010380 f i BumpBar.obj
 0001:0000f480       ?DEVMODEOLE2T_EX@@YAPAU_devicemodeW@@PAU1@@Z 10010480 f i BumpBar.obj
 0001:0000f490       ?DUnadvise@?$IDataObjectImpl@VCOPOSBumpBar@@@ATL@@UAGJK@Z 10010490 f i BumpBar.obj
 0001:0000f560       ?Decrement@CComMultiThreadModel@ATL@@SGKPAJ@Z 10010560 f i BumpBar.obj
 0001:0000f580       ?Decrement@CComSingleThreadModel@ATL@@SGKPAJ@Z 10010580 f i BumpBar.obj
 0001:0000f5a0       ?DefWindowProcW@?$CWindowImplBaseT@VCWindow@ATL@@V?$CWinTraits@$0FGAAAAAA@$0A@@2@@ATL@@QAEJIIJ@Z 100105a0 f i BumpBar.obj
 0001:0000f5f0       ?DefaultReflectionHandler@?$CWindowImplRoot@VCWindow@ATL@@@ATL@@SAHPAUHWND__@@IIJAAJ@Z 100105f0 f i BumpBar.obj
 0001:0000f7e0       ?DeleteSubKey@CRegKey@ATL@@QAEJPB_W@Z 100107e0 f i BumpBar.obj
 0001:0000f8f0       ?DeleteValue@CRegKey@ATL@@QAEJPB_W@Z 100108f0 f i BumpBar.obj
 0001:0000f960       ?Detach@?$CAutoVectorPtr@_W@ATL@@QAEPA_WXZ 10010960 f i BumpBar.obj
 0001:0000f990       ?Detach@?$CComPtrBase@UIPersistStream@@@ATL@@QAEPAUIPersistStream@@XZ 10010990 f i BumpBar.obj
 0001:0000f9c0       ?Detach@?$CComPtrBase@UITypeInfo@@@ATL@@QAEPAUITypeInfo@@XZ 100109c0 f i BumpBar.obj
 0001:0000f9f0       ?Detach@?$CComPtrBase@UIUnknown@@@ATL@@QAEPAUIUnknown@@XZ 100109f0 f i BumpBar.obj
 0001:0000fa20       ?Detach@CComBSTR@ATL@@QAEPA_WXZ 10010a20 f i BumpBar.obj
 0001:0000fa50       ?Detach@CParseBuffer@CRegParser@ATL@@QAEPA_WXZ 10010a50 f i BumpBar.obj
 0001:0000faa0       ?Detach@CRegKey@ATL@@QAEPAUHKEY__@@XZ 10010aa0 f i BumpBar.obj
 0001:0000faf0       ?DoEvent@COPOSBumpBar@@IAEXIIJ@Z 10010af0 f i BumpBar.obj
 0001:0000fc30       ?DoVerb@?$IOleObjectImpl@VCOPOSBumpBar@@@ATL@@UAGJJPAUtagMSG@@PAUIOleClientSite@@JPAUHWND__@@PBUtagRECT@@@Z 10010c30 f i BumpBar.obj
 0001:0000fe40       ?DoVerbDiscardUndo@?$IOleObjectImpl@VCOPOSBumpBar@@@ATL@@QAEJPBUtagRECT@@PAUHWND__@@@Z 10010e40 f i BumpBar.obj
 0001:0000feb0       ?DoVerbHide@?$IOleObjectImpl@VCOPOSBumpBar@@@ATL@@QAEJPBUtagRECT@@PAUHWND__@@@Z 10010eb0 f i BumpBar.obj
 0001:0000ff60       ?DoVerbInPlaceActivate@?$IOleObjectImpl@VCOPOSBumpBar@@@ATL@@QAEJPBUtagRECT@@PAUHWND__@@@Z 10010f60 f i BumpBar.obj
 0001:00010000       ?DoVerbOpen@?$IOleObjectImpl@VCOPOSBumpBar@@@ATL@@QAEJPBUtagRECT@@PAUHWND__@@@Z 10011000 f i BumpBar.obj
 0001:00010070       ?DoVerbPrimary@?$IOleObjectImpl@VCOPOSBumpBar@@@ATL@@QAEJPBUtagRECT@@PAUHWND__@@@Z 10011070 f i BumpBar.obj
 0001:00010180       ?DoVerbProperties@CComControlBase@ATL@@QAEJPBUtagRECT@@PAUHWND__@@@Z 10011180 f i BumpBar.obj
 0001:000104a0       ?DoVerbShow@?$IOleObjectImpl@VCOPOSBumpBar@@@ATL@@QAEJPBUtagRECT@@PAUHWND__@@@Z 100114a0 f i BumpBar.obj
 0001:00010530       ?DoVerbUIActivate@?$IOleObjectImpl@VCOPOSBumpBar@@@ATL@@QAEJPBUtagRECT@@PAUHWND__@@@Z 10011530 f i BumpBar.obj
 0001:000105d0       ?DoesVerbActivate@CComControlBase@ATL@@QAEHJ@Z 100115d0 f i BumpBar.obj
 0001:00010640       ?DoesVerbUIActivate@CComControlBase@ATL@@QAEHJ@Z 10011640 f i BumpBar.obj
 0001:000106c0       ?Draw@?$IViewObjectExImpl@VCOPOSBumpBar@@@ATL@@UAGJKJPAXPAUtagDVTARGETDEVICE@@PAUHDC__@@2PBU_RECTL@@3P6GHK@ZK@Z 100116c0 f i BumpBar.obj
 0001:00010760       ?Empty@CComBSTR@ATL@@QAEXXZ 10011760 f i BumpBar.obj
 0001:000107a0       ?EnableModeless@?$IOleInPlaceActiveObjectImpl@VCOPOSBumpBar@@@ATL@@UAGJH@Z 100117a0 f i BumpBar.obj
 0001:00010800       ?EndOfVar@CRegParser@ATL@@IAEHXZ 10011800 f i BumpBar.obj
 0001:00010870       ?EnsureTI@CComTypeInfoHolder@ATL@@QAEJK@Z 10011870 f i BumpBar.obj
 0001:000108d0       ?EnumAdvise@?$IOleObjectImpl@VCOPOSBumpBar@@@ATL@@UAGJPAPAUIEnumSTATDATA@@@Z 100118d0 f i BumpBar.obj
 0001:000109e0       ?EnumConnectionPoints@?$IConnectionPointContainerImpl@VCOPOSBumpBar@@@ATL@@UAGJPAPAUIEnumConnectionPoints@@@Z 100119e0 f i BumpBar.obj
 0001:00010e40       ?EnumConnections@?$IConnectionPointImpl@VCOPOSBumpBar@@$1?DIID__IOPOSBumpBarEvents@@3U_GUID@@BVCComDynamicUnkArray@ATL@@@ATL@@UAGJPAPAUIEnumConnections@@@Z 10011e40 f i BumpBar.obj
 0001:00011090       ?EnumConnections@?$IConnectionPointImpl@VCOPOSBumpBar@@$1?IID_IPropertyNotifySink@@3U_GUID@@BVCComDynamicUnkArray@ATL@@@ATL@@UAGJPAPAUIEnumConnections@@@Z 10012090 f i BumpBar.obj
 0001:000112e0       ?EnumDAdvise@?$IDataObjectImpl@VCOPOSBumpBar@@@ATL@@UAGJPAPAUIEnumSTATDATA@@@Z 100122e0 f i BumpBar.obj
 0001:000113e0       ?EnumFormatEtc@?$IDataObjectImpl@VCOPOSBumpBar@@@ATL@@UAGJKPAPAUIEnumFORMATETC@@@Z 100123e0 f i BumpBar.obj
 0001:00011450       ?EnumVerbs@?$IOleObjectImpl@VCOPOSBumpBar@@@ATL@@UAGJPAPAUIEnumOLEVERB@@@Z 10012450 f i BumpBar.obj
 0001:00011500       ?EscapeSingleQuote@CAtlModule@ATL@@SAXPA_WIPB_W@Z 10012500 f i BumpBar.obj
 0001:000115b0       ?ExtractCreateWndData@CAtlWinModule@ATL@@QAEPAXXZ 100125b0 f i BumpBar.obj
 0001:000115e0       ?FAccessAllowed@?$IObjectSafetyImpl@VCOPOSBumpBar@@$02@ATL@@MAEHXZ 100125e0 f i BumpBar.obj
 0001:00011600       ?FinalConstruct@?$CComAggObject@VCOPOSBumpBar@@@ATL@@QAEJXZ 10012600 f i BumpBar.obj
 0001:00011640       ?FinalConstruct@CComObjectRootBase@ATL@@QAEJXZ 10012640 f i BumpBar.obj
 0001:00011660       ?FinalConstruct@CRegObject@ATL@@QAEJXZ 10012660 f i BumpBar.obj
 0001:00011690       ?FinalRelease@?$CComAggObject@VCOPOSBumpBar@@@ATL@@QAEXXZ 10012690 f i BumpBar.obj
 0001:000116d0       ?FinalRelease@CComObjectRootBase@ATL@@QAEXXZ 100126d0 f i BumpBar.obj
 0001:000116f0       ?FindConnectionPoint@?$IConnectionPointContainerImpl@VCOPOSBumpBar@@@ATL@@UAGJABU_GUID@@PAPAUIConnectionPoint@@@Z 100126f0 f i BumpBar.obj
 0001:00011840       ?FindKey@?$CSimpleMap@PA_WPA_WVCExpansionVectorEqualHelper@ATL@@@ATL@@QBEHABQA_W@Z 10012840 f i BumpBar.obj
 0001:000118b0       ?FireTheEvent@?$CProxy_IOPOSEvents@VCOPOSBumpBar@@@@IAEXPAUIUnknown@@PAVOposVariant@@IAAJPB_WJ@Z 100128b0 f i BumpBar.obj
 0001:00011a20       ?FireViewChange@CComControlBase@ATL@@QAEJXZ 10012a20 f i BumpBar.obj
 0001:00011ae0       ?Fire_DataEvent@?$CProxy_IOPOSEvents@VCOPOSBumpBar@@@@QAEXJ@Z 10012ae0 f i BumpBar.obj
 0001:00011c40       ?Fire_DirectIOEvent@?$CProxy_IOPOSEvents@VCOPOSBumpBar@@@@QAEXJPAJPAPA_W@Z 10012c40 f i BumpBar.obj
 0001:00011e10       ?Fire_ErrorEvent@?$CProxy_IOPOSEvents@VCOPOSBumpBar@@@@QAEXJJJPAJ@Z 10012e10 f i BumpBar.obj
 0001:00012000       ?Fire_OutputCompleteEvent@?$CProxy_IOPOSEvents@VCOPOSBumpBar@@@@QAEXJ@Z 10013000 f i BumpBar.obj
 0001:00012160       ?Fire_StatusUpdateEvent@?$CProxy_IOPOSEvents@VCOPOSBumpBar@@@@QAEXJ@Z 10013160 f i BumpBar.obj
 0001:000122c0       ?FormatWindowClassName@AtlModuleRegisterWndClassInfoParamW@ATL@@SAXPA_WKPAX@Z 100132c0 f i BumpBar.obj
 0001:000122f0       ?Free@?$CAutoVectorPtr@_W@ATL@@QAEXXZ 100132f0 f i BumpBar.obj
 0001:00012340       ?FreeHeap@?$CTempBuffer@E$0BAA@VCCRTAllocator@ATL@@@ATL@@AAEXXZ 10013340 f i BumpBar.obj
 0001:00012370       ?FreeHeap@?$CTempBuffer@_W$0BAA@VCCRTAllocator@ATL@@@ATL@@AAEXXZ 10013370 f i BumpBar.obj
 0001:000123a0       ?FreeHeap@?$CTempBuffer@_W$0EAA@VCCRTAllocator@ATL@@@ATL@@AAEXXZ 100133a0 f i BumpBar.obj
 0001:000123d0       ?Freeze@?$IViewObjectExImpl@VCOPOSBumpBar@@@ATL@@UAGJKJPAXPAK@Z 100133d0 f i BumpBar.obj
 0001:00012440       ?GenerateError@CRegParser@ATL@@IAEJI@Z 10013440 f i BumpBar.obj
 0001:00012460       ?GetAdvise@?$IViewObjectExImpl@VCOPOSBumpBar@@@ATL@@UAGJPAK0PAPAUIAdviseSink@@@Z 10013460 f i BumpBar.obj
 0001:00012560       ?GetAmbientLocaleID@CComControlBase@ATL@@QAEJAAK@Z 10013560 f i BumpBar.obj
 0001:00012640       ?GetAmbientProperty@CComControlBase@ATL@@QAEJJAAUtagVARIANT@@@Z 10013640 f i BumpBar.obj
 0001:00012690       ?GetAmbientUserMode@CComControlBase@ATL@@QAEJAAH@Z 10013690 f i BumpBar.obj
 0001:00012790       ?GetAppId@?$CAtlModuleT@VCComModule@ATL@@@ATL@@SAPB_WXZ 10013790 f i BumpBar.obj
 0001:000127a0       ?GetAt@CComDynamicUnkArray@ATL@@QAEPAUIUnknown@@H@Z 100137a0 f i BumpBar.obj
 0001:00012820       ?GetCanonicalFormatEtc@?$IDataObjectImpl@VCOPOSBumpBar@@@ATL@@UAGJPAUtagFORMATETC@@0@Z 10013820 f i BumpBar.obj
 0001:00012890       ?GetClassID@?$IPersistStorageImpl@VCOPOSBumpBar@@@ATL@@UAGJPAU_GUID@@@Z 10013890 f i BumpBar.obj
 0001:00012910       ?GetClassID@?$IPersistStreamInitImpl@VCOPOSBumpBar@@@ATL@@UAGJPAU_GUID@@@Z 10013910 f i BumpBar.obj
 0001:00012990       ?GetClassInfoExW@AtlModuleRegisterWndClassInfoParamW@ATL@@SAHPAUHINSTANCE__@@PB_WPAUtagWNDCLASSEXW@@@Z 10013990 f i BumpBar.obj
 0001:000129c0       ?GetClassInfoW@?$IProvideClassInfo2Impl@$1?CLSID_OPOSBumpBar@@3U_GUID@@B$1?DIID__IOPOSBumpBarEvents@@3U2@B$1?LIBID_OposBumpBar_CCO@@3U2@B$00$0A@VCComTypeInfoHolder@ATL@@@ATL@@UAGJPAPAUITypeInfo@@@Z 100139c0 f i BumpBar.obj
 0001:000129e0       ?GetClassObject@CComModule@ATL@@QAEJABU_GUID@@0PAPAX@Z 100139e0 f i BumpBar.obj
 0001:00012be0       ?GetClientSite@?$IOleObjectImpl@VCOPOSBumpBar@@@ATL@@UAGJPAPAUIOleClientSite@@@Z 10013be0 f i BumpBar.obj
 0001:00012c70       ?GetClipboardData@?$IOleObjectImpl@VCOPOSBumpBar@@@ATL@@UAGJKPAPAUIDataObject@@@Z 10013c70 f i BumpBar.obj
 0001:00012ce0       ?GetCodeAddress@CDynamicStdCallThunk2@ATL@@QAEPAXXZ 10013ce0 f i BumpBar.obj
 0001:00012d10       ?GetColorSet@?$IViewObjectExImpl@VCOPOSBumpBar@@@ATL@@UAGJKJPAXPAUtagDVTARGETDEVICE@@PAUHDC__@@PAPAUtagLOGPALETTE@@@Z 10013d10 f i BumpBar.obj
 0001:00012d80       ?GetConnMap@COPOSBumpBar@@SAPBU_ATL_CONNMAP_ENTRY@ATL@@PAH@Z 10013d80 f i BumpBar.obj
 0001:00012ec0       ?GetConnectionInterface@?$IConnectionPointImpl@VCOPOSBumpBar@@$1?DIID__IOPOSBumpBarEvents@@3U_GUID@@BVCComDynamicUnkArray@ATL@@@ATL@@UAGJPAU_GUID@@@Z 10013ec0 f i BumpBar.obj
 0001:00012f00       ?GetConnectionInterface@?$IConnectionPointImpl@VCOPOSBumpBar@@$1?IID_IPropertyNotifySink@@3U_GUID@@BVCComDynamicUnkArray@ATL@@@ATL@@UAGJPAU_GUID@@@Z 10013f00 f i BumpBar.obj
 0001:00012f40       ?GetConnectionPointContainer@?$IConnectionPointImpl@VCOPOSBumpBar@@$1?DIID__IOPOSBumpBarEvents@@3U_GUID@@BVCComDynamicUnkArray@ATL@@@ATL@@UAGJPAPAUIConnectionPointContainer@@@Z 10013f40 f i BumpBar.obj
 0001:00012fb0       ?GetConnectionPointContainer@?$IConnectionPointImpl@VCOPOSBumpBar@@$1?IID_IPropertyNotifySink@@3U_GUID@@BVCComDynamicUnkArray@ATL@@@ATL@@UAGJPAPAUIConnectionPointContainer@@@Z 10013fb0 f i BumpBar.obj
 0001:00013020       ?GetContentExtent@?$IQuickActivateImpl@VCOPOSBumpBar@@@ATL@@UAGJPAUtagSIZE@@@Z 10014020 f i BumpBar.obj
 0001:000130b0       ?GetControlInfo@?$IOleControlImpl@VCOPOSBumpBar@@@ATL@@UAGJPAUtagCONTROLINFO@@@Z 100140b0 f i BumpBar.obj
 0001:00013120       ?GetCookie@CComDynamicUnkArray@ATL@@QAGKPAPAUIUnknown@@@Z 10014120 f i BumpBar.obj
 0001:000131e0       ?GetData@?$IDataObjectImpl@VCOPOSBumpBar@@@ATL@@UAGJPAUtagFORMATETC@@PAUtagSTGMEDIUM@@@Z 100141e0 f i BumpBar.obj
 0001:00013270       ?GetData@CAtlSafeAllocBufferNode@?$CAtlSafeAllocBufferManager@VCCRTAllocator@ATL@@@_ATL_SAFE_ALLOCA_IMPL@ATL@@QAEPAXXZ 10014270 f i BumpBar.obj
 0001:00013290       ?GetDataHere@?$IDataObjectImpl@VCOPOSBumpBar@@@ATL@@UAGJPAUtagFORMATETC@@PAUtagSTGMEDIUM@@@Z 10014290 f i BumpBar.obj
 0001:00013300       ?GetDropTarget@?$IOleInPlaceObjectWindowlessImpl@VCOPOSBumpBar@@@ATL@@UAGJPAPAUIDropTarget@@@Z 10014300 f i BumpBar.obj
 0001:00013370       ?GetExtent@?$IOleObjectImpl@VCOPOSBumpBar@@@ATL@@UAGJKPAUtagSIZE@@@Z 10014370 f i BumpBar.obj
 0001:00013410       ?GetExtent@?$IViewObjectExImpl@VCOPOSBumpBar@@@ATL@@UAGJKJPAUtagDVTARGETDEVICE@@PAUtagSIZE@@@Z 10014410 f i BumpBar.obj
 0001:000134e0       ?GetGITPtr@CAtlModule@ATL@@UAEJPAPAUIGlobalInterfaceTable@@@Z 100144e0 f i BumpBar.obj
 0001:000135e0       ?GetGUID@?$IProvideClassInfo2Impl@$1?CLSID_OPOSBumpBar@@3U_GUID@@B$1?DIID__IOPOSBumpBarEvents@@3U2@B$1?LIBID_OposBumpBar_CCO@@3U2@B$00$0A@VCComTypeInfoHolder@ATL@@@ATL@@UAGJKPAU_GUID@@@Z 100145e0 f i BumpBar.obj
 0001:00013660       ?GetIDsOfNames@?$IDispatchImpl@UIOPOSBumpBar@@$1?IID_IOPOSBumpBar@@3U_GUID@@B$1?LIBID_OposBumpBar_CCO@@3U3@B$00$0A@VCComTypeInfoHolder@ATL@@@ATL@@UAGJABU_GUID@@PAPA_WIKPAJ@Z 10014660 f i BumpBar.obj
 0001:00013690       ?GetIDsOfNames@CComTypeInfoHolder@ATL@@QAEJABU_GUID@@PAPA_WIKPAJ@Z 10014690 f i BumpBar.obj
 0001:00013840       ?GetInterfaceSafetyOptions@?$IObjectSafetyImpl@VCOPOSBumpBar@@$02@ATL@@UAGJABU_GUID@@PAK1@Z 10014840 f i BumpBar.obj
 0001:000139b0       ?GetKeyAt@?$CSimpleMap@PA_WPA_WVCExpansionVectorEqualHelper@ATL@@@ATL@@QBEAAPA_WH@Z 100149b0 f i BumpBar.obj
 0001:00013a30       ?GetLockCount@CAtlModule@ATL@@UAEJXZ 10014a30 f i BumpBar.obj
 0001:00013a50       ?GetMiscStatus@?$IOleObjectImpl@VCOPOSBumpBar@@@ATL@@UAGJKPAK@Z 10014a50 f i BumpBar.obj
 0001:00013ac0       ?GetMoniker@?$IOleObjectImpl@VCOPOSBumpBar@@@ATL@@UAGJKKPAPAUIMoniker@@@Z 10014ac0 f i BumpBar.obj
 0001:00013b30       ?GetNaturalExtent@?$IViewObjectExImpl@VCOPOSBumpBar@@@ATL@@UAGJKJPAUtagDVTARGETDEVICE@@PAUHDC__@@PAUtagExtentInfo@@PAUtagSIZE@@@Z 10014b30 f i BumpBar.obj
 0001:00013c50       ?GetObjectCLSID@?$CComCoClass@VCOPOSBumpBar@@$1?CLSID_OPOSBumpBar@@3U_GUID@@B@ATL@@SGABU_GUID@@XZ 10014c50 f i BumpBar.obj
 0001:00013c60       ?GetPages@?$ISpecifyPropertyPagesImpl@VCOPOSBumpBar@@@ATL@@UAGJPAUtagCAUUID@@@Z 10014c60 f i BumpBar.obj
 0001:00013cd0       ?GetPagesHelper@?$ISpecifyPropertyPagesImpl@VCOPOSBumpBar@@@ATL@@IAEJPAUtagCAUUID@@PBUATL_PROPMAP_ENTRY@2@@Z 10014cd0 f i BumpBar.obj
 0001:00013ed0       ?GetProperty@?$CComPtr@UIDispatch@@@ATL@@QAEJJPAUtagVARIANT@@@Z 10014ed0 f i BumpBar.obj
 0001:00013f10       ?GetProperty@?$CComPtr@UIDispatch@@@ATL@@SAJPAUIDispatch@@JPAUtagVARIANT@@@Z 10014f10 f i BumpBar.obj
 0001:00014070       ?GetPropertyMap@COPOSBumpBar@@SAPBUATL_PROPMAP_ENTRY@ATL@@XZ 10015070 f i BumpBar.obj
 0001:00014080       ?GetRect@?$IViewObjectExImpl@VCOPOSBumpBar@@@ATL@@UAGJKPAU_RECTL@@@Z 10015080 f i BumpBar.obj
 0001:000140f0       ?GetSize@?$CSimpleMap@PA_WPA_WVCExpansionVectorEqualHelper@ATL@@@ATL@@QBEHXZ 100150f0 f i BumpBar.obj
 0001:00014110       ?GetSize@CComDynamicUnkArray@ATL@@QBEHXZ 10015110 f i BumpBar.obj
 0001:00014130       ?GetSizeMax@?$IPersistStreamInitImpl@VCOPOSBumpBar@@@ATL@@UAGJPAT_ULARGE_INTEGER@@@Z 10015130 f i BumpBar.obj
 0001:000146a0       ?GetSizeMax@CComVariant@ATL@@QBEJPAT_ULARGE_INTEGER@@@Z 100156a0 f i BumpBar.obj
 0001:00014a00       ?GetStreamSize@CComBSTR@ATL@@SAKPA_W@Z 10015a00 f i BumpBar.obj
 0001:00014a50       ?GetTI@CComTypeInfoHolder@ATL@@QAEJK@Z 10015a50 f i BumpBar.obj
 0001:00015260       ?GetTI@CComTypeInfoHolder@ATL@@QAEJKPAPAUITypeInfo@@@Z 10016260 f i BumpBar.obj
 0001:00015320       ?GetTypeInfo@?$IDispatchImpl@UIOPOSBumpBar@@$1?IID_IOPOSBumpBar@@3U_GUID@@B$1?LIBID_OposBumpBar_CCO@@3U3@B$00$0A@VCComTypeInfoHolder@ATL@@@ATL@@UAGJIKPAPAUITypeInfo@@@Z 10016320 f i BumpBar.obj
 0001:00015350       ?GetTypeInfo@CComTypeInfoHolder@ATL@@QAEJIKPAPAUITypeInfo@@@Z 10016350 f i BumpBar.obj
 0001:00015390       ?GetTypeInfoCount@?$IDispatchImpl@UIOPOSBumpBar@@$1?IID_IOPOSBumpBar@@3U_GUID@@B$1?LIBID_OposBumpBar_CCO@@3U3@B$00$0A@VCComTypeInfoHolder@ATL@@@ATL@@UAGJPAI@Z 10016390 f i BumpBar.obj
 0001:000153b0       ?GetUnknown@CComDynamicUnkArray@ATL@@QAGPAUIUnknown@@K@Z 100163b0 f i BumpBar.obj
 0001:00015420       ?GetUnknown@COPOSBumpBar@@QAEPAUIUnknown@@XZ 10016420 f i BumpBar.obj
 0001:00015450       ?GetUserClassID@?$IOleObjectImpl@VCOPOSBumpBar@@@ATL@@UAGJPAU_GUID@@@Z 10016450 f i BumpBar.obj
 0001:00015500       ?GetUserType@?$IOleObjectImpl@VCOPOSBumpBar@@@ATL@@UAGJKPAPA_W@Z 10016500 f i BumpBar.obj
 0001:00015570       ?GetValueAt@?$CSimpleMap@PA_WPA_WVCExpansionVectorEqualHelper@ATL@@@ATL@@QBEAAPA_WH@Z 10016570 f i BumpBar.obj
 0001:000155f0       ?GetViewStatus@?$IViewObjectExImpl@VCOPOSBumpBar@@@ATL@@UAGJPAK@Z 100165f0 f i BumpBar.obj
 0001:000156b0       ?GetWNDPROC@CWndProcThunk@ATL@@QAEP6GJPAUHWND__@@IIJ@ZXZ 100166b0 f i BumpBar.obj
 0001:000156e0       ?GetWindow@?$IOleInPlaceActiveObjectImpl@VCOPOSBumpBar@@@ATL@@UAGJPAPAUHWND__@@@Z 100166e0 f i BumpBar.obj
 0001:000157b0       ?GetWindow@?$IOleInPlaceObjectWindowlessImpl@VCOPOSBumpBar@@@ATL@@UAGJPAPAUHWND__@@@Z 100167b0 f i BumpBar.obj
 0001:00015880       ?GetWindowLongPtrW@@YAJPAUHWND__@@H@Z 10016880 f i BumpBar.obj
 0001:000158b0       ?GetWindowProc@?$CWindowImplBaseT@VCWindow@ATL@@V?$CWinTraits@$0FGAAAAAA@$0A@@2@@ATL@@UAEP6GJPAUHWND__@@IIJ@ZXZ 100168b0 f i BumpBar.obj
 0001:000158d0       ?GetWndCaption@?$CWindowImpl@VCOPOSBumpBar@@VCWindow@ATL@@V?$CWinTraits@$0FGAAAAAA@$0A@@3@@ATL@@SAPB_WXZ 100168d0 f i BumpBar.obj
 0001:000158e0       ?GetWndClassInfo@?$CWindowImpl@VCOPOSBumpBar@@VCWindow@ATL@@V?$CWinTraits@$0FGAAAAAA@$0A@@3@@ATL@@SAAAU_ATL_WNDCLASSINFOW@2@XZ 100168e0 f i BumpBar.obj
 0001:000158f0       ?GetWndClassName@CWindow@ATL@@SAPB_WXZ 100168f0 f i BumpBar.obj
 0001:00015900       ?GetWndExStyle@?$CWinTraits@$0FGAAAAAA@$0A@@ATL@@SAKK@Z 10016900 f i BumpBar.obj
 0001:00015930       ?GetWndExStyle@?$CWindowImplBaseT@VCWindow@ATL@@V?$CWinTraits@$0FGAAAAAA@$0A@@2@@ATL@@SAKK@Z 10016930 f i BumpBar.obj
 0001:00015950       ?GetWndStyle@?$CWinTraits@$0FGAAAAAA@$0A@@ATL@@SAKK@Z 10016950 f i BumpBar.obj
 0001:00015980       ?GetWndStyle@?$CWindowImplBaseT@VCWindow@ATL@@V?$CWinTraits@$0FGAAAAAA@$0A@@2@@ATL@@SAKK@Z 10016980 f i BumpBar.obj
 0001:000159a0       ?GetZoomInfo@CComControlBase@ATL@@QAEXAAUATL_DRAWINFO@@@Z 100169a0 f i BumpBar.obj
 0001:00015b10       ?HKeyFromString@CRegParser@ATL@@KAPAUHKEY__@@PA_W@Z 10016b10 f i BumpBar.obj
 0001:00015b80       ?HandsOffStorage@?$IPersistStorageImpl@VCOPOSBumpBar@@@ATL@@UAGJXZ 10016b80 f i BumpBar.obj
 0001:00015be0       ?HasSubKeys@CRegParser@ATL@@IAEHPAUHKEY__@@@Z 10016be0 f i BumpBar.obj
 0001:00015cf0       ?IDataObject_GetData@CComControlBase@ATL@@QAEJPAUtagFORMATETC@@PAUtagSTGMEDIUM@@@Z 10016cf0 f i BumpBar.obj
 0001:00016110       ?IOleInPlaceObject_InPlaceDeactivate@CComControlBase@ATL@@QAEJXZ 10017110 f i BumpBar.obj
 0001:00016310       ?IOleInPlaceObject_SetObjectRects@CComControlBase@ATL@@QAEJPBUtagRECT@@0@Z 10017310 f i BumpBar.obj
 0001:000164d0       ?IOleInPlaceObject_UIDeactivate@CComControlBase@ATL@@QAEJXZ 100174d0 f i BumpBar.obj
 0001:00016740       ?IOleObject_Advise@CComControlBase@ATL@@QAEJPAUIAdviseSink@@PAK@Z 10017740 f i BumpBar.obj
 0001:000167f0       ?IOleObject_Close@CComControlBase@ATL@@QAEJK@Z 100177f0 f i BumpBar.obj
 0001:00016aa0       ?IOleObject_GetClientSite@CComControlBase@ATL@@QAEJPAPAUIOleClientSite@@@Z 10017aa0 f i BumpBar.obj
 0001:00016b40       ?IOleObject_SetClientSite@CComControlBase@ATL@@QAEJPAUIOleClientSite@@@Z 10017b40 f i BumpBar.obj
 0001:00016c10       ?IOleObject_SetExtent@CComControlBase@ATL@@QAEJKPAUtagSIZE@@@Z 10017c10 f i BumpBar.obj
 0001:00016d50       ?IPSI_GetIPersistStreamInit@?$IPersistStorageImpl@VCOPOSBumpBar@@@ATL@@AAEPAUIPersistStreamInit@@XZ 10017d50 f i BumpBar.obj
 0001:00016e20       ?IPersistStreamInit_Load@?$IPersistStreamInitImpl@VCOPOSBumpBar@@@ATL@@QAEJPAUIStream@@PBUATL_PROPMAP_ENTRY@2@@Z 10017e20 f i BumpBar.obj
 0001:00016ea0       ?IPersistStreamInit_Save@?$IPersistStreamInitImpl@VCOPOSBumpBar@@@ATL@@QAEJPAUIStream@@HPBUATL_PROPMAP_ENTRY@2@@Z 10017ea0 f i BumpBar.obj
 0001:00016f30       ?IQuickActivate_QuickActivate@CComControlBase@ATL@@QAEJPAUtagQACONTAINER@@PAUtagQACONTROL@@@Z 10017f30 f i BumpBar.obj
 0001:00017580       ?IViewObject_Draw@CComControlBase@ATL@@QAEJKJPAXPAUtagDVTARGETDEVICE@@PAUHDC__@@2PBU_RECTL@@3@Z 10018580 f i BumpBar.obj
 0001:00017820       ?InPlaceActivate@CComControlBase@ATL@@QAEJJPBUtagRECT@@@Z 10018820 f i BumpBar.obj
 0001:000181b0       ?InPlaceDeactivate@?$IOleInPlaceObjectWindowlessImpl@VCOPOSBumpBar@@@ATL@@UAGJXZ 100191b0 f i BumpBar.obj
 0001:00018230       ?Increment@CComMultiThreadModel@ATL@@SGKPAJ@Z 10019230 f i BumpBar.obj
 0001:00018250       ?Increment@CComSingleThreadModel@ATL@@SGKPAJ@Z 10019250 f i BumpBar.obj
 0001:00018270       ?Init@?$CComEnumImpl@UIEnumConnectionPoints@@$1?_GUID_b196b285_bab4_101a_b69c_00aa00341d07@@3U__s_GUID@@BPAUIConnectionPoint@@V?$_CopyInterface@UIConnectionPoint@@@ATL@@@ATL@@QAEJPAPAUIConnectionPoint@@0PAUIUnknown@@W4CComEnumFlags@2@@Z 10019270 f i BumpBar.obj
 0001:00018450       ?Init@?$CComEnumImpl@UIEnumConnections@@$1?_GUID_b196b287_bab4_101a_b69c_00aa00341d07@@3U__s_GUID@@BUtagCONNECTDATA@@V?$_Copy@UtagCONNECTDATA@@@ATL@@@ATL@@QAEJPAUtagCONNECTDATA@@0PAUIUnknown@@W4CComEnumFlags@2@@Z 10019450 f i BumpBar.obj
 0001:00018630       ?Init@CComFakeCriticalSection@ATL@@QAEJXZ 10019630 f i BumpBar.obj
 0001:00018650       ?Init@CComModule@ATL@@QAEJPAU_ATL_OBJMAP_ENTRY30@2@PAUHINSTANCE__@@PBU_GUID@@@Z 10019650 f i BumpBar.obj
 0001:00018740       ?Init@CComSafeDeleteCriticalSection@ATL@@QAEJXZ 10019740 f i BumpBar.obj
 0001:000187c0       ?Init@CDynamicStdCallThunk2@ATL@@QAEHKPAX@Z 100197c0 f i BumpBar.obj
 0001:00018820       ?Init@CWndProcThunk@ATL@@QAEHP6GJPAUHWND__@@IIJ@ZPAX@Z 10019820 f i BumpBar.obj
 0001:00018860       ?InitFromData@?$IOleObjectImpl@VCOPOSBumpBar@@@ATL@@UAGJPAUIDataObject@@HK@Z 10019860 f i BumpBar.obj
 0001:000188d0       ?InitLibId@?$CAtlModuleT@VCComModule@ATL@@@ATL@@SAXXZ 100198d0 f i BumpBar.obj
 0001:000188e0       ?InitNew@?$IPersistStorageImpl@VCOPOSBumpBar@@@ATL@@UAGJPAUIStorage@@@Z 100198e0 f i BumpBar.obj
 0001:000189d0       ?InitNew@?$IPersistStreamInitImpl@VCOPOSBumpBar@@@ATL@@UAGJXZ 100199d0 f i BumpBar.obj
 0001:00018a60       ?InlineIsEqualUnknown@ATL@@YGHABU_GUID@@@Z 10019a60 f i BumpBar.obj
 0001:00018ad0       ?InternalAddRef@?$CComObjectRootEx@VCComMultiThreadModel@ATL@@@ATL@@QAEKXZ 10019ad0 f i BumpBar.obj
 0001:00018b30       ?InternalAddRef@?$CComObjectRootEx@VCComSingleThreadModel@ATL@@@ATL@@QAEKXZ 10019b30 f i BumpBar.obj
 0001:00018b90       ?InternalFinalConstructAddRef@CComObjectRootBase@ATL@@QAEXXZ 10019b90 f i BumpBar.obj
 0001:00018bb0       ?InternalFinalConstructAddRef@COPOSBumpBar@@QAEXXZ 10019bb0 f i BumpBar.obj
 0001:00018be0       ?InternalFinalConstructRelease@CComObjectRootBase@ATL@@QAEXXZ 10019be0 f i BumpBar.obj
 0001:00018c30       ?InternalFinalConstructRelease@COPOSBumpBar@@QAEXXZ 10019c30 f i BumpBar.obj
 0001:00018c60       ?InternalGetSite@CComControlBase@ATL@@QAEJABU_GUID@@PAPAX@Z 10019c60 f i BumpBar.obj
 0001:00018d20       ?InternalQueryInterface@CComObjectRootBase@ATL@@SGJPAXPBU_ATL_INTMAP_ENTRY@2@ABU_GUID@@PAPAX@Z 10019d20 f i BumpBar.obj
 0001:00018de0       ?InternalRelease@?$CComObjectRootEx@VCComMultiThreadModel@ATL@@@ATL@@QAEKXZ 10019de0 f i BumpBar.obj
 0001:00018e50       ?InternalRelease@?$CComObjectRootEx@VCComSingleThreadModel@ATL@@@ATL@@QAEKXZ 10019e50 f i BumpBar.obj
 0001:00018ec0       ?InternalSetAtIndex@?$CSimpleArray@GV?$CSimpleArrayEqualHelper@G@ATL@@@ATL@@QAEXHABG@Z 10019ec0 f i BumpBar.obj
 0001:00018f30       ?InternalSetAtIndex@?$CSimpleMap@PA_WPA_WVCExpansionVectorEqualHelper@ATL@@@ATL@@QAEXHABQA_W0@Z 10019f30 f i BumpBar.obj
 0001:00018fd0       ?Invoke@?$IDispatchImpl@UIOPOSBumpBar@@$1?IID_IOPOSBumpBar@@3U_GUID@@B$1?LIBID_OposBumpBar_CCO@@3U3@B$00$0A@VCComTypeInfoHolder@ATL@@@ATL@@UAGJJABU_GUID@@KGPAUtagDISPPARAMS@@PAUtagVARIANT@@PAUtagEXCEPINFO@@PAI@Z 10019fd0 f i BumpBar.obj
 0001:00019010       ?Invoke@CComTypeInfoHolder@ATL@@QAEJPAUIDispatch@@JABU_GUID@@KGPAUtagDISPPARAMS@@PAUtagVARIANT@@PAUtagEXCEPINFO@@PAI@Z 1001a010 f i BumpBar.obj
 0001:000190a0       ?IsDirty@?$IPersistStorageImpl@VCOPOSBumpBar@@@ATL@@UAGJXZ 1001a0a0 f i BumpBar.obj
 0001:00019190       ?IsDirty@?$IPersistStreamInitImpl@VCOPOSBumpBar@@@ATL@@UAGJXZ 1001a190 f i BumpBar.obj
 0001:00019230       ?IsEqualKey@CExpansionVectorEqualHelper@ATL@@SA_NQA_W0@Z 1001a230 f i BumpBar.obj
 0001:00019260       ?IsEqualObject@?$CComPtrBase@UIOleClientSite@@@ATL@@QAE_NPAUIUnknown@@@Z 1001a260 f i BumpBar.obj
 0001:00019390       ?IsEqualObject@?$CComPtrBase@UITypeInfo@@@ATL@@QAE_NPAUIUnknown@@@Z 1001a390 f i BumpBar.obj
 0001:000194c0       ?IsSpace@CRegParser@ATL@@IAEH_W@Z 1001a4c0 f i BumpBar.obj
 0001:00019530       ?IsUpToDate@?$IOleObjectImpl@VCOPOSBumpBar@@@ATL@@UAGJXZ 1001a530 f i BumpBar.obj
 0001:00019590       ?Length@CComBSTR@ATL@@QBEIXZ 1001a590 f i BumpBar.obj
 0001:000195d0       ?Load@?$IPersistStorageImpl@VCOPOSBumpBar@@@ATL@@UAGJPAUIStorage@@@Z 1001a5d0 f i BumpBar.obj
 0001:00019730       ?Load@?$IPersistStreamInitImpl@VCOPOSBumpBar@@@ATL@@UAGJPAUIStream@@@Z 1001a730 f i BumpBar.obj
 0001:000197c0       ?LoadCursorW@AtlModuleRegisterWndClassInfoParamW@ATL@@SAPAUHICON__@@PAUHINSTANCE__@@PB_W@Z 1001a7c0 f i BumpBar.obj
 0001:000197f0       ?LoadNameCache@CComTypeInfoHolder@ATL@@QAEJPAUITypeInfo@@@Z 1001a7f0 f i BumpBar.obj
 0001:00019a80       ?Lock@?$CComCritSecLock@VCComCriticalSection@ATL@@@ATL@@QAEJXZ 1001aa80 f i BumpBar.obj
 0001:00019b30       ?Lock@?$CComObjectRootEx@VCComSingleThreadModel@ATL@@@ATL@@QAEXXZ 1001ab30 f i BumpBar.obj
 0001:00019b50       ?Lock@CAtlModule@ATL@@UAEJXZ 1001ab50 f i BumpBar.obj
 0001:00019b80       ?Lock@CComCriticalSection@ATL@@QAEJXZ 1001ab80 f i BumpBar.obj
 0001:00019bc0       ?Lock@CComFakeCriticalSection@ATL@@QAEJXZ 1001abc0 f i BumpBar.obj
 0001:00019be0       ?LockServer@CComClassFactory@ATL@@UAGJH@Z 1001abe0 f i BumpBar.obj
 0001:00019c40       ?Lookup@?$CSimpleMap@PA_WPA_WVCExpansionVectorEqualHelper@ATL@@@ATL@@QBEPA_WABQA_W@Z 1001ac40 f i BumpBar.obj
 0001:00019c90       ?Next@?$CComEnumImpl@UIEnumConnectionPoints@@$1?_GUID_b196b285_bab4_101a_b69c_00aa00341d07@@3U__s_GUID@@BPAUIConnectionPoint@@V?$_CopyInterface@UIConnectionPoint@@@ATL@@@ATL@@UAGJKPAPAUIConnectionPoint@@PAK@Z 1001ac90 f i BumpBar.obj
 0001:00019e00       ?Next@?$CComEnumImpl@UIEnumConnections@@$1?_GUID_b196b287_bab4_101a_b69c_00aa00341d07@@3U__s_GUID@@BUtagCONNECTDATA@@V?$_Copy@UtagCONNECTDATA@@@ATL@@@ATL@@UAGJKPAUtagCONNECTDATA@@PAK@Z 1001ae00 f i BumpBar.obj
 0001:00019f70       ?NextToken@CRegParser@ATL@@IAEJPA_W@Z 1001af70 f i BumpBar.obj
 0001:0001a210       ?OLE2CT_EX@@YAPB_WPB_WI@Z  1001b210 f i BumpBar.obj
 0001:0001a220       ?OLE2CT_EX_DEF@@YAPB_WPB_W@Z 1001b220 f i BumpBar.obj
 0001:0001a230       ?OLE2T_EX@@YAPA_WPA_WI@Z   1001b230 f i BumpBar.obj
 0001:0001a240       ?OnAmbientPropertyChange@?$IOleControlImpl@VCOPOSBumpBar@@@ATL@@UAGJJ@Z 1001b240 f i BumpBar.obj
 0001:0001a2d0       ?OnDocWindowActivate@?$IOleInPlaceActiveObjectImpl@VCOPOSBumpBar@@@ATL@@UAGJH@Z 1001b2d0 f i BumpBar.obj
 0001:0001a360       ?OnDrawAdvanced@CComControlBase@ATL@@UAEJAAUATL_DRAWINFO@@@Z 1001b360 f i BumpBar.obj
 0001:0001a580       ?OnFinalMessage@?$CWindowImplBaseT@VCWindow@ATL@@V?$CWinTraits@$0FGAAAAAA@$0A@@2@@ATL@@UAEXPAUHWND__@@@Z 1001b580 f i BumpBar.obj
 0001:0001a5a0       ?OnFrameWindowActivate@?$IOleInPlaceActiveObjectImpl@VCOPOSBumpBar@@@ATL@@UAGJH@Z 1001b5a0 f i BumpBar.obj
 0001:0001a600       ?OnKillFocus@CComControlBase@ATL@@QAEJIIJAAH@Z 1001b600 f i BumpBar.obj
 0001:0001a700       ?OnMnemonic@?$IOleControlImpl@VCOPOSBumpBar@@@ATL@@UAGJPAUtagMSG@@@Z 1001b700 f i BumpBar.obj
 0001:0001a770       ?OnMouseActivate@CComControlBase@ATL@@QAEJIIJAAH@Z 1001b770 f i BumpBar.obj
 0001:0001a8c0       ?OnPaint@CComControlBase@ATL@@QAEJIIJAAH@Z 1001b8c0 f i BumpBar.obj
 0001:0001aa40       ?OnPostVerbDiscardUndo@?$IOleObjectImpl@VCOPOSBumpBar@@@ATL@@QAEJXZ 1001ba40 f i BumpBar.obj
 0001:0001aa60       ?OnPostVerbHide@?$IOleObjectImpl@VCOPOSBumpBar@@@ATL@@QAEJXZ 1001ba60 f i BumpBar.obj
 0001:0001aa80       ?OnPostVerbInPlaceActivate@?$IOleObjectImpl@VCOPOSBumpBar@@@ATL@@QAEJXZ 1001ba80 f i BumpBar.obj
 0001:0001aaa0       ?OnPostVerbOpen@?$IOleObjectImpl@VCOPOSBumpBar@@@ATL@@QAEJXZ 1001baa0 f i BumpBar.obj
 0001:0001aac0       ?OnPostVerbShow@?$IOleObjectImpl@VCOPOSBumpBar@@@ATL@@QAEJXZ 1001bac0 f i BumpBar.obj
 0001:0001aae0       ?OnPostVerbUIActivate@?$IOleObjectImpl@VCOPOSBumpBar@@@ATL@@QAEJXZ 1001bae0 f i BumpBar.obj
 0001:0001ab00       ?OnPreVerbDiscardUndo@?$IOleObjectImpl@VCOPOSBumpBar@@@ATL@@QAEJXZ 1001bb00 f i BumpBar.obj
 0001:0001ab20       ?OnPreVerbHide@?$IOleObjectImpl@VCOPOSBumpBar@@@ATL@@QAEJXZ 1001bb20 f i BumpBar.obj
 0001:0001ab40       ?OnPreVerbInPlaceActivate@?$IOleObjectImpl@VCOPOSBumpBar@@@ATL@@QAEJXZ 1001bb40 f i BumpBar.obj
 0001:0001ab60       ?OnPreVerbOpen@?$IOleObjectImpl@VCOPOSBumpBar@@@ATL@@QAEJXZ 1001bb60 f i BumpBar.obj
 0001:0001ab80       ?OnPreVerbShow@?$IOleObjectImpl@VCOPOSBumpBar@@@ATL@@QAEJXZ 1001bb80 f i BumpBar.obj
 0001:0001aba0       ?OnPreVerbUIActivate@?$IOleObjectImpl@VCOPOSBumpBar@@@ATL@@QAEJXZ 1001bba0 f i BumpBar.obj
 0001:0001abc0       ?OnSetFocus@CComControlBase@ATL@@QAEJIIJAAH@Z 1001bbc0 f i BumpBar.obj
 0001:0001ad50       ?OnWindowMessage@?$IOleInPlaceObjectWindowlessImpl@VCOPOSBumpBar@@@ATL@@UAGJIIJPAJ@Z 1001bd50 f i BumpBar.obj
 0001:0001aeb0       ?Open@CRegKey@ATL@@QAEJPAUHKEY__@@PB_WK@Z 1001beb0 f i BumpBar.obj
 0001:0001b000       ?OuterAddRef@CComObjectRootBase@ATL@@QAEKXZ 1001c000 f i BumpBar.obj
 0001:0001b040       ?OuterQueryInterface@CComObjectRootBase@ATL@@QAEJABU_GUID@@PAPAX@Z 1001c040 f i BumpBar.obj
 0001:0001b090       ?OuterRelease@CComObjectRootBase@ATL@@QAEKXZ 1001c090 f i BumpBar.obj
 0001:0001b0d0       ?PreProcessBuffer@CRegParser@ATL@@QAEJPA_WPAPA_W@Z 1001c0d0 f i BumpBar.obj
 0001:0001b610       ?PreTranslateAccelerator@CComControlBase@ATL@@QAEHPAUtagMSG@@AAJ@Z 1001c610 f i BumpBar.obj
 0001:0001b630       ?ProcessWindowMessage@?$CComControl@VCOPOSBumpBar@@V?$CWindowImpl@VCOPOSBumpBar@@VCWindow@ATL@@V?$CWinTraits@$0FGAAAAAA@$0A@@3@@ATL@@@ATL@@UAEHPAUHWND__@@IIJAAJK@Z 1001c630 f i BumpBar.obj
 0001:0001b800       ?ProcessWindowMessage@COPOSBumpBar@@UAEHPAUHWND__@@IIJAAJK@Z 1001c800 f i BumpBar.obj
 0001:0001b900       ?PutProperty@?$CComPtr@UIDispatch@@@ATL@@QAEJJPAUtagVARIANT@@@Z 1001c900 f i BumpBar.obj
 0001:0001b940       ?PutProperty@?$CComPtr@UIDispatch@@@ATL@@SAJPAUIDispatch@@JPAUtagVARIANT@@@Z 1001c940 f i BumpBar.obj
 0001:0001bb30       ?QueryGetData@?$IDataObjectImpl@VCOPOSBumpBar@@@ATL@@UAGJPAUtagFORMATETC@@@Z 1001cb30 f i BumpBar.obj
 0001:0001bba0       ?QueryHitPoint@?$IViewObjectExImpl@VCOPOSBumpBar@@@ATL@@UAGJKPBUtagRECT@@UtagPOINT@@JPAK@Z 1001cba0 f i BumpBar.obj
 0001:0001bcb0       ?QueryHitRect@?$IViewObjectExImpl@VCOPOSBumpBar@@@ATL@@UAGJKPBUtagRECT@@0JPAK@Z 1001ccb0 f i BumpBar.obj
 0001:0001be00       ?QueryInterface@?$CComAggObject@VCOPOSBumpBar@@@ATL@@UAGJABU_GUID@@PAPAX@Z 1001ce00 f i BumpBar.obj
 0001:0001beb0       ?QueryInterface@?$CComContainedObject@VCOPOSBumpBar@@@ATL@@UAGJABU_GUID@@PAPAX@Z 1001ceb0 f i BumpBar.obj
 0001:0001bed4       ?QueryInterface@?$CComContainedObject@VCOPOSBumpBar@@@ATL@@WHA@AGJABU_GUID@@PAPAX@Z 1001ced4 f i BumpBar.obj
 0001:0001bede       ?QueryInterface@?$CComContainedObject@VCOPOSBumpBar@@@ATL@@WHE@AGJABU_GUID@@PAPAX@Z 1001cede f i BumpBar.obj
 0001:0001bee8       ?QueryInterface@?$CComContainedObject@VCOPOSBumpBar@@@ATL@@WHI@AGJABU_GUID@@PAPAX@Z 1001cee8 f i BumpBar.obj
 0001:0001bef2       ?QueryInterface@?$CComContainedObject@VCOPOSBumpBar@@@ATL@@WHM@AGJABU_GUID@@PAPAX@Z 1001cef2 f i BumpBar.obj
 0001:0001befc       ?QueryInterface@?$CComContainedObject@VCOPOSBumpBar@@@ATL@@WIA@AGJABU_GUID@@PAPAX@Z 1001cefc f i BumpBar.obj
 0001:0001bf09       ?QueryInterface@?$CComContainedObject@VCOPOSBumpBar@@@ATL@@WIE@AGJABU_GUID@@PAPAX@Z 1001cf09 f i BumpBar.obj
 0001:0001bf16       ?QueryInterface@?$CComContainedObject@VCOPOSBumpBar@@@ATL@@WII@AGJABU_GUID@@PAPAX@Z 1001cf16 f i BumpBar.obj
 0001:0001bf23       ?QueryInterface@?$CComContainedObject@VCOPOSBumpBar@@@ATL@@WIM@AGJABU_GUID@@PAPAX@Z 1001cf23 f i BumpBar.obj
 0001:0001bf30       ?QueryInterface@?$CComContainedObject@VCOPOSBumpBar@@@ATL@@WJA@AGJABU_GUID@@PAPAX@Z 1001cf30 f i BumpBar.obj
 0001:0001bf3d       ?QueryInterface@?$CComContainedObject@VCOPOSBumpBar@@@ATL@@WJE@AGJABU_GUID@@PAPAX@Z 1001cf3d f i BumpBar.obj
 0001:0001bf4a       ?QueryInterface@?$CComContainedObject@VCOPOSBumpBar@@@ATL@@WJI@AGJABU_GUID@@PAPAX@Z 1001cf4a f i BumpBar.obj
 0001:0001bf57       ?QueryInterface@?$CComContainedObject@VCOPOSBumpBar@@@ATL@@WJM@AGJABU_GUID@@PAPAX@Z 1001cf57 f i BumpBar.obj
 0001:0001bf64       ?QueryInterface@?$CComContainedObject@VCOPOSBumpBar@@@ATL@@WKA@AGJABU_GUID@@PAPAX@Z 1001cf64 f i BumpBar.obj
 0001:0001bf80       ?QueryInterface@?$CComObject@V?$CComEnum@UIEnumConnectionPoints@@$1?_GUID_b196b285_bab4_101a_b69c_00aa00341d07@@3U__s_GUID@@BPAUIConnectionPoint@@V?$_CopyInterface@UIConnectionPoint@@@ATL@@VCComSingleThreadModel@6@@ATL@@@ATL@@UAGJABU_GUID@@PAPAX@Z 1001cf80 f i BumpBar.obj
 0001:0001bfa0       ?QueryInterface@?$CComObject@V?$CComEnum@UIEnumConnections@@$1?_GUID_b196b287_bab4_101a_b69c_00aa00341d07@@3U__s_GUID@@BUtagCONNECTDATA@@V?$_Copy@UtagCONNECTDATA@@@ATL@@VCComSingleThreadModel@6@@ATL@@@ATL@@UAGJABU_GUID@@PAPAX@Z 1001cfa0 f i BumpBar.obj
 0001:0001bfc0       ?QueryInterface@?$CComObject@VCOPOSBumpBar@@@ATL@@UAGJABU_GUID@@PAPAX@Z 1001cfc0 f i BumpBar.obj
 0001:0001bfde       ?QueryInterface@?$CComObject@VCOPOSBumpBar@@@ATL@@WHA@AGJABU_GUID@@PAPAX@Z 1001cfde f i BumpBar.obj
 0001:0001bfe8       ?QueryInterface@?$CComObject@VCOPOSBumpBar@@@ATL@@WHE@AGJABU_GUID@@PAPAX@Z 1001cfe8 f i BumpBar.obj
 0001:0001bff2       ?QueryInterface@?$CComObject@VCOPOSBumpBar@@@ATL@@WHI@AGJABU_GUID@@PAPAX@Z 1001cff2 f i BumpBar.obj
 0001:0001bffc       ?QueryInterface@?$CComObject@VCOPOSBumpBar@@@ATL@@WHM@AGJABU_GUID@@PAPAX@Z 1001cffc f i BumpBar.obj
 0001:0001c006       ?QueryInterface@?$CComObject@VCOPOSBumpBar@@@ATL@@WIA@AGJABU_GUID@@PAPAX@Z 1001d006 f i BumpBar.obj
 0001:0001c013       ?QueryInterface@?$CComObject@VCOPOSBumpBar@@@ATL@@WIE@AGJABU_GUID@@PAPAX@Z 1001d013 f i BumpBar.obj
 0001:0001c020       ?QueryInterface@?$CComObject@VCOPOSBumpBar@@@ATL@@WII@AGJABU_GUID@@PAPAX@Z 1001d020 f i BumpBar.obj
 0001:0001c02d       ?QueryInterface@?$CComObject@VCOPOSBumpBar@@@ATL@@WIM@AGJABU_GUID@@PAPAX@Z 1001d02d f i BumpBar.obj
 0001:0001c03a       ?QueryInterface@?$CComObject@VCOPOSBumpBar@@@ATL@@WJA@AGJABU_GUID@@PAPAX@Z 1001d03a f i BumpBar.obj
 0001:0001c047       ?QueryInterface@?$CComObject@VCOPOSBumpBar@@@ATL@@WJE@AGJABU_GUID@@PAPAX@Z 1001d047 f i BumpBar.obj
 0001:0001c054       ?QueryInterface@?$CComObject@VCOPOSBumpBar@@@ATL@@WJI@AGJABU_GUID@@PAPAX@Z 1001d054 f i BumpBar.obj
 0001:0001c061       ?QueryInterface@?$CComObject@VCOPOSBumpBar@@@ATL@@WJM@AGJABU_GUID@@PAPAX@Z 1001d061 f i BumpBar.obj
 0001:0001c06e       ?QueryInterface@?$CComObject@VCOPOSBumpBar@@@ATL@@WKA@AGJABU_GUID@@PAPAX@Z 1001d06e f i BumpBar.obj
 0001:0001c080       ?QueryInterface@?$CComObjectCached@VCComClassFactory@ATL@@@ATL@@UAGJABU_GUID@@PAPAX@Z 1001d080 f i BumpBar.obj
 0001:0001c0a0       ?QueryInterface@CRegObject@ATL@@UAGJABU_GUID@@PAPAX@Z 1001d0a0 f i BumpBar.obj
 0001:0001c0f0       ?QuickActivate@?$IQuickActivateImpl@VCOPOSBumpBar@@@ATL@@UAGJPAUtagQACONTAINER@@PAUtagQACONTROL@@@Z 1001d0f0 f i BumpBar.obj
 0001:0001c180       ?ReactivateAndUndo@?$IOleInPlaceObjectWindowlessImpl@VCOPOSBumpBar@@@ATL@@UAGJXZ 1001d180 f i BumpBar.obj
 0001:0001c1f0       ?ReadFromStream@CComBSTR@ATL@@QAEJPAUIStream@@@Z 1001d1f0 f i BumpBar.obj
 0001:0001c5f0       ?ReadFromStream@CComVariant@ATL@@QAEJPAUIStream@@GTClassesAllowedInStream@2@K@Z 1001d5f0 f i BumpBar.obj
 0001:0001c950       ?RecurseDeleteKey@CRegKey@ATL@@QAEJPB_W@Z 1001d950 f i BumpBar.obj
 0001:0001cb30       ?RegCreateKeyExW@CAtlTransactionManager@ATL@@QAEJPAUHKEY__@@PB_WKPA_WKKQAU_SECURITY_ATTRIBUTES@@PAPAU3@PAK@Z 1001db30 f i BumpBar.obj
 0001:0001cc60       ?RegDeleteKeyW@CAtlTransactionManager@ATL@@QAEJPAUHKEY__@@PB_W@Z 1001dc60 f i BumpBar.obj
 0001:0001cd60       ?RegOpenKeyExW@CAtlTransactionManager@ATL@@QAEJPAUHKEY__@@PB_WKKPAPAU3@@Z 1001dd60 f i BumpBar.obj
 0001:0001ce70       ?Register@_ATL_WNDCLASSINFOW@ATL@@QAEGPAP6GJPAUHWND__@@IIJ@Z@Z 1001de70 f i BumpBar.obj
 0001:0001ceb0       ?RegisterBuffer@CRegParser@ATL@@QAEJPA_WH@Z 1001deb0 f i BumpBar.obj
 0001:0001d1e0       ?RegisterClassExW@AtlModuleRegisterWndClassInfoParamW@ATL@@SAGPAU_ATL_WIN_MODULE70@2@PBUtagWNDCLASSEXW@@@Z 1001e1e0 f i BumpBar.obj
 0001:0001d200       ?RegisterFromResource@CRegObject@ATL@@IAEJPB_W00H@Z 1001e200 f i BumpBar.obj
 0001:0001d590       ?RegisterServer@?$CAtlModuleT@VCComModule@ATL@@@ATL@@QAEJHPBU_GUID@@@Z 1001e590 f i BumpBar.obj
 0001:0001d610       ?RegisterServer@CAtlComModule@ATL@@QAEJHPBU_GUID@@@Z 1001e610 f i BumpBar.obj
 0001:0001d640       ?RegisterServer@CComModule@ATL@@QAEJHPBU_GUID@@@Z 1001e640 f i BumpBar.obj
 0001:0001d720       ?RegisterSubkeys@CRegParser@ATL@@IAEJPA_WPAUHKEY__@@HH@Z 1001e720 f i BumpBar.obj
 0001:0001e240       ?Release@?$CComAggObject@VCOPOSBumpBar@@@ATL@@UAGKXZ 1001f240 f i BumpBar.obj
 0001:0001e300       ?Release@?$CComContainedObject@VCOPOSBumpBar@@@ATL@@UAGKXZ 1001f300 f i BumpBar.obj
 0001:0001e31c       ?Release@?$CComContainedObject@VCOPOSBumpBar@@@ATL@@WHA@AGKXZ 1001f31c f i BumpBar.obj
 0001:0001e326       ?Release@?$CComContainedObject@VCOPOSBumpBar@@@ATL@@WHE@AGKXZ 1001f326 f i BumpBar.obj
 0001:0001e330       ?Release@?$CComContainedObject@VCOPOSBumpBar@@@ATL@@WHI@AGKXZ 1001f330 f i BumpBar.obj
 0001:0001e33a       ?Release@?$CComContainedObject@VCOPOSBumpBar@@@ATL@@WHM@AGKXZ 1001f33a f i BumpBar.obj
 0001:0001e344       ?Release@?$CComContainedObject@VCOPOSBumpBar@@@ATL@@WIA@AGKXZ 1001f344 f i BumpBar.obj
 0001:0001e351       ?Release@?$CComContainedObject@VCOPOSBumpBar@@@ATL@@WIE@AGKXZ 1001f351 f i BumpBar.obj
 0001:0001e35e       ?Release@?$CComContainedObject@VCOPOSBumpBar@@@ATL@@WII@AGKXZ 1001f35e f i BumpBar.obj
 0001:0001e36b       ?Release@?$CComContainedObject@VCOPOSBumpBar@@@ATL@@WIM@AGKXZ 1001f36b f i BumpBar.obj
 0001:0001e378       ?Release@?$CComContainedObject@VCOPOSBumpBar@@@ATL@@WJA@AGKXZ 1001f378 f i BumpBar.obj
 0001:0001e385       ?Release@?$CComContainedObject@VCOPOSBumpBar@@@ATL@@WJE@AGKXZ 1001f385 f i BumpBar.obj
 0001:0001e392       ?Release@?$CComContainedObject@VCOPOSBumpBar@@@ATL@@WJI@AGKXZ 1001f392 f i BumpBar.obj
 0001:0001e39f       ?Release@?$CComContainedObject@VCOPOSBumpBar@@@ATL@@WJM@AGKXZ 1001f39f f i BumpBar.obj
 0001:0001e3ac       ?Release@?$CComContainedObject@VCOPOSBumpBar@@@ATL@@WKA@AGKXZ 1001f3ac f i BumpBar.obj
 0001:0001e3b9       ?Release@?$CComContainedObject@VCOPOSBumpBar@@@ATL@@WKI@AGKXZ 1001f3b9 f i BumpBar.obj
 0001:0001e3c6       ?Release@?$CComContainedObject@VCOPOSBumpBar@@@ATL@@WLE@AGKXZ 1001f3c6 f i BumpBar.obj
 0001:0001e3e0       ?Release@?$CComObject@V?$CComEnum@UIEnumConnectionPoints@@$1?_GUID_b196b285_bab4_101a_b69c_00aa00341d07@@3U__s_GUID@@BPAUIConnectionPoint@@V?$_CopyInterface@UIConnectionPoint@@@ATL@@VCComSingleThreadModel@6@@ATL@@@ATL@@UAGKXZ 1001f3e0 f i BumpBar.obj
 0001:0001e4a0       ?Release@?$CComObject@V?$CComEnum@UIEnumConnections@@$1?_GUID_b196b287_bab4_101a_b69c_00aa00341d07@@3U__s_GUID@@BUtagCONNECTDATA@@V?$_Copy@UtagCONNECTDATA@@@ATL@@VCComSingleThreadModel@6@@ATL@@@ATL@@UAGKXZ 1001f4a0 f i BumpBar.obj
 0001:0001e560       ?Release@?$CComObject@VCOPOSBumpBar@@@ATL@@UAGKXZ 1001f560 f i BumpBar.obj
 0001:0001e621       ?Release@?$CComObject@VCOPOSBumpBar@@@ATL@@WHA@AGKXZ 1001f621 f i BumpBar.obj
 0001:0001e62b       ?Release@?$CComObject@VCOPOSBumpBar@@@ATL@@WHE@AGKXZ 1001f62b f i BumpBar.obj
 0001:0001e635       ?Release@?$CComObject@VCOPOSBumpBar@@@ATL@@WHI@AGKXZ 1001f635 f i BumpBar.obj
 0001:0001e63f       ?Release@?$CComObject@VCOPOSBumpBar@@@ATL@@WHM@AGKXZ 1001f63f f i BumpBar.obj
 0001:0001e649       ?Release@?$CComObject@VCOPOSBumpBar@@@ATL@@WIA@AGKXZ 1001f649 f i BumpBar.obj
 0001:0001e656       ?Release@?$CComObject@VCOPOSBumpBar@@@ATL@@WIE@AGKXZ 1001f656 f i BumpBar.obj
 0001:0001e663       ?Release@?$CComObject@VCOPOSBumpBar@@@ATL@@WII@AGKXZ 1001f663 f i BumpBar.obj
 0001:0001e670       ?Release@?$CComObject@VCOPOSBumpBar@@@ATL@@WIM@AGKXZ 1001f670 f i BumpBar.obj
 0001:0001e67d       ?Release@?$CComObject@VCOPOSBumpBar@@@ATL@@WJA@AGKXZ 1001f67d f i BumpBar.obj
 0001:0001e68a       ?Release@?$CComObject@VCOPOSBumpBar@@@ATL@@WJE@AGKXZ 1001f68a f i BumpBar.obj
 0001:0001e697       ?Release@?$CComObject@VCOPOSBumpBar@@@ATL@@WJI@AGKXZ 1001f697 f i BumpBar.obj
 0001:0001e6a4       ?Release@?$CComObject@VCOPOSBumpBar@@@ATL@@WJM@AGKXZ 1001f6a4 f i BumpBar.obj
 0001:0001e6b1       ?Release@?$CComObject@VCOPOSBumpBar@@@ATL@@WKA@AGKXZ 1001f6b1 f i BumpBar.obj
 0001:0001e6be       ?Release@?$CComObject@VCOPOSBumpBar@@@ATL@@WKI@AGKXZ 1001f6be f i BumpBar.obj
 0001:0001e6cb       ?Release@?$CComObject@VCOPOSBumpBar@@@ATL@@WLE@AGKXZ 1001f6cb f i BumpBar.obj
 0001:0001e6e0       ?Release@?$CComObjectCached@VCComClassFactory@ATL@@@ATL@@UAGKXZ 1001f6e0 f i BumpBar.obj
 0001:0001e780       ?Release@?$CComPtrBase@UIAdviseSink@@@ATL@@QAEXXZ 1001f780 f i BumpBar.obj
 0001:0001e7e0       ?Release@?$CComPtrBase@UIDispatch@@@ATL@@QAEXXZ 1001f7e0 f i BumpBar.obj
 0001:0001e840       ?Release@?$CComPtrBase@UIOleInPlaceSiteWindowless@@@ATL@@QAEXXZ 1001f840 f i BumpBar.obj
 0001:0001e8a0       ?Release@CRegObject@ATL@@UAGKXZ 1001f8a0 f i BumpBar.obj
 0001:0001e8e0       ?Remove@CComDynamicUnkArray@ATL@@QAEHK@Z 1001f8e0 f i BumpBar.obj
 0001:0001e990       ?RemoveAll@?$CSimpleMap@PA_WPA_WVCExpansionVectorEqualHelper@ATL@@@ATL@@QAEXXZ 1001f990 f i BumpBar.obj
 0001:0001ea20       ?Reset@?$CComEnumImpl@UIEnumConnectionPoints@@$1?_GUID_b196b285_bab4_101a_b69c_00aa00341d07@@3U__s_GUID@@BPAUIConnectionPoint@@V?$_CopyInterface@UIConnectionPoint@@@ATL@@@ATL@@UAGJXZ 1001fa20 f i BumpBar.obj
 0001:0001ea40       ?Reset@?$CComEnumImpl@UIEnumConnections@@$1?_GUID_b196b287_bab4_101a_b69c_00aa00341d07@@3U__s_GUID@@BUtagCONNECTDATA@@V?$_Copy@UtagCONNECTDATA@@@ATL@@@ATL@@UAGJXZ 1001fa40 f i BumpBar.obj
 0001:0001ea60       ?ResizeBorder@?$IOleInPlaceActiveObjectImpl@VCOPOSBumpBar@@@ATL@@UAGJPBUtagRECT@@PAUIOleInPlaceUIWindow@@H@Z 1001fa60 f i BumpBar.obj
 0001:0001eac0       ?ResourceRegister@CRegObject@ATL@@QAGJPB_WI0@Z 1001fac0 f i BumpBar.obj
 0001:0001eba0       ?ResourceRegisterSz@CRegObject@ATL@@QAGJPB_W00@Z 1001fba0 f i BumpBar.obj
 0001:0001eca0       ?ResourceUnregister@CRegObject@ATL@@QAGJPB_WI0@Z 1001fca0 f i BumpBar.obj
 0001:0001ed80       ?ResourceUnregisterSz@CRegObject@ATL@@QAGJPB_W00@Z 1001fd80 f i BumpBar.obj
 0001:0001ee80       ?SOData@COPOSBumpBar@@MAGJJ@Z 1001fe80 f i BumpBar.obj
 0001:0001ef00       ?SODirectIO@COPOSBumpBar@@MAGJJPAJPAPA_W@Z 1001ff00 f i BumpBar.obj
 0001:0001f0c0       ?SOError@COPOSBumpBar@@MAGJJJJPAJ@Z 100200c0 f i BumpBar.obj
 0001:0001f180       ?SOOutputComplete@COPOSBumpBar@@MAGJJ@Z 10020180 f i BumpBar.obj
 0001:0001f200       ?SOStatusUpdate@COPOSBumpBar@@MAGJJ@Z 10020200 f i BumpBar.obj
 0001:0001f280       ?Save@?$IPersistStorageImpl@VCOPOSBumpBar@@@ATL@@UAGJPAUIStorage@@H@Z 10020280 f i BumpBar.obj
 0001:0001f3e0       ?Save@?$IPersistStreamInitImpl@VCOPOSBumpBar@@@ATL@@UAGJPAUIStream@@H@Z 100203e0 f i BumpBar.obj
 0001:0001f470       ?SaveCompleted@?$IPersistStorageImpl@VCOPOSBumpBar@@@ATL@@UAGJPAUIStorage@@@Z 10020470 f i BumpBar.obj
 0001:0001f4d0       ?SendOnDataChange@CComControlBase@ATL@@QAEJK@Z 100204d0 f i BumpBar.obj
 0001:0001f5c0       ?SendOnSave@CComControlBase@ATL@@QAEJXZ 100205c0 f i BumpBar.obj
 0001:0001f630       ?SendOnViewChange@CComControlBase@ATL@@QAEJKJ@Z 10020630 f i BumpBar.obj
 0001:0001f6a0       ?SetAdvise@?$IViewObjectExImpl@VCOPOSBumpBar@@@ATL@@UAGJKKPAUIAdviseSink@@@Z 100206a0 f i BumpBar.obj
 0001:0001f730       ?SetClientSite@?$IOleObjectImpl@VCOPOSBumpBar@@@ATL@@UAGJPAUIOleClientSite@@@Z 10020730 f i BumpBar.obj
 0001:0001f7c0       ?SetColorScheme@?$IOleObjectImpl@VCOPOSBumpBar@@@ATL@@UAGJPAUtagLOGPALETTE@@@Z 100207c0 f i BumpBar.obj
 0001:0001f830       ?SetContentExtent@?$IQuickActivateImpl@VCOPOSBumpBar@@@ATL@@UAGJPAUtagSIZE@@@Z 10020830 f i BumpBar.obj
 0001:0001f8c0       ?SetControlFocus@CComControlBase@ATL@@QAEHH@Z 100208c0 f i BumpBar.obj
 0001:0001fa40       ?SetDWORDValue@CRegKey@ATL@@QAEJPB_WK@Z 10020a40 f i BumpBar.obj
 0001:0001fac0       ?SetData@?$IDataObjectImpl@VCOPOSBumpBar@@@ATL@@UAGJPAUtagFORMATETC@@PAUtagSTGMEDIUM@@H@Z 10020ac0 f i BumpBar.obj
 0001:0001fb30       ?SetExtent@?$IOleObjectImpl@VCOPOSBumpBar@@@ATL@@UAGJKPAUtagSIZE@@@Z 10020b30 f i BumpBar.obj
 0001:0001fbc0       ?SetHostNames@?$IOleObjectImpl@VCOPOSBumpBar@@@ATL@@UAGJPB_W0@Z 10020bc0 f i BumpBar.obj
 0001:0001fc20       ?SetInterfaceSafetyOptions@?$IObjectSafetyImpl@VCOPOSBumpBar@@$02@ATL@@UAGJABU_GUID@@KK@Z 10020c20 f i BumpBar.obj
 0001:0001fd90       ?SetMoniker@?$IOleObjectImpl@VCOPOSBumpBar@@@ATL@@UAGJKPAUIMoniker@@@Z 10020d90 f i BumpBar.obj
 0001:0001fe00       ?SetMultiStringValue@CRegKey@ATL@@QAEJPB_W0@Z 10020e00 f i BumpBar.obj
 0001:0001ff20       ?SetObjectRects@?$IOleInPlaceObjectWindowlessImpl@VCOPOSBumpBar@@@ATL@@UAGJPBUtagRECT@@0@Z 10020f20 f i BumpBar.obj
 0001:0001ffb0       ?SetStringValue@CRegKey@ATL@@QAEJPB_W0K@Z 10020fb0 f i BumpBar.obj
 0001:000200e0       ?SetVoid@CComClassFactory@ATL@@QAEXPAX@Z 100210e0 f i BumpBar.obj
 0001:00020100       ?SetVoid@CComObjectRootBase@ATL@@QAEXPAX@Z 10021100 f i BumpBar.obj
 0001:00020120       ?SetWindowLongPtrW@@YAJPAUHWND__@@HJ@Z 10021120 f i BumpBar.obj
 0001:00020150       ?ShowWindow@CWindow@ATL@@QAEHH@Z 10021150 f i BumpBar.obj
 0001:000201d0       ?Skip@?$CComEnumImpl@UIEnumConnectionPoints@@$1?_GUID_b196b285_bab4_101a_b69c_00aa00341d07@@3U__s_GUID@@BPAUIConnectionPoint@@V?$_CopyInterface@UIConnectionPoint@@@ATL@@@ATL@@UAGJK@Z 100211d0 f i BumpBar.obj
 0001:00020250       ?Skip@?$CComEnumImpl@UIEnumConnections@@$1?_GUID_b196b287_bab4_101a_b69c_00aa00341d07@@3U__s_GUID@@BUtagCONNECTDATA@@V?$_Copy@UtagCONNECTDATA@@@ATL@@@ATL@@UAGJK@Z 10021250 f i BumpBar.obj
 0001:000202d0       ?SkipAssignment@CRegParser@ATL@@IAEJPA_W@Z 100212d0 f i BumpBar.obj
 0001:000203b0       ?SkipWhiteSpace@CRegParser@ATL@@IAEXXZ 100213b0 f i BumpBar.obj
 0001:00020400       ?StartWindowProc@?$CWindowImplBaseT@VCWindow@ATL@@V?$CWinTraits@$0FGAAAAAA@$0A@@2@@ATL@@SGJPAUHWND__@@IIJ@Z 10021400 f i BumpBar.obj
 0001:00020520       ?StrChrW@CRegParser@ATL@@KAPA_WPA_W_W@Z 10021520 f i BumpBar.obj
 0001:00020590       ?StrFromMap@CRegObject@ATL@@QAEPB_WPA_W@Z 10021590 f i BumpBar.obj
 0001:00020620       ?Swap@?$CComPtrBase@UIAdviseSink@@@ATL@@IAEXAAV12@@Z 10021620 f i BumpBar.obj
 0001:00020660       ?Swap@?$CComPtrBase@UIOleClientSite@@@ATL@@IAEXAAV12@@Z 10021660 f i BumpBar.obj
 0001:000206a0       ?Swap@?$CComPtrBase@UIUnknown@@@ATL@@IAEXAAV12@@Z 100216a0 f i BumpBar.obj
 0001:000206e0       ?T2COLE_EX@@YAPB_WPB_WI@Z  100216e0 f i BumpBar.obj
 0001:000206f0       ?T2OLE_EX@@YAPA_WPA_WI@Z   100216f0 f i BumpBar.obj
 0001:00020700       ?Term@CAtlModule@ATL@@QAEXXZ 10021700 f i BumpBar.obj
 0001:000207b0       ?Term@CComModule@ATL@@QAEXXZ 100217b0 f i BumpBar.obj
 0001:000208a0       ?TranslateAcceleratorW@?$IOleInPlaceActiveObjectImpl@VCOPOSBumpBar@@@ATL@@UAGJPAUtagMSG@@@Z 100218a0 f i BumpBar.obj
 0001:00020aa0       ?UIDeactivate@?$IOleInPlaceObjectWindowlessImpl@VCOPOSBumpBar@@@ATL@@UAGJXZ 10021aa0 f i BumpBar.obj
 0001:00020b20       ?Unadvise@?$CProxy_IOPOSEvents@VCOPOSBumpBar@@@@UAGJK@Z 10021b20 f i BumpBar.obj
 0001:00020b60       ?Unadvise@?$IConnectionPointImpl@VCOPOSBumpBar@@$1?DIID__IOPOSBumpBarEvents@@3U_GUID@@BVCComDynamicUnkArray@ATL@@@ATL@@UAGJK@Z 10021b60 f i BumpBar.obj
 0001:00020c30       ?Unadvise@?$IConnectionPointImpl@VCOPOSBumpBar@@$1?IID_IPropertyNotifySink@@3U_GUID@@BVCComDynamicUnkArray@ATL@@@ATL@@UAGJK@Z 10021c30 f i BumpBar.obj
 0001:00020d00       ?Unadvise@?$IOleObjectImpl@VCOPOSBumpBar@@@ATL@@UAGJK@Z 10021d00 f i BumpBar.obj
 0001:00020dd0       ?Unfreeze@?$IViewObjectExImpl@VCOPOSBumpBar@@@ATL@@UAGJK@Z 10021dd0 f i BumpBar.obj
 0001:00020e40       ?Unlock@?$CComCritSecLock@VCComCriticalSection@ATL@@@ATL@@QAEXXZ 10021e40 f i BumpBar.obj
 0001:00020eb0       ?Unlock@?$CComObjectRootEx@VCComSingleThreadModel@ATL@@@ATL@@QAEXXZ 10021eb0 f i BumpBar.obj
 0001:00020ed0       ?Unlock@CAtlModule@ATL@@UAEJXZ 10021ed0 f i BumpBar.obj
 0001:00020f00       ?Unlock@CComCriticalSection@ATL@@QAEJXZ 10021f00 f i BumpBar.obj
 0001:00020f40       ?Unlock@CComFakeCriticalSection@ATL@@QAEJXZ 10021f40 f i BumpBar.obj
 0001:00020f60       ?UnregisterServer@?$CAtlModuleT@VCComModule@ATL@@@ATL@@QAEJHPBU_GUID@@@Z 10021f60 f i BumpBar.obj
 0001:00020fd0       ?UnregisterServer@CAtlComModule@ATL@@QAEJHPBU_GUID@@@Z 10021fd0 f i BumpBar.obj
 0001:00021000       ?UnregisterServer@CComModule@ATL@@QAEJHPBU_GUID@@@Z 10022000 f i BumpBar.obj
 0001:000210e0       ?Update@?$IOleObjectImpl@VCOPOSBumpBar@@@ATL@@UAGJXZ 100220e0 f i BumpBar.obj
 0001:00021140       ?UpdateRegistryFromResource@CAtlModule@ATL@@QAGJIHPAU_ATL_REGMAP_ENTRY@2@@Z 10022140 f i BumpBar.obj
 0001:00021610       ?UpdateRegistryFromResource@CAtlModule@ATL@@QAGJPB_WHPAU_ATL_REGMAP_ENTRY@2@@Z 10022610 f i BumpBar.obj
 0001:00021b00       ?UpdateRegistryFromResource@CComModule@ATL@@UAGJIHPAU_ATL_REGMAP_ENTRY@2@@Z 10022b00 f i BumpBar.obj
 0001:00021b30       ?UpdateRegistryFromResource@CComModule@ATL@@UAGJPB_WHPAU_ATL_REGMAP_ENTRY@2@@Z 10022b30 f i BumpBar.obj
 0001:00021b60       ?UpdateRegistryFromResourceD@CComModule@ATL@@UAGJIHPAU_ATL_REGMAP_ENTRY@2@@Z 10022b60 f i BumpBar.obj
 0001:00021b70       ?UpdateRegistryFromResourceD@CComModule@ATL@@UAGJPB_WHPAU_ATL_REGMAP_ENTRY@2@@Z 10022b70 f i BumpBar.obj
 0001:00021b80       ?VTFromRegType@CRegParser@ATL@@KAHPB_WAAG@Z 10022b80 f i BumpBar.obj
 0001:00021c60       ?WindowProc@?$CWindowImplBaseT@VCWindow@ATL@@V?$CWinTraits@$0FGAAAAAA@$0A@@2@@ATL@@SGJPAUHWND__@@IIJ@Z 10022c60 f i BumpBar.obj
 0001:00021e70       ?WriteToStream@CComBSTR@ATL@@QAEJPAUIStream@@@Z 10022e70 f i BumpBar.obj
 0001:00021fd0       ?WriteToStream@CComVariant@ATL@@QAEJPAUIStream@@@Z 10022fd0 f i BumpBar.obj
 0001:00022310       ?WriteToStream@CComVariant@ATL@@QAEJPAUIStream@@G@Z 10023310 f i BumpBar.obj
 0001:000223e0       ?_AtlFinalConstruct@CComObjectRootBase@ATL@@QAEJXZ 100233e0 f i BumpBar.obj
 0001:00022400       ?_AtlGetConversionACP@ATL@@YGIXZ 10023400 f i BumpBar.obj
 0001:00022410       ?_AtlInitialConstruct@?$CComAggObject@VCOPOSBumpBar@@@ATL@@QAEJXZ 10023410 f i BumpBar.obj
 0001:00022460       ?_AtlInitialConstruct@?$CComObjectRootEx@VCComMultiThreadModel@ATL@@@ATL@@QAEJXZ 10023460 f i BumpBar.obj
 0001:00022490       ?_AtlInitialConstruct@?$CComObjectRootEx@VCComSingleThreadModel@ATL@@@ATL@@QAEJXZ 10023490 f i BumpBar.obj
 0001:000224b0       ?_AtlVerifyStackAvailable@_ATL_SAFE_ALLOCA_IMPL@ATL@@YA_NK@Z 100234b0 f i BumpBar.obj
 0001:00022660       ?_GetEntries@?$CComEnum@UIEnumConnectionPoints@@$1?_GUID_b196b285_bab4_101a_b69c_00aa00341d07@@3U__s_GUID@@BPAUIConnectionPoint@@V?$_CopyInterface@UIConnectionPoint@@@ATL@@VCComSingleThreadModel@6@@ATL@@SGPBU_ATL_INTMAP_ENTRY@2@XZ 10023660 f i BumpBar.obj
 0001:00022680       ?_GetEntries@?$CComEnum@UIEnumConnections@@$1?_GUID_b196b287_bab4_101a_b69c_00aa00341d07@@3U__s_GUID@@BUtagCONNECTDATA@@V?$_Copy@UtagCONNECTDATA@@@ATL@@VCComSingleThreadModel@6@@ATL@@SGPBU_ATL_INTMAP_ENTRY@2@XZ 10023680 f i BumpBar.obj
 0001:000226a0       ?_GetEntries@CComClassFactory@ATL@@SGPBU_ATL_INTMAP_ENTRY@2@XZ 100236a0 f i BumpBar.obj
 0001:000226c0       ?_GetEntries@COPOSBumpBar@@SGPBU_ATL_INTMAP_ENTRY@ATL@@XZ 100236c0 f i BumpBar.obj
 0001:000226e0       ?_GetRawUnknown@COPOSBumpBar@@QAEPAUIUnknown@@XZ 100236e0 f i BumpBar.obj
 0001:00022750       ?_GetViewStatus@COPOSBumpBar@@QAEKXZ 10023750 f i BumpBar.obj
 0001:00022770       ?_InternalQueryInterface@?$CComEnum@UIEnumConnectionPoints@@$1?_GUID_b196b285_bab4_101a_b69c_00aa00341d07@@3U__s_GUID@@BPAUIConnectionPoint@@V?$_CopyInterface@UIConnectionPoint@@@ATL@@VCComSingleThreadModel@6@@ATL@@QAEJABU_GUID@@PAPAX@Z 10023770 f i BumpBar.obj
 0001:000227b0       ?_InternalQueryInterface@?$CComEnum@UIEnumConnections@@$1?_GUID_b196b287_bab4_101a_b69c_00aa00341d07@@3U__s_GUID@@BUtagCONNECTDATA@@V?$_Copy@UtagCONNECTDATA@@@ATL@@VCComSingleThreadModel@6@@ATL@@QAEJABU_GUID@@PAPAX@Z 100237b0 f i BumpBar.obj
 0001:000227f0       ?_InternalQueryInterface@CComClassFactory@ATL@@QAEJABU_GUID@@PAPAX@Z 100237f0 f i BumpBar.obj
 0001:00022830       ?_InternalQueryInterface@COPOSBumpBar@@QAEJABU_GUID@@PAPAX@Z 10023830 f i BumpBar.obj
 0001:00022870       ?_LocCPQueryInterface@?$IConnectionPointImpl@VCOPOSBumpBar@@$1?DIID__IOPOSBumpBarEvents@@3U_GUID@@BVCComDynamicUnkArray@ATL@@@ATL@@UAGJABU_GUID@@PAPAX@Z 10023870 f i BumpBar.obj
 0001:00022910       ?_LocCPQueryInterface@?$IConnectionPointImpl@VCOPOSBumpBar@@$1?IID_IPropertyNotifySink@@3U_GUID@@BVCComDynamicUnkArray@ATL@@@ATL@@UAGJABU_GUID@@PAPAX@Z 10023910 f i BumpBar.obj
 0001:000229b0       ?atlCreate@?$CWindowImpl@VCOPOSBumpBar@@VCWindow@ATL@@V?$CWinTraits@$0FGAAAAAA@$0A@@3@@ATL@@QAEPAUHWND__@@PAU3@V_U_RECT@2@PB_WKKV_U_MENUorID@2@PAX@Z 100239b0 f i BumpBar.obj
 0001:00022a60       ?atlCreate@?$CWindowImplBaseT@VCWindow@ATL@@V?$CWinTraits@$0FGAAAAAA@$0A@@2@@ATL@@QAEPAUHWND__@@PAU3@V_U_RECT@2@PB_WKKV_U_MENUorID@2@GPAX@Z 10023a60 f i BumpBar.obj
 0001:00022be0       ?atlCreate@CRegKey@ATL@@QAEJPAUHKEY__@@PB_WPA_WKKPAU_SECURITY_ATTRIBUTES@@PAK@Z 10023be0 f i BumpBar.obj
 0001:00022d40       ?begin@CComDynamicUnkArray@ATL@@QAEPAPAUIUnknown@@XZ 10023d40 f i BumpBar.obj
 0001:00022d60       ?copy@?$_Copy@UtagCONNECTDATA@@@ATL@@SAJPAUtagCONNECTDATA@@PBU3@@Z 10023d60 f i BumpBar.obj
 0001:00022e20       ?copy@?$_CopyInterface@UIConnectionPoint@@@ATL@@SAJPAPAUIConnectionPoint@@PBQAU3@@Z 10023e20 f i BumpBar.obj
 0001:00022ee0       ?destroy@?$_Copy@UtagCONNECTDATA@@@ATL@@SAXPAUtagCONNECTDATA@@@Z 10023ee0 f i BumpBar.obj
 0001:00022f20       ?destroy@?$_CopyInterface@UIConnectionPoint@@@ATL@@SAXPAPAUIConnectionPoint@@@Z 10023f20 f i BumpBar.obj
 0001:00022f60       ?end@CComDynamicUnkArray@ATL@@QAEPAPAUIUnknown@@XZ 10023f60 f i BumpBar.obj
 0001:00022f80       ?init@?$_Copy@UtagCONNECTDATA@@@ATL@@SAXPAUtagCONNECTDATA@@@Z 10023f80 f i BumpBar.obj
 0001:00022f90       ?init@?$_CopyInterface@UIConnectionPoint@@@ATL@@SAXPAPAUIConnectionPoint@@@Z 10023f90 f i BumpBar.obj
 0001:00022fa0       ?memcpy_s@Checked@ATL@@YAXPAXIPBXI@Z 10023fa0 f i BumpBar.obj
 0001:00022fd0       ?ocscpy_s@@YA_NPA_WIPB_W@Z 10023fd0 f i BumpBar.obj
 0001:00023030       ?ocslen@@YAHPB_W@Z         10024030 f i BumpBar.obj
 0001:00023060       ?tcsncpy_s@Checked@ATL@@YAHPA_WIPB_WI@Z 10024060 f i BumpBar.obj
 0001:00023090       ?wcscat_s@Checked@ATL@@YAXPA_WIPB_W@Z 10024090 f i BumpBar.obj
 0001:000230c0       ?wcscpy_s@Checked@ATL@@YAXPA_WIPB_W@Z 100240c0 f i BumpBar.obj
 0001:000230f0       ?wcsncpy_s@Checked@ATL@@YAHPA_WIPB_WI@Z 100240f0 f i BumpBar.obj
 0001:00023120       ?wcsstr@@YAPA_WPA_WPB_W@Z  10024120 f i BumpBar.obj
 0001:00023140       _InlineIsEqualGUID         10024140 f i BumpBar.obj
 0001:000231e0       _IsEqualGUID               100241e0 f i BumpBar.obj
 0001:00023230       ??0COPOSBumpBar@@QAE@XZ    10024230 f   BumpBarImpl.obj
 0001:00023340       ?FinalConstruct@COPOSBumpBar@@QAEJXZ 10024340 f   BumpBarImpl.obj
 0001:00023410       ??1COPOSBumpBar@@UAE@XZ    10024410 f   BumpBarImpl.obj
 0001:000234f0       ?WriteTrace@COPOSBumpBar@@QAAXPB_WZZ 100244f0 f   BumpBarImpl.obj
 0001:000235a0       ?WriteTraceString@COPOSBumpBar@@QAEXPB_WPA_W@Z 100245a0 f   BumpBarImpl.obj
 0001:00023910       ?WriteTraceString@COPOSBumpBar@@QAAXPAXHHHPB_WZZ 10024910 f   BumpBarImpl.obj
 0001:00023b40       ?WriteTraceError@COPOSBumpBar@@QAEXPB_WK@Z 10024b40 f   BumpBarImpl.obj
 0001:00023c30       ?WriteTraceMethods@COPOSBumpBar@@QAEXPAJH@Z 10024c30 f   BumpBarImpl.obj
 0001:00023ca0       ?GetOposProp@COPOSBumpBar@@IAEJPBDJPAJJ@Z 10024ca0 f   BumpBarImpl.obj
 0001:00023f10       ?SetOposProp@COPOSBumpBar@@IAEJPBDJJJ@Z 10024f10 f   BumpBarImpl.obj
 0001:000241a0       ?GetOposProp@COPOSBumpBar@@IAEJPBDJPAFJ@Z 100251a0 f   BumpBarImpl.obj
 0001:00024240       ?SetOposProp@COPOSBumpBar@@IAEJPBDJFJ@Z 10025240 f   BumpBarImpl.obj
 0001:000242a0       ?GetOposProp@COPOSBumpBar@@IAEJPBDJPAPA_WJ@Z 100252a0 f   BumpBarImpl.obj
 0001:00024520       ?SetOposProp@COPOSBumpBar@@IAEJPBDJPA_WJ@Z 10025520 f   BumpBarImpl.obj
 0001:00024860       ?DoInvoke@COPOSBumpBar@@IAEJPBDJPAVOposVariant@@IHPAJ_N@Z 10025860 f   BumpBarImpl.obj
 0001:000251a0       ?SetCOFreezeEvents@COPOSBumpBar@@IAEXF@Z 100261a0 f   BumpBarImpl.obj
 0001:000252e0       ?FreezeEvents@COPOSBumpBar@@MAGJH@Z 100262e0 f   BumpBarImpl.obj
 0001:000253c0       ?OnDraw@COPOSBumpBar@@MAEJAAUATL_DRAWINFO@@@Z 100263c0 f   BumpBarImpl.obj
 0001:00025560       ?SOProcessID@COPOSBumpBar@@UAGJPAJ@Z 10026560 f   BumpBarImpl.obj
 0001:000255a0       ?get_OpenResult@COPOSBumpBar@@UAGJPAJ@Z 100265a0 f   BumpBarImpl.obj
 0001:000255e0       ?get_BinaryConversion@COPOSBumpBar@@UAGJPAJ@Z 100265e0 f   BumpBarImpl.obj
 0001:00025610       ?put_BinaryConversion@COPOSBumpBar@@UAGJJ@Z 10026610 f   BumpBarImpl.obj
 0001:00025640       ?get_CapPowerReporting@COPOSBumpBar@@UAGJPAJ@Z 10026640 f   BumpBarImpl.obj
 0001:00025670       ?get_CheckHealthText@COPOSBumpBar@@UAGJPAPA_W@Z 10026670 f   BumpBarImpl.obj
 0001:000256a0       ?get_Claimed@COPOSBumpBar@@UAGJPAF@Z 100266a0 f   BumpBarImpl.obj
 0001:000256d0       ?get_DataCount@COPOSBumpBar@@UAGJPAJ@Z 100266d0 f   BumpBarImpl.obj
 0001:00025700       ?get_DataEventEnabled@COPOSBumpBar@@UAGJPAF@Z 10026700 f   BumpBarImpl.obj
 0001:00025730       ?put_DataEventEnabled@COPOSBumpBar@@UAGJF@Z 10026730 f   BumpBarImpl.obj
 0001:00025760       ?get_DeviceEnabled@COPOSBumpBar@@UAGJPAF@Z 10026760 f   BumpBarImpl.obj
 0001:00025790       ?put_DeviceEnabled@COPOSBumpBar@@UAGJF@Z 10026790 f   BumpBarImpl.obj
 0001:000257c0       ?get_FreezeEvents@COPOSBumpBar@@UAGJPAF@Z 100267c0 f   BumpBarImpl.obj
 0001:000257f0       ?put_FreezeEvents@COPOSBumpBar@@UAGJF@Z 100267f0 f   BumpBarImpl.obj
 0001:00025880       ?get_OutputID@COPOSBumpBar@@UAGJPAJ@Z 10026880 f   BumpBarImpl.obj
 0001:000258b0       ?get_PowerNotify@COPOSBumpBar@@UAGJPAJ@Z 100268b0 f   BumpBarImpl.obj
 0001:000258e0       ?put_PowerNotify@COPOSBumpBar@@UAGJJ@Z 100268e0 f   BumpBarImpl.obj
 0001:00025910       ?get_PowerState@COPOSBumpBar@@UAGJPAJ@Z 10026910 f   BumpBarImpl.obj
 0001:00025940       ?get_ResultCode@COPOSBumpBar@@UAGJPAJ@Z 10026940 f   BumpBarImpl.obj
 0001:000259d0       ?get_ResultCodeExtended@COPOSBumpBar@@UAGJPAJ@Z 100269d0 f   BumpBarImpl.obj
 0001:00025a00       ?get_State@COPOSBumpBar@@UAGJPAJ@Z 10026a00 f   BumpBarImpl.obj
 0001:00025a50       ?get_ControlObjectDescription@COPOSBumpBar@@UAGJPAPA_W@Z 10026a50 f   BumpBarImpl.obj
 0001:00025ad0       ?get_ControlObjectVersion@COPOSBumpBar@@UAGJPAJ@Z 10026ad0 f   BumpBarImpl.obj
 0001:00025b10       ?get_ServiceObjectDescription@COPOSBumpBar@@UAGJPAPA_W@Z 10026b10 f   BumpBarImpl.obj
 0001:00025b40       ?get_ServiceObjectVersion@COPOSBumpBar@@UAGJPAJ@Z 10026b40 f   BumpBarImpl.obj
 0001:00025b70       ?get_DeviceDescription@COPOSBumpBar@@UAGJPAPA_W@Z 10026b70 f   BumpBarImpl.obj
 0001:00025ba0       ?get_DeviceName@COPOSBumpBar@@UAGJPAPA_W@Z 10026ba0 f   BumpBarImpl.obj
 0001:00025bd0       ?CheckHealth@COPOSBumpBar@@UAGJJPAJ@Z 10026bd0 f   BumpBarImpl.obj
 0001:00025c70       ?ClaimDevice@COPOSBumpBar@@UAGJJPAJ@Z 10026c70 f   BumpBarImpl.obj
 0001:00025d50       ?ClearInput@COPOSBumpBar@@UAGJPAJ@Z 10026d50 f   BumpBarImpl.obj
 0001:00025d80       ?ClearOutput@COPOSBumpBar@@UAGJPAJ@Z 10026d80 f   BumpBarImpl.obj
 0001:00025db0       ?Close@COPOSBumpBar@@UAGJPAJ@Z 10026db0 f   BumpBarImpl.obj
 0001:00025e80       ?DirectIO@COPOSBumpBar@@UAGJJPAJPAPA_W0@Z 10026e80 f   BumpBarImpl.obj
 0001:00025f90       ?Open@COPOSBumpBar@@UAGJPA_WPAJ@Z 10026f90 f   BumpBarImpl.obj
 0001:00027180       ?ReleaseDevice@COPOSBumpBar@@UAGJPAJ@Z 10028180 f   BumpBarImpl.obj
 0001:000271f0       ?get_AsyncMode@COPOSBumpBar@@UAGJPAF@Z 100281f0 f   BumpBarImpl.obj
 0001:00027220       ?put_AsyncMode@COPOSBumpBar@@UAGJF@Z 10028220 f   BumpBarImpl.obj
 0001:00027250       ?get_AutoToneDuration@COPOSBumpBar@@UAGJPAJ@Z 10028250 f   BumpBarImpl.obj
 0001:00027280       ?put_AutoToneDuration@COPOSBumpBar@@UAGJJ@Z 10028280 f   BumpBarImpl.obj
 0001:000272b0       ?get_AutoToneFrequency@COPOSBumpBar@@UAGJPAJ@Z 100282b0 f   BumpBarImpl.obj
 0001:000272e0       ?put_AutoToneFrequency@COPOSBumpBar@@UAGJJ@Z 100282e0 f   BumpBarImpl.obj
 0001:00027310       ?get_BumpBarDataCount@COPOSBumpBar@@UAGJPAJ@Z 10028310 f   BumpBarImpl.obj
 0001:00027340       ?get_CapTone@COPOSBumpBar@@UAGJPAF@Z 10028340 f   BumpBarImpl.obj
 0001:00027370       ?get_CurrentUnitID@COPOSBumpBar@@UAGJPAJ@Z 10028370 f   BumpBarImpl.obj
 0001:000273a0       ?put_CurrentUnitID@COPOSBumpBar@@UAGJJ@Z 100283a0 f   BumpBarImpl.obj
 0001:000273d0       ?get_ErrorString@COPOSBumpBar@@UAGJPAPA_W@Z 100283d0 f   BumpBarImpl.obj
 0001:00027400       ?get_ErrorUnits@COPOSBumpBar@@UAGJPAJ@Z 10028400 f   BumpBarImpl.obj
 0001:00027430       ?get_EventString@COPOSBumpBar@@UAGJPAPA_W@Z 10028430 f   BumpBarImpl.obj
 0001:00027460       ?get_EventUnitID@COPOSBumpBar@@UAGJPAJ@Z 10028460 f   BumpBarImpl.obj
 0001:00027490       ?get_EventUnits@COPOSBumpBar@@UAGJPAJ@Z 10028490 f   BumpBarImpl.obj
 0001:000274c0       ?get_Keys@COPOSBumpBar@@UAGJPAJ@Z 100284c0 f   BumpBarImpl.obj
 0001:000274f0       ?get_Timeout@COPOSBumpBar@@UAGJPAJ@Z 100284f0 f   BumpBarImpl.obj
 0001:00027520       ?put_Timeout@COPOSBumpBar@@UAGJJ@Z 10028520 f   BumpBarImpl.obj
 0001:00027550       ?get_UnitsOnline@COPOSBumpBar@@UAGJPAJ@Z 10028550 f   BumpBarImpl.obj
 0001:00027580       ?BumpBarSound@COPOSBumpBar@@UAGJJJJJJPAJ@Z 10028580 f   BumpBarImpl.obj
 0001:000276b0       ?SetKeyTranslation@COPOSBumpBar@@UAGJJJJPAJ@Z 100286b0 f   BumpBarImpl.obj
 0001:000277a0       ?get_CapStatisticsReporting@COPOSBumpBar@@UAGJPAF@Z 100287a0 f   BumpBarImpl.obj
 0001:000277d0       ?get_CapUpdateStatistics@COPOSBumpBar@@UAGJPAF@Z 100287d0 f   BumpBarImpl.obj
 0001:00027800       ?ResetStatistics@COPOSBumpBar@@UAGJPA_WPAJ@Z 10028800 f   BumpBarImpl.obj
 0001:000278b0       ?RetrieveStatistics@COPOSBumpBar@@UAGJPAPA_WPAJ@Z 100288b0 f   BumpBarImpl.obj
 0001:00027960       ?UpdateStatistics@COPOSBumpBar@@UAGJPA_WPAJ@Z 10028960 f   BumpBarImpl.obj
 0001:00027a10       ?get_CapCompareFirmwareVersion@COPOSBumpBar@@UAGJPAF@Z 10028a10 f   BumpBarImpl.obj
 0001:00027a40       ?get_CapUpdateFirmware@COPOSBumpBar@@UAGJPAF@Z 10028a40 f   BumpBarImpl.obj
 0001:00027a70       ?CompareFirmwareVersion@COPOSBumpBar@@UAGJPA_WPAJ1@Z 10028a70 f   BumpBarImpl.obj
 0001:00027b60       ?UpdateFirmware@COPOSBumpBar@@UAGJPA_WPAJ@Z 10028b60 f   BumpBarImpl.obj
 0001:00027c10       ??0?$CComControl@VCOPOSBumpBar@@V?$CWindowImpl@VCOPOSBumpBar@@VCWindow@ATL@@V?$CWinTraits@$0FGAAAAAA@$0A@@3@@ATL@@@ATL@@QAE@XZ 10028c10 f i BumpBarImpl.obj
 0001:00027c50       ??0?$CComPtr@UIAdviseSink@@@ATL@@QAE@XZ 10028c50 f i BumpBarImpl.obj
 0001:00027c80       ??0?$CComPtr@UIDataAdviseHolder@@@ATL@@QAE@XZ 10028c80 f i BumpBarImpl.obj
 0001:00027cb0       ??0?$CComPtr@UIOleAdviseHolder@@@ATL@@QAE@XZ 10028cb0 f i BumpBarImpl.obj
 0001:00027ce0       ??0?$CComPtr@UIOleClientSite@@@ATL@@QAE@XZ 10028ce0 f i BumpBarImpl.obj
 0001:00027d10       ??0?$CComPtr@UIOleInPlaceSiteWindowless@@@ATL@@QAE@XZ 10028d10 f i BumpBarImpl.obj
 0001:00027d40       ??0?$CComPtrBase@UIAdviseSink@@@ATL@@IAE@XZ 10028d40 f i BumpBarImpl.obj
 0001:00027d60       ??0?$CComPtrBase@UIDataAdviseHolder@@@ATL@@IAE@XZ 10028d60 f i BumpBarImpl.obj
 0001:00027d80       ??0?$CComPtrBase@UIOleAdviseHolder@@@ATL@@IAE@XZ 10028d80 f i BumpBarImpl.obj
 0001:00027da0       ??0?$CComPtrBase@UIOleClientSite@@@ATL@@IAE@XZ 10028da0 f i BumpBarImpl.obj
 0001:00027dc0       ??0?$CComPtrBase@UIOleInPlaceSiteWindowless@@@ATL@@IAE@XZ 10028dc0 f i BumpBarImpl.obj
 0001:00027de0       ??0?$CComQIPtr@UIDispatch@@$1?_GUID_00020400_0000_0000_c000_000000000046@@3U__s_GUID@@B@ATL@@QAE@XZ 10028de0 f i BumpBarImpl.obj
 0001:00027e10       ??0?$CProxy_IOPOSEvents@VCOPOSBumpBar@@@@QAE@PAVCOPOSBumpBar@@@Z 10028e10 f i BumpBarImpl.obj
 0001:00027e80       ??0?$CWindowImpl@VCOPOSBumpBar@@VCWindow@ATL@@V?$CWinTraits@$0FGAAAAAA@$0A@@3@@ATL@@QAE@XZ 10028e80 f i BumpBarImpl.obj
 0001:00027eb0       ??0?$CWindowImplBaseT@VCWindow@ATL@@V?$CWinTraits@$0FGAAAAAA@$0A@@2@@ATL@@QAE@XZ 10028eb0 f i BumpBarImpl.obj
 0001:00027ef0       ??0?$CWindowImplRoot@VCWindow@ATL@@@ATL@@QAE@XZ 10028ef0 f i BumpBarImpl.obj
 0001:00027f50       ??0?$IConnectionPointContainerImpl@VCOPOSBumpBar@@@ATL@@QAE@XZ 10028f50 f i BumpBarImpl.obj
 0001:00027f80       ??0?$IConnectionPointImpl@VCOPOSBumpBar@@$1?DIID__IOPOSBumpBarEvents@@3U_GUID@@BVCComDynamicUnkArray@ATL@@@ATL@@QAE@XZ 10028f80 f i BumpBarImpl.obj
 0001:00027fc0       ??0?$IConnectionPointImpl@VCOPOSBumpBar@@$1?IID_IPropertyNotifySink@@3U_GUID@@BVCComDynamicUnkArray@ATL@@@ATL@@QAE@XZ 10028fc0 f i BumpBarImpl.obj
 0001:00028000       ??0?$IDataObjectImpl@VCOPOSBumpBar@@@ATL@@QAE@XZ 10029000 f i BumpBarImpl.obj
 0001:00028030       ??0?$IDispatchImpl@UIOPOSBumpBar@@$1?IID_IOPOSBumpBar@@3U_GUID@@B$1?LIBID_OposBumpBar_CCO@@3U3@B$00$0A@VCComTypeInfoHolder@ATL@@@ATL@@QAE@XZ 10029030 f i BumpBarImpl.obj
 0001:00028060       ??0?$IObjectSafetyImpl@VCOPOSBumpBar@@$02@ATL@@QAE@XZ 10029060 f i BumpBarImpl.obj
 0001:000280a0       ??0?$IOleControlImpl@VCOPOSBumpBar@@@ATL@@QAE@XZ 100290a0 f i BumpBarImpl.obj
 0001:000280d0       ??0?$IOleInPlaceActiveObjectImpl@VCOPOSBumpBar@@@ATL@@QAE@XZ 100290d0 f i BumpBarImpl.obj
 0001:00028100       ??0?$IOleInPlaceObjectWindowlessImpl@VCOPOSBumpBar@@@ATL@@QAE@XZ 10029100 f i BumpBarImpl.obj
 0001:00028130       ??0?$IOleObjectImpl@VCOPOSBumpBar@@@ATL@@QAE@XZ 10029130 f i BumpBarImpl.obj
 0001:00028160       ??0?$IPersistStorageImpl@VCOPOSBumpBar@@@ATL@@QAE@XZ 10029160 f i BumpBarImpl.obj
 0001:00028190       ??0?$IPersistStreamInitImpl@VCOPOSBumpBar@@@ATL@@QAE@XZ 10029190 f i BumpBarImpl.obj
 0001:000281c0       ??0?$IPropertyNotifySinkCP@VCOPOSBumpBar@@VCComDynamicUnkArray@ATL@@@ATL@@QAE@XZ 100291c0 f i BumpBarImpl.obj
 0001:000281f0       ??0?$IProvideClassInfo2Impl@$1?CLSID_OPOSBumpBar@@3U_GUID@@B$1?DIID__IOPOSBumpBarEvents@@3U2@B$1?LIBID_OposBumpBar_CCO@@3U2@B$00$0A@VCComTypeInfoHolder@ATL@@@ATL@@QAE@XZ 100291f0 f i BumpBarImpl.obj
 0001:00028220       ??0?$IQuickActivateImpl@VCOPOSBumpBar@@@ATL@@QAE@XZ 10029220 f i BumpBarImpl.obj
 0001:00028250       ??0?$ISpecifyPropertyPagesImpl@VCOPOSBumpBar@@@ATL@@QAE@XZ 10029250 f i BumpBarImpl.obj
 0001:00028280       ??0?$IViewObjectExImpl@VCOPOSBumpBar@@@ATL@@QAE@XZ 10029280 f i BumpBarImpl.obj
 0001:000282b0       ??0?$_ICPLocator@$1?DIID__IOPOSBumpBarEvents@@3U_GUID@@B@ATL@@QAE@XZ 100292b0 f i BumpBarImpl.obj
 0001:000282d0       ??0?$_ICPLocator@$1?IID_IPropertyNotifySink@@3U_GUID@@B@ATL@@QAE@XZ 100292d0 f i BumpBarImpl.obj
 0001:000282f0       ??0CComControlBase@ATL@@QAE@AAPAUHWND__@@@Z 100292f0 f i BumpBarImpl.obj
 0001:000284a0       ??0CComDynamicUnkArray@ATL@@QAE@XZ 100294a0 f i BumpBarImpl.obj
 0001:000284d0       ??0CDynamicStdCallThunk2@ATL@@QAE@XZ 100294d0 f i BumpBarImpl.obj
 0001:000284f0       ??0CMessageMap@ATL@@QAE@XZ 100294f0 f i BumpBarImpl.obj
 0001:00028510       ??0CWindow@ATL@@QAE@PAUHWND__@@@Z 10029510 f i BumpBarImpl.obj
 0001:00028530       ??0CWndProcThunk@ATL@@QAE@XZ 10029530 f i BumpBarImpl.obj
 0001:00028560       ??0IConnectionPointContainer@@QAE@XZ 10029560 f i BumpBarImpl.obj
 0001:00028590       ??0IDataObject@@QAE@XZ     10029590 f i BumpBarImpl.obj
 0001:000285c0       ??0IDispatch@@QAE@XZ       100295c0 f i BumpBarImpl.obj
 0001:000285f0       ??0IOPOSBumpBar@@QAE@XZ    100295f0 f i BumpBarImpl.obj
 0001:00028620       ??0IOPOSBumpBar_1_5@@QAE@XZ 10029620 f i BumpBarImpl.obj
 0001:00028650       ??0IOPOSBumpBar_1_8@@QAE@XZ 10029650 f i BumpBarImpl.obj
 0001:00028680       ??0IOPOSBumpBar_1_9@@QAE@XZ 10029680 f i BumpBarImpl.obj
 0001:000286b0       ??0IObjectSafety@@QAE@XZ   100296b0 f i BumpBarImpl.obj
 0001:000286e0       ??0IOleControl@@QAE@XZ     100296e0 f i BumpBarImpl.obj
 0001:00028710       ??0IOleInPlaceActiveObject@@QAE@XZ 10029710 f i BumpBarImpl.obj
 0001:00028740       ??0IOleInPlaceObject@@QAE@XZ 10029740 f i BumpBarImpl.obj
 0001:00028770       ??0IOleInPlaceObjectWindowless@@QAE@XZ 10029770 f i BumpBarImpl.obj
 0001:000287a0       ??0IOleObject@@QAE@XZ      100297a0 f i BumpBarImpl.obj
 0001:000287d0       ??0IOleWindow@@QAE@XZ      100297d0 f i BumpBarImpl.obj
 0001:00028800       ??0IPersist@@QAE@XZ        10029800 f i BumpBarImpl.obj
 0001:00028830       ??0IPersistStorage@@QAE@XZ 10029830 f i BumpBarImpl.obj
 0001:00028860       ??0IPersistStreamInit@@QAE@XZ 10029860 f i BumpBarImpl.obj
 0001:00028890       ??0IProvideClassInfo2@@QAE@XZ 10029890 f i BumpBarImpl.obj
 0001:000288c0       ??0IProvideClassInfo@@QAE@XZ 100298c0 f i BumpBarImpl.obj
 0001:000288f0       ??0IQuickActivate@@QAE@XZ  100298f0 f i BumpBarImpl.obj
 0001:00028920       ??0ISpecifyPropertyPages@@QAE@XZ 10029920 f i BumpBarImpl.obj
 0001:00028950       ??0IViewObject2@@QAE@XZ    10029950 f i BumpBarImpl.obj
 0001:00028980       ??0IViewObject@@QAE@XZ     10029980 f i BumpBarImpl.obj
 0001:000289b0       ??0IViewObjectEx@@QAE@XZ   100299b0 f i BumpBarImpl.obj
 0001:000289e0       ??0OposVariantResult@@QAE@XZ 100299e0 f i BumpBarImpl.obj
 0001:00028a10       ??0_CW@@QAE@PBD@Z          10029a10 f i BumpBarImpl.obj
 0001:00028a50       ??0_CW@@QAE@PB_W@Z         10029a50 f i BumpBarImpl.obj
 0001:00028a90       ??0_CWNCC@@QAE@PBD@Z       10029a90 f i BumpBarImpl.obj
 0001:00028ac0       ??1?$CComControl@VCOPOSBumpBar@@V?$CWindowImpl@VCOPOSBumpBar@@VCWindow@ATL@@V?$CWinTraits@$0FGAAAAAA@$0A@@3@@ATL@@@ATL@@UAE@XZ 10029ac0 f i BumpBarImpl.obj
 0001:00028af0       ??1?$CComPtr@UIDataAdviseHolder@@@ATL@@QAE@XZ 10029af0 f i BumpBarImpl.obj
 0001:00028b20       ??1?$CComPtr@UIOleAdviseHolder@@@ATL@@QAE@XZ 10029b20 f i BumpBarImpl.obj
 0001:00028b50       ??1?$CComPtr@UIOleInPlaceSiteWindowless@@@ATL@@QAE@XZ 10029b50 f i BumpBarImpl.obj
 0001:00028b80       ??1?$CComPtrBase@UIDataAdviseHolder@@@ATL@@QAE@XZ 10029b80 f i BumpBarImpl.obj
 0001:00028bd0       ??1?$CComPtrBase@UIOleAdviseHolder@@@ATL@@QAE@XZ 10029bd0 f i BumpBarImpl.obj
 0001:00028c20       ??1?$CComPtrBase@UIOleInPlaceSiteWindowless@@@ATL@@QAE@XZ 10029c20 f i BumpBarImpl.obj
 0001:00028c70       ??1?$CComQIPtr@UIDispatch@@$1?_GUID_00020400_0000_0000_c000_000000000046@@3U__s_GUID@@B@ATL@@QAE@XZ 10029c70 f i BumpBarImpl.obj
 0001:00028ca0       ??1?$CProxy_IOPOSEvents@VCOPOSBumpBar@@@@QAE@XZ 10029ca0 f i BumpBarImpl.obj
 0001:00028cd0       ??1?$CWindowImpl@VCOPOSBumpBar@@VCWindow@ATL@@V?$CWinTraits@$0FGAAAAAA@$0A@@3@@ATL@@UAE@XZ 10029cd0 f i BumpBarImpl.obj
 0001:00028d00       ??1?$CWindowImplBaseT@VCWindow@ATL@@V?$CWinTraits@$0FGAAAAAA@$0A@@2@@ATL@@UAE@XZ 10029d00 f i BumpBarImpl.obj
 0001:00028d30       ??1?$CWindowImplRoot@VCWindow@ATL@@@ATL@@UAE@XZ 10029d30 f i BumpBarImpl.obj
 0001:00028dd0       ??1?$IConnectionPointImpl@VCOPOSBumpBar@@$1?DIID__IOPOSBumpBarEvents@@3U_GUID@@BVCComDynamicUnkArray@ATL@@@ATL@@QAE@XZ 10029dd0 f i BumpBarImpl.obj
 0001:00028e50       ??1?$IConnectionPointImpl@VCOPOSBumpBar@@$1?IID_IPropertyNotifySink@@3U_GUID@@BVCComDynamicUnkArray@ATL@@@ATL@@QAE@XZ 10029e50 f i BumpBarImpl.obj
 0001:00028ed0       ??1?$IPropertyNotifySinkCP@VCOPOSBumpBar@@VCComDynamicUnkArray@ATL@@@ATL@@QAE@XZ 10029ed0 f i BumpBarImpl.obj
 0001:00028f00       ??1CComControlBase@ATL@@UAE@XZ 10029f00 f i BumpBarImpl.obj
 0001:00028fc0       ??1CComDynamicUnkArray@ATL@@QAE@XZ 10029fc0 f i BumpBarImpl.obj
 0001:00029000       ??1CDynamicStdCallThunk2@ATL@@QAE@XZ 1002a000 f i BumpBarImpl.obj
 0001:00029030       ??1CWndProcThunk@ATL@@QAE@XZ 1002a030 f i BumpBarImpl.obj
 0001:00029060       ??1OposVariantResult@@QAE@XZ 1002a060 f i BumpBarImpl.obj
 0001:00029090       ??1_CW@@QAE@XZ             1002a090 f i BumpBarImpl.obj
 0001:00029100       ??1_CWNCC@@QAE@XZ          1002a100 f i BumpBarImpl.obj
 0001:00029130       ??B_CW@@QAEPB_WXZ          1002a130 f i BumpBarImpl.obj
 0001:00029170       ??B_CWNCC@@QAEPA_WXZ       1002a170 f i BumpBarImpl.obj
 0001:000291a0       ??_EOposVariant@@QAEPAXI@Z 1002a1a0 f i BumpBarImpl.obj
 0001:00029230       ?EventClaim@COPOSBumpBar@@IAEXXZ 1002a230 f i BumpBarImpl.obj
 0001:00029270       ?EventClose@COPOSBumpBar@@IAEXXZ 1002a270 f i BumpBarImpl.obj
 0001:00029310       ?EventInit@COPOSBumpBar@@IAEJXZ 1002a310 f i BumpBarImpl.obj
 0001:00029540       ?EventOpen@COPOSBumpBar@@IAEXXZ 1002a540 f i BumpBarImpl.obj
 0001:00029580       ?EventPreCloseRelease@COPOSBumpBar@@IAEXXZ 1002a580 f i BumpBarImpl.obj
 0001:00029600       ?EventUninit@COPOSBumpBar@@IAEXXZ 1002a600 f i BumpBarImpl.obj
 0001:00029730       ?EventWindowProc@COPOSBumpBar@@IAGJIIJ@Z 1002a730 f i BumpBarImpl.obj
 0001:00029900       ?FireEventCleanup@COPOSBumpBar@@IAEXXZ 1002a900 f i BumpBarImpl.obj
 0001:00029950       ?FireEventSetup@COPOSBumpBar@@IAE_NXZ 1002a950 f i BumpBarImpl.obj
 0001:000299c0       ?GetModuleInstance@CComModule@ATL@@QAEPAUHINSTANCE__@@XZ 1002a9c0 f i BumpBarImpl.obj
 0001:000299e0       ?SetRC@COPOSBumpBar@@IAEJJ@Z 1002a9e0 f i BumpBarImpl.obj
 0001:00029a10       ?s_EventWindowProc@COPOSBumpBar@@KGJPAUHWND__@@IIJ@Z 1002aa10 f i BumpBarImpl.obj
 0001:00029ab0       __snwprintf                1002aab0 f i BumpBarImpl.obj
 0001:00029b10       __vfwprintf_l              1002ab10 f i BumpBarImpl.obj
 0001:00029b40       __vsnwprintf               1002ab40 f i BumpBarImpl.obj
 0001:00029b70       __vsnwprintf_l             1002ab70 f i BumpBarImpl.obj
 0001:00029be0       _vfwprintf                 1002abe0 f i BumpBarImpl.obj
 0001:00029c02       _DebugBreak@0              1002ac02 f   kernel32:KERNEL32.dll
 0001:00029c08       _Sleep@4                   1002ac08 f   kernel32:KERNEL32.dll
 0001:00029c0e       _GetCurrentProcess@0       1002ac0e f   kernel32:KERNEL32.dll
 0001:00029c14       _TerminateProcess@8        1002ac14 f   kernel32:KERNEL32.dll
 0001:00029c1a       _MultiByteToWideChar@24    1002ac1a f   kernel32:KERNEL32.dll
 0001:00029c20       _WideCharToMultiByte@32    1002ac20 f   kernel32:KERNEL32.dll
 0001:00029c26       _DecodePointer@4           1002ac26 f   kernel32:KERNEL32.dll
 0001:00029c2c       _RaiseException@16         1002ac2c f   kernel32:KERNEL32.dll
 0001:00029c32       _GetLastError@0            1002ac32 f   kernel32:KERNEL32.dll
 0001:00029c38       _SetLastError@4            1002ac38 f   kernel32:KERNEL32.dll
 0001:00029c3e       _InitializeCriticalSectionEx@12 1002ac3e f   kernel32:KERNEL32.dll
 0001:00029c44       _DeleteCriticalSection@4   1002ac44 f   kernel32:KERNEL32.dll
 0001:00029c4a       _EncodePointer@4           1002ac4a f   kernel32:KERNEL32.dll
 0001:00029c50       _EnterCriticalSection@4    1002ac50 f   kernel32:KERNEL32.dll
 0001:00029c56       _LeaveCriticalSection@4    1002ac56 f   kernel32:KERNEL32.dll
 0001:00029c5c       _ResetEvent@4              1002ac5c f   kernel32:KERNEL32.dll
 0001:00029c62       _ReleaseMutex@4            1002ac62 f   kernel32:KERNEL32.dll
 0001:00029c68       _WaitForSingleObject@8     1002ac68 f   kernel32:KERNEL32.dll
 0001:00029c6e       _GetCurrentThreadId@0      1002ac6e f   kernel32:KERNEL32.dll
 0001:00029c74       _DisableThreadLibraryCalls@4 1002ac74 f   kernel32:KERNEL32.dll
 0001:00029c7a       _FreeLibrary@4             1002ac7a f   kernel32:KERNEL32.dll
 0001:00029c80       _GetModuleFileNameW@12     1002ac80 f   kernel32:KERNEL32.dll
 0001:00029c86       _GetModuleHandleW@4        1002ac86 f   kernel32:KERNEL32.dll
 0001:00029c8c       _GetProcAddress@8          1002ac8c f   kernel32:KERNEL32.dll
 0001:00029c92       _LoadLibraryExW@12         1002ac92 f   kernel32:KERNEL32.dll
 0001:00029c98       _LoadResource@8            1002ac98 f   kernel32:KERNEL32.dll
 0001:00029c9e       _SizeofResource@8          1002ac9e f   kernel32:KERNEL32.dll
 0001:00029ca4       _GlobalAlloc@8             1002aca4 f   kernel32:KERNEL32.dll
 0001:00029caa       _GlobalLock@4              1002acaa f   kernel32:KERNEL32.dll
 0001:00029cb0       _GlobalUnlock@4            1002acb0 f   kernel32:KERNEL32.dll
 0001:00029cb6       _MulDiv@12                 1002acb6 f   kernel32:KERNEL32.dll
 0001:00029cbc       _lstrcmpiW@8               1002acbc f   kernel32:KERNEL32.dll
 0001:00029cc2       _FindResourceW@12          1002acc2 f   kernel32:KERNEL32.dll
 0001:00029cc8       _DeleteFileW@4             1002acc8 f   kernel32:KERNEL32.dll
 0001:00029cce       _CloseHandle@4             1002acce f   kernel32:KERNEL32.dll
 0001:00029cd4       _SetEvent@4                1002acd4 f   kernel32:KERNEL32.dll
 0001:00029cda       _CreateMutexW@12           1002acda f   kernel32:KERNEL32.dll
 0001:00029ce0       _CreateEventW@16           1002ace0 f   kernel32:KERNEL32.dll
 0001:00029ce6       _GetCurrentProcessId@0     1002ace6 f   kernel32:KERNEL32.dll
 0001:00029cec       _LocalFree@4               1002acec f   kernel32:KERNEL32.dll
 0001:00029cf2       _FormatMessageW@28         1002acf2 f   kernel32:KERNEL32.dll
 0001:00029cf8       _GetActiveWindow@0         1002acf8 f   user32:USER32.dll
 0001:00029cfe       _MessageBoxW@16            1002acfe f   user32:USER32.dll
 0001:00029d04       _UnregisterClassW@8        1002ad04 f   user32:USER32.dll
 0001:00029d0a       _PostMessageW@16           1002ad0a f   user32:USER32.dll
 0001:00029d10       _DefWindowProcW@16         1002ad10 f   user32:USER32.dll
 0001:00029d16       _CallWindowProcW@20        1002ad16 f   user32:USER32.dll
 0001:00029d1c       _RegisterClassExW@4        1002ad1c f   user32:USER32.dll
 0001:00029d22       _GetClassInfoExW@12        1002ad22 f   user32:USER32.dll
 0001:00029d28       _CreateWindowExW@48        1002ad28 f   user32:USER32.dll
 0001:00029d2e       _IsWindow@4                1002ad2e f   user32:USER32.dll
 0001:00029d34       _IsChild@8                 1002ad34 f   user32:USER32.dll
 0001:00029d3a       _DestroyWindow@4           1002ad3a f   user32:USER32.dll
 0001:00029d40       _ShowWindow@8              1002ad40 f   user32:USER32.dll
 0001:00029d46       _SetWindowPos@28           1002ad46 f   user32:USER32.dll
 0001:00029d4c       _CharNextW@4               1002ad4c f   user32:USER32.dll
 0001:00029d52       _SetFocus@4                1002ad52 f   user32:USER32.dll
 0001:00029d58       _GetFocus@0                1002ad58 f   user32:USER32.dll
 0001:00029d5e       _GetKeyState@4             1002ad5e f   user32:USER32.dll
 0001:00029d64       _GetDC@4                   1002ad64 f   user32:USER32.dll
 0001:00029d6a       _ReleaseDC@8               1002ad6a f   user32:USER32.dll
 0001:00029d70       _BeginPaint@8              1002ad70 f   user32:USER32.dll
 0001:00029d76       _EndPaint@8                1002ad76 f   user32:USER32.dll
 0001:00029d7c       _SetWindowRgn@12           1002ad7c f   user32:USER32.dll
 0001:00029d82       _InvalidateRect@12         1002ad82 f   user32:USER32.dll
 0001:00029d88       _GetClientRect@8           1002ad88 f   user32:USER32.dll
 0001:00029d8e       _IntersectRect@12          1002ad8e f   user32:USER32.dll
 0001:00029d94       _UnionRect@12              1002ad94 f   user32:USER32.dll
 0001:00029d9a       _OffsetRect@12             1002ad9a f   user32:USER32.dll
 0001:00029da0       _EqualRect@8               1002ada0 f   user32:USER32.dll
 0001:00029da6       _PtInRect@12               1002ada6 f   user32:USER32.dll
 0001:00029dac       _GetWindowLongW@8          1002adac f   user32:USER32.dll
 0001:00029db2       _SetWindowLongW@12         1002adb2 f   user32:USER32.dll
 0001:00029db8       _GetParent@4               1002adb8 f   user32:USER32.dll
 0001:00029dbe       _LoadCursorW@8             1002adbe f   user32:USER32.dll
 0001:00029dc4       _PeekMessageW@20           1002adc4 f   user32:USER32.dll
 0001:00029dca       _RegisterClassW@4          1002adca f   user32:USER32.dll
 0001:00029dd0       _LoadBitmapW@8             1002add0 f   user32:USER32.dll
 0001:00029dd6       _CloseMetaFile@4           1002add6 f   gdi32:GDI32.dll
 0001:00029ddc       _CreateDCW@16              1002addc f   gdi32:GDI32.dll
 0001:00029de2       _CreateMetaFileW@4         1002ade2 f   gdi32:GDI32.dll
 0001:00029de8       _CreateRectRgnIndirect@4   1002ade8 f   gdi32:GDI32.dll
 0001:00029dee       _DeleteDC@4                1002adee f   gdi32:GDI32.dll
 0001:00029df4       _DeleteMetaFile@4          1002adf4 f   gdi32:GDI32.dll
 0001:00029dfa       _GetDeviceCaps@8           1002adfa f   gdi32:GDI32.dll
 0001:00029e00       _RestoreDC@8               1002ae00 f   gdi32:GDI32.dll
 0001:00029e06       _SaveDC@4                  1002ae06 f   gdi32:GDI32.dll
 0001:00029e0c       _SetMapMode@8              1002ae0c f   gdi32:GDI32.dll
 0001:00029e12       _LPtoDP@12                 1002ae12 f   gdi32:GDI32.dll
 0001:00029e18       _SetViewportOrgEx@16       1002ae18 f   gdi32:GDI32.dll
 0001:00029e1e       _SetWindowExtEx@16         1002ae1e f   gdi32:GDI32.dll
 0001:00029e24       _SetWindowOrgEx@16         1002ae24 f   gdi32:GDI32.dll
 0001:00029e2a       _BitBlt@36                 1002ae2a f   gdi32:GDI32.dll
 0001:00029e30       _CreateCompatibleDC@4      1002ae30 f   gdi32:GDI32.dll
 0001:00029e36       _DeleteObject@4            1002ae36 f   gdi32:GDI32.dll
 0001:00029e3c       _SelectObject@8            1002ae3c f   gdi32:GDI32.dll
 0001:00029e42       _GetObjectW@12             1002ae42 f   gdi32:GDI32.dll
 0001:00029e48       _RegCloseKey@4             1002ae48 f   advapi32:ADVAPI32.dll
 0001:00029e4e       _RegCreateKeyExW@36        1002ae4e f   advapi32:ADVAPI32.dll
 0001:00029e54       _RegDeleteKeyW@8           1002ae54 f   advapi32:ADVAPI32.dll
 0001:00029e5a       _RegDeleteValueW@8         1002ae5a f   advapi32:ADVAPI32.dll
 0001:00029e60       _RegEnumKeyExW@32          1002ae60 f   advapi32:ADVAPI32.dll
 0001:00029e66       _RegOpenKeyExW@20          1002ae66 f   advapi32:ADVAPI32.dll
 0001:00029e6c       _RegQueryInfoKeyW@48       1002ae6c f   advapi32:ADVAPI32.dll
 0001:00029e72       _RegSetValueExW@24         1002ae72 f   advapi32:ADVAPI32.dll
 0001:00029e78       _RegQueryValueExW@24       1002ae78 f   advapi32:ADVAPI32.dll
 0001:00029e7e       _CoCreateInstance@20       1002ae7e f   ole32:ole32.dll
 0001:00029e84       _StringFromGUID2@12        1002ae84 f   ole32:ole32.dll
 0001:00029e8a       _CoTaskMemAlloc@4          1002ae8a f   ole32:ole32.dll
 0001:00029e90       _CoTaskMemRealloc@8        1002ae90 f   ole32:ole32.dll
 0001:00029e96       _CoTaskMemFree@4           1002ae96 f   ole32:ole32.dll
 0001:00029e9c       _CreateDataAdviseHolder@4  1002ae9c f   ole32:ole32.dll
 0001:00029ea2       _ReadClassStm@8            1002aea2 f   ole32:ole32.dll
 0001:00029ea8       _WriteClassStm@8           1002aea8 f   ole32:ole32.dll
 0001:00029eae       _OleSaveToStream@8         1002aeae f   ole32:ole32.dll
 0001:00029eb4       _CreateOleAdviseHolder@4   1002aeb4 f   ole32:ole32.dll
 0001:00029eba       _OleRegGetUserType@12      1002aeba f   ole32:ole32.dll
 0001:00029ec0       _OleRegGetMiscStatus@12    1002aec0 f   ole32:ole32.dll
 0001:00029ec6       _OleRegEnumVerbs@8         1002aec6 f   ole32:ole32.dll
 0001:00029ecc       _CLSIDFromProgID@8         1002aecc f   ole32:ole32.dll
 0001:00029ed2       _SysAllocString@4          1002aed2 f   oleaut32:OLEAUT32.dll
 0001:00029ed8       _SysAllocStringLen@8       1002aed8 f   oleaut32:OLEAUT32.dll
 0001:00029ede       _SysFreeString@4           1002aede f   oleaut32:OLEAUT32.dll
 0001:00029ee4       _SysStringLen@4            1002aee4 f   oleaut32:OLEAUT32.dll
 0001:00029eea       _VariantClear@4            1002aeea f   oleaut32:OLEAUT32.dll
 0001:00029ef0       _VariantCopyInd@8          1002aef0 f   oleaut32:OLEAUT32.dll
 0001:00029ef6       _VariantChangeType@16      1002aef6 f   oleaut32:OLEAUT32.dll
 0001:00029efc       _SysStringByteLen@4        1002aefc f   oleaut32:OLEAUT32.dll
 0001:00029f02       _SysAllocStringByteLen@8   1002af02 f   oleaut32:OLEAUT32.dll
 0001:00029f08       _VariantInit@4             1002af08 f   oleaut32:OLEAUT32.dll
 0001:00029f0e       _VarUI4FromStr@16          1002af0e f   oleaut32:OLEAUT32.dll
 0001:00029f14       _LoadTypeLib@8             1002af14 f   oleaut32:OLEAUT32.dll
 0001:00029f1a       _LoadRegTypeLib@20         1002af1a f   oleaut32:OLEAUT32.dll
 0001:00029f20       _RegisterTypeLib@12        1002af20 f   oleaut32:OLEAUT32.dll
 0001:00029f26       _UnRegisterTypeLib@20      1002af26 f   oleaut32:OLEAUT32.dll
 0001:00029f2c       _OleCreatePropertyFrame@44 1002af2c f   oleaut32:OLEAUT32.dll
 0001:00029f40       @_RTC_AllocaHelper@12      1002af40 f   LIBCMTD:stack.obj
 0001:00029f80       @_RTC_CheckStackVars2@12   1002af80 f   LIBCMTD:stack.obj
 0001:0002a060       @_RTC_CheckStackVars@8     1002b060 f   LIBCMTD:stack.obj
 0001:0002a0d0       __RTC_CheckEsp             1002b0d0 f   LIBCMTD:stack.obj
 0001:0002a110       @__security_check_cookie@4 1002b110 f   LIBCMTD:secchk.obj
 0001:0002a130       __CRT_RTC_INIT             1002b130 f   LIBCMTD:init.obj
 0001:0002a140       __CRT_RTC_INITW            1002b140 f   LIBCMTD:init.obj
 0001:0002a150       __RTC_InitBase             1002b150 f   LIBCMTD:init.obj
 0001:0002a180       __RTC_Shutdown             1002b180 f   LIBCMTD:init.obj
 0001:0002a1a0       ??_U@YAPAXI@Z              1002b1a0 f   LIBCMTD:new_array.obj
 0001:0002a1c0       ??3@YAXPAXI@Z              1002b1c0 f   LIBCMTD:delete_scalar_size.obj
 0001:0002a1e0       ??_V@YAXPAX@Z              1002b1e0 f   LIBCMTD:delete_array.obj
 0001:0002a200       ??_V@YAXPAXI@Z             1002b200 f   LIBCMTD:delete_array_size.obj
 0001:0002a220       ??$__crt_fast_decode_pointer@PAP6AXXZ@@YAPAP6AXXZQAP6AXXZ@Z 1002b220 f i LIBCMTD:utility.obj
 0001:0002a250       ??$__crt_fast_encode_pointer@PAP6AXXZ@@YAPAP6AXXZQAP6AXXZ@Z 1002b250 f i LIBCMTD:utility.obj
 0001:0002a280       ?__crt_rotate_pointer_value@@YAIIH@Z 1002b280 f i LIBCMTD:utility.obj
 0001:0002a290       ?configure_argv@__scrt_narrow_argv_policy@@SAHXZ 1002b290 f i LIBCMTD:utility.obj
 0001:0002a340       ?initialize_environment@__scrt_narrow_environment_policy@@SAHXZ 1002b340 f i LIBCMTD:utility.obj
 0001:0002a3c0       _NtCurrentTeb              1002b3c0 f i LIBCMTD:utility.obj
 0001:0002a3d0       ___scrt_acquire_startup_lock 1002b3d0 f   LIBCMTD:utility.obj
 0001:0002a420       ___scrt_dllmain_after_initialize_c 1002b420 f   LIBCMTD:utility.obj
 0001:0002a450       ___scrt_dllmain_before_initialize_c 1002b450 f   LIBCMTD:utility.obj
 0001:0002a470       ___scrt_dllmain_crt_thread_attach 1002b470 f   LIBCMTD:utility.obj
 0001:0002a4a0       ___scrt_dllmain_crt_thread_detach 1002b4a0 f   LIBCMTD:utility.obj
 0001:0002a4c0       ___scrt_dllmain_exception_filter 1002b4c0 f   LIBCMTD:utility.obj
 0001:0002a510       ___scrt_dllmain_uninitialize_c 1002b510 f   LIBCMTD:utility.obj
 0001:0002a540       ___scrt_dllmain_uninitialize_critical 1002b540 f   LIBCMTD:utility.obj
 0001:0002a560       ___scrt_initialize_crt     1002b560 f   LIBCMTD:utility.obj
 0001:0002a5b0       ___scrt_initialize_onexit_tables 1002b5b0 f   LIBCMTD:utility.obj
 0001:0002a690       ___scrt_is_nonwritable_in_current_image 1002b690 f   LIBCMTD:utility.obj
 0001:0002a7c0       ___scrt_release_startup_lock 1002b7c0 f   LIBCMTD:utility.obj
 0001:0002a7f0       ___scrt_uninitialize_crt   1002b7f0 f   LIBCMTD:utility.obj
 0001:0002a830       __onexit                   1002b830 f   LIBCMTD:utility.obj
 0001:0002a8a0       _at_quick_exit             1002b8a0 f   LIBCMTD:utility.obj
 0001:0002a8f0       _atexit                    1002b8f0 f   LIBCMTD:utility.obj
 0001:0002a920       ??3@YAXPAX@Z               1002b920 f   LIBCMTD:delete_scalar.obj
 0001:0002a940       ___raise_securityfailure   1002b940 f   LIBCMTD:gs_report.obj
 0001:0002a970       ___report_gsfailure        1002b970 f   LIBCMTD:gs_report.obj
 0001:0002aa80       ___report_rangecheckfailure 1002ba80 f   LIBCMTD:gs_report.obj
 0001:0002aa90       ___report_securityfailure  1002ba90 f   LIBCMTD:gs_report.obj
 0001:0002ab70       ___report_securityfailureEx 1002bb70 f   LIBCMTD:gs_report.obj
 0001:0002ace0       ??$__crt_fast_decode_pointer@P6GHPAU_RTL_CONDITION_VARIABLE@@PAU_RTL_CRITICAL_SECTION@@K@Z@@YAP6GHPAU_RTL_CONDITION_VARIABLE@@PAU_RTL_CRITICAL_SECTION@@K@ZQ6GH01K@Z@Z 1002bce0 f i LIBCMTD:thread_safe_statics.obj
 0001:0002ad10       ??$__crt_fast_decode_pointer@P6GXPAU_RTL_CONDITION_VARIABLE@@@Z@@YAP6GXPAU_RTL_CONDITION_VARIABLE@@@ZQ6GX0@Z@Z 1002bd10 f i LIBCMTD:thread_safe_statics.obj
 0001:0002ad40       ??$__crt_fast_encode_pointer@P6GHPAU_RTL_CONDITION_VARIABLE@@PAU_RTL_CRITICAL_SECTION@@K@Z@@YAP6GHPAU_RTL_CONDITION_VARIABLE@@PAU_RTL_CRITICAL_SECTION@@K@ZQ6GH01K@Z@Z 1002bd40 f i LIBCMTD:thread_safe_statics.obj
 0001:0002ad70       ??$__crt_fast_encode_pointer@P6GXPAU_RTL_CONDITION_VARIABLE@@@Z@@YAP6GXPAU_RTL_CONDITION_VARIABLE@@@ZQ6GX0@Z@Z 1002bd70 f i LIBCMTD:thread_safe_statics.obj
 0001:0002aed0       ?__scrt_is_event_api_used@@YA_NQAX@Z 1002bed0 f i LIBCMTD:thread_safe_statics.obj
 0001:0002af60       __Init_thread_abort        1002bf60 f   LIBCMTD:thread_safe_statics.obj
 0001:0002af80       __Init_thread_footer       1002bf80 f   LIBCMTD:thread_safe_statics.obj
 0001:0002afd0       __Init_thread_header       1002bfd0 f   LIBCMTD:thread_safe_statics.obj
 0001:0002b040       __Init_thread_lock         1002c040 f   LIBCMTD:thread_safe_statics.obj
 0001:0002b050       __Init_thread_notify       1002c050 f   LIBCMTD:thread_safe_statics.obj
 0001:0002b0c0       __Init_thread_unlock       1002c0c0 f   LIBCMTD:thread_safe_statics.obj
 0001:0002b0d0       __Init_thread_wait         1002c0d0 f   LIBCMTD:thread_safe_statics.obj
 0001:0002b170       ??2@YAPAXIABUnothrow_t@std@@@Z 1002c170 f   LIBCMTD:new_scalar_nothrow.obj
 0001:0002b1f0       ??_U@YAPAXIABUnothrow_t@std@@@Z 1002c1f0 f   LIBCMTD:new_array_nothrow.obj
 0001:0002b210       __allmul                   1002c210 f   LIBCMTD:llmul.obj
 0001:0002b250       __alloca_probe_16          1002c250 f   LIBCMTD:alloca16.obj
 0001:0002b266       __alloca_probe_8           1002c266     LIBCMTD:alloca16.obj
 0001:0002b280       __chkstk                   1002c280 f   LIBCMTD:chkstk.obj
 0001:0002b280       __alloca_probe             1002c280 f   LIBCMTD:chkstk.obj
 0001:0002b750       __CRT_INIT@12              1002c750 f   LIBCMTD:dll_dllmain.obj
 0001:0002b770       __DllMainCRTStartup@12     1002c770 f   LIBCMTD:dll_dllmain.obj
 0001:0002b830       ?_RTC_AllocaFailure@@YAXPAXPAU_RTC_ALLOCA_NODE@@H@Z 1002c830 f   LIBCMTD:error.obj
 0001:0002b920       ?_RTC_Failure@@YAXPAXH@Z   1002c920 f   LIBCMTD:error.obj
 0001:0002b970       ?_RTC_StackFailure@@YAXPAXPBD@Z 1002c970 f   LIBCMTD:error.obj
 0001:0002bd30       __RTC_UninitUse            1002cd30 f   LIBCMTD:error.obj
 0001:0002bde0       __vsprintf_s_l             1002cde0 f i LIBCMTD:error.obj
 0001:0002be10       _sprintf_s                 1002ce10 f i LIBCMTD:error.obj
 0001:0002be30       ?_RTC_GetErrorFunc@@YAP6AHHPBDH00ZZPBX@Z 1002ce30 f   LIBCMTD:userapi.obj
 0001:0002be40       ?_RTC_GetErrorFuncW@@YAP6AHHPB_WH00ZZPBX@Z 1002ce40 f   LIBCMTD:userapi.obj
 0001:0002be50       __RTC_GetErrDesc           1002ce50 f   LIBCMTD:userapi.obj
 0001:0002be70       __RTC_NumErrors            1002ce70 f   LIBCMTD:userapi.obj
 0001:0002be80       __RTC_SetErrorFunc         1002ce80 f   LIBCMTD:userapi.obj
 0001:0002bea0       __RTC_SetErrorFuncW        1002cea0 f   LIBCMTD:userapi.obj
 0001:0002bec0       __RTC_SetErrorType         1002cec0 f   LIBCMTD:userapi.obj
 0001:0002bef0       ??2@YAPAXI@Z               1002cef0 f   LIBCMTD:new_scalar.obj
 0001:0002bf40       ___isa_available_init      1002cf40 f   LIBCMTD:cpu_disp.obj
 0001:0002c220       __get_startup_argv_mode    1002d220 f   LIBCMTD:argv_mode.obj
 0001:0002c230       ___scrt_is_ucrt_dll_in_use 1002d230 f   LIBCMTD:ucrt_detection.obj
 0001:0002c260       ___scrt_fastfail           1002d260 f   LIBCMTD:utility_desktop.obj
 0001:0002c3a0       ___scrt_get_show_window_mode 1002d3a0 f   LIBCMTD:utility_desktop.obj
 0001:0002c3e0       ___scrt_initialize_mta     1002d3e0 f   LIBCMTD:utility_desktop.obj
 0001:0002c3f0       ___scrt_initialize_winrt   1002d3f0 f   LIBCMTD:utility_desktop.obj
 0001:0002c400       ___scrt_is_managed_app     1002d400 f   LIBCMTD:utility_desktop.obj
 0001:0002c490       ___scrt_set_unhandled_exception_filter 1002d490 f   LIBCMTD:utility_desktop.obj
 0001:0002c4a0       ___scrt_exe_initialize_mta 1002d4a0 f   LIBCMTD:utility_desktop.obj
 0001:0002c4a0       ___scrt_stub_for_initialize_mta 1002d4a0 f   LIBCMTD:utility_desktop.obj
 0001:0002c4b0       ___scrt_unhandled_exception_filter@4 1002d4b0 f   LIBCMTD:utility_desktop.obj
 0001:0002c510       __crt_debugger_hook        1002d510 f   LIBCMTD:utility_desktop.obj
 0001:0002c520       @_guard_check_icall_nop@4  1002d520 f i LIBCMTD:guard_support.obj
 0001:0002c530       _ReadNoFence               1002d530 f i LIBCMTD:guard_support.obj
 0001:0002c550       _ReadPointerNoFence        1002d550 f i LIBCMTD:guard_support.obj
 0001:0002c570       __guard_icall_checks_enforced 1002d570 f i LIBCMTD:guard_support.obj
 0001:0002c610       ___security_init_cookie    1002d610 f   LIBCMTD:gs_support.obj
 0001:0002c690       ?__scrt_initialize_type_info@@YAXXZ 1002d690 f   LIBCMTD:tncleanup.obj
 0001:0002c6a0       ?__scrt_uninitialize_type_info@@YAXXZ 1002d6a0 f   LIBCMTD:tncleanup.obj
 0001:0002c6c0       ___local_stdio_scanf_options 1002d6c0 f i LIBCMTD:default_local_stdio_options.obj
 0001:0002c6d0       ___scrt_initialize_default_local_stdio_options 1002d6d0 f   LIBCMTD:default_local_stdio_options.obj
 0001:0002c710       ___scrt_get_dyn_tls_init_callback 1002d710 f   LIBCMTD:dyn_tls_init.obj
 0001:0002c720       __RTC_Initialize           1002d720 f   LIBCMTD:initsect.obj
 0001:0002c750       __RTC_Terminate            1002d750 f   LIBCMTD:initsect.obj
 0001:0002cc00       ?_RTC_GetSrcLine@@YAHPAEPA_WKPAH1K@Z 1002dc00 f   LIBCMTD:pdblkup.obj
 0001:0002cf90       __except_handler4_noexcept 1002df90 f   LIBCMTD:chandler4_noexcept.obj
 0001:0002cfe0       ??0bad_alloc@std@@AAE@QBD@Z 1002dfe0 f i LIBCMTD:throw_bad_alloc.obj
 0001:0002d010       ??0bad_alloc@std@@QAE@ABV01@@Z 1002e010 f i LIBCMTD:throw_bad_alloc.obj
 0001:0002d040       ??0bad_alloc@std@@QAE@XZ   1002e040 f i LIBCMTD:throw_bad_alloc.obj
 0001:0002d070       ??0bad_array_new_length@std@@QAE@ABV01@@Z 1002e070 f i LIBCMTD:throw_bad_alloc.obj
 0001:0002d0a0       ??0bad_array_new_length@std@@QAE@XZ 1002e0a0 f i LIBCMTD:throw_bad_alloc.obj
 0001:0002d0d0       ??0exception@std@@QAE@ABV01@@Z 1002e0d0 f i LIBCMTD:throw_bad_alloc.obj
 0001:0002d110       ??0exception@std@@QAE@QBDH@Z 1002e110 f i LIBCMTD:throw_bad_alloc.obj
 0001:0002d140       ??1bad_alloc@std@@UAE@XZ   1002e140 f i LIBCMTD:throw_bad_alloc.obj
 0001:0002d160       ??1bad_array_new_length@std@@UAE@XZ 1002e160 f i LIBCMTD:throw_bad_alloc.obj
 0001:0002d180       ??1exception@std@@UAE@XZ   1002e180 f i LIBCMTD:throw_bad_alloc.obj
 0001:0002d1b0       ??_Gbad_alloc@std@@UAEPAXI@Z 1002e1b0 f i LIBCMTD:throw_bad_alloc.obj
 0001:0002d1b0       ??_Ebad_alloc@std@@UAEPAXI@Z 1002e1b0 f i LIBCMTD:throw_bad_alloc.obj
 0001:0002d1e0       ??_Ebad_array_new_length@std@@UAEPAXI@Z 1002e1e0 f i LIBCMTD:throw_bad_alloc.obj
 0001:0002d1e0       ??_Gbad_array_new_length@std@@UAEPAXI@Z 1002e1e0 f i LIBCMTD:throw_bad_alloc.obj
 0001:0002d210       ??_Eexception@std@@UAEPAXI@Z 1002e210 f i LIBCMTD:throw_bad_alloc.obj
 0001:0002d210       ??_Gexception@std@@UAEPAXI@Z 1002e210 f i LIBCMTD:throw_bad_alloc.obj
 0001:0002d240       ?__scrt_throw_std_bad_alloc@@YAXXZ 1002e240 f   LIBCMTD:throw_bad_alloc.obj
 0001:0002d260       ?__scrt_throw_std_bad_array_new_length@@YAXXZ 1002e260 f   LIBCMTD:throw_bad_alloc.obj
 0001:0002d280       ?what@exception@std@@UBEPBDXZ 1002e280 f i LIBCMTD:throw_bad_alloc.obj
 0001:0002d2b0       ??1type_info@@UAE@XZ       1002e2b0 f   LIBCMTD:std_type_info_static.obj
 0001:0002d2d0       ??_Gtype_info@@UAEPAXI@Z   1002e2d0 f i LIBCMTD:std_type_info_static.obj
 0001:0002d2d0       ??_Etype_info@@UAEPAXI@Z   1002e2d0 f i LIBCMTD:std_type_info_static.obj
 0001:0002d2fe       ??$?2PAUHINSTANCE__@@@Wrapper@?$CSimpleArray@PAUHINSTANCE__@@V?$CSimpleArrayEqualHelper@PAUHINSTANCE__@@@ATL@@@ATL@@SAPAXIPAPAUHINSTANCE__@@@Z 1002e2fe f i atls:atlbase.obj
 0001:0002d306       ??0?$CSimpleArray@PAUHINSTANCE__@@V?$CSimpleArrayEqualHelper@PAUHINSTANCE__@@@ATL@@@ATL@@QAE@XZ 1002e306 f i atls:atlbase.obj
 0001:0002d313       ??0CAtlBaseModule@ATL@@QAE@XZ 1002e313 f   atls:atlbase.obj
 0001:0002d366       ??0Wrapper@?$CSimpleArray@PAUHINSTANCE__@@V?$CSimpleArrayEqualHelper@PAUHINSTANCE__@@@ATL@@@ATL@@QAE@ABQAUHINSTANCE__@@@Z 1002e366 f i atls:atlbase.obj
 0001:0002d376       ??0_ATL_BASE_MODULE70@ATL@@QAE@XZ 1002e376 f i atls:atlbase.obj
 0001:0002d399       ??1?$CSimpleArray@PAUHINSTANCE__@@V?$CSimpleArrayEqualHelper@PAUHINSTANCE__@@@ATL@@@ATL@@QAE@XZ 1002e399 f i atls:atlbase.obj
 0001:0002d39e       ??1CAtlBaseModule@ATL@@QAE@XZ 1002e39e f   atls:atlbase.obj
 0001:0002d3b4       ??1_ATL_BASE_MODULE70@ATL@@QAE@XZ 1002e3b4 f i atls:atlbase.obj
 0001:0002d3bc       ??A?$CSimpleArray@PAUHINSTANCE__@@V?$CSimpleArrayEqualHelper@PAUHINSTANCE__@@@ATL@@@ATL@@QAEAAPAUHINSTANCE__@@H@Z 1002e3bc f i atls:atlbase.obj
 0001:0002d3e1       ?Add@?$CSimpleArray@PAUHINSTANCE__@@V?$CSimpleArrayEqualHelper@PAUHINSTANCE__@@@ATL@@@ATL@@QAEHABQAUHINSTANCE__@@@Z 1002e3e1 f i atls:atlbase.obj
 0001:0002d463       ?AddResourceInstance@CAtlBaseModule@ATL@@QAE_NPAUHINSTANCE__@@@Z 1002e463 f   atls:atlbase.obj
 0001:0002d496       ?GetHInstanceAt@CAtlBaseModule@ATL@@QAEPAUHINSTANCE__@@H@Z 1002e496 f   atls:atlbase.obj
 0001:0002d4db       ?GetSize@?$CSimpleArray@PAUHINSTANCE__@@V?$CSimpleArrayEqualHelper@PAUHINSTANCE__@@@ATL@@@ATL@@QBEHXZ 1002e4db f i atls:atlbase.obj
 0001:0002d4df       ?InternalSetAtIndex@?$CSimpleArray@PAUHINSTANCE__@@V?$CSimpleArrayEqualHelper@PAUHINSTANCE__@@@ATL@@@ATL@@QAEXHABQAUHINSTANCE__@@@Z 1002e4df f i atls:atlbase.obj
 0001:0002d4f9       ?RemoveAll@?$CSimpleArray@PAUHINSTANCE__@@V?$CSimpleArrayEqualHelper@PAUHINSTANCE__@@@ATL@@@ATL@@QAEXXZ 1002e4f9 f i atls:atlbase.obj
 0001:0002d516       ?RemoveAt@?$CSimpleArray@PAUHINSTANCE__@@V?$CSimpleArrayEqualHelper@PAUHINSTANCE__@@@ATL@@@ATL@@QAEHH@Z 1002e516 f i atls:atlbase.obj
 0001:0002d564       ?RemoveResourceInstance@CAtlBaseModule@ATL@@QAE_NPAUHINSTANCE__@@@Z 1002e564 f   atls:atlbase.obj
 0001:0002d5c1       ?memmove_s@Checked@ATL@@YAXPAXIPBXI@Z 1002e5c1 f i atls:atlbase.obj
 0001:0002d91e       ?GetCodeAddress@_stdcallthunk@ATL@@QAEPAXXZ 1002e91e f i atls:atlthunk.obj
 0001:0002d948       ?Init@_stdcallthunk@ATL@@QAEHKPAX@Z 1002e948 f i atls:atlthunk.obj
 0001:0002d97d       ?__AllocStdCallThunk@@YGPAXXZ 1002e97d f   atls:atlthunk.obj
 0001:0002d982       ?__AllocStdCallThunk@ATL@@YGPAXXZ 1002e982 f   atls:atlthunk.obj
 0001:0002d987       ?__AllocStdCallThunk_cmn@@YAPAXXZ 1002e987 f   atls:atlthunk.obj
 0001:0002da4d       ?__FreeStdCallThunk@@YGXPAX@Z 1002ea4d f   atls:atlthunk.obj
 0001:0002da5d       ?__FreeStdCallThunk@ATL@@YGXPAX@Z 1002ea5d f   atls:atlthunk.obj
 0001:0002da6d       ?__FreeStdCallThunk_cmn@@YAXPAX@Z 1002ea6d f   atls:atlthunk.obj
 0001:0002db08       _AtlThunk_AllocateData@0   1002eb08 f   atls:atlthunk.obj
 0001:0002db6d       _AtlThunk_DataToCode@4     1002eb6d f   atls:atlthunk.obj
 0001:0002dbb4       _AtlThunk_FreeData@4       1002ebb4 f   atls:atlthunk.obj
 0001:0002dc0a       _AtlThunk_InitData@12      1002ec0a f   atls:atlthunk.obj
 0001:0002dc59       _MemoryBarrier             1002ec59 f i atls:atlthunk.obj
 0001:0002dc67       __InlineInterlockedCompareExchangePointer 1002ec67 f i atls:atlthunk.obj
 0001:0002dc80       _memset                    1002ec80 f   libvcruntimed:memset.obj
 0001:0002dde0       ??$__crt_fast_decode_pointer@P6AXXZ@@YAP6AXXZQ6AXXZ@Z 1002ede0 f i libvcruntimed:purevirt.obj
 0001:0002de10       ??$__crt_fast_encode_pointer@P6AXXZ@@YAP6AXXZQ6AXXZ@Z 1002ee10 f i libvcruntimed:purevirt.obj
 0001:0002de40       ??$__crt_interlocked_exchange_pointer@$$A6AXXZP6AXXZ@@YAP6AXXZPDS6AXXZQ6AXXZ@Z 1002ee40 f i libvcruntimed:purevirt.obj
 0001:0002de50       ??$__crt_interlocked_read_pointer@$$A6AXXZ@@YAP6AXXZPDS6AXXZ@Z 1002ee50 f i libvcruntimed:purevirt.obj
 0001:0002de70       ?__crt_interlocked_read_32@@YAHPDH@Z 1002ee70 f i libvcruntimed:purevirt.obj
 0001:0002de90       __get_purecall_handler     1002ee90 f   libvcruntimed:purevirt.obj
 0001:0002deb0       __purecall                 1002eeb0 f   libvcruntimed:purevirt.obj
 0001:0002dee0       __set_purecall_handler     1002eee0 f   libvcruntimed:purevirt.obj
 0001:0002e0c0       _memcmp                    1002f0c0 f   libvcruntimed:memcmp.obj
 0001:0002e990       _memcpy                    1002f990 f   libvcruntimed:memcpy.obj
 0001:0002ef10       _wcsstr                    1002ff10 f   libvcruntimed:wcsstr.obj
 0001:0002f440       __except_handler4          10030440 f   libvcruntimed:chandler4.obj
 0001:0002f610       ___vcrt_initialize         10030610 f   libvcruntimed:initialization.obj
 0001:0002f650       ___vcrt_thread_attach      10030650 f   libvcruntimed:initialization.obj
 0001:0002f670       ___vcrt_thread_detach      10030670 f   libvcruntimed:initialization.obj
 0001:0002f690       ___vcrt_uninitialize       10030690 f   libvcruntimed:initialization.obj
 0001:0002f6b0       ___vcrt_uninitialize_critical 100306b0 f   libvcruntimed:initialization.obj
 0001:0002f6d0       ??$?0AAViterator@TryBlockMap@__FrameHandler3@@AAV012@$0A@@?$pair@Viterator@TryBlockMap@__FrameHandler3@@V123@@std@@QAE@AAViterator@TryBlockMap@__FrameHandler3@@0@Z 100306d0 f i libvcruntimed:trnsctrl.obj
 0001:0002f720       ??$forward@AAViterator@TryBlockMap@__FrameHandler3@@@std@@YAAAViterator@TryBlockMap@__FrameHandler3@@AAV123@@Z 10030720 f i libvcruntimed:trnsctrl.obj
 0001:0002f730       ??0iterator@TryBlockMap@__FrameHandler3@@QAE@AAV12@I@Z 10030730 f i libvcruntimed:trnsctrl.obj
 0001:0002f760       ?GetRangeOfTrysToCheck@__FrameHandler3@@SA?AU?$pair@Viterator@TryBlockMap@__FrameHandler3@@V123@@std@@AAVTryBlockMap@1@HH@Z 10030760 f   libvcruntimed:trnsctrl.obj
 0001:0002f850       ?_CallCatchBlock2@@YAPAXPAUEHRegistrationNode@@PBU_s_FuncInfo@@PAXHK@Z 10030850 f   libvcruntimed:trnsctrl.obj
 0001:0002f8c0       ?_CallSETranslator@@YAHPAUEHExceptionRecord@@PAUEHRegistrationNode@@PAX2PBU_s_FuncInfo@@H1@Z 100308c0 f   libvcruntimed:trnsctrl.obj
 0001:0002f9b0       ?_JumpToContinuation@@YGXPAXPAUEHRegistrationNode@@@Z 100309b0 f   libvcruntimed:trnsctrl.obj
 0001:0002f9f0       ?_UnwindNestedFrames@@YGXPAUEHRegistrationNode@@PAUEHExceptionRecord@@@Z 100309f0 f   libvcruntimed:trnsctrl.obj
 0001:0002fa50       ?getFuncInfo@TryBlockMap@__FrameHandler3@@QAEPBU_s_FuncInfo@@XZ 10030a50 f i libvcruntimed:trnsctrl.obj
 0001:0002fa60       __CatchGuardHandler        10030a60 f   libvcruntimed:trnsctrl.obj
 0001:0002fab0       __CreateFrameInfo          10030ab0 f   libvcruntimed:trnsctrl.obj
 0001:0002fae0       __FindAndUnlinkFrame       10030ae0 f   libvcruntimed:trnsctrl.obj
 0001:0002fb50       __TranslatorGuardHandler   10030b50 f   libvcruntimed:trnsctrl.obj
 0001:0002fc00       ___CxxFrameHandler         10030c00 f   libvcruntimed:trnsctrl.obj
 0001:0002fc40       ___CxxFrameHandler2        10030c40 f   libvcruntimed:trnsctrl.obj
 0001:0002fc80       ___CxxFrameHandler3        10030c80 f   libvcruntimed:trnsctrl.obj
 0001:0002fcc0       ___CxxLongjmpUnwind@4      10030cc0 f   libvcruntimed:trnsctrl.obj
 0001:0002fd20       ??$?RD@__crt_internal_free_policy@@QBEXQBD@Z 10030d20 f i libvcruntimed:std_type_info.obj
 0001:0002fd40       ??$?RX@__crt_internal_free_policy@@QBEXQBX@Z 10030d40 f i libvcruntimed:std_type_info.obj
 0001:0002fd60       ??$__crt_interlocked_compare_exchange_pointer@$$CBDPAD$$T@@YAPBDPDSBDQAD$$T@Z 10030d60 f i libvcruntimed:std_type_info.obj
 0001:0002fd80       ??$__crt_interlocked_read_pointer@$$CBD@@YAPBDPDSBD@Z 10030d80 f i libvcruntimed:std_type_info.obj
 0001:0002fda0       ??0?$__crt_unique_heap_ptr@DU__crt_internal_free_policy@@@@QAE@QAD@Z 10030da0 f i libvcruntimed:std_type_info.obj
 0001:0002fdc0       ??0?$__crt_unique_heap_ptr@XU__crt_internal_free_policy@@@@QAE@QAX@Z 10030dc0 f i libvcruntimed:std_type_info.obj
 0001:0002fde0       ??1?$__crt_unique_heap_ptr@DU__crt_internal_free_policy@@@@QAE@XZ 10030de0 f i libvcruntimed:std_type_info.obj
 0001:0002fe00       ??1?$__crt_unique_heap_ptr@XU__crt_internal_free_policy@@@@QAE@XZ 10030e00 f i libvcruntimed:std_type_info.obj
 0001:0002fe40       ??B?$__crt_unique_heap_ptr@DU__crt_internal_free_policy@@@@QBE_NXZ 10030e40 f i libvcruntimed:std_type_info.obj
 0001:0002fe60       ??B?$__crt_unique_heap_ptr@XU__crt_internal_free_policy@@@@QBE_NXZ 10030e60 f i libvcruntimed:std_type_info.obj
 0001:0002fed0       ?detach@?$__crt_unique_heap_ptr@XU__crt_internal_free_policy@@@@QAEPAXXZ 10030ed0 f i libvcruntimed:std_type_info.obj
 0001:0002ff00       ?get@?$__crt_unique_heap_ptr@DU__crt_internal_free_policy@@@@QBEPADXZ 10030f00 f i libvcruntimed:std_type_info.obj
 0001:0002ff10       ?get@?$__crt_unique_heap_ptr@XU__crt_internal_free_policy@@@@QBEPAXXZ 10030f10 f i libvcruntimed:std_type_info.obj
 0001:0002ff20       ?is_valid@?$__crt_unique_heap_ptr@DU__crt_internal_free_policy@@@@QBE_NXZ 10030f20 f i libvcruntimed:std_type_info.obj
 0001:0002ff50       ?is_valid@?$__crt_unique_heap_ptr@XU__crt_internal_free_policy@@@@QBE_NXZ 10030f50 f i libvcruntimed:std_type_info.obj
 0001:0002ff80       ?release@?$__crt_unique_heap_ptr@DU__crt_internal_free_policy@@@@QAEXXZ 10030f80 f i libvcruntimed:std_type_info.obj
 0001:0002ffb0       ?release@?$__crt_unique_heap_ptr@XU__crt_internal_free_policy@@@@QAEXXZ 10030fb0 f i libvcruntimed:std_type_info.obj
 0001:0002ffe0       ___std_type_info_compare   10030fe0 f   libvcruntimed:std_type_info.obj
 0001:00030010       ___std_type_info_destroy_list 10031010 f   libvcruntimed:std_type_info.obj
 0001:00030050       ___std_type_info_hash      10031050 f   libvcruntimed:std_type_info.obj
 0001:000300b0       ___std_type_info_name      100310b0 f   libvcruntimed:std_type_info.obj
 0001:00030290       ___vcrt_GetModuleFileNameW 10031290 f   libvcruntimed:winapi_thunks.obj
 0001:000302b0       ___vcrt_GetModuleHandleW   100312b0 f   libvcruntimed:winapi_thunks.obj
 0001:000302c0       ___vcrt_LoadLibraryExW     100312c0 f   libvcruntimed:winapi_thunks.obj
 0001:000302e0       ??$?RD@__crt_public_free_policy@@QBEXQBD@Z 100312e0 f i libvcruntimed:std_exception.obj
 0001:00030300       ??0?$__crt_unique_heap_ptr@DU__crt_public_free_policy@@@@QAE@QAD@Z 10031300 f i libvcruntimed:std_exception.obj
 0001:00030320       ??1?$__crt_unique_heap_ptr@DU__crt_public_free_policy@@@@QAE@XZ 10031320 f i libvcruntimed:std_exception.obj
 0001:00030340       ??B?$__crt_unique_heap_ptr@DU__crt_public_free_policy@@@@QBE_NXZ 10031340 f i libvcruntimed:std_exception.obj
 0001:00030360       ?detach@?$__crt_unique_heap_ptr@DU__crt_public_free_policy@@@@QAEPADXZ 10031360 f i libvcruntimed:std_exception.obj
 0001:00030390       ?get@?$__crt_unique_heap_ptr@DU__crt_public_free_policy@@@@QBEPADXZ 10031390 f i libvcruntimed:std_exception.obj
 0001:000303a0       ?is_valid@?$__crt_unique_heap_ptr@DU__crt_public_free_policy@@@@QBE_NXZ 100313a0 f i libvcruntimed:std_exception.obj
 0001:000303d0       ?release@?$__crt_unique_heap_ptr@DU__crt_public_free_policy@@@@QAEXXZ 100313d0 f i libvcruntimed:std_exception.obj
 0001:00030400       ___std_exception_copy      10031400 f   libvcruntimed:std_exception.obj
 0001:000304e0       ___std_exception_destroy   100314e0 f   libvcruntimed:std_exception.obj
 0001:00030510       __CxxThrowException@8      10031510 f   libvcruntimed:throw.obj
 0001:000305d0       _memmove                   100315d0 f   libvcruntimed:memmove.obj
 0001:00030b50       ??$?B$$A6AXXZ@__crt_fast_encoded_nullptr_t@@QBEP6AXXZXZ 10031b50 f i libvcruntimed:purevirt_data.obj
 0001:00030b70       ?__crt_fast_encode_pointer@@YA?AU__crt_fast_encoded_nullptr_t@@$$T@Z 10031b70 f i libvcruntimed:purevirt_data.obj
 0001:00030b80       ___vcrt_initialize_pure_virtual_call_handler 10031b80 f   libvcruntimed:purevirt_data.obj
 0001:00030bb0       __local_unwind4            10031bb0 f   libvcruntimed:exsup4.obj
 0001:00030c88       __seh_longjmp_unwind4@4    10031c88 f   libvcruntimed:exsup4.obj
 0001:00030cb0       @_EH4_CallFilterFunc@8     10031cb0 f   libvcruntimed:exsup4.obj
 0001:00030cc8       @_EH4_TransferToHandler@8  10031cc8 f   libvcruntimed:exsup4.obj
 0001:00030ce4       @_EH4_GlobalUnwind2@8      10031ce4 f   libvcruntimed:exsup4.obj
 0001:00030d00       @_EH4_LocalUnwind@16       10031d00 f   libvcruntimed:exsup4.obj
 0001:00030d30       ___except_validate_context_record 10031d30 f   libvcruntimed:jbcxrval.obj
 0001:00030d80       ___except_validate_jump_buffer 10031d80 f   libvcruntimed:jbcxrval.obj
 0001:00030da0       ___except_validate_jump_buffer_common 10031da0 f i libvcruntimed:jbcxrval.obj
 0001:00030e00       ??$?RU__vcrt_ptd@@@__crt_internal_free_policy@@QBEXQBU__vcrt_ptd@@@Z 10031e00 f i libvcruntimed:per_thread_data.obj
 0001:00030e20       ??0?$__crt_unique_heap_ptr@U__vcrt_ptd@@U__crt_internal_free_policy@@@@QAE@QAU__vcrt_ptd@@@Z 10031e20 f i libvcruntimed:per_thread_data.obj
 0001:00030e60       ??1?$__crt_unique_heap_ptr@U__vcrt_ptd@@U__crt_internal_free_policy@@@@QAE@XZ 10031e60 f i libvcruntimed:per_thread_data.obj
 0001:00030ea0       ??B?$__crt_unique_heap_ptr@U__vcrt_ptd@@U__crt_internal_free_policy@@@@QBE_NXZ 10031ea0 f i libvcruntimed:per_thread_data.obj
 0001:00030ec0       ?detach@?$__crt_unique_heap_ptr@U__vcrt_ptd@@U__crt_internal_free_policy@@@@QAEPAU__vcrt_ptd@@XZ 10031ec0 f i libvcruntimed:per_thread_data.obj
 0001:00030ef0       ?get@?$__crt_unique_heap_ptr@U__vcrt_ptd@@U__crt_internal_free_policy@@@@QBEPAU__vcrt_ptd@@XZ 10031ef0 f i libvcruntimed:per_thread_data.obj
 0001:00030f00       ?is_valid@?$__crt_unique_heap_ptr@U__vcrt_ptd@@U__crt_internal_free_policy@@@@QBE_NXZ 10031f00 f i libvcruntimed:per_thread_data.obj
 0001:00030f30       ?release@?$__crt_unique_heap_ptr@U__vcrt_ptd@@U__crt_internal_free_policy@@@@QAEXXZ 10031f30 f i libvcruntimed:per_thread_data.obj
 0001:00030f90       ___vcrt_freefls@4          10031f90 f   libvcruntimed:per_thread_data.obj
 0001:00030fc0       ___vcrt_freeptd            10031fc0 f   libvcruntimed:per_thread_data.obj
 0001:00031020       ___vcrt_getptd             10032020 f   libvcruntimed:per_thread_data.obj
 0001:00031040       ___vcrt_getptd_noexit      10032040 f   libvcruntimed:per_thread_data.obj
 0001:000311a0       ___vcrt_getptd_noinit      100321a0 f   libvcruntimed:per_thread_data.obj
 0001:00031200       ___vcrt_initialize_ptd     10032200 f   libvcruntimed:per_thread_data.obj
 0001:00031250       ___vcrt_uninitialize_ptd   10032250 f   libvcruntimed:per_thread_data.obj
 0001:00031280       ___vcrt_initialize_locks   10032280 f   libvcruntimed:locks.obj
 0001:000312e0       ___vcrt_lock               100322e0 f   libvcruntimed:locks.obj
 0001:00031300       ___vcrt_uninitialize_locks 10032300 f   libvcruntimed:locks.obj
 0001:00031350       ___vcrt_unlock             10032350 f   libvcruntimed:locks.obj
 0001:00031370       ??$?BX@__crt_fast_encoded_nullptr_t@@QBEPAXXZ 10032370 f i libvcruntimed:winapi_downlevel.obj
 0001:00031390       ??$__crt_fast_decode_pointer@PAX@@YAPAXQAX@Z 10032390 f i libvcruntimed:winapi_downlevel.obj
 0001:000313c0       ??$__crt_fast_encode_pointer@PAX@@YAPAXQAX@Z 100323c0 f i libvcruntimed:winapi_downlevel.obj
 0001:000313f0       ??$__crt_interlocked_exchange_pointer@UHINSTANCE__@@PAU1@@@YAPAUHINSTANCE__@@PDSAU0@QAU0@@Z 100323f0 f i libvcruntimed:winapi_downlevel.obj
 0001:00031400       ??$__crt_interlocked_exchange_pointer@UHINSTANCE__@@PAX@@YAPAUHINSTANCE__@@PDSAU0@QAX@Z 10032400 f i libvcruntimed:winapi_downlevel.obj
 0001:00031410       ??$__crt_interlocked_exchange_pointer@XPAX@@YAPAXPDSAXQAX@Z 10032410 f i libvcruntimed:winapi_downlevel.obj
 0001:00031420       ??$__crt_interlocked_read_pointer@UHINSTANCE__@@@@YAPAUHINSTANCE__@@PDSAU0@@Z 10032420 f i libvcruntimed:winapi_downlevel.obj
 0001:00031440       ??$__crt_interlocked_read_pointer@X@@YAPAXPDSAX@Z 10032440 f i libvcruntimed:winapi_downlevel.obj
 0001:00031850       ___vcrt_FlsAlloc           10032850 f   libvcruntimed:winapi_downlevel.obj
 0001:00031890       ___vcrt_FlsFree            10032890 f   libvcruntimed:winapi_downlevel.obj
 0001:000318d0       ___vcrt_FlsGetValue        100328d0 f   libvcruntimed:winapi_downlevel.obj
 0001:00031910       ___vcrt_FlsSetValue        10032910 f   libvcruntimed:winapi_downlevel.obj
 0001:00031960       ___vcrt_InitializeCriticalSectionEx 10032960 f   libvcruntimed:winapi_downlevel.obj
 0001:000319b0       ___vcrt_initialize_winapi_thunks 100329b0 f   libvcruntimed:winapi_downlevel.obj
 0001:00031a10       ___vcrt_uninitialize_winapi_thunks 10032a10 f   libvcruntimed:winapi_downlevel.obj
 0001:00032650       ??$TypeMatchHelper@V__FrameHandler3@@@@YAHPBU_s_HandlerType@@PBU_s_CatchableType@@PBU_s_ThrowInfo@@@Z 10033650 f i libvcruntimed:frame.obj
 0001:00032730       ??$__InternalCxxFrameHandler@V__FrameHandler3@@@@YA?AW4_EXCEPTION_DISPOSITION@@PAUEHExceptionRecord@@PAUEHRegistrationNode@@PAU_CONTEXT@@PAXPBU_s_FuncInfo@@H1E@Z 10033730 f i libvcruntimed:frame.obj
 0001:00032910       ??0HandlerMap@__FrameHandler3@@QAE@PBU_s_TryBlockMapEntry@@PAX@Z 10033910 f i libvcruntimed:frame.obj
 0001:00032940       ??0TryBlockMap@__FrameHandler3@@QAE@PBU_s_FuncInfo@@PAX@Z 10033940 f i libvcruntimed:frame.obj
 0001:00032970       ??0bad_exception@std@@QAE@ABV01@@Z 10033970 f i libvcruntimed:frame.obj
 0001:000329a0       ??0bad_exception@std@@QAE@XZ 100339a0 f i libvcruntimed:frame.obj
 0001:000329d0       ??0iterator@HandlerMap@__FrameHandler3@@QAE@AAV12@I@Z 100339d0 f i libvcruntimed:frame.obj
 0001:00032a00       ??1bad_exception@std@@UAE@XZ 10033a00 f i libvcruntimed:frame.obj
 0001:00032a20       ??8iterator@HandlerMap@__FrameHandler3@@QBE_NABV012@@Z 10033a20 f i libvcruntimed:frame.obj
 0001:00032a50       ??8type_info@@QBE_NABV0@@Z 10033a50 f i libvcruntimed:frame.obj
 0001:00032a90       ??9iterator@HandlerMap@__FrameHandler3@@QBE_NABV012@@Z 10033a90 f i libvcruntimed:frame.obj
 0001:00032ad0       ??Diterator@HandlerMap@__FrameHandler3@@QAEPBU_s_HandlerType@@XZ 10033ad0 f i libvcruntimed:frame.obj
 0001:00032af0       ??Diterator@TryBlockMap@__FrameHandler3@@QAEPBU_s_TryBlockMapEntry@@XZ 10033af0 f i libvcruntimed:frame.obj
 0001:00032b10       ??Eiterator@HandlerMap@__FrameHandler3@@QAEAAV012@XZ 10033b10 f i libvcruntimed:frame.obj
 0001:00032b30       ??Eiterator@TryBlockMap@__FrameHandler3@@QAEAAV012@XZ 10033b30 f i libvcruntimed:frame.obj
 0001:00032b50       ??Miterator@TryBlockMap@__FrameHandler3@@QBE_NABV012@@Z 10033b50 f i libvcruntimed:frame.obj
 0001:00032b80       ??_Gbad_exception@std@@UAEPAXI@Z 10033b80 f i libvcruntimed:frame.obj
 0001:00032b80       ??_Ebad_exception@std@@UAEPAXI@Z 10033b80 f i libvcruntimed:frame.obj
 0001:00032bb0       ?BuildCatchObject@__FrameHandler3@@SAXPAUEHExceptionRecord@@PAXPBU_s_HandlerType@@PBU_s_CatchableType@@@Z 10033bb0 f   libvcruntimed:frame.obj
 0001:00032bd0       ?BuildCatchObjectHelper@__FrameHandler3@@SAHPAUEHExceptionRecord@@PAXPBU_s_HandlerType@@PBU_s_CatchableType@@@Z 10033bd0 f   libvcruntimed:frame.obj
 0001:00032f70       ?FrameUnwindToEmptyState@__FrameHandler3@@SAXPAUEHRegistrationNode@@PAXPBU_s_FuncInfo@@@Z 10033f70 f   libvcruntimed:frame.obj
 0001:00032f90       ?FrameUnwindToState@__FrameHandler3@@SAXPAUEHRegistrationNode@@PAXPBU_s_FuncInfo@@H@Z 10033f90 f   libvcruntimed:frame.obj
 0001:00033110       ?GetMaxState@__FrameHandler3@@SAHPAXPBU_s_FuncInfo@@@Z 10034110 f i libvcruntimed:frame.obj
 0001:00033240       ?TypeMatch@__FrameHandler3@@SAHPBU_s_HandlerType@@PBU_s_CatchableType@@PBU_s_ThrowInfo@@@Z 10034240 f   libvcruntimed:frame.obj
 0001:00033260       ?_CallMemberFunction1@@YGXQAX00@Z 10034260 f i libvcruntimed:frame.obj
 0001:00033280       ?_CallMemberFunction2@@YGXQAX00H@Z 10034280 f i libvcruntimed:frame.obj
 0001:000332a0       ?_ValidateExecute@@YA_NP6GHXZ@Z 100342a0 f i libvcruntimed:frame.obj
 0001:000332c0       ?_ValidateRead@@YA_NPBXI@Z 100342c0 f i libvcruntimed:frame.obj
 0001:000332e0       ?_ValidateWrite@@YA_NPAXI@Z 100342e0 f i libvcruntimed:frame.obj
 0001:00033300       ?begin@HandlerMap@__FrameHandler3@@QAE?AViterator@12@XZ 10034300 f i libvcruntimed:frame.obj
 0001:00033320       ?end@HandlerMap@__FrameHandler3@@QAE?AViterator@12@XZ 10034320 f i libvcruntimed:frame.obj
 0001:00033350       ?getESTypes@__FrameHandler3@@SAPBU_s_ESTypeList@@PBU_s_FuncInfo@@@Z 10034350 f i libvcruntimed:frame.obj
 0001:00033360       ?getLastEntry@HandlerMap@__FrameHandler3@@QAEPBU_s_HandlerType@@XZ 10034360 f i libvcruntimed:frame.obj
 0001:00033380       ?getMagicNum@__FrameHandler3@@SAIPBU_s_FuncInfo@@@Z 10034380 f i libvcruntimed:frame.obj
 0001:00033390       ?getNumTryBlocks@TryBlockMap@__FrameHandler3@@QAEIXZ 10034390 f i libvcruntimed:frame.obj
 0001:000333b0       ?isEHs@__FrameHandler3@@SA_NPBU_s_FuncInfo@@@Z 100343b0 f i libvcruntimed:frame.obj
 0001:000333e0       ?isNoExcept@__FrameHandler3@@SA_NPBU_s_FuncInfo@@@Z 100343e0 f i libvcruntimed:frame.obj
 0001:00033410       ___BuildCatchObject        10034410 f   libvcruntimed:frame.obj
 0001:00033430       ___BuildCatchObjectHelper  10034430 f   libvcruntimed:frame.obj
 0001:00033450       ___TypeMatch               10034450 f   libvcruntimed:frame.obj
 0001:00033470       ___vcrt_EncodePointer      10034470 f i libvcruntimed:frame.obj
 0001:00033480       __CallSettingFrame@12      10034480 f   libvcruntimed:lowhelpr.obj
 0001:000334a7       __NLG_Return               100344a7     libvcruntimed:lowhelpr.obj
 0001:000334d0       ??0Block@_HeapManager@@QAE@XZ 100344d0 f i libvcruntimed:undname.obj
 0001:000334f0       ??0DName@@QAE@AAPBDD@Z     100344f0 f   libvcruntimed:undname.obj
 0001:00033720       ??0DName@@QAE@ABV0@@Z      10034720 f i libvcruntimed:undname.obj
 0001:00033750       ??0DName@@QAE@D@Z          10034750 f   libvcruntimed:undname.obj
 0001:00033790       ??0DName@@QAE@PAV0@@Z      10034790 f   libvcruntimed:undname.obj
 0001:00033840       ??0DName@@QAE@PBD@Z        10034840 f   libvcruntimed:undname.obj
 0001:00033890       ??0DName@@QAE@W4DNameStatus@@@Z 10034890 f   libvcruntimed:undname.obj
 0001:00033930       ??0DName@@QAE@XZ           10034930 f i libvcruntimed:undname.obj
 0001:00033960       ??0DName@@QAE@_J@Z         10034960 f   libvcruntimed:undname.obj
 0001:00033a50       ??0DName@@QAE@_K@Z         10034a50 f   libvcruntimed:undname.obj
 0001:00033b00       ??0DNameNode@@IAE@XZ       10034b00 f i libvcruntimed:undname.obj
 0001:00033b20       ??0Replicator@@QAE@XZ      10034b20 f i libvcruntimed:undname.obj
 0001:00033b60       ??0UnDecorator@@QAE@PBDP6APADJ@ZK@Z 10034b60 f i libvcruntimed:undname.obj
 0001:00033be0       ??0charNode@@QAE@D@Z       10034be0 f i libvcruntimed:undname.obj
 0001:00033c10       ??0pDNameNode@@QAE@PAVDName@@@Z 10034c10 f   libvcruntimed:undname.obj
 0001:00033c70       ??0pairNode@@QAE@PBVDNameNode@@0@Z 10034c70 f i libvcruntimed:undname.obj
 0001:00033cb0       ??0pcharNode@@QAE@PBDH@Z   10034cb0 f   libvcruntimed:undname.obj
 0001:00033d70       ??2@YAPAXIAAV_HeapManager@@H@Z 10034d70 f i libvcruntimed:undname.obj
 0001:00033d90       ??4DName@@QAEAAV0@ABV0@@Z  10034d90 f   libvcruntimed:undname.obj
 0001:00033dc0       ??4DName@@QAEAAV0@D@Z      10034dc0 f i libvcruntimed:undname.obj
 0001:00033e00       ??4DName@@QAEAAV0@PAV0@@Z  10034e00 f   libvcruntimed:undname.obj
 0001:00033ea0       ??4DName@@QAEAAV0@PBD@Z    10034ea0 f   libvcruntimed:undname.obj
 0001:00033ee0       ??4DName@@QAEAAV0@W4DNameStatus@@@Z 10034ee0 f   libvcruntimed:undname.obj
 0001:00033f60       ??AReplicator@@QBE?AVDName@@H@Z 10034f60 f   libvcruntimed:undname.obj
 0001:00033fd0       ??H@YA?AVDName@@DABV0@@Z   10034fd0 f i libvcruntimed:undname.obj
 0001:00034000       ??H@YA?AVDName@@PBDABV0@@Z 10035000 f i libvcruntimed:undname.obj
 0001:00034030       ??H@YA?AVDName@@W4DNameStatus@@ABV0@@Z 10035030 f i libvcruntimed:undname.obj
 0001:00034060       ??HDName@@QBE?AV0@ABV0@@Z  10035060 f   libvcruntimed:undname.obj
 0001:000340a0       ??HDName@@QBE?AV0@D@Z      100350a0 f   libvcruntimed:undname.obj
 0001:000340e0       ??HDName@@QBE?AV0@PAV0@@Z  100350e0 f   libvcruntimed:undname.obj
 0001:00034120       ??HDName@@QBE?AV0@PBD@Z    10035120 f   libvcruntimed:undname.obj
 0001:00034160       ??HDName@@QBE?AV0@W4DNameStatus@@@Z 10035160 f   libvcruntimed:undname.obj
 0001:000341a0       ??YDName@@QAEAAV0@ABV0@@Z  100351a0 f   libvcruntimed:undname.obj
 0001:00034210       ??YDName@@QAEAAV0@D@Z      10035210 f   libvcruntimed:undname.obj
 0001:00034290       ??YDName@@QAEAAV0@PAV0@@Z  10035290 f   libvcruntimed:undname.obj
 0001:00034350       ??YDName@@QAEAAV0@PBD@Z    10035350 f   libvcruntimed:undname.obj
 0001:000343f0       ??YDName@@QAEAAV0@W4DNameStatus@@@Z 100353f0 f   libvcruntimed:undname.obj
 0001:00034450       ??YReplicator@@QAEAAV0@ABVDName@@@Z 10035450 f   libvcruntimed:undname.obj
 0001:000344e0       ??_5DName@@QAEAAV0@ABV0@@Z 100354e0 f   libvcruntimed:undname.obj
 0001:00034540       ?Constructor@_HeapManager@@QAEXP6APAXI@ZP6AXPAX@Z@Z 10035540 f i libvcruntimed:undname.obj
 0001:00034580       ?Destructor@_HeapManager@@QAEXXZ 10035580 f i libvcruntimed:undname.obj
 0001:000345e0       ?UScore@UnDecorator@@SAPBDW4Tokens@@@Z 100355e0 f   libvcruntimed:undname.obj
 0001:00034610       ?append@DName@@AAEXPBVDNameNode@@@Z 10035610 f   libvcruntimed:undname.obj
 0001:000346a0       ?composeDeclaration@UnDecorator@@CA?AVDName@@ABV2@@Z 100356a0 f i libvcruntimed:undname.obj
 0001:000365c0       ?dbGetString@DName@@QBEPADXZ 100375c0 f   libvcruntimed:undname.obj
 0001:000365e0       ?doAccessSpecifiers@UnDecorator@@SAHXZ 100375e0 f i libvcruntimed:undname.obj
 0001:00036610       ?doAllocationLanguage@UnDecorator@@SAHXZ 10037610 f i libvcruntimed:undname.obj
 0001:00036640       ?doAllocationModel@UnDecorator@@SAHXZ 10037640 f i libvcruntimed:undname.obj
 0001:00036670       ?doEcsu@UnDecorator@@SAHXZ 10037670 f i libvcruntimed:undname.obj
 0001:000366a0       ?doEllipsis@UnDecorator@@SAHXZ 100376a0 f i libvcruntimed:undname.obj
 0001:000366d0       ?doFunctionReturns@UnDecorator@@SAHXZ 100376d0 f i libvcruntimed:undname.obj
 0001:00036700       ?doMSKeywords@UnDecorator@@SAHXZ 10037700 f i libvcruntimed:undname.obj
 0001:00036730       ?doMemberTypes@UnDecorator@@SAHXZ 10037730 f i libvcruntimed:undname.obj
 0001:00036760       ?doNameOnly@UnDecorator@@SAHXZ 10037760 f i libvcruntimed:undname.obj
 0001:00036770       ?doNoIdentCharCheck@UnDecorator@@SAHXZ 10037770 f i libvcruntimed:undname.obj
 0001:00036780       ?doPchar@DName@@AAEXPBDH@Z 10037780 f   libvcruntimed:undname.obj
 0001:000368c0       ?doPtr64@UnDecorator@@SAHXZ 100378c0 f i libvcruntimed:undname.obj
 0001:000368f0       ?doRestrictionSpec@UnDecorator@@SAHXZ 100378f0 f i libvcruntimed:undname.obj
 0001:00036920       ?doThisTypes@UnDecorator@@SAHXZ 10037920 f i libvcruntimed:undname.obj
 0001:00036950       ?doThrowTypes@UnDecorator@@SAHXZ 10037950 f i libvcruntimed:undname.obj
 0001:00036980       ?doTypeOnly@UnDecorator@@SAHXZ 10037980 f i libvcruntimed:undname.obj
 0001:00036990       ?doUnderScore@UnDecorator@@SAHXZ 10037990 f i libvcruntimed:undname.obj
 0001:000369c0       ?getArgumentList@UnDecorator@@CA?AVDName@@XZ 100379c0 f   libvcruntimed:undname.obj
 0001:00036b10       ?getArgumentTypes@UnDecorator@@CA?AVDName@@XZ 10037b10 f   libvcruntimed:undname.obj
 0001:00036c60       ?getArrayType@UnDecorator@@CA?AVDName@@ABV2@@Z 10037c60 f i libvcruntimed:undname.obj
 0001:00036ee0       ?getBasedType@UnDecorator@@CA?AVDName@@XZ 10037ee0 f   libvcruntimed:undname.obj
 0001:00036fb0       ?getBasicDataType@UnDecorator@@CA?AVDName@@ABV2@@Z 10037fb0 f   libvcruntimed:undname.obj
 0001:000375d0       ?getCHPEName@UnDecorator@@QAEPADPADH@Z 100385d0 f i libvcruntimed:undname.obj
 0001:00037730       ?getCallIndex@UnDecorator@@CA?AVDName@@XZ 10038730 f i libvcruntimed:undname.obj
 0001:00037750       ?getCallingConvention@UnDecorator@@CA?AVDName@@XZ 10038750 f   libvcruntimed:undname.obj
 0001:00037970       ?getDataIndirectType@UnDecorator@@CA?AVDName@@ABV2@PBD0H@Z 10038970 f   libvcruntimed:undname.obj
 0001:00038270       ?getDataIndirectType@UnDecorator@@CA?AVDName@@XZ 10039270 f i libvcruntimed:undname.obj
 0001:000382b0       ?getDataType@UnDecorator@@CA?AVDName@@PAV2@@Z 100392b0 f   libvcruntimed:undname.obj
 0001:000383d0       ?getDecoratedName@UnDecorator@@CA?AVDName@@XZ 100393d0 f   libvcruntimed:undname.obj
 0001:00038800       ?getDimension@UnDecorator@@CA?AVDName@@_N@Z 10039800 f   libvcruntimed:undname.obj
 0001:00038ab0       ?getDispatchTarget@UnDecorator@@CA?AVDName@@XZ 10039ab0 f   libvcruntimed:undname.obj
 0001:00038b50       ?getDisplacement@UnDecorator@@CA?AVDName@@XZ 10039b50 f i libvcruntimed:undname.obj
 0001:00038b70       ?getECSUDataType@UnDecorator@@CA?AVDName@@XZ 10039b70 f   libvcruntimed:undname.obj
 0001:00038d50       ?getECSUName@UnDecorator@@CA?AVDName@@XZ 10039d50 f i libvcruntimed:undname.obj
 0001:00038d70       ?getEnumType@UnDecorator@@CA?AVDName@@XZ 10039d70 f i libvcruntimed:undname.obj
 0001:00038ec0       ?getExtendedDataIndirectType@UnDecorator@@CA?AVDName@@AAPBDAA_NH@Z 10039ec0 f   libvcruntimed:undname.obj
 0001:00039120       ?getExternalDataType@UnDecorator@@CA?AVDName@@ABV2@@Z 1003a120 f i libvcruntimed:undname.obj
 0001:000391c0       ?getFunctionIndirectType@UnDecorator@@CA?AVDName@@ABV2@@Z 1003a1c0 f   libvcruntimed:undname.obj
 0001:00039710       ?getGuardNumber@UnDecorator@@CA?AVDName@@XZ 1003a710 f i libvcruntimed:undname.obj
 0001:00039730       ?getLastChar@DName@@QBEDXZ 1003a730 f i libvcruntimed:undname.obj
 0001:00039770       ?getLastChar@DNameStatusNode@@UBEDXZ 1003a770 f i libvcruntimed:undname.obj
 0001:000397a0       ?getLastChar@charNode@@UBEDXZ 1003a7a0 f i libvcruntimed:undname.obj
 0001:000397c0       ?getLastChar@pDNameNode@@UBEDXZ 1003a7c0 f i libvcruntimed:undname.obj
 0001:000397f0       ?getLastChar@pairNode@@UBEDXZ 1003a7f0 f i libvcruntimed:undname.obj
 0001:00039860       ?getLastChar@pcharNode@@UBEDXZ 1003a860 f i libvcruntimed:undname.obj
 0001:000398a0       ?getLexicalFrame@UnDecorator@@CA?AVDName@@XZ 1003a8a0 f i libvcruntimed:undname.obj
 0001:000398e0       ?getMemory@_HeapManager@@QAEPAXIH@Z 1003a8e0 f   libvcruntimed:undname.obj
 0001:00039a00       ?getNoexcept@UnDecorator@@CA?AVDName@@XZ 1003aa00 f   libvcruntimed:undname.obj
 0001:00039a70       ?getNumberOfDimensions@UnDecorator@@CAHXZ 1003aa70 f   libvcruntimed:undname.obj
 0001:00039b70       ?getOperatorName@UnDecorator@@CA?AVDName@@_NPA_N@Z 1003ab70 f i libvcruntimed:undname.obj
 0001:0003a660       ?getPointerType@UnDecorator@@CA?AVDName@@ABV2@0@Z 1003b660 f i libvcruntimed:undname.obj
 0001:0003a690       ?getPointerTypeArray@UnDecorator@@CA?AVDName@@ABV2@0@Z 1003b690 f i libvcruntimed:undname.obj
 0001:0003a6c0       ?getPrimaryDataType@UnDecorator@@CA?AVDName@@ABV2@@Z 1003b6c0 f   libvcruntimed:undname.obj
 0001:0003aac0       ?getPtrRefDataType@UnDecorator@@CA?AVDName@@ABV2@H@Z 1003bac0 f   libvcruntimed:undname.obj
 0001:0003acf0       ?getPtrRefType@UnDecorator@@CA?AVDName@@ABV2@0PBD@Z 1003bcf0 f   libvcruntimed:undname.obj
 0001:0003ae60       ?getReferenceType@UnDecorator@@CA?AVDName@@ABV2@0PBD@Z 1003be60 f i libvcruntimed:undname.obj
 0001:0003ae80       ?getRestrictionSpec@UnDecorator@@CA?AVDName@@XZ 1003be80 f   libvcruntimed:undname.obj
 0001:0003b000       ?getReturnType@UnDecorator@@CA?AVDName@@PAV2@@Z 1003c000 f   libvcruntimed:undname.obj
 0001:0003b050       ?getScope@UnDecorator@@CA?AVDName@@XZ 1003c050 f   libvcruntimed:undname.obj
 0001:0003b5f0       ?getScopedName@UnDecorator@@CA?AVDName@@XZ 1003c5f0 f   libvcruntimed:undname.obj
 0001:0003b730       ?getSignedDimension@UnDecorator@@CA?AVDName@@XZ 1003c730 f   libvcruntimed:undname.obj
 0001:0003b7b0       ?getStorageConvention@UnDecorator@@CA?AVDName@@XZ 1003c7b0 f i libvcruntimed:undname.obj
 0001:0003b7d0       ?getString@DName@@QBEPADPAD0@Z 1003c7d0 f i libvcruntimed:undname.obj
 0001:0003b830       ?getString@DName@@QBEPADPADH@Z 1003c830 f i libvcruntimed:undname.obj
 0001:0003b8c0       ?getString@DNameStatusNode@@UBEPADPAD0@Z 1003c8c0 f i libvcruntimed:undname.obj
 0001:0003b900       ?getString@charNode@@UBEPADPAD0@Z 1003c900 f i libvcruntimed:undname.obj
 0001:0003b930       ?getString@pDNameNode@@UBEPADPAD0@Z 1003c930 f i libvcruntimed:undname.obj
 0001:0003b970       ?getString@pairNode@@UBEPADPAD0@Z 1003c970 f i libvcruntimed:undname.obj
 0001:0003ba00       ?getString@pcharNode@@UBEPADPAD0@Z 1003ca00 f i libvcruntimed:undname.obj
 0001:0003ba30       ?getStringEncoding@UnDecorator@@CA?AVDName@@PBDH@Z 1003ca30 f   libvcruntimed:undname.obj
 0001:0003bb40       ?getStringHelper@@YAPADPADPBD1H@Z 1003cb40 f i libvcruntimed:undname.obj
 0001:0003bb80       ?getSymbolName@UnDecorator@@CA?AVDName@@XZ 1003cb80 f i libvcruntimed:undname.obj
 0001:0003bc10       ?getTemplateArgumentList@UnDecorator@@CA?AVDName@@XZ 1003cc10 f   libvcruntimed:undname.obj
 0001:0003c030       ?getTemplateConstant@UnDecorator@@CA?AVDName@@XZ 1003d030 f   libvcruntimed:undname.obj
 0001:0003c650       ?getTemplateName@UnDecorator@@CA?AVDName@@_N@Z 1003d650 f   libvcruntimed:undname.obj
 0001:0003c830       ?getThisType@UnDecorator@@CA?AVDName@@XZ 1003d830 f i libvcruntimed:undname.obj
 0001:0003c870       ?getThrowTypes@UnDecorator@@CA?AVDName@@XZ 1003d870 f   libvcruntimed:undname.obj
 0001:0003c8b0       ?getTypeEncoding@UnDecorator@@CAHXZ 1003d8b0 f i libvcruntimed:undname.obj
 0001:0003d340       ?getUndecoratedName@UnDecorator@@QAEPADPADH@Z 1003e340 f i libvcruntimed:undname.obj
 0001:0003d490       ?getVCallThunkType@UnDecorator@@CA?AVDName@@XZ 1003e490 f i libvcruntimed:undname.obj
 0001:0003d4f0       ?getVbTableType@UnDecorator@@CA?AVDName@@ABV2@@Z 1003e4f0 f i libvcruntimed:undname.obj
 0001:0003d510       ?getVdispMapType@UnDecorator@@CA?AVDName@@ABV2@@Z 1003e510 f i libvcruntimed:undname.obj
 0001:0003d590       ?getVfTableType@UnDecorator@@CA?AVDName@@ABV2@@Z 1003e590 f i libvcruntimed:undname.obj
 0001:0003d770       ?getZName@UnDecorator@@CA?AVDName@@_N0@Z 1003e770 f   libvcruntimed:undname.obj
 0001:0003da70       ?haveTemplateParameters@UnDecorator@@SAHXZ 1003ea70 f i libvcruntimed:undname.obj
 0001:0003da80       ?isArray@DName@@QBEHXZ     1003ea80 f i libvcruntimed:undname.obj
 0001:0003daa0       ?isComArray@DName@@QBEHXZ  1003eaa0 f i libvcruntimed:undname.obj
 0001:0003dac0       ?isEmpty@DName@@QBEHXZ     1003eac0 f i libvcruntimed:undname.obj
 0001:0003daf0       ?isFull@Replicator@@QBEHXZ 1003eaf0 f i libvcruntimed:undname.obj
 0001:0003db20       ?isNoTE@DName@@QBEHXZ      1003eb20 f i libvcruntimed:undname.obj
 0001:0003db40       ?isPinPtr@DName@@QBEHXZ    1003eb40 f i libvcruntimed:undname.obj
 0001:0003db60       ?isPtrRef@DName@@QBEHXZ    1003eb60 f i libvcruntimed:undname.obj
 0001:0003db80       ?isUDC@DName@@QBEHXZ       1003eb80 f i libvcruntimed:undname.obj
 0001:0003dbc0       ?isUDTThunk@DName@@QBEHXZ  1003ebc0 f i libvcruntimed:undname.obj
 0001:0003dc00       ?isVCallThunk@DName@@QBEHXZ 1003ec00 f i libvcruntimed:undname.obj
 0001:0003dc20       ?isValid@DName@@QBEHXZ     1003ec20 f i libvcruntimed:undname.obj
 0001:0003dc60       ?length@DName@@QBEHXZ      1003ec60 f i libvcruntimed:undname.obj
 0001:0003dca0       ?length@DNameStatusNode@@UBEHXZ 1003eca0 f i libvcruntimed:undname.obj
 0001:0003dcc0       ?length@charNode@@UBEHXZ   1003ecc0 f i libvcruntimed:undname.obj
 0001:0003dcd0       ?length@pDNameNode@@UBEHXZ 1003ecd0 f i libvcruntimed:undname.obj
 0001:0003dd00       ?length@pairNode@@UBEHXZ   1003ed00 f i libvcruntimed:undname.obj
 0001:0003dd70       ?length@pcharNode@@UBEHXZ  1003ed70 f i libvcruntimed:undname.obj
 0001:0003dd90       ?make@DNameStatusNode@@SAPBV1@W4DNameStatus@@@Z 1003ed90 f i libvcruntimed:undname.obj
 0001:0003ddc0       ?parseDecoratedName@UnDecorator@@CA?AVDName@@XZ 1003edc0 f   libvcruntimed:undname.obj
 0001:0003df50       ?setIsArray@DName@@QAEXXZ  1003ef50 f i libvcruntimed:undname.obj
 0001:0003df70       ?setIsComArray@DName@@QAEXXZ 1003ef70 f i libvcruntimed:undname.obj
 0001:0003df90       ?setIsNoTE@DName@@QAEXXZ   1003ef90 f i libvcruntimed:undname.obj
 0001:0003dfb0       ?setIsPinPtr@DName@@QAEXXZ 1003efb0 f i libvcruntimed:undname.obj
 0001:0003dfd0       ?setIsUDC@DName@@QAEXXZ    1003efd0 f i libvcruntimed:undname.obj
 0001:0003e000       ?setIsVCallThunk@DName@@QAEXXZ 1003f000 f i libvcruntimed:undname.obj
 0001:0003e020       ?setPtrRef@DName@@QAEAAV1@XZ 1003f020 f i libvcruntimed:undname.obj
 0001:0003e040       ?status@DName@@QBE?AW4DNameStatus@@XZ 1003f040 f i libvcruntimed:undname.obj
 0001:0003e140       ___unDName                 1003f140 f   libvcruntimed:undname.obj
 0001:0003e170       ___unDNameEx               1003f170 f   libvcruntimed:undname.obj
 0001:0003e240       _unDNameGenerateCHPE       1003f240 f   libvcruntimed:undname.obj
 0001:0003e2a0       __global_unwind2           1003f2a0 f   libvcruntimed:exsup.obj
 0001:0003e306       __local_unwind2            1003f306 f   libvcruntimed:exsup.obj
 0001:0003e38a       __abnormal_termination     1003f38a f   libvcruntimed:exsup.obj
 0001:0003e3b0       __NLG_Notify1              1003f3b0 f   libvcruntimed:exsup.obj
 0001:0003e3bc       __NLG_Notify               1003f3bc f   libvcruntimed:exsup.obj
 0001:0003e3d3       __NLG_Dispatch2            1003f3d3     libvcruntimed:exsup.obj
 0001:0003e3d3       __NLG_Dispatch             1003f3d3     libvcruntimed:exsup.obj
 0001:0003e3db       __NLG_Call                 1003f3db f   libvcruntimed:exsup.obj
 0001:0003e3dd       __NLG_Return2              1003f3dd     libvcruntimed:exsup.obj
 0001:0003e410       __get_unexpected           1003f410 f   libvcruntimed:unexpected.obj
 0001:0003e430       _set_unexpected            1003f430 f   libvcruntimed:unexpected.obj
 0001:0003e460       _unexpected                1003f460 f   libvcruntimed:unexpected.obj
 0001:0003e4a0       ?GetCurrentState@__FrameHandler3@@SAHPAUEHRegistrationNode@@PAXPBU_s_FuncInfo@@@Z 1003f4a0 f   libvcruntimed:ehstate.obj
 0001:0003e4d0       ?SetState@__FrameHandler3@@SAXPAUEHRegistrationNode@@PBU_s_FuncInfo@@H@Z 1003f4d0 f   libvcruntimed:ehstate.obj
 0001:0003e4e0       ___DestructExceptionObject 1003f4e0 f   libvcruntimed:ehhelpers.obj
 0001:0003e610       ?_CallMemberFunction0@@YGXQAX0@Z 1003f610 f i libvcruntimed:ehhelpers.obj
 0001:0003e630       ?raw_name@type_info@@QBEPBDXZ 1003f630 f i libvcruntimed:ehhelpers.obj
 0001:0003e650       __IsExceptionObjectToBeDestroyed 1003f650 f   libvcruntimed:ehhelpers.obj
 0001:0003e690       __SetWinRTOutOfMemoryExceptionCallback 1003f690 f   libvcruntimed:ehhelpers.obj
 0001:0003e6a0       ___AdjustPointer           1003f6a0 f   libvcruntimed:ehhelpers.obj
 0001:0003e6f0       ___FrameUnwindFilter       1003f6f0 f   libvcruntimed:ehhelpers.obj
 0001:0003e770       ___GetPlatformExceptionInfo 1003f770 f   libvcruntimed:ehhelpers.obj
 0001:0003e7f0       ___current_exception       1003f7f0 f   libvcruntimed:ehhelpers.obj
 0001:0003e800       ___current_exception_context 1003f800 f   libvcruntimed:ehhelpers.obj
 0001:0003e810       ___processing_throw        1003f810 f   libvcruntimed:ehhelpers.obj
 0001:0003e820       ___std_terminate           1003f820 f   libvcruntimed:ehhelpers.obj
 0001:0003e830       __is_exception_typeof      1003f830 f   libvcruntimed:ehhelpers.obj
 0001:0003e910       ??$?0ABV?$stream_output_adapter@D@__crt_stdio_output@@AB_KABQBDABQAU__crt_locale_pointers@@ABQAD@?$format_validation_base@DV?$stream_output_adapter@D@__crt_stdio_output@@@__crt_stdio_output@@IAE@ABV?$stream_output_adapter@D@1@AB_KABQBDABQAU__crt_locale_pointers@@ABQAD@Z 1003f910 f i libucrtd:output.obj
 0001:0003e940       ??$?0ABV?$stream_output_adapter@D@__crt_stdio_output@@AB_KABQBDABQAU__crt_locale_pointers@@ABQAD@?$positional_parameter_base@DV?$stream_output_adapter@D@__crt_stdio_output@@@__crt_stdio_output@@IAE@ABV?$stream_output_adapter@D@1@AB_KABQBDABQAU__crt_locale_pointers@@ABQAD@Z 1003f940 f i libucrtd:output.obj
 0001:0003e9c0       ??$?0ABV?$stream_output_adapter@D@__crt_stdio_output@@AB_KABQBDABQAU__crt_locale_pointers@@ABQAD@?$standard_base@DV?$stream_output_adapter@D@__crt_stdio_output@@@__crt_stdio_output@@IAE@ABV?$stream_output_adapter@D@1@AB_KABQBDABQAU__crt_locale_pointers@@ABQAD@Z 1003f9c0 f i libucrtd:output.obj
 0001:0003ea10       ??$?0ABV?$stream_output_adapter@_W@__crt_stdio_output@@AB_KABQB_WABQAU__crt_locale_pointers@@ABQAD@?$format_validation_base@_WV?$stream_output_adapter@_W@__crt_stdio_output@@@__crt_stdio_output@@IAE@ABV?$stream_output_adapter@_W@1@AB_KABQB_WABQAU__crt_locale_pointers@@ABQAD@Z 1003fa10 f i libucrtd:output.obj
 0001:0003ea40       ??$?0ABV?$stream_output_adapter@_W@__crt_stdio_output@@AB_KABQB_WABQAU__crt_locale_pointers@@ABQAD@?$positional_parameter_base@_WV?$stream_output_adapter@_W@__crt_stdio_output@@@__crt_stdio_output@@IAE@ABV?$stream_output_adapter@_W@1@AB_KABQB_WABQAU__crt_locale_pointers@@ABQAD@Z 1003fa40 f i libucrtd:output.obj
 0001:0003eac0       ??$?0ABV?$stream_output_adapter@_W@__crt_stdio_output@@AB_KABQB_WABQAU__crt_locale_pointers@@ABQAD@?$standard_base@_WV?$stream_output_adapter@_W@__crt_stdio_output@@@__crt_stdio_output@@IAE@ABV?$stream_output_adapter@_W@1@AB_KABQB_WABQAU__crt_locale_pointers@@ABQAD@Z 1003fac0 f i libucrtd:output.obj
 0001:0003eb10       ??$?0ABV?$string_output_adapter@D@__crt_stdio_output@@AB_KABQBDABQAU__crt_locale_pointers@@ABQAD@?$format_validation_base@DV?$string_output_adapter@D@__crt_stdio_output@@@__crt_stdio_output@@IAE@ABV?$string_output_adapter@D@1@AB_KABQBDABQAU__crt_locale_pointers@@ABQAD@Z 1003fb10 f i libucrtd:output.obj
 0001:0003eb40       ??$?0ABV?$string_output_adapter@D@__crt_stdio_output@@AB_KABQBDABQAU__crt_locale_pointers@@ABQAD@?$positional_parameter_base@DV?$string_output_adapter@D@__crt_stdio_output@@@__crt_stdio_output@@IAE@ABV?$string_output_adapter@D@1@AB_KABQBDABQAU__crt_locale_pointers@@ABQAD@Z 1003fb40 f i libucrtd:output.obj
 0001:0003ebc0       ??$?0ABV?$string_output_adapter@D@__crt_stdio_output@@AB_KABQBDABQAU__crt_locale_pointers@@ABQAD@?$standard_base@DV?$string_output_adapter@D@__crt_stdio_output@@@__crt_stdio_output@@IAE@ABV?$string_output_adapter@D@1@AB_KABQBDABQAU__crt_locale_pointers@@ABQAD@Z 1003fbc0 f i libucrtd:output.obj
 0001:0003ec10       ??$?0ABV?$string_output_adapter@_W@__crt_stdio_output@@AB_KABQB_WABQAU__crt_locale_pointers@@ABQAD@?$format_validation_base@_WV?$string_output_adapter@_W@__crt_stdio_output@@@__crt_stdio_output@@IAE@ABV?$string_output_adapter@_W@1@AB_KABQB_WABQAU__crt_locale_pointers@@ABQAD@Z 1003fc10 f i libucrtd:output.obj
 0001:0003ec40       ??$?0ABV?$string_output_adapter@_W@__crt_stdio_output@@AB_KABQB_WABQAU__crt_locale_pointers@@ABQAD@?$positional_parameter_base@_WV?$string_output_adapter@_W@__crt_stdio_output@@@__crt_stdio_output@@IAE@ABV?$string_output_adapter@_W@1@AB_KABQB_WABQAU__crt_locale_pointers@@ABQAD@Z 1003fc40 f i libucrtd:output.obj
 0001:0003ecc0       ??$?0ABV?$string_output_adapter@_W@__crt_stdio_output@@AB_KABQB_WABQAU__crt_locale_pointers@@ABQAD@?$standard_base@_WV?$string_output_adapter@_W@__crt_stdio_output@@@__crt_stdio_output@@IAE@ABV?$string_output_adapter@_W@1@AB_KABQB_WABQAU__crt_locale_pointers@@ABQAD@Z 1003fcc0 f i libucrtd:output.obj
 0001:0003ed10       ??$?RV<lambda_2293f24e3ce1ad6fe22ccfb9dec07671>@@AAV<lambda_2565fc715a641e539f44ad02d6823606>@@V<lambda_d3217f279b832965d9ca670dc2993570>@@@?$__crt_seh_guarded_call@H@@QAEH$$QAV<lambda_2293f24e3ce1ad6fe22ccfb9dec07671>@@AAV<lambda_2565fc715a641e539f44ad02d6823606>@@$$QAV<lambda_d3217f279b832965d9ca670dc2993570>@@@Z 1003fd10 f i libucrtd:output.obj
 0001:0003eda0       ??$?RV<lambda_4d4ac866be0fa3c441830420fabdd2cb>@@AAV<lambda_63a10c2dc8dbb9e4dd1890be52af7c93>@@V<lambda_002af9fa0f8fe472b648c51882d4fc32>@@@?$__crt_seh_guarded_call@H@@QAEH$$QAV<lambda_4d4ac866be0fa3c441830420fabdd2cb>@@AAV<lambda_63a10c2dc8dbb9e4dd1890be52af7c93>@@$$QAV<lambda_002af9fa0f8fe472b648c51882d4fc32>@@@Z 1003fda0 f i libucrtd:output.obj
 0001:0003ee30       ??$?RV<lambda_5be909dfbae0a631386585770cd7b676>@@AAV<lambda_e516058a9c289d98c8ca9fea99247804>@@V<lambda_afe2e0cdc5e0ecf6f0d6f5e2f8985e38>@@@?$__crt_seh_guarded_call@H@@QAEH$$QAV<lambda_5be909dfbae0a631386585770cd7b676>@@AAV<lambda_e516058a9c289d98c8ca9fea99247804>@@$$QAV<lambda_afe2e0cdc5e0ecf6f0d6f5e2f8985e38>@@@Z 1003fe30 f i libucrtd:output.obj
 0001:0003eec0       ??$?RV<lambda_823d65812123d985753d53e2a8c25d20>@@AAV<lambda_0a97c9e57da7be065955385c79108ff2>@@V<lambda_4d2973f3ad2d226f00468307185dca1b>@@@?$__crt_seh_guarded_call@H@@QAEH$$QAV<lambda_823d65812123d985753d53e2a8c25d20>@@AAV<lambda_0a97c9e57da7be065955385c79108ff2>@@$$QAV<lambda_4d2973f3ad2d226f00468307185dca1b>@@@Z 1003fec0 f i libucrtd:output.obj
 0001:0003ef50       ??$?RV<lambda_ab9923ffb5d694ec0d78876dd103e44f>@@AAV<lambda_481dd5778c961fbcd3b60b650e9b9dc4>@@V<lambda_7923d86c9e3f319b415918ec4b39749c>@@@?$__crt_seh_guarded_call@H@@QAEH$$QAV<lambda_ab9923ffb5d694ec0d78876dd103e44f>@@AAV<lambda_481dd5778c961fbcd3b60b650e9b9dc4>@@$$QAV<lambda_7923d86c9e3f319b415918ec4b39749c>@@@Z 1003ff50 f i libucrtd:output.obj
 0001:0003efe0       ??$?RV<lambda_db08b09ef7aa9d4f8620ce68402612bc>@@AAV<lambda_4f2c1eaeead2a5fc776db5b62ea0fb9b>@@V<lambda_3ae262bc35d4ba6a3825c4f6bcaaf95c>@@@?$__crt_seh_guarded_call@H@@QAEH$$QAV<lambda_db08b09ef7aa9d4f8620ce68402612bc>@@AAV<lambda_4f2c1eaeead2a5fc776db5b62ea0fb9b>@@$$QAV<lambda_3ae262bc35d4ba6a3825c4f6bcaaf95c>@@@Z 1003ffe0 f i libucrtd:output.obj
 0001:0003f070       ??$__acrt_lock_stream_and_call@V<lambda_0a97c9e57da7be065955385c79108ff2>@@@@YAHQAU_iobuf@@$$QAV<lambda_0a97c9e57da7be065955385c79108ff2>@@@Z 10040070 f i libucrtd:output.obj
 0001:0003f0b0       ??$__acrt_lock_stream_and_call@V<lambda_2565fc715a641e539f44ad02d6823606>@@@@YAHQAU_iobuf@@$$QAV<lambda_2565fc715a641e539f44ad02d6823606>@@@Z 100400b0 f i libucrtd:output.obj
 0001:0003f0f0       ??$__acrt_lock_stream_and_call@V<lambda_481dd5778c961fbcd3b60b650e9b9dc4>@@@@YAHQAU_iobuf@@$$QAV<lambda_481dd5778c961fbcd3b60b650e9b9dc4>@@@Z 100400f0 f i libucrtd:output.obj
 0001:0003f130       ??$__acrt_lock_stream_and_call@V<lambda_4f2c1eaeead2a5fc776db5b62ea0fb9b>@@@@YAHQAU_iobuf@@$$QAV<lambda_4f2c1eaeead2a5fc776db5b62ea0fb9b>@@@Z 10040130 f i libucrtd:output.obj
 0001:0003f170       ??$__acrt_lock_stream_and_call@V<lambda_63a10c2dc8dbb9e4dd1890be52af7c93>@@@@YAHQAU_iobuf@@$$QAV<lambda_63a10c2dc8dbb9e4dd1890be52af7c93>@@@Z 10040170 f i libucrtd:output.obj
 0001:0003f1b0       ??$__acrt_lock_stream_and_call@V<lambda_e516058a9c289d98c8ca9fea99247804>@@@@YAHQAU_iobuf@@$$QAV<lambda_e516058a9c289d98c8ca9fea99247804>@@@Z 100401b0 f i libucrtd:output.obj
 0001:0003f1f0       ??$__crt_interlocked_read@J@@YAJPDJ@Z 100401f0 f i libucrtd:output.obj
 0001:00041f90       ??$count@D@formatting_buffer@__crt_stdio_output@@QBEIXZ 10042f90 f i libucrtd:output.obj
 0001:00041fd0       ??$data@D@formatting_buffer@__crt_stdio_output@@QAEPADXZ 10042fd0 f i libucrtd:output.obj
 0001:00042010       ??$data@_W@formatting_buffer@__crt_stdio_output@@QAEPA_WXZ 10043010 f i libucrtd:output.obj
 0001:00042050       ??$ensure_buffer_is_big_enough@D@formatting_buffer@__crt_stdio_output@@QAE_NI@Z 10043050 f i libucrtd:output.obj
 0001:00042130       ??$extract_argument_from_va_list@C_J@?$positional_parameter_base@DV?$stream_output_adapter@D@__crt_stdio_output@@@__crt_stdio_output@@IAE_NAA_J@Z 10043130 f i libucrtd:output.obj
 0001:00042270       ??$extract_argument_from_va_list@C_J@?$positional_parameter_base@DV?$string_output_adapter@D@__crt_stdio_output@@@__crt_stdio_output@@IAE_NAA_J@Z 10043270 f i libucrtd:output.obj
 0001:000423b0       ??$extract_argument_from_va_list@C_J@?$positional_parameter_base@_WV?$stream_output_adapter@_W@__crt_stdio_output@@@__crt_stdio_output@@IAE_NAA_J@Z 100433b0 f i libucrtd:output.obj
 0001:000424f0       ??$extract_argument_from_va_list@C_J@?$positional_parameter_base@_WV?$string_output_adapter@_W@__crt_stdio_output@@@__crt_stdio_output@@IAE_NAA_J@Z 100434f0 f i libucrtd:output.obj
 0001:00042630       ??$extract_argument_from_va_list@C_J@?$standard_base@DV?$stream_output_adapter@D@__crt_stdio_output@@@__crt_stdio_output@@IAE_NAA_J@Z 10043630 f i libucrtd:output.obj
 0001:00042660       ??$extract_argument_from_va_list@C_J@?$standard_base@DV?$string_output_adapter@D@__crt_stdio_output@@@__crt_stdio_output@@IAE_NAA_J@Z 10043660 f i libucrtd:output.obj
 0001:00042690       ??$extract_argument_from_va_list@C_J@?$standard_base@_WV?$stream_output_adapter@_W@__crt_stdio_output@@@__crt_stdio_output@@IAE_NAA_J@Z 10043690 f i libucrtd:output.obj
 0001:000426c0       ??$extract_argument_from_va_list@C_J@?$standard_base@_WV?$string_output_adapter@_W@__crt_stdio_output@@@__crt_stdio_output@@IAE_NAA_J@Z 100436c0 f i libucrtd:output.obj
 0001:000426f0       ??$extract_argument_from_va_list@E_J@?$positional_parameter_base@DV?$stream_output_adapter@D@__crt_stdio_output@@@__crt_stdio_output@@IAE_NAA_J@Z 100436f0 f i libucrtd:output.obj
 0001:00042830       ??$extract_argument_from_va_list@E_J@?$positional_parameter_base@DV?$string_output_adapter@D@__crt_stdio_output@@@__crt_stdio_output@@IAE_NAA_J@Z 10043830 f i libucrtd:output.obj
 0001:00042970       ??$extract_argument_from_va_list@E_J@?$positional_parameter_base@_WV?$stream_output_adapter@_W@__crt_stdio_output@@@__crt_stdio_output@@IAE_NAA_J@Z 10043970 f i libucrtd:output.obj
 0001:00042ab0       ??$extract_argument_from_va_list@E_J@?$positional_parameter_base@_WV?$string_output_adapter@_W@__crt_stdio_output@@@__crt_stdio_output@@IAE_NAA_J@Z 10043ab0 f i libucrtd:output.obj
 0001:00042bf0       ??$extract_argument_from_va_list@E_J@?$standard_base@DV?$stream_output_adapter@D@__crt_stdio_output@@@__crt_stdio_output@@IAE_NAA_J@Z 10043bf0 f i libucrtd:output.obj
 0001:00042c20       ??$extract_argument_from_va_list@E_J@?$standard_base@DV?$string_output_adapter@D@__crt_stdio_output@@@__crt_stdio_output@@IAE_NAA_J@Z 10043c20 f i libucrtd:output.obj
 0001:00042c50       ??$extract_argument_from_va_list@E_J@?$standard_base@_WV?$stream_output_adapter@_W@__crt_stdio_output@@@__crt_stdio_output@@IAE_NAA_J@Z 10043c50 f i libucrtd:output.obj
 0001:00042c80       ??$extract_argument_from_va_list@E_J@?$standard_base@_WV?$string_output_adapter@_W@__crt_stdio_output@@@__crt_stdio_output@@IAE_NAA_J@Z 10043c80 f i libucrtd:output.obj
 0001:00042cb0       ??$extract_argument_from_va_list@F_J@?$positional_parameter_base@DV?$stream_output_adapter@D@__crt_stdio_output@@@__crt_stdio_output@@IAE_NAA_J@Z 10043cb0 f i libucrtd:output.obj
 0001:00042de0       ??$extract_argument_from_va_list@F_J@?$positional_parameter_base@DV?$string_output_adapter@D@__crt_stdio_output@@@__crt_stdio_output@@IAE_NAA_J@Z 10043de0 f i libucrtd:output.obj
 0001:00042f10       ??$extract_argument_from_va_list@F_J@?$positional_parameter_base@_WV?$stream_output_adapter@_W@__crt_stdio_output@@@__crt_stdio_output@@IAE_NAA_J@Z 10043f10 f i libucrtd:output.obj
 0001:00043040       ??$extract_argument_from_va_list@F_J@?$positional_parameter_base@_WV?$string_output_adapter@_W@__crt_stdio_output@@@__crt_stdio_output@@IAE_NAA_J@Z 10044040 f i libucrtd:output.obj
 0001:00043170       ??$extract_argument_from_va_list@F_J@?$standard_base@DV?$stream_output_adapter@D@__crt_stdio_output@@@__crt_stdio_output@@IAE_NAA_J@Z 10044170 f i libucrtd:output.obj
 0001:000431a0       ??$extract_argument_from_va_list@F_J@?$standard_base@DV?$string_output_adapter@D@__crt_stdio_output@@@__crt_stdio_output@@IAE_NAA_J@Z 100441a0 f i libucrtd:output.obj
 0001:000431d0       ??$extract_argument_from_va_list@F_J@?$standard_base@_WV?$stream_output_adapter@_W@__crt_stdio_output@@@__crt_stdio_output@@IAE_NAA_J@Z 100441d0 f i libucrtd:output.obj
 0001:00043200       ??$extract_argument_from_va_list@F_J@?$standard_base@_WV?$string_output_adapter@_W@__crt_stdio_output@@@__crt_stdio_output@@IAE_NAA_J@Z 10044200 f i libucrtd:output.obj
 0001:00043230       ??$extract_argument_from_va_list@GD@?$positional_parameter_base@DV?$stream_output_adapter@D@__crt_stdio_output@@@__crt_stdio_output@@IAE_NAAD@Z 10044230 f i libucrtd:output.obj
 0001:00043360       ??$extract_argument_from_va_list@GD@?$positional_parameter_base@DV?$string_output_adapter@D@__crt_stdio_output@@@__crt_stdio_output@@IAE_NAAD@Z 10044360 f i libucrtd:output.obj
 0001:00043490       ??$extract_argument_from_va_list@GD@?$standard_base@DV?$stream_output_adapter@D@__crt_stdio_output@@@__crt_stdio_output@@IAE_NAAD@Z 10044490 f i libucrtd:output.obj
 0001:000434c0       ??$extract_argument_from_va_list@GD@?$standard_base@DV?$string_output_adapter@D@__crt_stdio_output@@@__crt_stdio_output@@IAE_NAAD@Z 100444c0 f i libucrtd:output.obj
 0001:000434f0       ??$extract_argument_from_va_list@G_J@?$positional_parameter_base@DV?$stream_output_adapter@D@__crt_stdio_output@@@__crt_stdio_output@@IAE_NAA_J@Z 100444f0 f i libucrtd:output.obj
 0001:00043630       ??$extract_argument_from_va_list@G_J@?$positional_parameter_base@DV?$string_output_adapter@D@__crt_stdio_output@@@__crt_stdio_output@@IAE_NAA_J@Z 10044630 f i libucrtd:output.obj
 0001:00043770       ??$extract_argument_from_va_list@G_J@?$positional_parameter_base@_WV?$stream_output_adapter@_W@__crt_stdio_output@@@__crt_stdio_output@@IAE_NAA_J@Z 10044770 f i libucrtd:output.obj
 0001:000438b0       ??$extract_argument_from_va_list@G_J@?$positional_parameter_base@_WV?$string_output_adapter@_W@__crt_stdio_output@@@__crt_stdio_output@@IAE_NAA_J@Z 100448b0 f i libucrtd:output.obj
 0001:000439f0       ??$extract_argument_from_va_list@G_J@?$standard_base@DV?$stream_output_adapter@D@__crt_stdio_output@@@__crt_stdio_output@@IAE_NAA_J@Z 100449f0 f i libucrtd:output.obj
 0001:00043a20       ??$extract_argument_from_va_list@G_J@?$standard_base@DV?$string_output_adapter@D@__crt_stdio_output@@@__crt_stdio_output@@IAE_NAA_J@Z 10044a20 f i libucrtd:output.obj
 0001:00043a50       ??$extract_argument_from_va_list@G_J@?$standard_base@_WV?$stream_output_adapter@_W@__crt_stdio_output@@@__crt_stdio_output@@IAE_NAA_J@Z 10044a50 f i libucrtd:output.obj
 0001:00043a80       ??$extract_argument_from_va_list@G_J@?$standard_base@_WV?$string_output_adapter@_W@__crt_stdio_output@@@__crt_stdio_output@@IAE_NAA_J@Z 10044a80 f i libucrtd:output.obj
 0001:00043ab0       ??$extract_argument_from_va_list@H_J@?$positional_parameter_base@DV?$stream_output_adapter@D@__crt_stdio_output@@@__crt_stdio_output@@IAE_NAA_J@Z 10044ab0 f i libucrtd:output.obj
 0001:00043be0       ??$extract_argument_from_va_list@H_J@?$positional_parameter_base@DV?$string_output_adapter@D@__crt_stdio_output@@@__crt_stdio_output@@IAE_NAA_J@Z 10044be0 f i libucrtd:output.obj
 0001:00043d10       ??$extract_argument_from_va_list@H_J@?$positional_parameter_base@_WV?$stream_output_adapter@_W@__crt_stdio_output@@@__crt_stdio_output@@IAE_NAA_J@Z 10044d10 f i libucrtd:output.obj
 0001:00043e40       ??$extract_argument_from_va_list@H_J@?$positional_parameter_base@_WV?$string_output_adapter@_W@__crt_stdio_output@@@__crt_stdio_output@@IAE_NAA_J@Z 10044e40 f i libucrtd:output.obj
 0001:00043f70       ??$extract_argument_from_va_list@H_J@?$standard_base@DV?$stream_output_adapter@D@__crt_stdio_output@@@__crt_stdio_output@@IAE_NAA_J@Z 10044f70 f i libucrtd:output.obj
 0001:00043fa0       ??$extract_argument_from_va_list@H_J@?$standard_base@DV?$string_output_adapter@D@__crt_stdio_output@@@__crt_stdio_output@@IAE_NAA_J@Z 10044fa0 f i libucrtd:output.obj
 0001:00043fd0       ??$extract_argument_from_va_list@H_J@?$standard_base@_WV?$stream_output_adapter@_W@__crt_stdio_output@@@__crt_stdio_output@@IAE_NAA_J@Z 10044fd0 f i libucrtd:output.obj
 0001:00044000       ??$extract_argument_from_va_list@H_J@?$standard_base@_WV?$string_output_adapter@_W@__crt_stdio_output@@@__crt_stdio_output@@IAE_NAA_J@Z 10045000 f i libucrtd:output.obj
 0001:00044030       ??$extract_argument_from_va_list@I_J@?$positional_parameter_base@DV?$stream_output_adapter@D@__crt_stdio_output@@@__crt_stdio_output@@IAE_NAA_J@Z 10045030 f i libucrtd:output.obj
 0001:00044160       ??$extract_argument_from_va_list@I_J@?$positional_parameter_base@DV?$string_output_adapter@D@__crt_stdio_output@@@__crt_stdio_output@@IAE_NAA_J@Z 10045160 f i libucrtd:output.obj
 0001:00044290       ??$extract_argument_from_va_list@I_J@?$positional_parameter_base@_WV?$stream_output_adapter@_W@__crt_stdio_output@@@__crt_stdio_output@@IAE_NAA_J@Z 10045290 f i libucrtd:output.obj
 0001:000443c0       ??$extract_argument_from_va_list@I_J@?$positional_parameter_base@_WV?$string_output_adapter@_W@__crt_stdio_output@@@__crt_stdio_output@@IAE_NAA_J@Z 100453c0 f i libucrtd:output.obj
 0001:000444f0       ??$extract_argument_from_va_list@I_J@?$standard_base@DV?$stream_output_adapter@D@__crt_stdio_output@@@__crt_stdio_output@@IAE_NAA_J@Z 100454f0 f i libucrtd:output.obj
 0001:00044520       ??$extract_argument_from_va_list@I_J@?$standard_base@DV?$string_output_adapter@D@__crt_stdio_output@@@__crt_stdio_output@@IAE_NAA_J@Z 10045520 f i libucrtd:output.obj
 0001:00044550       ??$extract_argument_from_va_list@I_J@?$standard_base@_WV?$stream_output_adapter@_W@__crt_stdio_output@@@__crt_stdio_output@@IAE_NAA_J@Z 10045550 f i libucrtd:output.obj
 0001:00044580       ??$extract_argument_from_va_list@I_J@?$standard_base@_WV?$string_output_adapter@_W@__crt_stdio_output@@@__crt_stdio_output@@IAE_NAA_J@Z 10045580 f i libucrtd:output.obj
 0001:000445b0       ??$extract_argument_from_va_list@PADPAD@?$positional_parameter_base@DV?$stream_output_adapter@D@__crt_stdio_output@@@__crt_stdio_output@@IAE_NAAPAD@Z 100455b0 f i libucrtd:output.obj
 0001:000446e0       ??$extract_argument_from_va_list@PADPAD@?$positional_parameter_base@DV?$string_output_adapter@D@__crt_stdio_output@@@__crt_stdio_output@@IAE_NAAPAD@Z 100456e0 f i libucrtd:output.obj
 0001:00044810       ??$extract_argument_from_va_list@PADPAD@?$positional_parameter_base@_WV?$stream_output_adapter@_W@__crt_stdio_output@@@__crt_stdio_output@@IAE_NAAPAD@Z 10045810 f i libucrtd:output.obj
 0001:00044940       ??$extract_argument_from_va_list@PADPAD@?$positional_parameter_base@_WV?$string_output_adapter@_W@__crt_stdio_output@@@__crt_stdio_output@@IAE_NAAPAD@Z 10045940 f i libucrtd:output.obj
 0001:00044a70       ??$extract_argument_from_va_list@PADPAD@?$standard_base@DV?$stream_output_adapter@D@__crt_stdio_output@@@__crt_stdio_output@@IAE_NAAPAD@Z 10045a70 f i libucrtd:output.obj
 0001:00044aa0       ??$extract_argument_from_va_list@PADPAD@?$standard_base@DV?$string_output_adapter@D@__crt_stdio_output@@@__crt_stdio_output@@IAE_NAAPAD@Z 10045aa0 f i libucrtd:output.obj
 0001:00044ad0       ??$extract_argument_from_va_list@PADPAD@?$standard_base@_WV?$stream_output_adapter@_W@__crt_stdio_output@@@__crt_stdio_output@@IAE_NAAPAD@Z 10045ad0 f i libucrtd:output.obj
 0001:00044b00       ??$extract_argument_from_va_list@PADPAD@?$standard_base@_WV?$string_output_adapter@_W@__crt_stdio_output@@@__crt_stdio_output@@IAE_NAAPAD@Z 10045b00 f i libucrtd:output.obj
 0001:00044b30       ??$extract_argument_from_va_list@PAUansi_string@?1??type_case_Z@?$output_processor@DV?$stream_output_adapter@D@__crt_stdio_output@@V?$format_validation_base@DV?$stream_output_adapter@D@__crt_stdio_output@@@2@@__crt_stdio_output@@AAE_NXZ@PAU1?1??234@AAE_NXZ@@?$standard_base@DV?$stream_output_adapter@D@__crt_stdio_output@@@__crt_stdio_output@@IAE_NAAPAUansi_string@?1??type_case_Z@?$output_processor@DV?$stream_output_adapter@D@__crt_stdio_output@@V?$format_validation_base@DV?$stream_output_adapter@D@__crt_stdio_output@@@2@@1@AAE_NXZ@@Z 10045b30 f i libucrtd:output.obj
 0001:00044b60       ??$extract_argument_from_va_list@PAUansi_string@?1??type_case_Z@?$output_processor@DV?$stream_output_adapter@D@__crt_stdio_output@@V?$positional_parameter_base@DV?$stream_output_adapter@D@__crt_stdio_output@@@2@@__crt_stdio_output@@AAE_NXZ@PAU1?1??234@AAE_NXZ@@?$positional_parameter_base@DV?$stream_output_adapter@D@__crt_stdio_output@@@__crt_stdio_output@@IAE_NAAPAUansi_string@?1??type_case_Z@?$output_processor@DV?$stream_output_adapter@D@__crt_stdio_output@@V?$positional_parameter_base@DV?$stream_output_adapter@D@__crt_stdio_output@@@2@@1@AAE_NXZ@@Z 10045b60 f i libucrtd:output.obj
 0001:00044c90       ??$extract_argument_from_va_list@PAUansi_string@?1??type_case_Z@?$output_processor@DV?$stream_output_adapter@D@__crt_stdio_output@@V?$positional_parameter_base@DV?$stream_output_adapter@D@__crt_stdio_output@@@2@@__crt_stdio_output@@AAE_NXZ@PAU1?1??234@AAE_NXZ@@?$standard_base@DV?$stream_output_adapter@D@__crt_stdio_output@@@__crt_stdio_output@@IAE_NAAPAUansi_string@?1??type_case_Z@?$output_processor@DV?$stream_output_adapter@D@__crt_stdio_output@@V?$positional_parameter_base@DV?$stream_output_adapter@D@__crt_stdio_output@@@2@@1@AAE_NXZ@@Z 10045c90 f i libucrtd:output.obj
 0001:00044cc0       ??$extract_argument_from_va_list@PAUansi_string@?1??type_case_Z@?$output_processor@DV?$stream_output_adapter@D@__crt_stdio_output@@V?$standard_base@DV?$stream_output_adapter@D@__crt_stdio_output@@@2@@__crt_stdio_output@@AAE_NXZ@PAU1?1??234@AAE_NXZ@@?$standard_base@DV?$stream_output_adapter@D@__crt_stdio_output@@@__crt_stdio_output@@IAE_NAAPAUansi_string@?1??type_case_Z@?$output_processor@DV?$stream_output_adapter@D@__crt_stdio_output@@V?$standard_base@DV?$stream_output_adapter@D@__crt_stdio_output@@@2@@1@AAE_NXZ@@Z 10045cc0 f i libucrtd:output.obj
 0001:00044cf0       ??$extract_argument_from_va_list@PAUansi_string@?1??type_case_Z@?$output_processor@DV?$string_output_adapter@D@__crt_stdio_output@@V?$format_validation_base@DV?$string_output_adapter@D@__crt_stdio_output@@@2@@__crt_stdio_output@@AAE_NXZ@PAU1?1??234@AAE_NXZ@@?$standard_base@DV?$string_output_adapter@D@__crt_stdio_output@@@__crt_stdio_output@@IAE_NAAPAUansi_string@?1??type_case_Z@?$output_processor@DV?$string_output_adapter@D@__crt_stdio_output@@V?$format_validation_base@DV?$string_output_adapter@D@__crt_stdio_output@@@2@@1@AAE_NXZ@@Z 10045cf0 f i libucrtd:output.obj
 0001:00044d20       ??$extract_argument_from_va_list@PAUansi_string@?1??type_case_Z@?$output_processor@DV?$string_output_adapter@D@__crt_stdio_output@@V?$positional_parameter_base@DV?$string_output_adapter@D@__crt_stdio_output@@@2@@__crt_stdio_output@@AAE_NXZ@PAU1?1??234@AAE_NXZ@@?$positional_parameter_base@DV?$string_output_adapter@D@__crt_stdio_output@@@__crt_stdio_output@@IAE_NAAPAUansi_string@?1??type_case_Z@?$output_processor@DV?$string_output_adapter@D@__crt_stdio_output@@V?$positional_parameter_base@DV?$string_output_adapter@D@__crt_stdio_output@@@2@@1@AAE_NXZ@@Z 10045d20 f i libucrtd:output.obj
 0001:00044e50       ??$extract_argument_from_va_list@PAUansi_string@?1??type_case_Z@?$output_processor@DV?$string_output_adapter@D@__crt_stdio_output@@V?$positional_parameter_base@DV?$string_output_adapter@D@__crt_stdio_output@@@2@@__crt_stdio_output@@AAE_NXZ@PAU1?1??234@AAE_NXZ@@?$standard_base@DV?$string_output_adapter@D@__crt_stdio_output@@@__crt_stdio_output@@IAE_NAAPAUansi_string@?1??type_case_Z@?$output_processor@DV?$string_output_adapter@D@__crt_stdio_output@@V?$positional_parameter_base@DV?$string_output_adapter@D@__crt_stdio_output@@@2@@1@AAE_NXZ@@Z 10045e50 f i libucrtd:output.obj
 0001:00044e80       ??$extract_argument_from_va_list@PAUansi_string@?1??type_case_Z@?$output_processor@DV?$string_output_adapter@D@__crt_stdio_output@@V?$standard_base@DV?$string_output_adapter@D@__crt_stdio_output@@@2@@__crt_stdio_output@@AAE_NXZ@PAU1?1??234@AAE_NXZ@@?$standard_base@DV?$string_output_adapter@D@__crt_stdio_output@@@__crt_stdio_output@@IAE_NAAPAUansi_string@?1??type_case_Z@?$output_processor@DV?$string_output_adapter@D@__crt_stdio_output@@V?$standard_base@DV?$string_output_adapter@D@__crt_stdio_output@@@2@@1@AAE_NXZ@@Z 10045e80 f i libucrtd:output.obj
 0001:00044eb0       ??$extract_argument_from_va_list@PAUansi_string@?1??type_case_Z@?$output_processor@_WV?$stream_output_adapter@_W@__crt_stdio_output@@V?$format_validation_base@_WV?$stream_output_adapter@_W@__crt_stdio_output@@@2@@__crt_stdio_output@@AAE_NXZ@PAU1?1??234@AAE_NXZ@@?$standard_base@_WV?$stream_output_adapter@_W@__crt_stdio_output@@@__crt_stdio_output@@IAE_NAAPAUansi_string@?1??type_case_Z@?$output_processor@_WV?$stream_output_adapter@_W@__crt_stdio_output@@V?$format_validation_base@_WV?$stream_output_adapter@_W@__crt_stdio_output@@@2@@1@AAE_NXZ@@Z 10045eb0 f i libucrtd:output.obj
 0001:00044ee0       ??$extract_argument_from_va_list@PAUansi_string@?1??type_case_Z@?$output_processor@_WV?$stream_output_adapter@_W@__crt_stdio_output@@V?$positional_parameter_base@_WV?$stream_output_adapter@_W@__crt_stdio_output@@@2@@__crt_stdio_output@@AAE_NXZ@PAU1?1??234@AAE_NXZ@@?$positional_parameter_base@_WV?$stream_output_adapter@_W@__crt_stdio_output@@@__crt_stdio_output@@IAE_NAAPAUansi_string@?1??type_case_Z@?$output_processor@_WV?$stream_output_adapter@_W@__crt_stdio_output@@V?$positional_parameter_base@_WV?$stream_output_adapter@_W@__crt_stdio_output@@@2@@1@AAE_NXZ@@Z 10045ee0 f i libucrtd:output.obj
 0001:00045010       ??$extract_argument_from_va_list@PAUansi_string@?1??type_case_Z@?$output_processor@_WV?$stream_output_adapter@_W@__crt_stdio_output@@V?$positional_parameter_base@_WV?$stream_output_adapter@_W@__crt_stdio_output@@@2@@__crt_stdio_output@@AAE_NXZ@PAU1?1??234@AAE_NXZ@@?$standard_base@_WV?$stream_output_adapter@_W@__crt_stdio_output@@@__crt_stdio_output@@IAE_NAAPAUansi_string@?1??type_case_Z@?$output_processor@_WV?$stream_output_adapter@_W@__crt_stdio_output@@V?$positional_parameter_base@_WV?$stream_output_adapter@_W@__crt_stdio_output@@@2@@1@AAE_NXZ@@Z 10046010 f i libucrtd:output.obj
 0001:00045040       ??$extract_argument_from_va_list@PAUansi_string@?1??type_case_Z@?$output_processor@_WV?$stream_output_adapter@_W@__crt_stdio_output@@V?$standard_base@_WV?$stream_output_adapter@_W@__crt_stdio_output@@@2@@__crt_stdio_output@@AAE_NXZ@PAU1?1??234@AAE_NXZ@@?$standard_base@_WV?$stream_output_adapter@_W@__crt_stdio_output@@@__crt_stdio_output@@IAE_NAAPAUansi_string@?1??type_case_Z@?$output_processor@_WV?$stream_output_adapter@_W@__crt_stdio_output@@V?$standard_base@_WV?$stream_output_adapter@_W@__crt_stdio_output@@@2@@1@AAE_NXZ@@Z 10046040 f i libucrtd:output.obj
 0001:00045070       ??$extract_argument_from_va_list@PAUansi_string@?1??type_case_Z@?$output_processor@_WV?$string_output_adapter@_W@__crt_stdio_output@@V?$format_validation_base@_WV?$string_output_adapter@_W@__crt_stdio_output@@@2@@__crt_stdio_output@@AAE_NXZ@PAU1?1??234@AAE_NXZ@@?$standard_base@_WV?$string_output_adapter@_W@__crt_stdio_output@@@__crt_stdio_output@@IAE_NAAPAUansi_string@?1??type_case_Z@?$output_processor@_WV?$string_output_adapter@_W@__crt_stdio_output@@V?$format_validation_base@_WV?$string_output_adapter@_W@__crt_stdio_output@@@2@@1@AAE_NXZ@@Z 10046070 f i libucrtd:output.obj
 0001:000450a0       ??$extract_argument_from_va_list@PAUansi_string@?1??type_case_Z@?$output_processor@_WV?$string_output_adapter@_W@__crt_stdio_output@@V?$positional_parameter_base@_WV?$string_output_adapter@_W@__crt_stdio_output@@@2@@__crt_stdio_output@@AAE_NXZ@PAU1?1??234@AAE_NXZ@@?$positional_parameter_base@_WV?$string_output_adapter@_W@__crt_stdio_output@@@__crt_stdio_output@@IAE_NAAPAUansi_string@?1??type_case_Z@?$output_processor@_WV?$string_output_adapter@_W@__crt_stdio_output@@V?$positional_parameter_base@_WV?$string_output_adapter@_W@__crt_stdio_output@@@2@@1@AAE_NXZ@@Z 100460a0 f i libucrtd:output.obj
 0001:000451d0       ??$extract_argument_from_va_list@PAUansi_string@?1??type_case_Z@?$output_processor@_WV?$string_output_adapter@_W@__crt_stdio_output@@V?$positional_parameter_base@_WV?$string_output_adapter@_W@__crt_stdio_output@@@2@@__crt_stdio_output@@AAE_NXZ@PAU1?1??234@AAE_NXZ@@?$standard_base@_WV?$string_output_adapter@_W@__crt_stdio_output@@@__crt_stdio_output@@IAE_NAAPAUansi_string@?1??type_case_Z@?$output_processor@_WV?$string_output_adapter@_W@__crt_stdio_output@@V?$positional_parameter_base@_WV?$string_output_adapter@_W@__crt_stdio_output@@@2@@1@AAE_NXZ@@Z 100461d0 f i libucrtd:output.obj
 0001:00045200       ??$extract_argument_from_va_list@PAUansi_string@?1??type_case_Z@?$output_processor@_WV?$string_output_adapter@_W@__crt_stdio_output@@V?$standard_base@_WV?$string_output_adapter@_W@__crt_stdio_output@@@2@@__crt_stdio_output@@AAE_NXZ@PAU1?1??234@AAE_NXZ@@?$standard_base@_WV?$string_output_adapter@_W@__crt_stdio_output@@@__crt_stdio_output@@IAE_NAAPAUansi_string@?1??type_case_Z@?$output_processor@_WV?$string_output_adapter@_W@__crt_stdio_output@@V?$standard_base@_WV?$string_output_adapter@_W@__crt_stdio_output@@@2@@1@AAE_NXZ@@Z 10046200 f i libucrtd:output.obj
 0001:00045230       ??$extract_argument_from_va_list@PAXPAX@?$positional_parameter_base@DV?$stream_output_adapter@D@__crt_stdio_output@@@__crt_stdio_output@@IAE_NAAPAX@Z 10046230 f i libucrtd:output.obj
 0001:00045360       ??$extract_argument_from_va_list@PAXPAX@?$positional_parameter_base@DV?$string_output_adapter@D@__crt_stdio_output@@@__crt_stdio_output@@IAE_NAAPAX@Z 10046360 f i libucrtd:output.obj
 0001:00045490       ??$extract_argument_from_va_list@PAXPAX@?$positional_parameter_base@_WV?$stream_output_adapter@_W@__crt_stdio_output@@@__crt_stdio_output@@IAE_NAAPAX@Z 10046490 f i libucrtd:output.obj
 0001:000455c0       ??$extract_argument_from_va_list@PAXPAX@?$positional_parameter_base@_WV?$string_output_adapter@_W@__crt_stdio_output@@@__crt_stdio_output@@IAE_NAAPAX@Z 100465c0 f i libucrtd:output.obj
 0001:000456f0       ??$extract_argument_from_va_list@PAXPAX@?$standard_base@DV?$stream_output_adapter@D@__crt_stdio_output@@@__crt_stdio_output@@IAE_NAAPAX@Z 100466f0 f i libucrtd:output.obj
 0001:00045720       ??$extract_argument_from_va_list@PAXPAX@?$standard_base@DV?$string_output_adapter@D@__crt_stdio_output@@@__crt_stdio_output@@IAE_NAAPAX@Z 10046720 f i libucrtd:output.obj
 0001:00045750       ??$extract_argument_from_va_list@PAXPAX@?$standard_base@_WV?$stream_output_adapter@_W@__crt_stdio_output@@@__crt_stdio_output@@IAE_NAAPAX@Z 10046750 f i libucrtd:output.obj
 0001:00045780       ??$extract_argument_from_va_list@PAXPAX@?$standard_base@_WV?$string_output_adapter@_W@__crt_stdio_output@@@__crt_stdio_output@@IAE_NAAPAX@Z 10046780 f i libucrtd:output.obj
 0001:000457b0       ??$extract_argument_from_va_list@U_CRT_DOUBLE@@U1@@?$positional_parameter_base@DV?$stream_output_adapter@D@__crt_stdio_output@@@__crt_stdio_output@@IAE_NAAU_CRT_DOUBLE@@@Z 100467b0 f i libucrtd:output.obj
 0001:00045910       ??$extract_argument_from_va_list@U_CRT_DOUBLE@@U1@@?$positional_parameter_base@DV?$string_output_adapter@D@__crt_stdio_output@@@__crt_stdio_output@@IAE_NAAU_CRT_DOUBLE@@@Z 10046910 f i libucrtd:output.obj
 0001:00045a70       ??$extract_argument_from_va_list@U_CRT_DOUBLE@@U1@@?$positional_parameter_base@_WV?$stream_output_adapter@_W@__crt_stdio_output@@@__crt_stdio_output@@IAE_NAAU_CRT_DOUBLE@@@Z 10046a70 f i libucrtd:output.obj
 0001:00045bd0       ??$extract_argument_from_va_list@U_CRT_DOUBLE@@U1@@?$positional_parameter_base@_WV?$string_output_adapter@_W@__crt_stdio_output@@@__crt_stdio_output@@IAE_NAAU_CRT_DOUBLE@@@Z 10046bd0 f i libucrtd:output.obj
 0001:00045d30       ??$extract_argument_from_va_list@U_CRT_DOUBLE@@U1@@?$standard_base@DV?$stream_output_adapter@D@__crt_stdio_output@@@__crt_stdio_output@@IAE_NAAU_CRT_DOUBLE@@@Z 10046d30 f i libucrtd:output.obj
 0001:00045d80       ??$extract_argument_from_va_list@U_CRT_DOUBLE@@U1@@?$standard_base@DV?$string_output_adapter@D@__crt_stdio_output@@@__crt_stdio_output@@IAE_NAAU_CRT_DOUBLE@@@Z 10046d80 f i libucrtd:output.obj
 0001:00045dd0       ??$extract_argument_from_va_list@U_CRT_DOUBLE@@U1@@?$standard_base@_WV?$stream_output_adapter@_W@__crt_stdio_output@@@__crt_stdio_output@@IAE_NAAU_CRT_DOUBLE@@@Z 10046dd0 f i libucrtd:output.obj
 0001:00045e20       ??$extract_argument_from_va_list@U_CRT_DOUBLE@@U1@@?$standard_base@_WV?$string_output_adapter@_W@__crt_stdio_output@@@__crt_stdio_output@@IAE_NAAU_CRT_DOUBLE@@@Z 10046e20 f i libucrtd:output.obj
 0001:00045e70       ??$extract_argument_from_va_list@_J_J@?$positional_parameter_base@DV?$stream_output_adapter@D@__crt_stdio_output@@@__crt_stdio_output@@IAE_NAA_J@Z 10046e70 f i libucrtd:output.obj
 0001:00045fa0       ??$extract_argument_from_va_list@_J_J@?$positional_parameter_base@DV?$string_output_adapter@D@__crt_stdio_output@@@__crt_stdio_output@@IAE_NAA_J@Z 10046fa0 f i libucrtd:output.obj
 0001:000460d0       ??$extract_argument_from_va_list@_J_J@?$positional_parameter_base@_WV?$stream_output_adapter@_W@__crt_stdio_output@@@__crt_stdio_output@@IAE_NAA_J@Z 100470d0 f i libucrtd:output.obj
 0001:00046200       ??$extract_argument_from_va_list@_J_J@?$positional_parameter_base@_WV?$string_output_adapter@_W@__crt_stdio_output@@@__crt_stdio_output@@IAE_NAA_J@Z 10047200 f i libucrtd:output.obj
 0001:00046330       ??$extract_argument_from_va_list@_J_J@?$standard_base@DV?$stream_output_adapter@D@__crt_stdio_output@@@__crt_stdio_output@@IAE_NAA_J@Z 10047330 f i libucrtd:output.obj
 0001:00046360       ??$extract_argument_from_va_list@_J_J@?$standard_base@DV?$string_output_adapter@D@__crt_stdio_output@@@__crt_stdio_output@@IAE_NAA_J@Z 10047360 f i libucrtd:output.obj
 0001:00046390       ??$extract_argument_from_va_list@_J_J@?$standard_base@_WV?$stream_output_adapter@_W@__crt_stdio_output@@@__crt_stdio_output@@IAE_NAA_J@Z 10047390 f i libucrtd:output.obj
 0001:000463c0       ??$extract_argument_from_va_list@_J_J@?$standard_base@_WV?$string_output_adapter@_W@__crt_stdio_output@@@__crt_stdio_output@@IAE_NAA_J@Z 100473c0 f i libucrtd:output.obj
 0001:000463f0       ??$extract_argument_from_va_list@_K_J@?$positional_parameter_base@DV?$stream_output_adapter@D@__crt_stdio_output@@@__crt_stdio_output@@IAE_NAA_J@Z 100473f0 f i libucrtd:output.obj
 0001:00046520       ??$extract_argument_from_va_list@_K_J@?$positional_parameter_base@DV?$string_output_adapter@D@__crt_stdio_output@@@__crt_stdio_output@@IAE_NAA_J@Z 10047520 f i libucrtd:output.obj
 0001:00046650       ??$extract_argument_from_va_list@_K_J@?$positional_parameter_base@_WV?$stream_output_adapter@_W@__crt_stdio_output@@@__crt_stdio_output@@IAE_NAA_J@Z 10047650 f i libucrtd:output.obj
 0001:00046780       ??$extract_argument_from_va_list@_K_J@?$positional_parameter_base@_WV?$string_output_adapter@_W@__crt_stdio_output@@@__crt_stdio_output@@IAE_NAA_J@Z 10047780 f i libucrtd:output.obj
 0001:000468b0       ??$extract_argument_from_va_list@_K_J@?$standard_base@DV?$stream_output_adapter@D@__crt_stdio_output@@@__crt_stdio_output@@IAE_NAA_J@Z 100478b0 f i libucrtd:output.obj
 0001:000468e0       ??$extract_argument_from_va_list@_K_J@?$standard_base@DV?$string_output_adapter@D@__crt_stdio_output@@@__crt_stdio_output@@IAE_NAA_J@Z 100478e0 f i libucrtd:output.obj
 0001:00046910       ??$extract_argument_from_va_list@_K_J@?$standard_base@_WV?$stream_output_adapter@_W@__crt_stdio_output@@@__crt_stdio_output@@IAE_NAA_J@Z 10047910 f i libucrtd:output.obj
 0001:00046940       ??$extract_argument_from_va_list@_K_J@?$standard_base@_WV?$string_output_adapter@_W@__crt_stdio_output@@@__crt_stdio_output@@IAE_NAA_J@Z 10047940 f i libucrtd:output.obj
 0001:00046970       ??$extract_argument_from_va_list@_W_W@?$positional_parameter_base@DV?$stream_output_adapter@D@__crt_stdio_output@@@__crt_stdio_output@@IAE_NAA_W@Z 10047970 f i libucrtd:output.obj
 0001:00046aa0       ??$extract_argument_from_va_list@_W_W@?$positional_parameter_base@DV?$string_output_adapter@D@__crt_stdio_output@@@__crt_stdio_output@@IAE_NAA_W@Z 10047aa0 f i libucrtd:output.obj
 0001:00046bd0       ??$extract_argument_from_va_list@_W_W@?$positional_parameter_base@_WV?$stream_output_adapter@_W@__crt_stdio_output@@@__crt_stdio_output@@IAE_NAA_W@Z 10047bd0 f i libucrtd:output.obj
 0001:00046d00       ??$extract_argument_from_va_list@_W_W@?$positional_parameter_base@_WV?$string_output_adapter@_W@__crt_stdio_output@@@__crt_stdio_output@@IAE_NAA_W@Z 10047d00 f i libucrtd:output.obj
 0001:00046e30       ??$extract_argument_from_va_list@_W_W@?$standard_base@DV?$stream_output_adapter@D@__crt_stdio_output@@@__crt_stdio_output@@IAE_NAA_W@Z 10047e30 f i libucrtd:output.obj
 0001:00046e60       ??$extract_argument_from_va_list@_W_W@?$standard_base@DV?$string_output_adapter@D@__crt_stdio_output@@@__crt_stdio_output@@IAE_NAA_W@Z 10047e60 f i libucrtd:output.obj
 0001:00046e90       ??$extract_argument_from_va_list@_W_W@?$standard_base@_WV?$stream_output_adapter@_W@__crt_stdio_output@@@__crt_stdio_output@@IAE_NAA_W@Z 10047e90 f i libucrtd:output.obj
 0001:00046ec0       ??$extract_argument_from_va_list@_W_W@?$standard_base@_WV?$string_output_adapter@_W@__crt_stdio_output@@@__crt_stdio_output@@IAE_NAA_W@Z 10047ec0 f i libucrtd:output.obj
 0001:00046ef0       ??$get_parameter_type@D@?$positional_parameter_base@DV?$stream_output_adapter@D@__crt_stdio_output@@@__crt_stdio_output@@CA?AW4parameter_type@01@PAD@Z 10047ef0 f i libucrtd:output.obj
 0001:00046f00       ??$get_parameter_type@D@?$positional_parameter_base@DV?$string_output_adapter@D@__crt_stdio_output@@@__crt_stdio_output@@CA?AW4parameter_type@01@PAD@Z 10047f00 f i libucrtd:output.obj
 0001:00046f10       ??$get_parameter_type@D@?$positional_parameter_base@_WV?$stream_output_adapter@_W@__crt_stdio_output@@@__crt_stdio_output@@CA?AW4parameter_type@01@PAD@Z 10047f10 f i libucrtd:output.obj
 0001:00046f20       ??$get_parameter_type@D@?$positional_parameter_base@_WV?$string_output_adapter@_W@__crt_stdio_output@@@__crt_stdio_output@@CA?AW4parameter_type@01@PAD@Z 10047f20 f i libucrtd:output.obj
 0001:00046f30       ??$get_parameter_type@Uansi_string@?1??type_case_Z@?$output_processor@DV?$stream_output_adapter@D@__crt_stdio_output@@V?$positional_parameter_base@DV?$stream_output_adapter@D@__crt_stdio_output@@@2@@__crt_stdio_output@@AAE_NXZ@@?$positional_parameter_base@DV?$stream_output_adapter@D@__crt_stdio_output@@@__crt_stdio_output@@CA?AW4parameter_type@01@PAUansi_string@?1??type_case_Z@?$output_processor@DV?$stream_output_adapter@D@__crt_stdio_output@@V?$positional_parameter_base@DV?$stream_output_adapter@D@__crt_stdio_output@@@2@@1@AAE_NXZ@@Z 10047f30 f i libucrtd:output.obj
 0001:00046f40       ??$get_parameter_type@Uansi_string@?1??type_case_Z@?$output_processor@DV?$string_output_adapter@D@__crt_stdio_output@@V?$positional_parameter_base@DV?$string_output_adapter@D@__crt_stdio_output@@@2@@__crt_stdio_output@@AAE_NXZ@@?$positional_parameter_base@DV?$string_output_adapter@D@__crt_stdio_output@@@__crt_stdio_output@@CA?AW4parameter_type@01@PAUansi_string@?1??type_case_Z@?$output_processor@DV?$string_output_adapter@D@__crt_stdio_output@@V?$positional_parameter_base@DV?$string_output_adapter@D@__crt_stdio_output@@@2@@1@AAE_NXZ@@Z 10047f40 f i libucrtd:output.obj
 0001:00046f50       ??$get_parameter_type@Uansi_string@?1??type_case_Z@?$output_processor@_WV?$stream_output_adapter@_W@__crt_stdio_output@@V?$positional_parameter_base@_WV?$stream_output_adapter@_W@__crt_stdio_output@@@2@@__crt_stdio_output@@AAE_NXZ@@?$positional_parameter_base@_WV?$stream_output_adapter@_W@__crt_stdio_output@@@__crt_stdio_output@@CA?AW4parameter_type@01@PAUansi_string@?1??type_case_Z@?$output_processor@_WV?$stream_output_adapter@_W@__crt_stdio_output@@V?$positional_parameter_base@_WV?$stream_output_adapter@_W@__crt_stdio_output@@@2@@1@AAE_NXZ@@Z 10047f50 f i libucrtd:output.obj
 0001:00046f60       ??$get_parameter_type@Uansi_string@?1??type_case_Z@?$output_processor@_WV?$string_output_adapter@_W@__crt_stdio_output@@V?$positional_parameter_base@_WV?$string_output_adapter@_W@__crt_stdio_output@@@2@@__crt_stdio_output@@AAE_NXZ@@?$positional_parameter_base@_WV?$string_output_adapter@_W@__crt_stdio_output@@@__crt_stdio_output@@CA?AW4parameter_type@01@PAUansi_string@?1??type_case_Z@?$output_processor@_WV?$string_output_adapter@_W@__crt_stdio_output@@V?$positional_parameter_base@_WV?$string_output_adapter@_W@__crt_stdio_output@@@2@@1@AAE_NXZ@@Z 10047f60 f i libucrtd:output.obj
 0001:00046f70       ??$get_parameter_type@X@?$positional_parameter_base@DV?$stream_output_adapter@D@__crt_stdio_output@@@__crt_stdio_output@@CA?AW4parameter_type@01@PAX@Z 10047f70 f i libucrtd:output.obj
 0001:00046f80       ??$get_parameter_type@X@?$positional_parameter_base@DV?$string_output_adapter@D@__crt_stdio_output@@@__crt_stdio_output@@CA?AW4parameter_type@01@PAX@Z 10047f80 f i libucrtd:output.obj
 0001:00046f90       ??$get_parameter_type@X@?$positional_parameter_base@_WV?$stream_output_adapter@_W@__crt_stdio_output@@@__crt_stdio_output@@CA?AW4parameter_type@01@PAX@Z 10047f90 f i libucrtd:output.obj
 0001:00046fa0       ??$get_parameter_type@X@?$positional_parameter_base@_WV?$string_output_adapter@_W@__crt_stdio_output@@@__crt_stdio_output@@CA?AW4parameter_type@01@PAX@Z 10047fa0 f i libucrtd:output.obj
 0001:00046fb0       ??$is_character_specifier@D@?$positional_parameter_base@DV?$stream_output_adapter@D@__crt_stdio_output@@@__crt_stdio_output@@CA_ND@Z 10047fb0 f i libucrtd:output.obj
 0001:00046fe0       ??$is_character_specifier@D@?$positional_parameter_base@DV?$string_output_adapter@D@__crt_stdio_output@@@__crt_stdio_output@@CA_ND@Z 10047fe0 f i libucrtd:output.obj
 0001:00047010       ??$is_character_specifier@_W@?$positional_parameter_base@_WV?$stream_output_adapter@_W@__crt_stdio_output@@@__crt_stdio_output@@CA_N_W@Z 10048010 f i libucrtd:output.obj
 0001:00047040       ??$is_character_specifier@_W@?$positional_parameter_base@_WV?$string_output_adapter@_W@__crt_stdio_output@@@__crt_stdio_output@@CA_N_W@Z 10048040 f i libucrtd:output.obj
 0001:00047070       ??$is_integral_specifier@D@?$positional_parameter_base@DV?$stream_output_adapter@D@__crt_stdio_output@@@__crt_stdio_output@@CA_ND@Z 10048070 f i libucrtd:output.obj
 0001:000470d0       ??$is_integral_specifier@D@?$positional_parameter_base@DV?$string_output_adapter@D@__crt_stdio_output@@@__crt_stdio_output@@CA_ND@Z 100480d0 f i libucrtd:output.obj
 0001:00047130       ??$is_integral_specifier@_W@?$positional_parameter_base@_WV?$stream_output_adapter@_W@__crt_stdio_output@@@__crt_stdio_output@@CA_N_W@Z 10048130 f i libucrtd:output.obj
 0001:00047190       ??$is_integral_specifier@_W@?$positional_parameter_base@_WV?$string_output_adapter@_W@__crt_stdio_output@@@__crt_stdio_output@@CA_N_W@Z 10048190 f i libucrtd:output.obj
 0001:000471f0       ??$is_pointer_specifier@D@?$positional_parameter_base@DV?$stream_output_adapter@D@__crt_stdio_output@@@__crt_stdio_output@@CA_ND@Z 100481f0 f i libucrtd:output.obj
 0001:00047220       ??$is_pointer_specifier@D@?$positional_parameter_base@DV?$string_output_adapter@D@__crt_stdio_output@@@__crt_stdio_output@@CA_ND@Z 10048220 f i libucrtd:output.obj
 0001:00047250       ??$is_pointer_specifier@_W@?$positional_parameter_base@_WV?$stream_output_adapter@_W@__crt_stdio_output@@@__crt_stdio_output@@CA_N_W@Z 10048250 f i libucrtd:output.obj
 0001:00047280       ??$is_pointer_specifier@_W@?$positional_parameter_base@_WV?$string_output_adapter@_W@__crt_stdio_output@@@__crt_stdio_output@@CA_N_W@Z 10048280 f i libucrtd:output.obj
 0001:000472b0       ??$is_string_specifier@D@?$positional_parameter_base@DV?$stream_output_adapter@D@__crt_stdio_output@@@__crt_stdio_output@@CA_ND@Z 100482b0 f i libucrtd:output.obj
 0001:000472e0       ??$is_string_specifier@D@?$positional_parameter_base@DV?$string_output_adapter@D@__crt_stdio_output@@@__crt_stdio_output@@CA_ND@Z 100482e0 f i libucrtd:output.obj
 0001:00047310       ??$is_string_specifier@_W@?$positional_parameter_base@_WV?$stream_output_adapter@_W@__crt_stdio_output@@@__crt_stdio_output@@CA_N_W@Z 10048310 f i libucrtd:output.obj
 0001:00047340       ??$is_string_specifier@_W@?$positional_parameter_base@_WV?$string_output_adapter@_W@__crt_stdio_output@@@__crt_stdio_output@@CA_N_W@Z 10048340 f i libucrtd:output.obj
 0001:00047370       ??$is_wide_character_specifier@D@__crt_stdio_output@@YA_N_KDW4length_modifier@0@@Z 10048370 f i libucrtd:output.obj
 0001:000473f0       ??$is_wide_character_specifier@_W@__crt_stdio_output@@YA_N_K_WW4length_modifier@0@@Z 100483f0 f i libucrtd:output.obj
 0001:000474b0       ??$peek_va_arg@C@__crt_stdio_output@@YACPAD@Z 100484b0 f i libucrtd:output.obj
 0001:000474d0       ??$peek_va_arg@E@__crt_stdio_output@@YAEPAD@Z 100484d0 f i libucrtd:output.obj
 0001:000474f0       ??$peek_va_arg@F@__crt_stdio_output@@YAFPAD@Z 100484f0 f i libucrtd:output.obj
 0001:00047510       ??$peek_va_arg@G@__crt_stdio_output@@YAGPAD@Z 10048510 f i libucrtd:output.obj
 0001:00047530       ??$peek_va_arg@H@__crt_stdio_output@@YAHPAD@Z 10048530 f i libucrtd:output.obj
 0001:00047550       ??$peek_va_arg@I@__crt_stdio_output@@YAIPAD@Z 10048550 f i libucrtd:output.obj
 0001:00047570       ??$peek_va_arg@PAD@__crt_stdio_output@@YAPADPAD@Z 10048570 f i libucrtd:output.obj
 0001:00047590       ??$peek_va_arg@PAUansi_string@?1??type_case_Z@?$output_processor@DV?$stream_output_adapter@D@__crt_stdio_output@@V?$positional_parameter_base@DV?$stream_output_adapter@D@__crt_stdio_output@@@2@@__crt_stdio_output@@AAE_NXZ@@__crt_stdio_output@@YAPAUansi_string@?1??type_case_Z@?$output_processor@DV?$stream_output_adapter@D@__crt_stdio_output@@V?$positional_parameter_base@DV?$stream_output_adapter@D@__crt_stdio_output@@@2@@0@AAE_NXZ@PAD@Z 10048590 f i libucrtd:output.obj
 0001:000475b0       ??$peek_va_arg@PAUansi_string@?1??type_case_Z@?$output_processor@DV?$string_output_adapter@D@__crt_stdio_output@@V?$positional_parameter_base@DV?$string_output_adapter@D@__crt_stdio_output@@@2@@__crt_stdio_output@@AAE_NXZ@@__crt_stdio_output@@YAPAUansi_string@?1??type_case_Z@?$output_processor@DV?$string_output_adapter@D@__crt_stdio_output@@V?$positional_parameter_base@DV?$string_output_adapter@D@__crt_stdio_output@@@2@@0@AAE_NXZ@PAD@Z 100485b0 f i libucrtd:output.obj
 0001:000475d0       ??$peek_va_arg@PAUansi_string@?1??type_case_Z@?$output_processor@_WV?$stream_output_adapter@_W@__crt_stdio_output@@V?$positional_parameter_base@_WV?$stream_output_adapter@_W@__crt_stdio_output@@@2@@__crt_stdio_output@@AAE_NXZ@@__crt_stdio_output@@YAPAUansi_string@?1??type_case_Z@?$output_processor@_WV?$stream_output_adapter@_W@__crt_stdio_output@@V?$positional_parameter_base@_WV?$stream_output_adapter@_W@__crt_stdio_output@@@2@@0@AAE_NXZ@PAD@Z 100485d0 f i libucrtd:output.obj
 0001:000475f0       ??$peek_va_arg@PAUansi_string@?1??type_case_Z@?$output_processor@_WV?$string_output_adapter@_W@__crt_stdio_output@@V?$positional_parameter_base@_WV?$string_output_adapter@_W@__crt_stdio_output@@@2@@__crt_stdio_output@@AAE_NXZ@@__crt_stdio_output@@YAPAUansi_string@?1??type_case_Z@?$output_processor@_WV?$string_output_adapter@_W@__crt_stdio_output@@V?$positional_parameter_base@_WV?$string_output_adapter@_W@__crt_stdio_output@@@2@@0@AAE_NXZ@PAD@Z 100485f0 f i libucrtd:output.obj
 0001:00047610       ??$peek_va_arg@PAX@__crt_stdio_output@@YAPAXPAD@Z 10048610 f i libucrtd:output.obj
 0001:00047630       ??$peek_va_arg@U_CRT_DOUBLE@@@__crt_stdio_output@@YA?AU_CRT_DOUBLE@@PAD@Z 10048630 f i libucrtd:output.obj
 0001:00047650       ??$peek_va_arg@_J@__crt_stdio_output@@YA_JPAD@Z 10048650 f i libucrtd:output.obj
 0001:00047670       ??$peek_va_arg@_K@__crt_stdio_output@@YA_KPAD@Z 10048670 f i libucrtd:output.obj
 0001:00047690       ??$peek_va_arg@_W@__crt_stdio_output@@YA_WPAD@Z 10048690 f i libucrtd:output.obj
 0001:000476b0       ??$puttc_nolock@ABDPAU_iobuf@@@?$__crt_char_traits@D@@SAHABD$$QAPAU_iobuf@@@Z 100486b0 f i libucrtd:output.obj
 0001:000476d0       ??$puttc_nolock@AB_WPAU_iobuf@@@?$__crt_char_traits@_W@@SAGAB_W$$QAPAU_iobuf@@@Z 100486d0 f i libucrtd:output.obj
 0001:000476f0       ??$read_va_arg@C@__crt_stdio_output@@YACAAPAD@Z 100486f0 f i libucrtd:output.obj
 0001:00047710       ??$read_va_arg@E@__crt_stdio_output@@YAEAAPAD@Z 10048710 f i libucrtd:output.obj
 0001:00047730       ??$read_va_arg@F@__crt_stdio_output@@YAFAAPAD@Z 10048730 f i libucrtd:output.obj
 0001:00047750       ??$read_va_arg@G@__crt_stdio_output@@YAGAAPAD@Z 10048750 f i libucrtd:output.obj
 0001:00047770       ??$read_va_arg@H@__crt_stdio_output@@YAHAAPAD@Z 10048770 f i libucrtd:output.obj
 0001:00047790       ??$read_va_arg@I@__crt_stdio_output@@YAIAAPAD@Z 10048790 f i libucrtd:output.obj
 0001:000477b0       ??$read_va_arg@PAD@__crt_stdio_output@@YAPADAAPAD@Z 100487b0 f i libucrtd:output.obj
 0001:000477d0       ??$read_va_arg@PAUansi_string@?1??type_case_Z@?$output_processor@DV?$stream_output_adapter@D@__crt_stdio_output@@V?$format_validation_base@DV?$stream_output_adapter@D@__crt_stdio_output@@@2@@__crt_stdio_output@@AAE_NXZ@@__crt_stdio_output@@YAPAUansi_string@?1??type_case_Z@?$output_processor@DV?$stream_output_adapter@D@__crt_stdio_output@@V?$format_validation_base@DV?$stream_output_adapter@D@__crt_stdio_output@@@2@@0@AAE_NXZ@AAPAD@Z 100487d0 f i libucrtd:output.obj
 0001:000477f0       ??$read_va_arg@PAUansi_string@?1??type_case_Z@?$output_processor@DV?$stream_output_adapter@D@__crt_stdio_output@@V?$positional_parameter_base@DV?$stream_output_adapter@D@__crt_stdio_output@@@2@@__crt_stdio_output@@AAE_NXZ@@__crt_stdio_output@@YAPAUansi_string@?1??type_case_Z@?$output_processor@DV?$stream_output_adapter@D@__crt_stdio_output@@V?$positional_parameter_base@DV?$stream_output_adapter@D@__crt_stdio_output@@@2@@0@AAE_NXZ@AAPAD@Z 100487f0 f i libucrtd:output.obj
 0001:00047810       ??$read_va_arg@PAUansi_string@?1??type_case_Z@?$output_processor@DV?$stream_output_adapter@D@__crt_stdio_output@@V?$standard_base@DV?$stream_output_adapter@D@__crt_stdio_output@@@2@@__crt_stdio_output@@AAE_NXZ@@__crt_stdio_output@@YAPAUansi_string@?1??type_case_Z@?$output_processor@DV?$stream_output_adapter@D@__crt_stdio_output@@V?$standard_base@DV?$stream_output_adapter@D@__crt_stdio_output@@@2@@0@AAE_NXZ@AAPAD@Z 10048810 f i libucrtd:output.obj
 0001:00047830       ??$read_va_arg@PAUansi_string@?1??type_case_Z@?$output_processor@DV?$string_output_adapter@D@__crt_stdio_output@@V?$format_validation_base@DV?$string_output_adapter@D@__crt_stdio_output@@@2@@__crt_stdio_output@@AAE_NXZ@@__crt_stdio_output@@YAPAUansi_string@?1??type_case_Z@?$output_processor@DV?$string_output_adapter@D@__crt_stdio_output@@V?$format_validation_base@DV?$string_output_adapter@D@__crt_stdio_output@@@2@@0@AAE_NXZ@AAPAD@Z 10048830 f i libucrtd:output.obj
 0001:00047850       ??$read_va_arg@PAUansi_string@?1??type_case_Z@?$output_processor@DV?$string_output_adapter@D@__crt_stdio_output@@V?$positional_parameter_base@DV?$string_output_adapter@D@__crt_stdio_output@@@2@@__crt_stdio_output@@AAE_NXZ@@__crt_stdio_output@@YAPAUansi_string@?1??type_case_Z@?$output_processor@DV?$string_output_adapter@D@__crt_stdio_output@@V?$positional_parameter_base@DV?$string_output_adapter@D@__crt_stdio_output@@@2@@0@AAE_NXZ@AAPAD@Z 10048850 f i libucrtd:output.obj
 0001:00047870       ??$read_va_arg@PAUansi_string@?1??type_case_Z@?$output_processor@DV?$string_output_adapter@D@__crt_stdio_output@@V?$standard_base@DV?$string_output_adapter@D@__crt_stdio_output@@@2@@__crt_stdio_output@@AAE_NXZ@@__crt_stdio_output@@YAPAUansi_string@?1??type_case_Z@?$output_processor@DV?$string_output_adapter@D@__crt_stdio_output@@V?$standard_base@DV?$string_output_adapter@D@__crt_stdio_output@@@2@@0@AAE_NXZ@AAPAD@Z 10048870 f i libucrtd:output.obj
 0001:00047890       ??$read_va_arg@PAUansi_string@?1??type_case_Z@?$output_processor@_WV?$stream_output_adapter@_W@__crt_stdio_output@@V?$format_validation_base@_WV?$stream_output_adapter@_W@__crt_stdio_output@@@2@@__crt_stdio_output@@AAE_NXZ@@__crt_stdio_output@@YAPAUansi_string@?1??type_case_Z@?$output_processor@_WV?$stream_output_adapter@_W@__crt_stdio_output@@V?$format_validation_base@_WV?$stream_output_adapter@_W@__crt_stdio_output@@@2@@0@AAE_NXZ@AAPAD@Z 10048890 f i libucrtd:output.obj
 0001:000478b0       ??$read_va_arg@PAUansi_string@?1??type_case_Z@?$output_processor@_WV?$stream_output_adapter@_W@__crt_stdio_output@@V?$positional_parameter_base@_WV?$stream_output_adapter@_W@__crt_stdio_output@@@2@@__crt_stdio_output@@AAE_NXZ@@__crt_stdio_output@@YAPAUansi_string@?1??type_case_Z@?$output_processor@_WV?$stream_output_adapter@_W@__crt_stdio_output@@V?$positional_parameter_base@_WV?$stream_output_adapter@_W@__crt_stdio_output@@@2@@0@AAE_NXZ@AAPAD@Z 100488b0 f i libucrtd:output.obj
 0001:000478d0       ??$read_va_arg@PAUansi_string@?1??type_case_Z@?$output_processor@_WV?$stream_output_adapter@_W@__crt_stdio_output@@V?$standard_base@_WV?$stream_output_adapter@_W@__crt_stdio_output@@@2@@__crt_stdio_output@@AAE_NXZ@@__crt_stdio_output@@YAPAUansi_string@?1??type_case_Z@?$output_processor@_WV?$stream_output_adapter@_W@__crt_stdio_output@@V?$standard_base@_WV?$stream_output_adapter@_W@__crt_stdio_output@@@2@@0@AAE_NXZ@AAPAD@Z 100488d0 f i libucrtd:output.obj
 0001:000478f0       ??$read_va_arg@PAUansi_string@?1??type_case_Z@?$output_processor@_WV?$string_output_adapter@_W@__crt_stdio_output@@V?$format_validation_base@_WV?$string_output_adapter@_W@__crt_stdio_output@@@2@@__crt_stdio_output@@AAE_NXZ@@__crt_stdio_output@@YAPAUansi_string@?1??type_case_Z@?$output_processor@_WV?$string_output_adapter@_W@__crt_stdio_output@@V?$format_validation_base@_WV?$string_output_adapter@_W@__crt_stdio_output@@@2@@0@AAE_NXZ@AAPAD@Z 100488f0 f i libucrtd:output.obj
 0001:00047910       ??$read_va_arg@PAUansi_string@?1??type_case_Z@?$output_processor@_WV?$string_output_adapter@_W@__crt_stdio_output@@V?$positional_parameter_base@_WV?$string_output_adapter@_W@__crt_stdio_output@@@2@@__crt_stdio_output@@AAE_NXZ@@__crt_stdio_output@@YAPAUansi_string@?1??type_case_Z@?$output_processor@_WV?$string_output_adapter@_W@__crt_stdio_output@@V?$positional_parameter_base@_WV?$string_output_adapter@_W@__crt_stdio_output@@@2@@0@AAE_NXZ@AAPAD@Z 10048910 f i libucrtd:output.obj
 0001:00047930       ??$read_va_arg@PAUansi_string@?1??type_case_Z@?$output_processor@_WV?$string_output_adapter@_W@__crt_stdio_output@@V?$standard_base@_WV?$string_output_adapter@_W@__crt_stdio_output@@@2@@__crt_stdio_output@@AAE_NXZ@@__crt_stdio_output@@YAPAUansi_string@?1??type_case_Z@?$output_processor@_WV?$string_output_adapter@_W@__crt_stdio_output@@V?$standard_base@_WV?$string_output_adapter@_W@__crt_stdio_output@@@2@@0@AAE_NXZ@AAPAD@Z 10048930 f i libucrtd:output.obj
 0001:00047950       ??$read_va_arg@PAX@__crt_stdio_output@@YAPAXAAPAD@Z 10048950 f i libucrtd:output.obj
 0001:00047970       ??$read_va_arg@U_CRT_DOUBLE@@@__crt_stdio_output@@YA?AU_CRT_DOUBLE@@AAPAD@Z 10048970 f i libucrtd:output.obj
 0001:00047990       ??$read_va_arg@_J@__crt_stdio_output@@YA_JAAPAD@Z 10048990 f i libucrtd:output.obj
 0001:000479b0       ??$read_va_arg@_K@__crt_stdio_output@@YA_KAAPAD@Z 100489b0 f i libucrtd:output.obj
 0001:000479d0       ??$read_va_arg@_W@__crt_stdio_output@@YA_WAAPAD@Z 100489d0 f i libucrtd:output.obj
 0001:000479f0       ??$scratch_count@D@formatting_buffer@__crt_stdio_output@@QBEIXZ 100489f0 f i libucrtd:output.obj
 0001:00047a10       ??$scratch_data@D@formatting_buffer@__crt_stdio_output@@QAEPADXZ 10048a10 f i libucrtd:output.obj
 0001:00047a60       ??$tcstol@AAPBDPAPADH@?$__crt_char_traits@D@@SAJAAPBD$$QAPAPAD$$QAH@Z 10048a60 f i libucrtd:output.obj
 0001:00047a90       ??$tcstol@AAPB_WPAPA_WH@?$__crt_char_traits@_W@@SAJAAPB_W$$QAPAPA_W$$QAH@Z 10048a90 f i libucrtd:output.obj
 0001:00047ac0       ??$tcstol@PBDPAPADH@?$__crt_char_traits@D@@SAJ$$QAPBD$$QAPAPAD$$QAH@Z 10048ac0 f i libucrtd:output.obj
 0001:00047af0       ??$tcstol@PB_WPAPA_WH@?$__crt_char_traits@_W@@SAJ$$QAPB_W$$QAPAPA_W$$QAH@Z 10048af0 f i libucrtd:output.obj
 0001:00047b20       ??$type_case_integer_parse_into_buffer@I@?$output_processor@DV?$stream_output_adapter@D@__crt_stdio_output@@V?$format_validation_base@DV?$stream_output_adapter@D@__crt_stdio_output@@@2@@__crt_stdio_output@@AAEXII_N@Z 10048b20 f i libucrtd:output.obj
 0001:00047bf0       ??$type_case_integer_parse_into_buffer@I@?$output_processor@DV?$stream_output_adapter@D@__crt_stdio_output@@V?$positional_parameter_base@DV?$stream_output_adapter@D@__crt_stdio_output@@@2@@__crt_stdio_output@@AAEXII_N@Z 10048bf0 f i libucrtd:output.obj
 0001:00047cc0       ??$type_case_integer_parse_into_buffer@I@?$output_processor@DV?$stream_output_adapter@D@__crt_stdio_output@@V?$standard_base@DV?$stream_output_adapter@D@__crt_stdio_output@@@2@@__crt_stdio_output@@AAEXII_N@Z 10048cc0 f i libucrtd:output.obj
 0001:00047d90       ??$type_case_integer_parse_into_buffer@I@?$output_processor@DV?$string_output_adapter@D@__crt_stdio_output@@V?$format_validation_base@DV?$string_output_adapter@D@__crt_stdio_output@@@2@@__crt_stdio_output@@AAEXII_N@Z 10048d90 f i libucrtd:output.obj
 0001:00047e60       ??$type_case_integer_parse_into_buffer@I@?$output_processor@DV?$string_output_adapter@D@__crt_stdio_output@@V?$positional_parameter_base@DV?$string_output_adapter@D@__crt_stdio_output@@@2@@__crt_stdio_output@@AAEXII_N@Z 10048e60 f i libucrtd:output.obj
 0001:00047f30       ??$type_case_integer_parse_into_buffer@I@?$output_processor@DV?$string_output_adapter@D@__crt_stdio_output@@V?$standard_base@DV?$string_output_adapter@D@__crt_stdio_output@@@2@@__crt_stdio_output@@AAEXII_N@Z 10048f30 f i libucrtd:output.obj
 0001:00048000       ??$type_case_integer_parse_into_buffer@I@?$output_processor@_WV?$stream_output_adapter@_W@__crt_stdio_output@@V?$format_validation_base@_WV?$stream_output_adapter@_W@__crt_stdio_output@@@2@@__crt_stdio_output@@AAEXII_N@Z 10049000 f i libucrtd:output.obj
 0001:000480d0       ??$type_case_integer_parse_into_buffer@I@?$output_processor@_WV?$stream_output_adapter@_W@__crt_stdio_output@@V?$positional_parameter_base@_WV?$stream_output_adapter@_W@__crt_stdio_output@@@2@@__crt_stdio_output@@AAEXII_N@Z 100490d0 f i libucrtd:output.obj
 0001:000481a0       ??$type_case_integer_parse_into_buffer@I@?$output_processor@_WV?$stream_output_adapter@_W@__crt_stdio_output@@V?$standard_base@_WV?$stream_output_adapter@_W@__crt_stdio_output@@@2@@__crt_stdio_output@@AAEXII_N@Z 100491a0 f i libucrtd:output.obj
 0001:00048270       ??$type_case_integer_parse_into_buffer@I@?$output_processor@_WV?$string_output_adapter@_W@__crt_stdio_output@@V?$format_validation_base@_WV?$string_output_adapter@_W@__crt_stdio_output@@@2@@__crt_stdio_output@@AAEXII_N@Z 10049270 f i libucrtd:output.obj
 0001:00048340       ??$type_case_integer_parse_into_buffer@I@?$output_processor@_WV?$string_output_adapter@_W@__crt_stdio_output@@V?$positional_parameter_base@_WV?$string_output_adapter@_W@__crt_stdio_output@@@2@@__crt_stdio_output@@AAEXII_N@Z 10049340 f i libucrtd:output.obj
 0001:00048410       ??$type_case_integer_parse_into_buffer@I@?$output_processor@_WV?$string_output_adapter@_W@__crt_stdio_output@@V?$standard_base@_WV?$string_output_adapter@_W@__crt_stdio_output@@@2@@__crt_stdio_output@@AAEXII_N@Z 10049410 f i libucrtd:output.obj
 0001:000484e0       ??$type_case_integer_parse_into_buffer@_K@?$output_processor@DV?$stream_output_adapter@D@__crt_stdio_output@@V?$format_validation_base@DV?$stream_output_adapter@D@__crt_stdio_output@@@2@@__crt_stdio_output@@AAEX_KI_N@Z 100494e0 f i libucrtd:output.obj
 0001:000485e0       ??$type_case_integer_parse_into_buffer@_K@?$output_processor@DV?$stream_output_adapter@D@__crt_stdio_output@@V?$positional_parameter_base@DV?$stream_output_adapter@D@__crt_stdio_output@@@2@@__crt_stdio_output@@AAEX_KI_N@Z 100495e0 f i libucrtd:output.obj
 0001:000486e0       ??$type_case_integer_parse_into_buffer@_K@?$output_processor@DV?$stream_output_adapter@D@__crt_stdio_output@@V?$standard_base@DV?$stream_output_adapter@D@__crt_stdio_output@@@2@@__crt_stdio_output@@AAEX_KI_N@Z 100496e0 f i libucrtd:output.obj
 0001:000487e0       ??$type_case_integer_parse_into_buffer@_K@?$output_processor@DV?$string_output_adapter@D@__crt_stdio_output@@V?$format_validation_base@DV?$string_output_adapter@D@__crt_stdio_output@@@2@@__crt_stdio_output@@AAEX_KI_N@Z 100497e0 f i libucrtd:output.obj
 0001:000488e0       ??$type_case_integer_parse_into_buffer@_K@?$output_processor@DV?$string_output_adapter@D@__crt_stdio_output@@V?$positional_parameter_base@DV?$string_output_adapter@D@__crt_stdio_output@@@2@@__crt_stdio_output@@AAEX_KI_N@Z 100498e0 f i libucrtd:output.obj
 0001:000489e0       ??$type_case_integer_parse_into_buffer@_K@?$output_processor@DV?$string_output_adapter@D@__crt_stdio_output@@V?$standard_base@DV?$string_output_adapter@D@__crt_stdio_output@@@2@@__crt_stdio_output@@AAEX_KI_N@Z 100499e0 f i libucrtd:output.obj
 0001:00048ae0       ??$type_case_integer_parse_into_buffer@_K@?$output_processor@_WV?$stream_output_adapter@_W@__crt_stdio_output@@V?$format_validation_base@_WV?$stream_output_adapter@_W@__crt_stdio_output@@@2@@__crt_stdio_output@@AAEX_KI_N@Z 10049ae0 f i libucrtd:output.obj
 0001:00048be0       ??$type_case_integer_parse_into_buffer@_K@?$output_processor@_WV?$stream_output_adapter@_W@__crt_stdio_output@@V?$positional_parameter_base@_WV?$stream_output_adapter@_W@__crt_stdio_output@@@2@@__crt_stdio_output@@AAEX_KI_N@Z 10049be0 f i libucrtd:output.obj
 0001:00048ce0       ??$type_case_integer_parse_into_buffer@_K@?$output_processor@_WV?$stream_output_adapter@_W@__crt_stdio_output@@V?$standard_base@_WV?$stream_output_adapter@_W@__crt_stdio_output@@@2@@__crt_stdio_output@@AAEX_KI_N@Z 10049ce0 f i libucrtd:output.obj
 0001:00048de0       ??$type_case_integer_parse_into_buffer@_K@?$output_processor@_WV?$string_output_adapter@_W@__crt_stdio_output@@V?$format_validation_base@_WV?$string_output_adapter@_W@__crt_stdio_output@@@2@@__crt_stdio_output@@AAEX_KI_N@Z 10049de0 f i libucrtd:output.obj
 0001:00048ee0       ??$type_case_integer_parse_into_buffer@_K@?$output_processor@_WV?$string_output_adapter@_W@__crt_stdio_output@@V?$positional_parameter_base@_WV?$string_output_adapter@_W@__crt_stdio_output@@@2@@__crt_stdio_output@@AAEX_KI_N@Z 10049ee0 f i libucrtd:output.obj
 0001:00048fe0       ??$type_case_integer_parse_into_buffer@_K@?$output_processor@_WV?$string_output_adapter@_W@__crt_stdio_output@@V?$standard_base@_WV?$string_output_adapter@_W@__crt_stdio_output@@@2@@__crt_stdio_output@@AAEX_KI_N@Z 10049fe0 f i libucrtd:output.obj
 0001:000490e0       ??$write_multiple_characters@V?$stream_output_adapter@D@__crt_stdio_output@@D@__crt_stdio_output@@YAXABV?$stream_output_adapter@D@0@DHQAH@Z 1004a0e0 f i libucrtd:output.obj
 0001:00049130       ??$write_multiple_characters@V?$stream_output_adapter@_W@__crt_stdio_output@@D@__crt_stdio_output@@YAXABV?$stream_output_adapter@_W@0@DHQAH@Z 1004a130 f i libucrtd:output.obj
 0001:00049180       ??$write_multiple_characters@V?$string_output_adapter@D@__crt_stdio_output@@D@__crt_stdio_output@@YAXABV?$string_output_adapter@D@0@DHQAH@Z 1004a180 f i libucrtd:output.obj
 0001:000491d0       ??$write_multiple_characters@V?$string_output_adapter@_W@__crt_stdio_output@@D@__crt_stdio_output@@YAXABV?$string_output_adapter@_W@0@DHQAH@Z 1004a1d0 f i libucrtd:output.obj
 0001:00049520       ??0?$common_data@D@__crt_stdio_output@@IAE@XZ 1004a520 f i libucrtd:output.obj
 0001:000495d0       ??0?$common_data@_W@__crt_stdio_output@@IAE@XZ 1004a5d0 f i libucrtd:output.obj
 0001:00049680       ??0?$output_adapter_data@DV?$stream_output_adapter@D@__crt_stdio_output@@@__crt_stdio_output@@IAE@ABV?$stream_output_adapter@D@1@_KQBDQAU__crt_locale_pointers@@QAD@Z 1004a680 f i libucrtd:output.obj
 0001:000496e0       ??0?$output_adapter_data@DV?$string_output_adapter@D@__crt_stdio_output@@@__crt_stdio_output@@IAE@ABV?$string_output_adapter@D@1@_KQBDQAU__crt_locale_pointers@@QAD@Z 1004a6e0 f i libucrtd:output.obj
 0001:00049740       ??0?$output_adapter_data@_WV?$stream_output_adapter@_W@__crt_stdio_output@@@__crt_stdio_output@@IAE@ABV?$stream_output_adapter@_W@1@_KQB_WQAU__crt_locale_pointers@@QAD@Z 1004a740 f i libucrtd:output.obj
 0001:000497a0       ??0?$output_adapter_data@_WV?$string_output_adapter@_W@__crt_stdio_output@@@__crt_stdio_output@@IAE@ABV?$string_output_adapter@_W@1@_KQB_WQAU__crt_locale_pointers@@QAD@Z 1004a7a0 f i libucrtd:output.obj
 0001:00049800       ??0?$output_processor@DV?$stream_output_adapter@D@__crt_stdio_output@@V?$format_validation_base@DV?$stream_output_adapter@D@__crt_stdio_output@@@2@@__crt_stdio_output@@QAE@ABV?$stream_output_adapter@D@1@_KQBDQAU__crt_locale_pointers@@QAD@Z 1004a800 f i libucrtd:output.obj
 0001:00049840       ??0?$output_processor@DV?$stream_output_adapter@D@__crt_stdio_output@@V?$positional_parameter_base@DV?$stream_output_adapter@D@__crt_stdio_output@@@2@@__crt_stdio_output@@QAE@ABV?$stream_output_adapter@D@1@_KQBDQAU__crt_locale_pointers@@QAD@Z 1004a840 f i libucrtd:output.obj
 0001:00049880       ??0?$output_processor@DV?$stream_output_adapter@D@__crt_stdio_output@@V?$standard_base@DV?$stream_output_adapter@D@__crt_stdio_output@@@2@@__crt_stdio_output@@QAE@ABV?$stream_output_adapter@D@1@_KQBDQAU__crt_locale_pointers@@QAD@Z 1004a880 f i libucrtd:output.obj
 0001:000498c0       ??0?$output_processor@DV?$string_output_adapter@D@__crt_stdio_output@@V?$format_validation_base@DV?$string_output_adapter@D@__crt_stdio_output@@@2@@__crt_stdio_output@@QAE@ABV?$string_output_adapter@D@1@_KQBDQAU__crt_locale_pointers@@QAD@Z 1004a8c0 f i libucrtd:output.obj
 0001:00049900       ??0?$output_processor@DV?$string_output_adapter@D@__crt_stdio_output@@V?$positional_parameter_base@DV?$string_output_adapter@D@__crt_stdio_output@@@2@@__crt_stdio_output@@QAE@ABV?$string_output_adapter@D@1@_KQBDQAU__crt_locale_pointers@@QAD@Z 1004a900 f i libucrtd:output.obj
 0001:00049940       ??0?$output_processor@DV?$string_output_adapter@D@__crt_stdio_output@@V?$standard_base@DV?$string_output_adapter@D@__crt_stdio_output@@@2@@__crt_stdio_output@@QAE@ABV?$string_output_adapter@D@1@_KQBDQAU__crt_locale_pointers@@QAD@Z 1004a940 f i libucrtd:output.obj
 0001:00049980       ??0?$output_processor@_WV?$stream_output_adapter@_W@__crt_stdio_output@@V?$format_validation_base@_WV?$stream_output_adapter@_W@__crt_stdio_output@@@2@@__crt_stdio_output@@QAE@ABV?$stream_output_adapter@_W@1@_KQB_WQAU__crt_locale_pointers@@QAD@Z 1004a980 f i libucrtd:output.obj
 0001:000499c0       ??0?$output_processor@_WV?$stream_output_adapter@_W@__crt_stdio_output@@V?$positional_parameter_base@_WV?$stream_output_adapter@_W@__crt_stdio_output@@@2@@__crt_stdio_output@@QAE@ABV?$stream_output_adapter@_W@1@_KQB_WQAU__crt_locale_pointers@@QAD@Z 1004a9c0 f i libucrtd:output.obj
 0001:00049a00       ??0?$output_processor@_WV?$stream_output_adapter@_W@__crt_stdio_output@@V?$standard_base@_WV?$stream_output_adapter@_W@__crt_stdio_output@@@2@@__crt_stdio_output@@QAE@ABV?$stream_output_adapter@_W@1@_KQB_WQAU__crt_locale_pointers@@QAD@Z 1004aa00 f i libucrtd:output.obj
 0001:00049a40       ??0?$output_processor@_WV?$string_output_adapter@_W@__crt_stdio_output@@V?$format_validation_base@_WV?$string_output_adapter@_W@__crt_stdio_output@@@2@@__crt_stdio_output@@QAE@ABV?$string_output_adapter@_W@1@_KQB_WQAU__crt_locale_pointers@@QAD@Z 1004aa40 f i libucrtd:output.obj
 0001:00049a80       ??0?$output_processor@_WV?$string_output_adapter@_W@__crt_stdio_output@@V?$positional_parameter_base@_WV?$string_output_adapter@_W@__crt_stdio_output@@@2@@__crt_stdio_output@@QAE@ABV?$string_output_adapter@_W@1@_KQB_WQAU__crt_locale_pointers@@QAD@Z 1004aa80 f i libucrtd:output.obj
 0001:00049ac0       ??0?$output_processor@_WV?$string_output_adapter@_W@__crt_stdio_output@@V?$standard_base@_WV?$string_output_adapter@_W@__crt_stdio_output@@@2@@__crt_stdio_output@@QAE@ABV?$string_output_adapter@_W@1@_KQB_WQAU__crt_locale_pointers@@QAD@Z 1004aac0 f i libucrtd:output.obj
 0001:00049b00       ??0?$stream_output_adapter@D@__crt_stdio_output@@QAE@QAU_iobuf@@@Z 1004ab00 f i libucrtd:output.obj
 0001:00049b20       ??0?$stream_output_adapter@_W@__crt_stdio_output@@QAE@QAU_iobuf@@@Z 1004ab20 f i libucrtd:output.obj
 0001:00049b40       ??0?$string_output_adapter@D@__crt_stdio_output@@QAE@QAU?$string_output_adapter_context@D@1@@Z 1004ab40 f i libucrtd:output.obj
 0001:00049b60       ??0?$string_output_adapter@_W@__crt_stdio_output@@QAE@QAU?$string_output_adapter_context@_W@1@@Z 1004ab60 f i libucrtd:output.obj
 0001:00049b80       ??0_LocaleUpdate@@QAE@QAU__crt_locale_pointers@@@Z 1004ab80 f i libucrtd:output.obj
 0001:00049c60       ??0__acrt_stdio_temporary_buffering_guard@@QAE@QAU_iobuf@@@Z 1004ac60 f i libucrtd:output.obj
 0001:00049c90       ??0__crt_errno_guard@@QAE@QAH@Z 1004ac90 f i libucrtd:output.obj
 0001:00049cc0       ??0__crt_stdio_stream@@QAE@QAU_iobuf@@@Z 1004acc0 f i libucrtd:output.obj
 0001:00049ce0       ??0formatting_buffer@__crt_stdio_output@@QAE@XZ 1004ace0 f i libucrtd:output.obj
 0001:00049d10       ??1?$common_data@D@__crt_stdio_output@@QAE@XZ 1004ad10 f i libucrtd:output.obj
 0001:00049d30       ??1?$common_data@_W@__crt_stdio_output@@QAE@XZ 1004ad30 f i libucrtd:output.obj
 0001:00049d50       ??1?$format_validation_base@DV?$stream_output_adapter@D@__crt_stdio_output@@@__crt_stdio_output@@QAE@XZ 1004ad50 f i libucrtd:output.obj
 0001:00049d70       ??1?$format_validation_base@DV?$string_output_adapter@D@__crt_stdio_output@@@__crt_stdio_output@@QAE@XZ 1004ad70 f i libucrtd:output.obj
 0001:00049d90       ??1?$format_validation_base@_WV?$stream_output_adapter@_W@__crt_stdio_output@@@__crt_stdio_output@@QAE@XZ 1004ad90 f i libucrtd:output.obj
 0001:00049db0       ??1?$format_validation_base@_WV?$string_output_adapter@_W@__crt_stdio_output@@@__crt_stdio_output@@QAE@XZ 1004adb0 f i libucrtd:output.obj
 0001:00049dd0       ??1?$output_adapter_data@DV?$stream_output_adapter@D@__crt_stdio_output@@@__crt_stdio_output@@QAE@XZ 1004add0 f i libucrtd:output.obj
 0001:00049df0       ??1?$output_adapter_data@DV?$string_output_adapter@D@__crt_stdio_output@@@__crt_stdio_output@@QAE@XZ 1004adf0 f i libucrtd:output.obj
 0001:00049e10       ??1?$output_adapter_data@_WV?$stream_output_adapter@_W@__crt_stdio_output@@@__crt_stdio_output@@QAE@XZ 1004ae10 f i libucrtd:output.obj
 0001:00049e30       ??1?$output_adapter_data@_WV?$string_output_adapter@_W@__crt_stdio_output@@@__crt_stdio_output@@QAE@XZ 1004ae30 f i libucrtd:output.obj
 0001:00049e50       ??1?$output_processor@DV?$stream_output_adapter@D@__crt_stdio_output@@V?$format_validation_base@DV?$stream_output_adapter@D@__crt_stdio_output@@@2@@__crt_stdio_output@@QAE@XZ 1004ae50 f i libucrtd:output.obj
 0001:00049e70       ??1?$output_processor@DV?$stream_output_adapter@D@__crt_stdio_output@@V?$positional_parameter_base@DV?$stream_output_adapter@D@__crt_stdio_output@@@2@@__crt_stdio_output@@QAE@XZ 1004ae70 f i libucrtd:output.obj
 0001:00049e90       ??1?$output_processor@DV?$stream_output_adapter@D@__crt_stdio_output@@V?$standard_base@DV?$stream_output_adapter@D@__crt_stdio_output@@@2@@__crt_stdio_output@@QAE@XZ 1004ae90 f i libucrtd:output.obj
 0001:00049eb0       ??1?$output_processor@DV?$string_output_adapter@D@__crt_stdio_output@@V?$format_validation_base@DV?$string_output_adapter@D@__crt_stdio_output@@@2@@__crt_stdio_output@@QAE@XZ 1004aeb0 f i libucrtd:output.obj
 0001:00049ed0       ??1?$output_processor@DV?$string_output_adapter@D@__crt_stdio_output@@V?$positional_parameter_base@DV?$string_output_adapter@D@__crt_stdio_output@@@2@@__crt_stdio_output@@QAE@XZ 1004aed0 f i libucrtd:output.obj
 0001:00049ef0       ??1?$output_processor@DV?$string_output_adapter@D@__crt_stdio_output@@V?$standard_base@DV?$string_output_adapter@D@__crt_stdio_output@@@2@@__crt_stdio_output@@QAE@XZ 1004aef0 f i libucrtd:output.obj
 0001:00049f10       ??1?$output_processor@_WV?$stream_output_adapter@_W@__crt_stdio_output@@V?$format_validation_base@_WV?$stream_output_adapter@_W@__crt_stdio_output@@@2@@__crt_stdio_output@@QAE@XZ 1004af10 f i libucrtd:output.obj
 0001:00049f30       ??1?$output_processor@_WV?$stream_output_adapter@_W@__crt_stdio_output@@V?$positional_parameter_base@_WV?$stream_output_adapter@_W@__crt_stdio_output@@@2@@__crt_stdio_output@@QAE@XZ 1004af30 f i libucrtd:output.obj
 0001:00049f50       ??1?$output_processor@_WV?$stream_output_adapter@_W@__crt_stdio_output@@V?$standard_base@_WV?$stream_output_adapter@_W@__crt_stdio_output@@@2@@__crt_stdio_output@@QAE@XZ 1004af50 f i libucrtd:output.obj
 0001:00049f70       ??1?$output_processor@_WV?$string_output_adapter@_W@__crt_stdio_output@@V?$format_validation_base@_WV?$string_output_adapter@_W@__crt_stdio_output@@@2@@__crt_stdio_output@@QAE@XZ 1004af70 f i libucrtd:output.obj
 0001:00049f90       ??1?$output_processor@_WV?$string_output_adapter@_W@__crt_stdio_output@@V?$positional_parameter_base@_WV?$string_output_adapter@_W@__crt_stdio_output@@@2@@__crt_stdio_output@@QAE@XZ 1004af90 f i libucrtd:output.obj
 0001:00049fb0       ??1?$output_processor@_WV?$string_output_adapter@_W@__crt_stdio_output@@V?$standard_base@_WV?$string_output_adapter@_W@__crt_stdio_output@@@2@@__crt_stdio_output@@QAE@XZ 1004afb0 f i libucrtd:output.obj
 0001:00049fd0       ??1?$positional_parameter_base@DV?$stream_output_adapter@D@__crt_stdio_output@@@__crt_stdio_output@@QAE@XZ 1004afd0 f i libucrtd:output.obj
 0001:00049ff0       ??1?$positional_parameter_base@DV?$string_output_adapter@D@__crt_stdio_output@@@__crt_stdio_output@@QAE@XZ 1004aff0 f i libucrtd:output.obj
 0001:0004a010       ??1?$positional_parameter_base@_WV?$stream_output_adapter@_W@__crt_stdio_output@@@__crt_stdio_output@@QAE@XZ 1004b010 f i libucrtd:output.obj
 0001:0004a030       ??1?$positional_parameter_base@_WV?$string_output_adapter@_W@__crt_stdio_output@@@__crt_stdio_output@@QAE@XZ 1004b030 f i libucrtd:output.obj
 0001:0004a050       ??1?$standard_base@DV?$stream_output_adapter@D@__crt_stdio_output@@@__crt_stdio_output@@QAE@XZ 1004b050 f i libucrtd:output.obj
 0001:0004a070       ??1?$standard_base@DV?$string_output_adapter@D@__crt_stdio_output@@@__crt_stdio_output@@QAE@XZ 1004b070 f i libucrtd:output.obj
 0001:0004a090       ??1?$standard_base@_WV?$stream_output_adapter@_W@__crt_stdio_output@@@__crt_stdio_output@@QAE@XZ 1004b090 f i libucrtd:output.obj
 0001:0004a0b0       ??1?$standard_base@_WV?$string_output_adapter@_W@__crt_stdio_output@@@__crt_stdio_output@@QAE@XZ 1004b0b0 f i libucrtd:output.obj
 0001:0004a0d0       ??1_LocaleUpdate@@QAE@XZ   1004b0d0 f i libucrtd:output.obj
 0001:0004a110       ??1__acrt_stdio_temporary_buffering_guard@@QAE@XZ 1004b110 f i libucrtd:output.obj
 0001:0004a140       ??1__crt_errno_guard@@QAE@XZ 1004b140 f i libucrtd:output.obj
 0001:0004a170       ??1formatting_buffer@__crt_stdio_output@@QAE@XZ 1004b170 f i libucrtd:output.obj
 0001:0004a190       ??4?$__crt_unique_heap_ptr@DU__crt_internal_free_policy@@@@QAEAAV0@$$QAV0@@Z 1004b190 f i libucrtd:output.obj
 0001:0004a1c0       ??C__crt_stdio_stream@@QBEPAU__crt_stdio_stream_data@@XZ 1004b1c0 f i libucrtd:output.obj
 0001:0004a900       ?GetLocaleT@_LocaleUpdate@@QAEPAU__crt_locale_pointers@@XZ 1004b900 f i libucrtd:output.obj
 0001:0004a920       ?adjust_hexit@?$output_processor@DV?$stream_output_adapter@D@__crt_stdio_output@@V?$format_validation_base@DV?$stream_output_adapter@D@__crt_stdio_output@@@2@@__crt_stdio_output@@CADH_N@Z 1004b920 f i libucrtd:output.obj
 0001:0004a960       ?adjust_hexit@?$output_processor@DV?$stream_output_adapter@D@__crt_stdio_output@@V?$positional_parameter_base@DV?$stream_output_adapter@D@__crt_stdio_output@@@2@@__crt_stdio_output@@CADH_N@Z 1004b960 f i libucrtd:output.obj
 0001:0004a9a0       ?adjust_hexit@?$output_processor@DV?$stream_output_adapter@D@__crt_stdio_output@@V?$standard_base@DV?$stream_output_adapter@D@__crt_stdio_output@@@2@@__crt_stdio_output@@CADH_N@Z 1004b9a0 f i libucrtd:output.obj
 0001:0004a9e0       ?adjust_hexit@?$output_processor@DV?$string_output_adapter@D@__crt_stdio_output@@V?$format_validation_base@DV?$string_output_adapter@D@__crt_stdio_output@@@2@@__crt_stdio_output@@CADH_N@Z 1004b9e0 f i libucrtd:output.obj
 0001:0004aa20       ?adjust_hexit@?$output_processor@DV?$string_output_adapter@D@__crt_stdio_output@@V?$positional_parameter_base@DV?$string_output_adapter@D@__crt_stdio_output@@@2@@__crt_stdio_output@@CADH_N@Z 1004ba20 f i libucrtd:output.obj
 0001:0004aa60       ?adjust_hexit@?$output_processor@DV?$string_output_adapter@D@__crt_stdio_output@@V?$standard_base@DV?$string_output_adapter@D@__crt_stdio_output@@@2@@__crt_stdio_output@@CADH_N@Z 1004ba60 f i libucrtd:output.obj
 0001:0004aaa0       ?adjust_hexit@?$output_processor@_WV?$stream_output_adapter@_W@__crt_stdio_output@@V?$format_validation_base@_WV?$stream_output_adapter@_W@__crt_stdio_output@@@2@@__crt_stdio_output@@CADH_N@Z 1004baa0 f i libucrtd:output.obj
 0001:0004aae0       ?adjust_hexit@?$output_processor@_WV?$stream_output_adapter@_W@__crt_stdio_output@@V?$positional_parameter_base@_WV?$stream_output_adapter@_W@__crt_stdio_output@@@2@@__crt_stdio_output@@CADH_N@Z 1004bae0 f i libucrtd:output.obj
 0001:0004ab20       ?adjust_hexit@?$output_processor@_WV?$stream_output_adapter@_W@__crt_stdio_output@@V?$standard_base@_WV?$stream_output_adapter@_W@__crt_stdio_output@@@2@@__crt_stdio_output@@CADH_N@Z 1004bb20 f i libucrtd:output.obj
 0001:0004ab60       ?adjust_hexit@?$output_processor@_WV?$string_output_adapter@_W@__crt_stdio_output@@V?$format_validation_base@_WV?$string_output_adapter@_W@__crt_stdio_output@@@2@@__crt_stdio_output@@CADH_N@Z 1004bb60 f i libucrtd:output.obj
 0001:0004aba0       ?adjust_hexit@?$output_processor@_WV?$string_output_adapter@_W@__crt_stdio_output@@V?$positional_parameter_base@_WV?$string_output_adapter@_W@__crt_stdio_output@@@2@@__crt_stdio_output@@CADH_N@Z 1004bba0 f i libucrtd:output.obj
 0001:0004abe0       ?adjust_hexit@?$output_processor@_WV?$string_output_adapter@_W@__crt_stdio_output@@V?$standard_base@_WV?$string_output_adapter@_W@__crt_stdio_output@@@2@@__crt_stdio_output@@CADH_N@Z 1004bbe0 f i libucrtd:output.obj
 0001:0004ac20       ?advance_to_next_pass@?$positional_parameter_base@DV?$stream_output_adapter@D@__crt_stdio_output@@@__crt_stdio_output@@IAE_NXZ 1004bc20 f i libucrtd:output.obj
 0001:0004acc0       ?advance_to_next_pass@?$positional_parameter_base@DV?$string_output_adapter@D@__crt_stdio_output@@@__crt_stdio_output@@IAE_NXZ 1004bcc0 f i libucrtd:output.obj
 0001:0004ad60       ?advance_to_next_pass@?$positional_parameter_base@_WV?$stream_output_adapter@_W@__crt_stdio_output@@@__crt_stdio_output@@IAE_NXZ 1004bd60 f i libucrtd:output.obj
 0001:0004ae00       ?advance_to_next_pass@?$positional_parameter_base@_WV?$string_output_adapter@_W@__crt_stdio_output@@@__crt_stdio_output@@IAE_NXZ 1004be00 f i libucrtd:output.obj
 0001:0004aea0       ?advance_to_next_pass@?$standard_base@DV?$stream_output_adapter@D@__crt_stdio_output@@@__crt_stdio_output@@IAE_NXZ 1004bea0 f i libucrtd:output.obj
 0001:0004aef0       ?advance_to_next_pass@?$standard_base@DV?$string_output_adapter@D@__crt_stdio_output@@@__crt_stdio_output@@IAE_NXZ 1004bef0 f i libucrtd:output.obj
 0001:0004af40       ?advance_to_next_pass@?$standard_base@_WV?$stream_output_adapter@_W@__crt_stdio_output@@@__crt_stdio_output@@IAE_NXZ 1004bf40 f i libucrtd:output.obj
 0001:0004af90       ?advance_to_next_pass@?$standard_base@_WV?$string_output_adapter@_W@__crt_stdio_output@@@__crt_stdio_output@@IAE_NXZ 1004bf90 f i libucrtd:output.obj
 0001:0004afe0       ?crop_zeroes@__crt_stdio_output@@YAXPADQAU__crt_locale_pointers@@@Z 1004bfe0 f i libucrtd:output.obj
 0001:0004b0e0       ?find_next_state@?$output_processor@DV?$stream_output_adapter@D@__crt_stdio_output@@V?$format_validation_base@DV?$stream_output_adapter@D@__crt_stdio_output@@@2@@__crt_stdio_output@@ABE?AW4state@2@DW432@@Z 1004c0e0 f i libucrtd:output.obj
 0001:0004b160       ?find_next_state@?$output_processor@DV?$stream_output_adapter@D@__crt_stdio_output@@V?$positional_parameter_base@DV?$stream_output_adapter@D@__crt_stdio_output@@@2@@__crt_stdio_output@@ABE?AW4state@2@DW432@@Z 1004c160 f i libucrtd:output.obj
 0001:0004b1e0       ?find_next_state@?$output_processor@DV?$stream_output_adapter@D@__crt_stdio_output@@V?$standard_base@DV?$stream_output_adapter@D@__crt_stdio_output@@@2@@__crt_stdio_output@@ABE?AW4state@2@DW432@@Z 1004c1e0 f i libucrtd:output.obj
 0001:0004b260       ?find_next_state@?$output_processor@DV?$string_output_adapter@D@__crt_stdio_output@@V?$format_validation_base@DV?$string_output_adapter@D@__crt_stdio_output@@@2@@__crt_stdio_output@@ABE?AW4state@2@DW432@@Z 1004c260 f i libucrtd:output.obj
 0001:0004b2e0       ?find_next_state@?$output_processor@DV?$string_output_adapter@D@__crt_stdio_output@@V?$positional_parameter_base@DV?$string_output_adapter@D@__crt_stdio_output@@@2@@__crt_stdio_output@@ABE?AW4state@2@DW432@@Z 1004c2e0 f i libucrtd:output.obj
 0001:0004b360       ?find_next_state@?$output_processor@DV?$string_output_adapter@D@__crt_stdio_output@@V?$standard_base@DV?$string_output_adapter@D@__crt_stdio_output@@@2@@__crt_stdio_output@@ABE?AW4state@2@DW432@@Z 1004c360 f i libucrtd:output.obj
 0001:0004b3e0       ?find_next_state@?$output_processor@_WV?$stream_output_adapter@_W@__crt_stdio_output@@V?$format_validation_base@_WV?$stream_output_adapter@_W@__crt_stdio_output@@@2@@__crt_stdio_output@@ABE?AW4state@2@_WW432@@Z 1004c3e0 f i libucrtd:output.obj
 0001:0004b460       ?find_next_state@?$output_processor@_WV?$stream_output_adapter@_W@__crt_stdio_output@@V?$positional_parameter_base@_WV?$stream_output_adapter@_W@__crt_stdio_output@@@2@@__crt_stdio_output@@ABE?AW4state@2@_WW432@@Z 1004c460 f i libucrtd:output.obj
 0001:0004b4e0       ?find_next_state@?$output_processor@_WV?$stream_output_adapter@_W@__crt_stdio_output@@V?$standard_base@_WV?$stream_output_adapter@_W@__crt_stdio_output@@@2@@__crt_stdio_output@@ABE?AW4state@2@_WW432@@Z 1004c4e0 f i libucrtd:output.obj
 0001:0004b560       ?find_next_state@?$output_processor@_WV?$string_output_adapter@_W@__crt_stdio_output@@V?$format_validation_base@_WV?$string_output_adapter@_W@__crt_stdio_output@@@2@@__crt_stdio_output@@ABE?AW4state@2@_WW432@@Z 1004c560 f i libucrtd:output.obj
 0001:0004b5e0       ?find_next_state@?$output_processor@_WV?$string_output_adapter@_W@__crt_stdio_output@@V?$positional_parameter_base@_WV?$string_output_adapter@_W@__crt_stdio_output@@@2@@__crt_stdio_output@@ABE?AW4state@2@_WW432@@Z 1004c5e0 f i libucrtd:output.obj
 0001:0004b660       ?find_next_state@?$output_processor@_WV?$string_output_adapter@_W@__crt_stdio_output@@V?$standard_base@_WV?$string_output_adapter@_W@__crt_stdio_output@@@2@@__crt_stdio_output@@ABE?AW4state@2@_WW432@@Z 1004c660 f i libucrtd:output.obj
 0001:0004b6e0       ?force_decimal_point@__crt_stdio_output@@YAXPADQAU__crt_locale_pointers@@@Z 1004c6e0 f i libucrtd:output.obj
 0001:0004b790       ?get_flags@__crt_stdio_stream@@QBEJXZ 1004c790 f i libucrtd:output.obj
 0001:0004b7b0       ?get_parameter_type@?$positional_parameter_base@DV?$stream_output_adapter@D@__crt_stdio_output@@@__crt_stdio_output@@CA?AW4parameter_type@12@F@Z 1004c7b0 f i libucrtd:output.obj
 0001:0004b7c0       ?get_parameter_type@?$positional_parameter_base@DV?$stream_output_adapter@D@__crt_stdio_output@@@__crt_stdio_output@@CA?AW4parameter_type@12@G@Z 1004c7c0 f i libucrtd:output.obj
 0001:0004b7d0       ?get_parameter_type@?$positional_parameter_base@DV?$stream_output_adapter@D@__crt_stdio_output@@@__crt_stdio_output@@CA?AW4parameter_type@12@H@Z 1004c7d0 f i libucrtd:output.obj
 0001:0004b7e0       ?get_parameter_type@?$positional_parameter_base@DV?$stream_output_adapter@D@__crt_stdio_output@@@__crt_stdio_output@@CA?AW4parameter_type@12@I@Z 1004c7e0 f i libucrtd:output.obj
 0001:0004b7f0       ?get_parameter_type@?$positional_parameter_base@DV?$stream_output_adapter@D@__crt_stdio_output@@@__crt_stdio_output@@CA?AW4parameter_type@12@U_CRT_DOUBLE@@@Z 1004c7f0 f i libucrtd:output.obj
 0001:0004b800       ?get_parameter_type@?$positional_parameter_base@DV?$stream_output_adapter@D@__crt_stdio_output@@@__crt_stdio_output@@CA?AW4parameter_type@12@_J@Z 1004c800 f i libucrtd:output.obj
 0001:0004b810       ?get_parameter_type@?$positional_parameter_base@DV?$stream_output_adapter@D@__crt_stdio_output@@@__crt_stdio_output@@CA?AW4parameter_type@12@_K@Z 1004c810 f i libucrtd:output.obj
 0001:0004b820       ?get_parameter_type@?$positional_parameter_base@DV?$stream_output_adapter@D@__crt_stdio_output@@@__crt_stdio_output@@CA?AW4parameter_type@12@_W@Z 1004c820 f i libucrtd:output.obj
 0001:0004b830       ?get_parameter_type@?$positional_parameter_base@DV?$string_output_adapter@D@__crt_stdio_output@@@__crt_stdio_output@@CA?AW4parameter_type@12@F@Z 1004c830 f i libucrtd:output.obj
 0001:0004b840       ?get_parameter_type@?$positional_parameter_base@DV?$string_output_adapter@D@__crt_stdio_output@@@__crt_stdio_output@@CA?AW4parameter_type@12@G@Z 1004c840 f i libucrtd:output.obj
 0001:0004b850       ?get_parameter_type@?$positional_parameter_base@DV?$string_output_adapter@D@__crt_stdio_output@@@__crt_stdio_output@@CA?AW4parameter_type@12@H@Z 1004c850 f i libucrtd:output.obj
 0001:0004b860       ?get_parameter_type@?$positional_parameter_base@DV?$string_output_adapter@D@__crt_stdio_output@@@__crt_stdio_output@@CA?AW4parameter_type@12@I@Z 1004c860 f i libucrtd:output.obj
 0001:0004b870       ?get_parameter_type@?$positional_parameter_base@DV?$string_output_adapter@D@__crt_stdio_output@@@__crt_stdio_output@@CA?AW4parameter_type@12@U_CRT_DOUBLE@@@Z 1004c870 f i libucrtd:output.obj
 0001:0004b880       ?get_parameter_type@?$positional_parameter_base@DV?$string_output_adapter@D@__crt_stdio_output@@@__crt_stdio_output@@CA?AW4parameter_type@12@_J@Z 1004c880 f i libucrtd:output.obj
 0001:0004b890       ?get_parameter_type@?$positional_parameter_base@DV?$string_output_adapter@D@__crt_stdio_output@@@__crt_stdio_output@@CA?AW4parameter_type@12@_K@Z 1004c890 f i libucrtd:output.obj
 0001:0004b8a0       ?get_parameter_type@?$positional_parameter_base@DV?$string_output_adapter@D@__crt_stdio_output@@@__crt_stdio_output@@CA?AW4parameter_type@12@_W@Z 1004c8a0 f i libucrtd:output.obj
 0001:0004b8b0       ?get_parameter_type@?$positional_parameter_base@_WV?$stream_output_adapter@_W@__crt_stdio_output@@@__crt_stdio_output@@CA?AW4parameter_type@12@F@Z 1004c8b0 f i libucrtd:output.obj
 0001:0004b8c0       ?get_parameter_type@?$positional_parameter_base@_WV?$stream_output_adapter@_W@__crt_stdio_output@@@__crt_stdio_output@@CA?AW4parameter_type@12@G@Z 1004c8c0 f i libucrtd:output.obj
 0001:0004b8d0       ?get_parameter_type@?$positional_parameter_base@_WV?$stream_output_adapter@_W@__crt_stdio_output@@@__crt_stdio_output@@CA?AW4parameter_type@12@H@Z 1004c8d0 f i libucrtd:output.obj
 0001:0004b8e0       ?get_parameter_type@?$positional_parameter_base@_WV?$stream_output_adapter@_W@__crt_stdio_output@@@__crt_stdio_output@@CA?AW4parameter_type@12@I@Z 1004c8e0 f i libucrtd:output.obj
 0001:0004b8f0       ?get_parameter_type@?$positional_parameter_base@_WV?$stream_output_adapter@_W@__crt_stdio_output@@@__crt_stdio_output@@CA?AW4parameter_type@12@U_CRT_DOUBLE@@@Z 1004c8f0 f i libucrtd:output.obj
 0001:0004b900       ?get_parameter_type@?$positional_parameter_base@_WV?$stream_output_adapter@_W@__crt_stdio_output@@@__crt_stdio_output@@CA?AW4parameter_type@12@_J@Z 1004c900 f i libucrtd:output.obj
 0001:0004b910       ?get_parameter_type@?$positional_parameter_base@_WV?$stream_output_adapter@_W@__crt_stdio_output@@@__crt_stdio_output@@CA?AW4parameter_type@12@_K@Z 1004c910 f i libucrtd:output.obj
 0001:0004b920       ?get_parameter_type@?$positional_parameter_base@_WV?$stream_output_adapter@_W@__crt_stdio_output@@@__crt_stdio_output@@CA?AW4parameter_type@12@_W@Z 1004c920 f i libucrtd:output.obj
 0001:0004b930       ?get_parameter_type@?$positional_parameter_base@_WV?$string_output_adapter@_W@__crt_stdio_output@@@__crt_stdio_output@@CA?AW4parameter_type@12@F@Z 1004c930 f i libucrtd:output.obj
 0001:0004b940       ?get_parameter_type@?$positional_parameter_base@_WV?$string_output_adapter@_W@__crt_stdio_output@@@__crt_stdio_output@@CA?AW4parameter_type@12@G@Z 1004c940 f i libucrtd:output.obj
 0001:0004b950       ?get_parameter_type@?$positional_parameter_base@_WV?$string_output_adapter@_W@__crt_stdio_output@@@__crt_stdio_output@@CA?AW4parameter_type@12@H@Z 1004c950 f i libucrtd:output.obj
 0001:0004b960       ?get_parameter_type@?$positional_parameter_base@_WV?$string_output_adapter@_W@__crt_stdio_output@@@__crt_stdio_output@@CA?AW4parameter_type@12@I@Z 1004c960 f i libucrtd:output.obj
 0001:0004b970       ?get_parameter_type@?$positional_parameter_base@_WV?$string_output_adapter@_W@__crt_stdio_output@@@__crt_stdio_output@@CA?AW4parameter_type@12@U_CRT_DOUBLE@@@Z 1004c970 f i libucrtd:output.obj
 0001:0004b980       ?get_parameter_type@?$positional_parameter_base@_WV?$string_output_adapter@_W@__crt_stdio_output@@@__crt_stdio_output@@CA?AW4parameter_type@12@_J@Z 1004c980 f i libucrtd:output.obj
 0001:0004b990       ?get_parameter_type@?$positional_parameter_base@_WV?$string_output_adapter@_W@__crt_stdio_output@@@__crt_stdio_output@@CA?AW4parameter_type@12@_K@Z 1004c990 f i libucrtd:output.obj
 0001:0004b9a0       ?get_parameter_type@?$positional_parameter_base@_WV?$string_output_adapter@_W@__crt_stdio_output@@@__crt_stdio_output@@CA?AW4parameter_type@12@_W@Z 1004c9a0 f i libucrtd:output.obj
 0001:0004b9b0       ?has_flag@?$output_processor@DV?$stream_output_adapter@D@__crt_stdio_output@@V?$format_validation_base@DV?$stream_output_adapter@D@__crt_stdio_output@@@2@@__crt_stdio_output@@ABE_NI@Z 1004c9b0 f i libucrtd:output.obj
 0001:0004b9e0       ?has_flag@?$output_processor@DV?$stream_output_adapter@D@__crt_stdio_output@@V?$positional_parameter_base@DV?$stream_output_adapter@D@__crt_stdio_output@@@2@@__crt_stdio_output@@ABE_NI@Z 1004c9e0 f i libucrtd:output.obj
 0001:0004ba10       ?has_flag@?$output_processor@DV?$stream_output_adapter@D@__crt_stdio_output@@V?$standard_base@DV?$stream_output_adapter@D@__crt_stdio_output@@@2@@__crt_stdio_output@@ABE_NI@Z 1004ca10 f i libucrtd:output.obj
 0001:0004ba40       ?has_flag@?$output_processor@DV?$string_output_adapter@D@__crt_stdio_output@@V?$format_validation_base@DV?$string_output_adapter@D@__crt_stdio_output@@@2@@__crt_stdio_output@@ABE_NI@Z 1004ca40 f i libucrtd:output.obj
 0001:0004ba70       ?has_flag@?$output_processor@DV?$string_output_adapter@D@__crt_stdio_output@@V?$positional_parameter_base@DV?$string_output_adapter@D@__crt_stdio_output@@@2@@__crt_stdio_output@@ABE_NI@Z 1004ca70 f i libucrtd:output.obj
 0001:0004baa0       ?has_flag@?$output_processor@DV?$string_output_adapter@D@__crt_stdio_output@@V?$standard_base@DV?$string_output_adapter@D@__crt_stdio_output@@@2@@__crt_stdio_output@@ABE_NI@Z 1004caa0 f i libucrtd:output.obj
 0001:0004bad0       ?has_flag@?$output_processor@_WV?$stream_output_adapter@_W@__crt_stdio_output@@V?$format_validation_base@_WV?$stream_output_adapter@_W@__crt_stdio_output@@@2@@__crt_stdio_output@@ABE_NI@Z 1004cad0 f i libucrtd:output.obj
 0001:0004bb00       ?has_flag@?$output_processor@_WV?$stream_output_adapter@_W@__crt_stdio_output@@V?$positional_parameter_base@_WV?$stream_output_adapter@_W@__crt_stdio_output@@@2@@__crt_stdio_output@@ABE_NI@Z 1004cb00 f i libucrtd:output.obj
 0001:0004bb30       ?has_flag@?$output_processor@_WV?$stream_output_adapter@_W@__crt_stdio_output@@V?$standard_base@_WV?$stream_output_adapter@_W@__crt_stdio_output@@@2@@__crt_stdio_output@@ABE_NI@Z 1004cb30 f i libucrtd:output.obj
 0001:0004bb60       ?has_flag@?$output_processor@_WV?$string_output_adapter@_W@__crt_stdio_output@@V?$format_validation_base@_WV?$string_output_adapter@_W@__crt_stdio_output@@@2@@__crt_stdio_output@@ABE_NI@Z 1004cb60 f i libucrtd:output.obj
 0001:0004bb90       ?has_flag@?$output_processor@_WV?$string_output_adapter@_W@__crt_stdio_output@@V?$positional_parameter_base@_WV?$string_output_adapter@_W@__crt_stdio_output@@@2@@__crt_stdio_output@@ABE_NI@Z 1004cb90 f i libucrtd:output.obj
 0001:0004bbc0       ?has_flag@?$output_processor@_WV?$string_output_adapter@_W@__crt_stdio_output@@V?$standard_base@_WV?$string_output_adapter@_W@__crt_stdio_output@@@2@@__crt_stdio_output@@ABE_NI@Z 1004cbc0 f i libucrtd:output.obj
 0001:0004bbf0       ?is_positional_parameter_reappearance_consistent@?$positional_parameter_base@DV?$stream_output_adapter@D@__crt_stdio_output@@@__crt_stdio_output@@AAE_NABUparameter_data@12@W4parameter_type@12@DW4length_modifier@2@@Z 1004cbf0 f i libucrtd:output.obj
 0001:0004be20       ?is_positional_parameter_reappearance_consistent@?$positional_parameter_base@DV?$string_output_adapter@D@__crt_stdio_output@@@__crt_stdio_output@@AAE_NABUparameter_data@12@W4parameter_type@12@DW4length_modifier@2@@Z 1004ce20 f i libucrtd:output.obj
 0001:0004c050       ?is_positional_parameter_reappearance_consistent@?$positional_parameter_base@_WV?$stream_output_adapter@_W@__crt_stdio_output@@@__crt_stdio_output@@AAE_NABUparameter_data@12@W4parameter_type@12@_WW4length_modifier@2@@Z 1004d050 f i libucrtd:output.obj
 0001:0004c280       ?is_positional_parameter_reappearance_consistent@?$positional_parameter_base@_WV?$string_output_adapter@_W@__crt_stdio_output@@@__crt_stdio_output@@AAE_NABUparameter_data@12@W4parameter_type@12@_WW4length_modifier@2@@Z 1004d280 f i libucrtd:output.obj
 0001:0004c4b0       ?is_string_backed@__crt_stdio_stream@@QBE_NXZ 1004d4b0 f i libucrtd:output.obj
 0001:0004c4f0       ?narrow_null_string@?$output_processor@DV?$stream_output_adapter@D@__crt_stdio_output@@V?$format_validation_base@DV?$stream_output_adapter@D@__crt_stdio_output@@@2@@__crt_stdio_output@@CAPADXZ 1004d4f0 f i libucrtd:output.obj
 0001:0004c500       ?narrow_null_string@?$output_processor@DV?$stream_output_adapter@D@__crt_stdio_output@@V?$positional_parameter_base@DV?$stream_output_adapter@D@__crt_stdio_output@@@2@@__crt_stdio_output@@CAPADXZ 1004d500 f i libucrtd:output.obj
 0001:0004c510       ?narrow_null_string@?$output_processor@DV?$stream_output_adapter@D@__crt_stdio_output@@V?$standard_base@DV?$stream_output_adapter@D@__crt_stdio_output@@@2@@__crt_stdio_output@@CAPADXZ 1004d510 f i libucrtd:output.obj
 0001:0004c520       ?narrow_null_string@?$output_processor@DV?$string_output_adapter@D@__crt_stdio_output@@V?$format_validation_base@DV?$string_output_adapter@D@__crt_stdio_output@@@2@@__crt_stdio_output@@CAPADXZ 1004d520 f i libucrtd:output.obj
 0001:0004c530       ?narrow_null_string@?$output_processor@DV?$string_output_adapter@D@__crt_stdio_output@@V?$positional_parameter_base@DV?$string_output_adapter@D@__crt_stdio_output@@@2@@__crt_stdio_output@@CAPADXZ 1004d530 f i libucrtd:output.obj
 0001:0004c540       ?narrow_null_string@?$output_processor@DV?$string_output_adapter@D@__crt_stdio_output@@V?$standard_base@DV?$string_output_adapter@D@__crt_stdio_output@@@2@@__crt_stdio_output@@CAPADXZ 1004d540 f i libucrtd:output.obj
 0001:0004c550       ?narrow_null_string@?$output_processor@_WV?$stream_output_adapter@_W@__crt_stdio_output@@V?$format_validation_base@_WV?$stream_output_adapter@_W@__crt_stdio_output@@@2@@__crt_stdio_output@@CAPADXZ 1004d550 f i libucrtd:output.obj
 0001:0004c560       ?narrow_null_string@?$output_processor@_WV?$stream_output_adapter@_W@__crt_stdio_output@@V?$positional_parameter_base@_WV?$stream_output_adapter@_W@__crt_stdio_output@@@2@@__crt_stdio_output@@CAPADXZ 1004d560 f i libucrtd:output.obj
 0001:0004c570       ?narrow_null_string@?$output_processor@_WV?$stream_output_adapter@_W@__crt_stdio_output@@V?$standard_base@_WV?$stream_output_adapter@_W@__crt_stdio_output@@@2@@__crt_stdio_output@@CAPADXZ 1004d570 f i libucrtd:output.obj
 0001:0004c580       ?narrow_null_string@?$output_processor@_WV?$string_output_adapter@_W@__crt_stdio_output@@V?$format_validation_base@_WV?$string_output_adapter@_W@__crt_stdio_output@@@2@@__crt_stdio_output@@CAPADXZ 1004d580 f i libucrtd:output.obj
 0001:0004c590       ?narrow_null_string@?$output_processor@_WV?$string_output_adapter@_W@__crt_stdio_output@@V?$positional_parameter_base@_WV?$string_output_adapter@_W@__crt_stdio_output@@@2@@__crt_stdio_output@@CAPADXZ 1004d590 f i libucrtd:output.obj
 0001:0004c5a0       ?narrow_null_string@?$output_processor@_WV?$string_output_adapter@_W@__crt_stdio_output@@V?$standard_base@_WV?$string_output_adapter@_W@__crt_stdio_output@@@2@@__crt_stdio_output@@CAPADXZ 1004d5a0 f i libucrtd:output.obj
 0001:0004c5b0       ?parse_int_from_format_string@?$output_processor@DV?$stream_output_adapter@D@__crt_stdio_output@@V?$format_validation_base@DV?$stream_output_adapter@D@__crt_stdio_output@@@2@@__crt_stdio_output@@AAE_NQAH@Z 1004d5b0 f i libucrtd:output.obj
 0001:0004c660       ?parse_int_from_format_string@?$output_processor@DV?$stream_output_adapter@D@__crt_stdio_output@@V?$positional_parameter_base@DV?$stream_output_adapter@D@__crt_stdio_output@@@2@@__crt_stdio_output@@AAE_NQAH@Z 1004d660 f i libucrtd:output.obj
 0001:0004c710       ?parse_int_from_format_string@?$output_processor@DV?$stream_output_adapter@D@__crt_stdio_output@@V?$standard_base@DV?$stream_output_adapter@D@__crt_stdio_output@@@2@@__crt_stdio_output@@AAE_NQAH@Z 1004d710 f i libucrtd:output.obj
 0001:0004c7c0       ?parse_int_from_format_string@?$output_processor@DV?$string_output_adapter@D@__crt_stdio_output@@V?$format_validation_base@DV?$string_output_adapter@D@__crt_stdio_output@@@2@@__crt_stdio_output@@AAE_NQAH@Z 1004d7c0 f i libucrtd:output.obj
 0001:0004c870       ?parse_int_from_format_string@?$output_processor@DV?$string_output_adapter@D@__crt_stdio_output@@V?$positional_parameter_base@DV?$string_output_adapter@D@__crt_stdio_output@@@2@@__crt_stdio_output@@AAE_NQAH@Z 1004d870 f i libucrtd:output.obj
 0001:0004c920       ?parse_int_from_format_string@?$output_processor@DV?$string_output_adapter@D@__crt_stdio_output@@V?$standard_base@DV?$string_output_adapter@D@__crt_stdio_output@@@2@@__crt_stdio_output@@AAE_NQAH@Z 1004d920 f i libucrtd:output.obj
 0001:0004c9d0       ?parse_int_from_format_string@?$output_processor@_WV?$stream_output_adapter@_W@__crt_stdio_output@@V?$format_validation_base@_WV?$stream_output_adapter@_W@__crt_stdio_output@@@2@@__crt_stdio_output@@AAE_NQAH@Z 1004d9d0 f i libucrtd:output.obj
 0001:0004ca80       ?parse_int_from_format_string@?$output_processor@_WV?$stream_output_adapter@_W@__crt_stdio_output@@V?$positional_parameter_base@_WV?$stream_output_adapter@_W@__crt_stdio_output@@@2@@__crt_stdio_output@@AAE_NQAH@Z 1004da80 f i libucrtd:output.obj
 0001:0004cb30       ?parse_int_from_format_string@?$output_processor@_WV?$stream_output_adapter@_W@__crt_stdio_output@@V?$standard_base@_WV?$stream_output_adapter@_W@__crt_stdio_output@@@2@@__crt_stdio_output@@AAE_NQAH@Z 1004db30 f i libucrtd:output.obj
 0001:0004cbe0       ?parse_int_from_format_string@?$output_processor@_WV?$string_output_adapter@_W@__crt_stdio_output@@V?$format_validation_base@_WV?$string_output_adapter@_W@__crt_stdio_output@@@2@@__crt_stdio_output@@AAE_NQAH@Z 1004dbe0 f i libucrtd:output.obj
 0001:0004cc90       ?parse_int_from_format_string@?$output_processor@_WV?$string_output_adapter@_W@__crt_stdio_output@@V?$positional_parameter_base@_WV?$string_output_adapter@_W@__crt_stdio_output@@@2@@__crt_stdio_output@@AAE_NQAH@Z 1004dc90 f i libucrtd:output.obj
 0001:0004cd40       ?parse_int_from_format_string@?$output_processor@_WV?$string_output_adapter@_W@__crt_stdio_output@@V?$standard_base@_WV?$string_output_adapter@_W@__crt_stdio_output@@@2@@__crt_stdio_output@@AAE_NQAH@Z 1004dd40 f i libucrtd:output.obj
 0001:0004cdf0       ?process@?$output_processor@DV?$stream_output_adapter@D@__crt_stdio_output@@V?$format_validation_base@DV?$stream_output_adapter@D@__crt_stdio_output@@@2@@__crt_stdio_output@@QAEHXZ 1004ddf0 f i libucrtd:output.obj
 0001:0004d0a0       ?process@?$output_processor@DV?$stream_output_adapter@D@__crt_stdio_output@@V?$positional_parameter_base@DV?$stream_output_adapter@D@__crt_stdio_output@@@2@@__crt_stdio_output@@QAEHXZ 1004e0a0 f i libucrtd:output.obj
 0001:0004d350       ?process@?$output_processor@DV?$stream_output_adapter@D@__crt_stdio_output@@V?$standard_base@DV?$stream_output_adapter@D@__crt_stdio_output@@@2@@__crt_stdio_output@@QAEHXZ 1004e350 f i libucrtd:output.obj
 0001:0004d600       ?process@?$output_processor@DV?$string_output_adapter@D@__crt_stdio_output@@V?$format_validation_base@DV?$string_output_adapter@D@__crt_stdio_output@@@2@@__crt_stdio_output@@QAEHXZ 1004e600 f i libucrtd:output.obj
 0001:0004d8b0       ?process@?$output_processor@DV?$string_output_adapter@D@__crt_stdio_output@@V?$positional_parameter_base@DV?$string_output_adapter@D@__crt_stdio_output@@@2@@__crt_stdio_output@@QAEHXZ 1004e8b0 f i libucrtd:output.obj
 0001:0004db60       ?process@?$output_processor@DV?$string_output_adapter@D@__crt_stdio_output@@V?$standard_base@DV?$string_output_adapter@D@__crt_stdio_output@@@2@@__crt_stdio_output@@QAEHXZ 1004eb60 f i libucrtd:output.obj
 0001:0004de10       ?process@?$output_processor@_WV?$stream_output_adapter@_W@__crt_stdio_output@@V?$format_validation_base@_WV?$stream_output_adapter@_W@__crt_stdio_output@@@2@@__crt_stdio_output@@QAEHXZ 1004ee10 f i libucrtd:output.obj
 0001:0004e0c0       ?process@?$output_processor@_WV?$stream_output_adapter@_W@__crt_stdio_output@@V?$positional_parameter_base@_WV?$stream_output_adapter@_W@__crt_stdio_output@@@2@@__crt_stdio_output@@QAEHXZ 1004f0c0 f i libucrtd:output.obj
 0001:0004e370       ?process@?$output_processor@_WV?$stream_output_adapter@_W@__crt_stdio_output@@V?$standard_base@_WV?$stream_output_adapter@_W@__crt_stdio_output@@@2@@__crt_stdio_output@@QAEHXZ 1004f370 f i libucrtd:output.obj
 0001:0004e620       ?process@?$output_processor@_WV?$string_output_adapter@_W@__crt_stdio_output@@V?$format_validation_base@_WV?$string_output_adapter@_W@__crt_stdio_output@@@2@@__crt_stdio_output@@QAEHXZ 1004f620 f i libucrtd:output.obj
 0001:0004e8d0       ?process@?$output_processor@_WV?$string_output_adapter@_W@__crt_stdio_output@@V?$positional_parameter_base@_WV?$string_output_adapter@_W@__crt_stdio_output@@@2@@__crt_stdio_output@@QAEHXZ 1004f8d0 f i libucrtd:output.obj
 0001:0004eb80       ?process@?$output_processor@_WV?$string_output_adapter@_W@__crt_stdio_output@@V?$standard_base@_WV?$string_output_adapter@_W@__crt_stdio_output@@@2@@__crt_stdio_output@@QAEHXZ 1004fb80 f i libucrtd:output.obj
 0001:0004ee30       ?public_stream@__crt_stdio_stream@@QBEPAU_iobuf@@XZ 1004fe30 f i libucrtd:output.obj
 0001:0004ee50       ?set_flag@?$output_processor@DV?$stream_output_adapter@D@__crt_stdio_output@@V?$format_validation_base@DV?$stream_output_adapter@D@__crt_stdio_output@@@2@@__crt_stdio_output@@AAEXI@Z 1004fe50 f i libucrtd:output.obj
 0001:0004ee70       ?set_flag@?$output_processor@DV?$stream_output_adapter@D@__crt_stdio_output@@V?$positional_parameter_base@DV?$stream_output_adapter@D@__crt_stdio_output@@@2@@__crt_stdio_output@@AAEXI@Z 1004fe70 f i libucrtd:output.obj
 0001:0004ee90       ?set_flag@?$output_processor@DV?$stream_output_adapter@D@__crt_stdio_output@@V?$standard_base@DV?$stream_output_adapter@D@__crt_stdio_output@@@2@@__crt_stdio_output@@AAEXI@Z 1004fe90 f i libucrtd:output.obj
 0001:0004eeb0       ?set_flag@?$output_processor@DV?$string_output_adapter@D@__crt_stdio_output@@V?$format_validation_base@DV?$string_output_adapter@D@__crt_stdio_output@@@2@@__crt_stdio_output@@AAEXI@Z 1004feb0 f i libucrtd:output.obj
 0001:0004eed0       ?set_flag@?$output_processor@DV?$string_output_adapter@D@__crt_stdio_output@@V?$positional_parameter_base@DV?$string_output_adapter@D@__crt_stdio_output@@@2@@__crt_stdio_output@@AAEXI@Z 1004fed0 f i libucrtd:output.obj
 0001:0004eef0       ?set_flag@?$output_processor@DV?$string_output_adapter@D@__crt_stdio_output@@V?$standard_base@DV?$string_output_adapter@D@__crt_stdio_output@@@2@@__crt_stdio_output@@AAEXI@Z 1004fef0 f i libucrtd:output.obj
 0001:0004ef10       ?set_flag@?$output_processor@_WV?$stream_output_adapter@_W@__crt_stdio_output@@V?$format_validation_base@_WV?$stream_output_adapter@_W@__crt_stdio_output@@@2@@__crt_stdio_output@@AAEXI@Z 1004ff10 f i libucrtd:output.obj
 0001:0004ef30       ?set_flag@?$output_processor@_WV?$stream_output_adapter@_W@__crt_stdio_output@@V?$positional_parameter_base@_WV?$stream_output_adapter@_W@__crt_stdio_output@@@2@@__crt_stdio_output@@AAEXI@Z 1004ff30 f i libucrtd:output.obj
 0001:0004ef50       ?set_flag@?$output_processor@_WV?$stream_output_adapter@_W@__crt_stdio_output@@V?$standard_base@_WV?$stream_output_adapter@_W@__crt_stdio_output@@@2@@__crt_stdio_output@@AAEXI@Z 1004ff50 f i libucrtd:output.obj
 0001:0004ef70       ?set_flag@?$output_processor@_WV?$string_output_adapter@_W@__crt_stdio_output@@V?$format_validation_base@_WV?$string_output_adapter@_W@__crt_stdio_output@@@2@@__crt_stdio_output@@AAEXI@Z 1004ff70 f i libucrtd:output.obj
 0001:0004ef90       ?set_flag@?$output_processor@_WV?$string_output_adapter@_W@__crt_stdio_output@@V?$positional_parameter_base@_WV?$string_output_adapter@_W@__crt_stdio_output@@@2@@__crt_stdio_output@@AAEXI@Z 1004ff90 f i libucrtd:output.obj
 0001:0004efb0       ?set_flag@?$output_processor@_WV?$string_output_adapter@_W@__crt_stdio_output@@V?$standard_base@_WV?$string_output_adapter@_W@__crt_stdio_output@@@2@@__crt_stdio_output@@AAEXI@Z 1004ffb0 f i libucrtd:output.obj
 0001:0004efd0       ?should_format@?$positional_parameter_base@DV?$stream_output_adapter@D@__crt_stdio_output@@@__crt_stdio_output@@IAE_NXZ 1004ffd0 f i libucrtd:output.obj
 0001:0004f010       ?should_format@?$positional_parameter_base@DV?$string_output_adapter@D@__crt_stdio_output@@@__crt_stdio_output@@IAE_NXZ 10050010 f i libucrtd:output.obj
 0001:0004f050       ?should_format@?$positional_parameter_base@_WV?$stream_output_adapter@_W@__crt_stdio_output@@@__crt_stdio_output@@IAE_NXZ 10050050 f i libucrtd:output.obj
 0001:0004f090       ?should_format@?$positional_parameter_base@_WV?$string_output_adapter@_W@__crt_stdio_output@@@__crt_stdio_output@@IAE_NXZ 10050090 f i libucrtd:output.obj
 0001:0004f0d0       ?should_format@?$standard_base@DV?$stream_output_adapter@D@__crt_stdio_output@@@__crt_stdio_output@@IAE_NXZ 100500d0 f i libucrtd:output.obj
 0001:0004f0e0       ?should_format@?$standard_base@DV?$string_output_adapter@D@__crt_stdio_output@@@__crt_stdio_output@@IAE_NXZ 100500e0 f i libucrtd:output.obj
 0001:0004f0f0       ?should_format@?$standard_base@_WV?$stream_output_adapter@_W@__crt_stdio_output@@@__crt_stdio_output@@IAE_NXZ 100500f0 f i libucrtd:output.obj
 0001:0004f100       ?should_format@?$standard_base@_WV?$string_output_adapter@_W@__crt_stdio_output@@@__crt_stdio_output@@IAE_NXZ 10050100 f i libucrtd:output.obj
 0001:0004f110       ?should_skip_normal_state_processing@?$positional_parameter_base@DV?$stream_output_adapter@D@__crt_stdio_output@@@__crt_stdio_output@@IAE_NXZ 10050110 f i libucrtd:output.obj
 0001:0004f160       ?should_skip_normal_state_processing@?$positional_parameter_base@DV?$string_output_adapter@D@__crt_stdio_output@@@__crt_stdio_output@@IAE_NXZ 10050160 f i libucrtd:output.obj
 0001:0004f1b0       ?should_skip_normal_state_processing@?$positional_parameter_base@_WV?$stream_output_adapter@_W@__crt_stdio_output@@@__crt_stdio_output@@IAE_NXZ 100501b0 f i libucrtd:output.obj
 0001:0004f200       ?should_skip_normal_state_processing@?$positional_parameter_base@_WV?$string_output_adapter@_W@__crt_stdio_output@@@__crt_stdio_output@@IAE_NXZ 10050200 f i libucrtd:output.obj
 0001:0004f250       ?should_skip_normal_state_processing@?$standard_base@DV?$stream_output_adapter@D@__crt_stdio_output@@@__crt_stdio_output@@IAE_NXZ 10050250 f i libucrtd:output.obj
 0001:0004f260       ?should_skip_normal_state_processing@?$standard_base@DV?$string_output_adapter@D@__crt_stdio_output@@@__crt_stdio_output@@IAE_NXZ 10050260 f i libucrtd:output.obj
 0001:0004f270       ?should_skip_normal_state_processing@?$standard_base@_WV?$stream_output_adapter@_W@__crt_stdio_output@@@__crt_stdio_output@@IAE_NXZ 10050270 f i libucrtd:output.obj
 0001:0004f280       ?should_skip_normal_state_processing@?$standard_base@_WV?$string_output_adapter@_W@__crt_stdio_output@@@__crt_stdio_output@@IAE_NXZ 10050280 f i libucrtd:output.obj
 0001:0004f290       ?should_skip_type_state_output@?$positional_parameter_base@DV?$stream_output_adapter@D@__crt_stdio_output@@@__crt_stdio_output@@IBE_NXZ 10050290 f i libucrtd:output.obj
 0001:0004f2d0       ?should_skip_type_state_output@?$positional_parameter_base@DV?$string_output_adapter@D@__crt_stdio_output@@@__crt_stdio_output@@IBE_NXZ 100502d0 f i libucrtd:output.obj
 0001:0004f310       ?should_skip_type_state_output@?$positional_parameter_base@_WV?$stream_output_adapter@_W@__crt_stdio_output@@@__crt_stdio_output@@IBE_NXZ 10050310 f i libucrtd:output.obj
 0001:0004f350       ?should_skip_type_state_output@?$positional_parameter_base@_WV?$string_output_adapter@_W@__crt_stdio_output@@@__crt_stdio_output@@IBE_NXZ 10050350 f i libucrtd:output.obj
 0001:0004f390       ?should_skip_type_state_output@?$standard_base@DV?$stream_output_adapter@D@__crt_stdio_output@@@__crt_stdio_output@@IBE_NXZ 10050390 f i libucrtd:output.obj
 0001:0004f3a0       ?should_skip_type_state_output@?$standard_base@DV?$string_output_adapter@D@__crt_stdio_output@@@__crt_stdio_output@@IBE_NXZ 100503a0 f i libucrtd:output.obj
 0001:0004f3b0       ?should_skip_type_state_output@?$standard_base@_WV?$stream_output_adapter@_W@__crt_stdio_output@@@__crt_stdio_output@@IBE_NXZ 100503b0 f i libucrtd:output.obj
 0001:0004f3c0       ?should_skip_type_state_output@?$standard_base@_WV?$string_output_adapter@_W@__crt_stdio_output@@@__crt_stdio_output@@IBE_NXZ 100503c0 f i libucrtd:output.obj
 0001:0004f3d0       ?state_case_dot@?$output_processor@DV?$stream_output_adapter@D@__crt_stdio_output@@V?$format_validation_base@DV?$stream_output_adapter@D@__crt_stdio_output@@@2@@__crt_stdio_output@@AAE_NXZ 100503d0 f i libucrtd:output.obj
 0001:0004f3f0       ?state_case_dot@?$output_processor@DV?$stream_output_adapter@D@__crt_stdio_output@@V?$positional_parameter_base@DV?$stream_output_adapter@D@__crt_stdio_output@@@2@@__crt_stdio_output@@AAE_NXZ 100503f0 f i libucrtd:output.obj
 0001:0004f410       ?state_case_dot@?$output_processor@DV?$stream_output_adapter@D@__crt_stdio_output@@V?$standard_base@DV?$stream_output_adapter@D@__crt_stdio_output@@@2@@__crt_stdio_output@@AAE_NXZ 10050410 f i libucrtd:output.obj
 0001:0004f430       ?state_case_dot@?$output_processor@DV?$string_output_adapter@D@__crt_stdio_output@@V?$format_validation_base@DV?$string_output_adapter@D@__crt_stdio_output@@@2@@__crt_stdio_output@@AAE_NXZ 10050430 f i libucrtd:output.obj
 0001:0004f450       ?state_case_dot@?$output_processor@DV?$string_output_adapter@D@__crt_stdio_output@@V?$positional_parameter_base@DV?$string_output_adapter@D@__crt_stdio_output@@@2@@__crt_stdio_output@@AAE_NXZ 10050450 f i libucrtd:output.obj
 0001:0004f470       ?state_case_dot@?$output_processor@DV?$string_output_adapter@D@__crt_stdio_output@@V?$standard_base@DV?$string_output_adapter@D@__crt_stdio_output@@@2@@__crt_stdio_output@@AAE_NXZ 10050470 f i libucrtd:output.obj
 0001:0004f490       ?state_case_dot@?$output_processor@_WV?$stream_output_adapter@_W@__crt_stdio_output@@V?$format_validation_base@_WV?$stream_output_adapter@_W@__crt_stdio_output@@@2@@__crt_stdio_output@@AAE_NXZ 10050490 f i libucrtd:output.obj
 0001:0004f4b0       ?state_case_dot@?$output_processor@_WV?$stream_output_adapter@_W@__crt_stdio_output@@V?$positional_parameter_base@_WV?$stream_output_adapter@_W@__crt_stdio_output@@@2@@__crt_stdio_output@@AAE_NXZ 100504b0 f i libucrtd:output.obj
 0001:0004f4d0       ?state_case_dot@?$output_processor@_WV?$stream_output_adapter@_W@__crt_stdio_output@@V?$standard_base@_WV?$stream_output_adapter@_W@__crt_stdio_output@@@2@@__crt_stdio_output@@AAE_NXZ 100504d0 f i libucrtd:output.obj
 0001:0004f4f0       ?state_case_dot@?$output_processor@_WV?$string_output_adapter@_W@__crt_stdio_output@@V?$format_validation_base@_WV?$string_output_adapter@_W@__crt_stdio_output@@@2@@__crt_stdio_output@@AAE_NXZ 100504f0 f i libucrtd:output.obj
 0001:0004f510       ?state_case_dot@?$output_processor@_WV?$string_output_adapter@_W@__crt_stdio_output@@V?$positional_parameter_base@_WV?$string_output_adapter@_W@__crt_stdio_output@@@2@@__crt_stdio_output@@AAE_NXZ 10050510 f i libucrtd:output.obj
 0001:0004f530       ?state_case_dot@?$output_processor@_WV?$string_output_adapter@_W@__crt_stdio_output@@V?$standard_base@_WV?$string_output_adapter@_W@__crt_stdio_output@@@2@@__crt_stdio_output@@AAE_NXZ 10050530 f i libucrtd:output.obj
 0001:0004f550       ?state_case_flag@?$output_processor@DV?$stream_output_adapter@D@__crt_stdio_output@@V?$format_validation_base@DV?$stream_output_adapter@D@__crt_stdio_output@@@2@@__crt_stdio_output@@AAE_NXZ 10050550 f i libucrtd:output.obj
 0001:0004f600       ?state_case_flag@?$output_processor@DV?$stream_output_adapter@D@__crt_stdio_output@@V?$positional_parameter_base@DV?$stream_output_adapter@D@__crt_stdio_output@@@2@@__crt_stdio_output@@AAE_NXZ 10050600 f i libucrtd:output.obj
 0001:0004f6b0       ?state_case_flag@?$output_processor@DV?$stream_output_adapter@D@__crt_stdio_output@@V?$standard_base@DV?$stream_output_adapter@D@__crt_stdio_output@@@2@@__crt_stdio_output@@AAE_NXZ 100506b0 f i libucrtd:output.obj
 0001:0004f760       ?state_case_flag@?$output_processor@DV?$string_output_adapter@D@__crt_stdio_output@@V?$format_validation_base@DV?$string_output_adapter@D@__crt_stdio_output@@@2@@__crt_stdio_output@@AAE_NXZ 10050760 f i libucrtd:output.obj
 0001:0004f810       ?state_case_flag@?$output_processor@DV?$string_output_adapter@D@__crt_stdio_output@@V?$positional_parameter_base@DV?$string_output_adapter@D@__crt_stdio_output@@@2@@__crt_stdio_output@@AAE_NXZ 10050810 f i libucrtd:output.obj
 0001:0004f8c0       ?state_case_flag@?$output_processor@DV?$string_output_adapter@D@__crt_stdio_output@@V?$standard_base@DV?$string_output_adapter@D@__crt_stdio_output@@@2@@__crt_stdio_output@@AAE_NXZ 100508c0 f i libucrtd:output.obj
 0001:0004f970       ?state_case_flag@?$output_processor@_WV?$stream_output_adapter@_W@__crt_stdio_output@@V?$format_validation_base@_WV?$stream_output_adapter@_W@__crt_stdio_output@@@2@@__crt_stdio_output@@AAE_NXZ 10050970 f i libucrtd:output.obj
 0001:0004fa20       ?state_case_flag@?$output_processor@_WV?$stream_output_adapter@_W@__crt_stdio_output@@V?$positional_parameter_base@_WV?$stream_output_adapter@_W@__crt_stdio_output@@@2@@__crt_stdio_output@@AAE_NXZ 10050a20 f i libucrtd:output.obj
 0001:0004fad0       ?state_case_flag@?$output_processor@_WV?$stream_output_adapter@_W@__crt_stdio_output@@V?$standard_base@_WV?$stream_output_adapter@_W@__crt_stdio_output@@@2@@__crt_stdio_output@@AAE_NXZ 10050ad0 f i libucrtd:output.obj
 0001:0004fb80       ?state_case_flag@?$output_processor@_WV?$string_output_adapter@_W@__crt_stdio_output@@V?$format_validation_base@_WV?$string_output_adapter@_W@__crt_stdio_output@@@2@@__crt_stdio_output@@AAE_NXZ 10050b80 f i libucrtd:output.obj
 0001:0004fc30       ?state_case_flag@?$output_processor@_WV?$string_output_adapter@_W@__crt_stdio_output@@V?$positional_parameter_base@_WV?$string_output_adapter@_W@__crt_stdio_output@@@2@@__crt_stdio_output@@AAE_NXZ 10050c30 f i libucrtd:output.obj
 0001:0004fce0       ?state_case_flag@?$output_processor@_WV?$string_output_adapter@_W@__crt_stdio_output@@V?$standard_base@_WV?$string_output_adapter@_W@__crt_stdio_output@@@2@@__crt_stdio_output@@AAE_NXZ 10050ce0 f i libucrtd:output.obj
 0001:0004fd90       ?state_case_normal@?$output_processor@DV?$stream_output_adapter@D@__crt_stdio_output@@V?$format_validation_base@DV?$stream_output_adapter@D@__crt_stdio_output@@@2@@__crt_stdio_output@@AAE_NXZ 10050d90 f i libucrtd:output.obj
 0001:0004fe40       ?state_case_normal@?$output_processor@DV?$stream_output_adapter@D@__crt_stdio_output@@V?$positional_parameter_base@DV?$stream_output_adapter@D@__crt_stdio_output@@@2@@__crt_stdio_output@@AAE_NXZ 10050e40 f i libucrtd:output.obj
 0001:0004fef0       ?state_case_normal@?$output_processor@DV?$stream_output_adapter@D@__crt_stdio_output@@V?$standard_base@DV?$stream_output_adapter@D@__crt_stdio_output@@@2@@__crt_stdio_output@@AAE_NXZ 10050ef0 f i libucrtd:output.obj
 0001:0004ffa0       ?state_case_normal@?$output_processor@DV?$string_output_adapter@D@__crt_stdio_output@@V?$format_validation_base@DV?$string_output_adapter@D@__crt_stdio_output@@@2@@__crt_stdio_output@@AAE_NXZ 10050fa0 f i libucrtd:output.obj
 0001:00050050       ?state_case_normal@?$output_processor@DV?$string_output_adapter@D@__crt_stdio_output@@V?$positional_parameter_base@DV?$string_output_adapter@D@__crt_stdio_output@@@2@@__crt_stdio_output@@AAE_NXZ 10051050 f i libucrtd:output.obj
 0001:00050100       ?state_case_normal@?$output_processor@DV?$string_output_adapter@D@__crt_stdio_output@@V?$standard_base@DV?$string_output_adapter@D@__crt_stdio_output@@@2@@__crt_stdio_output@@AAE_NXZ 10051100 f i libucrtd:output.obj
 0001:000501b0       ?state_case_normal@?$output_processor@_WV?$stream_output_adapter@_W@__crt_stdio_output@@V?$format_validation_base@_WV?$stream_output_adapter@_W@__crt_stdio_output@@@2@@__crt_stdio_output@@AAE_NXZ 100511b0 f i libucrtd:output.obj
 0001:00050260       ?state_case_normal@?$output_processor@_WV?$stream_output_adapter@_W@__crt_stdio_output@@V?$positional_parameter_base@_WV?$stream_output_adapter@_W@__crt_stdio_output@@@2@@__crt_stdio_output@@AAE_NXZ 10051260 f i libucrtd:output.obj
 0001:00050310       ?state_case_normal@?$output_processor@_WV?$stream_output_adapter@_W@__crt_stdio_output@@V?$standard_base@_WV?$stream_output_adapter@_W@__crt_stdio_output@@@2@@__crt_stdio_output@@AAE_NXZ 10051310 f i libucrtd:output.obj
 0001:000503c0       ?state_case_normal@?$output_processor@_WV?$string_output_adapter@_W@__crt_stdio_output@@V?$format_validation_base@_WV?$string_output_adapter@_W@__crt_stdio_output@@@2@@__crt_stdio_output@@AAE_NXZ 100513c0 f i libucrtd:output.obj
 0001:00050470       ?state_case_normal@?$output_processor@_WV?$string_output_adapter@_W@__crt_stdio_output@@V?$positional_parameter_base@_WV?$string_output_adapter@_W@__crt_stdio_output@@@2@@__crt_stdio_output@@AAE_NXZ 10051470 f i libucrtd:output.obj
 0001:00050520       ?state_case_normal@?$output_processor@_WV?$string_output_adapter@_W@__crt_stdio_output@@V?$standard_base@_WV?$string_output_adapter@_W@__crt_stdio_output@@@2@@__crt_stdio_output@@AAE_NXZ 10051520 f i libucrtd:output.obj
 0001:000505d0       ?state_case_normal_common@?$output_processor@DV?$stream_output_adapter@D@__crt_stdio_output@@V?$format_validation_base@DV?$stream_output_adapter@D@__crt_stdio_output@@@2@@__crt_stdio_output@@AAE_NXZ 100515d0 f i libucrtd:output.obj
 0001:00050620       ?state_case_normal_common@?$output_processor@DV?$stream_output_adapter@D@__crt_stdio_output@@V?$positional_parameter_base@DV?$stream_output_adapter@D@__crt_stdio_output@@@2@@__crt_stdio_output@@AAE_NXZ 10051620 f i libucrtd:output.obj
 0001:00050670       ?state_case_normal_common@?$output_processor@DV?$stream_output_adapter@D@__crt_stdio_output@@V?$standard_base@DV?$stream_output_adapter@D@__crt_stdio_output@@@2@@__crt_stdio_output@@AAE_NXZ 10051670 f i libucrtd:output.obj
 0001:000506c0       ?state_case_normal_common@?$output_processor@DV?$string_output_adapter@D@__crt_stdio_output@@V?$format_validation_base@DV?$string_output_adapter@D@__crt_stdio_output@@@2@@__crt_stdio_output@@AAE_NXZ 100516c0 f i libucrtd:output.obj
 0001:00050710       ?state_case_normal_common@?$output_processor@DV?$string_output_adapter@D@__crt_stdio_output@@V?$positional_parameter_base@DV?$string_output_adapter@D@__crt_stdio_output@@@2@@__crt_stdio_output@@AAE_NXZ 10051710 f i libucrtd:output.obj
 0001:00050760       ?state_case_normal_common@?$output_processor@DV?$string_output_adapter@D@__crt_stdio_output@@V?$standard_base@DV?$string_output_adapter@D@__crt_stdio_output@@@2@@__crt_stdio_output@@AAE_NXZ 10051760 f i libucrtd:output.obj
 0001:000507b0       ?state_case_normal_common@?$output_processor@_WV?$stream_output_adapter@_W@__crt_stdio_output@@V?$format_validation_base@_WV?$stream_output_adapter@_W@__crt_stdio_output@@@2@@__crt_stdio_output@@AAE_NXZ 100517b0 f i libucrtd:output.obj
 0001:00050800       ?state_case_normal_common@?$output_processor@_WV?$stream_output_adapter@_W@__crt_stdio_output@@V?$positional_parameter_base@_WV?$stream_output_adapter@_W@__crt_stdio_output@@@2@@__crt_stdio_output@@AAE_NXZ 10051800 f i libucrtd:output.obj
 0001:00050850       ?state_case_normal_common@?$output_processor@_WV?$stream_output_adapter@_W@__crt_stdio_output@@V?$standard_base@_WV?$stream_output_adapter@_W@__crt_stdio_output@@@2@@__crt_stdio_output@@AAE_NXZ 10051850 f i libucrtd:output.obj
 0001:000508a0       ?state_case_normal_common@?$output_processor@_WV?$string_output_adapter@_W@__crt_stdio_output@@V?$format_validation_base@_WV?$string_output_adapter@_W@__crt_stdio_output@@@2@@__crt_stdio_output@@AAE_NXZ 100518a0 f i libucrtd:output.obj
 0001:000508f0       ?state_case_normal_common@?$output_processor@_WV?$string_output_adapter@_W@__crt_stdio_output@@V?$positional_parameter_base@_WV?$string_output_adapter@_W@__crt_stdio_output@@@2@@__crt_stdio_output@@AAE_NXZ 100518f0 f i libucrtd:output.obj
 0001:00050940       ?state_case_normal_common@?$output_processor@_WV?$string_output_adapter@_W@__crt_stdio_output@@V?$standard_base@_WV?$string_output_adapter@_W@__crt_stdio_output@@@2@@__crt_stdio_output@@AAE_NXZ 10051940 f i libucrtd:output.obj
 0001:00050990       ?state_case_normal_tchar@?$output_processor@DV?$stream_output_adapter@D@__crt_stdio_output@@V?$format_validation_base@DV?$stream_output_adapter@D@__crt_stdio_output@@@2@@__crt_stdio_output@@AAE_ND@Z 10051990 f i libucrtd:output.obj
 0001:00050a90       ?state_case_normal_tchar@?$output_processor@DV?$stream_output_adapter@D@__crt_stdio_output@@V?$positional_parameter_base@DV?$stream_output_adapter@D@__crt_stdio_output@@@2@@__crt_stdio_output@@AAE_ND@Z 10051a90 f i libucrtd:output.obj
 0001:00050b90       ?state_case_normal_tchar@?$output_processor@DV?$stream_output_adapter@D@__crt_stdio_output@@V?$standard_base@DV?$stream_output_adapter@D@__crt_stdio_output@@@2@@__crt_stdio_output@@AAE_ND@Z 10051b90 f i libucrtd:output.obj
 0001:00050c90       ?state_case_normal_tchar@?$output_processor@DV?$string_output_adapter@D@__crt_stdio_output@@V?$format_validation_base@DV?$string_output_adapter@D@__crt_stdio_output@@@2@@__crt_stdio_output@@AAE_ND@Z 10051c90 f i libucrtd:output.obj
 0001:00050d90       ?state_case_normal_tchar@?$output_processor@DV?$string_output_adapter@D@__crt_stdio_output@@V?$positional_parameter_base@DV?$string_output_adapter@D@__crt_stdio_output@@@2@@__crt_stdio_output@@AAE_ND@Z 10051d90 f i libucrtd:output.obj
 0001:00050e90       ?state_case_normal_tchar@?$output_processor@DV?$string_output_adapter@D@__crt_stdio_output@@V?$standard_base@DV?$string_output_adapter@D@__crt_stdio_output@@@2@@__crt_stdio_output@@AAE_ND@Z 10051e90 f i libucrtd:output.obj
 0001:00050f90       ?state_case_normal_tchar@?$output_processor@_WV?$stream_output_adapter@_W@__crt_stdio_output@@V?$format_validation_base@_WV?$stream_output_adapter@_W@__crt_stdio_output@@@2@@__crt_stdio_output@@AAE_N_W@Z 10051f90 f i libucrtd:output.obj
 0001:00050fb0       ?state_case_normal_tchar@?$output_processor@_WV?$stream_output_adapter@_W@__crt_stdio_output@@V?$positional_parameter_base@_WV?$stream_output_adapter@_W@__crt_stdio_output@@@2@@__crt_stdio_output@@AAE_N_W@Z 10051fb0 f i libucrtd:output.obj
 0001:00050fd0       ?state_case_normal_tchar@?$output_processor@_WV?$stream_output_adapter@_W@__crt_stdio_output@@V?$standard_base@_WV?$stream_output_adapter@_W@__crt_stdio_output@@@2@@__crt_stdio_output@@AAE_N_W@Z 10051fd0 f i libucrtd:output.obj
 0001:00050ff0       ?state_case_normal_tchar@?$output_processor@_WV?$string_output_adapter@_W@__crt_stdio_output@@V?$format_validation_base@_WV?$string_output_adapter@_W@__crt_stdio_output@@@2@@__crt_stdio_output@@AAE_N_W@Z 10051ff0 f i libucrtd:output.obj
 0001:00051010       ?state_case_normal_tchar@?$output_processor@_WV?$string_output_adapter@_W@__crt_stdio_output@@V?$positional_parameter_base@_WV?$string_output_adapter@_W@__crt_stdio_output@@@2@@__crt_stdio_output@@AAE_N_W@Z 10052010 f i libucrtd:output.obj
 0001:00051030       ?state_case_normal_tchar@?$output_processor@_WV?$string_output_adapter@_W@__crt_stdio_output@@V?$standard_base@_WV?$string_output_adapter@_W@__crt_stdio_output@@@2@@__crt_stdio_output@@AAE_N_W@Z 10052030 f i libucrtd:output.obj
 0001:00051050       ?state_case_percent@?$output_processor@DV?$stream_output_adapter@D@__crt_stdio_output@@V?$format_validation_base@DV?$stream_output_adapter@D@__crt_stdio_output@@@2@@__crt_stdio_output@@AAE_NXZ 10052050 f i libucrtd:output.obj
 0001:000510a0       ?state_case_percent@?$output_processor@DV?$stream_output_adapter@D@__crt_stdio_output@@V?$positional_parameter_base@DV?$stream_output_adapter@D@__crt_stdio_output@@@2@@__crt_stdio_output@@AAE_NXZ 100520a0 f i libucrtd:output.obj
 0001:000510f0       ?state_case_percent@?$output_processor@DV?$stream_output_adapter@D@__crt_stdio_output@@V?$standard_base@DV?$stream_output_adapter@D@__crt_stdio_output@@@2@@__crt_stdio_output@@AAE_NXZ 100520f0 f i libucrtd:output.obj
 0001:00051140       ?state_case_percent@?$output_processor@DV?$string_output_adapter@D@__crt_stdio_output@@V?$format_validation_base@DV?$string_output_adapter@D@__crt_stdio_output@@@2@@__crt_stdio_output@@AAE_NXZ 10052140 f i libucrtd:output.obj
 0001:00051190       ?state_case_percent@?$output_processor@DV?$string_output_adapter@D@__crt_stdio_output@@V?$positional_parameter_base@DV?$string_output_adapter@D@__crt_stdio_output@@@2@@__crt_stdio_output@@AAE_NXZ 10052190 f i libucrtd:output.obj
 0001:000511e0       ?state_case_percent@?$output_processor@DV?$string_output_adapter@D@__crt_stdio_output@@V?$standard_base@DV?$string_output_adapter@D@__crt_stdio_output@@@2@@__crt_stdio_output@@AAE_NXZ 100521e0 f i libucrtd:output.obj
 0001:00051230       ?state_case_percent@?$output_processor@_WV?$stream_output_adapter@_W@__crt_stdio_output@@V?$format_validation_base@_WV?$stream_output_adapter@_W@__crt_stdio_output@@@2@@__crt_stdio_output@@AAE_NXZ 10052230 f i libucrtd:output.obj
 0001:00051280       ?state_case_percent@?$output_processor@_WV?$stream_output_adapter@_W@__crt_stdio_output@@V?$positional_parameter_base@_WV?$stream_output_adapter@_W@__crt_stdio_output@@@2@@__crt_stdio_output@@AAE_NXZ 10052280 f i libucrtd:output.obj
 0001:000512d0       ?state_case_percent@?$output_processor@_WV?$stream_output_adapter@_W@__crt_stdio_output@@V?$standard_base@_WV?$stream_output_adapter@_W@__crt_stdio_output@@@2@@__crt_stdio_output@@AAE_NXZ 100522d0 f i libucrtd:output.obj
 0001:00051320       ?state_case_percent@?$output_processor@_WV?$string_output_adapter@_W@__crt_stdio_output@@V?$format_validation_base@_WV?$string_output_adapter@_W@__crt_stdio_output@@@2@@__crt_stdio_output@@AAE_NXZ 10052320 f i libucrtd:output.obj
 0001:00051370       ?state_case_percent@?$output_processor@_WV?$string_output_adapter@_W@__crt_stdio_output@@V?$positional_parameter_base@_WV?$string_output_adapter@_W@__crt_stdio_output@@@2@@__crt_stdio_output@@AAE_NXZ 10052370 f i libucrtd:output.obj
 0001:000513c0       ?state_case_percent@?$output_processor@_WV?$string_output_adapter@_W@__crt_stdio_output@@V?$standard_base@_WV?$string_output_adapter@_W@__crt_stdio_output@@@2@@__crt_stdio_output@@AAE_NXZ 100523c0 f i libucrtd:output.obj
 0001:00051410       ?state_case_precision@?$output_processor@DV?$stream_output_adapter@D@__crt_stdio_output@@V?$format_validation_base@DV?$stream_output_adapter@D@__crt_stdio_output@@@2@@__crt_stdio_output@@AAE_NXZ 10052410 f i libucrtd:output.obj
 0001:00051480       ?state_case_precision@?$output_processor@DV?$stream_output_adapter@D@__crt_stdio_output@@V?$positional_parameter_base@DV?$stream_output_adapter@D@__crt_stdio_output@@@2@@__crt_stdio_output@@AAE_NXZ 10052480 f i libucrtd:output.obj
 0001:000514f0       ?state_case_precision@?$output_processor@DV?$stream_output_adapter@D@__crt_stdio_output@@V?$standard_base@DV?$stream_output_adapter@D@__crt_stdio_output@@@2@@__crt_stdio_output@@AAE_NXZ 100524f0 f i libucrtd:output.obj
 0001:00051560       ?state_case_precision@?$output_processor@DV?$string_output_adapter@D@__crt_stdio_output@@V?$format_validation_base@DV?$string_output_adapter@D@__crt_stdio_output@@@2@@__crt_stdio_output@@AAE_NXZ 10052560 f i libucrtd:output.obj
 0001:000515d0       ?state_case_precision@?$output_processor@DV?$string_output_adapter@D@__crt_stdio_output@@V?$positional_parameter_base@DV?$string_output_adapter@D@__crt_stdio_output@@@2@@__crt_stdio_output@@AAE_NXZ 100525d0 f i libucrtd:output.obj
 0001:00051640       ?state_case_precision@?$output_processor@DV?$string_output_adapter@D@__crt_stdio_output@@V?$standard_base@DV?$string_output_adapter@D@__crt_stdio_output@@@2@@__crt_stdio_output@@AAE_NXZ 10052640 f i libucrtd:output.obj
 0001:000516b0       ?state_case_precision@?$output_processor@_WV?$stream_output_adapter@_W@__crt_stdio_output@@V?$format_validation_base@_WV?$stream_output_adapter@_W@__crt_stdio_output@@@2@@__crt_stdio_output@@AAE_NXZ 100526b0 f i libucrtd:output.obj
 0001:00051720       ?state_case_precision@?$output_processor@_WV?$stream_output_adapter@_W@__crt_stdio_output@@V?$positional_parameter_base@_WV?$stream_output_adapter@_W@__crt_stdio_output@@@2@@__crt_stdio_output@@AAE_NXZ 10052720 f i libucrtd:output.obj
 0001:00051790       ?state_case_precision@?$output_processor@_WV?$stream_output_adapter@_W@__crt_stdio_output@@V?$standard_base@_WV?$stream_output_adapter@_W@__crt_stdio_output@@@2@@__crt_stdio_output@@AAE_NXZ 10052790 f i libucrtd:output.obj
 0001:00051800       ?state_case_precision@?$output_processor@_WV?$string_output_adapter@_W@__crt_stdio_output@@V?$format_validation_base@_WV?$string_output_adapter@_W@__crt_stdio_output@@@2@@__crt_stdio_output@@AAE_NXZ 10052800 f i libucrtd:output.obj
 0001:00051870       ?state_case_precision@?$output_processor@_WV?$string_output_adapter@_W@__crt_stdio_output@@V?$positional_parameter_base@_WV?$string_output_adapter@_W@__crt_stdio_output@@@2@@__crt_stdio_output@@AAE_NXZ 10052870 f i libucrtd:output.obj
 0001:000518e0       ?state_case_precision@?$output_processor@_WV?$string_output_adapter@_W@__crt_stdio_output@@V?$standard_base@_WV?$string_output_adapter@_W@__crt_stdio_output@@@2@@__crt_stdio_output@@AAE_NXZ 100528e0 f i libucrtd:output.obj
 0001:00051950       ?state_case_size@?$output_processor@DV?$stream_output_adapter@D@__crt_stdio_output@@V?$format_validation_base@DV?$stream_output_adapter@D@__crt_stdio_output@@@2@@__crt_stdio_output@@AAE_NXZ 10052950 f i libucrtd:output.obj
 0001:00051d20       ?state_case_size@?$output_processor@DV?$stream_output_adapter@D@__crt_stdio_output@@V?$positional_parameter_base@DV?$stream_output_adapter@D@__crt_stdio_output@@@2@@__crt_stdio_output@@AAE_NXZ 10052d20 f i libucrtd:output.obj
 0001:000520f0       ?state_case_size@?$output_processor@DV?$stream_output_adapter@D@__crt_stdio_output@@V?$standard_base@DV?$stream_output_adapter@D@__crt_stdio_output@@@2@@__crt_stdio_output@@AAE_NXZ 100530f0 f i libucrtd:output.obj
 0001:000524c0       ?state_case_size@?$output_processor@DV?$string_output_adapter@D@__crt_stdio_output@@V?$format_validation_base@DV?$string_output_adapter@D@__crt_stdio_output@@@2@@__crt_stdio_output@@AAE_NXZ 100534c0 f i libucrtd:output.obj
 0001:00052890       ?state_case_size@?$output_processor@DV?$string_output_adapter@D@__crt_stdio_output@@V?$positional_parameter_base@DV?$string_output_adapter@D@__crt_stdio_output@@@2@@__crt_stdio_output@@AAE_NXZ 10053890 f i libucrtd:output.obj
 0001:00052c60       ?state_case_size@?$output_processor@DV?$string_output_adapter@D@__crt_stdio_output@@V?$standard_base@DV?$string_output_adapter@D@__crt_stdio_output@@@2@@__crt_stdio_output@@AAE_NXZ 10053c60 f i libucrtd:output.obj
 0001:00053030       ?state_case_size@?$output_processor@_WV?$stream_output_adapter@_W@__crt_stdio_output@@V?$format_validation_base@_WV?$stream_output_adapter@_W@__crt_stdio_output@@@2@@__crt_stdio_output@@AAE_NXZ 10054030 f i libucrtd:output.obj
 0001:00053400       ?state_case_size@?$output_processor@_WV?$stream_output_adapter@_W@__crt_stdio_output@@V?$positional_parameter_base@_WV?$stream_output_adapter@_W@__crt_stdio_output@@@2@@__crt_stdio_output@@AAE_NXZ 10054400 f i libucrtd:output.obj
 0001:000537d0       ?state_case_size@?$output_processor@_WV?$stream_output_adapter@_W@__crt_stdio_output@@V?$standard_base@_WV?$stream_output_adapter@_W@__crt_stdio_output@@@2@@__crt_stdio_output@@AAE_NXZ 100547d0 f i libucrtd:output.obj
 0001:00053ba0       ?state_case_size@?$output_processor@_WV?$string_output_adapter@_W@__crt_stdio_output@@V?$format_validation_base@_WV?$string_output_adapter@_W@__crt_stdio_output@@@2@@__crt_stdio_output@@AAE_NXZ 10054ba0 f i libucrtd:output.obj
 0001:00053f70       ?state_case_size@?$output_processor@_WV?$string_output_adapter@_W@__crt_stdio_output@@V?$positional_parameter_base@_WV?$string_output_adapter@_W@__crt_stdio_output@@@2@@__crt_stdio_output@@AAE_NXZ 10054f70 f i libucrtd:output.obj
 0001:00054340       ?state_case_size@?$output_processor@_WV?$string_output_adapter@_W@__crt_stdio_output@@V?$standard_base@_WV?$string_output_adapter@_W@__crt_stdio_output@@@2@@__crt_stdio_output@@AAE_NXZ 10055340 f i libucrtd:output.obj
 0001:00054710       ?state_case_type@?$output_processor@DV?$stream_output_adapter@D@__crt_stdio_output@@V?$format_validation_base@DV?$stream_output_adapter@D@__crt_stdio_output@@@2@@__crt_stdio_output@@AAE_NXZ 10055710 f i libucrtd:output.obj
 0001:00054ac0       ?state_case_type@?$output_processor@DV?$stream_output_adapter@D@__crt_stdio_output@@V?$positional_parameter_base@DV?$stream_output_adapter@D@__crt_stdio_output@@@2@@__crt_stdio_output@@AAE_NXZ 10055ac0 f i libucrtd:output.obj
 0001:00054e70       ?state_case_type@?$output_processor@DV?$stream_output_adapter@D@__crt_stdio_output@@V?$standard_base@DV?$stream_output_adapter@D@__crt_stdio_output@@@2@@__crt_stdio_output@@AAE_NXZ 10055e70 f i libucrtd:output.obj
 0001:00055220       ?state_case_type@?$output_processor@DV?$string_output_adapter@D@__crt_stdio_output@@V?$format_validation_base@DV?$string_output_adapter@D@__crt_stdio_output@@@2@@__crt_stdio_output@@AAE_NXZ 10056220 f i libucrtd:output.obj
 0001:000555d0       ?state_case_type@?$output_processor@DV?$string_output_adapter@D@__crt_stdio_output@@V?$positional_parameter_base@DV?$string_output_adapter@D@__crt_stdio_output@@@2@@__crt_stdio_output@@AAE_NXZ 100565d0 f i libucrtd:output.obj
 0001:00055980       ?state_case_type@?$output_processor@DV?$string_output_adapter@D@__crt_stdio_output@@V?$standard_base@DV?$string_output_adapter@D@__crt_stdio_output@@@2@@__crt_stdio_output@@AAE_NXZ 10056980 f i libucrtd:output.obj
 0001:00055d30       ?state_case_type@?$output_processor@_WV?$stream_output_adapter@_W@__crt_stdio_output@@V?$format_validation_base@_WV?$stream_output_adapter@_W@__crt_stdio_output@@@2@@__crt_stdio_output@@AAE_NXZ 10056d30 f i libucrtd:output.obj
 0001:00056110       ?state_case_type@?$output_processor@_WV?$stream_output_adapter@_W@__crt_stdio_output@@V?$positional_parameter_base@_WV?$stream_output_adapter@_W@__crt_stdio_output@@@2@@__crt_stdio_output@@AAE_NXZ 10057110 f i libucrtd:output.obj
 0001:000564f0       ?state_case_type@?$output_processor@_WV?$stream_output_adapter@_W@__crt_stdio_output@@V?$standard_base@_WV?$stream_output_adapter@_W@__crt_stdio_output@@@2@@__crt_stdio_output@@AAE_NXZ 100574f0 f i libucrtd:output.obj
 0001:000568d0       ?state_case_type@?$output_processor@_WV?$string_output_adapter@_W@__crt_stdio_output@@V?$format_validation_base@_WV?$string_output_adapter@_W@__crt_stdio_output@@@2@@__crt_stdio_output@@AAE_NXZ 100578d0 f i libucrtd:output.obj
 0001:00056cb0       ?state_case_type@?$output_processor@_WV?$string_output_adapter@_W@__crt_stdio_output@@V?$positional_parameter_base@_WV?$string_output_adapter@_W@__crt_stdio_output@@@2@@__crt_stdio_output@@AAE_NXZ 10057cb0 f i libucrtd:output.obj
 0001:00057090       ?state_case_type@?$output_processor@_WV?$string_output_adapter@_W@__crt_stdio_output@@V?$standard_base@_WV?$string_output_adapter@_W@__crt_stdio_output@@@2@@__crt_stdio_output@@AAE_NXZ 10058090 f i libucrtd:output.obj
 0001:00057470       ?state_case_width@?$output_processor@DV?$stream_output_adapter@D@__crt_stdio_output@@V?$format_validation_base@DV?$stream_output_adapter@D@__crt_stdio_output@@@2@@__crt_stdio_output@@AAE_NXZ 10058470 f i libucrtd:output.obj
 0001:000574f0       ?state_case_width@?$output_processor@DV?$stream_output_adapter@D@__crt_stdio_output@@V?$positional_parameter_base@DV?$stream_output_adapter@D@__crt_stdio_output@@@2@@__crt_stdio_output@@AAE_NXZ 100584f0 f i libucrtd:output.obj
 0001:00057570       ?state_case_width@?$output_processor@DV?$stream_output_adapter@D@__crt_stdio_output@@V?$standard_base@DV?$stream_output_adapter@D@__crt_stdio_output@@@2@@__crt_stdio_output@@AAE_NXZ 10058570 f i libucrtd:output.obj
 0001:000575f0       ?state_case_width@?$output_processor@DV?$string_output_adapter@D@__crt_stdio_output@@V?$format_validation_base@DV?$string_output_adapter@D@__crt_stdio_output@@@2@@__crt_stdio_output@@AAE_NXZ 100585f0 f i libucrtd:output.obj
 0001:00057670       ?state_case_width@?$output_processor@DV?$string_output_adapter@D@__crt_stdio_output@@V?$positional_parameter_base@DV?$string_output_adapter@D@__crt_stdio_output@@@2@@__crt_stdio_output@@AAE_NXZ 10058670 f i libucrtd:output.obj
 0001:000576f0       ?state_case_width@?$output_processor@DV?$string_output_adapter@D@__crt_stdio_output@@V?$standard_base@DV?$string_output_adapter@D@__crt_stdio_output@@@2@@__crt_stdio_output@@AAE_NXZ 100586f0 f i libucrtd:output.obj
 0001:00057770       ?state_case_width@?$output_processor@_WV?$stream_output_adapter@_W@__crt_stdio_output@@V?$format_validation_base@_WV?$stream_output_adapter@_W@__crt_stdio_output@@@2@@__crt_stdio_output@@AAE_NXZ 10058770 f i libucrtd:output.obj
 0001:000577f0       ?state_case_width@?$output_processor@_WV?$stream_output_adapter@_W@__crt_stdio_output@@V?$positional_parameter_base@_WV?$stream_output_adapter@_W@__crt_stdio_output@@@2@@__crt_stdio_output@@AAE_NXZ 100587f0 f i libucrtd:output.obj
 0001:00057870       ?state_case_width@?$output_processor@_WV?$stream_output_adapter@_W@__crt_stdio_output@@V?$standard_base@_WV?$stream_output_adapter@_W@__crt_stdio_output@@@2@@__crt_stdio_output@@AAE_NXZ 10058870 f i libucrtd:output.obj
 0001:000578f0       ?state_case_width@?$output_processor@_WV?$string_output_adapter@_W@__crt_stdio_output@@V?$format_validation_base@_WV?$string_output_adapter@_W@__crt_stdio_output@@@2@@__crt_stdio_output@@AAE_NXZ 100588f0 f i libucrtd:output.obj
 0001:00057970       ?state_case_width@?$output_processor@_WV?$string_output_adapter@_W@__crt_stdio_output@@V?$positional_parameter_base@_WV?$string_output_adapter@_W@__crt_stdio_output@@@2@@__crt_stdio_output@@AAE_NXZ 10058970 f i libucrtd:output.obj
 0001:000579f0       ?state_case_width@?$output_processor@_WV?$string_output_adapter@_W@__crt_stdio_output@@V?$standard_base@_WV?$string_output_adapter@_W@__crt_stdio_output@@@2@@__crt_stdio_output@@AAE_NXZ 100589f0 f i libucrtd:output.obj
 0001:00057a70       ?state_count@?$format_validation_base@DV?$stream_output_adapter@D@__crt_stdio_output@@@__crt_stdio_output@@KAIXZ 10058a70 f i libucrtd:output.obj
 0001:00057a80       ?state_count@?$format_validation_base@DV?$string_output_adapter@D@__crt_stdio_output@@@__crt_stdio_output@@KAIXZ 10058a80 f i libucrtd:output.obj
 0001:00057a90       ?state_count@?$format_validation_base@_WV?$stream_output_adapter@_W@__crt_stdio_output@@@__crt_stdio_output@@KAIXZ 10058a90 f i libucrtd:output.obj
 0001:00057aa0       ?state_count@?$format_validation_base@_WV?$string_output_adapter@_W@__crt_stdio_output@@@__crt_stdio_output@@KAIXZ 10058aa0 f i libucrtd:output.obj
 0001:00057ab0       ?state_count@?$standard_base@DV?$stream_output_adapter@D@__crt_stdio_output@@@__crt_stdio_output@@KAIXZ 10058ab0 f i libucrtd:output.obj
 0001:00057ac0       ?state_count@?$standard_base@DV?$string_output_adapter@D@__crt_stdio_output@@@__crt_stdio_output@@KAIXZ 10058ac0 f i libucrtd:output.obj
 0001:00057ad0       ?state_count@?$standard_base@_WV?$stream_output_adapter@_W@__crt_stdio_output@@@__crt_stdio_output@@KAIXZ 10058ad0 f i libucrtd:output.obj
 0001:00057ae0       ?state_count@?$standard_base@_WV?$string_output_adapter@_W@__crt_stdio_output@@@__crt_stdio_output@@KAIXZ 10058ae0 f i libucrtd:output.obj
 0001:00057af0       ?state_transition_table@?$format_validation_base@DV?$stream_output_adapter@D@__crt_stdio_output@@@__crt_stdio_output@@KAPBEXZ 10058af0 f i libucrtd:output.obj
 0001:00057b00       ?state_transition_table@?$format_validation_base@DV?$string_output_adapter@D@__crt_stdio_output@@@__crt_stdio_output@@KAPBEXZ 10058b00 f i libucrtd:output.obj
 0001:00057b10       ?state_transition_table@?$format_validation_base@_WV?$stream_output_adapter@_W@__crt_stdio_output@@@__crt_stdio_output@@KAPBEXZ 10058b10 f i libucrtd:output.obj
 0001:00057b20       ?state_transition_table@?$format_validation_base@_WV?$string_output_adapter@_W@__crt_stdio_output@@@__crt_stdio_output@@KAPBEXZ 10058b20 f i libucrtd:output.obj
 0001:00057b30       ?state_transition_table@?$standard_base@DV?$stream_output_adapter@D@__crt_stdio_output@@@__crt_stdio_output@@KAPBEXZ 10058b30 f i libucrtd:output.obj
 0001:00057b40       ?state_transition_table@?$standard_base@DV?$string_output_adapter@D@__crt_stdio_output@@@__crt_stdio_output@@KAPBEXZ 10058b40 f i libucrtd:output.obj
 0001:00057b50       ?state_transition_table@?$standard_base@_WV?$stream_output_adapter@_W@__crt_stdio_output@@@__crt_stdio_output@@KAPBEXZ 10058b50 f i libucrtd:output.obj
 0001:00057b60       ?state_transition_table@?$standard_base@_WV?$string_output_adapter@_W@__crt_stdio_output@@@__crt_stdio_output@@KAPBEXZ 10058b60 f i libucrtd:output.obj
 0001:00057b70       ?to_integer_size@__crt_stdio_output@@YAIW4length_modifier@1@@Z 10058b70 f i libucrtd:output.obj
 0001:00057c10       ?type_case_X@?$output_processor@DV?$stream_output_adapter@D@__crt_stdio_output@@V?$format_validation_base@DV?$stream_output_adapter@D@__crt_stdio_output@@@2@@__crt_stdio_output@@AAE_NXZ 10058c10 f i libucrtd:output.obj
 0001:00057c30       ?type_case_X@?$output_processor@DV?$stream_output_adapter@D@__crt_stdio_output@@V?$positional_parameter_base@DV?$stream_output_adapter@D@__crt_stdio_output@@@2@@__crt_stdio_output@@AAE_NXZ 10058c30 f i libucrtd:output.obj
 0001:00057c50       ?type_case_X@?$output_processor@DV?$stream_output_adapter@D@__crt_stdio_output@@V?$standard_base@DV?$stream_output_adapter@D@__crt_stdio_output@@@2@@__crt_stdio_output@@AAE_NXZ 10058c50 f i libucrtd:output.obj
 0001:00057c70       ?type_case_X@?$output_processor@DV?$string_output_adapter@D@__crt_stdio_output@@V?$format_validation_base@DV?$string_output_adapter@D@__crt_stdio_output@@@2@@__crt_stdio_output@@AAE_NXZ 10058c70 f i libucrtd:output.obj
 0001:00057c90       ?type_case_X@?$output_processor@DV?$string_output_adapter@D@__crt_stdio_output@@V?$positional_parameter_base@DV?$string_output_adapter@D@__crt_stdio_output@@@2@@__crt_stdio_output@@AAE_NXZ 10058c90 f i libucrtd:output.obj
 0001:00057cb0       ?type_case_X@?$output_processor@DV?$string_output_adapter@D@__crt_stdio_output@@V?$standard_base@DV?$string_output_adapter@D@__crt_stdio_output@@@2@@__crt_stdio_output@@AAE_NXZ 10058cb0 f i libucrtd:output.obj
 0001:00057cd0       ?type_case_X@?$output_processor@_WV?$stream_output_adapter@_W@__crt_stdio_output@@V?$format_validation_base@_WV?$stream_output_adapter@_W@__crt_stdio_output@@@2@@__crt_stdio_output@@AAE_NXZ 10058cd0 f i libucrtd:output.obj
 0001:00057cf0       ?type_case_X@?$output_processor@_WV?$stream_output_adapter@_W@__crt_stdio_output@@V?$positional_parameter_base@_WV?$stream_output_adapter@_W@__crt_stdio_output@@@2@@__crt_stdio_output@@AAE_NXZ 10058cf0 f i libucrtd:output.obj
 0001:00057d10       ?type_case_X@?$output_processor@_WV?$stream_output_adapter@_W@__crt_stdio_output@@V?$standard_base@_WV?$stream_output_adapter@_W@__crt_stdio_output@@@2@@__crt_stdio_output@@AAE_NXZ 10058d10 f i libucrtd:output.obj
 0001:00057d30       ?type_case_X@?$output_processor@_WV?$string_output_adapter@_W@__crt_stdio_output@@V?$format_validation_base@_WV?$string_output_adapter@_W@__crt_stdio_output@@@2@@__crt_stdio_output@@AAE_NXZ 10058d30 f i libucrtd:output.obj
 0001:00057d50       ?type_case_X@?$output_processor@_WV?$string_output_adapter@_W@__crt_stdio_output@@V?$positional_parameter_base@_WV?$string_output_adapter@_W@__crt_stdio_output@@@2@@__crt_stdio_output@@AAE_NXZ 10058d50 f i libucrtd:output.obj
 0001:00057d70       ?type_case_X@?$output_processor@_WV?$string_output_adapter@_W@__crt_stdio_output@@V?$standard_base@_WV?$string_output_adapter@_W@__crt_stdio_output@@@2@@__crt_stdio_output@@AAE_NXZ 10058d70 f i libucrtd:output.obj
 0001:00057d90       ?type_case_Z@?$output_processor@DV?$stream_output_adapter@D@__crt_stdio_output@@V?$format_validation_base@DV?$stream_output_adapter@D@__crt_stdio_output@@@2@@__crt_stdio_output@@AAE_NXZ 10058d90 f i libucrtd:output.obj
 0001:00057e80       ?type_case_Z@?$output_processor@DV?$stream_output_adapter@D@__crt_stdio_output@@V?$positional_parameter_base@DV?$stream_output_adapter@D@__crt_stdio_output@@@2@@__crt_stdio_output@@AAE_NXZ 10058e80 f i libucrtd:output.obj
 0001:00057f70       ?type_case_Z@?$output_processor@DV?$stream_output_adapter@D@__crt_stdio_output@@V?$standard_base@DV?$stream_output_adapter@D@__crt_stdio_output@@@2@@__crt_stdio_output@@AAE_NXZ 10058f70 f i libucrtd:output.obj
 0001:00058060       ?type_case_Z@?$output_processor@DV?$string_output_adapter@D@__crt_stdio_output@@V?$format_validation_base@DV?$string_output_adapter@D@__crt_stdio_output@@@2@@__crt_stdio_output@@AAE_NXZ 10059060 f i libucrtd:output.obj
 0001:00058150       ?type_case_Z@?$output_processor@DV?$string_output_adapter@D@__crt_stdio_output@@V?$positional_parameter_base@DV?$string_output_adapter@D@__crt_stdio_output@@@2@@__crt_stdio_output@@AAE_NXZ 10059150 f i libucrtd:output.obj
 0001:00058240       ?type_case_Z@?$output_processor@DV?$string_output_adapter@D@__crt_stdio_output@@V?$standard_base@DV?$string_output_adapter@D@__crt_stdio_output@@@2@@__crt_stdio_output@@AAE_NXZ 10059240 f i libucrtd:output.obj
 0001:00058330       ?type_case_Z@?$output_processor@_WV?$stream_output_adapter@_W@__crt_stdio_output@@V?$format_validation_base@_WV?$stream_output_adapter@_W@__crt_stdio_output@@@2@@__crt_stdio_output@@AAE_NXZ 10059330 f i libucrtd:output.obj
 0001:00058420       ?type_case_Z@?$output_processor@_WV?$stream_output_adapter@_W@__crt_stdio_output@@V?$positional_parameter_base@_WV?$stream_output_adapter@_W@__crt_stdio_output@@@2@@__crt_stdio_output@@AAE_NXZ 10059420 f i libucrtd:output.obj
 0001:00058510       ?type_case_Z@?$output_processor@_WV?$stream_output_adapter@_W@__crt_stdio_output@@V?$standard_base@_WV?$stream_output_adapter@_W@__crt_stdio_output@@@2@@__crt_stdio_output@@AAE_NXZ 10059510 f i libucrtd:output.obj
 0001:00058600       ?type_case_Z@?$output_processor@_WV?$string_output_adapter@_W@__crt_stdio_output@@V?$format_validation_base@_WV?$string_output_adapter@_W@__crt_stdio_output@@@2@@__crt_stdio_output@@AAE_NXZ 10059600 f i libucrtd:output.obj
 0001:000586f0       ?type_case_Z@?$output_processor@_WV?$string_output_adapter@_W@__crt_stdio_output@@V?$positional_parameter_base@_WV?$string_output_adapter@_W@__crt_stdio_output@@@2@@__crt_stdio_output@@AAE_NXZ 100596f0 f i libucrtd:output.obj
 0001:000587e0       ?type_case_Z@?$output_processor@_WV?$string_output_adapter@_W@__crt_stdio_output@@V?$standard_base@_WV?$string_output_adapter@_W@__crt_stdio_output@@@2@@__crt_stdio_output@@AAE_NXZ 100597e0 f i libucrtd:output.obj
 0001:000588d0       ?type_case_a@?$output_processor@DV?$stream_output_adapter@D@__crt_stdio_output@@V?$format_validation_base@DV?$stream_output_adapter@D@__crt_stdio_output@@@2@@__crt_stdio_output@@AAE_NXZ 100598d0 f i libucrtd:output.obj
 0001:00058b30       ?type_case_a@?$output_processor@DV?$stream_output_adapter@D@__crt_stdio_output@@V?$positional_parameter_base@DV?$stream_output_adapter@D@__crt_stdio_output@@@2@@__crt_stdio_output@@AAE_NXZ 10059b30 f i libucrtd:output.obj
 0001:00058d90       ?type_case_a@?$output_processor@DV?$stream_output_adapter@D@__crt_stdio_output@@V?$standard_base@DV?$stream_output_adapter@D@__crt_stdio_output@@@2@@__crt_stdio_output@@AAE_NXZ 10059d90 f i libucrtd:output.obj
 0001:00058ff0       ?type_case_a@?$output_processor@DV?$string_output_adapter@D@__crt_stdio_output@@V?$format_validation_base@DV?$string_output_adapter@D@__crt_stdio_output@@@2@@__crt_stdio_output@@AAE_NXZ 10059ff0 f i libucrtd:output.obj
 0001:00059250       ?type_case_a@?$output_processor@DV?$string_output_adapter@D@__crt_stdio_output@@V?$positional_parameter_base@DV?$string_output_adapter@D@__crt_stdio_output@@@2@@__crt_stdio_output@@AAE_NXZ 1005a250 f i libucrtd:output.obj
 0001:000594b0       ?type_case_a@?$output_processor@DV?$string_output_adapter@D@__crt_stdio_output@@V?$standard_base@DV?$string_output_adapter@D@__crt_stdio_output@@@2@@__crt_stdio_output@@AAE_NXZ 1005a4b0 f i libucrtd:output.obj
 0001:00059710       ?type_case_a@?$output_processor@_WV?$stream_output_adapter@_W@__crt_stdio_output@@V?$format_validation_base@_WV?$stream_output_adapter@_W@__crt_stdio_output@@@2@@__crt_stdio_output@@AAE_NXZ 1005a710 f i libucrtd:output.obj
 0001:00059970       ?type_case_a@?$output_processor@_WV?$stream_output_adapter@_W@__crt_stdio_output@@V?$positional_parameter_base@_WV?$stream_output_adapter@_W@__crt_stdio_output@@@2@@__crt_stdio_output@@AAE_NXZ 1005a970 f i libucrtd:output.obj
 0001:00059bd0       ?type_case_a@?$output_processor@_WV?$stream_output_adapter@_W@__crt_stdio_output@@V?$standard_base@_WV?$stream_output_adapter@_W@__crt_stdio_output@@@2@@__crt_stdio_output@@AAE_NXZ 1005abd0 f i libucrtd:output.obj
 0001:00059e30       ?type_case_a@?$output_processor@_WV?$string_output_adapter@_W@__crt_stdio_output@@V?$format_validation_base@_WV?$string_output_adapter@_W@__crt_stdio_output@@@2@@__crt_stdio_output@@AAE_NXZ 1005ae30 f i libucrtd:output.obj
 0001:0005a090       ?type_case_a@?$output_processor@_WV?$string_output_adapter@_W@__crt_stdio_output@@V?$positional_parameter_base@_WV?$string_output_adapter@_W@__crt_stdio_output@@@2@@__crt_stdio_output@@AAE_NXZ 1005b090 f i libucrtd:output.obj
 0001:0005a2f0       ?type_case_a@?$output_processor@_WV?$string_output_adapter@_W@__crt_stdio_output@@V?$standard_base@_WV?$string_output_adapter@_W@__crt_stdio_output@@@2@@__crt_stdio_output@@AAE_NXZ 1005b2f0 f i libucrtd:output.obj
 0001:0005a550       ?type_case_c@?$output_processor@DV?$stream_output_adapter@D@__crt_stdio_output@@V?$format_validation_base@DV?$stream_output_adapter@D@__crt_stdio_output@@@2@@__crt_stdio_output@@AAE_NXZ 1005b550 f i libucrtd:output.obj
 0001:0005a570       ?type_case_c@?$output_processor@DV?$stream_output_adapter@D@__crt_stdio_output@@V?$positional_parameter_base@DV?$stream_output_adapter@D@__crt_stdio_output@@@2@@__crt_stdio_output@@AAE_NXZ 1005b570 f i libucrtd:output.obj
 0001:0005a590       ?type_case_c@?$output_processor@DV?$stream_output_adapter@D@__crt_stdio_output@@V?$standard_base@DV?$stream_output_adapter@D@__crt_stdio_output@@@2@@__crt_stdio_output@@AAE_NXZ 1005b590 f i libucrtd:output.obj
 0001:0005a5b0       ?type_case_c@?$output_processor@DV?$string_output_adapter@D@__crt_stdio_output@@V?$format_validation_base@DV?$string_output_adapter@D@__crt_stdio_output@@@2@@__crt_stdio_output@@AAE_NXZ 1005b5b0 f i libucrtd:output.obj
 0001:0005a5d0       ?type_case_c@?$output_processor@DV?$string_output_adapter@D@__crt_stdio_output@@V?$positional_parameter_base@DV?$string_output_adapter@D@__crt_stdio_output@@@2@@__crt_stdio_output@@AAE_NXZ 1005b5d0 f i libucrtd:output.obj
 0001:0005a5f0       ?type_case_c@?$output_processor@DV?$string_output_adapter@D@__crt_stdio_output@@V?$standard_base@DV?$string_output_adapter@D@__crt_stdio_output@@@2@@__crt_stdio_output@@AAE_NXZ 1005b5f0 f i libucrtd:output.obj
 0001:0005a610       ?type_case_c@?$output_processor@_WV?$stream_output_adapter@_W@__crt_stdio_output@@V?$format_validation_base@_WV?$stream_output_adapter@_W@__crt_stdio_output@@@2@@__crt_stdio_output@@AAE_NXZ 1005b610 f i libucrtd:output.obj
 0001:0005a630       ?type_case_c@?$output_processor@_WV?$stream_output_adapter@_W@__crt_stdio_output@@V?$positional_parameter_base@_WV?$stream_output_adapter@_W@__crt_stdio_output@@@2@@__crt_stdio_output@@AAE_NXZ 1005b630 f i libucrtd:output.obj
 0001:0005a650       ?type_case_c@?$output_processor@_WV?$stream_output_adapter@_W@__crt_stdio_output@@V?$standard_base@_WV?$stream_output_adapter@_W@__crt_stdio_output@@@2@@__crt_stdio_output@@AAE_NXZ 1005b650 f i libucrtd:output.obj
 0001:0005a670       ?type_case_c@?$output_processor@_WV?$string_output_adapter@_W@__crt_stdio_output@@V?$format_validation_base@_WV?$string_output_adapter@_W@__crt_stdio_output@@@2@@__crt_stdio_output@@AAE_NXZ 1005b670 f i libucrtd:output.obj
 0001:0005a690       ?type_case_c@?$output_processor@_WV?$string_output_adapter@_W@__crt_stdio_output@@V?$positional_parameter_base@_WV?$string_output_adapter@_W@__crt_stdio_output@@@2@@__crt_stdio_output@@AAE_NXZ 1005b690 f i libucrtd:output.obj
 0001:0005a6b0       ?type_case_c@?$output_processor@_WV?$string_output_adapter@_W@__crt_stdio_output@@V?$standard_base@_WV?$string_output_adapter@_W@__crt_stdio_output@@@2@@__crt_stdio_output@@AAE_NXZ 1005b6b0 f i libucrtd:output.obj
 0001:0005a6d0       ?type_case_c_tchar@?$output_processor@DV?$stream_output_adapter@D@__crt_stdio_output@@V?$format_validation_base@DV?$stream_output_adapter@D@__crt_stdio_output@@@2@@__crt_stdio_output@@AAE_ND@Z 1005b6d0 f i libucrtd:output.obj
 0001:0005a7e0       ?type_case_c_tchar@?$output_processor@DV?$stream_output_adapter@D@__crt_stdio_output@@V?$positional_parameter_base@DV?$stream_output_adapter@D@__crt_stdio_output@@@2@@__crt_stdio_output@@AAE_ND@Z 1005b7e0 f i libucrtd:output.obj
 0001:0005a8f0       ?type_case_c_tchar@?$output_processor@DV?$stream_output_adapter@D@__crt_stdio_output@@V?$standard_base@DV?$stream_output_adapter@D@__crt_stdio_output@@@2@@__crt_stdio_output@@AAE_ND@Z 1005b8f0 f i libucrtd:output.obj
 0001:0005aa00       ?type_case_c_tchar@?$output_processor@DV?$string_output_adapter@D@__crt_stdio_output@@V?$format_validation_base@DV?$string_output_adapter@D@__crt_stdio_output@@@2@@__crt_stdio_output@@AAE_ND@Z 1005ba00 f i libucrtd:output.obj
 0001:0005ab10       ?type_case_c_tchar@?$output_processor@DV?$string_output_adapter@D@__crt_stdio_output@@V?$positional_parameter_base@DV?$string_output_adapter@D@__crt_stdio_output@@@2@@__crt_stdio_output@@AAE_ND@Z 1005bb10 f i libucrtd:output.obj
 0001:0005ac20       ?type_case_c_tchar@?$output_processor@DV?$string_output_adapter@D@__crt_stdio_output@@V?$standard_base@DV?$string_output_adapter@D@__crt_stdio_output@@@2@@__crt_stdio_output@@AAE_ND@Z 1005bc20 f i libucrtd:output.obj
 0001:0005ad30       ?type_case_c_tchar@?$output_processor@_WV?$stream_output_adapter@_W@__crt_stdio_output@@V?$format_validation_base@_WV?$stream_output_adapter@_W@__crt_stdio_output@@@2@@__crt_stdio_output@@AAE_N_W@Z 1005bd30 f i libucrtd:output.obj
 0001:0005ae30       ?type_case_c_tchar@?$output_processor@_WV?$stream_output_adapter@_W@__crt_stdio_output@@V?$positional_parameter_base@_WV?$stream_output_adapter@_W@__crt_stdio_output@@@2@@__crt_stdio_output@@AAE_N_W@Z 1005be30 f i libucrtd:output.obj
 0001:0005af30       ?type_case_c_tchar@?$output_processor@_WV?$stream_output_adapter@_W@__crt_stdio_output@@V?$standard_base@_WV?$stream_output_adapter@_W@__crt_stdio_output@@@2@@__crt_stdio_output@@AAE_N_W@Z 1005bf30 f i libucrtd:output.obj
 0001:0005b030       ?type_case_c_tchar@?$output_processor@_WV?$string_output_adapter@_W@__crt_stdio_output@@V?$format_validation_base@_WV?$string_output_adapter@_W@__crt_stdio_output@@@2@@__crt_stdio_output@@AAE_N_W@Z 1005c030 f i libucrtd:output.obj
 0001:0005b130       ?type_case_c_tchar@?$output_processor@_WV?$string_output_adapter@_W@__crt_stdio_output@@V?$positional_parameter_base@_WV?$string_output_adapter@_W@__crt_stdio_output@@@2@@__crt_stdio_output@@AAE_N_W@Z 1005c130 f i libucrtd:output.obj
 0001:0005b230       ?type_case_c_tchar@?$output_processor@_WV?$string_output_adapter@_W@__crt_stdio_output@@V?$standard_base@_WV?$string_output_adapter@_W@__crt_stdio_output@@@2@@__crt_stdio_output@@AAE_N_W@Z 1005c230 f i libucrtd:output.obj
 0001:0005b330       ?type_case_d@?$output_processor@DV?$stream_output_adapter@D@__crt_stdio_output@@V?$format_validation_base@DV?$stream_output_adapter@D@__crt_stdio_output@@@2@@__crt_stdio_output@@AAE_NXZ 1005c330 f i libucrtd:output.obj
 0001:0005b360       ?type_case_d@?$output_processor@DV?$stream_output_adapter@D@__crt_stdio_output@@V?$positional_parameter_base@DV?$stream_output_adapter@D@__crt_stdio_output@@@2@@__crt_stdio_output@@AAE_NXZ 1005c360 f i libucrtd:output.obj
 0001:0005b390       ?type_case_d@?$output_processor@DV?$stream_output_adapter@D@__crt_stdio_output@@V?$standard_base@DV?$stream_output_adapter@D@__crt_stdio_output@@@2@@__crt_stdio_output@@AAE_NXZ 1005c390 f i libucrtd:output.obj
 0001:0005b3c0       ?type_case_d@?$output_processor@DV?$string_output_adapter@D@__crt_stdio_output@@V?$format_validation_base@DV?$string_output_adapter@D@__crt_stdio_output@@@2@@__crt_stdio_output@@AAE_NXZ 1005c3c0 f i libucrtd:output.obj
 0001:0005b3f0       ?type_case_d@?$output_processor@DV?$string_output_adapter@D@__crt_stdio_output@@V?$positional_parameter_base@DV?$string_output_adapter@D@__crt_stdio_output@@@2@@__crt_stdio_output@@AAE_NXZ 1005c3f0 f i libucrtd:output.obj
 0001:0005b420       ?type_case_d@?$output_processor@DV?$string_output_adapter@D@__crt_stdio_output@@V?$standard_base@DV?$string_output_adapter@D@__crt_stdio_output@@@2@@__crt_stdio_output@@AAE_NXZ 1005c420 f i libucrtd:output.obj
 0001:0005b450       ?type_case_d@?$output_processor@_WV?$stream_output_adapter@_W@__crt_stdio_output@@V?$format_validation_base@_WV?$stream_output_adapter@_W@__crt_stdio_output@@@2@@__crt_stdio_output@@AAE_NXZ 1005c450 f i libucrtd:output.obj
 0001:0005b480       ?type_case_d@?$output_processor@_WV?$stream_output_adapter@_W@__crt_stdio_output@@V?$positional_parameter_base@_WV?$stream_output_adapter@_W@__crt_stdio_output@@@2@@__crt_stdio_output@@AAE_NXZ 1005c480 f i libucrtd:output.obj
 0001:0005b4b0       ?type_case_d@?$output_processor@_WV?$stream_output_adapter@_W@__crt_stdio_output@@V?$standard_base@_WV?$stream_output_adapter@_W@__crt_stdio_output@@@2@@__crt_stdio_output@@AAE_NXZ 1005c4b0 f i libucrtd:output.obj
 0001:0005b4e0       ?type_case_d@?$output_processor@_WV?$string_output_adapter@_W@__crt_stdio_output@@V?$format_validation_base@_WV?$string_output_adapter@_W@__crt_stdio_output@@@2@@__crt_stdio_output@@AAE_NXZ 1005c4e0 f i libucrtd:output.obj
 0001:0005b510       ?type_case_d@?$output_processor@_WV?$string_output_adapter@_W@__crt_stdio_output@@V?$positional_parameter_base@_WV?$string_output_adapter@_W@__crt_stdio_output@@@2@@__crt_stdio_output@@AAE_NXZ 1005c510 f i libucrtd:output.obj
 0001:0005b540       ?type_case_d@?$output_processor@_WV?$string_output_adapter@_W@__crt_stdio_output@@V?$standard_base@_WV?$string_output_adapter@_W@__crt_stdio_output@@@2@@__crt_stdio_output@@AAE_NXZ 1005c540 f i libucrtd:output.obj
 0001:0005b570       ?type_case_integer@?$output_processor@DV?$stream_output_adapter@D@__crt_stdio_output@@V?$format_validation_base@DV?$stream_output_adapter@D@__crt_stdio_output@@@2@@__crt_stdio_output@@AAE_NI_N@Z 1005c570 f i libucrtd:output.obj
 0001:0005b8b0       ?type_case_integer@?$output_processor@DV?$stream_output_adapter@D@__crt_stdio_output@@V?$positional_parameter_base@DV?$stream_output_adapter@D@__crt_stdio_output@@@2@@__crt_stdio_output@@AAE_NI_N@Z 1005c8b0 f i libucrtd:output.obj
 0001:0005bbf0       ?type_case_integer@?$output_processor@DV?$stream_output_adapter@D@__crt_stdio_output@@V?$standard_base@DV?$stream_output_adapter@D@__crt_stdio_output@@@2@@__crt_stdio_output@@AAE_NI_N@Z 1005cbf0 f i libucrtd:output.obj
 0001:0005bf30       ?type_case_integer@?$output_processor@DV?$string_output_adapter@D@__crt_stdio_output@@V?$format_validation_base@DV?$string_output_adapter@D@__crt_stdio_output@@@2@@__crt_stdio_output@@AAE_NI_N@Z 1005cf30 f i libucrtd:output.obj
 0001:0005c270       ?type_case_integer@?$output_processor@DV?$string_output_adapter@D@__crt_stdio_output@@V?$positional_parameter_base@DV?$string_output_adapter@D@__crt_stdio_output@@@2@@__crt_stdio_output@@AAE_NI_N@Z 1005d270 f i libucrtd:output.obj
 0001:0005c5b0       ?type_case_integer@?$output_processor@DV?$string_output_adapter@D@__crt_stdio_output@@V?$standard_base@DV?$string_output_adapter@D@__crt_stdio_output@@@2@@__crt_stdio_output@@AAE_NI_N@Z 1005d5b0 f i libucrtd:output.obj
 0001:0005c8f0       ?type_case_integer@?$output_processor@_WV?$stream_output_adapter@_W@__crt_stdio_output@@V?$format_validation_base@_WV?$stream_output_adapter@_W@__crt_stdio_output@@@2@@__crt_stdio_output@@AAE_NI_N@Z 1005d8f0 f i libucrtd:output.obj
 0001:0005cc30       ?type_case_integer@?$output_processor@_WV?$stream_output_adapter@_W@__crt_stdio_output@@V?$positional_parameter_base@_WV?$stream_output_adapter@_W@__crt_stdio_output@@@2@@__crt_stdio_output@@AAE_NI_N@Z 1005dc30 f i libucrtd:output.obj
 0001:0005cf70       ?type_case_integer@?$output_processor@_WV?$stream_output_adapter@_W@__crt_stdio_output@@V?$standard_base@_WV?$stream_output_adapter@_W@__crt_stdio_output@@@2@@__crt_stdio_output@@AAE_NI_N@Z 1005df70 f i libucrtd:output.obj
 0001:0005d2b0       ?type_case_integer@?$output_processor@_WV?$string_output_adapter@_W@__crt_stdio_output@@V?$format_validation_base@_WV?$string_output_adapter@_W@__crt_stdio_output@@@2@@__crt_stdio_output@@AAE_NI_N@Z 1005e2b0 f i libucrtd:output.obj
 0001:0005d5f0       ?type_case_integer@?$output_processor@_WV?$string_output_adapter@_W@__crt_stdio_output@@V?$positional_parameter_base@_WV?$string_output_adapter@_W@__crt_stdio_output@@@2@@__crt_stdio_output@@AAE_NI_N@Z 1005e5f0 f i libucrtd:output.obj
 0001:0005d930       ?type_case_integer@?$output_processor@_WV?$string_output_adapter@_W@__crt_stdio_output@@V?$standard_base@_WV?$string_output_adapter@_W@__crt_stdio_output@@@2@@__crt_stdio_output@@AAE_NI_N@Z 1005e930 f i libucrtd:output.obj
 0001:0005dc70       ?type_case_n@?$output_processor@DV?$stream_output_adapter@D@__crt_stdio_output@@V?$format_validation_base@DV?$stream_output_adapter@D@__crt_stdio_output@@@2@@__crt_stdio_output@@AAE_NXZ 1005ec70 f i libucrtd:output.obj
 0001:0005de60       ?type_case_n@?$output_processor@DV?$stream_output_adapter@D@__crt_stdio_output@@V?$positional_parameter_base@DV?$stream_output_adapter@D@__crt_stdio_output@@@2@@__crt_stdio_output@@AAE_NXZ 1005ee60 f i libucrtd:output.obj
 0001:0005e050       ?type_case_n@?$output_processor@DV?$stream_output_adapter@D@__crt_stdio_output@@V?$standard_base@DV?$stream_output_adapter@D@__crt_stdio_output@@@2@@__crt_stdio_output@@AAE_NXZ 1005f050 f i libucrtd:output.obj
 0001:0005e240       ?type_case_n@?$output_processor@DV?$string_output_adapter@D@__crt_stdio_output@@V?$format_validation_base@DV?$string_output_adapter@D@__crt_stdio_output@@@2@@__crt_stdio_output@@AAE_NXZ 1005f240 f i libucrtd:output.obj
 0001:0005e430       ?type_case_n@?$output_processor@DV?$string_output_adapter@D@__crt_stdio_output@@V?$positional_parameter_base@DV?$string_output_adapter@D@__crt_stdio_output@@@2@@__crt_stdio_output@@AAE_NXZ 1005f430 f i libucrtd:output.obj
 0001:0005e620       ?type_case_n@?$output_processor@DV?$string_output_adapter@D@__crt_stdio_output@@V?$standard_base@DV?$string_output_adapter@D@__crt_stdio_output@@@2@@__crt_stdio_output@@AAE_NXZ 1005f620 f i libucrtd:output.obj
 0001:0005e810       ?type_case_n@?$output_processor@_WV?$stream_output_adapter@_W@__crt_stdio_output@@V?$format_validation_base@_WV?$stream_output_adapter@_W@__crt_stdio_output@@@2@@__crt_stdio_output@@AAE_NXZ 1005f810 f i libucrtd:output.obj
 0001:0005ea00       ?type_case_n@?$output_processor@_WV?$stream_output_adapter@_W@__crt_stdio_output@@V?$positional_parameter_base@_WV?$stream_output_adapter@_W@__crt_stdio_output@@@2@@__crt_stdio_output@@AAE_NXZ 1005fa00 f i libucrtd:output.obj
 0001:0005ebf0       ?type_case_n@?$output_processor@_WV?$stream_output_adapter@_W@__crt_stdio_output@@V?$standard_base@_WV?$stream_output_adapter@_W@__crt_stdio_output@@@2@@__crt_stdio_output@@AAE_NXZ 1005fbf0 f i libucrtd:output.obj
 0001:0005ede0       ?type_case_n@?$output_processor@_WV?$string_output_adapter@_W@__crt_stdio_output@@V?$format_validation_base@_WV?$string_output_adapter@_W@__crt_stdio_output@@@2@@__crt_stdio_output@@AAE_NXZ 1005fde0 f i libucrtd:output.obj
 0001:0005efd0       ?type_case_n@?$output_processor@_WV?$string_output_adapter@_W@__crt_stdio_output@@V?$positional_parameter_base@_WV?$string_output_adapter@_W@__crt_stdio_output@@@2@@__crt_stdio_output@@AAE_NXZ 1005ffd0 f i libucrtd:output.obj
 0001:0005f1c0       ?type_case_n@?$output_processor@_WV?$string_output_adapter@_W@__crt_stdio_output@@V?$standard_base@_WV?$string_output_adapter@_W@__crt_stdio_output@@@2@@__crt_stdio_output@@AAE_NXZ 100601c0 f i libucrtd:output.obj
 0001:0005f3b0       ?type_case_o@?$output_processor@DV?$stream_output_adapter@D@__crt_stdio_output@@V?$format_validation_base@DV?$stream_output_adapter@D@__crt_stdio_output@@@2@@__crt_stdio_output@@AAE_NXZ 100603b0 f i libucrtd:output.obj
 0001:0005f3f0       ?type_case_o@?$output_processor@DV?$stream_output_adapter@D@__crt_stdio_output@@V?$positional_parameter_base@DV?$stream_output_adapter@D@__crt_stdio_output@@@2@@__crt_stdio_output@@AAE_NXZ 100603f0 f i libucrtd:output.obj
 0001:0005f430       ?type_case_o@?$output_processor@DV?$stream_output_adapter@D@__crt_stdio_output@@V?$standard_base@DV?$stream_output_adapter@D@__crt_stdio_output@@@2@@__crt_stdio_output@@AAE_NXZ 10060430 f i libucrtd:output.obj
 0001:0005f470       ?type_case_o@?$output_processor@DV?$string_output_adapter@D@__crt_stdio_output@@V?$format_validation_base@DV?$string_output_adapter@D@__crt_stdio_output@@@2@@__crt_stdio_output@@AAE_NXZ 10060470 f i libucrtd:output.obj
 0001:0005f4b0       ?type_case_o@?$output_processor@DV?$string_output_adapter@D@__crt_stdio_output@@V?$positional_parameter_base@DV?$string_output_adapter@D@__crt_stdio_output@@@2@@__crt_stdio_output@@AAE_NXZ 100604b0 f i libucrtd:output.obj
 0001:0005f4f0       ?type_case_o@?$output_processor@DV?$string_output_adapter@D@__crt_stdio_output@@V?$standard_base@DV?$string_output_adapter@D@__crt_stdio_output@@@2@@__crt_stdio_output@@AAE_NXZ 100604f0 f i libucrtd:output.obj
 0001:0005f530       ?type_case_o@?$output_processor@_WV?$stream_output_adapter@_W@__crt_stdio_output@@V?$format_validation_base@_WV?$stream_output_adapter@_W@__crt_stdio_output@@@2@@__crt_stdio_output@@AAE_NXZ 10060530 f i libucrtd:output.obj
 0001:0005f570       ?type_case_o@?$output_processor@_WV?$stream_output_adapter@_W@__crt_stdio_output@@V?$positional_parameter_base@_WV?$stream_output_adapter@_W@__crt_stdio_output@@@2@@__crt_stdio_output@@AAE_NXZ 10060570 f i libucrtd:output.obj
 0001:0005f5b0       ?type_case_o@?$output_processor@_WV?$stream_output_adapter@_W@__crt_stdio_output@@V?$standard_base@_WV?$stream_output_adapter@_W@__crt_stdio_output@@@2@@__crt_stdio_output@@AAE_NXZ 100605b0 f i libucrtd:output.obj
 0001:0005f5f0       ?type_case_o@?$output_processor@_WV?$string_output_adapter@_W@__crt_stdio_output@@V?$format_validation_base@_WV?$string_output_adapter@_W@__crt_stdio_output@@@2@@__crt_stdio_output@@AAE_NXZ 100605f0 f i libucrtd:output.obj
 0001:0005f630       ?type_case_o@?$output_processor@_WV?$string_output_adapter@_W@__crt_stdio_output@@V?$positional_parameter_base@_WV?$string_output_adapter@_W@__crt_stdio_output@@@2@@__crt_stdio_output@@AAE_NXZ 10060630 f i libucrtd:output.obj
 0001:0005f670       ?type_case_o@?$output_processor@_WV?$string_output_adapter@_W@__crt_stdio_output@@V?$standard_base@_WV?$string_output_adapter@_W@__crt_stdio_output@@@2@@__crt_stdio_output@@AAE_NXZ 10060670 f i libucrtd:output.obj
 0001:0005f6b0       ?type_case_p@?$output_processor@DV?$stream_output_adapter@D@__crt_stdio_output@@V?$format_validation_base@DV?$stream_output_adapter@D@__crt_stdio_output@@@2@@__crt_stdio_output@@AAE_NXZ 100606b0 f i libucrtd:output.obj
 0001:0005f6e0       ?type_case_p@?$output_processor@DV?$stream_output_adapter@D@__crt_stdio_output@@V?$positional_parameter_base@DV?$stream_output_adapter@D@__crt_stdio_output@@@2@@__crt_stdio_output@@AAE_NXZ 100606e0 f i libucrtd:output.obj
 0001:0005f710       ?type_case_p@?$output_processor@DV?$stream_output_adapter@D@__crt_stdio_output@@V?$standard_base@DV?$stream_output_adapter@D@__crt_stdio_output@@@2@@__crt_stdio_output@@AAE_NXZ 10060710 f i libucrtd:output.obj
 0001:0005f740       ?type_case_p@?$output_processor@DV?$string_output_adapter@D@__crt_stdio_output@@V?$format_validation_base@DV?$string_output_adapter@D@__crt_stdio_output@@@2@@__crt_stdio_output@@AAE_NXZ 10060740 f i libucrtd:output.obj
 0001:0005f770       ?type_case_p@?$output_processor@DV?$string_output_adapter@D@__crt_stdio_output@@V?$positional_parameter_base@DV?$string_output_adapter@D@__crt_stdio_output@@@2@@__crt_stdio_output@@AAE_NXZ 10060770 f i libucrtd:output.obj
 0001:0005f7a0       ?type_case_p@?$output_processor@DV?$string_output_adapter@D@__crt_stdio_output@@V?$standard_base@DV?$string_output_adapter@D@__crt_stdio_output@@@2@@__crt_stdio_output@@AAE_NXZ 100607a0 f i libucrtd:output.obj
 0001:0005f7d0       ?type_case_p@?$output_processor@_WV?$stream_output_adapter@_W@__crt_stdio_output@@V?$format_validation_base@_WV?$stream_output_adapter@_W@__crt_stdio_output@@@2@@__crt_stdio_output@@AAE_NXZ 100607d0 f i libucrtd:output.obj
 0001:0005f800       ?type_case_p@?$output_processor@_WV?$stream_output_adapter@_W@__crt_stdio_output@@V?$positional_parameter_base@_WV?$stream_output_adapter@_W@__crt_stdio_output@@@2@@__crt_stdio_output@@AAE_NXZ 10060800 f i libucrtd:output.obj
 0001:0005f830       ?type_case_p@?$output_processor@_WV?$stream_output_adapter@_W@__crt_stdio_output@@V?$standard_base@_WV?$stream_output_adapter@_W@__crt_stdio_output@@@2@@__crt_stdio_output@@AAE_NXZ 10060830 f i libucrtd:output.obj
 0001:0005f860       ?type_case_p@?$output_processor@_WV?$string_output_adapter@_W@__crt_stdio_output@@V?$format_validation_base@_WV?$string_output_adapter@_W@__crt_stdio_output@@@2@@__crt_stdio_output@@AAE_NXZ 10060860 f i libucrtd:output.obj
 0001:0005f890       ?type_case_p@?$output_processor@_WV?$string_output_adapter@_W@__crt_stdio_output@@V?$positional_parameter_base@_WV?$string_output_adapter@_W@__crt_stdio_output@@@2@@__crt_stdio_output@@AAE_NXZ 10060890 f i libucrtd:output.obj
 0001:0005f8c0       ?type_case_p@?$output_processor@_WV?$string_output_adapter@_W@__crt_stdio_output@@V?$standard_base@_WV?$string_output_adapter@_W@__crt_stdio_output@@@2@@__crt_stdio_output@@AAE_NXZ 100608c0 f i libucrtd:output.obj
 0001:0005f8f0       ?type_case_s@?$output_processor@DV?$stream_output_adapter@D@__crt_stdio_output@@V?$format_validation_base@DV?$stream_output_adapter@D@__crt_stdio_output@@@2@@__crt_stdio_output@@AAE_NXZ 100608f0 f i libucrtd:output.obj
 0001:0005f9e0       ?type_case_s@?$output_processor@DV?$stream_output_adapter@D@__crt_stdio_output@@V?$positional_parameter_base@DV?$stream_output_adapter@D@__crt_stdio_output@@@2@@__crt_stdio_output@@AAE_NXZ 100609e0 f i libucrtd:output.obj
 0001:0005fad0       ?type_case_s@?$output_processor@DV?$stream_output_adapter@D@__crt_stdio_output@@V?$standard_base@DV?$stream_output_adapter@D@__crt_stdio_output@@@2@@__crt_stdio_output@@AAE_NXZ 10060ad0 f i libucrtd:output.obj
 0001:0005fbc0       ?type_case_s@?$output_processor@DV?$string_output_adapter@D@__crt_stdio_output@@V?$format_validation_base@DV?$string_output_adapter@D@__crt_stdio_output@@@2@@__crt_stdio_output@@AAE_NXZ 10060bc0 f i libucrtd:output.obj
 0001:0005fcb0       ?type_case_s@?$output_processor@DV?$string_output_adapter@D@__crt_stdio_output@@V?$positional_parameter_base@DV?$string_output_adapter@D@__crt_stdio_output@@@2@@__crt_stdio_output@@AAE_NXZ 10060cb0 f i libucrtd:output.obj
 0001:0005fda0       ?type_case_s@?$output_processor@DV?$string_output_adapter@D@__crt_stdio_output@@V?$standard_base@DV?$string_output_adapter@D@__crt_stdio_output@@@2@@__crt_stdio_output@@AAE_NXZ 10060da0 f i libucrtd:output.obj
 0001:0005fe90       ?type_case_s@?$output_processor@_WV?$stream_output_adapter@_W@__crt_stdio_output@@V?$format_validation_base@_WV?$stream_output_adapter@_W@__crt_stdio_output@@@2@@__crt_stdio_output@@AAE_NXZ 10060e90 f i libucrtd:output.obj
 0001:0005ff80       ?type_case_s@?$output_processor@_WV?$stream_output_adapter@_W@__crt_stdio_output@@V?$positional_parameter_base@_WV?$stream_output_adapter@_W@__crt_stdio_output@@@2@@__crt_stdio_output@@AAE_NXZ 10060f80 f i libucrtd:output.obj
 0001:00060070       ?type_case_s@?$output_processor@_WV?$stream_output_adapter@_W@__crt_stdio_output@@V?$standard_base@_WV?$stream_output_adapter@_W@__crt_stdio_output@@@2@@__crt_stdio_output@@AAE_NXZ 10061070 f i libucrtd:output.obj
 0001:00060160       ?type_case_s@?$output_processor@_WV?$string_output_adapter@_W@__crt_stdio_output@@V?$format_validation_base@_WV?$string_output_adapter@_W@__crt_stdio_output@@@2@@__crt_stdio_output@@AAE_NXZ 10061160 f i libucrtd:output.obj
 0001:00060250       ?type_case_s@?$output_processor@_WV?$string_output_adapter@_W@__crt_stdio_output@@V?$positional_parameter_base@_WV?$string_output_adapter@_W@__crt_stdio_output@@@2@@__crt_stdio_output@@AAE_NXZ 10061250 f i libucrtd:output.obj
 0001:00060340       ?type_case_s@?$output_processor@_WV?$string_output_adapter@_W@__crt_stdio_output@@V?$standard_base@_WV?$string_output_adapter@_W@__crt_stdio_output@@@2@@__crt_stdio_output@@AAE_NXZ 10061340 f i libucrtd:output.obj
 0001:00060430       ?type_case_s_compute_narrow_string_length@?$output_processor@DV?$stream_output_adapter@D@__crt_stdio_output@@V?$format_validation_base@DV?$stream_output_adapter@D@__crt_stdio_output@@@2@@__crt_stdio_output@@ABEHHD@Z 10061430 f i libucrtd:output.obj
 0001:00060460       ?type_case_s_compute_narrow_string_length@?$output_processor@DV?$stream_output_adapter@D@__crt_stdio_output@@V?$positional_parameter_base@DV?$stream_output_adapter@D@__crt_stdio_output@@@2@@__crt_stdio_output@@ABEHHD@Z 10061460 f i libucrtd:output.obj
 0001:00060490       ?type_case_s_compute_narrow_string_length@?$output_processor@DV?$stream_output_adapter@D@__crt_stdio_output@@V?$standard_base@DV?$stream_output_adapter@D@__crt_stdio_output@@@2@@__crt_stdio_output@@ABEHHD@Z 10061490 f i libucrtd:output.obj
 0001:000604c0       ?type_case_s_compute_narrow_string_length@?$output_processor@DV?$string_output_adapter@D@__crt_stdio_output@@V?$format_validation_base@DV?$string_output_adapter@D@__crt_stdio_output@@@2@@__crt_stdio_output@@ABEHHD@Z 100614c0 f i libucrtd:output.obj
 0001:000604f0       ?type_case_s_compute_narrow_string_length@?$output_processor@DV?$string_output_adapter@D@__crt_stdio_output@@V?$positional_parameter_base@DV?$string_output_adapter@D@__crt_stdio_output@@@2@@__crt_stdio_output@@ABEHHD@Z 100614f0 f i libucrtd:output.obj
 0001:00060520       ?type_case_s_compute_narrow_string_length@?$output_processor@DV?$string_output_adapter@D@__crt_stdio_output@@V?$standard_base@DV?$string_output_adapter@D@__crt_stdio_output@@@2@@__crt_stdio_output@@ABEHHD@Z 10061520 f i libucrtd:output.obj
 0001:00060550       ?type_case_s_compute_narrow_string_length@?$output_processor@_WV?$stream_output_adapter@_W@__crt_stdio_output@@V?$format_validation_base@_WV?$stream_output_adapter@_W@__crt_stdio_output@@@2@@__crt_stdio_output@@ABEHH_W@Z 10061550 f i libucrtd:output.obj
 0001:000605c0       ?type_case_s_compute_narrow_string_length@?$output_processor@_WV?$stream_output_adapter@_W@__crt_stdio_output@@V?$positional_parameter_base@_WV?$stream_output_adapter@_W@__crt_stdio_output@@@2@@__crt_stdio_output@@ABEHH_W@Z 100615c0 f i libucrtd:output.obj
 0001:00060630       ?type_case_s_compute_narrow_string_length@?$output_processor@_WV?$stream_output_adapter@_W@__crt_stdio_output@@V?$standard_base@_WV?$stream_output_adapter@_W@__crt_stdio_output@@@2@@__crt_stdio_output@@ABEHH_W@Z 10061630 f i libucrtd:output.obj
 0001:000606a0       ?type_case_s_compute_narrow_string_length@?$output_processor@_WV?$string_output_adapter@_W@__crt_stdio_output@@V?$format_validation_base@_WV?$string_output_adapter@_W@__crt_stdio_output@@@2@@__crt_stdio_output@@ABEHH_W@Z 100616a0 f i libucrtd:output.obj
 0001:00060710       ?type_case_s_compute_narrow_string_length@?$output_processor@_WV?$string_output_adapter@_W@__crt_stdio_output@@V?$positional_parameter_base@_WV?$string_output_adapter@_W@__crt_stdio_output@@@2@@__crt_stdio_output@@ABEHH_W@Z 10061710 f i libucrtd:output.obj
 0001:00060780       ?type_case_s_compute_narrow_string_length@?$output_processor@_WV?$string_output_adapter@_W@__crt_stdio_output@@V?$standard_base@_WV?$string_output_adapter@_W@__crt_stdio_output@@@2@@__crt_stdio_output@@ABEHH_W@Z 10061780 f i libucrtd:output.obj
 0001:000607f0       ?type_case_u@?$output_processor@DV?$stream_output_adapter@D@__crt_stdio_output@@V?$format_validation_base@DV?$stream_output_adapter@D@__crt_stdio_output@@@2@@__crt_stdio_output@@AAE_NXZ 100617f0 f i libucrtd:output.obj
 0001:00060810       ?type_case_u@?$output_processor@DV?$stream_output_adapter@D@__crt_stdio_output@@V?$positional_parameter_base@DV?$stream_output_adapter@D@__crt_stdio_output@@@2@@__crt_stdio_output@@AAE_NXZ 10061810 f i libucrtd:output.obj
 0001:00060830       ?type_case_u@?$output_processor@DV?$stream_output_adapter@D@__crt_stdio_output@@V?$standard_base@DV?$stream_output_adapter@D@__crt_stdio_output@@@2@@__crt_stdio_output@@AAE_NXZ 10061830 f i libucrtd:output.obj
 0001:00060850       ?type_case_u@?$output_processor@DV?$string_output_adapter@D@__crt_stdio_output@@V?$format_validation_base@DV?$string_output_adapter@D@__crt_stdio_output@@@2@@__crt_stdio_output@@AAE_NXZ 10061850 f i libucrtd:output.obj
 0001:00060870       ?type_case_u@?$output_processor@DV?$string_output_adapter@D@__crt_stdio_output@@V?$positional_parameter_base@DV?$string_output_adapter@D@__crt_stdio_output@@@2@@__crt_stdio_output@@AAE_NXZ 10061870 f i libucrtd:output.obj
 0001:00060890       ?type_case_u@?$output_processor@DV?$string_output_adapter@D@__crt_stdio_output@@V?$standard_base@DV?$string_output_adapter@D@__crt_stdio_output@@@2@@__crt_stdio_output@@AAE_NXZ 10061890 f i libucrtd:output.obj
 0001:000608b0       ?type_case_u@?$output_processor@_WV?$stream_output_adapter@_W@__crt_stdio_output@@V?$format_validation_base@_WV?$stream_output_adapter@_W@__crt_stdio_output@@@2@@__crt_stdio_output@@AAE_NXZ 100618b0 f i libucrtd:output.obj
 0001:000608d0       ?type_case_u@?$output_processor@_WV?$stream_output_adapter@_W@__crt_stdio_output@@V?$positional_parameter_base@_WV?$stream_output_adapter@_W@__crt_stdio_output@@@2@@__crt_stdio_output@@AAE_NXZ 100618d0 f i libucrtd:output.obj
 0001:000608f0       ?type_case_u@?$output_processor@_WV?$stream_output_adapter@_W@__crt_stdio_output@@V?$standard_base@_WV?$stream_output_adapter@_W@__crt_stdio_output@@@2@@__crt_stdio_output@@AAE_NXZ 100618f0 f i libucrtd:output.obj
 0001:00060910       ?type_case_u@?$output_processor@_WV?$string_output_adapter@_W@__crt_stdio_output@@V?$format_validation_base@_WV?$string_output_adapter@_W@__crt_stdio_output@@@2@@__crt_stdio_output@@AAE_NXZ 10061910 f i libucrtd:output.obj
 0001:00060930       ?type_case_u@?$output_processor@_WV?$string_output_adapter@_W@__crt_stdio_output@@V?$positional_parameter_base@_WV?$string_output_adapter@_W@__crt_stdio_output@@@2@@__crt_stdio_output@@AAE_NXZ 10061930 f i libucrtd:output.obj
 0001:00060950       ?type_case_u@?$output_processor@_WV?$string_output_adapter@_W@__crt_stdio_output@@V?$standard_base@_WV?$string_output_adapter@_W@__crt_stdio_output@@@2@@__crt_stdio_output@@AAE_NXZ 10061950 f i libucrtd:output.obj
 0001:00060970       ?type_case_x@?$output_processor@DV?$stream_output_adapter@D@__crt_stdio_output@@V?$format_validation_base@DV?$stream_output_adapter@D@__crt_stdio_output@@@2@@__crt_stdio_output@@AAE_NXZ 10061970 f i libucrtd:output.obj
 0001:00060990       ?type_case_x@?$output_processor@DV?$stream_output_adapter@D@__crt_stdio_output@@V?$positional_parameter_base@DV?$stream_output_adapter@D@__crt_stdio_output@@@2@@__crt_stdio_output@@AAE_NXZ 10061990 f i libucrtd:output.obj
 0001:000609b0       ?type_case_x@?$output_processor@DV?$stream_output_adapter@D@__crt_stdio_output@@V?$standard_base@DV?$stream_output_adapter@D@__crt_stdio_output@@@2@@__crt_stdio_output@@AAE_NXZ 100619b0 f i libucrtd:output.obj
 0001:000609d0       ?type_case_x@?$output_processor@DV?$string_output_adapter@D@__crt_stdio_output@@V?$format_validation_base@DV?$string_output_adapter@D@__crt_stdio_output@@@2@@__crt_stdio_output@@AAE_NXZ 100619d0 f i libucrtd:output.obj
 0001:000609f0       ?type_case_x@?$output_processor@DV?$string_output_adapter@D@__crt_stdio_output@@V?$positional_parameter_base@DV?$string_output_adapter@D@__crt_stdio_output@@@2@@__crt_stdio_output@@AAE_NXZ 100619f0 f i libucrtd:output.obj
 0001:00060a10       ?type_case_x@?$output_processor@DV?$string_output_adapter@D@__crt_stdio_output@@V?$standard_base@DV?$string_output_adapter@D@__crt_stdio_output@@@2@@__crt_stdio_output@@AAE_NXZ 10061a10 f i libucrtd:output.obj
 0001:00060a30       ?type_case_x@?$output_processor@_WV?$stream_output_adapter@_W@__crt_stdio_output@@V?$format_validation_base@_WV?$stream_output_adapter@_W@__crt_stdio_output@@@2@@__crt_stdio_output@@AAE_NXZ 10061a30 f i libucrtd:output.obj
 0001:00060a50       ?type_case_x@?$output_processor@_WV?$stream_output_adapter@_W@__crt_stdio_output@@V?$positional_parameter_base@_WV?$stream_output_adapter@_W@__crt_stdio_output@@@2@@__crt_stdio_output@@AAE_NXZ 10061a50 f i libucrtd:output.obj
 0001:00060a70       ?type_case_x@?$output_processor@_WV?$stream_output_adapter@_W@__crt_stdio_output@@V?$standard_base@_WV?$stream_output_adapter@_W@__crt_stdio_output@@@2@@__crt_stdio_output@@AAE_NXZ 10061a70 f i libucrtd:output.obj
 0001:00060a90       ?type_case_x@?$output_processor@_WV?$string_output_adapter@_W@__crt_stdio_output@@V?$format_validation_base@_WV?$string_output_adapter@_W@__crt_stdio_output@@@2@@__crt_stdio_output@@AAE_NXZ 10061a90 f i libucrtd:output.obj
 0001:00060ab0       ?type_case_x@?$output_processor@_WV?$string_output_adapter@_W@__crt_stdio_output@@V?$positional_parameter_base@_WV?$string_output_adapter@_W@__crt_stdio_output@@@2@@__crt_stdio_output@@AAE_NXZ 10061ab0 f i libucrtd:output.obj
 0001:00060ad0       ?type_case_x@?$output_processor@_WV?$string_output_adapter@_W@__crt_stdio_output@@V?$standard_base@_WV?$string_output_adapter@_W@__crt_stdio_output@@@2@@__crt_stdio_output@@AAE_NXZ 10061ad0 f i libucrtd:output.obj
 0001:00060af0       ?unset_flag@?$output_processor@DV?$stream_output_adapter@D@__crt_stdio_output@@V?$format_validation_base@DV?$stream_output_adapter@D@__crt_stdio_output@@@2@@__crt_stdio_output@@AAEXI@Z 10061af0 f i libucrtd:output.obj
 0001:00060b10       ?unset_flag@?$output_processor@DV?$stream_output_adapter@D@__crt_stdio_output@@V?$positional_parameter_base@DV?$stream_output_adapter@D@__crt_stdio_output@@@2@@__crt_stdio_output@@AAEXI@Z 10061b10 f i libucrtd:output.obj
 0001:00060b30       ?unset_flag@?$output_processor@DV?$stream_output_adapter@D@__crt_stdio_output@@V?$standard_base@DV?$stream_output_adapter@D@__crt_stdio_output@@@2@@__crt_stdio_output@@AAEXI@Z 10061b30 f i libucrtd:output.obj
 0001:00060b50       ?unset_flag@?$output_processor@DV?$string_output_adapter@D@__crt_stdio_output@@V?$format_validation_base@DV?$string_output_adapter@D@__crt_stdio_output@@@2@@__crt_stdio_output@@AAEXI@Z 10061b50 f i libucrtd:output.obj
 0001:00060b70       ?unset_flag@?$output_processor@DV?$string_output_adapter@D@__crt_stdio_output@@V?$positional_parameter_base@DV?$string_output_adapter@D@__crt_stdio_output@@@2@@__crt_stdio_output@@AAEXI@Z 10061b70 f i libucrtd:output.obj
 0001:00060b90       ?unset_flag@?$output_processor@DV?$string_output_adapter@D@__crt_stdio_output@@V?$standard_base@DV?$string_output_adapter@D@__crt_stdio_output@@@2@@__crt_stdio_output@@AAEXI@Z 10061b90 f i libucrtd:output.obj
 0001:00060bb0       ?unset_flag@?$output_processor@_WV?$stream_output_adapter@_W@__crt_stdio_output@@V?$format_validation_base@_WV?$stream_output_adapter@_W@__crt_stdio_output@@@2@@__crt_stdio_output@@AAEXI@Z 10061bb0 f i libucrtd:output.obj
 0001:00060bd0       ?unset_flag@?$output_processor@_WV?$stream_output_adapter@_W@__crt_stdio_output@@V?$positional_parameter_base@_WV?$stream_output_adapter@_W@__crt_stdio_output@@@2@@__crt_stdio_output@@AAEXI@Z 10061bd0 f i libucrtd:output.obj
 0001:00060bf0       ?unset_flag@?$output_processor@_WV?$stream_output_adapter@_W@__crt_stdio_output@@V?$standard_base@_WV?$stream_output_adapter@_W@__crt_stdio_output@@@2@@__crt_stdio_output@@AAEXI@Z 10061bf0 f i libucrtd:output.obj
 0001:00060c10       ?unset_flag@?$output_processor@_WV?$string_output_adapter@_W@__crt_stdio_output@@V?$format_validation_base@_WV?$string_output_adapter@_W@__crt_stdio_output@@@2@@__crt_stdio_output@@AAEXI@Z 10061c10 f i libucrtd:output.obj
 0001:00060c30       ?unset_flag@?$output_processor@_WV?$string_output_adapter@_W@__crt_stdio_output@@V?$positional_parameter_base@_WV?$string_output_adapter@_W@__crt_stdio_output@@@2@@__crt_stdio_output@@AAEXI@Z 10061c30 f i libucrtd:output.obj
 0001:00060c50       ?unset_flag@?$output_processor@_WV?$string_output_adapter@_W@__crt_stdio_output@@V?$standard_base@_WV?$string_output_adapter@_W@__crt_stdio_output@@@2@@__crt_stdio_output@@AAEXI@Z 10061c50 f i libucrtd:output.obj
 0001:00060c70       ?update_field_width@?$positional_parameter_base@DV?$stream_output_adapter@D@__crt_stdio_output@@@__crt_stdio_output@@IAE_NXZ 10061c70 f i libucrtd:output.obj
 0001:00060df0       ?update_field_width@?$positional_parameter_base@DV?$string_output_adapter@D@__crt_stdio_output@@@__crt_stdio_output@@IAE_NXZ 10061df0 f i libucrtd:output.obj
 0001:00060f70       ?update_field_width@?$positional_parameter_base@_WV?$stream_output_adapter@_W@__crt_stdio_output@@@__crt_stdio_output@@IAE_NXZ 10061f70 f i libucrtd:output.obj
 0001:000610f0       ?update_field_width@?$positional_parameter_base@_WV?$string_output_adapter@_W@__crt_stdio_output@@@__crt_stdio_output@@IAE_NXZ 100620f0 f i libucrtd:output.obj
 0001:00061270       ?update_field_width@?$standard_base@DV?$stream_output_adapter@D@__crt_stdio_output@@@__crt_stdio_output@@IAE_NXZ 10062270 f i libucrtd:output.obj
 0001:000612a0       ?update_field_width@?$standard_base@DV?$string_output_adapter@D@__crt_stdio_output@@@__crt_stdio_output@@IAE_NXZ 100622a0 f i libucrtd:output.obj
 0001:000612d0       ?update_field_width@?$standard_base@_WV?$stream_output_adapter@_W@__crt_stdio_output@@@__crt_stdio_output@@IAE_NXZ 100622d0 f i libucrtd:output.obj
 0001:00061300       ?update_field_width@?$standard_base@_WV?$string_output_adapter@_W@__crt_stdio_output@@@__crt_stdio_output@@IAE_NXZ 10062300 f i libucrtd:output.obj
 0001:00061330       ?update_precision@?$positional_parameter_base@DV?$stream_output_adapter@D@__crt_stdio_output@@@__crt_stdio_output@@IAE_NXZ 10062330 f i libucrtd:output.obj
 0001:000614b0       ?update_precision@?$positional_parameter_base@DV?$string_output_adapter@D@__crt_stdio_output@@@__crt_stdio_output@@IAE_NXZ 100624b0 f i libucrtd:output.obj
 0001:00061630       ?update_precision@?$positional_parameter_base@_WV?$stream_output_adapter@_W@__crt_stdio_output@@@__crt_stdio_output@@IAE_NXZ 10062630 f i libucrtd:output.obj
 0001:000617b0       ?update_precision@?$positional_parameter_base@_WV?$string_output_adapter@_W@__crt_stdio_output@@@__crt_stdio_output@@IAE_NXZ 100627b0 f i libucrtd:output.obj
 0001:00061930       ?update_precision@?$standard_base@DV?$stream_output_adapter@D@__crt_stdio_output@@@__crt_stdio_output@@IAE_NXZ 10062930 f i libucrtd:output.obj
 0001:00061960       ?update_precision@?$standard_base@DV?$string_output_adapter@D@__crt_stdio_output@@@__crt_stdio_output@@IAE_NXZ 10062960 f i libucrtd:output.obj
 0001:00061990       ?update_precision@?$standard_base@_WV?$stream_output_adapter@_W@__crt_stdio_output@@@__crt_stdio_output@@IAE_NXZ 10062990 f i libucrtd:output.obj
 0001:000619c0       ?update_precision@?$standard_base@_WV?$string_output_adapter@_W@__crt_stdio_output@@@__crt_stdio_output@@IAE_NXZ 100629c0 f i libucrtd:output.obj
 0001:000619f0       ?valid@__crt_stdio_stream@@QBE_NXZ 100629f0 f i libucrtd:output.obj
 0001:00061a20       ?validate@?$stream_output_adapter@D@__crt_stdio_output@@QBE_NXZ 10062a20 f i libucrtd:output.obj
 0001:00061ac0       ?validate@?$stream_output_adapter@_W@__crt_stdio_output@@QBE_NXZ 10062ac0 f i libucrtd:output.obj
 0001:00061b60       ?validate@?$string_output_adapter@D@__crt_stdio_output@@QBE_NXZ 10062b60 f i libucrtd:output.obj
 0001:00061bf0       ?validate@?$string_output_adapter@_W@__crt_stdio_output@@QBE_NXZ 10062bf0 f i libucrtd:output.obj
 0001:00061c80       ?validate_and_store_parameter_data@?$positional_parameter_base@DV?$stream_output_adapter@D@__crt_stdio_output@@@__crt_stdio_output@@AAE_NAAUparameter_data@12@W4parameter_type@12@DW4length_modifier@2@@Z 10062c80 f i libucrtd:output.obj
 0001:00061d50       ?validate_and_store_parameter_data@?$positional_parameter_base@DV?$string_output_adapter@D@__crt_stdio_output@@@__crt_stdio_output@@AAE_NAAUparameter_data@12@W4parameter_type@12@DW4length_modifier@2@@Z 10062d50 f i libucrtd:output.obj
 0001:00061e20       ?validate_and_store_parameter_data@?$positional_parameter_base@_WV?$stream_output_adapter@_W@__crt_stdio_output@@@__crt_stdio_output@@AAE_NAAUparameter_data@12@W4parameter_type@12@_WW4length_modifier@2@@Z 10062e20 f i libucrtd:output.obj
 0001:00061f00       ?validate_and_store_parameter_data@?$positional_parameter_base@_WV?$string_output_adapter@_W@__crt_stdio_output@@@__crt_stdio_output@@AAE_NAAUparameter_data@12@W4parameter_type@12@_WW4length_modifier@2@@Z 10062f00 f i libucrtd:output.obj
 0001:00061fe0       ?validate_and_update_state_at_beginning_of_format_character@?$positional_parameter_base@DV?$stream_output_adapter@D@__crt_stdio_output@@@__crt_stdio_output@@IAE_NXZ 10062fe0 f i libucrtd:output.obj
 0001:00062200       ?validate_and_update_state_at_beginning_of_format_character@?$positional_parameter_base@DV?$string_output_adapter@D@__crt_stdio_output@@@__crt_stdio_output@@IAE_NXZ 10063200 f i libucrtd:output.obj
 0001:00062420       ?validate_and_update_state_at_beginning_of_format_character@?$positional_parameter_base@_WV?$stream_output_adapter@_W@__crt_stdio_output@@@__crt_stdio_output@@IAE_NXZ 10063420 f i libucrtd:output.obj
 0001:00062640       ?validate_and_update_state_at_beginning_of_format_character@?$positional_parameter_base@_WV?$string_output_adapter@_W@__crt_stdio_output@@@__crt_stdio_output@@IAE_NXZ 10063640 f i libucrtd:output.obj
 0001:00062860       ?validate_and_update_state_at_beginning_of_format_character@?$standard_base@DV?$stream_output_adapter@D@__crt_stdio_output@@@__crt_stdio_output@@IAE_NXZ 10063860 f i libucrtd:output.obj
 0001:00062870       ?validate_and_update_state_at_beginning_of_format_character@?$standard_base@DV?$string_output_adapter@D@__crt_stdio_output@@@__crt_stdio_output@@IAE_NXZ 10063870 f i libucrtd:output.obj
 0001:00062880       ?validate_and_update_state_at_beginning_of_format_character@?$standard_base@_WV?$stream_output_adapter@_W@__crt_stdio_output@@@__crt_stdio_output@@IAE_NXZ 10063880 f i libucrtd:output.obj
 0001:00062890       ?validate_and_update_state_at_beginning_of_format_character@?$standard_base@_WV?$string_output_adapter@_W@__crt_stdio_output@@@__crt_stdio_output@@IAE_NXZ 10063890 f i libucrtd:output.obj
 0001:000628a0       ?validate_and_update_state_at_end_of_format_string@?$format_validation_base@DV?$stream_output_adapter@D@__crt_stdio_output@@@__crt_stdio_output@@IBE_NXZ 100638a0 f i libucrtd:output.obj
 0001:00062940       ?validate_and_update_state_at_end_of_format_string@?$format_validation_base@DV?$string_output_adapter@D@__crt_stdio_output@@@__crt_stdio_output@@IBE_NXZ 10063940 f i libucrtd:output.obj
 0001:000629e0       ?validate_and_update_state_at_end_of_format_string@?$format_validation_base@_WV?$stream_output_adapter@_W@__crt_stdio_output@@@__crt_stdio_output@@IBE_NXZ 100639e0 f i libucrtd:output.obj
 0001:00062a80       ?validate_and_update_state_at_end_of_format_string@?$format_validation_base@_WV?$string_output_adapter@_W@__crt_stdio_output@@@__crt_stdio_output@@IBE_NXZ 10063a80 f i libucrtd:output.obj
 0001:00062b20       ?validate_and_update_state_at_end_of_format_string@?$positional_parameter_base@DV?$stream_output_adapter@D@__crt_stdio_output@@@__crt_stdio_output@@IAE_NXZ 10063b20 f i libucrtd:output.obj
 0001:00062cc0       ?validate_and_update_state_at_end_of_format_string@?$positional_parameter_base@DV?$string_output_adapter@D@__crt_stdio_output@@@__crt_stdio_output@@IAE_NXZ 10063cc0 f i libucrtd:output.obj
 0001:00062e60       ?validate_and_update_state_at_end_of_format_string@?$positional_parameter_base@_WV?$stream_output_adapter@_W@__crt_stdio_output@@@__crt_stdio_output@@IAE_NXZ 10063e60 f i libucrtd:output.obj
 0001:00063000       ?validate_and_update_state_at_end_of_format_string@?$positional_parameter_base@_WV?$string_output_adapter@_W@__crt_stdio_output@@@__crt_stdio_output@@IAE_NXZ 10064000 f i libucrtd:output.obj
 0001:000631a0       ?validate_and_update_state_at_end_of_format_string@?$standard_base@DV?$stream_output_adapter@D@__crt_stdio_output@@@__crt_stdio_output@@IBE_NXZ 100641a0 f i libucrtd:output.obj
 0001:000631b0       ?validate_and_update_state_at_end_of_format_string@?$standard_base@DV?$string_output_adapter@D@__crt_stdio_output@@@__crt_stdio_output@@IBE_NXZ 100641b0 f i libucrtd:output.obj
 0001:000631c0       ?validate_and_update_state_at_end_of_format_string@?$standard_base@_WV?$stream_output_adapter@_W@__crt_stdio_output@@@__crt_stdio_output@@IBE_NXZ 100641c0 f i libucrtd:output.obj
 0001:000631d0       ?validate_and_update_state_at_end_of_format_string@?$standard_base@_WV?$string_output_adapter@_W@__crt_stdio_output@@@__crt_stdio_output@@IBE_NXZ 100641d0 f i libucrtd:output.obj
 0001:000631e0       ?validate_state_for_type_case_a@?$positional_parameter_base@DV?$stream_output_adapter@D@__crt_stdio_output@@@__crt_stdio_output@@IAE_NXZ 100641e0 f i libucrtd:output.obj
 0001:000632d0       ?validate_state_for_type_case_a@?$positional_parameter_base@DV?$string_output_adapter@D@__crt_stdio_output@@@__crt_stdio_output@@IAE_NXZ 100642d0 f i libucrtd:output.obj
 0001:000633c0       ?validate_state_for_type_case_a@?$positional_parameter_base@_WV?$stream_output_adapter@_W@__crt_stdio_output@@@__crt_stdio_output@@IAE_NXZ 100643c0 f i libucrtd:output.obj
 0001:000634b0       ?validate_state_for_type_case_a@?$positional_parameter_base@_WV?$string_output_adapter@_W@__crt_stdio_output@@@__crt_stdio_output@@IAE_NXZ 100644b0 f i libucrtd:output.obj
 0001:000635a0       ?validate_state_for_type_case_a@?$standard_base@DV?$stream_output_adapter@D@__crt_stdio_output@@@__crt_stdio_output@@IBE_NXZ 100645a0 f i libucrtd:output.obj
 0001:000635b0       ?validate_state_for_type_case_a@?$standard_base@DV?$string_output_adapter@D@__crt_stdio_output@@@__crt_stdio_output@@IBE_NXZ 100645b0 f i libucrtd:output.obj
 0001:000635c0       ?validate_state_for_type_case_a@?$standard_base@_WV?$stream_output_adapter@_W@__crt_stdio_output@@@__crt_stdio_output@@IBE_NXZ 100645c0 f i libucrtd:output.obj
 0001:000635d0       ?validate_state_for_type_case_a@?$standard_base@_WV?$string_output_adapter@_W@__crt_stdio_output@@@__crt_stdio_output@@IBE_NXZ 100645d0 f i libucrtd:output.obj
 0001:000635e0       ?validate_stream_is_ansi_if_required@?$__acrt_stdio_char_traits@D@@SA_NQAU_iobuf@@@Z 100645e0 f i libucrtd:output.obj
 0001:00063710       ?validate_stream_is_ansi_if_required@?$__acrt_stdio_char_traits@_W@@SA_NQAU_iobuf@@@Z 10064710 f i libucrtd:output.obj
 0001:00063720       ?wide_null_string@?$output_processor@DV?$stream_output_adapter@D@__crt_stdio_output@@V?$format_validation_base@DV?$stream_output_adapter@D@__crt_stdio_output@@@2@@__crt_stdio_output@@CAPA_WXZ 10064720 f i libucrtd:output.obj
 0001:00063730       ?wide_null_string@?$output_processor@DV?$stream_output_adapter@D@__crt_stdio_output@@V?$positional_parameter_base@DV?$stream_output_adapter@D@__crt_stdio_output@@@2@@__crt_stdio_output@@CAPA_WXZ 10064730 f i libucrtd:output.obj
 0001:00063740       ?wide_null_string@?$output_processor@DV?$stream_output_adapter@D@__crt_stdio_output@@V?$standard_base@DV?$stream_output_adapter@D@__crt_stdio_output@@@2@@__crt_stdio_output@@CAPA_WXZ 10064740 f i libucrtd:output.obj
 0001:00063750       ?wide_null_string@?$output_processor@DV?$string_output_adapter@D@__crt_stdio_output@@V?$format_validation_base@DV?$string_output_adapter@D@__crt_stdio_output@@@2@@__crt_stdio_output@@CAPA_WXZ 10064750 f i libucrtd:output.obj
 0001:00063760       ?wide_null_string@?$output_processor@DV?$string_output_adapter@D@__crt_stdio_output@@V?$positional_parameter_base@DV?$string_output_adapter@D@__crt_stdio_output@@@2@@__crt_stdio_output@@CAPA_WXZ 10064760 f i libucrtd:output.obj
 0001:00063770       ?wide_null_string@?$output_processor@DV?$string_output_adapter@D@__crt_stdio_output@@V?$standard_base@DV?$string_output_adapter@D@__crt_stdio_output@@@2@@__crt_stdio_output@@CAPA_WXZ 10064770 f i libucrtd:output.obj
 0001:00063780       ?wide_null_string@?$output_processor@_WV?$stream_output_adapter@_W@__crt_stdio_output@@V?$format_validation_base@_WV?$stream_output_adapter@_W@__crt_stdio_output@@@2@@__crt_stdio_output@@CAPA_WXZ 10064780 f i libucrtd:output.obj
 0001:00063790       ?wide_null_string@?$output_processor@_WV?$stream_output_adapter@_W@__crt_stdio_output@@V?$positional_parameter_base@_WV?$stream_output_adapter@_W@__crt_stdio_output@@@2@@__crt_stdio_output@@CAPA_WXZ 10064790 f i libucrtd:output.obj
 0001:000637a0       ?wide_null_string@?$output_processor@_WV?$stream_output_adapter@_W@__crt_stdio_output@@V?$standard_base@_WV?$stream_output_adapter@_W@__crt_stdio_output@@@2@@__crt_stdio_output@@CAPA_WXZ 100647a0 f i libucrtd:output.obj
 0001:000637b0       ?wide_null_string@?$output_processor@_WV?$string_output_adapter@_W@__crt_stdio_output@@V?$format_validation_base@_WV?$string_output_adapter@_W@__crt_stdio_output@@@2@@__crt_stdio_output@@CAPA_WXZ 100647b0 f i libucrtd:output.obj
 0001:000637c0       ?wide_null_string@?$output_processor@_WV?$string_output_adapter@_W@__crt_stdio_output@@V?$positional_parameter_base@_WV?$string_output_adapter@_W@__crt_stdio_output@@@2@@__crt_stdio_output@@CAPA_WXZ 100647c0 f i libucrtd:output.obj
 0001:000637d0       ?wide_null_string@?$output_processor@_WV?$string_output_adapter@_W@__crt_stdio_output@@V?$standard_base@_WV?$string_output_adapter@_W@__crt_stdio_output@@@2@@__crt_stdio_output@@CAPA_WXZ 100647d0 f i libucrtd:output.obj
 0001:000637e0       ?write_character@?$stream_output_adapter@D@__crt_stdio_output@@QBEXDQAH@Z 100647e0 f i libucrtd:output.obj
 0001:00063860       ?write_character@?$stream_output_adapter@_W@__crt_stdio_output@@QBEX_WQAH@Z 10064860 f i libucrtd:output.obj
 0001:000638e0       ?write_character@?$string_output_adapter@D@__crt_stdio_output@@QBE_NDQAH@Z 100648e0 f i libucrtd:output.obj
 0001:00063970       ?write_character@?$string_output_adapter@_W@__crt_stdio_output@@QBE_N_WQAH@Z 10064970 f i libucrtd:output.obj
 0001:00063a10       ?write_stored_string_tchar@?$output_processor@DV?$stream_output_adapter@D@__crt_stdio_output@@V?$format_validation_base@DV?$stream_output_adapter@D@__crt_stdio_output@@@2@@__crt_stdio_output@@AAE_ND@Z 10064a10 f i libucrtd:output.obj
 0001:00063b20       ?write_stored_string_tchar@?$output_processor@DV?$stream_output_adapter@D@__crt_stdio_output@@V?$positional_parameter_base@DV?$stream_output_adapter@D@__crt_stdio_output@@@2@@__crt_stdio_output@@AAE_ND@Z 10064b20 f i libucrtd:output.obj
 0001:00063c30       ?write_stored_string_tchar@?$output_processor@DV?$stream_output_adapter@D@__crt_stdio_output@@V?$standard_base@DV?$stream_output_adapter@D@__crt_stdio_output@@@2@@__crt_stdio_output@@AAE_ND@Z 10064c30 f i libucrtd:output.obj
 0001:00063d40       ?write_stored_string_tchar@?$output_processor@DV?$string_output_adapter@D@__crt_stdio_output@@V?$format_validation_base@DV?$string_output_adapter@D@__crt_stdio_output@@@2@@__crt_stdio_output@@AAE_ND@Z 10064d40 f i libucrtd:output.obj
 0001:00063e50       ?write_stored_string_tchar@?$output_processor@DV?$string_output_adapter@D@__crt_stdio_output@@V?$positional_parameter_base@DV?$string_output_adapter@D@__crt_stdio_output@@@2@@__crt_stdio_output@@AAE_ND@Z 10064e50 f i libucrtd:output.obj
 0001:00063f60       ?write_stored_string_tchar@?$output_processor@DV?$string_output_adapter@D@__crt_stdio_output@@V?$standard_base@DV?$string_output_adapter@D@__crt_stdio_output@@@2@@__crt_stdio_output@@AAE_ND@Z 10064f60 f i libucrtd:output.obj
 0001:00064070       ?write_stored_string_tchar@?$output_processor@_WV?$stream_output_adapter@_W@__crt_stdio_output@@V?$format_validation_base@_WV?$stream_output_adapter@_W@__crt_stdio_output@@@2@@__crt_stdio_output@@AAE_N_W@Z 10065070 f i libucrtd:output.obj
 0001:00064160       ?write_stored_string_tchar@?$output_processor@_WV?$stream_output_adapter@_W@__crt_stdio_output@@V?$positional_parameter_base@_WV?$stream_output_adapter@_W@__crt_stdio_output@@@2@@__crt_stdio_output@@AAE_N_W@Z 10065160 f i libucrtd:output.obj
 0001:00064250       ?write_stored_string_tchar@?$output_processor@_WV?$stream_output_adapter@_W@__crt_stdio_output@@V?$standard_base@_WV?$stream_output_adapter@_W@__crt_stdio_output@@@2@@__crt_stdio_output@@AAE_N_W@Z 10065250 f i libucrtd:output.obj
 0001:00064340       ?write_stored_string_tchar@?$output_processor@_WV?$string_output_adapter@_W@__crt_stdio_output@@V?$format_validation_base@_WV?$string_output_adapter@_W@__crt_stdio_output@@@2@@__crt_stdio_output@@AAE_N_W@Z 10065340 f i libucrtd:output.obj
 0001:00064430       ?write_stored_string_tchar@?$output_processor@_WV?$string_output_adapter@_W@__crt_stdio_output@@V?$positional_parameter_base@_WV?$string_output_adapter@_W@__crt_stdio_output@@@2@@__crt_stdio_output@@AAE_N_W@Z 10065430 f i libucrtd:output.obj
 0001:00064520       ?write_stored_string_tchar@?$output_processor@_WV?$string_output_adapter@_W@__crt_stdio_output@@V?$standard_base@_WV?$string_output_adapter@_W@__crt_stdio_output@@@2@@__crt_stdio_output@@AAE_N_W@Z 10065520 f i libucrtd:output.obj
 0001:00064610       ?write_string@?$stream_output_adapter@D@__crt_stdio_output@@QBEXQBDHQAH1@Z 10065610 f i libucrtd:output.obj
 0001:000646c0       ?write_string@?$stream_output_adapter@_W@__crt_stdio_output@@QBEXQB_WHQAH1@Z 100656c0 f i libucrtd:output.obj
 0001:00064780       ?write_string@?$string_output_adapter@D@__crt_stdio_output@@QBEXQBDHQAH1@Z 10065780 f i libucrtd:output.obj
 0001:00064890       ?write_string@?$string_output_adapter@_W@__crt_stdio_output@@QBEXQB_WHQAH1@Z 10065890 f i libucrtd:output.obj
 0001:000649b0       ___acrt_isleadbyte_l_noupdate 100659b0 f i libucrtd:output.obj
 0001:000649d0       ___acrt_locale_changed     100659d0 f i libucrtd:output.obj
 0001:00064a00       ___stdio_common_vfprintf   10065a00 f   libucrtd:output.obj
 0001:00064a30       ___stdio_common_vfprintf_p 10065a30 f   libucrtd:output.obj
 0001:00064a60       ___stdio_common_vfprintf_s 10065a60 f   libucrtd:output.obj
 0001:00064a90       ___stdio_common_vfwprintf  10065a90 f   libucrtd:output.obj
 0001:00064ac0       ___stdio_common_vfwprintf_p 10065ac0 f   libucrtd:output.obj
 0001:00064af0       ___stdio_common_vfwprintf_s 10065af0 f   libucrtd:output.obj
 0001:00064b20       ___stdio_common_vsnprintf_s 10065b20 f   libucrtd:output.obj
 0001:00064b50       ___stdio_common_vsnwprintf_s 10065b50 f   libucrtd:output.obj
 0001:00064b80       ___stdio_common_vsprintf   10065b80 f   libucrtd:output.obj
 0001:00064bb0       ___stdio_common_vsprintf_p 10065bb0 f   libucrtd:output.obj
 0001:00064be0       ___stdio_common_vsprintf_s 10065be0 f   libucrtd:output.obj
 0001:00064c10       ___stdio_common_vswprintf  10065c10 f   libucrtd:output.obj
 0001:00064c40       ___stdio_common_vswprintf_p 10065c40 f   libucrtd:output.obj
 0001:00064c70       ___stdio_common_vswprintf_s 10065c70 f   libucrtd:output.obj
 0001:00064ca0       _free                      10065ca0 f   libucrtd:free.obj
 0001:00064cc0       _malloc                    10065cc0 f   libucrtd:malloc.obj
 0001:00064ce0       ??$?RU?$__crt_report_hook_node@D@@@__crt_internal_free_policy@@QBEXQBU?$__crt_report_hook_node@D@@@Z 10065ce0 f i libucrtd:dbgrpt.obj
 0001:00064d00       ??$?RU?$__crt_report_hook_node@_W@@@__crt_internal_free_policy@@QBEXQBU?$__crt_report_hook_node@_W@@@Z 10065d00 f i libucrtd:dbgrpt.obj
 0001:00064d20       ??$?RV<lambda_4385efabcfedf7d3ecea3114bb4d80a3>@@AAV<lambda_0e04737ef8baea6dabca2b8414b05b67>@@V<lambda_d865d276f220a9fa71140df531e906d8>@@@?$__crt_seh_guarded_call@H@@QAEH$$QAV<lambda_4385efabcfedf7d3ecea3114bb4d80a3>@@AAV<lambda_0e04737ef8baea6dabca2b8414b05b67>@@$$QAV<lambda_d865d276f220a9fa71140df531e906d8>@@@Z 10065d20 f i libucrtd:dbgrpt.obj
 0001:00064db0       ??$?RV<lambda_cc3a1c0f52e01ba2b29fe175588291fc>@@AAV<lambda_fe667bea668416e0f0232b481cd5c955>@@V<lambda_bb8fdd70844b93de4445abd0f0332611>@@@?$__crt_seh_guarded_call@H@@QAEH$$QAV<lambda_cc3a1c0f52e01ba2b29fe175588291fc>@@AAV<lambda_fe667bea668416e0f0232b481cd5c955>@@$$QAV<lambda_bb8fdd70844b93de4445abd0f0332611>@@@Z 10065db0 f i libucrtd:dbgrpt.obj
 0001:00064e40       ??$__acrt_lock_and_call@V<lambda_0e04737ef8baea6dabca2b8414b05b67>@@@@YAHW4__acrt_lock_id@@$$QAV<lambda_0e04737ef8baea6dabca2b8414b05b67>@@@Z 10065e40 f i libucrtd:dbgrpt.obj
 0001:00064e80       ??$__acrt_lock_and_call@V<lambda_fe667bea668416e0f0232b481cd5c955>@@@@YAHW4__acrt_lock_id@@$$QAV<lambda_fe667bea668416e0f0232b481cd5c955>@@@Z 10065e80 f i libucrtd:dbgrpt.obj
 0001:00064ec0       ??$__vcrt_va_start_verify_argument_type@QBD@@YAXXZ 10065ec0 f i libucrtd:dbgrpt.obj
 0001:00064ed0       ??$__vcrt_va_start_verify_argument_type@QB_W@@YAXXZ 10065ed0 f i libucrtd:dbgrpt.obj
 0001:00065ad0       ??$get_module_file_name@AAPAUHINSTANCE__@@AAY0BAF@DK@?$__crt_char_traits@D@@SAKAAPAUHINSTANCE__@@AAY0BAF@D$$QAK@Z 10066ad0 f i libucrtd:dbgrpt.obj
 0001:00065af0       ??$get_module_file_name@AAPAUHINSTANCE__@@AAY0BAF@_WK@?$__crt_char_traits@_W@@SAKAAPAUHINSTANCE__@@AAY0BAF@_W$$QAK@Z 10066af0 f i libucrtd:dbgrpt.obj
 0001:00065b10       ??$tcscpy_s@AAY0BAF@DIPBD@?$__crt_char_traits@D@@SAHAAY0BAF@D$$QAI$$QAPBD@Z 10066b10 f i libucrtd:dbgrpt.obj
 0001:00065b30       ??$tcscpy_s@AAY0BAF@_WIPB_W@?$__crt_char_traits@_W@@SAHAAY0BAF@_W$$QAI$$QAPB_W@Z 10066b30 f i libucrtd:dbgrpt.obj
 0001:00065b50       ??$tcslen@AAY0BAF@D@?$__crt_char_traits@D@@SAIAAY0BAF@D@Z 10066b50 f i libucrtd:dbgrpt.obj
 0001:00065b70       ??$tcslen@AAY0BAF@_W@?$__crt_char_traits@_W@@SAIAAY0BAF@_W@Z 10066b70 f i libucrtd:dbgrpt.obj
 0001:00065b90       ??$tcslen@ABQBD@?$__crt_char_traits@D@@SAIABQBD@Z 10066b90 f i libucrtd:dbgrpt.obj
 0001:00065bb0       ??$tcslen@ABQB_W@?$__crt_char_traits@_W@@SAIABQB_W@Z 10066bb0 f i libucrtd:dbgrpt.obj
 0001:00065cb0       ??0?$__crt_unique_heap_ptr@U?$__crt_report_hook_node@D@@U__crt_internal_free_policy@@@@QAE@QAU?$__crt_report_hook_node@D@@@Z 10066cb0 f i libucrtd:dbgrpt.obj
 0001:00065cd0       ??0?$__crt_unique_heap_ptr@U?$__crt_report_hook_node@_W@@U__crt_internal_free_policy@@@@QAE@QAU?$__crt_report_hook_node@_W@@@Z 10066cd0 f i libucrtd:dbgrpt.obj
 0001:00065cf0       ??1?$__crt_unique_heap_ptr@U?$__crt_report_hook_node@D@@U__crt_internal_free_policy@@@@QAE@XZ 10066cf0 f i libucrtd:dbgrpt.obj
 0001:00065d10       ??1?$__crt_unique_heap_ptr@U?$__crt_report_hook_node@_W@@U__crt_internal_free_policy@@@@QAE@XZ 10066d10 f i libucrtd:dbgrpt.obj
 0001:00065d30       ??B?$__crt_unique_heap_ptr@U?$__crt_report_hook_node@D@@U__crt_internal_free_policy@@@@QBE_NXZ 10066d30 f i libucrtd:dbgrpt.obj
 0001:00065d50       ??B?$__crt_unique_heap_ptr@U?$__crt_report_hook_node@_W@@U__crt_internal_free_policy@@@@QBE_NXZ 10066d50 f i libucrtd:dbgrpt.obj
 0001:00066290       ?detach@?$__crt_unique_heap_ptr@U?$__crt_report_hook_node@D@@U__crt_internal_free_policy@@@@QAEPAU?$__crt_report_hook_node@D@@XZ 10067290 f i libucrtd:dbgrpt.obj
 0001:000662c0       ?detach@?$__crt_unique_heap_ptr@U?$__crt_report_hook_node@_W@@U__crt_internal_free_policy@@@@QAEPAU?$__crt_report_hook_node@_W@@XZ 100672c0 f i libucrtd:dbgrpt.obj
 0001:000662f0       ?get@?$__crt_unique_heap_ptr@U?$__crt_report_hook_node@D@@U__crt_internal_free_policy@@@@QBEPAU?$__crt_report_hook_node@D@@XZ 100672f0 f i libucrtd:dbgrpt.obj
 0001:00066310       ?get@?$__crt_unique_heap_ptr@U?$__crt_report_hook_node@_W@@U__crt_internal_free_policy@@@@QBEPAU?$__crt_report_hook_node@_W@@XZ 10067310 f i libucrtd:dbgrpt.obj
 0001:00066390       ?is_valid@?$__crt_unique_heap_ptr@U?$__crt_report_hook_node@D@@U__crt_internal_free_policy@@@@QBE_NXZ 10067390 f i libucrtd:dbgrpt.obj
 0001:000663c0       ?is_valid@?$__crt_unique_heap_ptr@U?$__crt_report_hook_node@_W@@U__crt_internal_free_policy@@@@QBE_NXZ 100673c0 f i libucrtd:dbgrpt.obj
 0001:000663f0       ?release@?$__crt_unique_heap_ptr@U?$__crt_report_hook_node@D@@U__crt_internal_free_policy@@@@QAEXXZ 100673f0 f i libucrtd:dbgrpt.obj
 0001:00066420       ?release@?$__crt_unique_heap_ptr@U?$__crt_report_hook_node@_W@@U__crt_internal_free_policy@@@@QAEXXZ 10067420 f i libucrtd:dbgrpt.obj
 0001:00066450       __CrtDbgReport             10067450 f   libucrtd:dbgrpt.obj
 0001:000664a0       __CrtDbgReportW            100674a0 f   libucrtd:dbgrpt.obj
 0001:000664f0       __CrtSetReportHook2        100674f0 f   libucrtd:dbgrpt.obj
 0001:00066510       __CrtSetReportHookW2       10067510 f   libucrtd:dbgrpt.obj
 0001:00066530       ___acrt_MessageWindowA     10067530 f   libucrtd:dbgrpt.obj
 0001:00066560       ___acrt_MessageWindowW     10067560 f   libucrtd:dbgrpt.obj
 0001:00066590       __invoke_watson_if_error   10067590 f i libucrtd:dbgrpt.obj
 0001:000665c0       __invoke_watson_if_oneof   100675c0 f i libucrtd:dbgrpt.obj
 0001:00066600       __snwprintf_s              10067600 f i libucrtd:dbgrpt.obj
 0001:00066650       __vsnwprintf_s_l           10067650 f i libucrtd:dbgrpt.obj
 0001:000669d0       _wcscpy_s                  100679d0 f   libucrtd:wcscpy_s.obj
 0001:000669f0       _wcslen                    100679f0 f   libucrtd:wcslen.obj
 0001:00066a30       ??$__crt_fast_decode_pointer@P6AXPB_W00II@Z@@YAP6AXPB_W00II@ZQ6AX000II@Z@Z 10067a30 f i libucrtd:invalid_parameter.obj
 0001:00066a60       ??$__crt_fast_encode_pointer@P6AXPB_W00II@Z@@YAP6AXPB_W00II@ZQ6AX000II@Z@Z 10067a60 f i libucrtd:invalid_parameter.obj
 0001:00066a90       ?get_current_state_index@__crt_state_management@@YAIXZ 10067a90 f i libucrtd:invalid_parameter.obj
 0001:00066aa0       ?initialize@?$dual_state_global@P6AXPB_W00II@Z@__crt_state_management@@QAEXQ6AXPB_W00II@Z@Z 10067aa0 f i libucrtd:invalid_parameter.obj
 0001:00066ae0       ?value@?$dual_state_global@P6AXPB_W00II@Z@__crt_state_management@@QAEAAP6AXPB_W00II@ZXZ 10067ae0 f i libucrtd:invalid_parameter.obj
 0001:00066b00       ___acrt_call_reportfault   10067b00 f   libucrtd:invalid_parameter.obj
 0001:00066c60       ___acrt_initialize_invalid_parameter_handler 10067c60 f   libucrtd:invalid_parameter.obj
 0001:00066c80       __get_invalid_parameter_handler 10067c80 f   libucrtd:invalid_parameter.obj
 0001:00066ca0       __get_thread_local_invalid_parameter_handler 10067ca0 f   libucrtd:invalid_parameter.obj
 0001:00066cd0       __invalid_parameter        10067cd0 f   libucrtd:invalid_parameter.obj
 0001:00066da0       __invalid_parameter_noinfo 10067da0 f   libucrtd:invalid_parameter.obj
 0001:00066dc0       __invalid_parameter_noinfo_noreturn 10067dc0 f   libucrtd:invalid_parameter.obj
 0001:00066df0       __invoke_watson            10067df0 f   libucrtd:invalid_parameter.obj
 0001:00066e30       __set_invalid_parameter_handler 10067e30 f   libucrtd:invalid_parameter.obj
 0001:00066e80       __set_thread_local_invalid_parameter_handler 10067e80 f   libucrtd:invalid_parameter.obj
 0001:00066eb0       ___acrt_errno_from_os_error 10067eb0 f   libucrtd:errno.obj
 0001:00066f30       ___acrt_errno_map_os_error 10067f30 f   libucrtd:errno.obj
 0001:00066f60       ___doserrno                10067f60 f   libucrtd:errno.obj
 0001:00066f90       __errno                    10067f90 f   libucrtd:errno.obj
 0001:00066fc0       __get_doserrno             10067fc0 f   libucrtd:errno.obj
 0001:00067050       __get_errno                10068050 f   libucrtd:errno.obj
 0001:000670e0       __set_doserrno             100680e0 f   libucrtd:errno.obj
 0001:00067110       __set_errno                10068110 f   libucrtd:errno.obj
 0001:00067140       _calloc                    10068140 f   libucrtd:calloc.obj
 0001:00067160       __recalloc                 10068160 f   libucrtd:recalloc.obj
 0001:00067190       __recalloc_base            10068190 f   libucrtd:recalloc.obj
 0001:0006722a       __resetstkoflw             1006822a f   libucrtd:resetstk.obj
 0001:00067720       _wcscat_s                  10068720 f   libucrtd:wcscat_s.obj
 0001:00067b70       _wcsncpy_s                 10068b70 f   libucrtd:wcsncpy_s.obj
 0001:00067bb0       ___acrt_get_locale_data_prefix 10068bb0 f i libucrtd:_ctype.obj
 0001:00067bd0       ___isascii                 10068bd0 f i libucrtd:_ctype.obj
 0001:00067c00       ___iscsym                  10068c00 f i libucrtd:_ctype.obj
 0001:00067c40       ___iscsymf                 10068c40 f i libucrtd:_ctype.obj
 0001:00067c80       ___toascii                 10068c80 f i libucrtd:_ctype.obj
 0001:00067c90       __chvalidchk_l             10068c90 f i libucrtd:_ctype.obj
 0001:00067cb0       __isalnum_l                10068cb0 f i libucrtd:_ctype.obj
 0001:00067cf0       __isalpha_l                10068cf0 f i libucrtd:_ctype.obj
 0001:00067d30       __isblank_l                10068d30 f i libucrtd:_ctype.obj
 0001:00067d90       __ischartype_l             10068d90 f i libucrtd:_ctype.obj
 0001:00067de0       __iscntrl_l                10068de0 f i libucrtd:_ctype.obj
 0001:00067e20       __iscsym_l                 10068e20 f i libucrtd:_ctype.obj
 0001:00067e60       __iscsymf_l                10068e60 f i libucrtd:_ctype.obj
 0001:00067ea0       __isdigit_l                10068ea0 f i libucrtd:_ctype.obj
 0001:00067ee0       __isgraph_l                10068ee0 f i libucrtd:_ctype.obj
 0001:00067f20       __islower_l                10068f20 f i libucrtd:_ctype.obj
 0001:00067f60       __isprint_l                10068f60 f i libucrtd:_ctype.obj
 0001:00067fa0       __ispunct_l                10068fa0 f i libucrtd:_ctype.obj
 0001:00067fe0       __isspace_l                10068fe0 f i libucrtd:_ctype.obj
 0001:00068020       __isupper_l                10069020 f i libucrtd:_ctype.obj
 0001:00068060       __isxdigit_l               10069060 f i libucrtd:_ctype.obj
 0001:000680a0       _isalnum                   100690a0 f i libucrtd:_ctype.obj
 0001:000680e0       _isalpha                   100690e0 f i libucrtd:_ctype.obj
 0001:00068120       _isblank                   10069120 f i libucrtd:_ctype.obj
 0001:00068180       _iscntrl                   10069180 f i libucrtd:_ctype.obj
 0001:000681c0       _isdigit                   100691c0 f i libucrtd:_ctype.obj
 0001:00068200       _isgraph                   10069200 f i libucrtd:_ctype.obj
 0001:00068240       _islower                   10069240 f i libucrtd:_ctype.obj
 0001:00068280       _isprint                   10069280 f i libucrtd:_ctype.obj
 0001:000682c0       _ispunct                   100692c0 f i libucrtd:_ctype.obj
 0001:00068300       _isspace                   10069300 f i libucrtd:_ctype.obj
 0001:00068340       _isupper                   10069340 f i libucrtd:_ctype.obj
 0001:00068380       _isxdigit                  10069380 f i libucrtd:_ctype.obj
 0001:000683c0       _wcscat                    100693c0 f   libucrtd:wcscat.obj
 0001:00068420       _wcscpy                    10069420 f   libucrtd:wcscpy.obj
 0001:00068ab0       ??$open_file@ABQBDABQBDABHPAU_iobuf@@@?$__crt_char_traits@D@@SAPAU_iobuf@@ABQBD0ABH$$QAPAU1@@Z 10069ab0 f i libucrtd:fopen.obj
 0001:00068ae0       ??$open_file@ABQB_WABQB_WABHPAU_iobuf@@@?$__crt_char_traits@_W@@SAPAU_iobuf@@ABQB_W0ABH$$QAPAU1@@Z 10069ae0 f i libucrtd:fopen.obj
 0001:00068b10       ?unlock@__crt_stdio_stream@@QBEXXZ 10069b10 f i libucrtd:fopen.obj
 0001:00068b30       __fsopen                   10069b30 f   libucrtd:fopen.obj
 0001:00068b50       __wfopen                   10069b50 f   libucrtd:fopen.obj
 0001:00068b70       __wfopen_s                 10069b70 f   libucrtd:fopen.obj
 0001:00068b90       __wfsopen                  10069b90 f   libucrtd:fopen.obj
 0001:00068bb0       _fopen                     10069bb0 f   libucrtd:fopen.obj
 0001:00068bd0       _fopen_s                   10069bd0 f   libucrtd:fopen.obj
 0001:00068bf0       ?is_in_use@__crt_stdio_stream@@QBE_NXZ 10069bf0 f i libucrtd:fclose.obj
 0001:00068c30       __fclose_nolock            10069c30 f   libucrtd:fclose.obj
 0001:00068d70       _fclose                    10069d70 f   libucrtd:fclose.obj
 0001:00068ec0       __fputc_nolock             10069ec0 f   libucrtd:fputc.obj
 0001:00068f50       __fputchar                 10069f50 f   libucrtd:fputc.obj
 0001:00068f70       __putc_nolock              10069f70 f   libucrtd:fputc.obj
 0001:00068f90       _fputc                     10069f90 f   libucrtd:fputc.obj
 0001:000691d0       _putc                      1006a1d0 f   libucrtd:fputc.obj
 0001:000691f0       _putchar                   1006a1f0 f   libucrtd:fputc.obj
 0001:00069260       __seh_filter_dll           1006a260 f   libucrtd:exception_filter.obj
 0001:00069290       __seh_filter_exe           1006a290 f   libucrtd:exception_filter.obj
 0001:000694b0       ??$?B$$A6GXPAXK0@Z@__crt_fast_encoded_nullptr_t@@QBEP6GXPAXK0@ZXZ 1006a4b0 f i libucrtd:exit.obj
 0001:000694d0       ??$__crt_fast_decode_pointer@P6GXPAXK0@Z@@YAP6GXPAXK0@ZQ6GX0K0@Z@Z 1006a4d0 f i libucrtd:exit.obj
 0001:00069500       ??$__crt_fast_encode_pointer@P6GXPAXK0@Z@@YAP6GXPAXK0@ZQ6GX0K0@Z@Z 1006a500 f i libucrtd:exit.obj
 0001:00069530       ??$__crt_get_proc_address@P6GXI@Z@@YAP6GXI@ZQAUHINSTANCE__@@QBD@Z 1006a530 f i libucrtd:exit.obj
 0001:00069550       ??0?$__crt_unique_handle_t@U__crt_hmodule_traits@@@@QAE@QAUHINSTANCE__@@@Z 1006a550 f i libucrtd:exit.obj
 0001:00069570       ??1?$__crt_unique_handle_t@U__crt_hmodule_traits@@@@QAE@XZ 1006a570 f i libucrtd:exit.obj
 0001:000695b0       ?close@?$__crt_unique_handle_t@U__crt_hmodule_traits@@@@QAEXXZ 1006a5b0 f i libucrtd:exit.obj
 0001:000695f0       ?close@__crt_hmodule_traits@@SA_NPAUHINSTANCE__@@@Z 1006a5f0 f i libucrtd:exit.obj
 0001:00069820       ?get@?$__crt_unique_handle_t@U__crt_hmodule_traits@@@@QBEPAUHINSTANCE__@@XZ 1006a820 f i libucrtd:exit.obj
 0001:00069840       ?get_address_of@?$__crt_unique_handle_t@U__crt_hmodule_traits@@@@QAEPAPAUHINSTANCE__@@XZ 1006a840 f i libucrtd:exit.obj
 0001:00069850       ?get_invalid_value@__crt_hmodule_traits@@SAPAUHINSTANCE__@@XZ 1006a850 f i libucrtd:exit.obj
 0001:000699e0       __Exit                     1006a9e0 f   libucrtd:exit.obj
 0001:00069a00       ___acrt_initialize_thread_local_exit_callback 1006aa00 f   libucrtd:exit.obj
 0001:00069a10       __c_exit                   1006aa10 f   libucrtd:exit.obj
 0001:00069a30       __cexit                    1006aa30 f   libucrtd:exit.obj
 0001:00069a50       __exit                     1006aa50 f   libucrtd:exit.obj
 0001:00069a70       __is_c_termination_complete 1006aa70 f   libucrtd:exit.obj
 0001:00069a90       __register_thread_local_exe_atexit_callback 1006aa90 f   libucrtd:exit.obj
 0001:00069ad0       _exit                      1006aad0 f   libucrtd:exit.obj
 0001:00069af0       _quick_exit                1006aaf0 f   libucrtd:exit.obj
 0001:00069b10       ??$?RE@__crt_internal_free_policy@@QBEXQBE@Z 1006ab10 f i libucrtd:argv_parsing.obj
 0001:00069b30       ??$?RPAD@__crt_internal_free_policy@@QBEXQBQAD@Z 1006ab30 f i libucrtd:argv_parsing.obj
 0001:00069b50       ??$?RPA_W@__crt_internal_free_policy@@QBEXQBQA_W@Z 1006ab50 f i libucrtd:argv_parsing.obj
 0001:0006a090       ??$get_module_file_name@$$TAAY0BAF@DH@?$__crt_char_traits@D@@SAK$$QA$$TAAY0BAF@D$$QAH@Z 1006b090 f i libucrtd:argv_parsing.obj
 0001:0006a0b0       ??$get_module_file_name@$$TAAY0BAF@_WH@?$__crt_char_traits@_W@@SAK$$QA$$TAAY0BAF@_W$$QAH@Z 1006b0b0 f i libucrtd:argv_parsing.obj
 0001:0006a7d0       ??$set_program_name@PAD@?$__crt_char_traits@D@@SAX$$QAPAD@Z 1006b7d0 f i libucrtd:argv_parsing.obj
 0001:0006a7f0       ??$set_program_name@PA_W@?$__crt_char_traits@_W@@SAX$$QAPA_W@Z 1006b7f0 f i libucrtd:argv_parsing.obj
 0001:0006a850       ??0?$__crt_unique_heap_ptr@EU__crt_internal_free_policy@@@@QAE@QAE@Z 1006b850 f i libucrtd:argv_parsing.obj
 0001:0006a870       ??0?$__crt_unique_heap_ptr@PADU__crt_internal_free_policy@@@@QAE@QAPAD@Z 1006b870 f i libucrtd:argv_parsing.obj
 0001:0006a890       ??0?$__crt_unique_heap_ptr@PA_WU__crt_internal_free_policy@@@@QAE@QAPA_W@Z 1006b890 f i libucrtd:argv_parsing.obj
 0001:0006a8b0       ??1?$__crt_unique_heap_ptr@EU__crt_internal_free_policy@@@@QAE@XZ 1006b8b0 f i libucrtd:argv_parsing.obj
 0001:0006a8d0       ??1?$__crt_unique_heap_ptr@PADU__crt_internal_free_policy@@@@QAE@XZ 1006b8d0 f i libucrtd:argv_parsing.obj
 0001:0006a8f0       ??1?$__crt_unique_heap_ptr@PA_WU__crt_internal_free_policy@@@@QAE@XZ 1006b8f0 f i libucrtd:argv_parsing.obj
 0001:0006a910       ??B?$__crt_unique_heap_ptr@EU__crt_internal_free_policy@@@@QBE_NXZ 1006b910 f i libucrtd:argv_parsing.obj
 0001:0006a9d0       ?detach@?$__crt_unique_heap_ptr@EU__crt_internal_free_policy@@@@QAEPAEXZ 1006b9d0 f i libucrtd:argv_parsing.obj
 0001:0006aa00       ?detach@?$__crt_unique_heap_ptr@PADU__crt_internal_free_policy@@@@QAEPAPADXZ 1006ba00 f i libucrtd:argv_parsing.obj
 0001:0006aa30       ?detach@?$__crt_unique_heap_ptr@PA_WU__crt_internal_free_policy@@@@QAEPAPA_WXZ 1006ba30 f i libucrtd:argv_parsing.obj
 0001:0006aac0       ?get@?$__crt_unique_heap_ptr@EU__crt_internal_free_policy@@@@QBEPAEXZ 1006bac0 f i libucrtd:argv_parsing.obj
 0001:0006aae0       ?get@?$__crt_unique_heap_ptr@PADU__crt_internal_free_policy@@@@QBEPAPADXZ 1006bae0 f i libucrtd:argv_parsing.obj
 0001:0006ab00       ?get@?$__crt_unique_heap_ptr@PA_WU__crt_internal_free_policy@@@@QBEPAPA_WXZ 1006bb00 f i libucrtd:argv_parsing.obj
 0001:0006ab20       ?get_address_of@?$__crt_unique_heap_ptr@PADU__crt_internal_free_policy@@@@QAEPAPAPADXZ 1006bb20 f i libucrtd:argv_parsing.obj
 0001:0006ab30       ?get_address_of@?$__crt_unique_heap_ptr@PA_WU__crt_internal_free_policy@@@@QAEPAPAPA_WXZ 1006bb30 f i libucrtd:argv_parsing.obj
 0001:0006ab80       ?is_valid@?$__crt_unique_heap_ptr@EU__crt_internal_free_policy@@@@QBE_NXZ 1006bb80 f i libucrtd:argv_parsing.obj
 0001:0006abb0       ?release@?$__crt_unique_heap_ptr@EU__crt_internal_free_policy@@@@QAEXXZ 1006bbb0 f i libucrtd:argv_parsing.obj
 0001:0006abe0       ?release@?$__crt_unique_heap_ptr@PADU__crt_internal_free_policy@@@@QAEXXZ 1006bbe0 f i libucrtd:argv_parsing.obj
 0001:0006ac10       ?release@?$__crt_unique_heap_ptr@PA_WU__crt_internal_free_policy@@@@QAEXXZ 1006bc10 f i libucrtd:argv_parsing.obj
 0001:0006ac80       ___acrt_allocate_buffer_for_argv 1006bc80 f   libucrtd:argv_parsing.obj
 0001:0006ad40       __configure_narrow_argv    1006bd40 f   libucrtd:argv_parsing.obj
 0001:0006ad60       __configure_wide_argv      1006bd60 f   libucrtd:argv_parsing.obj
 0001:0006ad80       __set_pgmptr               1006bd80 f i libucrtd:argv_parsing.obj
 0001:0006ad90       __set_wpgmptr              1006bd90 f i libucrtd:argv_parsing.obj
 0001:0006ad9f       ??$?R_W@__crt_internal_free_policy@@QBEXQB_W@Z 1006bd9f f i libucrtd:environment_initialization.obj
 0001:0006b206       ??$get_environment_from_os@$$$V@?$__crt_char_traits@D@@SAPADXZ 1006c206 f i libucrtd:environment_initialization.obj
 0001:0006b20b       ??$get_environment_from_os@$$$V@?$__crt_char_traits@_W@@SAPA_WXZ 1006c20b f i libucrtd:environment_initialization.obj
 0001:0006b32c       ??$set_variable_in_environment_nolock@PADH@?$__crt_char_traits@D@@SAH$$QAPAD$$QAH@Z 1006c32c f i libucrtd:environment_initialization.obj
 0001:0006b344       ??$set_variable_in_environment_nolock@PA_WH@?$__crt_char_traits@_W@@SAH$$QAPA_W$$QAH@Z 1006c344 f i libucrtd:environment_initialization.obj
 0001:0006b35c       ??$tcscpy_s@PADABIAAPAD@?$__crt_char_traits@D@@SAH$$QAPADABIAAPAD@Z 1006c35c f i libucrtd:environment_initialization.obj
 0001:0006b37a       ??$tcscpy_s@PA_WABIAAPA_W@?$__crt_char_traits@_W@@SAH$$QAPA_WABIAAPA_W@Z 1006c37a f i libucrtd:environment_initialization.obj
 0001:0006b398       ??$tcslen@AAPAD@?$__crt_char_traits@D@@SAIAAPAD@Z 1006c398 f i libucrtd:environment_initialization.obj
 0001:0006b3b0       ??$tcslen@AAPA_W@?$__crt_char_traits@_W@@SAIAAPA_W@Z 1006c3b0 f i libucrtd:environment_initialization.obj
 0001:0006b3ce       ??$uninitialize@A6AXAAPAPAD@Z@?$dual_state_global@PAPAD@__crt_state_management@@QAEXA6AXAAPAPAD@Z@Z 1006c3ce f i libucrtd:environment_initialization.obj
 0001:0006b40e       ??$uninitialize@A6AXAAPAPA_W@Z@?$dual_state_global@PAPA_W@__crt_state_management@@QAEXA6AXAAPAPA_W@Z@Z 1006c40e f i libucrtd:environment_initialization.obj
 0001:0006b484       ??0?$__crt_unique_heap_ptr@_WU__crt_internal_free_policy@@@@QAE@QA_W@Z 1006c484 f i libucrtd:environment_initialization.obj
 0001:0006b494       ??1?$__crt_unique_heap_ptr@_WU__crt_internal_free_policy@@@@QAE@XZ 1006c494 f i libucrtd:environment_initialization.obj
 0001:0006b4a9       ??B?$__crt_unique_heap_ptr@PADU__crt_internal_free_policy@@@@QBE_NXZ 1006c4a9 f i libucrtd:environment_initialization.obj
 0001:0006b4b1       ??B?$__crt_unique_heap_ptr@PA_WU__crt_internal_free_policy@@@@QBE_NXZ 1006c4b1 f i libucrtd:environment_initialization.obj
 0001:0006b4b9       ??B?$__crt_unique_heap_ptr@_WU__crt_internal_free_policy@@@@QBE_NXZ 1006c4b9 f i libucrtd:environment_initialization.obj
 0001:0006b4c1       ?__crt_compute_required_transform_buffer_count@@YAIIQBD@Z 1006c4c1 f i libucrtd:environment_initialization.obj
 0001:0006b4db       ?__crt_compute_required_transform_buffer_count@@YAIIQB_W@Z 1006c4db f i libucrtd:environment_initialization.obj
 0001:0006b4f7       ?__crt_transform_string@@YAIIQBDQA_WI@Z 1006c4f7 f i libucrtd:environment_initialization.obj
 0001:0006b514       ?__crt_transform_string@@YAIIQB_WQADI@Z 1006c514 f i libucrtd:environment_initialization.obj
 0001:0006b534       ?detach@?$__crt_unique_heap_ptr@DU__crt_internal_free_policy@@@@QAEPADXZ 1006c534 f i libucrtd:environment_initialization.obj
 0001:0006b53a       ?detach@?$__crt_unique_heap_ptr@_WU__crt_internal_free_policy@@@@QAEPA_WXZ 1006c53a f i libucrtd:environment_initialization.obj
 0001:0006b540       ?get@?$__crt_unique_heap_ptr@_WU__crt_internal_free_policy@@@@QBEPA_WXZ 1006c540 f i libucrtd:environment_initialization.obj
 0001:0006b567       ?initialize@?$dual_state_global@PAPAD@__crt_state_management@@QAEXQAPAD@Z 1006c567 f i libucrtd:environment_initialization.obj
 0001:0006b598       ?initialize@?$dual_state_global@PAPA_W@__crt_state_management@@QAEXQAPA_W@Z 1006c598 f i libucrtd:environment_initialization.obj
 0001:0006b5c9       ?is_valid@?$__crt_unique_heap_ptr@PADU__crt_internal_free_policy@@@@QBE_NXZ 1006c5c9 f i libucrtd:environment_initialization.obj
 0001:0006b5d1       ?is_valid@?$__crt_unique_heap_ptr@PA_WU__crt_internal_free_policy@@@@QBE_NXZ 1006c5d1 f i libucrtd:environment_initialization.obj
 0001:0006b5d9       ?is_valid@?$__crt_unique_heap_ptr@_WU__crt_internal_free_policy@@@@QBE_NXZ 1006c5d9 f i libucrtd:environment_initialization.obj
 0001:0006b5e7       ?release@?$__crt_unique_heap_ptr@_WU__crt_internal_free_policy@@@@QAEXXZ 1006c5e7 f i libucrtd:environment_initialization.obj
 0001:0006b5fc       ?value@?$dual_state_global@PAPAD@__crt_state_management@@QAEAAPAPADXZ 1006c5fc f i libucrtd:environment_initialization.obj
 0001:0006b5ff       ?value@?$dual_state_global@PAPA_W@__crt_state_management@@QAEAAPAPA_WXZ 1006c5ff f i libucrtd:environment_initialization.obj
 0001:0006b602       ___dcrt_get_or_create_narrow_environment_nolock 1006c602 f   libucrtd:environment_initialization.obj
 0001:0006b607       ___dcrt_get_or_create_wide_environment_nolock 1006c607 f   libucrtd:environment_initialization.obj
 0001:0006b60c       ___dcrt_uninitialize_environments_nolock 1006c60c f   libucrtd:environment_initialization.obj
 0001:0006b643       ___p__environ              1006c643 f   libucrtd:environment_initialization.obj
 0001:0006b649       ___p__wenviron             1006c649 f   libucrtd:environment_initialization.obj
 0001:0006b64f       __get_initial_narrow_environment 1006c64f f   libucrtd:environment_initialization.obj
 0001:0006b663       __get_initial_wide_environment 1006c663 f   libucrtd:environment_initialization.obj
 0001:0006b677       __initialize_narrow_environment 1006c677 f   libucrtd:environment_initialization.obj
 0001:0006b67c       __initialize_wide_environment 1006c67c f   libucrtd:environment_initialization.obj
 0001:0006b690       ??$?BP6AXXZ@__crt_fast_encoded_nullptr_t@@QBEPAP6AXXZXZ 1006c690 f i libucrtd:onexit.obj
 0001:0006b6b0       ??$?RP6AXXZ@__crt_internal_free_policy@@QBEXQBQ6AXXZ@Z 1006c6b0 f i libucrtd:onexit.obj
 0001:0006b6d0       ??$?RV<lambda_821a00fc0e15a7fd532972332124005d>@@AAV<lambda_942beefa13ab35ff55f86422493ffd6a>@@V<lambda_3ab53bf64df1f1ff33dbc5b1929ce7a7>@@@?$__crt_seh_guarded_call@H@@QAEH$$QAV<lambda_821a00fc0e15a7fd532972332124005d>@@AAV<lambda_942beefa13ab35ff55f86422493ffd6a>@@$$QAV<lambda_3ab53bf64df1f1ff33dbc5b1929ce7a7>@@@Z 1006c6d0 f i libucrtd:onexit.obj
 0001:0006b760       ??$?RV<lambda_a12890e7f9ac9927a62bd0bbd5044c78>@@AAV<lambda_e971338317bfa523bb8920b43d823727>@@V<lambda_e618b16d59e79e236350cab8485990d2>@@@?$__crt_seh_guarded_call@H@@QAEH$$QAV<lambda_a12890e7f9ac9927a62bd0bbd5044c78>@@AAV<lambda_e971338317bfa523bb8920b43d823727>@@$$QAV<lambda_e618b16d59e79e236350cab8485990d2>@@@Z 1006c760 f i libucrtd:onexit.obj
 0001:0006b7f0       ??$__acrt_lock_and_call@V<lambda_942beefa13ab35ff55f86422493ffd6a>@@@@YAHW4__acrt_lock_id@@$$QAV<lambda_942beefa13ab35ff55f86422493ffd6a>@@@Z 1006c7f0 f i libucrtd:onexit.obj
 0001:0006b830       ??$__acrt_lock_and_call@V<lambda_e971338317bfa523bb8920b43d823727>@@@@YAHW4__acrt_lock_id@@$$QAV<lambda_e971338317bfa523bb8920b43d823727>@@@Z 1006c830 f i libucrtd:onexit.obj
 0001:0006b870       ??$__crt_fast_encode_pointer@P6AHXZ@@YAP6AHXZQ6AHXZ@Z 1006c870 f i libucrtd:onexit.obj
 0001:0006b970       ??0?$__crt_unique_heap_ptr@P6AXXZU__crt_internal_free_policy@@@@QAE@QAP6AXXZ@Z 1006c970 f i libucrtd:onexit.obj
 0001:0006b990       ??1?$__crt_unique_heap_ptr@P6AXXZU__crt_internal_free_policy@@@@QAE@XZ 1006c990 f i libucrtd:onexit.obj
 0001:0006bde0       ?detach@?$__crt_unique_heap_ptr@P6AXXZU__crt_internal_free_policy@@@@QAEPAP6AXXZXZ 1006cde0 f i libucrtd:onexit.obj
 0001:0006be10       ?release@?$__crt_unique_heap_ptr@P6AXXZU__crt_internal_free_policy@@@@QAEXXZ 1006ce10 f i libucrtd:onexit.obj
 0001:0006be40       __crt_at_quick_exit        1006ce40 f   libucrtd:onexit.obj
 0001:0006be60       __crt_atexit               1006ce60 f   libucrtd:onexit.obj
 0001:0006be80       __execute_onexit_table     1006ce80 f   libucrtd:onexit.obj
 0001:0006beb0       __initialize_onexit_table  1006ceb0 f   libucrtd:onexit.obj
 0001:0006bf10       __register_onexit_function 1006cf10 f   libucrtd:onexit.obj
 0001:0006c160       ?initialize@?$dual_state_global@PAU__crt_locale_data@@@__crt_state_management@@QAEXQAU__crt_locale_data@@@Z 1006d160 f i libucrtd:initialization.obj
 0001:0006c1a0       ___acrt_initialize         1006d1a0 f   libucrtd:initialization.obj
 0001:0006c1c0       ___acrt_thread_attach      1006d1c0 f   libucrtd:initialization.obj
 0001:0006c1e0       ___acrt_thread_detach      1006d1e0 f   libucrtd:initialization.obj
 0001:0006c1f0       ___acrt_uninitialize       1006d1f0 f   libucrtd:initialization.obj
 0001:0006c210       ___acrt_uninitialize_critical 1006d210 f   libucrtd:initialization.obj
 0001:0006dac0       __CrtCheckMemory           1006eac0 f   libucrtd:debug_heap.obj
 0001:0006dc50       __CrtDoForAllClientObjects 1006ec50 f   libucrtd:debug_heap.obj
 0001:0006ddb0       __CrtDumpMemoryLeaks       1006edb0 f   libucrtd:debug_heap.obj
 0001:0006de50       __CrtGetAllocHook          1006ee50 f   libucrtd:debug_heap.obj
 0001:0006de60       __CrtGetDumpClient         1006ee60 f   libucrtd:debug_heap.obj
 0001:0006de70       __CrtIsMemoryBlock         1006ee70 f   libucrtd:debug_heap.obj
 0001:0006dfc0       __CrtIsValidHeapPointer    1006efc0 f   libucrtd:debug_heap.obj
 0001:0006dff0       __CrtIsValidPointer        1006eff0 f   libucrtd:debug_heap.obj
 0001:0006e020       __CrtMemCheckpoint         1006f020 f   libucrtd:debug_heap.obj
 0001:0006e250       __CrtMemDifference         1006f250 f   libucrtd:debug_heap.obj
 0001:0006e4c0       __CrtMemDumpAllObjectsSince 1006f4c0 f   libucrtd:debug_heap.obj
 0001:0006e560       __CrtMemDumpStatistics     1006f560 f   libucrtd:debug_heap.obj
 0001:0006e690       __CrtReportBlockType       1006f690 f   libucrtd:debug_heap.obj
 0001:0006e6c0       __CrtSetAllocHook          1006f6c0 f   libucrtd:debug_heap.obj
 0001:0006e6e0       __CrtSetBreakAlloc         1006f6e0 f   libucrtd:debug_heap.obj
 0001:0006e700       __CrtSetDbgBlockType       1006f700 f   libucrtd:debug_heap.obj
 0001:0006e7e0       __CrtSetDbgFlag            1006f7e0 f   libucrtd:debug_heap.obj
 0001:0006e950       __CrtSetDumpClient         1006f950 f   libucrtd:debug_heap.obj
 0001:0006e970       ___p__crtBreakAlloc        1006f970 f   libucrtd:debug_heap.obj
 0001:0006e980       ___p__crtDbgFlag           1006f980 f   libucrtd:debug_heap.obj
 0001:0006e990       __aligned_free_dbg         1006f990 f   libucrtd:debug_heap.obj
 0001:0006ea40       __aligned_malloc_dbg       1006fa40 f   libucrtd:debug_heap.obj
 0001:0006ea70       __aligned_msize_dbg        1006fa70 f   libucrtd:debug_heap.obj
 0001:0006eba0       __aligned_offset_malloc_dbg 1006fba0 f   libucrtd:debug_heap.obj
 0001:0006ed80       __aligned_offset_realloc_dbg 1006fd80 f   libucrtd:debug_heap.obj
 0001:0006f090       __aligned_offset_recalloc_dbg 10070090 f   libucrtd:debug_heap.obj
 0001:0006f150       __aligned_realloc_dbg      10070150 f   libucrtd:debug_heap.obj
 0001:0006f180       __aligned_recalloc_dbg     10070180 f   libucrtd:debug_heap.obj
 0001:0006f1b0       __calloc_dbg               100701b0 f   libucrtd:debug_heap.obj
 0001:0006f220       __expand_dbg               10070220 f   libucrtd:debug_heap.obj
 0001:0006f350       __free_dbg                 10070350 f   libucrtd:debug_heap.obj
 0001:0006f400       __malloc_dbg               10070400 f   libucrtd:debug_heap.obj
 0001:0006f420       __msize_dbg                10070420 f   libucrtd:debug_heap.obj
 0001:0006f5b0       __realloc_dbg              100705b0 f   libucrtd:debug_heap.obj
 0001:0006f650       __recalloc_dbg             10070650 f   libucrtd:debug_heap.obj
 0001:0006f700       __initterm                 10070700 f   libucrtd:initterm.obj
 0001:0006f760       __initterm_e               10070760 f   libucrtd:initterm.obj
 0001:0006fae0       _strcpy_s                  10070ae0 f   libucrtd:strcpy_s.obj
 0001:0006ff10       _strcat_s                  10070f10 f   libucrtd:strcat_s.obj
 0001:0006ff30       ??$?B$$A6AHI@Z@__crt_fast_encoded_nullptr_t@@QBEP6AHI@ZXZ 10070f30 f i libucrtd:new_handler.obj
 0001:0006ff50       ??$__crt_fast_decode_pointer@P6AHI@Z@@YAP6AHI@ZQ6AHI@Z@Z 10070f50 f i libucrtd:new_handler.obj
 0001:0006ff80       ??$__crt_fast_encode_pointer@P6AHI@Z@@YAP6AHI@ZQ6AHI@Z@Z 10070f80 f i libucrtd:new_handler.obj
 0001:0006ffb0       ?_set_new_handler@@YAP6AHI@ZH@Z 10070fb0 f   libucrtd:new_handler.obj
 0001:00070010       ?initialize@?$dual_state_global@P6AHI@Z@__crt_state_management@@QAEXQ6AHI@Z@Z 10071010 f i libucrtd:new_handler.obj
 0001:00070050       ?value@?$dual_state_global@P6AHI@Z@__crt_state_management@@QAEAAP6AHI@ZXZ 10071050 f i libucrtd:new_handler.obj
 0001:00070070       ___acrt_initialize_new_handler 10071070 f   libucrtd:new_handler.obj
 0001:00070090       __callnewh                 10071090 f   libucrtd:new_handler.obj
 0001:000700f0       __query_new_handler        100710f0 f   libucrtd:new_handler.obj
 0001:00070180       __set_new_handler          10071180 f   libucrtd:new_handler.obj
 0001:00070260       __get_terminate            10071260 f   libucrtd:terminate.obj
 0001:00070280       _set_terminate             10071280 f   libucrtd:terminate.obj
 0001:000702b0       _terminate                 100712b0 f   libucrtd:terminate.obj
 0001:00070c90       __makepath                 10071c90 f   libucrtd:makepath.obj
 0001:00070cc0       __makepath_s               10071cc0 f   libucrtd:makepath.obj
 0001:00070cf0       __wmakepath                10071cf0 f   libucrtd:makepath.obj
 0001:00070d20       __wmakepath_s              10071d20 f   libucrtd:makepath.obj
 0001:00072590       ??$tcsncpy_s@AAPADIAAPBDABI@?$__crt_char_traits@D@@SAHAAPAD$$QAIAAPBDABI@Z 10073590 f i libucrtd:splitpath.obj
 0001:000725c0       ??$tcsncpy_s@AAPADIAAPBDH@?$__crt_char_traits@D@@SAHAAPAD$$QAIAAPBD$$QAH@Z 100735c0 f i libucrtd:splitpath.obj
 0001:000725f0       ??$tcsncpy_s@AAPA_WIAAPB_WABI@?$__crt_char_traits@_W@@SAHAAPA_W$$QAIAAPB_WABI@Z 100735f0 f i libucrtd:splitpath.obj
 0001:00072620       ??$tcsncpy_s@AAPA_WIAAPB_WH@?$__crt_char_traits@_W@@SAHAAPA_W$$QAIAAPB_W$$QAH@Z 10073620 f i libucrtd:splitpath.obj
 0001:00072820       __splitpath                10073820 f   libucrtd:splitpath.obj
 0001:00072850       __splitpath_s              10073850 f   libucrtd:splitpath.obj
 0001:000728a0       __wsplitpath               100738a0 f   libucrtd:splitpath.obj
 0001:000728d0       __wsplitpath_s             100738d0 f   libucrtd:splitpath.obj
 0001:00072920       __set_abort_behavior       10073920 f   libucrtd:abort.obj
 0001:00072950       _abort                     10073950 f   libucrtd:abort.obj
 0001:000729c0       _strcmp                    100739c0 f   libucrtd:strcmp.obj
 0001:00072a50       _strlen                    10073a50 f   libucrtd:strlen.obj
 0001:00072ae0       _wcsncmp                   10073ae0 f   libucrtd:wcsncmp.obj
 0001:00072b40       ??$is_overflow_condition@K@__crt_strtox@@YA_NIK@Z 10073b40 f i libucrtd:atox.obj
 0001:00072ba0       ??$is_overflow_condition@_K@__crt_strtox@@YA_NI_K@Z 10073ba0 f i libucrtd:atox.obj
 0001:00072c30       ??$make_c_string_character_source@D$$T@__crt_strtox@@YA?AV?$c_string_character_source@D@0@QBD$$T@Z 10073c30 f i libucrtd:atox.obj
 0001:00072c50       ??$make_c_string_character_source@_W$$T@__crt_strtox@@YA?AV?$c_string_character_source@_W@0@QB_W$$T@Z 10073c50 f i libucrtd:atox.obj
 0001:00072c70       ??$parse_integer@KV?$c_string_character_source@D@__crt_strtox@@@__crt_strtox@@YAKQAU__crt_locale_pointers@@V?$c_string_character_source@D@0@H_N@Z 10073c70 f i libucrtd:atox.obj
 0001:00072fe0       ??$parse_integer@KV?$c_string_character_source@_W@__crt_strtox@@@__crt_strtox@@YAKQAU__crt_locale_pointers@@V?$c_string_character_source@_W@0@H_N@Z 10073fe0 f i libucrtd:atox.obj
 0001:00073350       ??$parse_integer@_KV?$c_string_character_source@D@__crt_strtox@@@__crt_strtox@@YA_KQAU__crt_locale_pointers@@V?$c_string_character_source@D@0@H_N@Z 10074350 f i libucrtd:atox.obj
 0001:00073770       ??$parse_integer@_KV?$c_string_character_source@_W@__crt_strtox@@@__crt_strtox@@YA_KQAU__crt_locale_pointers@@V?$c_string_character_source@_W@0@H_N@Z 10074770 f i libucrtd:atox.obj
 0001:00073ba0       ??$parse_integer_from_string@JD$$T@__crt_strtox@@YAJQBD$$THQAU__crt_locale_pointers@@@Z 10074ba0 f i libucrtd:atox.obj
 0001:00073be0       ??$parse_integer_from_string@J_W$$T@__crt_strtox@@YAJQB_W$$THQAU__crt_locale_pointers@@@Z 10074be0 f i libucrtd:atox.obj
 0001:00073c20       ??$parse_integer_from_string@_JD$$T@__crt_strtox@@YA_JQBD$$THQAU__crt_locale_pointers@@@Z 10074c20 f i libucrtd:atox.obj
 0001:00073c60       ??$parse_integer_from_string@_J_W$$T@__crt_strtox@@YA_JQB_W$$THQAU__crt_locale_pointers@@@Z 10074c60 f i libucrtd:atox.obj
 0001:00073ca0       ??0?$c_string_character_source@D@__crt_strtox@@QAE@QBDQAPBD@Z 10074ca0 f i libucrtd:atox.obj
 0001:00073ce0       ??0?$c_string_character_source@_W@__crt_strtox@@QAE@QB_WQAPB_W@Z 10074ce0 f i libucrtd:atox.obj
 0001:00073d20       ??1?$c_string_character_source@D@__crt_strtox@@QAE@XZ 10074d20 f i libucrtd:atox.obj
 0001:00073d50       ??1?$c_string_character_source@_W@__crt_strtox@@QAE@XZ 10074d50 f i libucrtd:atox.obj
 0001:00073d80       ?get@?$c_string_character_source@D@__crt_strtox@@QAEDXZ 10074d80 f i libucrtd:atox.obj
 0001:00073db0       ?get@?$c_string_character_source@_W@__crt_strtox@@QAE_WXZ 10074db0 f i libucrtd:atox.obj
 0001:00073de0       ?is_space@__crt_strtox@@YA_NDQAU__crt_locale_pointers@@@Z 10074de0 f i libucrtd:atox.obj
 0001:00073e20       ?is_space@__crt_strtox@@YA_N_WPAU__crt_locale_pointers@@@Z 10074e20 f i libucrtd:atox.obj
 0001:00073e50       ?maximum_signed_value@__crt_strtox@@YAJK@Z 10074e50 f i libucrtd:atox.obj
 0001:00073e60       ?maximum_signed_value@__crt_strtox@@YA_J_K@Z 10074e60 f i libucrtd:atox.obj
 0001:00073e70       ?minimum_signed_value@__crt_strtox@@YAJK@Z 10074e70 f i libucrtd:atox.obj
 0001:00073e80       ?minimum_signed_value@__crt_strtox@@YA_J_K@Z 10074e80 f i libucrtd:atox.obj
 0001:00073e90       ?parse_digit@__crt_strtox@@YAID@Z 10074e90 f i libucrtd:atox.obj
 0001:00073ef0       ?parse_digit@__crt_strtox@@YAI_W@Z 10074ef0 f i libucrtd:atox.obj
 0001:00073f70       ?restore_state@?$c_string_character_source@D@__crt_strtox@@QAE_NQBD@Z 10074f70 f i libucrtd:atox.obj
 0001:00073f90       ?restore_state@?$c_string_character_source@_W@__crt_strtox@@QAE_NQB_W@Z 10074f90 f i libucrtd:atox.obj
 0001:00073fb0       ?save_state@?$c_string_character_source@D@__crt_strtox@@QBEPBDXZ 10074fb0 f i libucrtd:atox.obj
 0001:00073fd0       ?save_state@?$c_string_character_source@_W@__crt_strtox@@QBEPB_WXZ 10074fd0 f i libucrtd:atox.obj
 0001:00073ff0       ?unget@?$c_string_character_source@D@__crt_strtox@@QAEXD@Z 10074ff0 f i libucrtd:atox.obj
 0001:000740a0       ?unget@?$c_string_character_source@_W@__crt_strtox@@QAEX_W@Z 100750a0 f i libucrtd:atox.obj
 0001:00074150       ?validate@?$c_string_character_source@D@__crt_strtox@@QBE_NXZ 10075150 f i libucrtd:atox.obj
 0001:000741e0       ?validate@?$c_string_character_source@_W@__crt_strtox@@QBE_NXZ 100751e0 f i libucrtd:atox.obj
 0001:00074270       ?wide_character_to_digit@__crt_strtox@@YAH_W@Z 10075270 f i libucrtd:atox.obj
 0001:000745a0       __atoi64                   100755a0 f   libucrtd:atox.obj
 0001:000745c0       __atoi64_l                 100755c0 f   libucrtd:atox.obj
 0001:000745e0       __atoi_l                   100755e0 f   libucrtd:atox.obj
 0001:00074600       __atol_l                   10075600 f   libucrtd:atox.obj
 0001:00074620       __atoll_l                  10075620 f   libucrtd:atox.obj
 0001:00074640       __wtoi                     10075640 f   libucrtd:atox.obj
 0001:00074660       __wtoi64                   10075660 f   libucrtd:atox.obj
 0001:00074680       __wtoi64_l                 10075680 f   libucrtd:atox.obj
 0001:000746a0       __wtoi_l                   100756a0 f   libucrtd:atox.obj
 0001:000746c0       __wtol                     100756c0 f   libucrtd:atox.obj
 0001:000746e0       __wtol_l                   100756e0 f   libucrtd:atox.obj
 0001:00074700       __wtoll                    10075700 f   libucrtd:atox.obj
 0001:00074720       __wtoll_l                  10075720 f   libucrtd:atox.obj
 0001:00074740       _atoi                      10075740 f   libucrtd:atox.obj
 0001:00074760       _atol                      10075760 f   libucrtd:atox.obj
 0001:00074780       _atoll                     10075780 f   libucrtd:atox.obj
 0001:000747a0       _strncmp                   100757a0 f   libucrtd:strncmp.obj
 0001:00074d00       __tolower                  10075d00 f   libucrtd:tolower_toupper.obj
 0001:00074d10       __tolower_l                10075d10 f   libucrtd:tolower_toupper.obj
 0001:00074d30       __toupper                  10075d30 f   libucrtd:tolower_toupper.obj
 0001:00074d40       __toupper_l                10075d40 f   libucrtd:tolower_toupper.obj
 0001:00074d60       _tolower                   10075d60 f   libucrtd:tolower_toupper.obj
 0001:00074dc0       _toupper                   10075dc0 f   libucrtd:tolower_toupper.obj
 0001:00074e20       __CrtGetDebugFillThreshold 10075e20 f   libucrtd:debug_fill_threshold.obj
 0001:00074e30       __CrtSetDebugFillThreshold 10075e30 f   libucrtd:debug_fill_threshold.obj
 0001:00074e50       ??$make_c_string_character_source@DPAPAD@__crt_strtox@@YA?AV?$c_string_character_source@D@0@QBDQAPAD@Z 10075e50 f i libucrtd:strtox.obj
 0001:00074e70       ??$make_c_string_character_source@_WPAPA_W@__crt_strtox@@YA?AV?$c_string_character_source@_W@0@QB_WQAPA_W@Z 10075e70 f i libucrtd:strtox.obj
 0001:00074e90       ??$parse_integer_from_string@JDPAPAD@__crt_strtox@@YAJQBDQAPADHQAU__crt_locale_pointers@@@Z 10075e90 f i libucrtd:strtox.obj
 0001:00074ed0       ??$parse_integer_from_string@J_WPAPA_W@__crt_strtox@@YAJQB_WQAPA_WHQAU__crt_locale_pointers@@@Z 10075ed0 f i libucrtd:strtox.obj
 0001:00074f10       ??$parse_integer_from_string@KDPAPAD@__crt_strtox@@YAKQBDQAPADHQAU__crt_locale_pointers@@@Z 10075f10 f i libucrtd:strtox.obj
 0001:00074f50       ??$parse_integer_from_string@K_WPAPA_W@__crt_strtox@@YAKQB_WQAPA_WHQAU__crt_locale_pointers@@@Z 10075f50 f i libucrtd:strtox.obj
 0001:00074f90       ??$parse_integer_from_string@_JDPAPAD@__crt_strtox@@YA_JQBDQAPADHQAU__crt_locale_pointers@@@Z 10075f90 f i libucrtd:strtox.obj
 0001:00074fd0       ??$parse_integer_from_string@_J_WPAPA_W@__crt_strtox@@YA_JQB_WQAPA_WHQAU__crt_locale_pointers@@@Z 10075fd0 f i libucrtd:strtox.obj
 0001:00075010       ??$parse_integer_from_string@_KDPAPAD@__crt_strtox@@YA_KQBDQAPADHQAU__crt_locale_pointers@@@Z 10076010 f i libucrtd:strtox.obj
 0001:00075050       ??$parse_integer_from_string@_K_WPAPA_W@__crt_strtox@@YA_KQB_WQAPA_WHQAU__crt_locale_pointers@@@Z 10076050 f i libucrtd:strtox.obj
 0001:00075090       __strtoi64                 10076090 f   libucrtd:strtox.obj
 0001:000750b0       __strtoi64_l               100760b0 f   libucrtd:strtox.obj
 0001:000750d0       __strtoimax_l              100760d0 f   libucrtd:strtox.obj
 0001:000750f0       __strtol_l                 100760f0 f   libucrtd:strtox.obj
 0001:00075110       __strtoll_l                10076110 f   libucrtd:strtox.obj
 0001:00075130       __strtoui64                10076130 f   libucrtd:strtox.obj
 0001:00075150       __strtoui64_l              10076150 f   libucrtd:strtox.obj
 0001:00075170       __strtoul_l                10076170 f   libucrtd:strtox.obj
 0001:00075190       __strtoull_l               10076190 f   libucrtd:strtox.obj
 0001:000751b0       __strtoumax_l              100761b0 f   libucrtd:strtox.obj
 0001:000751d0       __wcstoi64                 100761d0 f   libucrtd:strtox.obj
 0001:000751f0       __wcstoi64_l               100761f0 f   libucrtd:strtox.obj
 0001:00075210       __wcstoimax_l              10076210 f   libucrtd:strtox.obj
 0001:00075230       __wcstol_l                 10076230 f   libucrtd:strtox.obj
 0001:00075250       __wcstoll_l                10076250 f   libucrtd:strtox.obj
 0001:00075270       __wcstoui64                10076270 f   libucrtd:strtox.obj
 0001:00075290       __wcstoui64_l              10076290 f   libucrtd:strtox.obj
 0001:000752b0       __wcstoul_l                100762b0 f   libucrtd:strtox.obj
 0001:000752d0       __wcstoull_l               100762d0 f   libucrtd:strtox.obj
 0001:000752f0       __wcstoumax_l              100762f0 f   libucrtd:strtox.obj
 0001:00075310       _strtoimax                 10076310 f   libucrtd:strtox.obj
 0001:00075330       _strtol                    10076330 f   libucrtd:strtox.obj
 0001:00075350       _strtoll                   10076350 f   libucrtd:strtox.obj
 0001:00075370       _strtoul                   10076370 f   libucrtd:strtox.obj
 0001:00075390       _strtoull                  10076390 f   libucrtd:strtox.obj
 0001:000753b0       _strtoumax                 100763b0 f   libucrtd:strtox.obj
 0001:000753d0       _wcstoimax                 100763d0 f   libucrtd:strtox.obj
 0001:000753f0       _wcstol                    100763f0 f   libucrtd:strtox.obj
 0001:00075410       _wcstoll                   10076410 f   libucrtd:strtox.obj
 0001:00075430       _wcstoul                   10076430 f   libucrtd:strtox.obj
 0001:00075450       _wcstoull                  10076450 f   libucrtd:strtox.obj
 0001:00075470       _wcstoumax                 10076470 f   libucrtd:strtox.obj
 0001:00075490       __mbtowc_l                 10076490 f   libucrtd:mbtowc.obj
 0001:000756d0       _mbtowc                    100766d0 f   libucrtd:mbtowc.obj
 0001:000756f0       __wctomb_l                 100766f0 f   libucrtd:wctomb.obj
 0001:00075770       __wctomb_s_l               10076770 f   libucrtd:wctomb.obj
 0001:00075ab0       _wctomb                    10076ab0 f   libucrtd:wctomb.obj
 0001:00075b00       _wctomb_s                  10076b00 f   libucrtd:wctomb.obj
 0001:00076300       ??1?$__crt_simd_cleanup_guard@$00@@QAE@XZ 10077300 f i libucrtd:strnlen.obj
 0001:00076310       ??1?$__crt_simd_cleanup_guard@$0A@@@QAE@XZ 10077310 f i libucrtd:strnlen.obj
 0001:00076320       ?compare_equals@?$__crt_simd_traits@$00E@@SA?AT__m256i@@T2@0@Z 10077320 f i libucrtd:strnlen.obj
 0001:00076360       ?compare_equals@?$__crt_simd_traits@$00G@@SA?AT__m256i@@T2@0@Z 10077360 f i libucrtd:strnlen.obj
 0001:000763a0       ?compare_equals@?$__crt_simd_traits@$0A@E@@SA?AT__m128i@@T2@0@Z 100773a0 f i libucrtd:strnlen.obj
 0001:000763e0       ?compare_equals@?$__crt_simd_traits@$0A@G@@SA?AT__m128i@@T2@0@Z 100773e0 f i libucrtd:strnlen.obj
 0001:00076420       ?compute_byte_mask@?$__crt_simd_pack_traits@$00@@SAHT__m256i@@@Z 10077420 f i libucrtd:strnlen.obj
 0001:00076450       ?compute_byte_mask@?$__crt_simd_pack_traits@$0A@@@SAHT__m128i@@@Z 10077450 f i libucrtd:strnlen.obj
 0001:00076480       ?get_zero_pack@?$__crt_simd_pack_traits@$00@@SA?AT__m256i@@XZ 10077480 f i libucrtd:strnlen.obj
 0001:000764b0       ?get_zero_pack@?$__crt_simd_pack_traits@$0A@@@SA?AT__m128i@@XZ 100774b0 f i libucrtd:strnlen.obj
 0001:000764e0       _strnlen                   100774e0 f   libucrtd:strnlen.obj
 0001:00076500       _wcsnlen                   10077500 f   libucrtd:strnlen.obj
 0001:00076520       ??$?RU__acrt_ptd@@@__crt_internal_free_policy@@QBEXQBU__acrt_ptd@@@Z 10077520 f i libucrtd:per_thread_data.obj
 0001:00076540       ??$?RV<lambda_3518db117f0e7cdb002338c5d3c47b6c>@@AAV<lambda_b2ea41f6bbb362cd97d94c6828d90b61>@@V<lambda_abdedf541bb04549bc734292b4a045d4>@@@?$__crt_seh_guarded_call@X@@QAEX$$QAV<lambda_3518db117f0e7cdb002338c5d3c47b6c>@@AAV<lambda_b2ea41f6bbb362cd97d94c6828d90b61>@@$$QAV<lambda_abdedf541bb04549bc734292b4a045d4>@@@Z 10077540 f i libucrtd:per_thread_data.obj
 0001:000765c0       ??$?RV<lambda_5b71d36f03204c0beab531769a5b5694>@@AAV<lambda_be2b3da3f62db62e9dad5dc70221a656>@@V<lambda_8f9ce462984622f9bf76b59e2aaaf805>@@@?$__crt_seh_guarded_call@X@@QAEX$$QAV<lambda_5b71d36f03204c0beab531769a5b5694>@@AAV<lambda_be2b3da3f62db62e9dad5dc70221a656>@@$$QAV<lambda_8f9ce462984622f9bf76b59e2aaaf805>@@@Z 100775c0 f i libucrtd:per_thread_data.obj
 0001:00076640       ??$?RV<lambda_952b238c83a62ef8e81c72265e1e9aa0>@@AAV<lambda_801f60a70ab65355beb13c41cbe335bb>@@V<lambda_84d84f98815add542a0d6e6ca338feb2>@@@?$__crt_seh_guarded_call@X@@QAEX$$QAV<lambda_952b238c83a62ef8e81c72265e1e9aa0>@@AAV<lambda_801f60a70ab65355beb13c41cbe335bb>@@$$QAV<lambda_84d84f98815add542a0d6e6ca338feb2>@@@Z 10077640 f i libucrtd:per_thread_data.obj
 0001:000766c0       ??$?RV<lambda_9df27f884b057bc3edfc946cb5b7cf47>@@AAV<lambda_e69574bed617af4e071282c136b37893>@@V<lambda_cc0d902bcbbeb830f749456577db4721>@@@?$__crt_seh_guarded_call@X@@QAEX$$QAV<lambda_9df27f884b057bc3edfc946cb5b7cf47>@@AAV<lambda_e69574bed617af4e071282c136b37893>@@$$QAV<lambda_cc0d902bcbbeb830f749456577db4721>@@@Z 100776c0 f i libucrtd:per_thread_data.obj
 0001:00076740       ??$__acrt_lock_and_call@V<lambda_801f60a70ab65355beb13c41cbe335bb>@@@@YAXW4__acrt_lock_id@@$$QAV<lambda_801f60a70ab65355beb13c41cbe335bb>@@@Z 10077740 f i libucrtd:per_thread_data.obj
 0001:00076780       ??$__acrt_lock_and_call@V<lambda_b2ea41f6bbb362cd97d94c6828d90b61>@@@@YAXW4__acrt_lock_id@@$$QAV<lambda_b2ea41f6bbb362cd97d94c6828d90b61>@@@Z 10077780 f i libucrtd:per_thread_data.obj
 0001:000767c0       ??$__acrt_lock_and_call@V<lambda_be2b3da3f62db62e9dad5dc70221a656>@@@@YAXW4__acrt_lock_id@@$$QAV<lambda_be2b3da3f62db62e9dad5dc70221a656>@@@Z 100777c0 f i libucrtd:per_thread_data.obj
 0001:00076800       ??$__acrt_lock_and_call@V<lambda_e69574bed617af4e071282c136b37893>@@@@YAXW4__acrt_lock_id@@$$QAV<lambda_e69574bed617af4e071282c136b37893>@@@Z 10077800 f i libucrtd:per_thread_data.obj
 0001:000769d0       ??0?$__crt_unique_heap_ptr@U__acrt_ptd@@U__crt_internal_free_policy@@@@QAE@QAU__acrt_ptd@@@Z 100779d0 f i libucrtd:per_thread_data.obj
 0001:000769f0       ??0__crt_scoped_get_last_error_reset@@QAE@XZ 100779f0 f i libucrtd:per_thread_data.obj
 0001:00076a10       ??1?$__crt_unique_heap_ptr@U__acrt_ptd@@U__crt_internal_free_policy@@@@QAE@XZ 10077a10 f i libucrtd:per_thread_data.obj
 0001:00076a30       ??1__crt_scoped_get_last_error_reset@@QAE@XZ 10077a30 f i libucrtd:per_thread_data.obj
 0001:00076a50       ??B?$__crt_unique_heap_ptr@U__acrt_ptd@@U__crt_internal_free_policy@@@@QBE_NXZ 10077a50 f i libucrtd:per_thread_data.obj
 0001:00076d30       ?dangerous_get_state_array@?$dual_state_global@PAU__crt_locale_data@@@__crt_state_management@@QAEPAPAU__crt_locale_data@@XZ 10077d30 f i libucrtd:per_thread_data.obj
 0001:00076eb0       ?detach@?$__crt_unique_heap_ptr@U__acrt_ptd@@U__crt_internal_free_policy@@@@QAEPAU__acrt_ptd@@XZ 10077eb0 f i libucrtd:per_thread_data.obj
 0001:00076ee0       ?get@?$__crt_unique_heap_ptr@U__acrt_ptd@@U__crt_internal_free_policy@@@@QBEPAU__acrt_ptd@@XZ 10077ee0 f i libucrtd:per_thread_data.obj
 0001:00077020       ?is_valid@?$__crt_unique_heap_ptr@U__acrt_ptd@@U__crt_internal_free_policy@@@@QBE_NXZ 10078020 f i libucrtd:per_thread_data.obj
 0001:00077050       ?release@?$__crt_unique_heap_ptr@U__acrt_ptd@@U__crt_internal_free_policy@@@@QAEXXZ 10078050 f i libucrtd:per_thread_data.obj
 0001:00077140       ?value@?$dual_state_global@PAU__crt_locale_data@@@__crt_state_management@@QAEAAPAU__crt_locale_data@@XZ 10078140 f i libucrtd:per_thread_data.obj
 0001:00077160       ___acrt_freeptd            10078160 f   libucrtd:per_thread_data.obj
 0001:00077190       ___acrt_getptd             10078190 f   libucrtd:per_thread_data.obj
 0001:000771b0       ___acrt_getptd_noexit      100781b0 f   libucrtd:per_thread_data.obj
 0001:000771c0       ___acrt_initialize_ptd     100781c0 f   libucrtd:per_thread_data.obj
 0001:00077200       ___acrt_uninitialize_ptd   10078200 f   libucrtd:per_thread_data.obj
 0001:00077230       ___threadhandle            10078230 f   libucrtd:per_thread_data.obj
 0001:00077240       ___threadid                10078240 f   libucrtd:per_thread_data.obj
 0001:00077250       ___acrt_update_locale_info 10078250 f   libucrtd:locale_update.obj
 0001:00077290       ___acrt_update_multibyte_info 10078290 f   libucrtd:locale_update.obj
 0001:000772c0       ?__acrt_fp_classify@@YA?AW4__acrt_fp_class@@ABN@Z 100782c0 f i libucrtd:cvt.obj
 0001:000773e0       ?__acrt_fp_is_negative@@YA_NABN@Z 100783e0 f i libucrtd:cvt.obj
 0001:00078480       ?strrchr@@YAPADQADH@Z      10079480 f i libucrtd:cvt.obj
 0001:000784a0       ___acrt_fp_format          100794a0 f   libucrtd:cvt.obj
 0001:00078930       __fputwc_nolock            10079930 f   libucrtd:fputwc.obj
 0001:00078b10       __fputwchar                10079b10 f   libucrtd:fputwc.obj
 0001:00078b30       __putwc_nolock             10079b30 f   libucrtd:fputwc.obj
 0001:00078b50       _fputwc                    10079b50 f   libucrtd:fputwc.obj
 0001:00078c60       _putwc                     10079c60 f   libucrtd:fputwc.obj
 0001:00078c80       _putwchar                  10079c80 f   libucrtd:fputwc.obj
 0001:00078ca0       ?lowio_handle@__crt_stdio_stream@@QBEHXZ 10079ca0 f i libucrtd:fileno.obj
 0001:00078cc0       __fileno                   10079cc0 f   libucrtd:fileno.obj
 0001:00078d60       ??$?RPAU__crt_stdio_stream_data@@@__crt_internal_free_policy@@QBEXQBQAU__crt_stdio_stream_data@@@Z 10079d60 f i libucrtd:_file.obj
 0001:00078d80       ??0?$__crt_unique_heap_ptr@PAU__crt_stdio_stream_data@@U__crt_internal_free_policy@@@@QAE@QAPAU__crt_stdio_stream_data@@@Z 10079d80 f i libucrtd:_file.obj
 0001:00078da0       ??1?$__crt_unique_heap_ptr@PAU__crt_stdio_stream_data@@U__crt_internal_free_policy@@@@QAE@XZ 10079da0 f i libucrtd:_file.obj
 0001:00078dc0       ?detach@?$__crt_unique_heap_ptr@PAU__crt_stdio_stream_data@@U__crt_internal_free_policy@@@@QAEPAPAU__crt_stdio_stream_data@@XZ 10079dc0 f i libucrtd:_file.obj
 0001:00078df0       ?release@?$__crt_unique_heap_ptr@PAU__crt_stdio_stream_data@@U__crt_internal_free_policy@@@@QAEXXZ 10079df0 f i libucrtd:_file.obj
 0001:00078e20       ___acrt_initialize_stdio   10079e20 f   libucrtd:_file.obj
 0001:00078f90       ___acrt_iob_func           10079f90 f   libucrtd:_file.obj
 0001:00078fa0       ___acrt_uninitialize_stdio 10079fa0 f   libucrtd:_file.obj
 0001:00079020       __get_stream_buffer_pointers 1007a020 f   libucrtd:_file.obj
 0001:00079100       __lock_file                1007a100 f   libucrtd:_file.obj
 0001:00079130       __unlock_file              1007a130 f   libucrtd:_file.obj
 0001:00079160       __get_printf_count_output  1007a160 f   libucrtd:printf_count_output.obj
 0001:00079190       __set_printf_count_output  1007a190 f   libucrtd:printf_count_output.obj
 0001:000791f0       ?has_any_buffer@__crt_stdio_stream@@QBE_NXZ 1007a1f0 f i libucrtd:_sftbuf.obj
 0001:00079210       ?has_any_of@__crt_stdio_stream@@QBE_NJ@Z 1007a210 f i libucrtd:_sftbuf.obj
 0001:00079250       ?has_temporary_buffer@__crt_stdio_stream@@QBE_NXZ 1007a250 f i libucrtd:_sftbuf.obj
 0001:00079270       ?set_flags@__crt_stdio_stream@@QBE_NJ@Z 1007a270 f i libucrtd:_sftbuf.obj
 0001:000792c0       ?unset_flags@__crt_stdio_stream@@QBE_NJ@Z 1007a2c0 f i libucrtd:_sftbuf.obj
 0001:00079310       ___acrt_stdio_begin_temporary_buffering_nolock 1007a310 f   libucrtd:_sftbuf.obj
 0001:000794d0       ___acrt_stdio_end_temporary_buffering_nolock 1007a4d0 f   libucrtd:_sftbuf.obj
 0001:00079560       ??$?RU__crt_locale_data@@@__crt_internal_free_policy@@QBEXQBU__crt_locale_data@@@Z 1007a560 f i libucrtd:wsetlocale.obj
 0001:00079580       ??$?RU__crt_locale_pointers@@@__crt_internal_free_policy@@QBEXQBU__crt_locale_pointers@@@Z 1007a580 f i libucrtd:wsetlocale.obj
 0001:000795a0       ??$?RU__crt_multibyte_data@@@__crt_internal_free_policy@@QBEXQBU__crt_multibyte_data@@@Z 1007a5a0 f i libucrtd:wsetlocale.obj
 0001:000795c0       ??$?RV<lambda_0f92d0c5a8007722f95b3b6c71cd8e3e>@@AAV<lambda_321f9d61c14d59ff00145e45db1313e0>@@V<lambda_3298c911d7b53f44106027a7fde9a80a>@@@?$__crt_seh_guarded_call@X@@QAEX$$QAV<lambda_0f92d0c5a8007722f95b3b6c71cd8e3e>@@AAV<lambda_321f9d61c14d59ff00145e45db1313e0>@@$$QAV<lambda_3298c911d7b53f44106027a7fde9a80a>@@@Z 1007a5c0 f i libucrtd:wsetlocale.obj
 0001:00079640       ??$?RV<lambda_507d9fd6b66e39451a8852ba73f804a7>@@AAV<lambda_565169b3e3b494427ce1bebdd17b54ac>@@AAV<lambda_f51fe5fd7c79a33db34fc9310f277369>@@@?$__crt_seh_guarded_call@X@@QAEX$$QAV<lambda_507d9fd6b66e39451a8852ba73f804a7>@@AAV<lambda_565169b3e3b494427ce1bebdd17b54ac>@@AAV<lambda_f51fe5fd7c79a33db34fc9310f277369>@@@Z 1007a640 f i libucrtd:wsetlocale.obj
 0001:000796c0       ??$?RV<lambda_76aaead6e312921abc834cb00a638bdd>@@AAV<lambda_176e34f99554166dd2fac165c457248c>@@V<lambda_998ee1c9f4290b119b936bcd6215875a>@@@?$__crt_seh_guarded_call@X@@QAEX$$QAV<lambda_76aaead6e312921abc834cb00a638bdd>@@AAV<lambda_176e34f99554166dd2fac165c457248c>@@$$QAV<lambda_998ee1c9f4290b119b936bcd6215875a>@@@Z 1007a6c0 f i libucrtd:wsetlocale.obj
 0001:00079740       ??$?RV<lambda_c9469061b39d205f0f236529d4a41659>@@AAV<lambda_b7fb1a997d3ebc0cc0186c5835178808>@@V<lambda_14b92c79d699846b5cc916cd4cf280e4>@@@?$__crt_seh_guarded_call@X@@QAEX$$QAV<lambda_c9469061b39d205f0f236529d4a41659>@@AAV<lambda_b7fb1a997d3ebc0cc0186c5835178808>@@$$QAV<lambda_14b92c79d699846b5cc916cd4cf280e4>@@@Z 1007a740 f i libucrtd:wsetlocale.obj
 0001:000797c0       ??$__acrt_lock_and_call@V<lambda_176e34f99554166dd2fac165c457248c>@@@@YAXW4__acrt_lock_id@@$$QAV<lambda_176e34f99554166dd2fac165c457248c>@@@Z 1007a7c0 f i libucrtd:wsetlocale.obj
 0001:00079800       ??$__acrt_lock_and_call@V<lambda_321f9d61c14d59ff00145e45db1313e0>@@@@YAXW4__acrt_lock_id@@$$QAV<lambda_321f9d61c14d59ff00145e45db1313e0>@@@Z 1007a800 f i libucrtd:wsetlocale.obj
 0001:00079840       ??$__acrt_lock_and_call@V<lambda_b7fb1a997d3ebc0cc0186c5835178808>@@@@YAXW4__acrt_lock_id@@$$QAV<lambda_b7fb1a997d3ebc0cc0186c5835178808>@@@Z 1007a840 f i libucrtd:wsetlocale.obj
 0001:00079880       ??$__crt_call_and_cleanup@V<lambda_565169b3e3b494427ce1bebdd17b54ac>@@V<lambda_f51fe5fd7c79a33db34fc9310f277369>@@@@YAX$$QAV<lambda_565169b3e3b494427ce1bebdd17b54ac>@@$$QAV<lambda_f51fe5fd7c79a33db34fc9310f277369>@@@Z 1007a880 f i libucrtd:wsetlocale.obj
 0001:000798b0       ??$__vcrt_va_start_verify_argument_type@H@@YAXXZ 1007a8b0 f i libucrtd:wsetlocale.obj
 0001:00079a60       ??0?$__crt_unique_heap_ptr@U__crt_locale_data@@U__crt_internal_free_policy@@@@QAE@QAU__crt_locale_data@@@Z 1007aa60 f i libucrtd:wsetlocale.obj
 0001:00079a80       ??0?$__crt_unique_heap_ptr@U__crt_locale_pointers@@U__crt_internal_free_policy@@@@QAE@QAU__crt_locale_pointers@@@Z 1007aa80 f i libucrtd:wsetlocale.obj
 0001:00079aa0       ??0?$__crt_unique_heap_ptr@U__crt_multibyte_data@@U__crt_internal_free_policy@@@@QAE@QAU__crt_multibyte_data@@@Z 1007aaa0 f i libucrtd:wsetlocale.obj
 0001:00079ac0       ??1?$__crt_unique_heap_ptr@U__crt_locale_data@@U__crt_internal_free_policy@@@@QAE@XZ 1007aac0 f i libucrtd:wsetlocale.obj
 0001:00079ae0       ??1?$__crt_unique_heap_ptr@U__crt_locale_pointers@@U__crt_internal_free_policy@@@@QAE@XZ 1007aae0 f i libucrtd:wsetlocale.obj
 0001:00079b00       ??1?$__crt_unique_heap_ptr@U__crt_multibyte_data@@U__crt_internal_free_policy@@@@QAE@XZ 1007ab00 f i libucrtd:wsetlocale.obj
 0001:00079b20       ??B?$__crt_unique_heap_ptr@U__crt_locale_data@@U__crt_internal_free_policy@@@@QBE_NXZ 1007ab20 f i libucrtd:wsetlocale.obj
 0001:00079b40       ??B?$__crt_unique_heap_ptr@U__crt_locale_pointers@@U__crt_internal_free_policy@@@@QBE_NXZ 1007ab40 f i libucrtd:wsetlocale.obj
 0001:00079b60       ??B?$__crt_unique_heap_ptr@U__crt_multibyte_data@@U__crt_internal_free_policy@@@@QBE_NXZ 1007ab60 f i libucrtd:wsetlocale.obj
 0001:00079ea0       ?detach@?$__crt_unique_heap_ptr@U__crt_locale_data@@U__crt_internal_free_policy@@@@QAEPAU__crt_locale_data@@XZ 1007aea0 f i libucrtd:wsetlocale.obj
 0001:00079ed0       ?detach@?$__crt_unique_heap_ptr@U__crt_locale_pointers@@U__crt_internal_free_policy@@@@QAEPAU__crt_locale_pointers@@XZ 1007aed0 f i libucrtd:wsetlocale.obj
 0001:00079f00       ?detach@?$__crt_unique_heap_ptr@U__crt_multibyte_data@@U__crt_internal_free_policy@@@@QAEPAU__crt_multibyte_data@@XZ 1007af00 f i libucrtd:wsetlocale.obj
 0001:00079f30       ?get@?$__crt_unique_heap_ptr@U__crt_locale_data@@U__crt_internal_free_policy@@@@QBEPAU__crt_locale_data@@XZ 1007af30 f i libucrtd:wsetlocale.obj
 0001:00079f50       ?get@?$__crt_unique_heap_ptr@U__crt_locale_pointers@@U__crt_internal_free_policy@@@@QBEPAU__crt_locale_pointers@@XZ 1007af50 f i libucrtd:wsetlocale.obj
 0001:00079f70       ?get@?$__crt_unique_heap_ptr@U__crt_multibyte_data@@U__crt_internal_free_policy@@@@QBEPAU__crt_multibyte_data@@XZ 1007af70 f i libucrtd:wsetlocale.obj
 0001:00079f90       ?is_valid@?$__crt_unique_heap_ptr@U__crt_locale_data@@U__crt_internal_free_policy@@@@QBE_NXZ 1007af90 f i libucrtd:wsetlocale.obj
 0001:00079fc0       ?is_valid@?$__crt_unique_heap_ptr@U__crt_locale_pointers@@U__crt_internal_free_policy@@@@QBE_NXZ 1007afc0 f i libucrtd:wsetlocale.obj
 0001:00079ff0       ?is_valid@?$__crt_unique_heap_ptr@U__crt_multibyte_data@@U__crt_internal_free_policy@@@@QBE_NXZ 1007aff0 f i libucrtd:wsetlocale.obj
 0001:0007a020       ?release@?$__crt_unique_heap_ptr@U__crt_locale_data@@U__crt_internal_free_policy@@@@QAEXXZ 1007b020 f i libucrtd:wsetlocale.obj
 0001:0007a050       ?release@?$__crt_unique_heap_ptr@U__crt_locale_pointers@@U__crt_internal_free_policy@@@@QAEXXZ 1007b050 f i libucrtd:wsetlocale.obj
 0001:0007a080       ?release@?$__crt_unique_heap_ptr@U__crt_multibyte_data@@U__crt_internal_free_policy@@@@QAEXXZ 1007b080 f i libucrtd:wsetlocale.obj
 0001:0007a0b0       ___acrt_copy_locale_name   1007b0b0 f   libucrtd:wsetlocale.obj
 0001:0007a150       ___acrt_set_locale_changed 1007b150 f   libucrtd:wsetlocale.obj
 0001:0007a170       ___acrt_uninitialize_locale 1007b170 f   libucrtd:wsetlocale.obj
 0001:0007a220       ___lc_lctowcs              1007b220 f   libucrtd:wsetlocale.obj
 0001:0007a2d0       ___lc_wcstolc              1007b2d0 f   libucrtd:wsetlocale.obj
 0001:0007a4f0       __configthreadlocale       1007b4f0 f   libucrtd:wsetlocale.obj
 0001:0007a670       __create_locale            1007b670 f   libucrtd:wsetlocale.obj
 0001:0007a6e0       __expandlocale             1007b6e0 f   libucrtd:wsetlocale.obj
 0001:0007abb0       __free_locale              1007bbb0 f   libucrtd:wsetlocale.obj
 0001:0007ace0       __get_current_locale       1007bce0 f   libucrtd:wsetlocale.obj
 0001:0007adb0       __wcreate_locale           1007bdb0 f   libucrtd:wsetlocale.obj
 0001:0007aff0       __wcscats                  1007bff0 f   libucrtd:wsetlocale.obj
 0001:0007b070       __wsetlocale               1007c070 f   libucrtd:wsetlocale.obj
 0001:0007bfc0       ___p___mb_cur_max          1007cfc0 f   libucrtd:nlsdata.obj
 0001:0007c2c0       ___acrt_initialize_lowio   1007d2c0 f   libucrtd:ioinit.obj
 0001:0007c360       ___acrt_uninitialize_lowio 1007d360 f   libucrtd:ioinit.obj
 0001:0007c3c0       __CrtGetReportHook         1007d3c0 f   libucrtd:dbgrptt.obj
 0001:0007c3d0       __CrtSetReportFile         1007d3d0 f   libucrtd:dbgrptt.obj
 0001:0007c4d0       __CrtSetReportHook         1007d4d0 f   libucrtd:dbgrptt.obj
 0001:0007c4f0       __CrtSetReportMode         1007d4f0 f   libucrtd:dbgrptt.obj
 0001:0007c630       __VCrtDbgReportA           1007d630 f   libucrtd:dbgrptt.obj
 0001:0007ced0       __VCrtDbgReportW           1007ded0 f   libucrtd:dbgrptt.obj
 0001:0007d890       __snprintf_s               1007e890 f i libucrtd:dbgrptt.obj
 0001:0007d8e0       __vsnprintf_s              1007e8e0 f i libucrtd:dbgrptt.obj
 0001:0007d910       __vsnprintf_s_l            1007e910 f i libucrtd:dbgrptt.obj
 0001:0007d970       __vsnwprintf_s             1007e970 f i libucrtd:dbgrptt.obj
 0001:0007dca0       ??$message_box@$$TAAPBDAAPBDAAI@?$__crt_char_traits@D@@SAH$$QA$$TAAPBD1AAI@Z 1007eca0 f i libucrtd:crtmbox.obj
 0001:0007dcd0       ??$message_box@$$TAAPB_WAAPB_WAAI@?$__crt_char_traits@_W@@SAH$$QA$$TAAPB_W1AAI@Z 1007ecd0 f i libucrtd:crtmbox.obj
 0001:0007dd00       ??$message_box@$$TABQBDABQBDK@?$__crt_char_traits@D@@SAH$$QA$$TABQBD1$$QAK@Z 1007ed00 f i libucrtd:crtmbox.obj
 0001:0007dd30       ??$message_box@$$TABQB_WABQB_WK@?$__crt_char_traits@_W@@SAH$$QA$$TABQB_W1$$QAK@Z 1007ed30 f i libucrtd:crtmbox.obj
 0001:0007dd60       ??$message_box@PAUHWND__@@ABQBDABQBDABI@?$__crt_char_traits@D@@SAH$$QAPAUHWND__@@ABQBD1ABI@Z 1007ed60 f i libucrtd:crtmbox.obj
 0001:0007dd90       ??$message_box@PAUHWND__@@ABQB_WABQB_WABI@?$__crt_char_traits@_W@@SAH$$QAPAUHWND__@@ABQB_W1ABI@Z 1007ed90 f i libucrtd:crtmbox.obj
 0001:0007de60       ??$output_debug_string@ABQBD@?$__crt_char_traits@D@@SAXABQBD@Z 1007ee60 f i libucrtd:crtmbox.obj
 0001:0007de80       ??$output_debug_string@ABQB_W@?$__crt_char_traits@_W@@SAXABQB_W@Z 1007ee80 f i libucrtd:crtmbox.obj
 0001:0007dea0       ??0?$__crt_unique_handle_t@U__crt_handle_traits@@@@QAE@QAX@Z 1007eea0 f i libucrtd:crtmbox.obj
 0001:0007dec0       ??1?$__crt_unique_handle_t@U__crt_handle_traits@@@@QAE@XZ 1007eec0 f i libucrtd:crtmbox.obj
 0001:0007dee0       ??B?$__crt_unique_handle_t@U__crt_handle_traits@@@@QBE_NXZ 1007eee0 f i libucrtd:crtmbox.obj
 0001:0007df00       ?close@?$__crt_unique_handle_t@U__crt_handle_traits@@@@QAEXXZ 1007ef00 f i libucrtd:crtmbox.obj
 0001:0007df40       ?close@__crt_handle_traits@@SA_NPAX@Z 1007ef40 f i libucrtd:crtmbox.obj
 0001:0007df70       ?get@?$__crt_unique_handle_t@U__crt_handle_traits@@@@QBEPAXXZ 1007ef70 f i libucrtd:crtmbox.obj
 0001:0007df90       ?get_invalid_value@__crt_handle_traits@@SAPAXXZ 1007ef90 f i libucrtd:crtmbox.obj
 0001:0007dfa0       ?is_valid@?$__crt_unique_handle_t@U__crt_handle_traits@@@@QBE_NXZ 1007efa0 f i libucrtd:crtmbox.obj
 0001:0007dfd0       ___acrt_show_narrow_message_box 1007efd0 f   libucrtd:crtmbox.obj
 0001:0007dff0       ___acrt_show_wide_message_box 1007eff0 f   libucrtd:crtmbox.obj
 0001:0007e010       ___acrt_initialize_locks   1007f010 f   libucrtd:locks.obj
 0001:0007e070       ___acrt_lock               1007f070 f   libucrtd:locks.obj
 0001:0007e090       ___acrt_uninitialize_locks 1007f090 f   libucrtd:locks.obj
 0001:0007e0e0       ___acrt_unlock             1007f0e0 f   libucrtd:locks.obj
 0001:0007e100       __lock_locales             1007f100 f   libucrtd:locks.obj
 0001:0007e120       __unlock_locales           1007f120 f   libucrtd:locks.obj
 0001:0007e140       ??$?B$$A6AXH@Z@__crt_fast_encoded_nullptr_t@@QBEP6AXH@ZXZ 1007f140 f i libucrtd:signal.obj
 0001:0007e160       ??$?RV<lambda_a048d3beccc847880fc8490e18b82769>@@AAV<lambda_ec61778202f4f5fc7e7711acc23c3bca>@@V<lambda_f7496a158712204296dd6628a163878e>@@@?$__crt_seh_guarded_call@P6AXH@Z@@QAEP6AXH@Z$$QAV<lambda_a048d3beccc847880fc8490e18b82769>@@AAV<lambda_ec61778202f4f5fc7e7711acc23c3bca>@@$$QAV<lambda_f7496a158712204296dd6628a163878e>@@@Z 1007f160 f i libucrtd:signal.obj
 0001:0007e1f0       ??$__acrt_lock_and_call@V<lambda_ec61778202f4f5fc7e7711acc23c3bca>@@@@YAP6AXH@ZW4__acrt_lock_id@@$$QAV<lambda_ec61778202f4f5fc7e7711acc23c3bca>@@@Z 1007f1f0 f i libucrtd:signal.obj
 0001:0007e230       ??$__crt_fast_decode_pointer@P6AXH@Z@@YAP6AXH@ZQ6AXH@Z@Z 1007f230 f i libucrtd:signal.obj
 0001:0007e260       ??$__crt_fast_encode_pointer@P6AXH@Z@@YAP6AXH@ZQ6AXH@Z@Z 1007f260 f i libucrtd:signal.obj
 0001:0007e520       ?initialize@?$dual_state_global@P6AXH@Z@__crt_state_management@@QAEXQ6AXH@Z@Z 1007f520 f i libucrtd:signal.obj
 0001:0007e600       ?value@?$dual_state_global@P6AXH@Z@__crt_state_management@@QAEAAP6AXH@ZXZ 1007f600 f i libucrtd:signal.obj
 0001:0007e620       ___acrt_get_sigabrt_handler 1007f620 f   libucrtd:signal.obj
 0001:0007e640       ___acrt_initialize_signal_handlers 1007f640 f   libucrtd:signal.obj
 0001:0007e680       ___fpecode                 1007f680 f   libucrtd:signal.obj
 0001:0007e690       ___pxcptinfoptrs           1007f690 f   libucrtd:signal.obj
 0001:0007e6a0       _raise                     1007f6a0 f   libucrtd:signal.obj
 0001:0007ea80       _signal                    1007fa80 f   libucrtd:signal.obj
 0001:0007ed10       __msize                    1007fd10 f   libucrtd:msize.obj
 0001:0007ed30       __realloc_base             1007fd30 f   libucrtd:realloc_base.obj
 0001:0007ee20       ??$?B$$A6GHPA_WKJ@Z@__crt_fast_encoded_nullptr_t@@QBEP6GHPA_WKJ@ZXZ 1007fe20 f i libucrtd:winapi_thunks.obj
 0001:0007ee40       ??$?RV<lambda_9227be29367c048ad7fd93a717dcb1a1>@@AAV<lambda_a463b7b0560cfcaf9b17f27c6ef46564>@@V<lambda_ccea11b5727ccf69be64f5f5d9a08d9f>@@@?$__crt_seh_guarded_call@H@@QAEH$$QAV<lambda_9227be29367c048ad7fd93a717dcb1a1>@@AAV<lambda_a463b7b0560cfcaf9b17f27c6ef46564>@@$$QAV<lambda_ccea11b5727ccf69be64f5f5d9a08d9f>@@@Z 1007fe40 f i libucrtd:winapi_thunks.obj
 0001:0007eed0       ??$__acrt_lock_and_call@V<lambda_a463b7b0560cfcaf9b17f27c6ef46564>@@@@YAHW4__acrt_lock_id@@$$QAV<lambda_a463b7b0560cfcaf9b17f27c6ef46564>@@@Z 1007fed0 f i libucrtd:winapi_thunks.obj
 0001:0007ef10       ??$__crt_fast_decode_pointer@P6GHPA_WKJ@Z@@YAP6GHPA_WKJ@ZQ6GH0KJ@Z@Z 1007ff10 f i libucrtd:winapi_thunks.obj
 0001:0007ef40       ??$__crt_fast_encode_pointer@P6GHPA_WKJ@Z@@YAP6GHPA_WKJ@ZQ6GH0KJ@Z@Z 1007ff40 f i libucrtd:winapi_thunks.obj
 0001:0007f7e0       ___acrt_AreFileApisANSI@0  100807e0 f   libucrtd:winapi_thunks.obj
 0001:0007f830       ___acrt_CompareStringEx@36 10080830 f   libucrtd:winapi_thunks.obj
 0001:0007f8c0       ___acrt_EnumSystemLocalesEx@16 100808c0 f   libucrtd:winapi_thunks.obj
 0001:0007f930       ___acrt_FlsAlloc@4         10080930 f   libucrtd:winapi_thunks.obj
 0001:0007f980       ___acrt_FlsFree@4          10080980 f   libucrtd:winapi_thunks.obj
 0001:0007f9e0       ___acrt_FlsGetValue@4      100809e0 f   libucrtd:winapi_thunks.obj
 0001:0007fa40       ___acrt_FlsSetValue@8      10080a40 f   libucrtd:winapi_thunks.obj
 0001:0007faa0       ___acrt_GetDateFormatEx@28 10080aa0 f   libucrtd:winapi_thunks.obj
 0001:0007fb30       ___acrt_GetEnabledXStateFeatures@0 10080b30 f   libucrtd:winapi_thunks.obj
 0001:0007fb80       ___acrt_GetFileInformationByHandleEx@16 10080b80 f   libucrtd:winapi_thunks.obj
 0001:0007fbe0       ___acrt_GetLocaleInfoEx@16 10080be0 f   libucrtd:winapi_thunks.obj
 0001:0007fc60       ___acrt_GetSystemTimePreciseAsFileTime@4 10080c60 f   libucrtd:winapi_thunks.obj
 0001:0007fcc0       ___acrt_GetTimeFormatEx@24 10080cc0 f   libucrtd:winapi_thunks.obj
 0001:0007fd50       ___acrt_GetUserDefaultLocaleName@8 10080d50 f   libucrtd:winapi_thunks.obj
 0001:0007fdc0       ___acrt_GetXStateFeaturesMask@8 10080dc0 f   libucrtd:winapi_thunks.obj
 0001:0007fe20       ___acrt_InitializeCriticalSectionEx@12 10080e20 f   libucrtd:winapi_thunks.obj
 0001:0007fe80       ___acrt_IsValidLocaleName@4 10080e80 f   libucrtd:winapi_thunks.obj
 0001:0007fee0       ___acrt_LCIDToLocaleName@16 10080ee0 f   libucrtd:winapi_thunks.obj
 0001:0007ff50       ___acrt_LCMapStringEx@36   10080f50 f   libucrtd:winapi_thunks.obj
 0001:0007ffe0       ___acrt_LocaleNameToLCID@8 10080fe0 f   libucrtd:winapi_thunks.obj
 0001:00080040       ___acrt_LocateXStateFeature@12 10081040 f   libucrtd:winapi_thunks.obj
 0001:000800a0       ___acrt_MessageBoxA@16     100810a0 f   libucrtd:winapi_thunks.obj
 0001:00080100       ___acrt_MessageBoxW@16     10081100 f   libucrtd:winapi_thunks.obj
 0001:00080160       ___acrt_RoInitialize@4     10081160 f   libucrtd:winapi_thunks.obj
 0001:000801b0       ___acrt_RoUninitialize@0   100811b0 f   libucrtd:winapi_thunks.obj
 0001:000801f0       ___acrt_RtlGenRandom@8     100811f0 f   libucrtd:winapi_thunks.obj
 0001:00080250       ___acrt_SetThreadStackGuarantee@4 10081250 f   libucrtd:winapi_thunks.obj
 0001:000802a0       ___acrt_can_show_message_box 100812a0 f   libucrtd:winapi_thunks.obj
 0001:000802d0       ___acrt_can_use_vista_locale_apis 100812d0 f   libucrtd:winapi_thunks.obj
 0001:00080300       ___acrt_can_use_xstate_apis 10081300 f   libucrtd:winapi_thunks.obj
 0001:00080330       ___acrt_get_parent_window  10081330 f   libucrtd:winapi_thunks.obj
 0001:000803b0       ___acrt_initialize_winapi_thunks 100813b0 f   libucrtd:winapi_thunks.obj
 0001:00080420       ___acrt_is_interactive     10081420 f   libucrtd:winapi_thunks.obj
 0001:000804d0       ___acrt_is_packaged_app    100814d0 f   libucrtd:winapi_thunks.obj
 0001:000805e0       ___acrt_uninitialize_winapi_thunks 100815e0 f   libucrtd:winapi_thunks.obj
 0001:00080650       __chvalidator              10081650 f   libucrtd:isctype.obj
 0001:000806a0       __chvalidator_l            100816a0 f   libucrtd:isctype.obj
 0001:00080740       __isctype                  10081740 f   libucrtd:isctype.obj
 0001:00080780       __isctype_l                10081780 f   libucrtd:isctype.obj
 0001:00080900       ??$?RU__crt_stdio_stream_data@@@__crt_internal_free_policy@@QBEXQBU__crt_stdio_stream_data@@@Z 10081900 f i libucrtd:stream.obj
 0001:00080920       ??0?$__crt_unique_heap_ptr@U__crt_stdio_stream_data@@U__crt_internal_free_policy@@@@QAE@QAU__crt_stdio_stream_data@@@Z 10081920 f i libucrtd:stream.obj
 0001:00080940       ??0__crt_stdio_stream@@QAE@QAU__crt_stdio_stream_data@@@Z 10081940 f i libucrtd:stream.obj
 0001:00080960       ??0__crt_stdio_stream@@QAE@XZ 10081960 f i libucrtd:stream.obj
 0001:00080980       ??1?$__crt_unique_heap_ptr@U__crt_stdio_stream_data@@U__crt_internal_free_policy@@@@QAE@XZ 10081980 f i libucrtd:stream.obj
 0001:000809a0       ?__acrt_stdio_allocate_stream@@YA?AV__crt_stdio_stream@@XZ 100819a0 f   libucrtd:stream.obj
 0001:00080a90       ?__acrt_stdio_free_stream@@YAXV__crt_stdio_stream@@@Z 10081a90 f   libucrtd:stream.obj
 0001:00080b10       ?deallocate@__crt_stdio_stream@@QAEXXZ 10081b10 f i libucrtd:stream.obj
 0001:00080b30       ?detach@?$__crt_unique_heap_ptr@U__crt_stdio_stream_data@@U__crt_internal_free_policy@@@@QAEPAU__crt_stdio_stream_data@@XZ 10081b30 f i libucrtd:stream.obj
 0001:00080ca0       ?lock@__crt_stdio_stream@@QBEXXZ 10081ca0 f i libucrtd:stream.obj
 0001:00080cc0       ?release@?$__crt_unique_heap_ptr@U__crt_stdio_stream_data@@U__crt_internal_free_policy@@@@QAEXXZ 10081cc0 f i libucrtd:stream.obj
 0001:00080cf0       ?try_allocate@__crt_stdio_stream@@QAE_NXZ 10081cf0 f i libucrtd:stream.obj
 0001:00080d40       ??$__acrt_stdio_parse_mode@D@@YA?AU__acrt_stdio_stream_mode@@QBD@Z 10081d40 f i libucrtd:openfile.obj
 0001:000815a0       ??$__acrt_stdio_parse_mode@_W@@YA?AU__acrt_stdio_stream_mode@@QB_W@Z 100825a0 f i libucrtd:openfile.obj
 0001:00082130       ??$tcsncmp@AAPBDAAY02$$CBDI@?$__crt_char_traits@D@@SAHAAPBDAAY02$$CBD$$QAI@Z 10083130 f i libucrtd:openfile.obj
 0001:00082150       ??$tcsncmp@AAPB_WAAY02$$CB_WI@?$__crt_char_traits@_W@@SAHAAPB_WAAY02$$CB_W$$QAI@Z 10083150 f i libucrtd:openfile.obj
 0001:00082170       ??$tcsnicmp@AAPBDAAY04$$CBDI@?$__crt_char_traits@D@@SAHAAPBDAAY04$$CBD$$QAI@Z 10083170 f i libucrtd:openfile.obj
 0001:00082190       ??$tcsnicmp@AAPBDAAY06$$CBDI@?$__crt_char_traits@D@@SAHAAPBDAAY06$$CBD$$QAI@Z 10083190 f i libucrtd:openfile.obj
 0001:000821b0       ??$tcsnicmp@AAPBDAAY07$$CBDI@?$__crt_char_traits@D@@SAHAAPBDAAY07$$CBD$$QAI@Z 100831b0 f i libucrtd:openfile.obj
 0001:000821d0       ??$tcsnicmp@AAPB_WAAY04$$CB_WI@?$__crt_char_traits@_W@@SAHAAPB_WAAY04$$CB_W$$QAI@Z 100831d0 f i libucrtd:openfile.obj
 0001:000821f0       ??$tcsnicmp@AAPB_WAAY06$$CB_WI@?$__crt_char_traits@_W@@SAHAAPB_WAAY06$$CB_W$$QAI@Z 100831f0 f i libucrtd:openfile.obj
 0001:00082210       ??$tcsnicmp@AAPB_WAAY07$$CB_WI@?$__crt_char_traits@_W@@SAHAAPB_WAAY07$$CB_W$$QAI@Z 10083210 f i libucrtd:openfile.obj
 0001:00082230       ??$tsopen_s@PAHABQBDABHABHH@?$__crt_char_traits@D@@SAH$$QAPAHABQBDABH2$$QAH@Z 10083230 f i libucrtd:openfile.obj
 0001:00082260       ??$tsopen_s@PAHABQB_WABHABHH@?$__crt_char_traits@_W@@SAH$$QAPAHABQB_WABH2$$QAH@Z 10083260 f i libucrtd:openfile.obj
 0001:00082290       ?__acrt_stdio_parse_mode_D@@YA_NAAU__acrt_stdio_stream_mode@@@Z 10083290 f i libucrtd:openfile.obj
 0001:000822c0       ?__acrt_stdio_parse_mode_N@@YA_NAAU__acrt_stdio_stream_mode@@@Z 100832c0 f i libucrtd:openfile.obj
 0001:000822e0       ?__acrt_stdio_parse_mode_R@@YA_NAAU__acrt_stdio_stream_mode@@AA_N@Z 100832e0 f i libucrtd:openfile.obj
 0001:00082310       ?__acrt_stdio_parse_mode_S@@YA_NAAU__acrt_stdio_stream_mode@@AA_N@Z 10083310 f i libucrtd:openfile.obj
 0001:00082340       ?__acrt_stdio_parse_mode_T@@YA_NAAU__acrt_stdio_stream_mode@@@Z 10083340 f i libucrtd:openfile.obj
 0001:00082370       ?__acrt_stdio_parse_mode_b@@YA_NAAU__acrt_stdio_stream_mode@@@Z 10083370 f i libucrtd:openfile.obj
 0001:000823a0       ?__acrt_stdio_parse_mode_c@@YA_NAAU__acrt_stdio_stream_mode@@AA_N@Z 100833a0 f i libucrtd:openfile.obj
 0001:000823d0       ?__acrt_stdio_parse_mode_n@@YA_NAAU__acrt_stdio_stream_mode@@AA_N@Z 100833d0 f i libucrtd:openfile.obj
 0001:00082400       ?__acrt_stdio_parse_mode_plus@@YA_NAAU__acrt_stdio_stream_mode@@AA_N@Z 10083400 f i libucrtd:openfile.obj
 0001:00082470       ?__acrt_stdio_parse_mode_t@@YA_NAAU__acrt_stdio_stream_mode@@@Z 10083470 f i libucrtd:openfile.obj
 0001:000824a0       __openfile                 100834a0 f   libucrtd:openfile.obj
 0001:000824d0       __wopenfile                100834d0 f   libucrtd:openfile.obj
 0001:00082500       ??$?RV<lambda_4d8dda1ac129e11742d77ae5e3bbda74>@@AAV<lambda_a8f98972ebaa5f7148d35bffe53bd70d>@@V<lambda_5193b64c98d743723bd5dcf162a72339>@@@?$__crt_seh_guarded_call@H@@QAEH$$QAV<lambda_4d8dda1ac129e11742d77ae5e3bbda74>@@AAV<lambda_a8f98972ebaa5f7148d35bffe53bd70d>@@$$QAV<lambda_5193b64c98d743723bd5dcf162a72339>@@@Z 10083500 f i libucrtd:close.obj
 0001:00082590       ??$__acrt_lowio_lock_fh_and_call@V<lambda_a8f98972ebaa5f7148d35bffe53bd70d>@@@@YAHH$$QAV<lambda_a8f98972ebaa5f7148d35bffe53bd70d>@@@Z 10083590 f i libucrtd:close.obj
 0001:000827b0       __close                    100837b0 f   libucrtd:close.obj
 0001:00082930       __close_nolock             10083930 f   libucrtd:close.obj
 0001:00082990       ?has_crt_buffer@__crt_stdio_stream@@QBE_NXZ 10083990 f i libucrtd:_freebuf.obj
 0001:000829b0       ___acrt_stdio_free_buffer_nolock 100839b0 f   libucrtd:_freebuf.obj
 0001:00082a60       ?__acrt_stdio_reset_buffer@@YAXV__crt_stdio_stream@@@Z 10083a60 f i libucrtd:fflush.obj
 0001:00082a90       ?has_all_of@__crt_stdio_stream@@QBE_NJ@Z 10083a90 f i libucrtd:fflush.obj
 0001:00082ad0       ?has_big_buffer@__crt_stdio_stream@@QBE_NXZ 10083ad0 f i libucrtd:fflush.obj
 0001:00082af0       ___acrt_stdio_flush_nolock 10083af0 f   libucrtd:fflush.obj
 0001:00082bd0       __fflush_nolock            10083bd0 f   libucrtd:fflush.obj
 0001:00082c50       __flushall                 10083c50 f   libucrtd:fflush.obj
 0001:00082e00       _fflush                    10083e00 f   libucrtd:fflush.obj
 0001:000835d0       ___acrt_stdio_flush_and_write_narrow_nolock 100845d0 f   libucrtd:_flsbuf.obj
 0001:00083600       ___acrt_stdio_flush_and_write_wide_nolock 10084600 f   libucrtd:_flsbuf.obj
 0001:00084570       ??$find_first_file_ex@ABQADW4_FINDEX_INFO_LEVELS@@PAU_WIN32_FIND_DATAA@@W4_FINDEX_SEARCH_OPS@@$$TH@?$__crt_char_traits@D@@SAPAXABQAD$$QAW4_FINDEX_INFO_LEVELS@@$$QAPAU_WIN32_FIND_DATAA@@$$QAW4_FINDEX_SEARCH_OPS@@$$QA$$T$$QAH@Z 10085570 f i libucrtd:argv_wildcards.obj
 0001:000845b0       ??$find_first_file_ex@ABQA_WW4_FINDEX_INFO_LEVELS@@PAU_WIN32_FIND_DATAW@@W4_FINDEX_SEARCH_OPS@@$$TH@?$__crt_char_traits@_W@@SAPAXABQA_W$$QAW4_FINDEX_INFO_LEVELS@@$$QAPAU_WIN32_FIND_DATAW@@$$QAW4_FINDEX_SEARCH_OPS@@$$QA$$T$$QAH@Z 100855b0 f i libucrtd:argv_wildcards.obj
 0001:000845f0       ??$find_next_file@PAXPAU_WIN32_FIND_DATAA@@@?$__crt_char_traits@D@@SAH$$QAPAX$$QAPAU_WIN32_FIND_DATAA@@@Z 100855f0 f i libucrtd:argv_wildcards.obj
 0001:00084610       ??$find_next_file@PAXPAU_WIN32_FIND_DATAW@@@?$__crt_char_traits@_W@@SAH$$QAPAX$$QAPAU_WIN32_FIND_DATAW@@@Z 10085610 f i libucrtd:argv_wildcards.obj
 0001:00084630       ??$tcsncpy_s@AAPADIAAPADABI@?$__crt_char_traits@D@@SAHAAPAD$$QAI0ABI@Z 10085630 f i libucrtd:argv_wildcards.obj
 0001:00084660       ??$tcsncpy_s@AAPA_WIAAPA_WABI@?$__crt_char_traits@_W@@SAHAAPA_W$$QAI0ABI@Z 10085660 f i libucrtd:argv_wildcards.obj
 0001:00084690       ??$tcsncpy_s@PAD$$CBIABQBDABI@?$__crt_char_traits@D@@SAH$$QAPAD$$QBIABQBDABI@Z 10085690 f i libucrtd:argv_wildcards.obj
 0001:000846c0       ??$tcsncpy_s@PADABIABQBDABI@?$__crt_char_traits@D@@SAH$$QAPADABIABQBD1@Z 100856c0 f i libucrtd:argv_wildcards.obj
 0001:000846f0       ??$tcsncpy_s@PA_W$$CBIABQB_WABI@?$__crt_char_traits@_W@@SAH$$QAPA_W$$QBIABQB_WABI@Z 100856f0 f i libucrtd:argv_wildcards.obj
 0001:00084720       ??$tcsncpy_s@PA_WABIABQB_WABI@?$__crt_char_traits@_W@@SAH$$QAPA_WABIABQB_W1@Z 10085720 f i libucrtd:argv_wildcards.obj
 0001:00084750       ??$tcspbrk@AAPADAAY02$$CBD@?$__crt_char_traits@D@@SAPADAAPADAAY02$$CBD@Z 10085750 f i libucrtd:argv_wildcards.obj
 0001:00084770       ??$tcspbrk@AAPA_WAAY02$$CB_W@?$__crt_char_traits@_W@@SAPA_WAAPA_WAAY02$$CB_W@Z 10085770 f i libucrtd:argv_wildcards.obj
 0001:00084790       ??0?$__crt_unique_handle_t@U__crt_findfile_traits@@@@QAE@QAX@Z 10085790 f i libucrtd:argv_wildcards.obj
 0001:000847b0       ??0?$argument_list@D@?A0x536e2c96@@QAE@XZ 100857b0 f i libucrtd:argv_wildcards.obj
 0001:000847e0       ??0?$argument_list@_W@?A0x536e2c96@@QAE@XZ 100857e0 f i libucrtd:argv_wildcards.obj
 0001:00084810       ??1?$__crt_unique_handle_t@U__crt_findfile_traits@@@@QAE@XZ 10085810 f i libucrtd:argv_wildcards.obj
 0001:00084830       ??1?$argument_list@D@?A0x536e2c96@@QAE@XZ 10085830 f i libucrtd:argv_wildcards.obj
 0001:00084880       ??1?$argument_list@_W@?A0x536e2c96@@QAE@XZ 10085880 f i libucrtd:argv_wildcards.obj
 0001:00084990       ?append@?$argument_list@D@?A0x536e2c96@@QAEHQAD@Z 10085990 f i libucrtd:argv_wildcards.obj
 0001:000849f0       ?append@?$argument_list@_W@?A0x536e2c96@@QAEHQA_W@Z 100859f0 f i libucrtd:argv_wildcards.obj
 0001:00084a50       ?begin@?$argument_list@D@?A0x536e2c96@@QBEPAPADXZ 10085a50 f i libucrtd:argv_wildcards.obj
 0001:00084a70       ?begin@?$argument_list@_W@?A0x536e2c96@@QBEPAPA_WXZ 10085a70 f i libucrtd:argv_wildcards.obj
 0001:00084a90       ?close@?$__crt_unique_handle_t@U__crt_findfile_traits@@@@QAEXXZ 10085a90 f i libucrtd:argv_wildcards.obj
 0001:00084ad0       ?close@__crt_findfile_traits@@SA_NPAX@Z 10085ad0 f i libucrtd:argv_wildcards.obj
 0001:00084b00       ?end@?$argument_list@D@?A0x536e2c96@@QBEPAPADXZ 10085b00 f i libucrtd:argv_wildcards.obj
 0001:00084b20       ?end@?$argument_list@_W@?A0x536e2c96@@QBEPAPA_WXZ 10085b20 f i libucrtd:argv_wildcards.obj
 0001:00084b40       ?expand_if_necessary@?$argument_list@D@?A0x536e2c96@@AAEHXZ 10085b40 f i libucrtd:argv_wildcards.obj
 0001:00084ca0       ?expand_if_necessary@?$argument_list@_W@?A0x536e2c96@@AAEHXZ 10085ca0 f i libucrtd:argv_wildcards.obj
 0001:00084e00       ?get@?$__crt_unique_handle_t@U__crt_findfile_traits@@@@QBEPAXXZ 10085e00 f i libucrtd:argv_wildcards.obj
 0001:00084e20       ?get_invalid_value@__crt_findfile_traits@@SAPAXXZ 10085e20 f i libucrtd:argv_wildcards.obj
 0001:00084e60       ?size@?$argument_list@D@?A0x536e2c96@@QBEIXZ 10085e60 f i libucrtd:argv_wildcards.obj
 0001:00084e80       ?size@?$argument_list@_W@?A0x536e2c96@@QBEIXZ 10085e80 f i libucrtd:argv_wildcards.obj
 0001:00084ea0       ?strpbrk@@YAPADQADQBD@Z    10085ea0 f i libucrtd:argv_wildcards.obj
 0001:00084ec0       ?wcspbrk@@YAPA_WPA_WPB_W@Z 10085ec0 f i libucrtd:argv_wildcards.obj
 0001:00084ee0       ___acrt_expand_narrow_argv_wildcards 10085ee0 f   libucrtd:argv_wildcards.obj
 0001:00084f00       ___acrt_expand_wide_argv_wildcards 10085f00 f   libucrtd:argv_wildcards.obj
 0001:00084f20       ??$?RV<lambda_694f386f8d9a4d7d5afe1ac229f209db>@@AAV<lambda_2f900415df1f7f624cdaaefe86d0b1c0>@@V<lambda_17c2d007e408fdf31ce10a4c853c6ffa>@@@?$__crt_seh_guarded_call@X@@QAEX$$QAV<lambda_694f386f8d9a4d7d5afe1ac229f209db>@@AAV<lambda_2f900415df1f7f624cdaaefe86d0b1c0>@@$$QAV<lambda_17c2d007e408fdf31ce10a4c853c6ffa>@@@Z 10085f20 f i libucrtd:mbctype.obj
 0001:00084fa0       ??$__acrt_lock_and_call@V<lambda_2f900415df1f7f624cdaaefe86d0b1c0>@@@@YAXW4__acrt_lock_id@@$$QAV<lambda_2f900415df1f7f624cdaaefe86d0b1c0>@@@Z 10085fa0 f i libucrtd:mbctype.obj
 0001:000858d0       ___acrt_initialize_multibyte 100868d0 f   libucrtd:mbctype.obj
 0001:00085900       ___acrt_update_thread_multibyte_data 10086900 f   libucrtd:mbctype.obj
 0001:00085a10       ___p__mbcasemap            10086a10 f   libucrtd:mbctype.obj
 0001:00085a30       ___p__mbctype              10086a30 f   libucrtd:mbctype.obj
 0001:00085a50       __getmbcp                  10086a50 f   libucrtd:mbctype.obj
 0001:00085ac0       __setmbcp                  10086ac0 f   libucrtd:mbctype.obj
 0001:00085ae0       __setmbcp_nolock           10086ae0 f   libucrtd:mbctype.obj
 0001:00085fc3       __ismbbalnum               10086fc3 f   libucrtd:ismbbyte.obj
 0001:00085fde       __ismbbalnum_l             10086fde f   libucrtd:ismbbyte.obj
 0001:00085ffa       __ismbbalpha               10086ffa f   libucrtd:ismbbyte.obj
 0001:00086015       __ismbbalpha_l             10087015 f   libucrtd:ismbbyte.obj
 0001:00086031       __ismbbblank               10087031 f   libucrtd:ismbbyte.obj
 0001:00086054       __ismbbblank_l             10087054 f   libucrtd:ismbbyte.obj
 0001:00086078       __ismbbgraph               10087078 f   libucrtd:ismbbyte.obj
 0001:00086093       __ismbbgraph_l             10087093 f   libucrtd:ismbbyte.obj
 0001:000860af       __ismbbkalnum              100870af f   libucrtd:ismbbyte.obj
 0001:000860c7       __ismbbkalnum_l            100870c7 f   libucrtd:ismbbyte.obj
 0001:000860e0       __ismbbkana                100870e0 f   libucrtd:ismbbyte.obj
 0001:000860f3       __ismbbkana_l              100870f3 f   libucrtd:ismbbyte.obj
 0001:00086144       __ismbbkprint              10087144 f   libucrtd:ismbbyte.obj
 0001:0008615c       __ismbbkprint_l            1008715c f   libucrtd:ismbbyte.obj
 0001:00086175       __ismbbkpunct              10087175 f   libucrtd:ismbbyte.obj
 0001:0008618d       __ismbbkpunct_l            1008718d f   libucrtd:ismbbyte.obj
 0001:000861a6       __ismbblead                100871a6 f   libucrtd:ismbbyte.obj
 0001:000861be       __ismbblead_l              100871be f   libucrtd:ismbbyte.obj
 0001:000861d7       __ismbbprint               100871d7 f   libucrtd:ismbbyte.obj
 0001:000861f2       __ismbbprint_l             100871f2 f   libucrtd:ismbbyte.obj
 0001:0008620e       __ismbbpunct               1008720e f   libucrtd:ismbbyte.obj
 0001:00086226       __ismbbpunct_l             10087226 f   libucrtd:ismbbyte.obj
 0001:0008623f       __ismbbtrail               1008723f f   libucrtd:ismbbyte.obj
 0001:00086257       __ismbbtrail_l             10087257 f   libucrtd:ismbbyte.obj
 0001:00086270       ___acrt_initialize_command_line 10087270 f   libucrtd:argv_data.obj
 0001:00086290       ___acrt_uninitialize_command_line 10087290 f   libucrtd:argv_data.obj
 0001:000862a0       ___p___argc                100872a0 f   libucrtd:argv_data.obj
 0001:000862b0       ___p___argv                100872b0 f   libucrtd:argv_data.obj
 0001:000862c0       ___p___wargv               100872c0 f   libucrtd:argv_data.obj
 0001:000862d0       ___p__acmdln               100872d0 f   libucrtd:argv_data.obj
 0001:000862e0       ___p__pgmptr               100872e0 f   libucrtd:argv_data.obj
 0001:000862f0       ___p__wcmdln               100872f0 f   libucrtd:argv_data.obj
 0001:00086300       ___p__wpgmptr              10087300 f   libucrtd:argv_data.obj
 0001:00086310       __get_pgmptr               10087310 f   libucrtd:argv_data.obj
 0001:00086420       __get_wpgmptr              10087420 f   libucrtd:argv_data.obj
 0001:0008652f       ??0?$__crt_unique_handle_t@Uenvironment_strings_traits@?A0xda6148bb@@@@QAE@QA_W@Z 1008752f f i libucrtd:get_environment_from_os.obj
 0001:0008653f       ??1?$__crt_unique_handle_t@Uenvironment_strings_traits@?A0xda6148bb@@@@QAE@XZ 1008753f f i libucrtd:get_environment_from_os.obj
 0001:00086556       ??B?$__crt_unique_handle_t@Uenvironment_strings_traits@?A0xda6148bb@@@@QBE_NXZ 10087556 f i libucrtd:get_environment_from_os.obj
 0001:0008655e       ?close@?$__crt_unique_handle_t@Uenvironment_strings_traits@?A0xda6148bb@@@@QAEXXZ 1008755e f i libucrtd:get_environment_from_os.obj
 0001:00086575       ?close@environment_strings_traits@?A0xda6148bb@@SA_NPA_W@Z 10087575 f i libucrtd:get_environment_from_os.obj
 0001:000865be       ?get@?$__crt_unique_handle_t@Uenvironment_strings_traits@?A0xda6148bb@@@@QBEPA_WXZ 100875be f i libucrtd:get_environment_from_os.obj
 0001:000865c1       ?get_invalid_value@environment_strings_traits@?A0xda6148bb@@SAPA_WXZ 100875c1 f i libucrtd:get_environment_from_os.obj
 0001:000865c4       ?is_valid@?$__crt_unique_handle_t@Uenvironment_strings_traits@?A0xda6148bb@@@@QBE_NXZ 100875c4 f i libucrtd:get_environment_from_os.obj
 0001:000865cc       ___dcrt_get_narrow_environment_from_os 100875cc f   libucrtd:get_environment_from_os.obj
 0001:0008665d       ___dcrt_get_wide_environment_from_os 1008765d f   libucrtd:get_environment_from_os.obj
 0001:00086fac       ??$get_or_create_environment_nolock@$$$V@?$__crt_char_traits@D@@SAPAPADXZ 10087fac f i libucrtd:setenv.obj
 0001:00086fb1       ??$get_or_create_environment_nolock@$$$V@?$__crt_char_traits@_W@@SAPAPA_WXZ 10087fb1 f i libucrtd:setenv.obj
 0001:00086fb6       ??$set_environment_variable@ABQADQAD@?$__crt_char_traits@D@@SAHABQAD$$QBQAD@Z 10087fb6 f i libucrtd:setenv.obj
 0001:00086fcd       ??$set_environment_variable@ABQA_WQA_W@?$__crt_char_traits@_W@@SAHABQA_W$$QBQA_W@Z 10087fcd f i libucrtd:setenv.obj
 0001:00086fe4       ??$tcschr@ABQADD@?$__crt_char_traits@D@@SAPADABQAD$$QAD@Z 10087fe4 f i libucrtd:setenv.obj
 0001:00086ffe       ??$tcschr@ABQA_WD@?$__crt_char_traits@_W@@SAPA_WABQA_W$$QAD@Z 10087ffe f i libucrtd:setenv.obj
 0001:0008701c       ??$tcscpy_s@AAPADABIAAPAD@?$__crt_char_traits@D@@SAHAAPADABI0@Z 1008801c f i libucrtd:setenv.obj
 0001:0008703a       ??$tcscpy_s@AAPA_WABIAAPA_W@?$__crt_char_traits@_W@@SAHAAPA_WABI0@Z 1008803a f i libucrtd:setenv.obj
 0001:00087058       ??$tcscpy_s@ABQADABIABQAD@?$__crt_char_traits@D@@SAHABQADABI0@Z 10088058 f i libucrtd:setenv.obj
 0001:00087076       ??$tcscpy_s@ABQA_WABIABQA_W@?$__crt_char_traits@_W@@SAHABQA_WABI0@Z 10088076 f i libucrtd:setenv.obj
 0001:00087094       ??$tcslen@ABQAD@?$__crt_char_traits@D@@SAIABQAD@Z 10088094 f i libucrtd:setenv.obj
 0001:000870ac       ??$tcslen@ABQA_W@?$__crt_char_traits@_W@@SAIABQA_W@Z 100880ac f i libucrtd:setenv.obj
 0001:000870ca       ??$tcsnicoll@ABQBDAAPADABI@?$__crt_char_traits@D@@SAHABQBDAAPADABI@Z 100880ca f i libucrtd:setenv.obj
 0001:000870e8       ??$tcsnicoll@ABQB_WAAPA_WABI@?$__crt_char_traits@_W@@SAHABQB_WAAPA_WABI@Z 100880e8 f i libucrtd:setenv.obj
 0001:00087106       ??$tcsnlen@QADH@?$__crt_char_traits@D@@SAI$$QBQAD$$QAH@Z 10088106 f i libucrtd:setenv.obj
 0001:0008711e       ??$tcsnlen@QA_WH@?$__crt_char_traits@_W@@SAI$$QBQA_W$$QAH@Z 1008811e f i libucrtd:setenv.obj
 0001:0008715a       ?strchr@@YAPADQADH@Z       1008815a f i libucrtd:setenv.obj
 0001:00087165       ?wcschr@@YAPA_WPA_W_W@Z    10088165 f i libucrtd:setenv.obj
 0001:00087170       ___dcrt_set_variable_in_narrow_environment_nolock 10088170 f   libucrtd:setenv.obj
 0001:0008717b       ___dcrt_set_variable_in_wide_environment_nolock 1008817b f   libucrtd:setenv.obj
 0001:00087190       ___acrt_getheap            10088190 f   libucrtd:heap_handle.obj
 0001:000871d0       ___acrt_initialize_heap    100881d0 f   libucrtd:heap_handle.obj
 0001:00087200       ___acrt_uninitialize_heap  10088200 f   libucrtd:heap_handle.obj
 0001:00087220       __get_heap_handle          10088220 f   libucrtd:heap_handle.obj
 0001:00087260       ___acrt_execute_initializers 10088260 f   libucrtd:shared_initialization.obj
 0001:00087330       ___acrt_execute_uninitializers 10088330 f   libucrtd:shared_initialization.obj
 0001:000873a0       ??$__crt_fast_decode_pointer@P6AHPAU_exception@@@Z@@YAP6AHPAU_exception@@@ZQ6AH0@Z@Z 100883a0 f i libucrtd:matherr.obj
 0001:000873d0       ??$__crt_fast_encode_pointer@P6AHPAU_exception@@@Z@@YAP6AHPAU_exception@@@ZQ6AH0@Z@Z 100883d0 f i libucrtd:matherr.obj
 0001:00087400       ?initialize@?$dual_state_global@P6AHPAU_exception@@@Z@__crt_state_management@@QAEXQ6AHPAU_exception@@@Z@Z 10088400 f i libucrtd:matherr.obj
 0001:00087440       ?value@?$dual_state_global@P6AHPAU_exception@@@Z@__crt_state_management@@QAEAAP6AHPAU_exception@@@ZXZ 10088440 f i libucrtd:matherr.obj
 0001:00087460       ___acrt_has_user_matherr   10088460 f   libucrtd:matherr.obj
 0001:000874a0       ___acrt_initialize_user_matherr 100884a0 f   libucrtd:matherr.obj
 0001:000874c0       ___acrt_invoke_user_matherr 100884c0 f   libucrtd:matherr.obj
 0001:00087520       ___setusermatherr          10088520 f   libucrtd:matherr.obj
 0001:00087550       ??$__crt_interlocked_exchange_pointer@X$$T@@YAPAXPDSAX$$T@Z 10088550 f i libucrtd:free_base.obj
 0001:00087570       ___acrt_get_msvcrt_heap_handle 10088570 f   libucrtd:free_base.obj
 0001:00087630       __free_base                10088630 f   libucrtd:free_base.obj
 0001:00087680       __aligned_free             10088680 f   libucrtd:align.obj
 0001:000876a0       __aligned_free_base        100886a0 f   libucrtd:align.obj
 0001:000876e0       __aligned_malloc           100886e0 f   libucrtd:align.obj
 0001:00087700       __aligned_malloc_base      10088700 f   libucrtd:align.obj
 0001:00087720       __aligned_msize            10088720 f   libucrtd:align.obj
 0001:00087740       __aligned_msize_base       10088740 f   libucrtd:align.obj
 0001:00087870       __aligned_offset_malloc    10088870 f   libucrtd:align.obj
 0001:00087890       __aligned_offset_malloc_base 10088890 f   libucrtd:align.obj
 0001:00087a40       __aligned_offset_realloc   10088a40 f   libucrtd:align.obj
 0001:00087a70       __aligned_offset_realloc_base 10088a70 f   libucrtd:align.obj
 0001:00087d90       __aligned_offset_recalloc  10088d90 f   libucrtd:align.obj
 0001:00087dc0       __aligned_offset_recalloc_base 10088dc0 f   libucrtd:align.obj
 0001:00087e70       __aligned_realloc          10088e70 f   libucrtd:align.obj
 0001:00087ea0       __aligned_realloc_base     10088ea0 f   libucrtd:align.obj
