 OPOSFiscalPrinter

 Timestamp is 5defa93e (Tue Dec 10 23:18:38 2019)

 Preferred load address is 10000000

 Start         Length     Name                   Class
 0001:00000000 00000d90H .text$di                CODE
 0001:00000d90 000ad0b0H .text$mn                CODE
 0001:000ade40 000001c0H .text$x                 CODE
 0001:000ae000 00000120H .text$yd                CODE
 0002:00000000 00000358H .idata$5                DATA
 0002:00000358 00000004H .00cfg                  DATA
 0002:0000035c 00000004H .CRT$XCA                DATA
 0002:00000360 00000004H .CRT$XCL                DATA
 0002:00000364 0000006cH .CRT$XCU                DATA
 0002:000003d0 00000004H .CRT$XCZ                DATA
 0002:000003d4 00000004H .CRT$XIA                DATA
 0002:000003d8 00000010H .CRT$XIC                DATA
 0002:000003e8 00000004H .CRT$XIZ                DATA
 0002:000003ec 00000004H .CRT$XLA                DATA
 0002:000003f0 00000004H .CRT$XLZ                DATA
 0002:000003f4 00000004H .CRT$XPA                DATA
 0002:000003f8 00000008H .CRT$XPX                DATA
 0002:00000400 00000004H .CRT$XPXA               DATA
 0002:00000404 00000004H .CRT$XPZ                DATA
 0002:00000408 00000004H .CRT$XTA                DATA
 0002:0000040c 00000004H .CRT$XTZ                DATA
 0002:00000410 00000000H .gfids$y                DATA
 0002:00000410 00030bdcH .rdata                  DATA
 0002:00030fec 00000018H .rdata$T                DATA
 0002:00031004 0000033cH .rdata$r                DATA
 0002:00031340 00000044H .rdata$sxdata           DATA
 0002:00031384 00000408H .rdata$zzzdbg           DATA
 0002:0003178c 00000004H .rtc$IAA                DATA
 0002:00031790 00000018H .rtc$IMZ                DATA
 0002:000317a8 00000004H .rtc$IZZ                DATA
 0002:000317ac 00000004H .rtc$TAA                DATA
 0002:000317b0 00000018H .rtc$TMZ                DATA
 0002:000317c8 00000004H .rtc$TZZ                DATA
 0002:000317cc 00000004H .tls                    DATA
 0002:000317d0 00000004H .tls$                   DATA
 0002:000317d4 00000004H .tls$ZZZ                DATA
 0002:000317d8 00000e4cH .xdata$x                DATA
 0002:00032624 00000004H ATL$__a                 DATA
 0002:00032628 00000008H ATL$__z                 DATA
 0002:00032630 000000b0H .edata                  DATA
 0002:000326e0 00000078H .idata$2                DATA
 0002:00032758 00000014H .idata$3                DATA
 0002:0003276c 00000358H .idata$4                DATA
 0002:00032ac4 00000d50H .idata$6                DATA
 0003:00000000 00000cb0H .data                   DATA
 0003:00000cb0 00000138H .data$r                 DATA
 0003:00000de8 000035c0H .bss                    DATA
 0004:00000000 00000220H .rsrc$01                DATA
 0004:00000220 00009888H .rsrc$02                DATA

  Address         Publics by Value              Rva+Base       Lib:Object

 0000:00000000       ___guard_longjmp_table     00000000     <absolute>
 0000:00000000       ___AbsoluteZero            00000000     <absolute>
 0000:00000000       ___enclave_config          00000000     <absolute>
 0000:00000000       ___hybrid_code_map_count   00000000     <absolute>
 0000:00000000       ___hybrid_auxiliary_iat    00000000     <absolute>
 0000:00000000       ___guard_longjmp_count     00000000     <absolute>
 0000:00000000       ___hybrid_code_map         00000000     <absolute>
 0000:00000000       __except_list              00000000     <absolute>
 0000:00000000       ___volatile_metadata       00000000     <absolute>
 0000:00000000       ___guard_iat_count         00000000     <absolute>
 0000:00000000       ___dynamic_value_reloc_table 00000000     <absolute>
 0000:00000000       ___guard_fids_count        00000000     <absolute>
 0000:00000000       ___guard_fids_table        00000000     <absolute>
 0000:00000000       ___guard_iat_table         00000000     <absolute>
 0000:00000011       ___safe_se_handler_count   00000011     <absolute>
 0000:0000002c       __tls_array                0000002c     <absolute>
 0000:00000100       ___guard_flags             00000100     <absolute>
 0000:00000000       ___ImageBase               10000000     <linker-defined>
 0001:00000d90       ?_assert@@YAXPB_W0I@Z      10001d90 f   Assert.obj
 0001:00000ec0       ___local_stdio_printf_options 10001ec0 f i Assert.obj
 0001:00000ed0       ___vswprintf_l             10001ed0 f i Assert.obj
 0001:00000f00       __swprintf                 10001f00 f i Assert.obj
 0001:00000f60       __vswprintf_c_l            10001f60 f i Assert.obj
 0001:00000fd0       __vswprintf_l              10001fd0 f i Assert.obj
 0001:00001000       ?cw_memcpy@@YGHPADPB_WH@Z  10002000 f   CWString.obj
 0001:00001060       ?cw_memcpy@@YGHPA_WPBDH@Z  10002060 f   CWString.obj
 0001:000010c0       ?cw_memcpy@@YGHPADPBDH@Z   100020c0 f   CWString.obj
 0001:00001110       ?cw_memcpy@@YGHPA_WPB_WH@Z 10002110 f   CWString.obj
 0001:00001150       ?cw_memset@@YAXPADDH@Z     10002150 f   CWString.obj
 0001:00001170       ?cw_memset@@YAXPA_W_WH@Z   10002170 f   CWString.obj
 0001:00001190       ?cw_strlen@@YAHPBD@Z       10002190 f   CWString.obj
 0001:000011e0       ?cw_strlen@@YAHPB_W@Z      100021e0 f   CWString.obj
 0001:00001230       ?cw_strcpy@@YAHPADPB_W@Z   10002230 f   CWString.obj
 0001:00001250       ?cw_strcpy@@YAHPA_WPBD@Z   10002250 f   CWString.obj
 0001:00001270       ?cw_strcpy@@YAHPADPBD@Z    10002270 f   CWString.obj
 0001:00001290       ?cw_strcpy@@YAHPA_WPB_W@Z  10002290 f   CWString.obj
 0001:000012b0       ?cw_strcat@@YAHPADPB_W@Z   100022b0 f   CWString.obj
 0001:000012e0       ?cw_strcat@@YAHPA_WPBD@Z   100022e0 f   CWString.obj
 0001:00001310       ?cw_strcat@@YAHPADPBD@Z    10002310 f   CWString.obj
 0001:00001340       ?cw_strcat@@YAHPA_WPB_W@Z  10002340 f   CWString.obj
 0001:00001370       ?cw_dup@@YGXPBDAAHAAPA_W1@Z 10002370 f   CWString.obj
 0001:00001430       ?cw_dup@@YGXPB_WAAHAAPAD1@Z 10002430 f   CWString.obj
 0001:000014e0       ?DupChar@_CW@@AAEXXZ       100024e0 f   CWString.obj
 0001:00001530       ?DupWide@_CW@@AAEXXZ       10002530 f   CWString.obj
 0001:00001580       ?GetCharsMbcs@_CW@@QAEHXZ  10002580 f   CWString.obj
 0001:000015e0       ?GetCharsWide@_CW@@QAEHXZ  100025e0 f   CWString.obj
 0001:00001640       ?SetVARIANT_BOOL@OposVariant@@QAEXF@Z 10002640 f   OposVariant.obj
 0001:000016a0       ?SetVARIANT_BOOL_Ptr@OposVariant@@QAEXPAFAAJ@Z 100026a0 f   OposVariant.obj
 0001:000016f0       ?GetLONG@OposVariant@@QAEJXZ 100026f0 f   OposVariant.obj
 0001:00001780       ?ChangeLONG@OposVariant@@QAEXPAJAAJ@Z 10002780 f   OposVariant.obj
 0001:00001840       ?SetLONG@OposVariant@@QAEXJ@Z 10002840 f   OposVariant.obj
 0001:00001880       ?SetLONG_Ptr@OposVariant@@QAEXPAJAAJ@Z 10002880 f   OposVariant.obj
 0001:000018d0       ?ChangeCURRENCY@OposVariant@@QAEXPATtagCY@@AAJ@Z 100028d0 f   OposVariant.obj
 0001:00001990       ?SetCURRENCY@OposVariant@@QAEXTtagCY@@@Z 10002990 f   OposVariant.obj
 0001:000019d0       ?SetCURRENCY_Ptr@OposVariant@@QAEXPATtagCY@@AAJ@Z 100029d0 f   OposVariant.obj
 0001:00001a20       ?ChangeBSTR@OposVariant@@QAEXPAPA_WAAJ@Z 10002a20 f   OposVariant.obj
 0001:00001ae0       ?SetBSTR@OposVariant@@QAEXPA_WAAJ@Z 10002ae0 f   OposVariant.obj
 0001:00001b30       ?SetBSTR_Copy@OposVariant@@QAEXPA_WAAJ@Z 10002b30 f   OposVariant.obj
 0001:00001bd0       ?SetBSTR_OutPtr@OposVariant@@QAE_NPAPA_WAAJ@Z 10002bd0 f   OposVariant.obj
 0001:00001c20       ?SetBSTR_InOutPtr@OposVariant@@QAE_NPAPA_WAAJ@Z 10002c20 f   OposVariant.obj
 0001:00001c70       ?SetVARIANT@OposVariant@@QAEXAAUtagVARIANT@@GAAJ@Z 10002c70 f   OposVariant.obj
 0001:00001cf0       ?SetVARIANT_Ptr@OposVariant@@QAEXAAPAUtagVARIANT@@GAAJ@Z 10002cf0 f   OposVariant.obj
 0001:00001d90       ?SetString@OposVariant@@QAEXPB_WAAJ@Z 10002d90 f   OposVariant.obj
 0001:00001e20       ?SetDispatch_Ptr@OposVariant@@QAEXPAUIDispatch@@AAJ@Z 10002e20 f   OposVariant.obj
 0001:00001e90       ??0OposDispParms@@QAE@PAVOposVariant@@H@Z 10002e90 f   OposVariant.obj
 0001:00001f60       ??1OposDispParms@@QAE@XZ   10002f60 f   OposVariant.obj
 0001:00001fb0       ??$AtlMultiply@I@ATL@@YAJPAIII@Z 10002fb0 f i OposVariant.obj
 0001:00002010       ??0?$CHeapPtr@_WVCCRTAllocator@ATL@@@ATL@@QAE@XZ 10003010 f i OposVariant.obj
 0001:00002040       ??0?$CHeapPtrBase@_WVCCRTAllocator@ATL@@@ATL@@IAE@XZ 10003040 f i OposVariant.obj
 0001:00002060       ??0?$CSimpleArray@GV?$CSimpleArrayEqualHelper@G@ATL@@@ATL@@QAE@XZ 10003060 f i OposVariant.obj
 0001:000020a0       ??0?$CTraceCategoryEx@$00$0A@@ATL@@QAE@PB_W@Z 100030a0 f i OposVariant.obj
 0001:000020d0       ??0?$CTraceCategoryEx@$01$0A@@ATL@@QAE@PB_W@Z 100030d0 f i OposVariant.obj
 0001:00002100       ??0?$CTraceCategoryEx@$03$0A@@ATL@@QAE@PB_W@Z 10003100 f i OposVariant.obj
 0001:00002130       ??0?$CTraceCategoryEx@$07$0A@@ATL@@QAE@PB_W@Z 10003130 f i OposVariant.obj
 0001:00002160       ??0?$CTraceCategoryEx@$0BA@$0A@@ATL@@QAE@PB_W@Z 10003160 f i OposVariant.obj
 0001:00002190       ??0?$CTraceCategoryEx@$0BAA@$0A@@ATL@@QAE@PB_W@Z 10003190 f i OposVariant.obj
 0001:000021d0       ??0?$CTraceCategoryEx@$0BAAA@$0A@@ATL@@QAE@PB_W@Z 100031d0 f i OposVariant.obj
 0001:00002210       ??0?$CTraceCategoryEx@$0BAAAA@$0A@@ATL@@QAE@PB_W@Z 10003210 f i OposVariant.obj
 0001:00002250       ??0?$CTraceCategoryEx@$0BAAAAA@$0A@@ATL@@QAE@PB_W@Z 10003250 f i OposVariant.obj
 0001:00002290       ??0?$CTraceCategoryEx@$0CA@$0A@@ATL@@QAE@PB_W@Z 10003290 f i OposVariant.obj
 0001:000022c0       ??0?$CTraceCategoryEx@$0CAA@$0A@@ATL@@QAE@PB_W@Z 100032c0 f i OposVariant.obj
 0001:00002300       ??0?$CTraceCategoryEx@$0CAAA@$0A@@ATL@@QAE@PB_W@Z 10003300 f i OposVariant.obj
 0001:00002340       ??0?$CTraceCategoryEx@$0CAAAA@$0A@@ATL@@QAE@PB_W@Z 10003340 f i OposVariant.obj
 0001:00002380       ??0?$CTraceCategoryEx@$0CAAAAA@$0A@@ATL@@QAE@PB_W@Z 10003380 f i OposVariant.obj
 0001:000023c0       ??0?$CTraceCategoryEx@$0EA@$0A@@ATL@@QAE@PB_W@Z 100033c0 f i OposVariant.obj
 0001:000023f0       ??0?$CTraceCategoryEx@$0EAA@$0A@@ATL@@QAE@PB_W@Z 100033f0 f i OposVariant.obj
 0001:00002430       ??0?$CTraceCategoryEx@$0EAAA@$0A@@ATL@@QAE@PB_W@Z 10003430 f i OposVariant.obj
 0001:00002470       ??0?$CTraceCategoryEx@$0EAAAA@$0A@@ATL@@QAE@PB_W@Z 10003470 f i OposVariant.obj
 0001:000024b0       ??0?$CTraceCategoryEx@$0EAAAAA@$0A@@ATL@@QAE@PB_W@Z 100034b0 f i OposVariant.obj
 0001:000024f0       ??0?$CTraceCategoryEx@$0IA@$0A@@ATL@@QAE@PB_W@Z 100034f0 f i OposVariant.obj
 0001:00002530       ??0?$CTraceCategoryEx@$0IAA@$0A@@ATL@@QAE@PB_W@Z 10003530 f i OposVariant.obj
 0001:00002570       ??0?$CTraceCategoryEx@$0IAAA@$0A@@ATL@@QAE@PB_W@Z 10003570 f i OposVariant.obj
 0001:000025b0       ??0?$CTraceCategoryEx@$0IAAAA@$0A@@ATL@@QAE@PB_W@Z 100035b0 f i OposVariant.obj
 0001:000025f0       ??0CAtlComModule@ATL@@QAE@XZ 100035f0 f i OposVariant.obj
 0001:000026d0       ??0CAtlWinModule@ATL@@QAE@XZ 100036d0 f i OposVariant.obj
 0001:00002760       ??0CComCriticalSection@ATL@@QAE@XZ 10003760 f i OposVariant.obj
 0001:00002790       ??0CPreserveLastError@ATL@@QAE@XZ 10003790 f i OposVariant.obj
 0001:000027d0       ??0CTraceFileAndLineInfo@ATL@@QAE@PBDH@Z 100037d0 f i OposVariant.obj
 0001:00002800       ??0_ATL_COM_MODULE70@ATL@@QAE@XZ 10003800 f i OposVariant.obj
 0001:00002830       ??0_ATL_WIN_MODULE70@ATL@@QAE@XZ 10003830 f i OposVariant.obj
 0001:00002870       ??1?$CHeapPtr@_WVCCRTAllocator@ATL@@@ATL@@QAE@XZ 10003870 f i OposVariant.obj
 0001:000028a0       ??1?$CHeapPtrBase@_WVCCRTAllocator@ATL@@@ATL@@QAE@XZ 100038a0 f i OposVariant.obj
 0001:000028d0       ??1?$CSimpleArray@GV?$CSimpleArrayEqualHelper@G@ATL@@@ATL@@QAE@XZ 100038d0 f i OposVariant.obj
 0001:00002900       ??1CAtlComModule@ATL@@QAE@XZ 10003900 f i OposVariant.obj
 0001:00002930       ??1CAtlWinModule@ATL@@QAE@XZ 10003930 f i OposVariant.obj
 0001:00002960       ??1CComBSTR@ATL@@QAE@XZ    10003960 f i OposVariant.obj
 0001:000029a0       ??1CComCriticalSection@ATL@@QAE@XZ 100039a0 f i OposVariant.obj
 0001:000029c0       ??1CPreserveLastError@ATL@@QAE@XZ 100039c0 f i OposVariant.obj
 0001:00002a00       ??1_ATL_COM_MODULE70@ATL@@QAE@XZ 10003a00 f i OposVariant.obj
 0001:00002a30       ??1_ATL_WIN_MODULE70@ATL@@QAE@XZ 10003a30 f i OposVariant.obj
 0001:00002a70       ??1stringdispid@CComTypeInfoHolder@ATL@@QAE@XZ 10003a70 f i OposVariant.obj
 0001:00002aa0       ??A?$CSimpleArray@GV?$CSimpleArrayEqualHelper@G@ATL@@@ATL@@QAEAAGH@Z 10003aa0 f i OposVariant.obj
 0001:00002b20       ??B?$CHeapPtrBase@_WVCCRTAllocator@ATL@@@ATL@@QBEPA_WXZ 10003b20 f i OposVariant.obj
 0001:00002b40       ??B?$CTraceCategoryEx@$01$0A@@ATL@@QAEIXZ 10003b40 f i OposVariant.obj
 0001:00002b60       ??B?$CTraceCategoryEx@$0CA@$0A@@ATL@@QAEIXZ 10003b60 f i OposVariant.obj
 0001:00002b80       ??RCTraceFileAndLineInfo@ATL@@QBAXHIPB_WZZ 10003b80 f i OposVariant.obj
 0001:00002c20       ??_Estringdispid@CComTypeInfoHolder@ATL@@QAEPAXI@Z 10003c20 f i OposVariant.obj
 0001:00002cb0       ??_H@YGXPAXIIP6EPAX0@Z@Z   10003cb0 f i OposVariant.obj
 0001:00002d20       ??_I@YGXPAXIIP6EX0@Z@Z     10003d20 f i OposVariant.obj
 0001:00002da0       ?Allocate@?$CHeapPtr@_WVCCRTAllocator@ATL@@@ATL@@QAE_NI@Z 10003da0 f i OposVariant.obj
 0001:00002e30       ?Allocate@CCRTAllocator@ATL@@SAPAXI@Z 10003e30 f i OposVariant.obj
 0001:00002e50       ?AllocateBytes@?$CHeapPtrBase@_WVCCRTAllocator@ATL@@@ATL@@QAE_NI@Z 10003e50 f i OposVariant.obj
 0001:00002ec0       ?AtlWinModuleInit@ATL@@YGJPAU_ATL_WIN_MODULE70@1@@Z 10003ec0 f i OposVariant.obj
 0001:00002f90       ?AtlWinModuleTerm@ATL@@YGJPAU_ATL_WIN_MODULE70@1@PAUHINSTANCE__@@@Z 10003f90 f i OposVariant.obj
 0001:00003050       ?Clear@OposVariant@@QAEJXZ 10004050 f i OposVariant.obj
 0001:00003090       ?Free@?$CHeapPtrBase@_WVCCRTAllocator@ATL@@@ATL@@QAEXXZ 10004090 f i OposVariant.obj
 0001:000030d0       ?Free@CCRTAllocator@ATL@@SAXPAX@Z 100040d0 f i OposVariant.obj
 0001:000030f0       ?GetCategoryName@CTrace@ATL@@CAPA_WI@Z 100040f0 f i OposVariant.obj
 0001:00003140       ?GetModuleInstance@CAtlBaseModule@ATL@@QAEPAUHINSTANCE__@@XZ 10004140 f i OposVariant.obj
 0001:00003160       ?GetSize@?$CSimpleArray@GV?$CSimpleArrayEqualHelper@G@ATL@@@ATL@@QBEHXZ 10004160 f i OposVariant.obj
 0001:00003180       ?Init@CComCriticalSection@ATL@@QAEJXZ 10004180 f i OposVariant.obj
 0001:000031e0       ?RegisterCategory@CTrace@ATL@@SAXPB_WI@Z 100041e0 f i OposVariant.obj
 0001:00003270       ?RemoveAll@?$CSimpleArray@GV?$CSimpleArrayEqualHelper@G@ATL@@@ATL@@QAEXXZ 10004270 f i OposVariant.obj
 0001:000032f0       ?Term@CAtlComModule@ATL@@QAEXXZ 100042f0 f i OposVariant.obj
 0001:000033b0       ?Term@CAtlWinModule@ATL@@QAEXXZ 100043b0 f i OposVariant.obj
 0001:000033e0       ?Term@CComCriticalSection@ATL@@QAEJXZ 100043e0 f i OposVariant.obj
 0001:00003420       ?TraceV@CTrace@ATL@@CAXPBDHIIPB_W@Z 10004420 f i OposVariant.obj
 0001:000036a0       ?TraceV@CTrace@ATL@@SAXPBDHIIPB_WPAD@Z 100046a0 f i OposVariant.obj
 0001:000037e0       ?_AtlInitializeCriticalSectionEx@ATL@@YAHPAU_RTL_CRITICAL_SECTION@@KK@Z 100047e0 f i OposVariant.obj
 0001:00003810       ?_AtlRaiseException@ATL@@YAXKK@Z 10004810 f i OposVariant.obj
 0001:00003840       _HRESULT_FROM_WIN32        10004840 f i OposVariant.obj
 0001:00003880       __vswprintf_s_l            10004880 f i OposVariant.obj
 0001:000038f0       _swprintf_s                100048f0 f i OposVariant.obj
 0001:00003950       ?ObjectMain@CComObjectRootBase@ATL@@SGX_N@Z 10004950 f i FiscalPrinter.obj
 0001:00003960       ?GetCategoryMap@CComObjectRootBase@ATL@@SAPBU_ATL_CATMAP_ENTRY@2@XZ 10004960 f i FiscalPrinter.obj
 0001:00003970       ?GetObjectDescription@?$CComCoClass@VCOPOSFiscalPrinter@@$1?CLSID_OPOSFiscalPrinter@@3U_GUID@@B@ATL@@SGPB_WXZ 10004970 f i FiscalPrinter.obj
 0001:00003980       ?UpdateRegistry@COPOSFiscalPrinter@@SGJH@Z 10004980 f i FiscalPrinter.obj
 0001:000039a0       ?CreateInstance@?$CComCreator@V?$CComObjectCached@VCComClassFactory@ATL@@@ATL@@@ATL@@SGJPAXABU_GUID@@PAPAX@Z 100049a0 f i FiscalPrinter.obj
 0001:00003b20       ?CreateInstance@?$CComCreator2@V?$CComCreator@V?$CComObject@VCOPOSFiscalPrinter@@@ATL@@@ATL@@V?$CComCreator@V?$CComAggObject@VCOPOSFiscalPrinter@@@ATL@@@2@@ATL@@SGJPAXABU_GUID@@PAPAX@Z 10004b20 f i FiscalPrinter.obj
 0001:00003cd0       _DllGetClassObject@12      10004cd0 f   FiscalPrinter.obj
 0001:00003d00       _DllCanUnloadNow@0         10004d00 f   FiscalPrinter.obj
 0001:00003d40       _DllRegisterServer@0       10004d40 f   FiscalPrinter.obj
 0001:00003d60       _DllUnregisterServer@0     10004d60 f   FiscalPrinter.obj
 0001:00003ef0       _DllMain@12                10004ef0 f   FiscalPrinter.obj
 0001:00003f50       ??$?2G@Wrapper@?$CSimpleArray@GV?$CSimpleArrayEqualHelper@G@ATL@@@ATL@@SAPAXIPAG@Z 10004f50 f i FiscalPrinter.obj
 0001:00003f60       ??$?2PA_W@?$Wrapper@PA_W@?$CSimpleMap@PA_WPA_WVCExpansionVectorEqualHelper@ATL@@@ATL@@SAPAXIPAPA_W@Z 10004f60 f i FiscalPrinter.obj
 0001:00003f70       ??$?4UITypeInfo2@@@?$CComPtr@UITypeInfo@@@ATL@@QAEPAUITypeInfo@@ABV?$CComPtr@UITypeInfo2@@@1@@Z 10004f70 f i FiscalPrinter.obj
 0001:00003fd0       ??$AtlAdd@K@ATL@@YAJPAKKK@Z 10004fd0 f i FiscalPrinter.obj
 0001:00004010       ??$AtlAdd@_K@ATL@@YAJPA_K_K1@Z 10005010 f i FiscalPrinter.obj
 0001:00004080       ??$AtlAddThrow@K@ATL@@YAKKK@Z 10005080 f i FiscalPrinter.obj
 0001:00004100       ??$AtlModuleRegisterWndClassInfoT@VAtlModuleRegisterWndClassInfoParamW@ATL@@@ATL@@YAGPAU_ATL_BASE_MODULE70@0@PAU_ATL_WIN_MODULE70@0@PAU_ATL_WNDCLASSINFOW@0@PAP6GJPAUHWND__@@IIJ@ZVAtlModuleRegisterWndClassInfoParamW@0@@Z 10005100 f i FiscalPrinter.obj
 0001:00004510       ??$AtlMultiply@H@ATL@@YAJPAHHH@Z 10005510 f i FiscalPrinter.obj
 0001:00004590       ??$AtlMultiply@K@ATL@@YAJPAKKK@Z 10005590 f i FiscalPrinter.obj
 0001:000045f0       ??$AtlMultiplyThrow@I@ATL@@YAIII@Z 100055f0 f i FiscalPrinter.obj
 0001:00004670       ??$QueryInterface@UIPersistStream@@@IUnknown@@QAGJPAPAUIPersistStream@@@Z 10005670 f i FiscalPrinter.obj
 0001:000046a0       ??$QueryInterface@UITypeInfo2@@@IUnknown@@QAGJPAPAUITypeInfo2@@@Z 100056a0 f i FiscalPrinter.obj
 0001:000046d0       ??0?$CAtlModuleT@VCComModule@ATL@@@ATL@@QAE@XZ 100056d0 f i FiscalPrinter.obj
 0001:00004700       ??0?$CAtlSafeAllocBufferManager@VCCRTAllocator@ATL@@@_ATL_SAFE_ALLOCA_IMPL@ATL@@QAE@XZ 10005700 f i FiscalPrinter.obj
 0001:00004720       ??0?$CAutoVectorPtr@_W@ATL@@QAE@XZ 10005720 f i FiscalPrinter.obj
 0001:00004740       ??0?$CComAggObject@VCOPOSFiscalPrinter@@@ATL@@QAE@PAX@Z 10005740 f i FiscalPrinter.obj
 0001:000047b0       ??0?$CComContainedObject@VCOPOSFiscalPrinter@@@ATL@@QAE@PAX@Z 100057b0 f i FiscalPrinter.obj
 0001:000048c0       ??0?$CComCritSecLock@VCComCriticalSection@ATL@@@ATL@@QAE@AAVCComCriticalSection@1@_N@Z 100058c0 f i FiscalPrinter.obj
 0001:00004920       ??0?$CComEnum@UIEnumConnectionPoints@@$1?_GUID_b196b285_bab4_101a_b69c_00aa00341d07@@3U__s_GUID@@BPAUIConnectionPoint@@V?$_CopyInterface@UIConnectionPoint@@@ATL@@VCComSingleThreadModel@6@@ATL@@QAE@XZ 10005920 f i FiscalPrinter.obj
 0001:00004960       ??0?$CComEnum@UIEnumConnections@@$1?_GUID_b196b287_bab4_101a_b69c_00aa00341d07@@3U__s_GUID@@BUtagCONNECTDATA@@V?$_Copy@UtagCONNECTDATA@@@ATL@@VCComSingleThreadModel@6@@ATL@@QAE@XZ 10005960 f i FiscalPrinter.obj
 0001:000049a0       ??0?$CComEnumImpl@UIEnumConnectionPoints@@$1?_GUID_b196b285_bab4_101a_b69c_00aa00341d07@@3U__s_GUID@@BPAUIConnectionPoint@@V?$_CopyInterface@UIConnectionPoint@@@ATL@@@ATL@@QAE@XZ 100059a0 f i FiscalPrinter.obj
 0001:00004a00       ??0?$CComEnumImpl@UIEnumConnections@@$1?_GUID_b196b287_bab4_101a_b69c_00aa00341d07@@3U__s_GUID@@BUtagCONNECTDATA@@V?$_Copy@UtagCONNECTDATA@@@ATL@@@ATL@@QAE@XZ 10005a00 f i FiscalPrinter.obj
 0001:00004a60       ??0?$CComObject@V?$CComEnum@UIEnumConnectionPoints@@$1?_GUID_b196b285_bab4_101a_b69c_00aa00341d07@@3U__s_GUID@@BPAUIConnectionPoint@@V?$_CopyInterface@UIConnectionPoint@@@ATL@@VCComSingleThreadModel@6@@ATL@@@ATL@@QAE@PAX@Z 10005a60 f i FiscalPrinter.obj
 0001:00004ab0       ??0?$CComObject@V?$CComEnum@UIEnumConnections@@$1?_GUID_b196b287_bab4_101a_b69c_00aa00341d07@@3U__s_GUID@@BUtagCONNECTDATA@@V?$_Copy@UtagCONNECTDATA@@@ATL@@VCComSingleThreadModel@6@@ATL@@@ATL@@QAE@PAX@Z 10005ab0 f i FiscalPrinter.obj
 0001:00004b00       ??0?$CComObject@VCOPOSFiscalPrinter@@@ATL@@QAE@PAX@Z 10005b00 f i FiscalPrinter.obj
 0001:00004c20       ??0?$CComObjectCached@VCComClassFactory@ATL@@@ATL@@QAE@PAX@Z 10005c20 f i FiscalPrinter.obj
 0001:00004c60       ??0?$CComObjectRootEx@VCComMultiThreadModel@ATL@@@ATL@@QAE@XZ 10005c60 f i FiscalPrinter.obj
 0001:00004ca0       ??0?$CComObjectRootEx@VCComSingleThreadModel@ATL@@@ATL@@QAE@XZ 10005ca0 f i FiscalPrinter.obj
 0001:00004cd0       ??0?$CComPtr@UIAdviseSink@@@ATL@@QAE@PAUIAdviseSink@@@Z 10005cd0 f i FiscalPrinter.obj
 0001:00004d00       ??0?$CComPtr@UICatRegister@@@ATL@@QAE@XZ 10005d00 f i FiscalPrinter.obj
 0001:00004d30       ??0?$CComPtr@UIConnectionPoint@@@ATL@@QAE@XZ 10005d30 f i FiscalPrinter.obj
 0001:00004d60       ??0?$CComPtr@UIConnectionPointContainer@@@ATL@@QAE@XZ 10005d60 f i FiscalPrinter.obj
 0001:00004d90       ??0?$CComPtr@UIDataObject@@@ATL@@QAE@XZ 10005d90 f i FiscalPrinter.obj
 0001:00004dc0       ??0?$CComPtr@UIDispatch@@@ATL@@QAE@XZ 10005dc0 f i FiscalPrinter.obj
 0001:00004df0       ??0?$CComPtr@UIOleClientSite@@@ATL@@QAE@PAUIOleClientSite@@@Z 10005df0 f i FiscalPrinter.obj
 0001:00004e20       ??0?$CComPtr@UIOleControlSite@@@ATL@@QAE@XZ 10005e20 f i FiscalPrinter.obj
 0001:00004e50       ??0?$CComPtr@UIOleInPlaceActiveObject@@@ATL@@QAE@XZ 10005e50 f i FiscalPrinter.obj
 0001:00004e80       ??0?$CComPtr@UIOleInPlaceFrame@@@ATL@@QAE@XZ 10005e80 f i FiscalPrinter.obj
 0001:00004eb0       ??0?$CComPtr@UIOleInPlaceObject@@@ATL@@QAE@XZ 10005eb0 f i FiscalPrinter.obj
 0001:00004ee0       ??0?$CComPtr@UIOleInPlaceUIWindow@@@ATL@@QAE@XZ 10005ee0 f i FiscalPrinter.obj
 0001:00004f10       ??0?$CComPtr@UIOleObject@@@ATL@@QAE@XZ 10005f10 f i FiscalPrinter.obj
 0001:00004f40       ??0?$CComPtr@UIPersistStream@@@ATL@@QAE@XZ 10005f40 f i FiscalPrinter.obj
 0001:00004f70       ??0?$CComPtr@UIPersistStreamInit@@@ATL@@QAE@XZ 10005f70 f i FiscalPrinter.obj
 0001:00004fa0       ??0?$CComPtr@UIPointerInactive@@@ATL@@QAE@XZ 10005fa0 f i FiscalPrinter.obj
 0001:00004fd0       ??0?$CComPtr@UIProvideClassInfo2@@@ATL@@QAE@XZ 10005fd0 f i FiscalPrinter.obj
 0001:00005000       ??0?$CComPtr@UISpecifyPropertyPages@@@ATL@@QAE@XZ 10006000 f i FiscalPrinter.obj
 0001:00005030       ??0?$CComPtr@UIStream@@@ATL@@QAE@XZ 10006030 f i FiscalPrinter.obj
 0001:00005060       ??0?$CComPtr@UITypeInfo2@@@ATL@@QAE@XZ 10006060 f i FiscalPrinter.obj
 0001:00005090       ??0?$CComPtr@UITypeInfo@@@ATL@@QAE@ABV01@@Z 10006090 f i FiscalPrinter.obj
 0001:000050c0       ??0?$CComPtr@UITypeInfo@@@ATL@@QAE@XZ 100060c0 f i FiscalPrinter.obj
 0001:000050f0       ??0?$CComPtr@UITypeLib@@@ATL@@QAE@XZ 100060f0 f i FiscalPrinter.obj
 0001:00005120       ??0?$CComPtr@UIUnknown@@@ATL@@QAE@ABV01@@Z 10006120 f i FiscalPrinter.obj
 0001:00005150       ??0?$CComPtr@UIUnknown@@@ATL@@QAE@PAUIUnknown@@@Z 10006150 f i FiscalPrinter.obj
 0001:00005180       ??0?$CComPtr@UIUnknown@@@ATL@@QAE@XZ 10006180 f i FiscalPrinter.obj
 0001:000051b0       ??0?$CComPtr@UIViewObjectEx@@@ATL@@QAE@XZ 100061b0 f i FiscalPrinter.obj
 0001:000051e0       ??0?$CComPtrBase@UIAdviseSink@@@ATL@@IAE@PAUIAdviseSink@@@Z 100061e0 f i FiscalPrinter.obj
 0001:00005230       ??0?$CComPtrBase@UICatRegister@@@ATL@@IAE@XZ 10006230 f i FiscalPrinter.obj
 0001:00005250       ??0?$CComPtrBase@UIConnectionPoint@@@ATL@@IAE@XZ 10006250 f i FiscalPrinter.obj
 0001:00005270       ??0?$CComPtrBase@UIConnectionPointContainer@@@ATL@@IAE@XZ 10006270 f i FiscalPrinter.obj
 0001:00005290       ??0?$CComPtrBase@UIDataObject@@@ATL@@IAE@XZ 10006290 f i FiscalPrinter.obj
 0001:000052b0       ??0?$CComPtrBase@UIDispatch@@@ATL@@IAE@XZ 100062b0 f i FiscalPrinter.obj
 0001:000052d0       ??0?$CComPtrBase@UIOleClientSite@@@ATL@@IAE@PAUIOleClientSite@@@Z 100062d0 f i FiscalPrinter.obj
 0001:00005320       ??0?$CComPtrBase@UIOleControlSite@@@ATL@@IAE@XZ 10006320 f i FiscalPrinter.obj
 0001:00005340       ??0?$CComPtrBase@UIOleInPlaceActiveObject@@@ATL@@IAE@XZ 10006340 f i FiscalPrinter.obj
 0001:00005360       ??0?$CComPtrBase@UIOleInPlaceFrame@@@ATL@@IAE@XZ 10006360 f i FiscalPrinter.obj
 0001:00005380       ??0?$CComPtrBase@UIOleInPlaceObject@@@ATL@@IAE@XZ 10006380 f i FiscalPrinter.obj
 0001:000053a0       ??0?$CComPtrBase@UIOleInPlaceUIWindow@@@ATL@@IAE@XZ 100063a0 f i FiscalPrinter.obj
 0001:000053c0       ??0?$CComPtrBase@UIOleObject@@@ATL@@IAE@XZ 100063c0 f i FiscalPrinter.obj
 0001:000053e0       ??0?$CComPtrBase@UIPersistStream@@@ATL@@IAE@XZ 100063e0 f i FiscalPrinter.obj
 0001:00005400       ??0?$CComPtrBase@UIPersistStreamInit@@@ATL@@IAE@XZ 10006400 f i FiscalPrinter.obj
 0001:00005420       ??0?$CComPtrBase@UIPointerInactive@@@ATL@@IAE@XZ 10006420 f i FiscalPrinter.obj
 0001:00005440       ??0?$CComPtrBase@UIProvideClassInfo2@@@ATL@@IAE@XZ 10006440 f i FiscalPrinter.obj
 0001:00005460       ??0?$CComPtrBase@UISpecifyPropertyPages@@@ATL@@IAE@XZ 10006460 f i FiscalPrinter.obj
 0001:00005480       ??0?$CComPtrBase@UIStream@@@ATL@@IAE@XZ 10006480 f i FiscalPrinter.obj
 0001:000054a0       ??0?$CComPtrBase@UITypeInfo2@@@ATL@@IAE@XZ 100064a0 f i FiscalPrinter.obj
 0001:000054c0       ??0?$CComPtrBase@UITypeInfo@@@ATL@@IAE@PAUITypeInfo@@@Z 100064c0 f i FiscalPrinter.obj
 0001:00005510       ??0?$CComPtrBase@UITypeInfo@@@ATL@@IAE@XZ 10006510 f i FiscalPrinter.obj
 0001:00005530       ??0?$CComPtrBase@UITypeLib@@@ATL@@IAE@XZ 10006530 f i FiscalPrinter.obj
 0001:00005550       ??0?$CComPtrBase@UIUnknown@@@ATL@@IAE@PAUIUnknown@@@Z 10006550 f i FiscalPrinter.obj
 0001:000055a0       ??0?$CComPtrBase@UIUnknown@@@ATL@@IAE@XZ 100065a0 f i FiscalPrinter.obj
 0001:000055c0       ??0?$CComPtrBase@UIViewObjectEx@@@ATL@@IAE@XZ 100065c0 f i FiscalPrinter.obj
 0001:000055e0       ??0?$CComQIPtr@UIOleControlSite@@$1?_GUID_b196b289_bab4_101a_b69c_00aa00341d07@@3U__s_GUID@@B@ATL@@QAE@PAUIUnknown@@@Z 100065e0 f i FiscalPrinter.obj
 0001:00005640       ??0?$CComQIPtr@UIOleObject@@$1?_GUID_00000112_0000_0000_c000_000000000046@@3U__s_GUID@@B@ATL@@QAE@XZ 10006640 f i FiscalPrinter.obj
 0001:00005670       ??0?$CComQIPtr@UISpecifyPropertyPages@@$1?_GUID_b196b28b_bab4_101a_b69c_00aa00341d07@@3U__s_GUID@@B@ATL@@QAE@XZ 10006670 f i FiscalPrinter.obj
 0001:000056a0       ??0?$CSimpleMap@PA_WPA_WVCExpansionVectorEqualHelper@ATL@@@ATL@@QAE@XZ 100066a0 f i FiscalPrinter.obj
 0001:000056e0       ??0?$CTempBuffer@E$0BAA@VCCRTAllocator@ATL@@@ATL@@QAE@XZ 100066e0 f i FiscalPrinter.obj
 0001:00005700       ??0?$CTempBuffer@_W$0BAA@VCCRTAllocator@ATL@@@ATL@@QAE@XZ 10006700 f i FiscalPrinter.obj
 0001:00005720       ??0?$CTempBuffer@_W$0EAA@VCCRTAllocator@ATL@@@ATL@@QAE@XZ 10006720 f i FiscalPrinter.obj
 0001:00005740       ??0?$Wrapper@PA_W@?$CSimpleMap@PA_WPA_WVCExpansionVectorEqualHelper@ATL@@@ATL@@QAE@ABQA_W@Z 10006740 f i FiscalPrinter.obj
 0001:00005770       ??0CAtlModule@ATL@@QAE@XZ  10006770 f i FiscalPrinter.obj
 0001:00005890       ??0CComAutoDeleteCriticalSection@ATL@@QAE@XZ 10006890 f i FiscalPrinter.obj
 0001:000058c0       ??0CComBSTR@ATL@@QAE@XZ    100068c0 f i FiscalPrinter.obj
 0001:000058e0       ??0CComClassFactory@ATL@@QAE@XZ 100068e0 f i FiscalPrinter.obj
 0001:00005920       ??0CComModule@ATL@@QAE@XZ  10006920 f i FiscalPrinter.obj
 0001:00005990       ??0CComObjectRootBase@ATL@@QAE@XZ 10006990 f i FiscalPrinter.obj
 0001:000059b0       ??0CComSafeDeleteCriticalSection@ATL@@QAE@XZ 100069b0 f i FiscalPrinter.obj
 0001:000059e0       ??0CComVariant@ATL@@QAE@XZ 100069e0 f i FiscalPrinter.obj
 0001:00005a30       ??0CExpansionVector@ATL@@QAE@XZ 10006a30 f i FiscalPrinter.obj
 0001:00005a60       ??0CParseBuffer@CRegParser@ATL@@QAE@H@Z 10006a60 f i FiscalPrinter.obj
 0001:00005ad0       ??0CRegKey@ATL@@QAE@PAUHKEY__@@@Z 10006ad0 f i FiscalPrinter.obj
 0001:00005b10       ??0CRegKey@ATL@@QAE@PAVCAtlTransactionManager@1@@Z 10006b10 f i FiscalPrinter.obj
 0001:00005b50       ??0CRegObject@ATL@@QAE@XZ  10006b50 f i FiscalPrinter.obj
 0001:00005b90       ??0CRegParser@ATL@@QAE@PAVCRegObject@1@@Z 10006b90 f i FiscalPrinter.obj
 0001:00005bc0       ??0IClassFactory@@QAE@XZ   10006bc0 f i FiscalPrinter.obj
 0001:00005bf0       ??0IEnumConnectionPoints@@QAE@XZ 10006bf0 f i FiscalPrinter.obj
 0001:00005c20       ??0IEnumConnections@@QAE@XZ 10006c20 f i FiscalPrinter.obj
 0001:00005c50       ??0IRegistrarBase@@QAE@XZ  10006c50 f i FiscalPrinter.obj
 0001:00005c80       ??0IUnknown@@QAE@XZ        10006c80 f i FiscalPrinter.obj
 0001:00005ca0       ??0ModuleLockHelper@ATL@@QAE@XZ 10006ca0 f i FiscalPrinter.obj
 0001:00005ce0       ??0OposVariant@@QAE@XZ     10006ce0 f i FiscalPrinter.obj
 0001:00005d10       ??0Wrapper@?$CSimpleArray@GV?$CSimpleArrayEqualHelper@G@ATL@@@ATL@@QAE@ABG@Z 10006d10 f i FiscalPrinter.obj
 0001:00005d40       ??0_ATL_MODULE70@ATL@@QAE@XZ 10006d40 f i FiscalPrinter.obj
 0001:00005d70       ??0_ATL_MSG@ATL@@QAE@PAUHWND__@@IIJH@Z 10006d70 f i FiscalPrinter.obj
 0001:00005de0       ??0_U_MENUorID@ATL@@QAE@I@Z 10006de0 f i FiscalPrinter.obj
 0001:00005e00       ??0_U_RECT@ATL@@QAE@AAUtagRECT@@@Z 10006e00 f i FiscalPrinter.obj
 0001:00005e20       ??0stringdispid@CComTypeInfoHolder@ATL@@QAE@XZ 10006e20 f i FiscalPrinter.obj
 0001:00005e60       ??1?$CAtlModuleT@VCComModule@ATL@@@ATL@@UAE@XZ 10006e60 f i FiscalPrinter.obj
 0001:00005e90       ??1?$CAtlSafeAllocBufferManager@VCCRTAllocator@ATL@@@_ATL_SAFE_ALLOCA_IMPL@ATL@@QAE@XZ 10006e90 f i FiscalPrinter.obj
 0001:00005ee0       ??1?$CAutoVectorPtr@_W@ATL@@QAE@XZ 10006ee0 f i FiscalPrinter.obj
 0001:00005f10       ??1?$CComAggObject@VCOPOSFiscalPrinter@@@ATL@@UAE@XZ 10006f10 f i FiscalPrinter.obj
 0001:00005f80       ??1?$CComContainedObject@VCOPOSFiscalPrinter@@@ATL@@UAE@XZ 10006f80 f i FiscalPrinter.obj
 0001:00005fb0       ??1?$CComCritSecLock@VCComCriticalSection@ATL@@@ATL@@QAE@XZ 10006fb0 f i FiscalPrinter.obj
 0001:00005fe0       ??1?$CComEnum@UIEnumConnectionPoints@@$1?_GUID_b196b285_bab4_101a_b69c_00aa00341d07@@3U__s_GUID@@BPAUIConnectionPoint@@V?$_CopyInterface@UIConnectionPoint@@@ATL@@VCComSingleThreadModel@6@@ATL@@UAE@XZ 10006fe0 f i FiscalPrinter.obj
 0001:00006010       ??1?$CComEnum@UIEnumConnections@@$1?_GUID_b196b287_bab4_101a_b69c_00aa00341d07@@3U__s_GUID@@BUtagCONNECTDATA@@V?$_Copy@UtagCONNECTDATA@@@ATL@@VCComSingleThreadModel@6@@ATL@@UAE@XZ 10007010 f i FiscalPrinter.obj
 0001:00006040       ??1?$CComEnumImpl@UIEnumConnectionPoints@@$1?_GUID_b196b285_bab4_101a_b69c_00aa00341d07@@3U__s_GUID@@BPAUIConnectionPoint@@V?$_CopyInterface@UIConnectionPoint@@@ATL@@@ATL@@UAE@XZ 10007040 f i FiscalPrinter.obj
 0001:000060d0       ??1?$CComEnumImpl@UIEnumConnections@@$1?_GUID_b196b287_bab4_101a_b69c_00aa00341d07@@3U__s_GUID@@BUtagCONNECTDATA@@V?$_Copy@UtagCONNECTDATA@@@ATL@@@ATL@@UAE@XZ 100070d0 f i FiscalPrinter.obj
 0001:00006160       ??1?$CComObject@V?$CComEnum@UIEnumConnectionPoints@@$1?_GUID_b196b285_bab4_101a_b69c_00aa00341d07@@3U__s_GUID@@BPAUIConnectionPoint@@V?$_CopyInterface@UIConnectionPoint@@@ATL@@VCComSingleThreadModel@6@@ATL@@@ATL@@UAE@XZ 10007160 f i FiscalPrinter.obj
 0001:000061c0       ??1?$CComObject@V?$CComEnum@UIEnumConnections@@$1?_GUID_b196b287_bab4_101a_b69c_00aa00341d07@@3U__s_GUID@@BUtagCONNECTDATA@@V?$_Copy@UtagCONNECTDATA@@@ATL@@VCComSingleThreadModel@6@@ATL@@@ATL@@UAE@XZ 100071c0 f i FiscalPrinter.obj
 0001:00006220       ??1?$CComObject@VCOPOSFiscalPrinter@@@ATL@@UAE@XZ 10007220 f i FiscalPrinter.obj
 0001:00006360       ??1?$CComObjectCached@VCComClassFactory@ATL@@@ATL@@UAE@XZ 10007360 f i FiscalPrinter.obj
 0001:000063b0       ??1?$CComObjectRootEx@VCComMultiThreadModel@ATL@@@ATL@@QAE@XZ 100073b0 f i FiscalPrinter.obj
 0001:000063e0       ??1?$CComObjectRootEx@VCComSingleThreadModel@ATL@@@ATL@@QAE@XZ 100073e0 f i FiscalPrinter.obj
 0001:00006410       ??1?$CComPtr@UIAdviseSink@@@ATL@@QAE@XZ 10007410 f i FiscalPrinter.obj
 0001:00006440       ??1?$CComPtr@UICatRegister@@@ATL@@QAE@XZ 10007440 f i FiscalPrinter.obj
 0001:00006470       ??1?$CComPtr@UIConnectionPoint@@@ATL@@QAE@XZ 10007470 f i FiscalPrinter.obj
 0001:000064a0       ??1?$CComPtr@UIConnectionPointContainer@@@ATL@@QAE@XZ 100074a0 f i FiscalPrinter.obj
 0001:000064d0       ??1?$CComPtr@UIDataObject@@@ATL@@QAE@XZ 100074d0 f i FiscalPrinter.obj
 0001:00006500       ??1?$CComPtr@UIDispatch@@@ATL@@QAE@XZ 10007500 f i FiscalPrinter.obj
 0001:00006530       ??1?$CComPtr@UIOleClientSite@@@ATL@@QAE@XZ 10007530 f i FiscalPrinter.obj
 0001:00006560       ??1?$CComPtr@UIOleControlSite@@@ATL@@QAE@XZ 10007560 f i FiscalPrinter.obj
 0001:00006590       ??1?$CComPtr@UIOleInPlaceActiveObject@@@ATL@@QAE@XZ 10007590 f i FiscalPrinter.obj
 0001:000065c0       ??1?$CComPtr@UIOleInPlaceFrame@@@ATL@@QAE@XZ 100075c0 f i FiscalPrinter.obj
 0001:000065f0       ??1?$CComPtr@UIOleInPlaceObject@@@ATL@@QAE@XZ 100075f0 f i FiscalPrinter.obj
 0001:00006620       ??1?$CComPtr@UIOleInPlaceUIWindow@@@ATL@@QAE@XZ 10007620 f i FiscalPrinter.obj
 0001:00006650       ??1?$CComPtr@UIOleObject@@@ATL@@QAE@XZ 10007650 f i FiscalPrinter.obj
 0001:00006680       ??1?$CComPtr@UIPersistStream@@@ATL@@QAE@XZ 10007680 f i FiscalPrinter.obj
 0001:000066b0       ??1?$CComPtr@UIPersistStreamInit@@@ATL@@QAE@XZ 100076b0 f i FiscalPrinter.obj
 0001:000066e0       ??1?$CComPtr@UIPointerInactive@@@ATL@@QAE@XZ 100076e0 f i FiscalPrinter.obj
 0001:00006710       ??1?$CComPtr@UIProvideClassInfo2@@@ATL@@QAE@XZ 10007710 f i FiscalPrinter.obj
 0001:00006740       ??1?$CComPtr@UISpecifyPropertyPages@@@ATL@@QAE@XZ 10007740 f i FiscalPrinter.obj
 0001:00006770       ??1?$CComPtr@UIStream@@@ATL@@QAE@XZ 10007770 f i FiscalPrinter.obj
 0001:000067a0       ??1?$CComPtr@UITypeInfo2@@@ATL@@QAE@XZ 100077a0 f i FiscalPrinter.obj
 0001:000067d0       ??1?$CComPtr@UITypeInfo@@@ATL@@QAE@XZ 100077d0 f i FiscalPrinter.obj
 0001:00006800       ??1?$CComPtr@UITypeLib@@@ATL@@QAE@XZ 10007800 f i FiscalPrinter.obj
 0001:00006830       ??1?$CComPtr@UIUnknown@@@ATL@@QAE@XZ 10007830 f i FiscalPrinter.obj
 0001:00006860       ??1?$CComPtr@UIViewObjectEx@@@ATL@@QAE@XZ 10007860 f i FiscalPrinter.obj
 0001:00006890       ??1?$CComPtrBase@UIAdviseSink@@@ATL@@QAE@XZ 10007890 f i FiscalPrinter.obj
 0001:000068e0       ??1?$CComPtrBase@UICatRegister@@@ATL@@QAE@XZ 100078e0 f i FiscalPrinter.obj
 0001:00006930       ??1?$CComPtrBase@UIConnectionPoint@@@ATL@@QAE@XZ 10007930 f i FiscalPrinter.obj
 0001:00006980       ??1?$CComPtrBase@UIConnectionPointContainer@@@ATL@@QAE@XZ 10007980 f i FiscalPrinter.obj
 0001:000069d0       ??1?$CComPtrBase@UIDataObject@@@ATL@@QAE@XZ 100079d0 f i FiscalPrinter.obj
 0001:00006a20       ??1?$CComPtrBase@UIDispatch@@@ATL@@QAE@XZ 10007a20 f i FiscalPrinter.obj
 0001:00006a70       ??1?$CComPtrBase@UIOleClientSite@@@ATL@@QAE@XZ 10007a70 f i FiscalPrinter.obj
 0001:00006ac0       ??1?$CComPtrBase@UIOleControlSite@@@ATL@@QAE@XZ 10007ac0 f i FiscalPrinter.obj
 0001:00006b10       ??1?$CComPtrBase@UIOleInPlaceActiveObject@@@ATL@@QAE@XZ 10007b10 f i FiscalPrinter.obj
 0001:00006b60       ??1?$CComPtrBase@UIOleInPlaceFrame@@@ATL@@QAE@XZ 10007b60 f i FiscalPrinter.obj
 0001:00006bb0       ??1?$CComPtrBase@UIOleInPlaceObject@@@ATL@@QAE@XZ 10007bb0 f i FiscalPrinter.obj
 0001:00006c00       ??1?$CComPtrBase@UIOleInPlaceUIWindow@@@ATL@@QAE@XZ 10007c00 f i FiscalPrinter.obj
 0001:00006c50       ??1?$CComPtrBase@UIOleObject@@@ATL@@QAE@XZ 10007c50 f i FiscalPrinter.obj
 0001:00006ca0       ??1?$CComPtrBase@UIPersistStream@@@ATL@@QAE@XZ 10007ca0 f i FiscalPrinter.obj
 0001:00006cf0       ??1?$CComPtrBase@UIPersistStreamInit@@@ATL@@QAE@XZ 10007cf0 f i FiscalPrinter.obj
 0001:00006d40       ??1?$CComPtrBase@UIPointerInactive@@@ATL@@QAE@XZ 10007d40 f i FiscalPrinter.obj
 0001:00006d90       ??1?$CComPtrBase@UIProvideClassInfo2@@@ATL@@QAE@XZ 10007d90 f i FiscalPrinter.obj
 0001:00006de0       ??1?$CComPtrBase@UISpecifyPropertyPages@@@ATL@@QAE@XZ 10007de0 f i FiscalPrinter.obj
 0001:00006e30       ??1?$CComPtrBase@UIStream@@@ATL@@QAE@XZ 10007e30 f i FiscalPrinter.obj
 0001:00006e80       ??1?$CComPtrBase@UITypeInfo2@@@ATL@@QAE@XZ 10007e80 f i FiscalPrinter.obj
 0001:00006ed0       ??1?$CComPtrBase@UITypeInfo@@@ATL@@QAE@XZ 10007ed0 f i FiscalPrinter.obj
 0001:00006f20       ??1?$CComPtrBase@UITypeLib@@@ATL@@QAE@XZ 10007f20 f i FiscalPrinter.obj
 0001:00006f70       ??1?$CComPtrBase@UIUnknown@@@ATL@@QAE@XZ 10007f70 f i FiscalPrinter.obj
 0001:00006fc0       ??1?$CComPtrBase@UIViewObjectEx@@@ATL@@QAE@XZ 10007fc0 f i FiscalPrinter.obj
 0001:00007010       ??1?$CComQIPtr@UIOleControlSite@@$1?_GUID_b196b289_bab4_101a_b69c_00aa00341d07@@3U__s_GUID@@B@ATL@@QAE@XZ 10008010 f i FiscalPrinter.obj
 0001:00007040       ??1?$CComQIPtr@UIOleObject@@$1?_GUID_00000112_0000_0000_c000_000000000046@@3U__s_GUID@@B@ATL@@QAE@XZ 10008040 f i FiscalPrinter.obj
 0001:00007070       ??1?$CComQIPtr@UISpecifyPropertyPages@@$1?_GUID_b196b28b_bab4_101a_b69c_00aa00341d07@@3U__s_GUID@@B@ATL@@QAE@XZ 10008070 f i FiscalPrinter.obj
 0001:000070a0       ??1?$CSimpleMap@PA_WPA_WVCExpansionVectorEqualHelper@ATL@@@ATL@@QAE@XZ 100080a0 f i FiscalPrinter.obj
 0001:000070d0       ??1?$CTempBuffer@E$0BAA@VCCRTAllocator@ATL@@@ATL@@QAE@XZ 100080d0 f i FiscalPrinter.obj
 0001:00007110       ??1?$CTempBuffer@_W$0BAA@VCCRTAllocator@ATL@@@ATL@@QAE@XZ 10008110 f i FiscalPrinter.obj
 0001:00007150       ??1?$CTempBuffer@_W$0EAA@VCCRTAllocator@ATL@@@ATL@@QAE@XZ 10008150 f i FiscalPrinter.obj
 0001:00007190       ??1CAtlModule@ATL@@UAE@XZ  10008190 f i FiscalPrinter.obj
 0001:000071c0       ??1CComAutoDeleteCriticalSection@ATL@@QAE@XZ 100081c0 f i FiscalPrinter.obj
 0001:000071f0       ??1CComClassFactory@ATL@@UAE@XZ 100081f0 f i FiscalPrinter.obj
 0001:00007220       ??1CComModule@ATL@@UAE@XZ  10008220 f i FiscalPrinter.obj
 0001:00007250       ??1CComObjectRootBase@ATL@@QAE@XZ 10008250 f i FiscalPrinter.obj
 0001:00007270       ??1CComSafeDeleteCriticalSection@ATL@@QAE@XZ 10008270 f i FiscalPrinter.obj
 0001:000072b0       ??1CComVariant@ATL@@QAE@XZ 100082b0 f i FiscalPrinter.obj
 0001:00007310       ??1CExpansionVector@ATL@@QAE@XZ 10008310 f i FiscalPrinter.obj
 0001:00007340       ??1CParseBuffer@CRegParser@ATL@@QAE@XZ 10008340 f i FiscalPrinter.obj
 0001:00007380       ??1CRegKey@ATL@@QAE@XZ     10008380 f i FiscalPrinter.obj
 0001:000073b0       ??1CRegObject@ATL@@UAE@XZ  100083b0 f i FiscalPrinter.obj
 0001:000073f0       ??1ModuleLockHelper@ATL@@QAE@XZ 100083f0 f i FiscalPrinter.obj
 0001:00007430       ??1OposVariant@@QAE@XZ     10008430 f i FiscalPrinter.obj
 0001:00007460       ??1_ATL_MODULE70@ATL@@QAE@XZ 10008460 f i FiscalPrinter.obj
 0001:00007490       ??4?$CComPtr@UIAdviseSink@@@ATL@@QAEPAUIAdviseSink@@PAU2@@Z 10008490 f i FiscalPrinter.obj
 0001:00007500       ??4?$CComPtr@UIOleClientSite@@@ATL@@QAEPAUIOleClientSite@@PAU2@@Z 10008500 f i FiscalPrinter.obj
 0001:00007570       ??4?$CComPtr@UIUnknown@@@ATL@@QAEPAUIUnknown@@PAU2@@Z 10008570 f i FiscalPrinter.obj
 0001:000075e0       ??4?$CComQIPtr@UIOleObject@@$1?_GUID_00000112_0000_0000_c000_000000000046@@3U__s_GUID@@B@ATL@@QAEPAUIOleObject@@PAUIUnknown@@@Z 100085e0 f i FiscalPrinter.obj
 0001:00007630       ??4?$CComQIPtr@UISpecifyPropertyPages@@$1?_GUID_b196b28b_bab4_101a_b69c_00aa00341d07@@3U__s_GUID@@B@ATL@@QAEPAUISpecifyPropertyPages@@PAUIUnknown@@@Z 10008630 f i FiscalPrinter.obj
 0001:00007680       ??7?$CComPtrBase@UIOleClientSite@@@ATL@@QBE_NXZ 10008680 f i FiscalPrinter.obj
 0001:000076c0       ??7?$CComPtrBase@UIOleInPlaceSiteWindowless@@@ATL@@QBE_NXZ 100086c0 f i FiscalPrinter.obj
 0001:00007700       ??7CComBSTR@ATL@@QBE_NXZ   10008700 f i FiscalPrinter.obj
 0001:00007740       ??8?$CComPtrBase@UIAdviseSink@@@ATL@@QBE_NPAUIAdviseSink@@@Z 10008740 f i FiscalPrinter.obj
 0001:00007780       ??8?$CComPtrBase@UIConnectionPointContainer@@@ATL@@QBE_NPAUIConnectionPointContainer@@@Z 10008780 f i FiscalPrinter.obj
 0001:000077c0       ??8?$CComPtrBase@UIDataAdviseHolder@@@ATL@@QBE_NPAUIDataAdviseHolder@@@Z 100087c0 f i FiscalPrinter.obj
 0001:00007800       ??8?$CComPtrBase@UIOleAdviseHolder@@@ATL@@QBE_NPAUIOleAdviseHolder@@@Z 10008800 f i FiscalPrinter.obj
 0001:00007840       ??8?$CComPtrBase@UIOleClientSite@@@ATL@@QBE_NPAUIOleClientSite@@@Z 10008840 f i FiscalPrinter.obj
 0001:00007880       ??8?$CComPtrBase@UIOleControlSite@@@ATL@@QBE_NPAUIOleControlSite@@@Z 10008880 f i FiscalPrinter.obj
 0001:000078c0       ??8?$CComPtrBase@UIOleInPlaceObject@@@ATL@@QBE_NPAUIOleInPlaceObject@@@Z 100088c0 f i FiscalPrinter.obj
 0001:00007900       ??8?$CComPtrBase@UIOleInPlaceSiteWindowless@@@ATL@@QBE_NPAUIOleInPlaceSiteWindowless@@@Z 10008900 f i FiscalPrinter.obj
 0001:00007940       ??8?$CComPtrBase@UIOleObject@@@ATL@@QBE_NPAUIOleObject@@@Z 10008940 f i FiscalPrinter.obj
 0001:00007980       ??8?$CComPtrBase@UIPersistStream@@@ATL@@QBE_NPAUIPersistStream@@@Z 10008980 f i FiscalPrinter.obj
 0001:000079c0       ??8?$CComPtrBase@UIPersistStreamInit@@@ATL@@QBE_NPAUIPersistStreamInit@@@Z 100089c0 f i FiscalPrinter.obj
 0001:00007a00       ??8?$CComPtrBase@UIPointerInactive@@@ATL@@QBE_NPAUIPointerInactive@@@Z 10008a00 f i FiscalPrinter.obj
 0001:00007a40       ??8?$CComPtrBase@UIUnknown@@@ATL@@QBE_NPAUIUnknown@@@Z 10008a40 f i FiscalPrinter.obj
 0001:00007a80       ??8?$CComPtrBase@UIViewObjectEx@@@ATL@@QBE_NPAUIViewObjectEx@@@Z 10008a80 f i FiscalPrinter.obj
 0001:00007ac0       ??8CComBSTR@ATL@@QBE_NH@Z  10008ac0 f i FiscalPrinter.obj
 0001:00007b20       ??9?$CComPtrBase@UIAdviseSink@@@ATL@@QBE_NPAUIAdviseSink@@@Z 10008b20 f i FiscalPrinter.obj
 0001:00007b70       ??9?$CComPtrBase@UIConnectionPointContainer@@@ATL@@QBE_NPAUIConnectionPointContainer@@@Z 10008b70 f i FiscalPrinter.obj
 0001:00007bc0       ??9?$CComPtrBase@UIDataAdviseHolder@@@ATL@@QBE_NPAUIDataAdviseHolder@@@Z 10008bc0 f i FiscalPrinter.obj
 0001:00007c10       ??9?$CComPtrBase@UIOleAdviseHolder@@@ATL@@QBE_NPAUIOleAdviseHolder@@@Z 10008c10 f i FiscalPrinter.obj
 0001:00007c60       ??9?$CComPtrBase@UIOleClientSite@@@ATL@@QBE_NPAUIOleClientSite@@@Z 10008c60 f i FiscalPrinter.obj
 0001:00007cb0       ??9?$CComPtrBase@UIOleControlSite@@@ATL@@QBE_NPAUIOleControlSite@@@Z 10008cb0 f i FiscalPrinter.obj
 0001:00007d00       ??9?$CComPtrBase@UIOleInPlaceObject@@@ATL@@QBE_NPAUIOleInPlaceObject@@@Z 10008d00 f i FiscalPrinter.obj
 0001:00007d50       ??9?$CComPtrBase@UIOleInPlaceSiteWindowless@@@ATL@@QBE_NPAUIOleInPlaceSiteWindowless@@@Z 10008d50 f i FiscalPrinter.obj
 0001:00007da0       ??9?$CComPtrBase@UIOleObject@@@ATL@@QBE_NPAUIOleObject@@@Z 10008da0 f i FiscalPrinter.obj
 0001:00007df0       ??9?$CComPtrBase@UIPersistStream@@@ATL@@QBE_NPAUIPersistStream@@@Z 10008df0 f i FiscalPrinter.obj
 0001:00007e40       ??9?$CComPtrBase@UIPersistStreamInit@@@ATL@@QBE_NPAUIPersistStreamInit@@@Z 10008e40 f i FiscalPrinter.obj
 0001:00007e90       ??9?$CComPtrBase@UIPointerInactive@@@ATL@@QBE_NPAUIPointerInactive@@@Z 10008e90 f i FiscalPrinter.obj
 0001:00007ee0       ??9?$CComPtrBase@UIUnknown@@@ATL@@QBE_NPAUIUnknown@@@Z 10008ee0 f i FiscalPrinter.obj
 0001:00007f30       ??9?$CComPtrBase@UIViewObjectEx@@@ATL@@QBE_NPAUIViewObjectEx@@@Z 10008f30 f i FiscalPrinter.obj
 0001:00007f80       ??9CComBSTR@ATL@@QBE_NH@Z  10008f80 f i FiscalPrinter.obj
 0001:00007fd0       ??B?$CComPtrBase@UIAdviseSink@@@ATL@@QBEPAUIAdviseSink@@XZ 10008fd0 f i FiscalPrinter.obj
 0001:00007ff0       ??B?$CComPtrBase@UIDataAdviseHolder@@@ATL@@QBEPAUIDataAdviseHolder@@XZ 10008ff0 f i FiscalPrinter.obj
 0001:00008010       ??B?$CComPtrBase@UIDataObject@@@ATL@@QBEPAUIDataObject@@XZ 10009010 f i FiscalPrinter.obj
 0001:00008030       ??B?$CComPtrBase@UIOleAdviseHolder@@@ATL@@QBEPAUIOleAdviseHolder@@XZ 10009030 f i FiscalPrinter.obj
 0001:00008050       ??B?$CComPtrBase@UIOleClientSite@@@ATL@@QBEPAUIOleClientSite@@XZ 10009050 f i FiscalPrinter.obj
 0001:00008070       ??B?$CComPtrBase@UIOleControlSite@@@ATL@@QBEPAUIOleControlSite@@XZ 10009070 f i FiscalPrinter.obj
 0001:00008090       ??B?$CComPtrBase@UIOleInPlaceActiveObject@@@ATL@@QBEPAUIOleInPlaceActiveObject@@XZ 10009090 f i FiscalPrinter.obj
 0001:000080b0       ??B?$CComPtrBase@UIOleInPlaceFrame@@@ATL@@QBEPAUIOleInPlaceFrame@@XZ 100090b0 f i FiscalPrinter.obj
 0001:000080d0       ??B?$CComPtrBase@UIOleInPlaceSiteWindowless@@@ATL@@QBEPAUIOleInPlaceSiteWindowless@@XZ 100090d0 f i FiscalPrinter.obj
 0001:000080f0       ??B?$CComPtrBase@UIOleInPlaceUIWindow@@@ATL@@QBEPAUIOleInPlaceUIWindow@@XZ 100090f0 f i FiscalPrinter.obj
 0001:00008110       ??B?$CComPtrBase@UIOleObject@@@ATL@@QBEPAUIOleObject@@XZ 10009110 f i FiscalPrinter.obj
 0001:00008130       ??B?$CComPtrBase@UIPersistStream@@@ATL@@QBEPAUIPersistStream@@XZ 10009130 f i FiscalPrinter.obj
 0001:00008150       ??B?$CComPtrBase@UIProvideClassInfo2@@@ATL@@QBEPAUIProvideClassInfo2@@XZ 10009150 f i FiscalPrinter.obj
 0001:00008170       ??B?$CComPtrBase@UISpecifyPropertyPages@@@ATL@@QBEPAUISpecifyPropertyPages@@XZ 10009170 f i FiscalPrinter.obj
 0001:00008190       ??B?$CComPtrBase@UIStream@@@ATL@@QBEPAUIStream@@XZ 10009190 f i FiscalPrinter.obj
 0001:000081b0       ??B?$CComPtrBase@UITypeInfo2@@@ATL@@QBEPAUITypeInfo2@@XZ 100091b0 f i FiscalPrinter.obj
 0001:000081d0       ??B?$CComPtrBase@UITypeInfo@@@ATL@@QBEPAUITypeInfo@@XZ 100091d0 f i FiscalPrinter.obj
 0001:000081f0       ??B?$CComPtrBase@UITypeLib@@@ATL@@QBEPAUITypeLib@@XZ 100091f0 f i FiscalPrinter.obj
 0001:00008210       ??B?$CComPtrBase@UIUnknown@@@ATL@@QBEPAUIUnknown@@XZ 10009210 f i FiscalPrinter.obj
 0001:00008230       ??B?$CTempBuffer@E$0BAA@VCCRTAllocator@ATL@@@ATL@@QBEPAEXZ 10009230 f i FiscalPrinter.obj
 0001:00008250       ??B?$CTempBuffer@_W$0BAA@VCCRTAllocator@ATL@@@ATL@@QBEPA_WXZ 10009250 f i FiscalPrinter.obj
 0001:00008270       ??B?$CTempBuffer@_W$0EAA@VCCRTAllocator@ATL@@@ATL@@QBEPA_WXZ 10009270 f i FiscalPrinter.obj
 0001:00008290       ??B?$CTraceCategoryEx@$00$0A@@ATL@@QAEIXZ 10009290 f i FiscalPrinter.obj
 0001:000082b0       ??B?$CTraceCategoryEx@$07$0A@@ATL@@QAEIXZ 100092b0 f i FiscalPrinter.obj
 0001:000082d0       ??B?$CTraceCategoryEx@$0CAAA@$0A@@ATL@@QAEIXZ 100092d0 f i FiscalPrinter.obj
 0001:000082f0       ??B?$CTraceCategoryEx@$0EA@$0A@@ATL@@QAEIXZ 100092f0 f i FiscalPrinter.obj
 0001:00008310       ??B?$CTraceCategoryEx@$0IAA@$0A@@ATL@@QAEIXZ 10009310 f i FiscalPrinter.obj
 0001:00008330       ??BCComBSTR@ATL@@QBEPA_WXZ 10009330 f i FiscalPrinter.obj
 0001:00008350       ??BCRegKey@ATL@@QBEPAUHKEY__@@XZ 10009350 f i FiscalPrinter.obj
 0001:00008370       ??C?$CComPtrBase@UIAdviseSink@@@ATL@@QBEPAV?$_NoAddRefReleaseOnCComPtr@UIAdviseSink@@@1@XZ 10009370 f i FiscalPrinter.obj
 0001:000083c0       ??C?$CComPtrBase@UICatRegister@@@ATL@@QBEPAV?$_NoAddRefReleaseOnCComPtr@UICatRegister@@@1@XZ 100093c0 f i FiscalPrinter.obj
 0001:00008410       ??C?$CComPtrBase@UIConnectionPoint@@@ATL@@QBEPAV?$_NoAddRefReleaseOnCComPtr@UIConnectionPoint@@@1@XZ 10009410 f i FiscalPrinter.obj
 0001:00008460       ??C?$CComPtrBase@UIConnectionPointContainer@@@ATL@@QBEPAV?$_NoAddRefReleaseOnCComPtr@UIConnectionPointContainer@@@1@XZ 10009460 f i FiscalPrinter.obj
 0001:000084b0       ??C?$CComPtrBase@UIDataAdviseHolder@@@ATL@@QBEPAV?$_NoAddRefReleaseOnCComPtr@UIDataAdviseHolder@@@1@XZ 100094b0 f i FiscalPrinter.obj
 0001:00008500       ??C?$CComPtrBase@UIOleAdviseHolder@@@ATL@@QBEPAV?$_NoAddRefReleaseOnCComPtr@UIOleAdviseHolder@@@1@XZ 10009500 f i FiscalPrinter.obj
 0001:00008550       ??C?$CComPtrBase@UIOleClientSite@@@ATL@@QBEPAV?$_NoAddRefReleaseOnCComPtr@UIOleClientSite@@@1@XZ 10009550 f i FiscalPrinter.obj
 0001:000085a0       ??C?$CComPtrBase@UIOleControlSite@@@ATL@@QBEPAV?$_NoAddRefReleaseOnCComPtr@UIOleControlSite@@@1@XZ 100095a0 f i FiscalPrinter.obj
 0001:000085f0       ??C?$CComPtrBase@UIOleInPlaceFrame@@@ATL@@QBEPAV?$_NoAddRefReleaseOnCComPtr@UIOleInPlaceFrame@@@1@XZ 100095f0 f i FiscalPrinter.obj
 0001:00008640       ??C?$CComPtrBase@UIOleInPlaceObject@@@ATL@@QBEPAV?$_NoAddRefReleaseOnCComPtr@UIOleInPlaceObject@@@1@XZ 10009640 f i FiscalPrinter.obj
 0001:00008690       ??C?$CComPtrBase@UIOleInPlaceSiteWindowless@@@ATL@@QBEPAV?$_NoAddRefReleaseOnCComPtr@UIOleInPlaceSiteWindowless@@@1@XZ 10009690 f i FiscalPrinter.obj
 0001:000086e0       ??C?$CComPtrBase@UIOleInPlaceUIWindow@@@ATL@@QBEPAV?$_NoAddRefReleaseOnCComPtr@UIOleInPlaceUIWindow@@@1@XZ 100096e0 f i FiscalPrinter.obj
 0001:00008730       ??C?$CComPtrBase@UIOleObject@@@ATL@@QBEPAV?$_NoAddRefReleaseOnCComPtr@UIOleObject@@@1@XZ 10009730 f i FiscalPrinter.obj
 0001:00008780       ??C?$CComPtrBase@UIPersistStream@@@ATL@@QBEPAV?$_NoAddRefReleaseOnCComPtr@UIPersistStream@@@1@XZ 10009780 f i FiscalPrinter.obj
 0001:000087d0       ??C?$CComPtrBase@UIPersistStreamInit@@@ATL@@QBEPAV?$_NoAddRefReleaseOnCComPtr@UIPersistStreamInit@@@1@XZ 100097d0 f i FiscalPrinter.obj
 0001:00008820       ??C?$CComPtrBase@UIPointerInactive@@@ATL@@QBEPAV?$_NoAddRefReleaseOnCComPtr@UIPointerInactive@@@1@XZ 10009820 f i FiscalPrinter.obj
 0001:00008870       ??C?$CComPtrBase@UIProvideClassInfo2@@@ATL@@QBEPAV?$_NoAddRefReleaseOnCComPtr@UIProvideClassInfo2@@@1@XZ 10009870 f i FiscalPrinter.obj
 0001:000088c0       ??C?$CComPtrBase@UISpecifyPropertyPages@@@ATL@@QBEPAV?$_NoAddRefReleaseOnCComPtr@UISpecifyPropertyPages@@@1@XZ 100098c0 f i FiscalPrinter.obj
 0001:00008910       ??C?$CComPtrBase@UITypeInfo@@@ATL@@QBEPAV?$_NoAddRefReleaseOnCComPtr@UITypeInfo@@@1@XZ 10009910 f i FiscalPrinter.obj
 0001:00008960       ??C?$CComPtrBase@UITypeLib@@@ATL@@QBEPAV?$_NoAddRefReleaseOnCComPtr@UITypeLib@@@1@XZ 10009960 f i FiscalPrinter.obj
 0001:000089b0       ??C?$CComPtrBase@UIUnknown@@@ATL@@QBEPAV?$_NoAddRefReleaseOnCComPtr@UIUnknown@@@1@XZ 100099b0 f i FiscalPrinter.obj
 0001:00008a00       ??C?$CComPtrBase@UIViewObjectEx@@@ATL@@QBEPAV?$_NoAddRefReleaseOnCComPtr@UIViewObjectEx@@@1@XZ 10009a00 f i FiscalPrinter.obj
 0001:00008a50       ??I?$CComPtrBase@UICatRegister@@@ATL@@QAEPAPAUICatRegister@@XZ 10009a50 f i FiscalPrinter.obj
 0001:00008aa0       ??I?$CComPtrBase@UIConnectionPoint@@@ATL@@QAEPAPAUIConnectionPoint@@XZ 10009aa0 f i FiscalPrinter.obj
 0001:00008af0       ??I?$CComPtrBase@UIConnectionPointContainer@@@ATL@@QAEPAPAUIConnectionPointContainer@@XZ 10009af0 f i FiscalPrinter.obj
 0001:00008b40       ??I?$CComPtrBase@UIDataAdviseHolder@@@ATL@@QAEPAPAUIDataAdviseHolder@@XZ 10009b40 f i FiscalPrinter.obj
 0001:00008b90       ??I?$CComPtrBase@UIDataObject@@@ATL@@QAEPAPAUIDataObject@@XZ 10009b90 f i FiscalPrinter.obj
 0001:00008be0       ??I?$CComPtrBase@UIDispatch@@@ATL@@QAEPAPAUIDispatch@@XZ 10009be0 f i FiscalPrinter.obj
 0001:00008c30       ??I?$CComPtrBase@UIOleAdviseHolder@@@ATL@@QAEPAPAUIOleAdviseHolder@@XZ 10009c30 f i FiscalPrinter.obj
 0001:00008c80       ??I?$CComPtrBase@UIOleControlSite@@@ATL@@QAEPAPAUIOleControlSite@@XZ 10009c80 f i FiscalPrinter.obj
 0001:00008cd0       ??I?$CComPtrBase@UIOleInPlaceActiveObject@@@ATL@@QAEPAPAUIOleInPlaceActiveObject@@XZ 10009cd0 f i FiscalPrinter.obj
 0001:00008d20       ??I?$CComPtrBase@UIOleInPlaceFrame@@@ATL@@QAEPAPAUIOleInPlaceFrame@@XZ 10009d20 f i FiscalPrinter.obj
 0001:00008d70       ??I?$CComPtrBase@UIOleInPlaceObject@@@ATL@@QAEPAPAUIOleInPlaceObject@@XZ 10009d70 f i FiscalPrinter.obj
 0001:00008dc0       ??I?$CComPtrBase@UIOleInPlaceSiteWindowless@@@ATL@@QAEPAPAUIOleInPlaceSiteWindowless@@XZ 10009dc0 f i FiscalPrinter.obj
 0001:00008e10       ??I?$CComPtrBase@UIOleInPlaceUIWindow@@@ATL@@QAEPAPAUIOleInPlaceUIWindow@@XZ 10009e10 f i FiscalPrinter.obj
 0001:00008e60       ??I?$CComPtrBase@UIOleObject@@@ATL@@QAEPAPAUIOleObject@@XZ 10009e60 f i FiscalPrinter.obj
 0001:00008eb0       ??I?$CComPtrBase@UIPersistStream@@@ATL@@QAEPAPAUIPersistStream@@XZ 10009eb0 f i FiscalPrinter.obj
 0001:00008f00       ??I?$CComPtrBase@UIPointerInactive@@@ATL@@QAEPAPAUIPointerInactive@@XZ 10009f00 f i FiscalPrinter.obj
 0001:00008f50       ??I?$CComPtrBase@UIProvideClassInfo2@@@ATL@@QAEPAPAUIProvideClassInfo2@@XZ 10009f50 f i FiscalPrinter.obj
 0001:00008fa0       ??I?$CComPtrBase@UIStream@@@ATL@@QAEPAPAUIStream@@XZ 10009fa0 f i FiscalPrinter.obj
 0001:00008ff0       ??I?$CComPtrBase@UITypeInfo2@@@ATL@@QAEPAPAUITypeInfo2@@XZ 10009ff0 f i FiscalPrinter.obj
 0001:00009040       ??I?$CComPtrBase@UITypeInfo@@@ATL@@QAEPAPAUITypeInfo@@XZ 1000a040 f i FiscalPrinter.obj
 0001:00009090       ??I?$CComPtrBase@UITypeLib@@@ATL@@QAEPAPAUITypeLib@@XZ 1000a090 f i FiscalPrinter.obj
 0001:000090e0       ??I?$CComPtrBase@UIUnknown@@@ATL@@QAEPAPAUIUnknown@@XZ 1000a0e0 f i FiscalPrinter.obj
 0001:00009130       ??I?$CComPtrBase@UIViewObjectEx@@@ATL@@QAEPAPAUIViewObjectEx@@XZ 1000a130 f i FiscalPrinter.obj
 0001:00009180       ??ICComBSTR@ATL@@QAEPAPA_WXZ 1000a180 f i FiscalPrinter.obj
 0001:00009195       ??_E?$CComContainedObject@VCOPOSFiscalPrinter@@@ATL@@W3AEPAXI@Z 1000a195 f i FiscalPrinter.obj
 0001:0000919d       ??_E?$CComContainedObject@VCOPOSFiscalPrinter@@@ATL@@WEM@AEPAXI@Z 1000a19d f i FiscalPrinter.obj
 0001:000091a5       ??_E?$CComObject@VCOPOSFiscalPrinter@@@ATL@@W3AEPAXI@Z 1000a1a5 f i FiscalPrinter.obj
 0001:000091ad       ??_E?$CComObject@VCOPOSFiscalPrinter@@@ATL@@WEM@AEPAXI@Z 1000a1ad f i FiscalPrinter.obj
 0001:000091c0       ??_E?$CComAggObject@VCOPOSFiscalPrinter@@@ATL@@UAEPAXI@Z 1000a1c0 f i FiscalPrinter.obj
 0001:000091c0       ??_G?$CComAggObject@VCOPOSFiscalPrinter@@@ATL@@UAEPAXI@Z 1000a1c0 f i FiscalPrinter.obj
 0001:00009210       ??_E?$CComContainedObject@VCOPOSFiscalPrinter@@@ATL@@UAEPAXI@Z 1000a210 f i FiscalPrinter.obj
 0001:00009210       ??_G?$CComContainedObject@VCOPOSFiscalPrinter@@@ATL@@UAEPAXI@Z 1000a210 f i FiscalPrinter.obj
 0001:00009260       ??_G?$CComObject@V?$CComEnum@UIEnumConnectionPoints@@$1?_GUID_b196b285_bab4_101a_b69c_00aa00341d07@@3U__s_GUID@@BPAUIConnectionPoint@@V?$_CopyInterface@UIConnectionPoint@@@ATL@@VCComSingleThreadModel@6@@ATL@@@ATL@@UAEPAXI@Z 1000a260 f i FiscalPrinter.obj
 0001:00009260       ??_E?$CComObject@V?$CComEnum@UIEnumConnectionPoints@@$1?_GUID_b196b285_bab4_101a_b69c_00aa00341d07@@3U__s_GUID@@BPAUIConnectionPoint@@V?$_CopyInterface@UIConnectionPoint@@@ATL@@VCComSingleThreadModel@6@@ATL@@@ATL@@UAEPAXI@Z 1000a260 f i FiscalPrinter.obj
 0001:000092a0       ??_G?$CComObject@V?$CComEnum@UIEnumConnections@@$1?_GUID_b196b287_bab4_101a_b69c_00aa00341d07@@3U__s_GUID@@BUtagCONNECTDATA@@V?$_Copy@UtagCONNECTDATA@@@ATL@@VCComSingleThreadModel@6@@ATL@@@ATL@@UAEPAXI@Z 1000a2a0 f i FiscalPrinter.obj
 0001:000092a0       ??_E?$CComObject@V?$CComEnum@UIEnumConnections@@$1?_GUID_b196b287_bab4_101a_b69c_00aa00341d07@@3U__s_GUID@@BUtagCONNECTDATA@@V?$_Copy@UtagCONNECTDATA@@@ATL@@VCComSingleThreadModel@6@@ATL@@@ATL@@UAEPAXI@Z 1000a2a0 f i FiscalPrinter.obj
 0001:000092e0       ??_G?$CComObject@VCOPOSFiscalPrinter@@@ATL@@UAEPAXI@Z 1000a2e0 f i FiscalPrinter.obj
 0001:000092e0       ??_E?$CComObject@VCOPOSFiscalPrinter@@@ATL@@UAEPAXI@Z 1000a2e0 f i FiscalPrinter.obj
 0001:00009330       ??_G?$CComObjectCached@VCComClassFactory@ATL@@@ATL@@UAEPAXI@Z 1000a330 f i FiscalPrinter.obj
 0001:00009330       ??_E?$CComObjectCached@VCComClassFactory@ATL@@@ATL@@UAEPAXI@Z 1000a330 f i FiscalPrinter.obj
 0001:00009370       ??_ECComClassFactory@ATL@@UAEPAXI@Z 1000a370 f i FiscalPrinter.obj
 0001:00009370       ??_GCComClassFactory@ATL@@UAEPAXI@Z 1000a370 f i FiscalPrinter.obj
 0001:000093b0       ??_GCComModule@ATL@@UAEPAXI@Z 1000a3b0 f i FiscalPrinter.obj
 0001:000093b0       ??_ECComModule@ATL@@UAEPAXI@Z 1000a3b0 f i FiscalPrinter.obj
 0001:000093f0       ??_GCRegObject@ATL@@UAEPAXI@Z 1000a3f0 f i FiscalPrinter.obj
 0001:000093f0       ??_ECRegObject@ATL@@UAEPAXI@Z 1000a3f0 f i FiscalPrinter.obj
 0001:00009430       ?Add@?$CSimpleArray@GV?$CSimpleArrayEqualHelper@G@ATL@@@ATL@@QAEHABG@Z 1000a430 f i FiscalPrinter.obj
 0001:00009580       ?Add@?$CSimpleMap@PA_WPA_WVCExpansionVectorEqualHelper@ATL@@@ATL@@QAEHABQA_W0@Z 1000a580 f i FiscalPrinter.obj
 0001:00009640       ?Add@CComDynamicUnkArray@ATL@@QAEKPAUIUnknown@@@Z 1000a640 f i FiscalPrinter.obj
 0001:000097e0       ?Add@CExpansionVector@ATL@@QAEHPB_W0@Z 1000a7e0 f i FiscalPrinter.obj
 0001:00009a70       ?AddChar@CParseBuffer@CRegParser@ATL@@QAEHPB_W@Z 1000aa70 f i FiscalPrinter.obj
 0001:00009ab0       ?AddCommonRGSReplacements@?$CAtlModuleT@VCComModule@ATL@@@ATL@@UAEJPAUIRegistrarBase@@@Z 1000aab0 f i FiscalPrinter.obj
 0001:00009b00       ?AddCreateWndData@CAtlWinModule@ATL@@QAEXPAU_AtlCreateWndData@2@PAX@Z 1000ab00 f i FiscalPrinter.obj
 0001:00009b30       ?AddRef@?$CComAggObject@VCOPOSFiscalPrinter@@@ATL@@UAGKXZ 1000ab30 f i FiscalPrinter.obj
 0001:00009b50       ?AddRef@?$CComContainedObject@VCOPOSFiscalPrinter@@@ATL@@UAGKXZ 1000ab50 f i FiscalPrinter.obj
 0001:00009b6c       ?AddRef@?$CComContainedObject@VCOPOSFiscalPrinter@@@ATL@@WHA@AGKXZ 1000ab6c f i FiscalPrinter.obj
 0001:00009b76       ?AddRef@?$CComContainedObject@VCOPOSFiscalPrinter@@@ATL@@WHE@AGKXZ 1000ab76 f i FiscalPrinter.obj
 0001:00009b80       ?AddRef@?$CComContainedObject@VCOPOSFiscalPrinter@@@ATL@@WHI@AGKXZ 1000ab80 f i FiscalPrinter.obj
 0001:00009b8a       ?AddRef@?$CComContainedObject@VCOPOSFiscalPrinter@@@ATL@@WHM@AGKXZ 1000ab8a f i FiscalPrinter.obj
 0001:00009b94       ?AddRef@?$CComContainedObject@VCOPOSFiscalPrinter@@@ATL@@WIA@AGKXZ 1000ab94 f i FiscalPrinter.obj
 0001:00009ba1       ?AddRef@?$CComContainedObject@VCOPOSFiscalPrinter@@@ATL@@WIE@AGKXZ 1000aba1 f i FiscalPrinter.obj
 0001:00009bae       ?AddRef@?$CComContainedObject@VCOPOSFiscalPrinter@@@ATL@@WII@AGKXZ 1000abae f i FiscalPrinter.obj
 0001:00009bbb       ?AddRef@?$CComContainedObject@VCOPOSFiscalPrinter@@@ATL@@WIM@AGKXZ 1000abbb f i FiscalPrinter.obj
 0001:00009bc8       ?AddRef@?$CComContainedObject@VCOPOSFiscalPrinter@@@ATL@@WJA@AGKXZ 1000abc8 f i FiscalPrinter.obj
 0001:00009bd5       ?AddRef@?$CComContainedObject@VCOPOSFiscalPrinter@@@ATL@@WJE@AGKXZ 1000abd5 f i FiscalPrinter.obj
 0001:00009be2       ?AddRef@?$CComContainedObject@VCOPOSFiscalPrinter@@@ATL@@WJI@AGKXZ 1000abe2 f i FiscalPrinter.obj
 0001:00009bef       ?AddRef@?$CComContainedObject@VCOPOSFiscalPrinter@@@ATL@@WJM@AGKXZ 1000abef f i FiscalPrinter.obj
 0001:00009bfc       ?AddRef@?$CComContainedObject@VCOPOSFiscalPrinter@@@ATL@@WKA@AGKXZ 1000abfc f i FiscalPrinter.obj
 0001:00009c09       ?AddRef@?$CComContainedObject@VCOPOSFiscalPrinter@@@ATL@@WKI@AGKXZ 1000ac09 f i FiscalPrinter.obj
 0001:00009c16       ?AddRef@?$CComContainedObject@VCOPOSFiscalPrinter@@@ATL@@WLE@AGKXZ 1000ac16 f i FiscalPrinter.obj
 0001:00009c30       ?AddRef@?$CComObject@V?$CComEnum@UIEnumConnectionPoints@@$1?_GUID_b196b285_bab4_101a_b69c_00aa00341d07@@3U__s_GUID@@BPAUIConnectionPoint@@V?$_CopyInterface@UIConnectionPoint@@@ATL@@VCComSingleThreadModel@6@@ATL@@@ATL@@UAGKXZ 1000ac30 f i FiscalPrinter.obj
 0001:00009c50       ?AddRef@?$CComObject@V?$CComEnum@UIEnumConnections@@$1?_GUID_b196b287_bab4_101a_b69c_00aa00341d07@@3U__s_GUID@@BUtagCONNECTDATA@@V?$_Copy@UtagCONNECTDATA@@@ATL@@VCComSingleThreadModel@6@@ATL@@@ATL@@UAGKXZ 1000ac50 f i FiscalPrinter.obj
 0001:00009c70       ?AddRef@?$CComObject@VCOPOSFiscalPrinter@@@ATL@@UAGKXZ 1000ac70 f i FiscalPrinter.obj
 0001:00009c8c       ?AddRef@?$CComObject@VCOPOSFiscalPrinter@@@ATL@@WHA@AGKXZ 1000ac8c f i FiscalPrinter.obj
 0001:00009c96       ?AddRef@?$CComObject@VCOPOSFiscalPrinter@@@ATL@@WHE@AGKXZ 1000ac96 f i FiscalPrinter.obj
 0001:00009ca0       ?AddRef@?$CComObject@VCOPOSFiscalPrinter@@@ATL@@WHI@AGKXZ 1000aca0 f i FiscalPrinter.obj
 0001:00009caa       ?AddRef@?$CComObject@VCOPOSFiscalPrinter@@@ATL@@WHM@AGKXZ 1000acaa f i FiscalPrinter.obj
 0001:00009cb4       ?AddRef@?$CComObject@VCOPOSFiscalPrinter@@@ATL@@WIA@AGKXZ 1000acb4 f i FiscalPrinter.obj
 0001:00009cc1       ?AddRef@?$CComObject@VCOPOSFiscalPrinter@@@ATL@@WIE@AGKXZ 1000acc1 f i FiscalPrinter.obj
 0001:00009cce       ?AddRef@?$CComObject@VCOPOSFiscalPrinter@@@ATL@@WII@AGKXZ 1000acce f i FiscalPrinter.obj
 0001:00009cdb       ?AddRef@?$CComObject@VCOPOSFiscalPrinter@@@ATL@@WIM@AGKXZ 1000acdb f i FiscalPrinter.obj
 0001:00009ce8       ?AddRef@?$CComObject@VCOPOSFiscalPrinter@@@ATL@@WJA@AGKXZ 1000ace8 f i FiscalPrinter.obj
 0001:00009cf5       ?AddRef@?$CComObject@VCOPOSFiscalPrinter@@@ATL@@WJE@AGKXZ 1000acf5 f i FiscalPrinter.obj
 0001:00009d02       ?AddRef@?$CComObject@VCOPOSFiscalPrinter@@@ATL@@WJI@AGKXZ 1000ad02 f i FiscalPrinter.obj
 0001:00009d0f       ?AddRef@?$CComObject@VCOPOSFiscalPrinter@@@ATL@@WJM@AGKXZ 1000ad0f f i FiscalPrinter.obj
 0001:00009d1c       ?AddRef@?$CComObject@VCOPOSFiscalPrinter@@@ATL@@WKA@AGKXZ 1000ad1c f i FiscalPrinter.obj
 0001:00009d29       ?AddRef@?$CComObject@VCOPOSFiscalPrinter@@@ATL@@WKI@AGKXZ 1000ad29 f i FiscalPrinter.obj
 0001:00009d36       ?AddRef@?$CComObject@VCOPOSFiscalPrinter@@@ATL@@WLE@AGKXZ 1000ad36 f i FiscalPrinter.obj
 0001:00009d50       ?AddRef@?$CComObjectCached@VCComClassFactory@ATL@@@ATL@@UAGKXZ 1000ad50 f i FiscalPrinter.obj
 0001:00009da0       ?AddRef@CRegObject@ATL@@UAGKXZ 1000ada0 f i FiscalPrinter.obj
 0001:00009df0       ?AddReplacement@CRegObject@ATL@@UAGJPB_W0@Z 1000adf0 f i FiscalPrinter.obj
 0001:00009f00       ?AddString@CParseBuffer@CRegParser@ATL@@QAEHPB_W@Z 1000af00 f i FiscalPrinter.obj
 0001:00009ff0       ?AddTermFunc@CAtlModule@ATL@@QAEJP6GXK@ZK@Z 1000aff0 f i FiscalPrinter.obj
 0001:0000a040       ?AddValue@CRegParser@ATL@@IAEJAAVCRegKey@2@PB_WPA_W@Z 1000b040 f i FiscalPrinter.obj
 0001:0000a7d0       ?Advise@?$CProxy_IOPOSEvents@VCOPOSFiscalPrinter@@@@UAGJPAUIUnknown@@PAK@Z 1000b7d0 f i FiscalPrinter.obj
 0001:0000a820       ?Advise@?$IConnectionPointImpl@VCOPOSFiscalPrinter@@$1?DIID__IOPOSFiscalPrinterEvents@@3U_GUID@@BVCComDynamicUnkArray@ATL@@@ATL@@UAGJPAUIUnknown@@PAK@Z 1000b820 f i FiscalPrinter.obj
 0001:0000a9c0       ?Advise@?$IConnectionPointImpl@VCOPOSFiscalPrinter@@$1?IID_IPropertyNotifySink@@3U_GUID@@BVCComDynamicUnkArray@ATL@@@ATL@@UAGJPAUIUnknown@@PAK@Z 1000b9c0 f i FiscalPrinter.obj
 0001:0000ab60       ?Advise@?$IOleObjectImpl@VCOPOSFiscalPrinter@@@ATL@@UAGJPAUIAdviseSink@@PAK@Z 1000bb60 f i FiscalPrinter.obj
 0001:0000abf0       ?Allocate@?$CAtlSafeAllocBufferManager@VCCRTAllocator@ATL@@@_ATL_SAFE_ALLOCA_IMPL@ATL@@QAEPAXK@Z 1000bbf0 f i FiscalPrinter.obj
 0001:0000ac60       ?Allocate@?$CTempBuffer@E$0BAA@VCCRTAllocator@ATL@@@ATL@@QAEPAEI@Z 1000bc60 f i FiscalPrinter.obj
 0001:0000aca0       ?Allocate@?$CTempBuffer@_W$0BAA@VCCRTAllocator@ATL@@@ATL@@QAEPA_WI@Z 1000bca0 f i FiscalPrinter.obj
 0001:0000ace0       ?Allocate@?$CTempBuffer@_W$0EAA@VCCRTAllocator@ATL@@@ATL@@QAEPA_WI@Z 1000bce0 f i FiscalPrinter.obj
 0001:0000ad20       ?AllocateBytes@?$CTempBuffer@E$0BAA@VCCRTAllocator@ATL@@@ATL@@QAEPAEI@Z 1000bd20 f i FiscalPrinter.obj
 0001:0000ada0       ?AllocateBytes@?$CTempBuffer@_W$0BAA@VCCRTAllocator@ATL@@@ATL@@QAEPA_WI@Z 1000bda0 f i FiscalPrinter.obj
 0001:0000ae20       ?AllocateBytes@?$CTempBuffer@_W$0EAA@VCCRTAllocator@ATL@@@ATL@@QAEPA_WI@Z 1000be20 f i FiscalPrinter.obj
 0001:0000aea0       ?AllocateHeap@?$CTempBuffer@E$0BAA@VCCRTAllocator@ATL@@@ATL@@AAEXI@Z 1000bea0 f i FiscalPrinter.obj
 0001:0000aef0       ?AllocateHeap@?$CTempBuffer@_W$0BAA@VCCRTAllocator@ATL@@@ATL@@AAEXI@Z 1000bef0 f i FiscalPrinter.obj
 0001:0000af40       ?AllocateHeap@?$CTempBuffer@_W$0EAA@VCCRTAllocator@ATL@@@ATL@@AAEXI@Z 1000bf40 f i FiscalPrinter.obj
 0001:0000af90       ?Append@CParseBuffer@CRegParser@ATL@@QAEHPB_WH@Z 1000bf90 f i FiscalPrinter.obj
 0001:0000b130       ?AtlCallTermFunc@ATL@@YGXPAU_ATL_MODULE70@1@@Z 1000c130 f i FiscalPrinter.obj
 0001:0000b1d0       ?AtlCoTaskMemCAlloc@ATL@@YAPAXKK@Z 1000c1d0 f i FiscalPrinter.obj
 0001:0000b260       ?AtlCoTaskMemRecalloc@ATL@@YAPAXPAXKK@Z 1000c260 f i FiscalPrinter.obj
 0001:0000b300       ?AtlComModuleGetClassObject@ATL@@YGJPAU_ATL_COM_MODULE70@1@ABU_GUID@@1PAPAX@Z 1000c300 f i FiscalPrinter.obj
 0001:0000b590       ?AtlComModuleRegisterServer@ATL@@YGJPAU_ATL_COM_MODULE70@1@HPBU_GUID@@@Z 1000c590 f i FiscalPrinter.obj
 0001:0000b720       ?AtlComModuleUnregisterServer@ATL@@YGJPAU_ATL_COM_MODULE70@1@HPBU_GUID@@@Z 1000c720 f i FiscalPrinter.obj
 0001:0000b850       ?AtlComQIPtrAssign2@ATL@@YAXPAPAUIUnknown@@PAU2@ABU_GUID@@@Z 1000c850 f i FiscalPrinter.obj
 0001:0000b8d0       ?AtlCreateTargetDC@ATL@@YGPAUHDC__@@PAU2@PAUtagDVTARGETDEVICE@@@Z 1000c8d0 f i FiscalPrinter.obj
 0001:0000ba70       ?AtlCrtErrorCheck@ATL@@YAHH@Z 1000ca70 f i FiscalPrinter.obj
 0001:0000bb40       ?AtlGetPerUserRegistration@ATL@@YGJPA_N@Z 1000cb40 f i FiscalPrinter.obj
 0001:0000bb70       ?AtlHiMetricToPixel@ATL@@YGXPBUtagSIZE@@PAU2@@Z 1000cb70 f i FiscalPrinter.obj
 0001:0000bd40       ?AtlHresultFromLastError@ATL@@YAJXZ 1000cd40 f i FiscalPrinter.obj
 0001:0000bd80       ?AtlHresultFromWin32@ATL@@YAJK@Z 1000cd80 f i FiscalPrinter.obj
 0001:0000bda0       ?AtlIPersistStreamInit_Load@ATL@@YGJPAUIStream@@PBUATL_PROPMAP_ENTRY@1@PAXPAUIUnknown@@@Z 1000cda0 f i FiscalPrinter.obj
 0001:0000c200       ?AtlIPersistStreamInit_Save@ATL@@YGJPAUIStream@@HPBUATL_PROPMAP_ENTRY@1@PAXPAUIUnknown@@@Z 1000d200 f i FiscalPrinter.obj
 0001:0000c5e0       ?AtlInternalOleLoadFromStream@ATL@@YAJPAUIStream@@ABU_GUID@@PAPAXTClassesAllowedInStream@1@K@Z 1000d5e0 f i FiscalPrinter.obj
 0001:0000c880       ?AtlInternalQueryInterface@ATL@@YGJPAXPBU_ATL_INTMAP_ENTRY@1@ABU_GUID@@PAPAX@Z 1000d880 f i FiscalPrinter.obj
 0001:0000cab0       ?AtlLoadTypeLib@ATL@@YGJPAUHINSTANCE__@@PB_WPAPA_WPAPAUITypeLib@@@Z 1000dab0 f i FiscalPrinter.obj
 0001:0000cf10       ?AtlModuleAddTermFunc@ATL@@YGJPAU_ATL_MODULE70@1@P6GXK@ZK@Z 1000df10 f i FiscalPrinter.obj
 0001:0000d070       ?AtlRegisterClassCategoriesHelper@ATL@@YGJABU_GUID@@PBU_ATL_CATMAP_ENTRY@1@H@Z 1000e070 f i FiscalPrinter.obj
 0001:0000d750       ?AtlRegisterTypeLib@ATL@@YGJPAUHINSTANCE__@@PB_W@Z 1000e750 f i FiscalPrinter.obj
 0001:0000da90       ?AtlThrowImpl@ATL@@YGXJ@Z  1000ea90 f i FiscalPrinter.obj
 0001:0000db40       ?AtlUnRegisterTypeLib@ATL@@YGJPAUHINSTANCE__@@PB_W@Z 1000eb40 f i FiscalPrinter.obj
 0001:0000dd50       ?AtlWinModuleAddCreateWndData@ATL@@YGXPAU_ATL_WIN_MODULE70@1@PAU_AtlCreateWndData@1@PAX@Z 1000ed50 f i FiscalPrinter.obj
 0001:0000dec0       ?AtlWinModuleExtractCreateWndData@ATL@@YGPAXPAU_ATL_WIN_MODULE70@1@@Z 1000eec0 f i FiscalPrinter.obj
 0001:0000e040       ?AtlWinModuleRegisterClassExW@ATL@@YGGPAU_ATL_WIN_MODULE70@1@PBUtagWNDCLASSEXW@@@Z 1000f040 f i FiscalPrinter.obj
 0001:0000e110       ?AtlWinModuleRegisterWndClassInfoW@ATL@@YGGPAU_ATL_WIN_MODULE70@1@PAU_ATL_BASE_MODULE70@1@PAU_ATL_WNDCLASSINFOW@1@PAP6GJPAUHWND__@@IIJ@Z@Z 1000f110 f i FiscalPrinter.obj
 0001:0000e1a0       ?Attach@?$CAutoVectorPtr@_W@ATL@@QAEXPA_W@Z 1000f1a0 f i FiscalPrinter.obj
 0001:0000e200       ?Attach@CComBSTR@ATL@@QAEXPA_W@Z 1000f200 f i FiscalPrinter.obj
 0001:0000e250       ?Attach@CRegKey@ATL@@QAEXPAUHKEY__@@@Z 1000f250 f i FiscalPrinter.obj
 0001:0000e2c0       ?CanForceRemoveKey@CRegParser@ATL@@IAEHPB_W@Z 1000f2c0 f i FiscalPrinter.obj
 0001:0000e330       ?ChToByte@CRegParser@ATL@@KAE_W@Z 1000f330 f i FiscalPrinter.obj
 0001:0000e450       ?ChangeType@CComVariant@ATL@@QAEJGPBUtagVARIANT@@@Z 1000f450 f i FiscalPrinter.obj
 0001:0000e4b0       ?Cleanup@CComTypeInfoHolder@ATL@@SGXK@Z 1000f4b0 f i FiscalPrinter.obj
 0001:0000e580       ?Clear@CComVariant@ATL@@QAEJXZ 1000f580 f i FiscalPrinter.obj
 0001:0000e5c0       ?ClearReplacements@CExpansionVector@ATL@@QAEJXZ 1000f5c0 f i FiscalPrinter.obj
 0001:0000e650       ?ClearReplacements@CRegObject@ATL@@UAGJXZ 1000f650 f i FiscalPrinter.obj
 0001:0000e6a0       ?Clone@?$CComEnumImpl@UIEnumConnectionPoints@@$1?_GUID_b196b285_bab4_101a_b69c_00aa00341d07@@3U__s_GUID@@BPAUIConnectionPoint@@V?$_CopyInterface@UIConnectionPoint@@@ATL@@@ATL@@UAGJPAPAUIEnumConnectionPoints@@@Z 1000f6a0 f i FiscalPrinter.obj
 0001:0000e810       ?Clone@?$CComEnumImpl@UIEnumConnections@@$1?_GUID_b196b287_bab4_101a_b69c_00aa00341d07@@3U__s_GUID@@BUtagCONNECTDATA@@V?$_Copy@UtagCONNECTDATA@@@ATL@@@ATL@@UAGJPAPAUIEnumConnections@@@Z 1000f810 f i FiscalPrinter.obj
 0001:0000e980       ?Close@?$IOleObjectImpl@VCOPOSFiscalPrinter@@@ATL@@UAGJK@Z 1000f980 f i FiscalPrinter.obj
 0001:0000ea10       ?Close@CRegKey@ATL@@QAEJXZ 1000fa10 f i FiscalPrinter.obj
 0001:0000ea80       ?ContextSensitiveHelp@?$IOleInPlaceActiveObjectImpl@VCOPOSFiscalPrinter@@@ATL@@UAGJH@Z 1000fa80 f i FiscalPrinter.obj
 0001:0000eaf0       ?ContextSensitiveHelp@?$IOleInPlaceObjectWindowlessImpl@VCOPOSFiscalPrinter@@@ATL@@UAGJH@Z 1000faf0 f i FiscalPrinter.obj
 0001:0000eb60       ?ControlQueryInterface@?$CComControl@VCOPOSFiscalPrinter@@V?$CWindowImpl@VCOPOSFiscalPrinter@@VCWindow@ATL@@V?$CWinTraits@$0FGAAAAAA@$0A@@3@@ATL@@@ATL@@UAEJABU_GUID@@PAPAX@Z 1000fb60 f i FiscalPrinter.obj
 0001:0000ebe0       ?CreateControlWindow@?$CComControl@VCOPOSFiscalPrinter@@V?$CWindowImpl@VCOPOSFiscalPrinter@@VCWindow@ATL@@V?$CWinTraits@$0FGAAAAAA@$0A@@3@@ATL@@@ATL@@UAEPAUHWND__@@PAU3@AAUtagRECT@@@Z 1000fbe0 f i FiscalPrinter.obj
 0001:0000ec60       ?CreateInstance@?$CComCreator@V?$CComAggObject@VCOPOSFiscalPrinter@@@ATL@@@ATL@@SGJPAXABU_GUID@@PAPAX@Z 1000fc60 f i FiscalPrinter.obj
 0001:0000ede0       ?CreateInstance@?$CComCreator@V?$CComObject@VCOPOSFiscalPrinter@@@ATL@@@ATL@@SGJPAXABU_GUID@@PAPAX@Z 1000fde0 f i FiscalPrinter.obj
 0001:0000ef70       ?CreateInstance@?$CComObject@V?$CComEnum@UIEnumConnectionPoints@@$1?_GUID_b196b285_bab4_101a_b69c_00aa00341d07@@3U__s_GUID@@BPAUIConnectionPoint@@V?$_CopyInterface@UIConnectionPoint@@@ATL@@VCComSingleThreadModel@6@@ATL@@@ATL@@SGJPAPAV12@@Z 1000ff70 f i FiscalPrinter.obj
 0001:0000f0e0       ?CreateInstance@?$CComObject@V?$CComEnum@UIEnumConnections@@$1?_GUID_b196b287_bab4_101a_b69c_00aa00341d07@@3U__s_GUID@@BUtagCONNECTDATA@@V?$_Copy@UtagCONNECTDATA@@@ATL@@VCComSingleThreadModel@6@@ATL@@@ATL@@SGJPAPAV12@@Z 100100e0 f i FiscalPrinter.obj
 0001:0000f250       ?CreateInstance@CComClassFactory@ATL@@UAGJPAUIUnknown@@ABU_GUID@@PAPAX@Z 10010250 f i FiscalPrinter.obj
 0001:0000f340       ?DAdvise@?$IDataObjectImpl@VCOPOSFiscalPrinter@@@ATL@@UAGJPAUtagFORMATETC@@KPAUIAdviseSink@@PAK@Z 10010340 f i FiscalPrinter.obj
 0001:0000f440       ?DEVMODEOLE2T_EX@@YAPAU_devicemodeW@@PAU1@@Z 10010440 f i FiscalPrinter.obj
 0001:0000f450       ?DUnadvise@?$IDataObjectImpl@VCOPOSFiscalPrinter@@@ATL@@UAGJK@Z 10010450 f i FiscalPrinter.obj
 0001:0000f520       ?Decrement@CComMultiThreadModel@ATL@@SGKPAJ@Z 10010520 f i FiscalPrinter.obj
 0001:0000f540       ?Decrement@CComSingleThreadModel@ATL@@SGKPAJ@Z 10010540 f i FiscalPrinter.obj
 0001:0000f560       ?DefWindowProcW@?$CWindowImplBaseT@VCWindow@ATL@@V?$CWinTraits@$0FGAAAAAA@$0A@@2@@ATL@@QAEJIIJ@Z 10010560 f i FiscalPrinter.obj
 0001:0000f5b0       ?DefaultReflectionHandler@?$CWindowImplRoot@VCWindow@ATL@@@ATL@@SAHPAUHWND__@@IIJAAJ@Z 100105b0 f i FiscalPrinter.obj
 0001:0000f7a0       ?DeleteSubKey@CRegKey@ATL@@QAEJPB_W@Z 100107a0 f i FiscalPrinter.obj
 0001:0000f8b0       ?DeleteValue@CRegKey@ATL@@QAEJPB_W@Z 100108b0 f i FiscalPrinter.obj
 0001:0000f920       ?Detach@?$CAutoVectorPtr@_W@ATL@@QAEPA_WXZ 10010920 f i FiscalPrinter.obj
 0001:0000f950       ?Detach@?$CComPtrBase@UIPersistStream@@@ATL@@QAEPAUIPersistStream@@XZ 10010950 f i FiscalPrinter.obj
 0001:0000f980       ?Detach@?$CComPtrBase@UITypeInfo@@@ATL@@QAEPAUITypeInfo@@XZ 10010980 f i FiscalPrinter.obj
 0001:0000f9b0       ?Detach@?$CComPtrBase@UIUnknown@@@ATL@@QAEPAUIUnknown@@XZ 100109b0 f i FiscalPrinter.obj
 0001:0000f9e0       ?Detach@CComBSTR@ATL@@QAEPA_WXZ 100109e0 f i FiscalPrinter.obj
 0001:0000fa10       ?Detach@CParseBuffer@CRegParser@ATL@@QAEPA_WXZ 10010a10 f i FiscalPrinter.obj
 0001:0000fa60       ?Detach@CRegKey@ATL@@QAEPAUHKEY__@@XZ 10010a60 f i FiscalPrinter.obj
 0001:0000fab0       ?DoEvent@COPOSFiscalPrinter@@IAEXIIJ@Z 10010ab0 f i FiscalPrinter.obj
 0001:0000fbf0       ?DoVerb@?$IOleObjectImpl@VCOPOSFiscalPrinter@@@ATL@@UAGJJPAUtagMSG@@PAUIOleClientSite@@JPAUHWND__@@PBUtagRECT@@@Z 10010bf0 f i FiscalPrinter.obj
 0001:0000fe00       ?DoVerbDiscardUndo@?$IOleObjectImpl@VCOPOSFiscalPrinter@@@ATL@@QAEJPBUtagRECT@@PAUHWND__@@@Z 10010e00 f i FiscalPrinter.obj
 0001:0000fe70       ?DoVerbHide@?$IOleObjectImpl@VCOPOSFiscalPrinter@@@ATL@@QAEJPBUtagRECT@@PAUHWND__@@@Z 10010e70 f i FiscalPrinter.obj
 0001:0000ff20       ?DoVerbInPlaceActivate@?$IOleObjectImpl@VCOPOSFiscalPrinter@@@ATL@@QAEJPBUtagRECT@@PAUHWND__@@@Z 10010f20 f i FiscalPrinter.obj
 0001:0000ffc0       ?DoVerbOpen@?$IOleObjectImpl@VCOPOSFiscalPrinter@@@ATL@@QAEJPBUtagRECT@@PAUHWND__@@@Z 10010fc0 f i FiscalPrinter.obj
 0001:00010030       ?DoVerbPrimary@?$IOleObjectImpl@VCOPOSFiscalPrinter@@@ATL@@QAEJPBUtagRECT@@PAUHWND__@@@Z 10011030 f i FiscalPrinter.obj
 0001:00010140       ?DoVerbProperties@CComControlBase@ATL@@QAEJPBUtagRECT@@PAUHWND__@@@Z 10011140 f i FiscalPrinter.obj
 0001:00010460       ?DoVerbShow@?$IOleObjectImpl@VCOPOSFiscalPrinter@@@ATL@@QAEJPBUtagRECT@@PAUHWND__@@@Z 10011460 f i FiscalPrinter.obj
 0001:000104f0       ?DoVerbUIActivate@?$IOleObjectImpl@VCOPOSFiscalPrinter@@@ATL@@QAEJPBUtagRECT@@PAUHWND__@@@Z 100114f0 f i FiscalPrinter.obj
 0001:00010590       ?DoesVerbActivate@CComControlBase@ATL@@QAEHJ@Z 10011590 f i FiscalPrinter.obj
 0001:00010600       ?DoesVerbUIActivate@CComControlBase@ATL@@QAEHJ@Z 10011600 f i FiscalPrinter.obj
 0001:00010680       ?Draw@?$IViewObjectExImpl@VCOPOSFiscalPrinter@@@ATL@@UAGJKJPAXPAUtagDVTARGETDEVICE@@PAUHDC__@@2PBU_RECTL@@3P6GHK@ZK@Z 10011680 f i FiscalPrinter.obj
 0001:00010720       ?Empty@CComBSTR@ATL@@QAEXXZ 10011720 f i FiscalPrinter.obj
 0001:00010760       ?EnableModeless@?$IOleInPlaceActiveObjectImpl@VCOPOSFiscalPrinter@@@ATL@@UAGJH@Z 10011760 f i FiscalPrinter.obj
 0001:000107c0       ?EndOfVar@CRegParser@ATL@@IAEHXZ 100117c0 f i FiscalPrinter.obj
 0001:00010830       ?EnsureTI@CComTypeInfoHolder@ATL@@QAEJK@Z 10011830 f i FiscalPrinter.obj
 0001:00010890       ?EnumAdvise@?$IOleObjectImpl@VCOPOSFiscalPrinter@@@ATL@@UAGJPAPAUIEnumSTATDATA@@@Z 10011890 f i FiscalPrinter.obj
 0001:000109a0       ?EnumConnectionPoints@?$IConnectionPointContainerImpl@VCOPOSFiscalPrinter@@@ATL@@UAGJPAPAUIEnumConnectionPoints@@@Z 100119a0 f i FiscalPrinter.obj
 0001:00010dd0       ?EnumConnections@?$IConnectionPointImpl@VCOPOSFiscalPrinter@@$1?DIID__IOPOSFiscalPrinterEvents@@3U_GUID@@BVCComDynamicUnkArray@ATL@@@ATL@@UAGJPAPAUIEnumConnections@@@Z 10011dd0 f i FiscalPrinter.obj
 0001:00011020       ?EnumConnections@?$IConnectionPointImpl@VCOPOSFiscalPrinter@@$1?IID_IPropertyNotifySink@@3U_GUID@@BVCComDynamicUnkArray@ATL@@@ATL@@UAGJPAPAUIEnumConnections@@@Z 10012020 f i FiscalPrinter.obj
 0001:00011270       ?EnumDAdvise@?$IDataObjectImpl@VCOPOSFiscalPrinter@@@ATL@@UAGJPAPAUIEnumSTATDATA@@@Z 10012270 f i FiscalPrinter.obj
 0001:00011370       ?EnumFormatEtc@?$IDataObjectImpl@VCOPOSFiscalPrinter@@@ATL@@UAGJKPAPAUIEnumFORMATETC@@@Z 10012370 f i FiscalPrinter.obj
 0001:000113e0       ?EnumVerbs@?$IOleObjectImpl@VCOPOSFiscalPrinter@@@ATL@@UAGJPAPAUIEnumOLEVERB@@@Z 100123e0 f i FiscalPrinter.obj
 0001:00011490       ?EscapeSingleQuote@CAtlModule@ATL@@SAXPA_WIPB_W@Z 10012490 f i FiscalPrinter.obj
 0001:00011540       ?ExtractCreateWndData@CAtlWinModule@ATL@@QAEPAXXZ 10012540 f i FiscalPrinter.obj
 0001:00011570       ?FAccessAllowed@?$IObjectSafetyImpl@VCOPOSFiscalPrinter@@$02@ATL@@MAEHXZ 10012570 f i FiscalPrinter.obj
 0001:00011590       ?FinalConstruct@?$CComAggObject@VCOPOSFiscalPrinter@@@ATL@@QAEJXZ 10012590 f i FiscalPrinter.obj
 0001:000115d0       ?FinalConstruct@CComObjectRootBase@ATL@@QAEJXZ 100125d0 f i FiscalPrinter.obj
 0001:000115f0       ?FinalConstruct@CRegObject@ATL@@QAEJXZ 100125f0 f i FiscalPrinter.obj
 0001:00011620       ?FinalRelease@?$CComAggObject@VCOPOSFiscalPrinter@@@ATL@@QAEXXZ 10012620 f i FiscalPrinter.obj
 0001:00011660       ?FinalRelease@CComObjectRootBase@ATL@@QAEXXZ 10012660 f i FiscalPrinter.obj
 0001:00011680       ?FindConnectionPoint@?$IConnectionPointContainerImpl@VCOPOSFiscalPrinter@@@ATL@@UAGJABU_GUID@@PAPAUIConnectionPoint@@@Z 10012680 f i FiscalPrinter.obj
 0001:000117d0       ?FindKey@?$CSimpleMap@PA_WPA_WVCExpansionVectorEqualHelper@ATL@@@ATL@@QBEHABQA_W@Z 100127d0 f i FiscalPrinter.obj
 0001:00011840       ?FireTheEvent@?$CProxy_IOPOSEvents@VCOPOSFiscalPrinter@@@@IAEXPAUIUnknown@@PAVOposVariant@@IAAJPB_WJ@Z 10012840 f i FiscalPrinter.obj
 0001:000119b0       ?FireViewChange@CComControlBase@ATL@@QAEJXZ 100129b0 f i FiscalPrinter.obj
 0001:00011a70       ?Fire_DirectIOEvent@?$CProxy_IOPOSEvents@VCOPOSFiscalPrinter@@@@QAEXJPAJPAPA_W@Z 10012a70 f i FiscalPrinter.obj
 0001:00011c40       ?Fire_ErrorEvent@?$CProxy_IOPOSEvents@VCOPOSFiscalPrinter@@@@QAEXJJJPAJ@Z 10012c40 f i FiscalPrinter.obj
 0001:00011e30       ?Fire_OutputCompleteEvent@?$CProxy_IOPOSEvents@VCOPOSFiscalPrinter@@@@QAEXJ@Z 10012e30 f i FiscalPrinter.obj
 0001:00011f90       ?Fire_StatusUpdateEvent@?$CProxy_IOPOSEvents@VCOPOSFiscalPrinter@@@@QAEXJ@Z 10012f90 f i FiscalPrinter.obj
 0001:000120f0       ?FormatWindowClassName@AtlModuleRegisterWndClassInfoParamW@ATL@@SAXPA_WKPAX@Z 100130f0 f i FiscalPrinter.obj
 0001:00012120       ?Free@?$CAutoVectorPtr@_W@ATL@@QAEXXZ 10013120 f i FiscalPrinter.obj
 0001:00012170       ?FreeHeap@?$CTempBuffer@E$0BAA@VCCRTAllocator@ATL@@@ATL@@AAEXXZ 10013170 f i FiscalPrinter.obj
 0001:000121a0       ?FreeHeap@?$CTempBuffer@_W$0BAA@VCCRTAllocator@ATL@@@ATL@@AAEXXZ 100131a0 f i FiscalPrinter.obj
 0001:000121d0       ?FreeHeap@?$CTempBuffer@_W$0EAA@VCCRTAllocator@ATL@@@ATL@@AAEXXZ 100131d0 f i FiscalPrinter.obj
 0001:00012200       ?Freeze@?$IViewObjectExImpl@VCOPOSFiscalPrinter@@@ATL@@UAGJKJPAXPAK@Z 10013200 f i FiscalPrinter.obj
 0001:00012270       ?GenerateError@CRegParser@ATL@@IAEJI@Z 10013270 f i FiscalPrinter.obj
 0001:00012290       ?GetAdvise@?$IViewObjectExImpl@VCOPOSFiscalPrinter@@@ATL@@UAGJPAK0PAPAUIAdviseSink@@@Z 10013290 f i FiscalPrinter.obj
 0001:00012390       ?GetAmbientLocaleID@CComControlBase@ATL@@QAEJAAK@Z 10013390 f i FiscalPrinter.obj
 0001:00012470       ?GetAmbientProperty@CComControlBase@ATL@@QAEJJAAUtagVARIANT@@@Z 10013470 f i FiscalPrinter.obj
 0001:000124c0       ?GetAmbientUserMode@CComControlBase@ATL@@QAEJAAH@Z 100134c0 f i FiscalPrinter.obj
 0001:000125c0       ?GetAppId@?$CAtlModuleT@VCComModule@ATL@@@ATL@@SAPB_WXZ 100135c0 f i FiscalPrinter.obj
 0001:000125d0       ?GetAt@CComDynamicUnkArray@ATL@@QAEPAUIUnknown@@H@Z 100135d0 f i FiscalPrinter.obj
 0001:00012650       ?GetCanonicalFormatEtc@?$IDataObjectImpl@VCOPOSFiscalPrinter@@@ATL@@UAGJPAUtagFORMATETC@@0@Z 10013650 f i FiscalPrinter.obj
 0001:000126c0       ?GetClassID@?$IPersistStorageImpl@VCOPOSFiscalPrinter@@@ATL@@UAGJPAU_GUID@@@Z 100136c0 f i FiscalPrinter.obj
 0001:00012740       ?GetClassID@?$IPersistStreamInitImpl@VCOPOSFiscalPrinter@@@ATL@@UAGJPAU_GUID@@@Z 10013740 f i FiscalPrinter.obj
 0001:000127c0       ?GetClassInfoExW@AtlModuleRegisterWndClassInfoParamW@ATL@@SAHPAUHINSTANCE__@@PB_WPAUtagWNDCLASSEXW@@@Z 100137c0 f i FiscalPrinter.obj
 0001:000127f0       ?GetClassInfoW@?$IProvideClassInfo2Impl@$1?CLSID_OPOSFiscalPrinter@@3U_GUID@@B$1?DIID__IOPOSFiscalPrinterEvents@@3U2@B$1?LIBID_OposFiscalPrinter_CCO@@3U2@B$00$0A@VCComTypeInfoHolder@ATL@@@ATL@@UAGJPAPAUITypeInfo@@@Z 100137f0 f i FiscalPrinter.obj
 0001:00012810       ?GetClassObject@CComModule@ATL@@QAEJABU_GUID@@0PAPAX@Z 10013810 f i FiscalPrinter.obj
 0001:00012a10       ?GetClientSite@?$IOleObjectImpl@VCOPOSFiscalPrinter@@@ATL@@UAGJPAPAUIOleClientSite@@@Z 10013a10 f i FiscalPrinter.obj
 0001:00012aa0       ?GetClipboardData@?$IOleObjectImpl@VCOPOSFiscalPrinter@@@ATL@@UAGJKPAPAUIDataObject@@@Z 10013aa0 f i FiscalPrinter.obj
 0001:00012b10       ?GetCodeAddress@CDynamicStdCallThunk2@ATL@@QAEPAXXZ 10013b10 f i FiscalPrinter.obj
 0001:00012b40       ?GetColorSet@?$IViewObjectExImpl@VCOPOSFiscalPrinter@@@ATL@@UAGJKJPAXPAUtagDVTARGETDEVICE@@PAUHDC__@@PAPAUtagLOGPALETTE@@@Z 10013b40 f i FiscalPrinter.obj
 0001:00012bb0       ?GetConnMap@COPOSFiscalPrinter@@SAPBU_ATL_CONNMAP_ENTRY@ATL@@PAH@Z 10013bb0 f i FiscalPrinter.obj
 0001:00012cf0       ?GetConnectionInterface@?$IConnectionPointImpl@VCOPOSFiscalPrinter@@$1?DIID__IOPOSFiscalPrinterEvents@@3U_GUID@@BVCComDynamicUnkArray@ATL@@@ATL@@UAGJPAU_GUID@@@Z 10013cf0 f i FiscalPrinter.obj
 0001:00012d30       ?GetConnectionInterface@?$IConnectionPointImpl@VCOPOSFiscalPrinter@@$1?IID_IPropertyNotifySink@@3U_GUID@@BVCComDynamicUnkArray@ATL@@@ATL@@UAGJPAU_GUID@@@Z 10013d30 f i FiscalPrinter.obj
 0001:00012d70       ?GetConnectionPointContainer@?$IConnectionPointImpl@VCOPOSFiscalPrinter@@$1?DIID__IOPOSFiscalPrinterEvents@@3U_GUID@@BVCComDynamicUnkArray@ATL@@@ATL@@UAGJPAPAUIConnectionPointContainer@@@Z 10013d70 f i FiscalPrinter.obj
 0001:00012de0       ?GetConnectionPointContainer@?$IConnectionPointImpl@VCOPOSFiscalPrinter@@$1?IID_IPropertyNotifySink@@3U_GUID@@BVCComDynamicUnkArray@ATL@@@ATL@@UAGJPAPAUIConnectionPointContainer@@@Z 10013de0 f i FiscalPrinter.obj
 0001:00012e50       ?GetContentExtent@?$IQuickActivateImpl@VCOPOSFiscalPrinter@@@ATL@@UAGJPAUtagSIZE@@@Z 10013e50 f i FiscalPrinter.obj
 0001:00012ee0       ?GetControlInfo@?$IOleControlImpl@VCOPOSFiscalPrinter@@@ATL@@UAGJPAUtagCONTROLINFO@@@Z 10013ee0 f i FiscalPrinter.obj
 0001:00012f50       ?GetCookie@CComDynamicUnkArray@ATL@@QAGKPAPAUIUnknown@@@Z 10013f50 f i FiscalPrinter.obj
 0001:00013010       ?GetData@?$IDataObjectImpl@VCOPOSFiscalPrinter@@@ATL@@UAGJPAUtagFORMATETC@@PAUtagSTGMEDIUM@@@Z 10014010 f i FiscalPrinter.obj
 0001:000130a0       ?GetData@CAtlSafeAllocBufferNode@?$CAtlSafeAllocBufferManager@VCCRTAllocator@ATL@@@_ATL_SAFE_ALLOCA_IMPL@ATL@@QAEPAXXZ 100140a0 f i FiscalPrinter.obj
 0001:000130c0       ?GetDataHere@?$IDataObjectImpl@VCOPOSFiscalPrinter@@@ATL@@UAGJPAUtagFORMATETC@@PAUtagSTGMEDIUM@@@Z 100140c0 f i FiscalPrinter.obj
 0001:00013130       ?GetDropTarget@?$IOleInPlaceObjectWindowlessImpl@VCOPOSFiscalPrinter@@@ATL@@UAGJPAPAUIDropTarget@@@Z 10014130 f i FiscalPrinter.obj
 0001:000131a0       ?GetExtent@?$IOleObjectImpl@VCOPOSFiscalPrinter@@@ATL@@UAGJKPAUtagSIZE@@@Z 100141a0 f i FiscalPrinter.obj
 0001:00013240       ?GetExtent@?$IViewObjectExImpl@VCOPOSFiscalPrinter@@@ATL@@UAGJKJPAUtagDVTARGETDEVICE@@PAUtagSIZE@@@Z 10014240 f i FiscalPrinter.obj
 0001:00013310       ?GetGITPtr@CAtlModule@ATL@@UAEJPAPAUIGlobalInterfaceTable@@@Z 10014310 f i FiscalPrinter.obj
 0001:00013410       ?GetGUID@?$IProvideClassInfo2Impl@$1?CLSID_OPOSFiscalPrinter@@3U_GUID@@B$1?DIID__IOPOSFiscalPrinterEvents@@3U2@B$1?LIBID_OposFiscalPrinter_CCO@@3U2@B$00$0A@VCComTypeInfoHolder@ATL@@@ATL@@UAGJKPAU_GUID@@@Z 10014410 f i FiscalPrinter.obj
 0001:00013490       ?GetIDsOfNames@?$IDispatchImpl@UIOPOSFiscalPrinter@@$1?IID_IOPOSFiscalPrinter@@3U_GUID@@B$1?LIBID_OposFiscalPrinter_CCO@@3U3@B$00$0A@VCComTypeInfoHolder@ATL@@@ATL@@UAGJABU_GUID@@PAPA_WIKPAJ@Z 10014490 f i FiscalPrinter.obj
 0001:000134c0       ?GetIDsOfNames@CComTypeInfoHolder@ATL@@QAEJABU_GUID@@PAPA_WIKPAJ@Z 100144c0 f i FiscalPrinter.obj
 0001:00013670       ?GetInterfaceSafetyOptions@?$IObjectSafetyImpl@VCOPOSFiscalPrinter@@$02@ATL@@UAGJABU_GUID@@PAK1@Z 10014670 f i FiscalPrinter.obj
 0001:000137e0       ?GetKeyAt@?$CSimpleMap@PA_WPA_WVCExpansionVectorEqualHelper@ATL@@@ATL@@QBEAAPA_WH@Z 100147e0 f i FiscalPrinter.obj
 0001:00013860       ?GetLockCount@CAtlModule@ATL@@UAEJXZ 10014860 f i FiscalPrinter.obj
 0001:00013880       ?GetMiscStatus@?$IOleObjectImpl@VCOPOSFiscalPrinter@@@ATL@@UAGJKPAK@Z 10014880 f i FiscalPrinter.obj
 0001:000138f0       ?GetMoniker@?$IOleObjectImpl@VCOPOSFiscalPrinter@@@ATL@@UAGJKKPAPAUIMoniker@@@Z 100148f0 f i FiscalPrinter.obj
 0001:00013960       ?GetNaturalExtent@?$IViewObjectExImpl@VCOPOSFiscalPrinter@@@ATL@@UAGJKJPAUtagDVTARGETDEVICE@@PAUHDC__@@PAUtagExtentInfo@@PAUtagSIZE@@@Z 10014960 f i FiscalPrinter.obj
 0001:00013a80       ?GetObjectCLSID@?$CComCoClass@VCOPOSFiscalPrinter@@$1?CLSID_OPOSFiscalPrinter@@3U_GUID@@B@ATL@@SGABU_GUID@@XZ 10014a80 f i FiscalPrinter.obj
 0001:00013a90       ?GetPages@?$ISpecifyPropertyPagesImpl@VCOPOSFiscalPrinter@@@ATL@@UAGJPAUtagCAUUID@@@Z 10014a90 f i FiscalPrinter.obj
 0001:00013b00       ?GetPagesHelper@?$ISpecifyPropertyPagesImpl@VCOPOSFiscalPrinter@@@ATL@@IAEJPAUtagCAUUID@@PBUATL_PROPMAP_ENTRY@2@@Z 10014b00 f i FiscalPrinter.obj
 0001:00013d00       ?GetProperty@?$CComPtr@UIDispatch@@@ATL@@QAEJJPAUtagVARIANT@@@Z 10014d00 f i FiscalPrinter.obj
 0001:00013d40       ?GetProperty@?$CComPtr@UIDispatch@@@ATL@@SAJPAUIDispatch@@JPAUtagVARIANT@@@Z 10014d40 f i FiscalPrinter.obj
 0001:00013ea0       ?GetPropertyMap@COPOSFiscalPrinter@@SAPBUATL_PROPMAP_ENTRY@ATL@@XZ 10014ea0 f i FiscalPrinter.obj
 0001:00013eb0       ?GetRect@?$IViewObjectExImpl@VCOPOSFiscalPrinter@@@ATL@@UAGJKPAU_RECTL@@@Z 10014eb0 f i FiscalPrinter.obj
 0001:00013f20       ?GetSize@?$CSimpleMap@PA_WPA_WVCExpansionVectorEqualHelper@ATL@@@ATL@@QBEHXZ 10014f20 f i FiscalPrinter.obj
 0001:00013f40       ?GetSize@CComDynamicUnkArray@ATL@@QBEHXZ 10014f40 f i FiscalPrinter.obj
 0001:00013f60       ?GetSizeMax@?$IPersistStreamInitImpl@VCOPOSFiscalPrinter@@@ATL@@UAGJPAT_ULARGE_INTEGER@@@Z 10014f60 f i FiscalPrinter.obj
 0001:000144d0       ?GetSizeMax@CComVariant@ATL@@QBEJPAT_ULARGE_INTEGER@@@Z 100154d0 f i FiscalPrinter.obj
 0001:00014830       ?GetStreamSize@CComBSTR@ATL@@SAKPA_W@Z 10015830 f i FiscalPrinter.obj
 0001:00014880       ?GetTI@CComTypeInfoHolder@ATL@@QAEJK@Z 10015880 f i FiscalPrinter.obj
 0001:00015090       ?GetTI@CComTypeInfoHolder@ATL@@QAEJKPAPAUITypeInfo@@@Z 10016090 f i FiscalPrinter.obj
 0001:00015150       ?GetTypeInfo@?$IDispatchImpl@UIOPOSFiscalPrinter@@$1?IID_IOPOSFiscalPrinter@@3U_GUID@@B$1?LIBID_OposFiscalPrinter_CCO@@3U3@B$00$0A@VCComTypeInfoHolder@ATL@@@ATL@@UAGJIKPAPAUITypeInfo@@@Z 10016150 f i FiscalPrinter.obj
 0001:00015180       ?GetTypeInfo@CComTypeInfoHolder@ATL@@QAEJIKPAPAUITypeInfo@@@Z 10016180 f i FiscalPrinter.obj
 0001:000151c0       ?GetTypeInfoCount@?$IDispatchImpl@UIOPOSFiscalPrinter@@$1?IID_IOPOSFiscalPrinter@@3U_GUID@@B$1?LIBID_OposFiscalPrinter_CCO@@3U3@B$00$0A@VCComTypeInfoHolder@ATL@@@ATL@@UAGJPAI@Z 100161c0 f i FiscalPrinter.obj
 0001:000151e0       ?GetUnknown@CComDynamicUnkArray@ATL@@QAGPAUIUnknown@@K@Z 100161e0 f i FiscalPrinter.obj
 0001:00015250       ?GetUnknown@COPOSFiscalPrinter@@QAEPAUIUnknown@@XZ 10016250 f i FiscalPrinter.obj
 0001:00015280       ?GetUserClassID@?$IOleObjectImpl@VCOPOSFiscalPrinter@@@ATL@@UAGJPAU_GUID@@@Z 10016280 f i FiscalPrinter.obj
 0001:00015330       ?GetUserType@?$IOleObjectImpl@VCOPOSFiscalPrinter@@@ATL@@UAGJKPAPA_W@Z 10016330 f i FiscalPrinter.obj
 0001:000153a0       ?GetValueAt@?$CSimpleMap@PA_WPA_WVCExpansionVectorEqualHelper@ATL@@@ATL@@QBEAAPA_WH@Z 100163a0 f i FiscalPrinter.obj
 0001:00015420       ?GetViewStatus@?$IViewObjectExImpl@VCOPOSFiscalPrinter@@@ATL@@UAGJPAK@Z 10016420 f i FiscalPrinter.obj
 0001:000154e0       ?GetWNDPROC@CWndProcThunk@ATL@@QAEP6GJPAUHWND__@@IIJ@ZXZ 100164e0 f i FiscalPrinter.obj
 0001:00015510       ?GetWindow@?$IOleInPlaceActiveObjectImpl@VCOPOSFiscalPrinter@@@ATL@@UAGJPAPAUHWND__@@@Z 10016510 f i FiscalPrinter.obj
 0001:000155e0       ?GetWindow@?$IOleInPlaceObjectWindowlessImpl@VCOPOSFiscalPrinter@@@ATL@@UAGJPAPAUHWND__@@@Z 100165e0 f i FiscalPrinter.obj
 0001:000156b0       ?GetWindowLongPtrW@@YAJPAUHWND__@@H@Z 100166b0 f i FiscalPrinter.obj
 0001:000156e0       ?GetWindowProc@?$CWindowImplBaseT@VCWindow@ATL@@V?$CWinTraits@$0FGAAAAAA@$0A@@2@@ATL@@UAEP6GJPAUHWND__@@IIJ@ZXZ 100166e0 f i FiscalPrinter.obj
 0001:00015700       ?GetWndCaption@?$CWindowImpl@VCOPOSFiscalPrinter@@VCWindow@ATL@@V?$CWinTraits@$0FGAAAAAA@$0A@@3@@ATL@@SAPB_WXZ 10016700 f i FiscalPrinter.obj
 0001:00015710       ?GetWndClassInfo@?$CWindowImpl@VCOPOSFiscalPrinter@@VCWindow@ATL@@V?$CWinTraits@$0FGAAAAAA@$0A@@3@@ATL@@SAAAU_ATL_WNDCLASSINFOW@2@XZ 10016710 f i FiscalPrinter.obj
 0001:00015720       ?GetWndClassName@CWindow@ATL@@SAPB_WXZ 10016720 f i FiscalPrinter.obj
 0001:00015730       ?GetWndExStyle@?$CWinTraits@$0FGAAAAAA@$0A@@ATL@@SAKK@Z 10016730 f i FiscalPrinter.obj
 0001:00015760       ?GetWndExStyle@?$CWindowImplBaseT@VCWindow@ATL@@V?$CWinTraits@$0FGAAAAAA@$0A@@2@@ATL@@SAKK@Z 10016760 f i FiscalPrinter.obj
 0001:00015780       ?GetWndStyle@?$CWinTraits@$0FGAAAAAA@$0A@@ATL@@SAKK@Z 10016780 f i FiscalPrinter.obj
 0001:000157b0       ?GetWndStyle@?$CWindowImplBaseT@VCWindow@ATL@@V?$CWinTraits@$0FGAAAAAA@$0A@@2@@ATL@@SAKK@Z 100167b0 f i FiscalPrinter.obj
 0001:000157d0       ?GetZoomInfo@CComControlBase@ATL@@QAEXAAUATL_DRAWINFO@@@Z 100167d0 f i FiscalPrinter.obj
 0001:00015940       ?HKeyFromString@CRegParser@ATL@@KAPAUHKEY__@@PA_W@Z 10016940 f i FiscalPrinter.obj
 0001:000159b0       ?HandsOffStorage@?$IPersistStorageImpl@VCOPOSFiscalPrinter@@@ATL@@UAGJXZ 100169b0 f i FiscalPrinter.obj
 0001:00015a10       ?HasSubKeys@CRegParser@ATL@@IAEHPAUHKEY__@@@Z 10016a10 f i FiscalPrinter.obj
 0001:00015b20       ?IDataObject_GetData@CComControlBase@ATL@@QAEJPAUtagFORMATETC@@PAUtagSTGMEDIUM@@@Z 10016b20 f i FiscalPrinter.obj
 0001:00015f40       ?IOleInPlaceObject_InPlaceDeactivate@CComControlBase@ATL@@QAEJXZ 10016f40 f i FiscalPrinter.obj
 0001:00016140       ?IOleInPlaceObject_SetObjectRects@CComControlBase@ATL@@QAEJPBUtagRECT@@0@Z 10017140 f i FiscalPrinter.obj
 0001:00016300       ?IOleInPlaceObject_UIDeactivate@CComControlBase@ATL@@QAEJXZ 10017300 f i FiscalPrinter.obj
 0001:00016570       ?IOleObject_Advise@CComControlBase@ATL@@QAEJPAUIAdviseSink@@PAK@Z 10017570 f i FiscalPrinter.obj
 0001:00016620       ?IOleObject_Close@CComControlBase@ATL@@QAEJK@Z 10017620 f i FiscalPrinter.obj
 0001:000168d0       ?IOleObject_GetClientSite@CComControlBase@ATL@@QAEJPAPAUIOleClientSite@@@Z 100178d0 f i FiscalPrinter.obj
 0001:00016970       ?IOleObject_SetClientSite@CComControlBase@ATL@@QAEJPAUIOleClientSite@@@Z 10017970 f i FiscalPrinter.obj
 0001:00016a40       ?IOleObject_SetExtent@CComControlBase@ATL@@QAEJKPAUtagSIZE@@@Z 10017a40 f i FiscalPrinter.obj
 0001:00016b80       ?IPSI_GetIPersistStreamInit@?$IPersistStorageImpl@VCOPOSFiscalPrinter@@@ATL@@AAEPAUIPersistStreamInit@@XZ 10017b80 f i FiscalPrinter.obj
 0001:00016c50       ?IPersistStreamInit_Load@?$IPersistStreamInitImpl@VCOPOSFiscalPrinter@@@ATL@@QAEJPAUIStream@@PBUATL_PROPMAP_ENTRY@2@@Z 10017c50 f i FiscalPrinter.obj
 0001:00016cd0       ?IPersistStreamInit_Save@?$IPersistStreamInitImpl@VCOPOSFiscalPrinter@@@ATL@@QAEJPAUIStream@@HPBUATL_PROPMAP_ENTRY@2@@Z 10017cd0 f i FiscalPrinter.obj
 0001:00016d60       ?IQuickActivate_QuickActivate@CComControlBase@ATL@@QAEJPAUtagQACONTAINER@@PAUtagQACONTROL@@@Z 10017d60 f i FiscalPrinter.obj
 0001:000173b0       ?IViewObject_Draw@CComControlBase@ATL@@QAEJKJPAXPAUtagDVTARGETDEVICE@@PAUHDC__@@2PBU_RECTL@@3@Z 100183b0 f i FiscalPrinter.obj
 0001:00017650       ?InPlaceActivate@CComControlBase@ATL@@QAEJJPBUtagRECT@@@Z 10018650 f i FiscalPrinter.obj
 0001:00017fe0       ?InPlaceDeactivate@?$IOleInPlaceObjectWindowlessImpl@VCOPOSFiscalPrinter@@@ATL@@UAGJXZ 10018fe0 f i FiscalPrinter.obj
 0001:00018060       ?Increment@CComMultiThreadModel@ATL@@SGKPAJ@Z 10019060 f i FiscalPrinter.obj
 0001:00018080       ?Increment@CComSingleThreadModel@ATL@@SGKPAJ@Z 10019080 f i FiscalPrinter.obj
 0001:000180a0       ?Init@?$CComEnumImpl@UIEnumConnectionPoints@@$1?_GUID_b196b285_bab4_101a_b69c_00aa00341d07@@3U__s_GUID@@BPAUIConnectionPoint@@V?$_CopyInterface@UIConnectionPoint@@@ATL@@@ATL@@QAEJPAPAUIConnectionPoint@@0PAUIUnknown@@W4CComEnumFlags@2@@Z 100190a0 f i FiscalPrinter.obj
 0001:00018280       ?Init@?$CComEnumImpl@UIEnumConnections@@$1?_GUID_b196b287_bab4_101a_b69c_00aa00341d07@@3U__s_GUID@@BUtagCONNECTDATA@@V?$_Copy@UtagCONNECTDATA@@@ATL@@@ATL@@QAEJPAUtagCONNECTDATA@@0PAUIUnknown@@W4CComEnumFlags@2@@Z 10019280 f i FiscalPrinter.obj
 0001:00018460       ?Init@CComFakeCriticalSection@ATL@@QAEJXZ 10019460 f i FiscalPrinter.obj
 0001:00018480       ?Init@CComModule@ATL@@QAEJPAU_ATL_OBJMAP_ENTRY30@2@PAUHINSTANCE__@@PBU_GUID@@@Z 10019480 f i FiscalPrinter.obj
 0001:00018570       ?Init@CComSafeDeleteCriticalSection@ATL@@QAEJXZ 10019570 f i FiscalPrinter.obj
 0001:000185f0       ?Init@CDynamicStdCallThunk2@ATL@@QAEHKPAX@Z 100195f0 f i FiscalPrinter.obj
 0001:00018650       ?Init@CWndProcThunk@ATL@@QAEHP6GJPAUHWND__@@IIJ@ZPAX@Z 10019650 f i FiscalPrinter.obj
 0001:00018690       ?InitFromData@?$IOleObjectImpl@VCOPOSFiscalPrinter@@@ATL@@UAGJPAUIDataObject@@HK@Z 10019690 f i FiscalPrinter.obj
 0001:00018700       ?InitLibId@?$CAtlModuleT@VCComModule@ATL@@@ATL@@SAXXZ 10019700 f i FiscalPrinter.obj
 0001:00018710       ?InitNew@?$IPersistStorageImpl@VCOPOSFiscalPrinter@@@ATL@@UAGJPAUIStorage@@@Z 10019710 f i FiscalPrinter.obj
 0001:00018800       ?InitNew@?$IPersistStreamInitImpl@VCOPOSFiscalPrinter@@@ATL@@UAGJXZ 10019800 f i FiscalPrinter.obj
 0001:00018890       ?InlineIsEqualUnknown@ATL@@YGHABU_GUID@@@Z 10019890 f i FiscalPrinter.obj
 0001:00018900       ?InternalAddRef@?$CComObjectRootEx@VCComMultiThreadModel@ATL@@@ATL@@QAEKXZ 10019900 f i FiscalPrinter.obj
 0001:00018960       ?InternalAddRef@?$CComObjectRootEx@VCComSingleThreadModel@ATL@@@ATL@@QAEKXZ 10019960 f i FiscalPrinter.obj
 0001:000189c0       ?InternalFinalConstructAddRef@CComObjectRootBase@ATL@@QAEXXZ 100199c0 f i FiscalPrinter.obj
 0001:000189e0       ?InternalFinalConstructAddRef@COPOSFiscalPrinter@@QAEXXZ 100199e0 f i FiscalPrinter.obj
 0001:00018a10       ?InternalFinalConstructRelease@CComObjectRootBase@ATL@@QAEXXZ 10019a10 f i FiscalPrinter.obj
 0001:00018a60       ?InternalFinalConstructRelease@COPOSFiscalPrinter@@QAEXXZ 10019a60 f i FiscalPrinter.obj
 0001:00018a90       ?InternalGetSite@CComControlBase@ATL@@QAEJABU_GUID@@PAPAX@Z 10019a90 f i FiscalPrinter.obj
 0001:00018b50       ?InternalQueryInterface@CComObjectRootBase@ATL@@SGJPAXPBU_ATL_INTMAP_ENTRY@2@ABU_GUID@@PAPAX@Z 10019b50 f i FiscalPrinter.obj
 0001:00018c10       ?InternalRelease@?$CComObjectRootEx@VCComMultiThreadModel@ATL@@@ATL@@QAEKXZ 10019c10 f i FiscalPrinter.obj
 0001:00018c80       ?InternalRelease@?$CComObjectRootEx@VCComSingleThreadModel@ATL@@@ATL@@QAEKXZ 10019c80 f i FiscalPrinter.obj
 0001:00018cf0       ?InternalSetAtIndex@?$CSimpleArray@GV?$CSimpleArrayEqualHelper@G@ATL@@@ATL@@QAEXHABG@Z 10019cf0 f i FiscalPrinter.obj
 0001:00018d60       ?InternalSetAtIndex@?$CSimpleMap@PA_WPA_WVCExpansionVectorEqualHelper@ATL@@@ATL@@QAEXHABQA_W0@Z 10019d60 f i FiscalPrinter.obj
 0001:00018e00       ?Invoke@?$IDispatchImpl@UIOPOSFiscalPrinter@@$1?IID_IOPOSFiscalPrinter@@3U_GUID@@B$1?LIBID_OposFiscalPrinter_CCO@@3U3@B$00$0A@VCComTypeInfoHolder@ATL@@@ATL@@UAGJJABU_GUID@@KGPAUtagDISPPARAMS@@PAUtagVARIANT@@PAUtagEXCEPINFO@@PAI@Z 10019e00 f i FiscalPrinter.obj
 0001:00018e40       ?Invoke@CComTypeInfoHolder@ATL@@QAEJPAUIDispatch@@JABU_GUID@@KGPAUtagDISPPARAMS@@PAUtagVARIANT@@PAUtagEXCEPINFO@@PAI@Z 10019e40 f i FiscalPrinter.obj
 0001:00018ed0       ?IsDirty@?$IPersistStorageImpl@VCOPOSFiscalPrinter@@@ATL@@UAGJXZ 10019ed0 f i FiscalPrinter.obj
 0001:00018fc0       ?IsDirty@?$IPersistStreamInitImpl@VCOPOSFiscalPrinter@@@ATL@@UAGJXZ 10019fc0 f i FiscalPrinter.obj
 0001:00019060       ?IsEqualKey@CExpansionVectorEqualHelper@ATL@@SA_NQA_W0@Z 1001a060 f i FiscalPrinter.obj
 0001:00019090       ?IsEqualObject@?$CComPtrBase@UIOleClientSite@@@ATL@@QAE_NPAUIUnknown@@@Z 1001a090 f i FiscalPrinter.obj
 0001:000191c0       ?IsEqualObject@?$CComPtrBase@UITypeInfo@@@ATL@@QAE_NPAUIUnknown@@@Z 1001a1c0 f i FiscalPrinter.obj
 0001:000192f0       ?IsSpace@CRegParser@ATL@@IAEH_W@Z 1001a2f0 f i FiscalPrinter.obj
 0001:00019360       ?IsUpToDate@?$IOleObjectImpl@VCOPOSFiscalPrinter@@@ATL@@UAGJXZ 1001a360 f i FiscalPrinter.obj
 0001:000193c0       ?Length@CComBSTR@ATL@@QBEIXZ 1001a3c0 f i FiscalPrinter.obj
 0001:00019400       ?Load@?$IPersistStorageImpl@VCOPOSFiscalPrinter@@@ATL@@UAGJPAUIStorage@@@Z 1001a400 f i FiscalPrinter.obj
 0001:00019560       ?Load@?$IPersistStreamInitImpl@VCOPOSFiscalPrinter@@@ATL@@UAGJPAUIStream@@@Z 1001a560 f i FiscalPrinter.obj
 0001:000195f0       ?LoadCursorW@AtlModuleRegisterWndClassInfoParamW@ATL@@SAPAUHICON__@@PAUHINSTANCE__@@PB_W@Z 1001a5f0 f i FiscalPrinter.obj
 0001:00019620       ?LoadNameCache@CComTypeInfoHolder@ATL@@QAEJPAUITypeInfo@@@Z 1001a620 f i FiscalPrinter.obj
 0001:000198b0       ?Lock@?$CComCritSecLock@VCComCriticalSection@ATL@@@ATL@@QAEJXZ 1001a8b0 f i FiscalPrinter.obj
 0001:00019960       ?Lock@?$CComObjectRootEx@VCComSingleThreadModel@ATL@@@ATL@@QAEXXZ 1001a960 f i FiscalPrinter.obj
 0001:00019980       ?Lock@CAtlModule@ATL@@UAEJXZ 1001a980 f i FiscalPrinter.obj
 0001:000199b0       ?Lock@CComCriticalSection@ATL@@QAEJXZ 1001a9b0 f i FiscalPrinter.obj
 0001:000199f0       ?Lock@CComFakeCriticalSection@ATL@@QAEJXZ 1001a9f0 f i FiscalPrinter.obj
 0001:00019a10       ?LockServer@CComClassFactory@ATL@@UAGJH@Z 1001aa10 f i FiscalPrinter.obj
 0001:00019a70       ?Lookup@?$CSimpleMap@PA_WPA_WVCExpansionVectorEqualHelper@ATL@@@ATL@@QBEPA_WABQA_W@Z 1001aa70 f i FiscalPrinter.obj
 0001:00019ac0       ?Next@?$CComEnumImpl@UIEnumConnectionPoints@@$1?_GUID_b196b285_bab4_101a_b69c_00aa00341d07@@3U__s_GUID@@BPAUIConnectionPoint@@V?$_CopyInterface@UIConnectionPoint@@@ATL@@@ATL@@UAGJKPAPAUIConnectionPoint@@PAK@Z 1001aac0 f i FiscalPrinter.obj
 0001:00019c30       ?Next@?$CComEnumImpl@UIEnumConnections@@$1?_GUID_b196b287_bab4_101a_b69c_00aa00341d07@@3U__s_GUID@@BUtagCONNECTDATA@@V?$_Copy@UtagCONNECTDATA@@@ATL@@@ATL@@UAGJKPAUtagCONNECTDATA@@PAK@Z 1001ac30 f i FiscalPrinter.obj
 0001:00019da0       ?NextToken@CRegParser@ATL@@IAEJPA_W@Z 1001ada0 f i FiscalPrinter.obj
 0001:0001a040       ?OLE2CT_EX@@YAPB_WPB_WI@Z  1001b040 f i FiscalPrinter.obj
 0001:0001a050       ?OLE2CT_EX_DEF@@YAPB_WPB_W@Z 1001b050 f i FiscalPrinter.obj
 0001:0001a060       ?OLE2T_EX@@YAPA_WPA_WI@Z   1001b060 f i FiscalPrinter.obj
 0001:0001a070       ?OnAmbientPropertyChange@?$IOleControlImpl@VCOPOSFiscalPrinter@@@ATL@@UAGJJ@Z 1001b070 f i FiscalPrinter.obj
 0001:0001a100       ?OnDocWindowActivate@?$IOleInPlaceActiveObjectImpl@VCOPOSFiscalPrinter@@@ATL@@UAGJH@Z 1001b100 f i FiscalPrinter.obj
 0001:0001a190       ?OnDrawAdvanced@CComControlBase@ATL@@UAEJAAUATL_DRAWINFO@@@Z 1001b190 f i FiscalPrinter.obj
 0001:0001a3b0       ?OnFinalMessage@?$CWindowImplBaseT@VCWindow@ATL@@V?$CWinTraits@$0FGAAAAAA@$0A@@2@@ATL@@UAEXPAUHWND__@@@Z 1001b3b0 f i FiscalPrinter.obj
 0001:0001a3d0       ?OnFrameWindowActivate@?$IOleInPlaceActiveObjectImpl@VCOPOSFiscalPrinter@@@ATL@@UAGJH@Z 1001b3d0 f i FiscalPrinter.obj
 0001:0001a430       ?OnKillFocus@CComControlBase@ATL@@QAEJIIJAAH@Z 1001b430 f i FiscalPrinter.obj
 0001:0001a530       ?OnMnemonic@?$IOleControlImpl@VCOPOSFiscalPrinter@@@ATL@@UAGJPAUtagMSG@@@Z 1001b530 f i FiscalPrinter.obj
 0001:0001a5a0       ?OnMouseActivate@CComControlBase@ATL@@QAEJIIJAAH@Z 1001b5a0 f i FiscalPrinter.obj
 0001:0001a6f0       ?OnPaint@CComControlBase@ATL@@QAEJIIJAAH@Z 1001b6f0 f i FiscalPrinter.obj
 0001:0001a870       ?OnPostVerbDiscardUndo@?$IOleObjectImpl@VCOPOSFiscalPrinter@@@ATL@@QAEJXZ 1001b870 f i FiscalPrinter.obj
 0001:0001a890       ?OnPostVerbHide@?$IOleObjectImpl@VCOPOSFiscalPrinter@@@ATL@@QAEJXZ 1001b890 f i FiscalPrinter.obj
 0001:0001a8b0       ?OnPostVerbInPlaceActivate@?$IOleObjectImpl@VCOPOSFiscalPrinter@@@ATL@@QAEJXZ 1001b8b0 f i FiscalPrinter.obj
 0001:0001a8d0       ?OnPostVerbOpen@?$IOleObjectImpl@VCOPOSFiscalPrinter@@@ATL@@QAEJXZ 1001b8d0 f i FiscalPrinter.obj
 0001:0001a8f0       ?OnPostVerbShow@?$IOleObjectImpl@VCOPOSFiscalPrinter@@@ATL@@QAEJXZ 1001b8f0 f i FiscalPrinter.obj
 0001:0001a910       ?OnPostVerbUIActivate@?$IOleObjectImpl@VCOPOSFiscalPrinter@@@ATL@@QAEJXZ 1001b910 f i FiscalPrinter.obj
 0001:0001a930       ?OnPreVerbDiscardUndo@?$IOleObjectImpl@VCOPOSFiscalPrinter@@@ATL@@QAEJXZ 1001b930 f i FiscalPrinter.obj
 0001:0001a950       ?OnPreVerbHide@?$IOleObjectImpl@VCOPOSFiscalPrinter@@@ATL@@QAEJXZ 1001b950 f i FiscalPrinter.obj
 0001:0001a970       ?OnPreVerbInPlaceActivate@?$IOleObjectImpl@VCOPOSFiscalPrinter@@@ATL@@QAEJXZ 1001b970 f i FiscalPrinter.obj
 0001:0001a990       ?OnPreVerbOpen@?$IOleObjectImpl@VCOPOSFiscalPrinter@@@ATL@@QAEJXZ 1001b990 f i FiscalPrinter.obj
 0001:0001a9b0       ?OnPreVerbShow@?$IOleObjectImpl@VCOPOSFiscalPrinter@@@ATL@@QAEJXZ 1001b9b0 f i FiscalPrinter.obj
 0001:0001a9d0       ?OnPreVerbUIActivate@?$IOleObjectImpl@VCOPOSFiscalPrinter@@@ATL@@QAEJXZ 1001b9d0 f i FiscalPrinter.obj
 0001:0001a9f0       ?OnSetFocus@CComControlBase@ATL@@QAEJIIJAAH@Z 1001b9f0 f i FiscalPrinter.obj
 0001:0001ab80       ?OnWindowMessage@?$IOleInPlaceObjectWindowlessImpl@VCOPOSFiscalPrinter@@@ATL@@UAGJIIJPAJ@Z 1001bb80 f i FiscalPrinter.obj
 0001:0001ace0       ?Open@CRegKey@ATL@@QAEJPAUHKEY__@@PB_WK@Z 1001bce0 f i FiscalPrinter.obj
 0001:0001ae30       ?OuterAddRef@CComObjectRootBase@ATL@@QAEKXZ 1001be30 f i FiscalPrinter.obj
 0001:0001ae70       ?OuterQueryInterface@CComObjectRootBase@ATL@@QAEJABU_GUID@@PAPAX@Z 1001be70 f i FiscalPrinter.obj
 0001:0001aec0       ?OuterRelease@CComObjectRootBase@ATL@@QAEKXZ 1001bec0 f i FiscalPrinter.obj
 0001:0001af00       ?PreProcessBuffer@CRegParser@ATL@@QAEJPA_WPAPA_W@Z 1001bf00 f i FiscalPrinter.obj
 0001:0001b440       ?PreTranslateAccelerator@CComControlBase@ATL@@QAEHPAUtagMSG@@AAJ@Z 1001c440 f i FiscalPrinter.obj
 0001:0001b460       ?ProcessWindowMessage@?$CComControl@VCOPOSFiscalPrinter@@V?$CWindowImpl@VCOPOSFiscalPrinter@@VCWindow@ATL@@V?$CWinTraits@$0FGAAAAAA@$0A@@3@@ATL@@@ATL@@UAEHPAUHWND__@@IIJAAJK@Z 1001c460 f i FiscalPrinter.obj
 0001:0001b630       ?ProcessWindowMessage@COPOSFiscalPrinter@@UAEHPAUHWND__@@IIJAAJK@Z 1001c630 f i FiscalPrinter.obj
 0001:0001b730       ?PutProperty@?$CComPtr@UIDispatch@@@ATL@@QAEJJPAUtagVARIANT@@@Z 1001c730 f i FiscalPrinter.obj
 0001:0001b770       ?PutProperty@?$CComPtr@UIDispatch@@@ATL@@SAJPAUIDispatch@@JPAUtagVARIANT@@@Z 1001c770 f i FiscalPrinter.obj
 0001:0001b960       ?QueryGetData@?$IDataObjectImpl@VCOPOSFiscalPrinter@@@ATL@@UAGJPAUtagFORMATETC@@@Z 1001c960 f i FiscalPrinter.obj
 0001:0001b9d0       ?QueryHitPoint@?$IViewObjectExImpl@VCOPOSFiscalPrinter@@@ATL@@UAGJKPBUtagRECT@@UtagPOINT@@JPAK@Z 1001c9d0 f i FiscalPrinter.obj
 0001:0001bae0       ?QueryHitRect@?$IViewObjectExImpl@VCOPOSFiscalPrinter@@@ATL@@UAGJKPBUtagRECT@@0JPAK@Z 1001cae0 f i FiscalPrinter.obj
 0001:0001bc30       ?QueryInterface@?$CComAggObject@VCOPOSFiscalPrinter@@@ATL@@UAGJABU_GUID@@PAPAX@Z 1001cc30 f i FiscalPrinter.obj
 0001:0001bce0       ?QueryInterface@?$CComContainedObject@VCOPOSFiscalPrinter@@@ATL@@UAGJABU_GUID@@PAPAX@Z 1001cce0 f i FiscalPrinter.obj
 0001:0001bd04       ?QueryInterface@?$CComContainedObject@VCOPOSFiscalPrinter@@@ATL@@WHA@AGJABU_GUID@@PAPAX@Z 1001cd04 f i FiscalPrinter.obj
 0001:0001bd0e       ?QueryInterface@?$CComContainedObject@VCOPOSFiscalPrinter@@@ATL@@WHE@AGJABU_GUID@@PAPAX@Z 1001cd0e f i FiscalPrinter.obj
 0001:0001bd18       ?QueryInterface@?$CComContainedObject@VCOPOSFiscalPrinter@@@ATL@@WHI@AGJABU_GUID@@PAPAX@Z 1001cd18 f i FiscalPrinter.obj
 0001:0001bd22       ?QueryInterface@?$CComContainedObject@VCOPOSFiscalPrinter@@@ATL@@WHM@AGJABU_GUID@@PAPAX@Z 1001cd22 f i FiscalPrinter.obj
 0001:0001bd2c       ?QueryInterface@?$CComContainedObject@VCOPOSFiscalPrinter@@@ATL@@WIA@AGJABU_GUID@@PAPAX@Z 1001cd2c f i FiscalPrinter.obj
 0001:0001bd39       ?QueryInterface@?$CComContainedObject@VCOPOSFiscalPrinter@@@ATL@@WIE@AGJABU_GUID@@PAPAX@Z 1001cd39 f i FiscalPrinter.obj
 0001:0001bd46       ?QueryInterface@?$CComContainedObject@VCOPOSFiscalPrinter@@@ATL@@WII@AGJABU_GUID@@PAPAX@Z 1001cd46 f i FiscalPrinter.obj
 0001:0001bd53       ?QueryInterface@?$CComContainedObject@VCOPOSFiscalPrinter@@@ATL@@WIM@AGJABU_GUID@@PAPAX@Z 1001cd53 f i FiscalPrinter.obj
 0001:0001bd60       ?QueryInterface@?$CComContainedObject@VCOPOSFiscalPrinter@@@ATL@@WJA@AGJABU_GUID@@PAPAX@Z 1001cd60 f i FiscalPrinter.obj
 0001:0001bd6d       ?QueryInterface@?$CComContainedObject@VCOPOSFiscalPrinter@@@ATL@@WJE@AGJABU_GUID@@PAPAX@Z 1001cd6d f i FiscalPrinter.obj
 0001:0001bd7a       ?QueryInterface@?$CComContainedObject@VCOPOSFiscalPrinter@@@ATL@@WJI@AGJABU_GUID@@PAPAX@Z 1001cd7a f i FiscalPrinter.obj
 0001:0001bd87       ?QueryInterface@?$CComContainedObject@VCOPOSFiscalPrinter@@@ATL@@WJM@AGJABU_GUID@@PAPAX@Z 1001cd87 f i FiscalPrinter.obj
 0001:0001bd94       ?QueryInterface@?$CComContainedObject@VCOPOSFiscalPrinter@@@ATL@@WKA@AGJABU_GUID@@PAPAX@Z 1001cd94 f i FiscalPrinter.obj
 0001:0001bdb0       ?QueryInterface@?$CComObject@V?$CComEnum@UIEnumConnectionPoints@@$1?_GUID_b196b285_bab4_101a_b69c_00aa00341d07@@3U__s_GUID@@BPAUIConnectionPoint@@V?$_CopyInterface@UIConnectionPoint@@@ATL@@VCComSingleThreadModel@6@@ATL@@@ATL@@UAGJABU_GUID@@PAPAX@Z 1001cdb0 f i FiscalPrinter.obj
 0001:0001bdd0       ?QueryInterface@?$CComObject@V?$CComEnum@UIEnumConnections@@$1?_GUID_b196b287_bab4_101a_b69c_00aa00341d07@@3U__s_GUID@@BUtagCONNECTDATA@@V?$_Copy@UtagCONNECTDATA@@@ATL@@VCComSingleThreadModel@6@@ATL@@@ATL@@UAGJABU_GUID@@PAPAX@Z 1001cdd0 f i FiscalPrinter.obj
 0001:0001bdf0       ?QueryInterface@?$CComObject@VCOPOSFiscalPrinter@@@ATL@@UAGJABU_GUID@@PAPAX@Z 1001cdf0 f i FiscalPrinter.obj
 0001:0001be0e       ?QueryInterface@?$CComObject@VCOPOSFiscalPrinter@@@ATL@@WHA@AGJABU_GUID@@PAPAX@Z 1001ce0e f i FiscalPrinter.obj
 0001:0001be18       ?QueryInterface@?$CComObject@VCOPOSFiscalPrinter@@@ATL@@WHE@AGJABU_GUID@@PAPAX@Z 1001ce18 f i FiscalPrinter.obj
 0001:0001be22       ?QueryInterface@?$CComObject@VCOPOSFiscalPrinter@@@ATL@@WHI@AGJABU_GUID@@PAPAX@Z 1001ce22 f i FiscalPrinter.obj
 0001:0001be2c       ?QueryInterface@?$CComObject@VCOPOSFiscalPrinter@@@ATL@@WHM@AGJABU_GUID@@PAPAX@Z 1001ce2c f i FiscalPrinter.obj
 0001:0001be36       ?QueryInterface@?$CComObject@VCOPOSFiscalPrinter@@@ATL@@WIA@AGJABU_GUID@@PAPAX@Z 1001ce36 f i FiscalPrinter.obj
 0001:0001be43       ?QueryInterface@?$CComObject@VCOPOSFiscalPrinter@@@ATL@@WIE@AGJABU_GUID@@PAPAX@Z 1001ce43 f i FiscalPrinter.obj
 0001:0001be50       ?QueryInterface@?$CComObject@VCOPOSFiscalPrinter@@@ATL@@WII@AGJABU_GUID@@PAPAX@Z 1001ce50 f i FiscalPrinter.obj
 0001:0001be5d       ?QueryInterface@?$CComObject@VCOPOSFiscalPrinter@@@ATL@@WIM@AGJABU_GUID@@PAPAX@Z 1001ce5d f i FiscalPrinter.obj
 0001:0001be6a       ?QueryInterface@?$CComObject@VCOPOSFiscalPrinter@@@ATL@@WJA@AGJABU_GUID@@PAPAX@Z 1001ce6a f i FiscalPrinter.obj
 0001:0001be77       ?QueryInterface@?$CComObject@VCOPOSFiscalPrinter@@@ATL@@WJE@AGJABU_GUID@@PAPAX@Z 1001ce77 f i FiscalPrinter.obj
 0001:0001be84       ?QueryInterface@?$CComObject@VCOPOSFiscalPrinter@@@ATL@@WJI@AGJABU_GUID@@PAPAX@Z 1001ce84 f i FiscalPrinter.obj
 0001:0001be91       ?QueryInterface@?$CComObject@VCOPOSFiscalPrinter@@@ATL@@WJM@AGJABU_GUID@@PAPAX@Z 1001ce91 f i FiscalPrinter.obj
 0001:0001be9e       ?QueryInterface@?$CComObject@VCOPOSFiscalPrinter@@@ATL@@WKA@AGJABU_GUID@@PAPAX@Z 1001ce9e f i FiscalPrinter.obj
 0001:0001beb0       ?QueryInterface@?$CComObjectCached@VCComClassFactory@ATL@@@ATL@@UAGJABU_GUID@@PAPAX@Z 1001ceb0 f i FiscalPrinter.obj
 0001:0001bed0       ?QueryInterface@CRegObject@ATL@@UAGJABU_GUID@@PAPAX@Z 1001ced0 f i FiscalPrinter.obj
 0001:0001bf20       ?QuickActivate@?$IQuickActivateImpl@VCOPOSFiscalPrinter@@@ATL@@UAGJPAUtagQACONTAINER@@PAUtagQACONTROL@@@Z 1001cf20 f i FiscalPrinter.obj
 0001:0001bfb0       ?ReactivateAndUndo@?$IOleInPlaceObjectWindowlessImpl@VCOPOSFiscalPrinter@@@ATL@@UAGJXZ 1001cfb0 f i FiscalPrinter.obj
 0001:0001c020       ?ReadFromStream@CComBSTR@ATL@@QAEJPAUIStream@@@Z 1001d020 f i FiscalPrinter.obj
 0001:0001c420       ?ReadFromStream@CComVariant@ATL@@QAEJPAUIStream@@GTClassesAllowedInStream@2@K@Z 1001d420 f i FiscalPrinter.obj
 0001:0001c780       ?RecurseDeleteKey@CRegKey@ATL@@QAEJPB_W@Z 1001d780 f i FiscalPrinter.obj
 0001:0001c960       ?RegCreateKeyExW@CAtlTransactionManager@ATL@@QAEJPAUHKEY__@@PB_WKPA_WKKQAU_SECURITY_ATTRIBUTES@@PAPAU3@PAK@Z 1001d960 f i FiscalPrinter.obj
 0001:0001ca90       ?RegDeleteKeyW@CAtlTransactionManager@ATL@@QAEJPAUHKEY__@@PB_W@Z 1001da90 f i FiscalPrinter.obj
 0001:0001cb90       ?RegOpenKeyExW@CAtlTransactionManager@ATL@@QAEJPAUHKEY__@@PB_WKKPAPAU3@@Z 1001db90 f i FiscalPrinter.obj
 0001:0001cca0       ?Register@_ATL_WNDCLASSINFOW@ATL@@QAEGPAP6GJPAUHWND__@@IIJ@Z@Z 1001dca0 f i FiscalPrinter.obj
 0001:0001cce0       ?RegisterBuffer@CRegParser@ATL@@QAEJPA_WH@Z 1001dce0 f i FiscalPrinter.obj
 0001:0001d010       ?RegisterClassExW@AtlModuleRegisterWndClassInfoParamW@ATL@@SAGPAU_ATL_WIN_MODULE70@2@PBUtagWNDCLASSEXW@@@Z 1001e010 f i FiscalPrinter.obj
 0001:0001d030       ?RegisterFromResource@CRegObject@ATL@@IAEJPB_W00H@Z 1001e030 f i FiscalPrinter.obj
 0001:0001d3c0       ?RegisterServer@?$CAtlModuleT@VCComModule@ATL@@@ATL@@QAEJHPBU_GUID@@@Z 1001e3c0 f i FiscalPrinter.obj
 0001:0001d440       ?RegisterServer@CAtlComModule@ATL@@QAEJHPBU_GUID@@@Z 1001e440 f i FiscalPrinter.obj
 0001:0001d470       ?RegisterServer@CComModule@ATL@@QAEJHPBU_GUID@@@Z 1001e470 f i FiscalPrinter.obj
 0001:0001d550       ?RegisterSubkeys@CRegParser@ATL@@IAEJPA_WPAUHKEY__@@HH@Z 1001e550 f i FiscalPrinter.obj
 0001:0001e070       ?Release@?$CComAggObject@VCOPOSFiscalPrinter@@@ATL@@UAGKXZ 1001f070 f i FiscalPrinter.obj
 0001:0001e130       ?Release@?$CComContainedObject@VCOPOSFiscalPrinter@@@ATL@@UAGKXZ 1001f130 f i FiscalPrinter.obj
 0001:0001e14c       ?Release@?$CComContainedObject@VCOPOSFiscalPrinter@@@ATL@@WHA@AGKXZ 1001f14c f i FiscalPrinter.obj
 0001:0001e156       ?Release@?$CComContainedObject@VCOPOSFiscalPrinter@@@ATL@@WHE@AGKXZ 1001f156 f i FiscalPrinter.obj
 0001:0001e160       ?Release@?$CComContainedObject@VCOPOSFiscalPrinter@@@ATL@@WHI@AGKXZ 1001f160 f i FiscalPrinter.obj
 0001:0001e16a       ?Release@?$CComContainedObject@VCOPOSFiscalPrinter@@@ATL@@WHM@AGKXZ 1001f16a f i FiscalPrinter.obj
 0001:0001e174       ?Release@?$CComContainedObject@VCOPOSFiscalPrinter@@@ATL@@WIA@AGKXZ 1001f174 f i FiscalPrinter.obj
 0001:0001e181       ?Release@?$CComContainedObject@VCOPOSFiscalPrinter@@@ATL@@WIE@AGKXZ 1001f181 f i FiscalPrinter.obj
 0001:0001e18e       ?Release@?$CComContainedObject@VCOPOSFiscalPrinter@@@ATL@@WII@AGKXZ 1001f18e f i FiscalPrinter.obj
 0001:0001e19b       ?Release@?$CComContainedObject@VCOPOSFiscalPrinter@@@ATL@@WIM@AGKXZ 1001f19b f i FiscalPrinter.obj
 0001:0001e1a8       ?Release@?$CComContainedObject@VCOPOSFiscalPrinter@@@ATL@@WJA@AGKXZ 1001f1a8 f i FiscalPrinter.obj
 0001:0001e1b5       ?Release@?$CComContainedObject@VCOPOSFiscalPrinter@@@ATL@@WJE@AGKXZ 1001f1b5 f i FiscalPrinter.obj
 0001:0001e1c2       ?Release@?$CComContainedObject@VCOPOSFiscalPrinter@@@ATL@@WJI@AGKXZ 1001f1c2 f i FiscalPrinter.obj
 0001:0001e1cf       ?Release@?$CComContainedObject@VCOPOSFiscalPrinter@@@ATL@@WJM@AGKXZ 1001f1cf f i FiscalPrinter.obj
 0001:0001e1dc       ?Release@?$CComContainedObject@VCOPOSFiscalPrinter@@@ATL@@WKA@AGKXZ 1001f1dc f i FiscalPrinter.obj
 0001:0001e1e9       ?Release@?$CComContainedObject@VCOPOSFiscalPrinter@@@ATL@@WKI@AGKXZ 1001f1e9 f i FiscalPrinter.obj
 0001:0001e1f6       ?Release@?$CComContainedObject@VCOPOSFiscalPrinter@@@ATL@@WLE@AGKXZ 1001f1f6 f i FiscalPrinter.obj
 0001:0001e210       ?Release@?$CComObject@V?$CComEnum@UIEnumConnectionPoints@@$1?_GUID_b196b285_bab4_101a_b69c_00aa00341d07@@3U__s_GUID@@BPAUIConnectionPoint@@V?$_CopyInterface@UIConnectionPoint@@@ATL@@VCComSingleThreadModel@6@@ATL@@@ATL@@UAGKXZ 1001f210 f i FiscalPrinter.obj
 0001:0001e2d0       ?Release@?$CComObject@V?$CComEnum@UIEnumConnections@@$1?_GUID_b196b287_bab4_101a_b69c_00aa00341d07@@3U__s_GUID@@BUtagCONNECTDATA@@V?$_Copy@UtagCONNECTDATA@@@ATL@@VCComSingleThreadModel@6@@ATL@@@ATL@@UAGKXZ 1001f2d0 f i FiscalPrinter.obj
 0001:0001e390       ?Release@?$CComObject@VCOPOSFiscalPrinter@@@ATL@@UAGKXZ 1001f390 f i FiscalPrinter.obj
 0001:0001e449       ?Release@?$CComObject@VCOPOSFiscalPrinter@@@ATL@@WHA@AGKXZ 1001f449 f i FiscalPrinter.obj
 0001:0001e453       ?Release@?$CComObject@VCOPOSFiscalPrinter@@@ATL@@WHE@AGKXZ 1001f453 f i FiscalPrinter.obj
 0001:0001e45d       ?Release@?$CComObject@VCOPOSFiscalPrinter@@@ATL@@WHI@AGKXZ 1001f45d f i FiscalPrinter.obj
 0001:0001e467       ?Release@?$CComObject@VCOPOSFiscalPrinter@@@ATL@@WHM@AGKXZ 1001f467 f i FiscalPrinter.obj
 0001:0001e471       ?Release@?$CComObject@VCOPOSFiscalPrinter@@@ATL@@WIA@AGKXZ 1001f471 f i FiscalPrinter.obj
 0001:0001e47e       ?Release@?$CComObject@VCOPOSFiscalPrinter@@@ATL@@WIE@AGKXZ 1001f47e f i FiscalPrinter.obj
 0001:0001e48b       ?Release@?$CComObject@VCOPOSFiscalPrinter@@@ATL@@WII@AGKXZ 1001f48b f i FiscalPrinter.obj
 0001:0001e498       ?Release@?$CComObject@VCOPOSFiscalPrinter@@@ATL@@WIM@AGKXZ 1001f498 f i FiscalPrinter.obj
 0001:0001e4a5       ?Release@?$CComObject@VCOPOSFiscalPrinter@@@ATL@@WJA@AGKXZ 1001f4a5 f i FiscalPrinter.obj
 0001:0001e4b2       ?Release@?$CComObject@VCOPOSFiscalPrinter@@@ATL@@WJE@AGKXZ 1001f4b2 f i FiscalPrinter.obj
 0001:0001e4bf       ?Release@?$CComObject@VCOPOSFiscalPrinter@@@ATL@@WJI@AGKXZ 1001f4bf f i FiscalPrinter.obj
 0001:0001e4cc       ?Release@?$CComObject@VCOPOSFiscalPrinter@@@ATL@@WJM@AGKXZ 1001f4cc f i FiscalPrinter.obj
 0001:0001e4d9       ?Release@?$CComObject@VCOPOSFiscalPrinter@@@ATL@@WKA@AGKXZ 1001f4d9 f i FiscalPrinter.obj
 0001:0001e4e6       ?Release@?$CComObject@VCOPOSFiscalPrinter@@@ATL@@WKI@AGKXZ 1001f4e6 f i FiscalPrinter.obj
 0001:0001e4f3       ?Release@?$CComObject@VCOPOSFiscalPrinter@@@ATL@@WLE@AGKXZ 1001f4f3 f i FiscalPrinter.obj
 0001:0001e500       ?Release@?$CComObjectCached@VCComClassFactory@ATL@@@ATL@@UAGKXZ 1001f500 f i FiscalPrinter.obj
 0001:0001e5a0       ?Release@?$CComPtrBase@UIAdviseSink@@@ATL@@QAEXXZ 1001f5a0 f i FiscalPrinter.obj
 0001:0001e600       ?Release@?$CComPtrBase@UIDispatch@@@ATL@@QAEXXZ 1001f600 f i FiscalPrinter.obj
 0001:0001e660       ?Release@?$CComPtrBase@UIOleInPlaceSiteWindowless@@@ATL@@QAEXXZ 1001f660 f i FiscalPrinter.obj
 0001:0001e6c0       ?Release@CRegObject@ATL@@UAGKXZ 1001f6c0 f i FiscalPrinter.obj
 0001:0001e700       ?Remove@CComDynamicUnkArray@ATL@@QAEHK@Z 1001f700 f i FiscalPrinter.obj
 0001:0001e7b0       ?RemoveAll@?$CSimpleMap@PA_WPA_WVCExpansionVectorEqualHelper@ATL@@@ATL@@QAEXXZ 1001f7b0 f i FiscalPrinter.obj
 0001:0001e840       ?Reset@?$CComEnumImpl@UIEnumConnectionPoints@@$1?_GUID_b196b285_bab4_101a_b69c_00aa00341d07@@3U__s_GUID@@BPAUIConnectionPoint@@V?$_CopyInterface@UIConnectionPoint@@@ATL@@@ATL@@UAGJXZ 1001f840 f i FiscalPrinter.obj
 0001:0001e860       ?Reset@?$CComEnumImpl@UIEnumConnections@@$1?_GUID_b196b287_bab4_101a_b69c_00aa00341d07@@3U__s_GUID@@BUtagCONNECTDATA@@V?$_Copy@UtagCONNECTDATA@@@ATL@@@ATL@@UAGJXZ 1001f860 f i FiscalPrinter.obj
 0001:0001e880       ?ResizeBorder@?$IOleInPlaceActiveObjectImpl@VCOPOSFiscalPrinter@@@ATL@@UAGJPBUtagRECT@@PAUIOleInPlaceUIWindow@@H@Z 1001f880 f i FiscalPrinter.obj
 0001:0001e8e0       ?ResourceRegister@CRegObject@ATL@@QAGJPB_WI0@Z 1001f8e0 f i FiscalPrinter.obj
 0001:0001e9c0       ?ResourceRegisterSz@CRegObject@ATL@@QAGJPB_W00@Z 1001f9c0 f i FiscalPrinter.obj
 0001:0001eac0       ?ResourceUnregister@CRegObject@ATL@@QAGJPB_WI0@Z 1001fac0 f i FiscalPrinter.obj
 0001:0001eba0       ?ResourceUnregisterSz@CRegObject@ATL@@QAGJPB_W00@Z 1001fba0 f i FiscalPrinter.obj
 0001:0001eca0       ?SODataDummy@COPOSFiscalPrinter@@MAGJJ@Z 1001fca0 f i FiscalPrinter.obj
 0001:0001ecb0       ?SODirectIO@COPOSFiscalPrinter@@MAGJJPAJPAPA_W@Z 1001fcb0 f i FiscalPrinter.obj
 0001:0001ee70       ?SOError@COPOSFiscalPrinter@@MAGJJJJPAJ@Z 1001fe70 f i FiscalPrinter.obj
 0001:0001ef30       ?SOOutputComplete@COPOSFiscalPrinter@@MAGJJ@Z 1001ff30 f i FiscalPrinter.obj
 0001:0001efb0       ?SOStatusUpdate@COPOSFiscalPrinter@@MAGJJ@Z 1001ffb0 f i FiscalPrinter.obj
 0001:0001f030       ?Save@?$IPersistStorageImpl@VCOPOSFiscalPrinter@@@ATL@@UAGJPAUIStorage@@H@Z 10020030 f i FiscalPrinter.obj
 0001:0001f190       ?Save@?$IPersistStreamInitImpl@VCOPOSFiscalPrinter@@@ATL@@UAGJPAUIStream@@H@Z 10020190 f i FiscalPrinter.obj
 0001:0001f220       ?SaveCompleted@?$IPersistStorageImpl@VCOPOSFiscalPrinter@@@ATL@@UAGJPAUIStorage@@@Z 10020220 f i FiscalPrinter.obj
 0001:0001f280       ?SendOnDataChange@CComControlBase@ATL@@QAEJK@Z 10020280 f i FiscalPrinter.obj
 0001:0001f370       ?SendOnSave@CComControlBase@ATL@@QAEJXZ 10020370 f i FiscalPrinter.obj
 0001:0001f3e0       ?SendOnViewChange@CComControlBase@ATL@@QAEJKJ@Z 100203e0 f i FiscalPrinter.obj
 0001:0001f450       ?SetAdvise@?$IViewObjectExImpl@VCOPOSFiscalPrinter@@@ATL@@UAGJKKPAUIAdviseSink@@@Z 10020450 f i FiscalPrinter.obj
 0001:0001f4e0       ?SetClientSite@?$IOleObjectImpl@VCOPOSFiscalPrinter@@@ATL@@UAGJPAUIOleClientSite@@@Z 100204e0 f i FiscalPrinter.obj
 0001:0001f570       ?SetColorScheme@?$IOleObjectImpl@VCOPOSFiscalPrinter@@@ATL@@UAGJPAUtagLOGPALETTE@@@Z 10020570 f i FiscalPrinter.obj
 0001:0001f5e0       ?SetContentExtent@?$IQuickActivateImpl@VCOPOSFiscalPrinter@@@ATL@@UAGJPAUtagSIZE@@@Z 100205e0 f i FiscalPrinter.obj
 0001:0001f670       ?SetControlFocus@CComControlBase@ATL@@QAEHH@Z 10020670 f i FiscalPrinter.obj
 0001:0001f7f0       ?SetDWORDValue@CRegKey@ATL@@QAEJPB_WK@Z 100207f0 f i FiscalPrinter.obj
 0001:0001f870       ?SetData@?$IDataObjectImpl@VCOPOSFiscalPrinter@@@ATL@@UAGJPAUtagFORMATETC@@PAUtagSTGMEDIUM@@H@Z 10020870 f i FiscalPrinter.obj
 0001:0001f8e0       ?SetExtent@?$IOleObjectImpl@VCOPOSFiscalPrinter@@@ATL@@UAGJKPAUtagSIZE@@@Z 100208e0 f i FiscalPrinter.obj
 0001:0001f970       ?SetHostNames@?$IOleObjectImpl@VCOPOSFiscalPrinter@@@ATL@@UAGJPB_W0@Z 10020970 f i FiscalPrinter.obj
 0001:0001f9d0       ?SetInterfaceSafetyOptions@?$IObjectSafetyImpl@VCOPOSFiscalPrinter@@$02@ATL@@UAGJABU_GUID@@KK@Z 100209d0 f i FiscalPrinter.obj
 0001:0001fb40       ?SetMoniker@?$IOleObjectImpl@VCOPOSFiscalPrinter@@@ATL@@UAGJKPAUIMoniker@@@Z 10020b40 f i FiscalPrinter.obj
 0001:0001fbb0       ?SetMultiStringValue@CRegKey@ATL@@QAEJPB_W0@Z 10020bb0 f i FiscalPrinter.obj
 0001:0001fcd0       ?SetObjectRects@?$IOleInPlaceObjectWindowlessImpl@VCOPOSFiscalPrinter@@@ATL@@UAGJPBUtagRECT@@0@Z 10020cd0 f i FiscalPrinter.obj
 0001:0001fd60       ?SetStringValue@CRegKey@ATL@@QAEJPB_W0K@Z 10020d60 f i FiscalPrinter.obj
 0001:0001fe90       ?SetVoid@CComClassFactory@ATL@@QAEXPAX@Z 10020e90 f i FiscalPrinter.obj
 0001:0001feb0       ?SetVoid@CComObjectRootBase@ATL@@QAEXPAX@Z 10020eb0 f i FiscalPrinter.obj
 0001:0001fed0       ?SetWindowLongPtrW@@YAJPAUHWND__@@HJ@Z 10020ed0 f i FiscalPrinter.obj
 0001:0001ff00       ?ShowWindow@CWindow@ATL@@QAEHH@Z 10020f00 f i FiscalPrinter.obj
 0001:0001ff80       ?Skip@?$CComEnumImpl@UIEnumConnectionPoints@@$1?_GUID_b196b285_bab4_101a_b69c_00aa00341d07@@3U__s_GUID@@BPAUIConnectionPoint@@V?$_CopyInterface@UIConnectionPoint@@@ATL@@@ATL@@UAGJK@Z 10020f80 f i FiscalPrinter.obj
 0001:00020000       ?Skip@?$CComEnumImpl@UIEnumConnections@@$1?_GUID_b196b287_bab4_101a_b69c_00aa00341d07@@3U__s_GUID@@BUtagCONNECTDATA@@V?$_Copy@UtagCONNECTDATA@@@ATL@@@ATL@@UAGJK@Z 10021000 f i FiscalPrinter.obj
 0001:00020080       ?SkipAssignment@CRegParser@ATL@@IAEJPA_W@Z 10021080 f i FiscalPrinter.obj
 0001:00020160       ?SkipWhiteSpace@CRegParser@ATL@@IAEXXZ 10021160 f i FiscalPrinter.obj
 0001:000201b0       ?StartWindowProc@?$CWindowImplBaseT@VCWindow@ATL@@V?$CWinTraits@$0FGAAAAAA@$0A@@2@@ATL@@SGJPAUHWND__@@IIJ@Z 100211b0 f i FiscalPrinter.obj
 0001:000202d0       ?StrChrW@CRegParser@ATL@@KAPA_WPA_W_W@Z 100212d0 f i FiscalPrinter.obj
 0001:00020340       ?StrFromMap@CRegObject@ATL@@QAEPB_WPA_W@Z 10021340 f i FiscalPrinter.obj
 0001:000203d0       ?Swap@?$CComPtrBase@UIAdviseSink@@@ATL@@IAEXAAV12@@Z 100213d0 f i FiscalPrinter.obj
 0001:00020410       ?Swap@?$CComPtrBase@UIOleClientSite@@@ATL@@IAEXAAV12@@Z 10021410 f i FiscalPrinter.obj
 0001:00020450       ?Swap@?$CComPtrBase@UIUnknown@@@ATL@@IAEXAAV12@@Z 10021450 f i FiscalPrinter.obj
 0001:00020490       ?T2COLE_EX@@YAPB_WPB_WI@Z  10021490 f i FiscalPrinter.obj
 0001:000204a0       ?T2OLE_EX@@YAPA_WPA_WI@Z   100214a0 f i FiscalPrinter.obj
 0001:000204b0       ?Term@CAtlModule@ATL@@QAEXXZ 100214b0 f i FiscalPrinter.obj
 0001:00020560       ?Term@CComModule@ATL@@QAEXXZ 10021560 f i FiscalPrinter.obj
 0001:00020650       ?TranslateAcceleratorW@?$IOleInPlaceActiveObjectImpl@VCOPOSFiscalPrinter@@@ATL@@UAGJPAUtagMSG@@@Z 10021650 f i FiscalPrinter.obj
 0001:00020850       ?UIDeactivate@?$IOleInPlaceObjectWindowlessImpl@VCOPOSFiscalPrinter@@@ATL@@UAGJXZ 10021850 f i FiscalPrinter.obj
 0001:000208d0       ?Unadvise@?$CProxy_IOPOSEvents@VCOPOSFiscalPrinter@@@@UAGJK@Z 100218d0 f i FiscalPrinter.obj
 0001:00020910       ?Unadvise@?$IConnectionPointImpl@VCOPOSFiscalPrinter@@$1?DIID__IOPOSFiscalPrinterEvents@@3U_GUID@@BVCComDynamicUnkArray@ATL@@@ATL@@UAGJK@Z 10021910 f i FiscalPrinter.obj
 0001:000209e0       ?Unadvise@?$IConnectionPointImpl@VCOPOSFiscalPrinter@@$1?IID_IPropertyNotifySink@@3U_GUID@@BVCComDynamicUnkArray@ATL@@@ATL@@UAGJK@Z 100219e0 f i FiscalPrinter.obj
 0001:00020ab0       ?Unadvise@?$IOleObjectImpl@VCOPOSFiscalPrinter@@@ATL@@UAGJK@Z 10021ab0 f i FiscalPrinter.obj
 0001:00020b80       ?Unfreeze@?$IViewObjectExImpl@VCOPOSFiscalPrinter@@@ATL@@UAGJK@Z 10021b80 f i FiscalPrinter.obj
 0001:00020bf0       ?Unlock@?$CComCritSecLock@VCComCriticalSection@ATL@@@ATL@@QAEXXZ 10021bf0 f i FiscalPrinter.obj
 0001:00020c60       ?Unlock@?$CComObjectRootEx@VCComSingleThreadModel@ATL@@@ATL@@QAEXXZ 10021c60 f i FiscalPrinter.obj
 0001:00020c80       ?Unlock@CAtlModule@ATL@@UAEJXZ 10021c80 f i FiscalPrinter.obj
 0001:00020cb0       ?Unlock@CComCriticalSection@ATL@@QAEJXZ 10021cb0 f i FiscalPrinter.obj
 0001:00020cf0       ?Unlock@CComFakeCriticalSection@ATL@@QAEJXZ 10021cf0 f i FiscalPrinter.obj
 0001:00020d10       ?UnregisterServer@?$CAtlModuleT@VCComModule@ATL@@@ATL@@QAEJHPBU_GUID@@@Z 10021d10 f i FiscalPrinter.obj
 0001:00020d80       ?UnregisterServer@CAtlComModule@ATL@@QAEJHPBU_GUID@@@Z 10021d80 f i FiscalPrinter.obj
 0001:00020db0       ?UnregisterServer@CComModule@ATL@@QAEJHPBU_GUID@@@Z 10021db0 f i FiscalPrinter.obj
 0001:00020e90       ?Update@?$IOleObjectImpl@VCOPOSFiscalPrinter@@@ATL@@UAGJXZ 10021e90 f i FiscalPrinter.obj
 0001:00020ef0       ?UpdateRegistryFromResource@CAtlModule@ATL@@QAGJIHPAU_ATL_REGMAP_ENTRY@2@@Z 10021ef0 f i FiscalPrinter.obj
 0001:000213c0       ?UpdateRegistryFromResource@CAtlModule@ATL@@QAGJPB_WHPAU_ATL_REGMAP_ENTRY@2@@Z 100223c0 f i FiscalPrinter.obj
 0001:000218b0       ?UpdateRegistryFromResource@CComModule@ATL@@UAGJIHPAU_ATL_REGMAP_ENTRY@2@@Z 100228b0 f i FiscalPrinter.obj
 0001:000218e0       ?UpdateRegistryFromResource@CComModule@ATL@@UAGJPB_WHPAU_ATL_REGMAP_ENTRY@2@@Z 100228e0 f i FiscalPrinter.obj
 0001:00021910       ?UpdateRegistryFromResourceD@CComModule@ATL@@UAGJIHPAU_ATL_REGMAP_ENTRY@2@@Z 10022910 f i FiscalPrinter.obj
 0001:00021920       ?UpdateRegistryFromResourceD@CComModule@ATL@@UAGJPB_WHPAU_ATL_REGMAP_ENTRY@2@@Z 10022920 f i FiscalPrinter.obj
 0001:00021930       ?VTFromRegType@CRegParser@ATL@@KAHPB_WAAG@Z 10022930 f i FiscalPrinter.obj
 0001:00021a10       ?WindowProc@?$CWindowImplBaseT@VCWindow@ATL@@V?$CWinTraits@$0FGAAAAAA@$0A@@2@@ATL@@SGJPAUHWND__@@IIJ@Z 10022a10 f i FiscalPrinter.obj
 0001:00021c20       ?WriteToStream@CComBSTR@ATL@@QAEJPAUIStream@@@Z 10022c20 f i FiscalPrinter.obj
 0001:00021d80       ?WriteToStream@CComVariant@ATL@@QAEJPAUIStream@@@Z 10022d80 f i FiscalPrinter.obj
 0001:000220c0       ?WriteToStream@CComVariant@ATL@@QAEJPAUIStream@@G@Z 100230c0 f i FiscalPrinter.obj
 0001:00022190       ?_AtlFinalConstruct@CComObjectRootBase@ATL@@QAEJXZ 10023190 f i FiscalPrinter.obj
 0001:000221b0       ?_AtlGetConversionACP@ATL@@YGIXZ 100231b0 f i FiscalPrinter.obj
 0001:000221c0       ?_AtlInitialConstruct@?$CComAggObject@VCOPOSFiscalPrinter@@@ATL@@QAEJXZ 100231c0 f i FiscalPrinter.obj
 0001:00022210       ?_AtlInitialConstruct@?$CComObjectRootEx@VCComMultiThreadModel@ATL@@@ATL@@QAEJXZ 10023210 f i FiscalPrinter.obj
 0001:00022240       ?_AtlInitialConstruct@?$CComObjectRootEx@VCComSingleThreadModel@ATL@@@ATL@@QAEJXZ 10023240 f i FiscalPrinter.obj
 0001:00022260       ?_AtlVerifyStackAvailable@_ATL_SAFE_ALLOCA_IMPL@ATL@@YA_NK@Z 10023260 f i FiscalPrinter.obj
 0001:00022410       ?_GetEntries@?$CComEnum@UIEnumConnectionPoints@@$1?_GUID_b196b285_bab4_101a_b69c_00aa00341d07@@3U__s_GUID@@BPAUIConnectionPoint@@V?$_CopyInterface@UIConnectionPoint@@@ATL@@VCComSingleThreadModel@6@@ATL@@SGPBU_ATL_INTMAP_ENTRY@2@XZ 10023410 f i FiscalPrinter.obj
 0001:00022430       ?_GetEntries@?$CComEnum@UIEnumConnections@@$1?_GUID_b196b287_bab4_101a_b69c_00aa00341d07@@3U__s_GUID@@BUtagCONNECTDATA@@V?$_Copy@UtagCONNECTDATA@@@ATL@@VCComSingleThreadModel@6@@ATL@@SGPBU_ATL_INTMAP_ENTRY@2@XZ 10023430 f i FiscalPrinter.obj
 0001:00022450       ?_GetEntries@CComClassFactory@ATL@@SGPBU_ATL_INTMAP_ENTRY@2@XZ 10023450 f i FiscalPrinter.obj
 0001:00022470       ?_GetEntries@COPOSFiscalPrinter@@SGPBU_ATL_INTMAP_ENTRY@ATL@@XZ 10023470 f i FiscalPrinter.obj
 0001:00022490       ?_GetRawUnknown@COPOSFiscalPrinter@@QAEPAUIUnknown@@XZ 10023490 f i FiscalPrinter.obj
 0001:00022500       ?_GetViewStatus@COPOSFiscalPrinter@@QAEKXZ 10023500 f i FiscalPrinter.obj
 0001:00022520       ?_InternalQueryInterface@?$CComEnum@UIEnumConnectionPoints@@$1?_GUID_b196b285_bab4_101a_b69c_00aa00341d07@@3U__s_GUID@@BPAUIConnectionPoint@@V?$_CopyInterface@UIConnectionPoint@@@ATL@@VCComSingleThreadModel@6@@ATL@@QAEJABU_GUID@@PAPAX@Z 10023520 f i FiscalPrinter.obj
 0001:00022560       ?_InternalQueryInterface@?$CComEnum@UIEnumConnections@@$1?_GUID_b196b287_bab4_101a_b69c_00aa00341d07@@3U__s_GUID@@BUtagCONNECTDATA@@V?$_Copy@UtagCONNECTDATA@@@ATL@@VCComSingleThreadModel@6@@ATL@@QAEJABU_GUID@@PAPAX@Z 10023560 f i FiscalPrinter.obj
 0001:000225a0       ?_InternalQueryInterface@CComClassFactory@ATL@@QAEJABU_GUID@@PAPAX@Z 100235a0 f i FiscalPrinter.obj
 0001:000225e0       ?_InternalQueryInterface@COPOSFiscalPrinter@@QAEJABU_GUID@@PAPAX@Z 100235e0 f i FiscalPrinter.obj
 0001:00022620       ?_LocCPQueryInterface@?$IConnectionPointImpl@VCOPOSFiscalPrinter@@$1?DIID__IOPOSFiscalPrinterEvents@@3U_GUID@@BVCComDynamicUnkArray@ATL@@@ATL@@UAGJABU_GUID@@PAPAX@Z 10023620 f i FiscalPrinter.obj
 0001:000226c0       ?_LocCPQueryInterface@?$IConnectionPointImpl@VCOPOSFiscalPrinter@@$1?IID_IPropertyNotifySink@@3U_GUID@@BVCComDynamicUnkArray@ATL@@@ATL@@UAGJABU_GUID@@PAPAX@Z 100236c0 f i FiscalPrinter.obj
 0001:00022760       ?atlCreate@?$CWindowImpl@VCOPOSFiscalPrinter@@VCWindow@ATL@@V?$CWinTraits@$0FGAAAAAA@$0A@@3@@ATL@@QAEPAUHWND__@@PAU3@V_U_RECT@2@PB_WKKV_U_MENUorID@2@PAX@Z 10023760 f i FiscalPrinter.obj
 0001:00022810       ?atlCreate@?$CWindowImplBaseT@VCWindow@ATL@@V?$CWinTraits@$0FGAAAAAA@$0A@@2@@ATL@@QAEPAUHWND__@@PAU3@V_U_RECT@2@PB_WKKV_U_MENUorID@2@GPAX@Z 10023810 f i FiscalPrinter.obj
 0001:00022990       ?atlCreate@CRegKey@ATL@@QAEJPAUHKEY__@@PB_WPA_WKKPAU_SECURITY_ATTRIBUTES@@PAK@Z 10023990 f i FiscalPrinter.obj
 0001:00022af0       ?begin@CComDynamicUnkArray@ATL@@QAEPAPAUIUnknown@@XZ 10023af0 f i FiscalPrinter.obj
 0001:00022b10       ?copy@?$_Copy@UtagCONNECTDATA@@@ATL@@SAJPAUtagCONNECTDATA@@PBU3@@Z 10023b10 f i FiscalPrinter.obj
 0001:00022bd0       ?copy@?$_CopyInterface@UIConnectionPoint@@@ATL@@SAJPAPAUIConnectionPoint@@PBQAU3@@Z 10023bd0 f i FiscalPrinter.obj
 0001:00022c90       ?destroy@?$_Copy@UtagCONNECTDATA@@@ATL@@SAXPAUtagCONNECTDATA@@@Z 10023c90 f i FiscalPrinter.obj
 0001:00022cd0       ?destroy@?$_CopyInterface@UIConnectionPoint@@@ATL@@SAXPAPAUIConnectionPoint@@@Z 10023cd0 f i FiscalPrinter.obj
 0001:00022d10       ?end@CComDynamicUnkArray@ATL@@QAEPAPAUIUnknown@@XZ 10023d10 f i FiscalPrinter.obj
 0001:00022d30       ?init@?$_Copy@UtagCONNECTDATA@@@ATL@@SAXPAUtagCONNECTDATA@@@Z 10023d30 f i FiscalPrinter.obj
 0001:00022d40       ?init@?$_CopyInterface@UIConnectionPoint@@@ATL@@SAXPAPAUIConnectionPoint@@@Z 10023d40 f i FiscalPrinter.obj
 0001:00022d50       ?memcpy_s@Checked@ATL@@YAXPAXIPBXI@Z 10023d50 f i FiscalPrinter.obj
 0001:00022d80       ?ocscpy_s@@YA_NPA_WIPB_W@Z 10023d80 f i FiscalPrinter.obj
 0001:00022de0       ?ocslen@@YAHPB_W@Z         10023de0 f i FiscalPrinter.obj
 0001:00022e10       ?tcsncpy_s@Checked@ATL@@YAHPA_WIPB_WI@Z 10023e10 f i FiscalPrinter.obj
 0001:00022e40       ?wcscat_s@Checked@ATL@@YAXPA_WIPB_W@Z 10023e40 f i FiscalPrinter.obj
 0001:00022e70       ?wcscpy_s@Checked@ATL@@YAXPA_WIPB_W@Z 10023e70 f i FiscalPrinter.obj
 0001:00022ea0       ?wcsncpy_s@Checked@ATL@@YAHPA_WIPB_WI@Z 10023ea0 f i FiscalPrinter.obj
 0001:00022ed0       ?wcsstr@@YAPA_WPA_WPB_W@Z  10023ed0 f i FiscalPrinter.obj
 0001:00022ef0       _InlineIsEqualGUID         10023ef0 f i FiscalPrinter.obj
 0001:00022f90       _IsEqualGUID               10023f90 f i FiscalPrinter.obj
 0001:00022fe0       ??0COPOSFiscalPrinter@@QAE@XZ 10023fe0 f   FiscalPrinterImpl.obj
 0001:000230f0       ?FinalConstruct@COPOSFiscalPrinter@@QAEJXZ 100240f0 f   FiscalPrinterImpl.obj
 0001:000231c0       ??1COPOSFiscalPrinter@@UAE@XZ 100241c0 f   FiscalPrinterImpl.obj
 0001:000232a0       ?WriteTrace@COPOSFiscalPrinter@@QAAXPB_WZZ 100242a0 f   FiscalPrinterImpl.obj
 0001:00023350       ?WriteTraceString@COPOSFiscalPrinter@@QAEXPB_WPA_W@Z 10024350 f   FiscalPrinterImpl.obj
 0001:000236c0       ?WriteTraceString@COPOSFiscalPrinter@@QAAXPAXHHHPB_WZZ 100246c0 f   FiscalPrinterImpl.obj
 0001:000238f0       ?WriteTraceError@COPOSFiscalPrinter@@QAEXPB_WK@Z 100248f0 f   FiscalPrinterImpl.obj
 0001:000239e0       ?WriteTraceMethods@COPOSFiscalPrinter@@QAEXPAJH@Z 100249e0 f   FiscalPrinterImpl.obj
 0001:00023a50       ?FormatCurrency@COPOSFiscalPrinter@@QAEPB_WTtagCY@@@Z 10024a50 f   FiscalPrinterImpl.obj
 0001:00023b70       ?GetOposProp@COPOSFiscalPrinter@@IAEJPBDJPAJJ@Z 10024b70 f   FiscalPrinterImpl.obj
 0001:00023de0       ?SetOposProp@COPOSFiscalPrinter@@IAEJPBDJJJ@Z 10024de0 f   FiscalPrinterImpl.obj
 0001:00024070       ?GetOposProp@COPOSFiscalPrinter@@IAEJPBDJPAFJ@Z 10025070 f   FiscalPrinterImpl.obj
 0001:00024110       ?SetOposProp@COPOSFiscalPrinter@@IAEJPBDJFJ@Z 10025110 f   FiscalPrinterImpl.obj
 0001:00024170       ?GetOposProp@COPOSFiscalPrinter@@IAEJPBDJPAPA_WJ@Z 10025170 f   FiscalPrinterImpl.obj
 0001:000243f0       ?SetOposProp@COPOSFiscalPrinter@@IAEJPBDJPA_WJ@Z 100253f0 f   FiscalPrinterImpl.obj
 0001:00024730       ?DoInvoke@COPOSFiscalPrinter@@IAEJPBDJPAVOposVariant@@IHPAJ_N@Z 10025730 f   FiscalPrinterImpl.obj
 0001:00025140       ?SetCOFreezeEvents@COPOSFiscalPrinter@@IAEXF@Z 10026140 f   FiscalPrinterImpl.obj
 0001:00025280       ?FreezeEvents@COPOSFiscalPrinter@@MAGJH@Z 10026280 f   FiscalPrinterImpl.obj
 0001:00025360       ?OnDraw@COPOSFiscalPrinter@@MAEJAAUATL_DRAWINFO@@@Z 10026360 f   FiscalPrinterImpl.obj
 0001:00025500       ?SOProcessID@COPOSFiscalPrinter@@UAGJPAJ@Z 10026500 f   FiscalPrinterImpl.obj
 0001:00025540       ?get_OpenResult@COPOSFiscalPrinter@@UAGJPAJ@Z 10026540 f   FiscalPrinterImpl.obj
 0001:00025580       ?get_BinaryConversion@COPOSFiscalPrinter@@UAGJPAJ@Z 10026580 f   FiscalPrinterImpl.obj
 0001:000255b0       ?put_BinaryConversion@COPOSFiscalPrinter@@UAGJJ@Z 100265b0 f   FiscalPrinterImpl.obj
 0001:000255e0       ?get_CapPowerReporting@COPOSFiscalPrinter@@UAGJPAJ@Z 100265e0 f   FiscalPrinterImpl.obj
 0001:00025610       ?get_CheckHealthText@COPOSFiscalPrinter@@UAGJPAPA_W@Z 10026610 f   FiscalPrinterImpl.obj
 0001:00025640       ?get_Claimed@COPOSFiscalPrinter@@UAGJPAF@Z 10026640 f   FiscalPrinterImpl.obj
 0001:00025670       ?get_DeviceEnabled@COPOSFiscalPrinter@@UAGJPAF@Z 10026670 f   FiscalPrinterImpl.obj
 0001:000256a0       ?put_DeviceEnabled@COPOSFiscalPrinter@@UAGJF@Z 100266a0 f   FiscalPrinterImpl.obj
 0001:000256d0       ?get_FreezeEvents@COPOSFiscalPrinter@@UAGJPAF@Z 100266d0 f   FiscalPrinterImpl.obj
 0001:00025700       ?put_FreezeEvents@COPOSFiscalPrinter@@UAGJF@Z 10026700 f   FiscalPrinterImpl.obj
 0001:00025790       ?get_OutputID@COPOSFiscalPrinter@@UAGJPAJ@Z 10026790 f   FiscalPrinterImpl.obj
 0001:000257c0       ?get_PowerNotify@COPOSFiscalPrinter@@UAGJPAJ@Z 100267c0 f   FiscalPrinterImpl.obj
 0001:000257f0       ?put_PowerNotify@COPOSFiscalPrinter@@UAGJJ@Z 100267f0 f   FiscalPrinterImpl.obj
 0001:00025820       ?get_PowerState@COPOSFiscalPrinter@@UAGJPAJ@Z 10026820 f   FiscalPrinterImpl.obj
 0001:00025850       ?get_ResultCode@COPOSFiscalPrinter@@UAGJPAJ@Z 10026850 f   FiscalPrinterImpl.obj
 0001:000258e0       ?get_ResultCodeExtended@COPOSFiscalPrinter@@UAGJPAJ@Z 100268e0 f   FiscalPrinterImpl.obj
 0001:00025910       ?get_State@COPOSFiscalPrinter@@UAGJPAJ@Z 10026910 f   FiscalPrinterImpl.obj
 0001:00025960       ?get_ControlObjectDescription@COPOSFiscalPrinter@@UAGJPAPA_W@Z 10026960 f   FiscalPrinterImpl.obj
 0001:000259e0       ?get_ControlObjectVersion@COPOSFiscalPrinter@@UAGJPAJ@Z 100269e0 f   FiscalPrinterImpl.obj
 0001:00025a20       ?get_ServiceObjectDescription@COPOSFiscalPrinter@@UAGJPAPA_W@Z 10026a20 f   FiscalPrinterImpl.obj
 0001:00025a50       ?get_ServiceObjectVersion@COPOSFiscalPrinter@@UAGJPAJ@Z 10026a50 f   FiscalPrinterImpl.obj
 0001:00025a80       ?get_DeviceDescription@COPOSFiscalPrinter@@UAGJPAPA_W@Z 10026a80 f   FiscalPrinterImpl.obj
 0001:00025ab0       ?get_DeviceName@COPOSFiscalPrinter@@UAGJPAPA_W@Z 10026ab0 f   FiscalPrinterImpl.obj
 0001:00025ae0       ?CheckHealth@COPOSFiscalPrinter@@UAGJJPAJ@Z 10026ae0 f   FiscalPrinterImpl.obj
 0001:00025b80       ?ClaimDevice@COPOSFiscalPrinter@@UAGJJPAJ@Z 10026b80 f   FiscalPrinterImpl.obj
 0001:00025c60       ?ClearOutput@COPOSFiscalPrinter@@UAGJPAJ@Z 10026c60 f   FiscalPrinterImpl.obj
 0001:00025c90       ?Close@COPOSFiscalPrinter@@UAGJPAJ@Z 10026c90 f   FiscalPrinterImpl.obj
 0001:00025d60       ?DirectIO@COPOSFiscalPrinter@@UAGJJPAJPAPA_W0@Z 10026d60 f   FiscalPrinterImpl.obj
 0001:00025e70       ?Open@COPOSFiscalPrinter@@UAGJPA_WPAJ@Z 10026e70 f   FiscalPrinterImpl.obj
 0001:00027060       ?ReleaseDevice@COPOSFiscalPrinter@@UAGJPAJ@Z 10028060 f   FiscalPrinterImpl.obj
 0001:000270d0       ?get_AmountDecimalPlaces@COPOSFiscalPrinter@@UAGJPAJ@Z 100280d0 f   FiscalPrinterImpl.obj
 0001:00027100       ?get_AsyncMode@COPOSFiscalPrinter@@UAGJPAF@Z 10028100 f   FiscalPrinterImpl.obj
 0001:00027130       ?put_AsyncMode@COPOSFiscalPrinter@@UAGJF@Z 10028130 f   FiscalPrinterImpl.obj
 0001:00027160       ?get_CapAdditionalLines@COPOSFiscalPrinter@@UAGJPAF@Z 10028160 f   FiscalPrinterImpl.obj
 0001:00027190       ?get_CapAmountAdjustment@COPOSFiscalPrinter@@UAGJPAF@Z 10028190 f   FiscalPrinterImpl.obj
 0001:000271c0       ?get_CapAmountNotPaid@COPOSFiscalPrinter@@UAGJPAF@Z 100281c0 f   FiscalPrinterImpl.obj
 0001:000271f0       ?get_CapCheckTotal@COPOSFiscalPrinter@@UAGJPAF@Z 100281f0 f   FiscalPrinterImpl.obj
 0001:00027220       ?get_CapCoverSensor@COPOSFiscalPrinter@@UAGJPAF@Z 10028220 f   FiscalPrinterImpl.obj
 0001:00027250       ?get_CapDoubleWidth@COPOSFiscalPrinter@@UAGJPAF@Z 10028250 f   FiscalPrinterImpl.obj
 0001:00027280       ?get_CapDuplicateReceipt@COPOSFiscalPrinter@@UAGJPAF@Z 10028280 f   FiscalPrinterImpl.obj
 0001:000272b0       ?get_CapFixedOutput@COPOSFiscalPrinter@@UAGJPAF@Z 100282b0 f   FiscalPrinterImpl.obj
 0001:000272e0       ?get_CapHasVatTable@COPOSFiscalPrinter@@UAGJPAF@Z 100282e0 f   FiscalPrinterImpl.obj
 0001:00027310       ?get_CapIndependentHeader@COPOSFiscalPrinter@@UAGJPAF@Z 10028310 f   FiscalPrinterImpl.obj
 0001:00027340       ?get_CapItemList@COPOSFiscalPrinter@@UAGJPAF@Z 10028340 f   FiscalPrinterImpl.obj
 0001:00027370       ?get_CapJrnEmptySensor@COPOSFiscalPrinter@@UAGJPAF@Z 10028370 f   FiscalPrinterImpl.obj
 0001:000273a0       ?get_CapJrnNearEndSensor@COPOSFiscalPrinter@@UAGJPAF@Z 100283a0 f   FiscalPrinterImpl.obj
 0001:000273d0       ?get_CapJrnPresent@COPOSFiscalPrinter@@UAGJPAF@Z 100283d0 f   FiscalPrinterImpl.obj
 0001:00027400       ?get_CapNonFiscalMode@COPOSFiscalPrinter@@UAGJPAF@Z 10028400 f   FiscalPrinterImpl.obj
 0001:00027430       ?get_CapOrderAdjustmentFirst@COPOSFiscalPrinter@@UAGJPAF@Z 10028430 f   FiscalPrinterImpl.obj
 0001:00027460       ?get_CapPercentAdjustment@COPOSFiscalPrinter@@UAGJPAF@Z 10028460 f   FiscalPrinterImpl.obj
 0001:00027490       ?get_CapPositiveAdjustment@COPOSFiscalPrinter@@UAGJPAF@Z 10028490 f   FiscalPrinterImpl.obj
 0001:000274c0       ?get_CapPowerLossReport@COPOSFiscalPrinter@@UAGJPAF@Z 100284c0 f   FiscalPrinterImpl.obj
 0001:000274f0       ?get_CapPredefinedPaymentLines@COPOSFiscalPrinter@@UAGJPAF@Z 100284f0 f   FiscalPrinterImpl.obj
 0001:00027520       ?get_CapReceiptNotPaid@COPOSFiscalPrinter@@UAGJPAF@Z 10028520 f   FiscalPrinterImpl.obj
 0001:00027550       ?get_CapRecEmptySensor@COPOSFiscalPrinter@@UAGJPAF@Z 10028550 f   FiscalPrinterImpl.obj
 0001:00027580       ?get_CapRecNearEndSensor@COPOSFiscalPrinter@@UAGJPAF@Z 10028580 f   FiscalPrinterImpl.obj
 0001:000275b0       ?get_CapRecPresent@COPOSFiscalPrinter@@UAGJPAF@Z 100285b0 f   FiscalPrinterImpl.obj
 0001:000275e0       ?get_CapRemainingFiscalMemory@COPOSFiscalPrinter@@UAGJPAF@Z 100285e0 f   FiscalPrinterImpl.obj
 0001:00027610       ?get_CapReservedWord@COPOSFiscalPrinter@@UAGJPAF@Z 10028610 f   FiscalPrinterImpl.obj
 0001:00027640       ?get_CapSetHeader@COPOSFiscalPrinter@@UAGJPAF@Z 10028640 f   FiscalPrinterImpl.obj
 0001:00027670       ?get_CapSetPOSID@COPOSFiscalPrinter@@UAGJPAF@Z 10028670 f   FiscalPrinterImpl.obj
 0001:000276a0       ?get_CapSetStoreFiscalID@COPOSFiscalPrinter@@UAGJPAF@Z 100286a0 f   FiscalPrinterImpl.obj
 0001:000276d0       ?get_CapSetTrailer@COPOSFiscalPrinter@@UAGJPAF@Z 100286d0 f   FiscalPrinterImpl.obj
 0001:00027700       ?get_CapSetVatTable@COPOSFiscalPrinter@@UAGJPAF@Z 10028700 f   FiscalPrinterImpl.obj
 0001:00027730       ?get_CapSlpEmptySensor@COPOSFiscalPrinter@@UAGJPAF@Z 10028730 f   FiscalPrinterImpl.obj
 0001:00027760       ?get_CapSlpFiscalDocument@COPOSFiscalPrinter@@UAGJPAF@Z 10028760 f   FiscalPrinterImpl.obj
 0001:00027790       ?get_CapSlpFullSlip@COPOSFiscalPrinter@@UAGJPAF@Z 10028790 f   FiscalPrinterImpl.obj
 0001:000277c0       ?get_CapSlpNearEndSensor@COPOSFiscalPrinter@@UAGJPAF@Z 100287c0 f   FiscalPrinterImpl.obj
 0001:000277f0       ?get_CapSlpPresent@COPOSFiscalPrinter@@UAGJPAF@Z 100287f0 f   FiscalPrinterImpl.obj
 0001:00027820       ?get_CapSlpValidation@COPOSFiscalPrinter@@UAGJPAF@Z 10028820 f   FiscalPrinterImpl.obj
 0001:00027850       ?get_CapSubAmountAdjustment@COPOSFiscalPrinter@@UAGJPAF@Z 10028850 f   FiscalPrinterImpl.obj
 0001:00027880       ?get_CapSubPercentAdjustment@COPOSFiscalPrinter@@UAGJPAF@Z 10028880 f   FiscalPrinterImpl.obj
 0001:000278b0       ?get_CapSubtotal@COPOSFiscalPrinter@@UAGJPAF@Z 100288b0 f   FiscalPrinterImpl.obj
 0001:000278e0       ?get_CapTrainingMode@COPOSFiscalPrinter@@UAGJPAF@Z 100288e0 f   FiscalPrinterImpl.obj
 0001:00027910       ?get_CapValidateJournal@COPOSFiscalPrinter@@UAGJPAF@Z 10028910 f   FiscalPrinterImpl.obj
 0001:00027940       ?get_CapXReport@COPOSFiscalPrinter@@UAGJPAF@Z 10028940 f   FiscalPrinterImpl.obj
 0001:00027970       ?get_CheckTotal@COPOSFiscalPrinter@@UAGJPAF@Z 10028970 f   FiscalPrinterImpl.obj
 0001:000279a0       ?put_CheckTotal@COPOSFiscalPrinter@@UAGJF@Z 100289a0 f   FiscalPrinterImpl.obj
 0001:000279d0       ?get_CountryCode@COPOSFiscalPrinter@@UAGJPAJ@Z 100289d0 f   FiscalPrinterImpl.obj
 0001:00027a00       ?get_CoverOpen@COPOSFiscalPrinter@@UAGJPAF@Z 10028a00 f   FiscalPrinterImpl.obj
 0001:00027a30       ?get_DayOpened@COPOSFiscalPrinter@@UAGJPAF@Z 10028a30 f   FiscalPrinterImpl.obj
 0001:00027a60       ?get_DescriptionLength@COPOSFiscalPrinter@@UAGJPAJ@Z 10028a60 f   FiscalPrinterImpl.obj
 0001:00027a90       ?get_DuplicateReceipt@COPOSFiscalPrinter@@UAGJPAF@Z 10028a90 f   FiscalPrinterImpl.obj
 0001:00027ac0       ?put_DuplicateReceipt@COPOSFiscalPrinter@@UAGJF@Z 10028ac0 f   FiscalPrinterImpl.obj
 0001:00027af0       ?get_ErrorLevel@COPOSFiscalPrinter@@UAGJPAJ@Z 10028af0 f   FiscalPrinterImpl.obj
 0001:00027b20       ?get_ErrorOutID@COPOSFiscalPrinter@@UAGJPAJ@Z 10028b20 f   FiscalPrinterImpl.obj
 0001:00027b50       ?get_ErrorState@COPOSFiscalPrinter@@UAGJPAJ@Z 10028b50 f   FiscalPrinterImpl.obj
 0001:00027b80       ?get_ErrorStation@COPOSFiscalPrinter@@UAGJPAJ@Z 10028b80 f   FiscalPrinterImpl.obj
 0001:00027bb0       ?get_ErrorString@COPOSFiscalPrinter@@UAGJPAPA_W@Z 10028bb0 f   FiscalPrinterImpl.obj
 0001:00027be0       ?get_FlagWhenIdle@COPOSFiscalPrinter@@UAGJPAF@Z 10028be0 f   FiscalPrinterImpl.obj
 0001:00027c10       ?put_FlagWhenIdle@COPOSFiscalPrinter@@UAGJF@Z 10028c10 f   FiscalPrinterImpl.obj
 0001:00027c40       ?get_JrnEmpty@COPOSFiscalPrinter@@UAGJPAF@Z 10028c40 f   FiscalPrinterImpl.obj
 0001:00027c70       ?get_JrnNearEnd@COPOSFiscalPrinter@@UAGJPAF@Z 10028c70 f   FiscalPrinterImpl.obj
 0001:00027ca0       ?get_MessageLength@COPOSFiscalPrinter@@UAGJPAJ@Z 10028ca0 f   FiscalPrinterImpl.obj
 0001:00027cd0       ?get_NumHeaderLines@COPOSFiscalPrinter@@UAGJPAJ@Z 10028cd0 f   FiscalPrinterImpl.obj
 0001:00027d00       ?get_NumTrailerLines@COPOSFiscalPrinter@@UAGJPAJ@Z 10028d00 f   FiscalPrinterImpl.obj
 0001:00027d30       ?get_NumVatRates@COPOSFiscalPrinter@@UAGJPAJ@Z 10028d30 f   FiscalPrinterImpl.obj
 0001:00027d60       ?get_PredefinedPaymentLines@COPOSFiscalPrinter@@UAGJPAPA_W@Z 10028d60 f   FiscalPrinterImpl.obj
 0001:00027d90       ?get_PrinterState@COPOSFiscalPrinter@@UAGJPAJ@Z 10028d90 f   FiscalPrinterImpl.obj
 0001:00027dc0       ?get_QuantityDecimalPlaces@COPOSFiscalPrinter@@UAGJPAJ@Z 10028dc0 f   FiscalPrinterImpl.obj
 0001:00027df0       ?get_QuantityLength@COPOSFiscalPrinter@@UAGJPAJ@Z 10028df0 f   FiscalPrinterImpl.obj
 0001:00027e20       ?get_RecEmpty@COPOSFiscalPrinter@@UAGJPAF@Z 10028e20 f   FiscalPrinterImpl.obj
 0001:00027e50       ?get_RecNearEnd@COPOSFiscalPrinter@@UAGJPAF@Z 10028e50 f   FiscalPrinterImpl.obj
 0001:00027e80       ?get_RemainingFiscalMemory@COPOSFiscalPrinter@@UAGJPAJ@Z 10028e80 f   FiscalPrinterImpl.obj
 0001:00027eb0       ?get_ReservedWord@COPOSFiscalPrinter@@UAGJPAPA_W@Z 10028eb0 f   FiscalPrinterImpl.obj
 0001:00027ee0       ?get_SlipSelection@COPOSFiscalPrinter@@UAGJPAJ@Z 10028ee0 f   FiscalPrinterImpl.obj
 0001:00027f10       ?put_SlipSelection@COPOSFiscalPrinter@@UAGJJ@Z 10028f10 f   FiscalPrinterImpl.obj
 0001:00027f40       ?get_SlpEmpty@COPOSFiscalPrinter@@UAGJPAF@Z 10028f40 f   FiscalPrinterImpl.obj
 0001:00027f70       ?get_SlpNearEnd@COPOSFiscalPrinter@@UAGJPAF@Z 10028f70 f   FiscalPrinterImpl.obj
 0001:00027fa0       ?get_TrainingModeActive@COPOSFiscalPrinter@@UAGJPAF@Z 10028fa0 f   FiscalPrinterImpl.obj
 0001:00027fd0       ?BeginFiscalDocument@COPOSFiscalPrinter@@UAGJJPAJ@Z 10028fd0 f   FiscalPrinterImpl.obj
 0001:00028070       ?BeginFiscalReceipt@COPOSFiscalPrinter@@UAGJFPAJ@Z 10029070 f   FiscalPrinterImpl.obj
 0001:00028110       ?BeginFixedOutput@COPOSFiscalPrinter@@UAGJJJPAJ@Z 10029110 f   FiscalPrinterImpl.obj
 0001:000281e0       ?BeginInsertion@COPOSFiscalPrinter@@UAGJJPAJ@Z 100291e0 f   FiscalPrinterImpl.obj
 0001:00028280       ?BeginItemList@COPOSFiscalPrinter@@UAGJJPAJ@Z 10029280 f   FiscalPrinterImpl.obj
 0001:00028320       ?BeginNonFiscal@COPOSFiscalPrinter@@UAGJPAJ@Z 10029320 f   FiscalPrinterImpl.obj
 0001:00028350       ?BeginRemoval@COPOSFiscalPrinter@@UAGJJPAJ@Z 10029350 f   FiscalPrinterImpl.obj
 0001:000283f0       ?BeginTraining@COPOSFiscalPrinter@@UAGJPAJ@Z 100293f0 f   FiscalPrinterImpl.obj
 0001:00028420       ?ClearError@COPOSFiscalPrinter@@UAGJPAJ@Z 10029420 f   FiscalPrinterImpl.obj
 0001:00028450       ?EndFiscalDocument@COPOSFiscalPrinter@@UAGJPAJ@Z 10029450 f   FiscalPrinterImpl.obj
 0001:00028480       ?EndFiscalReceipt@COPOSFiscalPrinter@@UAGJFPAJ@Z 10029480 f   FiscalPrinterImpl.obj
 0001:00028520       ?EndFixedOutput@COPOSFiscalPrinter@@UAGJPAJ@Z 10029520 f   FiscalPrinterImpl.obj
 0001:00028550       ?EndInsertion@COPOSFiscalPrinter@@UAGJPAJ@Z 10029550 f   FiscalPrinterImpl.obj
 0001:00028580       ?EndItemList@COPOSFiscalPrinter@@UAGJPAJ@Z 10029580 f   FiscalPrinterImpl.obj
 0001:000285b0       ?EndNonFiscal@COPOSFiscalPrinter@@UAGJPAJ@Z 100295b0 f   FiscalPrinterImpl.obj
 0001:000285e0       ?EndRemoval@COPOSFiscalPrinter@@UAGJPAJ@Z 100295e0 f   FiscalPrinterImpl.obj
 0001:00028610       ?EndTraining@COPOSFiscalPrinter@@UAGJPAJ@Z 10029610 f   FiscalPrinterImpl.obj
 0001:00028640       ?GetData@COPOSFiscalPrinter@@UAGJJPAJPAPA_W0@Z 10029640 f   FiscalPrinterImpl.obj
 0001:00028750       ?GetDate@COPOSFiscalPrinter@@UAGJPAPA_WPAJ@Z 10029750 f   FiscalPrinterImpl.obj
 0001:00028800       ?GetTotalizer@COPOSFiscalPrinter@@UAGJJJPAPA_WPAJ@Z 10029800 f   FiscalPrinterImpl.obj
 0001:00028910       ?GetVatEntry@COPOSFiscalPrinter@@UAGJJJPAJ0@Z 10029910 f   FiscalPrinterImpl.obj
 0001:00028a20       ?PrintDuplicateReceipt@COPOSFiscalPrinter@@UAGJPAJ@Z 10029a20 f   FiscalPrinterImpl.obj
 0001:00028a50       ?PrintFiscalDocumentLine@COPOSFiscalPrinter@@UAGJPA_WPAJ@Z 10029a50 f   FiscalPrinterImpl.obj
 0001:00028b00       ?PrintFixedOutput@COPOSFiscalPrinter@@UAGJJJPA_WPAJ@Z 10029b00 f   FiscalPrinterImpl.obj
 0001:00028c10       ?PrintNormal@COPOSFiscalPrinter@@UAGJJPA_WPAJ@Z 10029c10 f   FiscalPrinterImpl.obj
 0001:00028d00       ?PrintPeriodicTotalsReport@COPOSFiscalPrinter@@UAGJPA_W0PAJ@Z 10029d00 f   FiscalPrinterImpl.obj
 0001:00028df0       ?PrintPowerLossReport@COPOSFiscalPrinter@@UAGJPAJ@Z 10029df0 f   FiscalPrinterImpl.obj
 0001:00028e20       ?PrintRecItem@COPOSFiscalPrinter@@UAGJPA_WTtagCY@@JJ10PAJ@Z 10029e20 f   FiscalPrinterImpl.obj
 0001:00028fb0       ?PrintRecItemAdjustment@COPOSFiscalPrinter@@UAGJJPA_WTtagCY@@JPAJ@Z 10029fb0 f   FiscalPrinterImpl.obj
 0001:000290e0       ?PrintRecMessage@COPOSFiscalPrinter@@UAGJPA_WPAJ@Z 1002a0e0 f   FiscalPrinterImpl.obj
 0001:00029190       ?PrintRecNotPaid@COPOSFiscalPrinter@@UAGJPA_WTtagCY@@PAJ@Z 1002a190 f   FiscalPrinterImpl.obj
 0001:00029280       ?PrintRecRefund@COPOSFiscalPrinter@@UAGJPA_WTtagCY@@JPAJ@Z 1002a280 f   FiscalPrinterImpl.obj
 0001:00029390       ?PrintRecSubtotal@COPOSFiscalPrinter@@UAGJTtagCY@@PAJ@Z 1002a390 f   FiscalPrinterImpl.obj
 0001:00029440       ?PrintRecSubtotalAdjustment@COPOSFiscalPrinter@@UAGJJPA_WTtagCY@@PAJ@Z 1002a440 f   FiscalPrinterImpl.obj
 0001:00029550       ?PrintRecTotal@COPOSFiscalPrinter@@UAGJTtagCY@@0PA_WPAJ@Z 1002a550 f   FiscalPrinterImpl.obj
 0001:00029670       ?PrintRecVoid@COPOSFiscalPrinter@@UAGJPA_WPAJ@Z 1002a670 f   FiscalPrinterImpl.obj
 0001:00029720       ?PrintRecVoidItem@COPOSFiscalPrinter@@UAGJPA_WTtagCY@@JJ1JPAJ@Z 1002a720 f   FiscalPrinterImpl.obj
 0001:000298b0       ?PrintReport@COPOSFiscalPrinter@@UAGJJPA_W0PAJ@Z 1002a8b0 f   FiscalPrinterImpl.obj
 0001:000299c0       ?PrintXReport@COPOSFiscalPrinter@@UAGJPAJ@Z 1002a9c0 f   FiscalPrinterImpl.obj
 0001:000299f0       ?PrintZReport@COPOSFiscalPrinter@@UAGJPAJ@Z 1002a9f0 f   FiscalPrinterImpl.obj
 0001:00029a20       ?ResetPrinterW@COPOSFiscalPrinter@@UAGJPAJ@Z 1002aa20 f   FiscalPrinterImpl.obj
 0001:00029a50       ?SetDate@COPOSFiscalPrinter@@UAGJPA_WPAJ@Z 1002aa50 f   FiscalPrinterImpl.obj
 0001:00029b00       ?SetHeaderLine@COPOSFiscalPrinter@@UAGJJPA_WFPAJ@Z 1002ab00 f   FiscalPrinterImpl.obj
 0001:00029c10       ?SetPOSID@COPOSFiscalPrinter@@UAGJPA_W0PAJ@Z 1002ac10 f   FiscalPrinterImpl.obj
 0001:00029d00       ?SetStoreFiscalID@COPOSFiscalPrinter@@UAGJPA_WPAJ@Z 1002ad00 f   FiscalPrinterImpl.obj
 0001:00029db0       ?SetTrailerLine@COPOSFiscalPrinter@@UAGJJPA_WFPAJ@Z 1002adb0 f   FiscalPrinterImpl.obj
 0001:00029ec0       ?SetVatTable@COPOSFiscalPrinter@@UAGJPAJ@Z 1002aec0 f   FiscalPrinterImpl.obj
 0001:00029ef0       ?SetVatValue@COPOSFiscalPrinter@@UAGJJPA_WPAJ@Z 1002aef0 f   FiscalPrinterImpl.obj
 0001:00029fe0       ?VerifyItem@COPOSFiscalPrinter@@UAGJPA_WJPAJ@Z 1002afe0 f   FiscalPrinterImpl.obj
 0001:0002a0d0       ?get_ActualCurrency@COPOSFiscalPrinter@@UAGJPAJ@Z 1002b0d0 f   FiscalPrinterImpl.obj
 0001:0002a100       ?get_AdditionalHeader@COPOSFiscalPrinter@@UAGJPAPA_W@Z 1002b100 f   FiscalPrinterImpl.obj
 0001:0002a130       ?put_AdditionalHeader@COPOSFiscalPrinter@@UAGJPA_W@Z 1002b130 f   FiscalPrinterImpl.obj
 0001:0002a160       ?get_AdditionalTrailer@COPOSFiscalPrinter@@UAGJPAPA_W@Z 1002b160 f   FiscalPrinterImpl.obj
 0001:0002a190       ?put_AdditionalTrailer@COPOSFiscalPrinter@@UAGJPA_W@Z 1002b190 f   FiscalPrinterImpl.obj
 0001:0002a1c0       ?get_CapAdditionalHeader@COPOSFiscalPrinter@@UAGJPAF@Z 1002b1c0 f   FiscalPrinterImpl.obj
 0001:0002a1f0       ?get_CapAdditionalTrailer@COPOSFiscalPrinter@@UAGJPAF@Z 1002b1f0 f   FiscalPrinterImpl.obj
 0001:0002a220       ?get_CapChangeDue@COPOSFiscalPrinter@@UAGJPAF@Z 1002b220 f   FiscalPrinterImpl.obj
 0001:0002a250       ?get_CapEmptyReceiptIsVoidable@COPOSFiscalPrinter@@UAGJPAF@Z 1002b250 f   FiscalPrinterImpl.obj
 0001:0002a280       ?get_CapFiscalReceiptStation@COPOSFiscalPrinter@@UAGJPAF@Z 1002b280 f   FiscalPrinterImpl.obj
 0001:0002a2b0       ?get_CapFiscalReceiptType@COPOSFiscalPrinter@@UAGJPAF@Z 1002b2b0 f   FiscalPrinterImpl.obj
 0001:0002a2e0       ?get_CapMultiContractor@COPOSFiscalPrinter@@UAGJPAF@Z 1002b2e0 f   FiscalPrinterImpl.obj
 0001:0002a310       ?get_CapOnlyVoidLastItem@COPOSFiscalPrinter@@UAGJPAF@Z 1002b310 f   FiscalPrinterImpl.obj
 0001:0002a340       ?get_CapPackageAdjustment@COPOSFiscalPrinter@@UAGJPAF@Z 1002b340 f   FiscalPrinterImpl.obj
 0001:0002a370       ?get_CapPostPreLine@COPOSFiscalPrinter@@UAGJPAF@Z 1002b370 f   FiscalPrinterImpl.obj
 0001:0002a3a0       ?get_CapSetCurrency@COPOSFiscalPrinter@@UAGJPAF@Z 1002b3a0 f   FiscalPrinterImpl.obj
 0001:0002a3d0       ?get_CapTotalizerType@COPOSFiscalPrinter@@UAGJPAF@Z 1002b3d0 f   FiscalPrinterImpl.obj
 0001:0002a400       ?get_ChangeDue@COPOSFiscalPrinter@@UAGJPAPA_W@Z 1002b400 f   FiscalPrinterImpl.obj
 0001:0002a430       ?put_ChangeDue@COPOSFiscalPrinter@@UAGJPA_W@Z 1002b430 f   FiscalPrinterImpl.obj
 0001:0002a460       ?get_ContractorId@COPOSFiscalPrinter@@UAGJPAJ@Z 1002b460 f   FiscalPrinterImpl.obj
 0001:0002a490       ?put_ContractorId@COPOSFiscalPrinter@@UAGJJ@Z 1002b490 f   FiscalPrinterImpl.obj
 0001:0002a4c0       ?get_DateType@COPOSFiscalPrinter@@UAGJPAJ@Z 1002b4c0 f   FiscalPrinterImpl.obj
 0001:0002a4f0       ?put_DateType@COPOSFiscalPrinter@@UAGJJ@Z 1002b4f0 f   FiscalPrinterImpl.obj
 0001:0002a520       ?get_FiscalReceiptStation@COPOSFiscalPrinter@@UAGJPAJ@Z 1002b520 f   FiscalPrinterImpl.obj
 0001:0002a550       ?put_FiscalReceiptStation@COPOSFiscalPrinter@@UAGJJ@Z 1002b550 f   FiscalPrinterImpl.obj
 0001:0002a580       ?get_FiscalReceiptType@COPOSFiscalPrinter@@UAGJPAJ@Z 1002b580 f   FiscalPrinterImpl.obj
 0001:0002a5b0       ?put_FiscalReceiptType@COPOSFiscalPrinter@@UAGJJ@Z 1002b5b0 f   FiscalPrinterImpl.obj
 0001:0002a5e0       ?get_MessageType@COPOSFiscalPrinter@@UAGJPAJ@Z 1002b5e0 f   FiscalPrinterImpl.obj
 0001:0002a610       ?put_MessageType@COPOSFiscalPrinter@@UAGJJ@Z 1002b610 f   FiscalPrinterImpl.obj
 0001:0002a640       ?get_PostLine@COPOSFiscalPrinter@@UAGJPAPA_W@Z 1002b640 f   FiscalPrinterImpl.obj
 0001:0002a670       ?put_PostLine@COPOSFiscalPrinter@@UAGJPA_W@Z 1002b670 f   FiscalPrinterImpl.obj
 0001:0002a6a0       ?get_PreLine@COPOSFiscalPrinter@@UAGJPAPA_W@Z 1002b6a0 f   FiscalPrinterImpl.obj
 0001:0002a6d0       ?put_PreLine@COPOSFiscalPrinter@@UAGJPA_W@Z 1002b6d0 f   FiscalPrinterImpl.obj
 0001:0002a700       ?get_TotalizerType@COPOSFiscalPrinter@@UAGJPAJ@Z 1002b700 f   FiscalPrinterImpl.obj
 0001:0002a730       ?put_TotalizerType@COPOSFiscalPrinter@@UAGJJ@Z 1002b730 f   FiscalPrinterImpl.obj
 0001:0002a760       ?PrintRecCash@COPOSFiscalPrinter@@UAGJTtagCY@@PAJ@Z 1002b760 f   FiscalPrinterImpl.obj
 0001:0002a810       ?PrintRecItemFuel@COPOSFiscalPrinter@@UAGJPA_WTtagCY@@JJ1010PAJ@Z 1002b810 f   FiscalPrinterImpl.obj
 0001:0002a9e0       ?PrintRecItemFuelVoid@COPOSFiscalPrinter@@UAGJPA_WTtagCY@@J1PAJ@Z 1002b9e0 f   FiscalPrinterImpl.obj
 0001:0002ab10       ?PrintRecPackageAdjustment@COPOSFiscalPrinter@@UAGJJPA_W0PAJ@Z 1002bb10 f   FiscalPrinterImpl.obj
 0001:0002ac20       ?PrintRecPackageAdjustVoid@COPOSFiscalPrinter@@UAGJJPA_WPAJ@Z 1002bc20 f   FiscalPrinterImpl.obj
 0001:0002ad10       ?PrintRecRefundVoid@COPOSFiscalPrinter@@UAGJPA_WTtagCY@@JPAJ@Z 1002bd10 f   FiscalPrinterImpl.obj
 0001:0002ae20       ?PrintRecSubtotalAdjustVoid@COPOSFiscalPrinter@@UAGJJTtagCY@@PAJ@Z 1002be20 f   FiscalPrinterImpl.obj
 0001:0002aef0       ?PrintRecTaxID@COPOSFiscalPrinter@@UAGJPA_WPAJ@Z 1002bef0 f   FiscalPrinterImpl.obj
 0001:0002afa0       ?SetCurrency@COPOSFiscalPrinter@@UAGJJPAJ@Z 1002bfa0 f   FiscalPrinterImpl.obj
 0001:0002b040       ?get_CapStatisticsReporting@COPOSFiscalPrinter@@UAGJPAF@Z 1002c040 f   FiscalPrinterImpl.obj
 0001:0002b070       ?get_CapUpdateStatistics@COPOSFiscalPrinter@@UAGJPAF@Z 1002c070 f   FiscalPrinterImpl.obj
 0001:0002b0a0       ?ResetStatistics@COPOSFiscalPrinter@@UAGJPA_WPAJ@Z 1002c0a0 f   FiscalPrinterImpl.obj
 0001:0002b150       ?RetrieveStatistics@COPOSFiscalPrinter@@UAGJPAPA_WPAJ@Z 1002c150 f   FiscalPrinterImpl.obj
 0001:0002b200       ?UpdateStatistics@COPOSFiscalPrinter@@UAGJPA_WPAJ@Z 1002c200 f   FiscalPrinterImpl.obj
 0001:0002b2b0       ?get_CapCompareFirmwareVersion@COPOSFiscalPrinter@@UAGJPAF@Z 1002c2b0 f   FiscalPrinterImpl.obj
 0001:0002b2e0       ?get_CapUpdateFirmware@COPOSFiscalPrinter@@UAGJPAF@Z 1002c2e0 f   FiscalPrinterImpl.obj
 0001:0002b310       ?CompareFirmwareVersion@COPOSFiscalPrinter@@UAGJPA_WPAJ1@Z 1002c310 f   FiscalPrinterImpl.obj
 0001:0002b400       ?UpdateFirmware@COPOSFiscalPrinter@@UAGJPA_WPAJ@Z 1002c400 f   FiscalPrinterImpl.obj
 0001:0002b4b0       ?get_CapPositiveSubtotalAdjustment@COPOSFiscalPrinter@@UAGJPAF@Z 1002c4b0 f   FiscalPrinterImpl.obj
 0001:0002b4e0       ?PrintRecItemAdjustmentVoid@COPOSFiscalPrinter@@UAGJJPA_WTtagCY@@JPAJ@Z 1002c4e0 f   FiscalPrinterImpl.obj
 0001:0002b610       ?PrintRecItemVoid@COPOSFiscalPrinter@@UAGJPA_WTtagCY@@JJ10PAJ@Z 1002c610 f   FiscalPrinterImpl.obj
 0001:0002b7a0       ?PrintRecItemRefund@COPOSFiscalPrinter@@UAGJPA_WTtagCY@@JJ10PAJ@Z 1002c7a0 f   FiscalPrinterImpl.obj
 0001:0002b930       ?PrintRecItemRefundVoid@COPOSFiscalPrinter@@UAGJPA_WTtagCY@@JJ10PAJ@Z 1002c930 f   FiscalPrinterImpl.obj
 0001:0002bac0       ??0?$CComControl@VCOPOSFiscalPrinter@@V?$CWindowImpl@VCOPOSFiscalPrinter@@VCWindow@ATL@@V?$CWinTraits@$0FGAAAAAA@$0A@@3@@ATL@@@ATL@@QAE@XZ 1002cac0 f i FiscalPrinterImpl.obj
 0001:0002bb00       ??0?$CComPtr@UIAdviseSink@@@ATL@@QAE@XZ 1002cb00 f i FiscalPrinterImpl.obj
 0001:0002bb30       ??0?$CComPtr@UIDataAdviseHolder@@@ATL@@QAE@XZ 1002cb30 f i FiscalPrinterImpl.obj
 0001:0002bb60       ??0?$CComPtr@UIOleAdviseHolder@@@ATL@@QAE@XZ 1002cb60 f i FiscalPrinterImpl.obj
 0001:0002bb90       ??0?$CComPtr@UIOleClientSite@@@ATL@@QAE@XZ 1002cb90 f i FiscalPrinterImpl.obj
 0001:0002bbc0       ??0?$CComPtr@UIOleInPlaceSiteWindowless@@@ATL@@QAE@XZ 1002cbc0 f i FiscalPrinterImpl.obj
 0001:0002bbf0       ??0?$CComPtrBase@UIAdviseSink@@@ATL@@IAE@XZ 1002cbf0 f i FiscalPrinterImpl.obj
 0001:0002bc10       ??0?$CComPtrBase@UIDataAdviseHolder@@@ATL@@IAE@XZ 1002cc10 f i FiscalPrinterImpl.obj
 0001:0002bc30       ??0?$CComPtrBase@UIOleAdviseHolder@@@ATL@@IAE@XZ 1002cc30 f i FiscalPrinterImpl.obj
 0001:0002bc50       ??0?$CComPtrBase@UIOleClientSite@@@ATL@@IAE@XZ 1002cc50 f i FiscalPrinterImpl.obj
 0001:0002bc70       ??0?$CComPtrBase@UIOleInPlaceSiteWindowless@@@ATL@@IAE@XZ 1002cc70 f i FiscalPrinterImpl.obj
 0001:0002bc90       ??0?$CComQIPtr@UIDispatch@@$1?_GUID_00020400_0000_0000_c000_000000000046@@3U__s_GUID@@B@ATL@@QAE@XZ 1002cc90 f i FiscalPrinterImpl.obj
 0001:0002bcc0       ??0?$CProxy_IOPOSEvents@VCOPOSFiscalPrinter@@@@QAE@PAVCOPOSFiscalPrinter@@@Z 1002ccc0 f i FiscalPrinterImpl.obj
 0001:0002bd30       ??0?$CWindowImpl@VCOPOSFiscalPrinter@@VCWindow@ATL@@V?$CWinTraits@$0FGAAAAAA@$0A@@3@@ATL@@QAE@XZ 1002cd30 f i FiscalPrinterImpl.obj
 0001:0002bd60       ??0?$CWindowImplBaseT@VCWindow@ATL@@V?$CWinTraits@$0FGAAAAAA@$0A@@2@@ATL@@QAE@XZ 1002cd60 f i FiscalPrinterImpl.obj
 0001:0002bda0       ??0?$CWindowImplRoot@VCWindow@ATL@@@ATL@@QAE@XZ 1002cda0 f i FiscalPrinterImpl.obj
 0001:0002be00       ??0?$IConnectionPointContainerImpl@VCOPOSFiscalPrinter@@@ATL@@QAE@XZ 1002ce00 f i FiscalPrinterImpl.obj
 0001:0002be30       ??0?$IConnectionPointImpl@VCOPOSFiscalPrinter@@$1?DIID__IOPOSFiscalPrinterEvents@@3U_GUID@@BVCComDynamicUnkArray@ATL@@@ATL@@QAE@XZ 1002ce30 f i FiscalPrinterImpl.obj
 0001:0002be70       ??0?$IConnectionPointImpl@VCOPOSFiscalPrinter@@$1?IID_IPropertyNotifySink@@3U_GUID@@BVCComDynamicUnkArray@ATL@@@ATL@@QAE@XZ 1002ce70 f i FiscalPrinterImpl.obj
 0001:0002beb0       ??0?$IDataObjectImpl@VCOPOSFiscalPrinter@@@ATL@@QAE@XZ 1002ceb0 f i FiscalPrinterImpl.obj
 0001:0002bee0       ??0?$IDispatchImpl@UIOPOSFiscalPrinter@@$1?IID_IOPOSFiscalPrinter@@3U_GUID@@B$1?LIBID_OposFiscalPrinter_CCO@@3U3@B$00$0A@VCComTypeInfoHolder@ATL@@@ATL@@QAE@XZ 1002cee0 f i FiscalPrinterImpl.obj
 0001:0002bf10       ??0?$IObjectSafetyImpl@VCOPOSFiscalPrinter@@$02@ATL@@QAE@XZ 1002cf10 f i FiscalPrinterImpl.obj
 0001:0002bf50       ??0?$IOleControlImpl@VCOPOSFiscalPrinter@@@ATL@@QAE@XZ 1002cf50 f i FiscalPrinterImpl.obj
 0001:0002bf80       ??0?$IOleInPlaceActiveObjectImpl@VCOPOSFiscalPrinter@@@ATL@@QAE@XZ 1002cf80 f i FiscalPrinterImpl.obj
 0001:0002bfb0       ??0?$IOleInPlaceObjectWindowlessImpl@VCOPOSFiscalPrinter@@@ATL@@QAE@XZ 1002cfb0 f i FiscalPrinterImpl.obj
 0001:0002bfe0       ??0?$IOleObjectImpl@VCOPOSFiscalPrinter@@@ATL@@QAE@XZ 1002cfe0 f i FiscalPrinterImpl.obj
 0001:0002c010       ??0?$IPersistStorageImpl@VCOPOSFiscalPrinter@@@ATL@@QAE@XZ 1002d010 f i FiscalPrinterImpl.obj
 0001:0002c040       ??0?$IPersistStreamInitImpl@VCOPOSFiscalPrinter@@@ATL@@QAE@XZ 1002d040 f i FiscalPrinterImpl.obj
 0001:0002c070       ??0?$IPropertyNotifySinkCP@VCOPOSFiscalPrinter@@VCComDynamicUnkArray@ATL@@@ATL@@QAE@XZ 1002d070 f i FiscalPrinterImpl.obj
 0001:0002c0a0       ??0?$IProvideClassInfo2Impl@$1?CLSID_OPOSFiscalPrinter@@3U_GUID@@B$1?DIID__IOPOSFiscalPrinterEvents@@3U2@B$1?LIBID_OposFiscalPrinter_CCO@@3U2@B$00$0A@VCComTypeInfoHolder@ATL@@@ATL@@QAE@XZ 1002d0a0 f i FiscalPrinterImpl.obj
 0001:0002c0d0       ??0?$IQuickActivateImpl@VCOPOSFiscalPrinter@@@ATL@@QAE@XZ 1002d0d0 f i FiscalPrinterImpl.obj
 0001:0002c100       ??0?$ISpecifyPropertyPagesImpl@VCOPOSFiscalPrinter@@@ATL@@QAE@XZ 1002d100 f i FiscalPrinterImpl.obj
 0001:0002c130       ??0?$IViewObjectExImpl@VCOPOSFiscalPrinter@@@ATL@@QAE@XZ 1002d130 f i FiscalPrinterImpl.obj
 0001:0002c160       ??0?$_ICPLocator@$1?DIID__IOPOSFiscalPrinterEvents@@3U_GUID@@B@ATL@@QAE@XZ 1002d160 f i FiscalPrinterImpl.obj
 0001:0002c180       ??0?$_ICPLocator@$1?IID_IPropertyNotifySink@@3U_GUID@@B@ATL@@QAE@XZ 1002d180 f i FiscalPrinterImpl.obj
 0001:0002c1a0       ??0CComControlBase@ATL@@QAE@AAPAUHWND__@@@Z 1002d1a0 f i FiscalPrinterImpl.obj
 0001:0002c350       ??0CComDynamicUnkArray@ATL@@QAE@XZ 1002d350 f i FiscalPrinterImpl.obj
 0001:0002c380       ??0CDynamicStdCallThunk2@ATL@@QAE@XZ 1002d380 f i FiscalPrinterImpl.obj
 0001:0002c3a0       ??0CMessageMap@ATL@@QAE@XZ 1002d3a0 f i FiscalPrinterImpl.obj
 0001:0002c3c0       ??0CWindow@ATL@@QAE@PAUHWND__@@@Z 1002d3c0 f i FiscalPrinterImpl.obj
 0001:0002c3e0       ??0CWndProcThunk@ATL@@QAE@XZ 1002d3e0 f i FiscalPrinterImpl.obj
 0001:0002c410       ??0IConnectionPointContainer@@QAE@XZ 1002d410 f i FiscalPrinterImpl.obj
 0001:0002c440       ??0IDataObject@@QAE@XZ     1002d440 f i FiscalPrinterImpl.obj
 0001:0002c470       ??0IDispatch@@QAE@XZ       1002d470 f i FiscalPrinterImpl.obj
 0001:0002c4a0       ??0IOPOSFiscalPrinter@@QAE@XZ 1002d4a0 f i FiscalPrinterImpl.obj
 0001:0002c4d0       ??0IOPOSFiscalPrinter_1_11@@QAE@XZ 1002d4d0 f i FiscalPrinterImpl.obj
 0001:0002c500       ??0IOPOSFiscalPrinter_1_12@@QAE@XZ 1002d500 f i FiscalPrinterImpl.obj
 0001:0002c530       ??0IOPOSFiscalPrinter_1_6@@QAE@XZ 1002d530 f i FiscalPrinterImpl.obj
 0001:0002c560       ??0IOPOSFiscalPrinter_1_8@@QAE@XZ 1002d560 f i FiscalPrinterImpl.obj
 0001:0002c590       ??0IOPOSFiscalPrinter_1_9@@QAE@XZ 1002d590 f i FiscalPrinterImpl.obj
 0001:0002c5c0       ??0IObjectSafety@@QAE@XZ   1002d5c0 f i FiscalPrinterImpl.obj
 0001:0002c5f0       ??0IOleControl@@QAE@XZ     1002d5f0 f i FiscalPrinterImpl.obj
 0001:0002c620       ??0IOleInPlaceActiveObject@@QAE@XZ 1002d620 f i FiscalPrinterImpl.obj
 0001:0002c650       ??0IOleInPlaceObject@@QAE@XZ 1002d650 f i FiscalPrinterImpl.obj
 0001:0002c680       ??0IOleInPlaceObjectWindowless@@QAE@XZ 1002d680 f i FiscalPrinterImpl.obj
 0001:0002c6b0       ??0IOleObject@@QAE@XZ      1002d6b0 f i FiscalPrinterImpl.obj
 0001:0002c6e0       ??0IOleWindow@@QAE@XZ      1002d6e0 f i FiscalPrinterImpl.obj
 0001:0002c710       ??0IPersist@@QAE@XZ        1002d710 f i FiscalPrinterImpl.obj
 0001:0002c740       ??0IPersistStorage@@QAE@XZ 1002d740 f i FiscalPrinterImpl.obj
 0001:0002c770       ??0IPersistStreamInit@@QAE@XZ 1002d770 f i FiscalPrinterImpl.obj
 0001:0002c7a0       ??0IProvideClassInfo2@@QAE@XZ 1002d7a0 f i FiscalPrinterImpl.obj
 0001:0002c7d0       ??0IProvideClassInfo@@QAE@XZ 1002d7d0 f i FiscalPrinterImpl.obj
 0001:0002c800       ??0IQuickActivate@@QAE@XZ  1002d800 f i FiscalPrinterImpl.obj
 0001:0002c830       ??0ISpecifyPropertyPages@@QAE@XZ 1002d830 f i FiscalPrinterImpl.obj
 0001:0002c860       ??0IViewObject2@@QAE@XZ    1002d860 f i FiscalPrinterImpl.obj
 0001:0002c890       ??0IViewObject@@QAE@XZ     1002d890 f i FiscalPrinterImpl.obj
 0001:0002c8c0       ??0IViewObjectEx@@QAE@XZ   1002d8c0 f i FiscalPrinterImpl.obj
 0001:0002c8f0       ??0OposVariantResult@@QAE@XZ 1002d8f0 f i FiscalPrinterImpl.obj
 0001:0002c920       ??0_CW@@QAE@PBD@Z          1002d920 f i FiscalPrinterImpl.obj
 0001:0002c960       ??0_CW@@QAE@PB_W@Z         1002d960 f i FiscalPrinterImpl.obj
 0001:0002c9a0       ??0_CWNCC@@QAE@PBD@Z       1002d9a0 f i FiscalPrinterImpl.obj
 0001:0002c9d0       ??1?$CComControl@VCOPOSFiscalPrinter@@V?$CWindowImpl@VCOPOSFiscalPrinter@@VCWindow@ATL@@V?$CWinTraits@$0FGAAAAAA@$0A@@3@@ATL@@@ATL@@UAE@XZ 1002d9d0 f i FiscalPrinterImpl.obj
 0001:0002ca00       ??1?$CComPtr@UIDataAdviseHolder@@@ATL@@QAE@XZ 1002da00 f i FiscalPrinterImpl.obj
 0001:0002ca30       ??1?$CComPtr@UIOleAdviseHolder@@@ATL@@QAE@XZ 1002da30 f i FiscalPrinterImpl.obj
 0001:0002ca60       ??1?$CComPtr@UIOleInPlaceSiteWindowless@@@ATL@@QAE@XZ 1002da60 f i FiscalPrinterImpl.obj
 0001:0002ca90       ??1?$CComPtrBase@UIDataAdviseHolder@@@ATL@@QAE@XZ 1002da90 f i FiscalPrinterImpl.obj
 0001:0002cae0       ??1?$CComPtrBase@UIOleAdviseHolder@@@ATL@@QAE@XZ 1002dae0 f i FiscalPrinterImpl.obj
 0001:0002cb30       ??1?$CComPtrBase@UIOleInPlaceSiteWindowless@@@ATL@@QAE@XZ 1002db30 f i FiscalPrinterImpl.obj
 0001:0002cb80       ??1?$CComQIPtr@UIDispatch@@$1?_GUID_00020400_0000_0000_c000_000000000046@@3U__s_GUID@@B@ATL@@QAE@XZ 1002db80 f i FiscalPrinterImpl.obj
 0001:0002cbb0       ??1?$CProxy_IOPOSEvents@VCOPOSFiscalPrinter@@@@QAE@XZ 1002dbb0 f i FiscalPrinterImpl.obj
 0001:0002cbe0       ??1?$CWindowImpl@VCOPOSFiscalPrinter@@VCWindow@ATL@@V?$CWinTraits@$0FGAAAAAA@$0A@@3@@ATL@@UAE@XZ 1002dbe0 f i FiscalPrinterImpl.obj
 0001:0002cc10       ??1?$CWindowImplBaseT@VCWindow@ATL@@V?$CWinTraits@$0FGAAAAAA@$0A@@2@@ATL@@UAE@XZ 1002dc10 f i FiscalPrinterImpl.obj
 0001:0002cc40       ??1?$CWindowImplRoot@VCWindow@ATL@@@ATL@@UAE@XZ 1002dc40 f i FiscalPrinterImpl.obj
 0001:0002cce0       ??1?$IConnectionPointImpl@VCOPOSFiscalPrinter@@$1?DIID__IOPOSFiscalPrinterEvents@@3U_GUID@@BVCComDynamicUnkArray@ATL@@@ATL@@QAE@XZ 1002dce0 f i FiscalPrinterImpl.obj
 0001:0002cd60       ??1?$IConnectionPointImpl@VCOPOSFiscalPrinter@@$1?IID_IPropertyNotifySink@@3U_GUID@@BVCComDynamicUnkArray@ATL@@@ATL@@QAE@XZ 1002dd60 f i FiscalPrinterImpl.obj
 0001:0002cde0       ??1?$IPropertyNotifySinkCP@VCOPOSFiscalPrinter@@VCComDynamicUnkArray@ATL@@@ATL@@QAE@XZ 1002dde0 f i FiscalPrinterImpl.obj
 0001:0002ce10       ??1CComControlBase@ATL@@UAE@XZ 1002de10 f i FiscalPrinterImpl.obj
 0001:0002ced0       ??1CComDynamicUnkArray@ATL@@QAE@XZ 1002ded0 f i FiscalPrinterImpl.obj
 0001:0002cf10       ??1CDynamicStdCallThunk2@ATL@@QAE@XZ 1002df10 f i FiscalPrinterImpl.obj
 0001:0002cf40       ??1CWndProcThunk@ATL@@QAE@XZ 1002df40 f i FiscalPrinterImpl.obj
 0001:0002cf70       ??1OposVariantResult@@QAE@XZ 1002df70 f i FiscalPrinterImpl.obj
 0001:0002cfa0       ??1_CW@@QAE@XZ             1002dfa0 f i FiscalPrinterImpl.obj
 0001:0002d010       ??1_CWNCC@@QAE@XZ          1002e010 f i FiscalPrinterImpl.obj
 0001:0002d040       ??B_CW@@QAEPB_WXZ          1002e040 f i FiscalPrinterImpl.obj
 0001:0002d080       ??B_CWNCC@@QAEPA_WXZ       1002e080 f i FiscalPrinterImpl.obj
 0001:0002d0b0       ??_EOposVariant@@QAEPAXI@Z 1002e0b0 f i FiscalPrinterImpl.obj
 0001:0002d140       ?EventClaim@COPOSFiscalPrinter@@IAEXXZ 1002e140 f i FiscalPrinterImpl.obj
 0001:0002d180       ?EventClose@COPOSFiscalPrinter@@IAEXXZ 1002e180 f i FiscalPrinterImpl.obj
 0001:0002d220       ?EventInit@COPOSFiscalPrinter@@IAEJXZ 1002e220 f i FiscalPrinterImpl.obj
 0001:0002d450       ?EventOpen@COPOSFiscalPrinter@@IAEXXZ 1002e450 f i FiscalPrinterImpl.obj
 0001:0002d490       ?EventPreCloseRelease@COPOSFiscalPrinter@@IAEXXZ 1002e490 f i FiscalPrinterImpl.obj
 0001:0002d510       ?EventUninit@COPOSFiscalPrinter@@IAEXXZ 1002e510 f i FiscalPrinterImpl.obj
 0001:0002d640       ?EventWindowProc@COPOSFiscalPrinter@@IAGJIIJ@Z 1002e640 f i FiscalPrinterImpl.obj
 0001:0002d7c0       ?FireEventCleanup@COPOSFiscalPrinter@@IAEXXZ 1002e7c0 f i FiscalPrinterImpl.obj
 0001:0002d810       ?FireEventSetup@COPOSFiscalPrinter@@IAE_NXZ 1002e810 f i FiscalPrinterImpl.obj
 0001:0002d880       ?GetModuleInstance@CComModule@ATL@@QAEPAUHINSTANCE__@@XZ 1002e880 f i FiscalPrinterImpl.obj
 0001:0002d8a0       ?SetRC@COPOSFiscalPrinter@@IAEJJ@Z 1002e8a0 f i FiscalPrinterImpl.obj
 0001:0002d8d0       ?s_EventWindowProc@COPOSFiscalPrinter@@KGJPAUHWND__@@IIJ@Z 1002e8d0 f i FiscalPrinterImpl.obj
 0001:0002d970       __snwprintf                1002e970 f i FiscalPrinterImpl.obj
 0001:0002d9d0       __vfwprintf_l              1002e9d0 f i FiscalPrinterImpl.obj
 0001:0002da00       __vsnwprintf               1002ea00 f i FiscalPrinterImpl.obj
 0001:0002da30       __vsnwprintf_l             1002ea30 f i FiscalPrinterImpl.obj
 0001:0002daa0       _vfwprintf                 1002eaa0 f i FiscalPrinterImpl.obj
 0001:0002dac2       _DebugBreak@0              1002eac2 f   kernel32:KERNEL32.dll
 0001:0002dac8       _Sleep@4                   1002eac8 f   kernel32:KERNEL32.dll
 0001:0002dace       _GetCurrentProcess@0       1002eace f   kernel32:KERNEL32.dll
 0001:0002dad4       _TerminateProcess@8        1002ead4 f   kernel32:KERNEL32.dll
 0001:0002dada       _MultiByteToWideChar@24    1002eada f   kernel32:KERNEL32.dll
 0001:0002dae0       _WideCharToMultiByte@32    1002eae0 f   kernel32:KERNEL32.dll
 0001:0002dae6       _DecodePointer@4           1002eae6 f   kernel32:KERNEL32.dll
 0001:0002daec       _RaiseException@16         1002eaec f   kernel32:KERNEL32.dll
 0001:0002daf2       _GetLastError@0            1002eaf2 f   kernel32:KERNEL32.dll
 0001:0002daf8       _SetLastError@4            1002eaf8 f   kernel32:KERNEL32.dll
 0001:0002dafe       _InitializeCriticalSectionEx@12 1002eafe f   kernel32:KERNEL32.dll
 0001:0002db04       _DeleteCriticalSection@4   1002eb04 f   kernel32:KERNEL32.dll
 0001:0002db0a       _EncodePointer@4           1002eb0a f   kernel32:KERNEL32.dll
 0001:0002db10       _EnterCriticalSection@4    1002eb10 f   kernel32:KERNEL32.dll
 0001:0002db16       _LeaveCriticalSection@4    1002eb16 f   kernel32:KERNEL32.dll
 0001:0002db1c       _ResetEvent@4              1002eb1c f   kernel32:KERNEL32.dll
 0001:0002db22       _ReleaseMutex@4            1002eb22 f   kernel32:KERNEL32.dll
 0001:0002db28       _WaitForSingleObject@8     1002eb28 f   kernel32:KERNEL32.dll
 0001:0002db2e       _GetCurrentThreadId@0      1002eb2e f   kernel32:KERNEL32.dll
 0001:0002db34       _DisableThreadLibraryCalls@4 1002eb34 f   kernel32:KERNEL32.dll
 0001:0002db3a       _FreeLibrary@4             1002eb3a f   kernel32:KERNEL32.dll
 0001:0002db40       _GetModuleFileNameW@12     1002eb40 f   kernel32:KERNEL32.dll
 0001:0002db46       _GetModuleHandleW@4        1002eb46 f   kernel32:KERNEL32.dll
 0001:0002db4c       _GetProcAddress@8          1002eb4c f   kernel32:KERNEL32.dll
 0001:0002db52       _LoadLibraryExW@12         1002eb52 f   kernel32:KERNEL32.dll
 0001:0002db58       _LoadResource@8            1002eb58 f   kernel32:KERNEL32.dll
 0001:0002db5e       _SizeofResource@8          1002eb5e f   kernel32:KERNEL32.dll
 0001:0002db64       _FindResourceW@12          1002eb64 f   kernel32:KERNEL32.dll
 0001:0002db6a       _GlobalAlloc@8             1002eb6a f   kernel32:KERNEL32.dll
 0001:0002db70       _GlobalUnlock@4            1002eb70 f   kernel32:KERNEL32.dll
 0001:0002db76       _GlobalLock@4              1002eb76 f   kernel32:KERNEL32.dll
 0001:0002db7c       _MulDiv@12                 1002eb7c f   kernel32:KERNEL32.dll
 0001:0002db82       _lstrcmpiW@8               1002eb82 f   kernel32:KERNEL32.dll
 0001:0002db88       _DeleteFileW@4             1002eb88 f   kernel32:KERNEL32.dll
 0001:0002db8e       _CloseHandle@4             1002eb8e f   kernel32:KERNEL32.dll
 0001:0002db94       _SetEvent@4                1002eb94 f   kernel32:KERNEL32.dll
 0001:0002db9a       _CreateMutexW@12           1002eb9a f   kernel32:KERNEL32.dll
 0001:0002dba0       _CreateEventW@16           1002eba0 f   kernel32:KERNEL32.dll
 0001:0002dba6       _GetCurrentProcessId@0     1002eba6 f   kernel32:KERNEL32.dll
 0001:0002dbac       _LocalFree@4               1002ebac f   kernel32:KERNEL32.dll
 0001:0002dbb2       _FormatMessageW@28         1002ebb2 f   kernel32:KERNEL32.dll
 0001:0002dbb8       _GetActiveWindow@0         1002ebb8 f   user32:USER32.dll
 0001:0002dbbe       _MessageBoxW@16            1002ebbe f   user32:USER32.dll
 0001:0002dbc4       _UnregisterClassW@8        1002ebc4 f   user32:USER32.dll
 0001:0002dbca       _PostMessageW@16           1002ebca f   user32:USER32.dll
 0001:0002dbd0       _DefWindowProcW@16         1002ebd0 f   user32:USER32.dll
 0001:0002dbd6       _CallWindowProcW@20        1002ebd6 f   user32:USER32.dll
 0001:0002dbdc       _RegisterClassExW@4        1002ebdc f   user32:USER32.dll
 0001:0002dbe2       _GetClassInfoExW@12        1002ebe2 f   user32:USER32.dll
 0001:0002dbe8       _CreateWindowExW@48        1002ebe8 f   user32:USER32.dll
 0001:0002dbee       _IsWindow@4                1002ebee f   user32:USER32.dll
 0001:0002dbf4       _IsChild@8                 1002ebf4 f   user32:USER32.dll
 0001:0002dbfa       _DestroyWindow@4           1002ebfa f   user32:USER32.dll
 0001:0002dc00       _ShowWindow@8              1002ec00 f   user32:USER32.dll
 0001:0002dc06       _SetWindowPos@28           1002ec06 f   user32:USER32.dll
 0001:0002dc0c       _CharNextW@4               1002ec0c f   user32:USER32.dll
 0001:0002dc12       _SetFocus@4                1002ec12 f   user32:USER32.dll
 0001:0002dc18       _GetFocus@0                1002ec18 f   user32:USER32.dll
 0001:0002dc1e       _GetKeyState@4             1002ec1e f   user32:USER32.dll
 0001:0002dc24       _GetDC@4                   1002ec24 f   user32:USER32.dll
 0001:0002dc2a       _ReleaseDC@8               1002ec2a f   user32:USER32.dll
 0001:0002dc30       _BeginPaint@8              1002ec30 f   user32:USER32.dll
 0001:0002dc36       _EndPaint@8                1002ec36 f   user32:USER32.dll
 0001:0002dc3c       _SetWindowRgn@12           1002ec3c f   user32:USER32.dll
 0001:0002dc42       _InvalidateRect@12         1002ec42 f   user32:USER32.dll
 0001:0002dc48       _GetClientRect@8           1002ec48 f   user32:USER32.dll
 0001:0002dc4e       _IntersectRect@12          1002ec4e f   user32:USER32.dll
 0001:0002dc54       _UnionRect@12              1002ec54 f   user32:USER32.dll
 0001:0002dc5a       _OffsetRect@12             1002ec5a f   user32:USER32.dll
 0001:0002dc60       _EqualRect@8               1002ec60 f   user32:USER32.dll
 0001:0002dc66       _PtInRect@12               1002ec66 f   user32:USER32.dll
 0001:0002dc6c       _GetWindowLongW@8          1002ec6c f   user32:USER32.dll
 0001:0002dc72       _SetWindowLongW@12         1002ec72 f   user32:USER32.dll
 0001:0002dc78       _GetParent@4               1002ec78 f   user32:USER32.dll
 0001:0002dc7e       _LoadCursorW@8             1002ec7e f   user32:USER32.dll
 0001:0002dc84       _PeekMessageW@20           1002ec84 f   user32:USER32.dll
 0001:0002dc8a       _RegisterClassW@4          1002ec8a f   user32:USER32.dll
 0001:0002dc90       _LoadBitmapW@8             1002ec90 f   user32:USER32.dll
 0001:0002dc96       _CloseMetaFile@4           1002ec96 f   gdi32:GDI32.dll
 0001:0002dc9c       _CreateDCW@16              1002ec9c f   gdi32:GDI32.dll
 0001:0002dca2       _CreateMetaFileW@4         1002eca2 f   gdi32:GDI32.dll
 0001:0002dca8       _CreateRectRgnIndirect@4   1002eca8 f   gdi32:GDI32.dll
 0001:0002dcae       _DeleteDC@4                1002ecae f   gdi32:GDI32.dll
 0001:0002dcb4       _DeleteMetaFile@4          1002ecb4 f   gdi32:GDI32.dll
 0001:0002dcba       _GetDeviceCaps@8           1002ecba f   gdi32:GDI32.dll
 0001:0002dcc0       _RestoreDC@8               1002ecc0 f   gdi32:GDI32.dll
 0001:0002dcc6       _SaveDC@4                  1002ecc6 f   gdi32:GDI32.dll
 0001:0002dccc       _SetMapMode@8              1002eccc f   gdi32:GDI32.dll
 0001:0002dcd2       _LPtoDP@12                 1002ecd2 f   gdi32:GDI32.dll
 0001:0002dcd8       _SetViewportOrgEx@16       1002ecd8 f   gdi32:GDI32.dll
 0001:0002dcde       _SetWindowExtEx@16         1002ecde f   gdi32:GDI32.dll
 0001:0002dce4       _SetWindowOrgEx@16         1002ece4 f   gdi32:GDI32.dll
 0001:0002dcea       _BitBlt@36                 1002ecea f   gdi32:GDI32.dll
 0001:0002dcf0       _CreateCompatibleDC@4      1002ecf0 f   gdi32:GDI32.dll
 0001:0002dcf6       _DeleteObject@4            1002ecf6 f   gdi32:GDI32.dll
 0001:0002dcfc       _SelectObject@8            1002ecfc f   gdi32:GDI32.dll
 0001:0002dd02       _GetObjectW@12             1002ed02 f   gdi32:GDI32.dll
 0001:0002dd08       _RegCloseKey@4             1002ed08 f   advapi32:ADVAPI32.dll
 0001:0002dd0e       _RegCreateKeyExW@36        1002ed0e f   advapi32:ADVAPI32.dll
 0001:0002dd14       _RegDeleteKeyW@8           1002ed14 f   advapi32:ADVAPI32.dll
 0001:0002dd1a       _RegDeleteValueW@8         1002ed1a f   advapi32:ADVAPI32.dll
 0001:0002dd20       _RegEnumKeyExW@32          1002ed20 f   advapi32:ADVAPI32.dll
 0001:0002dd26       _RegOpenKeyExW@20          1002ed26 f   advapi32:ADVAPI32.dll
 0001:0002dd2c       _RegQueryInfoKeyW@48       1002ed2c f   advapi32:ADVAPI32.dll
 0001:0002dd32       _RegSetValueExW@24         1002ed32 f   advapi32:ADVAPI32.dll
 0001:0002dd38       _RegQueryValueExW@24       1002ed38 f   advapi32:ADVAPI32.dll
 0001:0002dd3e       _CoCreateInstance@20       1002ed3e f   ole32:ole32.dll
 0001:0002dd44       _StringFromGUID2@12        1002ed44 f   ole32:ole32.dll
 0001:0002dd4a       _CoTaskMemAlloc@4          1002ed4a f   ole32:ole32.dll
 0001:0002dd50       _CoTaskMemRealloc@8        1002ed50 f   ole32:ole32.dll
 0001:0002dd56       _CoTaskMemFree@4           1002ed56 f   ole32:ole32.dll
 0001:0002dd5c       _ReadClassStm@8            1002ed5c f   ole32:ole32.dll
 0001:0002dd62       _WriteClassStm@8           1002ed62 f   ole32:ole32.dll
 0001:0002dd68       _CreateDataAdviseHolder@4  1002ed68 f   ole32:ole32.dll
 0001:0002dd6e       _OleSaveToStream@8         1002ed6e f   ole32:ole32.dll
 0001:0002dd74       _CreateOleAdviseHolder@4   1002ed74 f   ole32:ole32.dll
 0001:0002dd7a       _OleRegGetUserType@12      1002ed7a f   ole32:ole32.dll
 0001:0002dd80       _OleRegGetMiscStatus@12    1002ed80 f   ole32:ole32.dll
 0001:0002dd86       _OleRegEnumVerbs@8         1002ed86 f   ole32:ole32.dll
 0001:0002dd8c       _CLSIDFromProgID@8         1002ed8c f   ole32:ole32.dll
 0001:0002dd92       _SysAllocString@4          1002ed92 f   oleaut32:OLEAUT32.dll
 0001:0002dd98       _SysAllocStringLen@8       1002ed98 f   oleaut32:OLEAUT32.dll
 0001:0002dd9e       _SysFreeString@4           1002ed9e f   oleaut32:OLEAUT32.dll
 0001:0002dda4       _SysStringLen@4            1002eda4 f   oleaut32:OLEAUT32.dll
 0001:0002ddaa       _VariantClear@4            1002edaa f   oleaut32:OLEAUT32.dll
 0001:0002ddb0       _VariantCopyInd@8          1002edb0 f   oleaut32:OLEAUT32.dll
 0001:0002ddb6       _VariantChangeType@16      1002edb6 f   oleaut32:OLEAUT32.dll
 0001:0002ddbc       _SysStringByteLen@4        1002edbc f   oleaut32:OLEAUT32.dll
 0001:0002ddc2       _SysAllocStringByteLen@8   1002edc2 f   oleaut32:OLEAUT32.dll
 0001:0002ddc8       _VariantInit@4             1002edc8 f   oleaut32:OLEAUT32.dll
 0001:0002ddce       _VarUI4FromStr@16          1002edce f   oleaut32:OLEAUT32.dll
 0001:0002ddd4       _LoadTypeLib@8             1002edd4 f   oleaut32:OLEAUT32.dll
 0001:0002ddda       _LoadRegTypeLib@20         1002edda f   oleaut32:OLEAUT32.dll
 0001:0002dde0       _RegisterTypeLib@12        1002ede0 f   oleaut32:OLEAUT32.dll
 0001:0002dde6       _UnRegisterTypeLib@20      1002ede6 f   oleaut32:OLEAUT32.dll
 0001:0002ddec       _OleCreatePropertyFrame@44 1002edec f   oleaut32:OLEAUT32.dll
 0001:0002de00       @_RTC_AllocaHelper@12      1002ee00 f   LIBCMTD:stack.obj
 0001:0002de40       @_RTC_CheckStackVars2@12   1002ee40 f   LIBCMTD:stack.obj
 0001:0002df20       @_RTC_CheckStackVars@8     1002ef20 f   LIBCMTD:stack.obj
 0001:0002df80       __RTC_CheckEsp             1002ef80 f   LIBCMTD:stack.obj
 0001:0002dfc0       @__security_check_cookie@4 1002efc0 f   LIBCMTD:secchk.obj
 0001:0002dfe0       __CRT_RTC_INIT             1002efe0 f   LIBCMTD:init.obj
 0001:0002dff0       __CRT_RTC_INITW            1002eff0 f   LIBCMTD:init.obj
 0001:0002e000       __RTC_InitBase             1002f000 f   LIBCMTD:init.obj
 0001:0002e030       __RTC_Shutdown             1002f030 f   LIBCMTD:init.obj
 0001:0002e050       ??_U@YAPAXI@Z              1002f050 f   LIBCMTD:new_array.obj
 0001:0002e070       ??3@YAXPAXI@Z              1002f070 f   LIBCMTD:delete_scalar_size.obj
 0001:0002e090       ??_V@YAXPAX@Z              1002f090 f   LIBCMTD:delete_array.obj
 0001:0002e0b0       ??_V@YAXPAXI@Z             1002f0b0 f   LIBCMTD:delete_array_size.obj
 0001:0002e0d0       ?configure_argv@__scrt_narrow_argv_policy@@SAHXZ 1002f0d0 f i LIBCMTD:utility.obj
 0001:0002e180       ?initialize_environment@__scrt_narrow_environment_policy@@SAHXZ 1002f180 f i LIBCMTD:utility.obj
 0001:0002e200       _NtCurrentTeb              1002f200 f i LIBCMTD:utility.obj
 0001:0002e210       ___scrt_acquire_startup_lock 1002f210 f   LIBCMTD:utility.obj
 0001:0002e260       ___scrt_dllmain_after_initialize_c 1002f260 f   LIBCMTD:utility.obj
 0001:0002e290       ___scrt_dllmain_before_initialize_c 1002f290 f   LIBCMTD:utility.obj
 0001:0002e2b0       ___scrt_dllmain_crt_thread_attach 1002f2b0 f   LIBCMTD:utility.obj
 0001:0002e2e0       ___scrt_dllmain_crt_thread_detach 1002f2e0 f   LIBCMTD:utility.obj
 0001:0002e300       ___scrt_dllmain_exception_filter 1002f300 f   LIBCMTD:utility.obj
 0001:0002e350       ___scrt_dllmain_uninitialize_c 1002f350 f   LIBCMTD:utility.obj
 0001:0002e380       ___scrt_dllmain_uninitialize_critical 1002f380 f   LIBCMTD:utility.obj
 0001:0002e3a0       ___scrt_initialize_crt     1002f3a0 f   LIBCMTD:utility.obj
 0001:0002e3f0       ___scrt_initialize_onexit_tables 1002f3f0 f   LIBCMTD:utility.obj
 0001:0002e4d0       ___scrt_is_nonwritable_in_current_image 1002f4d0 f   LIBCMTD:utility.obj
 0001:0002e600       ___scrt_release_startup_lock 1002f600 f   LIBCMTD:utility.obj
 0001:0002e630       ___scrt_uninitialize_crt   1002f630 f   LIBCMTD:utility.obj
 0001:0002e670       __onexit                   1002f670 f   LIBCMTD:utility.obj
 0001:0002e6e0       _at_quick_exit             1002f6e0 f   LIBCMTD:utility.obj
 0001:0002e720       _atexit                    1002f720 f   LIBCMTD:utility.obj
 0001:0002e750       ??3@YAXPAX@Z               1002f750 f   LIBCMTD:delete_scalar.obj
 0001:0002e770       ___raise_securityfailure   1002f770 f   LIBCMTD:gs_report.obj
 0001:0002e7a0       ___report_gsfailure        1002f7a0 f   LIBCMTD:gs_report.obj
 0001:0002e8b0       ___report_rangecheckfailure 1002f8b0 f   LIBCMTD:gs_report.obj
 0001:0002e8c0       ___report_securityfailure  1002f8c0 f   LIBCMTD:gs_report.obj
 0001:0002e9a0       ___report_securityfailureEx 1002f9a0 f   LIBCMTD:gs_report.obj
 0001:0002ebf0       __Init_thread_abort        1002fbf0 f   LIBCMTD:thread_safe_statics.obj
 0001:0002ec10       __Init_thread_footer       1002fc10 f   LIBCMTD:thread_safe_statics.obj
 0001:0002ec60       __Init_thread_header       1002fc60 f   LIBCMTD:thread_safe_statics.obj
 0001:0002ecd0       __Init_thread_lock         1002fcd0 f   LIBCMTD:thread_safe_statics.obj
 0001:0002ece0       __Init_thread_notify       1002fce0 f   LIBCMTD:thread_safe_statics.obj
 0001:0002ed30       __Init_thread_unlock       1002fd30 f   LIBCMTD:thread_safe_statics.obj
 0001:0002ed40       __Init_thread_wait         1002fd40 f   LIBCMTD:thread_safe_statics.obj
 0001:0002edd0       ??2@YAPAXIABUnothrow_t@std@@@Z 1002fdd0 f   LIBCMTD:new_scalar_nothrow.obj
 0001:0002ee50       ??_U@YAPAXIABUnothrow_t@std@@@Z 1002fe50 f   LIBCMTD:new_array_nothrow.obj
 0001:0002ee70       __allmul                   1002fe70 f   LIBCMTD:llmul.obj
 0001:0002eeb0       __alloca_probe_16          1002feb0 f   LIBCMTD:alloca16.obj
 0001:0002eec6       __alloca_probe_8           1002fec6     LIBCMTD:alloca16.obj
 0001:0002eee0       __alloca_probe             1002fee0 f   LIBCMTD:chkstk.obj
 0001:0002eee0       __chkstk                   1002fee0 f   LIBCMTD:chkstk.obj
 0001:0002ef10       __alldiv                   1002ff10 f   LIBCMTD:lldiv.obj
 0001:0002efc0       __allrem                   1002ffc0 f   LIBCMTD:llrem.obj
 0001:0002f550       __CRT_INIT@12              10030550 f   LIBCMTD:dll_dllmain.obj
 0001:0002f570       __DllMainCRTStartup@12     10030570 f   LIBCMTD:dll_dllmain.obj
 0001:0002f630       ?_RTC_AllocaFailure@@YAXPAXPAU_RTC_ALLOCA_NODE@@H@Z 10030630 f   LIBCMTD:error.obj
 0001:0002f720       ?_RTC_Failure@@YAXPAXH@Z   10030720 f   LIBCMTD:error.obj
 0001:0002f770       ?_RTC_StackFailure@@YAXPAXPBD@Z 10030770 f   LIBCMTD:error.obj
 0001:0002fb30       __RTC_UninitUse            10030b30 f   LIBCMTD:error.obj
 0001:0002fbe0       __vsprintf_s_l             10030be0 f i LIBCMTD:error.obj
 0001:0002fc10       _sprintf_s                 10030c10 f i LIBCMTD:error.obj
 0001:0002fc30       ?_RTC_GetErrorFunc@@YAP6AHHPBDH00ZZPBX@Z 10030c30 f   LIBCMTD:userapi.obj
 0001:0002fc40       ?_RTC_GetErrorFuncW@@YAP6AHHPB_WH00ZZPBX@Z 10030c40 f   LIBCMTD:userapi.obj
 0001:0002fc50       __RTC_GetErrDesc           10030c50 f   LIBCMTD:userapi.obj
 0001:0002fc70       __RTC_NumErrors            10030c70 f   LIBCMTD:userapi.obj
 0001:0002fc80       __RTC_SetErrorFunc         10030c80 f   LIBCMTD:userapi.obj
 0001:0002fca0       __RTC_SetErrorFuncW        10030ca0 f   LIBCMTD:userapi.obj
 0001:0002fcc0       __RTC_SetErrorType         10030cc0 f   LIBCMTD:userapi.obj
 0001:0002fcf0       ??2@YAPAXI@Z               10030cf0 f   LIBCMTD:new_scalar.obj
 0001:0002fd40       ___isa_available_init      10030d40 f   LIBCMTD:cpu_disp.obj
 0001:00030080       __get_startup_argv_mode    10031080 f   LIBCMTD:argv_mode.obj
 0001:00030090       ___scrt_is_ucrt_dll_in_use 10031090 f   LIBCMTD:ucrt_detection.obj
 0001:000300c0       ___scrt_fastfail           100310c0 f   LIBCMTD:utility_desktop.obj
 0001:00030200       ___scrt_get_show_window_mode 10031200 f   LIBCMTD:utility_desktop.obj
 0001:00030240       ___scrt_initialize_mta     10031240 f   LIBCMTD:utility_desktop.obj
 0001:00030250       ___scrt_initialize_winrt   10031250 f   LIBCMTD:utility_desktop.obj
 0001:00030260       ___scrt_is_managed_app     10031260 f   LIBCMTD:utility_desktop.obj
 0001:000302f0       ___scrt_set_unhandled_exception_filter 100312f0 f   LIBCMTD:utility_desktop.obj
 0001:00030300       ___scrt_stub_for_initialize_mta 10031300 f   LIBCMTD:utility_desktop.obj
 0001:00030300       ___scrt_exe_initialize_mta 10031300 f   LIBCMTD:utility_desktop.obj
 0001:00030310       ___scrt_unhandled_exception_filter@4 10031310 f   LIBCMTD:utility_desktop.obj
 0001:00030390       __crt_debugger_hook        10031390 f   LIBCMTD:utility_desktop.obj
 0001:000303a0       @_guard_check_icall_nop@4  100313a0 f i LIBCMTD:guard_support.obj
 0001:000303b0       _ReadNoFence               100313b0 f i LIBCMTD:guard_support.obj
 0001:000303d0       _ReadPointerNoFence        100313d0 f i LIBCMTD:guard_support.obj
 0001:000303f0       __guard_icall_checks_enforced 100313f0 f i LIBCMTD:guard_support.obj
 0001:00030490       ___security_init_cookie    10031490 f   LIBCMTD:gs_support.obj
 0001:00030510       ?__scrt_initialize_type_info@@YAXXZ 10031510 f   LIBCMTD:tncleanup.obj
 0001:00030520       ?__scrt_uninitialize_type_info@@YAXXZ 10031520 f   LIBCMTD:tncleanup.obj
 0001:00030540       ___local_stdio_scanf_options 10031540 f i LIBCMTD:default_local_stdio_options.obj
 0001:00030550       ___scrt_initialize_default_local_stdio_options 10031550 f   LIBCMTD:default_local_stdio_options.obj
 0001:00030590       ___scrt_get_dyn_tls_init_callback 10031590 f   LIBCMTD:dyn_tls_init.obj
 0001:000305a0       __RTC_Initialize           100315a0 f   LIBCMTD:initsect.obj
 0001:000305d0       __RTC_Terminate            100315d0 f   LIBCMTD:initsect.obj
 0001:00030a80       ?_RTC_GetSrcLine@@YAHPAEPA_WKPAH1K@Z 10031a80 f   LIBCMTD:pdblkup.obj
 0001:00030e00       __except_handler4_noexcept 10031e00 f   LIBCMTD:chandler4_noexcept.obj
 0001:00030e60       ??0bad_alloc@std@@AAE@QBD@Z 10031e60 f i LIBCMTD:throw_bad_alloc.obj
 0001:00030e90       ??0bad_alloc@std@@QAE@ABV01@@Z 10031e90 f i LIBCMTD:throw_bad_alloc.obj
 0001:00030ec0       ??0bad_alloc@std@@QAE@XZ   10031ec0 f i LIBCMTD:throw_bad_alloc.obj
 0001:00030ef0       ??0bad_array_new_length@std@@QAE@ABV01@@Z 10031ef0 f i LIBCMTD:throw_bad_alloc.obj
 0001:00030f20       ??0bad_array_new_length@std@@QAE@XZ 10031f20 f i LIBCMTD:throw_bad_alloc.obj
 0001:00030f50       ??0exception@std@@QAE@ABV01@@Z 10031f50 f i LIBCMTD:throw_bad_alloc.obj
 0001:00030f90       ??0exception@std@@QAE@QBDH@Z 10031f90 f i LIBCMTD:throw_bad_alloc.obj
 0001:00030fc0       ??1bad_alloc@std@@UAE@XZ   10031fc0 f i LIBCMTD:throw_bad_alloc.obj
 0001:00030fe0       ??1bad_array_new_length@std@@UAE@XZ 10031fe0 f i LIBCMTD:throw_bad_alloc.obj
 0001:00031000       ??1exception@std@@UAE@XZ   10032000 f i LIBCMTD:throw_bad_alloc.obj
 0001:00031030       ??_Gbad_alloc@std@@UAEPAXI@Z 10032030 f i LIBCMTD:throw_bad_alloc.obj
 0001:00031030       ??_Ebad_alloc@std@@UAEPAXI@Z 10032030 f i LIBCMTD:throw_bad_alloc.obj
 0001:00031060       ??_Ebad_array_new_length@std@@UAEPAXI@Z 10032060 f i LIBCMTD:throw_bad_alloc.obj
 0001:00031060       ??_Gbad_array_new_length@std@@UAEPAXI@Z 10032060 f i LIBCMTD:throw_bad_alloc.obj
 0001:00031090       ??_Gexception@std@@UAEPAXI@Z 10032090 f i LIBCMTD:throw_bad_alloc.obj
 0001:00031090       ??_Eexception@std@@UAEPAXI@Z 10032090 f i LIBCMTD:throw_bad_alloc.obj
 0001:000310c0       ?__scrt_throw_std_bad_alloc@@YAXXZ 100320c0 f   LIBCMTD:throw_bad_alloc.obj
 0001:000310e0       ?__scrt_throw_std_bad_array_new_length@@YAXXZ 100320e0 f   LIBCMTD:throw_bad_alloc.obj
 0001:00031100       ?what@exception@std@@UBEPBDXZ 10032100 f i LIBCMTD:throw_bad_alloc.obj
 0001:00031130       ??1type_info@@UAE@XZ       10032130 f   LIBCMTD:std_type_info_static.obj
 0001:00031150       ??_Etype_info@@UAEPAXI@Z   10032150 f i LIBCMTD:std_type_info_static.obj
 0001:00031150       ??_Gtype_info@@UAEPAXI@Z   10032150 f i LIBCMTD:std_type_info_static.obj
 0001:0003117e       ??$?2PAUHINSTANCE__@@@Wrapper@?$CSimpleArray@PAUHINSTANCE__@@V?$CSimpleArrayEqualHelper@PAUHINSTANCE__@@@ATL@@@ATL@@SAPAXIPAPAUHINSTANCE__@@@Z 1003217e f i atls:atlbase.obj
 0001:00031186       ??0?$CSimpleArray@PAUHINSTANCE__@@V?$CSimpleArrayEqualHelper@PAUHINSTANCE__@@@ATL@@@ATL@@QAE@XZ 10032186 f i atls:atlbase.obj
 0001:00031193       ??0CAtlBaseModule@ATL@@QAE@XZ 10032193 f   atls:atlbase.obj
 0001:000311e6       ??0Wrapper@?$CSimpleArray@PAUHINSTANCE__@@V?$CSimpleArrayEqualHelper@PAUHINSTANCE__@@@ATL@@@ATL@@QAE@ABQAUHINSTANCE__@@@Z 100321e6 f i atls:atlbase.obj
 0001:000311f6       ??0_ATL_BASE_MODULE70@ATL@@QAE@XZ 100321f6 f i atls:atlbase.obj
 0001:00031219       ??1?$CSimpleArray@PAUHINSTANCE__@@V?$CSimpleArrayEqualHelper@PAUHINSTANCE__@@@ATL@@@ATL@@QAE@XZ 10032219 f i atls:atlbase.obj
 0001:0003121e       ??1CAtlBaseModule@ATL@@QAE@XZ 1003221e f   atls:atlbase.obj
 0001:00031234       ??1_ATL_BASE_MODULE70@ATL@@QAE@XZ 10032234 f i atls:atlbase.obj
 0001:0003123c       ??A?$CSimpleArray@PAUHINSTANCE__@@V?$CSimpleArrayEqualHelper@PAUHINSTANCE__@@@ATL@@@ATL@@QAEAAPAUHINSTANCE__@@H@Z 1003223c f i atls:atlbase.obj
 0001:00031261       ?Add@?$CSimpleArray@PAUHINSTANCE__@@V?$CSimpleArrayEqualHelper@PAUHINSTANCE__@@@ATL@@@ATL@@QAEHABQAUHINSTANCE__@@@Z 10032261 f i atls:atlbase.obj
 0001:000312e3       ?AddResourceInstance@CAtlBaseModule@ATL@@QAE_NPAUHINSTANCE__@@@Z 100322e3 f   atls:atlbase.obj
 0001:00031316       ?GetHInstanceAt@CAtlBaseModule@ATL@@QAEPAUHINSTANCE__@@H@Z 10032316 f   atls:atlbase.obj
 0001:0003135b       ?GetSize@?$CSimpleArray@PAUHINSTANCE__@@V?$CSimpleArrayEqualHelper@PAUHINSTANCE__@@@ATL@@@ATL@@QBEHXZ 1003235b f i atls:atlbase.obj
 0001:0003135f       ?InternalSetAtIndex@?$CSimpleArray@PAUHINSTANCE__@@V?$CSimpleArrayEqualHelper@PAUHINSTANCE__@@@ATL@@@ATL@@QAEXHABQAUHINSTANCE__@@@Z 1003235f f i atls:atlbase.obj
 0001:00031379       ?RemoveAll@?$CSimpleArray@PAUHINSTANCE__@@V?$CSimpleArrayEqualHelper@PAUHINSTANCE__@@@ATL@@@ATL@@QAEXXZ 10032379 f i atls:atlbase.obj
 0001:00031396       ?RemoveAt@?$CSimpleArray@PAUHINSTANCE__@@V?$CSimpleArrayEqualHelper@PAUHINSTANCE__@@@ATL@@@ATL@@QAEHH@Z 10032396 f i atls:atlbase.obj
 0001:000313e4       ?RemoveResourceInstance@CAtlBaseModule@ATL@@QAE_NPAUHINSTANCE__@@@Z 100323e4 f   atls:atlbase.obj
 0001:00031441       ?memmove_s@Checked@ATL@@YAXPAXIPBXI@Z 10032441 f i atls:atlbase.obj
 0001:0003179e       ?GetCodeAddress@_stdcallthunk@ATL@@QAEPAXXZ 1003279e f i atls:atlthunk.obj
 0001:000317c8       ?Init@_stdcallthunk@ATL@@QAEHKPAX@Z 100327c8 f i atls:atlthunk.obj
 0001:000317fd       ?__AllocStdCallThunk@@YGPAXXZ 100327fd f   atls:atlthunk.obj
 0001:00031802       ?__AllocStdCallThunk@ATL@@YGPAXXZ 10032802 f   atls:atlthunk.obj
 0001:00031807       ?__AllocStdCallThunk_cmn@@YAPAXXZ 10032807 f   atls:atlthunk.obj
 0001:000318cd       ?__FreeStdCallThunk@@YGXPAX@Z 100328cd f   atls:atlthunk.obj
 0001:000318dd       ?__FreeStdCallThunk@ATL@@YGXPAX@Z 100328dd f   atls:atlthunk.obj
 0001:000318ed       ?__FreeStdCallThunk_cmn@@YAXPAX@Z 100328ed f   atls:atlthunk.obj
 0001:00031988       _AtlThunk_AllocateData@0   10032988 f   atls:atlthunk.obj
 0001:000319ed       _AtlThunk_DataToCode@4     100329ed f   atls:atlthunk.obj
 0001:00031a34       _AtlThunk_FreeData@4       10032a34 f   atls:atlthunk.obj
 0001:00031a8a       _AtlThunk_InitData@12      10032a8a f   atls:atlthunk.obj
 0001:00031ad9       _MemoryBarrier             10032ad9 f i atls:atlthunk.obj
 0001:00031ae7       __InlineInterlockedCompareExchangePointer 10032ae7 f i atls:atlthunk.obj
 0001:00031b00       _memset                    10032b00 f   libvcruntimed:memset.obj
 0001:00031c60       ??$__crt_interlocked_exchange_pointer@$$A6AXXZP6AXXZ@@YAP6AXXZPDS6AXXZQ6AXXZ@Z 10032c60 f i libvcruntimed:purevirt.obj
 0001:00031c70       ??$__crt_interlocked_read_pointer@$$A6AXXZ@@YAP6AXXZPDS6AXXZ@Z 10032c70 f i libvcruntimed:purevirt.obj
 0001:00031c90       ?__crt_interlocked_read_32@@YAHPDH@Z 10032c90 f i libvcruntimed:purevirt.obj
 0001:00031cb0       __get_purecall_handler     10032cb0 f   libvcruntimed:purevirt.obj
 0001:00031cd0       __purecall                 10032cd0 f   libvcruntimed:purevirt.obj
 0001:00031d00       __set_purecall_handler     10032d00 f   libvcruntimed:purevirt.obj
 0001:00031ed0       _memcmp                    10032ed0 f   libvcruntimed:memcmp.obj
 0001:000327a0       _memcpy                    100337a0 f   libvcruntimed:memcpy.obj
 0001:00032d20       _wcsstr                    10033d20 f   libvcruntimed:wcsstr.obj
 0001:00033250       __except_handler4          10034250 f   libvcruntimed:chandler4.obj
 0001:00033440       ___vcrt_initialize         10034440 f   libvcruntimed:initialization.obj
 0001:00033480       ___vcrt_thread_attach      10034480 f   libvcruntimed:initialization.obj
 0001:000334a0       ___vcrt_thread_detach      100344a0 f   libvcruntimed:initialization.obj
 0001:000334c0       ___vcrt_uninitialize       100344c0 f   libvcruntimed:initialization.obj
 0001:000334e0       ___vcrt_uninitialize_critical 100344e0 f   libvcruntimed:initialization.obj
 0001:00033500       ??$?0AAViterator@TryBlockMap@__FrameHandler3@@AAV012@$0A@@?$pair@Viterator@TryBlockMap@__FrameHandler3@@V123@@std@@QAE@AAViterator@TryBlockMap@__FrameHandler3@@0@Z 10034500 f i libvcruntimed:trnsctrl.obj
 0001:00033550       ??$forward@AAViterator@TryBlockMap@__FrameHandler3@@@std@@YAAAViterator@TryBlockMap@__FrameHandler3@@AAV123@@Z 10034550 f i libvcruntimed:trnsctrl.obj
 0001:00033560       ??0iterator@TryBlockMap@__FrameHandler3@@QAE@AAV12@I@Z 10034560 f i libvcruntimed:trnsctrl.obj
 0001:00033590       ?GetRangeOfTrysToCheck@__FrameHandler3@@SA?AU?$pair@Viterator@TryBlockMap@__FrameHandler3@@V123@@std@@AAVTryBlockMap@1@HPAXPBU_s_FuncInfo@@H@Z 10034590 f   libvcruntimed:trnsctrl.obj
 0001:00033670       ?_CallCatchBlock2@@YAPAXPAUEHRegistrationNode@@PBU_s_FuncInfo@@PAXHK@Z 10034670 f   libvcruntimed:trnsctrl.obj
 0001:000336e0       ?_CallSETranslator@@YAHPAUEHExceptionRecord@@PAUEHRegistrationNode@@PAX2PBU_s_FuncInfo@@H1@Z 100346e0 f   libvcruntimed:trnsctrl.obj
 0001:000337e0       ?_JumpToContinuation@@YGXPAXPAUEHRegistrationNode@@@Z 100347e0 f   libvcruntimed:trnsctrl.obj
 0001:00033820       ?_UnwindNestedFrames@@YGXPAUEHRegistrationNode@@PAUEHExceptionRecord@@@Z 10034820 f   libvcruntimed:trnsctrl.obj
 0001:00033880       __CatchGuardHandler        10034880 f   libvcruntimed:trnsctrl.obj
 0001:000338d0       __CreateFrameInfo          100348d0 f   libvcruntimed:trnsctrl.obj
 0001:00033900       __FindAndUnlinkFrame       10034900 f   libvcruntimed:trnsctrl.obj
 0001:00033970       __TranslatorGuardHandler   10034970 f   libvcruntimed:trnsctrl.obj
 0001:00033a20       ___CxxFrameHandler         10034a20 f   libvcruntimed:trnsctrl.obj
 0001:00033a60       ___CxxFrameHandler2        10034a60 f   libvcruntimed:trnsctrl.obj
 0001:00033aa0       ___CxxFrameHandler3        10034aa0 f   libvcruntimed:trnsctrl.obj
 0001:00033ae0       ___CxxLongjmpUnwind@4      10034ae0 f   libvcruntimed:trnsctrl.obj
 0001:00033b20       ___DestructExceptionObject 10034b20 f   libvcruntimed:ehhelpers.obj
 0001:00033c40       ?_CallMemberFunction0@@YGXQAX0@Z 10034c40 f i libvcruntimed:ehhelpers.obj
 0001:00033ce0       ?raw_name@type_info@@QBEPBDXZ 10034ce0 f i libvcruntimed:ehhelpers.obj
 0001:00033d00       __IsExceptionObjectToBeDestroyed 10034d00 f   libvcruntimed:ehhelpers.obj
 0001:00033d40       __SetWinRTOutOfMemoryExceptionCallback 10034d40 f   libvcruntimed:ehhelpers.obj
 0001:00033d50       ___AdjustPointer           10034d50 f   libvcruntimed:ehhelpers.obj
 0001:00033da0       ___FrameUnwindFilter       10034da0 f   libvcruntimed:ehhelpers.obj
 0001:00033e30       ___GetPlatformExceptionInfo 10034e30 f   libvcruntimed:ehhelpers.obj
 0001:00033eb0       ___current_exception       10034eb0 f   libvcruntimed:ehhelpers.obj
 0001:00033ec0       ___current_exception_context 10034ec0 f   libvcruntimed:ehhelpers.obj
 0001:00033ed0       ___processing_throw        10034ed0 f   libvcruntimed:ehhelpers.obj
 0001:00033ee0       ___std_terminate           10034ee0 f   libvcruntimed:ehhelpers.obj
 0001:00033ef0       __is_exception_typeof      10034ef0 f   libvcruntimed:ehhelpers.obj
 0001:00033ff0       ??$?RD@__crt_internal_free_policy@@QBEXQBD@Z 10034ff0 f i libvcruntimed:std_type_info.obj
 0001:00034010       ??$?RX@__crt_internal_free_policy@@QBEXQBX@Z 10035010 f i libvcruntimed:std_type_info.obj
 0001:00034030       ??$__crt_interlocked_compare_exchange_pointer@$$CBDPAD$$T@@YAPBDPDSBDQAD$$T@Z 10035030 f i libvcruntimed:std_type_info.obj
 0001:00034050       ??$__crt_interlocked_read_pointer@$$CBD@@YAPBDPDSBD@Z 10035050 f i libvcruntimed:std_type_info.obj
 0001:00034070       ??0?$__crt_unique_heap_ptr@DU__crt_internal_free_policy@@@@QAE@QAD@Z 10035070 f i libvcruntimed:std_type_info.obj
 0001:00034090       ??0?$__crt_unique_heap_ptr@XU__crt_internal_free_policy@@@@QAE@QAX@Z 10035090 f i libvcruntimed:std_type_info.obj
 0001:000340b0       ??1?$__crt_unique_heap_ptr@DU__crt_internal_free_policy@@@@QAE@XZ 100350b0 f i libvcruntimed:std_type_info.obj
 0001:000340d0       ??1?$__crt_unique_heap_ptr@XU__crt_internal_free_policy@@@@QAE@XZ 100350d0 f i libvcruntimed:std_type_info.obj
 0001:000340f0       ??B?$__crt_unique_heap_ptr@DU__crt_internal_free_policy@@@@QBE_NXZ 100350f0 f i libvcruntimed:std_type_info.obj
 0001:00034110       ??B?$__crt_unique_heap_ptr@XU__crt_internal_free_policy@@@@QBE_NXZ 10035110 f i libvcruntimed:std_type_info.obj
 0001:000341a0       ?detach@?$__crt_unique_heap_ptr@XU__crt_internal_free_policy@@@@QAEPAXXZ 100351a0 f i libvcruntimed:std_type_info.obj
 0001:000341d0       ?get@?$__crt_unique_heap_ptr@DU__crt_internal_free_policy@@@@QBEPADXZ 100351d0 f i libvcruntimed:std_type_info.obj
 0001:000341e0       ?get@?$__crt_unique_heap_ptr@XU__crt_internal_free_policy@@@@QBEPAXXZ 100351e0 f i libvcruntimed:std_type_info.obj
 0001:000341f0       ?is_valid@?$__crt_unique_heap_ptr@DU__crt_internal_free_policy@@@@QBE_NXZ 100351f0 f i libvcruntimed:std_type_info.obj
 0001:00034220       ?is_valid@?$__crt_unique_heap_ptr@XU__crt_internal_free_policy@@@@QBE_NXZ 10035220 f i libvcruntimed:std_type_info.obj
 0001:00034250       ?release@?$__crt_unique_heap_ptr@DU__crt_internal_free_policy@@@@QAEXXZ 10035250 f i libvcruntimed:std_type_info.obj
 0001:00034280       ?release@?$__crt_unique_heap_ptr@XU__crt_internal_free_policy@@@@QAEXXZ 10035280 f i libvcruntimed:std_type_info.obj
 0001:000342b0       ___std_type_info_compare   100352b0 f   libvcruntimed:std_type_info.obj
 0001:000342e0       ___std_type_info_destroy_list 100352e0 f   libvcruntimed:std_type_info.obj
 0001:00034320       ___std_type_info_hash      10035320 f   libvcruntimed:std_type_info.obj
 0001:00034380       ___std_type_info_name      10035380 f   libvcruntimed:std_type_info.obj
 0001:00034560       ___vcrt_GetModuleFileNameW 10035560 f   libvcruntimed:winapi_thunks.obj
 0001:00034580       ___vcrt_GetModuleHandleW   10035580 f   libvcruntimed:winapi_thunks.obj
 0001:00034590       ___vcrt_LoadLibraryExW     10035590 f   libvcruntimed:winapi_thunks.obj
 0001:000345b0       ??$?RD@__crt_public_free_policy@@QBEXQBD@Z 100355b0 f i libvcruntimed:std_exception.obj
 0001:000345d0       ??0?$__crt_unique_heap_ptr@DU__crt_public_free_policy@@@@QAE@QAD@Z 100355d0 f i libvcruntimed:std_exception.obj
 0001:000345f0       ??1?$__crt_unique_heap_ptr@DU__crt_public_free_policy@@@@QAE@XZ 100355f0 f i libvcruntimed:std_exception.obj
 0001:00034610       ??B?$__crt_unique_heap_ptr@DU__crt_public_free_policy@@@@QBE_NXZ 10035610 f i libvcruntimed:std_exception.obj
 0001:00034630       ?detach@?$__crt_unique_heap_ptr@DU__crt_public_free_policy@@@@QAEPADXZ 10035630 f i libvcruntimed:std_exception.obj
 0001:00034660       ?get@?$__crt_unique_heap_ptr@DU__crt_public_free_policy@@@@QBEPADXZ 10035660 f i libvcruntimed:std_exception.obj
 0001:00034670       ?is_valid@?$__crt_unique_heap_ptr@DU__crt_public_free_policy@@@@QBE_NXZ 10035670 f i libvcruntimed:std_exception.obj
 0001:000346a0       ?release@?$__crt_unique_heap_ptr@DU__crt_public_free_policy@@@@QAEXXZ 100356a0 f i libvcruntimed:std_exception.obj
 0001:000346d0       ___std_exception_copy      100356d0 f   libvcruntimed:std_exception.obj
 0001:000347c0       ___std_exception_destroy   100357c0 f   libvcruntimed:std_exception.obj
 0001:000347f0       __CxxThrowException@8      100357f0 f   libvcruntimed:throw.obj
 0001:000348a0       _memmove                   100358a0 f   libvcruntimed:memmove.obj
 0001:00034e20       __local_unwind4            10035e20 f   libvcruntimed:exsup4.obj
 0001:00034ef8       __seh_longjmp_unwind4@4    10035ef8 f   libvcruntimed:exsup4.obj
 0001:00034f20       @_EH4_CallFilterFunc@8     10035f20 f   libvcruntimed:exsup4.obj
 0001:00034f38       @_EH4_TransferToHandler@8  10035f38 f   libvcruntimed:exsup4.obj
 0001:00034f54       @_EH4_GlobalUnwind2@8      10035f54 f   libvcruntimed:exsup4.obj
 0001:00034f70       @_EH4_LocalUnwind@16       10035f70 f   libvcruntimed:exsup4.obj
 0001:00034fa0       ___except_validate_context_record 10035fa0 f   libvcruntimed:jbcxrval.obj
 0001:00034ff0       ___except_validate_jump_buffer 10035ff0 f   libvcruntimed:jbcxrval.obj
 0001:00035010       ___except_validate_jump_buffer_common 10036010 f i libvcruntimed:jbcxrval.obj
 0001:00035070       ??$?RU__vcrt_ptd@@@__crt_internal_free_policy@@QBEXQBU__vcrt_ptd@@@Z 10036070 f i libvcruntimed:per_thread_data.obj
 0001:00035090       ??0?$__crt_unique_heap_ptr@U__vcrt_ptd@@U__crt_internal_free_policy@@@@QAE@QAU__vcrt_ptd@@@Z 10036090 f i libvcruntimed:per_thread_data.obj
 0001:000350d0       ??1?$__crt_unique_heap_ptr@U__vcrt_ptd@@U__crt_internal_free_policy@@@@QAE@XZ 100360d0 f i libvcruntimed:per_thread_data.obj
 0001:00035110       ??B?$__crt_unique_heap_ptr@U__vcrt_ptd@@U__crt_internal_free_policy@@@@QBE_NXZ 10036110 f i libvcruntimed:per_thread_data.obj
 0001:00035130       ?detach@?$__crt_unique_heap_ptr@U__vcrt_ptd@@U__crt_internal_free_policy@@@@QAEPAU__vcrt_ptd@@XZ 10036130 f i libvcruntimed:per_thread_data.obj
 0001:00035160       ?get@?$__crt_unique_heap_ptr@U__vcrt_ptd@@U__crt_internal_free_policy@@@@QBEPAU__vcrt_ptd@@XZ 10036160 f i libvcruntimed:per_thread_data.obj
 0001:00035170       ?is_valid@?$__crt_unique_heap_ptr@U__vcrt_ptd@@U__crt_internal_free_policy@@@@QBE_NXZ 10036170 f i libvcruntimed:per_thread_data.obj
 0001:000351a0       ?release@?$__crt_unique_heap_ptr@U__vcrt_ptd@@U__crt_internal_free_policy@@@@QAEXXZ 100361a0 f i libvcruntimed:per_thread_data.obj
 0001:00035200       ___vcrt_freefls@4          10036200 f   libvcruntimed:per_thread_data.obj
 0001:00035230       ___vcrt_freeptd            10036230 f   libvcruntimed:per_thread_data.obj
 0001:00035290       ___vcrt_getptd             10036290 f   libvcruntimed:per_thread_data.obj
 0001:000352b0       ___vcrt_getptd_noexit      100362b0 f   libvcruntimed:per_thread_data.obj
 0001:00035410       ___vcrt_getptd_noinit      10036410 f   libvcruntimed:per_thread_data.obj
 0001:00035470       ___vcrt_initialize_ptd     10036470 f   libvcruntimed:per_thread_data.obj
 0001:000354c0       ___vcrt_uninitialize_ptd   100364c0 f   libvcruntimed:per_thread_data.obj
 0001:000354f0       ___vcrt_initialize_locks   100364f0 f   libvcruntimed:locks.obj
 0001:00035550       ___vcrt_lock               10036550 f   libvcruntimed:locks.obj
 0001:00035570       ___vcrt_uninitialize_locks 10036570 f   libvcruntimed:locks.obj
 0001:000355c0       ___vcrt_unlock             100365c0 f   libvcruntimed:locks.obj
 0001:00036150       ??$TypeMatchHelper@V__FrameHandler3@@@@YAHPBU_s_HandlerType@@PBU_s_CatchableType@@PBU_s_ThrowInfo@@@Z 10037150 f i libvcruntimed:frame.obj
 0001:00036230       ??$__InternalCxxFrameHandler@V__FrameHandler3@@@@YA?AW4_EXCEPTION_DISPOSITION@@PAUEHExceptionRecord@@PAUEHRegistrationNode@@PAU_CONTEXT@@PAXPBU_s_FuncInfo@@H1E@Z 10037230 f i libvcruntimed:frame.obj
 0001:000363f0       ??0HandlerMap@__FrameHandler3@@QAE@PBU_s_TryBlockMapEntry@@II@Z 100373f0 f i libvcruntimed:frame.obj
 0001:00036420       ??0TryBlockMap@__FrameHandler3@@QAE@PBU_s_FuncInfo@@I@Z 10037420 f i libvcruntimed:frame.obj
 0001:00036450       ??0bad_exception@std@@QAE@ABV01@@Z 10037450 f i libvcruntimed:frame.obj
 0001:00036480       ??0bad_exception@std@@QAE@XZ 10037480 f i libvcruntimed:frame.obj
 0001:000364b0       ??0iterator@HandlerMap@__FrameHandler3@@QAE@AAV12@I@Z 100374b0 f i libvcruntimed:frame.obj
 0001:000364e0       ??1bad_exception@std@@UAE@XZ 100374e0 f i libvcruntimed:frame.obj
 0001:00036500       ??8iterator@HandlerMap@__FrameHandler3@@QBE_NABV012@@Z 10037500 f i libvcruntimed:frame.obj
 0001:00036530       ??8type_info@@QBE_NABV0@@Z 10037530 f i libvcruntimed:frame.obj
 0001:00036570       ??9iterator@HandlerMap@__FrameHandler3@@QBE_NABV012@@Z 10037570 f i libvcruntimed:frame.obj
 0001:000365b0       ??Diterator@HandlerMap@__FrameHandler3@@QAE?BU_s_HandlerType@@XZ 100375b0 f i libvcruntimed:frame.obj
 0001:000365f0       ??Diterator@TryBlockMap@__FrameHandler3@@QAE?BU_s_TryBlockMapEntry@@XZ 100375f0 f i libvcruntimed:frame.obj
 0001:00036640       ??Eiterator@HandlerMap@__FrameHandler3@@QAEAAV012@XZ 10037640 f i libvcruntimed:frame.obj
 0001:00036660       ??Eiterator@TryBlockMap@__FrameHandler3@@QAEAAV012@XZ 10037660 f i libvcruntimed:frame.obj
 0001:00036680       ??Miterator@TryBlockMap@__FrameHandler3@@QBE_NABV012@@Z 10037680 f i libvcruntimed:frame.obj
 0001:000366b0       ??_Ebad_exception@std@@UAEPAXI@Z 100376b0 f i libvcruntimed:frame.obj
 0001:000366b0       ??_Gbad_exception@std@@UAEPAXI@Z 100376b0 f i libvcruntimed:frame.obj
 0001:000366e0       ?BuildCatchObject@__FrameHandler3@@SAXPAUEHExceptionRecord@@PAXPBU_s_HandlerType@@PBU_s_CatchableType@@@Z 100376e0 f   libvcruntimed:frame.obj
 0001:00036700       ?BuildCatchObjectHelper@__FrameHandler3@@SAHPAUEHExceptionRecord@@PAXPBU_s_HandlerType@@PBU_s_CatchableType@@@Z 10037700 f   libvcruntimed:frame.obj
 0001:00036aa0       ?FrameUnwindToEmptyState@__FrameHandler3@@SAXPAUEHRegistrationNode@@PAXPBU_s_FuncInfo@@@Z 10037aa0 f   libvcruntimed:frame.obj
 0001:00036ac0       ?FrameUnwindToState@__FrameHandler3@@SAXPAUEHRegistrationNode@@PAXPBU_s_FuncInfo@@H@Z 10037ac0 f   libvcruntimed:frame.obj
 0001:00036c40       ?GetMaxState@__FrameHandler3@@SAHPAXPBU_s_FuncInfo@@@Z 10037c40 f i libvcruntimed:frame.obj
 0001:00036d60       ?TypeMatch@__FrameHandler3@@SAHPBU_s_HandlerType@@PBU_s_CatchableType@@PBU_s_ThrowInfo@@@Z 10037d60 f   libvcruntimed:frame.obj
 0001:00036d80       ?_CallMemberFunction1@@YGXQAX00@Z 10037d80 f i libvcruntimed:frame.obj
 0001:00036db0       ?_CallMemberFunction2@@YGXQAX00H@Z 10037db0 f i libvcruntimed:frame.obj
 0001:00036de0       ?begin@HandlerMap@__FrameHandler3@@QAE?AViterator@12@XZ 10037de0 f i libvcruntimed:frame.obj
 0001:00036e00       ?end@HandlerMap@__FrameHandler3@@QAE?AViterator@12@XZ 10037e00 f i libvcruntimed:frame.obj
 0001:00036e30       ?getESTypes@__FrameHandler3@@SAPBU_s_ESTypeList@@PBU_s_FuncInfo@@@Z 10037e30 f i libvcruntimed:frame.obj
 0001:00036e40       ?getLastEntry@HandlerMap@__FrameHandler3@@QAEPBU_s_HandlerType@@XZ 10037e40 f i libvcruntimed:frame.obj
 0001:00036e60       ?getMagicNum@__FrameHandler3@@SAIPBU_s_FuncInfo@@@Z 10037e60 f i libvcruntimed:frame.obj
 0001:00036e70       ?getNumTryBlocks@TryBlockMap@__FrameHandler3@@QAEIXZ 10037e70 f i libvcruntimed:frame.obj
 0001:00036e90       ?isEHs@__FrameHandler3@@SA_NPBU_s_FuncInfo@@@Z 10037e90 f i libvcruntimed:frame.obj
 0001:00036ec0       ?isNoExcept@__FrameHandler3@@SA_NPBU_s_FuncInfo@@@Z 10037ec0 f i libvcruntimed:frame.obj
 0001:00036ef0       ___BuildCatchObject        10037ef0 f   libvcruntimed:frame.obj
 0001:00036f10       ___BuildCatchObjectHelper  10037f10 f   libvcruntimed:frame.obj
 0001:00036f30       ___TypeMatch               10037f30 f   libvcruntimed:frame.obj
 0001:00036f50       ___vcrt_EncodePointer      10037f50 f i libvcruntimed:frame.obj
 0001:00036f60       __CallSettingFrame@12      10037f60 f   libvcruntimed:lowhelpr.obj
 0001:00036f87       __NLG_Return               10037f87     libvcruntimed:lowhelpr.obj
 0001:00036fb0       ??$?0$00@DName@@QAE@PBDU?$StringLifeSelector@$00@@@Z 10037fb0 f i libvcruntimed:undname.obj
 0001:00037000       ??$?0$00@pcharNode@@QAE@PBDHU?$StringLifeSelector@$00@@@Z 10038000 f i libvcruntimed:undname.obj
 0001:00037040       ??$?0$01@DName@@QAE@PBDU?$StringLifeSelector@$01@@@Z 10038040 f i libvcruntimed:undname.obj
 0001:00037090       ??$?0$01@pcharNode@@QAE@PBDHU?$StringLifeSelector@$01@@@Z 10038090 f i libvcruntimed:undname.obj
 0001:00037110       ??$?0$0A@@DName@@QAE@PBDU?$StringLifeSelector@$0A@@@@Z 10038110 f i libvcruntimed:undname.obj
 0001:00037160       ??$?0$0A@@pcharNode@@QAE@PBDHU?$StringLifeSelector@$0A@@@@Z 10038160 f i libvcruntimed:undname.obj
 0001:000371e0       ??$append@VDNameNode@@@DName@@AAEXPBVDNameNode@@@Z 100381e0 f i libvcruntimed:undname.obj
 0001:00037270       ??$append@VDNameStatusNode@@@DName@@AAEXPBVDNameStatusNode@@@Z 10038270 f i libvcruntimed:undname.obj
 0001:00037300       ??$append@VcharNode@@@DName@@AAEXPBVcharNode@@@Z 10038300 f i libvcruntimed:undname.obj
 0001:00037390       ??$append@VpDNameNode@@@DName@@AAEXPBVpDNameNode@@@Z 10038390 f i libvcruntimed:undname.obj
 0001:00037420       ??$append@VpcharNode@@@DName@@AAEXPBVpcharNode@@@Z 10038420 f i libvcruntimed:undname.obj
 0001:000374b0       ??$doPchar@$00@DName@@AAEXPBDH@Z 100384b0 f i libvcruntimed:undname.obj
 0001:000375c0       ??$doPchar@$01@DName@@AAEXPBDH@Z 100385c0 f i libvcruntimed:undname.obj
 0001:000376d0       ??$doPchar@$0A@@DName@@AAEXPBDH@Z 100386d0 f i libvcruntimed:undname.obj
 0001:000377e0       ??0Block@_HeapManager@@QAE@XZ 100387e0 f i libvcruntimed:undname.obj
 0001:00037800       ??0DName@@QAE@AAPBDD@Z     10038800 f   libvcruntimed:undname.obj
 0001:00037970       ??0DName@@QAE@ABUStringLiteral@@@Z 10038970 f   libvcruntimed:undname.obj
 0001:000379c0       ??0DName@@QAE@ABV0@@Z      100389c0 f i libvcruntimed:undname.obj
 0001:000379f0       ??0DName@@QAE@D@Z          100389f0 f   libvcruntimed:undname.obj
 0001:00037a20       ??0DName@@QAE@PAV0@@Z      10038a20 f   libvcruntimed:undname.obj
 0001:00037ad0       ??0DName@@QAE@W4DNameStatus@@@Z 10038ad0 f   libvcruntimed:undname.obj
 0001:00037b70       ??0DName@@QAE@XZ           10038b70 f i libvcruntimed:undname.obj
 0001:00037ba0       ??0DName@@QAE@_J@Z         10038ba0 f   libvcruntimed:undname.obj
 0001:00037c90       ??0DName@@QAE@_K@Z         10038c90 f   libvcruntimed:undname.obj
 0001:00037d40       ??0DNameNode@@IAE@XZ       10038d40 f i libvcruntimed:undname.obj
 0001:00037d60       ??0Replicator@@QAE@XZ      10038d60 f i libvcruntimed:undname.obj
 0001:00037da0       ??0UnDecorator@@QAE@PBDP6APADJ@ZK@Z 10038da0 f i libvcruntimed:undname.obj
 0001:00037e20       ??0charNode@@QAE@D@Z       10038e20 f i libvcruntimed:undname.obj
 0001:00037e50       ??0pDNameNode@@QAE@PAVDName@@@Z 10038e50 f   libvcruntimed:undname.obj
 0001:00037eb0       ??0pairNode@@QAE@PBVDNameNode@@0@Z 10038eb0 f i libvcruntimed:undname.obj
 0001:00037f10       ??2@YAPAXIAAV_HeapManager@@H@Z 10038f10 f   libvcruntimed:undname.obj
 0001:00037f50       ??4DName@@QAEAAV0@ABUStringLiteral@@@Z 10038f50 f   libvcruntimed:undname.obj
 0001:00037f90       ??4DName@@QAEAAV0@ABV0@@Z  10038f90 f   libvcruntimed:undname.obj
 0001:00037fc0       ??4DName@@QAEAAV0@D@Z      10038fc0 f i libvcruntimed:undname.obj
 0001:00037ff0       ??4DName@@QAEAAV0@PAV0@@Z  10038ff0 f   libvcruntimed:undname.obj
 0001:00038090       ??4DName@@QAEAAV0@W4DNameStatus@@@Z 10039090 f   libvcruntimed:undname.obj
 0001:00038110       ??AReplicator@@QBE?AVDName@@H@Z 10039110 f   libvcruntimed:undname.obj
 0001:00038180       ??H@YA?AVDName@@ABUStringLiteral@@ABV0@@Z 10039180 f i libvcruntimed:undname.obj
 0001:000381b0       ??H@YA?AVDName@@DABV0@@Z   100391b0 f i libvcruntimed:undname.obj
 0001:000381e0       ??H@YA?AVDName@@W4DNameStatus@@ABV0@@Z 100391e0 f i libvcruntimed:undname.obj
 0001:00038210       ??HDName@@QBE?AV0@ABUStringLiteral@@@Z 10039210 f   libvcruntimed:undname.obj
 0001:00038250       ??HDName@@QBE?AV0@ABV0@@Z  10039250 f   libvcruntimed:undname.obj
 0001:00038290       ??HDName@@QBE?AV0@D@Z      10039290 f   libvcruntimed:undname.obj
 0001:000382d0       ??HDName@@QBE?AV0@PAV0@@Z  100392d0 f   libvcruntimed:undname.obj
 0001:00038310       ??HDName@@QBE?AV0@W4DNameStatus@@@Z 10039310 f   libvcruntimed:undname.obj
 0001:00038350       ??HStringLiteral@@QBE?AU0@H@Z 10039350 f i libvcruntimed:undname.obj
 0001:00038380       ??YDName@@QAEAAV0@ABUStringLiteral@@@Z 10039380 f   libvcruntimed:undname.obj
 0001:00038420       ??YDName@@QAEAAV0@ABV0@@Z  10039420 f   libvcruntimed:undname.obj
 0001:000384c0       ??YDName@@QAEAAV0@D@Z      100394c0 f   libvcruntimed:undname.obj
 0001:00038540       ??YDName@@QAEAAV0@PAV0@@Z  10039540 f   libvcruntimed:undname.obj
 0001:000385f0       ??YDName@@QAEAAV0@W4DNameStatus@@@Z 100395f0 f   libvcruntimed:undname.obj
 0001:00038650       ??YReplicator@@QAEAAV0@ABVDName@@@Z 10039650 f   libvcruntimed:undname.obj
 0001:000386e0       ??_5DName@@QAEAAV0@ABV0@@Z 100396e0 f   libvcruntimed:undname.obj
 0001:00038740       ??__K_l@@YA?AUStringLiteral@@PBDI@Z 10039740 f i libvcruntimed:undname.obj
 0001:00038760       ?Constructor@_HeapManager@@QAEXP6APAXI@ZP6AXPAX@Z@Z 10039760 f i libvcruntimed:undname.obj
 0001:000387a0       ?Destructor@_HeapManager@@QAEXXZ 100397a0 f i libvcruntimed:undname.obj
 0001:00038810       ?UScore@UnDecorator@@SA?AUStringLiteral@@W4Tokens@@@Z 10039810 f   libvcruntimed:undname.obj
 0001:00038860       ?composeDeclaration@UnDecorator@@CA?AVDName@@ABV2@@Z 10039860 f i libvcruntimed:undname.obj
 0001:0003a7d0       ?dbGetString@DName@@QBEPADXZ 1003b7d0 f   libvcruntimed:undname.obj
 0001:0003a7f0       ?doAccessSpecifiers@UnDecorator@@SAHXZ 1003b7f0 f i libvcruntimed:undname.obj
 0001:0003a820       ?doAllocationLanguage@UnDecorator@@SAHXZ 1003b820 f i libvcruntimed:undname.obj
 0001:0003a850       ?doAllocationModel@UnDecorator@@SAHXZ 1003b850 f i libvcruntimed:undname.obj
 0001:0003a880       ?doEcsu@UnDecorator@@SAHXZ 1003b880 f i libvcruntimed:undname.obj
 0001:0003a8b0       ?doEllipsis@UnDecorator@@SAHXZ 1003b8b0 f i libvcruntimed:undname.obj
 0001:0003a8e0       ?doFunctionReturns@UnDecorator@@SAHXZ 1003b8e0 f i libvcruntimed:undname.obj
 0001:0003a910       ?doMSKeywords@UnDecorator@@SAHXZ 1003b910 f i libvcruntimed:undname.obj
 0001:0003a940       ?doMemberTypes@UnDecorator@@SAHXZ 1003b940 f i libvcruntimed:undname.obj
 0001:0003a970       ?doNameOnly@UnDecorator@@SAHXZ 1003b970 f i libvcruntimed:undname.obj
 0001:0003a980       ?doNoIdentCharCheck@UnDecorator@@SAHXZ 1003b980 f i libvcruntimed:undname.obj
 0001:0003a990       ?doPchar@DName@@AAEXD@Z    1003b990 f   libvcruntimed:undname.obj
 0001:0003aa00       ?doPtr64@UnDecorator@@SAHXZ 1003ba00 f i libvcruntimed:undname.obj
 0001:0003aa30       ?doRestrictionSpec@UnDecorator@@SAHXZ 1003ba30 f i libvcruntimed:undname.obj
 0001:0003aa60       ?doThisTypes@UnDecorator@@SAHXZ 1003ba60 f i libvcruntimed:undname.obj
 0001:0003aa90       ?doThrowTypes@UnDecorator@@SAHXZ 1003ba90 f i libvcruntimed:undname.obj
 0001:0003aac0       ?doTypeOnly@UnDecorator@@SAHXZ 1003bac0 f i libvcruntimed:undname.obj
 0001:0003aad0       ?doUnderScore@UnDecorator@@SAHXZ 1003bad0 f i libvcruntimed:undname.obj
 0001:0003ab00       ?getArgumentList@UnDecorator@@CA?AVDName@@XZ 1003bb00 f   libvcruntimed:undname.obj
 0001:0003ac50       ?getArgumentTypes@UnDecorator@@CA?AVDName@@XZ 1003bc50 f   libvcruntimed:undname.obj
 0001:0003ae60       ?getArrayType@UnDecorator@@CA?AVDName@@ABV2@@Z 1003be60 f i libvcruntimed:undname.obj
 0001:0003b100       ?getBasedType@UnDecorator@@CA?AVDName@@XZ 1003c100 f   libvcruntimed:undname.obj
 0001:0003b1f0       ?getBasicDataType@UnDecorator@@CA?AVDName@@ABV2@@Z 1003c1f0 f   libvcruntimed:undname.obj
 0001:0003bb00       ?getCHPEName@UnDecorator@@QAEPADPADH@Z 1003cb00 f i libvcruntimed:undname.obj
 0001:0003bc60       ?getCallIndex@UnDecorator@@CA?AVDName@@XZ 1003cc60 f i libvcruntimed:undname.obj
 0001:0003bc80       ?getCallingConvention@UnDecorator@@CA?AVDName@@XZ 1003cc80 f   libvcruntimed:undname.obj
 0001:0003bec0       ?getDataIndirectType@UnDecorator@@CA?AVDName@@ABV2@W4IndirectionKind@@0H@Z 1003cec0 f   libvcruntimed:undname.obj
 0001:0003c7e0       ?getDataIndirectType@UnDecorator@@CA?AVDName@@XZ 1003d7e0 f i libvcruntimed:undname.obj
 0001:0003c820       ?getDataType@UnDecorator@@CA?AVDName@@PAV2@@Z 1003d820 f   libvcruntimed:undname.obj
 0001:0003c960       ?getDecoratedName@UnDecorator@@CA?AVDName@@XZ 1003d960 f   libvcruntimed:undname.obj
 0001:0003cda0       ?getDimension@UnDecorator@@CA?AVDName@@_N@Z 1003dda0 f   libvcruntimed:undname.obj
 0001:0003d080       ?getDispatchTarget@UnDecorator@@CA?AVDName@@XZ 1003e080 f   libvcruntimed:undname.obj
 0001:0003d120       ?getDisplacement@UnDecorator@@CA?AVDName@@XZ 1003e120 f i libvcruntimed:undname.obj
 0001:0003d140       ?getECSUDataType@UnDecorator@@CA?AVDName@@XZ 1003e140 f   libvcruntimed:undname.obj
 0001:0003d380       ?getECSUName@UnDecorator@@CA?AVDName@@XZ 1003e380 f i libvcruntimed:undname.obj
 0001:0003d3a0       ?getEnumType@UnDecorator@@CA?AVDName@@XZ 1003e3a0 f i libvcruntimed:undname.obj
 0001:0003d550       ?getExtendedDataIndirectType@UnDecorator@@CA?AVDName@@AAW4IndirectionKind@@AA_NH@Z 1003e550 f   libvcruntimed:undname.obj
 0001:0003d7a0       ?getExternalDataType@UnDecorator@@CA?AVDName@@ABV2@@Z 1003e7a0 f i libvcruntimed:undname.obj
 0001:0003d840       ?getFunctionIndirectType@UnDecorator@@CA?AVDName@@ABV2@@Z 1003e840 f   libvcruntimed:undname.obj
 0001:0003dd20       ?getGuardNumber@UnDecorator@@CA?AVDName@@XZ 1003ed20 f i libvcruntimed:undname.obj
 0001:0003dd40       ?getLastChar@DName@@QBEDXZ 1003ed40 f i libvcruntimed:undname.obj
 0001:0003dd80       ?getLastChar@DNameStatusNode@@UBEDXZ 1003ed80 f i libvcruntimed:undname.obj
 0001:0003ddb0       ?getLastChar@charNode@@UBEDXZ 1003edb0 f i libvcruntimed:undname.obj
 0001:0003ddd0       ?getLastChar@pDNameNode@@UBEDXZ 1003edd0 f i libvcruntimed:undname.obj
 0001:0003de00       ?getLastChar@pairNode@@UBEDXZ 1003ee00 f i libvcruntimed:undname.obj
 0001:0003de70       ?getLastChar@pcharNode@@UBEDXZ 1003ee70 f i libvcruntimed:undname.obj
 0001:0003deb0       ?getLexicalFrame@UnDecorator@@CA?AVDName@@XZ 1003eeb0 f i libvcruntimed:undname.obj
 0001:0003def0       ?getMemoryWithBuffer@_HeapManager@@QAEPAXI@Z 1003eef0 f   libvcruntimed:undname.obj
 0001:0003dfe0       ?getMemoryWithoutBuffer@_HeapManager@@QAEPAXI@Z 1003efe0 f   libvcruntimed:undname.obj
 0001:0003e020       ?getNoexcept@UnDecorator@@CA?AVDName@@XZ 1003f020 f   libvcruntimed:undname.obj
 0001:0003e0a0       ?getNumberOfDimensions@UnDecorator@@CAHXZ 1003f0a0 f   libvcruntimed:undname.obj
 0001:0003e1a0       ?getOperatorName@UnDecorator@@CA?AVDName@@_NPA_N@Z 1003f1a0 f i libvcruntimed:undname.obj
 0001:0003ec40       ?getPointerType@UnDecorator@@CA?AVDName@@ABV2@0@Z 1003fc40 f i libvcruntimed:undname.obj
 0001:0003ec60       ?getPointerTypeArray@UnDecorator@@CA?AVDName@@ABV2@0@Z 1003fc60 f i libvcruntimed:undname.obj
 0001:0003ec80       ?getPrimaryDataType@UnDecorator@@CA?AVDName@@ABV2@@Z 1003fc80 f   libvcruntimed:undname.obj
 0001:0003f0f0       ?getPtrRefDataType@UnDecorator@@CA?AVDName@@ABV2@H@Z 100400f0 f   libvcruntimed:undname.obj
 0001:0003f3a0       ?getPtrRefType@UnDecorator@@CA?AVDName@@ABV2@0W4IndirectionKind@@@Z 100403a0 f   libvcruntimed:undname.obj
 0001:0003f520       ?getReferenceType@UnDecorator@@CA?AVDName@@ABV2@0W4IndirectionKind@@@Z 10040520 f i libvcruntimed:undname.obj
 0001:0003f540       ?getRestrictionSpec@UnDecorator@@CA?AVDName@@XZ 10040540 f   libvcruntimed:undname.obj
 0001:0003f700       ?getReturnType@UnDecorator@@CA?AVDName@@PAV2@@Z 10040700 f   libvcruntimed:undname.obj
 0001:0003f750       ?getScope@UnDecorator@@CA?AVDName@@XZ 10040750 f   libvcruntimed:undname.obj
 0001:0003fce0       ?getScopedName@UnDecorator@@CA?AVDName@@XZ 10040ce0 f   libvcruntimed:undname.obj
 0001:0003fe30       ?getSignedDimension@UnDecorator@@CA?AVDName@@XZ 10040e30 f   libvcruntimed:undname.obj
 0001:0003feb0       ?getStorageConvention@UnDecorator@@CA?AVDName@@XZ 10040eb0 f i libvcruntimed:undname.obj
 0001:0003fed0       ?getString@DName@@QBEPADPAD0@Z 10040ed0 f i libvcruntimed:undname.obj
 0001:0003ff30       ?getString@DName@@QBEPADPADH@Z 10040f30 f i libvcruntimed:undname.obj
 0001:0003ffc0       ?getString@DNameStatusNode@@UBEPADPAD0@Z 10040fc0 f i libvcruntimed:undname.obj
 0001:00040000       ?getString@charNode@@UBEPADPAD0@Z 10041000 f i libvcruntimed:undname.obj
 0001:00040030       ?getString@pDNameNode@@UBEPADPAD0@Z 10041030 f i libvcruntimed:undname.obj
 0001:00040070       ?getString@pairNode@@UBEPADPAD0@Z 10041070 f i libvcruntimed:undname.obj
 0001:00040100       ?getString@pcharNode@@UBEPADPAD0@Z 10041100 f i libvcruntimed:undname.obj
 0001:00040130       ?getStringEncoding@UnDecorator@@CA?AVDName@@W4PrefixKind@@H@Z 10041130 f   libvcruntimed:undname.obj
 0001:00040240       ?getStringHelper@@YAPADPADPBD1H@Z 10041240 f i libvcruntimed:undname.obj
 0001:00040280       ?getSymbolName@UnDecorator@@CA?AVDName@@XZ 10041280 f i libvcruntimed:undname.obj
 0001:00040310       ?getTemplateArgumentList@UnDecorator@@CA?AVDName@@XZ 10041310 f   libvcruntimed:undname.obj
 0001:000405e0       ?getTemplateName@UnDecorator@@CA?AVDName@@_N@Z 100415e0 f   libvcruntimed:undname.obj
 0001:000407a0       ?getTemplateNonTypeArgument@UnDecorator@@CA?AVDName@@XZ 100417a0 f   libvcruntimed:undname.obj
 0001:00040e60       ?getTemplateTypeArgument@UnDecorator@@CA?AVDName@@XZ 10041e60 f   libvcruntimed:undname.obj
 0001:00041000       ?getThisType@UnDecorator@@CA?AVDName@@XZ 10042000 f i libvcruntimed:undname.obj
 0001:00041040       ?getThrowTypes@UnDecorator@@CA?AVDName@@XZ 10042040 f   libvcruntimed:undname.obj
 0001:00041080       ?getTypeEncoding@UnDecorator@@CAHXZ 10042080 f i libvcruntimed:undname.obj
 0001:00041b40       ?getUndecoratedName@UnDecorator@@QAEPADPADH@Z 10042b40 f i libvcruntimed:undname.obj
 0001:00041ca0       ?getVCallThunkType@UnDecorator@@CA?AVDName@@XZ 10042ca0 f i libvcruntimed:undname.obj
 0001:00041d20       ?getVbTableType@UnDecorator@@CA?AVDName@@ABV2@@Z 10042d20 f i libvcruntimed:undname.obj
 0001:00041d40       ?getVdispMapType@UnDecorator@@CA?AVDName@@ABV2@@Z 10042d40 f i libvcruntimed:undname.obj
 0001:00041dd0       ?getVfTableType@UnDecorator@@CA?AVDName@@ABV2@@Z 10042dd0 f i libvcruntimed:undname.obj
 0001:00041fd0       ?getZName@UnDecorator@@CA?AVDName@@_N0@Z 10042fd0 f   libvcruntimed:undname.obj
 0001:00042310       ?haveTemplateParameters@UnDecorator@@SAHXZ 10043310 f i libvcruntimed:undname.obj
 0001:00042320       ?isArray@DName@@QBEHXZ     10043320 f i libvcruntimed:undname.obj
 0001:00042340       ?isComArray@DName@@QBEHXZ  10043340 f i libvcruntimed:undname.obj
 0001:00042360       ?isEmpty@DName@@QBEHXZ     10043360 f i libvcruntimed:undname.obj
 0001:00042390       ?isFull@Replicator@@QBEHXZ 10043390 f i libvcruntimed:undname.obj
 0001:000423c0       ?isNoTE@DName@@QBEHXZ      100433c0 f i libvcruntimed:undname.obj
 0001:000423e0       ?isPinPtr@DName@@QBEHXZ    100433e0 f i libvcruntimed:undname.obj
 0001:00042400       ?isPtrRef@DName@@QBEHXZ    10043400 f i libvcruntimed:undname.obj
 0001:00042420       ?isUDC@DName@@QBEHXZ       10043420 f i libvcruntimed:undname.obj
 0001:00042460       ?isUDTThunk@DName@@QBEHXZ  10043460 f i libvcruntimed:undname.obj
 0001:000424a0       ?isVCallThunk@DName@@QBEHXZ 100434a0 f i libvcruntimed:undname.obj
 0001:000424c0       ?isValid@DName@@QBEHXZ     100434c0 f i libvcruntimed:undname.obj
 0001:00042500       ?length@DName@@QBEHXZ      10043500 f i libvcruntimed:undname.obj
 0001:00042540       ?length@DNameStatusNode@@UBEHXZ 10043540 f i libvcruntimed:undname.obj
 0001:00042560       ?length@charNode@@UBEHXZ   10043560 f i libvcruntimed:undname.obj
 0001:00042570       ?length@pDNameNode@@UBEHXZ 10043570 f i libvcruntimed:undname.obj
 0001:000425a0       ?length@pairNode@@UBEHXZ   100435a0 f i libvcruntimed:undname.obj
 0001:00042610       ?length@pcharNode@@UBEHXZ  10043610 f i libvcruntimed:undname.obj
 0001:00042630       ?make@DNameStatusNode@@SAPBV1@W4DNameStatus@@@Z 10043630 f i libvcruntimed:undname.obj
 0001:00042660       ?parseDecoratedName@UnDecorator@@CA?AVDName@@XZ 10043660 f   libvcruntimed:undname.obj
 0001:000427f0       ?raw_length@DNameStatusNode@@UBEHXZ 100437f0 f i libvcruntimed:undname.obj
 0001:00042810       ?raw_length@charNode@@UBEHXZ 10043810 f i libvcruntimed:undname.obj
 0001:00042830       ?raw_length@pDNameNode@@UBEHXZ 10043830 f i libvcruntimed:undname.obj
 0001:00042840       ?raw_length@pairNode@@UBEHXZ 10043840 f i libvcruntimed:undname.obj
 0001:00042860       ?raw_length@pcharNode@@UBEHXZ 10043860 f i libvcruntimed:undname.obj
 0001:00042880       ?setIsArray@DName@@QAEXXZ  10043880 f i libvcruntimed:undname.obj
 0001:000428a0       ?setIsComArray@DName@@QAEXXZ 100438a0 f i libvcruntimed:undname.obj
 0001:000428c0       ?setIsNoTE@DName@@QAEXXZ   100438c0 f i libvcruntimed:undname.obj
 0001:000428e0       ?setIsPinPtr@DName@@QAEXXZ 100438e0 f i libvcruntimed:undname.obj
 0001:00042900       ?setIsUDC@DName@@QAEXXZ    10043900 f i libvcruntimed:undname.obj
 0001:00042930       ?setIsVCallThunk@DName@@QAEXXZ 10043930 f i libvcruntimed:undname.obj
 0001:00042950       ?setPtrRef@DName@@QAEAAV1@XZ 10043950 f i libvcruntimed:undname.obj
 0001:00042970       ?status@DName@@QBE?AW4DNameStatus@@XZ 10043970 f i libvcruntimed:undname.obj
 0001:00042a70       ___unDName                 10043a70 f   libvcruntimed:undname.obj
 0001:00042aa0       ___unDNameEx               10043aa0 f   libvcruntimed:undname.obj
 0001:00042b70       _unDNameGenerateCHPE       10043b70 f   libvcruntimed:undname.obj
 0001:00042bd0       __global_unwind2           10043bd0 f   libvcruntimed:exsup.obj
 0001:00042c36       __local_unwind2            10043c36 f   libvcruntimed:exsup.obj
 0001:00042cba       __abnormal_termination     10043cba f   libvcruntimed:exsup.obj
 0001:00042ce0       __NLG_Notify1              10043ce0 f   libvcruntimed:exsup.obj
 0001:00042cec       __NLG_Notify               10043cec f   libvcruntimed:exsup.obj
 0001:00042d03       __NLG_Dispatch             10043d03     libvcruntimed:exsup.obj
 0001:00042d03       __NLG_Dispatch2            10043d03     libvcruntimed:exsup.obj
 0001:00042d0b       __NLG_Call                 10043d0b f   libvcruntimed:exsup.obj
 0001:00042d0d       __NLG_Return2              10043d0d     libvcruntimed:exsup.obj
 0001:00042d10       ??$__crt_interlocked_exchange_pointer@UHINSTANCE__@@PAU1@@@YAPAUHINSTANCE__@@PDSAU0@QAU0@@Z 10043d10 f i libvcruntimed:winapi_downlevel.obj
 0001:00042d20       ??$__crt_interlocked_exchange_pointer@UHINSTANCE__@@PAX@@YAPAUHINSTANCE__@@PDSAU0@QAX@Z 10043d20 f i libvcruntimed:winapi_downlevel.obj
 0001:00042d30       ??$__crt_interlocked_exchange_pointer@XPAX@@YAPAXPDSAXQAX@Z 10043d30 f i libvcruntimed:winapi_downlevel.obj
 0001:00042d40       ??$__crt_interlocked_read_pointer@UHINSTANCE__@@@@YAPAUHINSTANCE__@@PDSAU0@@Z 10043d40 f i libvcruntimed:winapi_downlevel.obj
 0001:00042d60       ??$__crt_interlocked_read_pointer@X@@YAPAXPDSAX@Z 10043d60 f i libvcruntimed:winapi_downlevel.obj
 0001:00043130       ___vcrt_FlsAlloc           10044130 f   libvcruntimed:winapi_downlevel.obj
 0001:00043170       ___vcrt_FlsFree            10044170 f   libvcruntimed:winapi_downlevel.obj
 0001:000431b0       ___vcrt_FlsGetValue        100441b0 f   libvcruntimed:winapi_downlevel.obj
 0001:000431f0       ___vcrt_FlsSetValue        100441f0 f   libvcruntimed:winapi_downlevel.obj
 0001:00043240       ___vcrt_InitializeCriticalSectionEx 10044240 f   libvcruntimed:winapi_downlevel.obj
 0001:000432c0       __get_unexpected           100442c0 f   libvcruntimed:unexpected.obj
 0001:000432e0       _set_unexpected            100442e0 f   libvcruntimed:unexpected.obj
 0001:00043310       _unexpected                10044310 f   libvcruntimed:unexpected.obj
 0001:00043350       ?GetCurrentState@__FrameHandler3@@SAHPAUEHRegistrationNode@@PAXPBU_s_FuncInfo@@@Z 10044350 f   libvcruntimed:ehstate.obj
 0001:00043380       ?SetState@__FrameHandler3@@SAXPAUEHRegistrationNode@@PBU_s_FuncInfo@@H@Z 10044380 f   libvcruntimed:ehstate.obj
 0001:00043390       ??$?0ABV?$stream_output_adapter@D@__crt_stdio_output@@AB_KABQBDABQAU__crt_locale_pointers@@ABQAD@?$format_validation_base@DV?$stream_output_adapter@D@__crt_stdio_output@@@__crt_stdio_output@@IAE@ABV?$stream_output_adapter@D@1@AB_KABQBDABQAU__crt_locale_pointers@@ABQAD@Z 10044390 f i libucrtd:output.obj
 0001:000433c0       ??$?0ABV?$stream_output_adapter@D@__crt_stdio_output@@AB_KABQBDABQAU__crt_locale_pointers@@ABQAD@?$positional_parameter_base@DV?$stream_output_adapter@D@__crt_stdio_output@@@__crt_stdio_output@@IAE@ABV?$stream_output_adapter@D@1@AB_KABQBDABQAU__crt_locale_pointers@@ABQAD@Z 100443c0 f i libucrtd:output.obj
 0001:00043440       ??$?0ABV?$stream_output_adapter@D@__crt_stdio_output@@AB_KABQBDABQAU__crt_locale_pointers@@ABQAD@?$standard_base@DV?$stream_output_adapter@D@__crt_stdio_output@@@__crt_stdio_output@@IAE@ABV?$stream_output_adapter@D@1@AB_KABQBDABQAU__crt_locale_pointers@@ABQAD@Z 10044440 f i libucrtd:output.obj
 0001:00043490       ??$?0ABV?$stream_output_adapter@_W@__crt_stdio_output@@AB_KABQB_WABQAU__crt_locale_pointers@@ABQAD@?$format_validation_base@_WV?$stream_output_adapter@_W@__crt_stdio_output@@@__crt_stdio_output@@IAE@ABV?$stream_output_adapter@_W@1@AB_KABQB_WABQAU__crt_locale_pointers@@ABQAD@Z 10044490 f i libucrtd:output.obj
 0001:000434c0       ??$?0ABV?$stream_output_adapter@_W@__crt_stdio_output@@AB_KABQB_WABQAU__crt_locale_pointers@@ABQAD@?$positional_parameter_base@_WV?$stream_output_adapter@_W@__crt_stdio_output@@@__crt_stdio_output@@IAE@ABV?$stream_output_adapter@_W@1@AB_KABQB_WABQAU__crt_locale_pointers@@ABQAD@Z 100444c0 f i libucrtd:output.obj
 0001:00043540       ??$?0ABV?$stream_output_adapter@_W@__crt_stdio_output@@AB_KABQB_WABQAU__crt_locale_pointers@@ABQAD@?$standard_base@_WV?$stream_output_adapter@_W@__crt_stdio_output@@@__crt_stdio_output@@IAE@ABV?$stream_output_adapter@_W@1@AB_KABQB_WABQAU__crt_locale_pointers@@ABQAD@Z 10044540 f i libucrtd:output.obj
 0001:00043590       ??$?0ABV?$string_output_adapter@D@__crt_stdio_output@@AB_KABQBDABQAU__crt_locale_pointers@@ABQAD@?$format_validation_base@DV?$string_output_adapter@D@__crt_stdio_output@@@__crt_stdio_output@@IAE@ABV?$string_output_adapter@D@1@AB_KABQBDABQAU__crt_locale_pointers@@ABQAD@Z 10044590 f i libucrtd:output.obj
 0001:000435c0       ??$?0ABV?$string_output_adapter@D@__crt_stdio_output@@AB_KABQBDABQAU__crt_locale_pointers@@ABQAD@?$positional_parameter_base@DV?$string_output_adapter@D@__crt_stdio_output@@@__crt_stdio_output@@IAE@ABV?$string_output_adapter@D@1@AB_KABQBDABQAU__crt_locale_pointers@@ABQAD@Z 100445c0 f i libucrtd:output.obj
 0001:00043640       ??$?0ABV?$string_output_adapter@D@__crt_stdio_output@@AB_KABQBDABQAU__crt_locale_pointers@@ABQAD@?$standard_base@DV?$string_output_adapter@D@__crt_stdio_output@@@__crt_stdio_output@@IAE@ABV?$string_output_adapter@D@1@AB_KABQBDABQAU__crt_locale_pointers@@ABQAD@Z 10044640 f i libucrtd:output.obj
 0001:00043690       ??$?0ABV?$string_output_adapter@_W@__crt_stdio_output@@AB_KABQB_WABQAU__crt_locale_pointers@@ABQAD@?$format_validation_base@_WV?$string_output_adapter@_W@__crt_stdio_output@@@__crt_stdio_output@@IAE@ABV?$string_output_adapter@_W@1@AB_KABQB_WABQAU__crt_locale_pointers@@ABQAD@Z 10044690 f i libucrtd:output.obj
 0001:000436c0       ??$?0ABV?$string_output_adapter@_W@__crt_stdio_output@@AB_KABQB_WABQAU__crt_locale_pointers@@ABQAD@?$positional_parameter_base@_WV?$string_output_adapter@_W@__crt_stdio_output@@@__crt_stdio_output@@IAE@ABV?$string_output_adapter@_W@1@AB_KABQB_WABQAU__crt_locale_pointers@@ABQAD@Z 100446c0 f i libucrtd:output.obj
 0001:00043740       ??$?0ABV?$string_output_adapter@_W@__crt_stdio_output@@AB_KABQB_WABQAU__crt_locale_pointers@@ABQAD@?$standard_base@_WV?$string_output_adapter@_W@__crt_stdio_output@@@__crt_stdio_output@@IAE@ABV?$string_output_adapter@_W@1@AB_KABQB_WABQAU__crt_locale_pointers@@ABQAD@Z 10044740 f i libucrtd:output.obj
 0001:00043c70       ??$__crt_interlocked_read@J@@YAJPDJ@Z 10044c70 f i libucrtd:output.obj
 0001:00046a10       ??$count@D@formatting_buffer@__crt_stdio_output@@QBEIXZ 10047a10 f i libucrtd:output.obj
 0001:00046a50       ??$count@_W@formatting_buffer@__crt_stdio_output@@QBEIXZ 10047a50 f i libucrtd:output.obj
 0001:00046a90       ??$data@D@formatting_buffer@__crt_stdio_output@@QAEPADXZ 10047a90 f i libucrtd:output.obj
 0001:00046ad0       ??$data@_W@formatting_buffer@__crt_stdio_output@@QAEPA_WXZ 10047ad0 f i libucrtd:output.obj
 0001:00046b10       ??$ensure_buffer_is_big_enough@D@formatting_buffer@__crt_stdio_output@@QAE_NI@Z 10047b10 f i libucrtd:output.obj
 0001:00046bf0       ??$ensure_buffer_is_big_enough@_W@formatting_buffer@__crt_stdio_output@@QAE_NI@Z 10047bf0 f i libucrtd:output.obj
 0001:00046ce0       ??$extract_argument_from_va_list@C_J@?$positional_parameter_base@DV?$stream_output_adapter@D@__crt_stdio_output@@@__crt_stdio_output@@IAE_NAA_J@Z 10047ce0 f i libucrtd:output.obj
 0001:00046e20       ??$extract_argument_from_va_list@C_J@?$positional_parameter_base@DV?$string_output_adapter@D@__crt_stdio_output@@@__crt_stdio_output@@IAE_NAA_J@Z 10047e20 f i libucrtd:output.obj
 0001:00046f60       ??$extract_argument_from_va_list@C_J@?$positional_parameter_base@_WV?$stream_output_adapter@_W@__crt_stdio_output@@@__crt_stdio_output@@IAE_NAA_J@Z 10047f60 f i libucrtd:output.obj
 0001:000470a0       ??$extract_argument_from_va_list@C_J@?$positional_parameter_base@_WV?$string_output_adapter@_W@__crt_stdio_output@@@__crt_stdio_output@@IAE_NAA_J@Z 100480a0 f i libucrtd:output.obj
 0001:000471e0       ??$extract_argument_from_va_list@C_J@?$standard_base@DV?$stream_output_adapter@D@__crt_stdio_output@@@__crt_stdio_output@@IAE_NAA_J@Z 100481e0 f i libucrtd:output.obj
 0001:00047210       ??$extract_argument_from_va_list@C_J@?$standard_base@DV?$string_output_adapter@D@__crt_stdio_output@@@__crt_stdio_output@@IAE_NAA_J@Z 10048210 f i libucrtd:output.obj
 0001:00047240       ??$extract_argument_from_va_list@C_J@?$standard_base@_WV?$stream_output_adapter@_W@__crt_stdio_output@@@__crt_stdio_output@@IAE_NAA_J@Z 10048240 f i libucrtd:output.obj
 0001:00047270       ??$extract_argument_from_va_list@C_J@?$standard_base@_WV?$string_output_adapter@_W@__crt_stdio_output@@@__crt_stdio_output@@IAE_NAA_J@Z 10048270 f i libucrtd:output.obj
 0001:000472a0       ??$extract_argument_from_va_list@E_J@?$positional_parameter_base@DV?$stream_output_adapter@D@__crt_stdio_output@@@__crt_stdio_output@@IAE_NAA_J@Z 100482a0 f i libucrtd:output.obj
 0001:000473e0       ??$extract_argument_from_va_list@E_J@?$positional_parameter_base@DV?$string_output_adapter@D@__crt_stdio_output@@@__crt_stdio_output@@IAE_NAA_J@Z 100483e0 f i libucrtd:output.obj
 0001:00047520       ??$extract_argument_from_va_list@E_J@?$positional_parameter_base@_WV?$stream_output_adapter@_W@__crt_stdio_output@@@__crt_stdio_output@@IAE_NAA_J@Z 10048520 f i libucrtd:output.obj
 0001:00047660       ??$extract_argument_from_va_list@E_J@?$positional_parameter_base@_WV?$string_output_adapter@_W@__crt_stdio_output@@@__crt_stdio_output@@IAE_NAA_J@Z 10048660 f i libucrtd:output.obj
 0001:000477a0       ??$extract_argument_from_va_list@E_J@?$standard_base@DV?$stream_output_adapter@D@__crt_stdio_output@@@__crt_stdio_output@@IAE_NAA_J@Z 100487a0 f i libucrtd:output.obj
 0001:000477d0       ??$extract_argument_from_va_list@E_J@?$standard_base@DV?$string_output_adapter@D@__crt_stdio_output@@@__crt_stdio_output@@IAE_NAA_J@Z 100487d0 f i libucrtd:output.obj
 0001:00047800       ??$extract_argument_from_va_list@E_J@?$standard_base@_WV?$stream_output_adapter@_W@__crt_stdio_output@@@__crt_stdio_output@@IAE_NAA_J@Z 10048800 f i libucrtd:output.obj
 0001:00047830       ??$extract_argument_from_va_list@E_J@?$standard_base@_WV?$string_output_adapter@_W@__crt_stdio_output@@@__crt_stdio_output@@IAE_NAA_J@Z 10048830 f i libucrtd:output.obj
 0001:00047860       ??$extract_argument_from_va_list@F_J@?$positional_parameter_base@DV?$stream_output_adapter@D@__crt_stdio_output@@@__crt_stdio_output@@IAE_NAA_J@Z 10048860 f i libucrtd:output.obj
 0001:00047990       ??$extract_argument_from_va_list@F_J@?$positional_parameter_base@DV?$string_output_adapter@D@__crt_stdio_output@@@__crt_stdio_output@@IAE_NAA_J@Z 10048990 f i libucrtd:output.obj
 0001:00047ac0       ??$extract_argument_from_va_list@F_J@?$positional_parameter_base@_WV?$stream_output_adapter@_W@__crt_stdio_output@@@__crt_stdio_output@@IAE_NAA_J@Z 10048ac0 f i libucrtd:output.obj
 0001:00047bf0       ??$extract_argument_from_va_list@F_J@?$positional_parameter_base@_WV?$string_output_adapter@_W@__crt_stdio_output@@@__crt_stdio_output@@IAE_NAA_J@Z 10048bf0 f i libucrtd:output.obj
 0001:00047d20       ??$extract_argument_from_va_list@F_J@?$standard_base@DV?$stream_output_adapter@D@__crt_stdio_output@@@__crt_stdio_output@@IAE_NAA_J@Z 10048d20 f i libucrtd:output.obj
 0001:00047d50       ??$extract_argument_from_va_list@F_J@?$standard_base@DV?$string_output_adapter@D@__crt_stdio_output@@@__crt_stdio_output@@IAE_NAA_J@Z 10048d50 f i libucrtd:output.obj
 0001:00047d80       ??$extract_argument_from_va_list@F_J@?$standard_base@_WV?$stream_output_adapter@_W@__crt_stdio_output@@@__crt_stdio_output@@IAE_NAA_J@Z 10048d80 f i libucrtd:output.obj
 0001:00047db0       ??$extract_argument_from_va_list@F_J@?$standard_base@_WV?$string_output_adapter@_W@__crt_stdio_output@@@__crt_stdio_output@@IAE_NAA_J@Z 10048db0 f i libucrtd:output.obj
 0001:00047de0       ??$extract_argument_from_va_list@GD@?$positional_parameter_base@DV?$stream_output_adapter@D@__crt_stdio_output@@@__crt_stdio_output@@IAE_NAAD@Z 10048de0 f i libucrtd:output.obj
 0001:00047f10       ??$extract_argument_from_va_list@GD@?$positional_parameter_base@DV?$string_output_adapter@D@__crt_stdio_output@@@__crt_stdio_output@@IAE_NAAD@Z 10048f10 f i libucrtd:output.obj
 0001:00048040       ??$extract_argument_from_va_list@GD@?$standard_base@DV?$stream_output_adapter@D@__crt_stdio_output@@@__crt_stdio_output@@IAE_NAAD@Z 10049040 f i libucrtd:output.obj
 0001:00048070       ??$extract_argument_from_va_list@GD@?$standard_base@DV?$string_output_adapter@D@__crt_stdio_output@@@__crt_stdio_output@@IAE_NAAD@Z 10049070 f i libucrtd:output.obj
 0001:000480a0       ??$extract_argument_from_va_list@G_J@?$positional_parameter_base@DV?$stream_output_adapter@D@__crt_stdio_output@@@__crt_stdio_output@@IAE_NAA_J@Z 100490a0 f i libucrtd:output.obj
 0001:000481e0       ??$extract_argument_from_va_list@G_J@?$positional_parameter_base@DV?$string_output_adapter@D@__crt_stdio_output@@@__crt_stdio_output@@IAE_NAA_J@Z 100491e0 f i libucrtd:output.obj
 0001:00048320       ??$extract_argument_from_va_list@G_J@?$positional_parameter_base@_WV?$stream_output_adapter@_W@__crt_stdio_output@@@__crt_stdio_output@@IAE_NAA_J@Z 10049320 f i libucrtd:output.obj
 0001:00048460       ??$extract_argument_from_va_list@G_J@?$positional_parameter_base@_WV?$string_output_adapter@_W@__crt_stdio_output@@@__crt_stdio_output@@IAE_NAA_J@Z 10049460 f i libucrtd:output.obj
 0001:000485a0       ??$extract_argument_from_va_list@G_J@?$standard_base@DV?$stream_output_adapter@D@__crt_stdio_output@@@__crt_stdio_output@@IAE_NAA_J@Z 100495a0 f i libucrtd:output.obj
 0001:000485d0       ??$extract_argument_from_va_list@G_J@?$standard_base@DV?$string_output_adapter@D@__crt_stdio_output@@@__crt_stdio_output@@IAE_NAA_J@Z 100495d0 f i libucrtd:output.obj
 0001:00048600       ??$extract_argument_from_va_list@G_J@?$standard_base@_WV?$stream_output_adapter@_W@__crt_stdio_output@@@__crt_stdio_output@@IAE_NAA_J@Z 10049600 f i libucrtd:output.obj
 0001:00048630       ??$extract_argument_from_va_list@G_J@?$standard_base@_WV?$string_output_adapter@_W@__crt_stdio_output@@@__crt_stdio_output@@IAE_NAA_J@Z 10049630 f i libucrtd:output.obj
 0001:00048660       ??$extract_argument_from_va_list@H_J@?$positional_parameter_base@DV?$stream_output_adapter@D@__crt_stdio_output@@@__crt_stdio_output@@IAE_NAA_J@Z 10049660 f i libucrtd:output.obj
 0001:00048790       ??$extract_argument_from_va_list@H_J@?$positional_parameter_base@DV?$string_output_adapter@D@__crt_stdio_output@@@__crt_stdio_output@@IAE_NAA_J@Z 10049790 f i libucrtd:output.obj
 0001:000488c0       ??$extract_argument_from_va_list@H_J@?$positional_parameter_base@_WV?$stream_output_adapter@_W@__crt_stdio_output@@@__crt_stdio_output@@IAE_NAA_J@Z 100498c0 f i libucrtd:output.obj
 0001:000489f0       ??$extract_argument_from_va_list@H_J@?$positional_parameter_base@_WV?$string_output_adapter@_W@__crt_stdio_output@@@__crt_stdio_output@@IAE_NAA_J@Z 100499f0 f i libucrtd:output.obj
 0001:00048b20       ??$extract_argument_from_va_list@H_J@?$standard_base@DV?$stream_output_adapter@D@__crt_stdio_output@@@__crt_stdio_output@@IAE_NAA_J@Z 10049b20 f i libucrtd:output.obj
 0001:00048b50       ??$extract_argument_from_va_list@H_J@?$standard_base@DV?$string_output_adapter@D@__crt_stdio_output@@@__crt_stdio_output@@IAE_NAA_J@Z 10049b50 f i libucrtd:output.obj
 0001:00048b80       ??$extract_argument_from_va_list@H_J@?$standard_base@_WV?$stream_output_adapter@_W@__crt_stdio_output@@@__crt_stdio_output@@IAE_NAA_J@Z 10049b80 f i libucrtd:output.obj
 0001:00048bb0       ??$extract_argument_from_va_list@H_J@?$standard_base@_WV?$string_output_adapter@_W@__crt_stdio_output@@@__crt_stdio_output@@IAE_NAA_J@Z 10049bb0 f i libucrtd:output.obj
 0001:00048be0       ??$extract_argument_from_va_list@I_J@?$positional_parameter_base@DV?$stream_output_adapter@D@__crt_stdio_output@@@__crt_stdio_output@@IAE_NAA_J@Z 10049be0 f i libucrtd:output.obj
 0001:00048d10       ??$extract_argument_from_va_list@I_J@?$positional_parameter_base@DV?$string_output_adapter@D@__crt_stdio_output@@@__crt_stdio_output@@IAE_NAA_J@Z 10049d10 f i libucrtd:output.obj
 0001:00048e40       ??$extract_argument_from_va_list@I_J@?$positional_parameter_base@_WV?$stream_output_adapter@_W@__crt_stdio_output@@@__crt_stdio_output@@IAE_NAA_J@Z 10049e40 f i libucrtd:output.obj
 0001:00048f70       ??$extract_argument_from_va_list@I_J@?$positional_parameter_base@_WV?$string_output_adapter@_W@__crt_stdio_output@@@__crt_stdio_output@@IAE_NAA_J@Z 10049f70 f i libucrtd:output.obj
 0001:000490a0       ??$extract_argument_from_va_list@I_J@?$standard_base@DV?$stream_output_adapter@D@__crt_stdio_output@@@__crt_stdio_output@@IAE_NAA_J@Z 1004a0a0 f i libucrtd:output.obj
 0001:000490d0       ??$extract_argument_from_va_list@I_J@?$standard_base@DV?$string_output_adapter@D@__crt_stdio_output@@@__crt_stdio_output@@IAE_NAA_J@Z 1004a0d0 f i libucrtd:output.obj
 0001:00049100       ??$extract_argument_from_va_list@I_J@?$standard_base@_WV?$stream_output_adapter@_W@__crt_stdio_output@@@__crt_stdio_output@@IAE_NAA_J@Z 1004a100 f i libucrtd:output.obj
 0001:00049130       ??$extract_argument_from_va_list@I_J@?$standard_base@_WV?$string_output_adapter@_W@__crt_stdio_output@@@__crt_stdio_output@@IAE_NAA_J@Z 1004a130 f i libucrtd:output.obj
 0001:00049160       ??$extract_argument_from_va_list@PADPAD@?$positional_parameter_base@DV?$stream_output_adapter@D@__crt_stdio_output@@@__crt_stdio_output@@IAE_NAAPAD@Z 1004a160 f i libucrtd:output.obj
 0001:00049290       ??$extract_argument_from_va_list@PADPAD@?$positional_parameter_base@DV?$string_output_adapter@D@__crt_stdio_output@@@__crt_stdio_output@@IAE_NAAPAD@Z 1004a290 f i libucrtd:output.obj
 0001:000493c0       ??$extract_argument_from_va_list@PADPAD@?$positional_parameter_base@_WV?$stream_output_adapter@_W@__crt_stdio_output@@@__crt_stdio_output@@IAE_NAAPAD@Z 1004a3c0 f i libucrtd:output.obj
 0001:000494f0       ??$extract_argument_from_va_list@PADPAD@?$positional_parameter_base@_WV?$string_output_adapter@_W@__crt_stdio_output@@@__crt_stdio_output@@IAE_NAAPAD@Z 1004a4f0 f i libucrtd:output.obj
 0001:00049620       ??$extract_argument_from_va_list@PADPAD@?$standard_base@DV?$stream_output_adapter@D@__crt_stdio_output@@@__crt_stdio_output@@IAE_NAAPAD@Z 1004a620 f i libucrtd:output.obj
 0001:00049650       ??$extract_argument_from_va_list@PADPAD@?$standard_base@DV?$string_output_adapter@D@__crt_stdio_output@@@__crt_stdio_output@@IAE_NAAPAD@Z 1004a650 f i libucrtd:output.obj
 0001:00049680       ??$extract_argument_from_va_list@PADPAD@?$standard_base@_WV?$stream_output_adapter@_W@__crt_stdio_output@@@__crt_stdio_output@@IAE_NAAPAD@Z 1004a680 f i libucrtd:output.obj
 0001:000496b0       ??$extract_argument_from_va_list@PADPAD@?$standard_base@_WV?$string_output_adapter@_W@__crt_stdio_output@@@__crt_stdio_output@@IAE_NAAPAD@Z 1004a6b0 f i libucrtd:output.obj
 0001:00049de0       ??$extract_argument_from_va_list@PAXPAX@?$positional_parameter_base@DV?$stream_output_adapter@D@__crt_stdio_output@@@__crt_stdio_output@@IAE_NAAPAX@Z 1004ade0 f i libucrtd:output.obj
 0001:00049f10       ??$extract_argument_from_va_list@PAXPAX@?$positional_parameter_base@DV?$string_output_adapter@D@__crt_stdio_output@@@__crt_stdio_output@@IAE_NAAPAX@Z 1004af10 f i libucrtd:output.obj
 0001:0004a040       ??$extract_argument_from_va_list@PAXPAX@?$positional_parameter_base@_WV?$stream_output_adapter@_W@__crt_stdio_output@@@__crt_stdio_output@@IAE_NAAPAX@Z 1004b040 f i libucrtd:output.obj
 0001:0004a170       ??$extract_argument_from_va_list@PAXPAX@?$positional_parameter_base@_WV?$string_output_adapter@_W@__crt_stdio_output@@@__crt_stdio_output@@IAE_NAAPAX@Z 1004b170 f i libucrtd:output.obj
 0001:0004a2a0       ??$extract_argument_from_va_list@PAXPAX@?$standard_base@DV?$stream_output_adapter@D@__crt_stdio_output@@@__crt_stdio_output@@IAE_NAAPAX@Z 1004b2a0 f i libucrtd:output.obj
 0001:0004a2d0       ??$extract_argument_from_va_list@PAXPAX@?$standard_base@DV?$string_output_adapter@D@__crt_stdio_output@@@__crt_stdio_output@@IAE_NAAPAX@Z 1004b2d0 f i libucrtd:output.obj
 0001:0004a300       ??$extract_argument_from_va_list@PAXPAX@?$standard_base@_WV?$stream_output_adapter@_W@__crt_stdio_output@@@__crt_stdio_output@@IAE_NAAPAX@Z 1004b300 f i libucrtd:output.obj
 0001:0004a330       ??$extract_argument_from_va_list@PAXPAX@?$standard_base@_WV?$string_output_adapter@_W@__crt_stdio_output@@@__crt_stdio_output@@IAE_NAAPAX@Z 1004b330 f i libucrtd:output.obj
 0001:0004a360       ??$extract_argument_from_va_list@U_CRT_DOUBLE@@U1@@?$positional_parameter_base@DV?$stream_output_adapter@D@__crt_stdio_output@@@__crt_stdio_output@@IAE_NAAU_CRT_DOUBLE@@@Z 1004b360 f i libucrtd:output.obj
 0001:0004a4c0       ??$extract_argument_from_va_list@U_CRT_DOUBLE@@U1@@?$positional_parameter_base@DV?$string_output_adapter@D@__crt_stdio_output@@@__crt_stdio_output@@IAE_NAAU_CRT_DOUBLE@@@Z 1004b4c0 f i libucrtd:output.obj
 0001:0004a620       ??$extract_argument_from_va_list@U_CRT_DOUBLE@@U1@@?$positional_parameter_base@_WV?$stream_output_adapter@_W@__crt_stdio_output@@@__crt_stdio_output@@IAE_NAAU_CRT_DOUBLE@@@Z 1004b620 f i libucrtd:output.obj
 0001:0004a780       ??$extract_argument_from_va_list@U_CRT_DOUBLE@@U1@@?$positional_parameter_base@_WV?$string_output_adapter@_W@__crt_stdio_output@@@__crt_stdio_output@@IAE_NAAU_CRT_DOUBLE@@@Z 1004b780 f i libucrtd:output.obj
 0001:0004a8e0       ??$extract_argument_from_va_list@U_CRT_DOUBLE@@U1@@?$standard_base@DV?$stream_output_adapter@D@__crt_stdio_output@@@__crt_stdio_output@@IAE_NAAU_CRT_DOUBLE@@@Z 1004b8e0 f i libucrtd:output.obj
 0001:0004a930       ??$extract_argument_from_va_list@U_CRT_DOUBLE@@U1@@?$standard_base@DV?$string_output_adapter@D@__crt_stdio_output@@@__crt_stdio_output@@IAE_NAAU_CRT_DOUBLE@@@Z 1004b930 f i libucrtd:output.obj
 0001:0004a980       ??$extract_argument_from_va_list@U_CRT_DOUBLE@@U1@@?$standard_base@_WV?$stream_output_adapter@_W@__crt_stdio_output@@@__crt_stdio_output@@IAE_NAAU_CRT_DOUBLE@@@Z 1004b980 f i libucrtd:output.obj
 0001:0004a9d0       ??$extract_argument_from_va_list@U_CRT_DOUBLE@@U1@@?$standard_base@_WV?$string_output_adapter@_W@__crt_stdio_output@@@__crt_stdio_output@@IAE_NAAU_CRT_DOUBLE@@@Z 1004b9d0 f i libucrtd:output.obj
 0001:0004aa20       ??$extract_argument_from_va_list@_J_J@?$positional_parameter_base@DV?$stream_output_adapter@D@__crt_stdio_output@@@__crt_stdio_output@@IAE_NAA_J@Z 1004ba20 f i libucrtd:output.obj
 0001:0004ab50       ??$extract_argument_from_va_list@_J_J@?$positional_parameter_base@DV?$string_output_adapter@D@__crt_stdio_output@@@__crt_stdio_output@@IAE_NAA_J@Z 1004bb50 f i libucrtd:output.obj
 0001:0004ac80       ??$extract_argument_from_va_list@_J_J@?$positional_parameter_base@_WV?$stream_output_adapter@_W@__crt_stdio_output@@@__crt_stdio_output@@IAE_NAA_J@Z 1004bc80 f i libucrtd:output.obj
 0001:0004adb0       ??$extract_argument_from_va_list@_J_J@?$positional_parameter_base@_WV?$string_output_adapter@_W@__crt_stdio_output@@@__crt_stdio_output@@IAE_NAA_J@Z 1004bdb0 f i libucrtd:output.obj
 0001:0004aee0       ??$extract_argument_from_va_list@_J_J@?$standard_base@DV?$stream_output_adapter@D@__crt_stdio_output@@@__crt_stdio_output@@IAE_NAA_J@Z 1004bee0 f i libucrtd:output.obj
 0001:0004af10       ??$extract_argument_from_va_list@_J_J@?$standard_base@DV?$string_output_adapter@D@__crt_stdio_output@@@__crt_stdio_output@@IAE_NAA_J@Z 1004bf10 f i libucrtd:output.obj
 0001:0004af40       ??$extract_argument_from_va_list@_J_J@?$standard_base@_WV?$stream_output_adapter@_W@__crt_stdio_output@@@__crt_stdio_output@@IAE_NAA_J@Z 1004bf40 f i libucrtd:output.obj
 0001:0004af70       ??$extract_argument_from_va_list@_J_J@?$standard_base@_WV?$string_output_adapter@_W@__crt_stdio_output@@@__crt_stdio_output@@IAE_NAA_J@Z 1004bf70 f i libucrtd:output.obj
 0001:0004afa0       ??$extract_argument_from_va_list@_K_J@?$positional_parameter_base@DV?$stream_output_adapter@D@__crt_stdio_output@@@__crt_stdio_output@@IAE_NAA_J@Z 1004bfa0 f i libucrtd:output.obj
 0001:0004b0d0       ??$extract_argument_from_va_list@_K_J@?$positional_parameter_base@DV?$string_output_adapter@D@__crt_stdio_output@@@__crt_stdio_output@@IAE_NAA_J@Z 1004c0d0 f i libucrtd:output.obj
 0001:0004b200       ??$extract_argument_from_va_list@_K_J@?$positional_parameter_base@_WV?$stream_output_adapter@_W@__crt_stdio_output@@@__crt_stdio_output@@IAE_NAA_J@Z 1004c200 f i libucrtd:output.obj
 0001:0004b330       ??$extract_argument_from_va_list@_K_J@?$positional_parameter_base@_WV?$string_output_adapter@_W@__crt_stdio_output@@@__crt_stdio_output@@IAE_NAA_J@Z 1004c330 f i libucrtd:output.obj
 0001:0004b460       ??$extract_argument_from_va_list@_K_J@?$standard_base@DV?$stream_output_adapter@D@__crt_stdio_output@@@__crt_stdio_output@@IAE_NAA_J@Z 1004c460 f i libucrtd:output.obj
 0001:0004b490       ??$extract_argument_from_va_list@_K_J@?$standard_base@DV?$string_output_adapter@D@__crt_stdio_output@@@__crt_stdio_output@@IAE_NAA_J@Z 1004c490 f i libucrtd:output.obj
 0001:0004b4c0       ??$extract_argument_from_va_list@_K_J@?$standard_base@_WV?$stream_output_adapter@_W@__crt_stdio_output@@@__crt_stdio_output@@IAE_NAA_J@Z 1004c4c0 f i libucrtd:output.obj
 0001:0004b4f0       ??$extract_argument_from_va_list@_K_J@?$standard_base@_WV?$string_output_adapter@_W@__crt_stdio_output@@@__crt_stdio_output@@IAE_NAA_J@Z 1004c4f0 f i libucrtd:output.obj
 0001:0004b520       ??$extract_argument_from_va_list@_W_W@?$positional_parameter_base@DV?$stream_output_adapter@D@__crt_stdio_output@@@__crt_stdio_output@@IAE_NAA_W@Z 1004c520 f i libucrtd:output.obj
 0001:0004b650       ??$extract_argument_from_va_list@_W_W@?$positional_parameter_base@DV?$string_output_adapter@D@__crt_stdio_output@@@__crt_stdio_output@@IAE_NAA_W@Z 1004c650 f i libucrtd:output.obj
 0001:0004b780       ??$extract_argument_from_va_list@_W_W@?$positional_parameter_base@_WV?$stream_output_adapter@_W@__crt_stdio_output@@@__crt_stdio_output@@IAE_NAA_W@Z 1004c780 f i libucrtd:output.obj
 0001:0004b8b0       ??$extract_argument_from_va_list@_W_W@?$positional_parameter_base@_WV?$string_output_adapter@_W@__crt_stdio_output@@@__crt_stdio_output@@IAE_NAA_W@Z 1004c8b0 f i libucrtd:output.obj
 0001:0004b9e0       ??$extract_argument_from_va_list@_W_W@?$standard_base@DV?$stream_output_adapter@D@__crt_stdio_output@@@__crt_stdio_output@@IAE_NAA_W@Z 1004c9e0 f i libucrtd:output.obj
 0001:0004ba10       ??$extract_argument_from_va_list@_W_W@?$standard_base@DV?$string_output_adapter@D@__crt_stdio_output@@@__crt_stdio_output@@IAE_NAA_W@Z 1004ca10 f i libucrtd:output.obj
 0001:0004ba40       ??$extract_argument_from_va_list@_W_W@?$standard_base@_WV?$stream_output_adapter@_W@__crt_stdio_output@@@__crt_stdio_output@@IAE_NAA_W@Z 1004ca40 f i libucrtd:output.obj
 0001:0004ba70       ??$extract_argument_from_va_list@_W_W@?$standard_base@_WV?$string_output_adapter@_W@__crt_stdio_output@@@__crt_stdio_output@@IAE_NAA_W@Z 1004ca70 f i libucrtd:output.obj
 0001:0004baa0       ??$get_parameter_type@D@?$positional_parameter_base@DV?$stream_output_adapter@D@__crt_stdio_output@@@__crt_stdio_output@@CA?AW4parameter_type@01@PAD@Z 1004caa0 f i libucrtd:output.obj
 0001:0004bab0       ??$get_parameter_type@D@?$positional_parameter_base@DV?$string_output_adapter@D@__crt_stdio_output@@@__crt_stdio_output@@CA?AW4parameter_type@01@PAD@Z 1004cab0 f i libucrtd:output.obj
 0001:0004bac0       ??$get_parameter_type@D@?$positional_parameter_base@_WV?$stream_output_adapter@_W@__crt_stdio_output@@@__crt_stdio_output@@CA?AW4parameter_type@01@PAD@Z 1004cac0 f i libucrtd:output.obj
 0001:0004bad0       ??$get_parameter_type@D@?$positional_parameter_base@_WV?$string_output_adapter@_W@__crt_stdio_output@@@__crt_stdio_output@@CA?AW4parameter_type@01@PAD@Z 1004cad0 f i libucrtd:output.obj
 0001:0004bb20       ??$get_parameter_type@X@?$positional_parameter_base@DV?$stream_output_adapter@D@__crt_stdio_output@@@__crt_stdio_output@@CA?AW4parameter_type@01@PAX@Z 1004cb20 f i libucrtd:output.obj
 0001:0004bb30       ??$get_parameter_type@X@?$positional_parameter_base@DV?$string_output_adapter@D@__crt_stdio_output@@@__crt_stdio_output@@CA?AW4parameter_type@01@PAX@Z 1004cb30 f i libucrtd:output.obj
 0001:0004bb40       ??$get_parameter_type@X@?$positional_parameter_base@_WV?$stream_output_adapter@_W@__crt_stdio_output@@@__crt_stdio_output@@CA?AW4parameter_type@01@PAX@Z 1004cb40 f i libucrtd:output.obj
 0001:0004bb50       ??$get_parameter_type@X@?$positional_parameter_base@_WV?$string_output_adapter@_W@__crt_stdio_output@@@__crt_stdio_output@@CA?AW4parameter_type@01@PAX@Z 1004cb50 f i libucrtd:output.obj
 0001:0004bb60       ??$is_character_specifier@D@?$positional_parameter_base@DV?$stream_output_adapter@D@__crt_stdio_output@@@__crt_stdio_output@@CA_ND@Z 1004cb60 f i libucrtd:output.obj
 0001:0004bb90       ??$is_character_specifier@D@?$positional_parameter_base@DV?$string_output_adapter@D@__crt_stdio_output@@@__crt_stdio_output@@CA_ND@Z 1004cb90 f i libucrtd:output.obj
 0001:0004bbc0       ??$is_character_specifier@_W@?$positional_parameter_base@_WV?$stream_output_adapter@_W@__crt_stdio_output@@@__crt_stdio_output@@CA_N_W@Z 1004cbc0 f i libucrtd:output.obj
 0001:0004bbf0       ??$is_character_specifier@_W@?$positional_parameter_base@_WV?$string_output_adapter@_W@__crt_stdio_output@@@__crt_stdio_output@@CA_N_W@Z 1004cbf0 f i libucrtd:output.obj
 0001:0004bc20       ??$is_integral_specifier@D@?$positional_parameter_base@DV?$stream_output_adapter@D@__crt_stdio_output@@@__crt_stdio_output@@CA_ND@Z 1004cc20 f i libucrtd:output.obj
 0001:0004bc80       ??$is_integral_specifier@D@?$positional_parameter_base@DV?$string_output_adapter@D@__crt_stdio_output@@@__crt_stdio_output@@CA_ND@Z 1004cc80 f i libucrtd:output.obj
 0001:0004bce0       ??$is_integral_specifier@_W@?$positional_parameter_base@_WV?$stream_output_adapter@_W@__crt_stdio_output@@@__crt_stdio_output@@CA_N_W@Z 1004cce0 f i libucrtd:output.obj
 0001:0004bd40       ??$is_integral_specifier@_W@?$positional_parameter_base@_WV?$string_output_adapter@_W@__crt_stdio_output@@@__crt_stdio_output@@CA_N_W@Z 1004cd40 f i libucrtd:output.obj
 0001:0004bda0       ??$is_pointer_specifier@D@?$positional_parameter_base@DV?$stream_output_adapter@D@__crt_stdio_output@@@__crt_stdio_output@@CA_ND@Z 1004cda0 f i libucrtd:output.obj
 0001:0004bdd0       ??$is_pointer_specifier@D@?$positional_parameter_base@DV?$string_output_adapter@D@__crt_stdio_output@@@__crt_stdio_output@@CA_ND@Z 1004cdd0 f i libucrtd:output.obj
 0001:0004be00       ??$is_pointer_specifier@_W@?$positional_parameter_base@_WV?$stream_output_adapter@_W@__crt_stdio_output@@@__crt_stdio_output@@CA_N_W@Z 1004ce00 f i libucrtd:output.obj
 0001:0004be30       ??$is_pointer_specifier@_W@?$positional_parameter_base@_WV?$string_output_adapter@_W@__crt_stdio_output@@@__crt_stdio_output@@CA_N_W@Z 1004ce30 f i libucrtd:output.obj
 0001:0004be60       ??$is_string_specifier@D@?$positional_parameter_base@DV?$stream_output_adapter@D@__crt_stdio_output@@@__crt_stdio_output@@CA_ND@Z 1004ce60 f i libucrtd:output.obj
 0001:0004be90       ??$is_string_specifier@D@?$positional_parameter_base@DV?$string_output_adapter@D@__crt_stdio_output@@@__crt_stdio_output@@CA_ND@Z 1004ce90 f i libucrtd:output.obj
 0001:0004bec0       ??$is_string_specifier@_W@?$positional_parameter_base@_WV?$stream_output_adapter@_W@__crt_stdio_output@@@__crt_stdio_output@@CA_N_W@Z 1004cec0 f i libucrtd:output.obj
 0001:0004bef0       ??$is_string_specifier@_W@?$positional_parameter_base@_WV?$string_output_adapter@_W@__crt_stdio_output@@@__crt_stdio_output@@CA_N_W@Z 1004cef0 f i libucrtd:output.obj
 0001:0004bf20       ??$is_wide_character_specifier@D@__crt_stdio_output@@YA_N_KDW4length_modifier@0@@Z 1004cf20 f i libucrtd:output.obj
 0001:0004bfa0       ??$is_wide_character_specifier@_W@__crt_stdio_output@@YA_N_K_WW4length_modifier@0@@Z 1004cfa0 f i libucrtd:output.obj
 0001:0004c060       ??$peek_va_arg@C@__crt_stdio_output@@YACPAD@Z 1004d060 f i libucrtd:output.obj
 0001:0004c080       ??$peek_va_arg@E@__crt_stdio_output@@YAEPAD@Z 1004d080 f i libucrtd:output.obj
 0001:0004c0a0       ??$peek_va_arg@F@__crt_stdio_output@@YAFPAD@Z 1004d0a0 f i libucrtd:output.obj
 0001:0004c0c0       ??$peek_va_arg@G@__crt_stdio_output@@YAGPAD@Z 1004d0c0 f i libucrtd:output.obj
 0001:0004c0e0       ??$peek_va_arg@H@__crt_stdio_output@@YAHPAD@Z 1004d0e0 f i libucrtd:output.obj
 0001:0004c100       ??$peek_va_arg@I@__crt_stdio_output@@YAIPAD@Z 1004d100 f i libucrtd:output.obj
 0001:0004c120       ??$peek_va_arg@PAD@__crt_stdio_output@@YAPADPAD@Z 1004d120 f i libucrtd:output.obj
 0001:0004c1c0       ??$peek_va_arg@PAX@__crt_stdio_output@@YAPAXPAD@Z 1004d1c0 f i libucrtd:output.obj
 0001:0004c1e0       ??$peek_va_arg@U_CRT_DOUBLE@@@__crt_stdio_output@@YA?AU_CRT_DOUBLE@@PAD@Z 1004d1e0 f i libucrtd:output.obj
 0001:0004c200       ??$peek_va_arg@_J@__crt_stdio_output@@YA_JPAD@Z 1004d200 f i libucrtd:output.obj
 0001:0004c220       ??$peek_va_arg@_K@__crt_stdio_output@@YA_KPAD@Z 1004d220 f i libucrtd:output.obj
 0001:0004c240       ??$peek_va_arg@_W@__crt_stdio_output@@YA_WPAD@Z 1004d240 f i libucrtd:output.obj
 0001:0004c260       ??$puttc_nolock@ABDPAU_iobuf@@@?$__crt_char_traits@D@@SAHABD$$QAPAU_iobuf@@@Z 1004d260 f i libucrtd:output.obj
 0001:0004c280       ??$puttc_nolock@AB_WPAU_iobuf@@@?$__crt_char_traits@_W@@SAGAB_W$$QAPAU_iobuf@@@Z 1004d280 f i libucrtd:output.obj
 0001:0004c2a0       ??$read_va_arg@C@__crt_stdio_output@@YACAAPAD@Z 1004d2a0 f i libucrtd:output.obj
 0001:0004c2c0       ??$read_va_arg@E@__crt_stdio_output@@YAEAAPAD@Z 1004d2c0 f i libucrtd:output.obj
 0001:0004c2e0       ??$read_va_arg@F@__crt_stdio_output@@YAFAAPAD@Z 1004d2e0 f i libucrtd:output.obj
 0001:0004c300       ??$read_va_arg@G@__crt_stdio_output@@YAGAAPAD@Z 1004d300 f i libucrtd:output.obj
 0001:0004c320       ??$read_va_arg@H@__crt_stdio_output@@YAHAAPAD@Z 1004d320 f i libucrtd:output.obj
 0001:0004c340       ??$read_va_arg@I@__crt_stdio_output@@YAIAAPAD@Z 1004d340 f i libucrtd:output.obj
 0001:0004c360       ??$read_va_arg@PAD@__crt_stdio_output@@YAPADAAPAD@Z 1004d360 f i libucrtd:output.obj
 0001:0004c500       ??$read_va_arg@PAX@__crt_stdio_output@@YAPAXAAPAD@Z 1004d500 f i libucrtd:output.obj
 0001:0004c520       ??$read_va_arg@U_CRT_DOUBLE@@@__crt_stdio_output@@YA?AU_CRT_DOUBLE@@AAPAD@Z 1004d520 f i libucrtd:output.obj
 0001:0004c540       ??$read_va_arg@_J@__crt_stdio_output@@YA_JAAPAD@Z 1004d540 f i libucrtd:output.obj
 0001:0004c560       ??$read_va_arg@_K@__crt_stdio_output@@YA_KAAPAD@Z 1004d560 f i libucrtd:output.obj
 0001:0004c580       ??$read_va_arg@_W@__crt_stdio_output@@YA_WAAPAD@Z 1004d580 f i libucrtd:output.obj
 0001:0004c5a0       ??$scratch_count@D@formatting_buffer@__crt_stdio_output@@QBEIXZ 1004d5a0 f i libucrtd:output.obj
 0001:0004c5c0       ??$scratch_data@D@formatting_buffer@__crt_stdio_output@@QAEPADXZ 1004d5c0 f i libucrtd:output.obj
 0001:0004c610       ??$tcstol@AAPBDPAPADH@?$__crt_char_traits@D@@SAJAAPBD$$QAPAPAD$$QAH@Z 1004d610 f i libucrtd:output.obj
 0001:0004c640       ??$tcstol@AAPB_WPAPA_WH@?$__crt_char_traits@_W@@SAJAAPB_W$$QAPAPA_W$$QAH@Z 1004d640 f i libucrtd:output.obj
 0001:0004c670       ??$tcstol@PBDPAPADH@?$__crt_char_traits@D@@SAJ$$QAPBD$$QAPAPAD$$QAH@Z 1004d670 f i libucrtd:output.obj
 0001:0004c6a0       ??$tcstol@PB_WPAPA_WH@?$__crt_char_traits@_W@@SAJ$$QAPB_W$$QAPAPA_W$$QAH@Z 1004d6a0 f i libucrtd:output.obj
 0001:0004c6d0       ??$type_case_integer_parse_into_buffer@I@?$output_processor@DV?$stream_output_adapter@D@__crt_stdio_output@@V?$format_validation_base@DV?$stream_output_adapter@D@__crt_stdio_output@@@2@@__crt_stdio_output@@AAEXII_N@Z 1004d6d0 f i libucrtd:output.obj
 0001:0004c7a0       ??$type_case_integer_parse_into_buffer@I@?$output_processor@DV?$stream_output_adapter@D@__crt_stdio_output@@V?$positional_parameter_base@DV?$stream_output_adapter@D@__crt_stdio_output@@@2@@__crt_stdio_output@@AAEXII_N@Z 1004d7a0 f i libucrtd:output.obj
 0001:0004c870       ??$type_case_integer_parse_into_buffer@I@?$output_processor@DV?$stream_output_adapter@D@__crt_stdio_output@@V?$standard_base@DV?$stream_output_adapter@D@__crt_stdio_output@@@2@@__crt_stdio_output@@AAEXII_N@Z 1004d870 f i libucrtd:output.obj
 0001:0004c940       ??$type_case_integer_parse_into_buffer@I@?$output_processor@DV?$string_output_adapter@D@__crt_stdio_output@@V?$format_validation_base@DV?$string_output_adapter@D@__crt_stdio_output@@@2@@__crt_stdio_output@@AAEXII_N@Z 1004d940 f i libucrtd:output.obj
 0001:0004ca10       ??$type_case_integer_parse_into_buffer@I@?$output_processor@DV?$string_output_adapter@D@__crt_stdio_output@@V?$positional_parameter_base@DV?$string_output_adapter@D@__crt_stdio_output@@@2@@__crt_stdio_output@@AAEXII_N@Z 1004da10 f i libucrtd:output.obj
 0001:0004cae0       ??$type_case_integer_parse_into_buffer@I@?$output_processor@DV?$string_output_adapter@D@__crt_stdio_output@@V?$standard_base@DV?$string_output_adapter@D@__crt_stdio_output@@@2@@__crt_stdio_output@@AAEXII_N@Z 1004dae0 f i libucrtd:output.obj
 0001:0004cbb0       ??$type_case_integer_parse_into_buffer@I@?$output_processor@_WV?$stream_output_adapter@_W@__crt_stdio_output@@V?$format_validation_base@_WV?$stream_output_adapter@_W@__crt_stdio_output@@@2@@__crt_stdio_output@@AAEXII_N@Z 1004dbb0 f i libucrtd:output.obj
 0001:0004cc90       ??$type_case_integer_parse_into_buffer@I@?$output_processor@_WV?$stream_output_adapter@_W@__crt_stdio_output@@V?$positional_parameter_base@_WV?$stream_output_adapter@_W@__crt_stdio_output@@@2@@__crt_stdio_output@@AAEXII_N@Z 1004dc90 f i libucrtd:output.obj
 0001:0004cd70       ??$type_case_integer_parse_into_buffer@I@?$output_processor@_WV?$stream_output_adapter@_W@__crt_stdio_output@@V?$standard_base@_WV?$stream_output_adapter@_W@__crt_stdio_output@@@2@@__crt_stdio_output@@AAEXII_N@Z 1004dd70 f i libucrtd:output.obj
 0001:0004ce50       ??$type_case_integer_parse_into_buffer@I@?$output_processor@_WV?$string_output_adapter@_W@__crt_stdio_output@@V?$format_validation_base@_WV?$string_output_adapter@_W@__crt_stdio_output@@@2@@__crt_stdio_output@@AAEXII_N@Z 1004de50 f i libucrtd:output.obj
 0001:0004cf30       ??$type_case_integer_parse_into_buffer@I@?$output_processor@_WV?$string_output_adapter@_W@__crt_stdio_output@@V?$positional_parameter_base@_WV?$string_output_adapter@_W@__crt_stdio_output@@@2@@__crt_stdio_output@@AAEXII_N@Z 1004df30 f i libucrtd:output.obj
 0001:0004d010       ??$type_case_integer_parse_into_buffer@I@?$output_processor@_WV?$string_output_adapter@_W@__crt_stdio_output@@V?$standard_base@_WV?$string_output_adapter@_W@__crt_stdio_output@@@2@@__crt_stdio_output@@AAEXII_N@Z 1004e010 f i libucrtd:output.obj
 0001:0004d0f0       ??$type_case_integer_parse_into_buffer@_K@?$output_processor@DV?$stream_output_adapter@D@__crt_stdio_output@@V?$format_validation_base@DV?$stream_output_adapter@D@__crt_stdio_output@@@2@@__crt_stdio_output@@AAEX_KI_N@Z 1004e0f0 f i libucrtd:output.obj
 0001:0004d1e0       ??$type_case_integer_parse_into_buffer@_K@?$output_processor@DV?$stream_output_adapter@D@__crt_stdio_output@@V?$positional_parameter_base@DV?$stream_output_adapter@D@__crt_stdio_output@@@2@@__crt_stdio_output@@AAEX_KI_N@Z 1004e1e0 f i libucrtd:output.obj
 0001:0004d2d0       ??$type_case_integer_parse_into_buffer@_K@?$output_processor@DV?$stream_output_adapter@D@__crt_stdio_output@@V?$standard_base@DV?$stream_output_adapter@D@__crt_stdio_output@@@2@@__crt_stdio_output@@AAEX_KI_N@Z 1004e2d0 f i libucrtd:output.obj
 0001:0004d3c0       ??$type_case_integer_parse_into_buffer@_K@?$output_processor@DV?$string_output_adapter@D@__crt_stdio_output@@V?$format_validation_base@DV?$string_output_adapter@D@__crt_stdio_output@@@2@@__crt_stdio_output@@AAEX_KI_N@Z 1004e3c0 f i libucrtd:output.obj
 0001:0004d4b0       ??$type_case_integer_parse_into_buffer@_K@?$output_processor@DV?$string_output_adapter@D@__crt_stdio_output@@V?$positional_parameter_base@DV?$string_output_adapter@D@__crt_stdio_output@@@2@@__crt_stdio_output@@AAEX_KI_N@Z 1004e4b0 f i libucrtd:output.obj
 0001:0004d5a0       ??$type_case_integer_parse_into_buffer@_K@?$output_processor@DV?$string_output_adapter@D@__crt_stdio_output@@V?$standard_base@DV?$string_output_adapter@D@__crt_stdio_output@@@2@@__crt_stdio_output@@AAEX_KI_N@Z 1004e5a0 f i libucrtd:output.obj
 0001:0004d690       ??$type_case_integer_parse_into_buffer@_K@?$output_processor@_WV?$stream_output_adapter@_W@__crt_stdio_output@@V?$format_validation_base@_WV?$stream_output_adapter@_W@__crt_stdio_output@@@2@@__crt_stdio_output@@AAEX_KI_N@Z 1004e690 f i libucrtd:output.obj
 0001:0004d790       ??$type_case_integer_parse_into_buffer@_K@?$output_processor@_WV?$stream_output_adapter@_W@__crt_stdio_output@@V?$positional_parameter_base@_WV?$stream_output_adapter@_W@__crt_stdio_output@@@2@@__crt_stdio_output@@AAEX_KI_N@Z 1004e790 f i libucrtd:output.obj
 0001:0004d890       ??$type_case_integer_parse_into_buffer@_K@?$output_processor@_WV?$stream_output_adapter@_W@__crt_stdio_output@@V?$standard_base@_WV?$stream_output_adapter@_W@__crt_stdio_output@@@2@@__crt_stdio_output@@AAEX_KI_N@Z 1004e890 f i libucrtd:output.obj
 0001:0004d990       ??$type_case_integer_parse_into_buffer@_K@?$output_processor@_WV?$string_output_adapter@_W@__crt_stdio_output@@V?$format_validation_base@_WV?$string_output_adapter@_W@__crt_stdio_output@@@2@@__crt_stdio_output@@AAEX_KI_N@Z 1004e990 f i libucrtd:output.obj
 0001:0004da90       ??$type_case_integer_parse_into_buffer@_K@?$output_processor@_WV?$string_output_adapter@_W@__crt_stdio_output@@V?$positional_parameter_base@_WV?$string_output_adapter@_W@__crt_stdio_output@@@2@@__crt_stdio_output@@AAEX_KI_N@Z 1004ea90 f i libucrtd:output.obj
 0001:0004db90       ??$type_case_integer_parse_into_buffer@_K@?$output_processor@_WV?$string_output_adapter@_W@__crt_stdio_output@@V?$standard_base@_WV?$string_output_adapter@_W@__crt_stdio_output@@@2@@__crt_stdio_output@@AAEX_KI_N@Z 1004eb90 f i libucrtd:output.obj
 0001:0004dc90       ??$write_multiple_characters@V?$stream_output_adapter@D@__crt_stdio_output@@D@__crt_stdio_output@@YAXABV?$stream_output_adapter@D@0@DHQAH@Z 1004ec90 f i libucrtd:output.obj
 0001:0004dce0       ??$write_multiple_characters@V?$stream_output_adapter@_W@__crt_stdio_output@@D@__crt_stdio_output@@YAXABV?$stream_output_adapter@_W@0@DHQAH@Z 1004ece0 f i libucrtd:output.obj
 0001:0004dd30       ??$write_multiple_characters@V?$string_output_adapter@D@__crt_stdio_output@@D@__crt_stdio_output@@YAXABV?$string_output_adapter@D@0@DHQAH@Z 1004ed30 f i libucrtd:output.obj
 0001:0004dd80       ??$write_multiple_characters@V?$string_output_adapter@_W@__crt_stdio_output@@D@__crt_stdio_output@@YAXABV?$string_output_adapter@_W@0@DHQAH@Z 1004ed80 f i libucrtd:output.obj
 0001:0004e0d0       ??0?$common_data@D@__crt_stdio_output@@IAE@XZ 1004f0d0 f i libucrtd:output.obj
 0001:0004e180       ??0?$common_data@_W@__crt_stdio_output@@IAE@XZ 1004f180 f i libucrtd:output.obj
 0001:0004e230       ??0?$output_adapter_data@DV?$stream_output_adapter@D@__crt_stdio_output@@@__crt_stdio_output@@IAE@ABV?$stream_output_adapter@D@1@_KQBDQAU__crt_locale_pointers@@QAD@Z 1004f230 f i libucrtd:output.obj
 0001:0004e290       ??0?$output_adapter_data@DV?$string_output_adapter@D@__crt_stdio_output@@@__crt_stdio_output@@IAE@ABV?$string_output_adapter@D@1@_KQBDQAU__crt_locale_pointers@@QAD@Z 1004f290 f i libucrtd:output.obj
 0001:0004e2f0       ??0?$output_adapter_data@_WV?$stream_output_adapter@_W@__crt_stdio_output@@@__crt_stdio_output@@IAE@ABV?$stream_output_adapter@_W@1@_KQB_WQAU__crt_locale_pointers@@QAD@Z 1004f2f0 f i libucrtd:output.obj
 0001:0004e350       ??0?$output_adapter_data@_WV?$string_output_adapter@_W@__crt_stdio_output@@@__crt_stdio_output@@IAE@ABV?$string_output_adapter@_W@1@_KQB_WQAU__crt_locale_pointers@@QAD@Z 1004f350 f i libucrtd:output.obj
 0001:0004e3b0       ??0?$output_processor@DV?$stream_output_adapter@D@__crt_stdio_output@@V?$format_validation_base@DV?$stream_output_adapter@D@__crt_stdio_output@@@2@@__crt_stdio_output@@QAE@ABV?$stream_output_adapter@D@1@_KQBDQAU__crt_locale_pointers@@QAD@Z 1004f3b0 f i libucrtd:output.obj
 0001:0004e3e0       ??0?$output_processor@DV?$stream_output_adapter@D@__crt_stdio_output@@V?$positional_parameter_base@DV?$stream_output_adapter@D@__crt_stdio_output@@@2@@__crt_stdio_output@@QAE@ABV?$stream_output_adapter@D@1@_KQBDQAU__crt_locale_pointers@@QAD@Z 1004f3e0 f i libucrtd:output.obj
 0001:0004e410       ??0?$output_processor@DV?$stream_output_adapter@D@__crt_stdio_output@@V?$standard_base@DV?$stream_output_adapter@D@__crt_stdio_output@@@2@@__crt_stdio_output@@QAE@ABV?$stream_output_adapter@D@1@_KQBDQAU__crt_locale_pointers@@QAD@Z 1004f410 f i libucrtd:output.obj
 0001:0004e440       ??0?$output_processor@DV?$string_output_adapter@D@__crt_stdio_output@@V?$format_validation_base@DV?$string_output_adapter@D@__crt_stdio_output@@@2@@__crt_stdio_output@@QAE@ABV?$string_output_adapter@D@1@_KQBDQAU__crt_locale_pointers@@QAD@Z 1004f440 f i libucrtd:output.obj
 0001:0004e470       ??0?$output_processor@DV?$string_output_adapter@D@__crt_stdio_output@@V?$positional_parameter_base@DV?$string_output_adapter@D@__crt_stdio_output@@@2@@__crt_stdio_output@@QAE@ABV?$string_output_adapter@D@1@_KQBDQAU__crt_locale_pointers@@QAD@Z 1004f470 f i libucrtd:output.obj
 0001:0004e4a0       ??0?$output_processor@DV?$string_output_adapter@D@__crt_stdio_output@@V?$standard_base@DV?$string_output_adapter@D@__crt_stdio_output@@@2@@__crt_stdio_output@@QAE@ABV?$string_output_adapter@D@1@_KQBDQAU__crt_locale_pointers@@QAD@Z 1004f4a0 f i libucrtd:output.obj
 0001:0004e4d0       ??0?$output_processor@_WV?$stream_output_adapter@_W@__crt_stdio_output@@V?$format_validation_base@_WV?$stream_output_adapter@_W@__crt_stdio_output@@@2@@__crt_stdio_output@@QAE@ABV?$stream_output_adapter@_W@1@_KQB_WQAU__crt_locale_pointers@@QAD@Z 1004f4d0 f i libucrtd:output.obj
 0001:0004e500       ??0?$output_processor@_WV?$stream_output_adapter@_W@__crt_stdio_output@@V?$positional_parameter_base@_WV?$stream_output_adapter@_W@__crt_stdio_output@@@2@@__crt_stdio_output@@QAE@ABV?$stream_output_adapter@_W@1@_KQB_WQAU__crt_locale_pointers@@QAD@Z 1004f500 f i libucrtd:output.obj
 0001:0004e530       ??0?$output_processor@_WV?$stream_output_adapter@_W@__crt_stdio_output@@V?$standard_base@_WV?$stream_output_adapter@_W@__crt_stdio_output@@@2@@__crt_stdio_output@@QAE@ABV?$stream_output_adapter@_W@1@_KQB_WQAU__crt_locale_pointers@@QAD@Z 1004f530 f i libucrtd:output.obj
 0001:0004e560       ??0?$output_processor@_WV?$string_output_adapter@_W@__crt_stdio_output@@V?$format_validation_base@_WV?$string_output_adapter@_W@__crt_stdio_output@@@2@@__crt_stdio_output@@QAE@ABV?$string_output_adapter@_W@1@_KQB_WQAU__crt_locale_pointers@@QAD@Z 1004f560 f i libucrtd:output.obj
 0001:0004e590       ??0?$output_processor@_WV?$string_output_adapter@_W@__crt_stdio_output@@V?$positional_parameter_base@_WV?$string_output_adapter@_W@__crt_stdio_output@@@2@@__crt_stdio_output@@QAE@ABV?$string_output_adapter@_W@1@_KQB_WQAU__crt_locale_pointers@@QAD@Z 1004f590 f i libucrtd:output.obj
 0001:0004e5c0       ??0?$output_processor@_WV?$string_output_adapter@_W@__crt_stdio_output@@V?$standard_base@_WV?$string_output_adapter@_W@__crt_stdio_output@@@2@@__crt_stdio_output@@QAE@ABV?$string_output_adapter@_W@1@_KQB_WQAU__crt_locale_pointers@@QAD@Z 1004f5c0 f i libucrtd:output.obj
 0001:0004e5f0       ??0?$stream_output_adapter@D@__crt_stdio_output@@QAE@QAU_iobuf@@@Z 1004f5f0 f i libucrtd:output.obj
 0001:0004e610       ??0?$stream_output_adapter@_W@__crt_stdio_output@@QAE@QAU_iobuf@@@Z 1004f610 f i libucrtd:output.obj
 0001:0004e630       ??0?$string_output_adapter@D@__crt_stdio_output@@QAE@QAU?$string_output_adapter_context@D@1@@Z 1004f630 f i libucrtd:output.obj
 0001:0004e650       ??0?$string_output_adapter@_W@__crt_stdio_output@@QAE@QAU?$string_output_adapter_context@_W@1@@Z 1004f650 f i libucrtd:output.obj
 0001:0004e670       ??0_LocaleUpdate@@QAE@QAU__crt_locale_pointers@@@Z 1004f670 f i libucrtd:output.obj
 0001:0004e750       ??0__acrt_stdio_temporary_buffering_guard@@QAE@QAU_iobuf@@@Z 1004f750 f i libucrtd:output.obj
 0001:0004e780       ??0__crt_deferred_errno_cache@@QAE@XZ 1004f780 f i libucrtd:output.obj
 0001:0004e7a0       ??0__crt_errno_guard@@QAE@QAH@Z 1004f7a0 f i libucrtd:output.obj
 0001:0004e7d0       ??0__crt_stdio_stream@@QAE@QAU_iobuf@@@Z 1004f7d0 f i libucrtd:output.obj
 0001:0004e7f0       ??0formatting_buffer@__crt_stdio_output@@QAE@XZ 1004f7f0 f i libucrtd:output.obj
 0001:0004e820       ??1?$common_data@D@__crt_stdio_output@@QAE@XZ 1004f820 f i libucrtd:output.obj
 0001:0004e840       ??1?$common_data@_W@__crt_stdio_output@@QAE@XZ 1004f840 f i libucrtd:output.obj
 0001:0004e860       ??1?$format_validation_base@DV?$stream_output_adapter@D@__crt_stdio_output@@@__crt_stdio_output@@QAE@XZ 1004f860 f i libucrtd:output.obj
 0001:0004e880       ??1?$format_validation_base@DV?$string_output_adapter@D@__crt_stdio_output@@@__crt_stdio_output@@QAE@XZ 1004f880 f i libucrtd:output.obj
 0001:0004e8a0       ??1?$format_validation_base@_WV?$stream_output_adapter@_W@__crt_stdio_output@@@__crt_stdio_output@@QAE@XZ 1004f8a0 f i libucrtd:output.obj
 0001:0004e8c0       ??1?$format_validation_base@_WV?$string_output_adapter@_W@__crt_stdio_output@@@__crt_stdio_output@@QAE@XZ 1004f8c0 f i libucrtd:output.obj
 0001:0004e8e0       ??1?$output_adapter_data@DV?$stream_output_adapter@D@__crt_stdio_output@@@__crt_stdio_output@@QAE@XZ 1004f8e0 f i libucrtd:output.obj
 0001:0004e900       ??1?$output_adapter_data@DV?$string_output_adapter@D@__crt_stdio_output@@@__crt_stdio_output@@QAE@XZ 1004f900 f i libucrtd:output.obj
 0001:0004e920       ??1?$output_adapter_data@_WV?$stream_output_adapter@_W@__crt_stdio_output@@@__crt_stdio_output@@QAE@XZ 1004f920 f i libucrtd:output.obj
 0001:0004e940       ??1?$output_adapter_data@_WV?$string_output_adapter@_W@__crt_stdio_output@@@__crt_stdio_output@@QAE@XZ 1004f940 f i libucrtd:output.obj
 0001:0004e960       ??1?$output_processor@DV?$stream_output_adapter@D@__crt_stdio_output@@V?$format_validation_base@DV?$stream_output_adapter@D@__crt_stdio_output@@@2@@__crt_stdio_output@@QAE@XZ 1004f960 f i libucrtd:output.obj
 0001:0004e980       ??1?$output_processor@DV?$stream_output_adapter@D@__crt_stdio_output@@V?$positional_parameter_base@DV?$stream_output_adapter@D@__crt_stdio_output@@@2@@__crt_stdio_output@@QAE@XZ 1004f980 f i libucrtd:output.obj
 0001:0004e9a0       ??1?$output_processor@DV?$stream_output_adapter@D@__crt_stdio_output@@V?$standard_base@DV?$stream_output_adapter@D@__crt_stdio_output@@@2@@__crt_stdio_output@@QAE@XZ 1004f9a0 f i libucrtd:output.obj
 0001:0004e9c0       ??1?$output_processor@DV?$string_output_adapter@D@__crt_stdio_output@@V?$format_validation_base@DV?$string_output_adapter@D@__crt_stdio_output@@@2@@__crt_stdio_output@@QAE@XZ 1004f9c0 f i libucrtd:output.obj
 0001:0004e9e0       ??1?$output_processor@DV?$string_output_adapter@D@__crt_stdio_output@@V?$positional_parameter_base@DV?$string_output_adapter@D@__crt_stdio_output@@@2@@__crt_stdio_output@@QAE@XZ 1004f9e0 f i libucrtd:output.obj
 0001:0004ea00       ??1?$output_processor@DV?$string_output_adapter@D@__crt_stdio_output@@V?$standard_base@DV?$string_output_adapter@D@__crt_stdio_output@@@2@@__crt_stdio_output@@QAE@XZ 1004fa00 f i libucrtd:output.obj
 0001:0004ea20       ??1?$output_processor@_WV?$stream_output_adapter@_W@__crt_stdio_output@@V?$format_validation_base@_WV?$stream_output_adapter@_W@__crt_stdio_output@@@2@@__crt_stdio_output@@QAE@XZ 1004fa20 f i libucrtd:output.obj
 0001:0004ea40       ??1?$output_processor@_WV?$stream_output_adapter@_W@__crt_stdio_output@@V?$positional_parameter_base@_WV?$stream_output_adapter@_W@__crt_stdio_output@@@2@@__crt_stdio_output@@QAE@XZ 1004fa40 f i libucrtd:output.obj
 0001:0004ea60       ??1?$output_processor@_WV?$stream_output_adapter@_W@__crt_stdio_output@@V?$standard_base@_WV?$stream_output_adapter@_W@__crt_stdio_output@@@2@@__crt_stdio_output@@QAE@XZ 1004fa60 f i libucrtd:output.obj
 0001:0004ea80       ??1?$output_processor@_WV?$string_output_adapter@_W@__crt_stdio_output@@V?$format_validation_base@_WV?$string_output_adapter@_W@__crt_stdio_output@@@2@@__crt_stdio_output@@QAE@XZ 1004fa80 f i libucrtd:output.obj
 0001:0004eaa0       ??1?$output_processor@_WV?$string_output_adapter@_W@__crt_stdio_output@@V?$positional_parameter_base@_WV?$string_output_adapter@_W@__crt_stdio_output@@@2@@__crt_stdio_output@@QAE@XZ 1004faa0 f i libucrtd:output.obj
 0001:0004eac0       ??1?$output_processor@_WV?$string_output_adapter@_W@__crt_stdio_output@@V?$standard_base@_WV?$string_output_adapter@_W@__crt_stdio_output@@@2@@__crt_stdio_output@@QAE@XZ 1004fac0 f i libucrtd:output.obj
 0001:0004eae0       ??1?$positional_parameter_base@DV?$stream_output_adapter@D@__crt_stdio_output@@@__crt_stdio_output@@QAE@XZ 1004fae0 f i libucrtd:output.obj
 0001:0004eb00       ??1?$positional_parameter_base@DV?$string_output_adapter@D@__crt_stdio_output@@@__crt_stdio_output@@QAE@XZ 1004fb00 f i libucrtd:output.obj
 0001:0004eb20       ??1?$positional_parameter_base@_WV?$stream_output_adapter@_W@__crt_stdio_output@@@__crt_stdio_output@@QAE@XZ 1004fb20 f i libucrtd:output.obj
 0001:0004eb40       ??1?$positional_parameter_base@_WV?$string_output_adapter@_W@__crt_stdio_output@@@__crt_stdio_output@@QAE@XZ 1004fb40 f i libucrtd:output.obj
 0001:0004eb60       ??1?$standard_base@DV?$stream_output_adapter@D@__crt_stdio_output@@@__crt_stdio_output@@QAE@XZ 1004fb60 f i libucrtd:output.obj
 0001:0004eb80       ??1?$standard_base@DV?$string_output_adapter@D@__crt_stdio_output@@@__crt_stdio_output@@QAE@XZ 1004fb80 f i libucrtd:output.obj
 0001:0004eba0       ??1?$standard_base@_WV?$stream_output_adapter@_W@__crt_stdio_output@@@__crt_stdio_output@@QAE@XZ 1004fba0 f i libucrtd:output.obj
 0001:0004ebc0       ??1?$standard_base@_WV?$string_output_adapter@_W@__crt_stdio_output@@@__crt_stdio_output@@QAE@XZ 1004fbc0 f i libucrtd:output.obj
 0001:0004ebe0       ??1_LocaleUpdate@@QAE@XZ   1004fbe0 f i libucrtd:output.obj
 0001:0004ec20       ??1__acrt_stdio_temporary_buffering_guard@@QAE@XZ 1004fc20 f i libucrtd:output.obj
 0001:0004ec50       ??1__crt_errno_guard@@QAE@XZ 1004fc50 f i libucrtd:output.obj
 0001:0004ec80       ??1formatting_buffer@__crt_stdio_output@@QAE@XZ 1004fc80 f i libucrtd:output.obj
 0001:0004eca0       ??4?$__crt_unique_heap_ptr@DU__crt_internal_free_policy@@@@QAEAAV0@$$QAV0@@Z 1004fca0 f i libucrtd:output.obj
 0001:0004ecd0       ??C__crt_stdio_stream@@QBEPAU__crt_stdio_stream_data@@XZ 1004fcd0 f i libucrtd:output.obj
 0001:0004f410       ?GetLocaleT@_LocaleUpdate@@QAEPAU__crt_locale_pointers@@XZ 10050410 f i libucrtd:output.obj
 0001:0004f430       ?adjust_hexit@?$output_processor@DV?$stream_output_adapter@D@__crt_stdio_output@@V?$format_validation_base@DV?$stream_output_adapter@D@__crt_stdio_output@@@2@@__crt_stdio_output@@CADH_N@Z 10050430 f i libucrtd:output.obj
 0001:0004f470       ?adjust_hexit@?$output_processor@DV?$stream_output_adapter@D@__crt_stdio_output@@V?$positional_parameter_base@DV?$stream_output_adapter@D@__crt_stdio_output@@@2@@__crt_stdio_output@@CADH_N@Z 10050470 f i libucrtd:output.obj
 0001:0004f4b0       ?adjust_hexit@?$output_processor@DV?$stream_output_adapter@D@__crt_stdio_output@@V?$standard_base@DV?$stream_output_adapter@D@__crt_stdio_output@@@2@@__crt_stdio_output@@CADH_N@Z 100504b0 f i libucrtd:output.obj
 0001:0004f4f0       ?adjust_hexit@?$output_processor@DV?$string_output_adapter@D@__crt_stdio_output@@V?$format_validation_base@DV?$string_output_adapter@D@__crt_stdio_output@@@2@@__crt_stdio_output@@CADH_N@Z 100504f0 f i libucrtd:output.obj
 0001:0004f530       ?adjust_hexit@?$output_processor@DV?$string_output_adapter@D@__crt_stdio_output@@V?$positional_parameter_base@DV?$string_output_adapter@D@__crt_stdio_output@@@2@@__crt_stdio_output@@CADH_N@Z 10050530 f i libucrtd:output.obj
 0001:0004f570       ?adjust_hexit@?$output_processor@DV?$string_output_adapter@D@__crt_stdio_output@@V?$standard_base@DV?$string_output_adapter@D@__crt_stdio_output@@@2@@__crt_stdio_output@@CADH_N@Z 10050570 f i libucrtd:output.obj
 0001:0004f5b0       ?adjust_hexit@?$output_processor@_WV?$stream_output_adapter@_W@__crt_stdio_output@@V?$format_validation_base@_WV?$stream_output_adapter@_W@__crt_stdio_output@@@2@@__crt_stdio_output@@CADH_N@Z 100505b0 f i libucrtd:output.obj
 0001:0004f5f0       ?adjust_hexit@?$output_processor@_WV?$stream_output_adapter@_W@__crt_stdio_output@@V?$positional_parameter_base@_WV?$stream_output_adapter@_W@__crt_stdio_output@@@2@@__crt_stdio_output@@CADH_N@Z 100505f0 f i libucrtd:output.obj
 0001:0004f630       ?adjust_hexit@?$output_processor@_WV?$stream_output_adapter@_W@__crt_stdio_output@@V?$standard_base@_WV?$stream_output_adapter@_W@__crt_stdio_output@@@2@@__crt_stdio_output@@CADH_N@Z 10050630 f i libucrtd:output.obj
 0001:0004f670       ?adjust_hexit@?$output_processor@_WV?$string_output_adapter@_W@__crt_stdio_output@@V?$format_validation_base@_WV?$string_output_adapter@_W@__crt_stdio_output@@@2@@__crt_stdio_output@@CADH_N@Z 10050670 f i libucrtd:output.obj
 0001:0004f6b0       ?adjust_hexit@?$output_processor@_WV?$string_output_adapter@_W@__crt_stdio_output@@V?$positional_parameter_base@_WV?$string_output_adapter@_W@__crt_stdio_output@@@2@@__crt_stdio_output@@CADH_N@Z 100506b0 f i libucrtd:output.obj
 0001:0004f6f0       ?adjust_hexit@?$output_processor@_WV?$string_output_adapter@_W@__crt_stdio_output@@V?$standard_base@_WV?$string_output_adapter@_W@__crt_stdio_output@@@2@@__crt_stdio_output@@CADH_N@Z 100506f0 f i libucrtd:output.obj
 0001:0004f730       ?advance_to_next_pass@?$positional_parameter_base@DV?$stream_output_adapter@D@__crt_stdio_output@@@__crt_stdio_output@@IAE_NXZ 10050730 f i libucrtd:output.obj
 0001:0004f7d0       ?advance_to_next_pass@?$positional_parameter_base@DV?$string_output_adapter@D@__crt_stdio_output@@@__crt_stdio_output@@IAE_NXZ 100507d0 f i libucrtd:output.obj
 0001:0004f870       ?advance_to_next_pass@?$positional_parameter_base@_WV?$stream_output_adapter@_W@__crt_stdio_output@@@__crt_stdio_output@@IAE_NXZ 10050870 f i libucrtd:output.obj
 0001:0004f910       ?advance_to_next_pass@?$positional_parameter_base@_WV?$string_output_adapter@_W@__crt_stdio_output@@@__crt_stdio_output@@IAE_NXZ 10050910 f i libucrtd:output.obj
 0001:0004f9b0       ?advance_to_next_pass@?$standard_base@DV?$stream_output_adapter@D@__crt_stdio_output@@@__crt_stdio_output@@IAE_NXZ 100509b0 f i libucrtd:output.obj
 0001:0004fa00       ?advance_to_next_pass@?$standard_base@DV?$string_output_adapter@D@__crt_stdio_output@@@__crt_stdio_output@@IAE_NXZ 10050a00 f i libucrtd:output.obj
 0001:0004fa50       ?advance_to_next_pass@?$standard_base@_WV?$stream_output_adapter@_W@__crt_stdio_output@@@__crt_stdio_output@@IAE_NXZ 10050a50 f i libucrtd:output.obj
 0001:0004faa0       ?advance_to_next_pass@?$standard_base@_WV?$string_output_adapter@_W@__crt_stdio_output@@@__crt_stdio_output@@IAE_NXZ 10050aa0 f i libucrtd:output.obj
 0001:0004faf0       ?crop_zeroes@__crt_stdio_output@@YAXPADQAU__crt_locale_pointers@@@Z 10050af0 f i libucrtd:output.obj
 0001:0004fbf0       ?find_next_state@?$output_processor@DV?$stream_output_adapter@D@__crt_stdio_output@@V?$format_validation_base@DV?$stream_output_adapter@D@__crt_stdio_output@@@2@@__crt_stdio_output@@ABE?AW4state@2@DW432@@Z 10050bf0 f i libucrtd:output.obj
 0001:0004fc70       ?find_next_state@?$output_processor@DV?$stream_output_adapter@D@__crt_stdio_output@@V?$positional_parameter_base@DV?$stream_output_adapter@D@__crt_stdio_output@@@2@@__crt_stdio_output@@ABE?AW4state@2@DW432@@Z 10050c70 f i libucrtd:output.obj
 0001:0004fcf0       ?find_next_state@?$output_processor@DV?$stream_output_adapter@D@__crt_stdio_output@@V?$standard_base@DV?$stream_output_adapter@D@__crt_stdio_output@@@2@@__crt_stdio_output@@ABE?AW4state@2@DW432@@Z 10050cf0 f i libucrtd:output.obj
 0001:0004fd70       ?find_next_state@?$output_processor@DV?$string_output_adapter@D@__crt_stdio_output@@V?$format_validation_base@DV?$string_output_adapter@D@__crt_stdio_output@@@2@@__crt_stdio_output@@ABE?AW4state@2@DW432@@Z 10050d70 f i libucrtd:output.obj
 0001:0004fdf0       ?find_next_state@?$output_processor@DV?$string_output_adapter@D@__crt_stdio_output@@V?$positional_parameter_base@DV?$string_output_adapter@D@__crt_stdio_output@@@2@@__crt_stdio_output@@ABE?AW4state@2@DW432@@Z 10050df0 f i libucrtd:output.obj
 0001:0004fe70       ?find_next_state@?$output_processor@DV?$string_output_adapter@D@__crt_stdio_output@@V?$standard_base@DV?$string_output_adapter@D@__crt_stdio_output@@@2@@__crt_stdio_output@@ABE?AW4state@2@DW432@@Z 10050e70 f i libucrtd:output.obj
 0001:0004fef0       ?find_next_state@?$output_processor@_WV?$stream_output_adapter@_W@__crt_stdio_output@@V?$format_validation_base@_WV?$stream_output_adapter@_W@__crt_stdio_output@@@2@@__crt_stdio_output@@ABE?AW4state@2@_WW432@@Z 10050ef0 f i libucrtd:output.obj
 0001:0004ff70       ?find_next_state@?$output_processor@_WV?$stream_output_adapter@_W@__crt_stdio_output@@V?$positional_parameter_base@_WV?$stream_output_adapter@_W@__crt_stdio_output@@@2@@__crt_stdio_output@@ABE?AW4state@2@_WW432@@Z 10050f70 f i libucrtd:output.obj
 0001:0004fff0       ?find_next_state@?$output_processor@_WV?$stream_output_adapter@_W@__crt_stdio_output@@V?$standard_base@_WV?$stream_output_adapter@_W@__crt_stdio_output@@@2@@__crt_stdio_output@@ABE?AW4state@2@_WW432@@Z 10050ff0 f i libucrtd:output.obj
 0001:00050070       ?find_next_state@?$output_processor@_WV?$string_output_adapter@_W@__crt_stdio_output@@V?$format_validation_base@_WV?$string_output_adapter@_W@__crt_stdio_output@@@2@@__crt_stdio_output@@ABE?AW4state@2@_WW432@@Z 10051070 f i libucrtd:output.obj
 0001:000500f0       ?find_next_state@?$output_processor@_WV?$string_output_adapter@_W@__crt_stdio_output@@V?$positional_parameter_base@_WV?$string_output_adapter@_W@__crt_stdio_output@@@2@@__crt_stdio_output@@ABE?AW4state@2@_WW432@@Z 100510f0 f i libucrtd:output.obj
 0001:00050170       ?find_next_state@?$output_processor@_WV?$string_output_adapter@_W@__crt_stdio_output@@V?$standard_base@_WV?$string_output_adapter@_W@__crt_stdio_output@@@2@@__crt_stdio_output@@ABE?AW4state@2@_WW432@@Z 10051170 f i libucrtd:output.obj
 0001:000501f0       ?force_decimal_point@__crt_stdio_output@@YAXPADQAU__crt_locale_pointers@@@Z 100511f0 f i libucrtd:output.obj
 0001:000502c0       ?get@__crt_deferred_errno_cache@@QAEAAHXZ 100512c0 f i libucrtd:output.obj
 0001:000502f0       ?get_flags@__crt_stdio_stream@@QBEJXZ 100512f0 f i libucrtd:output.obj
 0001:00050310       ?get_parameter_type@?$positional_parameter_base@DV?$stream_output_adapter@D@__crt_stdio_output@@@__crt_stdio_output@@CA?AW4parameter_type@12@F@Z 10051310 f i libucrtd:output.obj
 0001:00050320       ?get_parameter_type@?$positional_parameter_base@DV?$stream_output_adapter@D@__crt_stdio_output@@@__crt_stdio_output@@CA?AW4parameter_type@12@G@Z 10051320 f i libucrtd:output.obj
 0001:00050330       ?get_parameter_type@?$positional_parameter_base@DV?$stream_output_adapter@D@__crt_stdio_output@@@__crt_stdio_output@@CA?AW4parameter_type@12@H@Z 10051330 f i libucrtd:output.obj
 0001:00050340       ?get_parameter_type@?$positional_parameter_base@DV?$stream_output_adapter@D@__crt_stdio_output@@@__crt_stdio_output@@CA?AW4parameter_type@12@I@Z 10051340 f i libucrtd:output.obj
 0001:00050350       ?get_parameter_type@?$positional_parameter_base@DV?$stream_output_adapter@D@__crt_stdio_output@@@__crt_stdio_output@@CA?AW4parameter_type@12@U_CRT_DOUBLE@@@Z 10051350 f i libucrtd:output.obj
 0001:00050360       ?get_parameter_type@?$positional_parameter_base@DV?$stream_output_adapter@D@__crt_stdio_output@@@__crt_stdio_output@@CA?AW4parameter_type@12@_J@Z 10051360 f i libucrtd:output.obj
 0001:00050370       ?get_parameter_type@?$positional_parameter_base@DV?$stream_output_adapter@D@__crt_stdio_output@@@__crt_stdio_output@@CA?AW4parameter_type@12@_K@Z 10051370 f i libucrtd:output.obj
 0001:00050380       ?get_parameter_type@?$positional_parameter_base@DV?$stream_output_adapter@D@__crt_stdio_output@@@__crt_stdio_output@@CA?AW4parameter_type@12@_W@Z 10051380 f i libucrtd:output.obj
 0001:00050390       ?get_parameter_type@?$positional_parameter_base@DV?$string_output_adapter@D@__crt_stdio_output@@@__crt_stdio_output@@CA?AW4parameter_type@12@F@Z 10051390 f i libucrtd:output.obj
 0001:000503a0       ?get_parameter_type@?$positional_parameter_base@DV?$string_output_adapter@D@__crt_stdio_output@@@__crt_stdio_output@@CA?AW4parameter_type@12@G@Z 100513a0 f i libucrtd:output.obj
 0001:000503b0       ?get_parameter_type@?$positional_parameter_base@DV?$string_output_adapter@D@__crt_stdio_output@@@__crt_stdio_output@@CA?AW4parameter_type@12@H@Z 100513b0 f i libucrtd:output.obj
 0001:000503c0       ?get_parameter_type@?$positional_parameter_base@DV?$string_output_adapter@D@__crt_stdio_output@@@__crt_stdio_output@@CA?AW4parameter_type@12@I@Z 100513c0 f i libucrtd:output.obj
 0001:000503d0       ?get_parameter_type@?$positional_parameter_base@DV?$string_output_adapter@D@__crt_stdio_output@@@__crt_stdio_output@@CA?AW4parameter_type@12@U_CRT_DOUBLE@@@Z 100513d0 f i libucrtd:output.obj
 0001:000503e0       ?get_parameter_type@?$positional_parameter_base@DV?$string_output_adapter@D@__crt_stdio_output@@@__crt_stdio_output@@CA?AW4parameter_type@12@_J@Z 100513e0 f i libucrtd:output.obj
 0001:000503f0       ?get_parameter_type@?$positional_parameter_base@DV?$string_output_adapter@D@__crt_stdio_output@@@__crt_stdio_output@@CA?AW4parameter_type@12@_K@Z 100513f0 f i libucrtd:output.obj
 0001:00050400       ?get_parameter_type@?$positional_parameter_base@DV?$string_output_adapter@D@__crt_stdio_output@@@__crt_stdio_output@@CA?AW4parameter_type@12@_W@Z 10051400 f i libucrtd:output.obj
 0001:00050410       ?get_parameter_type@?$positional_parameter_base@_WV?$stream_output_adapter@_W@__crt_stdio_output@@@__crt_stdio_output@@CA?AW4parameter_type@12@F@Z 10051410 f i libucrtd:output.obj
 0001:00050420       ?get_parameter_type@?$positional_parameter_base@_WV?$stream_output_adapter@_W@__crt_stdio_output@@@__crt_stdio_output@@CA?AW4parameter_type@12@G@Z 10051420 f i libucrtd:output.obj
 0001:00050430       ?get_parameter_type@?$positional_parameter_base@_WV?$stream_output_adapter@_W@__crt_stdio_output@@@__crt_stdio_output@@CA?AW4parameter_type@12@H@Z 10051430 f i libucrtd:output.obj
 0001:00050440       ?get_parameter_type@?$positional_parameter_base@_WV?$stream_output_adapter@_W@__crt_stdio_output@@@__crt_stdio_output@@CA?AW4parameter_type@12@I@Z 10051440 f i libucrtd:output.obj
 0001:00050450       ?get_parameter_type@?$positional_parameter_base@_WV?$stream_output_adapter@_W@__crt_stdio_output@@@__crt_stdio_output@@CA?AW4parameter_type@12@U_CRT_DOUBLE@@@Z 10051450 f i libucrtd:output.obj
 0001:00050460       ?get_parameter_type@?$positional_parameter_base@_WV?$stream_output_adapter@_W@__crt_stdio_output@@@__crt_stdio_output@@CA?AW4parameter_type@12@_J@Z 10051460 f i libucrtd:output.obj
 0001:00050470       ?get_parameter_type@?$positional_parameter_base@_WV?$stream_output_adapter@_W@__crt_stdio_output@@@__crt_stdio_output@@CA?AW4parameter_type@12@_K@Z 10051470 f i libucrtd:output.obj
 0001:00050480       ?get_parameter_type@?$positional_parameter_base@_WV?$stream_output_adapter@_W@__crt_stdio_output@@@__crt_stdio_output@@CA?AW4parameter_type@12@_W@Z 10051480 f i libucrtd:output.obj
 0001:00050490       ?get_parameter_type@?$positional_parameter_base@_WV?$string_output_adapter@_W@__crt_stdio_output@@@__crt_stdio_output@@CA?AW4parameter_type@12@F@Z 10051490 f i libucrtd:output.obj
 0001:000504a0       ?get_parameter_type@?$positional_parameter_base@_WV?$string_output_adapter@_W@__crt_stdio_output@@@__crt_stdio_output@@CA?AW4parameter_type@12@G@Z 100514a0 f i libucrtd:output.obj
 0001:000504b0       ?get_parameter_type@?$positional_parameter_base@_WV?$string_output_adapter@_W@__crt_stdio_output@@@__crt_stdio_output@@CA?AW4parameter_type@12@H@Z 100514b0 f i libucrtd:output.obj
 0001:000504c0       ?get_parameter_type@?$positional_parameter_base@_WV?$string_output_adapter@_W@__crt_stdio_output@@@__crt_stdio_output@@CA?AW4parameter_type@12@I@Z 100514c0 f i libucrtd:output.obj
 0001:000504d0       ?get_parameter_type@?$positional_parameter_base@_WV?$string_output_adapter@_W@__crt_stdio_output@@@__crt_stdio_output@@CA?AW4parameter_type@12@U_CRT_DOUBLE@@@Z 100514d0 f i libucrtd:output.obj
 0001:000504e0       ?get_parameter_type@?$positional_parameter_base@_WV?$string_output_adapter@_W@__crt_stdio_output@@@__crt_stdio_output@@CA?AW4parameter_type@12@_J@Z 100514e0 f i libucrtd:output.obj
 0001:000504f0       ?get_parameter_type@?$positional_parameter_base@_WV?$string_output_adapter@_W@__crt_stdio_output@@@__crt_stdio_output@@CA?AW4parameter_type@12@_K@Z 100514f0 f i libucrtd:output.obj
 0001:00050500       ?get_parameter_type@?$positional_parameter_base@_WV?$string_output_adapter@_W@__crt_stdio_output@@@__crt_stdio_output@@CA?AW4parameter_type@12@_W@Z 10051500 f i libucrtd:output.obj
 0001:00050510       ?has_flag@?$output_processor@DV?$stream_output_adapter@D@__crt_stdio_output@@V?$format_validation_base@DV?$stream_output_adapter@D@__crt_stdio_output@@@2@@__crt_stdio_output@@ABE_NI@Z 10051510 f i libucrtd:output.obj
 0001:00050540       ?has_flag@?$output_processor@DV?$stream_output_adapter@D@__crt_stdio_output@@V?$positional_parameter_base@DV?$stream_output_adapter@D@__crt_stdio_output@@@2@@__crt_stdio_output@@ABE_NI@Z 10051540 f i libucrtd:output.obj
 0001:00050570       ?has_flag@?$output_processor@DV?$stream_output_adapter@D@__crt_stdio_output@@V?$standard_base@DV?$stream_output_adapter@D@__crt_stdio_output@@@2@@__crt_stdio_output@@ABE_NI@Z 10051570 f i libucrtd:output.obj
 0001:000505a0       ?has_flag@?$output_processor@DV?$string_output_adapter@D@__crt_stdio_output@@V?$format_validation_base@DV?$string_output_adapter@D@__crt_stdio_output@@@2@@__crt_stdio_output@@ABE_NI@Z 100515a0 f i libucrtd:output.obj
 0001:000505d0       ?has_flag@?$output_processor@DV?$string_output_adapter@D@__crt_stdio_output@@V?$positional_parameter_base@DV?$string_output_adapter@D@__crt_stdio_output@@@2@@__crt_stdio_output@@ABE_NI@Z 100515d0 f i libucrtd:output.obj
 0001:00050600       ?has_flag@?$output_processor@DV?$string_output_adapter@D@__crt_stdio_output@@V?$standard_base@DV?$string_output_adapter@D@__crt_stdio_output@@@2@@__crt_stdio_output@@ABE_NI@Z 10051600 f i libucrtd:output.obj
 0001:00050630       ?has_flag@?$output_processor@_WV?$stream_output_adapter@_W@__crt_stdio_output@@V?$format_validation_base@_WV?$stream_output_adapter@_W@__crt_stdio_output@@@2@@__crt_stdio_output@@ABE_NI@Z 10051630 f i libucrtd:output.obj
 0001:00050660       ?has_flag@?$output_processor@_WV?$stream_output_adapter@_W@__crt_stdio_output@@V?$positional_parameter_base@_WV?$stream_output_adapter@_W@__crt_stdio_output@@@2@@__crt_stdio_output@@ABE_NI@Z 10051660 f i libucrtd:output.obj
 0001:00050690       ?has_flag@?$output_processor@_WV?$stream_output_adapter@_W@__crt_stdio_output@@V?$standard_base@_WV?$stream_output_adapter@_W@__crt_stdio_output@@@2@@__crt_stdio_output@@ABE_NI@Z 10051690 f i libucrtd:output.obj
 0001:000506c0       ?has_flag@?$output_processor@_WV?$string_output_adapter@_W@__crt_stdio_output@@V?$format_validation_base@_WV?$string_output_adapter@_W@__crt_stdio_output@@@2@@__crt_stdio_output@@ABE_NI@Z 100516c0 f i libucrtd:output.obj
 0001:000506f0       ?has_flag@?$output_processor@_WV?$string_output_adapter@_W@__crt_stdio_output@@V?$positional_parameter_base@_WV?$string_output_adapter@_W@__crt_stdio_output@@@2@@__crt_stdio_output@@ABE_NI@Z 100516f0 f i libucrtd:output.obj
 0001:00050720       ?has_flag@?$output_processor@_WV?$string_output_adapter@_W@__crt_stdio_output@@V?$standard_base@_WV?$string_output_adapter@_W@__crt_stdio_output@@@2@@__crt_stdio_output@@ABE_NI@Z 10051720 f i libucrtd:output.obj
 0001:00050750       ?is_positional_parameter_reappearance_consistent@?$positional_parameter_base@DV?$stream_output_adapter@D@__crt_stdio_output@@@__crt_stdio_output@@AAE_NABUparameter_data@12@W4parameter_type@12@DW4length_modifier@2@@Z 10051750 f i libucrtd:output.obj
 0001:00050980       ?is_positional_parameter_reappearance_consistent@?$positional_parameter_base@DV?$string_output_adapter@D@__crt_stdio_output@@@__crt_stdio_output@@AAE_NABUparameter_data@12@W4parameter_type@12@DW4length_modifier@2@@Z 10051980 f i libucrtd:output.obj
 0001:00050bb0       ?is_positional_parameter_reappearance_consistent@?$positional_parameter_base@_WV?$stream_output_adapter@_W@__crt_stdio_output@@@__crt_stdio_output@@AAE_NABUparameter_data@12@W4parameter_type@12@_WW4length_modifier@2@@Z 10051bb0 f i libucrtd:output.obj
 0001:00050de0       ?is_positional_parameter_reappearance_consistent@?$positional_parameter_base@_WV?$string_output_adapter@_W@__crt_stdio_output@@@__crt_stdio_output@@AAE_NABUparameter_data@12@W4parameter_type@12@_WW4length_modifier@2@@Z 10051de0 f i libucrtd:output.obj
 0001:00051010       ?is_string_backed@__crt_stdio_stream@@QBE_NXZ 10052010 f i libucrtd:output.obj
 0001:00051050       ?narrow_null_string@?$output_processor@DV?$stream_output_adapter@D@__crt_stdio_output@@V?$format_validation_base@DV?$stream_output_adapter@D@__crt_stdio_output@@@2@@__crt_stdio_output@@CAPADXZ 10052050 f i libucrtd:output.obj
 0001:00051060       ?narrow_null_string@?$output_processor@DV?$stream_output_adapter@D@__crt_stdio_output@@V?$positional_parameter_base@DV?$stream_output_adapter@D@__crt_stdio_output@@@2@@__crt_stdio_output@@CAPADXZ 10052060 f i libucrtd:output.obj
 0001:00051070       ?narrow_null_string@?$output_processor@DV?$stream_output_adapter@D@__crt_stdio_output@@V?$standard_base@DV?$stream_output_adapter@D@__crt_stdio_output@@@2@@__crt_stdio_output@@CAPADXZ 10052070 f i libucrtd:output.obj
 0001:00051080       ?narrow_null_string@?$output_processor@DV?$string_output_adapter@D@__crt_stdio_output@@V?$format_validation_base@DV?$string_output_adapter@D@__crt_stdio_output@@@2@@__crt_stdio_output@@CAPADXZ 10052080 f i libucrtd:output.obj
 0001:00051090       ?narrow_null_string@?$output_processor@DV?$string_output_adapter@D@__crt_stdio_output@@V?$positional_parameter_base@DV?$string_output_adapter@D@__crt_stdio_output@@@2@@__crt_stdio_output@@CAPADXZ 10052090 f i libucrtd:output.obj
 0001:000510a0       ?narrow_null_string@?$output_processor@DV?$string_output_adapter@D@__crt_stdio_output@@V?$standard_base@DV?$string_output_adapter@D@__crt_stdio_output@@@2@@__crt_stdio_output@@CAPADXZ 100520a0 f i libucrtd:output.obj
 0001:000510b0       ?narrow_null_string@?$output_processor@_WV?$stream_output_adapter@_W@__crt_stdio_output@@V?$format_validation_base@_WV?$stream_output_adapter@_W@__crt_stdio_output@@@2@@__crt_stdio_output@@CAPADXZ 100520b0 f i libucrtd:output.obj
 0001:000510c0       ?narrow_null_string@?$output_processor@_WV?$stream_output_adapter@_W@__crt_stdio_output@@V?$positional_parameter_base@_WV?$stream_output_adapter@_W@__crt_stdio_output@@@2@@__crt_stdio_output@@CAPADXZ 100520c0 f i libucrtd:output.obj
 0001:000510d0       ?narrow_null_string@?$output_processor@_WV?$stream_output_adapter@_W@__crt_stdio_output@@V?$standard_base@_WV?$stream_output_adapter@_W@__crt_stdio_output@@@2@@__crt_stdio_output@@CAPADXZ 100520d0 f i libucrtd:output.obj
 0001:000510e0       ?narrow_null_string@?$output_processor@_WV?$string_output_adapter@_W@__crt_stdio_output@@V?$format_validation_base@_WV?$string_output_adapter@_W@__crt_stdio_output@@@2@@__crt_stdio_output@@CAPADXZ 100520e0 f i libucrtd:output.obj
 0001:000510f0       ?narrow_null_string@?$output_processor@_WV?$string_output_adapter@_W@__crt_stdio_output@@V?$positional_parameter_base@_WV?$string_output_adapter@_W@__crt_stdio_output@@@2@@__crt_stdio_output@@CAPADXZ 100520f0 f i libucrtd:output.obj
 0001:00051100       ?narrow_null_string@?$output_processor@_WV?$string_output_adapter@_W@__crt_stdio_output@@V?$standard_base@_WV?$string_output_adapter@_W@__crt_stdio_output@@@2@@__crt_stdio_output@@CAPADXZ 10052100 f i libucrtd:output.obj
 0001:00051110       ?parse_int_from_format_string@?$output_processor@DV?$stream_output_adapter@D@__crt_stdio_output@@V?$format_validation_base@DV?$stream_output_adapter@D@__crt_stdio_output@@@2@@__crt_stdio_output@@AAE_NQAH@Z 10052110 f i libucrtd:output.obj
 0001:000511d0       ?parse_int_from_format_string@?$output_processor@DV?$stream_output_adapter@D@__crt_stdio_output@@V?$positional_parameter_base@DV?$stream_output_adapter@D@__crt_stdio_output@@@2@@__crt_stdio_output@@AAE_NQAH@Z 100521d0 f i libucrtd:output.obj
 0001:00051290       ?parse_int_from_format_string@?$output_processor@DV?$stream_output_adapter@D@__crt_stdio_output@@V?$standard_base@DV?$stream_output_adapter@D@__crt_stdio_output@@@2@@__crt_stdio_output@@AAE_NQAH@Z 10052290 f i libucrtd:output.obj
 0001:00051350       ?parse_int_from_format_string@?$output_processor@DV?$string_output_adapter@D@__crt_stdio_output@@V?$format_validation_base@DV?$string_output_adapter@D@__crt_stdio_output@@@2@@__crt_stdio_output@@AAE_NQAH@Z 10052350 f i libucrtd:output.obj
 0001:00051410       ?parse_int_from_format_string@?$output_processor@DV?$string_output_adapter@D@__crt_stdio_output@@V?$positional_parameter_base@DV?$string_output_adapter@D@__crt_stdio_output@@@2@@__crt_stdio_output@@AAE_NQAH@Z 10052410 f i libucrtd:output.obj
 0001:000514d0       ?parse_int_from_format_string@?$output_processor@DV?$string_output_adapter@D@__crt_stdio_output@@V?$standard_base@DV?$string_output_adapter@D@__crt_stdio_output@@@2@@__crt_stdio_output@@AAE_NQAH@Z 100524d0 f i libucrtd:output.obj
 0001:00051590       ?parse_int_from_format_string@?$output_processor@_WV?$stream_output_adapter@_W@__crt_stdio_output@@V?$format_validation_base@_WV?$stream_output_adapter@_W@__crt_stdio_output@@@2@@__crt_stdio_output@@AAE_NQAH@Z 10052590 f i libucrtd:output.obj
 0001:00051650       ?parse_int_from_format_string@?$output_processor@_WV?$stream_output_adapter@_W@__crt_stdio_output@@V?$positional_parameter_base@_WV?$stream_output_adapter@_W@__crt_stdio_output@@@2@@__crt_stdio_output@@AAE_NQAH@Z 10052650 f i libucrtd:output.obj
 0001:00051710       ?parse_int_from_format_string@?$output_processor@_WV?$stream_output_adapter@_W@__crt_stdio_output@@V?$standard_base@_WV?$stream_output_adapter@_W@__crt_stdio_output@@@2@@__crt_stdio_output@@AAE_NQAH@Z 10052710 f i libucrtd:output.obj
 0001:000517d0       ?parse_int_from_format_string@?$output_processor@_WV?$string_output_adapter@_W@__crt_stdio_output@@V?$format_validation_base@_WV?$string_output_adapter@_W@__crt_stdio_output@@@2@@__crt_stdio_output@@AAE_NQAH@Z 100527d0 f i libucrtd:output.obj
 0001:00051890       ?parse_int_from_format_string@?$output_processor@_WV?$string_output_adapter@_W@__crt_stdio_output@@V?$positional_parameter_base@_WV?$string_output_adapter@_W@__crt_stdio_output@@@2@@__crt_stdio_output@@AAE_NQAH@Z 10052890 f i libucrtd:output.obj
 0001:00051950       ?parse_int_from_format_string@?$output_processor@_WV?$string_output_adapter@_W@__crt_stdio_output@@V?$standard_base@_WV?$string_output_adapter@_W@__crt_stdio_output@@@2@@__crt_stdio_output@@AAE_NQAH@Z 10052950 f i libucrtd:output.obj
 0001:00051a10       ?process@?$output_processor@DV?$stream_output_adapter@D@__crt_stdio_output@@V?$format_validation_base@DV?$stream_output_adapter@D@__crt_stdio_output@@@2@@__crt_stdio_output@@QAEHXZ 10052a10 f i libucrtd:output.obj
 0001:00051cc0       ?process@?$output_processor@DV?$stream_output_adapter@D@__crt_stdio_output@@V?$positional_parameter_base@DV?$stream_output_adapter@D@__crt_stdio_output@@@2@@__crt_stdio_output@@QAEHXZ 10052cc0 f i libucrtd:output.obj
 0001:00051f70       ?process@?$output_processor@DV?$stream_output_adapter@D@__crt_stdio_output@@V?$standard_base@DV?$stream_output_adapter@D@__crt_stdio_output@@@2@@__crt_stdio_output@@QAEHXZ 10052f70 f i libucrtd:output.obj
 0001:00052220       ?process@?$output_processor@DV?$string_output_adapter@D@__crt_stdio_output@@V?$format_validation_base@DV?$string_output_adapter@D@__crt_stdio_output@@@2@@__crt_stdio_output@@QAEHXZ 10053220 f i libucrtd:output.obj
 0001:000524d0       ?process@?$output_processor@DV?$string_output_adapter@D@__crt_stdio_output@@V?$positional_parameter_base@DV?$string_output_adapter@D@__crt_stdio_output@@@2@@__crt_stdio_output@@QAEHXZ 100534d0 f i libucrtd:output.obj
 0001:00052780       ?process@?$output_processor@DV?$string_output_adapter@D@__crt_stdio_output@@V?$standard_base@DV?$string_output_adapter@D@__crt_stdio_output@@@2@@__crt_stdio_output@@QAEHXZ 10053780 f i libucrtd:output.obj
 0001:00052a30       ?process@?$output_processor@_WV?$stream_output_adapter@_W@__crt_stdio_output@@V?$format_validation_base@_WV?$stream_output_adapter@_W@__crt_stdio_output@@@2@@__crt_stdio_output@@QAEHXZ 10053a30 f i libucrtd:output.obj
 0001:00052ce0       ?process@?$output_processor@_WV?$stream_output_adapter@_W@__crt_stdio_output@@V?$positional_parameter_base@_WV?$stream_output_adapter@_W@__crt_stdio_output@@@2@@__crt_stdio_output@@QAEHXZ 10053ce0 f i libucrtd:output.obj
 0001:00052f90       ?process@?$output_processor@_WV?$stream_output_adapter@_W@__crt_stdio_output@@V?$standard_base@_WV?$stream_output_adapter@_W@__crt_stdio_output@@@2@@__crt_stdio_output@@QAEHXZ 10053f90 f i libucrtd:output.obj
 0001:00053240       ?process@?$output_processor@_WV?$string_output_adapter@_W@__crt_stdio_output@@V?$format_validation_base@_WV?$string_output_adapter@_W@__crt_stdio_output@@@2@@__crt_stdio_output@@QAEHXZ 10054240 f i libucrtd:output.obj
 0001:000534f0       ?process@?$output_processor@_WV?$string_output_adapter@_W@__crt_stdio_output@@V?$positional_parameter_base@_WV?$string_output_adapter@_W@__crt_stdio_output@@@2@@__crt_stdio_output@@QAEHXZ 100544f0 f i libucrtd:output.obj
 0001:000537a0       ?process@?$output_processor@_WV?$string_output_adapter@_W@__crt_stdio_output@@V?$standard_base@_WV?$string_output_adapter@_W@__crt_stdio_output@@@2@@__crt_stdio_output@@QAEHXZ 100547a0 f i libucrtd:output.obj
 0001:00053a50       ?public_stream@__crt_stdio_stream@@QBEPAU_iobuf@@XZ 10054a50 f i libucrtd:output.obj
 0001:00053a70       ?set_flag@?$output_processor@DV?$stream_output_adapter@D@__crt_stdio_output@@V?$format_validation_base@DV?$stream_output_adapter@D@__crt_stdio_output@@@2@@__crt_stdio_output@@AAEXI@Z 10054a70 f i libucrtd:output.obj
 0001:00053a90       ?set_flag@?$output_processor@DV?$stream_output_adapter@D@__crt_stdio_output@@V?$positional_parameter_base@DV?$stream_output_adapter@D@__crt_stdio_output@@@2@@__crt_stdio_output@@AAEXI@Z 10054a90 f i libucrtd:output.obj
 0001:00053ab0       ?set_flag@?$output_processor@DV?$stream_output_adapter@D@__crt_stdio_output@@V?$standard_base@DV?$stream_output_adapter@D@__crt_stdio_output@@@2@@__crt_stdio_output@@AAEXI@Z 10054ab0 f i libucrtd:output.obj
 0001:00053ad0       ?set_flag@?$output_processor@DV?$string_output_adapter@D@__crt_stdio_output@@V?$format_validation_base@DV?$string_output_adapter@D@__crt_stdio_output@@@2@@__crt_stdio_output@@AAEXI@Z 10054ad0 f i libucrtd:output.obj
 0001:00053af0       ?set_flag@?$output_processor@DV?$string_output_adapter@D@__crt_stdio_output@@V?$positional_parameter_base@DV?$string_output_adapter@D@__crt_stdio_output@@@2@@__crt_stdio_output@@AAEXI@Z 10054af0 f i libucrtd:output.obj
 0001:00053b10       ?set_flag@?$output_processor@DV?$string_output_adapter@D@__crt_stdio_output@@V?$standard_base@DV?$string_output_adapter@D@__crt_stdio_output@@@2@@__crt_stdio_output@@AAEXI@Z 10054b10 f i libucrtd:output.obj
 0001:00053b30       ?set_flag@?$output_processor@_WV?$stream_output_adapter@_W@__crt_stdio_output@@V?$format_validation_base@_WV?$stream_output_adapter@_W@__crt_stdio_output@@@2@@__crt_stdio_output@@AAEXI@Z 10054b30 f i libucrtd:output.obj
 0001:00053b50       ?set_flag@?$output_processor@_WV?$stream_output_adapter@_W@__crt_stdio_output@@V?$positional_parameter_base@_WV?$stream_output_adapter@_W@__crt_stdio_output@@@2@@__crt_stdio_output@@AAEXI@Z 10054b50 f i libucrtd:output.obj
 0001:00053b70       ?set_flag@?$output_processor@_WV?$stream_output_adapter@_W@__crt_stdio_output@@V?$standard_base@_WV?$stream_output_adapter@_W@__crt_stdio_output@@@2@@__crt_stdio_output@@AAEXI@Z 10054b70 f i libucrtd:output.obj
 0001:00053b90       ?set_flag@?$output_processor@_WV?$string_output_adapter@_W@__crt_stdio_output@@V?$format_validation_base@_WV?$string_output_adapter@_W@__crt_stdio_output@@@2@@__crt_stdio_output@@AAEXI@Z 10054b90 f i libucrtd:output.obj
 0001:00053bb0       ?set_flag@?$output_processor@_WV?$string_output_adapter@_W@__crt_stdio_output@@V?$positional_parameter_base@_WV?$string_output_adapter@_W@__crt_stdio_output@@@2@@__crt_stdio_output@@AAEXI@Z 10054bb0 f i libucrtd:output.obj
 0001:00053bd0       ?set_flag@?$output_processor@_WV?$string_output_adapter@_W@__crt_stdio_output@@V?$standard_base@_WV?$string_output_adapter@_W@__crt_stdio_output@@@2@@__crt_stdio_output@@AAEXI@Z 10054bd0 f i libucrtd:output.obj
 0001:00053bf0       ?should_format@?$positional_parameter_base@DV?$stream_output_adapter@D@__crt_stdio_output@@@__crt_stdio_output@@IAE_NXZ 10054bf0 f i libucrtd:output.obj
 0001:00053c30       ?should_format@?$positional_parameter_base@DV?$string_output_adapter@D@__crt_stdio_output@@@__crt_stdio_output@@IAE_NXZ 10054c30 f i libucrtd:output.obj
 0001:00053c70       ?should_format@?$positional_parameter_base@_WV?$stream_output_adapter@_W@__crt_stdio_output@@@__crt_stdio_output@@IAE_NXZ 10054c70 f i libucrtd:output.obj
 0001:00053cb0       ?should_format@?$positional_parameter_base@_WV?$string_output_adapter@_W@__crt_stdio_output@@@__crt_stdio_output@@IAE_NXZ 10054cb0 f i libucrtd:output.obj
 0001:00053cf0       ?should_format@?$standard_base@DV?$stream_output_adapter@D@__crt_stdio_output@@@__crt_stdio_output@@IAE_NXZ 10054cf0 f i libucrtd:output.obj
 0001:00053d00       ?should_format@?$standard_base@DV?$string_output_adapter@D@__crt_stdio_output@@@__crt_stdio_output@@IAE_NXZ 10054d00 f i libucrtd:output.obj
 0001:00053d10       ?should_format@?$standard_base@_WV?$stream_output_adapter@_W@__crt_stdio_output@@@__crt_stdio_output@@IAE_NXZ 10054d10 f i libucrtd:output.obj
 0001:00053d20       ?should_format@?$standard_base@_WV?$string_output_adapter@_W@__crt_stdio_output@@@__crt_stdio_output@@IAE_NXZ 10054d20 f i libucrtd:output.obj
 0001:00053d30       ?should_skip_normal_state_processing@?$positional_parameter_base@DV?$stream_output_adapter@D@__crt_stdio_output@@@__crt_stdio_output@@IAE_NXZ 10054d30 f i libucrtd:output.obj
 0001:00053d80       ?should_skip_normal_state_processing@?$positional_parameter_base@DV?$string_output_adapter@D@__crt_stdio_output@@@__crt_stdio_output@@IAE_NXZ 10054d80 f i libucrtd:output.obj
 0001:00053dd0       ?should_skip_normal_state_processing@?$positional_parameter_base@_WV?$stream_output_adapter@_W@__crt_stdio_output@@@__crt_stdio_output@@IAE_NXZ 10054dd0 f i libucrtd:output.obj
 0001:00053e20       ?should_skip_normal_state_processing@?$positional_parameter_base@_WV?$string_output_adapter@_W@__crt_stdio_output@@@__crt_stdio_output@@IAE_NXZ 10054e20 f i libucrtd:output.obj
 0001:00053e70       ?should_skip_normal_state_processing@?$standard_base@DV?$stream_output_adapter@D@__crt_stdio_output@@@__crt_stdio_output@@IAE_NXZ 10054e70 f i libucrtd:output.obj
 0001:00053e80       ?should_skip_normal_state_processing@?$standard_base@DV?$string_output_adapter@D@__crt_stdio_output@@@__crt_stdio_output@@IAE_NXZ 10054e80 f i libucrtd:output.obj
 0001:00053e90       ?should_skip_normal_state_processing@?$standard_base@_WV?$stream_output_adapter@_W@__crt_stdio_output@@@__crt_stdio_output@@IAE_NXZ 10054e90 f i libucrtd:output.obj
 0001:00053ea0       ?should_skip_normal_state_processing@?$standard_base@_WV?$string_output_adapter@_W@__crt_stdio_output@@@__crt_stdio_output@@IAE_NXZ 10054ea0 f i libucrtd:output.obj
 0001:00053eb0       ?should_skip_type_state_output@?$positional_parameter_base@DV?$stream_output_adapter@D@__crt_stdio_output@@@__crt_stdio_output@@IBE_NXZ 10054eb0 f i libucrtd:output.obj
 0001:00053ef0       ?should_skip_type_state_output@?$positional_parameter_base@DV?$string_output_adapter@D@__crt_stdio_output@@@__crt_stdio_output@@IBE_NXZ 10054ef0 f i libucrtd:output.obj
 0001:00053f30       ?should_skip_type_state_output@?$positional_parameter_base@_WV?$stream_output_adapter@_W@__crt_stdio_output@@@__crt_stdio_output@@IBE_NXZ 10054f30 f i libucrtd:output.obj
 0001:00053f70       ?should_skip_type_state_output@?$positional_parameter_base@_WV?$string_output_adapter@_W@__crt_stdio_output@@@__crt_stdio_output@@IBE_NXZ 10054f70 f i libucrtd:output.obj
 0001:00053fb0       ?should_skip_type_state_output@?$standard_base@DV?$stream_output_adapter@D@__crt_stdio_output@@@__crt_stdio_output@@IBE_NXZ 10054fb0 f i libucrtd:output.obj
 0001:00053fc0       ?should_skip_type_state_output@?$standard_base@DV?$string_output_adapter@D@__crt_stdio_output@@@__crt_stdio_output@@IBE_NXZ 10054fc0 f i libucrtd:output.obj
 0001:00053fd0       ?should_skip_type_state_output@?$standard_base@_WV?$stream_output_adapter@_W@__crt_stdio_output@@@__crt_stdio_output@@IBE_NXZ 10054fd0 f i libucrtd:output.obj
 0001:00053fe0       ?should_skip_type_state_output@?$standard_base@_WV?$string_output_adapter@_W@__crt_stdio_output@@@__crt_stdio_output@@IBE_NXZ 10054fe0 f i libucrtd:output.obj
 0001:00053ff0       ?state_case_dot@?$output_processor@DV?$stream_output_adapter@D@__crt_stdio_output@@V?$format_validation_base@DV?$stream_output_adapter@D@__crt_stdio_output@@@2@@__crt_stdio_output@@AAE_NXZ 10054ff0 f i libucrtd:output.obj
 0001:00054010       ?state_case_dot@?$output_processor@DV?$stream_output_adapter@D@__crt_stdio_output@@V?$positional_parameter_base@DV?$stream_output_adapter@D@__crt_stdio_output@@@2@@__crt_stdio_output@@AAE_NXZ 10055010 f i libucrtd:output.obj
 0001:00054030       ?state_case_dot@?$output_processor@DV?$stream_output_adapter@D@__crt_stdio_output@@V?$standard_base@DV?$stream_output_adapter@D@__crt_stdio_output@@@2@@__crt_stdio_output@@AAE_NXZ 10055030 f i libucrtd:output.obj
 0001:00054050       ?state_case_dot@?$output_processor@DV?$string_output_adapter@D@__crt_stdio_output@@V?$format_validation_base@DV?$string_output_adapter@D@__crt_stdio_output@@@2@@__crt_stdio_output@@AAE_NXZ 10055050 f i libucrtd:output.obj
 0001:00054070       ?state_case_dot@?$output_processor@DV?$string_output_adapter@D@__crt_stdio_output@@V?$positional_parameter_base@DV?$string_output_adapter@D@__crt_stdio_output@@@2@@__crt_stdio_output@@AAE_NXZ 10055070 f i libucrtd:output.obj
 0001:00054090       ?state_case_dot@?$output_processor@DV?$string_output_adapter@D@__crt_stdio_output@@V?$standard_base@DV?$string_output_adapter@D@__crt_stdio_output@@@2@@__crt_stdio_output@@AAE_NXZ 10055090 f i libucrtd:output.obj
 0001:000540b0       ?state_case_dot@?$output_processor@_WV?$stream_output_adapter@_W@__crt_stdio_output@@V?$format_validation_base@_WV?$stream_output_adapter@_W@__crt_stdio_output@@@2@@__crt_stdio_output@@AAE_NXZ 100550b0 f i libucrtd:output.obj
 0001:000540d0       ?state_case_dot@?$output_processor@_WV?$stream_output_adapter@_W@__crt_stdio_output@@V?$positional_parameter_base@_WV?$stream_output_adapter@_W@__crt_stdio_output@@@2@@__crt_stdio_output@@AAE_NXZ 100550d0 f i libucrtd:output.obj
 0001:000540f0       ?state_case_dot@?$output_processor@_WV?$stream_output_adapter@_W@__crt_stdio_output@@V?$standard_base@_WV?$stream_output_adapter@_W@__crt_stdio_output@@@2@@__crt_stdio_output@@AAE_NXZ 100550f0 f i libucrtd:output.obj
 0001:00054110       ?state_case_dot@?$output_processor@_WV?$string_output_adapter@_W@__crt_stdio_output@@V?$format_validation_base@_WV?$string_output_adapter@_W@__crt_stdio_output@@@2@@__crt_stdio_output@@AAE_NXZ 10055110 f i libucrtd:output.obj
 0001:00054130       ?state_case_dot@?$output_processor@_WV?$string_output_adapter@_W@__crt_stdio_output@@V?$positional_parameter_base@_WV?$string_output_adapter@_W@__crt_stdio_output@@@2@@__crt_stdio_output@@AAE_NXZ 10055130 f i libucrtd:output.obj
 0001:00054150       ?state_case_dot@?$output_processor@_WV?$string_output_adapter@_W@__crt_stdio_output@@V?$standard_base@_WV?$string_output_adapter@_W@__crt_stdio_output@@@2@@__crt_stdio_output@@AAE_NXZ 10055150 f i libucrtd:output.obj
 0001:00054170       ?state_case_flag@?$output_processor@DV?$stream_output_adapter@D@__crt_stdio_output@@V?$format_validation_base@DV?$stream_output_adapter@D@__crt_stdio_output@@@2@@__crt_stdio_output@@AAE_NXZ 10055170 f i libucrtd:output.obj
 0001:00054220       ?state_case_flag@?$output_processor@DV?$stream_output_adapter@D@__crt_stdio_output@@V?$positional_parameter_base@DV?$stream_output_adapter@D@__crt_stdio_output@@@2@@__crt_stdio_output@@AAE_NXZ 10055220 f i libucrtd:output.obj
 0001:000542d0       ?state_case_flag@?$output_processor@DV?$stream_output_adapter@D@__crt_stdio_output@@V?$standard_base@DV?$stream_output_adapter@D@__crt_stdio_output@@@2@@__crt_stdio_output@@AAE_NXZ 100552d0 f i libucrtd:output.obj
 0001:00054380       ?state_case_flag@?$output_processor@DV?$string_output_adapter@D@__crt_stdio_output@@V?$format_validation_base@DV?$string_output_adapter@D@__crt_stdio_output@@@2@@__crt_stdio_output@@AAE_NXZ 10055380 f i libucrtd:output.obj
 0001:00054430       ?state_case_flag@?$output_processor@DV?$string_output_adapter@D@__crt_stdio_output@@V?$positional_parameter_base@DV?$string_output_adapter@D@__crt_stdio_output@@@2@@__crt_stdio_output@@AAE_NXZ 10055430 f i libucrtd:output.obj
 0001:000544e0       ?state_case_flag@?$output_processor@DV?$string_output_adapter@D@__crt_stdio_output@@V?$standard_base@DV?$string_output_adapter@D@__crt_stdio_output@@@2@@__crt_stdio_output@@AAE_NXZ 100554e0 f i libucrtd:output.obj
 0001:00054590       ?state_case_flag@?$output_processor@_WV?$stream_output_adapter@_W@__crt_stdio_output@@V?$format_validation_base@_WV?$stream_output_adapter@_W@__crt_stdio_output@@@2@@__crt_stdio_output@@AAE_NXZ 10055590 f i libucrtd:output.obj
 0001:00054640       ?state_case_flag@?$output_processor@_WV?$stream_output_adapter@_W@__crt_stdio_output@@V?$positional_parameter_base@_WV?$stream_output_adapter@_W@__crt_stdio_output@@@2@@__crt_stdio_output@@AAE_NXZ 10055640 f i libucrtd:output.obj
 0001:000546f0       ?state_case_flag@?$output_processor@_WV?$stream_output_adapter@_W@__crt_stdio_output@@V?$standard_base@_WV?$stream_output_adapter@_W@__crt_stdio_output@@@2@@__crt_stdio_output@@AAE_NXZ 100556f0 f i libucrtd:output.obj
 0001:000547a0       ?state_case_flag@?$output_processor@_WV?$string_output_adapter@_W@__crt_stdio_output@@V?$format_validation_base@_WV?$string_output_adapter@_W@__crt_stdio_output@@@2@@__crt_stdio_output@@AAE_NXZ 100557a0 f i libucrtd:output.obj
 0001:00054850       ?state_case_flag@?$output_processor@_WV?$string_output_adapter@_W@__crt_stdio_output@@V?$positional_parameter_base@_WV?$string_output_adapter@_W@__crt_stdio_output@@@2@@__crt_stdio_output@@AAE_NXZ 10055850 f i libucrtd:output.obj
 0001:00054900       ?state_case_flag@?$output_processor@_WV?$string_output_adapter@_W@__crt_stdio_output@@V?$standard_base@_WV?$string_output_adapter@_W@__crt_stdio_output@@@2@@__crt_stdio_output@@AAE_NXZ 10055900 f i libucrtd:output.obj
 0001:000549b0       ?state_case_normal@?$output_processor@DV?$stream_output_adapter@D@__crt_stdio_output@@V?$format_validation_base@DV?$stream_output_adapter@D@__crt_stdio_output@@@2@@__crt_stdio_output@@AAE_NXZ 100559b0 f i libucrtd:output.obj
 0001:00054a60       ?state_case_normal@?$output_processor@DV?$stream_output_adapter@D@__crt_stdio_output@@V?$positional_parameter_base@DV?$stream_output_adapter@D@__crt_stdio_output@@@2@@__crt_stdio_output@@AAE_NXZ 10055a60 f i libucrtd:output.obj
 0001:00054b10       ?state_case_normal@?$output_processor@DV?$stream_output_adapter@D@__crt_stdio_output@@V?$standard_base@DV?$stream_output_adapter@D@__crt_stdio_output@@@2@@__crt_stdio_output@@AAE_NXZ 10055b10 f i libucrtd:output.obj
 0001:00054bc0       ?state_case_normal@?$output_processor@DV?$string_output_adapter@D@__crt_stdio_output@@V?$format_validation_base@DV?$string_output_adapter@D@__crt_stdio_output@@@2@@__crt_stdio_output@@AAE_NXZ 10055bc0 f i libucrtd:output.obj
 0001:00054c70       ?state_case_normal@?$output_processor@DV?$string_output_adapter@D@__crt_stdio_output@@V?$positional_parameter_base@DV?$string_output_adapter@D@__crt_stdio_output@@@2@@__crt_stdio_output@@AAE_NXZ 10055c70 f i libucrtd:output.obj
 0001:00054d20       ?state_case_normal@?$output_processor@DV?$string_output_adapter@D@__crt_stdio_output@@V?$standard_base@DV?$string_output_adapter@D@__crt_stdio_output@@@2@@__crt_stdio_output@@AAE_NXZ 10055d20 f i libucrtd:output.obj
 0001:00054dd0       ?state_case_normal@?$output_processor@_WV?$stream_output_adapter@_W@__crt_stdio_output@@V?$format_validation_base@_WV?$stream_output_adapter@_W@__crt_stdio_output@@@2@@__crt_stdio_output@@AAE_NXZ 10055dd0 f i libucrtd:output.obj
 0001:00054e80       ?state_case_normal@?$output_processor@_WV?$stream_output_adapter@_W@__crt_stdio_output@@V?$positional_parameter_base@_WV?$stream_output_adapter@_W@__crt_stdio_output@@@2@@__crt_stdio_output@@AAE_NXZ 10055e80 f i libucrtd:output.obj
 0001:00054f30       ?state_case_normal@?$output_processor@_WV?$stream_output_adapter@_W@__crt_stdio_output@@V?$standard_base@_WV?$stream_output_adapter@_W@__crt_stdio_output@@@2@@__crt_stdio_output@@AAE_NXZ 10055f30 f i libucrtd:output.obj
 0001:00054fe0       ?state_case_normal@?$output_processor@_WV?$string_output_adapter@_W@__crt_stdio_output@@V?$format_validation_base@_WV?$string_output_adapter@_W@__crt_stdio_output@@@2@@__crt_stdio_output@@AAE_NXZ 10055fe0 f i libucrtd:output.obj
 0001:00055090       ?state_case_normal@?$output_processor@_WV?$string_output_adapter@_W@__crt_stdio_output@@V?$positional_parameter_base@_WV?$string_output_adapter@_W@__crt_stdio_output@@@2@@__crt_stdio_output@@AAE_NXZ 10056090 f i libucrtd:output.obj
 0001:00055140       ?state_case_normal@?$output_processor@_WV?$string_output_adapter@_W@__crt_stdio_output@@V?$standard_base@_WV?$string_output_adapter@_W@__crt_stdio_output@@@2@@__crt_stdio_output@@AAE_NXZ 10056140 f i libucrtd:output.obj
 0001:000551f0       ?state_case_normal_common@?$output_processor@DV?$stream_output_adapter@D@__crt_stdio_output@@V?$format_validation_base@DV?$stream_output_adapter@D@__crt_stdio_output@@@2@@__crt_stdio_output@@AAE_NXZ 100561f0 f i libucrtd:output.obj
 0001:00055240       ?state_case_normal_common@?$output_processor@DV?$stream_output_adapter@D@__crt_stdio_output@@V?$positional_parameter_base@DV?$stream_output_adapter@D@__crt_stdio_output@@@2@@__crt_stdio_output@@AAE_NXZ 10056240 f i libucrtd:output.obj
 0001:00055290       ?state_case_normal_common@?$output_processor@DV?$stream_output_adapter@D@__crt_stdio_output@@V?$standard_base@DV?$stream_output_adapter@D@__crt_stdio_output@@@2@@__crt_stdio_output@@AAE_NXZ 10056290 f i libucrtd:output.obj
 0001:000552e0       ?state_case_normal_common@?$output_processor@DV?$string_output_adapter@D@__crt_stdio_output@@V?$format_validation_base@DV?$string_output_adapter@D@__crt_stdio_output@@@2@@__crt_stdio_output@@AAE_NXZ 100562e0 f i libucrtd:output.obj
 0001:00055330       ?state_case_normal_common@?$output_processor@DV?$string_output_adapter@D@__crt_stdio_output@@V?$positional_parameter_base@DV?$string_output_adapter@D@__crt_stdio_output@@@2@@__crt_stdio_output@@AAE_NXZ 10056330 f i libucrtd:output.obj
 0001:00055380       ?state_case_normal_common@?$output_processor@DV?$string_output_adapter@D@__crt_stdio_output@@V?$standard_base@DV?$string_output_adapter@D@__crt_stdio_output@@@2@@__crt_stdio_output@@AAE_NXZ 10056380 f i libucrtd:output.obj
 0001:000553d0       ?state_case_normal_common@?$output_processor@_WV?$stream_output_adapter@_W@__crt_stdio_output@@V?$format_validation_base@_WV?$stream_output_adapter@_W@__crt_stdio_output@@@2@@__crt_stdio_output@@AAE_NXZ 100563d0 f i libucrtd:output.obj
 0001:00055420       ?state_case_normal_common@?$output_processor@_WV?$stream_output_adapter@_W@__crt_stdio_output@@V?$positional_parameter_base@_WV?$stream_output_adapter@_W@__crt_stdio_output@@@2@@__crt_stdio_output@@AAE_NXZ 10056420 f i libucrtd:output.obj
 0001:00055470       ?state_case_normal_common@?$output_processor@_WV?$stream_output_adapter@_W@__crt_stdio_output@@V?$standard_base@_WV?$stream_output_adapter@_W@__crt_stdio_output@@@2@@__crt_stdio_output@@AAE_NXZ 10056470 f i libucrtd:output.obj
 0001:000554c0       ?state_case_normal_common@?$output_processor@_WV?$string_output_adapter@_W@__crt_stdio_output@@V?$format_validation_base@_WV?$string_output_adapter@_W@__crt_stdio_output@@@2@@__crt_stdio_output@@AAE_NXZ 100564c0 f i libucrtd:output.obj
 0001:00055510       ?state_case_normal_common@?$output_processor@_WV?$string_output_adapter@_W@__crt_stdio_output@@V?$positional_parameter_base@_WV?$string_output_adapter@_W@__crt_stdio_output@@@2@@__crt_stdio_output@@AAE_NXZ 10056510 f i libucrtd:output.obj
 0001:00055560       ?state_case_normal_common@?$output_processor@_WV?$string_output_adapter@_W@__crt_stdio_output@@V?$standard_base@_WV?$string_output_adapter@_W@__crt_stdio_output@@@2@@__crt_stdio_output@@AAE_NXZ 10056560 f i libucrtd:output.obj
 0001:000555b0       ?state_case_normal_tchar@?$output_processor@DV?$stream_output_adapter@D@__crt_stdio_output@@V?$format_validation_base@DV?$stream_output_adapter@D@__crt_stdio_output@@@2@@__crt_stdio_output@@AAE_ND@Z 100565b0 f i libucrtd:output.obj
 0001:000556b0       ?state_case_normal_tchar@?$output_processor@DV?$stream_output_adapter@D@__crt_stdio_output@@V?$positional_parameter_base@DV?$stream_output_adapter@D@__crt_stdio_output@@@2@@__crt_stdio_output@@AAE_ND@Z 100566b0 f i libucrtd:output.obj
 0001:000557b0       ?state_case_normal_tchar@?$output_processor@DV?$stream_output_adapter@D@__crt_stdio_output@@V?$standard_base@DV?$stream_output_adapter@D@__crt_stdio_output@@@2@@__crt_stdio_output@@AAE_ND@Z 100567b0 f i libucrtd:output.obj
 0001:000558b0       ?state_case_normal_tchar@?$output_processor@DV?$string_output_adapter@D@__crt_stdio_output@@V?$format_validation_base@DV?$string_output_adapter@D@__crt_stdio_output@@@2@@__crt_stdio_output@@AAE_ND@Z 100568b0 f i libucrtd:output.obj
 0001:000559b0       ?state_case_normal_tchar@?$output_processor@DV?$string_output_adapter@D@__crt_stdio_output@@V?$positional_parameter_base@DV?$string_output_adapter@D@__crt_stdio_output@@@2@@__crt_stdio_output@@AAE_ND@Z 100569b0 f i libucrtd:output.obj
 0001:00055ab0       ?state_case_normal_tchar@?$output_processor@DV?$string_output_adapter@D@__crt_stdio_output@@V?$standard_base@DV?$string_output_adapter@D@__crt_stdio_output@@@2@@__crt_stdio_output@@AAE_ND@Z 10056ab0 f i libucrtd:output.obj
 0001:00055bb0       ?state_case_normal_tchar@?$output_processor@_WV?$stream_output_adapter@_W@__crt_stdio_output@@V?$format_validation_base@_WV?$stream_output_adapter@_W@__crt_stdio_output@@@2@@__crt_stdio_output@@AAE_N_W@Z 10056bb0 f i libucrtd:output.obj
 0001:00055bd0       ?state_case_normal_tchar@?$output_processor@_WV?$stream_output_adapter@_W@__crt_stdio_output@@V?$positional_parameter_base@_WV?$stream_output_adapter@_W@__crt_stdio_output@@@2@@__crt_stdio_output@@AAE_N_W@Z 10056bd0 f i libucrtd:output.obj
 0001:00055bf0       ?state_case_normal_tchar@?$output_processor@_WV?$stream_output_adapter@_W@__crt_stdio_output@@V?$standard_base@_WV?$stream_output_adapter@_W@__crt_stdio_output@@@2@@__crt_stdio_output@@AAE_N_W@Z 10056bf0 f i libucrtd:output.obj
 0001:00055c10       ?state_case_normal_tchar@?$output_processor@_WV?$string_output_adapter@_W@__crt_stdio_output@@V?$format_validation_base@_WV?$string_output_adapter@_W@__crt_stdio_output@@@2@@__crt_stdio_output@@AAE_N_W@Z 10056c10 f i libucrtd:output.obj
 0001:00055c30       ?state_case_normal_tchar@?$output_processor@_WV?$string_output_adapter@_W@__crt_stdio_output@@V?$positional_parameter_base@_WV?$string_output_adapter@_W@__crt_stdio_output@@@2@@__crt_stdio_output@@AAE_N_W@Z 10056c30 f i libucrtd:output.obj
 0001:00055c50       ?state_case_normal_tchar@?$output_processor@_WV?$string_output_adapter@_W@__crt_stdio_output@@V?$standard_base@_WV?$string_output_adapter@_W@__crt_stdio_output@@@2@@__crt_stdio_output@@AAE_N_W@Z 10056c50 f i libucrtd:output.obj
 0001:00055c70       ?state_case_percent@?$output_processor@DV?$stream_output_adapter@D@__crt_stdio_output@@V?$format_validation_base@DV?$stream_output_adapter@D@__crt_stdio_output@@@2@@__crt_stdio_output@@AAE_NXZ 10056c70 f i libucrtd:output.obj
 0001:00055cc0       ?state_case_percent@?$output_processor@DV?$stream_output_adapter@D@__crt_stdio_output@@V?$positional_parameter_base@DV?$stream_output_adapter@D@__crt_stdio_output@@@2@@__crt_stdio_output@@AAE_NXZ 10056cc0 f i libucrtd:output.obj
 0001:00055d10       ?state_case_percent@?$output_processor@DV?$stream_output_adapter@D@__crt_stdio_output@@V?$standard_base@DV?$stream_output_adapter@D@__crt_stdio_output@@@2@@__crt_stdio_output@@AAE_NXZ 10056d10 f i libucrtd:output.obj
 0001:00055d60       ?state_case_percent@?$output_processor@DV?$string_output_adapter@D@__crt_stdio_output@@V?$format_validation_base@DV?$string_output_adapter@D@__crt_stdio_output@@@2@@__crt_stdio_output@@AAE_NXZ 10056d60 f i libucrtd:output.obj
 0001:00055db0       ?state_case_percent@?$output_processor@DV?$string_output_adapter@D@__crt_stdio_output@@V?$positional_parameter_base@DV?$string_output_adapter@D@__crt_stdio_output@@@2@@__crt_stdio_output@@AAE_NXZ 10056db0 f i libucrtd:output.obj
 0001:00055e00       ?state_case_percent@?$output_processor@DV?$string_output_adapter@D@__crt_stdio_output@@V?$standard_base@DV?$string_output_adapter@D@__crt_stdio_output@@@2@@__crt_stdio_output@@AAE_NXZ 10056e00 f i libucrtd:output.obj
 0001:00055e50       ?state_case_percent@?$output_processor@_WV?$stream_output_adapter@_W@__crt_stdio_output@@V?$format_validation_base@_WV?$stream_output_adapter@_W@__crt_stdio_output@@@2@@__crt_stdio_output@@AAE_NXZ 10056e50 f i libucrtd:output.obj
 0001:00055ea0       ?state_case_percent@?$output_processor@_WV?$stream_output_adapter@_W@__crt_stdio_output@@V?$positional_parameter_base@_WV?$stream_output_adapter@_W@__crt_stdio_output@@@2@@__crt_stdio_output@@AAE_NXZ 10056ea0 f i libucrtd:output.obj
 0001:00055ef0       ?state_case_percent@?$output_processor@_WV?$stream_output_adapter@_W@__crt_stdio_output@@V?$standard_base@_WV?$stream_output_adapter@_W@__crt_stdio_output@@@2@@__crt_stdio_output@@AAE_NXZ 10056ef0 f i libucrtd:output.obj
 0001:00055f40       ?state_case_percent@?$output_processor@_WV?$string_output_adapter@_W@__crt_stdio_output@@V?$format_validation_base@_WV?$string_output_adapter@_W@__crt_stdio_output@@@2@@__crt_stdio_output@@AAE_NXZ 10056f40 f i libucrtd:output.obj
 0001:00055f90       ?state_case_percent@?$output_processor@_WV?$string_output_adapter@_W@__crt_stdio_output@@V?$positional_parameter_base@_WV?$string_output_adapter@_W@__crt_stdio_output@@@2@@__crt_stdio_output@@AAE_NXZ 10056f90 f i libucrtd:output.obj
 0001:00055fe0       ?state_case_percent@?$output_processor@_WV?$string_output_adapter@_W@__crt_stdio_output@@V?$standard_base@_WV?$string_output_adapter@_W@__crt_stdio_output@@@2@@__crt_stdio_output@@AAE_NXZ 10056fe0 f i libucrtd:output.obj
 0001:00056030       ?state_case_precision@?$output_processor@DV?$stream_output_adapter@D@__crt_stdio_output@@V?$format_validation_base@DV?$stream_output_adapter@D@__crt_stdio_output@@@2@@__crt_stdio_output@@AAE_NXZ 10057030 f i libucrtd:output.obj
 0001:000560a0       ?state_case_precision@?$output_processor@DV?$stream_output_adapter@D@__crt_stdio_output@@V?$positional_parameter_base@DV?$stream_output_adapter@D@__crt_stdio_output@@@2@@__crt_stdio_output@@AAE_NXZ 100570a0 f i libucrtd:output.obj
 0001:00056110       ?state_case_precision@?$output_processor@DV?$stream_output_adapter@D@__crt_stdio_output@@V?$standard_base@DV?$stream_output_adapter@D@__crt_stdio_output@@@2@@__crt_stdio_output@@AAE_NXZ 10057110 f i libucrtd:output.obj
 0001:00056180       ?state_case_precision@?$output_processor@DV?$string_output_adapter@D@__crt_stdio_output@@V?$format_validation_base@DV?$string_output_adapter@D@__crt_stdio_output@@@2@@__crt_stdio_output@@AAE_NXZ 10057180 f i libucrtd:output.obj
 0001:000561f0       ?state_case_precision@?$output_processor@DV?$string_output_adapter@D@__crt_stdio_output@@V?$positional_parameter_base@DV?$string_output_adapter@D@__crt_stdio_output@@@2@@__crt_stdio_output@@AAE_NXZ 100571f0 f i libucrtd:output.obj
 0001:00056260       ?state_case_precision@?$output_processor@DV?$string_output_adapter@D@__crt_stdio_output@@V?$standard_base@DV?$string_output_adapter@D@__crt_stdio_output@@@2@@__crt_stdio_output@@AAE_NXZ 10057260 f i libucrtd:output.obj
 0001:000562d0       ?state_case_precision@?$output_processor@_WV?$stream_output_adapter@_W@__crt_stdio_output@@V?$format_validation_base@_WV?$stream_output_adapter@_W@__crt_stdio_output@@@2@@__crt_stdio_output@@AAE_NXZ 100572d0 f i libucrtd:output.obj
 0001:00056340       ?state_case_precision@?$output_processor@_WV?$stream_output_adapter@_W@__crt_stdio_output@@V?$positional_parameter_base@_WV?$stream_output_adapter@_W@__crt_stdio_output@@@2@@__crt_stdio_output@@AAE_NXZ 10057340 f i libucrtd:output.obj
 0001:000563b0       ?state_case_precision@?$output_processor@_WV?$stream_output_adapter@_W@__crt_stdio_output@@V?$standard_base@_WV?$stream_output_adapter@_W@__crt_stdio_output@@@2@@__crt_stdio_output@@AAE_NXZ 100573b0 f i libucrtd:output.obj
 0001:00056420       ?state_case_precision@?$output_processor@_WV?$string_output_adapter@_W@__crt_stdio_output@@V?$format_validation_base@_WV?$string_output_adapter@_W@__crt_stdio_output@@@2@@__crt_stdio_output@@AAE_NXZ 10057420 f i libucrtd:output.obj
 0001:00056490       ?state_case_precision@?$output_processor@_WV?$string_output_adapter@_W@__crt_stdio_output@@V?$positional_parameter_base@_WV?$string_output_adapter@_W@__crt_stdio_output@@@2@@__crt_stdio_output@@AAE_NXZ 10057490 f i libucrtd:output.obj
 0001:00056500       ?state_case_precision@?$output_processor@_WV?$string_output_adapter@_W@__crt_stdio_output@@V?$standard_base@_WV?$string_output_adapter@_W@__crt_stdio_output@@@2@@__crt_stdio_output@@AAE_NXZ 10057500 f i libucrtd:output.obj
 0001:00056570       ?state_case_size@?$output_processor@DV?$stream_output_adapter@D@__crt_stdio_output@@V?$format_validation_base@DV?$stream_output_adapter@D@__crt_stdio_output@@@2@@__crt_stdio_output@@AAE_NXZ 10057570 f i libucrtd:output.obj
 0001:00056940       ?state_case_size@?$output_processor@DV?$stream_output_adapter@D@__crt_stdio_output@@V?$positional_parameter_base@DV?$stream_output_adapter@D@__crt_stdio_output@@@2@@__crt_stdio_output@@AAE_NXZ 10057940 f i libucrtd:output.obj
 0001:00056d10       ?state_case_size@?$output_processor@DV?$stream_output_adapter@D@__crt_stdio_output@@V?$standard_base@DV?$stream_output_adapter@D@__crt_stdio_output@@@2@@__crt_stdio_output@@AAE_NXZ 10057d10 f i libucrtd:output.obj
 0001:000570e0       ?state_case_size@?$output_processor@DV?$string_output_adapter@D@__crt_stdio_output@@V?$format_validation_base@DV?$string_output_adapter@D@__crt_stdio_output@@@2@@__crt_stdio_output@@AAE_NXZ 100580e0 f i libucrtd:output.obj
 0001:000574b0       ?state_case_size@?$output_processor@DV?$string_output_adapter@D@__crt_stdio_output@@V?$positional_parameter_base@DV?$string_output_adapter@D@__crt_stdio_output@@@2@@__crt_stdio_output@@AAE_NXZ 100584b0 f i libucrtd:output.obj
 0001:00057880       ?state_case_size@?$output_processor@DV?$string_output_adapter@D@__crt_stdio_output@@V?$standard_base@DV?$string_output_adapter@D@__crt_stdio_output@@@2@@__crt_stdio_output@@AAE_NXZ 10058880 f i libucrtd:output.obj
 0001:00057c50       ?state_case_size@?$output_processor@_WV?$stream_output_adapter@_W@__crt_stdio_output@@V?$format_validation_base@_WV?$stream_output_adapter@_W@__crt_stdio_output@@@2@@__crt_stdio_output@@AAE_NXZ 10058c50 f i libucrtd:output.obj
 0001:00058020       ?state_case_size@?$output_processor@_WV?$stream_output_adapter@_W@__crt_stdio_output@@V?$positional_parameter_base@_WV?$stream_output_adapter@_W@__crt_stdio_output@@@2@@__crt_stdio_output@@AAE_NXZ 10059020 f i libucrtd:output.obj
 0001:000583f0       ?state_case_size@?$output_processor@_WV?$stream_output_adapter@_W@__crt_stdio_output@@V?$standard_base@_WV?$stream_output_adapter@_W@__crt_stdio_output@@@2@@__crt_stdio_output@@AAE_NXZ 100593f0 f i libucrtd:output.obj
 0001:000587c0       ?state_case_size@?$output_processor@_WV?$string_output_adapter@_W@__crt_stdio_output@@V?$format_validation_base@_WV?$string_output_adapter@_W@__crt_stdio_output@@@2@@__crt_stdio_output@@AAE_NXZ 100597c0 f i libucrtd:output.obj
 0001:00058b90       ?state_case_size@?$output_processor@_WV?$string_output_adapter@_W@__crt_stdio_output@@V?$positional_parameter_base@_WV?$string_output_adapter@_W@__crt_stdio_output@@@2@@__crt_stdio_output@@AAE_NXZ 10059b90 f i libucrtd:output.obj
 0001:00058f60       ?state_case_size@?$output_processor@_WV?$string_output_adapter@_W@__crt_stdio_output@@V?$standard_base@_WV?$string_output_adapter@_W@__crt_stdio_output@@@2@@__crt_stdio_output@@AAE_NXZ 10059f60 f i libucrtd:output.obj
 0001:00059330       ?state_case_type@?$output_processor@DV?$stream_output_adapter@D@__crt_stdio_output@@V?$format_validation_base@DV?$stream_output_adapter@D@__crt_stdio_output@@@2@@__crt_stdio_output@@AAE_NXZ 1005a330 f i libucrtd:output.obj
 0001:000596e0       ?state_case_type@?$output_processor@DV?$stream_output_adapter@D@__crt_stdio_output@@V?$positional_parameter_base@DV?$stream_output_adapter@D@__crt_stdio_output@@@2@@__crt_stdio_output@@AAE_NXZ 1005a6e0 f i libucrtd:output.obj
 0001:00059a90       ?state_case_type@?$output_processor@DV?$stream_output_adapter@D@__crt_stdio_output@@V?$standard_base@DV?$stream_output_adapter@D@__crt_stdio_output@@@2@@__crt_stdio_output@@AAE_NXZ 1005aa90 f i libucrtd:output.obj
 0001:00059e40       ?state_case_type@?$output_processor@DV?$string_output_adapter@D@__crt_stdio_output@@V?$format_validation_base@DV?$string_output_adapter@D@__crt_stdio_output@@@2@@__crt_stdio_output@@AAE_NXZ 1005ae40 f i libucrtd:output.obj
 0001:0005a1f0       ?state_case_type@?$output_processor@DV?$string_output_adapter@D@__crt_stdio_output@@V?$positional_parameter_base@DV?$string_output_adapter@D@__crt_stdio_output@@@2@@__crt_stdio_output@@AAE_NXZ 1005b1f0 f i libucrtd:output.obj
 0001:0005a5a0       ?state_case_type@?$output_processor@DV?$string_output_adapter@D@__crt_stdio_output@@V?$standard_base@DV?$string_output_adapter@D@__crt_stdio_output@@@2@@__crt_stdio_output@@AAE_NXZ 1005b5a0 f i libucrtd:output.obj
 0001:0005a950       ?state_case_type@?$output_processor@_WV?$stream_output_adapter@_W@__crt_stdio_output@@V?$format_validation_base@_WV?$stream_output_adapter@_W@__crt_stdio_output@@@2@@__crt_stdio_output@@AAE_NXZ 1005b950 f i libucrtd:output.obj
 0001:0005ad30       ?state_case_type@?$output_processor@_WV?$stream_output_adapter@_W@__crt_stdio_output@@V?$positional_parameter_base@_WV?$stream_output_adapter@_W@__crt_stdio_output@@@2@@__crt_stdio_output@@AAE_NXZ 1005bd30 f i libucrtd:output.obj
 0001:0005b110       ?state_case_type@?$output_processor@_WV?$stream_output_adapter@_W@__crt_stdio_output@@V?$standard_base@_WV?$stream_output_adapter@_W@__crt_stdio_output@@@2@@__crt_stdio_output@@AAE_NXZ 1005c110 f i libucrtd:output.obj
 0001:0005b4f0       ?state_case_type@?$output_processor@_WV?$string_output_adapter@_W@__crt_stdio_output@@V?$format_validation_base@_WV?$string_output_adapter@_W@__crt_stdio_output@@@2@@__crt_stdio_output@@AAE_NXZ 1005c4f0 f i libucrtd:output.obj
 0001:0005b8d0       ?state_case_type@?$output_processor@_WV?$string_output_adapter@_W@__crt_stdio_output@@V?$positional_parameter_base@_WV?$string_output_adapter@_W@__crt_stdio_output@@@2@@__crt_stdio_output@@AAE_NXZ 1005c8d0 f i libucrtd:output.obj
 0001:0005bcb0       ?state_case_type@?$output_processor@_WV?$string_output_adapter@_W@__crt_stdio_output@@V?$standard_base@_WV?$string_output_adapter@_W@__crt_stdio_output@@@2@@__crt_stdio_output@@AAE_NXZ 1005ccb0 f i libucrtd:output.obj
 0001:0005c090       ?state_case_width@?$output_processor@DV?$stream_output_adapter@D@__crt_stdio_output@@V?$format_validation_base@DV?$stream_output_adapter@D@__crt_stdio_output@@@2@@__crt_stdio_output@@AAE_NXZ 1005d090 f i libucrtd:output.obj
 0001:0005c110       ?state_case_width@?$output_processor@DV?$stream_output_adapter@D@__crt_stdio_output@@V?$positional_parameter_base@DV?$stream_output_adapter@D@__crt_stdio_output@@@2@@__crt_stdio_output@@AAE_NXZ 1005d110 f i libucrtd:output.obj
 0001:0005c190       ?state_case_width@?$output_processor@DV?$stream_output_adapter@D@__crt_stdio_output@@V?$standard_base@DV?$stream_output_adapter@D@__crt_stdio_output@@@2@@__crt_stdio_output@@AAE_NXZ 1005d190 f i libucrtd:output.obj
 0001:0005c210       ?state_case_width@?$output_processor@DV?$string_output_adapter@D@__crt_stdio_output@@V?$format_validation_base@DV?$string_output_adapter@D@__crt_stdio_output@@@2@@__crt_stdio_output@@AAE_NXZ 1005d210 f i libucrtd:output.obj
 0001:0005c290       ?state_case_width@?$output_processor@DV?$string_output_adapter@D@__crt_stdio_output@@V?$positional_parameter_base@DV?$string_output_adapter@D@__crt_stdio_output@@@2@@__crt_stdio_output@@AAE_NXZ 1005d290 f i libucrtd:output.obj
 0001:0005c310       ?state_case_width@?$output_processor@DV?$string_output_adapter@D@__crt_stdio_output@@V?$standard_base@DV?$string_output_adapter@D@__crt_stdio_output@@@2@@__crt_stdio_output@@AAE_NXZ 1005d310 f i libucrtd:output.obj
 0001:0005c390       ?state_case_width@?$output_processor@_WV?$stream_output_adapter@_W@__crt_stdio_output@@V?$format_validation_base@_WV?$stream_output_adapter@_W@__crt_stdio_output@@@2@@__crt_stdio_output@@AAE_NXZ 1005d390 f i libucrtd:output.obj
 0001:0005c410       ?state_case_width@?$output_processor@_WV?$stream_output_adapter@_W@__crt_stdio_output@@V?$positional_parameter_base@_WV?$stream_output_adapter@_W@__crt_stdio_output@@@2@@__crt_stdio_output@@AAE_NXZ 1005d410 f i libucrtd:output.obj
 0001:0005c490       ?state_case_width@?$output_processor@_WV?$stream_output_adapter@_W@__crt_stdio_output@@V?$standard_base@_WV?$stream_output_adapter@_W@__crt_stdio_output@@@2@@__crt_stdio_output@@AAE_NXZ 1005d490 f i libucrtd:output.obj
 0001:0005c510       ?state_case_width@?$output_processor@_WV?$string_output_adapter@_W@__crt_stdio_output@@V?$format_validation_base@_WV?$string_output_adapter@_W@__crt_stdio_output@@@2@@__crt_stdio_output@@AAE_NXZ 1005d510 f i libucrtd:output.obj
 0001:0005c590       ?state_case_width@?$output_processor@_WV?$string_output_adapter@_W@__crt_stdio_output@@V?$positional_parameter_base@_WV?$string_output_adapter@_W@__crt_stdio_output@@@2@@__crt_stdio_output@@AAE_NXZ 1005d590 f i libucrtd:output.obj
 0001:0005c610       ?state_case_width@?$output_processor@_WV?$string_output_adapter@_W@__crt_stdio_output@@V?$standard_base@_WV?$string_output_adapter@_W@__crt_stdio_output@@@2@@__crt_stdio_output@@AAE_NXZ 1005d610 f i libucrtd:output.obj
 0001:0005c690       ?state_count@?$format_validation_base@DV?$stream_output_adapter@D@__crt_stdio_output@@@__crt_stdio_output@@KAIXZ 1005d690 f i libucrtd:output.obj
 0001:0005c6a0       ?state_count@?$format_validation_base@DV?$string_output_adapter@D@__crt_stdio_output@@@__crt_stdio_output@@KAIXZ 1005d6a0 f i libucrtd:output.obj
 0001:0005c6b0       ?state_count@?$format_validation_base@_WV?$stream_output_adapter@_W@__crt_stdio_output@@@__crt_stdio_output@@KAIXZ 1005d6b0 f i libucrtd:output.obj
 0001:0005c6c0       ?state_count@?$format_validation_base@_WV?$string_output_adapter@_W@__crt_stdio_output@@@__crt_stdio_output@@KAIXZ 1005d6c0 f i libucrtd:output.obj
 0001:0005c6d0       ?state_count@?$standard_base@DV?$stream_output_adapter@D@__crt_stdio_output@@@__crt_stdio_output@@KAIXZ 1005d6d0 f i libucrtd:output.obj
 0001:0005c6e0       ?state_count@?$standard_base@DV?$string_output_adapter@D@__crt_stdio_output@@@__crt_stdio_output@@KAIXZ 1005d6e0 f i libucrtd:output.obj
 0001:0005c6f0       ?state_count@?$standard_base@_WV?$stream_output_adapter@_W@__crt_stdio_output@@@__crt_stdio_output@@KAIXZ 1005d6f0 f i libucrtd:output.obj
 0001:0005c700       ?state_count@?$standard_base@_WV?$string_output_adapter@_W@__crt_stdio_output@@@__crt_stdio_output@@KAIXZ 1005d700 f i libucrtd:output.obj
 0001:0005c710       ?state_transition_table@?$format_validation_base@DV?$stream_output_adapter@D@__crt_stdio_output@@@__crt_stdio_output@@KAPBEXZ 1005d710 f i libucrtd:output.obj
 0001:0005c720       ?state_transition_table@?$format_validation_base@DV?$string_output_adapter@D@__crt_stdio_output@@@__crt_stdio_output@@KAPBEXZ 1005d720 f i libucrtd:output.obj
 0001:0005c730       ?state_transition_table@?$format_validation_base@_WV?$stream_output_adapter@_W@__crt_stdio_output@@@__crt_stdio_output@@KAPBEXZ 1005d730 f i libucrtd:output.obj
 0001:0005c740       ?state_transition_table@?$format_validation_base@_WV?$string_output_adapter@_W@__crt_stdio_output@@@__crt_stdio_output@@KAPBEXZ 1005d740 f i libucrtd:output.obj
 0001:0005c750       ?state_transition_table@?$standard_base@DV?$stream_output_adapter@D@__crt_stdio_output@@@__crt_stdio_output@@KAPBEXZ 1005d750 f i libucrtd:output.obj
 0001:0005c760       ?state_transition_table@?$standard_base@DV?$string_output_adapter@D@__crt_stdio_output@@@__crt_stdio_output@@KAPBEXZ 1005d760 f i libucrtd:output.obj
 0001:0005c770       ?state_transition_table@?$standard_base@_WV?$stream_output_adapter@_W@__crt_stdio_output@@@__crt_stdio_output@@KAPBEXZ 1005d770 f i libucrtd:output.obj
 0001:0005c780       ?state_transition_table@?$standard_base@_WV?$string_output_adapter@_W@__crt_stdio_output@@@__crt_stdio_output@@KAPBEXZ 1005d780 f i libucrtd:output.obj
 0001:0005c790       ?tchar_string@?$common_data@D@__crt_stdio_output@@IAEAAPADD@Z 1005d790 f i libucrtd:output.obj
 0001:0005c7b0       ?tchar_string@?$common_data@D@__crt_stdio_output@@IAEAAPADXZ 1005d7b0 f i libucrtd:output.obj
 0001:0005c7d0       ?tchar_string@?$common_data@_W@__crt_stdio_output@@IAEAAPA_WXZ 1005d7d0 f i libucrtd:output.obj
 0001:0005c7f0       ?tchar_string@?$common_data@_W@__crt_stdio_output@@IAEAAPA_W_W@Z 1005d7f0 f i libucrtd:output.obj
 0001:0005c810       ?to_integer_size@__crt_stdio_output@@YAIW4length_modifier@1@@Z 1005d810 f i libucrtd:output.obj
 0001:0005c8b0       ?type_case_X@?$output_processor@DV?$stream_output_adapter@D@__crt_stdio_output@@V?$format_validation_base@DV?$stream_output_adapter@D@__crt_stdio_output@@@2@@__crt_stdio_output@@AAE_NXZ 1005d8b0 f i libucrtd:output.obj
 0001:0005c8d0       ?type_case_X@?$output_processor@DV?$stream_output_adapter@D@__crt_stdio_output@@V?$positional_parameter_base@DV?$stream_output_adapter@D@__crt_stdio_output@@@2@@__crt_stdio_output@@AAE_NXZ 1005d8d0 f i libucrtd:output.obj
 0001:0005c8f0       ?type_case_X@?$output_processor@DV?$stream_output_adapter@D@__crt_stdio_output@@V?$standard_base@DV?$stream_output_adapter@D@__crt_stdio_output@@@2@@__crt_stdio_output@@AAE_NXZ 1005d8f0 f i libucrtd:output.obj
 0001:0005c910       ?type_case_X@?$output_processor@DV?$string_output_adapter@D@__crt_stdio_output@@V?$format_validation_base@DV?$string_output_adapter@D@__crt_stdio_output@@@2@@__crt_stdio_output@@AAE_NXZ 1005d910 f i libucrtd:output.obj
 0001:0005c930       ?type_case_X@?$output_processor@DV?$string_output_adapter@D@__crt_stdio_output@@V?$positional_parameter_base@DV?$string_output_adapter@D@__crt_stdio_output@@@2@@__crt_stdio_output@@AAE_NXZ 1005d930 f i libucrtd:output.obj
 0001:0005c950       ?type_case_X@?$output_processor@DV?$string_output_adapter@D@__crt_stdio_output@@V?$standard_base@DV?$string_output_adapter@D@__crt_stdio_output@@@2@@__crt_stdio_output@@AAE_NXZ 1005d950 f i libucrtd:output.obj
 0001:0005c970       ?type_case_X@?$output_processor@_WV?$stream_output_adapter@_W@__crt_stdio_output@@V?$format_validation_base@_WV?$stream_output_adapter@_W@__crt_stdio_output@@@2@@__crt_stdio_output@@AAE_NXZ 1005d970 f i libucrtd:output.obj
 0001:0005c990       ?type_case_X@?$output_processor@_WV?$stream_output_adapter@_W@__crt_stdio_output@@V?$positional_parameter_base@_WV?$stream_output_adapter@_W@__crt_stdio_output@@@2@@__crt_stdio_output@@AAE_NXZ 1005d990 f i libucrtd:output.obj
 0001:0005c9b0       ?type_case_X@?$output_processor@_WV?$stream_output_adapter@_W@__crt_stdio_output@@V?$standard_base@_WV?$stream_output_adapter@_W@__crt_stdio_output@@@2@@__crt_stdio_output@@AAE_NXZ 1005d9b0 f i libucrtd:output.obj
 0001:0005c9d0       ?type_case_X@?$output_processor@_WV?$string_output_adapter@_W@__crt_stdio_output@@V?$format_validation_base@_WV?$string_output_adapter@_W@__crt_stdio_output@@@2@@__crt_stdio_output@@AAE_NXZ 1005d9d0 f i libucrtd:output.obj
 0001:0005c9f0       ?type_case_X@?$output_processor@_WV?$string_output_adapter@_W@__crt_stdio_output@@V?$positional_parameter_base@_WV?$string_output_adapter@_W@__crt_stdio_output@@@2@@__crt_stdio_output@@AAE_NXZ 1005d9f0 f i libucrtd:output.obj
 0001:0005ca10       ?type_case_X@?$output_processor@_WV?$string_output_adapter@_W@__crt_stdio_output@@V?$standard_base@_WV?$string_output_adapter@_W@__crt_stdio_output@@@2@@__crt_stdio_output@@AAE_NXZ 1005da10 f i libucrtd:output.obj
 0001:0005ca30       ?type_case_Z@?$output_processor@DV?$stream_output_adapter@D@__crt_stdio_output@@V?$format_validation_base@DV?$stream_output_adapter@D@__crt_stdio_output@@@2@@__crt_stdio_output@@AAE_NXZ 1005da30 f i libucrtd:output.obj
 0001:0005cb20       ?type_case_Z@?$output_processor@DV?$stream_output_adapter@D@__crt_stdio_output@@V?$positional_parameter_base@DV?$stream_output_adapter@D@__crt_stdio_output@@@2@@__crt_stdio_output@@AAE_NXZ 1005db20 f i libucrtd:output.obj
 0001:0005cc10       ?type_case_Z@?$output_processor@DV?$stream_output_adapter@D@__crt_stdio_output@@V?$standard_base@DV?$stream_output_adapter@D@__crt_stdio_output@@@2@@__crt_stdio_output@@AAE_NXZ 1005dc10 f i libucrtd:output.obj
 0001:0005cd00       ?type_case_Z@?$output_processor@DV?$string_output_adapter@D@__crt_stdio_output@@V?$format_validation_base@DV?$string_output_adapter@D@__crt_stdio_output@@@2@@__crt_stdio_output@@AAE_NXZ 1005dd00 f i libucrtd:output.obj
 0001:0005cdf0       ?type_case_Z@?$output_processor@DV?$string_output_adapter@D@__crt_stdio_output@@V?$positional_parameter_base@DV?$string_output_adapter@D@__crt_stdio_output@@@2@@__crt_stdio_output@@AAE_NXZ 1005ddf0 f i libucrtd:output.obj
 0001:0005cee0       ?type_case_Z@?$output_processor@DV?$string_output_adapter@D@__crt_stdio_output@@V?$standard_base@DV?$string_output_adapter@D@__crt_stdio_output@@@2@@__crt_stdio_output@@AAE_NXZ 1005dee0 f i libucrtd:output.obj
 0001:0005cfd0       ?type_case_Z@?$output_processor@_WV?$stream_output_adapter@_W@__crt_stdio_output@@V?$format_validation_base@_WV?$stream_output_adapter@_W@__crt_stdio_output@@@2@@__crt_stdio_output@@AAE_NXZ 1005dfd0 f i libucrtd:output.obj
 0001:0005d0c0       ?type_case_Z@?$output_processor@_WV?$stream_output_adapter@_W@__crt_stdio_output@@V?$positional_parameter_base@_WV?$stream_output_adapter@_W@__crt_stdio_output@@@2@@__crt_stdio_output@@AAE_NXZ 1005e0c0 f i libucrtd:output.obj
 0001:0005d1b0       ?type_case_Z@?$output_processor@_WV?$stream_output_adapter@_W@__crt_stdio_output@@V?$standard_base@_WV?$stream_output_adapter@_W@__crt_stdio_output@@@2@@__crt_stdio_output@@AAE_NXZ 1005e1b0 f i libucrtd:output.obj
 0001:0005d2a0       ?type_case_Z@?$output_processor@_WV?$string_output_adapter@_W@__crt_stdio_output@@V?$format_validation_base@_WV?$string_output_adapter@_W@__crt_stdio_output@@@2@@__crt_stdio_output@@AAE_NXZ 1005e2a0 f i libucrtd:output.obj
 0001:0005d390       ?type_case_Z@?$output_processor@_WV?$string_output_adapter@_W@__crt_stdio_output@@V?$positional_parameter_base@_WV?$string_output_adapter@_W@__crt_stdio_output@@@2@@__crt_stdio_output@@AAE_NXZ 1005e390 f i libucrtd:output.obj
 0001:0005d480       ?type_case_Z@?$output_processor@_WV?$string_output_adapter@_W@__crt_stdio_output@@V?$standard_base@_WV?$string_output_adapter@_W@__crt_stdio_output@@@2@@__crt_stdio_output@@AAE_NXZ 1005e480 f i libucrtd:output.obj
 0001:0005d570       ?type_case_a@?$output_processor@DV?$stream_output_adapter@D@__crt_stdio_output@@V?$format_validation_base@DV?$stream_output_adapter@D@__crt_stdio_output@@@2@@__crt_stdio_output@@AAE_NXZ 1005e570 f i libucrtd:output.obj
 0001:0005d7e0       ?type_case_a@?$output_processor@DV?$stream_output_adapter@D@__crt_stdio_output@@V?$positional_parameter_base@DV?$stream_output_adapter@D@__crt_stdio_output@@@2@@__crt_stdio_output@@AAE_NXZ 1005e7e0 f i libucrtd:output.obj
 0001:0005da50       ?type_case_a@?$output_processor@DV?$stream_output_adapter@D@__crt_stdio_output@@V?$standard_base@DV?$stream_output_adapter@D@__crt_stdio_output@@@2@@__crt_stdio_output@@AAE_NXZ 1005ea50 f i libucrtd:output.obj
 0001:0005dcc0       ?type_case_a@?$output_processor@DV?$string_output_adapter@D@__crt_stdio_output@@V?$format_validation_base@DV?$string_output_adapter@D@__crt_stdio_output@@@2@@__crt_stdio_output@@AAE_NXZ 1005ecc0 f i libucrtd:output.obj
 0001:0005df30       ?type_case_a@?$output_processor@DV?$string_output_adapter@D@__crt_stdio_output@@V?$positional_parameter_base@DV?$string_output_adapter@D@__crt_stdio_output@@@2@@__crt_stdio_output@@AAE_NXZ 1005ef30 f i libucrtd:output.obj
 0001:0005e1a0       ?type_case_a@?$output_processor@DV?$string_output_adapter@D@__crt_stdio_output@@V?$standard_base@DV?$string_output_adapter@D@__crt_stdio_output@@@2@@__crt_stdio_output@@AAE_NXZ 1005f1a0 f i libucrtd:output.obj
 0001:0005e410       ?type_case_a@?$output_processor@_WV?$stream_output_adapter@_W@__crt_stdio_output@@V?$format_validation_base@_WV?$stream_output_adapter@_W@__crt_stdio_output@@@2@@__crt_stdio_output@@AAE_NXZ 1005f410 f i libucrtd:output.obj
 0001:0005e680       ?type_case_a@?$output_processor@_WV?$stream_output_adapter@_W@__crt_stdio_output@@V?$positional_parameter_base@_WV?$stream_output_adapter@_W@__crt_stdio_output@@@2@@__crt_stdio_output@@AAE_NXZ 1005f680 f i libucrtd:output.obj
 0001:0005e8f0       ?type_case_a@?$output_processor@_WV?$stream_output_adapter@_W@__crt_stdio_output@@V?$standard_base@_WV?$stream_output_adapter@_W@__crt_stdio_output@@@2@@__crt_stdio_output@@AAE_NXZ 1005f8f0 f i libucrtd:output.obj
 0001:0005eb60       ?type_case_a@?$output_processor@_WV?$string_output_adapter@_W@__crt_stdio_output@@V?$format_validation_base@_WV?$string_output_adapter@_W@__crt_stdio_output@@@2@@__crt_stdio_output@@AAE_NXZ 1005fb60 f i libucrtd:output.obj
 0001:0005edd0       ?type_case_a@?$output_processor@_WV?$string_output_adapter@_W@__crt_stdio_output@@V?$positional_parameter_base@_WV?$string_output_adapter@_W@__crt_stdio_output@@@2@@__crt_stdio_output@@AAE_NXZ 1005fdd0 f i libucrtd:output.obj
 0001:0005f040       ?type_case_a@?$output_processor@_WV?$string_output_adapter@_W@__crt_stdio_output@@V?$standard_base@_WV?$string_output_adapter@_W@__crt_stdio_output@@@2@@__crt_stdio_output@@AAE_NXZ 10060040 f i libucrtd:output.obj
 0001:0005f2b0       ?type_case_c@?$output_processor@DV?$stream_output_adapter@D@__crt_stdio_output@@V?$format_validation_base@DV?$stream_output_adapter@D@__crt_stdio_output@@@2@@__crt_stdio_output@@AAE_NXZ 100602b0 f i libucrtd:output.obj
 0001:0005f2d0       ?type_case_c@?$output_processor@DV?$stream_output_adapter@D@__crt_stdio_output@@V?$positional_parameter_base@DV?$stream_output_adapter@D@__crt_stdio_output@@@2@@__crt_stdio_output@@AAE_NXZ 100602d0 f i libucrtd:output.obj
 0001:0005f2f0       ?type_case_c@?$output_processor@DV?$stream_output_adapter@D@__crt_stdio_output@@V?$standard_base@DV?$stream_output_adapter@D@__crt_stdio_output@@@2@@__crt_stdio_output@@AAE_NXZ 100602f0 f i libucrtd:output.obj
 0001:0005f310       ?type_case_c@?$output_processor@DV?$string_output_adapter@D@__crt_stdio_output@@V?$format_validation_base@DV?$string_output_adapter@D@__crt_stdio_output@@@2@@__crt_stdio_output@@AAE_NXZ 10060310 f i libucrtd:output.obj
 0001:0005f330       ?type_case_c@?$output_processor@DV?$string_output_adapter@D@__crt_stdio_output@@V?$positional_parameter_base@DV?$string_output_adapter@D@__crt_stdio_output@@@2@@__crt_stdio_output@@AAE_NXZ 10060330 f i libucrtd:output.obj
 0001:0005f350       ?type_case_c@?$output_processor@DV?$string_output_adapter@D@__crt_stdio_output@@V?$standard_base@DV?$string_output_adapter@D@__crt_stdio_output@@@2@@__crt_stdio_output@@AAE_NXZ 10060350 f i libucrtd:output.obj
 0001:0005f370       ?type_case_c@?$output_processor@_WV?$stream_output_adapter@_W@__crt_stdio_output@@V?$format_validation_base@_WV?$stream_output_adapter@_W@__crt_stdio_output@@@2@@__crt_stdio_output@@AAE_NXZ 10060370 f i libucrtd:output.obj
 0001:0005f390       ?type_case_c@?$output_processor@_WV?$stream_output_adapter@_W@__crt_stdio_output@@V?$positional_parameter_base@_WV?$stream_output_adapter@_W@__crt_stdio_output@@@2@@__crt_stdio_output@@AAE_NXZ 10060390 f i libucrtd:output.obj
 0001:0005f3b0       ?type_case_c@?$output_processor@_WV?$stream_output_adapter@_W@__crt_stdio_output@@V?$standard_base@_WV?$stream_output_adapter@_W@__crt_stdio_output@@@2@@__crt_stdio_output@@AAE_NXZ 100603b0 f i libucrtd:output.obj
 0001:0005f3d0       ?type_case_c@?$output_processor@_WV?$string_output_adapter@_W@__crt_stdio_output@@V?$format_validation_base@_WV?$string_output_adapter@_W@__crt_stdio_output@@@2@@__crt_stdio_output@@AAE_NXZ 100603d0 f i libucrtd:output.obj
 0001:0005f3f0       ?type_case_c@?$output_processor@_WV?$string_output_adapter@_W@__crt_stdio_output@@V?$positional_parameter_base@_WV?$string_output_adapter@_W@__crt_stdio_output@@@2@@__crt_stdio_output@@AAE_NXZ 100603f0 f i libucrtd:output.obj
 0001:0005f410       ?type_case_c@?$output_processor@_WV?$string_output_adapter@_W@__crt_stdio_output@@V?$standard_base@_WV?$string_output_adapter@_W@__crt_stdio_output@@@2@@__crt_stdio_output@@AAE_NXZ 10060410 f i libucrtd:output.obj
 0001:0005f430       ?type_case_c_tchar@?$output_processor@DV?$stream_output_adapter@D@__crt_stdio_output@@V?$format_validation_base@DV?$stream_output_adapter@D@__crt_stdio_output@@@2@@__crt_stdio_output@@AAE_ND@Z 10060430 f i libucrtd:output.obj
 0001:0005f540       ?type_case_c_tchar@?$output_processor@DV?$stream_output_adapter@D@__crt_stdio_output@@V?$positional_parameter_base@DV?$stream_output_adapter@D@__crt_stdio_output@@@2@@__crt_stdio_output@@AAE_ND@Z 10060540 f i libucrtd:output.obj
 0001:0005f650       ?type_case_c_tchar@?$output_processor@DV?$stream_output_adapter@D@__crt_stdio_output@@V?$standard_base@DV?$stream_output_adapter@D@__crt_stdio_output@@@2@@__crt_stdio_output@@AAE_ND@Z 10060650 f i libucrtd:output.obj
 0001:0005f760       ?type_case_c_tchar@?$output_processor@DV?$string_output_adapter@D@__crt_stdio_output@@V?$format_validation_base@DV?$string_output_adapter@D@__crt_stdio_output@@@2@@__crt_stdio_output@@AAE_ND@Z 10060760 f i libucrtd:output.obj
 0001:0005f870       ?type_case_c_tchar@?$output_processor@DV?$string_output_adapter@D@__crt_stdio_output@@V?$positional_parameter_base@DV?$string_output_adapter@D@__crt_stdio_output@@@2@@__crt_stdio_output@@AAE_ND@Z 10060870 f i libucrtd:output.obj
 0001:0005f980       ?type_case_c_tchar@?$output_processor@DV?$string_output_adapter@D@__crt_stdio_output@@V?$standard_base@DV?$string_output_adapter@D@__crt_stdio_output@@@2@@__crt_stdio_output@@AAE_ND@Z 10060980 f i libucrtd:output.obj
 0001:0005fa90       ?type_case_c_tchar@?$output_processor@_WV?$stream_output_adapter@_W@__crt_stdio_output@@V?$format_validation_base@_WV?$stream_output_adapter@_W@__crt_stdio_output@@@2@@__crt_stdio_output@@AAE_N_W@Z 10060a90 f i libucrtd:output.obj
 0001:0005fb90       ?type_case_c_tchar@?$output_processor@_WV?$stream_output_adapter@_W@__crt_stdio_output@@V?$positional_parameter_base@_WV?$stream_output_adapter@_W@__crt_stdio_output@@@2@@__crt_stdio_output@@AAE_N_W@Z 10060b90 f i libucrtd:output.obj
 0001:0005fc90       ?type_case_c_tchar@?$output_processor@_WV?$stream_output_adapter@_W@__crt_stdio_output@@V?$standard_base@_WV?$stream_output_adapter@_W@__crt_stdio_output@@@2@@__crt_stdio_output@@AAE_N_W@Z 10060c90 f i libucrtd:output.obj
 0001:0005fd90       ?type_case_c_tchar@?$output_processor@_WV?$string_output_adapter@_W@__crt_stdio_output@@V?$format_validation_base@_WV?$string_output_adapter@_W@__crt_stdio_output@@@2@@__crt_stdio_output@@AAE_N_W@Z 10060d90 f i libucrtd:output.obj
 0001:0005fe90       ?type_case_c_tchar@?$output_processor@_WV?$string_output_adapter@_W@__crt_stdio_output@@V?$positional_parameter_base@_WV?$string_output_adapter@_W@__crt_stdio_output@@@2@@__crt_stdio_output@@AAE_N_W@Z 10060e90 f i libucrtd:output.obj
 0001:0005ff90       ?type_case_c_tchar@?$output_processor@_WV?$string_output_adapter@_W@__crt_stdio_output@@V?$standard_base@_WV?$string_output_adapter@_W@__crt_stdio_output@@@2@@__crt_stdio_output@@AAE_N_W@Z 10060f90 f i libucrtd:output.obj
 0001:00060090       ?type_case_d@?$output_processor@DV?$stream_output_adapter@D@__crt_stdio_output@@V?$format_validation_base@DV?$stream_output_adapter@D@__crt_stdio_output@@@2@@__crt_stdio_output@@AAE_NXZ 10061090 f i libucrtd:output.obj
 0001:000600c0       ?type_case_d@?$output_processor@DV?$stream_output_adapter@D@__crt_stdio_output@@V?$positional_parameter_base@DV?$stream_output_adapter@D@__crt_stdio_output@@@2@@__crt_stdio_output@@AAE_NXZ 100610c0 f i libucrtd:output.obj
 0001:000600f0       ?type_case_d@?$output_processor@DV?$stream_output_adapter@D@__crt_stdio_output@@V?$standard_base@DV?$stream_output_adapter@D@__crt_stdio_output@@@2@@__crt_stdio_output@@AAE_NXZ 100610f0 f i libucrtd:output.obj
 0001:00060120       ?type_case_d@?$output_processor@DV?$string_output_adapter@D@__crt_stdio_output@@V?$format_validation_base@DV?$string_output_adapter@D@__crt_stdio_output@@@2@@__crt_stdio_output@@AAE_NXZ 10061120 f i libucrtd:output.obj
 0001:00060150       ?type_case_d@?$output_processor@DV?$string_output_adapter@D@__crt_stdio_output@@V?$positional_parameter_base@DV?$string_output_adapter@D@__crt_stdio_output@@@2@@__crt_stdio_output@@AAE_NXZ 10061150 f i libucrtd:output.obj
 0001:00060180       ?type_case_d@?$output_processor@DV?$string_output_adapter@D@__crt_stdio_output@@V?$standard_base@DV?$string_output_adapter@D@__crt_stdio_output@@@2@@__crt_stdio_output@@AAE_NXZ 10061180 f i libucrtd:output.obj
 0001:000601b0       ?type_case_d@?$output_processor@_WV?$stream_output_adapter@_W@__crt_stdio_output@@V?$format_validation_base@_WV?$stream_output_adapter@_W@__crt_stdio_output@@@2@@__crt_stdio_output@@AAE_NXZ 100611b0 f i libucrtd:output.obj
 0001:000601e0       ?type_case_d@?$output_processor@_WV?$stream_output_adapter@_W@__crt_stdio_output@@V?$positional_parameter_base@_WV?$stream_output_adapter@_W@__crt_stdio_output@@@2@@__crt_stdio_output@@AAE_NXZ 100611e0 f i libucrtd:output.obj
 0001:00060210       ?type_case_d@?$output_processor@_WV?$stream_output_adapter@_W@__crt_stdio_output@@V?$standard_base@_WV?$stream_output_adapter@_W@__crt_stdio_output@@@2@@__crt_stdio_output@@AAE_NXZ 10061210 f i libucrtd:output.obj
 0001:00060240       ?type_case_d@?$output_processor@_WV?$string_output_adapter@_W@__crt_stdio_output@@V?$format_validation_base@_WV?$string_output_adapter@_W@__crt_stdio_output@@@2@@__crt_stdio_output@@AAE_NXZ 10061240 f i libucrtd:output.obj
 0001:00060270       ?type_case_d@?$output_processor@_WV?$string_output_adapter@_W@__crt_stdio_output@@V?$positional_parameter_base@_WV?$string_output_adapter@_W@__crt_stdio_output@@@2@@__crt_stdio_output@@AAE_NXZ 10061270 f i libucrtd:output.obj
 0001:000602a0       ?type_case_d@?$output_processor@_WV?$string_output_adapter@_W@__crt_stdio_output@@V?$standard_base@_WV?$string_output_adapter@_W@__crt_stdio_output@@@2@@__crt_stdio_output@@AAE_NXZ 100612a0 f i libucrtd:output.obj
 0001:000602d0       ?type_case_integer@?$output_processor@DV?$stream_output_adapter@D@__crt_stdio_output@@V?$format_validation_base@DV?$stream_output_adapter@D@__crt_stdio_output@@@2@@__crt_stdio_output@@AAE_NI_N@Z 100612d0 f i libucrtd:output.obj
 0001:00060620       ?type_case_integer@?$output_processor@DV?$stream_output_adapter@D@__crt_stdio_output@@V?$positional_parameter_base@DV?$stream_output_adapter@D@__crt_stdio_output@@@2@@__crt_stdio_output@@AAE_NI_N@Z 10061620 f i libucrtd:output.obj
 0001:00060970       ?type_case_integer@?$output_processor@DV?$stream_output_adapter@D@__crt_stdio_output@@V?$standard_base@DV?$stream_output_adapter@D@__crt_stdio_output@@@2@@__crt_stdio_output@@AAE_NI_N@Z 10061970 f i libucrtd:output.obj
 0001:00060cc0       ?type_case_integer@?$output_processor@DV?$string_output_adapter@D@__crt_stdio_output@@V?$format_validation_base@DV?$string_output_adapter@D@__crt_stdio_output@@@2@@__crt_stdio_output@@AAE_NI_N@Z 10061cc0 f i libucrtd:output.obj
 0001:00061010       ?type_case_integer@?$output_processor@DV?$string_output_adapter@D@__crt_stdio_output@@V?$positional_parameter_base@DV?$string_output_adapter@D@__crt_stdio_output@@@2@@__crt_stdio_output@@AAE_NI_N@Z 10062010 f i libucrtd:output.obj
 0001:00061360       ?type_case_integer@?$output_processor@DV?$string_output_adapter@D@__crt_stdio_output@@V?$standard_base@DV?$string_output_adapter@D@__crt_stdio_output@@@2@@__crt_stdio_output@@AAE_NI_N@Z 10062360 f i libucrtd:output.obj
 0001:000616b0       ?type_case_integer@?$output_processor@_WV?$stream_output_adapter@_W@__crt_stdio_output@@V?$format_validation_base@_WV?$stream_output_adapter@_W@__crt_stdio_output@@@2@@__crt_stdio_output@@AAE_NI_N@Z 100626b0 f i libucrtd:output.obj
 0001:00061a00       ?type_case_integer@?$output_processor@_WV?$stream_output_adapter@_W@__crt_stdio_output@@V?$positional_parameter_base@_WV?$stream_output_adapter@_W@__crt_stdio_output@@@2@@__crt_stdio_output@@AAE_NI_N@Z 10062a00 f i libucrtd:output.obj
 0001:00061d50       ?type_case_integer@?$output_processor@_WV?$stream_output_adapter@_W@__crt_stdio_output@@V?$standard_base@_WV?$stream_output_adapter@_W@__crt_stdio_output@@@2@@__crt_stdio_output@@AAE_NI_N@Z 10062d50 f i libucrtd:output.obj
 0001:000620a0       ?type_case_integer@?$output_processor@_WV?$string_output_adapter@_W@__crt_stdio_output@@V?$format_validation_base@_WV?$string_output_adapter@_W@__crt_stdio_output@@@2@@__crt_stdio_output@@AAE_NI_N@Z 100630a0 f i libucrtd:output.obj
 0001:000623f0       ?type_case_integer@?$output_processor@_WV?$string_output_adapter@_W@__crt_stdio_output@@V?$positional_parameter_base@_WV?$string_output_adapter@_W@__crt_stdio_output@@@2@@__crt_stdio_output@@AAE_NI_N@Z 100633f0 f i libucrtd:output.obj
 0001:00062740       ?type_case_integer@?$output_processor@_WV?$string_output_adapter@_W@__crt_stdio_output@@V?$standard_base@_WV?$string_output_adapter@_W@__crt_stdio_output@@@2@@__crt_stdio_output@@AAE_NI_N@Z 10063740 f i libucrtd:output.obj
 0001:00062a90       ?type_case_n@?$output_processor@DV?$stream_output_adapter@D@__crt_stdio_output@@V?$format_validation_base@DV?$stream_output_adapter@D@__crt_stdio_output@@@2@@__crt_stdio_output@@AAE_NXZ 10063a90 f i libucrtd:output.obj
 0001:00062c80       ?type_case_n@?$output_processor@DV?$stream_output_adapter@D@__crt_stdio_output@@V?$positional_parameter_base@DV?$stream_output_adapter@D@__crt_stdio_output@@@2@@__crt_stdio_output@@AAE_NXZ 10063c80 f i libucrtd:output.obj
 0001:00062e70       ?type_case_n@?$output_processor@DV?$stream_output_adapter@D@__crt_stdio_output@@V?$standard_base@DV?$stream_output_adapter@D@__crt_stdio_output@@@2@@__crt_stdio_output@@AAE_NXZ 10063e70 f i libucrtd:output.obj
 0001:00063060       ?type_case_n@?$output_processor@DV?$string_output_adapter@D@__crt_stdio_output@@V?$format_validation_base@DV?$string_output_adapter@D@__crt_stdio_output@@@2@@__crt_stdio_output@@AAE_NXZ 10064060 f i libucrtd:output.obj
 0001:00063250       ?type_case_n@?$output_processor@DV?$string_output_adapter@D@__crt_stdio_output@@V?$positional_parameter_base@DV?$string_output_adapter@D@__crt_stdio_output@@@2@@__crt_stdio_output@@AAE_NXZ 10064250 f i libucrtd:output.obj
 0001:00063440       ?type_case_n@?$output_processor@DV?$string_output_adapter@D@__crt_stdio_output@@V?$standard_base@DV?$string_output_adapter@D@__crt_stdio_output@@@2@@__crt_stdio_output@@AAE_NXZ 10064440 f i libucrtd:output.obj
 0001:00063630       ?type_case_n@?$output_processor@_WV?$stream_output_adapter@_W@__crt_stdio_output@@V?$format_validation_base@_WV?$stream_output_adapter@_W@__crt_stdio_output@@@2@@__crt_stdio_output@@AAE_NXZ 10064630 f i libucrtd:output.obj
 0001:00063820       ?type_case_n@?$output_processor@_WV?$stream_output_adapter@_W@__crt_stdio_output@@V?$positional_parameter_base@_WV?$stream_output_adapter@_W@__crt_stdio_output@@@2@@__crt_stdio_output@@AAE_NXZ 10064820 f i libucrtd:output.obj
 0001:00063a10       ?type_case_n@?$output_processor@_WV?$stream_output_adapter@_W@__crt_stdio_output@@V?$standard_base@_WV?$stream_output_adapter@_W@__crt_stdio_output@@@2@@__crt_stdio_output@@AAE_NXZ 10064a10 f i libucrtd:output.obj
 0001:00063c00       ?type_case_n@?$output_processor@_WV?$string_output_adapter@_W@__crt_stdio_output@@V?$format_validation_base@_WV?$string_output_adapter@_W@__crt_stdio_output@@@2@@__crt_stdio_output@@AAE_NXZ 10064c00 f i libucrtd:output.obj
 0001:00063df0       ?type_case_n@?$output_processor@_WV?$string_output_adapter@_W@__crt_stdio_output@@V?$positional_parameter_base@_WV?$string_output_adapter@_W@__crt_stdio_output@@@2@@__crt_stdio_output@@AAE_NXZ 10064df0 f i libucrtd:output.obj
 0001:00063fe0       ?type_case_n@?$output_processor@_WV?$string_output_adapter@_W@__crt_stdio_output@@V?$standard_base@_WV?$string_output_adapter@_W@__crt_stdio_output@@@2@@__crt_stdio_output@@AAE_NXZ 10064fe0 f i libucrtd:output.obj
 0001:000641d0       ?type_case_o@?$output_processor@DV?$stream_output_adapter@D@__crt_stdio_output@@V?$format_validation_base@DV?$stream_output_adapter@D@__crt_stdio_output@@@2@@__crt_stdio_output@@AAE_NXZ 100651d0 f i libucrtd:output.obj
 0001:00064210       ?type_case_o@?$output_processor@DV?$stream_output_adapter@D@__crt_stdio_output@@V?$positional_parameter_base@DV?$stream_output_adapter@D@__crt_stdio_output@@@2@@__crt_stdio_output@@AAE_NXZ 10065210 f i libucrtd:output.obj
 0001:00064250       ?type_case_o@?$output_processor@DV?$stream_output_adapter@D@__crt_stdio_output@@V?$standard_base@DV?$stream_output_adapter@D@__crt_stdio_output@@@2@@__crt_stdio_output@@AAE_NXZ 10065250 f i libucrtd:output.obj
 0001:00064290       ?type_case_o@?$output_processor@DV?$string_output_adapter@D@__crt_stdio_output@@V?$format_validation_base@DV?$string_output_adapter@D@__crt_stdio_output@@@2@@__crt_stdio_output@@AAE_NXZ 10065290 f i libucrtd:output.obj
 0001:000642d0       ?type_case_o@?$output_processor@DV?$string_output_adapter@D@__crt_stdio_output@@V?$positional_parameter_base@DV?$string_output_adapter@D@__crt_stdio_output@@@2@@__crt_stdio_output@@AAE_NXZ 100652d0 f i libucrtd:output.obj
 0001:00064310       ?type_case_o@?$output_processor@DV?$string_output_adapter@D@__crt_stdio_output@@V?$standard_base@DV?$string_output_adapter@D@__crt_stdio_output@@@2@@__crt_stdio_output@@AAE_NXZ 10065310 f i libucrtd:output.obj
 0001:00064350       ?type_case_o@?$output_processor@_WV?$stream_output_adapter@_W@__crt_stdio_output@@V?$format_validation_base@_WV?$stream_output_adapter@_W@__crt_stdio_output@@@2@@__crt_stdio_output@@AAE_NXZ 10065350 f i libucrtd:output.obj
 0001:00064390       ?type_case_o@?$output_processor@_WV?$stream_output_adapter@_W@__crt_stdio_output@@V?$positional_parameter_base@_WV?$stream_output_adapter@_W@__crt_stdio_output@@@2@@__crt_stdio_output@@AAE_NXZ 10065390 f i libucrtd:output.obj
 0001:000643d0       ?type_case_o@?$output_processor@_WV?$stream_output_adapter@_W@__crt_stdio_output@@V?$standard_base@_WV?$stream_output_adapter@_W@__crt_stdio_output@@@2@@__crt_stdio_output@@AAE_NXZ 100653d0 f i libucrtd:output.obj
 0001:00064410       ?type_case_o@?$output_processor@_WV?$string_output_adapter@_W@__crt_stdio_output@@V?$format_validation_base@_WV?$string_output_adapter@_W@__crt_stdio_output@@@2@@__crt_stdio_output@@AAE_NXZ 10065410 f i libucrtd:output.obj
 0001:00064450       ?type_case_o@?$output_processor@_WV?$string_output_adapter@_W@__crt_stdio_output@@V?$positional_parameter_base@_WV?$string_output_adapter@_W@__crt_stdio_output@@@2@@__crt_stdio_output@@AAE_NXZ 10065450 f i libucrtd:output.obj
 0001:00064490       ?type_case_o@?$output_processor@_WV?$string_output_adapter@_W@__crt_stdio_output@@V?$standard_base@_WV?$string_output_adapter@_W@__crt_stdio_output@@@2@@__crt_stdio_output@@AAE_NXZ 10065490 f i libucrtd:output.obj
 0001:000644d0       ?type_case_p@?$output_processor@DV?$stream_output_adapter@D@__crt_stdio_output@@V?$format_validation_base@DV?$stream_output_adapter@D@__crt_stdio_output@@@2@@__crt_stdio_output@@AAE_NXZ 100654d0 f i libucrtd:output.obj
 0001:00064500       ?type_case_p@?$output_processor@DV?$stream_output_adapter@D@__crt_stdio_output@@V?$positional_parameter_base@DV?$stream_output_adapter@D@__crt_stdio_output@@@2@@__crt_stdio_output@@AAE_NXZ 10065500 f i libucrtd:output.obj
 0001:00064530       ?type_case_p@?$output_processor@DV?$stream_output_adapter@D@__crt_stdio_output@@V?$standard_base@DV?$stream_output_adapter@D@__crt_stdio_output@@@2@@__crt_stdio_output@@AAE_NXZ 10065530 f i libucrtd:output.obj
 0001:00064560       ?type_case_p@?$output_processor@DV?$string_output_adapter@D@__crt_stdio_output@@V?$format_validation_base@DV?$string_output_adapter@D@__crt_stdio_output@@@2@@__crt_stdio_output@@AAE_NXZ 10065560 f i libucrtd:output.obj
 0001:00064590       ?type_case_p@?$output_processor@DV?$string_output_adapter@D@__crt_stdio_output@@V?$positional_parameter_base@DV?$string_output_adapter@D@__crt_stdio_output@@@2@@__crt_stdio_output@@AAE_NXZ 10065590 f i libucrtd:output.obj
 0001:000645c0       ?type_case_p@?$output_processor@DV?$string_output_adapter@D@__crt_stdio_output@@V?$standard_base@DV?$string_output_adapter@D@__crt_stdio_output@@@2@@__crt_stdio_output@@AAE_NXZ 100655c0 f i libucrtd:output.obj
 0001:000645f0       ?type_case_p@?$output_processor@_WV?$stream_output_adapter@_W@__crt_stdio_output@@V?$format_validation_base@_WV?$stream_output_adapter@_W@__crt_stdio_output@@@2@@__crt_stdio_output@@AAE_NXZ 100655f0 f i libucrtd:output.obj
 0001:00064620       ?type_case_p@?$output_processor@_WV?$stream_output_adapter@_W@__crt_stdio_output@@V?$positional_parameter_base@_WV?$stream_output_adapter@_W@__crt_stdio_output@@@2@@__crt_stdio_output@@AAE_NXZ 10065620 f i libucrtd:output.obj
 0001:00064650       ?type_case_p@?$output_processor@_WV?$stream_output_adapter@_W@__crt_stdio_output@@V?$standard_base@_WV?$stream_output_adapter@_W@__crt_stdio_output@@@2@@__crt_stdio_output@@AAE_NXZ 10065650 f i libucrtd:output.obj
 0001:00064680       ?type_case_p@?$output_processor@_WV?$string_output_adapter@_W@__crt_stdio_output@@V?$format_validation_base@_WV?$string_output_adapter@_W@__crt_stdio_output@@@2@@__crt_stdio_output@@AAE_NXZ 10065680 f i libucrtd:output.obj
 0001:000646b0       ?type_case_p@?$output_processor@_WV?$string_output_adapter@_W@__crt_stdio_output@@V?$positional_parameter_base@_WV?$string_output_adapter@_W@__crt_stdio_output@@@2@@__crt_stdio_output@@AAE_NXZ 100656b0 f i libucrtd:output.obj
 0001:000646e0       ?type_case_p@?$output_processor@_WV?$string_output_adapter@_W@__crt_stdio_output@@V?$standard_base@_WV?$string_output_adapter@_W@__crt_stdio_output@@@2@@__crt_stdio_output@@AAE_NXZ 100656e0 f i libucrtd:output.obj
 0001:00064710       ?type_case_s@?$output_processor@DV?$stream_output_adapter@D@__crt_stdio_output@@V?$format_validation_base@DV?$stream_output_adapter@D@__crt_stdio_output@@@2@@__crt_stdio_output@@AAE_NXZ 10065710 f i libucrtd:output.obj
 0001:00064800       ?type_case_s@?$output_processor@DV?$stream_output_adapter@D@__crt_stdio_output@@V?$positional_parameter_base@DV?$stream_output_adapter@D@__crt_stdio_output@@@2@@__crt_stdio_output@@AAE_NXZ 10065800 f i libucrtd:output.obj
 0001:000648f0       ?type_case_s@?$output_processor@DV?$stream_output_adapter@D@__crt_stdio_output@@V?$standard_base@DV?$stream_output_adapter@D@__crt_stdio_output@@@2@@__crt_stdio_output@@AAE_NXZ 100658f0 f i libucrtd:output.obj
 0001:000649e0       ?type_case_s@?$output_processor@DV?$string_output_adapter@D@__crt_stdio_output@@V?$format_validation_base@DV?$string_output_adapter@D@__crt_stdio_output@@@2@@__crt_stdio_output@@AAE_NXZ 100659e0 f i libucrtd:output.obj
 0001:00064ad0       ?type_case_s@?$output_processor@DV?$string_output_adapter@D@__crt_stdio_output@@V?$positional_parameter_base@DV?$string_output_adapter@D@__crt_stdio_output@@@2@@__crt_stdio_output@@AAE_NXZ 10065ad0 f i libucrtd:output.obj
 0001:00064bc0       ?type_case_s@?$output_processor@DV?$string_output_adapter@D@__crt_stdio_output@@V?$standard_base@DV?$string_output_adapter@D@__crt_stdio_output@@@2@@__crt_stdio_output@@AAE_NXZ 10065bc0 f i libucrtd:output.obj
 0001:00064cb0       ?type_case_s@?$output_processor@_WV?$stream_output_adapter@_W@__crt_stdio_output@@V?$format_validation_base@_WV?$stream_output_adapter@_W@__crt_stdio_output@@@2@@__crt_stdio_output@@AAE_NXZ 10065cb0 f i libucrtd:output.obj
 0001:00064da0       ?type_case_s@?$output_processor@_WV?$stream_output_adapter@_W@__crt_stdio_output@@V?$positional_parameter_base@_WV?$stream_output_adapter@_W@__crt_stdio_output@@@2@@__crt_stdio_output@@AAE_NXZ 10065da0 f i libucrtd:output.obj
 0001:00064e90       ?type_case_s@?$output_processor@_WV?$stream_output_adapter@_W@__crt_stdio_output@@V?$standard_base@_WV?$stream_output_adapter@_W@__crt_stdio_output@@@2@@__crt_stdio_output@@AAE_NXZ 10065e90 f i libucrtd:output.obj
 0001:00064f80       ?type_case_s@?$output_processor@_WV?$string_output_adapter@_W@__crt_stdio_output@@V?$format_validation_base@_WV?$string_output_adapter@_W@__crt_stdio_output@@@2@@__crt_stdio_output@@AAE_NXZ 10065f80 f i libucrtd:output.obj
 0001:00065070       ?type_case_s@?$output_processor@_WV?$string_output_adapter@_W@__crt_stdio_output@@V?$positional_parameter_base@_WV?$string_output_adapter@_W@__crt_stdio_output@@@2@@__crt_stdio_output@@AAE_NXZ 10066070 f i libucrtd:output.obj
 0001:00065160       ?type_case_s@?$output_processor@_WV?$string_output_adapter@_W@__crt_stdio_output@@V?$standard_base@_WV?$string_output_adapter@_W@__crt_stdio_output@@@2@@__crt_stdio_output@@AAE_NXZ 10066160 f i libucrtd:output.obj
 0001:00065250       ?type_case_s_compute_narrow_string_length@?$output_processor@DV?$stream_output_adapter@D@__crt_stdio_output@@V?$format_validation_base@DV?$stream_output_adapter@D@__crt_stdio_output@@@2@@__crt_stdio_output@@ABEHHD@Z 10066250 f i libucrtd:output.obj
 0001:00065280       ?type_case_s_compute_narrow_string_length@?$output_processor@DV?$stream_output_adapter@D@__crt_stdio_output@@V?$positional_parameter_base@DV?$stream_output_adapter@D@__crt_stdio_output@@@2@@__crt_stdio_output@@ABEHHD@Z 10066280 f i libucrtd:output.obj
 0001:000652b0       ?type_case_s_compute_narrow_string_length@?$output_processor@DV?$stream_output_adapter@D@__crt_stdio_output@@V?$standard_base@DV?$stream_output_adapter@D@__crt_stdio_output@@@2@@__crt_stdio_output@@ABEHHD@Z 100662b0 f i libucrtd:output.obj
 0001:000652e0       ?type_case_s_compute_narrow_string_length@?$output_processor@DV?$string_output_adapter@D@__crt_stdio_output@@V?$format_validation_base@DV?$string_output_adapter@D@__crt_stdio_output@@@2@@__crt_stdio_output@@ABEHHD@Z 100662e0 f i libucrtd:output.obj
 0001:00065310       ?type_case_s_compute_narrow_string_length@?$output_processor@DV?$string_output_adapter@D@__crt_stdio_output@@V?$positional_parameter_base@DV?$string_output_adapter@D@__crt_stdio_output@@@2@@__crt_stdio_output@@ABEHHD@Z 10066310 f i libucrtd:output.obj
 0001:00065340       ?type_case_s_compute_narrow_string_length@?$output_processor@DV?$string_output_adapter@D@__crt_stdio_output@@V?$standard_base@DV?$string_output_adapter@D@__crt_stdio_output@@@2@@__crt_stdio_output@@ABEHHD@Z 10066340 f i libucrtd:output.obj
 0001:00065370       ?type_case_s_compute_narrow_string_length@?$output_processor@_WV?$stream_output_adapter@_W@__crt_stdio_output@@V?$format_validation_base@_WV?$stream_output_adapter@_W@__crt_stdio_output@@@2@@__crt_stdio_output@@ABEHH_W@Z 10066370 f i libucrtd:output.obj
 0001:000653e0       ?type_case_s_compute_narrow_string_length@?$output_processor@_WV?$stream_output_adapter@_W@__crt_stdio_output@@V?$positional_parameter_base@_WV?$stream_output_adapter@_W@__crt_stdio_output@@@2@@__crt_stdio_output@@ABEHH_W@Z 100663e0 f i libucrtd:output.obj
 0001:00065450       ?type_case_s_compute_narrow_string_length@?$output_processor@_WV?$stream_output_adapter@_W@__crt_stdio_output@@V?$standard_base@_WV?$stream_output_adapter@_W@__crt_stdio_output@@@2@@__crt_stdio_output@@ABEHH_W@Z 10066450 f i libucrtd:output.obj
 0001:000654c0       ?type_case_s_compute_narrow_string_length@?$output_processor@_WV?$string_output_adapter@_W@__crt_stdio_output@@V?$format_validation_base@_WV?$string_output_adapter@_W@__crt_stdio_output@@@2@@__crt_stdio_output@@ABEHH_W@Z 100664c0 f i libucrtd:output.obj
 0001:00065530       ?type_case_s_compute_narrow_string_length@?$output_processor@_WV?$string_output_adapter@_W@__crt_stdio_output@@V?$positional_parameter_base@_WV?$string_output_adapter@_W@__crt_stdio_output@@@2@@__crt_stdio_output@@ABEHH_W@Z 10066530 f i libucrtd:output.obj
 0001:000655a0       ?type_case_s_compute_narrow_string_length@?$output_processor@_WV?$string_output_adapter@_W@__crt_stdio_output@@V?$standard_base@_WV?$string_output_adapter@_W@__crt_stdio_output@@@2@@__crt_stdio_output@@ABEHH_W@Z 100665a0 f i libucrtd:output.obj
 0001:00065610       ?type_case_u@?$output_processor@DV?$stream_output_adapter@D@__crt_stdio_output@@V?$format_validation_base@DV?$stream_output_adapter@D@__crt_stdio_output@@@2@@__crt_stdio_output@@AAE_NXZ 10066610 f i libucrtd:output.obj
 0001:00065630       ?type_case_u@?$output_processor@DV?$stream_output_adapter@D@__crt_stdio_output@@V?$positional_parameter_base@DV?$stream_output_adapter@D@__crt_stdio_output@@@2@@__crt_stdio_output@@AAE_NXZ 10066630 f i libucrtd:output.obj
 0001:00065650       ?type_case_u@?$output_processor@DV?$stream_output_adapter@D@__crt_stdio_output@@V?$standard_base@DV?$stream_output_adapter@D@__crt_stdio_output@@@2@@__crt_stdio_output@@AAE_NXZ 10066650 f i libucrtd:output.obj
 0001:00065670       ?type_case_u@?$output_processor@DV?$string_output_adapter@D@__crt_stdio_output@@V?$format_validation_base@DV?$string_output_adapter@D@__crt_stdio_output@@@2@@__crt_stdio_output@@AAE_NXZ 10066670 f i libucrtd:output.obj
 0001:00065690       ?type_case_u@?$output_processor@DV?$string_output_adapter@D@__crt_stdio_output@@V?$positional_parameter_base@DV?$string_output_adapter@D@__crt_stdio_output@@@2@@__crt_stdio_output@@AAE_NXZ 10066690 f i libucrtd:output.obj
 0001:000656b0       ?type_case_u@?$output_processor@DV?$string_output_adapter@D@__crt_stdio_output@@V?$standard_base@DV?$string_output_adapter@D@__crt_stdio_output@@@2@@__crt_stdio_output@@AAE_NXZ 100666b0 f i libucrtd:output.obj
 0001:000656d0       ?type_case_u@?$output_processor@_WV?$stream_output_adapter@_W@__crt_stdio_output@@V?$format_validation_base@_WV?$stream_output_adapter@_W@__crt_stdio_output@@@2@@__crt_stdio_output@@AAE_NXZ 100666d0 f i libucrtd:output.obj
 0001:000656f0       ?type_case_u@?$output_processor@_WV?$stream_output_adapter@_W@__crt_stdio_output@@V?$positional_parameter_base@_WV?$stream_output_adapter@_W@__crt_stdio_output@@@2@@__crt_stdio_output@@AAE_NXZ 100666f0 f i libucrtd:output.obj
 0001:00065710       ?type_case_u@?$output_processor@_WV?$stream_output_adapter@_W@__crt_stdio_output@@V?$standard_base@_WV?$stream_output_adapter@_W@__crt_stdio_output@@@2@@__crt_stdio_output@@AAE_NXZ 10066710 f i libucrtd:output.obj
 0001:00065730       ?type_case_u@?$output_processor@_WV?$string_output_adapter@_W@__crt_stdio_output@@V?$format_validation_base@_WV?$string_output_adapter@_W@__crt_stdio_output@@@2@@__crt_stdio_output@@AAE_NXZ 10066730 f i libucrtd:output.obj
 0001:00065750       ?type_case_u@?$output_processor@_WV?$string_output_adapter@_W@__crt_stdio_output@@V?$positional_parameter_base@_WV?$string_output_adapter@_W@__crt_stdio_output@@@2@@__crt_stdio_output@@AAE_NXZ 10066750 f i libucrtd:output.obj
 0001:00065770       ?type_case_u@?$output_processor@_WV?$string_output_adapter@_W@__crt_stdio_output@@V?$standard_base@_WV?$string_output_adapter@_W@__crt_stdio_output@@@2@@__crt_stdio_output@@AAE_NXZ 10066770 f i libucrtd:output.obj
 0001:00065790       ?type_case_x@?$output_processor@DV?$stream_output_adapter@D@__crt_stdio_output@@V?$format_validation_base@DV?$stream_output_adapter@D@__crt_stdio_output@@@2@@__crt_stdio_output@@AAE_NXZ 10066790 f i libucrtd:output.obj
 0001:000657b0       ?type_case_x@?$output_processor@DV?$stream_output_adapter@D@__crt_stdio_output@@V?$positional_parameter_base@DV?$stream_output_adapter@D@__crt_stdio_output@@@2@@__crt_stdio_output@@AAE_NXZ 100667b0 f i libucrtd:output.obj
 0001:000657d0       ?type_case_x@?$output_processor@DV?$stream_output_adapter@D@__crt_stdio_output@@V?$standard_base@DV?$stream_output_adapter@D@__crt_stdio_output@@@2@@__crt_stdio_output@@AAE_NXZ 100667d0 f i libucrtd:output.obj
 0001:000657f0       ?type_case_x@?$output_processor@DV?$string_output_adapter@D@__crt_stdio_output@@V?$format_validation_base@DV?$string_output_adapter@D@__crt_stdio_output@@@2@@__crt_stdio_output@@AAE_NXZ 100667f0 f i libucrtd:output.obj
 0001:00065810       ?type_case_x@?$output_processor@DV?$string_output_adapter@D@__crt_stdio_output@@V?$positional_parameter_base@DV?$string_output_adapter@D@__crt_stdio_output@@@2@@__crt_stdio_output@@AAE_NXZ 10066810 f i libucrtd:output.obj
 0001:00065830       ?type_case_x@?$output_processor@DV?$string_output_adapter@D@__crt_stdio_output@@V?$standard_base@DV?$string_output_adapter@D@__crt_stdio_output@@@2@@__crt_stdio_output@@AAE_NXZ 10066830 f i libucrtd:output.obj
 0001:00065850       ?type_case_x@?$output_processor@_WV?$stream_output_adapter@_W@__crt_stdio_output@@V?$format_validation_base@_WV?$stream_output_adapter@_W@__crt_stdio_output@@@2@@__crt_stdio_output@@AAE_NXZ 10066850 f i libucrtd:output.obj
 0001:00065870       ?type_case_x@?$output_processor@_WV?$stream_output_adapter@_W@__crt_stdio_output@@V?$positional_parameter_base@_WV?$stream_output_adapter@_W@__crt_stdio_output@@@2@@__crt_stdio_output@@AAE_NXZ 10066870 f i libucrtd:output.obj
 0001:00065890       ?type_case_x@?$output_processor@_WV?$stream_output_adapter@_W@__crt_stdio_output@@V?$standard_base@_WV?$stream_output_adapter@_W@__crt_stdio_output@@@2@@__crt_stdio_output@@AAE_NXZ 10066890 f i libucrtd:output.obj
 0001:000658b0       ?type_case_x@?$output_processor@_WV?$string_output_adapter@_W@__crt_stdio_output@@V?$format_validation_base@_WV?$string_output_adapter@_W@__crt_stdio_output@@@2@@__crt_stdio_output@@AAE_NXZ 100668b0 f i libucrtd:output.obj
 0001:000658d0       ?type_case_x@?$output_processor@_WV?$string_output_adapter@_W@__crt_stdio_output@@V?$positional_parameter_base@_WV?$string_output_adapter@_W@__crt_stdio_output@@@2@@__crt_stdio_output@@AAE_NXZ 100668d0 f i libucrtd:output.obj
 0001:000658f0       ?type_case_x@?$output_processor@_WV?$string_output_adapter@_W@__crt_stdio_output@@V?$standard_base@_WV?$string_output_adapter@_W@__crt_stdio_output@@@2@@__crt_stdio_output@@AAE_NXZ 100668f0 f i libucrtd:output.obj
 0001:00065910       ?unset_flag@?$output_processor@DV?$stream_output_adapter@D@__crt_stdio_output@@V?$format_validation_base@DV?$stream_output_adapter@D@__crt_stdio_output@@@2@@__crt_stdio_output@@AAEXI@Z 10066910 f i libucrtd:output.obj
 0001:00065930       ?unset_flag@?$output_processor@DV?$stream_output_adapter@D@__crt_stdio_output@@V?$positional_parameter_base@DV?$stream_output_adapter@D@__crt_stdio_output@@@2@@__crt_stdio_output@@AAEXI@Z 10066930 f i libucrtd:output.obj
 0001:00065950       ?unset_flag@?$output_processor@DV?$stream_output_adapter@D@__crt_stdio_output@@V?$standard_base@DV?$stream_output_adapter@D@__crt_stdio_output@@@2@@__crt_stdio_output@@AAEXI@Z 10066950 f i libucrtd:output.obj
 0001:00065970       ?unset_flag@?$output_processor@DV?$string_output_adapter@D@__crt_stdio_output@@V?$format_validation_base@DV?$string_output_adapter@D@__crt_stdio_output@@@2@@__crt_stdio_output@@AAEXI@Z 10066970 f i libucrtd:output.obj
 0001:00065990       ?unset_flag@?$output_processor@DV?$string_output_adapter@D@__crt_stdio_output@@V?$positional_parameter_base@DV?$string_output_adapter@D@__crt_stdio_output@@@2@@__crt_stdio_output@@AAEXI@Z 10066990 f i libucrtd:output.obj
 0001:000659b0       ?unset_flag@?$output_processor@DV?$string_output_adapter@D@__crt_stdio_output@@V?$standard_base@DV?$string_output_adapter@D@__crt_stdio_output@@@2@@__crt_stdio_output@@AAEXI@Z 100669b0 f i libucrtd:output.obj
 0001:000659d0       ?unset_flag@?$output_processor@_WV?$stream_output_adapter@_W@__crt_stdio_output@@V?$format_validation_base@_WV?$stream_output_adapter@_W@__crt_stdio_output@@@2@@__crt_stdio_output@@AAEXI@Z 100669d0 f i libucrtd:output.obj
 0001:000659f0       ?unset_flag@?$output_processor@_WV?$stream_output_adapter@_W@__crt_stdio_output@@V?$positional_parameter_base@_WV?$stream_output_adapter@_W@__crt_stdio_output@@@2@@__crt_stdio_output@@AAEXI@Z 100669f0 f i libucrtd:output.obj
 0001:00065a10       ?unset_flag@?$output_processor@_WV?$stream_output_adapter@_W@__crt_stdio_output@@V?$standard_base@_WV?$stream_output_adapter@_W@__crt_stdio_output@@@2@@__crt_stdio_output@@AAEXI@Z 10066a10 f i libucrtd:output.obj
 0001:00065a30       ?unset_flag@?$output_processor@_WV?$string_output_adapter@_W@__crt_stdio_output@@V?$format_validation_base@_WV?$string_output_adapter@_W@__crt_stdio_output@@@2@@__crt_stdio_output@@AAEXI@Z 10066a30 f i libucrtd:output.obj
 0001:00065a50       ?unset_flag@?$output_processor@_WV?$string_output_adapter@_W@__crt_stdio_output@@V?$positional_parameter_base@_WV?$string_output_adapter@_W@__crt_stdio_output@@@2@@__crt_stdio_output@@AAEXI@Z 10066a50 f i libucrtd:output.obj
 0001:00065a70       ?unset_flag@?$output_processor@_WV?$string_output_adapter@_W@__crt_stdio_output@@V?$standard_base@_WV?$string_output_adapter@_W@__crt_stdio_output@@@2@@__crt_stdio_output@@AAEXI@Z 10066a70 f i libucrtd:output.obj
 0001:00065a90       ?update_field_width@?$positional_parameter_base@DV?$stream_output_adapter@D@__crt_stdio_output@@@__crt_stdio_output@@IAE_NXZ 10066a90 f i libucrtd:output.obj
 0001:00065c10       ?update_field_width@?$positional_parameter_base@DV?$string_output_adapter@D@__crt_stdio_output@@@__crt_stdio_output@@IAE_NXZ 10066c10 f i libucrtd:output.obj
 0001:00065d90       ?update_field_width@?$positional_parameter_base@_WV?$stream_output_adapter@_W@__crt_stdio_output@@@__crt_stdio_output@@IAE_NXZ 10066d90 f i libucrtd:output.obj
 0001:00065f10       ?update_field_width@?$positional_parameter_base@_WV?$string_output_adapter@_W@__crt_stdio_output@@@__crt_stdio_output@@IAE_NXZ 10066f10 f i libucrtd:output.obj
 0001:00066090       ?update_field_width@?$standard_base@DV?$stream_output_adapter@D@__crt_stdio_output@@@__crt_stdio_output@@IAE_NXZ 10067090 f i libucrtd:output.obj
 0001:000660c0       ?update_field_width@?$standard_base@DV?$string_output_adapter@D@__crt_stdio_output@@@__crt_stdio_output@@IAE_NXZ 100670c0 f i libucrtd:output.obj
 0001:000660f0       ?update_field_width@?$standard_base@_WV?$stream_output_adapter@_W@__crt_stdio_output@@@__crt_stdio_output@@IAE_NXZ 100670f0 f i libucrtd:output.obj
 0001:00066120       ?update_field_width@?$standard_base@_WV?$string_output_adapter@_W@__crt_stdio_output@@@__crt_stdio_output@@IAE_NXZ 10067120 f i libucrtd:output.obj
 0001:00066150       ?update_precision@?$positional_parameter_base@DV?$stream_output_adapter@D@__crt_stdio_output@@@__crt_stdio_output@@IAE_NXZ 10067150 f i libucrtd:output.obj
 0001:000662d0       ?update_precision@?$positional_parameter_base@DV?$string_output_adapter@D@__crt_stdio_output@@@__crt_stdio_output@@IAE_NXZ 100672d0 f i libucrtd:output.obj
 0001:00066450       ?update_precision@?$positional_parameter_base@_WV?$stream_output_adapter@_W@__crt_stdio_output@@@__crt_stdio_output@@IAE_NXZ 10067450 f i libucrtd:output.obj
 0001:000665d0       ?update_precision@?$positional_parameter_base@_WV?$string_output_adapter@_W@__crt_stdio_output@@@__crt_stdio_output@@IAE_NXZ 100675d0 f i libucrtd:output.obj
 0001:00066750       ?update_precision@?$standard_base@DV?$stream_output_adapter@D@__crt_stdio_output@@@__crt_stdio_output@@IAE_NXZ 10067750 f i libucrtd:output.obj
 0001:00066780       ?update_precision@?$standard_base@DV?$string_output_adapter@D@__crt_stdio_output@@@__crt_stdio_output@@IAE_NXZ 10067780 f i libucrtd:output.obj
 0001:000667b0       ?update_precision@?$standard_base@_WV?$stream_output_adapter@_W@__crt_stdio_output@@@__crt_stdio_output@@IAE_NXZ 100677b0 f i libucrtd:output.obj
 0001:000667e0       ?update_precision@?$standard_base@_WV?$string_output_adapter@_W@__crt_stdio_output@@@__crt_stdio_output@@IAE_NXZ 100677e0 f i libucrtd:output.obj
 0001:00066810       ?valid@__crt_stdio_stream@@QBE_NXZ 10067810 f i libucrtd:output.obj
 0001:00066840       ?validate@?$stream_output_adapter@D@__crt_stdio_output@@QBE_NXZ 10067840 f i libucrtd:output.obj
 0001:000668f0       ?validate@?$stream_output_adapter@_W@__crt_stdio_output@@QBE_NXZ 100678f0 f i libucrtd:output.obj
 0001:000669a0       ?validate@?$string_output_adapter@D@__crt_stdio_output@@QBE_NXZ 100679a0 f i libucrtd:output.obj
 0001:00066a30       ?validate@?$string_output_adapter@_W@__crt_stdio_output@@QBE_NXZ 10067a30 f i libucrtd:output.obj
 0001:00066ac0       ?validate_and_store_parameter_data@?$positional_parameter_base@DV?$stream_output_adapter@D@__crt_stdio_output@@@__crt_stdio_output@@AAE_NAAUparameter_data@12@W4parameter_type@12@DW4length_modifier@2@@Z 10067ac0 f i libucrtd:output.obj
 0001:00066b90       ?validate_and_store_parameter_data@?$positional_parameter_base@DV?$string_output_adapter@D@__crt_stdio_output@@@__crt_stdio_output@@AAE_NAAUparameter_data@12@W4parameter_type@12@DW4length_modifier@2@@Z 10067b90 f i libucrtd:output.obj
 0001:00066c60       ?validate_and_store_parameter_data@?$positional_parameter_base@_WV?$stream_output_adapter@_W@__crt_stdio_output@@@__crt_stdio_output@@AAE_NAAUparameter_data@12@W4parameter_type@12@_WW4length_modifier@2@@Z 10067c60 f i libucrtd:output.obj
 0001:00066d40       ?validate_and_store_parameter_data@?$positional_parameter_base@_WV?$string_output_adapter@_W@__crt_stdio_output@@@__crt_stdio_output@@AAE_NAAUparameter_data@12@W4parameter_type@12@_WW4length_modifier@2@@Z 10067d40 f i libucrtd:output.obj
 0001:00066e20       ?validate_and_update_state_at_beginning_of_format_character@?$positional_parameter_base@DV?$stream_output_adapter@D@__crt_stdio_output@@@__crt_stdio_output@@IAE_NXZ 10067e20 f i libucrtd:output.obj
 0001:00067040       ?validate_and_update_state_at_beginning_of_format_character@?$positional_parameter_base@DV?$string_output_adapter@D@__crt_stdio_output@@@__crt_stdio_output@@IAE_NXZ 10068040 f i libucrtd:output.obj
 0001:00067260       ?validate_and_update_state_at_beginning_of_format_character@?$positional_parameter_base@_WV?$stream_output_adapter@_W@__crt_stdio_output@@@__crt_stdio_output@@IAE_NXZ 10068260 f i libucrtd:output.obj
 0001:00067480       ?validate_and_update_state_at_beginning_of_format_character@?$positional_parameter_base@_WV?$string_output_adapter@_W@__crt_stdio_output@@@__crt_stdio_output@@IAE_NXZ 10068480 f i libucrtd:output.obj
 0001:000676a0       ?validate_and_update_state_at_beginning_of_format_character@?$standard_base@DV?$stream_output_adapter@D@__crt_stdio_output@@@__crt_stdio_output@@IAE_NXZ 100686a0 f i libucrtd:output.obj
 0001:000676b0       ?validate_and_update_state_at_beginning_of_format_character@?$standard_base@DV?$string_output_adapter@D@__crt_stdio_output@@@__crt_stdio_output@@IAE_NXZ 100686b0 f i libucrtd:output.obj
 0001:000676c0       ?validate_and_update_state_at_beginning_of_format_character@?$standard_base@_WV?$stream_output_adapter@_W@__crt_stdio_output@@@__crt_stdio_output@@IAE_NXZ 100686c0 f i libucrtd:output.obj
 0001:000676d0       ?validate_and_update_state_at_beginning_of_format_character@?$standard_base@_WV?$string_output_adapter@_W@__crt_stdio_output@@@__crt_stdio_output@@IAE_NXZ 100686d0 f i libucrtd:output.obj
 0001:000676e0       ?validate_and_update_state_at_end_of_format_string@?$format_validation_base@DV?$stream_output_adapter@D@__crt_stdio_output@@@__crt_stdio_output@@IBE_NXZ 100686e0 f i libucrtd:output.obj
 0001:00067780       ?validate_and_update_state_at_end_of_format_string@?$format_validation_base@DV?$string_output_adapter@D@__crt_stdio_output@@@__crt_stdio_output@@IBE_NXZ 10068780 f i libucrtd:output.obj
 0001:00067820       ?validate_and_update_state_at_end_of_format_string@?$format_validation_base@_WV?$stream_output_adapter@_W@__crt_stdio_output@@@__crt_stdio_output@@IBE_NXZ 10068820 f i libucrtd:output.obj
 0001:000678c0       ?validate_and_update_state_at_end_of_format_string@?$format_validation_base@_WV?$string_output_adapter@_W@__crt_stdio_output@@@__crt_stdio_output@@IBE_NXZ 100688c0 f i libucrtd:output.obj
 0001:00067960       ?validate_and_update_state_at_end_of_format_string@?$positional_parameter_base@DV?$stream_output_adapter@D@__crt_stdio_output@@@__crt_stdio_output@@IAE_NXZ 10068960 f i libucrtd:output.obj
 0001:00067b00       ?validate_and_update_state_at_end_of_format_string@?$positional_parameter_base@DV?$string_output_adapter@D@__crt_stdio_output@@@__crt_stdio_output@@IAE_NXZ 10068b00 f i libucrtd:output.obj
 0001:00067ca0       ?validate_and_update_state_at_end_of_format_string@?$positional_parameter_base@_WV?$stream_output_adapter@_W@__crt_stdio_output@@@__crt_stdio_output@@IAE_NXZ 10068ca0 f i libucrtd:output.obj
 0001:00067e40       ?validate_and_update_state_at_end_of_format_string@?$positional_parameter_base@_WV?$string_output_adapter@_W@__crt_stdio_output@@@__crt_stdio_output@@IAE_NXZ 10068e40 f i libucrtd:output.obj
 0001:00067fe0       ?validate_and_update_state_at_end_of_format_string@?$standard_base@DV?$stream_output_adapter@D@__crt_stdio_output@@@__crt_stdio_output@@IBE_NXZ 10068fe0 f i libucrtd:output.obj
 0001:00067ff0       ?validate_and_update_state_at_end_of_format_string@?$standard_base@DV?$string_output_adapter@D@__crt_stdio_output@@@__crt_stdio_output@@IBE_NXZ 10068ff0 f i libucrtd:output.obj
 0001:00068000       ?validate_and_update_state_at_end_of_format_string@?$standard_base@_WV?$stream_output_adapter@_W@__crt_stdio_output@@@__crt_stdio_output@@IBE_NXZ 10069000 f i libucrtd:output.obj
 0001:00068010       ?validate_and_update_state_at_end_of_format_string@?$standard_base@_WV?$string_output_adapter@_W@__crt_stdio_output@@@__crt_stdio_output@@IBE_NXZ 10069010 f i libucrtd:output.obj
 0001:00068020       ?validate_state_for_type_case_a@?$positional_parameter_base@DV?$stream_output_adapter@D@__crt_stdio_output@@@__crt_stdio_output@@IAE_NXZ 10069020 f i libucrtd:output.obj
 0001:00068110       ?validate_state_for_type_case_a@?$positional_parameter_base@DV?$string_output_adapter@D@__crt_stdio_output@@@__crt_stdio_output@@IAE_NXZ 10069110 f i libucrtd:output.obj
 0001:00068200       ?validate_state_for_type_case_a@?$positional_parameter_base@_WV?$stream_output_adapter@_W@__crt_stdio_output@@@__crt_stdio_output@@IAE_NXZ 10069200 f i libucrtd:output.obj
 0001:000682f0       ?validate_state_for_type_case_a@?$positional_parameter_base@_WV?$string_output_adapter@_W@__crt_stdio_output@@@__crt_stdio_output@@IAE_NXZ 100692f0 f i libucrtd:output.obj
 0001:000683e0       ?validate_state_for_type_case_a@?$standard_base@DV?$stream_output_adapter@D@__crt_stdio_output@@@__crt_stdio_output@@IBE_NXZ 100693e0 f i libucrtd:output.obj
 0001:000683f0       ?validate_state_for_type_case_a@?$standard_base@DV?$string_output_adapter@D@__crt_stdio_output@@@__crt_stdio_output@@IBE_NXZ 100693f0 f i libucrtd:output.obj
 0001:00068400       ?validate_state_for_type_case_a@?$standard_base@_WV?$stream_output_adapter@_W@__crt_stdio_output@@@__crt_stdio_output@@IBE_NXZ 10069400 f i libucrtd:output.obj
 0001:00068410       ?validate_state_for_type_case_a@?$standard_base@_WV?$string_output_adapter@_W@__crt_stdio_output@@@__crt_stdio_output@@IBE_NXZ 10069410 f i libucrtd:output.obj
 0001:00068420       ?validate_stream_is_ansi_if_required@?$__acrt_stdio_char_traits@D@@SA_NQAU_iobuf@@@Z 10069420 f i libucrtd:output.obj
 0001:00068550       ?validate_stream_is_ansi_if_required@?$__acrt_stdio_char_traits@_W@@SA_NQAU_iobuf@@@Z 10069550 f i libucrtd:output.obj
 0001:00068560       ?wide_null_string@?$output_processor@DV?$stream_output_adapter@D@__crt_stdio_output@@V?$format_validation_base@DV?$stream_output_adapter@D@__crt_stdio_output@@@2@@__crt_stdio_output@@CAPA_WXZ 10069560 f i libucrtd:output.obj
 0001:00068570       ?wide_null_string@?$output_processor@DV?$stream_output_adapter@D@__crt_stdio_output@@V?$positional_parameter_base@DV?$stream_output_adapter@D@__crt_stdio_output@@@2@@__crt_stdio_output@@CAPA_WXZ 10069570 f i libucrtd:output.obj
 0001:00068580       ?wide_null_string@?$output_processor@DV?$stream_output_adapter@D@__crt_stdio_output@@V?$standard_base@DV?$stream_output_adapter@D@__crt_stdio_output@@@2@@__crt_stdio_output@@CAPA_WXZ 10069580 f i libucrtd:output.obj
 0001:00068590       ?wide_null_string@?$output_processor@DV?$string_output_adapter@D@__crt_stdio_output@@V?$format_validation_base@DV?$string_output_adapter@D@__crt_stdio_output@@@2@@__crt_stdio_output@@CAPA_WXZ 10069590 f i libucrtd:output.obj
 0001:000685a0       ?wide_null_string@?$output_processor@DV?$string_output_adapter@D@__crt_stdio_output@@V?$positional_parameter_base@DV?$string_output_adapter@D@__crt_stdio_output@@@2@@__crt_stdio_output@@CAPA_WXZ 100695a0 f i libucrtd:output.obj
 0001:000685b0       ?wide_null_string@?$output_processor@DV?$string_output_adapter@D@__crt_stdio_output@@V?$standard_base@DV?$string_output_adapter@D@__crt_stdio_output@@@2@@__crt_stdio_output@@CAPA_WXZ 100695b0 f i libucrtd:output.obj
 0001:000685c0       ?wide_null_string@?$output_processor@_WV?$stream_output_adapter@_W@__crt_stdio_output@@V?$format_validation_base@_WV?$stream_output_adapter@_W@__crt_stdio_output@@@2@@__crt_stdio_output@@CAPA_WXZ 100695c0 f i libucrtd:output.obj
 0001:000685d0       ?wide_null_string@?$output_processor@_WV?$stream_output_adapter@_W@__crt_stdio_output@@V?$positional_parameter_base@_WV?$stream_output_adapter@_W@__crt_stdio_output@@@2@@__crt_stdio_output@@CAPA_WXZ 100695d0 f i libucrtd:output.obj
 0001:000685e0       ?wide_null_string@?$output_processor@_WV?$stream_output_adapter@_W@__crt_stdio_output@@V?$standard_base@_WV?$stream_output_adapter@_W@__crt_stdio_output@@@2@@__crt_stdio_output@@CAPA_WXZ 100695e0 f i libucrtd:output.obj
 0001:000685f0       ?wide_null_string@?$output_processor@_WV?$string_output_adapter@_W@__crt_stdio_output@@V?$format_validation_base@_WV?$string_output_adapter@_W@__crt_stdio_output@@@2@@__crt_stdio_output@@CAPA_WXZ 100695f0 f i libucrtd:output.obj
 0001:00068600       ?wide_null_string@?$output_processor@_WV?$string_output_adapter@_W@__crt_stdio_output@@V?$positional_parameter_base@_WV?$string_output_adapter@_W@__crt_stdio_output@@@2@@__crt_stdio_output@@CAPA_WXZ 10069600 f i libucrtd:output.obj
 0001:00068610       ?wide_null_string@?$output_processor@_WV?$string_output_adapter@_W@__crt_stdio_output@@V?$standard_base@_WV?$string_output_adapter@_W@__crt_stdio_output@@@2@@__crt_stdio_output@@CAPA_WXZ 10069610 f i libucrtd:output.obj
 0001:00068620       ?write_character@?$output_adapter_common@DV?$stream_output_adapter@D@__crt_stdio_output@@@__crt_stdio_output@@QBEXDQAH@Z 10069620 f i libucrtd:output.obj
 0001:00068660       ?write_character@?$output_adapter_common@_WV?$stream_output_adapter@_W@__crt_stdio_output@@@__crt_stdio_output@@QBEX_WQAH@Z 10069660 f i libucrtd:output.obj
 0001:000686a0       ?write_character@?$string_output_adapter@D@__crt_stdio_output@@QBE_NDQAH@Z 100696a0 f i libucrtd:output.obj
 0001:00068730       ?write_character@?$string_output_adapter@_W@__crt_stdio_output@@QBE_N_WQAH@Z 10069730 f i libucrtd:output.obj
 0001:000687d0       ?write_character_without_count_update@?$stream_output_adapter@D@__crt_stdio_output@@QBE_ND@Z 100697d0 f i libucrtd:output.obj
 0001:00068840       ?write_character_without_count_update@?$stream_output_adapter@_W@__crt_stdio_output@@QBE_N_W@Z 10069840 f i libucrtd:output.obj
 0001:000688b0       ?write_stored_string_tchar@?$output_processor@DV?$stream_output_adapter@D@__crt_stdio_output@@V?$format_validation_base@DV?$stream_output_adapter@D@__crt_stdio_output@@@2@@__crt_stdio_output@@AAE_ND@Z 100698b0 f i libucrtd:output.obj
 0001:000689c0       ?write_stored_string_tchar@?$output_processor@DV?$stream_output_adapter@D@__crt_stdio_output@@V?$positional_parameter_base@DV?$stream_output_adapter@D@__crt_stdio_output@@@2@@__crt_stdio_output@@AAE_ND@Z 100699c0 f i libucrtd:output.obj
 0001:00068ad0       ?write_stored_string_tchar@?$output_processor@DV?$stream_output_adapter@D@__crt_stdio_output@@V?$standard_base@DV?$stream_output_adapter@D@__crt_stdio_output@@@2@@__crt_stdio_output@@AAE_ND@Z 10069ad0 f i libucrtd:output.obj
 0001:00068be0       ?write_stored_string_tchar@?$output_processor@DV?$string_output_adapter@D@__crt_stdio_output@@V?$format_validation_base@DV?$string_output_adapter@D@__crt_stdio_output@@@2@@__crt_stdio_output@@AAE_ND@Z 10069be0 f i libucrtd:output.obj
 0001:00068cf0       ?write_stored_string_tchar@?$output_processor@DV?$string_output_adapter@D@__crt_stdio_output@@V?$positional_parameter_base@DV?$string_output_adapter@D@__crt_stdio_output@@@2@@__crt_stdio_output@@AAE_ND@Z 10069cf0 f i libucrtd:output.obj
 0001:00068e00       ?write_stored_string_tchar@?$output_processor@DV?$string_output_adapter@D@__crt_stdio_output@@V?$standard_base@DV?$string_output_adapter@D@__crt_stdio_output@@@2@@__crt_stdio_output@@AAE_ND@Z 10069e00 f i libucrtd:output.obj
 0001:00068f10       ?write_stored_string_tchar@?$output_processor@_WV?$stream_output_adapter@_W@__crt_stdio_output@@V?$format_validation_base@_WV?$stream_output_adapter@_W@__crt_stdio_output@@@2@@__crt_stdio_output@@AAE_N_W@Z 10069f10 f i libucrtd:output.obj
 0001:00069000       ?write_stored_string_tchar@?$output_processor@_WV?$stream_output_adapter@_W@__crt_stdio_output@@V?$positional_parameter_base@_WV?$stream_output_adapter@_W@__crt_stdio_output@@@2@@__crt_stdio_output@@AAE_N_W@Z 1006a000 f i libucrtd:output.obj
 0001:000690f0       ?write_stored_string_tchar@?$output_processor@_WV?$stream_output_adapter@_W@__crt_stdio_output@@V?$standard_base@_WV?$stream_output_adapter@_W@__crt_stdio_output@@@2@@__crt_stdio_output@@AAE_N_W@Z 1006a0f0 f i libucrtd:output.obj
 0001:000691e0       ?write_stored_string_tchar@?$output_processor@_WV?$string_output_adapter@_W@__crt_stdio_output@@V?$format_validation_base@_WV?$string_output_adapter@_W@__crt_stdio_output@@@2@@__crt_stdio_output@@AAE_N_W@Z 1006a1e0 f i libucrtd:output.obj
 0001:000692d0       ?write_stored_string_tchar@?$output_processor@_WV?$string_output_adapter@_W@__crt_stdio_output@@V?$positional_parameter_base@_WV?$string_output_adapter@_W@__crt_stdio_output@@@2@@__crt_stdio_output@@AAE_N_W@Z 1006a2d0 f i libucrtd:output.obj
 0001:000693c0       ?write_stored_string_tchar@?$output_processor@_WV?$string_output_adapter@_W@__crt_stdio_output@@V?$standard_base@_WV?$string_output_adapter@_W@__crt_stdio_output@@@2@@__crt_stdio_output@@AAE_N_W@Z 1006a3c0 f i libucrtd:output.obj
 0001:000694b0       ?write_string@?$stream_output_adapter@D@__crt_stdio_output@@QBEXQBDHQAHAAV__crt_deferred_errno_cache@@@Z 1006a4b0 f i libucrtd:output.obj
 0001:00069510       ?write_string@?$stream_output_adapter@_W@__crt_stdio_output@@QBEXQB_WHQAHAAV__crt_deferred_errno_cache@@@Z 1006a510 f i libucrtd:output.obj
 0001:00069570       ?write_string@?$string_output_adapter@D@__crt_stdio_output@@QBEXQBDHQAHAAV__crt_deferred_errno_cache@@@Z 1006a570 f i libucrtd:output.obj
 0001:00069670       ?write_string@?$string_output_adapter@_W@__crt_stdio_output@@QBEXQB_WHQAHAAV__crt_deferred_errno_cache@@@Z 1006a670 f i libucrtd:output.obj
 0001:00069780       ?write_string_impl@?$output_adapter_common@DV?$stream_output_adapter@D@__crt_stdio_output@@@__crt_stdio_output@@IBEXQBDHQAHAAV__crt_deferred_errno_cache@@@Z 1006a780 f i libucrtd:output.obj
 0001:00069820       ?write_string_impl@?$output_adapter_common@_WV?$stream_output_adapter@_W@__crt_stdio_output@@@__crt_stdio_output@@IBEXQB_WHQAHAAV__crt_deferred_errno_cache@@@Z 1006a820 f i libucrtd:output.obj
 0001:000698c0       ___acrt_isleadbyte_l_noupdate 1006a8c0 f i libucrtd:output.obj
 0001:000698e0       ___acrt_locale_changed     1006a8e0 f i libucrtd:output.obj
 0001:00069910       ___acrt_locale_get_ctype_array_value 1006a910 f i libucrtd:output.obj
 0001:00069940       ___stdio_common_vfprintf   1006a940 f   libucrtd:output.obj
 0001:00069970       ___stdio_common_vfprintf_p 1006a970 f   libucrtd:output.obj
 0001:000699a0       ___stdio_common_vfprintf_s 1006a9a0 f   libucrtd:output.obj
 0001:000699d0       ___stdio_common_vfwprintf  1006a9d0 f   libucrtd:output.obj
 0001:00069a00       ___stdio_common_vfwprintf_p 1006aa00 f   libucrtd:output.obj
 0001:00069a30       ___stdio_common_vfwprintf_s 1006aa30 f   libucrtd:output.obj
 0001:00069a60       ___stdio_common_vsnprintf_s 1006aa60 f   libucrtd:output.obj
 0001:00069a90       ___stdio_common_vsnwprintf_s 1006aa90 f   libucrtd:output.obj
 0001:00069ac0       ___stdio_common_vsprintf   1006aac0 f   libucrtd:output.obj
 0001:00069af0       ___stdio_common_vsprintf_p 1006aaf0 f   libucrtd:output.obj
 0001:00069b20       ___stdio_common_vsprintf_s 1006ab20 f   libucrtd:output.obj
 0001:00069b50       ___stdio_common_vswprintf  1006ab50 f   libucrtd:output.obj
 0001:00069b80       ___stdio_common_vswprintf_p 1006ab80 f   libucrtd:output.obj
 0001:00069bb0       ___stdio_common_vswprintf_s 1006abb0 f   libucrtd:output.obj
 0001:00069be0       __ctype_fast_check_internal 1006abe0 f i libucrtd:output.obj
 0001:00069c00       __isdigit_fast_internal    1006ac00 f i libucrtd:output.obj
 0001:00069c20       __tolower_fast_internal    1006ac20 f i libucrtd:output.obj
 0001:00069c40       _free                      1006ac40 f   libucrtd:free.obj
 0001:00069c70       _malloc                    1006ac70 f   libucrtd:malloc.obj
 0001:00069c90       ??$?RU?$__crt_report_hook_node@D@@@__crt_internal_free_policy@@QBEXQBU?$__crt_report_hook_node@D@@@Z 1006ac90 f i libucrtd:dbgrpt.obj
 0001:00069cb0       ??$?RU?$__crt_report_hook_node@_W@@@__crt_internal_free_policy@@QBEXQBU?$__crt_report_hook_node@_W@@@Z 1006acb0 f i libucrtd:dbgrpt.obj
 0001:0006aaa0       ??$get_module_file_name@AAPAUHINSTANCE__@@AAY0BAF@DK@?$__crt_char_traits@D@@SAKAAPAUHINSTANCE__@@AAY0BAF@D$$QAK@Z 1006baa0 f i libucrtd:dbgrpt.obj
 0001:0006aac0       ??$get_module_file_name@AAPAUHINSTANCE__@@AAY0BAF@_WK@?$__crt_char_traits@_W@@SAKAAPAUHINSTANCE__@@AAY0BAF@_W$$QAK@Z 1006bac0 f i libucrtd:dbgrpt.obj
 0001:0006aae0       ??$tcscpy_s@AAY0BAF@DIPBD@?$__crt_char_traits@D@@SAHAAY0BAF@D$$QAI$$QAPBD@Z 1006bae0 f i libucrtd:dbgrpt.obj
 0001:0006ab00       ??$tcscpy_s@AAY0BAF@_WIPB_W@?$__crt_char_traits@_W@@SAHAAY0BAF@_W$$QAI$$QAPB_W@Z 1006bb00 f i libucrtd:dbgrpt.obj
 0001:0006ab20       ??$tcslen@AAY0BAF@D@?$__crt_char_traits@D@@SAIAAY0BAF@D@Z 1006bb20 f i libucrtd:dbgrpt.obj
 0001:0006ab40       ??$tcslen@AAY0BAF@_W@?$__crt_char_traits@_W@@SAIAAY0BAF@_W@Z 1006bb40 f i libucrtd:dbgrpt.obj
 0001:0006ab60       ??$tcslen@ABQBD@?$__crt_char_traits@D@@SAIABQBD@Z 1006bb60 f i libucrtd:dbgrpt.obj
 0001:0006ab80       ??$tcslen@ABQB_W@?$__crt_char_traits@_W@@SAIABQB_W@Z 1006bb80 f i libucrtd:dbgrpt.obj
 0001:0006ac80       ??0?$__crt_unique_heap_ptr@U?$__crt_report_hook_node@D@@U__crt_internal_free_policy@@@@QAE@QAU?$__crt_report_hook_node@D@@@Z 1006bc80 f i libucrtd:dbgrpt.obj
 0001:0006aca0       ??0?$__crt_unique_heap_ptr@U?$__crt_report_hook_node@_W@@U__crt_internal_free_policy@@@@QAE@QAU?$__crt_report_hook_node@_W@@@Z 1006bca0 f i libucrtd:dbgrpt.obj
 0001:0006acc0       ??1?$__crt_unique_heap_ptr@U?$__crt_report_hook_node@D@@U__crt_internal_free_policy@@@@QAE@XZ 1006bcc0 f i libucrtd:dbgrpt.obj
 0001:0006ace0       ??1?$__crt_unique_heap_ptr@U?$__crt_report_hook_node@_W@@U__crt_internal_free_policy@@@@QAE@XZ 1006bce0 f i libucrtd:dbgrpt.obj
 0001:0006ad00       ??B?$__crt_unique_heap_ptr@U?$__crt_report_hook_node@D@@U__crt_internal_free_policy@@@@QBE_NXZ 1006bd00 f i libucrtd:dbgrpt.obj
 0001:0006ad20       ??B?$__crt_unique_heap_ptr@U?$__crt_report_hook_node@_W@@U__crt_internal_free_policy@@@@QBE_NXZ 1006bd20 f i libucrtd:dbgrpt.obj
 0001:0006b260       ?detach@?$__crt_unique_heap_ptr@U?$__crt_report_hook_node@D@@U__crt_internal_free_policy@@@@QAEPAU?$__crt_report_hook_node@D@@XZ 1006c260 f i libucrtd:dbgrpt.obj
 0001:0006b290       ?detach@?$__crt_unique_heap_ptr@U?$__crt_report_hook_node@_W@@U__crt_internal_free_policy@@@@QAEPAU?$__crt_report_hook_node@_W@@XZ 1006c290 f i libucrtd:dbgrpt.obj
 0001:0006b2c0       ?get@?$__crt_unique_heap_ptr@U?$__crt_report_hook_node@D@@U__crt_internal_free_policy@@@@QBEPAU?$__crt_report_hook_node@D@@XZ 1006c2c0 f i libucrtd:dbgrpt.obj
 0001:0006b2e0       ?get@?$__crt_unique_heap_ptr@U?$__crt_report_hook_node@_W@@U__crt_internal_free_policy@@@@QBEPAU?$__crt_report_hook_node@_W@@XZ 1006c2e0 f i libucrtd:dbgrpt.obj
 0001:0006b360       ?is_valid@?$__crt_unique_heap_ptr@U?$__crt_report_hook_node@D@@U__crt_internal_free_policy@@@@QBE_NXZ 1006c360 f i libucrtd:dbgrpt.obj
 0001:0006b390       ?is_valid@?$__crt_unique_heap_ptr@U?$__crt_report_hook_node@_W@@U__crt_internal_free_policy@@@@QBE_NXZ 1006c390 f i libucrtd:dbgrpt.obj
 0001:0006b3c0       ?release@?$__crt_unique_heap_ptr@U?$__crt_report_hook_node@D@@U__crt_internal_free_policy@@@@QAEXXZ 1006c3c0 f i libucrtd:dbgrpt.obj
 0001:0006b3f0       ?release@?$__crt_unique_heap_ptr@U?$__crt_report_hook_node@_W@@U__crt_internal_free_policy@@@@QAEXXZ 1006c3f0 f i libucrtd:dbgrpt.obj
 0001:0006b420       __CrtDbgReport             1006c420 f   libucrtd:dbgrpt.obj
 0001:0006b470       __CrtDbgReportW            1006c470 f   libucrtd:dbgrpt.obj
 0001:0006b4c0       __CrtSetReportHook2        1006c4c0 f   libucrtd:dbgrpt.obj
 0001:0006b4e0       __CrtSetReportHookW2       1006c4e0 f   libucrtd:dbgrpt.obj
 0001:0006b500       ___acrt_MessageWindowA     1006c500 f   libucrtd:dbgrpt.obj
 0001:0006b530       ___acrt_MessageWindowW     1006c530 f   libucrtd:dbgrpt.obj
 0001:0006b560       __invoke_watson_if_error   1006c560 f i libucrtd:dbgrpt.obj
 0001:0006b590       __invoke_watson_if_oneof   1006c590 f i libucrtd:dbgrpt.obj
 0001:0006b5d0       __snwprintf_s              1006c5d0 f i libucrtd:dbgrpt.obj
 0001:0006b610       __vsnwprintf_s_l           1006c610 f i libucrtd:dbgrpt.obj
 0001:0006b990       _wcscpy_s                  1006c990 f   libucrtd:wcscpy_s.obj
 0001:0006c6b0       ??1?$__crt_simd_cleanup_guard@$00@@QAE@XZ 1006d6b0 f i libucrtd:strnlen.obj
 0001:0006c6c0       ??1?$__crt_simd_cleanup_guard@$0A@@@QAE@XZ 1006d6c0 f i libucrtd:strnlen.obj
 0001:0006c6d0       ?compare_equals@?$__crt_simd_traits@$00E@@SA?AT__m256i@@T2@0@Z 1006d6d0 f i libucrtd:strnlen.obj
 0001:0006c710       ?compare_equals@?$__crt_simd_traits@$00G@@SA?AT__m256i@@T2@0@Z 1006d710 f i libucrtd:strnlen.obj
 0001:0006c750       ?compare_equals@?$__crt_simd_traits@$0A@E@@SA?AT__m128i@@T2@0@Z 1006d750 f i libucrtd:strnlen.obj
 0001:0006c790       ?compare_equals@?$__crt_simd_traits@$0A@G@@SA?AT__m128i@@T2@0@Z 1006d790 f i libucrtd:strnlen.obj
 0001:0006c7d0       ?compute_byte_mask@?$__crt_simd_pack_traits@$00@@SAHT__m256i@@@Z 1006d7d0 f i libucrtd:strnlen.obj
 0001:0006c800       ?compute_byte_mask@?$__crt_simd_pack_traits@$0A@@@SAHT__m128i@@@Z 1006d800 f i libucrtd:strnlen.obj
 0001:0006c830       ?get_zero_pack@?$__crt_simd_pack_traits@$00@@SA?AT__m256i@@XZ 1006d830 f i libucrtd:strnlen.obj
 0001:0006c860       ?get_zero_pack@?$__crt_simd_pack_traits@$0A@@@SA?AT__m128i@@XZ 1006d860 f i libucrtd:strnlen.obj
 0001:0006c890       _strnlen                   1006d890 f   libucrtd:strnlen.obj
 0001:0006c8b0       _wcslen                    1006d8b0 f   libucrtd:strnlen.obj
 0001:0006c8d0       _wcsnlen                   1006d8d0 f   libucrtd:strnlen.obj
 0001:0006c8f0       ??$__crt_fast_decode_pointer@P6AXPB_W00II@Z@@YAP6AXPB_W00II@ZQ6AX000II@Z@Z 1006d8f0 f i libucrtd:invalid_parameter.obj
 0001:0006c920       ??$__crt_fast_encode_pointer@P6AXPB_W00II@Z@@YAP6AXPB_W00II@ZQ6AX000II@Z@Z 1006d920 f i libucrtd:invalid_parameter.obj
 0001:0006c950       ??$initialize_from_array@$$BY00Q6AXPB_W00II@Z@?$dual_state_global@P6AXPB_W00II@Z@__crt_state_management@@QAAXAAY00Q6AXPB_W00II@Z@Z 1006d950 f i libucrtd:invalid_parameter.obj
 0001:0006c9a0       ?__crt_rotate_pointer_value@@YAIIH@Z 1006d9a0 f i libucrtd:invalid_parameter.obj
 0001:0006c9b0       ?dangerous_get_state_array@?$dual_state_global@P6AXPB_W00II@Z@__crt_state_management@@QAEPAP6AXPB_W00II@ZXZ 1006d9b0 f i libucrtd:invalid_parameter.obj
 0001:0006c9c0       ?get_current_state_index@__crt_state_management@@YAIXZ 1006d9c0 f i libucrtd:invalid_parameter.obj
 0001:0006c9d0       ?value@?$dual_state_global@P6AXPB_W00II@Z@__crt_state_management@@QAEAAP6AXPB_W00II@ZXZ 1006d9d0 f i libucrtd:invalid_parameter.obj
 0001:0006c9f0       ___acrt_call_reportfault   1006d9f0 f   libucrtd:invalid_parameter.obj
 0001:0006cb50       ___acrt_initialize_invalid_parameter_handler 1006db50 f   libucrtd:invalid_parameter.obj
 0001:0006cb80       __get_invalid_parameter_handler 1006db80 f   libucrtd:invalid_parameter.obj
 0001:0006cba0       __get_thread_local_invalid_parameter_handler 1006dba0 f   libucrtd:invalid_parameter.obj
 0001:0006cbd0       __invalid_parameter        1006dbd0 f   libucrtd:invalid_parameter.obj
 0001:0006cc90       __invalid_parameter_noinfo 1006dc90 f   libucrtd:invalid_parameter.obj
 0001:0006ccb0       __invalid_parameter_noinfo_noreturn 1006dcb0 f   libucrtd:invalid_parameter.obj
 0001:0006cce0       __invoke_watson            1006dce0 f   libucrtd:invalid_parameter.obj
 0001:0006cd20       __set_invalid_parameter_handler 1006dd20 f   libucrtd:invalid_parameter.obj
 0001:0006cd70       __set_thread_local_invalid_parameter_handler 1006dd70 f   libucrtd:invalid_parameter.obj
 0001:0006cda0       ___acrt_errno_from_os_error 1006dda0 f   libucrtd:errno.obj
 0001:0006ce20       ___acrt_errno_map_os_error 1006de20 f   libucrtd:errno.obj
 0001:0006ce50       ___doserrno                1006de50 f   libucrtd:errno.obj
 0001:0006ce80       __errno                    1006de80 f   libucrtd:errno.obj
 0001:0006ceb0       __get_doserrno             1006deb0 f   libucrtd:errno.obj
 0001:0006cf40       __get_errno                1006df40 f   libucrtd:errno.obj
 0001:0006cfd0       __set_doserrno             1006dfd0 f   libucrtd:errno.obj
 0001:0006d000       __set_errno                1006e000 f   libucrtd:errno.obj
 0001:0006d030       _calloc                    1006e030 f   libucrtd:calloc.obj
 0001:0006d050       __recalloc                 1006e050 f   libucrtd:recalloc.obj
 0001:0006d080       __recalloc_base            1006e080 f   libucrtd:recalloc.obj
 0001:0006d11a       __resetstkoflw             1006e11a f   libucrtd:resetstk.obj
 0001:0006d600       _wcscat_s                  1006e600 f   libucrtd:wcscat_s.obj
 0001:0006da50       _wcsncpy_s                 1006ea50 f   libucrtd:wcsncpy_s.obj
 0001:0006da90       ___acrt_get_locale_data_prefix 1006ea90 f i libucrtd:_ctype.obj
 0001:0006dab0       ___isascii                 1006eab0 f i libucrtd:_ctype.obj
 0001:0006dae0       ___iscsym                  1006eae0 f i libucrtd:_ctype.obj
 0001:0006db20       ___iscsymf                 1006eb20 f i libucrtd:_ctype.obj
 0001:0006db60       ___toascii                 1006eb60 f i libucrtd:_ctype.obj
 0001:0006db70       __chvalidchk_l             1006eb70 f i libucrtd:_ctype.obj
 0001:0006db90       __isalnum_l                1006eb90 f i libucrtd:_ctype.obj
 0001:0006dbd0       __isalpha_l                1006ebd0 f i libucrtd:_ctype.obj
 0001:0006dc10       __isblank_l                1006ec10 f i libucrtd:_ctype.obj
 0001:0006dc70       __ischartype_l             1006ec70 f i libucrtd:_ctype.obj
 0001:0006dcf0       __iscntrl_l                1006ecf0 f i libucrtd:_ctype.obj
 0001:0006dd30       __iscsym_l                 1006ed30 f i libucrtd:_ctype.obj
 0001:0006dd70       __iscsymf_l                1006ed70 f i libucrtd:_ctype.obj
 0001:0006ddb0       __isdigit_l                1006edb0 f i libucrtd:_ctype.obj
 0001:0006ddf0       __isgraph_l                1006edf0 f i libucrtd:_ctype.obj
 0001:0006de30       __islower_l                1006ee30 f i libucrtd:_ctype.obj
 0001:0006de70       __isprint_l                1006ee70 f i libucrtd:_ctype.obj
 0001:0006deb0       __ispunct_l                1006eeb0 f i libucrtd:_ctype.obj
 0001:0006def0       __isspace_l                1006eef0 f i libucrtd:_ctype.obj
 0001:0006df30       __isupper_l                1006ef30 f i libucrtd:_ctype.obj
 0001:0006df70       __isxdigit_l               1006ef70 f i libucrtd:_ctype.obj
 0001:0006dfb0       _isalnum                   1006efb0 f i libucrtd:_ctype.obj
 0001:0006dff0       _isalpha                   1006eff0 f i libucrtd:_ctype.obj
 0001:0006e030       _isblank                   1006f030 f i libucrtd:_ctype.obj
 0001:0006e090       _iscntrl                   1006f090 f i libucrtd:_ctype.obj
 0001:0006e0d0       _isdigit                   1006f0d0 f i libucrtd:_ctype.obj
 0001:0006e110       _isgraph                   1006f110 f i libucrtd:_ctype.obj
 0001:0006e150       _islower                   1006f150 f i libucrtd:_ctype.obj
 0001:0006e190       _isprint                   1006f190 f i libucrtd:_ctype.obj
 0001:0006e1d0       _ispunct                   1006f1d0 f i libucrtd:_ctype.obj
 0001:0006e210       _isspace                   1006f210 f i libucrtd:_ctype.obj
 0001:0006e250       _isupper                   1006f250 f i libucrtd:_ctype.obj
 0001:0006e290       _isxdigit                  1006f290 f i libucrtd:_ctype.obj
 0001:0006e2d0       _wcscat                    1006f2d0 f   libucrtd:wcscat.obj
 0001:0006e330       _wcscpy                    1006f330 f   libucrtd:wcscpy.obj
 0001:0006e9c0       ??$open_file@ABQBDABQBDABHPAU_iobuf@@@?$__crt_char_traits@D@@SAPAU_iobuf@@ABQBD0ABH$$QAPAU1@@Z 1006f9c0 f i libucrtd:fopen.obj
 0001:0006e9f0       ??$open_file@ABQB_WABQB_WABHPAU_iobuf@@@?$__crt_char_traits@_W@@SAPAU_iobuf@@ABQB_W0ABH$$QAPAU1@@Z 1006f9f0 f i libucrtd:fopen.obj
 0001:0006ea20       ?unlock@__crt_stdio_stream@@QBEXXZ 1006fa20 f i libucrtd:fopen.obj
 0001:0006ea40       __fsopen                   1006fa40 f   libucrtd:fopen.obj
 0001:0006ea60       __wfopen                   1006fa60 f   libucrtd:fopen.obj
 0001:0006ea80       __wfopen_s                 1006fa80 f   libucrtd:fopen.obj
 0001:0006eaa0       __wfsopen                  1006faa0 f   libucrtd:fopen.obj
 0001:0006eac0       _fopen                     1006fac0 f   libucrtd:fopen.obj
 0001:0006eae0       _fopen_s                   1006fae0 f   libucrtd:fopen.obj
 0001:0006eb00       ?is_in_use@__crt_stdio_stream@@QBE_NXZ 1006fb00 f i libucrtd:fclose.obj
 0001:0006eb40       __fclose_nolock            1006fb40 f   libucrtd:fclose.obj
 0001:0006ec80       _fclose                    1006fc80 f   libucrtd:fclose.obj
 0001:0006edd0       __fputc_nolock             1006fdd0 f   libucrtd:fputc.obj
 0001:0006ee60       __fputchar                 1006fe60 f   libucrtd:fputc.obj
 0001:0006ee80       __putc_nolock              1006fe80 f   libucrtd:fputc.obj
 0001:0006eea0       _fputc                     1006fea0 f   libucrtd:fputc.obj
 0001:0006f0e0       _putc                      100700e0 f   libucrtd:fputc.obj
 0001:0006f100       _putchar                   10070100 f   libucrtd:fputc.obj
 0001:0006f170       __seh_filter_dll           10070170 f   libucrtd:exception_filter.obj
 0001:0006f1a0       __seh_filter_exe           100701a0 f   libucrtd:exception_filter.obj
 0001:0006f3b0       ??$?B$$A6GXPAXK0@Z@__crt_fast_encoded_nullptr_t@@QBEP6GXPAXK0@ZXZ 100703b0 f i libucrtd:exit.obj
 0001:0006f490       ??$__crt_fast_decode_pointer@P6GXPAXK0@Z@@YAP6GXPAXK0@ZQ6GX0K0@Z@Z 10070490 f i libucrtd:exit.obj
 0001:0006f4c0       ??$__crt_fast_encode_pointer@P6GXPAXK0@Z@@YAP6GXPAXK0@ZQ6GX0K0@Z@Z 100704c0 f i libucrtd:exit.obj
 0001:0006f4f0       ??$__crt_get_proc_address@P6GXI@Z@@YAP6GXI@ZQAUHINSTANCE__@@QBD@Z 100704f0 f i libucrtd:exit.obj
 0001:0006f580       ??0?$__crt_unique_handle_t@U__crt_hmodule_traits@@@@QAE@QAUHINSTANCE__@@@Z 10070580 f i libucrtd:exit.obj
 0001:0006f5a0       ??1?$__crt_unique_handle_t@U__crt_hmodule_traits@@@@QAE@XZ 100705a0 f i libucrtd:exit.obj
 0001:0006f760       ?__acrt_select_exit_lock@@YA?AW4__acrt_lock_id@@XZ 10070760 f i libucrtd:exit.obj
 0001:0006f770       ?__crt_fast_encode_pointer@@YA?AU__crt_fast_encoded_nullptr_t@@$$T@Z 10070770 f i libucrtd:exit.obj
 0001:0006f7a0       ?close@?$__crt_unique_handle_t@U__crt_hmodule_traits@@@@QAEXXZ 100707a0 f i libucrtd:exit.obj
 0001:0006f7e0       ?close@__crt_hmodule_traits@@SA_NPAUHINSTANCE__@@@Z 100707e0 f i libucrtd:exit.obj
 0001:0006f8d0       ?get@?$__crt_unique_handle_t@U__crt_hmodule_traits@@@@QBEPAUHINSTANCE__@@XZ 100708d0 f i libucrtd:exit.obj
 0001:0006f8f0       ?get_address_of@?$__crt_unique_handle_t@U__crt_hmodule_traits@@@@QAEPAPAUHINSTANCE__@@XZ 100708f0 f i libucrtd:exit.obj
 0001:0006f900       ?get_invalid_value@__crt_hmodule_traits@@SAPAUHINSTANCE__@@XZ 10070900 f i libucrtd:exit.obj
 0001:0006fa80       __Exit                     10070a80 f   libucrtd:exit.obj
 0001:0006faa0       ___acrt_initialize_thread_local_exit_callback 10070aa0 f   libucrtd:exit.obj
 0001:0006fab0       __c_exit                   10070ab0 f   libucrtd:exit.obj
 0001:0006fad0       __cexit                    10070ad0 f   libucrtd:exit.obj
 0001:0006faf0       __exit                     10070af0 f   libucrtd:exit.obj
 0001:0006fb10       __is_c_termination_complete 10070b10 f   libucrtd:exit.obj
 0001:0006fb30       __register_thread_local_exe_atexit_callback 10070b30 f   libucrtd:exit.obj
 0001:0006fb70       _exit                      10070b70 f   libucrtd:exit.obj
 0001:0006fb90       _quick_exit                10070b90 f   libucrtd:exit.obj
 0001:0006fbb0       ??$?RE@__crt_internal_free_policy@@QBEXQBE@Z 10070bb0 f i libucrtd:argv_parsing.obj
 0001:0006fbd0       ??$?RPAD@__crt_internal_free_policy@@QBEXQBQAD@Z 10070bd0 f i libucrtd:argv_parsing.obj
 0001:0006fbf0       ??$?RPA_W@__crt_internal_free_policy@@QBEXQBQA_W@Z 10070bf0 f i libucrtd:argv_parsing.obj
 0001:00070150       ??$get_module_file_name@$$TAAY0BAF@DH@?$__crt_char_traits@D@@SAK$$QA$$TAAY0BAF@D$$QAH@Z 10071150 f i libucrtd:argv_parsing.obj
 0001:00070170       ??$get_module_file_name@$$TAAY0BAF@_WH@?$__crt_char_traits@_W@@SAK$$QA$$TAAY0BAF@_W$$QAH@Z 10071170 f i libucrtd:argv_parsing.obj
 0001:00070890       ??$set_program_name@PAD@?$__crt_char_traits@D@@SAX$$QAPAD@Z 10071890 f i libucrtd:argv_parsing.obj
 0001:000708b0       ??$set_program_name@PA_W@?$__crt_char_traits@_W@@SAX$$QAPA_W@Z 100718b0 f i libucrtd:argv_parsing.obj
 0001:00070910       ??0?$__crt_unique_heap_ptr@EU__crt_internal_free_policy@@@@QAE@QAE@Z 10071910 f i libucrtd:argv_parsing.obj
 0001:00070930       ??0?$__crt_unique_heap_ptr@PADU__crt_internal_free_policy@@@@QAE@QAPAD@Z 10071930 f i libucrtd:argv_parsing.obj
 0001:00070950       ??0?$__crt_unique_heap_ptr@PA_WU__crt_internal_free_policy@@@@QAE@QAPA_W@Z 10071950 f i libucrtd:argv_parsing.obj
 0001:00070970       ??1?$__crt_unique_heap_ptr@EU__crt_internal_free_policy@@@@QAE@XZ 10071970 f i libucrtd:argv_parsing.obj
 0001:00070990       ??1?$__crt_unique_heap_ptr@PADU__crt_internal_free_policy@@@@QAE@XZ 10071990 f i libucrtd:argv_parsing.obj
 0001:000709b0       ??1?$__crt_unique_heap_ptr@PA_WU__crt_internal_free_policy@@@@QAE@XZ 100719b0 f i libucrtd:argv_parsing.obj
 0001:000709d0       ??B?$__crt_unique_heap_ptr@EU__crt_internal_free_policy@@@@QBE_NXZ 100719d0 f i libucrtd:argv_parsing.obj
 0001:00070a90       ?detach@?$__crt_unique_heap_ptr@EU__crt_internal_free_policy@@@@QAEPAEXZ 10071a90 f i libucrtd:argv_parsing.obj
 0001:00070ac0       ?detach@?$__crt_unique_heap_ptr@PADU__crt_internal_free_policy@@@@QAEPAPADXZ 10071ac0 f i libucrtd:argv_parsing.obj
 0001:00070af0       ?detach@?$__crt_unique_heap_ptr@PA_WU__crt_internal_free_policy@@@@QAEPAPA_WXZ 10071af0 f i libucrtd:argv_parsing.obj
 0001:00070b80       ?get@?$__crt_unique_heap_ptr@EU__crt_internal_free_policy@@@@QBEPAEXZ 10071b80 f i libucrtd:argv_parsing.obj
 0001:00070ba0       ?get@?$__crt_unique_heap_ptr@PADU__crt_internal_free_policy@@@@QBEPAPADXZ 10071ba0 f i libucrtd:argv_parsing.obj
 0001:00070bc0       ?get@?$__crt_unique_heap_ptr@PA_WU__crt_internal_free_policy@@@@QBEPAPA_WXZ 10071bc0 f i libucrtd:argv_parsing.obj
 0001:00070be0       ?get_address_of@?$__crt_unique_heap_ptr@PADU__crt_internal_free_policy@@@@QAEPAPAPADXZ 10071be0 f i libucrtd:argv_parsing.obj
 0001:00070bf0       ?get_address_of@?$__crt_unique_heap_ptr@PA_WU__crt_internal_free_policy@@@@QAEPAPAPA_WXZ 10071bf0 f i libucrtd:argv_parsing.obj
 0001:00070c40       ?is_valid@?$__crt_unique_heap_ptr@EU__crt_internal_free_policy@@@@QBE_NXZ 10071c40 f i libucrtd:argv_parsing.obj
 0001:00070c70       ?release@?$__crt_unique_heap_ptr@EU__crt_internal_free_policy@@@@QAEXXZ 10071c70 f i libucrtd:argv_parsing.obj
 0001:00070ca0       ?release@?$__crt_unique_heap_ptr@PADU__crt_internal_free_policy@@@@QAEXXZ 10071ca0 f i libucrtd:argv_parsing.obj
 0001:00070cd0       ?release@?$__crt_unique_heap_ptr@PA_WU__crt_internal_free_policy@@@@QAEXXZ 10071cd0 f i libucrtd:argv_parsing.obj
 0001:00070d40       ___acrt_allocate_buffer_for_argv 10071d40 f   libucrtd:argv_parsing.obj
 0001:00070e00       __configure_narrow_argv    10071e00 f   libucrtd:argv_parsing.obj
 0001:00070e20       __configure_wide_argv      10071e20 f   libucrtd:argv_parsing.obj
 0001:00070e40       __set_pgmptr               10071e40 f i libucrtd:argv_parsing.obj
 0001:00070e50       __set_wpgmptr              10071e50 f i libucrtd:argv_parsing.obj
 0001:00070e5f       ??$?R_W@__crt_internal_free_policy@@QBEXQB_W@Z 10071e5f f i libucrtd:environment_initialization.obj
 0001:000712c8       ??$get_environment_from_os@$$V@?$__crt_char_traits@D@@SAPADXZ 100722c8 f i libucrtd:environment_initialization.obj
 0001:000712cd       ??$get_environment_from_os@$$V@?$__crt_char_traits@_W@@SAPA_WXZ 100722cd f i libucrtd:environment_initialization.obj
 0001:000713f6       ??$set_variable_in_environment_nolock@PADH@?$__crt_char_traits@D@@SAH$$QAPAD$$QAH@Z 100723f6 f i libucrtd:environment_initialization.obj
 0001:0007140e       ??$set_variable_in_environment_nolock@PA_WH@?$__crt_char_traits@_W@@SAH$$QAPA_W$$QAH@Z 1007240e f i libucrtd:environment_initialization.obj
 0001:00071426       ??$tcscpy_s@PADABIAAPAD@?$__crt_char_traits@D@@SAH$$QAPADABIAAPAD@Z 10072426 f i libucrtd:environment_initialization.obj
 0001:00071444       ??$tcscpy_s@PA_WABIAAPA_W@?$__crt_char_traits@_W@@SAH$$QAPA_WABIAAPA_W@Z 10072444 f i libucrtd:environment_initialization.obj
 0001:00071462       ??$tcslen@AAPAD@?$__crt_char_traits@D@@SAIAAPAD@Z 10072462 f i libucrtd:environment_initialization.obj
 0001:0007147a       ??$tcslen@AAPA_W@?$__crt_char_traits@_W@@SAIAAPA_W@Z 1007247a f i libucrtd:environment_initialization.obj
 0001:00071498       ??$uninitialize@A6AXAAPAPAD@Z@?$dual_state_global@PAPAD@__crt_state_management@@QAEXA6AXAAPAPAD@Z@Z 10072498 f i libucrtd:environment_initialization.obj
 0001:000714c1       ??$uninitialize@A6AXAAPAPA_W@Z@?$dual_state_global@PAPA_W@__crt_state_management@@QAEXA6AXAAPAPA_W@Z@Z 100724c1 f i libucrtd:environment_initialization.obj
 0001:00071520       ??0?$__crt_unique_heap_ptr@_WU__crt_internal_free_policy@@@@QAE@QA_W@Z 10072520 f i libucrtd:environment_initialization.obj
 0001:00071530       ??1?$__crt_unique_heap_ptr@_WU__crt_internal_free_policy@@@@QAE@XZ 10072530 f i libucrtd:environment_initialization.obj
 0001:00071545       ??B?$__crt_unique_heap_ptr@PADU__crt_internal_free_policy@@@@QBE_NXZ 10072545 f i libucrtd:environment_initialization.obj
 0001:0007154c       ??B?$__crt_unique_heap_ptr@PA_WU__crt_internal_free_policy@@@@QBE_NXZ 1007254c f i libucrtd:environment_initialization.obj
 0001:00071553       ??B?$__crt_unique_heap_ptr@_WU__crt_internal_free_policy@@@@QBE_NXZ 10072553 f i libucrtd:environment_initialization.obj
 0001:0007155a       ?__crt_compute_required_transform_buffer_count@@YAIIQBD@Z 1007255a f i libucrtd:environment_initialization.obj
 0001:00071576       ?__crt_compute_required_transform_buffer_count@@YAIIQB_W@Z 10072576 f i libucrtd:environment_initialization.obj
 0001:00071594       ?__crt_transform_string@@YAIIQBDQA_WI@Z 10072594 f i libucrtd:environment_initialization.obj
 0001:000715b3       ?__crt_transform_string@@YAIIQB_WQADI@Z 100725b3 f i libucrtd:environment_initialization.obj
 0001:000715d5       ?detach@?$__crt_unique_heap_ptr@DU__crt_internal_free_policy@@@@QAEPADXZ 100725d5 f i libucrtd:environment_initialization.obj
 0001:000715db       ?detach@?$__crt_unique_heap_ptr@_WU__crt_internal_free_policy@@@@QAEPA_WXZ 100725db f i libucrtd:environment_initialization.obj
 0001:000715e1       ?get@?$__crt_unique_heap_ptr@_WU__crt_internal_free_policy@@@@QBEPA_WXZ 100725e1 f i libucrtd:environment_initialization.obj
 0001:00071608       ?initialize@?$dual_state_global@PAPAD@__crt_state_management@@QAEXQAPAD@Z 10072608 f i libucrtd:environment_initialization.obj
 0001:0007162e       ?initialize@?$dual_state_global@PAPA_W@__crt_state_management@@QAEXQAPA_W@Z 1007262e f i libucrtd:environment_initialization.obj
 0001:00071654       ?is_valid@?$__crt_unique_heap_ptr@PADU__crt_internal_free_policy@@@@QBE_NXZ 10072654 f i libucrtd:environment_initialization.obj
 0001:0007165b       ?is_valid@?$__crt_unique_heap_ptr@PA_WU__crt_internal_free_policy@@@@QBE_NXZ 1007265b f i libucrtd:environment_initialization.obj
 0001:00071662       ?is_valid@?$__crt_unique_heap_ptr@_WU__crt_internal_free_policy@@@@QBE_NXZ 10072662 f i libucrtd:environment_initialization.obj
 0001:00071671       ?release@?$__crt_unique_heap_ptr@_WU__crt_internal_free_policy@@@@QAEXXZ 10072671 f i libucrtd:environment_initialization.obj
 0001:00071686       ?value@?$dual_state_global@PAPAD@__crt_state_management@@QAEAAPAPADXZ 10072686 f i libucrtd:environment_initialization.obj
 0001:00071689       ?value@?$dual_state_global@PAPA_W@__crt_state_management@@QAEAAPAPA_WXZ 10072689 f i libucrtd:environment_initialization.obj
 0001:0007168c       ___dcrt_get_or_create_narrow_environment_nolock 1007268c f   libucrtd:environment_initialization.obj
 0001:00071691       ___dcrt_get_or_create_wide_environment_nolock 10072691 f   libucrtd:environment_initialization.obj
 0001:00071696       ___dcrt_uninitialize_environments_nolock 10072696 f   libucrtd:environment_initialization.obj
 0001:000716cd       ___p__environ              100726cd f   libucrtd:environment_initialization.obj
 0001:000716d3       ___p__wenviron             100726d3 f   libucrtd:environment_initialization.obj
 0001:000716d9       __get_initial_narrow_environment 100726d9 f   libucrtd:environment_initialization.obj
 0001:000716ed       __get_initial_wide_environment 100726ed f   libucrtd:environment_initialization.obj
 0001:00071701       __initialize_narrow_environment 10072701 f   libucrtd:environment_initialization.obj
 0001:00071706       __initialize_wide_environment 10072706 f   libucrtd:environment_initialization.obj
 0001:00071710       ??$?B$$A6AXXZ@__crt_fast_encoded_nullptr_t@@QBEP6AXXZXZ 10072710 f i libucrtd:onexit.obj
 0001:00071730       ??$?BP6AXXZ@__crt_fast_encoded_nullptr_t@@QBEPAP6AXXZXZ 10072730 f i libucrtd:onexit.obj
 0001:00071750       ??$?RP6AXXZ@__crt_internal_free_policy@@QBEXQBQ6AXXZ@Z 10072750 f i libucrtd:onexit.obj
 0001:00071910       ??$__crt_fast_decode_pointer@P6AXXZ@@YAP6AXXZQ6AXXZ@Z 10072910 f i libucrtd:onexit.obj
 0001:00071940       ??$__crt_fast_decode_pointer@PAP6AXXZ@@YAPAP6AXXZQAP6AXXZ@Z 10072940 f i libucrtd:onexit.obj
 0001:00071970       ??$__crt_fast_encode_pointer@P6AHXZ@@YAP6AHXZQ6AHXZ@Z 10072970 f i libucrtd:onexit.obj
 0001:000719a0       ??$__crt_fast_encode_pointer@P6AXXZ@@YAP6AXXZQ6AXXZ@Z 100729a0 f i libucrtd:onexit.obj
 0001:000719d0       ??$__crt_fast_encode_pointer@PAP6AXXZ@@YAPAP6AXXZQAP6AXXZ@Z 100729d0 f i libucrtd:onexit.obj
 0001:00071ad0       ??0?$__crt_unique_heap_ptr@P6AXXZU__crt_internal_free_policy@@@@QAE@QAP6AXXZ@Z 10072ad0 f i libucrtd:onexit.obj
 0001:00071af0       ??1?$__crt_unique_heap_ptr@P6AXXZU__crt_internal_free_policy@@@@QAE@XZ 10072af0 f i libucrtd:onexit.obj
 0001:00071b10       ??1scoped_global_state_reset@__crt_state_management@@QAE@XZ 10072b10 f i libucrtd:onexit.obj
 0001:00071f80       ?detach@?$__crt_unique_heap_ptr@P6AXXZU__crt_internal_free_policy@@@@QAEPAP6AXXZXZ 10072f80 f i libucrtd:onexit.obj
 0001:00071fb0       ?release@?$__crt_unique_heap_ptr@P6AXXZU__crt_internal_free_policy@@@@QAEXXZ 10072fb0 f i libucrtd:onexit.obj
 0001:00071fe0       __crt_at_quick_exit        10072fe0 f   libucrtd:onexit.obj
 0001:00072000       __crt_atexit               10073000 f   libucrtd:onexit.obj
 0001:00072020       __execute_onexit_table     10073020 f   libucrtd:onexit.obj
 0001:00072050       __initialize_onexit_table  10073050 f   libucrtd:onexit.obj
 0001:000720b0       __register_onexit_function 100730b0 f   libucrtd:onexit.obj
 0001:000722f0       ??$?BX@__crt_fast_encoded_nullptr_t@@QBEPAXXZ 100732f0 f i libucrtd:initialization.obj
 0001:00072310       ??$__crt_fast_encode_pointer@PAX@@YAPAXQAX@Z 10073310 f i libucrtd:initialization.obj
 0001:000723d0       ?initialize@?$dual_state_global@PAU__crt_locale_data@@@__crt_state_management@@QAEXQAU__crt_locale_data@@@Z 100733d0 f i libucrtd:initialization.obj
 0001:00072410       ___acrt_initialize         10073410 f   libucrtd:initialization.obj
 0001:00072430       ___acrt_thread_attach      10073430 f   libucrtd:initialization.obj
 0001:00072450       ___acrt_thread_detach      10073450 f   libucrtd:initialization.obj
 0001:00072460       ___acrt_uninitialize       10073460 f   libucrtd:initialization.obj
 0001:00072480       ___acrt_uninitialize_critical 10073480 f   libucrtd:initialization.obj
 0001:00073cf0       __CrtCheckMemory           10074cf0 f   libucrtd:debug_heap.obj
 0001:00073e80       __CrtDoForAllClientObjects 10074e80 f   libucrtd:debug_heap.obj
 0001:00073fd0       __CrtDumpMemoryLeaks       10074fd0 f   libucrtd:debug_heap.obj
 0001:00074070       __CrtGetAllocHook          10075070 f   libucrtd:debug_heap.obj
 0001:00074080       __CrtGetDumpClient         10075080 f   libucrtd:debug_heap.obj
 0001:00074090       __CrtIsMemoryBlock         10075090 f   libucrtd:debug_heap.obj
 0001:000741e0       __CrtIsValidHeapPointer    100751e0 f   libucrtd:debug_heap.obj
 0001:00074210       __CrtIsValidPointer        10075210 f   libucrtd:debug_heap.obj
 0001:00074240       __CrtMemCheckpoint         10075240 f   libucrtd:debug_heap.obj
 0001:00074470       __CrtMemDifference         10075470 f   libucrtd:debug_heap.obj
 0001:000746e0       __CrtMemDumpAllObjectsSince 100756e0 f   libucrtd:debug_heap.obj
 0001:00074780       __CrtMemDumpStatistics     10075780 f   libucrtd:debug_heap.obj
 0001:000748b0       __CrtReportBlockType       100758b0 f   libucrtd:debug_heap.obj
 0001:000748e0       __CrtSetAllocHook          100758e0 f   libucrtd:debug_heap.obj
 0001:00074900       __CrtSetBreakAlloc         10075900 f   libucrtd:debug_heap.obj
 0001:00074920       __CrtSetDbgBlockType       10075920 f   libucrtd:debug_heap.obj
 0001:00074a00       __CrtSetDbgFlag            10075a00 f   libucrtd:debug_heap.obj
 0001:00074b70       __CrtSetDumpClient         10075b70 f   libucrtd:debug_heap.obj
 0001:00074b90       ___p__crtBreakAlloc        10075b90 f   libucrtd:debug_heap.obj
 0001:00074ba0       ___p__crtDbgFlag           10075ba0 f   libucrtd:debug_heap.obj
 0001:00074bb0       __aligned_free_dbg         10075bb0 f   libucrtd:debug_heap.obj
 0001:00074c60       __aligned_malloc_dbg       10075c60 f   libucrtd:debug_heap.obj
 0001:00074c90       __aligned_msize_dbg        10075c90 f   libucrtd:debug_heap.obj
 0001:00074dc0       __aligned_offset_malloc_dbg 10075dc0 f   libucrtd:debug_heap.obj
 0001:00074fa0       __aligned_offset_realloc_dbg 10075fa0 f   libucrtd:debug_heap.obj
 0001:000752b0       __aligned_offset_recalloc_dbg 100762b0 f   libucrtd:debug_heap.obj
 0001:00075370       __aligned_realloc_dbg      10076370 f   libucrtd:debug_heap.obj
 0001:000753a0       __aligned_recalloc_dbg     100763a0 f   libucrtd:debug_heap.obj
 0001:000753d0       __calloc_dbg               100763d0 f   libucrtd:debug_heap.obj
 0001:00075440       __expand_dbg               10076440 f   libucrtd:debug_heap.obj
 0001:00075570       __free_dbg                 10076570 f   libucrtd:debug_heap.obj
 0001:00075620       __malloc_dbg               10076620 f   libucrtd:debug_heap.obj
 0001:00075640       __msize_dbg                10076640 f   libucrtd:debug_heap.obj
 0001:000757d0       __realloc_dbg              100767d0 f   libucrtd:debug_heap.obj
 0001:00075870       __recalloc_dbg             10076870 f   libucrtd:debug_heap.obj
 0001:00075920       __initterm                 10076920 f   libucrtd:initterm.obj
 0001:00075970       __initterm_e               10076970 f   libucrtd:initterm.obj
 0001:00075ce0       _strcpy_s                  10076ce0 f   libucrtd:strcpy_s.obj
 0001:00076110       _strcat_s                  10077110 f   libucrtd:strcat_s.obj
 0001:00076130       ??$?B$$A6AHI@Z@__crt_fast_encoded_nullptr_t@@QBEP6AHI@ZXZ 10077130 f i libucrtd:new_handler.obj
 0001:00076150       ??$__crt_fast_decode_pointer@P6AHI@Z@@YAP6AHI@ZQ6AHI@Z@Z 10077150 f i libucrtd:new_handler.obj
 0001:00076180       ??$__crt_fast_encode_pointer@P6AHI@Z@@YAP6AHI@ZQ6AHI@Z@Z 10077180 f i libucrtd:new_handler.obj
 0001:000761b0       ?_set_new_handler@@YAP6AHI@ZH@Z 100771b0 f   libucrtd:new_handler.obj
 0001:00076210       ?initialize@?$dual_state_global@P6AHI@Z@__crt_state_management@@QAEXQ6AHI@Z@Z 10077210 f i libucrtd:new_handler.obj
 0001:00076250       ?value@?$dual_state_global@P6AHI@Z@__crt_state_management@@QAEAAP6AHI@ZXZ 10077250 f i libucrtd:new_handler.obj
 0001:00076270       ___acrt_initialize_new_handler 10077270 f   libucrtd:new_handler.obj
 0001:00076290       __callnewh                 10077290 f   libucrtd:new_handler.obj
 0001:000762d0       __query_new_handler        100772d0 f   libucrtd:new_handler.obj
 0001:00076360       __set_new_handler          10077360 f   libucrtd:new_handler.obj
 0001:00076440       __get_terminate            10077440 f   libucrtd:terminate.obj
 0001:00076460       _set_terminate             10077460 f   libucrtd:terminate.obj
 0001:00076490       _terminate                 10077490 f   libucrtd:terminate.obj
 0001:00076e60       __makepath                 10077e60 f   libucrtd:makepath.obj
 0001:00076e90       __makepath_s               10077e90 f   libucrtd:makepath.obj
 0001:00076ec0       __wmakepath                10077ec0 f   libucrtd:makepath.obj
 0001:00076ef0       __wmakepath_s              10077ef0 f   libucrtd:makepath.obj
 0001:00078840       ??$tcsncpy_s@AAPADIAAPBDABI@?$__crt_char_traits@D@@SAHAAPAD$$QAIAAPBDABI@Z 10079840 f i libucrtd:splitpath.obj
 0001:00078870       ??$tcsncpy_s@AAPADIAAPBDH@?$__crt_char_traits@D@@SAHAAPAD$$QAIAAPBD$$QAH@Z 10079870 f i libucrtd:splitpath.obj
 0001:000788a0       ??$tcsncpy_s@AAPA_WIAAPB_WABI@?$__crt_char_traits@_W@@SAHAAPA_W$$QAIAAPB_WABI@Z 100798a0 f i libucrtd:splitpath.obj
 0001:000788d0       ??$tcsncpy_s@AAPA_WIAAPB_WH@?$__crt_char_traits@_W@@SAHAAPA_W$$QAIAAPB_W$$QAH@Z 100798d0 f i libucrtd:splitpath.obj
 0001:00078b10       __splitpath                10079b10 f   libucrtd:splitpath.obj
 0001:00078b40       __splitpath_s              10079b40 f   libucrtd:splitpath.obj
 0001:00078b90       __wsplitpath               10079b90 f   libucrtd:splitpath.obj
 0001:00078bc0       __wsplitpath_s             10079bc0 f   libucrtd:splitpath.obj
 0001:00078c10       __set_abort_behavior       10079c10 f   libucrtd:abort.obj
 0001:00078c40       _abort                     10079c40 f   libucrtd:abort.obj
 0001:00078cb0       _strcmp                    10079cb0 f   libucrtd:strcmp.obj
 0001:00078d40       _strlen                    10079d40 f   libucrtd:strlen.obj
 0001:00078dd0       ??$is_overflow_condition@K@__crt_strtox@@YA_NIK@Z 10079dd0 f i libucrtd:atox.obj
 0001:00078e30       ??$is_overflow_condition@_K@__crt_strtox@@YA_NI_K@Z 10079e30 f i libucrtd:atox.obj
 0001:00078ec0       ??$make_c_string_character_source@D$$T@__crt_strtox@@YA?AV?$c_string_character_source@D@0@QBD$$T@Z 10079ec0 f i libucrtd:atox.obj
 0001:00078ee0       ??$make_c_string_character_source@_W$$T@__crt_strtox@@YA?AV?$c_string_character_source@_W@0@QB_W$$T@Z 10079ee0 f i libucrtd:atox.obj
 0001:00078f00       ??$parse_integer@KV?$c_string_character_source@D@__crt_strtox@@@__crt_strtox@@YAKQAU__crt_locale_pointers@@V?$c_string_character_source@D@0@H_N@Z 10079f00 f i libucrtd:atox.obj
 0001:00079270       ??$parse_integer@KV?$c_string_character_source@_W@__crt_strtox@@@__crt_strtox@@YAKQAU__crt_locale_pointers@@V?$c_string_character_source@_W@0@H_N@Z 1007a270 f i libucrtd:atox.obj
 0001:000795e0       ??$parse_integer@_KV?$c_string_character_source@D@__crt_strtox@@@__crt_strtox@@YA_KQAU__crt_locale_pointers@@V?$c_string_character_source@D@0@H_N@Z 1007a5e0 f i libucrtd:atox.obj
 0001:00079a00       ??$parse_integer@_KV?$c_string_character_source@_W@__crt_strtox@@@__crt_strtox@@YA_KQAU__crt_locale_pointers@@V?$c_string_character_source@_W@0@H_N@Z 1007aa00 f i libucrtd:atox.obj
 0001:00079e30       ??$parse_integer_from_string@JD$$T@__crt_strtox@@YAJQBD$$THQAU__crt_locale_pointers@@@Z 1007ae30 f i libucrtd:atox.obj
 0001:00079e70       ??$parse_integer_from_string@J_W$$T@__crt_strtox@@YAJQB_W$$THQAU__crt_locale_pointers@@@Z 1007ae70 f i libucrtd:atox.obj
 0001:00079eb0       ??$parse_integer_from_string@_JD$$T@__crt_strtox@@YA_JQBD$$THQAU__crt_locale_pointers@@@Z 1007aeb0 f i libucrtd:atox.obj
 0001:00079ef0       ??$parse_integer_from_string@_J_W$$T@__crt_strtox@@YA_JQB_W$$THQAU__crt_locale_pointers@@@Z 1007aef0 f i libucrtd:atox.obj
 0001:00079f30       ??0?$c_string_character_source@D@__crt_strtox@@QAE@QBDQAPBD@Z 1007af30 f i libucrtd:atox.obj
 0001:00079f70       ??0?$c_string_character_source@_W@__crt_strtox@@QAE@QB_WQAPB_W@Z 1007af70 f i libucrtd:atox.obj
 0001:00079fb0       ??1?$c_string_character_source@D@__crt_strtox@@QAE@XZ 1007afb0 f i libucrtd:atox.obj
 0001:00079fe0       ??1?$c_string_character_source@_W@__crt_strtox@@QAE@XZ 1007afe0 f i libucrtd:atox.obj
 0001:0007a010       ?get@?$c_string_character_source@D@__crt_strtox@@QAEDXZ 1007b010 f i libucrtd:atox.obj
 0001:0007a040       ?get@?$c_string_character_source@_W@__crt_strtox@@QAE_WXZ 1007b040 f i libucrtd:atox.obj
 0001:0007a070       ?is_space@__crt_strtox@@YA_NDQAU__crt_locale_pointers@@@Z 1007b070 f i libucrtd:atox.obj
 0001:0007a0b0       ?is_space@__crt_strtox@@YA_N_WPAU__crt_locale_pointers@@@Z 1007b0b0 f i libucrtd:atox.obj
 0001:0007a0e0       ?maximum_signed_value@__crt_strtox@@YAJK@Z 1007b0e0 f i libucrtd:atox.obj
 0001:0007a0f0       ?maximum_signed_value@__crt_strtox@@YA_J_K@Z 1007b0f0 f i libucrtd:atox.obj
 0001:0007a100       ?minimum_signed_value@__crt_strtox@@YAJK@Z 1007b100 f i libucrtd:atox.obj
 0001:0007a110       ?minimum_signed_value@__crt_strtox@@YA_J_K@Z 1007b110 f i libucrtd:atox.obj
 0001:0007a120       ?parse_digit@__crt_strtox@@YAID@Z 1007b120 f i libucrtd:atox.obj
 0001:0007a180       ?parse_digit@__crt_strtox@@YAI_W@Z 1007b180 f i libucrtd:atox.obj
 0001:0007a1d0       ?restore_state@?$c_string_character_source@D@__crt_strtox@@QAE_NQBD@Z 1007b1d0 f i libucrtd:atox.obj
 0001:0007a1f0       ?restore_state@?$c_string_character_source@_W@__crt_strtox@@QAE_NQB_W@Z 1007b1f0 f i libucrtd:atox.obj
 0001:0007a210       ?save_state@?$c_string_character_source@D@__crt_strtox@@QBEPBDXZ 1007b210 f i libucrtd:atox.obj
 0001:0007a230       ?save_state@?$c_string_character_source@_W@__crt_strtox@@QBEPB_WXZ 1007b230 f i libucrtd:atox.obj
 0001:0007a250       ?unget@?$c_string_character_source@D@__crt_strtox@@QAEXD@Z 1007b250 f i libucrtd:atox.obj
 0001:0007a300       ?unget@?$c_string_character_source@_W@__crt_strtox@@QAEX_W@Z 1007b300 f i libucrtd:atox.obj
 0001:0007a3b0       ?validate@?$c_string_character_source@D@__crt_strtox@@QBE_NXZ 1007b3b0 f i libucrtd:atox.obj
 0001:0007a440       ?validate@?$c_string_character_source@_W@__crt_strtox@@QBE_NXZ 1007b440 f i libucrtd:atox.obj
 0001:0007a4d0       ?wide_character_to_digit@__crt_strtox@@YAH_W@Z 1007b4d0 f i libucrtd:atox.obj
 0001:0007a800       ___ascii_iswalpha          1007b800 f i libucrtd:atox.obj
 0001:0007a840       ___ascii_toupper           1007b840 f i libucrtd:atox.obj
 0001:0007a860       ___ascii_towupper          1007b860 f i libucrtd:atox.obj
 0001:0007a880       __atoi64                   1007b880 f   libucrtd:atox.obj
 0001:0007a8a0       __atoi64_l                 1007b8a0 f   libucrtd:atox.obj
 0001:0007a8c0       __atoi_l                   1007b8c0 f   libucrtd:atox.obj
 0001:0007a8e0       __atol_l                   1007b8e0 f   libucrtd:atox.obj
 0001:0007a900       __atoll_l                  1007b900 f   libucrtd:atox.obj
 0001:0007a920       __wtoi                     1007b920 f   libucrtd:atox.obj
 0001:0007a940       __wtoi64                   1007b940 f   libucrtd:atox.obj
 0001:0007a960       __wtoi64_l                 1007b960 f   libucrtd:atox.obj
 0001:0007a980       __wtoi_l                   1007b980 f   libucrtd:atox.obj
 0001:0007a9a0       __wtol                     1007b9a0 f   libucrtd:atox.obj
 0001:0007a9c0       __wtol_l                   1007b9c0 f   libucrtd:atox.obj
 0001:0007a9e0       __wtoll                    1007b9e0 f   libucrtd:atox.obj
 0001:0007aa00       __wtoll_l                  1007ba00 f   libucrtd:atox.obj
 0001:0007aa20       _atoi                      1007ba20 f   libucrtd:atox.obj
 0001:0007aa40       _atol                      1007ba40 f   libucrtd:atox.obj
 0001:0007aa60       _atoll                     1007ba60 f   libucrtd:atox.obj
 0001:0007aa80       _strncmp                   1007ba80 f   libucrtd:strncmp.obj
 0001:0007ab00       _wcsncmp                   1007bb00 f   libucrtd:wcsncmp.obj
 0001:0007ab60       __CrtGetDebugFillThreshold 1007bb60 f   libucrtd:debug_fill_threshold.obj
 0001:0007ab70       __CrtSetDebugFillThreshold 1007bb70 f   libucrtd:debug_fill_threshold.obj
 0001:0007ab90       ??$make_c_string_character_source@DPAPAD@__crt_strtox@@YA?AV?$c_string_character_source@D@0@QBDQAPAD@Z 1007bb90 f i libucrtd:strtox.obj
 0001:0007abb0       ??$make_c_string_character_source@_WPAPA_W@__crt_strtox@@YA?AV?$c_string_character_source@_W@0@QB_WQAPA_W@Z 1007bbb0 f i libucrtd:strtox.obj
 0001:0007abd0       ??$parse_integer_from_string@JDPAPAD@__crt_strtox@@YAJQBDQAPADHQAU__crt_locale_pointers@@@Z 1007bbd0 f i libucrtd:strtox.obj
 0001:0007ac10       ??$parse_integer_from_string@J_WPAPA_W@__crt_strtox@@YAJQB_WQAPA_WHQAU__crt_locale_pointers@@@Z 1007bc10 f i libucrtd:strtox.obj
 0001:0007ac50       ??$parse_integer_from_string@KDPAPAD@__crt_strtox@@YAKQBDQAPADHQAU__crt_locale_pointers@@@Z 1007bc50 f i libucrtd:strtox.obj
 0001:0007ac90       ??$parse_integer_from_string@K_WPAPA_W@__crt_strtox@@YAKQB_WQAPA_WHQAU__crt_locale_pointers@@@Z 1007bc90 f i libucrtd:strtox.obj
 0001:0007acd0       ??$parse_integer_from_string@_JDPAPAD@__crt_strtox@@YA_JQBDQAPADHQAU__crt_locale_pointers@@@Z 1007bcd0 f i libucrtd:strtox.obj
 0001:0007ad10       ??$parse_integer_from_string@_J_WPAPA_W@__crt_strtox@@YA_JQB_WQAPA_WHQAU__crt_locale_pointers@@@Z 1007bd10 f i libucrtd:strtox.obj
 0001:0007ad50       ??$parse_integer_from_string@_KDPAPAD@__crt_strtox@@YA_KQBDQAPADHQAU__crt_locale_pointers@@@Z 1007bd50 f i libucrtd:strtox.obj
 0001:0007ad90       ??$parse_integer_from_string@_K_WPAPA_W@__crt_strtox@@YA_KQB_WQAPA_WHQAU__crt_locale_pointers@@@Z 1007bd90 f i libucrtd:strtox.obj
 0001:0007add0       __strtoi64                 1007bdd0 f   libucrtd:strtox.obj
 0001:0007adf0       __strtoi64_l               1007bdf0 f   libucrtd:strtox.obj
 0001:0007ae10       __strtoimax_l              1007be10 f   libucrtd:strtox.obj
 0001:0007ae30       __strtol_l                 1007be30 f   libucrtd:strtox.obj
 0001:0007ae50       __strtoll_l                1007be50 f   libucrtd:strtox.obj
 0001:0007ae70       __strtoui64                1007be70 f   libucrtd:strtox.obj
 0001:0007ae90       __strtoui64_l              1007be90 f   libucrtd:strtox.obj
 0001:0007aeb0       __strtoul_l                1007beb0 f   libucrtd:strtox.obj
 0001:0007aed0       __strtoull_l               1007bed0 f   libucrtd:strtox.obj
 0001:0007aef0       __strtoumax_l              1007bef0 f   libucrtd:strtox.obj
 0001:0007af10       __wcstoi64                 1007bf10 f   libucrtd:strtox.obj
 0001:0007af30       __wcstoi64_l               1007bf30 f   libucrtd:strtox.obj
 0001:0007af50       __wcstoimax_l              1007bf50 f   libucrtd:strtox.obj
 0001:0007af70       __wcstol_l                 1007bf70 f   libucrtd:strtox.obj
 0001:0007af90       __wcstoll_l                1007bf90 f   libucrtd:strtox.obj
 0001:0007afb0       __wcstoui64                1007bfb0 f   libucrtd:strtox.obj
 0001:0007afd0       __wcstoui64_l              1007bfd0 f   libucrtd:strtox.obj
 0001:0007aff0       __wcstoul_l                1007bff0 f   libucrtd:strtox.obj
 0001:0007b010       __wcstoull_l               1007c010 f   libucrtd:strtox.obj
 0001:0007b030       __wcstoumax_l              1007c030 f   libucrtd:strtox.obj
 0001:0007b050       _strtoimax                 1007c050 f   libucrtd:strtox.obj
 0001:0007b070       _strtol                    1007c070 f   libucrtd:strtox.obj
 0001:0007b090       _strtoll                   1007c090 f   libucrtd:strtox.obj
 0001:0007b0b0       _strtoul                   1007c0b0 f   libucrtd:strtox.obj
 0001:0007b0d0       _strtoull                  1007c0d0 f   libucrtd:strtox.obj
 0001:0007b0f0       _strtoumax                 1007c0f0 f   libucrtd:strtox.obj
 0001:0007b110       _wcstoimax                 1007c110 f   libucrtd:strtox.obj
 0001:0007b130       _wcstol                    1007c130 f   libucrtd:strtox.obj
 0001:0007b150       _wcstoll                   1007c150 f   libucrtd:strtox.obj
 0001:0007b170       _wcstoul                   1007c170 f   libucrtd:strtox.obj
 0001:0007b190       _wcstoull                  1007c190 f   libucrtd:strtox.obj
 0001:0007b1b0       _wcstoumax                 1007c1b0 f   libucrtd:strtox.obj
 0001:0007b1d0       __mbtowc_l                 1007c1d0 f   libucrtd:mbtowc.obj
 0001:0007b4f0       _mbtowc                    1007c4f0 f   libucrtd:mbtowc.obj
 0001:0007b510       __wctomb_l                 1007c510 f   libucrtd:wctomb.obj
 0001:0007b590       __wctomb_s_l               1007c590 f   libucrtd:wctomb.obj
 0001:0007b950       _wctomb                    1007c950 f   libucrtd:wctomb.obj
 0001:0007b9a0       _wctomb_s                  1007c9a0 f   libucrtd:wctomb.obj
 0001:0007b9d0       ??$?RU__acrt_ptd@@@__crt_internal_free_policy@@QBEXQBU__acrt_ptd@@@Z 1007c9d0 f i libucrtd:per_thread_data.obj
 0001:0007be80       ??0?$__crt_unique_heap_ptr@U__acrt_ptd@@U__crt_internal_free_policy@@@@QAE@QAU__acrt_ptd@@@Z 1007ce80 f i libucrtd:per_thread_data.obj
 0001:0007bea0       ??0__crt_scoped_get_last_error_reset@@QAE@XZ 1007cea0 f i libucrtd:per_thread_data.obj
 0001:0007bec0       ??1?$__crt_unique_heap_ptr@U__acrt_ptd@@U__crt_internal_free_policy@@@@QAE@XZ 1007cec0 f i libucrtd:per_thread_data.obj
 0001:0007bee0       ??1__crt_scoped_get_last_error_reset@@QAE@XZ 1007cee0 f i libucrtd:per_thread_data.obj
 0001:0007bf00       ??B?$__crt_unique_heap_ptr@U__acrt_ptd@@U__crt_internal_free_policy@@@@QBE_NXZ 1007cf00 f i libucrtd:per_thread_data.obj
 0001:0007c1e0       ?dangerous_get_state_array@?$dual_state_global@PAU__crt_locale_data@@@__crt_state_management@@QAEPAPAU__crt_locale_data@@XZ 1007d1e0 f i libucrtd:per_thread_data.obj
 0001:0007c360       ?detach@?$__crt_unique_heap_ptr@U__acrt_ptd@@U__crt_internal_free_policy@@@@QAEPAU__acrt_ptd@@XZ 1007d360 f i libucrtd:per_thread_data.obj
 0001:0007c390       ?get@?$__crt_unique_heap_ptr@U__acrt_ptd@@U__crt_internal_free_policy@@@@QBEPAU__acrt_ptd@@XZ 1007d390 f i libucrtd:per_thread_data.obj
 0001:0007c3b0       ?get_current_state_index@__crt_state_management@@YAIABV__crt_scoped_get_last_error_reset@@@Z 1007d3b0 f i libucrtd:per_thread_data.obj
 0001:0007c520       ?is_valid@?$__crt_unique_heap_ptr@U__acrt_ptd@@U__crt_internal_free_policy@@@@QBE_NXZ 1007d520 f i libucrtd:per_thread_data.obj
 0001:0007c550       ?release@?$__crt_unique_heap_ptr@U__acrt_ptd@@U__crt_internal_free_policy@@@@QAEXXZ 1007d550 f i libucrtd:per_thread_data.obj
 0001:0007c640       ?value@?$dual_state_global@PAU__crt_locale_data@@@__crt_state_management@@QAEAAPAU__crt_locale_data@@XZ 1007d640 f i libucrtd:per_thread_data.obj
 0001:0007c660       ___acrt_freeptd            1007d660 f   libucrtd:per_thread_data.obj
 0001:0007c690       ___acrt_getptd             1007d690 f   libucrtd:per_thread_data.obj
 0001:0007c6b0       ___acrt_getptd_head        1007d6b0 f   libucrtd:per_thread_data.obj
 0001:0007c6d0       ___acrt_getptd_noexit      1007d6d0 f   libucrtd:per_thread_data.obj
 0001:0007c6e0       ___acrt_initialize_ptd     1007d6e0 f   libucrtd:per_thread_data.obj
 0001:0007c720       ___acrt_uninitialize_ptd   1007d720 f   libucrtd:per_thread_data.obj
 0001:0007c750       ___threadhandle            1007d750 f   libucrtd:per_thread_data.obj
 0001:0007c760       ___threadid                1007d760 f   libucrtd:per_thread_data.obj
 0001:0007c770       ?value@?$dual_state_global@PAU__crt_multibyte_data@@@__crt_state_management@@QAEAAPAU__crt_multibyte_data@@XZ 1007d770 f i libucrtd:locale_update.obj
 0001:0007c790       ___acrt_update_locale_info 1007d790 f   libucrtd:locale_update.obj
 0001:0007c7d0       ___acrt_update_multibyte_info 1007d7d0 f   libucrtd:locale_update.obj
 0001:0007c810       ?__acrt_fp_classify@@YA?AW4__acrt_fp_class@@ABN@Z 1007d810 f i libucrtd:cvt.obj
 0001:0007c930       ?__acrt_fp_is_negative@@YA_NABN@Z 1007d930 f i libucrtd:cvt.obj
 0001:0007d980       ?strrchr@@YAPADQADH@Z      1007e980 f i libucrtd:cvt.obj
 0001:0007d9a0       ___acrt_fp_format          1007e9a0 f   libucrtd:cvt.obj
 0001:0007de30       __fputwc_nolock            1007ee30 f   libucrtd:fputwc.obj
 0001:0007e020       __fputwchar                1007f020 f   libucrtd:fputwc.obj
 0001:0007e040       __putwc_nolock             1007f040 f   libucrtd:fputwc.obj
 0001:0007e060       _fputwc                    1007f060 f   libucrtd:fputwc.obj
 0001:0007e170       _putwc                     1007f170 f   libucrtd:fputwc.obj
 0001:0007e190       _putwchar                  1007f190 f   libucrtd:fputwc.obj
 0001:0007e1b0       ?lowio_handle@__crt_stdio_stream@@QBEHXZ 1007f1b0 f i libucrtd:fileno.obj
 0001:0007e1d0       __fileno                   1007f1d0 f   libucrtd:fileno.obj
 0001:0007e270       ??$?RPAU__crt_stdio_stream_data@@@__crt_internal_free_policy@@QBEXQBQAU__crt_stdio_stream_data@@@Z 1007f270 f i libucrtd:_file.obj
 0001:0007e290       ??0?$__crt_unique_heap_ptr@PAU__crt_stdio_stream_data@@U__crt_internal_free_policy@@@@QAE@QAPAU__crt_stdio_stream_data@@@Z 1007f290 f i libucrtd:_file.obj
 0001:0007e2b0       ??1?$__crt_unique_heap_ptr@PAU__crt_stdio_stream_data@@U__crt_internal_free_policy@@@@QAE@XZ 1007f2b0 f i libucrtd:_file.obj
 0001:0007e2d0       ?detach@?$__crt_unique_heap_ptr@PAU__crt_stdio_stream_data@@U__crt_internal_free_policy@@@@QAEPAPAU__crt_stdio_stream_data@@XZ 1007f2d0 f i libucrtd:_file.obj
 0001:0007e300       ?release@?$__crt_unique_heap_ptr@PAU__crt_stdio_stream_data@@U__crt_internal_free_policy@@@@QAEXXZ 1007f300 f i libucrtd:_file.obj
 0001:0007e330       ___acrt_initialize_stdio   1007f330 f   libucrtd:_file.obj
 0001:0007e4a0       ___acrt_iob_func           1007f4a0 f   libucrtd:_file.obj
 0001:0007e4b0       ___acrt_uninitialize_stdio 1007f4b0 f   libucrtd:_file.obj
 0001:0007e530       __get_stream_buffer_pointers 1007f530 f   libucrtd:_file.obj
 0001:0007e610       __lock_file                1007f610 f   libucrtd:_file.obj
 0001:0007e640       __unlock_file              1007f640 f   libucrtd:_file.obj
 0001:0007e670       __get_printf_count_output  1007f670 f   libucrtd:printf_count_output.obj
 0001:0007e6a0       __set_printf_count_output  1007f6a0 f   libucrtd:printf_count_output.obj
 0001:0007e700       ?has_any_buffer@__crt_stdio_stream@@QBE_NXZ 1007f700 f i libucrtd:_sftbuf.obj
 0001:0007e720       ?has_any_of@__crt_stdio_stream@@QBE_NJ@Z 1007f720 f i libucrtd:_sftbuf.obj
 0001:0007e760       ?has_temporary_buffer@__crt_stdio_stream@@QBE_NXZ 1007f760 f i libucrtd:_sftbuf.obj
 0001:0007e780       ?set_flags@__crt_stdio_stream@@QBE_NJ@Z 1007f780 f i libucrtd:_sftbuf.obj
 0001:0007e7d0       ?unset_flags@__crt_stdio_stream@@QBE_NJ@Z 1007f7d0 f i libucrtd:_sftbuf.obj
 0001:0007e820       ___acrt_stdio_begin_temporary_buffering_nolock 1007f820 f   libucrtd:_sftbuf.obj
 0001:0007e9e0       ___acrt_stdio_end_temporary_buffering_nolock 1007f9e0 f   libucrtd:_sftbuf.obj
 0001:0007ea70       ??$?RU__crt_locale_data@@@__crt_internal_free_policy@@QBEXQBU__crt_locale_data@@@Z 1007fa70 f i libucrtd:wsetlocale.obj
 0001:0007ea90       ??$?RU__crt_locale_pointers@@@__crt_internal_free_policy@@QBEXQBU__crt_locale_pointers@@@Z 1007fa90 f i libucrtd:wsetlocale.obj
 0001:0007eab0       ??$?RU__crt_multibyte_data@@@__crt_internal_free_policy@@QBEXQBU__crt_multibyte_data@@@Z 1007fab0 f i libucrtd:wsetlocale.obj
 0001:0007f0a0       ??0?$__crt_unique_heap_ptr@U__crt_locale_data@@U__crt_internal_free_policy@@@@QAE@QAU__crt_locale_data@@@Z 100800a0 f i libucrtd:wsetlocale.obj
 0001:0007f0c0       ??0?$__crt_unique_heap_ptr@U__crt_locale_pointers@@U__crt_internal_free_policy@@@@QAE@QAU__crt_locale_pointers@@@Z 100800c0 f i libucrtd:wsetlocale.obj
 0001:0007f0e0       ??0?$__crt_unique_heap_ptr@U__crt_multibyte_data@@U__crt_internal_free_policy@@@@QAE@QAU__crt_multibyte_data@@@Z 100800e0 f i libucrtd:wsetlocale.obj
 0001:0007f100       ??0_expandlocale_locale_name_cache@@QAE@QA_WIQAU__crt_qualified_locale_data@@@Z 10080100 f i libucrtd:wsetlocale.obj
 0001:0007f170       ??1?$__crt_unique_heap_ptr@U__crt_locale_data@@U__crt_internal_free_policy@@@@QAE@XZ 10080170 f i libucrtd:wsetlocale.obj
 0001:0007f190       ??1?$__crt_unique_heap_ptr@U__crt_locale_pointers@@U__crt_internal_free_policy@@@@QAE@XZ 10080190 f i libucrtd:wsetlocale.obj
 0001:0007f1b0       ??1?$__crt_unique_heap_ptr@U__crt_multibyte_data@@U__crt_internal_free_policy@@@@QAE@XZ 100801b0 f i libucrtd:wsetlocale.obj
 0001:0007f1d0       ??1_expandlocale_locale_name_cache@@QAE@XZ 100801d0 f i libucrtd:wsetlocale.obj
 0001:0007f230       ??B?$__crt_unique_heap_ptr@U__crt_locale_data@@U__crt_internal_free_policy@@@@QBE_NXZ 10080230 f i libucrtd:wsetlocale.obj
 0001:0007f250       ??B?$__crt_unique_heap_ptr@U__crt_locale_pointers@@U__crt_internal_free_policy@@@@QBE_NXZ 10080250 f i libucrtd:wsetlocale.obj
 0001:0007f270       ??B?$__crt_unique_heap_ptr@U__crt_multibyte_data@@U__crt_internal_free_policy@@@@QBE_NXZ 10080270 f i libucrtd:wsetlocale.obj
 0001:0007f660       ?commit_locale_name@_expandlocale_locale_name_cache@@QAEXQB_WI@Z 10080660 f i libucrtd:wsetlocale.obj
 0001:0007f6c0       ?commit_locale_name_cache_already_updated@_expandlocale_locale_name_cache@@QAEXQB_WI@Z 100806c0 f i libucrtd:wsetlocale.obj
 0001:0007f720       ?detach@?$__crt_unique_heap_ptr@U__crt_locale_data@@U__crt_internal_free_policy@@@@QAEPAU__crt_locale_data@@XZ 10080720 f i libucrtd:wsetlocale.obj
 0001:0007f750       ?detach@?$__crt_unique_heap_ptr@U__crt_locale_pointers@@U__crt_internal_free_policy@@@@QAEPAU__crt_locale_pointers@@XZ 10080750 f i libucrtd:wsetlocale.obj
 0001:0007f780       ?detach@?$__crt_unique_heap_ptr@U__crt_multibyte_data@@U__crt_internal_free_policy@@@@QAEPAU__crt_multibyte_data@@XZ 10080780 f i libucrtd:wsetlocale.obj
 0001:0007f7b0       ?get@?$__crt_unique_heap_ptr@U__crt_locale_data@@U__crt_internal_free_policy@@@@QBEPAU__crt_locale_data@@XZ 100807b0 f i libucrtd:wsetlocale.obj
 0001:0007f7d0       ?get@?$__crt_unique_heap_ptr@U__crt_locale_pointers@@U__crt_internal_free_policy@@@@QBEPAU__crt_locale_pointers@@XZ 100807d0 f i libucrtd:wsetlocale.obj
 0001:0007f7f0       ?get@?$__crt_unique_heap_ptr@U__crt_multibyte_data@@U__crt_internal_free_policy@@@@QBEPAU__crt_multibyte_data@@XZ 100807f0 f i libucrtd:wsetlocale.obj
 0001:0007f810       ?is_valid@?$__crt_unique_heap_ptr@U__crt_locale_data@@U__crt_internal_free_policy@@@@QBE_NXZ 10080810 f i libucrtd:wsetlocale.obj
 0001:0007f840       ?is_valid@?$__crt_unique_heap_ptr@U__crt_locale_pointers@@U__crt_internal_free_policy@@@@QBE_NXZ 10080840 f i libucrtd:wsetlocale.obj
 0001:0007f870       ?is_valid@?$__crt_unique_heap_ptr@U__crt_multibyte_data@@U__crt_internal_free_policy@@@@QBE_NXZ 10080870 f i libucrtd:wsetlocale.obj
 0001:0007f8a0       ?release@?$__crt_unique_heap_ptr@U__crt_locale_data@@U__crt_internal_free_policy@@@@QAEXXZ 100808a0 f i libucrtd:wsetlocale.obj
 0001:0007f8d0       ?release@?$__crt_unique_heap_ptr@U__crt_locale_pointers@@U__crt_internal_free_policy@@@@QAEXXZ 100808d0 f i libucrtd:wsetlocale.obj
 0001:0007f900       ?release@?$__crt_unique_heap_ptr@U__crt_multibyte_data@@U__crt_internal_free_policy@@@@QAEXXZ 10080900 f i libucrtd:wsetlocale.obj
 0001:0007f930       ___acrt_copy_locale_name   10080930 f   libucrtd:wsetlocale.obj
 0001:0007f9d0       ___acrt_set_locale_changed 100809d0 f   libucrtd:wsetlocale.obj
 0001:0007f9f0       ___acrt_uninitialize_locale 100809f0 f   libucrtd:wsetlocale.obj
 0001:0007fa10       ___ascii_tolower           10080a10 f i libucrtd:wsetlocale.obj
 0001:0007fa30       ___ascii_towlower          10080a30 f i libucrtd:wsetlocale.obj
 0001:0007fa50       ___lc_lctowcs              10080a50 f   libucrtd:wsetlocale.obj
 0001:0007fb00       ___lc_wcstolc              10080b00 f   libucrtd:wsetlocale.obj
 0001:0007fd30       __configthreadlocale       10080d30 f   libucrtd:wsetlocale.obj
 0001:0007feb0       __create_locale            10080eb0 f   libucrtd:wsetlocale.obj
 0001:000804f0       __free_locale              100814f0 f   libucrtd:wsetlocale.obj
 0001:00080620       __get_current_locale       10081620 f   libucrtd:wsetlocale.obj
 0001:000806f0       __wcreate_locale           100816f0 f   libucrtd:wsetlocale.obj
 0001:00080930       __wcscats                  10081930 f   libucrtd:wsetlocale.obj
 0001:000809b0       __wsetlocale               100819b0 f   libucrtd:wsetlocale.obj
 0001:000820b0       ___p___mb_cur_max          100830b0 f   libucrtd:nlsdata.obj
 0001:000823b0       ___acrt_initialize_lowio   100833b0 f   libucrtd:ioinit.obj
 0001:00082450       ___acrt_uninitialize_lowio 10083450 f   libucrtd:ioinit.obj
 0001:000824b0       __CrtGetReportHook         100834b0 f   libucrtd:dbgrptt.obj
 0001:000824c0       __CrtSetReportFile         100834c0 f   libucrtd:dbgrptt.obj
 0001:000825c0       __CrtSetReportHook         100835c0 f   libucrtd:dbgrptt.obj
 0001:000825e0       __CrtSetReportMode         100835e0 f   libucrtd:dbgrptt.obj
 0001:00082720       __VCrtDbgReportA           10083720 f   libucrtd:dbgrptt.obj
 0001:00082fa0       __VCrtDbgReportW           10083fa0 f   libucrtd:dbgrptt.obj
 0001:00083950       __snprintf_s               10084950 f i libucrtd:dbgrptt.obj
 0001:00083990       __vsnprintf_s              10084990 f i libucrtd:dbgrptt.obj
 0001:000839c0       __vsnprintf_s_l            100849c0 f i libucrtd:dbgrptt.obj
 0001:00083b50       ??$__acrt_wcs_to_mbs_cp@U__crt_win32_buffer_no_resizing@@@@YAHQB_WAAV?$__crt_win32_buffer@DU__crt_win32_buffer_no_resizing@@@@I@Z 10084b50 f i libucrtd:getmodulefilenamea.obj
 0001:00083b80       ??0?$__crt_win32_buffer@DU__crt_win32_buffer_no_resizing@@@@QAE@QADI@Z 10084b80 f i libucrtd:getmodulefilenamea.obj
 0001:00083bd0       ??1?$__crt_win32_buffer@DU__crt_win32_buffer_no_resizing@@@@QAE@XZ 10084bd0 f i libucrtd:getmodulefilenamea.obj
 0001:00083c40       ?__acrt_get_utf8_acp_compatibility_codepage@@YAIXZ 10084c40 f i libucrtd:getmodulefilenamea.obj
 0001:00083cd0       ?_deallocate@?$__crt_win32_buffer@DU__crt_win32_buffer_no_resizing@@@@AAEXXZ 10084cd0 f i libucrtd:getmodulefilenamea.obj
 0001:00083d10       ?allocate@?$__crt_win32_buffer@DU__crt_win32_buffer_no_resizing@@@@QAEHI@Z 10084d10 f i libucrtd:getmodulefilenamea.obj
 0001:00083d80       ?allocate@__crt_win32_buffer_no_resizing@@SAHQAPAXIABV__crt_win32_buffer_empty_debug_info@@@Z 10084d80 f i libucrtd:getmodulefilenamea.obj
 0001:00083da0       ?capacity@?$__crt_win32_buffer@DU__crt_win32_buffer_no_resizing@@@@QBEIXZ 10084da0 f i libucrtd:getmodulefilenamea.obj
 0001:00083dc0       ?data@?$__crt_win32_buffer@DU__crt_win32_buffer_no_resizing@@@@QAEPADXZ 10084dc0 f i libucrtd:getmodulefilenamea.obj
 0001:00083de0       ?deallocate@__crt_win32_buffer_no_resizing@@SAXQAXABV__crt_win32_buffer_empty_debug_info@@@Z 10084de0 f i libucrtd:getmodulefilenamea.obj
 0001:00083df0       ?debug_info@?$__crt_win32_buffer@DU__crt_win32_buffer_no_resizing@@@@QBEABV__crt_win32_buffer_empty_debug_info@@XZ 10084df0 f i libucrtd:getmodulefilenamea.obj
 0001:00083e00       ?set_to_nullptr@?$__crt_win32_buffer@DU__crt_win32_buffer_no_resizing@@@@QAEXXZ 10084e00 f i libucrtd:getmodulefilenamea.obj
 0001:00083e40       ?size@?$__crt_win32_buffer@DU__crt_win32_buffer_no_resizing@@@@QAEXI@Z 10084e40 f i libucrtd:getmodulefilenamea.obj
 0001:00083e60       ?size@?$__crt_win32_buffer@DU__crt_win32_buffer_no_resizing@@@@QBEIXZ 10084e60 f i libucrtd:getmodulefilenamea.obj
 0001:00083e80       ___acrt_GetModuleFileNameA 10084e80 f   libucrtd:getmodulefilenamea.obj
 0001:00084160       ??$message_box@$$TABQBDABQBDK@?$__crt_char_traits@D@@SAH$$QA$$TABQBD1$$QAK@Z 10085160 f i libucrtd:crtmbox.obj
 0001:00084190       ??$message_box@$$TABQB_WABQB_WK@?$__crt_char_traits@_W@@SAH$$QA$$TABQB_W1$$QAK@Z 10085190 f i libucrtd:crtmbox.obj
 0001:000841c0       ??$message_box@PAUHWND__@@ABQBDABQBDABI@?$__crt_char_traits@D@@SAH$$QAPAUHWND__@@ABQBD1ABI@Z 100851c0 f i libucrtd:crtmbox.obj
 0001:000841f0       ??$message_box@PAUHWND__@@ABQB_WABQB_WABI@?$__crt_char_traits@_W@@SAH$$QAPAUHWND__@@ABQB_W1ABI@Z 100851f0 f i libucrtd:crtmbox.obj
 0001:00084220       ??$output_debug_string@ABQBD@?$__crt_char_traits@D@@SAXABQBD@Z 10085220 f i libucrtd:crtmbox.obj
 0001:00084240       ??$output_debug_string@ABQB_W@?$__crt_char_traits@_W@@SAXABQB_W@Z 10085240 f i libucrtd:crtmbox.obj
 0001:00084260       ___acrt_show_narrow_message_box 10085260 f   libucrtd:crtmbox.obj
 0001:00084280       ___acrt_show_wide_message_box 10085280 f   libucrtd:crtmbox.obj
 0001:000842a0       ___acrt_initialize_locks   100852a0 f   libucrtd:locks.obj
 0001:00084300       ___acrt_lock               10085300 f   libucrtd:locks.obj
 0001:00084320       ___acrt_uninitialize_locks 10085320 f   libucrtd:locks.obj
 0001:00084370       ___acrt_unlock             10085370 f   libucrtd:locks.obj
 0001:00084390       __lock_locales             10085390 f   libucrtd:locks.obj
 0001:000843b0       __unlock_locales           100853b0 f   libucrtd:locks.obj
 0001:000843d0       ??$?B$$A6AXH@Z@__crt_fast_encoded_nullptr_t@@QBEP6AXH@ZXZ 100853d0 f i libucrtd:signal.obj
 0001:000844c0       ??$__crt_fast_decode_pointer@P6AXH@Z@@YAP6AXH@ZQ6AXH@Z@Z 100854c0 f i libucrtd:signal.obj
 0001:000844f0       ??$__crt_fast_encode_pointer@P6AXH@Z@@YAP6AXH@ZQ6AXH@Z@Z 100854f0 f i libucrtd:signal.obj
 0001:000847a0       ?initialize@?$dual_state_global@P6AXH@Z@__crt_state_management@@QAEXQ6AXH@Z@Z 100857a0 f i libucrtd:signal.obj
 0001:000848e0       ?value@?$dual_state_global@P6AXH@Z@__crt_state_management@@QAEAAP6AXH@ZXZ 100858e0 f i libucrtd:signal.obj
 0001:00084900       ___acrt_get_sigabrt_handler 10085900 f   libucrtd:signal.obj
 0001:00084920       ___acrt_initialize_signal_handlers 10085920 f   libucrtd:signal.obj
 0001:00084960       ___fpecode                 10085960 f   libucrtd:signal.obj
 0001:00084970       ___pxcptinfoptrs           10085970 f   libucrtd:signal.obj
 0001:00084980       _raise                     10085980 f   libucrtd:signal.obj
 0001:00084d50       _signal                    10085d50 f   libucrtd:signal.obj
 0001:00084fd0       __msize                    10085fd0 f   libucrtd:msize.obj
 0001:00084ff0       __msize_base               10085ff0 f   libucrtd:msize.obj
 0001:00085090       __realloc_base             10086090 f   libucrtd:realloc_base.obj
 0001:00085150       ??$?B$$A6GHPA_WKJ@Z@__crt_fast_encoded_nullptr_t@@QBEP6GHPA_WKJ@ZXZ 10086150 f i libucrtd:winapi_thunks.obj
 0001:00085240       ??$__crt_fast_decode_pointer@P6GHPA_WKJ@Z@@YAP6GHPA_WKJ@ZQ6GH0KJ@Z@Z 10086240 f i libucrtd:winapi_thunks.obj
 0001:00085270       ??$__crt_fast_decode_pointer@PAX@@YAPAXQAX@Z 10086270 f i libucrtd:winapi_thunks.obj
 0001:000852a0       ??$__crt_fast_encode_pointer@P6GHPA_WKJ@Z@@YAP6GHPA_WKJ@ZQ6GH0KJ@Z@Z 100862a0 f i libucrtd:winapi_thunks.obj
 0001:00085c00       _GetCurrentThreadEffectiveToken 10086c00 f i libucrtd:winapi_thunks.obj
 0001:00085c10       ___acrt_AppPolicyGetProcessTerminationMethodInternal@4 10086c10 f   libucrtd:winapi_thunks.obj
 0001:00085c50       ___acrt_AppPolicyGetShowDeveloperDiagnosticInternal@4 10086c50 f   libucrtd:winapi_thunks.obj
 0001:00085c90       ___acrt_AppPolicyGetThreadInitializationTypeInternal@4 10086c90 f   libucrtd:winapi_thunks.obj
 0001:00085cd0       ___acrt_AppPolicyGetWindowingModelInternal@4 10086cd0 f   libucrtd:winapi_thunks.obj
 0001:00085d10       ___acrt_AreFileApisANSI@0  10086d10 f   libucrtd:winapi_thunks.obj
 0001:00085d50       ___acrt_CompareStringEx@36 10086d50 f   libucrtd:winapi_thunks.obj
 0001:00085dd0       ___acrt_EnumSystemLocalesEx@16 10086dd0 f   libucrtd:winapi_thunks.obj
 0001:00085e30       ___acrt_FlsAlloc@4         10086e30 f   libucrtd:winapi_thunks.obj
 0001:00085e70       ___acrt_FlsFree@4          10086e70 f   libucrtd:winapi_thunks.obj
 0001:00085eb0       ___acrt_FlsGetValue@4      10086eb0 f   libucrtd:winapi_thunks.obj
 0001:00085ef0       ___acrt_FlsSetValue@8      10086ef0 f   libucrtd:winapi_thunks.obj
 0001:00085f40       ___acrt_GetDateFormatEx@28 10086f40 f   libucrtd:winapi_thunks.obj
 0001:00085fc0       ___acrt_GetEnabledXStateFeatures@0 10086fc0 f   libucrtd:winapi_thunks.obj
 0001:00086000       ___acrt_GetLocaleInfoEx@16 10087000 f   libucrtd:winapi_thunks.obj
 0001:00086060       ___acrt_GetSystemTimePreciseAsFileTime@4 10087060 f   libucrtd:winapi_thunks.obj
 0001:000860a0       ___acrt_GetTimeFormatEx@24 100870a0 f   libucrtd:winapi_thunks.obj
 0001:00086110       ___acrt_GetUserDefaultLocaleName@8 10087110 f   libucrtd:winapi_thunks.obj
 0001:00086160       ___acrt_GetXStateFeaturesMask@8 10087160 f   libucrtd:winapi_thunks.obj
 0001:000861a0       ___acrt_InitializeCriticalSectionEx@12 100871a0 f   libucrtd:winapi_thunks.obj
 0001:000861f0       ___acrt_IsValidLocaleName@4 100871f0 f   libucrtd:winapi_thunks.obj
 0001:00086240       ___acrt_LCIDToLocaleName@16 10087240 f   libucrtd:winapi_thunks.obj
 0001:000862a0       ___acrt_LCMapStringEx@36   100872a0 f   libucrtd:winapi_thunks.obj
 0001:00086320       ___acrt_LocaleNameToLCID@8 10087320 f   libucrtd:winapi_thunks.obj
 0001:00086370       ___acrt_LocateXStateFeature@12 10087370 f   libucrtd:winapi_thunks.obj
 0001:000863c0       ___acrt_MessageBoxA@16     100873c0 f   libucrtd:winapi_thunks.obj
 0001:00086410       ___acrt_MessageBoxW@16     10087410 f   libucrtd:winapi_thunks.obj
 0001:00086460       ___acrt_RoInitialize@4     10087460 f   libucrtd:winapi_thunks.obj
 0001:000864a0       ___acrt_RoUninitialize@0   100874a0 f   libucrtd:winapi_thunks.obj
 0001:000864d0       ___acrt_RtlGenRandom@8     100874d0 f   libucrtd:winapi_thunks.obj
 0001:00086510       ___acrt_SetThreadStackGuarantee@4 10087510 f   libucrtd:winapi_thunks.obj
 0001:00086550       ___acrt_can_show_message_box 10087550 f   libucrtd:winapi_thunks.obj
 0001:00086590       ___acrt_can_use_vista_locale_apis 10087590 f   libucrtd:winapi_thunks.obj
 0001:000865c0       ___acrt_can_use_xstate_apis 100875c0 f   libucrtd:winapi_thunks.obj
 0001:000865f0       ___acrt_eagerly_load_locale_apis 100875f0 f   libucrtd:winapi_thunks.obj
 0001:00086630       ___acrt_get_parent_window  10087630 f   libucrtd:winapi_thunks.obj
 0001:000866a0       ___acrt_initialize_winapi_thunks 100876a0 f   libucrtd:winapi_thunks.obj
 0001:00086710       ___acrt_is_interactive     10087710 f   libucrtd:winapi_thunks.obj
 0001:000867c0       ___acrt_uninitialize_winapi_thunks 100877c0 f   libucrtd:winapi_thunks.obj
 0001:00086830       __chvalidator              10087830 f   libucrtd:isctype.obj
 0001:00086880       __chvalidator_l            10087880 f   libucrtd:isctype.obj
 0001:00086900       __isctype                  10087900 f   libucrtd:isctype.obj
 0001:00086940       __isctype_l                10087940 f   libucrtd:isctype.obj
 0001:00086ac0       __isleadbyte_fast_internal 10087ac0 f i libucrtd:isctype.obj
 0001:00086ae0       ??$?RU__crt_stdio_stream_data@@@__crt_internal_free_policy@@QBEXQBU__crt_stdio_stream_data@@@Z 10087ae0 f i libucrtd:stream.obj
 0001:00086b00       ??0?$__crt_unique_heap_ptr@U__crt_stdio_stream_data@@U__crt_internal_free_policy@@@@QAE@QAU__crt_stdio_stream_data@@@Z 10087b00 f i libucrtd:stream.obj
 0001:00086b20       ??0__crt_stdio_stream@@QAE@QAU__crt_stdio_stream_data@@@Z 10087b20 f i libucrtd:stream.obj
 0001:00086b40       ??0__crt_stdio_stream@@QAE@XZ 10087b40 f i libucrtd:stream.obj
 0001:00086b60       ??1?$__crt_unique_heap_ptr@U__crt_stdio_stream_data@@U__crt_internal_free_policy@@@@QAE@XZ 10087b60 f i libucrtd:stream.obj
 0001:00086b80       ?__acrt_stdio_allocate_stream@@YA?AV__crt_stdio_stream@@XZ 10087b80 f   libucrtd:stream.obj
 0001:00086c70       ?__acrt_stdio_free_stream@@YAXV__crt_stdio_stream@@@Z 10087c70 f   libucrtd:stream.obj
 0001:00086cf0       ?deallocate@__crt_stdio_stream@@QAEXXZ 10087cf0 f i libucrtd:stream.obj
 0001:00086d10       ?detach@?$__crt_unique_heap_ptr@U__crt_stdio_stream_data@@U__crt_internal_free_policy@@@@QAEPAU__crt_stdio_stream_data@@XZ 10087d10 f i libucrtd:stream.obj
 0001:00086e80       ?lock@__crt_stdio_stream@@QBEXXZ 10087e80 f i libucrtd:stream.obj
 0001:00086ea0       ?release@?$__crt_unique_heap_ptr@U__crt_stdio_stream_data@@U__crt_internal_free_policy@@@@QAEXXZ 10087ea0 f i libucrtd:stream.obj
 0001:00086ed0       ?try_allocate@__crt_stdio_stream@@QAE_NXZ 10087ed0 f i libucrtd:stream.obj
 0001:00086f20       ??$__acrt_stdio_parse_mode@D@@YA?AU__acrt_stdio_stream_mode@@QBD@Z 10087f20 f i libucrtd:openfile.obj
 0001:00087790       ??$__acrt_stdio_parse_mode@_W@@YA?AU__acrt_stdio_stream_mode@@QB_W@Z 10088790 f i libucrtd:openfile.obj
 0001:00088320       ??$tcsncmp@AAPBDAAY02$$CBDI@?$__crt_char_traits@D@@SAHAAPBDAAY02$$CBD$$QAI@Z 10089320 f i libucrtd:openfile.obj
 0001:00088340       ??$tcsncmp@AAPB_WAAY02$$CB_WI@?$__crt_char_traits@_W@@SAHAAPB_WAAY02$$CB_W$$QAI@Z 10089340 f i libucrtd:openfile.obj
 0001:00088360       ??$tcsnicmp@AAPBDAAY04$$CBDI@?$__crt_char_traits@D@@SAHAAPBDAAY04$$CBD$$QAI@Z 10089360 f i libucrtd:openfile.obj
 0001:00088380       ??$tcsnicmp@AAPBDAAY06$$CBDI@?$__crt_char_traits@D@@SAHAAPBDAAY06$$CBD$$QAI@Z 10089380 f i libucrtd:openfile.obj
 0001:000883a0       ??$tcsnicmp@AAPBDAAY07$$CBDI@?$__crt_char_traits@D@@SAHAAPBDAAY07$$CBD$$QAI@Z 100893a0 f i libucrtd:openfile.obj
 0001:000883c0       ??$tcsnicmp@AAPB_WAAY04$$CB_WI@?$__crt_char_traits@_W@@SAHAAPB_WAAY04$$CB_W$$QAI@Z 100893c0 f i libucrtd:openfile.obj
 0001:000883e0       ??$tcsnicmp@AAPB_WAAY06$$CB_WI@?$__crt_char_traits@_W@@SAHAAPB_WAAY06$$CB_W$$QAI@Z 100893e0 f i libucrtd:openfile.obj
 0001:00088400       ??$tcsnicmp@AAPB_WAAY07$$CB_WI@?$__crt_char_traits@_W@@SAHAAPB_WAAY07$$CB_W$$QAI@Z 10089400 f i libucrtd:openfile.obj
 0001:00088420       ??$tsopen_s@PAHABQBDABHABHH@?$__crt_char_traits@D@@SAH$$QAPAHABQBDABH2$$QAH@Z 10089420 f i libucrtd:openfile.obj
 0001:00088450       ??$tsopen_s@PAHABQB_WABHABHH@?$__crt_char_traits@_W@@SAH$$QAPAHABQB_WABH2$$QAH@Z 10089450 f i libucrtd:openfile.obj
 0001:00088480       ?__acrt_stdio_parse_mode_D@@YA_NAAU__acrt_stdio_stream_mode@@@Z 10089480 f i libucrtd:openfile.obj
 0001:000884b0       ?__acrt_stdio_parse_mode_N@@YA_NAAU__acrt_stdio_stream_mode@@@Z 100894b0 f i libucrtd:openfile.obj
 0001:000884d0       ?__acrt_stdio_parse_mode_R@@YA_NAAU__acrt_stdio_stream_mode@@AA_N@Z 100894d0 f i libucrtd:openfile.obj
 0001:00088500       ?__acrt_stdio_parse_mode_S@@YA_NAAU__acrt_stdio_stream_mode@@AA_N@Z 10089500 f i libucrtd:openfile.obj
 0001:00088530       ?__acrt_stdio_parse_mode_T@@YA_NAAU__acrt_stdio_stream_mode@@@Z 10089530 f i libucrtd:openfile.obj
 0001:00088560       ?__acrt_stdio_parse_mode_b@@YA_NAAU__acrt_stdio_stream_mode@@@Z 10089560 f i libucrtd:openfile.obj
 0001:00088590       ?__acrt_stdio_parse_mode_c@@YA_NAAU__acrt_stdio_stream_mode@@AA_N@Z 10089590 f i libucrtd:openfile.obj
 0001:000885c0       ?__acrt_stdio_parse_mode_n@@YA_NAAU__acrt_stdio_stream_mode@@AA_N@Z 100895c0 f i libucrtd:openfile.obj
 0001:000885f0       ?__acrt_stdio_parse_mode_plus@@YA_NAAU__acrt_stdio_stream_mode@@AA_N@Z 100895f0 f i libucrtd:openfile.obj
 0001:00088660       ?__acrt_stdio_parse_mode_t@@YA_NAAU__acrt_stdio_stream_mode@@@Z 10089660 f i libucrtd:openfile.obj
 0001:00088690       ?__acrt_stdio_parse_mode_x@@YA_NAAU__acrt_stdio_stream_mode@@@Z 10089690 f i libucrtd:openfile.obj
 0001:000886c0       __openfile                 100896c0 f   libucrtd:openfile.obj
 0001:000886f0       __wopenfile                100896f0 f   libucrtd:openfile.obj
 0001:000889d0       __close                    100899d0 f   libucrtd:close.obj
 0001:00088b50       __close_nolock             10089b50 f   libucrtd:close.obj
 0001:00088bb0       ?has_crt_buffer@__crt_stdio_stream@@QBE_NXZ 10089bb0 f i libucrtd:_freebuf.obj
 0001:00088bd0       ___acrt_stdio_free_buffer_nolock 10089bd0 f   libucrtd:_freebuf.obj
 0001:00089230       ?__acrt_stdio_reset_buffer@@YAXV__crt_stdio_stream@@@Z 1008a230 f i libucrtd:fflush.obj
 0001:00089330       ?has_all_of@__crt_stdio_stream@@QBE_NJ@Z 1008a330 f i libucrtd:fflush.obj
 0001:00089400       ___acrt_stdio_flush_nolock 1008a400 f   libucrtd:fflush.obj
 0001:000894d0       __fflush_nolock            1008a4d0 f   libucrtd:fflush.obj
 0001:00089550       __flushall                 1008a550 f   libucrtd:fflush.obj
 0001:00089570       _fflush                    1008a570 f   libucrtd:fflush.obj
 0001:00089d20       ?has_big_buffer@__crt_stdio_stream@@QBE_NXZ 1008ad20 f i libucrtd:_flsbuf.obj
 0001:00089e20       ___acrt_stdio_flush_and_write_narrow_nolock 1008ae20 f   libucrtd:_flsbuf.obj
 0001:00089e50       ___acrt_stdio_flush_and_write_wide_nolock 1008ae50 f   libucrtd:_flsbuf.obj
 0001:0008a180       ___acrt_get_begin_thread_init_policy 1008b180 f   libucrtd:win_policies.obj
 0001:0008a1a0       ___acrt_get_developer_information_policy 1008b1a0 f   libucrtd:win_policies.obj
 0001:0008a1c0       ___acrt_get_process_end_policy 1008b1c0 f   libucrtd:win_policies.obj
 0001:0008a1e0       ___acrt_get_windowing_model_policy 1008b1e0 f   libucrtd:win_policies.obj
 0001:0008a4b0       ??$__acrt_mbs_to_wcs_cp@U__crt_win32_buffer_internal_dynamic_resizing@@@@YAHQBDAAV?$__crt_win32_buffer@_WU__crt_win32_buffer_internal_dynamic_resizing@@@@I@Z 1008b4b0 f i libucrtd:argv_wildcards.obj
 0001:0008a4e0       ??$__acrt_wcs_to_mbs_cp@U__crt_win32_buffer_internal_dynamic_resizing@@@@YAHQB_WAAV?$__crt_win32_buffer@DU__crt_win32_buffer_internal_dynamic_resizing@@@@I@Z 1008b4e0 f i libucrtd:argv_wildcards.obj
 0001:0008b430       ??$tcsncpy_s@AAPADIAAPADABI@?$__crt_char_traits@D@@SAHAAPAD$$QAI0ABI@Z 1008c430 f i libucrtd:argv_wildcards.obj
 0001:0008b460       ??$tcsncpy_s@AAPA_WIAAPA_WABI@?$__crt_char_traits@_W@@SAHAAPA_W$$QAI0ABI@Z 1008c460 f i libucrtd:argv_wildcards.obj
 0001:0008b490       ??$tcsncpy_s@PADABIABQBDABI@?$__crt_char_traits@D@@SAH$$QAPADABIABQBD1@Z 1008c490 f i libucrtd:argv_wildcards.obj
 0001:0008b4c0       ??$tcsncpy_s@PADIABQBDABI@?$__crt_char_traits@D@@SAH$$QAPAD$$QAIABQBDABI@Z 1008c4c0 f i libucrtd:argv_wildcards.obj
 0001:0008b4f0       ??$tcsncpy_s@PA_WABIABQB_WABI@?$__crt_char_traits@_W@@SAH$$QAPA_WABIABQB_W1@Z 1008c4f0 f i libucrtd:argv_wildcards.obj
 0001:0008b520       ??$tcsncpy_s@PA_WIABQB_WABI@?$__crt_char_traits@_W@@SAH$$QAPA_W$$QAIABQB_WABI@Z 1008c520 f i libucrtd:argv_wildcards.obj
 0001:0008b550       ??$tcspbrk@AAPADAAY02$$CBD@?$__crt_char_traits@D@@SAPADAAPADAAY02$$CBD@Z 1008c550 f i libucrtd:argv_wildcards.obj
 0001:0008b570       ??$tcspbrk@AAPA_WAAY02$$CB_W@?$__crt_char_traits@_W@@SAPA_WAAPA_WAAY02$$CB_W@Z 1008c570 f i libucrtd:argv_wildcards.obj
 0001:0008b590       ??0?$__crt_unique_handle_t@U__crt_findfile_traits@@@@QAE@QAX@Z 1008c590 f i libucrtd:argv_wildcards.obj
 0001:0008b5b0       ??0?$__crt_win32_buffer@DU__crt_win32_buffer_internal_dynamic_resizing@@@@QAE@XZ 1008c5b0 f i libucrtd:argv_wildcards.obj
 0001:0008b600       ??0?$__crt_win32_buffer@_WU__crt_win32_buffer_internal_dynamic_resizing@@@@QAE@XZ 1008c600 f i libucrtd:argv_wildcards.obj
 0001:0008b6b0       ??1?$__crt_unique_handle_t@U__crt_findfile_traits@@@@QAE@XZ 1008c6b0 f i libucrtd:argv_wildcards.obj
 0001:0008b6d0       ??1?$__crt_win32_buffer@DU__crt_win32_buffer_internal_dynamic_resizing@@@@QAE@XZ 1008c6d0 f i libucrtd:argv_wildcards.obj
 0001:0008b710       ??1?$__crt_win32_buffer@_WU__crt_win32_buffer_internal_dynamic_resizing@@@@QAE@XZ 1008c710 f i libucrtd:argv_wildcards.obj
 0001:0008b970       ?_deallocate@?$__crt_win32_buffer@DU__crt_win32_buffer_internal_dynamic_resizing@@@@AAEXXZ 1008c970 f i libucrtd:argv_wildcards.obj
 0001:0008b9b0       ?_deallocate@?$__crt_win32_buffer@_WU__crt_win32_buffer_internal_dynamic_resizing@@@@AAEXXZ 1008c9b0 f i libucrtd:argv_wildcards.obj
 0001:0008b9f0       ?allocate@?$__crt_win32_buffer@DU__crt_win32_buffer_internal_dynamic_resizing@@@@QAEHI@Z 1008c9f0 f i libucrtd:argv_wildcards.obj
 0001:0008ba60       ?allocate@?$__crt_win32_buffer@_WU__crt_win32_buffer_internal_dynamic_resizing@@@@QAEHI@Z 1008ca60 f i libucrtd:argv_wildcards.obj
 0001:0008bad0       ?allocate@__crt_win32_buffer_internal_dynamic_resizing@@SAHQAPAXIABV__crt_win32_buffer_empty_debug_info@@@Z 1008cad0 f i libucrtd:argv_wildcards.obj
 0001:0008bc10       ?capacity@?$__crt_win32_buffer@DU__crt_win32_buffer_internal_dynamic_resizing@@@@QBEIXZ 1008cc10 f i libucrtd:argv_wildcards.obj
 0001:0008bc30       ?capacity@?$__crt_win32_buffer@_WU__crt_win32_buffer_internal_dynamic_resizing@@@@QBEIXZ 1008cc30 f i libucrtd:argv_wildcards.obj
 0001:0008bc50       ?close@?$__crt_unique_handle_t@U__crt_findfile_traits@@@@QAEXXZ 1008cc50 f i libucrtd:argv_wildcards.obj
 0001:0008bc90       ?close@__crt_findfile_traits@@SA_NPAX@Z 1008cc90 f i libucrtd:argv_wildcards.obj
 0001:0008bcc0       ?data@?$__crt_win32_buffer@DU__crt_win32_buffer_internal_dynamic_resizing@@@@QAEPADXZ 1008ccc0 f i libucrtd:argv_wildcards.obj
 0001:0008bce0       ?data@?$__crt_win32_buffer@_WU__crt_win32_buffer_internal_dynamic_resizing@@@@QAEPA_WXZ 1008cce0 f i libucrtd:argv_wildcards.obj
 0001:0008bd00       ?deallocate@__crt_win32_buffer_internal_dynamic_resizing@@SAXQAXABV__crt_win32_buffer_empty_debug_info@@@Z 1008cd00 f i libucrtd:argv_wildcards.obj
 0001:0008bd20       ?debug_info@?$__crt_win32_buffer@DU__crt_win32_buffer_internal_dynamic_resizing@@@@QBEABV__crt_win32_buffer_empty_debug_info@@XZ 1008cd20 f i libucrtd:argv_wildcards.obj
 0001:0008bd30       ?debug_info@?$__crt_win32_buffer@_WU__crt_win32_buffer_internal_dynamic_resizing@@@@QBEABV__crt_win32_buffer_empty_debug_info@@XZ 1008cd30 f i libucrtd:argv_wildcards.obj
 0001:0008c040       ?get@?$__crt_unique_handle_t@U__crt_findfile_traits@@@@QBEPAXXZ 1008d040 f i libucrtd:argv_wildcards.obj
 0001:0008c0b0       ?get_invalid_value@__crt_findfile_traits@@SAPAXXZ 1008d0b0 f i libucrtd:argv_wildcards.obj
 0001:0008c140       ?set_to_nullptr@?$__crt_win32_buffer@DU__crt_win32_buffer_internal_dynamic_resizing@@@@QAEXXZ 1008d140 f i libucrtd:argv_wildcards.obj
 0001:0008c180       ?set_to_nullptr@?$__crt_win32_buffer@_WU__crt_win32_buffer_internal_dynamic_resizing@@@@QAEXXZ 1008d180 f i libucrtd:argv_wildcards.obj
 0001:0008c1c0       ?size@?$__crt_win32_buffer@DU__crt_win32_buffer_internal_dynamic_resizing@@@@QAEXI@Z 1008d1c0 f i libucrtd:argv_wildcards.obj
 0001:0008c1e0       ?size@?$__crt_win32_buffer@_WU__crt_win32_buffer_internal_dynamic_resizing@@@@QAEXI@Z 1008d1e0 f i libucrtd:argv_wildcards.obj
 0001:0008c240       ?strpbrk@@YAPADQADQBD@Z    1008d240 f i libucrtd:argv_wildcards.obj
 0001:0008c260       ?wcspbrk@@YAPA_WPA_WPB_W@Z 1008d260 f i libucrtd:argv_wildcards.obj
 0001:0008c280       ___acrt_expand_narrow_argv_wildcards 1008d280 f   libucrtd:argv_wildcards.obj
 0001:0008c2a0       ___acrt_expand_wide_argv_wildcards 1008d2a0 f   libucrtd:argv_wildcards.obj
 0001:0008c380       ??$initialize_from_array@$$BY10BAA@E@?$dual_state_global@PAE@__crt_state_management@@QAAXAAY10BAA@E@Z 1008d380 f i libucrtd:mbctype.obj
 0001:0008c3d0       ??$initialize_from_array@$$BY10BAB@E@?$dual_state_global@PAE@__crt_state_management@@QAAXAAY10BAB@E@Z 1008d3d0 f i libucrtd:mbctype.obj
 0001:0008c640       ?dangerous_get_state_array@?$dual_state_global@PAE@__crt_state_management@@QAEPAPAEXZ 1008d640 f i libucrtd:mbctype.obj
 0001:0008c650       ?dangerous_get_state_array@?$dual_state_global@PAU__crt_multibyte_data@@@__crt_state_management@@QAEPAPAU__crt_multibyte_data@@XZ 1008d650 f i libucrtd:mbctype.obj
 0001:0008c720       ?initialize@?$dual_state_global@PAU__crt_multibyte_data@@@__crt_state_management@@QAEXQAU__crt_multibyte_data@@@Z 1008d720 f i libucrtd:mbctype.obj
 0001:0008ce80       ?value@?$dual_state_global@PAE@__crt_state_management@@QAEAAPAEXZ 1008de80 f i libucrtd:mbctype.obj
 0001:0008cea0       ___acrt_initialize_multibyte 1008dea0 f   libucrtd:mbctype.obj
 0001:0008cf50       ___acrt_update_thread_multibyte_data 1008df50 f   libucrtd:mbctype.obj
 0001:0008cf70       ___p__mbcasemap            1008df70 f   libucrtd:mbctype.obj
 0001:0008cf90       ___p__mbctype              1008df90 f   libucrtd:mbctype.obj
 0001:0008cfb0       __getmbcp                  1008dfb0 f   libucrtd:mbctype.obj
 0001:0008d020       __setmbcp                  1008e020 f   libucrtd:mbctype.obj
 0001:0008d050       __setmbcp_nolock           1008e050 f   libucrtd:mbctype.obj
 0001:0008d5c1       __ismbbalnum               1008e5c1 f   libucrtd:ismbbyte.obj
 0001:0008d5dc       __ismbbalnum_l             1008e5dc f   libucrtd:ismbbyte.obj
 0001:0008d5f8       __ismbbalpha               1008e5f8 f   libucrtd:ismbbyte.obj
 0001:0008d613       __ismbbalpha_l             1008e613 f   libucrtd:ismbbyte.obj
 0001:0008d62f       __ismbbblank               1008e62f f   libucrtd:ismbbyte.obj
 0001:0008d652       __ismbbblank_l             1008e652 f   libucrtd:ismbbyte.obj
 0001:0008d676       __ismbbgraph               1008e676 f   libucrtd:ismbbyte.obj
 0001:0008d691       __ismbbgraph_l             1008e691 f   libucrtd:ismbbyte.obj
 0001:0008d6ad       __ismbbkalnum              1008e6ad f   libucrtd:ismbbyte.obj
 0001:0008d6c5       __ismbbkalnum_l            1008e6c5 f   libucrtd:ismbbyte.obj
 0001:0008d6de       __ismbbkana                1008e6de f   libucrtd:ismbbyte.obj
 0001:0008d6f1       __ismbbkana_l              1008e6f1 f   libucrtd:ismbbyte.obj
 0001:0008d740       __ismbbkprint              1008e740 f   libucrtd:ismbbyte.obj
 0001:0008d758       __ismbbkprint_l            1008e758 f   libucrtd:ismbbyte.obj
 0001:0008d771       __ismbbkpunct              1008e771 f   libucrtd:ismbbyte.obj
 0001:0008d789       __ismbbkpunct_l            1008e789 f   libucrtd:ismbbyte.obj
 0001:0008d7a2       __ismbblead                1008e7a2 f   libucrtd:ismbbyte.obj
 0001:0008d7ba       __ismbblead_l              1008e7ba f   libucrtd:ismbbyte.obj
 0001:0008d7d3       __ismbbprint               1008e7d3 f   libucrtd:ismbbyte.obj
 0001:0008d7ee       __ismbbprint_l             1008e7ee f   libucrtd:ismbbyte.obj
 0001:0008d80a       __ismbbpunct               1008e80a f   libucrtd:ismbbyte.obj
 0001:0008d822       __ismbbpunct_l             1008e822 f   libucrtd:ismbbyte.obj
 0001:0008d83b       __ismbbtrail               1008e83b f   libucrtd:ismbbyte.obj
 0001:0008d853       __ismbbtrail_l             1008e853 f   libucrtd:ismbbyte.obj
 0001:0008d870       ___acrt_initialize_command_line 1008e870 f   libucrtd:argv_data.obj
 0001:0008d890       ___acrt_uninitialize_command_line 1008e890 f   libucrtd:argv_data.obj
 0001:0008d8a0       ___p___argc                1008e8a0 f   libucrtd:argv_data.obj
 0001:0008d8b0       ___p___argv                1008e8b0 f   libucrtd:argv_data.obj
 0001:0008d8c0       ___p___wargv               1008e8c0 f   libucrtd:argv_data.obj
 0001:0008d8d0       ___p__acmdln               1008e8d0 f   libucrtd:argv_data.obj
 0001:0008d8e0       ___p__pgmptr               1008e8e0 f   libucrtd:argv_data.obj
 0001:0008d8f0       ___p__wcmdln               1008e8f0 f   libucrtd:argv_data.obj
 0001:0008d900       ___p__wpgmptr              1008e900 f   libucrtd:argv_data.obj
 0001:0008d910       __get_pgmptr               1008e910 f   libucrtd:argv_data.obj
 0001:0008da20       __get_wpgmptr              1008ea20 f   libucrtd:argv_data.obj
 0001:0008dbe0       ___acrt_MultiByteToWideChar 1008ebe0 f   libucrtd:multibytetowidechar.obj
 0001:0008dce0       ___acrt_WideCharToMultiByte 1008ece0 f   libucrtd:widechartomultibyte.obj
 0001:0008de22       ___dcrt_get_narrow_environment_from_os 1008ee22 f   libucrtd:get_environment_from_os.obj
 0001:0008deb4       ___dcrt_get_wide_environment_from_os 1008eeb4 f   libucrtd:get_environment_from_os.obj
 0001:0008e849       ??$get_or_create_environment_nolock@$$V@?$__crt_char_traits@D@@SAPAPADXZ 1008f849 f i libucrtd:setenv.obj
 0001:0008e84e       ??$get_or_create_environment_nolock@$$V@?$__crt_char_traits@_W@@SAPAPA_WXZ 1008f84e f i libucrtd:setenv.obj
 0001:0008e853       ??$set_environment_variable@ABQADQAD@?$__crt_char_traits@D@@SAHABQAD$$QBQAD@Z 1008f853 f i libucrtd:setenv.obj
 0001:0008e86b       ??$set_environment_variable@ABQA_WQA_W@?$__crt_char_traits@_W@@SAHABQA_W$$QBQA_W@Z 1008f86b f i libucrtd:setenv.obj
 0001:0008e882       ??$tcschr@ABQADD@?$__crt_char_traits@D@@SAPADABQAD$$QAD@Z 1008f882 f i libucrtd:setenv.obj
 0001:0008e89c       ??$tcschr@ABQA_WD@?$__crt_char_traits@_W@@SAPA_WABQA_W$$QAD@Z 1008f89c f i libucrtd:setenv.obj
 0001:0008e8ba       ??$tcscpy_s@AAPADABIAAPAD@?$__crt_char_traits@D@@SAHAAPADABI0@Z 1008f8ba f i libucrtd:setenv.obj
 0001:0008e8d8       ??$tcscpy_s@AAPA_WABIAAPA_W@?$__crt_char_traits@_W@@SAHAAPA_WABI0@Z 1008f8d8 f i libucrtd:setenv.obj
 0001:0008e8f6       ??$tcscpy_s@ABQADABIABQAD@?$__crt_char_traits@D@@SAHABQADABI0@Z 1008f8f6 f i libucrtd:setenv.obj
 0001:0008e914       ??$tcscpy_s@ABQA_WABIABQA_W@?$__crt_char_traits@_W@@SAHABQA_WABI0@Z 1008f914 f i libucrtd:setenv.obj
 0001:0008e932       ??$tcslen@ABQAD@?$__crt_char_traits@D@@SAIABQAD@Z 1008f932 f i libucrtd:setenv.obj
 0001:0008e94a       ??$tcslen@ABQA_W@?$__crt_char_traits@_W@@SAIABQA_W@Z 1008f94a f i libucrtd:setenv.obj
 0001:0008e968       ??$tcsnicoll@ABQBDAAPADABI@?$__crt_char_traits@D@@SAHABQBDAAPADABI@Z 1008f968 f i libucrtd:setenv.obj
 0001:0008e986       ??$tcsnicoll@ABQB_WAAPA_WABI@?$__crt_char_traits@_W@@SAHABQB_WAAPA_WABI@Z 1008f986 f i libucrtd:setenv.obj
 0001:0008e9a4       ??$tcsnlen@PADH@?$__crt_char_traits@D@@SAI$$QAPAD$$QAH@Z 1008f9a4 f i libucrtd:setenv.obj
 0001:0008e9bc       ??$tcsnlen@PA_WH@?$__crt_char_traits@_W@@SAI$$QAPA_W$$QAH@Z 1008f9bc f i libucrtd:setenv.obj
 0001:0008e9f8       ?strchr@@YAPADQADH@Z       1008f9f8 f i libucrtd:setenv.obj
 0001:0008ea03       ?wcschr@@YAPA_WPA_W_W@Z    1008fa03 f i libucrtd:setenv.obj
 0001:0008ea0e       ___dcrt_set_variable_in_narrow_environment_nolock 1008fa0e f   libucrtd:setenv.obj
 0001:0008ea19       ___dcrt_set_variable_in_wide_environment_nolock 1008fa19 f   libucrtd:setenv.obj
 0001:0008ea30       ___acrt_getheap            1008fa30 f   libucrtd:heap_handle.obj
 0001:0008ea70       ___acrt_initialize_heap    1008fa70 f   libucrtd:heap_handle.obj
 0001:0008eaa0       ___acrt_uninitialize_heap  1008faa0 f   libucrtd:heap_handle.obj
 0001:0008eac0       __get_heap_handle          1008fac0 f   libucrtd:heap_handle.obj
 0001:0008eb00       ___acrt_execute_initializers 1008fb00 f   libucrtd:shared_initialization.obj
 0001:0008ebb0       ___acrt_execute_uninitializers 1008fbb0 f   libucrtd:shared_initialization.obj
 0001:0008ec10       ??$__crt_fast_decode_pointer@P6AHPAU_exception@@@Z@@YAP6AHPAU_exception@@@ZQ6AH0@Z@Z 1008fc10 f i libucrtd:matherr.obj
 0001:0008ec40       ??$__crt_fast_encode_pointer@P6AHPAU_exception@@@Z@@YAP6AHPAU_exception@@@ZQ6AH0@Z@Z 1008fc40 f i libucrtd:matherr.obj
 0001:0008ec70       ?initialize@?$dual_state_global@P6AHPAU_exception@@@Z@__crt_state_management@@QAEXQ6AHPAU_exception@@@Z@Z 1008fc70 f i libucrtd:matherr.obj
 0001:0008ecb0       ?value@?$dual_state_global@P6AHPAU_exception@@@Z@__crt_state_management@@QAEAAP6AHPAU_exception@@@ZXZ 1008fcb0 f i libucrtd:matherr.obj
 0001:0008ecd0       ___acrt_has_user_matherr   1008fcd0 f   libucrtd:matherr.obj
 0001:0008ed10       ___acrt_initialize_user_matherr 1008fd10 f   libucrtd:matherr.obj
 0001:0008ed30       ___acrt_invoke_user_matherr 1008fd30 f   libucrtd:matherr.obj
 0001:0008ed80       ___setusermatherr          1008fd80 f   libucrtd:matherr.obj
 0001:0008edc0       __free_base                1008fdc0 f   libucrtd:free_base.obj
 0001:0008ee70       __expand                   1008fe70 f   libucrtd:expand.obj
 0001:0008ee90       __expand_base              1008fe90 f   libucrtd:expand.obj
 0001:0008efc0       ?value@?$dual_state_global@J@__crt_state_management@@QAEAAJXZ 1008ffc0 f i libucrtd:new_mode.obj
 0001:0008efe0       __query_new_mode           1008ffe0 f   libucrtd:new_mode.obj
 0001:0008f000       __set_new_mode             10090000 f   libucrtd:new_mode.obj
 0001:0008f0a0       __CrtDefaultAllocHook      100900a0 f   libucrtd:debug_heap_hook.obj
 0001:0008f0ac       __mbsdec                   100900ac f   libucrtd:mbsdec.obj
 0001:0008f0c3       __mbsdec_l                 100900c3 f   libucrtd:mbsdec.obj
 0001:0008f5b0       _strncpy_s                 100905b0 f   libucrtd:strncpy_s.obj
 0001:0008f780       ___acrt_report_runtime_error 10090780 f   libucrtd:report_runtime_error.obj
 0001:0008f970       __query_app_type           10090970 f   libucrtd:report_runtime_error.obj
