 OPOSMSR

 Timestamp is 5d429ef2 (Thu Aug  1 17:12:34 2019)

 Preferred load address is 10000000

 Start         Length     Name                   Class
 0001:00000000 00000d90H .text$di                CODE
 0001:00000d90 000a8840H .text$mn                CODE
 0001:000a95d0 000001c0H .text$x                 CODE
 0001:000a9790 00000120H .text$yd                CODE
 0002:00000000 00000364H .idata$5                DATA
 0002:00000364 00000004H .00cfg                  DATA
 0002:00000368 00000004H .CRT$XCA                DATA
 0002:0000036c 00000004H .CRT$XCL                DATA
 0002:00000370 0000006cH .CRT$XCU                DATA
 0002:000003dc 00000004H .CRT$XCZ                DATA
 0002:000003e0 00000004H .CRT$XIA                DATA
 0002:000003e4 00000010H .CRT$XIC                DATA
 0002:000003f4 00000004H .CRT$XIZ                DATA
 0002:000003f8 00000004H .CRT$XLA                DATA
 0002:000003fc 00000004H .CRT$XLZ                DATA
 0002:00000400 00000004H .CRT$XPA                DATA
 0002:00000404 00000008H .CRT$XPX                DATA
 0002:0000040c 00000004H .CRT$XPXA               DATA
 0002:00000410 00000004H .CRT$XPZ                DATA
 0002:00000414 00000004H .CRT$XTA                DATA
 0002:00000418 00000008H .CRT$XTZ                DATA
 0002:0000041c 00000000H .gfids$y                DATA
 0002:00000420 0002fafcH .rdata                  DATA
 0002:0002ff1c 00000018H .rdata$T                DATA
 0002:0002ff34 0000033cH .rdata$r                DATA
 0002:00030270 00000044H .rdata$sxdata           DATA
 0002:000302b4 000003fcH .rdata$zzzdbg           DATA
 0002:000306b0 00000004H .rtc$IAA                DATA
 0002:000306b4 00000018H .rtc$IMZ                DATA
 0002:000306cc 00000004H .rtc$IZZ                DATA
 0002:000306d0 00000004H .rtc$TAA                DATA
 0002:000306d4 00000018H .rtc$TMZ                DATA
 0002:000306ec 00000004H .rtc$TZZ                DATA
 0002:000306f0 00000004H .tls                    DATA
 0002:000306f4 00000004H .tls$                   DATA
 0002:000306f8 00000008H .tls$ZZZ                DATA
 0002:00030700 00000e44H .xdata$x                DATA
 0002:00031544 00000004H ATL$__a                 DATA
 0002:00031548 00000008H ATL$__z                 DATA
 0002:00031550 000000a4H .edata                  DATA
 0002:000315f4 00000078H .idata$2                DATA
 0002:0003166c 00000014H .idata$3                DATA
 0002:00031680 00000364H .idata$4                DATA
 0002:000319e4 00000d50H .idata$6                DATA
 0003:00000000 00000ba0H .data                   DATA
 0003:00000ba0 00000138H .data$r                 DATA
 0003:00000cd8 00003580H .bss                    DATA
 0004:00000000 00000220H .rsrc$01                DATA
 0004:00000220 00005b18H .rsrc$02                DATA

  Address         Publics by Value              Rva+Base       Lib:Object

 0000:00000000       ___guard_longjmp_table     00000000     <absolute>
 0000:00000000       ___hybrid_code_map         00000000     <absolute>
 0000:00000000       ___guard_iat_count         00000000     <absolute>
 0000:00000000       ___guard_iat_table         00000000     <absolute>
 0000:00000000       ___AbsoluteZero            00000000     <absolute>
 0000:00000000       ___volatile_metadata       00000000     <absolute>
 0000:00000000       ___guard_fids_table        00000000     <absolute>
 0000:00000000       ___dynamic_value_reloc_table 00000000     <absolute>
 0000:00000000       ___guard_fids_count        00000000     <absolute>
 0000:00000000       ___hybrid_auxiliary_iat    00000000     <absolute>
 0000:00000000       ___hybrid_code_map_count   00000000     <absolute>
 0000:00000000       __except_list              00000000     <absolute>
 0000:00000000       ___enclave_config          00000000     <absolute>
 0000:00000000       ___guard_longjmp_count     00000000     <absolute>
 0000:00000011       ___safe_se_handler_count   00000011     <absolute>
 0000:0000002c       __tls_array                0000002c     <absolute>
 0000:00000100       ___guard_flags             00000100     <absolute>
 0000:00000000       ___ImageBase               10000000     <linker-defined>
 0001:00000d90       ?_assert@@YAXPB_W0I@Z      10001d90 f   Assert.obj
 0001:00000ec0       ___local_stdio_printf_options 10001ec0 f i Assert.obj
 0001:00000ed0       ___vswprintf_l             10001ed0 f i Assert.obj
 0001:00000f00       __swprintf                 10001f00 f i Assert.obj
 0001:00000f60       __vswprintf_c_l            10001f60 f i Assert.obj
 0001:00000fd0       __vswprintf_l              10001fd0 f i Assert.obj
 0001:00001000       ?cw_memcpy@@YGHPADPB_WH@Z  10002000 f   CWString.obj
 0001:00001060       ?cw_memcpy@@YGHPA_WPBDH@Z  10002060 f   CWString.obj
 0001:000010c0       ?cw_memcpy@@YGHPADPBDH@Z   100020c0 f   CWString.obj
 0001:00001110       ?cw_memcpy@@YGHPA_WPB_WH@Z 10002110 f   CWString.obj
 0001:00001150       ?cw_memset@@YAXPADDH@Z     10002150 f   CWString.obj
 0001:00001170       ?cw_memset@@YAXPA_W_WH@Z   10002170 f   CWString.obj
 0001:00001190       ?cw_strlen@@YAHPBD@Z       10002190 f   CWString.obj
 0001:000011e0       ?cw_strlen@@YAHPB_W@Z      100021e0 f   CWString.obj
 0001:00001230       ?cw_strcpy@@YAHPADPB_W@Z   10002230 f   CWString.obj
 0001:00001250       ?cw_strcpy@@YAHPA_WPBD@Z   10002250 f   CWString.obj
 0001:00001270       ?cw_strcpy@@YAHPADPBD@Z    10002270 f   CWString.obj
 0001:00001290       ?cw_strcpy@@YAHPA_WPB_W@Z  10002290 f   CWString.obj
 0001:000012b0       ?cw_strcat@@YAHPADPB_W@Z   100022b0 f   CWString.obj
 0001:000012e0       ?cw_strcat@@YAHPA_WPBD@Z   100022e0 f   CWString.obj
 0001:00001310       ?cw_strcat@@YAHPADPBD@Z    10002310 f   CWString.obj
 0001:00001340       ?cw_strcat@@YAHPA_WPB_W@Z  10002340 f   CWString.obj
 0001:00001370       ?cw_dup@@YGXPBDAAHAAPA_W1@Z 10002370 f   CWString.obj
 0001:00001430       ?cw_dup@@YGXPB_WAAHAAPAD1@Z 10002430 f   CWString.obj
 0001:000014e0       ?DupChar@_CW@@AAEXXZ       100024e0 f   CWString.obj
 0001:00001530       ?DupWide@_CW@@AAEXXZ       10002530 f   CWString.obj
 0001:00001580       ?GetCharsMbcs@_CW@@QAEHXZ  10002580 f   CWString.obj
 0001:000015e0       ?GetCharsWide@_CW@@QAEHXZ  100025e0 f   CWString.obj
 0001:00001640       ?SetVARIANT_BOOL@OposVariant@@QAEXF@Z 10002640 f   OposVariant.obj
 0001:000016a0       ?SetVARIANT_BOOL_Ptr@OposVariant@@QAEXPAFAAJ@Z 100026a0 f   OposVariant.obj
 0001:000016f0       ?GetLONG@OposVariant@@QAEJXZ 100026f0 f   OposVariant.obj
 0001:00001780       ?ChangeLONG@OposVariant@@QAEXPAJAAJ@Z 10002780 f   OposVariant.obj
 0001:00001840       ?SetLONG@OposVariant@@QAEXJ@Z 10002840 f   OposVariant.obj
 0001:00001880       ?SetLONG_Ptr@OposVariant@@QAEXPAJAAJ@Z 10002880 f   OposVariant.obj
 0001:000018d0       ?ChangeCURRENCY@OposVariant@@QAEXPATtagCY@@AAJ@Z 100028d0 f   OposVariant.obj
 0001:00001990       ?SetCURRENCY@OposVariant@@QAEXTtagCY@@@Z 10002990 f   OposVariant.obj
 0001:000019d0       ?SetCURRENCY_Ptr@OposVariant@@QAEXPATtagCY@@AAJ@Z 100029d0 f   OposVariant.obj
 0001:00001a20       ?ChangeBSTR@OposVariant@@QAEXPAPA_WAAJ@Z 10002a20 f   OposVariant.obj
 0001:00001ae0       ?SetBSTR@OposVariant@@QAEXPA_WAAJ@Z 10002ae0 f   OposVariant.obj
 0001:00001b30       ?SetBSTR_Copy@OposVariant@@QAEXPA_WAAJ@Z 10002b30 f   OposVariant.obj
 0001:00001bd0       ?SetBSTR_OutPtr@OposVariant@@QAE_NPAPA_WAAJ@Z 10002bd0 f   OposVariant.obj
 0001:00001c20       ?SetBSTR_InOutPtr@OposVariant@@QAE_NPAPA_WAAJ@Z 10002c20 f   OposVariant.obj
 0001:00001c70       ?SetVARIANT@OposVariant@@QAEXAAUtagVARIANT@@GAAJ@Z 10002c70 f   OposVariant.obj
 0001:00001cf0       ?SetVARIANT_Ptr@OposVariant@@QAEXAAPAUtagVARIANT@@GAAJ@Z 10002cf0 f   OposVariant.obj
 0001:00001d90       ?SetString@OposVariant@@QAEXPB_WAAJ@Z 10002d90 f   OposVariant.obj
 0001:00001e20       ?SetDispatch_Ptr@OposVariant@@QAEXPAUIDispatch@@AAJ@Z 10002e20 f   OposVariant.obj
 0001:00001e90       ??0OposDispParms@@QAE@PAVOposVariant@@H@Z 10002e90 f   OposVariant.obj
 0001:00001f60       ??1OposDispParms@@QAE@XZ   10002f60 f   OposVariant.obj
 0001:00001fb0       ??$AtlMultiply@I@ATL@@YAJPAIII@Z 10002fb0 f i OposVariant.obj
 0001:00002010       ??0?$CHeapPtr@_WVCCRTAllocator@ATL@@@ATL@@QAE@XZ 10003010 f i OposVariant.obj
 0001:00002040       ??0?$CHeapPtrBase@_WVCCRTAllocator@ATL@@@ATL@@IAE@XZ 10003040 f i OposVariant.obj
 0001:00002060       ??0?$CSimpleArray@GV?$CSimpleArrayEqualHelper@G@ATL@@@ATL@@QAE@XZ 10003060 f i OposVariant.obj
 0001:000020a0       ??0?$CTraceCategoryEx@$00$0A@@ATL@@QAE@PB_W@Z 100030a0 f i OposVariant.obj
 0001:000020d0       ??0?$CTraceCategoryEx@$01$0A@@ATL@@QAE@PB_W@Z 100030d0 f i OposVariant.obj
 0001:00002100       ??0?$CTraceCategoryEx@$03$0A@@ATL@@QAE@PB_W@Z 10003100 f i OposVariant.obj
 0001:00002130       ??0?$CTraceCategoryEx@$07$0A@@ATL@@QAE@PB_W@Z 10003130 f i OposVariant.obj
 0001:00002160       ??0?$CTraceCategoryEx@$0BA@$0A@@ATL@@QAE@PB_W@Z 10003160 f i OposVariant.obj
 0001:00002190       ??0?$CTraceCategoryEx@$0BAA@$0A@@ATL@@QAE@PB_W@Z 10003190 f i OposVariant.obj
 0001:000021d0       ??0?$CTraceCategoryEx@$0BAAA@$0A@@ATL@@QAE@PB_W@Z 100031d0 f i OposVariant.obj
 0001:00002210       ??0?$CTraceCategoryEx@$0BAAAA@$0A@@ATL@@QAE@PB_W@Z 10003210 f i OposVariant.obj
 0001:00002250       ??0?$CTraceCategoryEx@$0BAAAAA@$0A@@ATL@@QAE@PB_W@Z 10003250 f i OposVariant.obj
 0001:00002290       ??0?$CTraceCategoryEx@$0CA@$0A@@ATL@@QAE@PB_W@Z 10003290 f i OposVariant.obj
 0001:000022c0       ??0?$CTraceCategoryEx@$0CAA@$0A@@ATL@@QAE@PB_W@Z 100032c0 f i OposVariant.obj
 0001:00002300       ??0?$CTraceCategoryEx@$0CAAA@$0A@@ATL@@QAE@PB_W@Z 10003300 f i OposVariant.obj
 0001:00002340       ??0?$CTraceCategoryEx@$0CAAAA@$0A@@ATL@@QAE@PB_W@Z 10003340 f i OposVariant.obj
 0001:00002380       ??0?$CTraceCategoryEx@$0CAAAAA@$0A@@ATL@@QAE@PB_W@Z 10003380 f i OposVariant.obj
 0001:000023c0       ??0?$CTraceCategoryEx@$0EA@$0A@@ATL@@QAE@PB_W@Z 100033c0 f i OposVariant.obj
 0001:000023f0       ??0?$CTraceCategoryEx@$0EAA@$0A@@ATL@@QAE@PB_W@Z 100033f0 f i OposVariant.obj
 0001:00002430       ??0?$CTraceCategoryEx@$0EAAA@$0A@@ATL@@QAE@PB_W@Z 10003430 f i OposVariant.obj
 0001:00002470       ??0?$CTraceCategoryEx@$0EAAAA@$0A@@ATL@@QAE@PB_W@Z 10003470 f i OposVariant.obj
 0001:000024b0       ??0?$CTraceCategoryEx@$0EAAAAA@$0A@@ATL@@QAE@PB_W@Z 100034b0 f i OposVariant.obj
 0001:000024f0       ??0?$CTraceCategoryEx@$0IA@$0A@@ATL@@QAE@PB_W@Z 100034f0 f i OposVariant.obj
 0001:00002530       ??0?$CTraceCategoryEx@$0IAA@$0A@@ATL@@QAE@PB_W@Z 10003530 f i OposVariant.obj
 0001:00002570       ??0?$CTraceCategoryEx@$0IAAA@$0A@@ATL@@QAE@PB_W@Z 10003570 f i OposVariant.obj
 0001:000025b0       ??0?$CTraceCategoryEx@$0IAAAA@$0A@@ATL@@QAE@PB_W@Z 100035b0 f i OposVariant.obj
 0001:000025f0       ??0CAtlComModule@ATL@@QAE@XZ 100035f0 f i OposVariant.obj
 0001:000026d0       ??0CAtlWinModule@ATL@@QAE@XZ 100036d0 f i OposVariant.obj
 0001:00002760       ??0CComCriticalSection@ATL@@QAE@XZ 10003760 f i OposVariant.obj
 0001:00002790       ??0CPreserveLastError@ATL@@QAE@XZ 10003790 f i OposVariant.obj
 0001:000027d0       ??0CTraceFileAndLineInfo@ATL@@QAE@PBDH@Z 100037d0 f i OposVariant.obj
 0001:00002800       ??0_ATL_COM_MODULE70@ATL@@QAE@XZ 10003800 f i OposVariant.obj
 0001:00002830       ??0_ATL_WIN_MODULE70@ATL@@QAE@XZ 10003830 f i OposVariant.obj
 0001:00002870       ??1?$CHeapPtr@_WVCCRTAllocator@ATL@@@ATL@@QAE@XZ 10003870 f i OposVariant.obj
 0001:000028a0       ??1?$CHeapPtrBase@_WVCCRTAllocator@ATL@@@ATL@@QAE@XZ 100038a0 f i OposVariant.obj
 0001:000028d0       ??1?$CSimpleArray@GV?$CSimpleArrayEqualHelper@G@ATL@@@ATL@@QAE@XZ 100038d0 f i OposVariant.obj
 0001:00002900       ??1CAtlComModule@ATL@@QAE@XZ 10003900 f i OposVariant.obj
 0001:00002930       ??1CAtlWinModule@ATL@@QAE@XZ 10003930 f i OposVariant.obj
 0001:00002960       ??1CComBSTR@ATL@@QAE@XZ    10003960 f i OposVariant.obj
 0001:000029a0       ??1CComCriticalSection@ATL@@QAE@XZ 100039a0 f i OposVariant.obj
 0001:000029c0       ??1CPreserveLastError@ATL@@QAE@XZ 100039c0 f i OposVariant.obj
 0001:00002a00       ??1_ATL_COM_MODULE70@ATL@@QAE@XZ 10003a00 f i OposVariant.obj
 0001:00002a30       ??1_ATL_WIN_MODULE70@ATL@@QAE@XZ 10003a30 f i OposVariant.obj
 0001:00002a70       ??1stringdispid@CComTypeInfoHolder@ATL@@QAE@XZ 10003a70 f i OposVariant.obj
 0001:00002aa0       ??A?$CSimpleArray@GV?$CSimpleArrayEqualHelper@G@ATL@@@ATL@@QAEAAGH@Z 10003aa0 f i OposVariant.obj
 0001:00002b20       ??B?$CHeapPtrBase@_WVCCRTAllocator@ATL@@@ATL@@QBEPA_WXZ 10003b20 f i OposVariant.obj
 0001:00002b40       ??B?$CTraceCategoryEx@$01$0A@@ATL@@QAEIXZ 10003b40 f i OposVariant.obj
 0001:00002b60       ??B?$CTraceCategoryEx@$0CA@$0A@@ATL@@QAEIXZ 10003b60 f i OposVariant.obj
 0001:00002b80       ??RCTraceFileAndLineInfo@ATL@@QBAXHIPB_WZZ 10003b80 f i OposVariant.obj
 0001:00002c20       ??_Estringdispid@CComTypeInfoHolder@ATL@@QAEPAXI@Z 10003c20 f i OposVariant.obj
 0001:00002cb0       ??_H@YGXPAXIIP6EPAX0@Z@Z   10003cb0 f i OposVariant.obj
 0001:00002d20       ??_I@YGXPAXIIP6EX0@Z@Z     10003d20 f i OposVariant.obj
 0001:00002da0       ?Allocate@?$CHeapPtr@_WVCCRTAllocator@ATL@@@ATL@@QAE_NI@Z 10003da0 f i OposVariant.obj
 0001:00002e30       ?Allocate@CCRTAllocator@ATL@@SAPAXI@Z 10003e30 f i OposVariant.obj
 0001:00002e50       ?AllocateBytes@?$CHeapPtrBase@_WVCCRTAllocator@ATL@@@ATL@@QAE_NI@Z 10003e50 f i OposVariant.obj
 0001:00002ec0       ?AtlWinModuleInit@ATL@@YGJPAU_ATL_WIN_MODULE70@1@@Z 10003ec0 f i OposVariant.obj
 0001:00002f90       ?AtlWinModuleTerm@ATL@@YGJPAU_ATL_WIN_MODULE70@1@PAUHINSTANCE__@@@Z 10003f90 f i OposVariant.obj
 0001:00003050       ?Clear@OposVariant@@QAEJXZ 10004050 f i OposVariant.obj
 0001:00003090       ?Free@?$CHeapPtrBase@_WVCCRTAllocator@ATL@@@ATL@@QAEXXZ 10004090 f i OposVariant.obj
 0001:000030d0       ?Free@CCRTAllocator@ATL@@SAXPAX@Z 100040d0 f i OposVariant.obj
 0001:000030f0       ?GetCategoryName@CTrace@ATL@@CAPA_WI@Z 100040f0 f i OposVariant.obj
 0001:00003140       ?GetModuleInstance@CAtlBaseModule@ATL@@QAEPAUHINSTANCE__@@XZ 10004140 f i OposVariant.obj
 0001:00003160       ?GetSize@?$CSimpleArray@GV?$CSimpleArrayEqualHelper@G@ATL@@@ATL@@QBEHXZ 10004160 f i OposVariant.obj
 0001:00003180       ?Init@CComCriticalSection@ATL@@QAEJXZ 10004180 f i OposVariant.obj
 0001:000031e0       ?RegisterCategory@CTrace@ATL@@SAXPB_WI@Z 100041e0 f i OposVariant.obj
 0001:00003270       ?RemoveAll@?$CSimpleArray@GV?$CSimpleArrayEqualHelper@G@ATL@@@ATL@@QAEXXZ 10004270 f i OposVariant.obj
 0001:000032f0       ?Term@CAtlComModule@ATL@@QAEXXZ 100042f0 f i OposVariant.obj
 0001:000033b0       ?Term@CAtlWinModule@ATL@@QAEXXZ 100043b0 f i OposVariant.obj
 0001:000033e0       ?Term@CComCriticalSection@ATL@@QAEJXZ 100043e0 f i OposVariant.obj
 0001:00003420       ?TraceV@CTrace@ATL@@CAXPBDHIIPB_W@Z 10004420 f i OposVariant.obj
 0001:000036a0       ?TraceV@CTrace@ATL@@SAXPBDHIIPB_WPAD@Z 100046a0 f i OposVariant.obj
 0001:000037e0       ?_AtlInitializeCriticalSectionEx@ATL@@YAHPAU_RTL_CRITICAL_SECTION@@KK@Z 100047e0 f i OposVariant.obj
 0001:00003810       ?_AtlRaiseException@ATL@@YAXKK@Z 10004810 f i OposVariant.obj
 0001:00003840       _HRESULT_FROM_WIN32        10004840 f i OposVariant.obj
 0001:00003880       __vswprintf_s_l            10004880 f i OposVariant.obj
 0001:000038f0       _swprintf_s                100048f0 f i OposVariant.obj
 0001:00003950       ?UpdateRegistry@COPOSMSR@@SGJH@Z 10004950 f i MSR.obj
 0001:00003970       ?ObjectMain@CComObjectRootBase@ATL@@SGX_N@Z 10004970 f i MSR.obj
 0001:00003980       ?GetCategoryMap@CComObjectRootBase@ATL@@SAPBU_ATL_CATMAP_ENTRY@2@XZ 10004980 f i MSR.obj
 0001:00003990       ?CreateInstance@?$CComCreator@V?$CComObjectCached@VCComClassFactory@ATL@@@ATL@@@ATL@@SGJPAXABU_GUID@@PAPAX@Z 10004990 f i MSR.obj
 0001:00003b10       ?CreateInstance@?$CComCreator2@V?$CComCreator@V?$CComObject@VCOPOSMSR@@@ATL@@@ATL@@V?$CComCreator@V?$CComAggObject@VCOPOSMSR@@@ATL@@@2@@ATL@@SGJPAXABU_GUID@@PAPAX@Z 10004b10 f i MSR.obj
 0001:00003b90       ?GetObjectDescription@?$CComCoClass@VCOPOSMSR@@$1?CLSID_OPOSMSR@@3U_GUID@@B@ATL@@SGPB_WXZ 10004b90 f i MSR.obj
 0001:00003cd0       _DllGetClassObject@12      10004cd0 f   MSR.obj
 0001:00003d00       _DllCanUnloadNow@0         10004d00 f   MSR.obj
 0001:00003d40       _DllRegisterServer@0       10004d40 f   MSR.obj
 0001:00003d60       _DllUnregisterServer@0     10004d60 f   MSR.obj
 0001:00003ef0       _DllMain@12                10004ef0 f   MSR.obj
 0001:00003f50       ??$?2G@Wrapper@?$CSimpleArray@GV?$CSimpleArrayEqualHelper@G@ATL@@@ATL@@SAPAXIPAG@Z 10004f50 f i MSR.obj
 0001:00003f60       ??$?2PA_W@?$Wrapper@PA_W@?$CSimpleMap@PA_WPA_WVCExpansionVectorEqualHelper@ATL@@@ATL@@SAPAXIPAPA_W@Z 10004f60 f i MSR.obj
 0001:00003f70       ??$?4UITypeInfo2@@@?$CComPtr@UITypeInfo@@@ATL@@QAEPAUITypeInfo@@ABV?$CComPtr@UITypeInfo2@@@1@@Z 10004f70 f i MSR.obj
 0001:00003fd0       ??$AtlAdd@K@ATL@@YAJPAKKK@Z 10004fd0 f i MSR.obj
 0001:00004010       ??$AtlAdd@_K@ATL@@YAJPA_K_K1@Z 10005010 f i MSR.obj
 0001:00004080       ??$AtlAddThrow@K@ATL@@YAKKK@Z 10005080 f i MSR.obj
 0001:00004100       ??$AtlModuleRegisterWndClassInfoT@VAtlModuleRegisterWndClassInfoParamW@ATL@@@ATL@@YAGPAU_ATL_BASE_MODULE70@0@PAU_ATL_WIN_MODULE70@0@PAU_ATL_WNDCLASSINFOW@0@PAP6GJPAUHWND__@@IIJ@ZVAtlModuleRegisterWndClassInfoParamW@0@@Z 10005100 f i MSR.obj
 0001:00004510       ??$AtlMultiply@H@ATL@@YAJPAHHH@Z 10005510 f i MSR.obj
 0001:00004590       ??$AtlMultiply@K@ATL@@YAJPAKKK@Z 10005590 f i MSR.obj
 0001:000045f0       ??$AtlMultiplyThrow@I@ATL@@YAIII@Z 100055f0 f i MSR.obj
 0001:00004670       ??$QueryInterface@UIPersistStream@@@IUnknown@@QAGJPAPAUIPersistStream@@@Z 10005670 f i MSR.obj
 0001:000046a0       ??$QueryInterface@UITypeInfo2@@@IUnknown@@QAGJPAPAUITypeInfo2@@@Z 100056a0 f i MSR.obj
 0001:000046d0       ??0?$CAtlModuleT@VCComModule@ATL@@@ATL@@QAE@XZ 100056d0 f i MSR.obj
 0001:00004700       ??0?$CAtlSafeAllocBufferManager@VCCRTAllocator@ATL@@@_ATL_SAFE_ALLOCA_IMPL@ATL@@QAE@XZ 10005700 f i MSR.obj
 0001:00004720       ??0?$CAutoVectorPtr@_W@ATL@@QAE@XZ 10005720 f i MSR.obj
 0001:00004740       ??0?$CComAggObject@VCOPOSMSR@@@ATL@@QAE@PAX@Z 10005740 f i MSR.obj
 0001:000047b0       ??0?$CComContainedObject@VCOPOSMSR@@@ATL@@QAE@PAX@Z 100057b0 f i MSR.obj
 0001:000048c0       ??0?$CComCritSecLock@VCComCriticalSection@ATL@@@ATL@@QAE@AAVCComCriticalSection@1@_N@Z 100058c0 f i MSR.obj
 0001:00004920       ??0?$CComEnum@UIEnumConnectionPoints@@$1?_GUID_b196b285_bab4_101a_b69c_00aa00341d07@@3U__s_GUID@@BPAUIConnectionPoint@@V?$_CopyInterface@UIConnectionPoint@@@ATL@@VCComSingleThreadModel@6@@ATL@@QAE@XZ 10005920 f i MSR.obj
 0001:00004960       ??0?$CComEnum@UIEnumConnections@@$1?_GUID_b196b287_bab4_101a_b69c_00aa00341d07@@3U__s_GUID@@BUtagCONNECTDATA@@V?$_Copy@UtagCONNECTDATA@@@ATL@@VCComSingleThreadModel@6@@ATL@@QAE@XZ 10005960 f i MSR.obj
 0001:000049a0       ??0?$CComEnumImpl@UIEnumConnectionPoints@@$1?_GUID_b196b285_bab4_101a_b69c_00aa00341d07@@3U__s_GUID@@BPAUIConnectionPoint@@V?$_CopyInterface@UIConnectionPoint@@@ATL@@@ATL@@QAE@XZ 100059a0 f i MSR.obj
 0001:00004a00       ??0?$CComEnumImpl@UIEnumConnections@@$1?_GUID_b196b287_bab4_101a_b69c_00aa00341d07@@3U__s_GUID@@BUtagCONNECTDATA@@V?$_Copy@UtagCONNECTDATA@@@ATL@@@ATL@@QAE@XZ 10005a00 f i MSR.obj
 0001:00004a60       ??0?$CComObject@V?$CComEnum@UIEnumConnectionPoints@@$1?_GUID_b196b285_bab4_101a_b69c_00aa00341d07@@3U__s_GUID@@BPAUIConnectionPoint@@V?$_CopyInterface@UIConnectionPoint@@@ATL@@VCComSingleThreadModel@6@@ATL@@@ATL@@QAE@PAX@Z 10005a60 f i MSR.obj
 0001:00004ab0       ??0?$CComObject@V?$CComEnum@UIEnumConnections@@$1?_GUID_b196b287_bab4_101a_b69c_00aa00341d07@@3U__s_GUID@@BUtagCONNECTDATA@@V?$_Copy@UtagCONNECTDATA@@@ATL@@VCComSingleThreadModel@6@@ATL@@@ATL@@QAE@PAX@Z 10005ab0 f i MSR.obj
 0001:00004b00       ??0?$CComObject@VCOPOSMSR@@@ATL@@QAE@PAX@Z 10005b00 f i MSR.obj
 0001:00004c20       ??0?$CComObjectCached@VCComClassFactory@ATL@@@ATL@@QAE@PAX@Z 10005c20 f i MSR.obj
 0001:00004c60       ??0?$CComObjectRootEx@VCComMultiThreadModel@ATL@@@ATL@@QAE@XZ 10005c60 f i MSR.obj
 0001:00004ca0       ??0?$CComObjectRootEx@VCComSingleThreadModel@ATL@@@ATL@@QAE@XZ 10005ca0 f i MSR.obj
 0001:00004cd0       ??0?$CComPtr@UIAdviseSink@@@ATL@@QAE@PAUIAdviseSink@@@Z 10005cd0 f i MSR.obj
 0001:00004d00       ??0?$CComPtr@UICatRegister@@@ATL@@QAE@XZ 10005d00 f i MSR.obj
 0001:00004d30       ??0?$CComPtr@UIConnectionPoint@@@ATL@@QAE@XZ 10005d30 f i MSR.obj
 0001:00004d60       ??0?$CComPtr@UIConnectionPointContainer@@@ATL@@QAE@XZ 10005d60 f i MSR.obj
 0001:00004d90       ??0?$CComPtr@UIDataObject@@@ATL@@QAE@XZ 10005d90 f i MSR.obj
 0001:00004dc0       ??0?$CComPtr@UIDispatch@@@ATL@@QAE@XZ 10005dc0 f i MSR.obj
 0001:00004df0       ??0?$CComPtr@UIOleClientSite@@@ATL@@QAE@PAUIOleClientSite@@@Z 10005df0 f i MSR.obj
 0001:00004e20       ??0?$CComPtr@UIOleControlSite@@@ATL@@QAE@XZ 10005e20 f i MSR.obj
 0001:00004e50       ??0?$CComPtr@UIOleInPlaceActiveObject@@@ATL@@QAE@XZ 10005e50 f i MSR.obj
 0001:00004e80       ??0?$CComPtr@UIOleInPlaceFrame@@@ATL@@QAE@XZ 10005e80 f i MSR.obj
 0001:00004eb0       ??0?$CComPtr@UIOleInPlaceObject@@@ATL@@QAE@XZ 10005eb0 f i MSR.obj
 0001:00004ee0       ??0?$CComPtr@UIOleInPlaceUIWindow@@@ATL@@QAE@XZ 10005ee0 f i MSR.obj
 0001:00004f10       ??0?$CComPtr@UIOleObject@@@ATL@@QAE@XZ 10005f10 f i MSR.obj
 0001:00004f40       ??0?$CComPtr@UIPersistStream@@@ATL@@QAE@XZ 10005f40 f i MSR.obj
 0001:00004f70       ??0?$CComPtr@UIPersistStreamInit@@@ATL@@QAE@XZ 10005f70 f i MSR.obj
 0001:00004fa0       ??0?$CComPtr@UIPointerInactive@@@ATL@@QAE@XZ 10005fa0 f i MSR.obj
 0001:00004fd0       ??0?$CComPtr@UIProvideClassInfo2@@@ATL@@QAE@XZ 10005fd0 f i MSR.obj
 0001:00005000       ??0?$CComPtr@UISpecifyPropertyPages@@@ATL@@QAE@XZ 10006000 f i MSR.obj
 0001:00005030       ??0?$CComPtr@UIStream@@@ATL@@QAE@XZ 10006030 f i MSR.obj
 0001:00005060       ??0?$CComPtr@UITypeInfo2@@@ATL@@QAE@XZ 10006060 f i MSR.obj
 0001:00005090       ??0?$CComPtr@UITypeInfo@@@ATL@@QAE@ABV01@@Z 10006090 f i MSR.obj
 0001:000050c0       ??0?$CComPtr@UITypeInfo@@@ATL@@QAE@XZ 100060c0 f i MSR.obj
 0001:000050f0       ??0?$CComPtr@UITypeLib@@@ATL@@QAE@XZ 100060f0 f i MSR.obj
 0001:00005120       ??0?$CComPtr@UIUnknown@@@ATL@@QAE@ABV01@@Z 10006120 f i MSR.obj
 0001:00005150       ??0?$CComPtr@UIUnknown@@@ATL@@QAE@PAUIUnknown@@@Z 10006150 f i MSR.obj
 0001:00005180       ??0?$CComPtr@UIUnknown@@@ATL@@QAE@XZ 10006180 f i MSR.obj
 0001:000051b0       ??0?$CComPtr@UIViewObjectEx@@@ATL@@QAE@XZ 100061b0 f i MSR.obj
 0001:000051e0       ??0?$CComPtrBase@UIAdviseSink@@@ATL@@IAE@PAUIAdviseSink@@@Z 100061e0 f i MSR.obj
 0001:00005230       ??0?$CComPtrBase@UICatRegister@@@ATL@@IAE@XZ 10006230 f i MSR.obj
 0001:00005250       ??0?$CComPtrBase@UIConnectionPoint@@@ATL@@IAE@XZ 10006250 f i MSR.obj
 0001:00005270       ??0?$CComPtrBase@UIConnectionPointContainer@@@ATL@@IAE@XZ 10006270 f i MSR.obj
 0001:00005290       ??0?$CComPtrBase@UIDataObject@@@ATL@@IAE@XZ 10006290 f i MSR.obj
 0001:000052b0       ??0?$CComPtrBase@UIDispatch@@@ATL@@IAE@XZ 100062b0 f i MSR.obj
 0001:000052d0       ??0?$CComPtrBase@UIOleClientSite@@@ATL@@IAE@PAUIOleClientSite@@@Z 100062d0 f i MSR.obj
 0001:00005320       ??0?$CComPtrBase@UIOleControlSite@@@ATL@@IAE@XZ 10006320 f i MSR.obj
 0001:00005340       ??0?$CComPtrBase@UIOleInPlaceActiveObject@@@ATL@@IAE@XZ 10006340 f i MSR.obj
 0001:00005360       ??0?$CComPtrBase@UIOleInPlaceFrame@@@ATL@@IAE@XZ 10006360 f i MSR.obj
 0001:00005380       ??0?$CComPtrBase@UIOleInPlaceObject@@@ATL@@IAE@XZ 10006380 f i MSR.obj
 0001:000053a0       ??0?$CComPtrBase@UIOleInPlaceUIWindow@@@ATL@@IAE@XZ 100063a0 f i MSR.obj
 0001:000053c0       ??0?$CComPtrBase@UIOleObject@@@ATL@@IAE@XZ 100063c0 f i MSR.obj
 0001:000053e0       ??0?$CComPtrBase@UIPersistStream@@@ATL@@IAE@XZ 100063e0 f i MSR.obj
 0001:00005400       ??0?$CComPtrBase@UIPersistStreamInit@@@ATL@@IAE@XZ 10006400 f i MSR.obj
 0001:00005420       ??0?$CComPtrBase@UIPointerInactive@@@ATL@@IAE@XZ 10006420 f i MSR.obj
 0001:00005440       ??0?$CComPtrBase@UIProvideClassInfo2@@@ATL@@IAE@XZ 10006440 f i MSR.obj
 0001:00005460       ??0?$CComPtrBase@UISpecifyPropertyPages@@@ATL@@IAE@XZ 10006460 f i MSR.obj
 0001:00005480       ??0?$CComPtrBase@UIStream@@@ATL@@IAE@XZ 10006480 f i MSR.obj
 0001:000054a0       ??0?$CComPtrBase@UITypeInfo2@@@ATL@@IAE@XZ 100064a0 f i MSR.obj
 0001:000054c0       ??0?$CComPtrBase@UITypeInfo@@@ATL@@IAE@PAUITypeInfo@@@Z 100064c0 f i MSR.obj
 0001:00005510       ??0?$CComPtrBase@UITypeInfo@@@ATL@@IAE@XZ 10006510 f i MSR.obj
 0001:00005530       ??0?$CComPtrBase@UITypeLib@@@ATL@@IAE@XZ 10006530 f i MSR.obj
 0001:00005550       ??0?$CComPtrBase@UIUnknown@@@ATL@@IAE@PAUIUnknown@@@Z 10006550 f i MSR.obj
 0001:000055a0       ??0?$CComPtrBase@UIUnknown@@@ATL@@IAE@XZ 100065a0 f i MSR.obj
 0001:000055c0       ??0?$CComPtrBase@UIViewObjectEx@@@ATL@@IAE@XZ 100065c0 f i MSR.obj
 0001:000055e0       ??0?$CComQIPtr@UIOleControlSite@@$1?_GUID_b196b289_bab4_101a_b69c_00aa00341d07@@3U__s_GUID@@B@ATL@@QAE@PAUIUnknown@@@Z 100065e0 f i MSR.obj
 0001:00005640       ??0?$CComQIPtr@UIOleObject@@$1?_GUID_00000112_0000_0000_c000_000000000046@@3U__s_GUID@@B@ATL@@QAE@XZ 10006640 f i MSR.obj
 0001:00005670       ??0?$CComQIPtr@UISpecifyPropertyPages@@$1?_GUID_b196b28b_bab4_101a_b69c_00aa00341d07@@3U__s_GUID@@B@ATL@@QAE@XZ 10006670 f i MSR.obj
 0001:000056a0       ??0?$CSimpleMap@PA_WPA_WVCExpansionVectorEqualHelper@ATL@@@ATL@@QAE@XZ 100066a0 f i MSR.obj
 0001:000056e0       ??0?$CTempBuffer@E$0BAA@VCCRTAllocator@ATL@@@ATL@@QAE@XZ 100066e0 f i MSR.obj
 0001:00005700       ??0?$CTempBuffer@_W$0BAA@VCCRTAllocator@ATL@@@ATL@@QAE@XZ 10006700 f i MSR.obj
 0001:00005720       ??0?$CTempBuffer@_W$0EAA@VCCRTAllocator@ATL@@@ATL@@QAE@XZ 10006720 f i MSR.obj
 0001:00005740       ??0?$Wrapper@PA_W@?$CSimpleMap@PA_WPA_WVCExpansionVectorEqualHelper@ATL@@@ATL@@QAE@ABQA_W@Z 10006740 f i MSR.obj
 0001:00005770       ??0CAtlModule@ATL@@QAE@XZ  10006770 f i MSR.obj
 0001:00005890       ??0CComAutoDeleteCriticalSection@ATL@@QAE@XZ 10006890 f i MSR.obj
 0001:000058c0       ??0CComBSTR@ATL@@QAE@XZ    100068c0 f i MSR.obj
 0001:000058e0       ??0CComClassFactory@ATL@@QAE@XZ 100068e0 f i MSR.obj
 0001:00005920       ??0CComModule@ATL@@QAE@XZ  10006920 f i MSR.obj
 0001:00005990       ??0CComObjectRootBase@ATL@@QAE@XZ 10006990 f i MSR.obj
 0001:000059b0       ??0CComSafeDeleteCriticalSection@ATL@@QAE@XZ 100069b0 f i MSR.obj
 0001:000059e0       ??0CComVariant@ATL@@QAE@XZ 100069e0 f i MSR.obj
 0001:00005a30       ??0CExpansionVector@ATL@@QAE@XZ 10006a30 f i MSR.obj
 0001:00005a60       ??0CParseBuffer@CRegParser@ATL@@QAE@H@Z 10006a60 f i MSR.obj
 0001:00005ad0       ??0CRegKey@ATL@@QAE@PAUHKEY__@@@Z 10006ad0 f i MSR.obj
 0001:00005b10       ??0CRegKey@ATL@@QAE@PAVCAtlTransactionManager@1@@Z 10006b10 f i MSR.obj
 0001:00005b50       ??0CRegObject@ATL@@QAE@XZ  10006b50 f i MSR.obj
 0001:00005b90       ??0CRegParser@ATL@@QAE@PAVCRegObject@1@@Z 10006b90 f i MSR.obj
 0001:00005bc0       ??0IClassFactory@@QAE@XZ   10006bc0 f i MSR.obj
 0001:00005bf0       ??0IEnumConnectionPoints@@QAE@XZ 10006bf0 f i MSR.obj
 0001:00005c20       ??0IEnumConnections@@QAE@XZ 10006c20 f i MSR.obj
 0001:00005c50       ??0IRegistrarBase@@QAE@XZ  10006c50 f i MSR.obj
 0001:00005c80       ??0IUnknown@@QAE@XZ        10006c80 f i MSR.obj
 0001:00005ca0       ??0ModuleLockHelper@ATL@@QAE@XZ 10006ca0 f i MSR.obj
 0001:00005ce0       ??0OposVariant@@QAE@XZ     10006ce0 f i MSR.obj
 0001:00005d10       ??0Wrapper@?$CSimpleArray@GV?$CSimpleArrayEqualHelper@G@ATL@@@ATL@@QAE@ABG@Z 10006d10 f i MSR.obj
 0001:00005d40       ??0_ATL_MODULE70@ATL@@QAE@XZ 10006d40 f i MSR.obj
 0001:00005d70       ??0_ATL_MSG@ATL@@QAE@PAUHWND__@@IIJH@Z 10006d70 f i MSR.obj
 0001:00005de0       ??0_U_MENUorID@ATL@@QAE@I@Z 10006de0 f i MSR.obj
 0001:00005e00       ??0_U_RECT@ATL@@QAE@AAUtagRECT@@@Z 10006e00 f i MSR.obj
 0001:00005e20       ??0stringdispid@CComTypeInfoHolder@ATL@@QAE@XZ 10006e20 f i MSR.obj
 0001:00005e60       ??1?$CAtlModuleT@VCComModule@ATL@@@ATL@@UAE@XZ 10006e60 f i MSR.obj
 0001:00005e90       ??1?$CAtlSafeAllocBufferManager@VCCRTAllocator@ATL@@@_ATL_SAFE_ALLOCA_IMPL@ATL@@QAE@XZ 10006e90 f i MSR.obj
 0001:00005ee0       ??1?$CAutoVectorPtr@_W@ATL@@QAE@XZ 10006ee0 f i MSR.obj
 0001:00005f10       ??1?$CComAggObject@VCOPOSMSR@@@ATL@@UAE@XZ 10006f10 f i MSR.obj
 0001:00005f80       ??1?$CComContainedObject@VCOPOSMSR@@@ATL@@UAE@XZ 10006f80 f i MSR.obj
 0001:00005fb0       ??1?$CComCritSecLock@VCComCriticalSection@ATL@@@ATL@@QAE@XZ 10006fb0 f i MSR.obj
 0001:00005fe0       ??1?$CComEnum@UIEnumConnectionPoints@@$1?_GUID_b196b285_bab4_101a_b69c_00aa00341d07@@3U__s_GUID@@BPAUIConnectionPoint@@V?$_CopyInterface@UIConnectionPoint@@@ATL@@VCComSingleThreadModel@6@@ATL@@UAE@XZ 10006fe0 f i MSR.obj
 0001:00006010       ??1?$CComEnum@UIEnumConnections@@$1?_GUID_b196b287_bab4_101a_b69c_00aa00341d07@@3U__s_GUID@@BUtagCONNECTDATA@@V?$_Copy@UtagCONNECTDATA@@@ATL@@VCComSingleThreadModel@6@@ATL@@UAE@XZ 10007010 f i MSR.obj
 0001:00006040       ??1?$CComEnumImpl@UIEnumConnectionPoints@@$1?_GUID_b196b285_bab4_101a_b69c_00aa00341d07@@3U__s_GUID@@BPAUIConnectionPoint@@V?$_CopyInterface@UIConnectionPoint@@@ATL@@@ATL@@UAE@XZ 10007040 f i MSR.obj
 0001:000060d0       ??1?$CComEnumImpl@UIEnumConnections@@$1?_GUID_b196b287_bab4_101a_b69c_00aa00341d07@@3U__s_GUID@@BUtagCONNECTDATA@@V?$_Copy@UtagCONNECTDATA@@@ATL@@@ATL@@UAE@XZ 100070d0 f i MSR.obj
 0001:00006160       ??1?$CComObject@V?$CComEnum@UIEnumConnectionPoints@@$1?_GUID_b196b285_bab4_101a_b69c_00aa00341d07@@3U__s_GUID@@BPAUIConnectionPoint@@V?$_CopyInterface@UIConnectionPoint@@@ATL@@VCComSingleThreadModel@6@@ATL@@@ATL@@UAE@XZ 10007160 f i MSR.obj
 0001:000061c0       ??1?$CComObject@V?$CComEnum@UIEnumConnections@@$1?_GUID_b196b287_bab4_101a_b69c_00aa00341d07@@3U__s_GUID@@BUtagCONNECTDATA@@V?$_Copy@UtagCONNECTDATA@@@ATL@@VCComSingleThreadModel@6@@ATL@@@ATL@@UAE@XZ 100071c0 f i MSR.obj
 0001:00006220       ??1?$CComObject@VCOPOSMSR@@@ATL@@UAE@XZ 10007220 f i MSR.obj
 0001:00006360       ??1?$CComObjectCached@VCComClassFactory@ATL@@@ATL@@UAE@XZ 10007360 f i MSR.obj
 0001:000063b0       ??1?$CComObjectRootEx@VCComMultiThreadModel@ATL@@@ATL@@QAE@XZ 100073b0 f i MSR.obj
 0001:000063e0       ??1?$CComObjectRootEx@VCComSingleThreadModel@ATL@@@ATL@@QAE@XZ 100073e0 f i MSR.obj
 0001:00006410       ??1?$CComPtr@UIAdviseSink@@@ATL@@QAE@XZ 10007410 f i MSR.obj
 0001:00006440       ??1?$CComPtr@UICatRegister@@@ATL@@QAE@XZ 10007440 f i MSR.obj
 0001:00006470       ??1?$CComPtr@UIConnectionPoint@@@ATL@@QAE@XZ 10007470 f i MSR.obj
 0001:000064a0       ??1?$CComPtr@UIConnectionPointContainer@@@ATL@@QAE@XZ 100074a0 f i MSR.obj
 0001:000064d0       ??1?$CComPtr@UIDataObject@@@ATL@@QAE@XZ 100074d0 f i MSR.obj
 0001:00006500       ??1?$CComPtr@UIDispatch@@@ATL@@QAE@XZ 10007500 f i MSR.obj
 0001:00006530       ??1?$CComPtr@UIOleClientSite@@@ATL@@QAE@XZ 10007530 f i MSR.obj
 0001:00006560       ??1?$CComPtr@UIOleControlSite@@@ATL@@QAE@XZ 10007560 f i MSR.obj
 0001:00006590       ??1?$CComPtr@UIOleInPlaceActiveObject@@@ATL@@QAE@XZ 10007590 f i MSR.obj
 0001:000065c0       ??1?$CComPtr@UIOleInPlaceFrame@@@ATL@@QAE@XZ 100075c0 f i MSR.obj
 0001:000065f0       ??1?$CComPtr@UIOleInPlaceObject@@@ATL@@QAE@XZ 100075f0 f i MSR.obj
 0001:00006620       ??1?$CComPtr@UIOleInPlaceUIWindow@@@ATL@@QAE@XZ 10007620 f i MSR.obj
 0001:00006650       ??1?$CComPtr@UIOleObject@@@ATL@@QAE@XZ 10007650 f i MSR.obj
 0001:00006680       ??1?$CComPtr@UIPersistStream@@@ATL@@QAE@XZ 10007680 f i MSR.obj
 0001:000066b0       ??1?$CComPtr@UIPersistStreamInit@@@ATL@@QAE@XZ 100076b0 f i MSR.obj
 0001:000066e0       ??1?$CComPtr@UIPointerInactive@@@ATL@@QAE@XZ 100076e0 f i MSR.obj
 0001:00006710       ??1?$CComPtr@UIProvideClassInfo2@@@ATL@@QAE@XZ 10007710 f i MSR.obj
 0001:00006740       ??1?$CComPtr@UISpecifyPropertyPages@@@ATL@@QAE@XZ 10007740 f i MSR.obj
 0001:00006770       ??1?$CComPtr@UIStream@@@ATL@@QAE@XZ 10007770 f i MSR.obj
 0001:000067a0       ??1?$CComPtr@UITypeInfo2@@@ATL@@QAE@XZ 100077a0 f i MSR.obj
 0001:000067d0       ??1?$CComPtr@UITypeInfo@@@ATL@@QAE@XZ 100077d0 f i MSR.obj
 0001:00006800       ??1?$CComPtr@UITypeLib@@@ATL@@QAE@XZ 10007800 f i MSR.obj
 0001:00006830       ??1?$CComPtr@UIUnknown@@@ATL@@QAE@XZ 10007830 f i MSR.obj
 0001:00006860       ??1?$CComPtr@UIViewObjectEx@@@ATL@@QAE@XZ 10007860 f i MSR.obj
 0001:00006890       ??1?$CComPtrBase@UIAdviseSink@@@ATL@@QAE@XZ 10007890 f i MSR.obj
 0001:000068e0       ??1?$CComPtrBase@UICatRegister@@@ATL@@QAE@XZ 100078e0 f i MSR.obj
 0001:00006930       ??1?$CComPtrBase@UIConnectionPoint@@@ATL@@QAE@XZ 10007930 f i MSR.obj
 0001:00006980       ??1?$CComPtrBase@UIConnectionPointContainer@@@ATL@@QAE@XZ 10007980 f i MSR.obj
 0001:000069d0       ??1?$CComPtrBase@UIDataObject@@@ATL@@QAE@XZ 100079d0 f i MSR.obj
 0001:00006a20       ??1?$CComPtrBase@UIDispatch@@@ATL@@QAE@XZ 10007a20 f i MSR.obj
 0001:00006a70       ??1?$CComPtrBase@UIOleClientSite@@@ATL@@QAE@XZ 10007a70 f i MSR.obj
 0001:00006ac0       ??1?$CComPtrBase@UIOleControlSite@@@ATL@@QAE@XZ 10007ac0 f i MSR.obj
 0001:00006b10       ??1?$CComPtrBase@UIOleInPlaceActiveObject@@@ATL@@QAE@XZ 10007b10 f i MSR.obj
 0001:00006b60       ??1?$CComPtrBase@UIOleInPlaceFrame@@@ATL@@QAE@XZ 10007b60 f i MSR.obj
 0001:00006bb0       ??1?$CComPtrBase@UIOleInPlaceObject@@@ATL@@QAE@XZ 10007bb0 f i MSR.obj
 0001:00006c00       ??1?$CComPtrBase@UIOleInPlaceUIWindow@@@ATL@@QAE@XZ 10007c00 f i MSR.obj
 0001:00006c50       ??1?$CComPtrBase@UIOleObject@@@ATL@@QAE@XZ 10007c50 f i MSR.obj
 0001:00006ca0       ??1?$CComPtrBase@UIPersistStream@@@ATL@@QAE@XZ 10007ca0 f i MSR.obj
 0001:00006cf0       ??1?$CComPtrBase@UIPersistStreamInit@@@ATL@@QAE@XZ 10007cf0 f i MSR.obj
 0001:00006d40       ??1?$CComPtrBase@UIPointerInactive@@@ATL@@QAE@XZ 10007d40 f i MSR.obj
 0001:00006d90       ??1?$CComPtrBase@UIProvideClassInfo2@@@ATL@@QAE@XZ 10007d90 f i MSR.obj
 0001:00006de0       ??1?$CComPtrBase@UISpecifyPropertyPages@@@ATL@@QAE@XZ 10007de0 f i MSR.obj
 0001:00006e30       ??1?$CComPtrBase@UIStream@@@ATL@@QAE@XZ 10007e30 f i MSR.obj
 0001:00006e80       ??1?$CComPtrBase@UITypeInfo2@@@ATL@@QAE@XZ 10007e80 f i MSR.obj
 0001:00006ed0       ??1?$CComPtrBase@UITypeInfo@@@ATL@@QAE@XZ 10007ed0 f i MSR.obj
 0001:00006f20       ??1?$CComPtrBase@UITypeLib@@@ATL@@QAE@XZ 10007f20 f i MSR.obj
 0001:00006f70       ??1?$CComPtrBase@UIUnknown@@@ATL@@QAE@XZ 10007f70 f i MSR.obj
 0001:00006fc0       ??1?$CComPtrBase@UIViewObjectEx@@@ATL@@QAE@XZ 10007fc0 f i MSR.obj
 0001:00007010       ??1?$CComQIPtr@UIOleControlSite@@$1?_GUID_b196b289_bab4_101a_b69c_00aa00341d07@@3U__s_GUID@@B@ATL@@QAE@XZ 10008010 f i MSR.obj
 0001:00007040       ??1?$CComQIPtr@UIOleObject@@$1?_GUID_00000112_0000_0000_c000_000000000046@@3U__s_GUID@@B@ATL@@QAE@XZ 10008040 f i MSR.obj
 0001:00007070       ??1?$CComQIPtr@UISpecifyPropertyPages@@$1?_GUID_b196b28b_bab4_101a_b69c_00aa00341d07@@3U__s_GUID@@B@ATL@@QAE@XZ 10008070 f i MSR.obj
 0001:000070a0       ??1?$CSimpleMap@PA_WPA_WVCExpansionVectorEqualHelper@ATL@@@ATL@@QAE@XZ 100080a0 f i MSR.obj
 0001:000070d0       ??1?$CTempBuffer@E$0BAA@VCCRTAllocator@ATL@@@ATL@@QAE@XZ 100080d0 f i MSR.obj
 0001:00007110       ??1?$CTempBuffer@_W$0BAA@VCCRTAllocator@ATL@@@ATL@@QAE@XZ 10008110 f i MSR.obj
 0001:00007150       ??1?$CTempBuffer@_W$0EAA@VCCRTAllocator@ATL@@@ATL@@QAE@XZ 10008150 f i MSR.obj
 0001:00007190       ??1CAtlModule@ATL@@UAE@XZ  10008190 f i MSR.obj
 0001:000071c0       ??1CComAutoDeleteCriticalSection@ATL@@QAE@XZ 100081c0 f i MSR.obj
 0001:000071f0       ??1CComClassFactory@ATL@@UAE@XZ 100081f0 f i MSR.obj
 0001:00007220       ??1CComModule@ATL@@UAE@XZ  10008220 f i MSR.obj
 0001:00007250       ??1CComObjectRootBase@ATL@@QAE@XZ 10008250 f i MSR.obj
 0001:00007270       ??1CComSafeDeleteCriticalSection@ATL@@QAE@XZ 10008270 f i MSR.obj
 0001:000072b0       ??1CComVariant@ATL@@QAE@XZ 100082b0 f i MSR.obj
 0001:00007310       ??1CExpansionVector@ATL@@QAE@XZ 10008310 f i MSR.obj
 0001:00007340       ??1CParseBuffer@CRegParser@ATL@@QAE@XZ 10008340 f i MSR.obj
 0001:00007380       ??1CRegKey@ATL@@QAE@XZ     10008380 f i MSR.obj
 0001:000073b0       ??1CRegObject@ATL@@UAE@XZ  100083b0 f i MSR.obj
 0001:000073f0       ??1ModuleLockHelper@ATL@@QAE@XZ 100083f0 f i MSR.obj
 0001:00007430       ??1OposVariant@@QAE@XZ     10008430 f i MSR.obj
 0001:00007460       ??1_ATL_MODULE70@ATL@@QAE@XZ 10008460 f i MSR.obj
 0001:00007490       ??4?$CComPtr@UIAdviseSink@@@ATL@@QAEPAUIAdviseSink@@PAU2@@Z 10008490 f i MSR.obj
 0001:00007500       ??4?$CComPtr@UIOleClientSite@@@ATL@@QAEPAUIOleClientSite@@PAU2@@Z 10008500 f i MSR.obj
 0001:00007570       ??4?$CComPtr@UIUnknown@@@ATL@@QAEPAUIUnknown@@PAU2@@Z 10008570 f i MSR.obj
 0001:000075e0       ??4?$CComQIPtr@UIOleObject@@$1?_GUID_00000112_0000_0000_c000_000000000046@@3U__s_GUID@@B@ATL@@QAEPAUIOleObject@@PAUIUnknown@@@Z 100085e0 f i MSR.obj
 0001:00007630       ??4?$CComQIPtr@UISpecifyPropertyPages@@$1?_GUID_b196b28b_bab4_101a_b69c_00aa00341d07@@3U__s_GUID@@B@ATL@@QAEPAUISpecifyPropertyPages@@PAUIUnknown@@@Z 10008630 f i MSR.obj
 0001:00007680       ??7?$CComPtrBase@UIOleClientSite@@@ATL@@QBE_NXZ 10008680 f i MSR.obj
 0001:000076c0       ??7?$CComPtrBase@UIOleInPlaceSiteWindowless@@@ATL@@QBE_NXZ 100086c0 f i MSR.obj
 0001:00007700       ??7CComBSTR@ATL@@QBE_NXZ   10008700 f i MSR.obj
 0001:00007740       ??8?$CComPtrBase@UIAdviseSink@@@ATL@@QBE_NPAUIAdviseSink@@@Z 10008740 f i MSR.obj
 0001:00007780       ??8?$CComPtrBase@UIConnectionPointContainer@@@ATL@@QBE_NPAUIConnectionPointContainer@@@Z 10008780 f i MSR.obj
 0001:000077c0       ??8?$CComPtrBase@UIDataAdviseHolder@@@ATL@@QBE_NPAUIDataAdviseHolder@@@Z 100087c0 f i MSR.obj
 0001:00007800       ??8?$CComPtrBase@UIOleAdviseHolder@@@ATL@@QBE_NPAUIOleAdviseHolder@@@Z 10008800 f i MSR.obj
 0001:00007840       ??8?$CComPtrBase@UIOleClientSite@@@ATL@@QBE_NPAUIOleClientSite@@@Z 10008840 f i MSR.obj
 0001:00007880       ??8?$CComPtrBase@UIOleControlSite@@@ATL@@QBE_NPAUIOleControlSite@@@Z 10008880 f i MSR.obj
 0001:000078c0       ??8?$CComPtrBase@UIOleInPlaceObject@@@ATL@@QBE_NPAUIOleInPlaceObject@@@Z 100088c0 f i MSR.obj
 0001:00007900       ??8?$CComPtrBase@UIOleInPlaceSiteWindowless@@@ATL@@QBE_NPAUIOleInPlaceSiteWindowless@@@Z 10008900 f i MSR.obj
 0001:00007940       ??8?$CComPtrBase@UIOleObject@@@ATL@@QBE_NPAUIOleObject@@@Z 10008940 f i MSR.obj
 0001:00007980       ??8?$CComPtrBase@UIPersistStream@@@ATL@@QBE_NPAUIPersistStream@@@Z 10008980 f i MSR.obj
 0001:000079c0       ??8?$CComPtrBase@UIPersistStreamInit@@@ATL@@QBE_NPAUIPersistStreamInit@@@Z 100089c0 f i MSR.obj
 0001:00007a00       ??8?$CComPtrBase@UIPointerInactive@@@ATL@@QBE_NPAUIPointerInactive@@@Z 10008a00 f i MSR.obj
 0001:00007a40       ??8?$CComPtrBase@UIUnknown@@@ATL@@QBE_NPAUIUnknown@@@Z 10008a40 f i MSR.obj
 0001:00007a80       ??8?$CComPtrBase@UIViewObjectEx@@@ATL@@QBE_NPAUIViewObjectEx@@@Z 10008a80 f i MSR.obj
 0001:00007ac0       ??8CComBSTR@ATL@@QBE_NH@Z  10008ac0 f i MSR.obj
 0001:00007b20       ??9?$CComPtrBase@UIAdviseSink@@@ATL@@QBE_NPAUIAdviseSink@@@Z 10008b20 f i MSR.obj
 0001:00007b70       ??9?$CComPtrBase@UIConnectionPointContainer@@@ATL@@QBE_NPAUIConnectionPointContainer@@@Z 10008b70 f i MSR.obj
 0001:00007bc0       ??9?$CComPtrBase@UIDataAdviseHolder@@@ATL@@QBE_NPAUIDataAdviseHolder@@@Z 10008bc0 f i MSR.obj
 0001:00007c10       ??9?$CComPtrBase@UIOleAdviseHolder@@@ATL@@QBE_NPAUIOleAdviseHolder@@@Z 10008c10 f i MSR.obj
 0001:00007c60       ??9?$CComPtrBase@UIOleClientSite@@@ATL@@QBE_NPAUIOleClientSite@@@Z 10008c60 f i MSR.obj
 0001:00007cb0       ??9?$CComPtrBase@UIOleControlSite@@@ATL@@QBE_NPAUIOleControlSite@@@Z 10008cb0 f i MSR.obj
 0001:00007d00       ??9?$CComPtrBase@UIOleInPlaceObject@@@ATL@@QBE_NPAUIOleInPlaceObject@@@Z 10008d00 f i MSR.obj
 0001:00007d50       ??9?$CComPtrBase@UIOleInPlaceSiteWindowless@@@ATL@@QBE_NPAUIOleInPlaceSiteWindowless@@@Z 10008d50 f i MSR.obj
 0001:00007da0       ??9?$CComPtrBase@UIOleObject@@@ATL@@QBE_NPAUIOleObject@@@Z 10008da0 f i MSR.obj
 0001:00007df0       ??9?$CComPtrBase@UIPersistStream@@@ATL@@QBE_NPAUIPersistStream@@@Z 10008df0 f i MSR.obj
 0001:00007e40       ??9?$CComPtrBase@UIPersistStreamInit@@@ATL@@QBE_NPAUIPersistStreamInit@@@Z 10008e40 f i MSR.obj
 0001:00007e90       ??9?$CComPtrBase@UIPointerInactive@@@ATL@@QBE_NPAUIPointerInactive@@@Z 10008e90 f i MSR.obj
 0001:00007ee0       ??9?$CComPtrBase@UIUnknown@@@ATL@@QBE_NPAUIUnknown@@@Z 10008ee0 f i MSR.obj
 0001:00007f30       ??9?$CComPtrBase@UIViewObjectEx@@@ATL@@QBE_NPAUIViewObjectEx@@@Z 10008f30 f i MSR.obj
 0001:00007f80       ??9CComBSTR@ATL@@QBE_NH@Z  10008f80 f i MSR.obj
 0001:00007fd0       ??B?$CComPtrBase@UIAdviseSink@@@ATL@@QBEPAUIAdviseSink@@XZ 10008fd0 f i MSR.obj
 0001:00007ff0       ??B?$CComPtrBase@UIDataAdviseHolder@@@ATL@@QBEPAUIDataAdviseHolder@@XZ 10008ff0 f i MSR.obj
 0001:00008010       ??B?$CComPtrBase@UIDataObject@@@ATL@@QBEPAUIDataObject@@XZ 10009010 f i MSR.obj
 0001:00008030       ??B?$CComPtrBase@UIOleAdviseHolder@@@ATL@@QBEPAUIOleAdviseHolder@@XZ 10009030 f i MSR.obj
 0001:00008050       ??B?$CComPtrBase@UIOleClientSite@@@ATL@@QBEPAUIOleClientSite@@XZ 10009050 f i MSR.obj
 0001:00008070       ??B?$CComPtrBase@UIOleControlSite@@@ATL@@QBEPAUIOleControlSite@@XZ 10009070 f i MSR.obj
 0001:00008090       ??B?$CComPtrBase@UIOleInPlaceActiveObject@@@ATL@@QBEPAUIOleInPlaceActiveObject@@XZ 10009090 f i MSR.obj
 0001:000080b0       ??B?$CComPtrBase@UIOleInPlaceFrame@@@ATL@@QBEPAUIOleInPlaceFrame@@XZ 100090b0 f i MSR.obj
 0001:000080d0       ??B?$CComPtrBase@UIOleInPlaceSiteWindowless@@@ATL@@QBEPAUIOleInPlaceSiteWindowless@@XZ 100090d0 f i MSR.obj
 0001:000080f0       ??B?$CComPtrBase@UIOleInPlaceUIWindow@@@ATL@@QBEPAUIOleInPlaceUIWindow@@XZ 100090f0 f i MSR.obj
 0001:00008110       ??B?$CComPtrBase@UIOleObject@@@ATL@@QBEPAUIOleObject@@XZ 10009110 f i MSR.obj
 0001:00008130       ??B?$CComPtrBase@UIPersistStream@@@ATL@@QBEPAUIPersistStream@@XZ 10009130 f i MSR.obj
 0001:00008150       ??B?$CComPtrBase@UIProvideClassInfo2@@@ATL@@QBEPAUIProvideClassInfo2@@XZ 10009150 f i MSR.obj
 0001:00008170       ??B?$CComPtrBase@UISpecifyPropertyPages@@@ATL@@QBEPAUISpecifyPropertyPages@@XZ 10009170 f i MSR.obj
 0001:00008190       ??B?$CComPtrBase@UIStream@@@ATL@@QBEPAUIStream@@XZ 10009190 f i MSR.obj
 0001:000081b0       ??B?$CComPtrBase@UITypeInfo2@@@ATL@@QBEPAUITypeInfo2@@XZ 100091b0 f i MSR.obj
 0001:000081d0       ??B?$CComPtrBase@UITypeInfo@@@ATL@@QBEPAUITypeInfo@@XZ 100091d0 f i MSR.obj
 0001:000081f0       ??B?$CComPtrBase@UITypeLib@@@ATL@@QBEPAUITypeLib@@XZ 100091f0 f i MSR.obj
 0001:00008210       ??B?$CComPtrBase@UIUnknown@@@ATL@@QBEPAUIUnknown@@XZ 10009210 f i MSR.obj
 0001:00008230       ??B?$CTempBuffer@E$0BAA@VCCRTAllocator@ATL@@@ATL@@QBEPAEXZ 10009230 f i MSR.obj
 0001:00008250       ??B?$CTempBuffer@_W$0BAA@VCCRTAllocator@ATL@@@ATL@@QBEPA_WXZ 10009250 f i MSR.obj
 0001:00008270       ??B?$CTempBuffer@_W$0EAA@VCCRTAllocator@ATL@@@ATL@@QBEPA_WXZ 10009270 f i MSR.obj
 0001:00008290       ??B?$CTraceCategoryEx@$00$0A@@ATL@@QAEIXZ 10009290 f i MSR.obj
 0001:000082b0       ??B?$CTraceCategoryEx@$07$0A@@ATL@@QAEIXZ 100092b0 f i MSR.obj
 0001:000082d0       ??B?$CTraceCategoryEx@$0CAAA@$0A@@ATL@@QAEIXZ 100092d0 f i MSR.obj
 0001:000082f0       ??B?$CTraceCategoryEx@$0EA@$0A@@ATL@@QAEIXZ 100092f0 f i MSR.obj
 0001:00008310       ??B?$CTraceCategoryEx@$0IAA@$0A@@ATL@@QAEIXZ 10009310 f i MSR.obj
 0001:00008330       ??BCComBSTR@ATL@@QBEPA_WXZ 10009330 f i MSR.obj
 0001:00008350       ??BCRegKey@ATL@@QBEPAUHKEY__@@XZ 10009350 f i MSR.obj
 0001:00008370       ??C?$CComPtrBase@UIAdviseSink@@@ATL@@QBEPAV?$_NoAddRefReleaseOnCComPtr@UIAdviseSink@@@1@XZ 10009370 f i MSR.obj
 0001:000083c0       ??C?$CComPtrBase@UICatRegister@@@ATL@@QBEPAV?$_NoAddRefReleaseOnCComPtr@UICatRegister@@@1@XZ 100093c0 f i MSR.obj
 0001:00008410       ??C?$CComPtrBase@UIConnectionPoint@@@ATL@@QBEPAV?$_NoAddRefReleaseOnCComPtr@UIConnectionPoint@@@1@XZ 10009410 f i MSR.obj
 0001:00008460       ??C?$CComPtrBase@UIConnectionPointContainer@@@ATL@@QBEPAV?$_NoAddRefReleaseOnCComPtr@UIConnectionPointContainer@@@1@XZ 10009460 f i MSR.obj
 0001:000084b0       ??C?$CComPtrBase@UIDataAdviseHolder@@@ATL@@QBEPAV?$_NoAddRefReleaseOnCComPtr@UIDataAdviseHolder@@@1@XZ 100094b0 f i MSR.obj
 0001:00008500       ??C?$CComPtrBase@UIOleAdviseHolder@@@ATL@@QBEPAV?$_NoAddRefReleaseOnCComPtr@UIOleAdviseHolder@@@1@XZ 10009500 f i MSR.obj
 0001:00008550       ??C?$CComPtrBase@UIOleClientSite@@@ATL@@QBEPAV?$_NoAddRefReleaseOnCComPtr@UIOleClientSite@@@1@XZ 10009550 f i MSR.obj
 0001:000085a0       ??C?$CComPtrBase@UIOleControlSite@@@ATL@@QBEPAV?$_NoAddRefReleaseOnCComPtr@UIOleControlSite@@@1@XZ 100095a0 f i MSR.obj
 0001:000085f0       ??C?$CComPtrBase@UIOleInPlaceFrame@@@ATL@@QBEPAV?$_NoAddRefReleaseOnCComPtr@UIOleInPlaceFrame@@@1@XZ 100095f0 f i MSR.obj
 0001:00008640       ??C?$CComPtrBase@UIOleInPlaceObject@@@ATL@@QBEPAV?$_NoAddRefReleaseOnCComPtr@UIOleInPlaceObject@@@1@XZ 10009640 f i MSR.obj
 0001:00008690       ??C?$CComPtrBase@UIOleInPlaceSiteWindowless@@@ATL@@QBEPAV?$_NoAddRefReleaseOnCComPtr@UIOleInPlaceSiteWindowless@@@1@XZ 10009690 f i MSR.obj
 0001:000086e0       ??C?$CComPtrBase@UIOleInPlaceUIWindow@@@ATL@@QBEPAV?$_NoAddRefReleaseOnCComPtr@UIOleInPlaceUIWindow@@@1@XZ 100096e0 f i MSR.obj
 0001:00008730       ??C?$CComPtrBase@UIOleObject@@@ATL@@QBEPAV?$_NoAddRefReleaseOnCComPtr@UIOleObject@@@1@XZ 10009730 f i MSR.obj
 0001:00008780       ??C?$CComPtrBase@UIPersistStream@@@ATL@@QBEPAV?$_NoAddRefReleaseOnCComPtr@UIPersistStream@@@1@XZ 10009780 f i MSR.obj
 0001:000087d0       ??C?$CComPtrBase@UIPersistStreamInit@@@ATL@@QBEPAV?$_NoAddRefReleaseOnCComPtr@UIPersistStreamInit@@@1@XZ 100097d0 f i MSR.obj
 0001:00008820       ??C?$CComPtrBase@UIPointerInactive@@@ATL@@QBEPAV?$_NoAddRefReleaseOnCComPtr@UIPointerInactive@@@1@XZ 10009820 f i MSR.obj
 0001:00008870       ??C?$CComPtrBase@UIProvideClassInfo2@@@ATL@@QBEPAV?$_NoAddRefReleaseOnCComPtr@UIProvideClassInfo2@@@1@XZ 10009870 f i MSR.obj
 0001:000088c0       ??C?$CComPtrBase@UISpecifyPropertyPages@@@ATL@@QBEPAV?$_NoAddRefReleaseOnCComPtr@UISpecifyPropertyPages@@@1@XZ 100098c0 f i MSR.obj
 0001:00008910       ??C?$CComPtrBase@UITypeInfo@@@ATL@@QBEPAV?$_NoAddRefReleaseOnCComPtr@UITypeInfo@@@1@XZ 10009910 f i MSR.obj
 0001:00008960       ??C?$CComPtrBase@UITypeLib@@@ATL@@QBEPAV?$_NoAddRefReleaseOnCComPtr@UITypeLib@@@1@XZ 10009960 f i MSR.obj
 0001:000089b0       ??C?$CComPtrBase@UIUnknown@@@ATL@@QBEPAV?$_NoAddRefReleaseOnCComPtr@UIUnknown@@@1@XZ 100099b0 f i MSR.obj
 0001:00008a00       ??C?$CComPtrBase@UIViewObjectEx@@@ATL@@QBEPAV?$_NoAddRefReleaseOnCComPtr@UIViewObjectEx@@@1@XZ 10009a00 f i MSR.obj
 0001:00008a50       ??I?$CComPtrBase@UICatRegister@@@ATL@@QAEPAPAUICatRegister@@XZ 10009a50 f i MSR.obj
 0001:00008aa0       ??I?$CComPtrBase@UIConnectionPoint@@@ATL@@QAEPAPAUIConnectionPoint@@XZ 10009aa0 f i MSR.obj
 0001:00008af0       ??I?$CComPtrBase@UIConnectionPointContainer@@@ATL@@QAEPAPAUIConnectionPointContainer@@XZ 10009af0 f i MSR.obj
 0001:00008b40       ??I?$CComPtrBase@UIDataAdviseHolder@@@ATL@@QAEPAPAUIDataAdviseHolder@@XZ 10009b40 f i MSR.obj
 0001:00008b90       ??I?$CComPtrBase@UIDataObject@@@ATL@@QAEPAPAUIDataObject@@XZ 10009b90 f i MSR.obj
 0001:00008be0       ??I?$CComPtrBase@UIDispatch@@@ATL@@QAEPAPAUIDispatch@@XZ 10009be0 f i MSR.obj
 0001:00008c30       ??I?$CComPtrBase@UIOleAdviseHolder@@@ATL@@QAEPAPAUIOleAdviseHolder@@XZ 10009c30 f i MSR.obj
 0001:00008c80       ??I?$CComPtrBase@UIOleControlSite@@@ATL@@QAEPAPAUIOleControlSite@@XZ 10009c80 f i MSR.obj
 0001:00008cd0       ??I?$CComPtrBase@UIOleInPlaceActiveObject@@@ATL@@QAEPAPAUIOleInPlaceActiveObject@@XZ 10009cd0 f i MSR.obj
 0001:00008d20       ??I?$CComPtrBase@UIOleInPlaceFrame@@@ATL@@QAEPAPAUIOleInPlaceFrame@@XZ 10009d20 f i MSR.obj
 0001:00008d70       ??I?$CComPtrBase@UIOleInPlaceObject@@@ATL@@QAEPAPAUIOleInPlaceObject@@XZ 10009d70 f i MSR.obj
 0001:00008dc0       ??I?$CComPtrBase@UIOleInPlaceSiteWindowless@@@ATL@@QAEPAPAUIOleInPlaceSiteWindowless@@XZ 10009dc0 f i MSR.obj
 0001:00008e10       ??I?$CComPtrBase@UIOleInPlaceUIWindow@@@ATL@@QAEPAPAUIOleInPlaceUIWindow@@XZ 10009e10 f i MSR.obj
 0001:00008e60       ??I?$CComPtrBase@UIOleObject@@@ATL@@QAEPAPAUIOleObject@@XZ 10009e60 f i MSR.obj
 0001:00008eb0       ??I?$CComPtrBase@UIPersistStream@@@ATL@@QAEPAPAUIPersistStream@@XZ 10009eb0 f i MSR.obj
 0001:00008f00       ??I?$CComPtrBase@UIPointerInactive@@@ATL@@QAEPAPAUIPointerInactive@@XZ 10009f00 f i MSR.obj
 0001:00008f50       ??I?$CComPtrBase@UIProvideClassInfo2@@@ATL@@QAEPAPAUIProvideClassInfo2@@XZ 10009f50 f i MSR.obj
 0001:00008fa0       ??I?$CComPtrBase@UIStream@@@ATL@@QAEPAPAUIStream@@XZ 10009fa0 f i MSR.obj
 0001:00008ff0       ??I?$CComPtrBase@UITypeInfo2@@@ATL@@QAEPAPAUITypeInfo2@@XZ 10009ff0 f i MSR.obj
 0001:00009040       ??I?$CComPtrBase@UITypeInfo@@@ATL@@QAEPAPAUITypeInfo@@XZ 1000a040 f i MSR.obj
 0001:00009090       ??I?$CComPtrBase@UITypeLib@@@ATL@@QAEPAPAUITypeLib@@XZ 1000a090 f i MSR.obj
 0001:000090e0       ??I?$CComPtrBase@UIUnknown@@@ATL@@QAEPAPAUIUnknown@@XZ 1000a0e0 f i MSR.obj
 0001:00009130       ??I?$CComPtrBase@UIViewObjectEx@@@ATL@@QAEPAPAUIViewObjectEx@@XZ 1000a130 f i MSR.obj
 0001:00009180       ??ICComBSTR@ATL@@QAEPAPA_WXZ 1000a180 f i MSR.obj
 0001:00009195       ??_E?$CComContainedObject@VCOPOSMSR@@@ATL@@W3AEPAXI@Z 1000a195 f i MSR.obj
 0001:0000919d       ??_E?$CComContainedObject@VCOPOSMSR@@@ATL@@WEM@AEPAXI@Z 1000a19d f i MSR.obj
 0001:000091a5       ??_E?$CComObject@VCOPOSMSR@@@ATL@@W3AEPAXI@Z 1000a1a5 f i MSR.obj
 0001:000091ad       ??_E?$CComObject@VCOPOSMSR@@@ATL@@WEM@AEPAXI@Z 1000a1ad f i MSR.obj
 0001:000091c0       ??_G?$CComAggObject@VCOPOSMSR@@@ATL@@UAEPAXI@Z 1000a1c0 f i MSR.obj
 0001:000091c0       ??_E?$CComAggObject@VCOPOSMSR@@@ATL@@UAEPAXI@Z 1000a1c0 f i MSR.obj
 0001:00009210       ??_E?$CComContainedObject@VCOPOSMSR@@@ATL@@UAEPAXI@Z 1000a210 f i MSR.obj
 0001:00009210       ??_G?$CComContainedObject@VCOPOSMSR@@@ATL@@UAEPAXI@Z 1000a210 f i MSR.obj
 0001:00009260       ??_E?$CComObject@V?$CComEnum@UIEnumConnectionPoints@@$1?_GUID_b196b285_bab4_101a_b69c_00aa00341d07@@3U__s_GUID@@BPAUIConnectionPoint@@V?$_CopyInterface@UIConnectionPoint@@@ATL@@VCComSingleThreadModel@6@@ATL@@@ATL@@UAEPAXI@Z 1000a260 f i MSR.obj
 0001:00009260       ??_G?$CComObject@V?$CComEnum@UIEnumConnectionPoints@@$1?_GUID_b196b285_bab4_101a_b69c_00aa00341d07@@3U__s_GUID@@BPAUIConnectionPoint@@V?$_CopyInterface@UIConnectionPoint@@@ATL@@VCComSingleThreadModel@6@@ATL@@@ATL@@UAEPAXI@Z 1000a260 f i MSR.obj
 0001:000092a0       ??_E?$CComObject@V?$CComEnum@UIEnumConnections@@$1?_GUID_b196b287_bab4_101a_b69c_00aa00341d07@@3U__s_GUID@@BUtagCONNECTDATA@@V?$_Copy@UtagCONNECTDATA@@@ATL@@VCComSingleThreadModel@6@@ATL@@@ATL@@UAEPAXI@Z 1000a2a0 f i MSR.obj
 0001:000092a0       ??_G?$CComObject@V?$CComEnum@UIEnumConnections@@$1?_GUID_b196b287_bab4_101a_b69c_00aa00341d07@@3U__s_GUID@@BUtagCONNECTDATA@@V?$_Copy@UtagCONNECTDATA@@@ATL@@VCComSingleThreadModel@6@@ATL@@@ATL@@UAEPAXI@Z 1000a2a0 f i MSR.obj
 0001:000092e0       ??_E?$CComObject@VCOPOSMSR@@@ATL@@UAEPAXI@Z 1000a2e0 f i MSR.obj
 0001:000092e0       ??_G?$CComObject@VCOPOSMSR@@@ATL@@UAEPAXI@Z 1000a2e0 f i MSR.obj
 0001:00009330       ??_E?$CComObjectCached@VCComClassFactory@ATL@@@ATL@@UAEPAXI@Z 1000a330 f i MSR.obj
 0001:00009330       ??_G?$CComObjectCached@VCComClassFactory@ATL@@@ATL@@UAEPAXI@Z 1000a330 f i MSR.obj
 0001:00009370       ??_ECComClassFactory@ATL@@UAEPAXI@Z 1000a370 f i MSR.obj
 0001:00009370       ??_GCComClassFactory@ATL@@UAEPAXI@Z 1000a370 f i MSR.obj
 0001:000093b0       ??_GCComModule@ATL@@UAEPAXI@Z 1000a3b0 f i MSR.obj
 0001:000093b0       ??_ECComModule@ATL@@UAEPAXI@Z 1000a3b0 f i MSR.obj
 0001:000093f0       ??_GCRegObject@ATL@@UAEPAXI@Z 1000a3f0 f i MSR.obj
 0001:000093f0       ??_ECRegObject@ATL@@UAEPAXI@Z 1000a3f0 f i MSR.obj
 0001:00009430       ?Add@?$CSimpleArray@GV?$CSimpleArrayEqualHelper@G@ATL@@@ATL@@QAEHABG@Z 1000a430 f i MSR.obj
 0001:00009580       ?Add@?$CSimpleMap@PA_WPA_WVCExpansionVectorEqualHelper@ATL@@@ATL@@QAEHABQA_W0@Z 1000a580 f i MSR.obj
 0001:00009640       ?Add@CComDynamicUnkArray@ATL@@QAEKPAUIUnknown@@@Z 1000a640 f i MSR.obj
 0001:000097e0       ?Add@CExpansionVector@ATL@@QAEHPB_W0@Z 1000a7e0 f i MSR.obj
 0001:00009a70       ?AddChar@CParseBuffer@CRegParser@ATL@@QAEHPB_W@Z 1000aa70 f i MSR.obj
 0001:00009ab0       ?AddCommonRGSReplacements@?$CAtlModuleT@VCComModule@ATL@@@ATL@@UAEJPAUIRegistrarBase@@@Z 1000aab0 f i MSR.obj
 0001:00009b00       ?AddCreateWndData@CAtlWinModule@ATL@@QAEXPAU_AtlCreateWndData@2@PAX@Z 1000ab00 f i MSR.obj
 0001:00009b30       ?AddRef@?$CComAggObject@VCOPOSMSR@@@ATL@@UAGKXZ 1000ab30 f i MSR.obj
 0001:00009b50       ?AddRef@?$CComContainedObject@VCOPOSMSR@@@ATL@@UAGKXZ 1000ab50 f i MSR.obj
 0001:00009b6c       ?AddRef@?$CComContainedObject@VCOPOSMSR@@@ATL@@WHA@AGKXZ 1000ab6c f i MSR.obj
 0001:00009b76       ?AddRef@?$CComContainedObject@VCOPOSMSR@@@ATL@@WHE@AGKXZ 1000ab76 f i MSR.obj
 0001:00009b80       ?AddRef@?$CComContainedObject@VCOPOSMSR@@@ATL@@WHI@AGKXZ 1000ab80 f i MSR.obj
 0001:00009b8a       ?AddRef@?$CComContainedObject@VCOPOSMSR@@@ATL@@WHM@AGKXZ 1000ab8a f i MSR.obj
 0001:00009b94       ?AddRef@?$CComContainedObject@VCOPOSMSR@@@ATL@@WIA@AGKXZ 1000ab94 f i MSR.obj
 0001:00009ba1       ?AddRef@?$CComContainedObject@VCOPOSMSR@@@ATL@@WIE@AGKXZ 1000aba1 f i MSR.obj
 0001:00009bae       ?AddRef@?$CComContainedObject@VCOPOSMSR@@@ATL@@WII@AGKXZ 1000abae f i MSR.obj
 0001:00009bbb       ?AddRef@?$CComContainedObject@VCOPOSMSR@@@ATL@@WIM@AGKXZ 1000abbb f i MSR.obj
 0001:00009bc8       ?AddRef@?$CComContainedObject@VCOPOSMSR@@@ATL@@WJA@AGKXZ 1000abc8 f i MSR.obj
 0001:00009bd5       ?AddRef@?$CComContainedObject@VCOPOSMSR@@@ATL@@WJE@AGKXZ 1000abd5 f i MSR.obj
 0001:00009be2       ?AddRef@?$CComContainedObject@VCOPOSMSR@@@ATL@@WJI@AGKXZ 1000abe2 f i MSR.obj
 0001:00009bef       ?AddRef@?$CComContainedObject@VCOPOSMSR@@@ATL@@WJM@AGKXZ 1000abef f i MSR.obj
 0001:00009bfc       ?AddRef@?$CComContainedObject@VCOPOSMSR@@@ATL@@WKA@AGKXZ 1000abfc f i MSR.obj
 0001:00009c09       ?AddRef@?$CComContainedObject@VCOPOSMSR@@@ATL@@WKI@AGKXZ 1000ac09 f i MSR.obj
 0001:00009c16       ?AddRef@?$CComContainedObject@VCOPOSMSR@@@ATL@@WLE@AGKXZ 1000ac16 f i MSR.obj
 0001:00009c30       ?AddRef@?$CComObject@V?$CComEnum@UIEnumConnectionPoints@@$1?_GUID_b196b285_bab4_101a_b69c_00aa00341d07@@3U__s_GUID@@BPAUIConnectionPoint@@V?$_CopyInterface@UIConnectionPoint@@@ATL@@VCComSingleThreadModel@6@@ATL@@@ATL@@UAGKXZ 1000ac30 f i MSR.obj
 0001:00009c50       ?AddRef@?$CComObject@V?$CComEnum@UIEnumConnections@@$1?_GUID_b196b287_bab4_101a_b69c_00aa00341d07@@3U__s_GUID@@BUtagCONNECTDATA@@V?$_Copy@UtagCONNECTDATA@@@ATL@@VCComSingleThreadModel@6@@ATL@@@ATL@@UAGKXZ 1000ac50 f i MSR.obj
 0001:00009c70       ?AddRef@?$CComObject@VCOPOSMSR@@@ATL@@UAGKXZ 1000ac70 f i MSR.obj
 0001:00009c8c       ?AddRef@?$CComObject@VCOPOSMSR@@@ATL@@WHA@AGKXZ 1000ac8c f i MSR.obj
 0001:00009c96       ?AddRef@?$CComObject@VCOPOSMSR@@@ATL@@WHE@AGKXZ 1000ac96 f i MSR.obj
 0001:00009ca0       ?AddRef@?$CComObject@VCOPOSMSR@@@ATL@@WHI@AGKXZ 1000aca0 f i MSR.obj
 0001:00009caa       ?AddRef@?$CComObject@VCOPOSMSR@@@ATL@@WHM@AGKXZ 1000acaa f i MSR.obj
 0001:00009cb4       ?AddRef@?$CComObject@VCOPOSMSR@@@ATL@@WIA@AGKXZ 1000acb4 f i MSR.obj
 0001:00009cc1       ?AddRef@?$CComObject@VCOPOSMSR@@@ATL@@WIE@AGKXZ 1000acc1 f i MSR.obj
 0001:00009cce       ?AddRef@?$CComObject@VCOPOSMSR@@@ATL@@WII@AGKXZ 1000acce f i MSR.obj
 0001:00009cdb       ?AddRef@?$CComObject@VCOPOSMSR@@@ATL@@WIM@AGKXZ 1000acdb f i MSR.obj
 0001:00009ce8       ?AddRef@?$CComObject@VCOPOSMSR@@@ATL@@WJA@AGKXZ 1000ace8 f i MSR.obj
 0001:00009cf5       ?AddRef@?$CComObject@VCOPOSMSR@@@ATL@@WJE@AGKXZ 1000acf5 f i MSR.obj
 0001:00009d02       ?AddRef@?$CComObject@VCOPOSMSR@@@ATL@@WJI@AGKXZ 1000ad02 f i MSR.obj
 0001:00009d0f       ?AddRef@?$CComObject@VCOPOSMSR@@@ATL@@WJM@AGKXZ 1000ad0f f i MSR.obj
 0001:00009d1c       ?AddRef@?$CComObject@VCOPOSMSR@@@ATL@@WKA@AGKXZ 1000ad1c f i MSR.obj
 0001:00009d29       ?AddRef@?$CComObject@VCOPOSMSR@@@ATL@@WKI@AGKXZ 1000ad29 f i MSR.obj
 0001:00009d36       ?AddRef@?$CComObject@VCOPOSMSR@@@ATL@@WLE@AGKXZ 1000ad36 f i MSR.obj
 0001:00009d50       ?AddRef@?$CComObjectCached@VCComClassFactory@ATL@@@ATL@@UAGKXZ 1000ad50 f i MSR.obj
 0001:00009da0       ?AddRef@CRegObject@ATL@@UAGKXZ 1000ada0 f i MSR.obj
 0001:00009df0       ?AddReplacement@CRegObject@ATL@@UAGJPB_W0@Z 1000adf0 f i MSR.obj
 0001:00009f00       ?AddString@CParseBuffer@CRegParser@ATL@@QAEHPB_W@Z 1000af00 f i MSR.obj
 0001:00009ff0       ?AddTermFunc@CAtlModule@ATL@@QAEJP6GXK@ZK@Z 1000aff0 f i MSR.obj
 0001:0000a040       ?AddValue@CRegParser@ATL@@IAEJAAVCRegKey@2@PB_WPA_W@Z 1000b040 f i MSR.obj
 0001:0000a7d0       ?Advise@?$CProxy_IOPOSEvents@VCOPOSMSR@@@@UAGJPAUIUnknown@@PAK@Z 1000b7d0 f i MSR.obj
 0001:0000a820       ?Advise@?$IConnectionPointImpl@VCOPOSMSR@@$1?DIID__IOPOSMSREvents@@3U_GUID@@BVCComDynamicUnkArray@ATL@@@ATL@@UAGJPAUIUnknown@@PAK@Z 1000b820 f i MSR.obj
 0001:0000a9c0       ?Advise@?$IConnectionPointImpl@VCOPOSMSR@@$1?IID_IPropertyNotifySink@@3U_GUID@@BVCComDynamicUnkArray@ATL@@@ATL@@UAGJPAUIUnknown@@PAK@Z 1000b9c0 f i MSR.obj
 0001:0000ab60       ?Advise@?$IOleObjectImpl@VCOPOSMSR@@@ATL@@UAGJPAUIAdviseSink@@PAK@Z 1000bb60 f i MSR.obj
 0001:0000abf0       ?Allocate@?$CAtlSafeAllocBufferManager@VCCRTAllocator@ATL@@@_ATL_SAFE_ALLOCA_IMPL@ATL@@QAEPAXK@Z 1000bbf0 f i MSR.obj
 0001:0000ac60       ?Allocate@?$CTempBuffer@E$0BAA@VCCRTAllocator@ATL@@@ATL@@QAEPAEI@Z 1000bc60 f i MSR.obj
 0001:0000aca0       ?Allocate@?$CTempBuffer@_W$0BAA@VCCRTAllocator@ATL@@@ATL@@QAEPA_WI@Z 1000bca0 f i MSR.obj
 0001:0000ace0       ?Allocate@?$CTempBuffer@_W$0EAA@VCCRTAllocator@ATL@@@ATL@@QAEPA_WI@Z 1000bce0 f i MSR.obj
 0001:0000ad20       ?AllocateBytes@?$CTempBuffer@E$0BAA@VCCRTAllocator@ATL@@@ATL@@QAEPAEI@Z 1000bd20 f i MSR.obj
 0001:0000ada0       ?AllocateBytes@?$CTempBuffer@_W$0BAA@VCCRTAllocator@ATL@@@ATL@@QAEPA_WI@Z 1000bda0 f i MSR.obj
 0001:0000ae20       ?AllocateBytes@?$CTempBuffer@_W$0EAA@VCCRTAllocator@ATL@@@ATL@@QAEPA_WI@Z 1000be20 f i MSR.obj
 0001:0000aea0       ?AllocateHeap@?$CTempBuffer@E$0BAA@VCCRTAllocator@ATL@@@ATL@@AAEXI@Z 1000bea0 f i MSR.obj
 0001:0000aef0       ?AllocateHeap@?$CTempBuffer@_W$0BAA@VCCRTAllocator@ATL@@@ATL@@AAEXI@Z 1000bef0 f i MSR.obj
 0001:0000af40       ?AllocateHeap@?$CTempBuffer@_W$0EAA@VCCRTAllocator@ATL@@@ATL@@AAEXI@Z 1000bf40 f i MSR.obj
 0001:0000af90       ?Append@CParseBuffer@CRegParser@ATL@@QAEHPB_WH@Z 1000bf90 f i MSR.obj
 0001:0000b130       ?AtlCallTermFunc@ATL@@YGXPAU_ATL_MODULE70@1@@Z 1000c130 f i MSR.obj
 0001:0000b1d0       ?AtlCoTaskMemCAlloc@ATL@@YAPAXKK@Z 1000c1d0 f i MSR.obj
 0001:0000b260       ?AtlCoTaskMemRecalloc@ATL@@YAPAXPAXKK@Z 1000c260 f i MSR.obj
 0001:0000b300       ?AtlComModuleGetClassObject@ATL@@YGJPAU_ATL_COM_MODULE70@1@ABU_GUID@@1PAPAX@Z 1000c300 f i MSR.obj
 0001:0000b590       ?AtlComModuleRegisterServer@ATL@@YGJPAU_ATL_COM_MODULE70@1@HPBU_GUID@@@Z 1000c590 f i MSR.obj
 0001:0000b720       ?AtlComModuleUnregisterServer@ATL@@YGJPAU_ATL_COM_MODULE70@1@HPBU_GUID@@@Z 1000c720 f i MSR.obj
 0001:0000b850       ?AtlComQIPtrAssign2@ATL@@YAXPAPAUIUnknown@@PAU2@ABU_GUID@@@Z 1000c850 f i MSR.obj
 0001:0000b8d0       ?AtlCreateTargetDC@ATL@@YGPAUHDC__@@PAU2@PAUtagDVTARGETDEVICE@@@Z 1000c8d0 f i MSR.obj
 0001:0000ba70       ?AtlCrtErrorCheck@ATL@@YAHH@Z 1000ca70 f i MSR.obj
 0001:0000bb40       ?AtlGetPerUserRegistration@ATL@@YGJPA_N@Z 1000cb40 f i MSR.obj
 0001:0000bb70       ?AtlHiMetricToPixel@ATL@@YGXPBUtagSIZE@@PAU2@@Z 1000cb70 f i MSR.obj
 0001:0000bd40       ?AtlHresultFromLastError@ATL@@YAJXZ 1000cd40 f i MSR.obj
 0001:0000bd80       ?AtlHresultFromWin32@ATL@@YAJK@Z 1000cd80 f i MSR.obj
 0001:0000bda0       ?AtlIPersistStreamInit_Load@ATL@@YGJPAUIStream@@PBUATL_PROPMAP_ENTRY@1@PAXPAUIUnknown@@@Z 1000cda0 f i MSR.obj
 0001:0000c200       ?AtlIPersistStreamInit_Save@ATL@@YGJPAUIStream@@HPBUATL_PROPMAP_ENTRY@1@PAXPAUIUnknown@@@Z 1000d200 f i MSR.obj
 0001:0000c5e0       ?AtlInternalOleLoadFromStream@ATL@@YAJPAUIStream@@ABU_GUID@@PAPAXTClassesAllowedInStream@1@K@Z 1000d5e0 f i MSR.obj
 0001:0000c880       ?AtlInternalQueryInterface@ATL@@YGJPAXPBU_ATL_INTMAP_ENTRY@1@ABU_GUID@@PAPAX@Z 1000d880 f i MSR.obj
 0001:0000cab0       ?AtlLoadTypeLib@ATL@@YGJPAUHINSTANCE__@@PB_WPAPA_WPAPAUITypeLib@@@Z 1000dab0 f i MSR.obj
 0001:0000cf10       ?AtlModuleAddTermFunc@ATL@@YGJPAU_ATL_MODULE70@1@P6GXK@ZK@Z 1000df10 f i MSR.obj
 0001:0000d070       ?AtlRegisterClassCategoriesHelper@ATL@@YGJABU_GUID@@PBU_ATL_CATMAP_ENTRY@1@H@Z 1000e070 f i MSR.obj
 0001:0000d750       ?AtlRegisterTypeLib@ATL@@YGJPAUHINSTANCE__@@PB_W@Z 1000e750 f i MSR.obj
 0001:0000da90       ?AtlThrowImpl@ATL@@YGXJ@Z  1000ea90 f i MSR.obj
 0001:0000db40       ?AtlUnRegisterTypeLib@ATL@@YGJPAUHINSTANCE__@@PB_W@Z 1000eb40 f i MSR.obj
 0001:0000dd50       ?AtlWinModuleAddCreateWndData@ATL@@YGXPAU_ATL_WIN_MODULE70@1@PAU_AtlCreateWndData@1@PAX@Z 1000ed50 f i MSR.obj
 0001:0000dec0       ?AtlWinModuleExtractCreateWndData@ATL@@YGPAXPAU_ATL_WIN_MODULE70@1@@Z 1000eec0 f i MSR.obj
 0001:0000e040       ?AtlWinModuleRegisterClassExW@ATL@@YGGPAU_ATL_WIN_MODULE70@1@PBUtagWNDCLASSEXW@@@Z 1000f040 f i MSR.obj
 0001:0000e110       ?AtlWinModuleRegisterWndClassInfoW@ATL@@YGGPAU_ATL_WIN_MODULE70@1@PAU_ATL_BASE_MODULE70@1@PAU_ATL_WNDCLASSINFOW@1@PAP6GJPAUHWND__@@IIJ@Z@Z 1000f110 f i MSR.obj
 0001:0000e1a0       ?Attach@?$CAutoVectorPtr@_W@ATL@@QAEXPA_W@Z 1000f1a0 f i MSR.obj
 0001:0000e200       ?Attach@CComBSTR@ATL@@QAEXPA_W@Z 1000f200 f i MSR.obj
 0001:0000e250       ?Attach@CRegKey@ATL@@QAEXPAUHKEY__@@@Z 1000f250 f i MSR.obj
 0001:0000e2c0       ?CanForceRemoveKey@CRegParser@ATL@@IAEHPB_W@Z 1000f2c0 f i MSR.obj
 0001:0000e330       ?ChToByte@CRegParser@ATL@@KAE_W@Z 1000f330 f i MSR.obj
 0001:0000e450       ?ChangeType@CComVariant@ATL@@QAEJGPBUtagVARIANT@@@Z 1000f450 f i MSR.obj
 0001:0000e4b0       ?Cleanup@CComTypeInfoHolder@ATL@@SGXK@Z 1000f4b0 f i MSR.obj
 0001:0000e580       ?Clear@CComVariant@ATL@@QAEJXZ 1000f580 f i MSR.obj
 0001:0000e5c0       ?ClearReplacements@CExpansionVector@ATL@@QAEJXZ 1000f5c0 f i MSR.obj
 0001:0000e650       ?ClearReplacements@CRegObject@ATL@@UAGJXZ 1000f650 f i MSR.obj
 0001:0000e6a0       ?Clone@?$CComEnumImpl@UIEnumConnectionPoints@@$1?_GUID_b196b285_bab4_101a_b69c_00aa00341d07@@3U__s_GUID@@BPAUIConnectionPoint@@V?$_CopyInterface@UIConnectionPoint@@@ATL@@@ATL@@UAGJPAPAUIEnumConnectionPoints@@@Z 1000f6a0 f i MSR.obj
 0001:0000e810       ?Clone@?$CComEnumImpl@UIEnumConnections@@$1?_GUID_b196b287_bab4_101a_b69c_00aa00341d07@@3U__s_GUID@@BUtagCONNECTDATA@@V?$_Copy@UtagCONNECTDATA@@@ATL@@@ATL@@UAGJPAPAUIEnumConnections@@@Z 1000f810 f i MSR.obj
 0001:0000e980       ?Close@?$IOleObjectImpl@VCOPOSMSR@@@ATL@@UAGJK@Z 1000f980 f i MSR.obj
 0001:0000ea10       ?Close@CRegKey@ATL@@QAEJXZ 1000fa10 f i MSR.obj
 0001:0000ea80       ?ContextSensitiveHelp@?$IOleInPlaceActiveObjectImpl@VCOPOSMSR@@@ATL@@UAGJH@Z 1000fa80 f i MSR.obj
 0001:0000eaf0       ?ContextSensitiveHelp@?$IOleInPlaceObjectWindowlessImpl@VCOPOSMSR@@@ATL@@UAGJH@Z 1000faf0 f i MSR.obj
 0001:0000eb60       ?ControlQueryInterface@?$CComControl@VCOPOSMSR@@V?$CWindowImpl@VCOPOSMSR@@VCWindow@ATL@@V?$CWinTraits@$0FGAAAAAA@$0A@@3@@ATL@@@ATL@@UAEJABU_GUID@@PAPAX@Z 1000fb60 f i MSR.obj
 0001:0000ebe0       ?CreateControlWindow@?$CComControl@VCOPOSMSR@@V?$CWindowImpl@VCOPOSMSR@@VCWindow@ATL@@V?$CWinTraits@$0FGAAAAAA@$0A@@3@@ATL@@@ATL@@UAEPAUHWND__@@PAU3@AAUtagRECT@@@Z 1000fbe0 f i MSR.obj
 0001:0000ec60       ?CreateInstance@?$CComCreator@V?$CComAggObject@VCOPOSMSR@@@ATL@@@ATL@@SGJPAXABU_GUID@@PAPAX@Z 1000fc60 f i MSR.obj
 0001:0000ede0       ?CreateInstance@?$CComCreator@V?$CComObject@VCOPOSMSR@@@ATL@@@ATL@@SGJPAXABU_GUID@@PAPAX@Z 1000fde0 f i MSR.obj
 0001:0000ef70       ?CreateInstance@?$CComObject@V?$CComEnum@UIEnumConnectionPoints@@$1?_GUID_b196b285_bab4_101a_b69c_00aa00341d07@@3U__s_GUID@@BPAUIConnectionPoint@@V?$_CopyInterface@UIConnectionPoint@@@ATL@@VCComSingleThreadModel@6@@ATL@@@ATL@@SGJPAPAV12@@Z 1000ff70 f i MSR.obj
 0001:0000f0e0       ?CreateInstance@?$CComObject@V?$CComEnum@UIEnumConnections@@$1?_GUID_b196b287_bab4_101a_b69c_00aa00341d07@@3U__s_GUID@@BUtagCONNECTDATA@@V?$_Copy@UtagCONNECTDATA@@@ATL@@VCComSingleThreadModel@6@@ATL@@@ATL@@SGJPAPAV12@@Z 100100e0 f i MSR.obj
 0001:0000f250       ?CreateInstance@CComClassFactory@ATL@@UAGJPAUIUnknown@@ABU_GUID@@PAPAX@Z 10010250 f i MSR.obj
 0001:0000f340       ?DAdvise@?$IDataObjectImpl@VCOPOSMSR@@@ATL@@UAGJPAUtagFORMATETC@@KPAUIAdviseSink@@PAK@Z 10010340 f i MSR.obj
 0001:0000f440       ?DEVMODEOLE2T_EX@@YAPAU_devicemodeW@@PAU1@@Z 10010440 f i MSR.obj
 0001:0000f450       ?DUnadvise@?$IDataObjectImpl@VCOPOSMSR@@@ATL@@UAGJK@Z 10010450 f i MSR.obj
 0001:0000f520       ?Decrement@CComMultiThreadModel@ATL@@SGKPAJ@Z 10010520 f i MSR.obj
 0001:0000f540       ?Decrement@CComSingleThreadModel@ATL@@SGKPAJ@Z 10010540 f i MSR.obj
 0001:0000f560       ?DefWindowProcW@?$CWindowImplBaseT@VCWindow@ATL@@V?$CWinTraits@$0FGAAAAAA@$0A@@2@@ATL@@QAEJIIJ@Z 10010560 f i MSR.obj
 0001:0000f5b0       ?DefaultReflectionHandler@?$CWindowImplRoot@VCWindow@ATL@@@ATL@@SAHPAUHWND__@@IIJAAJ@Z 100105b0 f i MSR.obj
 0001:0000f7a0       ?DeleteSubKey@CRegKey@ATL@@QAEJPB_W@Z 100107a0 f i MSR.obj
 0001:0000f8b0       ?DeleteValue@CRegKey@ATL@@QAEJPB_W@Z 100108b0 f i MSR.obj
 0001:0000f920       ?Detach@?$CAutoVectorPtr@_W@ATL@@QAEPA_WXZ 10010920 f i MSR.obj
 0001:0000f950       ?Detach@?$CComPtrBase@UIPersistStream@@@ATL@@QAEPAUIPersistStream@@XZ 10010950 f i MSR.obj
 0001:0000f980       ?Detach@?$CComPtrBase@UITypeInfo@@@ATL@@QAEPAUITypeInfo@@XZ 10010980 f i MSR.obj
 0001:0000f9b0       ?Detach@?$CComPtrBase@UIUnknown@@@ATL@@QAEPAUIUnknown@@XZ 100109b0 f i MSR.obj
 0001:0000f9e0       ?Detach@CComBSTR@ATL@@QAEPA_WXZ 100109e0 f i MSR.obj
 0001:0000fa10       ?Detach@CParseBuffer@CRegParser@ATL@@QAEPA_WXZ 10010a10 f i MSR.obj
 0001:0000fa60       ?Detach@CRegKey@ATL@@QAEPAUHKEY__@@XZ 10010a60 f i MSR.obj
 0001:0000fab0       ?DoEvent@COPOSMSR@@IAEXIIJ@Z 10010ab0 f i MSR.obj
 0001:0000fbf0       ?DoVerb@?$IOleObjectImpl@VCOPOSMSR@@@ATL@@UAGJJPAUtagMSG@@PAUIOleClientSite@@JPAUHWND__@@PBUtagRECT@@@Z 10010bf0 f i MSR.obj
 0001:0000fe00       ?DoVerbDiscardUndo@?$IOleObjectImpl@VCOPOSMSR@@@ATL@@QAEJPBUtagRECT@@PAUHWND__@@@Z 10010e00 f i MSR.obj
 0001:0000fe70       ?DoVerbHide@?$IOleObjectImpl@VCOPOSMSR@@@ATL@@QAEJPBUtagRECT@@PAUHWND__@@@Z 10010e70 f i MSR.obj
 0001:0000ff20       ?DoVerbInPlaceActivate@?$IOleObjectImpl@VCOPOSMSR@@@ATL@@QAEJPBUtagRECT@@PAUHWND__@@@Z 10010f20 f i MSR.obj
 0001:0000ffc0       ?DoVerbOpen@?$IOleObjectImpl@VCOPOSMSR@@@ATL@@QAEJPBUtagRECT@@PAUHWND__@@@Z 10010fc0 f i MSR.obj
 0001:00010030       ?DoVerbPrimary@?$IOleObjectImpl@VCOPOSMSR@@@ATL@@QAEJPBUtagRECT@@PAUHWND__@@@Z 10011030 f i MSR.obj
 0001:00010140       ?DoVerbProperties@CComControlBase@ATL@@QAEJPBUtagRECT@@PAUHWND__@@@Z 10011140 f i MSR.obj
 0001:00010460       ?DoVerbShow@?$IOleObjectImpl@VCOPOSMSR@@@ATL@@QAEJPBUtagRECT@@PAUHWND__@@@Z 10011460 f i MSR.obj
 0001:000104f0       ?DoVerbUIActivate@?$IOleObjectImpl@VCOPOSMSR@@@ATL@@QAEJPBUtagRECT@@PAUHWND__@@@Z 100114f0 f i MSR.obj
 0001:00010590       ?DoesVerbActivate@CComControlBase@ATL@@QAEHJ@Z 10011590 f i MSR.obj
 0001:00010600       ?DoesVerbUIActivate@CComControlBase@ATL@@QAEHJ@Z 10011600 f i MSR.obj
 0001:00010680       ?Draw@?$IViewObjectExImpl@VCOPOSMSR@@@ATL@@UAGJKJPAXPAUtagDVTARGETDEVICE@@PAUHDC__@@2PBU_RECTL@@3P6GHK@ZK@Z 10011680 f i MSR.obj
 0001:00010720       ?Empty@CComBSTR@ATL@@QAEXXZ 10011720 f i MSR.obj
 0001:00010760       ?EnableModeless@?$IOleInPlaceActiveObjectImpl@VCOPOSMSR@@@ATL@@UAGJH@Z 10011760 f i MSR.obj
 0001:000107c0       ?EndOfVar@CRegParser@ATL@@IAEHXZ 100117c0 f i MSR.obj
 0001:00010830       ?EnsureTI@CComTypeInfoHolder@ATL@@QAEJK@Z 10011830 f i MSR.obj
 0001:00010890       ?EnumAdvise@?$IOleObjectImpl@VCOPOSMSR@@@ATL@@UAGJPAPAUIEnumSTATDATA@@@Z 10011890 f i MSR.obj
 0001:000109a0       ?EnumConnectionPoints@?$IConnectionPointContainerImpl@VCOPOSMSR@@@ATL@@UAGJPAPAUIEnumConnectionPoints@@@Z 100119a0 f i MSR.obj
 0001:00010dd0       ?EnumConnections@?$IConnectionPointImpl@VCOPOSMSR@@$1?DIID__IOPOSMSREvents@@3U_GUID@@BVCComDynamicUnkArray@ATL@@@ATL@@UAGJPAPAUIEnumConnections@@@Z 10011dd0 f i MSR.obj
 0001:00011020       ?EnumConnections@?$IConnectionPointImpl@VCOPOSMSR@@$1?IID_IPropertyNotifySink@@3U_GUID@@BVCComDynamicUnkArray@ATL@@@ATL@@UAGJPAPAUIEnumConnections@@@Z 10012020 f i MSR.obj
 0001:00011270       ?EnumDAdvise@?$IDataObjectImpl@VCOPOSMSR@@@ATL@@UAGJPAPAUIEnumSTATDATA@@@Z 10012270 f i MSR.obj
 0001:00011370       ?EnumFormatEtc@?$IDataObjectImpl@VCOPOSMSR@@@ATL@@UAGJKPAPAUIEnumFORMATETC@@@Z 10012370 f i MSR.obj
 0001:000113e0       ?EnumVerbs@?$IOleObjectImpl@VCOPOSMSR@@@ATL@@UAGJPAPAUIEnumOLEVERB@@@Z 100123e0 f i MSR.obj
 0001:00011490       ?EscapeSingleQuote@CAtlModule@ATL@@SAXPA_WIPB_W@Z 10012490 f i MSR.obj
 0001:00011540       ?ExtractCreateWndData@CAtlWinModule@ATL@@QAEPAXXZ 10012540 f i MSR.obj
 0001:00011570       ?FAccessAllowed@?$IObjectSafetyImpl@VCOPOSMSR@@$02@ATL@@MAEHXZ 10012570 f i MSR.obj
 0001:00011590       ?FinalConstruct@?$CComAggObject@VCOPOSMSR@@@ATL@@QAEJXZ 10012590 f i MSR.obj
 0001:000115d0       ?FinalConstruct@CComObjectRootBase@ATL@@QAEJXZ 100125d0 f i MSR.obj
 0001:000115f0       ?FinalConstruct@CRegObject@ATL@@QAEJXZ 100125f0 f i MSR.obj
 0001:00011620       ?FinalRelease@?$CComAggObject@VCOPOSMSR@@@ATL@@QAEXXZ 10012620 f i MSR.obj
 0001:00011660       ?FinalRelease@CComObjectRootBase@ATL@@QAEXXZ 10012660 f i MSR.obj
 0001:00011680       ?FindConnectionPoint@?$IConnectionPointContainerImpl@VCOPOSMSR@@@ATL@@UAGJABU_GUID@@PAPAUIConnectionPoint@@@Z 10012680 f i MSR.obj
 0001:000117d0       ?FindKey@?$CSimpleMap@PA_WPA_WVCExpansionVectorEqualHelper@ATL@@@ATL@@QBEHABQA_W@Z 100127d0 f i MSR.obj
 0001:00011840       ?FireTheEvent@?$CProxy_IOPOSEvents@VCOPOSMSR@@@@IAEXPAUIUnknown@@PAVOposVariant@@IAAJPB_WJ@Z 10012840 f i MSR.obj
 0001:000119b0       ?FireViewChange@CComControlBase@ATL@@QAEJXZ 100129b0 f i MSR.obj
 0001:00011a70       ?Fire_DataEvent@?$CProxy_IOPOSEvents@VCOPOSMSR@@@@QAEXJ@Z 10012a70 f i MSR.obj
 0001:00011bd0       ?Fire_DirectIOEvent@?$CProxy_IOPOSEvents@VCOPOSMSR@@@@QAEXJPAJPAPA_W@Z 10012bd0 f i MSR.obj
 0001:00011da0       ?Fire_ErrorEvent@?$CProxy_IOPOSEvents@VCOPOSMSR@@@@QAEXJJJPAJ@Z 10012da0 f i MSR.obj
 0001:00011f90       ?Fire_StatusUpdateEvent@?$CProxy_IOPOSEvents@VCOPOSMSR@@@@QAEXJ@Z 10012f90 f i MSR.obj
 0001:000120f0       ?FormatWindowClassName@AtlModuleRegisterWndClassInfoParamW@ATL@@SAXPA_WKPAX@Z 100130f0 f i MSR.obj
 0001:00012120       ?Free@?$CAutoVectorPtr@_W@ATL@@QAEXXZ 10013120 f i MSR.obj
 0001:00012170       ?FreeHeap@?$CTempBuffer@E$0BAA@VCCRTAllocator@ATL@@@ATL@@AAEXXZ 10013170 f i MSR.obj
 0001:000121a0       ?FreeHeap@?$CTempBuffer@_W$0BAA@VCCRTAllocator@ATL@@@ATL@@AAEXXZ 100131a0 f i MSR.obj
 0001:000121d0       ?FreeHeap@?$CTempBuffer@_W$0EAA@VCCRTAllocator@ATL@@@ATL@@AAEXXZ 100131d0 f i MSR.obj
 0001:00012200       ?Freeze@?$IViewObjectExImpl@VCOPOSMSR@@@ATL@@UAGJKJPAXPAK@Z 10013200 f i MSR.obj
 0001:00012270       ?GenerateError@CRegParser@ATL@@IAEJI@Z 10013270 f i MSR.obj
 0001:00012290       ?GetAdvise@?$IViewObjectExImpl@VCOPOSMSR@@@ATL@@UAGJPAK0PAPAUIAdviseSink@@@Z 10013290 f i MSR.obj
 0001:00012390       ?GetAmbientLocaleID@CComControlBase@ATL@@QAEJAAK@Z 10013390 f i MSR.obj
 0001:00012470       ?GetAmbientProperty@CComControlBase@ATL@@QAEJJAAUtagVARIANT@@@Z 10013470 f i MSR.obj
 0001:000124c0       ?GetAmbientUserMode@CComControlBase@ATL@@QAEJAAH@Z 100134c0 f i MSR.obj
 0001:000125c0       ?GetAppId@?$CAtlModuleT@VCComModule@ATL@@@ATL@@SAPB_WXZ 100135c0 f i MSR.obj
 0001:000125d0       ?GetAt@CComDynamicUnkArray@ATL@@QAEPAUIUnknown@@H@Z 100135d0 f i MSR.obj
 0001:00012650       ?GetCanonicalFormatEtc@?$IDataObjectImpl@VCOPOSMSR@@@ATL@@UAGJPAUtagFORMATETC@@0@Z 10013650 f i MSR.obj
 0001:000126c0       ?GetClassID@?$IPersistStorageImpl@VCOPOSMSR@@@ATL@@UAGJPAU_GUID@@@Z 100136c0 f i MSR.obj
 0001:00012740       ?GetClassID@?$IPersistStreamInitImpl@VCOPOSMSR@@@ATL@@UAGJPAU_GUID@@@Z 10013740 f i MSR.obj
 0001:000127c0       ?GetClassInfoExW@AtlModuleRegisterWndClassInfoParamW@ATL@@SAHPAUHINSTANCE__@@PB_WPAUtagWNDCLASSEXW@@@Z 100137c0 f i MSR.obj
 0001:000127f0       ?GetClassInfoW@?$IProvideClassInfo2Impl@$1?CLSID_OPOSMSR@@3U_GUID@@B$1?DIID__IOPOSMSREvents@@3U2@B$1?LIBID_OposMSR_CCO@@3U2@B$00$0A@VCComTypeInfoHolder@ATL@@@ATL@@UAGJPAPAUITypeInfo@@@Z 100137f0 f i MSR.obj
 0001:00012810       ?GetClassObject@CComModule@ATL@@QAEJABU_GUID@@0PAPAX@Z 10013810 f i MSR.obj
 0001:00012a10       ?GetClientSite@?$IOleObjectImpl@VCOPOSMSR@@@ATL@@UAGJPAPAUIOleClientSite@@@Z 10013a10 f i MSR.obj
 0001:00012aa0       ?GetClipboardData@?$IOleObjectImpl@VCOPOSMSR@@@ATL@@UAGJKPAPAUIDataObject@@@Z 10013aa0 f i MSR.obj
 0001:00012b10       ?GetCodeAddress@CDynamicStdCallThunk2@ATL@@QAEPAXXZ 10013b10 f i MSR.obj
 0001:00012b40       ?GetColorSet@?$IViewObjectExImpl@VCOPOSMSR@@@ATL@@UAGJKJPAXPAUtagDVTARGETDEVICE@@PAUHDC__@@PAPAUtagLOGPALETTE@@@Z 10013b40 f i MSR.obj
 0001:00012bb0       ?GetConnMap@COPOSMSR@@SAPBU_ATL_CONNMAP_ENTRY@ATL@@PAH@Z 10013bb0 f i MSR.obj
 0001:00012cf0       ?GetConnectionInterface@?$IConnectionPointImpl@VCOPOSMSR@@$1?DIID__IOPOSMSREvents@@3U_GUID@@BVCComDynamicUnkArray@ATL@@@ATL@@UAGJPAU_GUID@@@Z 10013cf0 f i MSR.obj
 0001:00012d30       ?GetConnectionInterface@?$IConnectionPointImpl@VCOPOSMSR@@$1?IID_IPropertyNotifySink@@3U_GUID@@BVCComDynamicUnkArray@ATL@@@ATL@@UAGJPAU_GUID@@@Z 10013d30 f i MSR.obj
 0001:00012d70       ?GetConnectionPointContainer@?$IConnectionPointImpl@VCOPOSMSR@@$1?DIID__IOPOSMSREvents@@3U_GUID@@BVCComDynamicUnkArray@ATL@@@ATL@@UAGJPAPAUIConnectionPointContainer@@@Z 10013d70 f i MSR.obj
 0001:00012de0       ?GetConnectionPointContainer@?$IConnectionPointImpl@VCOPOSMSR@@$1?IID_IPropertyNotifySink@@3U_GUID@@BVCComDynamicUnkArray@ATL@@@ATL@@UAGJPAPAUIConnectionPointContainer@@@Z 10013de0 f i MSR.obj
 0001:00012e50       ?GetContentExtent@?$IQuickActivateImpl@VCOPOSMSR@@@ATL@@UAGJPAUtagSIZE@@@Z 10013e50 f i MSR.obj
 0001:00012ee0       ?GetControlInfo@?$IOleControlImpl@VCOPOSMSR@@@ATL@@UAGJPAUtagCONTROLINFO@@@Z 10013ee0 f i MSR.obj
 0001:00012f50       ?GetCookie@CComDynamicUnkArray@ATL@@QAGKPAPAUIUnknown@@@Z 10013f50 f i MSR.obj
 0001:00013010       ?GetData@?$IDataObjectImpl@VCOPOSMSR@@@ATL@@UAGJPAUtagFORMATETC@@PAUtagSTGMEDIUM@@@Z 10014010 f i MSR.obj
 0001:000130a0       ?GetData@CAtlSafeAllocBufferNode@?$CAtlSafeAllocBufferManager@VCCRTAllocator@ATL@@@_ATL_SAFE_ALLOCA_IMPL@ATL@@QAEPAXXZ 100140a0 f i MSR.obj
 0001:000130c0       ?GetDataHere@?$IDataObjectImpl@VCOPOSMSR@@@ATL@@UAGJPAUtagFORMATETC@@PAUtagSTGMEDIUM@@@Z 100140c0 f i MSR.obj
 0001:00013130       ?GetDropTarget@?$IOleInPlaceObjectWindowlessImpl@VCOPOSMSR@@@ATL@@UAGJPAPAUIDropTarget@@@Z 10014130 f i MSR.obj
 0001:000131a0       ?GetExtent@?$IOleObjectImpl@VCOPOSMSR@@@ATL@@UAGJKPAUtagSIZE@@@Z 100141a0 f i MSR.obj
 0001:00013240       ?GetExtent@?$IViewObjectExImpl@VCOPOSMSR@@@ATL@@UAGJKJPAUtagDVTARGETDEVICE@@PAUtagSIZE@@@Z 10014240 f i MSR.obj
 0001:00013310       ?GetGITPtr@CAtlModule@ATL@@UAEJPAPAUIGlobalInterfaceTable@@@Z 10014310 f i MSR.obj
 0001:00013410       ?GetGUID@?$IProvideClassInfo2Impl@$1?CLSID_OPOSMSR@@3U_GUID@@B$1?DIID__IOPOSMSREvents@@3U2@B$1?LIBID_OposMSR_CCO@@3U2@B$00$0A@VCComTypeInfoHolder@ATL@@@ATL@@UAGJKPAU_GUID@@@Z 10014410 f i MSR.obj
 0001:00013490       ?GetIDsOfNames@?$IDispatchImpl@UIOPOSMSR@@$1?IID_IOPOSMSR@@3U_GUID@@B$1?LIBID_OposMSR_CCO@@3U3@B$00$0A@VCComTypeInfoHolder@ATL@@@ATL@@UAGJABU_GUID@@PAPA_WIKPAJ@Z 10014490 f i MSR.obj
 0001:000134c0       ?GetIDsOfNames@CComTypeInfoHolder@ATL@@QAEJABU_GUID@@PAPA_WIKPAJ@Z 100144c0 f i MSR.obj
 0001:00013670       ?GetInterfaceSafetyOptions@?$IObjectSafetyImpl@VCOPOSMSR@@$02@ATL@@UAGJABU_GUID@@PAK1@Z 10014670 f i MSR.obj
 0001:000137e0       ?GetKeyAt@?$CSimpleMap@PA_WPA_WVCExpansionVectorEqualHelper@ATL@@@ATL@@QBEAAPA_WH@Z 100147e0 f i MSR.obj
 0001:00013860       ?GetLockCount@CAtlModule@ATL@@UAEJXZ 10014860 f i MSR.obj
 0001:00013880       ?GetMiscStatus@?$IOleObjectImpl@VCOPOSMSR@@@ATL@@UAGJKPAK@Z 10014880 f i MSR.obj
 0001:000138f0       ?GetMoniker@?$IOleObjectImpl@VCOPOSMSR@@@ATL@@UAGJKKPAPAUIMoniker@@@Z 100148f0 f i MSR.obj
 0001:00013960       ?GetNaturalExtent@?$IViewObjectExImpl@VCOPOSMSR@@@ATL@@UAGJKJPAUtagDVTARGETDEVICE@@PAUHDC__@@PAUtagExtentInfo@@PAUtagSIZE@@@Z 10014960 f i MSR.obj
 0001:00013a80       ?GetObjectCLSID@?$CComCoClass@VCOPOSMSR@@$1?CLSID_OPOSMSR@@3U_GUID@@B@ATL@@SGABU_GUID@@XZ 10014a80 f i MSR.obj
 0001:00013a90       ?GetPages@?$ISpecifyPropertyPagesImpl@VCOPOSMSR@@@ATL@@UAGJPAUtagCAUUID@@@Z 10014a90 f i MSR.obj
 0001:00013b00       ?GetPagesHelper@?$ISpecifyPropertyPagesImpl@VCOPOSMSR@@@ATL@@IAEJPAUtagCAUUID@@PBUATL_PROPMAP_ENTRY@2@@Z 10014b00 f i MSR.obj
 0001:00013d00       ?GetProperty@?$CComPtr@UIDispatch@@@ATL@@QAEJJPAUtagVARIANT@@@Z 10014d00 f i MSR.obj
 0001:00013d40       ?GetProperty@?$CComPtr@UIDispatch@@@ATL@@SAJPAUIDispatch@@JPAUtagVARIANT@@@Z 10014d40 f i MSR.obj
 0001:00013ea0       ?GetPropertyMap@COPOSMSR@@SAPBUATL_PROPMAP_ENTRY@ATL@@XZ 10014ea0 f i MSR.obj
 0001:00013eb0       ?GetRect@?$IViewObjectExImpl@VCOPOSMSR@@@ATL@@UAGJKPAU_RECTL@@@Z 10014eb0 f i MSR.obj
 0001:00013f20       ?GetSize@?$CSimpleMap@PA_WPA_WVCExpansionVectorEqualHelper@ATL@@@ATL@@QBEHXZ 10014f20 f i MSR.obj
 0001:00013f40       ?GetSize@CComDynamicUnkArray@ATL@@QBEHXZ 10014f40 f i MSR.obj
 0001:00013f60       ?GetSizeMax@?$IPersistStreamInitImpl@VCOPOSMSR@@@ATL@@UAGJPAT_ULARGE_INTEGER@@@Z 10014f60 f i MSR.obj
 0001:000144d0       ?GetSizeMax@CComVariant@ATL@@QBEJPAT_ULARGE_INTEGER@@@Z 100154d0 f i MSR.obj
 0001:00014830       ?GetStreamSize@CComBSTR@ATL@@SAKPA_W@Z 10015830 f i MSR.obj
 0001:00014880       ?GetTI@CComTypeInfoHolder@ATL@@QAEJK@Z 10015880 f i MSR.obj
 0001:00015090       ?GetTI@CComTypeInfoHolder@ATL@@QAEJKPAPAUITypeInfo@@@Z 10016090 f i MSR.obj
 0001:00015150       ?GetTypeInfo@?$IDispatchImpl@UIOPOSMSR@@$1?IID_IOPOSMSR@@3U_GUID@@B$1?LIBID_OposMSR_CCO@@3U3@B$00$0A@VCComTypeInfoHolder@ATL@@@ATL@@UAGJIKPAPAUITypeInfo@@@Z 10016150 f i MSR.obj
 0001:00015180       ?GetTypeInfo@CComTypeInfoHolder@ATL@@QAEJIKPAPAUITypeInfo@@@Z 10016180 f i MSR.obj
 0001:000151c0       ?GetTypeInfoCount@?$IDispatchImpl@UIOPOSMSR@@$1?IID_IOPOSMSR@@3U_GUID@@B$1?LIBID_OposMSR_CCO@@3U3@B$00$0A@VCComTypeInfoHolder@ATL@@@ATL@@UAGJPAI@Z 100161c0 f i MSR.obj
 0001:000151e0       ?GetUnknown@CComDynamicUnkArray@ATL@@QAGPAUIUnknown@@K@Z 100161e0 f i MSR.obj
 0001:00015250       ?GetUnknown@COPOSMSR@@QAEPAUIUnknown@@XZ 10016250 f i MSR.obj
 0001:00015280       ?GetUserClassID@?$IOleObjectImpl@VCOPOSMSR@@@ATL@@UAGJPAU_GUID@@@Z 10016280 f i MSR.obj
 0001:00015330       ?GetUserType@?$IOleObjectImpl@VCOPOSMSR@@@ATL@@UAGJKPAPA_W@Z 10016330 f i MSR.obj
 0001:000153a0       ?GetValueAt@?$CSimpleMap@PA_WPA_WVCExpansionVectorEqualHelper@ATL@@@ATL@@QBEAAPA_WH@Z 100163a0 f i MSR.obj
 0001:00015420       ?GetViewStatus@?$IViewObjectExImpl@VCOPOSMSR@@@ATL@@UAGJPAK@Z 10016420 f i MSR.obj
 0001:000154e0       ?GetWNDPROC@CWndProcThunk@ATL@@QAEP6GJPAUHWND__@@IIJ@ZXZ 100164e0 f i MSR.obj
 0001:00015510       ?GetWindow@?$IOleInPlaceActiveObjectImpl@VCOPOSMSR@@@ATL@@UAGJPAPAUHWND__@@@Z 10016510 f i MSR.obj
 0001:000155e0       ?GetWindow@?$IOleInPlaceObjectWindowlessImpl@VCOPOSMSR@@@ATL@@UAGJPAPAUHWND__@@@Z 100165e0 f i MSR.obj
 0001:000156b0       ?GetWindowLongPtrW@@YAJPAUHWND__@@H@Z 100166b0 f i MSR.obj
 0001:000156e0       ?GetWindowProc@?$CWindowImplBaseT@VCWindow@ATL@@V?$CWinTraits@$0FGAAAAAA@$0A@@2@@ATL@@UAEP6GJPAUHWND__@@IIJ@ZXZ 100166e0 f i MSR.obj
 0001:00015700       ?GetWndCaption@?$CWindowImpl@VCOPOSMSR@@VCWindow@ATL@@V?$CWinTraits@$0FGAAAAAA@$0A@@3@@ATL@@SAPB_WXZ 10016700 f i MSR.obj
 0001:00015710       ?GetWndClassInfo@?$CWindowImpl@VCOPOSMSR@@VCWindow@ATL@@V?$CWinTraits@$0FGAAAAAA@$0A@@3@@ATL@@SAAAU_ATL_WNDCLASSINFOW@2@XZ 10016710 f i MSR.obj
 0001:00015720       ?GetWndClassName@CWindow@ATL@@SAPB_WXZ 10016720 f i MSR.obj
 0001:00015730       ?GetWndExStyle@?$CWinTraits@$0FGAAAAAA@$0A@@ATL@@SAKK@Z 10016730 f i MSR.obj
 0001:00015760       ?GetWndExStyle@?$CWindowImplBaseT@VCWindow@ATL@@V?$CWinTraits@$0FGAAAAAA@$0A@@2@@ATL@@SAKK@Z 10016760 f i MSR.obj
 0001:00015780       ?GetWndStyle@?$CWinTraits@$0FGAAAAAA@$0A@@ATL@@SAKK@Z 10016780 f i MSR.obj
 0001:000157b0       ?GetWndStyle@?$CWindowImplBaseT@VCWindow@ATL@@V?$CWinTraits@$0FGAAAAAA@$0A@@2@@ATL@@SAKK@Z 100167b0 f i MSR.obj
 0001:000157d0       ?GetZoomInfo@CComControlBase@ATL@@QAEXAAUATL_DRAWINFO@@@Z 100167d0 f i MSR.obj
 0001:00015940       ?HKeyFromString@CRegParser@ATL@@KAPAUHKEY__@@PA_W@Z 10016940 f i MSR.obj
 0001:000159b0       ?HandsOffStorage@?$IPersistStorageImpl@VCOPOSMSR@@@ATL@@UAGJXZ 100169b0 f i MSR.obj
 0001:00015a10       ?HasSubKeys@CRegParser@ATL@@IAEHPAUHKEY__@@@Z 10016a10 f i MSR.obj
 0001:00015b20       ?IDataObject_GetData@CComControlBase@ATL@@QAEJPAUtagFORMATETC@@PAUtagSTGMEDIUM@@@Z 10016b20 f i MSR.obj
 0001:00015f40       ?IOleInPlaceObject_InPlaceDeactivate@CComControlBase@ATL@@QAEJXZ 10016f40 f i MSR.obj
 0001:00016140       ?IOleInPlaceObject_SetObjectRects@CComControlBase@ATL@@QAEJPBUtagRECT@@0@Z 10017140 f i MSR.obj
 0001:00016300       ?IOleInPlaceObject_UIDeactivate@CComControlBase@ATL@@QAEJXZ 10017300 f i MSR.obj
 0001:00016570       ?IOleObject_Advise@CComControlBase@ATL@@QAEJPAUIAdviseSink@@PAK@Z 10017570 f i MSR.obj
 0001:00016620       ?IOleObject_Close@CComControlBase@ATL@@QAEJK@Z 10017620 f i MSR.obj
 0001:000168d0       ?IOleObject_GetClientSite@CComControlBase@ATL@@QAEJPAPAUIOleClientSite@@@Z 100178d0 f i MSR.obj
 0001:00016970       ?IOleObject_SetClientSite@CComControlBase@ATL@@QAEJPAUIOleClientSite@@@Z 10017970 f i MSR.obj
 0001:00016a40       ?IOleObject_SetExtent@CComControlBase@ATL@@QAEJKPAUtagSIZE@@@Z 10017a40 f i MSR.obj
 0001:00016b80       ?IPSI_GetIPersistStreamInit@?$IPersistStorageImpl@VCOPOSMSR@@@ATL@@AAEPAUIPersistStreamInit@@XZ 10017b80 f i MSR.obj
 0001:00016c50       ?IPersistStreamInit_Load@?$IPersistStreamInitImpl@VCOPOSMSR@@@ATL@@QAEJPAUIStream@@PBUATL_PROPMAP_ENTRY@2@@Z 10017c50 f i MSR.obj
 0001:00016cd0       ?IPersistStreamInit_Save@?$IPersistStreamInitImpl@VCOPOSMSR@@@ATL@@QAEJPAUIStream@@HPBUATL_PROPMAP_ENTRY@2@@Z 10017cd0 f i MSR.obj
 0001:00016d60       ?IQuickActivate_QuickActivate@CComControlBase@ATL@@QAEJPAUtagQACONTAINER@@PAUtagQACONTROL@@@Z 10017d60 f i MSR.obj
 0001:000173b0       ?IViewObject_Draw@CComControlBase@ATL@@QAEJKJPAXPAUtagDVTARGETDEVICE@@PAUHDC__@@2PBU_RECTL@@3@Z 100183b0 f i MSR.obj
 0001:00017650       ?InPlaceActivate@CComControlBase@ATL@@QAEJJPBUtagRECT@@@Z 10018650 f i MSR.obj
 0001:00017fe0       ?InPlaceDeactivate@?$IOleInPlaceObjectWindowlessImpl@VCOPOSMSR@@@ATL@@UAGJXZ 10018fe0 f i MSR.obj
 0001:00018060       ?Increment@CComMultiThreadModel@ATL@@SGKPAJ@Z 10019060 f i MSR.obj
 0001:00018080       ?Increment@CComSingleThreadModel@ATL@@SGKPAJ@Z 10019080 f i MSR.obj
 0001:000180a0       ?Init@?$CComEnumImpl@UIEnumConnectionPoints@@$1?_GUID_b196b285_bab4_101a_b69c_00aa00341d07@@3U__s_GUID@@BPAUIConnectionPoint@@V?$_CopyInterface@UIConnectionPoint@@@ATL@@@ATL@@QAEJPAPAUIConnectionPoint@@0PAUIUnknown@@W4CComEnumFlags@2@@Z 100190a0 f i MSR.obj
 0001:00018280       ?Init@?$CComEnumImpl@UIEnumConnections@@$1?_GUID_b196b287_bab4_101a_b69c_00aa00341d07@@3U__s_GUID@@BUtagCONNECTDATA@@V?$_Copy@UtagCONNECTDATA@@@ATL@@@ATL@@QAEJPAUtagCONNECTDATA@@0PAUIUnknown@@W4CComEnumFlags@2@@Z 10019280 f i MSR.obj
 0001:00018460       ?Init@CComFakeCriticalSection@ATL@@QAEJXZ 10019460 f i MSR.obj
 0001:00018480       ?Init@CComModule@ATL@@QAEJPAU_ATL_OBJMAP_ENTRY30@2@PAUHINSTANCE__@@PBU_GUID@@@Z 10019480 f i MSR.obj
 0001:00018570       ?Init@CComSafeDeleteCriticalSection@ATL@@QAEJXZ 10019570 f i MSR.obj
 0001:000185f0       ?Init@CDynamicStdCallThunk2@ATL@@QAEHKPAX@Z 100195f0 f i MSR.obj
 0001:00018650       ?Init@CWndProcThunk@ATL@@QAEHP6GJPAUHWND__@@IIJ@ZPAX@Z 10019650 f i MSR.obj
 0001:00018690       ?InitFromData@?$IOleObjectImpl@VCOPOSMSR@@@ATL@@UAGJPAUIDataObject@@HK@Z 10019690 f i MSR.obj
 0001:00018700       ?InitLibId@?$CAtlModuleT@VCComModule@ATL@@@ATL@@SAXXZ 10019700 f i MSR.obj
 0001:00018710       ?InitNew@?$IPersistStorageImpl@VCOPOSMSR@@@ATL@@UAGJPAUIStorage@@@Z 10019710 f i MSR.obj
 0001:00018800       ?InitNew@?$IPersistStreamInitImpl@VCOPOSMSR@@@ATL@@UAGJXZ 10019800 f i MSR.obj
 0001:00018890       ?InlineIsEqualUnknown@ATL@@YGHABU_GUID@@@Z 10019890 f i MSR.obj
 0001:00018900       ?InternalAddRef@?$CComObjectRootEx@VCComMultiThreadModel@ATL@@@ATL@@QAEKXZ 10019900 f i MSR.obj
 0001:00018960       ?InternalAddRef@?$CComObjectRootEx@VCComSingleThreadModel@ATL@@@ATL@@QAEKXZ 10019960 f i MSR.obj
 0001:000189c0       ?InternalFinalConstructAddRef@CComObjectRootBase@ATL@@QAEXXZ 100199c0 f i MSR.obj
 0001:000189e0       ?InternalFinalConstructAddRef@COPOSMSR@@QAEXXZ 100199e0 f i MSR.obj
 0001:00018a10       ?InternalFinalConstructRelease@CComObjectRootBase@ATL@@QAEXXZ 10019a10 f i MSR.obj
 0001:00018a60       ?InternalFinalConstructRelease@COPOSMSR@@QAEXXZ 10019a60 f i MSR.obj
 0001:00018a90       ?InternalGetSite@CComControlBase@ATL@@QAEJABU_GUID@@PAPAX@Z 10019a90 f i MSR.obj
 0001:00018b50       ?InternalQueryInterface@CComObjectRootBase@ATL@@SGJPAXPBU_ATL_INTMAP_ENTRY@2@ABU_GUID@@PAPAX@Z 10019b50 f i MSR.obj
 0001:00018c10       ?InternalRelease@?$CComObjectRootEx@VCComMultiThreadModel@ATL@@@ATL@@QAEKXZ 10019c10 f i MSR.obj
 0001:00018c80       ?InternalRelease@?$CComObjectRootEx@VCComSingleThreadModel@ATL@@@ATL@@QAEKXZ 10019c80 f i MSR.obj
 0001:00018cf0       ?InternalSetAtIndex@?$CSimpleArray@GV?$CSimpleArrayEqualHelper@G@ATL@@@ATL@@QAEXHABG@Z 10019cf0 f i MSR.obj
 0001:00018d60       ?InternalSetAtIndex@?$CSimpleMap@PA_WPA_WVCExpansionVectorEqualHelper@ATL@@@ATL@@QAEXHABQA_W0@Z 10019d60 f i MSR.obj
 0001:00018e00       ?Invoke@?$IDispatchImpl@UIOPOSMSR@@$1?IID_IOPOSMSR@@3U_GUID@@B$1?LIBID_OposMSR_CCO@@3U3@B$00$0A@VCComTypeInfoHolder@ATL@@@ATL@@UAGJJABU_GUID@@KGPAUtagDISPPARAMS@@PAUtagVARIANT@@PAUtagEXCEPINFO@@PAI@Z 10019e00 f i MSR.obj
 0001:00018e40       ?Invoke@CComTypeInfoHolder@ATL@@QAEJPAUIDispatch@@JABU_GUID@@KGPAUtagDISPPARAMS@@PAUtagVARIANT@@PAUtagEXCEPINFO@@PAI@Z 10019e40 f i MSR.obj
 0001:00018ed0       ?IsDirty@?$IPersistStorageImpl@VCOPOSMSR@@@ATL@@UAGJXZ 10019ed0 f i MSR.obj
 0001:00018fc0       ?IsDirty@?$IPersistStreamInitImpl@VCOPOSMSR@@@ATL@@UAGJXZ 10019fc0 f i MSR.obj
 0001:00019060       ?IsEqualKey@CExpansionVectorEqualHelper@ATL@@SA_NQA_W0@Z 1001a060 f i MSR.obj
 0001:00019090       ?IsEqualObject@?$CComPtrBase@UIOleClientSite@@@ATL@@QAE_NPAUIUnknown@@@Z 1001a090 f i MSR.obj
 0001:000191c0       ?IsEqualObject@?$CComPtrBase@UITypeInfo@@@ATL@@QAE_NPAUIUnknown@@@Z 1001a1c0 f i MSR.obj
 0001:000192f0       ?IsSpace@CRegParser@ATL@@IAEH_W@Z 1001a2f0 f i MSR.obj
 0001:00019360       ?IsUpToDate@?$IOleObjectImpl@VCOPOSMSR@@@ATL@@UAGJXZ 1001a360 f i MSR.obj
 0001:000193c0       ?Length@CComBSTR@ATL@@QBEIXZ 1001a3c0 f i MSR.obj
 0001:00019400       ?Load@?$IPersistStorageImpl@VCOPOSMSR@@@ATL@@UAGJPAUIStorage@@@Z 1001a400 f i MSR.obj
 0001:00019560       ?Load@?$IPersistStreamInitImpl@VCOPOSMSR@@@ATL@@UAGJPAUIStream@@@Z 1001a560 f i MSR.obj
 0001:000195f0       ?LoadCursorW@AtlModuleRegisterWndClassInfoParamW@ATL@@SAPAUHICON__@@PAUHINSTANCE__@@PB_W@Z 1001a5f0 f i MSR.obj
 0001:00019620       ?LoadNameCache@CComTypeInfoHolder@ATL@@QAEJPAUITypeInfo@@@Z 1001a620 f i MSR.obj
 0001:000198b0       ?Lock@?$CComCritSecLock@VCComCriticalSection@ATL@@@ATL@@QAEJXZ 1001a8b0 f i MSR.obj
 0001:00019960       ?Lock@?$CComObjectRootEx@VCComSingleThreadModel@ATL@@@ATL@@QAEXXZ 1001a960 f i MSR.obj
 0001:00019980       ?Lock@CAtlModule@ATL@@UAEJXZ 1001a980 f i MSR.obj
 0001:000199b0       ?Lock@CComCriticalSection@ATL@@QAEJXZ 1001a9b0 f i MSR.obj
 0001:000199f0       ?Lock@CComFakeCriticalSection@ATL@@QAEJXZ 1001a9f0 f i MSR.obj
 0001:00019a10       ?LockServer@CComClassFactory@ATL@@UAGJH@Z 1001aa10 f i MSR.obj
 0001:00019a70       ?Lookup@?$CSimpleMap@PA_WPA_WVCExpansionVectorEqualHelper@ATL@@@ATL@@QBEPA_WABQA_W@Z 1001aa70 f i MSR.obj
 0001:00019ac0       ?Next@?$CComEnumImpl@UIEnumConnectionPoints@@$1?_GUID_b196b285_bab4_101a_b69c_00aa00341d07@@3U__s_GUID@@BPAUIConnectionPoint@@V?$_CopyInterface@UIConnectionPoint@@@ATL@@@ATL@@UAGJKPAPAUIConnectionPoint@@PAK@Z 1001aac0 f i MSR.obj
 0001:00019c30       ?Next@?$CComEnumImpl@UIEnumConnections@@$1?_GUID_b196b287_bab4_101a_b69c_00aa00341d07@@3U__s_GUID@@BUtagCONNECTDATA@@V?$_Copy@UtagCONNECTDATA@@@ATL@@@ATL@@UAGJKPAUtagCONNECTDATA@@PAK@Z 1001ac30 f i MSR.obj
 0001:00019da0       ?NextToken@CRegParser@ATL@@IAEJPA_W@Z 1001ada0 f i MSR.obj
 0001:0001a040       ?OLE2CT_EX@@YAPB_WPB_WI@Z  1001b040 f i MSR.obj
 0001:0001a050       ?OLE2CT_EX_DEF@@YAPB_WPB_W@Z 1001b050 f i MSR.obj
 0001:0001a060       ?OLE2T_EX@@YAPA_WPA_WI@Z   1001b060 f i MSR.obj
 0001:0001a070       ?OnAmbientPropertyChange@?$IOleControlImpl@VCOPOSMSR@@@ATL@@UAGJJ@Z 1001b070 f i MSR.obj
 0001:0001a100       ?OnDocWindowActivate@?$IOleInPlaceActiveObjectImpl@VCOPOSMSR@@@ATL@@UAGJH@Z 1001b100 f i MSR.obj
 0001:0001a190       ?OnDrawAdvanced@CComControlBase@ATL@@UAEJAAUATL_DRAWINFO@@@Z 1001b190 f i MSR.obj
 0001:0001a3b0       ?OnFinalMessage@?$CWindowImplBaseT@VCWindow@ATL@@V?$CWinTraits@$0FGAAAAAA@$0A@@2@@ATL@@UAEXPAUHWND__@@@Z 1001b3b0 f i MSR.obj
 0001:0001a3d0       ?OnFrameWindowActivate@?$IOleInPlaceActiveObjectImpl@VCOPOSMSR@@@ATL@@UAGJH@Z 1001b3d0 f i MSR.obj
 0001:0001a430       ?OnKillFocus@CComControlBase@ATL@@QAEJIIJAAH@Z 1001b430 f i MSR.obj
 0001:0001a530       ?OnMnemonic@?$IOleControlImpl@VCOPOSMSR@@@ATL@@UAGJPAUtagMSG@@@Z 1001b530 f i MSR.obj
 0001:0001a5a0       ?OnMouseActivate@CComControlBase@ATL@@QAEJIIJAAH@Z 1001b5a0 f i MSR.obj
 0001:0001a6f0       ?OnPaint@CComControlBase@ATL@@QAEJIIJAAH@Z 1001b6f0 f i MSR.obj
 0001:0001a870       ?OnPostVerbDiscardUndo@?$IOleObjectImpl@VCOPOSMSR@@@ATL@@QAEJXZ 1001b870 f i MSR.obj
 0001:0001a890       ?OnPostVerbHide@?$IOleObjectImpl@VCOPOSMSR@@@ATL@@QAEJXZ 1001b890 f i MSR.obj
 0001:0001a8b0       ?OnPostVerbInPlaceActivate@?$IOleObjectImpl@VCOPOSMSR@@@ATL@@QAEJXZ 1001b8b0 f i MSR.obj
 0001:0001a8d0       ?OnPostVerbOpen@?$IOleObjectImpl@VCOPOSMSR@@@ATL@@QAEJXZ 1001b8d0 f i MSR.obj
 0001:0001a8f0       ?OnPostVerbShow@?$IOleObjectImpl@VCOPOSMSR@@@ATL@@QAEJXZ 1001b8f0 f i MSR.obj
 0001:0001a910       ?OnPostVerbUIActivate@?$IOleObjectImpl@VCOPOSMSR@@@ATL@@QAEJXZ 1001b910 f i MSR.obj
 0001:0001a930       ?OnPreVerbDiscardUndo@?$IOleObjectImpl@VCOPOSMSR@@@ATL@@QAEJXZ 1001b930 f i MSR.obj
 0001:0001a950       ?OnPreVerbHide@?$IOleObjectImpl@VCOPOSMSR@@@ATL@@QAEJXZ 1001b950 f i MSR.obj
 0001:0001a970       ?OnPreVerbInPlaceActivate@?$IOleObjectImpl@VCOPOSMSR@@@ATL@@QAEJXZ 1001b970 f i MSR.obj
 0001:0001a990       ?OnPreVerbOpen@?$IOleObjectImpl@VCOPOSMSR@@@ATL@@QAEJXZ 1001b990 f i MSR.obj
 0001:0001a9b0       ?OnPreVerbShow@?$IOleObjectImpl@VCOPOSMSR@@@ATL@@QAEJXZ 1001b9b0 f i MSR.obj
 0001:0001a9d0       ?OnPreVerbUIActivate@?$IOleObjectImpl@VCOPOSMSR@@@ATL@@QAEJXZ 1001b9d0 f i MSR.obj
 0001:0001a9f0       ?OnSetFocus@CComControlBase@ATL@@QAEJIIJAAH@Z 1001b9f0 f i MSR.obj
 0001:0001ab80       ?OnWindowMessage@?$IOleInPlaceObjectWindowlessImpl@VCOPOSMSR@@@ATL@@UAGJIIJPAJ@Z 1001bb80 f i MSR.obj
 0001:0001ace0       ?Open@CRegKey@ATL@@QAEJPAUHKEY__@@PB_WK@Z 1001bce0 f i MSR.obj
 0001:0001ae30       ?OuterAddRef@CComObjectRootBase@ATL@@QAEKXZ 1001be30 f i MSR.obj
 0001:0001ae70       ?OuterQueryInterface@CComObjectRootBase@ATL@@QAEJABU_GUID@@PAPAX@Z 1001be70 f i MSR.obj
 0001:0001aec0       ?OuterRelease@CComObjectRootBase@ATL@@QAEKXZ 1001bec0 f i MSR.obj
 0001:0001af00       ?PreProcessBuffer@CRegParser@ATL@@QAEJPA_WPAPA_W@Z 1001bf00 f i MSR.obj
 0001:0001b440       ?PreTranslateAccelerator@CComControlBase@ATL@@QAEHPAUtagMSG@@AAJ@Z 1001c440 f i MSR.obj
 0001:0001b460       ?ProcessWindowMessage@?$CComControl@VCOPOSMSR@@V?$CWindowImpl@VCOPOSMSR@@VCWindow@ATL@@V?$CWinTraits@$0FGAAAAAA@$0A@@3@@ATL@@@ATL@@UAEHPAUHWND__@@IIJAAJK@Z 1001c460 f i MSR.obj
 0001:0001b630       ?ProcessWindowMessage@COPOSMSR@@UAEHPAUHWND__@@IIJAAJK@Z 1001c630 f i MSR.obj
 0001:0001b730       ?PutProperty@?$CComPtr@UIDispatch@@@ATL@@QAEJJPAUtagVARIANT@@@Z 1001c730 f i MSR.obj
 0001:0001b770       ?PutProperty@?$CComPtr@UIDispatch@@@ATL@@SAJPAUIDispatch@@JPAUtagVARIANT@@@Z 1001c770 f i MSR.obj
 0001:0001b960       ?QueryGetData@?$IDataObjectImpl@VCOPOSMSR@@@ATL@@UAGJPAUtagFORMATETC@@@Z 1001c960 f i MSR.obj
 0001:0001b9d0       ?QueryHitPoint@?$IViewObjectExImpl@VCOPOSMSR@@@ATL@@UAGJKPBUtagRECT@@UtagPOINT@@JPAK@Z 1001c9d0 f i MSR.obj
 0001:0001bae0       ?QueryHitRect@?$IViewObjectExImpl@VCOPOSMSR@@@ATL@@UAGJKPBUtagRECT@@0JPAK@Z 1001cae0 f i MSR.obj
 0001:0001bc30       ?QueryInterface@?$CComAggObject@VCOPOSMSR@@@ATL@@UAGJABU_GUID@@PAPAX@Z 1001cc30 f i MSR.obj
 0001:0001bce0       ?QueryInterface@?$CComContainedObject@VCOPOSMSR@@@ATL@@UAGJABU_GUID@@PAPAX@Z 1001cce0 f i MSR.obj
 0001:0001bd04       ?QueryInterface@?$CComContainedObject@VCOPOSMSR@@@ATL@@WHA@AGJABU_GUID@@PAPAX@Z 1001cd04 f i MSR.obj
 0001:0001bd0e       ?QueryInterface@?$CComContainedObject@VCOPOSMSR@@@ATL@@WHE@AGJABU_GUID@@PAPAX@Z 1001cd0e f i MSR.obj
 0001:0001bd18       ?QueryInterface@?$CComContainedObject@VCOPOSMSR@@@ATL@@WHI@AGJABU_GUID@@PAPAX@Z 1001cd18 f i MSR.obj
 0001:0001bd22       ?QueryInterface@?$CComContainedObject@VCOPOSMSR@@@ATL@@WHM@AGJABU_GUID@@PAPAX@Z 1001cd22 f i MSR.obj
 0001:0001bd2c       ?QueryInterface@?$CComContainedObject@VCOPOSMSR@@@ATL@@WIA@AGJABU_GUID@@PAPAX@Z 1001cd2c f i MSR.obj
 0001:0001bd39       ?QueryInterface@?$CComContainedObject@VCOPOSMSR@@@ATL@@WIE@AGJABU_GUID@@PAPAX@Z 1001cd39 f i MSR.obj
 0001:0001bd46       ?QueryInterface@?$CComContainedObject@VCOPOSMSR@@@ATL@@WII@AGJABU_GUID@@PAPAX@Z 1001cd46 f i MSR.obj
 0001:0001bd53       ?QueryInterface@?$CComContainedObject@VCOPOSMSR@@@ATL@@WIM@AGJABU_GUID@@PAPAX@Z 1001cd53 f i MSR.obj
 0001:0001bd60       ?QueryInterface@?$CComContainedObject@VCOPOSMSR@@@ATL@@WJA@AGJABU_GUID@@PAPAX@Z 1001cd60 f i MSR.obj
 0001:0001bd6d       ?QueryInterface@?$CComContainedObject@VCOPOSMSR@@@ATL@@WJE@AGJABU_GUID@@PAPAX@Z 1001cd6d f i MSR.obj
 0001:0001bd7a       ?QueryInterface@?$CComContainedObject@VCOPOSMSR@@@ATL@@WJI@AGJABU_GUID@@PAPAX@Z 1001cd7a f i MSR.obj
 0001:0001bd87       ?QueryInterface@?$CComContainedObject@VCOPOSMSR@@@ATL@@WJM@AGJABU_GUID@@PAPAX@Z 1001cd87 f i MSR.obj
 0001:0001bd94       ?QueryInterface@?$CComContainedObject@VCOPOSMSR@@@ATL@@WKA@AGJABU_GUID@@PAPAX@Z 1001cd94 f i MSR.obj
 0001:0001bdb0       ?QueryInterface@?$CComObject@V?$CComEnum@UIEnumConnectionPoints@@$1?_GUID_b196b285_bab4_101a_b69c_00aa00341d07@@3U__s_GUID@@BPAUIConnectionPoint@@V?$_CopyInterface@UIConnectionPoint@@@ATL@@VCComSingleThreadModel@6@@ATL@@@ATL@@UAGJABU_GUID@@PAPAX@Z 1001cdb0 f i MSR.obj
 0001:0001bdd0       ?QueryInterface@?$CComObject@V?$CComEnum@UIEnumConnections@@$1?_GUID_b196b287_bab4_101a_b69c_00aa00341d07@@3U__s_GUID@@BUtagCONNECTDATA@@V?$_Copy@UtagCONNECTDATA@@@ATL@@VCComSingleThreadModel@6@@ATL@@@ATL@@UAGJABU_GUID@@PAPAX@Z 1001cdd0 f i MSR.obj
 0001:0001bdf0       ?QueryInterface@?$CComObject@VCOPOSMSR@@@ATL@@UAGJABU_GUID@@PAPAX@Z 1001cdf0 f i MSR.obj
 0001:0001be0e       ?QueryInterface@?$CComObject@VCOPOSMSR@@@ATL@@WHA@AGJABU_GUID@@PAPAX@Z 1001ce0e f i MSR.obj
 0001:0001be18       ?QueryInterface@?$CComObject@VCOPOSMSR@@@ATL@@WHE@AGJABU_GUID@@PAPAX@Z 1001ce18 f i MSR.obj
 0001:0001be22       ?QueryInterface@?$CComObject@VCOPOSMSR@@@ATL@@WHI@AGJABU_GUID@@PAPAX@Z 1001ce22 f i MSR.obj
 0001:0001be2c       ?QueryInterface@?$CComObject@VCOPOSMSR@@@ATL@@WHM@AGJABU_GUID@@PAPAX@Z 1001ce2c f i MSR.obj
 0001:0001be36       ?QueryInterface@?$CComObject@VCOPOSMSR@@@ATL@@WIA@AGJABU_GUID@@PAPAX@Z 1001ce36 f i MSR.obj
 0001:0001be43       ?QueryInterface@?$CComObject@VCOPOSMSR@@@ATL@@WIE@AGJABU_GUID@@PAPAX@Z 1001ce43 f i MSR.obj
 0001:0001be50       ?QueryInterface@?$CComObject@VCOPOSMSR@@@ATL@@WII@AGJABU_GUID@@PAPAX@Z 1001ce50 f i MSR.obj
 0001:0001be5d       ?QueryInterface@?$CComObject@VCOPOSMSR@@@ATL@@WIM@AGJABU_GUID@@PAPAX@Z 1001ce5d f i MSR.obj
 0001:0001be6a       ?QueryInterface@?$CComObject@VCOPOSMSR@@@ATL@@WJA@AGJABU_GUID@@PAPAX@Z 1001ce6a f i MSR.obj
 0001:0001be77       ?QueryInterface@?$CComObject@VCOPOSMSR@@@ATL@@WJE@AGJABU_GUID@@PAPAX@Z 1001ce77 f i MSR.obj
 0001:0001be84       ?QueryInterface@?$CComObject@VCOPOSMSR@@@ATL@@WJI@AGJABU_GUID@@PAPAX@Z 1001ce84 f i MSR.obj
 0001:0001be91       ?QueryInterface@?$CComObject@VCOPOSMSR@@@ATL@@WJM@AGJABU_GUID@@PAPAX@Z 1001ce91 f i MSR.obj
 0001:0001be9e       ?QueryInterface@?$CComObject@VCOPOSMSR@@@ATL@@WKA@AGJABU_GUID@@PAPAX@Z 1001ce9e f i MSR.obj
 0001:0001beb0       ?QueryInterface@?$CComObjectCached@VCComClassFactory@ATL@@@ATL@@UAGJABU_GUID@@PAPAX@Z 1001ceb0 f i MSR.obj
 0001:0001bed0       ?QueryInterface@CRegObject@ATL@@UAGJABU_GUID@@PAPAX@Z 1001ced0 f i MSR.obj
 0001:0001bf20       ?QuickActivate@?$IQuickActivateImpl@VCOPOSMSR@@@ATL@@UAGJPAUtagQACONTAINER@@PAUtagQACONTROL@@@Z 1001cf20 f i MSR.obj
 0001:0001bfb0       ?ReactivateAndUndo@?$IOleInPlaceObjectWindowlessImpl@VCOPOSMSR@@@ATL@@UAGJXZ 1001cfb0 f i MSR.obj
 0001:0001c020       ?ReadFromStream@CComBSTR@ATL@@QAEJPAUIStream@@@Z 1001d020 f i MSR.obj
 0001:0001c420       ?ReadFromStream@CComVariant@ATL@@QAEJPAUIStream@@GTClassesAllowedInStream@2@K@Z 1001d420 f i MSR.obj
 0001:0001c780       ?RecurseDeleteKey@CRegKey@ATL@@QAEJPB_W@Z 1001d780 f i MSR.obj
 0001:0001c960       ?RegCreateKeyExW@CAtlTransactionManager@ATL@@QAEJPAUHKEY__@@PB_WKPA_WKKQAU_SECURITY_ATTRIBUTES@@PAPAU3@PAK@Z 1001d960 f i MSR.obj
 0001:0001ca90       ?RegDeleteKeyW@CAtlTransactionManager@ATL@@QAEJPAUHKEY__@@PB_W@Z 1001da90 f i MSR.obj
 0001:0001cb90       ?RegOpenKeyExW@CAtlTransactionManager@ATL@@QAEJPAUHKEY__@@PB_WKKPAPAU3@@Z 1001db90 f i MSR.obj
 0001:0001cca0       ?Register@_ATL_WNDCLASSINFOW@ATL@@QAEGPAP6GJPAUHWND__@@IIJ@Z@Z 1001dca0 f i MSR.obj
 0001:0001cce0       ?RegisterBuffer@CRegParser@ATL@@QAEJPA_WH@Z 1001dce0 f i MSR.obj
 0001:0001d010       ?RegisterClassExW@AtlModuleRegisterWndClassInfoParamW@ATL@@SAGPAU_ATL_WIN_MODULE70@2@PBUtagWNDCLASSEXW@@@Z 1001e010 f i MSR.obj
 0001:0001d030       ?RegisterFromResource@CRegObject@ATL@@IAEJPB_W00H@Z 1001e030 f i MSR.obj
 0001:0001d3c0       ?RegisterServer@?$CAtlModuleT@VCComModule@ATL@@@ATL@@QAEJHPBU_GUID@@@Z 1001e3c0 f i MSR.obj
 0001:0001d440       ?RegisterServer@CAtlComModule@ATL@@QAEJHPBU_GUID@@@Z 1001e440 f i MSR.obj
 0001:0001d470       ?RegisterServer@CComModule@ATL@@QAEJHPBU_GUID@@@Z 1001e470 f i MSR.obj
 0001:0001d550       ?RegisterSubkeys@CRegParser@ATL@@IAEJPA_WPAUHKEY__@@HH@Z 1001e550 f i MSR.obj
 0001:0001e070       ?Release@?$CComAggObject@VCOPOSMSR@@@ATL@@UAGKXZ 1001f070 f i MSR.obj
 0001:0001e130       ?Release@?$CComContainedObject@VCOPOSMSR@@@ATL@@UAGKXZ 1001f130 f i MSR.obj
 0001:0001e14c       ?Release@?$CComContainedObject@VCOPOSMSR@@@ATL@@WHA@AGKXZ 1001f14c f i MSR.obj
 0001:0001e156       ?Release@?$CComContainedObject@VCOPOSMSR@@@ATL@@WHE@AGKXZ 1001f156 f i MSR.obj
 0001:0001e160       ?Release@?$CComContainedObject@VCOPOSMSR@@@ATL@@WHI@AGKXZ 1001f160 f i MSR.obj
 0001:0001e16a       ?Release@?$CComContainedObject@VCOPOSMSR@@@ATL@@WHM@AGKXZ 1001f16a f i MSR.obj
 0001:0001e174       ?Release@?$CComContainedObject@VCOPOSMSR@@@ATL@@WIA@AGKXZ 1001f174 f i MSR.obj
 0001:0001e181       ?Release@?$CComContainedObject@VCOPOSMSR@@@ATL@@WIE@AGKXZ 1001f181 f i MSR.obj
 0001:0001e18e       ?Release@?$CComContainedObject@VCOPOSMSR@@@ATL@@WII@AGKXZ 1001f18e f i MSR.obj
 0001:0001e19b       ?Release@?$CComContainedObject@VCOPOSMSR@@@ATL@@WIM@AGKXZ 1001f19b f i MSR.obj
 0001:0001e1a8       ?Release@?$CComContainedObject@VCOPOSMSR@@@ATL@@WJA@AGKXZ 1001f1a8 f i MSR.obj
 0001:0001e1b5       ?Release@?$CComContainedObject@VCOPOSMSR@@@ATL@@WJE@AGKXZ 1001f1b5 f i MSR.obj
 0001:0001e1c2       ?Release@?$CComContainedObject@VCOPOSMSR@@@ATL@@WJI@AGKXZ 1001f1c2 f i MSR.obj
 0001:0001e1cf       ?Release@?$CComContainedObject@VCOPOSMSR@@@ATL@@WJM@AGKXZ 1001f1cf f i MSR.obj
 0001:0001e1dc       ?Release@?$CComContainedObject@VCOPOSMSR@@@ATL@@WKA@AGKXZ 1001f1dc f i MSR.obj
 0001:0001e1e9       ?Release@?$CComContainedObject@VCOPOSMSR@@@ATL@@WKI@AGKXZ 1001f1e9 f i MSR.obj
 0001:0001e1f6       ?Release@?$CComContainedObject@VCOPOSMSR@@@ATL@@WLE@AGKXZ 1001f1f6 f i MSR.obj
 0001:0001e210       ?Release@?$CComObject@V?$CComEnum@UIEnumConnectionPoints@@$1?_GUID_b196b285_bab4_101a_b69c_00aa00341d07@@3U__s_GUID@@BPAUIConnectionPoint@@V?$_CopyInterface@UIConnectionPoint@@@ATL@@VCComSingleThreadModel@6@@ATL@@@ATL@@UAGKXZ 1001f210 f i MSR.obj
 0001:0001e2d0       ?Release@?$CComObject@V?$CComEnum@UIEnumConnections@@$1?_GUID_b196b287_bab4_101a_b69c_00aa00341d07@@3U__s_GUID@@BUtagCONNECTDATA@@V?$_Copy@UtagCONNECTDATA@@@ATL@@VCComSingleThreadModel@6@@ATL@@@ATL@@UAGKXZ 1001f2d0 f i MSR.obj
 0001:0001e390       ?Release@?$CComObject@VCOPOSMSR@@@ATL@@UAGKXZ 1001f390 f i MSR.obj
 0001:0001e449       ?Release@?$CComObject@VCOPOSMSR@@@ATL@@WHA@AGKXZ 1001f449 f i MSR.obj
 0001:0001e453       ?Release@?$CComObject@VCOPOSMSR@@@ATL@@WHE@AGKXZ 1001f453 f i MSR.obj
 0001:0001e45d       ?Release@?$CComObject@VCOPOSMSR@@@ATL@@WHI@AGKXZ 1001f45d f i MSR.obj
 0001:0001e467       ?Release@?$CComObject@VCOPOSMSR@@@ATL@@WHM@AGKXZ 1001f467 f i MSR.obj
 0001:0001e471       ?Release@?$CComObject@VCOPOSMSR@@@ATL@@WIA@AGKXZ 1001f471 f i MSR.obj
 0001:0001e47e       ?Release@?$CComObject@VCOPOSMSR@@@ATL@@WIE@AGKXZ 1001f47e f i MSR.obj
 0001:0001e48b       ?Release@?$CComObject@VCOPOSMSR@@@ATL@@WII@AGKXZ 1001f48b f i MSR.obj
 0001:0001e498       ?Release@?$CComObject@VCOPOSMSR@@@ATL@@WIM@AGKXZ 1001f498 f i MSR.obj
 0001:0001e4a5       ?Release@?$CComObject@VCOPOSMSR@@@ATL@@WJA@AGKXZ 1001f4a5 f i MSR.obj
 0001:0001e4b2       ?Release@?$CComObject@VCOPOSMSR@@@ATL@@WJE@AGKXZ 1001f4b2 f i MSR.obj
 0001:0001e4bf       ?Release@?$CComObject@VCOPOSMSR@@@ATL@@WJI@AGKXZ 1001f4bf f i MSR.obj
 0001:0001e4cc       ?Release@?$CComObject@VCOPOSMSR@@@ATL@@WJM@AGKXZ 1001f4cc f i MSR.obj
 0001:0001e4d9       ?Release@?$CComObject@VCOPOSMSR@@@ATL@@WKA@AGKXZ 1001f4d9 f i MSR.obj
 0001:0001e4e6       ?Release@?$CComObject@VCOPOSMSR@@@ATL@@WKI@AGKXZ 1001f4e6 f i MSR.obj
 0001:0001e4f3       ?Release@?$CComObject@VCOPOSMSR@@@ATL@@WLE@AGKXZ 1001f4f3 f i MSR.obj
 0001:0001e500       ?Release@?$CComObjectCached@VCComClassFactory@ATL@@@ATL@@UAGKXZ 1001f500 f i MSR.obj
 0001:0001e5a0       ?Release@?$CComPtrBase@UIAdviseSink@@@ATL@@QAEXXZ 1001f5a0 f i MSR.obj
 0001:0001e600       ?Release@?$CComPtrBase@UIDispatch@@@ATL@@QAEXXZ 1001f600 f i MSR.obj
 0001:0001e660       ?Release@?$CComPtrBase@UIOleInPlaceSiteWindowless@@@ATL@@QAEXXZ 1001f660 f i MSR.obj
 0001:0001e6c0       ?Release@CRegObject@ATL@@UAGKXZ 1001f6c0 f i MSR.obj
 0001:0001e700       ?Remove@CComDynamicUnkArray@ATL@@QAEHK@Z 1001f700 f i MSR.obj
 0001:0001e7b0       ?RemoveAll@?$CSimpleMap@PA_WPA_WVCExpansionVectorEqualHelper@ATL@@@ATL@@QAEXXZ 1001f7b0 f i MSR.obj
 0001:0001e840       ?Reset@?$CComEnumImpl@UIEnumConnectionPoints@@$1?_GUID_b196b285_bab4_101a_b69c_00aa00341d07@@3U__s_GUID@@BPAUIConnectionPoint@@V?$_CopyInterface@UIConnectionPoint@@@ATL@@@ATL@@UAGJXZ 1001f840 f i MSR.obj
 0001:0001e860       ?Reset@?$CComEnumImpl@UIEnumConnections@@$1?_GUID_b196b287_bab4_101a_b69c_00aa00341d07@@3U__s_GUID@@BUtagCONNECTDATA@@V?$_Copy@UtagCONNECTDATA@@@ATL@@@ATL@@UAGJXZ 1001f860 f i MSR.obj
 0001:0001e880       ?ResizeBorder@?$IOleInPlaceActiveObjectImpl@VCOPOSMSR@@@ATL@@UAGJPBUtagRECT@@PAUIOleInPlaceUIWindow@@H@Z 1001f880 f i MSR.obj
 0001:0001e8e0       ?ResourceRegister@CRegObject@ATL@@QAGJPB_WI0@Z 1001f8e0 f i MSR.obj
 0001:0001e9c0       ?ResourceRegisterSz@CRegObject@ATL@@QAGJPB_W00@Z 1001f9c0 f i MSR.obj
 0001:0001eac0       ?ResourceUnregister@CRegObject@ATL@@QAGJPB_WI0@Z 1001fac0 f i MSR.obj
 0001:0001eba0       ?ResourceUnregisterSz@CRegObject@ATL@@QAGJPB_W00@Z 1001fba0 f i MSR.obj
 0001:0001eca0       ?SOData@COPOSMSR@@MAGJJ@Z  1001fca0 f i MSR.obj
 0001:0001ed20       ?SODirectIO@COPOSMSR@@MAGJJPAJPAPA_W@Z 1001fd20 f i MSR.obj
 0001:0001eee0       ?SOError@COPOSMSR@@MAGJJJJPAJ@Z 1001fee0 f i MSR.obj
 0001:0001efa0       ?SOOutputCompleteDummy@COPOSMSR@@MAGJJ@Z 1001ffa0 f i MSR.obj
 0001:0001efb0       ?SOStatusUpdate@COPOSMSR@@MAGJJ@Z 1001ffb0 f i MSR.obj
 0001:0001f030       ?Save@?$IPersistStorageImpl@VCOPOSMSR@@@ATL@@UAGJPAUIStorage@@H@Z 10020030 f i MSR.obj
 0001:0001f190       ?Save@?$IPersistStreamInitImpl@VCOPOSMSR@@@ATL@@UAGJPAUIStream@@H@Z 10020190 f i MSR.obj
 0001:0001f220       ?SaveCompleted@?$IPersistStorageImpl@VCOPOSMSR@@@ATL@@UAGJPAUIStorage@@@Z 10020220 f i MSR.obj
 0001:0001f280       ?SendOnDataChange@CComControlBase@ATL@@QAEJK@Z 10020280 f i MSR.obj
 0001:0001f370       ?SendOnSave@CComControlBase@ATL@@QAEJXZ 10020370 f i MSR.obj
 0001:0001f3e0       ?SendOnViewChange@CComControlBase@ATL@@QAEJKJ@Z 100203e0 f i MSR.obj
 0001:0001f450       ?SetAdvise@?$IViewObjectExImpl@VCOPOSMSR@@@ATL@@UAGJKKPAUIAdviseSink@@@Z 10020450 f i MSR.obj
 0001:0001f4e0       ?SetClientSite@?$IOleObjectImpl@VCOPOSMSR@@@ATL@@UAGJPAUIOleClientSite@@@Z 100204e0 f i MSR.obj
 0001:0001f570       ?SetColorScheme@?$IOleObjectImpl@VCOPOSMSR@@@ATL@@UAGJPAUtagLOGPALETTE@@@Z 10020570 f i MSR.obj
 0001:0001f5e0       ?SetContentExtent@?$IQuickActivateImpl@VCOPOSMSR@@@ATL@@UAGJPAUtagSIZE@@@Z 100205e0 f i MSR.obj
 0001:0001f670       ?SetControlFocus@CComControlBase@ATL@@QAEHH@Z 10020670 f i MSR.obj
 0001:0001f7f0       ?SetDWORDValue@CRegKey@ATL@@QAEJPB_WK@Z 100207f0 f i MSR.obj
 0001:0001f870       ?SetData@?$IDataObjectImpl@VCOPOSMSR@@@ATL@@UAGJPAUtagFORMATETC@@PAUtagSTGMEDIUM@@H@Z 10020870 f i MSR.obj
 0001:0001f8e0       ?SetExtent@?$IOleObjectImpl@VCOPOSMSR@@@ATL@@UAGJKPAUtagSIZE@@@Z 100208e0 f i MSR.obj
 0001:0001f970       ?SetHostNames@?$IOleObjectImpl@VCOPOSMSR@@@ATL@@UAGJPB_W0@Z 10020970 f i MSR.obj
 0001:0001f9d0       ?SetInterfaceSafetyOptions@?$IObjectSafetyImpl@VCOPOSMSR@@$02@ATL@@UAGJABU_GUID@@KK@Z 100209d0 f i MSR.obj
 0001:0001fb40       ?SetMoniker@?$IOleObjectImpl@VCOPOSMSR@@@ATL@@UAGJKPAUIMoniker@@@Z 10020b40 f i MSR.obj
 0001:0001fbb0       ?SetMultiStringValue@CRegKey@ATL@@QAEJPB_W0@Z 10020bb0 f i MSR.obj
 0001:0001fcd0       ?SetObjectRects@?$IOleInPlaceObjectWindowlessImpl@VCOPOSMSR@@@ATL@@UAGJPBUtagRECT@@0@Z 10020cd0 f i MSR.obj
 0001:0001fd60       ?SetStringValue@CRegKey@ATL@@QAEJPB_W0K@Z 10020d60 f i MSR.obj
 0001:0001fe90       ?SetVoid@CComClassFactory@ATL@@QAEXPAX@Z 10020e90 f i MSR.obj
 0001:0001feb0       ?SetVoid@CComObjectRootBase@ATL@@QAEXPAX@Z 10020eb0 f i MSR.obj
 0001:0001fed0       ?SetWindowLongPtrW@@YAJPAUHWND__@@HJ@Z 10020ed0 f i MSR.obj
 0001:0001ff00       ?ShowWindow@CWindow@ATL@@QAEHH@Z 10020f00 f i MSR.obj
 0001:0001ff80       ?Skip@?$CComEnumImpl@UIEnumConnectionPoints@@$1?_GUID_b196b285_bab4_101a_b69c_00aa00341d07@@3U__s_GUID@@BPAUIConnectionPoint@@V?$_CopyInterface@UIConnectionPoint@@@ATL@@@ATL@@UAGJK@Z 10020f80 f i MSR.obj
 0001:00020000       ?Skip@?$CComEnumImpl@UIEnumConnections@@$1?_GUID_b196b287_bab4_101a_b69c_00aa00341d07@@3U__s_GUID@@BUtagCONNECTDATA@@V?$_Copy@UtagCONNECTDATA@@@ATL@@@ATL@@UAGJK@Z 10021000 f i MSR.obj
 0001:00020080       ?SkipAssignment@CRegParser@ATL@@IAEJPA_W@Z 10021080 f i MSR.obj
 0001:00020160       ?SkipWhiteSpace@CRegParser@ATL@@IAEXXZ 10021160 f i MSR.obj
 0001:000201b0       ?StartWindowProc@?$CWindowImplBaseT@VCWindow@ATL@@V?$CWinTraits@$0FGAAAAAA@$0A@@2@@ATL@@SGJPAUHWND__@@IIJ@Z 100211b0 f i MSR.obj
 0001:000202d0       ?StrChrW@CRegParser@ATL@@KAPA_WPA_W_W@Z 100212d0 f i MSR.obj
 0001:00020340       ?StrFromMap@CRegObject@ATL@@QAEPB_WPA_W@Z 10021340 f i MSR.obj
 0001:000203d0       ?Swap@?$CComPtrBase@UIAdviseSink@@@ATL@@IAEXAAV12@@Z 100213d0 f i MSR.obj
 0001:00020410       ?Swap@?$CComPtrBase@UIOleClientSite@@@ATL@@IAEXAAV12@@Z 10021410 f i MSR.obj
 0001:00020450       ?Swap@?$CComPtrBase@UIUnknown@@@ATL@@IAEXAAV12@@Z 10021450 f i MSR.obj
 0001:00020490       ?T2COLE_EX@@YAPB_WPB_WI@Z  10021490 f i MSR.obj
 0001:000204a0       ?T2OLE_EX@@YAPA_WPA_WI@Z   100214a0 f i MSR.obj
 0001:000204b0       ?Term@CAtlModule@ATL@@QAEXXZ 100214b0 f i MSR.obj
 0001:00020560       ?Term@CComModule@ATL@@QAEXXZ 10021560 f i MSR.obj
 0001:00020650       ?TranslateAcceleratorW@?$IOleInPlaceActiveObjectImpl@VCOPOSMSR@@@ATL@@UAGJPAUtagMSG@@@Z 10021650 f i MSR.obj
 0001:00020850       ?UIDeactivate@?$IOleInPlaceObjectWindowlessImpl@VCOPOSMSR@@@ATL@@UAGJXZ 10021850 f i MSR.obj
 0001:000208d0       ?Unadvise@?$CProxy_IOPOSEvents@VCOPOSMSR@@@@UAGJK@Z 100218d0 f i MSR.obj
 0001:00020910       ?Unadvise@?$IConnectionPointImpl@VCOPOSMSR@@$1?DIID__IOPOSMSREvents@@3U_GUID@@BVCComDynamicUnkArray@ATL@@@ATL@@UAGJK@Z 10021910 f i MSR.obj
 0001:000209e0       ?Unadvise@?$IConnectionPointImpl@VCOPOSMSR@@$1?IID_IPropertyNotifySink@@3U_GUID@@BVCComDynamicUnkArray@ATL@@@ATL@@UAGJK@Z 100219e0 f i MSR.obj
 0001:00020ab0       ?Unadvise@?$IOleObjectImpl@VCOPOSMSR@@@ATL@@UAGJK@Z 10021ab0 f i MSR.obj
 0001:00020b80       ?Unfreeze@?$IViewObjectExImpl@VCOPOSMSR@@@ATL@@UAGJK@Z 10021b80 f i MSR.obj
 0001:00020bf0       ?Unlock@?$CComCritSecLock@VCComCriticalSection@ATL@@@ATL@@QAEXXZ 10021bf0 f i MSR.obj
 0001:00020c60       ?Unlock@?$CComObjectRootEx@VCComSingleThreadModel@ATL@@@ATL@@QAEXXZ 10021c60 f i MSR.obj
 0001:00020c80       ?Unlock@CAtlModule@ATL@@UAEJXZ 10021c80 f i MSR.obj
 0001:00020cb0       ?Unlock@CComCriticalSection@ATL@@QAEJXZ 10021cb0 f i MSR.obj
 0001:00020cf0       ?Unlock@CComFakeCriticalSection@ATL@@QAEJXZ 10021cf0 f i MSR.obj
 0001:00020d10       ?UnregisterServer@?$CAtlModuleT@VCComModule@ATL@@@ATL@@QAEJHPBU_GUID@@@Z 10021d10 f i MSR.obj
 0001:00020d80       ?UnregisterServer@CAtlComModule@ATL@@QAEJHPBU_GUID@@@Z 10021d80 f i MSR.obj
 0001:00020db0       ?UnregisterServer@CComModule@ATL@@QAEJHPBU_GUID@@@Z 10021db0 f i MSR.obj
 0001:00020e90       ?Update@?$IOleObjectImpl@VCOPOSMSR@@@ATL@@UAGJXZ 10021e90 f i MSR.obj
 0001:00020ef0       ?UpdateRegistryFromResource@CAtlModule@ATL@@QAGJIHPAU_ATL_REGMAP_ENTRY@2@@Z 10021ef0 f i MSR.obj
 0001:000213c0       ?UpdateRegistryFromResource@CAtlModule@ATL@@QAGJPB_WHPAU_ATL_REGMAP_ENTRY@2@@Z 100223c0 f i MSR.obj
 0001:000218b0       ?UpdateRegistryFromResource@CComModule@ATL@@UAGJIHPAU_ATL_REGMAP_ENTRY@2@@Z 100228b0 f i MSR.obj
 0001:000218e0       ?UpdateRegistryFromResource@CComModule@ATL@@UAGJPB_WHPAU_ATL_REGMAP_ENTRY@2@@Z 100228e0 f i MSR.obj
 0001:00021910       ?UpdateRegistryFromResourceD@CComModule@ATL@@UAGJIHPAU_ATL_REGMAP_ENTRY@2@@Z 10022910 f i MSR.obj
 0001:00021920       ?UpdateRegistryFromResourceD@CComModule@ATL@@UAGJPB_WHPAU_ATL_REGMAP_ENTRY@2@@Z 10022920 f i MSR.obj
 0001:00021930       ?VTFromRegType@CRegParser@ATL@@KAHPB_WAAG@Z 10022930 f i MSR.obj
 0001:00021a10       ?WindowProc@?$CWindowImplBaseT@VCWindow@ATL@@V?$CWinTraits@$0FGAAAAAA@$0A@@2@@ATL@@SGJPAUHWND__@@IIJ@Z 10022a10 f i MSR.obj
 0001:00021c20       ?WriteToStream@CComBSTR@ATL@@QAEJPAUIStream@@@Z 10022c20 f i MSR.obj
 0001:00021d80       ?WriteToStream@CComVariant@ATL@@QAEJPAUIStream@@@Z 10022d80 f i MSR.obj
 0001:000220c0       ?WriteToStream@CComVariant@ATL@@QAEJPAUIStream@@G@Z 100230c0 f i MSR.obj
 0001:00022190       ?_AtlFinalConstruct@CComObjectRootBase@ATL@@QAEJXZ 10023190 f i MSR.obj
 0001:000221b0       ?_AtlGetConversionACP@ATL@@YGIXZ 100231b0 f i MSR.obj
 0001:000221c0       ?_AtlInitialConstruct@?$CComAggObject@VCOPOSMSR@@@ATL@@QAEJXZ 100231c0 f i MSR.obj
 0001:00022210       ?_AtlInitialConstruct@?$CComObjectRootEx@VCComMultiThreadModel@ATL@@@ATL@@QAEJXZ 10023210 f i MSR.obj
 0001:00022240       ?_AtlInitialConstruct@?$CComObjectRootEx@VCComSingleThreadModel@ATL@@@ATL@@QAEJXZ 10023240 f i MSR.obj
 0001:00022260       ?_AtlVerifyStackAvailable@_ATL_SAFE_ALLOCA_IMPL@ATL@@YA_NK@Z 10023260 f i MSR.obj
 0001:00022410       ?_GetEntries@?$CComEnum@UIEnumConnectionPoints@@$1?_GUID_b196b285_bab4_101a_b69c_00aa00341d07@@3U__s_GUID@@BPAUIConnectionPoint@@V?$_CopyInterface@UIConnectionPoint@@@ATL@@VCComSingleThreadModel@6@@ATL@@SGPBU_ATL_INTMAP_ENTRY@2@XZ 10023410 f i MSR.obj
 0001:00022430       ?_GetEntries@?$CComEnum@UIEnumConnections@@$1?_GUID_b196b287_bab4_101a_b69c_00aa00341d07@@3U__s_GUID@@BUtagCONNECTDATA@@V?$_Copy@UtagCONNECTDATA@@@ATL@@VCComSingleThreadModel@6@@ATL@@SGPBU_ATL_INTMAP_ENTRY@2@XZ 10023430 f i MSR.obj
 0001:00022450       ?_GetEntries@CComClassFactory@ATL@@SGPBU_ATL_INTMAP_ENTRY@2@XZ 10023450 f i MSR.obj
 0001:00022470       ?_GetEntries@COPOSMSR@@SGPBU_ATL_INTMAP_ENTRY@ATL@@XZ 10023470 f i MSR.obj
 0001:00022490       ?_GetRawUnknown@COPOSMSR@@QAEPAUIUnknown@@XZ 10023490 f i MSR.obj
 0001:00022500       ?_GetViewStatus@COPOSMSR@@QAEKXZ 10023500 f i MSR.obj
 0001:00022520       ?_InternalQueryInterface@?$CComEnum@UIEnumConnectionPoints@@$1?_GUID_b196b285_bab4_101a_b69c_00aa00341d07@@3U__s_GUID@@BPAUIConnectionPoint@@V?$_CopyInterface@UIConnectionPoint@@@ATL@@VCComSingleThreadModel@6@@ATL@@QAEJABU_GUID@@PAPAX@Z 10023520 f i MSR.obj
 0001:00022560       ?_InternalQueryInterface@?$CComEnum@UIEnumConnections@@$1?_GUID_b196b287_bab4_101a_b69c_00aa00341d07@@3U__s_GUID@@BUtagCONNECTDATA@@V?$_Copy@UtagCONNECTDATA@@@ATL@@VCComSingleThreadModel@6@@ATL@@QAEJABU_GUID@@PAPAX@Z 10023560 f i MSR.obj
 0001:000225a0       ?_InternalQueryInterface@CComClassFactory@ATL@@QAEJABU_GUID@@PAPAX@Z 100235a0 f i MSR.obj
 0001:000225e0       ?_InternalQueryInterface@COPOSMSR@@QAEJABU_GUID@@PAPAX@Z 100235e0 f i MSR.obj
 0001:00022620       ?_LocCPQueryInterface@?$IConnectionPointImpl@VCOPOSMSR@@$1?DIID__IOPOSMSREvents@@3U_GUID@@BVCComDynamicUnkArray@ATL@@@ATL@@UAGJABU_GUID@@PAPAX@Z 10023620 f i MSR.obj
 0001:000226c0       ?_LocCPQueryInterface@?$IConnectionPointImpl@VCOPOSMSR@@$1?IID_IPropertyNotifySink@@3U_GUID@@BVCComDynamicUnkArray@ATL@@@ATL@@UAGJABU_GUID@@PAPAX@Z 100236c0 f i MSR.obj
 0001:00022760       ?atlCreate@?$CWindowImpl@VCOPOSMSR@@VCWindow@ATL@@V?$CWinTraits@$0FGAAAAAA@$0A@@3@@ATL@@QAEPAUHWND__@@PAU3@V_U_RECT@2@PB_WKKV_U_MENUorID@2@PAX@Z 10023760 f i MSR.obj
 0001:00022810       ?atlCreate@?$CWindowImplBaseT@VCWindow@ATL@@V?$CWinTraits@$0FGAAAAAA@$0A@@2@@ATL@@QAEPAUHWND__@@PAU3@V_U_RECT@2@PB_WKKV_U_MENUorID@2@GPAX@Z 10023810 f i MSR.obj
 0001:00022990       ?atlCreate@CRegKey@ATL@@QAEJPAUHKEY__@@PB_WPA_WKKPAU_SECURITY_ATTRIBUTES@@PAK@Z 10023990 f i MSR.obj
 0001:00022af0       ?begin@CComDynamicUnkArray@ATL@@QAEPAPAUIUnknown@@XZ 10023af0 f i MSR.obj
 0001:00022b10       ?copy@?$_Copy@UtagCONNECTDATA@@@ATL@@SAJPAUtagCONNECTDATA@@PBU3@@Z 10023b10 f i MSR.obj
 0001:00022bd0       ?copy@?$_CopyInterface@UIConnectionPoint@@@ATL@@SAJPAPAUIConnectionPoint@@PBQAU3@@Z 10023bd0 f i MSR.obj
 0001:00022c90       ?destroy@?$_Copy@UtagCONNECTDATA@@@ATL@@SAXPAUtagCONNECTDATA@@@Z 10023c90 f i MSR.obj
 0001:00022cd0       ?destroy@?$_CopyInterface@UIConnectionPoint@@@ATL@@SAXPAPAUIConnectionPoint@@@Z 10023cd0 f i MSR.obj
 0001:00022d10       ?end@CComDynamicUnkArray@ATL@@QAEPAPAUIUnknown@@XZ 10023d10 f i MSR.obj
 0001:00022d30       ?init@?$_Copy@UtagCONNECTDATA@@@ATL@@SAXPAUtagCONNECTDATA@@@Z 10023d30 f i MSR.obj
 0001:00022d40       ?init@?$_CopyInterface@UIConnectionPoint@@@ATL@@SAXPAPAUIConnectionPoint@@@Z 10023d40 f i MSR.obj
 0001:00022d50       ?memcpy_s@Checked@ATL@@YAXPAXIPBXI@Z 10023d50 f i MSR.obj
 0001:00022d80       ?ocscpy_s@@YA_NPA_WIPB_W@Z 10023d80 f i MSR.obj
 0001:00022de0       ?ocslen@@YAHPB_W@Z         10023de0 f i MSR.obj
 0001:00022e10       ?tcsncpy_s@Checked@ATL@@YAHPA_WIPB_WI@Z 10023e10 f i MSR.obj
 0001:00022e40       ?wcscat_s@Checked@ATL@@YAXPA_WIPB_W@Z 10023e40 f i MSR.obj
 0001:00022e70       ?wcscpy_s@Checked@ATL@@YAXPA_WIPB_W@Z 10023e70 f i MSR.obj
 0001:00022ea0       ?wcsncpy_s@Checked@ATL@@YAHPA_WIPB_WI@Z 10023ea0 f i MSR.obj
 0001:00022ed0       ?wcsstr@@YAPA_WPA_WPB_W@Z  10023ed0 f i MSR.obj
 0001:00022ef0       _InlineIsEqualGUID         10023ef0 f i MSR.obj
 0001:00022f90       _IsEqualGUID               10023f90 f i MSR.obj
 0001:00022fe0       ??0COPOSMSR@@QAE@XZ        10023fe0 f   MSRImpl.obj
 0001:000230f0       ?FinalConstruct@COPOSMSR@@QAEJXZ 100240f0 f   MSRImpl.obj
 0001:000231c0       ??1COPOSMSR@@UAE@XZ        100241c0 f   MSRImpl.obj
 0001:000232a0       ?WriteTrace@COPOSMSR@@QAAXPB_WZZ 100242a0 f   MSRImpl.obj
 0001:00023350       ?WriteTraceString@COPOSMSR@@QAEXPB_WPA_W@Z 10024350 f   MSRImpl.obj
 0001:000236c0       ?WriteTraceString@COPOSMSR@@QAAXPAXHHHPB_WZZ 100246c0 f   MSRImpl.obj
 0001:000238f0       ?WriteTraceError@COPOSMSR@@QAEXPB_WK@Z 100248f0 f   MSRImpl.obj
 0001:000239e0       ?WriteTraceMethods@COPOSMSR@@QAEXPAJH@Z 100249e0 f   MSRImpl.obj
 0001:00023a50       ?GetOposProp@COPOSMSR@@IAEJPBDJPAJJ@Z 10024a50 f   MSRImpl.obj
 0001:00023cc0       ?SetOposProp@COPOSMSR@@IAEJPBDJJJ@Z 10024cc0 f   MSRImpl.obj
 0001:00023f50       ?GetOposProp@COPOSMSR@@IAEJPBDJPAFJ@Z 10024f50 f   MSRImpl.obj
 0001:00023ff0       ?SetOposProp@COPOSMSR@@IAEJPBDJFJ@Z 10024ff0 f   MSRImpl.obj
 0001:00024050       ?GetOposProp@COPOSMSR@@IAEJPBDJPAPA_WJ@Z 10025050 f   MSRImpl.obj
 0001:000242d0       ?SetOposProp@COPOSMSR@@IAEJPBDJPA_WJ@Z 100252d0 f   MSRImpl.obj
 0001:00024610       ?DoInvoke@COPOSMSR@@IAEJPBDJPAVOposVariant@@IHPAJ_N@Z 10025610 f   MSRImpl.obj
 0001:000252a0       ?SetCOFreezeEvents@COPOSMSR@@IAEXF@Z 100262a0 f   MSRImpl.obj
 0001:000253e0       ?FreezeEvents@COPOSMSR@@MAGJH@Z 100263e0 f   MSRImpl.obj
 0001:000254c0       ?OnDraw@COPOSMSR@@MAEJAAUATL_DRAWINFO@@@Z 100264c0 f   MSRImpl.obj
 0001:00025660       ?SOProcessID@COPOSMSR@@UAGJPAJ@Z 10026660 f   MSRImpl.obj
 0001:000256a0       ?get_OpenResult@COPOSMSR@@UAGJPAJ@Z 100266a0 f   MSRImpl.obj
 0001:000256e0       ?get_CheckHealthText@COPOSMSR@@UAGJPAPA_W@Z 100266e0 f   MSRImpl.obj
 0001:00025710       ?get_Claimed@COPOSMSR@@UAGJPAF@Z 10026710 f   MSRImpl.obj
 0001:00025740       ?get_DataEventEnabled@COPOSMSR@@UAGJPAF@Z 10026740 f   MSRImpl.obj
 0001:00025770       ?put_DataEventEnabled@COPOSMSR@@UAGJF@Z 10026770 f   MSRImpl.obj
 0001:000257a0       ?get_DeviceEnabled@COPOSMSR@@UAGJPAF@Z 100267a0 f   MSRImpl.obj
 0001:000257d0       ?put_DeviceEnabled@COPOSMSR@@UAGJF@Z 100267d0 f   MSRImpl.obj
 0001:00025800       ?get_FreezeEvents@COPOSMSR@@UAGJPAF@Z 10026800 f   MSRImpl.obj
 0001:00025830       ?put_FreezeEvents@COPOSMSR@@UAGJF@Z 10026830 f   MSRImpl.obj
 0001:000258c0       ?get_ResultCode@COPOSMSR@@UAGJPAJ@Z 100268c0 f   MSRImpl.obj
 0001:00025950       ?get_ResultCodeExtended@COPOSMSR@@UAGJPAJ@Z 10026950 f   MSRImpl.obj
 0001:00025980       ?get_State@COPOSMSR@@UAGJPAJ@Z 10026980 f   MSRImpl.obj
 0001:000259d0       ?get_ControlObjectDescription@COPOSMSR@@UAGJPAPA_W@Z 100269d0 f   MSRImpl.obj
 0001:00025a50       ?get_ControlObjectVersion@COPOSMSR@@UAGJPAJ@Z 10026a50 f   MSRImpl.obj
 0001:00025a90       ?get_ServiceObjectDescription@COPOSMSR@@UAGJPAPA_W@Z 10026a90 f   MSRImpl.obj
 0001:00025ac0       ?get_ServiceObjectVersion@COPOSMSR@@UAGJPAJ@Z 10026ac0 f   MSRImpl.obj
 0001:00025af0       ?get_DeviceDescription@COPOSMSR@@UAGJPAPA_W@Z 10026af0 f   MSRImpl.obj
 0001:00025b20       ?get_DeviceName@COPOSMSR@@UAGJPAPA_W@Z 10026b20 f   MSRImpl.obj
 0001:00025b50       ?CheckHealth@COPOSMSR@@UAGJJPAJ@Z 10026b50 f   MSRImpl.obj
 0001:00025bf0       ?ClaimDevice@COPOSMSR@@UAGJJPAJ@Z 10026bf0 f   MSRImpl.obj
 0001:00025cd0       ?ClearInput@COPOSMSR@@UAGJPAJ@Z 10026cd0 f   MSRImpl.obj
 0001:00025d00       ?Close@COPOSMSR@@UAGJPAJ@Z 10026d00 f   MSRImpl.obj
 0001:00025dd0       ?DirectIO@COPOSMSR@@UAGJJPAJPAPA_W0@Z 10026dd0 f   MSRImpl.obj
 0001:00025ee0       ?Open@COPOSMSR@@UAGJPA_WPAJ@Z 10026ee0 f   MSRImpl.obj
 0001:000270c0       ?ReleaseDevice@COPOSMSR@@UAGJPAJ@Z 100280c0 f   MSRImpl.obj
 0001:00027130       ?get_AccountNumber@COPOSMSR@@UAGJPAPA_W@Z 10028130 f   MSRImpl.obj
 0001:00027160       ?get_CapISO@COPOSMSR@@UAGJPAF@Z 10028160 f   MSRImpl.obj
 0001:00027190       ?get_CapJISOne@COPOSMSR@@UAGJPAF@Z 10028190 f   MSRImpl.obj
 0001:000271c0       ?get_CapJISTwo@COPOSMSR@@UAGJPAF@Z 100281c0 f   MSRImpl.obj
 0001:000271f0       ?get_DecodeData@COPOSMSR@@UAGJPAF@Z 100281f0 f   MSRImpl.obj
 0001:00027220       ?put_DecodeData@COPOSMSR@@UAGJF@Z 10028220 f   MSRImpl.obj
 0001:00027250       ?get_ExpirationDate@COPOSMSR@@UAGJPAPA_W@Z 10028250 f   MSRImpl.obj
 0001:00027280       ?get_FirstName@COPOSMSR@@UAGJPAPA_W@Z 10028280 f   MSRImpl.obj
 0001:000272b0       ?get_MiddleInitial@COPOSMSR@@UAGJPAPA_W@Z 100282b0 f   MSRImpl.obj
 0001:000272e0       ?get_ParseDecodeData@COPOSMSR@@UAGJPAF@Z 100282e0 f   MSRImpl.obj
 0001:00027310       ?put_ParseDecodeData@COPOSMSR@@UAGJF@Z 10028310 f   MSRImpl.obj
 0001:00027340       ?get_ParseDecodedData@COPOSMSR@@UAGJPAF@Z 10028340 f   MSRImpl.obj
 0001:00027370       ?put_ParseDecodedData@COPOSMSR@@UAGJF@Z 10028370 f   MSRImpl.obj
 0001:000273a0       ?get_ServiceCode@COPOSMSR@@UAGJPAPA_W@Z 100283a0 f   MSRImpl.obj
 0001:000273d0       ?get_Suffix@COPOSMSR@@UAGJPAPA_W@Z 100283d0 f   MSRImpl.obj
 0001:00027400       ?get_Surname@COPOSMSR@@UAGJPAPA_W@Z 10028400 f   MSRImpl.obj
 0001:00027430       ?get_Title@COPOSMSR@@UAGJPAPA_W@Z 10028430 f   MSRImpl.obj
 0001:00027460       ?get_Track1Data@COPOSMSR@@UAGJPAPA_W@Z 10028460 f   MSRImpl.obj
 0001:00027490       ?get_Track1DiscretionaryData@COPOSMSR@@UAGJPAPA_W@Z 10028490 f   MSRImpl.obj
 0001:000274c0       ?get_Track2Data@COPOSMSR@@UAGJPAPA_W@Z 100284c0 f   MSRImpl.obj
 0001:000274f0       ?get_Track2DiscretionaryData@COPOSMSR@@UAGJPAPA_W@Z 100284f0 f   MSRImpl.obj
 0001:00027520       ?get_Track3Data@COPOSMSR@@UAGJPAPA_W@Z 10028520 f   MSRImpl.obj
 0001:00027550       ?get_TracksToRead@COPOSMSR@@UAGJPAJ@Z 10028550 f   MSRImpl.obj
 0001:00027580       ?put_TracksToRead@COPOSMSR@@UAGJJ@Z 10028580 f   MSRImpl.obj
 0001:000275b0       ?get_AutoDisable@COPOSMSR@@UAGJPAF@Z 100285b0 f   MSRImpl.obj
 0001:000275e0       ?put_AutoDisable@COPOSMSR@@UAGJF@Z 100285e0 f   MSRImpl.obj
 0001:00027610       ?get_BinaryConversion@COPOSMSR@@UAGJPAJ@Z 10028610 f   MSRImpl.obj
 0001:00027640       ?put_BinaryConversion@COPOSMSR@@UAGJJ@Z 10028640 f   MSRImpl.obj
 0001:00027670       ?get_DataCount@COPOSMSR@@UAGJPAJ@Z 10028670 f   MSRImpl.obj
 0001:000276a0       ?get_ErrorReportingType@COPOSMSR@@UAGJPAJ@Z 100286a0 f   MSRImpl.obj
 0001:000276d0       ?put_ErrorReportingType@COPOSMSR@@UAGJJ@Z 100286d0 f   MSRImpl.obj
 0001:00027700       ?get_CapPowerReporting@COPOSMSR@@UAGJPAJ@Z 10028700 f   MSRImpl.obj
 0001:00027730       ?get_PowerNotify@COPOSMSR@@UAGJPAJ@Z 10028730 f   MSRImpl.obj
 0001:00027760       ?put_PowerNotify@COPOSMSR@@UAGJJ@Z 10028760 f   MSRImpl.obj
 0001:00027790       ?get_PowerState@COPOSMSR@@UAGJPAJ@Z 10028790 f   MSRImpl.obj
 0001:000277c0       ?get_CapTransmitSentinels@COPOSMSR@@UAGJPAF@Z 100287c0 f   MSRImpl.obj
 0001:000277f0       ?get_Track4Data@COPOSMSR@@UAGJPAPA_W@Z 100287f0 f   MSRImpl.obj
 0001:00027820       ?get_TransmitSentinels@COPOSMSR@@UAGJPAF@Z 10028820 f   MSRImpl.obj
 0001:00027850       ?put_TransmitSentinels@COPOSMSR@@UAGJF@Z 10028850 f   MSRImpl.obj
 0001:00027880       ?get_CapStatisticsReporting@COPOSMSR@@UAGJPAF@Z 10028880 f   MSRImpl.obj
 0001:000278b0       ?get_CapUpdateStatistics@COPOSMSR@@UAGJPAF@Z 100288b0 f   MSRImpl.obj
 0001:000278e0       ?ResetStatistics@COPOSMSR@@UAGJPA_WPAJ@Z 100288e0 f   MSRImpl.obj
 0001:00027990       ?RetrieveStatistics@COPOSMSR@@UAGJPAPA_WPAJ@Z 10028990 f   MSRImpl.obj
 0001:00027a40       ?UpdateStatistics@COPOSMSR@@UAGJPA_WPAJ@Z 10028a40 f   MSRImpl.obj
 0001:00027af0       ?get_CapCompareFirmwareVersion@COPOSMSR@@UAGJPAF@Z 10028af0 f   MSRImpl.obj
 0001:00027b20       ?get_CapUpdateFirmware@COPOSMSR@@UAGJPAF@Z 10028b20 f   MSRImpl.obj
 0001:00027b50       ?CompareFirmwareVersion@COPOSMSR@@UAGJPA_WPAJ1@Z 10028b50 f   MSRImpl.obj
 0001:00027c40       ?UpdateFirmware@COPOSMSR@@UAGJPA_WPAJ@Z 10028c40 f   MSRImpl.obj
 0001:00027cf0       ?ClearInputProperties@COPOSMSR@@UAGJPAJ@Z 10028cf0 f   MSRImpl.obj
 0001:00027d20       ?get_CapWritableTracks@COPOSMSR@@UAGJPAJ@Z 10028d20 f   MSRImpl.obj
 0001:00027d50       ?get_EncodingMaxLength@COPOSMSR@@UAGJPAJ@Z 10028d50 f   MSRImpl.obj
 0001:00027d80       ?get_TracksToWrite@COPOSMSR@@UAGJPAJ@Z 10028d80 f   MSRImpl.obj
 0001:00027db0       ?put_TracksToWrite@COPOSMSR@@UAGJJ@Z 10028db0 f   MSRImpl.obj
 0001:00027de0       ?WriteTracks@COPOSMSR@@UAGJUtagVARIANT@@JPAJ@Z 10028de0 f   MSRImpl.obj
 0001:00027ed0       ?get_AdditionalSecurityInformation@COPOSMSR@@UAGJPAPA_W@Z 10028ed0 f   MSRImpl.obj
 0001:00027f00       ?get_CapCardAuthentication@COPOSMSR@@UAGJPAPA_W@Z 10028f00 f   MSRImpl.obj
 0001:00027f30       ?get_CapDataEncryption@COPOSMSR@@UAGJPAJ@Z 10028f30 f   MSRImpl.obj
 0001:00027f60       ?get_CapDeviceAuthentication@COPOSMSR@@UAGJPAJ@Z 10028f60 f   MSRImpl.obj
 0001:00027f90       ?get_CapTrackDataMasking@COPOSMSR@@UAGJPAF@Z 10028f90 f   MSRImpl.obj
 0001:00027fc0       ?get_CardAuthenticationData@COPOSMSR@@UAGJPAPA_W@Z 10028fc0 f   MSRImpl.obj
 0001:00027ff0       ?get_CardAuthenticationDataLength@COPOSMSR@@UAGJPAJ@Z 10028ff0 f   MSRImpl.obj
 0001:00028020       ?get_CardPropertyList@COPOSMSR@@UAGJPAPA_W@Z 10029020 f   MSRImpl.obj
 0001:00028050       ?get_CardType@COPOSMSR@@UAGJPAPA_W@Z 10029050 f   MSRImpl.obj
 0001:00028080       ?get_CardTypeList@COPOSMSR@@UAGJPAPA_W@Z 10029080 f   MSRImpl.obj
 0001:000280b0       ?get_DataEncryptionAlgorithm@COPOSMSR@@UAGJPAJ@Z 100290b0 f   MSRImpl.obj
 0001:000280e0       ?put_DataEncryptionAlgorithm@COPOSMSR@@UAGJJ@Z 100290e0 f   MSRImpl.obj
 0001:00028110       ?get_DeviceAuthenticated@COPOSMSR@@UAGJPAF@Z 10029110 f   MSRImpl.obj
 0001:00028140       ?get_DeviceAuthenticationProtocol@COPOSMSR@@UAGJPAJ@Z 10029140 f   MSRImpl.obj
 0001:00028170       ?get_Track1EncryptedData@COPOSMSR@@UAGJPAPA_W@Z 10029170 f   MSRImpl.obj
 0001:000281a0       ?get_Track1EncryptedDataLength@COPOSMSR@@UAGJPAJ@Z 100291a0 f   MSRImpl.obj
 0001:000281d0       ?get_Track2EncryptedData@COPOSMSR@@UAGJPAPA_W@Z 100291d0 f   MSRImpl.obj
 0001:00028200       ?get_Track2EncryptedDataLength@COPOSMSR@@UAGJPAJ@Z 10029200 f   MSRImpl.obj
 0001:00028230       ?get_Track3EncryptedData@COPOSMSR@@UAGJPAPA_W@Z 10029230 f   MSRImpl.obj
 0001:00028260       ?get_Track3EncryptedDataLength@COPOSMSR@@UAGJPAJ@Z 10029260 f   MSRImpl.obj
 0001:00028290       ?get_Track4EncryptedData@COPOSMSR@@UAGJPAPA_W@Z 10029290 f   MSRImpl.obj
 0001:000282c0       ?get_Track4EncryptedDataLength@COPOSMSR@@UAGJPAJ@Z 100292c0 f   MSRImpl.obj
 0001:000282f0       ?get_WriteCardType@COPOSMSR@@UAGJPAPA_W@Z 100292f0 f   MSRImpl.obj
 0001:00028320       ?put_WriteCardType@COPOSMSR@@UAGJPA_W@Z 10029320 f   MSRImpl.obj
 0001:00028350       ?AuthenticateDevice@COPOSMSR@@UAGJPA_WPAJ@Z 10029350 f   MSRImpl.obj
 0001:00028400       ?DeauthenticateDevice@COPOSMSR@@UAGJPA_WPAJ@Z 10029400 f   MSRImpl.obj
 0001:000284b0       ?RetrieveCardProperty@COPOSMSR@@UAGJPA_WPAPA_WPAJ@Z 100294b0 f   MSRImpl.obj
 0001:000285a0       ?RetrieveDeviceAuthenticationData@COPOSMSR@@UAGJPAPA_WPAJ@Z 100295a0 f   MSRImpl.obj
 0001:00028650       ?UpdateKey@COPOSMSR@@UAGJPA_W0PAJ@Z 10029650 f   MSRImpl.obj
 0001:00028740       ??0?$CComControl@VCOPOSMSR@@V?$CWindowImpl@VCOPOSMSR@@VCWindow@ATL@@V?$CWinTraits@$0FGAAAAAA@$0A@@3@@ATL@@@ATL@@QAE@XZ 10029740 f i MSRImpl.obj
 0001:00028780       ??0?$CComPtr@UIAdviseSink@@@ATL@@QAE@XZ 10029780 f i MSRImpl.obj
 0001:000287b0       ??0?$CComPtr@UIDataAdviseHolder@@@ATL@@QAE@XZ 100297b0 f i MSRImpl.obj
 0001:000287e0       ??0?$CComPtr@UIOleAdviseHolder@@@ATL@@QAE@XZ 100297e0 f i MSRImpl.obj
 0001:00028810       ??0?$CComPtr@UIOleClientSite@@@ATL@@QAE@XZ 10029810 f i MSRImpl.obj
 0001:00028840       ??0?$CComPtr@UIOleInPlaceSiteWindowless@@@ATL@@QAE@XZ 10029840 f i MSRImpl.obj
 0001:00028870       ??0?$CComPtrBase@UIAdviseSink@@@ATL@@IAE@XZ 10029870 f i MSRImpl.obj
 0001:00028890       ??0?$CComPtrBase@UIDataAdviseHolder@@@ATL@@IAE@XZ 10029890 f i MSRImpl.obj
 0001:000288b0       ??0?$CComPtrBase@UIOleAdviseHolder@@@ATL@@IAE@XZ 100298b0 f i MSRImpl.obj
 0001:000288d0       ??0?$CComPtrBase@UIOleClientSite@@@ATL@@IAE@XZ 100298d0 f i MSRImpl.obj
 0001:000288f0       ??0?$CComPtrBase@UIOleInPlaceSiteWindowless@@@ATL@@IAE@XZ 100298f0 f i MSRImpl.obj
 0001:00028910       ??0?$CComQIPtr@UIDispatch@@$1?_GUID_00020400_0000_0000_c000_000000000046@@3U__s_GUID@@B@ATL@@QAE@XZ 10029910 f i MSRImpl.obj
 0001:00028940       ??0?$CProxy_IOPOSEvents@VCOPOSMSR@@@@QAE@PAVCOPOSMSR@@@Z 10029940 f i MSRImpl.obj
 0001:000289b0       ??0?$CWindowImpl@VCOPOSMSR@@VCWindow@ATL@@V?$CWinTraits@$0FGAAAAAA@$0A@@3@@ATL@@QAE@XZ 100299b0 f i MSRImpl.obj
 0001:000289e0       ??0?$CWindowImplBaseT@VCWindow@ATL@@V?$CWinTraits@$0FGAAAAAA@$0A@@2@@ATL@@QAE@XZ 100299e0 f i MSRImpl.obj
 0001:00028a20       ??0?$CWindowImplRoot@VCWindow@ATL@@@ATL@@QAE@XZ 10029a20 f i MSRImpl.obj
 0001:00028a80       ??0?$IConnectionPointContainerImpl@VCOPOSMSR@@@ATL@@QAE@XZ 10029a80 f i MSRImpl.obj
 0001:00028ab0       ??0?$IConnectionPointImpl@VCOPOSMSR@@$1?DIID__IOPOSMSREvents@@3U_GUID@@BVCComDynamicUnkArray@ATL@@@ATL@@QAE@XZ 10029ab0 f i MSRImpl.obj
 0001:00028af0       ??0?$IConnectionPointImpl@VCOPOSMSR@@$1?IID_IPropertyNotifySink@@3U_GUID@@BVCComDynamicUnkArray@ATL@@@ATL@@QAE@XZ 10029af0 f i MSRImpl.obj
 0001:00028b30       ??0?$IDataObjectImpl@VCOPOSMSR@@@ATL@@QAE@XZ 10029b30 f i MSRImpl.obj
 0001:00028b60       ??0?$IDispatchImpl@UIOPOSMSR@@$1?IID_IOPOSMSR@@3U_GUID@@B$1?LIBID_OposMSR_CCO@@3U3@B$00$0A@VCComTypeInfoHolder@ATL@@@ATL@@QAE@XZ 10029b60 f i MSRImpl.obj
 0001:00028b90       ??0?$IObjectSafetyImpl@VCOPOSMSR@@$02@ATL@@QAE@XZ 10029b90 f i MSRImpl.obj
 0001:00028bd0       ??0?$IOleControlImpl@VCOPOSMSR@@@ATL@@QAE@XZ 10029bd0 f i MSRImpl.obj
 0001:00028c00       ??0?$IOleInPlaceActiveObjectImpl@VCOPOSMSR@@@ATL@@QAE@XZ 10029c00 f i MSRImpl.obj
 0001:00028c30       ??0?$IOleInPlaceObjectWindowlessImpl@VCOPOSMSR@@@ATL@@QAE@XZ 10029c30 f i MSRImpl.obj
 0001:00028c60       ??0?$IOleObjectImpl@VCOPOSMSR@@@ATL@@QAE@XZ 10029c60 f i MSRImpl.obj
 0001:00028c90       ??0?$IPersistStorageImpl@VCOPOSMSR@@@ATL@@QAE@XZ 10029c90 f i MSRImpl.obj
 0001:00028cc0       ??0?$IPersistStreamInitImpl@VCOPOSMSR@@@ATL@@QAE@XZ 10029cc0 f i MSRImpl.obj
 0001:00028cf0       ??0?$IPropertyNotifySinkCP@VCOPOSMSR@@VCComDynamicUnkArray@ATL@@@ATL@@QAE@XZ 10029cf0 f i MSRImpl.obj
 0001:00028d20       ??0?$IProvideClassInfo2Impl@$1?CLSID_OPOSMSR@@3U_GUID@@B$1?DIID__IOPOSMSREvents@@3U2@B$1?LIBID_OposMSR_CCO@@3U2@B$00$0A@VCComTypeInfoHolder@ATL@@@ATL@@QAE@XZ 10029d20 f i MSRImpl.obj
 0001:00028d50       ??0?$IQuickActivateImpl@VCOPOSMSR@@@ATL@@QAE@XZ 10029d50 f i MSRImpl.obj
 0001:00028d80       ??0?$ISpecifyPropertyPagesImpl@VCOPOSMSR@@@ATL@@QAE@XZ 10029d80 f i MSRImpl.obj
 0001:00028db0       ??0?$IViewObjectExImpl@VCOPOSMSR@@@ATL@@QAE@XZ 10029db0 f i MSRImpl.obj
 0001:00028de0       ??0?$_ICPLocator@$1?DIID__IOPOSMSREvents@@3U_GUID@@B@ATL@@QAE@XZ 10029de0 f i MSRImpl.obj
 0001:00028e00       ??0?$_ICPLocator@$1?IID_IPropertyNotifySink@@3U_GUID@@B@ATL@@QAE@XZ 10029e00 f i MSRImpl.obj
 0001:00028e20       ??0CComControlBase@ATL@@QAE@AAPAUHWND__@@@Z 10029e20 f i MSRImpl.obj
 0001:00028fd0       ??0CComDynamicUnkArray@ATL@@QAE@XZ 10029fd0 f i MSRImpl.obj
 0001:00029000       ??0CDynamicStdCallThunk2@ATL@@QAE@XZ 1002a000 f i MSRImpl.obj
 0001:00029020       ??0CMessageMap@ATL@@QAE@XZ 1002a020 f i MSRImpl.obj
 0001:00029040       ??0CWindow@ATL@@QAE@PAUHWND__@@@Z 1002a040 f i MSRImpl.obj
 0001:00029060       ??0CWndProcThunk@ATL@@QAE@XZ 1002a060 f i MSRImpl.obj
 0001:00029090       ??0IConnectionPointContainer@@QAE@XZ 1002a090 f i MSRImpl.obj
 0001:000290c0       ??0IDataObject@@QAE@XZ     1002a0c0 f i MSRImpl.obj
 0001:000290f0       ??0IDispatch@@QAE@XZ       1002a0f0 f i MSRImpl.obj
 0001:00029120       ??0IOPOSMSR@@QAE@XZ        1002a120 f i MSRImpl.obj
 0001:00029150       ??0IOPOSMSR_1_10@@QAE@XZ   1002a150 f i MSRImpl.obj
 0001:00029180       ??0IOPOSMSR_1_12@@QAE@XZ   1002a180 f i MSRImpl.obj
 0001:000291b0       ??0IOPOSMSR_1_5@@QAE@XZ    1002a1b0 f i MSRImpl.obj
 0001:000291e0       ??0IOPOSMSR_1_8@@QAE@XZ    1002a1e0 f i MSRImpl.obj
 0001:00029210       ??0IOPOSMSR_1_9@@QAE@XZ    1002a210 f i MSRImpl.obj
 0001:00029240       ??0IObjectSafety@@QAE@XZ   1002a240 f i MSRImpl.obj
 0001:00029270       ??0IOleControl@@QAE@XZ     1002a270 f i MSRImpl.obj
 0001:000292a0       ??0IOleInPlaceActiveObject@@QAE@XZ 1002a2a0 f i MSRImpl.obj
 0001:000292d0       ??0IOleInPlaceObject@@QAE@XZ 1002a2d0 f i MSRImpl.obj
 0001:00029300       ??0IOleInPlaceObjectWindowless@@QAE@XZ 1002a300 f i MSRImpl.obj
 0001:00029330       ??0IOleObject@@QAE@XZ      1002a330 f i MSRImpl.obj
 0001:00029360       ??0IOleWindow@@QAE@XZ      1002a360 f i MSRImpl.obj
 0001:00029390       ??0IPersist@@QAE@XZ        1002a390 f i MSRImpl.obj
 0001:000293c0       ??0IPersistStorage@@QAE@XZ 1002a3c0 f i MSRImpl.obj
 0001:000293f0       ??0IPersistStreamInit@@QAE@XZ 1002a3f0 f i MSRImpl.obj
 0001:00029420       ??0IProvideClassInfo2@@QAE@XZ 1002a420 f i MSRImpl.obj
 0001:00029450       ??0IProvideClassInfo@@QAE@XZ 1002a450 f i MSRImpl.obj
 0001:00029480       ??0IQuickActivate@@QAE@XZ  1002a480 f i MSRImpl.obj
 0001:000294b0       ??0ISpecifyPropertyPages@@QAE@XZ 1002a4b0 f i MSRImpl.obj
 0001:000294e0       ??0IViewObject2@@QAE@XZ    1002a4e0 f i MSRImpl.obj
 0001:00029510       ??0IViewObject@@QAE@XZ     1002a510 f i MSRImpl.obj
 0001:00029540       ??0IViewObjectEx@@QAE@XZ   1002a540 f i MSRImpl.obj
 0001:00029570       ??0OposVariantResult@@QAE@XZ 1002a570 f i MSRImpl.obj
 0001:000295a0       ??0_CW@@QAE@PBD@Z          1002a5a0 f i MSRImpl.obj
 0001:000295e0       ??0_CW@@QAE@PB_W@Z         1002a5e0 f i MSRImpl.obj
 0001:00029620       ??0_CWNCC@@QAE@PBD@Z       1002a620 f i MSRImpl.obj
 0001:00029650       ??1?$CComControl@VCOPOSMSR@@V?$CWindowImpl@VCOPOSMSR@@VCWindow@ATL@@V?$CWinTraits@$0FGAAAAAA@$0A@@3@@ATL@@@ATL@@UAE@XZ 1002a650 f i MSRImpl.obj
 0001:00029680       ??1?$CComPtr@UIDataAdviseHolder@@@ATL@@QAE@XZ 1002a680 f i MSRImpl.obj
 0001:000296b0       ??1?$CComPtr@UIOleAdviseHolder@@@ATL@@QAE@XZ 1002a6b0 f i MSRImpl.obj
 0001:000296e0       ??1?$CComPtr@UIOleInPlaceSiteWindowless@@@ATL@@QAE@XZ 1002a6e0 f i MSRImpl.obj
 0001:00029710       ??1?$CComPtrBase@UIDataAdviseHolder@@@ATL@@QAE@XZ 1002a710 f i MSRImpl.obj
 0001:00029760       ??1?$CComPtrBase@UIOleAdviseHolder@@@ATL@@QAE@XZ 1002a760 f i MSRImpl.obj
 0001:000297b0       ??1?$CComPtrBase@UIOleInPlaceSiteWindowless@@@ATL@@QAE@XZ 1002a7b0 f i MSRImpl.obj
 0001:00029800       ??1?$CComQIPtr@UIDispatch@@$1?_GUID_00020400_0000_0000_c000_000000000046@@3U__s_GUID@@B@ATL@@QAE@XZ 1002a800 f i MSRImpl.obj
 0001:00029830       ??1?$CProxy_IOPOSEvents@VCOPOSMSR@@@@QAE@XZ 1002a830 f i MSRImpl.obj
 0001:00029860       ??1?$CWindowImpl@VCOPOSMSR@@VCWindow@ATL@@V?$CWinTraits@$0FGAAAAAA@$0A@@3@@ATL@@UAE@XZ 1002a860 f i MSRImpl.obj
 0001:00029890       ??1?$CWindowImplBaseT@VCWindow@ATL@@V?$CWinTraits@$0FGAAAAAA@$0A@@2@@ATL@@UAE@XZ 1002a890 f i MSRImpl.obj
 0001:000298c0       ??1?$CWindowImplRoot@VCWindow@ATL@@@ATL@@UAE@XZ 1002a8c0 f i MSRImpl.obj
 0001:00029960       ??1?$IConnectionPointImpl@VCOPOSMSR@@$1?DIID__IOPOSMSREvents@@3U_GUID@@BVCComDynamicUnkArray@ATL@@@ATL@@QAE@XZ 1002a960 f i MSRImpl.obj
 0001:000299e0       ??1?$IConnectionPointImpl@VCOPOSMSR@@$1?IID_IPropertyNotifySink@@3U_GUID@@BVCComDynamicUnkArray@ATL@@@ATL@@QAE@XZ 1002a9e0 f i MSRImpl.obj
 0001:00029a60       ??1?$IPropertyNotifySinkCP@VCOPOSMSR@@VCComDynamicUnkArray@ATL@@@ATL@@QAE@XZ 1002aa60 f i MSRImpl.obj
 0001:00029a90       ??1CComControlBase@ATL@@UAE@XZ 1002aa90 f i MSRImpl.obj
 0001:00029b50       ??1CComDynamicUnkArray@ATL@@QAE@XZ 1002ab50 f i MSRImpl.obj
 0001:00029b90       ??1CDynamicStdCallThunk2@ATL@@QAE@XZ 1002ab90 f i MSRImpl.obj
 0001:00029bc0       ??1CWndProcThunk@ATL@@QAE@XZ 1002abc0 f i MSRImpl.obj
 0001:00029bf0       ??1OposVariantResult@@QAE@XZ 1002abf0 f i MSRImpl.obj
 0001:00029c20       ??1_CW@@QAE@XZ             1002ac20 f i MSRImpl.obj
 0001:00029c90       ??1_CWNCC@@QAE@XZ          1002ac90 f i MSRImpl.obj
 0001:00029cc0       ??B_CW@@QAEPB_WXZ          1002acc0 f i MSRImpl.obj
 0001:00029d00       ??B_CWNCC@@QAEPA_WXZ       1002ad00 f i MSRImpl.obj
 0001:00029d30       ??_EOposVariant@@QAEPAXI@Z 1002ad30 f i MSRImpl.obj
 0001:00029dc0       ?EventClaim@COPOSMSR@@IAEXXZ 1002adc0 f i MSRImpl.obj
 0001:00029e00       ?EventClose@COPOSMSR@@IAEXXZ 1002ae00 f i MSRImpl.obj
 0001:00029ea0       ?EventInit@COPOSMSR@@IAEJXZ 1002aea0 f i MSRImpl.obj
 0001:0002a0d0       ?EventOpen@COPOSMSR@@IAEXXZ 1002b0d0 f i MSRImpl.obj
 0001:0002a110       ?EventPreCloseRelease@COPOSMSR@@IAEXXZ 1002b110 f i MSRImpl.obj
 0001:0002a190       ?EventUninit@COPOSMSR@@IAEXXZ 1002b190 f i MSRImpl.obj
 0001:0002a2c0       ?EventWindowProc@COPOSMSR@@IAGJIIJ@Z 1002b2c0 f i MSRImpl.obj
 0001:0002a450       ?FireEventCleanup@COPOSMSR@@IAEXXZ 1002b450 f i MSRImpl.obj
 0001:0002a4a0       ?FireEventSetup@COPOSMSR@@IAE_NXZ 1002b4a0 f i MSRImpl.obj
 0001:0002a510       ?GetModuleInstance@CComModule@ATL@@QAEPAUHINSTANCE__@@XZ 1002b510 f i MSRImpl.obj
 0001:0002a530       ?SetRC@COPOSMSR@@IAEJJ@Z   1002b530 f i MSRImpl.obj
 0001:0002a560       ?s_EventWindowProc@COPOSMSR@@KGJPAUHWND__@@IIJ@Z 1002b560 f i MSRImpl.obj
 0001:0002a600       __snwprintf                1002b600 f i MSRImpl.obj
 0001:0002a660       __vfwprintf_l              1002b660 f i MSRImpl.obj
 0001:0002a690       __vsnwprintf               1002b690 f i MSRImpl.obj
 0001:0002a6c0       __vsnwprintf_l             1002b6c0 f i MSRImpl.obj
 0001:0002a730       _vfwprintf                 1002b730 f i MSRImpl.obj
 0001:0002a752       _DebugBreak@0              1002b752 f   kernel32:KERNEL32.dll
 0001:0002a758       _Sleep@4                   1002b758 f   kernel32:KERNEL32.dll
 0001:0002a75e       _GetCurrentProcess@0       1002b75e f   kernel32:KERNEL32.dll
 0001:0002a764       _TerminateProcess@8        1002b764 f   kernel32:KERNEL32.dll
 0001:0002a76a       _MultiByteToWideChar@24    1002b76a f   kernel32:KERNEL32.dll
 0001:0002a770       _WideCharToMultiByte@32    1002b770 f   kernel32:KERNEL32.dll
 0001:0002a776       _DecodePointer@4           1002b776 f   kernel32:KERNEL32.dll
 0001:0002a77c       _RaiseException@16         1002b77c f   kernel32:KERNEL32.dll
 0001:0002a782       _GetLastError@0            1002b782 f   kernel32:KERNEL32.dll
 0001:0002a788       _SetLastError@4            1002b788 f   kernel32:KERNEL32.dll
 0001:0002a78e       _InitializeCriticalSectionEx@12 1002b78e f   kernel32:KERNEL32.dll
 0001:0002a794       _DeleteCriticalSection@4   1002b794 f   kernel32:KERNEL32.dll
 0001:0002a79a       _EncodePointer@4           1002b79a f   kernel32:KERNEL32.dll
 0001:0002a7a0       _EnterCriticalSection@4    1002b7a0 f   kernel32:KERNEL32.dll
 0001:0002a7a6       _LeaveCriticalSection@4    1002b7a6 f   kernel32:KERNEL32.dll
 0001:0002a7ac       _ResetEvent@4              1002b7ac f   kernel32:KERNEL32.dll
 0001:0002a7b2       _ReleaseMutex@4            1002b7b2 f   kernel32:KERNEL32.dll
 0001:0002a7b8       _WaitForSingleObject@8     1002b7b8 f   kernel32:KERNEL32.dll
 0001:0002a7be       _GetCurrentThreadId@0      1002b7be f   kernel32:KERNEL32.dll
 0001:0002a7c4       _DisableThreadLibraryCalls@4 1002b7c4 f   kernel32:KERNEL32.dll
 0001:0002a7ca       _FreeLibrary@4             1002b7ca f   kernel32:KERNEL32.dll
 0001:0002a7d0       _GetModuleFileNameW@12     1002b7d0 f   kernel32:KERNEL32.dll
 0001:0002a7d6       _GetModuleHandleW@4        1002b7d6 f   kernel32:KERNEL32.dll
 0001:0002a7dc       _GetProcAddress@8          1002b7dc f   kernel32:KERNEL32.dll
 0001:0002a7e2       _LoadLibraryExW@12         1002b7e2 f   kernel32:KERNEL32.dll
 0001:0002a7e8       _LoadResource@8            1002b7e8 f   kernel32:KERNEL32.dll
 0001:0002a7ee       _SizeofResource@8          1002b7ee f   kernel32:KERNEL32.dll
 0001:0002a7f4       _FindResourceW@12          1002b7f4 f   kernel32:KERNEL32.dll
 0001:0002a7fa       _GlobalAlloc@8             1002b7fa f   kernel32:KERNEL32.dll
 0001:0002a800       _GlobalUnlock@4            1002b800 f   kernel32:KERNEL32.dll
 0001:0002a806       _GlobalLock@4              1002b806 f   kernel32:KERNEL32.dll
 0001:0002a80c       _MulDiv@12                 1002b80c f   kernel32:KERNEL32.dll
 0001:0002a812       _lstrcmpiW@8               1002b812 f   kernel32:KERNEL32.dll
 0001:0002a818       _DeleteFileW@4             1002b818 f   kernel32:KERNEL32.dll
 0001:0002a81e       _CloseHandle@4             1002b81e f   kernel32:KERNEL32.dll
 0001:0002a824       _SetEvent@4                1002b824 f   kernel32:KERNEL32.dll
 0001:0002a82a       _CreateMutexW@12           1002b82a f   kernel32:KERNEL32.dll
 0001:0002a830       _CreateEventW@16           1002b830 f   kernel32:KERNEL32.dll
 0001:0002a836       _GetCurrentProcessId@0     1002b836 f   kernel32:KERNEL32.dll
 0001:0002a83c       _LocalFree@4               1002b83c f   kernel32:KERNEL32.dll
 0001:0002a842       _FormatMessageW@28         1002b842 f   kernel32:KERNEL32.dll
 0001:0002a848       _GetActiveWindow@0         1002b848 f   user32:USER32.dll
 0001:0002a84e       _MessageBoxW@16            1002b84e f   user32:USER32.dll
 0001:0002a854       _UnregisterClassW@8        1002b854 f   user32:USER32.dll
 0001:0002a85a       _PostMessageW@16           1002b85a f   user32:USER32.dll
 0001:0002a860       _DefWindowProcW@16         1002b860 f   user32:USER32.dll
 0001:0002a866       _CallWindowProcW@20        1002b866 f   user32:USER32.dll
 0001:0002a86c       _RegisterClassExW@4        1002b86c f   user32:USER32.dll
 0001:0002a872       _GetClassInfoExW@12        1002b872 f   user32:USER32.dll
 0001:0002a878       _CreateWindowExW@48        1002b878 f   user32:USER32.dll
 0001:0002a87e       _IsWindow@4                1002b87e f   user32:USER32.dll
 0001:0002a884       _IsChild@8                 1002b884 f   user32:USER32.dll
 0001:0002a88a       _DestroyWindow@4           1002b88a f   user32:USER32.dll
 0001:0002a890       _ShowWindow@8              1002b890 f   user32:USER32.dll
 0001:0002a896       _SetWindowPos@28           1002b896 f   user32:USER32.dll
 0001:0002a89c       _CharNextW@4               1002b89c f   user32:USER32.dll
 0001:0002a8a2       _SetFocus@4                1002b8a2 f   user32:USER32.dll
 0001:0002a8a8       _GetFocus@0                1002b8a8 f   user32:USER32.dll
 0001:0002a8ae       _GetKeyState@4             1002b8ae f   user32:USER32.dll
 0001:0002a8b4       _GetDC@4                   1002b8b4 f   user32:USER32.dll
 0001:0002a8ba       _ReleaseDC@8               1002b8ba f   user32:USER32.dll
 0001:0002a8c0       _BeginPaint@8              1002b8c0 f   user32:USER32.dll
 0001:0002a8c6       _EndPaint@8                1002b8c6 f   user32:USER32.dll
 0001:0002a8cc       _SetWindowRgn@12           1002b8cc f   user32:USER32.dll
 0001:0002a8d2       _InvalidateRect@12         1002b8d2 f   user32:USER32.dll
 0001:0002a8d8       _GetClientRect@8           1002b8d8 f   user32:USER32.dll
 0001:0002a8de       _IntersectRect@12          1002b8de f   user32:USER32.dll
 0001:0002a8e4       _UnionRect@12              1002b8e4 f   user32:USER32.dll
 0001:0002a8ea       _OffsetRect@12             1002b8ea f   user32:USER32.dll
 0001:0002a8f0       _EqualRect@8               1002b8f0 f   user32:USER32.dll
 0001:0002a8f6       _PtInRect@12               1002b8f6 f   user32:USER32.dll
 0001:0002a8fc       _GetWindowLongW@8          1002b8fc f   user32:USER32.dll
 0001:0002a902       _SetWindowLongW@12         1002b902 f   user32:USER32.dll
 0001:0002a908       _GetParent@4               1002b908 f   user32:USER32.dll
 0001:0002a90e       _LoadCursorW@8             1002b90e f   user32:USER32.dll
 0001:0002a914       _PeekMessageW@20           1002b914 f   user32:USER32.dll
 0001:0002a91a       _RegisterClassW@4          1002b91a f   user32:USER32.dll
 0001:0002a920       _LoadBitmapW@8             1002b920 f   user32:USER32.dll
 0001:0002a926       _CloseMetaFile@4           1002b926 f   gdi32:GDI32.dll
 0001:0002a92c       _CreateDCW@16              1002b92c f   gdi32:GDI32.dll
 0001:0002a932       _CreateMetaFileW@4         1002b932 f   gdi32:GDI32.dll
 0001:0002a938       _CreateRectRgnIndirect@4   1002b938 f   gdi32:GDI32.dll
 0001:0002a93e       _DeleteDC@4                1002b93e f   gdi32:GDI32.dll
 0001:0002a944       _DeleteMetaFile@4          1002b944 f   gdi32:GDI32.dll
 0001:0002a94a       _GetDeviceCaps@8           1002b94a f   gdi32:GDI32.dll
 0001:0002a950       _RestoreDC@8               1002b950 f   gdi32:GDI32.dll
 0001:0002a956       _SaveDC@4                  1002b956 f   gdi32:GDI32.dll
 0001:0002a95c       _SetMapMode@8              1002b95c f   gdi32:GDI32.dll
 0001:0002a962       _LPtoDP@12                 1002b962 f   gdi32:GDI32.dll
 0001:0002a968       _SetViewportOrgEx@16       1002b968 f   gdi32:GDI32.dll
 0001:0002a96e       _SetWindowExtEx@16         1002b96e f   gdi32:GDI32.dll
 0001:0002a974       _SetWindowOrgEx@16         1002b974 f   gdi32:GDI32.dll
 0001:0002a97a       _BitBlt@36                 1002b97a f   gdi32:GDI32.dll
 0001:0002a980       _CreateCompatibleDC@4      1002b980 f   gdi32:GDI32.dll
 0001:0002a986       _DeleteObject@4            1002b986 f   gdi32:GDI32.dll
 0001:0002a98c       _SelectObject@8            1002b98c f   gdi32:GDI32.dll
 0001:0002a992       _GetObjectW@12             1002b992 f   gdi32:GDI32.dll
 0001:0002a998       _RegCloseKey@4             1002b998 f   advapi32:ADVAPI32.dll
 0001:0002a99e       _RegCreateKeyExW@36        1002b99e f   advapi32:ADVAPI32.dll
 0001:0002a9a4       _RegDeleteKeyW@8           1002b9a4 f   advapi32:ADVAPI32.dll
 0001:0002a9aa       _RegDeleteValueW@8         1002b9aa f   advapi32:ADVAPI32.dll
 0001:0002a9b0       _RegEnumKeyExW@32          1002b9b0 f   advapi32:ADVAPI32.dll
 0001:0002a9b6       _RegOpenKeyExW@20          1002b9b6 f   advapi32:ADVAPI32.dll
 0001:0002a9bc       _RegQueryInfoKeyW@48       1002b9bc f   advapi32:ADVAPI32.dll
 0001:0002a9c2       _RegSetValueExW@24         1002b9c2 f   advapi32:ADVAPI32.dll
 0001:0002a9c8       _RegQueryValueExW@24       1002b9c8 f   advapi32:ADVAPI32.dll
 0001:0002a9ce       _CoCreateInstance@20       1002b9ce f   ole32:ole32.dll
 0001:0002a9d4       _StringFromGUID2@12        1002b9d4 f   ole32:ole32.dll
 0001:0002a9da       _CoTaskMemAlloc@4          1002b9da f   ole32:ole32.dll
 0001:0002a9e0       _CoTaskMemRealloc@8        1002b9e0 f   ole32:ole32.dll
 0001:0002a9e6       _CoTaskMemFree@4           1002b9e6 f   ole32:ole32.dll
 0001:0002a9ec       _ReadClassStm@8            1002b9ec f   ole32:ole32.dll
 0001:0002a9f2       _WriteClassStm@8           1002b9f2 f   ole32:ole32.dll
 0001:0002a9f8       _CreateDataAdviseHolder@4  1002b9f8 f   ole32:ole32.dll
 0001:0002a9fe       _OleSaveToStream@8         1002b9fe f   ole32:ole32.dll
 0001:0002aa04       _CreateOleAdviseHolder@4   1002ba04 f   ole32:ole32.dll
 0001:0002aa0a       _OleRegGetUserType@12      1002ba0a f   ole32:ole32.dll
 0001:0002aa10       _OleRegGetMiscStatus@12    1002ba10 f   ole32:ole32.dll
 0001:0002aa16       _OleRegEnumVerbs@8         1002ba16 f   ole32:ole32.dll
 0001:0002aa1c       _CLSIDFromProgID@8         1002ba1c f   ole32:ole32.dll
 0001:0002aa22       _SysAllocString@4          1002ba22 f   oleaut32:OLEAUT32.dll
 0001:0002aa28       _SysAllocStringLen@8       1002ba28 f   oleaut32:OLEAUT32.dll
 0001:0002aa2e       _SysFreeString@4           1002ba2e f   oleaut32:OLEAUT32.dll
 0001:0002aa34       _SysStringLen@4            1002ba34 f   oleaut32:OLEAUT32.dll
 0001:0002aa3a       _VariantClear@4            1002ba3a f   oleaut32:OLEAUT32.dll
 0001:0002aa40       _VariantCopyInd@8          1002ba40 f   oleaut32:OLEAUT32.dll
 0001:0002aa46       _VariantChangeType@16      1002ba46 f   oleaut32:OLEAUT32.dll
 0001:0002aa4c       _SysStringByteLen@4        1002ba4c f   oleaut32:OLEAUT32.dll
 0001:0002aa52       _SysAllocStringByteLen@8   1002ba52 f   oleaut32:OLEAUT32.dll
 0001:0002aa58       _VariantInit@4             1002ba58 f   oleaut32:OLEAUT32.dll
 0001:0002aa5e       _VarUI4FromStr@16          1002ba5e f   oleaut32:OLEAUT32.dll
 0001:0002aa64       _LoadTypeLib@8             1002ba64 f   oleaut32:OLEAUT32.dll
 0001:0002aa6a       _LoadRegTypeLib@20         1002ba6a f   oleaut32:OLEAUT32.dll
 0001:0002aa70       _RegisterTypeLib@12        1002ba70 f   oleaut32:OLEAUT32.dll
 0001:0002aa76       _UnRegisterTypeLib@20      1002ba76 f   oleaut32:OLEAUT32.dll
 0001:0002aa7c       _OleCreatePropertyFrame@44 1002ba7c f   oleaut32:OLEAUT32.dll
 0001:0002aa82       _SafeArrayGetDim@4         1002ba82 f   oleaut32:OLEAUT32.dll
 0001:0002aa88       _SafeArrayGetUBound@12     1002ba88 f   oleaut32:OLEAUT32.dll
 0001:0002aa8e       _SafeArrayGetLBound@12     1002ba8e f   oleaut32:OLEAUT32.dll
 0001:0002aaa0       @_RTC_AllocaHelper@12      1002baa0 f   LIBCMTD:stack.obj
 0001:0002aae0       @_RTC_CheckStackVars2@12   1002bae0 f   LIBCMTD:stack.obj
 0001:0002abc0       @_RTC_CheckStackVars@8     1002bbc0 f   LIBCMTD:stack.obj
 0001:0002ac30       __RTC_CheckEsp             1002bc30 f   LIBCMTD:stack.obj
 0001:0002ac70       @__security_check_cookie@4 1002bc70 f   LIBCMTD:secchk.obj
 0001:0002ac90       __CRT_RTC_INIT             1002bc90 f   LIBCMTD:init.obj
 0001:0002aca0       __CRT_RTC_INITW            1002bca0 f   LIBCMTD:init.obj
 0001:0002acb0       __RTC_InitBase             1002bcb0 f   LIBCMTD:init.obj
 0001:0002ace0       __RTC_Shutdown             1002bce0 f   LIBCMTD:init.obj
 0001:0002ad00       ??_U@YAPAXI@Z              1002bd00 f   LIBCMTD:new_array.obj
 0001:0002ad20       ??3@YAXPAXI@Z              1002bd20 f   LIBCMTD:delete_scalar_size.obj
 0001:0002ad40       ??_V@YAXPAX@Z              1002bd40 f   LIBCMTD:delete_array.obj
 0001:0002ad60       ??_V@YAXPAXI@Z             1002bd60 f   LIBCMTD:delete_array_size.obj
 0001:0002ad80       ?configure_argv@__scrt_narrow_argv_policy@@SAHXZ 1002bd80 f i LIBCMTD:utility.obj
 0001:0002ae30       ?initialize_environment@__scrt_narrow_environment_policy@@SAHXZ 1002be30 f i LIBCMTD:utility.obj
 0001:0002aeb0       _NtCurrentTeb              1002beb0 f i LIBCMTD:utility.obj
 0001:0002aec0       ___scrt_acquire_startup_lock 1002bec0 f   LIBCMTD:utility.obj
 0001:0002af10       ___scrt_dllmain_after_initialize_c 1002bf10 f   LIBCMTD:utility.obj
 0001:0002af40       ___scrt_dllmain_before_initialize_c 1002bf40 f   LIBCMTD:utility.obj
 0001:0002af60       ___scrt_dllmain_crt_thread_attach 1002bf60 f   LIBCMTD:utility.obj
 0001:0002af90       ___scrt_dllmain_crt_thread_detach 1002bf90 f   LIBCMTD:utility.obj
 0001:0002afb0       ___scrt_dllmain_exception_filter 1002bfb0 f   LIBCMTD:utility.obj
 0001:0002b000       ___scrt_dllmain_uninitialize_c 1002c000 f   LIBCMTD:utility.obj
 0001:0002b030       ___scrt_dllmain_uninitialize_critical 1002c030 f   LIBCMTD:utility.obj
 0001:0002b050       ___scrt_initialize_crt     1002c050 f   LIBCMTD:utility.obj
 0001:0002b0a0       ___scrt_initialize_onexit_tables 1002c0a0 f   LIBCMTD:utility.obj
 0001:0002b180       ___scrt_is_nonwritable_in_current_image 1002c180 f   LIBCMTD:utility.obj
 0001:0002b2b0       ___scrt_release_startup_lock 1002c2b0 f   LIBCMTD:utility.obj
 0001:0002b2e0       ___scrt_uninitialize_crt   1002c2e0 f   LIBCMTD:utility.obj
 0001:0002b320       __onexit                   1002c320 f   LIBCMTD:utility.obj
 0001:0002b390       _at_quick_exit             1002c390 f   LIBCMTD:utility.obj
 0001:0002b3d0       _atexit                    1002c3d0 f   LIBCMTD:utility.obj
 0001:0002b400       ??3@YAXPAX@Z               1002c400 f   LIBCMTD:delete_scalar.obj
 0001:0002b420       ___raise_securityfailure   1002c420 f   LIBCMTD:gs_report.obj
 0001:0002b450       ___report_gsfailure        1002c450 f   LIBCMTD:gs_report.obj
 0001:0002b560       ___report_rangecheckfailure 1002c560 f   LIBCMTD:gs_report.obj
 0001:0002b570       ___report_securityfailure  1002c570 f   LIBCMTD:gs_report.obj
 0001:0002b650       ___report_securityfailureEx 1002c650 f   LIBCMTD:gs_report.obj
 0001:0002b8a0       __Init_thread_abort        1002c8a0 f   LIBCMTD:thread_safe_statics.obj
 0001:0002b8c0       __Init_thread_footer       1002c8c0 f   LIBCMTD:thread_safe_statics.obj
 0001:0002b910       __Init_thread_header       1002c910 f   LIBCMTD:thread_safe_statics.obj
 0001:0002b980       __Init_thread_lock         1002c980 f   LIBCMTD:thread_safe_statics.obj
 0001:0002b990       __Init_thread_notify       1002c990 f   LIBCMTD:thread_safe_statics.obj
 0001:0002b9e0       __Init_thread_unlock       1002c9e0 f   LIBCMTD:thread_safe_statics.obj
 0001:0002b9f0       __Init_thread_wait         1002c9f0 f   LIBCMTD:thread_safe_statics.obj
 0001:0002ba80       ??2@YAPAXIABUnothrow_t@std@@@Z 1002ca80 f   LIBCMTD:new_scalar_nothrow.obj
 0001:0002bb00       ??_U@YAPAXIABUnothrow_t@std@@@Z 1002cb00 f   LIBCMTD:new_array_nothrow.obj
 0001:0002bb20       __allmul                   1002cb20 f   LIBCMTD:llmul.obj
 0001:0002bb60       __alloca_probe_16          1002cb60 f   LIBCMTD:alloca16.obj
 0001:0002bb76       __alloca_probe_8           1002cb76     LIBCMTD:alloca16.obj
 0001:0002bb90       __chkstk                   1002cb90 f   LIBCMTD:chkstk.obj
 0001:0002bb90       __alloca_probe             1002cb90 f   LIBCMTD:chkstk.obj
 0001:0002c070       __CRT_INIT@12              1002d070 f   LIBCMTD:dll_dllmain.obj
 0001:0002c090       __DllMainCRTStartup@12     1002d090 f   LIBCMTD:dll_dllmain.obj
 0001:0002c150       ?_RTC_AllocaFailure@@YAXPAXPAU_RTC_ALLOCA_NODE@@H@Z 1002d150 f   LIBCMTD:error.obj
 0001:0002c240       ?_RTC_Failure@@YAXPAXH@Z   1002d240 f   LIBCMTD:error.obj
 0001:0002c290       ?_RTC_StackFailure@@YAXPAXPBD@Z 1002d290 f   LIBCMTD:error.obj
 0001:0002c650       __RTC_UninitUse            1002d650 f   LIBCMTD:error.obj
 0001:0002c700       __vsprintf_s_l             1002d700 f i LIBCMTD:error.obj
 0001:0002c730       _sprintf_s                 1002d730 f i LIBCMTD:error.obj
 0001:0002c750       ?_RTC_GetErrorFunc@@YAP6AHHPBDH00ZZPBX@Z 1002d750 f   LIBCMTD:userapi.obj
 0001:0002c760       ?_RTC_GetErrorFuncW@@YAP6AHHPB_WH00ZZPBX@Z 1002d760 f   LIBCMTD:userapi.obj
 0001:0002c770       __RTC_GetErrDesc           1002d770 f   LIBCMTD:userapi.obj
 0001:0002c790       __RTC_NumErrors            1002d790 f   LIBCMTD:userapi.obj
 0001:0002c7a0       __RTC_SetErrorFunc         1002d7a0 f   LIBCMTD:userapi.obj
 0001:0002c7c0       __RTC_SetErrorFuncW        1002d7c0 f   LIBCMTD:userapi.obj
 0001:0002c7e0       __RTC_SetErrorType         1002d7e0 f   LIBCMTD:userapi.obj
 0001:0002c810       ??2@YAPAXI@Z               1002d810 f   LIBCMTD:new_scalar.obj
 0001:0002c860       ___isa_available_init      1002d860 f   LIBCMTD:cpu_disp.obj
 0001:0002cb40       __get_startup_argv_mode    1002db40 f   LIBCMTD:argv_mode.obj
 0001:0002cb50       ___scrt_is_ucrt_dll_in_use 1002db50 f   LIBCMTD:ucrt_detection.obj
 0001:0002cb80       ___scrt_fastfail           1002db80 f   LIBCMTD:utility_desktop.obj
 0001:0002ccc0       ___scrt_get_show_window_mode 1002dcc0 f   LIBCMTD:utility_desktop.obj
 0001:0002cd00       ___scrt_initialize_mta     1002dd00 f   LIBCMTD:utility_desktop.obj
 0001:0002cd10       ___scrt_initialize_winrt   1002dd10 f   LIBCMTD:utility_desktop.obj
 0001:0002cd20       ___scrt_is_managed_app     1002dd20 f   LIBCMTD:utility_desktop.obj
 0001:0002cdb0       ___scrt_set_unhandled_exception_filter 1002ddb0 f   LIBCMTD:utility_desktop.obj
 0001:0002cdc0       ___scrt_stub_for_initialize_mta 1002ddc0 f   LIBCMTD:utility_desktop.obj
 0001:0002cdc0       ___scrt_exe_initialize_mta 1002ddc0 f   LIBCMTD:utility_desktop.obj
 0001:0002cdd0       ___scrt_unhandled_exception_filter@4 1002ddd0 f   LIBCMTD:utility_desktop.obj
 0001:0002ce30       __crt_debugger_hook        1002de30 f   LIBCMTD:utility_desktop.obj
 0001:0002ce40       @_guard_check_icall_nop@4  1002de40 f i LIBCMTD:guard_support.obj
 0001:0002ce50       _ReadNoFence               1002de50 f i LIBCMTD:guard_support.obj
 0001:0002ce70       _ReadPointerNoFence        1002de70 f i LIBCMTD:guard_support.obj
 0001:0002ce90       __guard_icall_checks_enforced 1002de90 f i LIBCMTD:guard_support.obj
 0001:0002cf30       ___security_init_cookie    1002df30 f   LIBCMTD:gs_support.obj
 0001:0002cfb0       ?__scrt_initialize_type_info@@YAXXZ 1002dfb0 f   LIBCMTD:tncleanup.obj
 0001:0002cfc0       ?__scrt_uninitialize_type_info@@YAXXZ 1002dfc0 f   LIBCMTD:tncleanup.obj
 0001:0002cfe0       ___local_stdio_scanf_options 1002dfe0 f i LIBCMTD:default_local_stdio_options.obj
 0001:0002cff0       ___scrt_initialize_default_local_stdio_options 1002dff0 f   LIBCMTD:default_local_stdio_options.obj
 0001:0002d030       ___scrt_get_dyn_tls_init_callback 1002e030 f   LIBCMTD:dyn_tls_init.obj
 0001:0002d040       __RTC_Initialize           1002e040 f   LIBCMTD:initsect.obj
 0001:0002d070       __RTC_Terminate            1002e070 f   LIBCMTD:initsect.obj
 0001:0002d520       ?_RTC_GetSrcLine@@YAHPAEPA_WKPAH1K@Z 1002e520 f   LIBCMTD:pdblkup.obj
 0001:0002d8b0       __except_handler4_noexcept 1002e8b0 f   LIBCMTD:chandler4_noexcept.obj
 0001:0002d900       ??0bad_alloc@std@@AAE@QBD@Z 1002e900 f i LIBCMTD:throw_bad_alloc.obj
 0001:0002d930       ??0bad_alloc@std@@QAE@ABV01@@Z 1002e930 f i LIBCMTD:throw_bad_alloc.obj
 0001:0002d960       ??0bad_alloc@std@@QAE@XZ   1002e960 f i LIBCMTD:throw_bad_alloc.obj
 0001:0002d990       ??0bad_array_new_length@std@@QAE@ABV01@@Z 1002e990 f i LIBCMTD:throw_bad_alloc.obj
 0001:0002d9c0       ??0bad_array_new_length@std@@QAE@XZ 1002e9c0 f i LIBCMTD:throw_bad_alloc.obj
 0001:0002d9f0       ??0exception@std@@QAE@ABV01@@Z 1002e9f0 f i LIBCMTD:throw_bad_alloc.obj
 0001:0002da30       ??0exception@std@@QAE@QBDH@Z 1002ea30 f i LIBCMTD:throw_bad_alloc.obj
 0001:0002da60       ??1bad_alloc@std@@UAE@XZ   1002ea60 f i LIBCMTD:throw_bad_alloc.obj
 0001:0002da80       ??1bad_array_new_length@std@@UAE@XZ 1002ea80 f i LIBCMTD:throw_bad_alloc.obj
 0001:0002daa0       ??1exception@std@@UAE@XZ   1002eaa0 f i LIBCMTD:throw_bad_alloc.obj
 0001:0002dad0       ??_Gbad_alloc@std@@UAEPAXI@Z 1002ead0 f i LIBCMTD:throw_bad_alloc.obj
 0001:0002dad0       ??_Ebad_alloc@std@@UAEPAXI@Z 1002ead0 f i LIBCMTD:throw_bad_alloc.obj
 0001:0002db00       ??_Ebad_array_new_length@std@@UAEPAXI@Z 1002eb00 f i LIBCMTD:throw_bad_alloc.obj
 0001:0002db00       ??_Gbad_array_new_length@std@@UAEPAXI@Z 1002eb00 f i LIBCMTD:throw_bad_alloc.obj
 0001:0002db30       ??_Gexception@std@@UAEPAXI@Z 1002eb30 f i LIBCMTD:throw_bad_alloc.obj
 0001:0002db30       ??_Eexception@std@@UAEPAXI@Z 1002eb30 f i LIBCMTD:throw_bad_alloc.obj
 0001:0002db60       ?__scrt_throw_std_bad_alloc@@YAXXZ 1002eb60 f   LIBCMTD:throw_bad_alloc.obj
 0001:0002db80       ?__scrt_throw_std_bad_array_new_length@@YAXXZ 1002eb80 f   LIBCMTD:throw_bad_alloc.obj
 0001:0002dba0       ?what@exception@std@@UBEPBDXZ 1002eba0 f i LIBCMTD:throw_bad_alloc.obj
 0001:0002dbd0       ??1type_info@@UAE@XZ       1002ebd0 f   LIBCMTD:std_type_info_static.obj
 0001:0002dbf0       ??_Gtype_info@@UAEPAXI@Z   1002ebf0 f i LIBCMTD:std_type_info_static.obj
 0001:0002dbf0       ??_Etype_info@@UAEPAXI@Z   1002ebf0 f i LIBCMTD:std_type_info_static.obj
 0001:0002dc1e       ??$?2PAUHINSTANCE__@@@Wrapper@?$CSimpleArray@PAUHINSTANCE__@@V?$CSimpleArrayEqualHelper@PAUHINSTANCE__@@@ATL@@@ATL@@SAPAXIPAPAUHINSTANCE__@@@Z 1002ec1e f i atls:atlbase.obj
 0001:0002dc26       ??0?$CSimpleArray@PAUHINSTANCE__@@V?$CSimpleArrayEqualHelper@PAUHINSTANCE__@@@ATL@@@ATL@@QAE@XZ 1002ec26 f i atls:atlbase.obj
 0001:0002dc33       ??0CAtlBaseModule@ATL@@QAE@XZ 1002ec33 f   atls:atlbase.obj
 0001:0002dc86       ??0Wrapper@?$CSimpleArray@PAUHINSTANCE__@@V?$CSimpleArrayEqualHelper@PAUHINSTANCE__@@@ATL@@@ATL@@QAE@ABQAUHINSTANCE__@@@Z 1002ec86 f i atls:atlbase.obj
 0001:0002dc96       ??0_ATL_BASE_MODULE70@ATL@@QAE@XZ 1002ec96 f i atls:atlbase.obj
 0001:0002dcb9       ??1?$CSimpleArray@PAUHINSTANCE__@@V?$CSimpleArrayEqualHelper@PAUHINSTANCE__@@@ATL@@@ATL@@QAE@XZ 1002ecb9 f i atls:atlbase.obj
 0001:0002dcbe       ??1CAtlBaseModule@ATL@@QAE@XZ 1002ecbe f   atls:atlbase.obj
 0001:0002dcd4       ??1_ATL_BASE_MODULE70@ATL@@QAE@XZ 1002ecd4 f i atls:atlbase.obj
 0001:0002dcdc       ??A?$CSimpleArray@PAUHINSTANCE__@@V?$CSimpleArrayEqualHelper@PAUHINSTANCE__@@@ATL@@@ATL@@QAEAAPAUHINSTANCE__@@H@Z 1002ecdc f i atls:atlbase.obj
 0001:0002dd01       ?Add@?$CSimpleArray@PAUHINSTANCE__@@V?$CSimpleArrayEqualHelper@PAUHINSTANCE__@@@ATL@@@ATL@@QAEHABQAUHINSTANCE__@@@Z 1002ed01 f i atls:atlbase.obj
 0001:0002dd83       ?AddResourceInstance@CAtlBaseModule@ATL@@QAE_NPAUHINSTANCE__@@@Z 1002ed83 f   atls:atlbase.obj
 0001:0002ddb6       ?GetHInstanceAt@CAtlBaseModule@ATL@@QAEPAUHINSTANCE__@@H@Z 1002edb6 f   atls:atlbase.obj
 0001:0002ddfb       ?GetSize@?$CSimpleArray@PAUHINSTANCE__@@V?$CSimpleArrayEqualHelper@PAUHINSTANCE__@@@ATL@@@ATL@@QBEHXZ 1002edfb f i atls:atlbase.obj
 0001:0002ddff       ?InternalSetAtIndex@?$CSimpleArray@PAUHINSTANCE__@@V?$CSimpleArrayEqualHelper@PAUHINSTANCE__@@@ATL@@@ATL@@QAEXHABQAUHINSTANCE__@@@Z 1002edff f i atls:atlbase.obj
 0001:0002de19       ?RemoveAll@?$CSimpleArray@PAUHINSTANCE__@@V?$CSimpleArrayEqualHelper@PAUHINSTANCE__@@@ATL@@@ATL@@QAEXXZ 1002ee19 f i atls:atlbase.obj
 0001:0002de36       ?RemoveAt@?$CSimpleArray@PAUHINSTANCE__@@V?$CSimpleArrayEqualHelper@PAUHINSTANCE__@@@ATL@@@ATL@@QAEHH@Z 1002ee36 f i atls:atlbase.obj
 0001:0002de84       ?RemoveResourceInstance@CAtlBaseModule@ATL@@QAE_NPAUHINSTANCE__@@@Z 1002ee84 f   atls:atlbase.obj
 0001:0002dee1       ?memmove_s@Checked@ATL@@YAXPAXIPBXI@Z 1002eee1 f i atls:atlbase.obj
 0001:0002e23e       ?GetCodeAddress@_stdcallthunk@ATL@@QAEPAXXZ 1002f23e f i atls:atlthunk.obj
 0001:0002e268       ?Init@_stdcallthunk@ATL@@QAEHKPAX@Z 1002f268 f i atls:atlthunk.obj
 0001:0002e29d       ?__AllocStdCallThunk@@YGPAXXZ 1002f29d f   atls:atlthunk.obj
 0001:0002e2a2       ?__AllocStdCallThunk@ATL@@YGPAXXZ 1002f2a2 f   atls:atlthunk.obj
 0001:0002e2a7       ?__AllocStdCallThunk_cmn@@YAPAXXZ 1002f2a7 f   atls:atlthunk.obj
 0001:0002e36d       ?__FreeStdCallThunk@@YGXPAX@Z 1002f36d f   atls:atlthunk.obj
 0001:0002e37d       ?__FreeStdCallThunk@ATL@@YGXPAX@Z 1002f37d f   atls:atlthunk.obj
 0001:0002e38d       ?__FreeStdCallThunk_cmn@@YAXPAX@Z 1002f38d f   atls:atlthunk.obj
 0001:0002e428       _AtlThunk_AllocateData@0   1002f428 f   atls:atlthunk.obj
 0001:0002e48d       _AtlThunk_DataToCode@4     1002f48d f   atls:atlthunk.obj
 0001:0002e4d4       _AtlThunk_FreeData@4       1002f4d4 f   atls:atlthunk.obj
 0001:0002e52a       _AtlThunk_InitData@12      1002f52a f   atls:atlthunk.obj
 0001:0002e579       _MemoryBarrier             1002f579 f i atls:atlthunk.obj
 0001:0002e587       __InlineInterlockedCompareExchangePointer 1002f587 f i atls:atlthunk.obj
 0001:0002e5a0       _memset                    1002f5a0 f   libvcruntimed:memset.obj
 0001:0002e700       ??$__crt_interlocked_exchange_pointer@$$A6AXXZP6AXXZ@@YAP6AXXZPDS6AXXZQ6AXXZ@Z 1002f700 f i libvcruntimed:purevirt.obj
 0001:0002e710       ??$__crt_interlocked_read_pointer@$$A6AXXZ@@YAP6AXXZPDS6AXXZ@Z 1002f710 f i libvcruntimed:purevirt.obj
 0001:0002e730       ?__crt_interlocked_read_32@@YAHPDH@Z 1002f730 f i libvcruntimed:purevirt.obj
 0001:0002e750       __get_purecall_handler     1002f750 f   libvcruntimed:purevirt.obj
 0001:0002e770       __purecall                 1002f770 f   libvcruntimed:purevirt.obj
 0001:0002e7a0       __set_purecall_handler     1002f7a0 f   libvcruntimed:purevirt.obj
 0001:0002e970       _memcmp                    1002f970 f   libvcruntimed:memcmp.obj
 0001:0002f240       _memcpy                    10030240 f   libvcruntimed:memcpy.obj
 0001:0002f7c0       _wcsstr                    100307c0 f   libvcruntimed:wcsstr.obj
 0001:0002fcf0       __except_handler4          10030cf0 f   libvcruntimed:chandler4.obj
 0001:0002fee0       ___vcrt_initialize         10030ee0 f   libvcruntimed:initialization.obj
 0001:0002ff20       ___vcrt_thread_attach      10030f20 f   libvcruntimed:initialization.obj
 0001:0002ff40       ___vcrt_thread_detach      10030f40 f   libvcruntimed:initialization.obj
 0001:0002ff60       ___vcrt_uninitialize       10030f60 f   libvcruntimed:initialization.obj
 0001:0002ff80       ___vcrt_uninitialize_critical 10030f80 f   libvcruntimed:initialization.obj
 0001:0002ffa0       ??$?0AAViterator@TryBlockMap@__FrameHandler3@@AAV012@$0A@@?$pair@Viterator@TryBlockMap@__FrameHandler3@@V123@@std@@QAE@AAViterator@TryBlockMap@__FrameHandler3@@0@Z 10030fa0 f i libvcruntimed:trnsctrl.obj
 0001:0002fff0       ??$forward@AAViterator@TryBlockMap@__FrameHandler3@@@std@@YAAAViterator@TryBlockMap@__FrameHandler3@@AAV123@@Z 10030ff0 f i libvcruntimed:trnsctrl.obj
 0001:00030000       ??0iterator@TryBlockMap@__FrameHandler3@@QAE@AAV12@I@Z 10031000 f i libvcruntimed:trnsctrl.obj
 0001:00030030       ?GetRangeOfTrysToCheck@__FrameHandler3@@SA?AU?$pair@Viterator@TryBlockMap@__FrameHandler3@@V123@@std@@AAVTryBlockMap@1@HPAXPBU_s_FuncInfo@@H@Z 10031030 f   libvcruntimed:trnsctrl.obj
 0001:00030110       ?_CallCatchBlock2@@YAPAXPAUEHRegistrationNode@@PBU_s_FuncInfo@@PAXHK@Z 10031110 f   libvcruntimed:trnsctrl.obj
 0001:00030180       ?_CallSETranslator@@YAHPAUEHExceptionRecord@@PAUEHRegistrationNode@@PAX2PBU_s_FuncInfo@@H1@Z 10031180 f   libvcruntimed:trnsctrl.obj
 0001:00030280       ?_JumpToContinuation@@YGXPAXPAUEHRegistrationNode@@@Z 10031280 f   libvcruntimed:trnsctrl.obj
 0001:000302c0       ?_UnwindNestedFrames@@YGXPAUEHRegistrationNode@@PAUEHExceptionRecord@@@Z 100312c0 f   libvcruntimed:trnsctrl.obj
 0001:00030320       __CatchGuardHandler        10031320 f   libvcruntimed:trnsctrl.obj
 0001:00030370       __CreateFrameInfo          10031370 f   libvcruntimed:trnsctrl.obj
 0001:000303a0       __FindAndUnlinkFrame       100313a0 f   libvcruntimed:trnsctrl.obj
 0001:00030420       __TranslatorGuardHandler   10031420 f   libvcruntimed:trnsctrl.obj
 0001:000304d0       ___CxxFrameHandler         100314d0 f   libvcruntimed:trnsctrl.obj
 0001:00030510       ___CxxFrameHandler2        10031510 f   libvcruntimed:trnsctrl.obj
 0001:00030550       ___CxxFrameHandler3        10031550 f   libvcruntimed:trnsctrl.obj
 0001:00030590       ___CxxLongjmpUnwind@4      10031590 f   libvcruntimed:trnsctrl.obj
 0001:000305d0       ?<lambda_invoker_cdecl>@_Closure_wrapper_b3626920_1@@CAPAXI@Z 100315d0 f i libvcruntimed:std_type_info.obj
 0001:000305e0       ?<lambda_invoker_cdecl>@_Closure_wrapper_b3626920_2@@CAXQAX@Z 100315e0 f i libvcruntimed:std_type_info.obj
 0001:000305f0       ??$?RD@__crt_internal_free_policy@@QBEXQBD@Z 100315f0 f i libvcruntimed:std_type_info.obj
 0001:00030610       ??$?RX@__crt_internal_free_policy@@QBEXQBX@Z 10031610 f i libvcruntimed:std_type_info.obj
 0001:00030630       ??$__crt_interlocked_compare_exchange_pointer@$$CBDPAD$$T@@YAPBDPDSBDQAD$$T@Z 10031630 f i libvcruntimed:std_type_info.obj
 0001:00030650       ??$__crt_interlocked_read_pointer@$$CBD@@YAPBDPDSBD@Z 10031650 f i libvcruntimed:std_type_info.obj
 0001:00030670       ??0?$__crt_unique_heap_ptr@DU__crt_internal_free_policy@@@@QAE@QAD@Z 10031670 f i libvcruntimed:std_type_info.obj
 0001:00030690       ??0?$__crt_unique_heap_ptr@XU__crt_internal_free_policy@@@@QAE@QAX@Z 10031690 f i libvcruntimed:std_type_info.obj
 0001:000306b0       ??1?$__crt_unique_heap_ptr@DU__crt_internal_free_policy@@@@QAE@XZ 100316b0 f i libvcruntimed:std_type_info.obj
 0001:000306d0       ??1?$__crt_unique_heap_ptr@XU__crt_internal_free_policy@@@@QAE@XZ 100316d0 f i libvcruntimed:std_type_info.obj
 0001:000306f0       ??B?$__crt_unique_heap_ptr@DU__crt_internal_free_policy@@@@QBE_NXZ 100316f0 f i libvcruntimed:std_type_info.obj
 0001:00030710       ??B?$__crt_unique_heap_ptr@XU__crt_internal_free_policy@@@@QBE_NXZ 10031710 f i libvcruntimed:std_type_info.obj
 0001:00030730       ??B_Closure_wrapper_b3626920_1@@QBEP6APAXI@ZXZ 10031730 f i libvcruntimed:std_type_info.obj
 0001:00030740       ??B_Closure_wrapper_b3626920_2@@QBEP6AXQAX@ZXZ 10031740 f i libvcruntimed:std_type_info.obj
 0001:000307a0       ?detach@?$__crt_unique_heap_ptr@XU__crt_internal_free_policy@@@@QAEPAXXZ 100317a0 f i libvcruntimed:std_type_info.obj
 0001:000307d0       ?get@?$__crt_unique_heap_ptr@DU__crt_internal_free_policy@@@@QBEPADXZ 100317d0 f i libvcruntimed:std_type_info.obj
 0001:000307e0       ?get@?$__crt_unique_heap_ptr@XU__crt_internal_free_policy@@@@QBEPAXXZ 100317e0 f i libvcruntimed:std_type_info.obj
 0001:000307f0       ?is_valid@?$__crt_unique_heap_ptr@DU__crt_internal_free_policy@@@@QBE_NXZ 100317f0 f i libvcruntimed:std_type_info.obj
 0001:00030820       ?is_valid@?$__crt_unique_heap_ptr@XU__crt_internal_free_policy@@@@QBE_NXZ 10031820 f i libvcruntimed:std_type_info.obj
 0001:00030850       ?release@?$__crt_unique_heap_ptr@DU__crt_internal_free_policy@@@@QAEXXZ 10031850 f i libvcruntimed:std_type_info.obj
 0001:00030880       ?release@?$__crt_unique_heap_ptr@XU__crt_internal_free_policy@@@@QAEXXZ 10031880 f i libvcruntimed:std_type_info.obj
 0001:000308b0       ___std_type_info_compare   100318b0 f   libvcruntimed:std_type_info.obj
 0001:000308e0       ___std_type_info_destroy_list 100318e0 f   libvcruntimed:std_type_info.obj
 0001:00030920       ___std_type_info_hash      10031920 f   libvcruntimed:std_type_info.obj
 0001:00030980       ___std_type_info_name      10031980 f   libvcruntimed:std_type_info.obj
 0001:00030b60       ___vcrt_GetModuleFileNameW 10031b60 f   libvcruntimed:winapi_thunks.obj
 0001:00030b80       ___vcrt_GetModuleHandleW   10031b80 f   libvcruntimed:winapi_thunks.obj
 0001:00030b90       ___vcrt_LoadLibraryExW     10031b90 f   libvcruntimed:winapi_thunks.obj
 0001:00030bb0       ??$?RD@__crt_public_free_policy@@QBEXQBD@Z 10031bb0 f i libvcruntimed:std_exception.obj
 0001:00030bd0       ??0?$__crt_unique_heap_ptr@DU__crt_public_free_policy@@@@QAE@QAD@Z 10031bd0 f i libvcruntimed:std_exception.obj
 0001:00030bf0       ??1?$__crt_unique_heap_ptr@DU__crt_public_free_policy@@@@QAE@XZ 10031bf0 f i libvcruntimed:std_exception.obj
 0001:00030c10       ??B?$__crt_unique_heap_ptr@DU__crt_public_free_policy@@@@QBE_NXZ 10031c10 f i libvcruntimed:std_exception.obj
 0001:00030c30       ?detach@?$__crt_unique_heap_ptr@DU__crt_public_free_policy@@@@QAEPADXZ 10031c30 f i libvcruntimed:std_exception.obj
 0001:00030c60       ?get@?$__crt_unique_heap_ptr@DU__crt_public_free_policy@@@@QBEPADXZ 10031c60 f i libvcruntimed:std_exception.obj
 0001:00030c70       ?is_valid@?$__crt_unique_heap_ptr@DU__crt_public_free_policy@@@@QBE_NXZ 10031c70 f i libvcruntimed:std_exception.obj
 0001:00030ca0       ?release@?$__crt_unique_heap_ptr@DU__crt_public_free_policy@@@@QAEXXZ 10031ca0 f i libvcruntimed:std_exception.obj
 0001:00030cd0       ___std_exception_copy      10031cd0 f   libvcruntimed:std_exception.obj
 0001:00030dc0       ___std_exception_destroy   10031dc0 f   libvcruntimed:std_exception.obj
 0001:00030df0       __CxxThrowException@8      10031df0 f   libvcruntimed:throw.obj
 0001:00030eb0       _memmove                   10031eb0 f   libvcruntimed:memmove.obj
 0001:00031430       __local_unwind4            10032430 f   libvcruntimed:exsup4.obj
 0001:00031508       __seh_longjmp_unwind4@4    10032508 f   libvcruntimed:exsup4.obj
 0001:00031530       @_EH4_CallFilterFunc@8     10032530 f   libvcruntimed:exsup4.obj
 0001:00031548       @_EH4_TransferToHandler@8  10032548 f   libvcruntimed:exsup4.obj
 0001:00031564       @_EH4_GlobalUnwind2@8      10032564 f   libvcruntimed:exsup4.obj
 0001:00031580       @_EH4_LocalUnwind@16       10032580 f   libvcruntimed:exsup4.obj
 0001:000315b0       ___except_validate_context_record 100325b0 f   libvcruntimed:jbcxrval.obj
 0001:00031600       ___except_validate_jump_buffer 10032600 f   libvcruntimed:jbcxrval.obj
 0001:00031620       ___except_validate_jump_buffer_common 10032620 f i libvcruntimed:jbcxrval.obj
 0001:00031680       ??$?RU__vcrt_ptd@@@__crt_internal_free_policy@@QBEXQBU__vcrt_ptd@@@Z 10032680 f i libvcruntimed:per_thread_data.obj
 0001:000316a0       ??0?$__crt_unique_heap_ptr@U__vcrt_ptd@@U__crt_internal_free_policy@@@@QAE@QAU__vcrt_ptd@@@Z 100326a0 f i libvcruntimed:per_thread_data.obj
 0001:000316e0       ??1?$__crt_unique_heap_ptr@U__vcrt_ptd@@U__crt_internal_free_policy@@@@QAE@XZ 100326e0 f i libvcruntimed:per_thread_data.obj
 0001:00031720       ??B?$__crt_unique_heap_ptr@U__vcrt_ptd@@U__crt_internal_free_policy@@@@QBE_NXZ 10032720 f i libvcruntimed:per_thread_data.obj
 0001:00031740       ?detach@?$__crt_unique_heap_ptr@U__vcrt_ptd@@U__crt_internal_free_policy@@@@QAEPAU__vcrt_ptd@@XZ 10032740 f i libvcruntimed:per_thread_data.obj
 0001:00031770       ?get@?$__crt_unique_heap_ptr@U__vcrt_ptd@@U__crt_internal_free_policy@@@@QBEPAU__vcrt_ptd@@XZ 10032770 f i libvcruntimed:per_thread_data.obj
 0001:00031780       ?is_valid@?$__crt_unique_heap_ptr@U__vcrt_ptd@@U__crt_internal_free_policy@@@@QBE_NXZ 10032780 f i libvcruntimed:per_thread_data.obj
 0001:000317b0       ?release@?$__crt_unique_heap_ptr@U__vcrt_ptd@@U__crt_internal_free_policy@@@@QAEXXZ 100327b0 f i libvcruntimed:per_thread_data.obj
 0001:00031810       ___vcrt_freefls@4          10032810 f   libvcruntimed:per_thread_data.obj
 0001:00031840       ___vcrt_freeptd            10032840 f   libvcruntimed:per_thread_data.obj
 0001:000318a0       ___vcrt_getptd             100328a0 f   libvcruntimed:per_thread_data.obj
 0001:000318c0       ___vcrt_getptd_noexit      100328c0 f   libvcruntimed:per_thread_data.obj
 0001:00031a20       ___vcrt_getptd_noinit      10032a20 f   libvcruntimed:per_thread_data.obj
 0001:00031a80       ___vcrt_initialize_ptd     10032a80 f   libvcruntimed:per_thread_data.obj
 0001:00031ad0       ___vcrt_uninitialize_ptd   10032ad0 f   libvcruntimed:per_thread_data.obj
 0001:00031b00       ___vcrt_initialize_locks   10032b00 f   libvcruntimed:locks.obj
 0001:00031b60       ___vcrt_lock               10032b60 f   libvcruntimed:locks.obj
 0001:00031b80       ___vcrt_uninitialize_locks 10032b80 f   libvcruntimed:locks.obj
 0001:00031bd0       ___vcrt_unlock             10032bd0 f   libvcruntimed:locks.obj
 0001:00032800       ??$TypeMatchHelper@V__FrameHandler3@@@@YAHPBU_s_HandlerType@@PBU_s_CatchableType@@PBU_s_ThrowInfo@@@Z 10033800 f i libvcruntimed:frame.obj
 0001:000328e0       ??$__InternalCxxFrameHandler@V__FrameHandler3@@@@YA?AW4_EXCEPTION_DISPOSITION@@PAUEHExceptionRecord@@PAUEHRegistrationNode@@PAU_CONTEXT@@PAXPBU_s_FuncInfo@@H1E@Z 100338e0 f i libvcruntimed:frame.obj
 0001:00032ac0       ??0HandlerMap@__FrameHandler3@@QAE@PBU_s_TryBlockMapEntry@@II@Z 10033ac0 f i libvcruntimed:frame.obj
 0001:00032af0       ??0TryBlockMap@__FrameHandler3@@QAE@PBU_s_FuncInfo@@I@Z 10033af0 f i libvcruntimed:frame.obj
 0001:00032b20       ??0bad_exception@std@@QAE@ABV01@@Z 10033b20 f i libvcruntimed:frame.obj
 0001:00032b50       ??0bad_exception@std@@QAE@XZ 10033b50 f i libvcruntimed:frame.obj
 0001:00032b80       ??0iterator@HandlerMap@__FrameHandler3@@QAE@AAV12@I@Z 10033b80 f i libvcruntimed:frame.obj
 0001:00032bb0       ??1bad_exception@std@@UAE@XZ 10033bb0 f i libvcruntimed:frame.obj
 0001:00032bd0       ??8iterator@HandlerMap@__FrameHandler3@@QBE_NABV012@@Z 10033bd0 f i libvcruntimed:frame.obj
 0001:00032c00       ??8type_info@@QBE_NABV0@@Z 10033c00 f i libvcruntimed:frame.obj
 0001:00032c40       ??9iterator@HandlerMap@__FrameHandler3@@QBE_NABV012@@Z 10033c40 f i libvcruntimed:frame.obj
 0001:00032c80       ??Diterator@HandlerMap@__FrameHandler3@@QAE?BU_s_HandlerType@@XZ 10033c80 f i libvcruntimed:frame.obj
 0001:00032cc0       ??Diterator@TryBlockMap@__FrameHandler3@@QAE?BU_s_TryBlockMapEntry@@XZ 10033cc0 f i libvcruntimed:frame.obj
 0001:00032d10       ??Eiterator@HandlerMap@__FrameHandler3@@QAEAAV012@XZ 10033d10 f i libvcruntimed:frame.obj
 0001:00032d30       ??Eiterator@TryBlockMap@__FrameHandler3@@QAEAAV012@XZ 10033d30 f i libvcruntimed:frame.obj
 0001:00032d50       ??Miterator@TryBlockMap@__FrameHandler3@@QBE_NABV012@@Z 10033d50 f i libvcruntimed:frame.obj
 0001:00032d80       ??_Gbad_exception@std@@UAEPAXI@Z 10033d80 f i libvcruntimed:frame.obj
 0001:00032d80       ??_Ebad_exception@std@@UAEPAXI@Z 10033d80 f i libvcruntimed:frame.obj
 0001:00032db0       ?BuildCatchObject@__FrameHandler3@@SAXPAUEHExceptionRecord@@PAXPBU_s_HandlerType@@PBU_s_CatchableType@@@Z 10033db0 f   libvcruntimed:frame.obj
 0001:00032dd0       ?BuildCatchObjectHelper@__FrameHandler3@@SAHPAUEHExceptionRecord@@PAXPBU_s_HandlerType@@PBU_s_CatchableType@@@Z 10033dd0 f   libvcruntimed:frame.obj
 0001:00033170       ?FrameUnwindToEmptyState@__FrameHandler3@@SAXPAUEHRegistrationNode@@PAXPBU_s_FuncInfo@@@Z 10034170 f   libvcruntimed:frame.obj
 0001:00033190       ?FrameUnwindToState@__FrameHandler3@@SAXPAUEHRegistrationNode@@PAXPBU_s_FuncInfo@@H@Z 10034190 f   libvcruntimed:frame.obj
 0001:00033310       ?GetMaxState@__FrameHandler3@@SAHPAXPBU_s_FuncInfo@@@Z 10034310 f i libvcruntimed:frame.obj
 0001:00033440       ?TypeMatch@__FrameHandler3@@SAHPBU_s_HandlerType@@PBU_s_CatchableType@@PBU_s_ThrowInfo@@@Z 10034440 f   libvcruntimed:frame.obj
 0001:00033460       ?_CallMemberFunction1@@YGXQAX00@Z 10034460 f i libvcruntimed:frame.obj
 0001:00033490       ?_CallMemberFunction2@@YGXQAX00H@Z 10034490 f i libvcruntimed:frame.obj
 0001:000334c0       ?_ValidateExecute@@YA_NP6GHXZ@Z 100344c0 f i libvcruntimed:frame.obj
 0001:000334e0       ?_ValidateRead@@YA_NPBXI@Z 100344e0 f i libvcruntimed:frame.obj
 0001:00033500       ?_ValidateWrite@@YA_NPAXI@Z 10034500 f i libvcruntimed:frame.obj
 0001:00033520       ?begin@HandlerMap@__FrameHandler3@@QAE?AViterator@12@XZ 10034520 f i libvcruntimed:frame.obj
 0001:00033540       ?end@HandlerMap@__FrameHandler3@@QAE?AViterator@12@XZ 10034540 f i libvcruntimed:frame.obj
 0001:00033570       ?getESTypes@__FrameHandler3@@SAPBU_s_ESTypeList@@PBU_s_FuncInfo@@@Z 10034570 f i libvcruntimed:frame.obj
 0001:00033580       ?getLastEntry@HandlerMap@__FrameHandler3@@QAEPBU_s_HandlerType@@XZ 10034580 f i libvcruntimed:frame.obj
 0001:000335a0       ?getMagicNum@__FrameHandler3@@SAIPBU_s_FuncInfo@@@Z 100345a0 f i libvcruntimed:frame.obj
 0001:000335b0       ?getNumTryBlocks@TryBlockMap@__FrameHandler3@@QAEIXZ 100345b0 f i libvcruntimed:frame.obj
 0001:000335d0       ?isEHs@__FrameHandler3@@SA_NPBU_s_FuncInfo@@@Z 100345d0 f i libvcruntimed:frame.obj
 0001:00033600       ?isNoExcept@__FrameHandler3@@SA_NPBU_s_FuncInfo@@@Z 10034600 f i libvcruntimed:frame.obj
 0001:00033630       ___BuildCatchObject        10034630 f   libvcruntimed:frame.obj
 0001:00033650       ___BuildCatchObjectHelper  10034650 f   libvcruntimed:frame.obj
 0001:00033670       ___TypeMatch               10034670 f   libvcruntimed:frame.obj
 0001:00033690       ___vcrt_EncodePointer      10034690 f i libvcruntimed:frame.obj
 0001:000336a0       __CallSettingFrame@12      100346a0 f   libvcruntimed:lowhelpr.obj
 0001:000336c7       __NLG_Return               100346c7     libvcruntimed:lowhelpr.obj
 0001:000336f0       ??0Block@_HeapManager@@QAE@XZ 100346f0 f i libvcruntimed:undname.obj
 0001:00033710       ??0DName@@QAE@AAPBDD@Z     10034710 f   libvcruntimed:undname.obj
 0001:00033940       ??0DName@@QAE@ABV0@@Z      10034940 f i libvcruntimed:undname.obj
 0001:00033970       ??0DName@@QAE@D@Z          10034970 f   libvcruntimed:undname.obj
 0001:000339b0       ??0DName@@QAE@PAV0@@Z      100349b0 f   libvcruntimed:undname.obj
 0001:00033a60       ??0DName@@QAE@PBD@Z        10034a60 f   libvcruntimed:undname.obj
 0001:00033ab0       ??0DName@@QAE@W4DNameStatus@@@Z 10034ab0 f   libvcruntimed:undname.obj
 0001:00033b50       ??0DName@@QAE@XZ           10034b50 f i libvcruntimed:undname.obj
 0001:00033b80       ??0DName@@QAE@_J@Z         10034b80 f   libvcruntimed:undname.obj
 0001:00033c70       ??0DName@@QAE@_K@Z         10034c70 f   libvcruntimed:undname.obj
 0001:00033d20       ??0DNameNode@@IAE@XZ       10034d20 f i libvcruntimed:undname.obj
 0001:00033d40       ??0Replicator@@QAE@XZ      10034d40 f i libvcruntimed:undname.obj
 0001:00033d80       ??0UnDecorator@@QAE@PBDP6APADJ@ZK@Z 10034d80 f i libvcruntimed:undname.obj
 0001:00033e00       ??0charNode@@QAE@D@Z       10034e00 f i libvcruntimed:undname.obj
 0001:00033e30       ??0pDNameNode@@QAE@PAVDName@@@Z 10034e30 f   libvcruntimed:undname.obj
 0001:00033e90       ??0pairNode@@QAE@PBVDNameNode@@0@Z 10034e90 f i libvcruntimed:undname.obj
 0001:00033ed0       ??0pcharNode@@QAE@PBDH@Z   10034ed0 f   libvcruntimed:undname.obj
 0001:00033f90       ??2@YAPAXIAAV_HeapManager@@H@Z 10034f90 f i libvcruntimed:undname.obj
 0001:00033fb0       ??4DName@@QAEAAV0@ABV0@@Z  10034fb0 f   libvcruntimed:undname.obj
 0001:00033fe0       ??4DName@@QAEAAV0@D@Z      10034fe0 f i libvcruntimed:undname.obj
 0001:00034020       ??4DName@@QAEAAV0@PAV0@@Z  10035020 f   libvcruntimed:undname.obj
 0001:000340c0       ??4DName@@QAEAAV0@PBD@Z    100350c0 f   libvcruntimed:undname.obj
 0001:00034100       ??4DName@@QAEAAV0@W4DNameStatus@@@Z 10035100 f   libvcruntimed:undname.obj
 0001:00034180       ??AReplicator@@QBE?AVDName@@H@Z 10035180 f   libvcruntimed:undname.obj
 0001:000341f0       ??H@YA?AVDName@@DABV0@@Z   100351f0 f i libvcruntimed:undname.obj
 0001:00034220       ??H@YA?AVDName@@PBDABV0@@Z 10035220 f i libvcruntimed:undname.obj
 0001:00034250       ??H@YA?AVDName@@W4DNameStatus@@ABV0@@Z 10035250 f i libvcruntimed:undname.obj
 0001:00034280       ??HDName@@QBE?AV0@ABV0@@Z  10035280 f   libvcruntimed:undname.obj
 0001:000342c0       ??HDName@@QBE?AV0@D@Z      100352c0 f   libvcruntimed:undname.obj
 0001:00034300       ??HDName@@QBE?AV0@PAV0@@Z  10035300 f   libvcruntimed:undname.obj
 0001:00034340       ??HDName@@QBE?AV0@PBD@Z    10035340 f   libvcruntimed:undname.obj
 0001:00034380       ??HDName@@QBE?AV0@W4DNameStatus@@@Z 10035380 f   libvcruntimed:undname.obj
 0001:000343c0       ??YDName@@QAEAAV0@ABV0@@Z  100353c0 f   libvcruntimed:undname.obj
 0001:00034430       ??YDName@@QAEAAV0@D@Z      10035430 f   libvcruntimed:undname.obj
 0001:000344b0       ??YDName@@QAEAAV0@PAV0@@Z  100354b0 f   libvcruntimed:undname.obj
 0001:00034560       ??YDName@@QAEAAV0@PBD@Z    10035560 f   libvcruntimed:undname.obj
 0001:00034600       ??YDName@@QAEAAV0@W4DNameStatus@@@Z 10035600 f   libvcruntimed:undname.obj
 0001:00034660       ??YReplicator@@QAEAAV0@ABVDName@@@Z 10035660 f   libvcruntimed:undname.obj
 0001:000346f0       ??_5DName@@QAEAAV0@ABV0@@Z 100356f0 f   libvcruntimed:undname.obj
 0001:00034750       ?Constructor@_HeapManager@@QAEXP6APAXI@ZP6AXPAX@Z@Z 10035750 f i libvcruntimed:undname.obj
 0001:00034790       ?Destructor@_HeapManager@@QAEXXZ 10035790 f i libvcruntimed:undname.obj
 0001:000347f0       ?UScore@UnDecorator@@SAPBDW4Tokens@@@Z 100357f0 f   libvcruntimed:undname.obj
 0001:00034820       ?append@DName@@AAEXPBVDNameNode@@@Z 10035820 f   libvcruntimed:undname.obj
 0001:000348b0       ?composeDeclaration@UnDecorator@@CA?AVDName@@ABV2@@Z 100358b0 f i libvcruntimed:undname.obj
 0001:00036630       ?dbGetString@DName@@QBEPADXZ 10037630 f   libvcruntimed:undname.obj
 0001:00036650       ?doAccessSpecifiers@UnDecorator@@SAHXZ 10037650 f i libvcruntimed:undname.obj
 0001:00036680       ?doAllocationLanguage@UnDecorator@@SAHXZ 10037680 f i libvcruntimed:undname.obj
 0001:000366b0       ?doAllocationModel@UnDecorator@@SAHXZ 100376b0 f i libvcruntimed:undname.obj
 0001:000366e0       ?doEcsu@UnDecorator@@SAHXZ 100376e0 f i libvcruntimed:undname.obj
 0001:00036710       ?doEllipsis@UnDecorator@@SAHXZ 10037710 f i libvcruntimed:undname.obj
 0001:00036740       ?doFunctionReturns@UnDecorator@@SAHXZ 10037740 f i libvcruntimed:undname.obj
 0001:00036770       ?doMSKeywords@UnDecorator@@SAHXZ 10037770 f i libvcruntimed:undname.obj
 0001:000367a0       ?doMemberTypes@UnDecorator@@SAHXZ 100377a0 f i libvcruntimed:undname.obj
 0001:000367d0       ?doNameOnly@UnDecorator@@SAHXZ 100377d0 f i libvcruntimed:undname.obj
 0001:000367e0       ?doNoIdentCharCheck@UnDecorator@@SAHXZ 100377e0 f i libvcruntimed:undname.obj
 0001:000367f0       ?doPchar@DName@@AAEXPBDH@Z 100377f0 f   libvcruntimed:undname.obj
 0001:00036930       ?doPtr64@UnDecorator@@SAHXZ 10037930 f i libvcruntimed:undname.obj
 0001:00036960       ?doRestrictionSpec@UnDecorator@@SAHXZ 10037960 f i libvcruntimed:undname.obj
 0001:00036990       ?doThisTypes@UnDecorator@@SAHXZ 10037990 f i libvcruntimed:undname.obj
 0001:000369c0       ?doThrowTypes@UnDecorator@@SAHXZ 100379c0 f i libvcruntimed:undname.obj
 0001:000369f0       ?doTypeOnly@UnDecorator@@SAHXZ 100379f0 f i libvcruntimed:undname.obj
 0001:00036a00       ?doUnderScore@UnDecorator@@SAHXZ 10037a00 f i libvcruntimed:undname.obj
 0001:00036a30       ?getArgumentList@UnDecorator@@CA?AVDName@@XZ 10037a30 f   libvcruntimed:undname.obj
 0001:00036b80       ?getArgumentTypes@UnDecorator@@CA?AVDName@@XZ 10037b80 f   libvcruntimed:undname.obj
 0001:00036cd0       ?getArrayType@UnDecorator@@CA?AVDName@@ABV2@@Z 10037cd0 f i libvcruntimed:undname.obj
 0001:00036f40       ?getBasedType@UnDecorator@@CA?AVDName@@XZ 10037f40 f   libvcruntimed:undname.obj
 0001:00037000       ?getBasicDataType@UnDecorator@@CA?AVDName@@ABV2@@Z 10038000 f   libvcruntimed:undname.obj
 0001:00037600       ?getCHPEName@UnDecorator@@QAEPADPADH@Z 10038600 f i libvcruntimed:undname.obj
 0001:00037760       ?getCallIndex@UnDecorator@@CA?AVDName@@XZ 10038760 f i libvcruntimed:undname.obj
 0001:00037780       ?getCallingConvention@UnDecorator@@CA?AVDName@@XZ 10038780 f   libvcruntimed:undname.obj
 0001:00037960       ?getDataIndirectType@UnDecorator@@CA?AVDName@@ABV2@PBD0H@Z 10038960 f   libvcruntimed:undname.obj
 0001:00038180       ?getDataIndirectType@UnDecorator@@CA?AVDName@@XZ 10039180 f i libvcruntimed:undname.obj
 0001:000381d0       ?getDataType@UnDecorator@@CA?AVDName@@PAV2@@Z 100391d0 f   libvcruntimed:undname.obj
 0001:000382f0       ?getDecoratedName@UnDecorator@@CA?AVDName@@XZ 100392f0 f   libvcruntimed:undname.obj
 0001:000386f0       ?getDimension@UnDecorator@@CA?AVDName@@_N@Z 100396f0 f   libvcruntimed:undname.obj
 0001:000389a0       ?getDispatchTarget@UnDecorator@@CA?AVDName@@XZ 100399a0 f   libvcruntimed:undname.obj
 0001:00038a40       ?getDisplacement@UnDecorator@@CA?AVDName@@XZ 10039a40 f i libvcruntimed:undname.obj
 0001:00038a60       ?getECSUDataType@UnDecorator@@CA?AVDName@@XZ 10039a60 f   libvcruntimed:undname.obj
 0001:00038c30       ?getECSUName@UnDecorator@@CA?AVDName@@XZ 10039c30 f i libvcruntimed:undname.obj
 0001:00038c50       ?getEnumType@UnDecorator@@CA?AVDName@@XZ 10039c50 f i libvcruntimed:undname.obj
 0001:00038da0       ?getExtendedDataIndirectType@UnDecorator@@CA?AVDName@@AAPBDAA_NH@Z 10039da0 f   libvcruntimed:undname.obj
 0001:00038ff0       ?getExternalDataType@UnDecorator@@CA?AVDName@@ABV2@@Z 10039ff0 f i libvcruntimed:undname.obj
 0001:00039090       ?getFunctionIndirectType@UnDecorator@@CA?AVDName@@ABV2@@Z 1003a090 f   libvcruntimed:undname.obj
 0001:00039560       ?getGuardNumber@UnDecorator@@CA?AVDName@@XZ 1003a560 f i libvcruntimed:undname.obj
 0001:00039580       ?getLastChar@DName@@QBEDXZ 1003a580 f i libvcruntimed:undname.obj
 0001:000395c0       ?getLastChar@DNameStatusNode@@UBEDXZ 1003a5c0 f i libvcruntimed:undname.obj
 0001:000395f0       ?getLastChar@charNode@@UBEDXZ 1003a5f0 f i libvcruntimed:undname.obj
 0001:00039610       ?getLastChar@pDNameNode@@UBEDXZ 1003a610 f i libvcruntimed:undname.obj
 0001:00039640       ?getLastChar@pairNode@@UBEDXZ 1003a640 f i libvcruntimed:undname.obj
 0001:000396b0       ?getLastChar@pcharNode@@UBEDXZ 1003a6b0 f i libvcruntimed:undname.obj
 0001:000396f0       ?getLexicalFrame@UnDecorator@@CA?AVDName@@XZ 1003a6f0 f i libvcruntimed:undname.obj
 0001:00039730       ?getMemory@_HeapManager@@QAEPAXIH@Z 1003a730 f   libvcruntimed:undname.obj
 0001:00039850       ?getNoexcept@UnDecorator@@CA?AVDName@@XZ 1003a850 f   libvcruntimed:undname.obj
 0001:000398c0       ?getNumberOfDimensions@UnDecorator@@CAHXZ 1003a8c0 f   libvcruntimed:undname.obj
 0001:000399c0       ?getOperatorName@UnDecorator@@CA?AVDName@@_NPA_N@Z 1003a9c0 f i libvcruntimed:undname.obj
 0001:0003a430       ?getPointerType@UnDecorator@@CA?AVDName@@ABV2@0@Z 1003b430 f i libvcruntimed:undname.obj
 0001:0003a460       ?getPointerTypeArray@UnDecorator@@CA?AVDName@@ABV2@0@Z 1003b460 f i libvcruntimed:undname.obj
 0001:0003a490       ?getPrimaryDataType@UnDecorator@@CA?AVDName@@ABV2@@Z 1003b490 f   libvcruntimed:undname.obj
 0001:0003a890       ?getPtrRefDataType@UnDecorator@@CA?AVDName@@ABV2@H@Z 1003b890 f   libvcruntimed:undname.obj
 0001:0003aac0       ?getPtrRefType@UnDecorator@@CA?AVDName@@ABV2@0PBD@Z 1003bac0 f   libvcruntimed:undname.obj
 0001:0003ac30       ?getReferenceType@UnDecorator@@CA?AVDName@@ABV2@0PBD@Z 1003bc30 f i libvcruntimed:undname.obj
 0001:0003ac50       ?getRestrictionSpec@UnDecorator@@CA?AVDName@@XZ 1003bc50 f   libvcruntimed:undname.obj
 0001:0003adc0       ?getReturnType@UnDecorator@@CA?AVDName@@PAV2@@Z 1003bdc0 f   libvcruntimed:undname.obj
 0001:0003ae10       ?getScope@UnDecorator@@CA?AVDName@@XZ 1003be10 f   libvcruntimed:undname.obj
 0001:0003b340       ?getScopedName@UnDecorator@@CA?AVDName@@XZ 1003c340 f   libvcruntimed:undname.obj
 0001:0003b470       ?getSignedDimension@UnDecorator@@CA?AVDName@@XZ 1003c470 f   libvcruntimed:undname.obj
 0001:0003b4f0       ?getStorageConvention@UnDecorator@@CA?AVDName@@XZ 1003c4f0 f i libvcruntimed:undname.obj
 0001:0003b510       ?getString@DName@@QBEPADPAD0@Z 1003c510 f i libvcruntimed:undname.obj
 0001:0003b570       ?getString@DName@@QBEPADPADH@Z 1003c570 f i libvcruntimed:undname.obj
 0001:0003b600       ?getString@DNameStatusNode@@UBEPADPAD0@Z 1003c600 f i libvcruntimed:undname.obj
 0001:0003b640       ?getString@charNode@@UBEPADPAD0@Z 1003c640 f i libvcruntimed:undname.obj
 0001:0003b670       ?getString@pDNameNode@@UBEPADPAD0@Z 1003c670 f i libvcruntimed:undname.obj
 0001:0003b6b0       ?getString@pairNode@@UBEPADPAD0@Z 1003c6b0 f i libvcruntimed:undname.obj
 0001:0003b740       ?getString@pcharNode@@UBEPADPAD0@Z 1003c740 f i libvcruntimed:undname.obj
 0001:0003b770       ?getStringEncoding@UnDecorator@@CA?AVDName@@PBDH@Z 1003c770 f   libvcruntimed:undname.obj
 0001:0003b880       ?getStringHelper@@YAPADPADPBD1H@Z 1003c880 f i libvcruntimed:undname.obj
 0001:0003b8c0       ?getSymbolName@UnDecorator@@CA?AVDName@@XZ 1003c8c0 f i libvcruntimed:undname.obj
 0001:0003b950       ?getTemplateArgumentList@UnDecorator@@CA?AVDName@@XZ 1003c950 f   libvcruntimed:undname.obj
 0001:0003bc10       ?getTemplateName@UnDecorator@@CA?AVDName@@_N@Z 1003cc10 f   libvcruntimed:undname.obj
 0001:0003bde0       ?getTemplateNonTypeArgument@UnDecorator@@CA?AVDName@@XZ 1003cde0 f   libvcruntimed:undname.obj
 0001:0003c410       ?getTemplateTypeArgument@UnDecorator@@CA?AVDName@@XZ 1003d410 f   libvcruntimed:undname.obj
 0001:0003c570       ?getThisType@UnDecorator@@CA?AVDName@@XZ 1003d570 f i libvcruntimed:undname.obj
 0001:0003c5c0       ?getThrowTypes@UnDecorator@@CA?AVDName@@XZ 1003d5c0 f   libvcruntimed:undname.obj
 0001:0003c600       ?getTypeEncoding@UnDecorator@@CAHXZ 1003d600 f i libvcruntimed:undname.obj
 0001:0003d090       ?getUndecoratedName@UnDecorator@@QAEPADPADH@Z 1003e090 f i libvcruntimed:undname.obj
 0001:0003d1e0       ?getVCallThunkType@UnDecorator@@CA?AVDName@@XZ 1003e1e0 f i libvcruntimed:undname.obj
 0001:0003d240       ?getVbTableType@UnDecorator@@CA?AVDName@@ABV2@@Z 1003e240 f i libvcruntimed:undname.obj
 0001:0003d260       ?getVdispMapType@UnDecorator@@CA?AVDName@@ABV2@@Z 1003e260 f i libvcruntimed:undname.obj
 0001:0003d2d0       ?getVfTableType@UnDecorator@@CA?AVDName@@ABV2@@Z 1003e2d0 f i libvcruntimed:undname.obj
 0001:0003d4a0       ?getZName@UnDecorator@@CA?AVDName@@_N0@Z 1003e4a0 f   libvcruntimed:undname.obj
 0001:0003d780       ?haveTemplateParameters@UnDecorator@@SAHXZ 1003e780 f i libvcruntimed:undname.obj
 0001:0003d790       ?isArray@DName@@QBEHXZ     1003e790 f i libvcruntimed:undname.obj
 0001:0003d7b0       ?isComArray@DName@@QBEHXZ  1003e7b0 f i libvcruntimed:undname.obj
 0001:0003d7d0       ?isEmpty@DName@@QBEHXZ     1003e7d0 f i libvcruntimed:undname.obj
 0001:0003d800       ?isFull@Replicator@@QBEHXZ 1003e800 f i libvcruntimed:undname.obj
 0001:0003d830       ?isNoTE@DName@@QBEHXZ      1003e830 f i libvcruntimed:undname.obj
 0001:0003d850       ?isPinPtr@DName@@QBEHXZ    1003e850 f i libvcruntimed:undname.obj
 0001:0003d870       ?isPtrRef@DName@@QBEHXZ    1003e870 f i libvcruntimed:undname.obj
 0001:0003d890       ?isUDC@DName@@QBEHXZ       1003e890 f i libvcruntimed:undname.obj
 0001:0003d8d0       ?isUDTThunk@DName@@QBEHXZ  1003e8d0 f i libvcruntimed:undname.obj
 0001:0003d910       ?isVCallThunk@DName@@QBEHXZ 1003e910 f i libvcruntimed:undname.obj
 0001:0003d930       ?isValid@DName@@QBEHXZ     1003e930 f i libvcruntimed:undname.obj
 0001:0003d970       ?length@DName@@QBEHXZ      1003e970 f i libvcruntimed:undname.obj
 0001:0003d9b0       ?length@DNameStatusNode@@UBEHXZ 1003e9b0 f i libvcruntimed:undname.obj
 0001:0003d9d0       ?length@charNode@@UBEHXZ   1003e9d0 f i libvcruntimed:undname.obj
 0001:0003d9e0       ?length@pDNameNode@@UBEHXZ 1003e9e0 f i libvcruntimed:undname.obj
 0001:0003da10       ?length@pairNode@@UBEHXZ   1003ea10 f i libvcruntimed:undname.obj
 0001:0003da80       ?length@pcharNode@@UBEHXZ  1003ea80 f i libvcruntimed:undname.obj
 0001:0003daa0       ?make@DNameStatusNode@@SAPBV1@W4DNameStatus@@@Z 1003eaa0 f i libvcruntimed:undname.obj
 0001:0003dad0       ?parseDecoratedName@UnDecorator@@CA?AVDName@@XZ 1003ead0 f   libvcruntimed:undname.obj
 0001:0003dc50       ?setIsArray@DName@@QAEXXZ  1003ec50 f i libvcruntimed:undname.obj
 0001:0003dc70       ?setIsComArray@DName@@QAEXXZ 1003ec70 f i libvcruntimed:undname.obj
 0001:0003dc90       ?setIsNoTE@DName@@QAEXXZ   1003ec90 f i libvcruntimed:undname.obj
 0001:0003dcb0       ?setIsPinPtr@DName@@QAEXXZ 1003ecb0 f i libvcruntimed:undname.obj
 0001:0003dcd0       ?setIsUDC@DName@@QAEXXZ    1003ecd0 f i libvcruntimed:undname.obj
 0001:0003dd00       ?setIsVCallThunk@DName@@QAEXXZ 1003ed00 f i libvcruntimed:undname.obj
 0001:0003dd20       ?setPtrRef@DName@@QAEAAV1@XZ 1003ed20 f i libvcruntimed:undname.obj
 0001:0003dd40       ?status@DName@@QBE?AW4DNameStatus@@XZ 1003ed40 f i libvcruntimed:undname.obj
 0001:0003de40       ___unDName                 1003ee40 f   libvcruntimed:undname.obj
 0001:0003de70       ___unDNameEx               1003ee70 f   libvcruntimed:undname.obj
 0001:0003df40       _unDNameGenerateCHPE       1003ef40 f   libvcruntimed:undname.obj
 0001:0003dfa0       __global_unwind2           1003efa0 f   libvcruntimed:exsup.obj
 0001:0003e006       __local_unwind2            1003f006 f   libvcruntimed:exsup.obj
 0001:0003e08a       __abnormal_termination     1003f08a f   libvcruntimed:exsup.obj
 0001:0003e0b0       __NLG_Notify1              1003f0b0 f   libvcruntimed:exsup.obj
 0001:0003e0bc       __NLG_Notify               1003f0bc f   libvcruntimed:exsup.obj
 0001:0003e0d3       __NLG_Dispatch             1003f0d3     libvcruntimed:exsup.obj
 0001:0003e0d3       __NLG_Dispatch2            1003f0d3     libvcruntimed:exsup.obj
 0001:0003e0db       __NLG_Call                 1003f0db f   libvcruntimed:exsup.obj
 0001:0003e0dd       __NLG_Return2              1003f0dd     libvcruntimed:exsup.obj
 0001:0003e0e0       ??$__crt_interlocked_exchange_pointer@UHINSTANCE__@@PAU1@@@YAPAUHINSTANCE__@@PDSAU0@QAU0@@Z 1003f0e0 f i libvcruntimed:winapi_downlevel.obj
 0001:0003e0f0       ??$__crt_interlocked_exchange_pointer@UHINSTANCE__@@PAX@@YAPAUHINSTANCE__@@PDSAU0@QAX@Z 1003f0f0 f i libvcruntimed:winapi_downlevel.obj
 0001:0003e100       ??$__crt_interlocked_exchange_pointer@XPAX@@YAPAXPDSAXQAX@Z 1003f100 f i libvcruntimed:winapi_downlevel.obj
 0001:0003e110       ??$__crt_interlocked_read_pointer@UHINSTANCE__@@@@YAPAUHINSTANCE__@@PDSAU0@@Z 1003f110 f i libvcruntimed:winapi_downlevel.obj
 0001:0003e130       ??$__crt_interlocked_read_pointer@X@@YAPAXPDSAX@Z 1003f130 f i libvcruntimed:winapi_downlevel.obj
 0001:0003e500       ___vcrt_FlsAlloc           1003f500 f   libvcruntimed:winapi_downlevel.obj
 0001:0003e540       ___vcrt_FlsFree            1003f540 f   libvcruntimed:winapi_downlevel.obj
 0001:0003e580       ___vcrt_FlsGetValue        1003f580 f   libvcruntimed:winapi_downlevel.obj
 0001:0003e5c0       ___vcrt_FlsSetValue        1003f5c0 f   libvcruntimed:winapi_downlevel.obj
 0001:0003e610       ___vcrt_InitializeCriticalSectionEx 1003f610 f   libvcruntimed:winapi_downlevel.obj
 0001:0003e690       __get_unexpected           1003f690 f   libvcruntimed:unexpected.obj
 0001:0003e6b0       _set_unexpected            1003f6b0 f   libvcruntimed:unexpected.obj
 0001:0003e6e0       _unexpected                1003f6e0 f   libvcruntimed:unexpected.obj
 0001:0003e720       ?GetCurrentState@__FrameHandler3@@SAHPAUEHRegistrationNode@@PAXPBU_s_FuncInfo@@@Z 1003f720 f   libvcruntimed:ehstate.obj
 0001:0003e750       ?SetState@__FrameHandler3@@SAXPAUEHRegistrationNode@@PBU_s_FuncInfo@@H@Z 1003f750 f   libvcruntimed:ehstate.obj
 0001:0003e760       ___DestructExceptionObject 1003f760 f   libvcruntimed:ehhelpers.obj
 0001:0003e890       ?_CallMemberFunction0@@YGXQAX0@Z 1003f890 f i libvcruntimed:ehhelpers.obj
 0001:0003e8b0       ?raw_name@type_info@@QBEPBDXZ 1003f8b0 f i libvcruntimed:ehhelpers.obj
 0001:0003e8d0       __IsExceptionObjectToBeDestroyed 1003f8d0 f   libvcruntimed:ehhelpers.obj
 0001:0003e910       __SetWinRTOutOfMemoryExceptionCallback 1003f910 f   libvcruntimed:ehhelpers.obj
 0001:0003e920       ___AdjustPointer           1003f920 f   libvcruntimed:ehhelpers.obj
 0001:0003e970       ___FrameUnwindFilter       1003f970 f   libvcruntimed:ehhelpers.obj
 0001:0003e9f0       ___GetPlatformExceptionInfo 1003f9f0 f   libvcruntimed:ehhelpers.obj
 0001:0003ea70       ___current_exception       1003fa70 f   libvcruntimed:ehhelpers.obj
 0001:0003ea80       ___current_exception_context 1003fa80 f   libvcruntimed:ehhelpers.obj
 0001:0003ea90       ___processing_throw        1003fa90 f   libvcruntimed:ehhelpers.obj
 0001:0003eaa0       ___std_terminate           1003faa0 f   libvcruntimed:ehhelpers.obj
 0001:0003eab0       __is_exception_typeof      1003fab0 f   libvcruntimed:ehhelpers.obj
 0001:0003eb90       ??$?0ABV?$stream_output_adapter@D@__crt_stdio_output@@AB_KABQBDABQAU__crt_locale_pointers@@ABQAD@?$format_validation_base@DV?$stream_output_adapter@D@__crt_stdio_output@@@__crt_stdio_output@@IAE@ABV?$stream_output_adapter@D@1@AB_KABQBDABQAU__crt_locale_pointers@@ABQAD@Z 1003fb90 f i libucrtd:output.obj
 0001:0003ebc0       ??$?0ABV?$stream_output_adapter@D@__crt_stdio_output@@AB_KABQBDABQAU__crt_locale_pointers@@ABQAD@?$positional_parameter_base@DV?$stream_output_adapter@D@__crt_stdio_output@@@__crt_stdio_output@@IAE@ABV?$stream_output_adapter@D@1@AB_KABQBDABQAU__crt_locale_pointers@@ABQAD@Z 1003fbc0 f i libucrtd:output.obj
 0001:0003ec40       ??$?0ABV?$stream_output_adapter@D@__crt_stdio_output@@AB_KABQBDABQAU__crt_locale_pointers@@ABQAD@?$standard_base@DV?$stream_output_adapter@D@__crt_stdio_output@@@__crt_stdio_output@@IAE@ABV?$stream_output_adapter@D@1@AB_KABQBDABQAU__crt_locale_pointers@@ABQAD@Z 1003fc40 f i libucrtd:output.obj
 0001:0003ec90       ??$?0ABV?$stream_output_adapter@_W@__crt_stdio_output@@AB_KABQB_WABQAU__crt_locale_pointers@@ABQAD@?$format_validation_base@_WV?$stream_output_adapter@_W@__crt_stdio_output@@@__crt_stdio_output@@IAE@ABV?$stream_output_adapter@_W@1@AB_KABQB_WABQAU__crt_locale_pointers@@ABQAD@Z 1003fc90 f i libucrtd:output.obj
 0001:0003ecc0       ??$?0ABV?$stream_output_adapter@_W@__crt_stdio_output@@AB_KABQB_WABQAU__crt_locale_pointers@@ABQAD@?$positional_parameter_base@_WV?$stream_output_adapter@_W@__crt_stdio_output@@@__crt_stdio_output@@IAE@ABV?$stream_output_adapter@_W@1@AB_KABQB_WABQAU__crt_locale_pointers@@ABQAD@Z 1003fcc0 f i libucrtd:output.obj
 0001:0003ed40       ??$?0ABV?$stream_output_adapter@_W@__crt_stdio_output@@AB_KABQB_WABQAU__crt_locale_pointers@@ABQAD@?$standard_base@_WV?$stream_output_adapter@_W@__crt_stdio_output@@@__crt_stdio_output@@IAE@ABV?$stream_output_adapter@_W@1@AB_KABQB_WABQAU__crt_locale_pointers@@ABQAD@Z 1003fd40 f i libucrtd:output.obj
 0001:0003ed90       ??$?0ABV?$string_output_adapter@D@__crt_stdio_output@@AB_KABQBDABQAU__crt_locale_pointers@@ABQAD@?$format_validation_base@DV?$string_output_adapter@D@__crt_stdio_output@@@__crt_stdio_output@@IAE@ABV?$string_output_adapter@D@1@AB_KABQBDABQAU__crt_locale_pointers@@ABQAD@Z 1003fd90 f i libucrtd:output.obj
 0001:0003edc0       ??$?0ABV?$string_output_adapter@D@__crt_stdio_output@@AB_KABQBDABQAU__crt_locale_pointers@@ABQAD@?$positional_parameter_base@DV?$string_output_adapter@D@__crt_stdio_output@@@__crt_stdio_output@@IAE@ABV?$string_output_adapter@D@1@AB_KABQBDABQAU__crt_locale_pointers@@ABQAD@Z 1003fdc0 f i libucrtd:output.obj
 0001:0003ee40       ??$?0ABV?$string_output_adapter@D@__crt_stdio_output@@AB_KABQBDABQAU__crt_locale_pointers@@ABQAD@?$standard_base@DV?$string_output_adapter@D@__crt_stdio_output@@@__crt_stdio_output@@IAE@ABV?$string_output_adapter@D@1@AB_KABQBDABQAU__crt_locale_pointers@@ABQAD@Z 1003fe40 f i libucrtd:output.obj
 0001:0003ee90       ??$?0ABV?$string_output_adapter@_W@__crt_stdio_output@@AB_KABQB_WABQAU__crt_locale_pointers@@ABQAD@?$format_validation_base@_WV?$string_output_adapter@_W@__crt_stdio_output@@@__crt_stdio_output@@IAE@ABV?$string_output_adapter@_W@1@AB_KABQB_WABQAU__crt_locale_pointers@@ABQAD@Z 1003fe90 f i libucrtd:output.obj
 0001:0003eec0       ??$?0ABV?$string_output_adapter@_W@__crt_stdio_output@@AB_KABQB_WABQAU__crt_locale_pointers@@ABQAD@?$positional_parameter_base@_WV?$string_output_adapter@_W@__crt_stdio_output@@@__crt_stdio_output@@IAE@ABV?$string_output_adapter@_W@1@AB_KABQB_WABQAU__crt_locale_pointers@@ABQAD@Z 1003fec0 f i libucrtd:output.obj
 0001:0003ef40       ??$?0ABV?$string_output_adapter@_W@__crt_stdio_output@@AB_KABQB_WABQAU__crt_locale_pointers@@ABQAD@?$standard_base@_WV?$string_output_adapter@_W@__crt_stdio_output@@@__crt_stdio_output@@IAE@ABV?$string_output_adapter@_W@1@AB_KABQB_WABQAU__crt_locale_pointers@@ABQAD@Z 1003ff40 f i libucrtd:output.obj
 0001:0003f470       ??$__crt_interlocked_read@J@@YAJPDJ@Z 10040470 f i libucrtd:output.obj
 0001:00042210       ??$count@D@formatting_buffer@__crt_stdio_output@@QBEIXZ 10043210 f i libucrtd:output.obj
 0001:00042250       ??$count@_W@formatting_buffer@__crt_stdio_output@@QBEIXZ 10043250 f i libucrtd:output.obj
 0001:00042290       ??$data@D@formatting_buffer@__crt_stdio_output@@QAEPADXZ 10043290 f i libucrtd:output.obj
 0001:000422d0       ??$data@_W@formatting_buffer@__crt_stdio_output@@QAEPA_WXZ 100432d0 f i libucrtd:output.obj
 0001:00042310       ??$ensure_buffer_is_big_enough@D@formatting_buffer@__crt_stdio_output@@QAE_NI@Z 10043310 f i libucrtd:output.obj
 0001:000423f0       ??$ensure_buffer_is_big_enough@_W@formatting_buffer@__crt_stdio_output@@QAE_NI@Z 100433f0 f i libucrtd:output.obj
 0001:000424e0       ??$extract_argument_from_va_list@C_J@?$positional_parameter_base@DV?$stream_output_adapter@D@__crt_stdio_output@@@__crt_stdio_output@@IAE_NAA_J@Z 100434e0 f i libucrtd:output.obj
 0001:00042620       ??$extract_argument_from_va_list@C_J@?$positional_parameter_base@DV?$string_output_adapter@D@__crt_stdio_output@@@__crt_stdio_output@@IAE_NAA_J@Z 10043620 f i libucrtd:output.obj
 0001:00042760       ??$extract_argument_from_va_list@C_J@?$positional_parameter_base@_WV?$stream_output_adapter@_W@__crt_stdio_output@@@__crt_stdio_output@@IAE_NAA_J@Z 10043760 f i libucrtd:output.obj
 0001:000428a0       ??$extract_argument_from_va_list@C_J@?$positional_parameter_base@_WV?$string_output_adapter@_W@__crt_stdio_output@@@__crt_stdio_output@@IAE_NAA_J@Z 100438a0 f i libucrtd:output.obj
 0001:000429e0       ??$extract_argument_from_va_list@C_J@?$standard_base@DV?$stream_output_adapter@D@__crt_stdio_output@@@__crt_stdio_output@@IAE_NAA_J@Z 100439e0 f i libucrtd:output.obj
 0001:00042a10       ??$extract_argument_from_va_list@C_J@?$standard_base@DV?$string_output_adapter@D@__crt_stdio_output@@@__crt_stdio_output@@IAE_NAA_J@Z 10043a10 f i libucrtd:output.obj
 0001:00042a40       ??$extract_argument_from_va_list@C_J@?$standard_base@_WV?$stream_output_adapter@_W@__crt_stdio_output@@@__crt_stdio_output@@IAE_NAA_J@Z 10043a40 f i libucrtd:output.obj
 0001:00042a70       ??$extract_argument_from_va_list@C_J@?$standard_base@_WV?$string_output_adapter@_W@__crt_stdio_output@@@__crt_stdio_output@@IAE_NAA_J@Z 10043a70 f i libucrtd:output.obj
 0001:00042aa0       ??$extract_argument_from_va_list@E_J@?$positional_parameter_base@DV?$stream_output_adapter@D@__crt_stdio_output@@@__crt_stdio_output@@IAE_NAA_J@Z 10043aa0 f i libucrtd:output.obj
 0001:00042be0       ??$extract_argument_from_va_list@E_J@?$positional_parameter_base@DV?$string_output_adapter@D@__crt_stdio_output@@@__crt_stdio_output@@IAE_NAA_J@Z 10043be0 f i libucrtd:output.obj
 0001:00042d20       ??$extract_argument_from_va_list@E_J@?$positional_parameter_base@_WV?$stream_output_adapter@_W@__crt_stdio_output@@@__crt_stdio_output@@IAE_NAA_J@Z 10043d20 f i libucrtd:output.obj
 0001:00042e60       ??$extract_argument_from_va_list@E_J@?$positional_parameter_base@_WV?$string_output_adapter@_W@__crt_stdio_output@@@__crt_stdio_output@@IAE_NAA_J@Z 10043e60 f i libucrtd:output.obj
 0001:00042fa0       ??$extract_argument_from_va_list@E_J@?$standard_base@DV?$stream_output_adapter@D@__crt_stdio_output@@@__crt_stdio_output@@IAE_NAA_J@Z 10043fa0 f i libucrtd:output.obj
 0001:00042fd0       ??$extract_argument_from_va_list@E_J@?$standard_base@DV?$string_output_adapter@D@__crt_stdio_output@@@__crt_stdio_output@@IAE_NAA_J@Z 10043fd0 f i libucrtd:output.obj
 0001:00043000       ??$extract_argument_from_va_list@E_J@?$standard_base@_WV?$stream_output_adapter@_W@__crt_stdio_output@@@__crt_stdio_output@@IAE_NAA_J@Z 10044000 f i libucrtd:output.obj
 0001:00043030       ??$extract_argument_from_va_list@E_J@?$standard_base@_WV?$string_output_adapter@_W@__crt_stdio_output@@@__crt_stdio_output@@IAE_NAA_J@Z 10044030 f i libucrtd:output.obj
 0001:00043060       ??$extract_argument_from_va_list@F_J@?$positional_parameter_base@DV?$stream_output_adapter@D@__crt_stdio_output@@@__crt_stdio_output@@IAE_NAA_J@Z 10044060 f i libucrtd:output.obj
 0001:00043190       ??$extract_argument_from_va_list@F_J@?$positional_parameter_base@DV?$string_output_adapter@D@__crt_stdio_output@@@__crt_stdio_output@@IAE_NAA_J@Z 10044190 f i libucrtd:output.obj
 0001:000432c0       ??$extract_argument_from_va_list@F_J@?$positional_parameter_base@_WV?$stream_output_adapter@_W@__crt_stdio_output@@@__crt_stdio_output@@IAE_NAA_J@Z 100442c0 f i libucrtd:output.obj
 0001:000433f0       ??$extract_argument_from_va_list@F_J@?$positional_parameter_base@_WV?$string_output_adapter@_W@__crt_stdio_output@@@__crt_stdio_output@@IAE_NAA_J@Z 100443f0 f i libucrtd:output.obj
 0001:00043520       ??$extract_argument_from_va_list@F_J@?$standard_base@DV?$stream_output_adapter@D@__crt_stdio_output@@@__crt_stdio_output@@IAE_NAA_J@Z 10044520 f i libucrtd:output.obj
 0001:00043550       ??$extract_argument_from_va_list@F_J@?$standard_base@DV?$string_output_adapter@D@__crt_stdio_output@@@__crt_stdio_output@@IAE_NAA_J@Z 10044550 f i libucrtd:output.obj
 0001:00043580       ??$extract_argument_from_va_list@F_J@?$standard_base@_WV?$stream_output_adapter@_W@__crt_stdio_output@@@__crt_stdio_output@@IAE_NAA_J@Z 10044580 f i libucrtd:output.obj
 0001:000435b0       ??$extract_argument_from_va_list@F_J@?$standard_base@_WV?$string_output_adapter@_W@__crt_stdio_output@@@__crt_stdio_output@@IAE_NAA_J@Z 100445b0 f i libucrtd:output.obj
 0001:000435e0       ??$extract_argument_from_va_list@GD@?$positional_parameter_base@DV?$stream_output_adapter@D@__crt_stdio_output@@@__crt_stdio_output@@IAE_NAAD@Z 100445e0 f i libucrtd:output.obj
 0001:00043710       ??$extract_argument_from_va_list@GD@?$positional_parameter_base@DV?$string_output_adapter@D@__crt_stdio_output@@@__crt_stdio_output@@IAE_NAAD@Z 10044710 f i libucrtd:output.obj
 0001:00043840       ??$extract_argument_from_va_list@GD@?$standard_base@DV?$stream_output_adapter@D@__crt_stdio_output@@@__crt_stdio_output@@IAE_NAAD@Z 10044840 f i libucrtd:output.obj
 0001:00043870       ??$extract_argument_from_va_list@GD@?$standard_base@DV?$string_output_adapter@D@__crt_stdio_output@@@__crt_stdio_output@@IAE_NAAD@Z 10044870 f i libucrtd:output.obj
 0001:000438a0       ??$extract_argument_from_va_list@G_J@?$positional_parameter_base@DV?$stream_output_adapter@D@__crt_stdio_output@@@__crt_stdio_output@@IAE_NAA_J@Z 100448a0 f i libucrtd:output.obj
 0001:000439e0       ??$extract_argument_from_va_list@G_J@?$positional_parameter_base@DV?$string_output_adapter@D@__crt_stdio_output@@@__crt_stdio_output@@IAE_NAA_J@Z 100449e0 f i libucrtd:output.obj
 0001:00043b20       ??$extract_argument_from_va_list@G_J@?$positional_parameter_base@_WV?$stream_output_adapter@_W@__crt_stdio_output@@@__crt_stdio_output@@IAE_NAA_J@Z 10044b20 f i libucrtd:output.obj
 0001:00043c60       ??$extract_argument_from_va_list@G_J@?$positional_parameter_base@_WV?$string_output_adapter@_W@__crt_stdio_output@@@__crt_stdio_output@@IAE_NAA_J@Z 10044c60 f i libucrtd:output.obj
 0001:00043da0       ??$extract_argument_from_va_list@G_J@?$standard_base@DV?$stream_output_adapter@D@__crt_stdio_output@@@__crt_stdio_output@@IAE_NAA_J@Z 10044da0 f i libucrtd:output.obj
 0001:00043dd0       ??$extract_argument_from_va_list@G_J@?$standard_base@DV?$string_output_adapter@D@__crt_stdio_output@@@__crt_stdio_output@@IAE_NAA_J@Z 10044dd0 f i libucrtd:output.obj
 0001:00043e00       ??$extract_argument_from_va_list@G_J@?$standard_base@_WV?$stream_output_adapter@_W@__crt_stdio_output@@@__crt_stdio_output@@IAE_NAA_J@Z 10044e00 f i libucrtd:output.obj
 0001:00043e30       ??$extract_argument_from_va_list@G_J@?$standard_base@_WV?$string_output_adapter@_W@__crt_stdio_output@@@__crt_stdio_output@@IAE_NAA_J@Z 10044e30 f i libucrtd:output.obj
 0001:00043e60       ??$extract_argument_from_va_list@H_J@?$positional_parameter_base@DV?$stream_output_adapter@D@__crt_stdio_output@@@__crt_stdio_output@@IAE_NAA_J@Z 10044e60 f i libucrtd:output.obj
 0001:00043f90       ??$extract_argument_from_va_list@H_J@?$positional_parameter_base@DV?$string_output_adapter@D@__crt_stdio_output@@@__crt_stdio_output@@IAE_NAA_J@Z 10044f90 f i libucrtd:output.obj
 0001:000440c0       ??$extract_argument_from_va_list@H_J@?$positional_parameter_base@_WV?$stream_output_adapter@_W@__crt_stdio_output@@@__crt_stdio_output@@IAE_NAA_J@Z 100450c0 f i libucrtd:output.obj
 0001:000441f0       ??$extract_argument_from_va_list@H_J@?$positional_parameter_base@_WV?$string_output_adapter@_W@__crt_stdio_output@@@__crt_stdio_output@@IAE_NAA_J@Z 100451f0 f i libucrtd:output.obj
 0001:00044320       ??$extract_argument_from_va_list@H_J@?$standard_base@DV?$stream_output_adapter@D@__crt_stdio_output@@@__crt_stdio_output@@IAE_NAA_J@Z 10045320 f i libucrtd:output.obj
 0001:00044350       ??$extract_argument_from_va_list@H_J@?$standard_base@DV?$string_output_adapter@D@__crt_stdio_output@@@__crt_stdio_output@@IAE_NAA_J@Z 10045350 f i libucrtd:output.obj
 0001:00044380       ??$extract_argument_from_va_list@H_J@?$standard_base@_WV?$stream_output_adapter@_W@__crt_stdio_output@@@__crt_stdio_output@@IAE_NAA_J@Z 10045380 f i libucrtd:output.obj
 0001:000443b0       ??$extract_argument_from_va_list@H_J@?$standard_base@_WV?$string_output_adapter@_W@__crt_stdio_output@@@__crt_stdio_output@@IAE_NAA_J@Z 100453b0 f i libucrtd:output.obj
 0001:000443e0       ??$extract_argument_from_va_list@I_J@?$positional_parameter_base@DV?$stream_output_adapter@D@__crt_stdio_output@@@__crt_stdio_output@@IAE_NAA_J@Z 100453e0 f i libucrtd:output.obj
 0001:00044510       ??$extract_argument_from_va_list@I_J@?$positional_parameter_base@DV?$string_output_adapter@D@__crt_stdio_output@@@__crt_stdio_output@@IAE_NAA_J@Z 10045510 f i libucrtd:output.obj
 0001:00044640       ??$extract_argument_from_va_list@I_J@?$positional_parameter_base@_WV?$stream_output_adapter@_W@__crt_stdio_output@@@__crt_stdio_output@@IAE_NAA_J@Z 10045640 f i libucrtd:output.obj
 0001:00044770       ??$extract_argument_from_va_list@I_J@?$positional_parameter_base@_WV?$string_output_adapter@_W@__crt_stdio_output@@@__crt_stdio_output@@IAE_NAA_J@Z 10045770 f i libucrtd:output.obj
 0001:000448a0       ??$extract_argument_from_va_list@I_J@?$standard_base@DV?$stream_output_adapter@D@__crt_stdio_output@@@__crt_stdio_output@@IAE_NAA_J@Z 100458a0 f i libucrtd:output.obj
 0001:000448d0       ??$extract_argument_from_va_list@I_J@?$standard_base@DV?$string_output_adapter@D@__crt_stdio_output@@@__crt_stdio_output@@IAE_NAA_J@Z 100458d0 f i libucrtd:output.obj
 0001:00044900       ??$extract_argument_from_va_list@I_J@?$standard_base@_WV?$stream_output_adapter@_W@__crt_stdio_output@@@__crt_stdio_output@@IAE_NAA_J@Z 10045900 f i libucrtd:output.obj
 0001:00044930       ??$extract_argument_from_va_list@I_J@?$standard_base@_WV?$string_output_adapter@_W@__crt_stdio_output@@@__crt_stdio_output@@IAE_NAA_J@Z 10045930 f i libucrtd:output.obj
 0001:00044960       ??$extract_argument_from_va_list@PADPAD@?$positional_parameter_base@DV?$stream_output_adapter@D@__crt_stdio_output@@@__crt_stdio_output@@IAE_NAAPAD@Z 10045960 f i libucrtd:output.obj
 0001:00044a90       ??$extract_argument_from_va_list@PADPAD@?$positional_parameter_base@DV?$string_output_adapter@D@__crt_stdio_output@@@__crt_stdio_output@@IAE_NAAPAD@Z 10045a90 f i libucrtd:output.obj
 0001:00044bc0       ??$extract_argument_from_va_list@PADPAD@?$positional_parameter_base@_WV?$stream_output_adapter@_W@__crt_stdio_output@@@__crt_stdio_output@@IAE_NAAPAD@Z 10045bc0 f i libucrtd:output.obj
 0001:00044cf0       ??$extract_argument_from_va_list@PADPAD@?$positional_parameter_base@_WV?$string_output_adapter@_W@__crt_stdio_output@@@__crt_stdio_output@@IAE_NAAPAD@Z 10045cf0 f i libucrtd:output.obj
 0001:00044e20       ??$extract_argument_from_va_list@PADPAD@?$standard_base@DV?$stream_output_adapter@D@__crt_stdio_output@@@__crt_stdio_output@@IAE_NAAPAD@Z 10045e20 f i libucrtd:output.obj
 0001:00044e50       ??$extract_argument_from_va_list@PADPAD@?$standard_base@DV?$string_output_adapter@D@__crt_stdio_output@@@__crt_stdio_output@@IAE_NAAPAD@Z 10045e50 f i libucrtd:output.obj
 0001:00044e80       ??$extract_argument_from_va_list@PADPAD@?$standard_base@_WV?$stream_output_adapter@_W@__crt_stdio_output@@@__crt_stdio_output@@IAE_NAAPAD@Z 10045e80 f i libucrtd:output.obj
 0001:00044eb0       ??$extract_argument_from_va_list@PADPAD@?$standard_base@_WV?$string_output_adapter@_W@__crt_stdio_output@@@__crt_stdio_output@@IAE_NAAPAD@Z 10045eb0 f i libucrtd:output.obj
 0001:000455e0       ??$extract_argument_from_va_list@PAXPAX@?$positional_parameter_base@DV?$stream_output_adapter@D@__crt_stdio_output@@@__crt_stdio_output@@IAE_NAAPAX@Z 100465e0 f i libucrtd:output.obj
 0001:00045710       ??$extract_argument_from_va_list@PAXPAX@?$positional_parameter_base@DV?$string_output_adapter@D@__crt_stdio_output@@@__crt_stdio_output@@IAE_NAAPAX@Z 10046710 f i libucrtd:output.obj
 0001:00045840       ??$extract_argument_from_va_list@PAXPAX@?$positional_parameter_base@_WV?$stream_output_adapter@_W@__crt_stdio_output@@@__crt_stdio_output@@IAE_NAAPAX@Z 10046840 f i libucrtd:output.obj
 0001:00045970       ??$extract_argument_from_va_list@PAXPAX@?$positional_parameter_base@_WV?$string_output_adapter@_W@__crt_stdio_output@@@__crt_stdio_output@@IAE_NAAPAX@Z 10046970 f i libucrtd:output.obj
 0001:00045aa0       ??$extract_argument_from_va_list@PAXPAX@?$standard_base@DV?$stream_output_adapter@D@__crt_stdio_output@@@__crt_stdio_output@@IAE_NAAPAX@Z 10046aa0 f i libucrtd:output.obj
 0001:00045ad0       ??$extract_argument_from_va_list@PAXPAX@?$standard_base@DV?$string_output_adapter@D@__crt_stdio_output@@@__crt_stdio_output@@IAE_NAAPAX@Z 10046ad0 f i libucrtd:output.obj
 0001:00045b00       ??$extract_argument_from_va_list@PAXPAX@?$standard_base@_WV?$stream_output_adapter@_W@__crt_stdio_output@@@__crt_stdio_output@@IAE_NAAPAX@Z 10046b00 f i libucrtd:output.obj
 0001:00045b30       ??$extract_argument_from_va_list@PAXPAX@?$standard_base@_WV?$string_output_adapter@_W@__crt_stdio_output@@@__crt_stdio_output@@IAE_NAAPAX@Z 10046b30 f i libucrtd:output.obj
 0001:00045b60       ??$extract_argument_from_va_list@U_CRT_DOUBLE@@U1@@?$positional_parameter_base@DV?$stream_output_adapter@D@__crt_stdio_output@@@__crt_stdio_output@@IAE_NAAU_CRT_DOUBLE@@@Z 10046b60 f i libucrtd:output.obj
 0001:00045cc0       ??$extract_argument_from_va_list@U_CRT_DOUBLE@@U1@@?$positional_parameter_base@DV?$string_output_adapter@D@__crt_stdio_output@@@__crt_stdio_output@@IAE_NAAU_CRT_DOUBLE@@@Z 10046cc0 f i libucrtd:output.obj
 0001:00045e20       ??$extract_argument_from_va_list@U_CRT_DOUBLE@@U1@@?$positional_parameter_base@_WV?$stream_output_adapter@_W@__crt_stdio_output@@@__crt_stdio_output@@IAE_NAAU_CRT_DOUBLE@@@Z 10046e20 f i libucrtd:output.obj
 0001:00045f80       ??$extract_argument_from_va_list@U_CRT_DOUBLE@@U1@@?$positional_parameter_base@_WV?$string_output_adapter@_W@__crt_stdio_output@@@__crt_stdio_output@@IAE_NAAU_CRT_DOUBLE@@@Z 10046f80 f i libucrtd:output.obj
 0001:000460e0       ??$extract_argument_from_va_list@U_CRT_DOUBLE@@U1@@?$standard_base@DV?$stream_output_adapter@D@__crt_stdio_output@@@__crt_stdio_output@@IAE_NAAU_CRT_DOUBLE@@@Z 100470e0 f i libucrtd:output.obj
 0001:00046130       ??$extract_argument_from_va_list@U_CRT_DOUBLE@@U1@@?$standard_base@DV?$string_output_adapter@D@__crt_stdio_output@@@__crt_stdio_output@@IAE_NAAU_CRT_DOUBLE@@@Z 10047130 f i libucrtd:output.obj
 0001:00046180       ??$extract_argument_from_va_list@U_CRT_DOUBLE@@U1@@?$standard_base@_WV?$stream_output_adapter@_W@__crt_stdio_output@@@__crt_stdio_output@@IAE_NAAU_CRT_DOUBLE@@@Z 10047180 f i libucrtd:output.obj
 0001:000461d0       ??$extract_argument_from_va_list@U_CRT_DOUBLE@@U1@@?$standard_base@_WV?$string_output_adapter@_W@__crt_stdio_output@@@__crt_stdio_output@@IAE_NAAU_CRT_DOUBLE@@@Z 100471d0 f i libucrtd:output.obj
 0001:00046220       ??$extract_argument_from_va_list@_J_J@?$positional_parameter_base@DV?$stream_output_adapter@D@__crt_stdio_output@@@__crt_stdio_output@@IAE_NAA_J@Z 10047220 f i libucrtd:output.obj
 0001:00046350       ??$extract_argument_from_va_list@_J_J@?$positional_parameter_base@DV?$string_output_adapter@D@__crt_stdio_output@@@__crt_stdio_output@@IAE_NAA_J@Z 10047350 f i libucrtd:output.obj
 0001:00046480       ??$extract_argument_from_va_list@_J_J@?$positional_parameter_base@_WV?$stream_output_adapter@_W@__crt_stdio_output@@@__crt_stdio_output@@IAE_NAA_J@Z 10047480 f i libucrtd:output.obj
 0001:000465b0       ??$extract_argument_from_va_list@_J_J@?$positional_parameter_base@_WV?$string_output_adapter@_W@__crt_stdio_output@@@__crt_stdio_output@@IAE_NAA_J@Z 100475b0 f i libucrtd:output.obj
 0001:000466e0       ??$extract_argument_from_va_list@_J_J@?$standard_base@DV?$stream_output_adapter@D@__crt_stdio_output@@@__crt_stdio_output@@IAE_NAA_J@Z 100476e0 f i libucrtd:output.obj
 0001:00046710       ??$extract_argument_from_va_list@_J_J@?$standard_base@DV?$string_output_adapter@D@__crt_stdio_output@@@__crt_stdio_output@@IAE_NAA_J@Z 10047710 f i libucrtd:output.obj
 0001:00046740       ??$extract_argument_from_va_list@_J_J@?$standard_base@_WV?$stream_output_adapter@_W@__crt_stdio_output@@@__crt_stdio_output@@IAE_NAA_J@Z 10047740 f i libucrtd:output.obj
 0001:00046770       ??$extract_argument_from_va_list@_J_J@?$standard_base@_WV?$string_output_adapter@_W@__crt_stdio_output@@@__crt_stdio_output@@IAE_NAA_J@Z 10047770 f i libucrtd:output.obj
 0001:000467a0       ??$extract_argument_from_va_list@_K_J@?$positional_parameter_base@DV?$stream_output_adapter@D@__crt_stdio_output@@@__crt_stdio_output@@IAE_NAA_J@Z 100477a0 f i libucrtd:output.obj
 0001:000468d0       ??$extract_argument_from_va_list@_K_J@?$positional_parameter_base@DV?$string_output_adapter@D@__crt_stdio_output@@@__crt_stdio_output@@IAE_NAA_J@Z 100478d0 f i libucrtd:output.obj
 0001:00046a00       ??$extract_argument_from_va_list@_K_J@?$positional_parameter_base@_WV?$stream_output_adapter@_W@__crt_stdio_output@@@__crt_stdio_output@@IAE_NAA_J@Z 10047a00 f i libucrtd:output.obj
 0001:00046b30       ??$extract_argument_from_va_list@_K_J@?$positional_parameter_base@_WV?$string_output_adapter@_W@__crt_stdio_output@@@__crt_stdio_output@@IAE_NAA_J@Z 10047b30 f i libucrtd:output.obj
 0001:00046c60       ??$extract_argument_from_va_list@_K_J@?$standard_base@DV?$stream_output_adapter@D@__crt_stdio_output@@@__crt_stdio_output@@IAE_NAA_J@Z 10047c60 f i libucrtd:output.obj
 0001:00046c90       ??$extract_argument_from_va_list@_K_J@?$standard_base@DV?$string_output_adapter@D@__crt_stdio_output@@@__crt_stdio_output@@IAE_NAA_J@Z 10047c90 f i libucrtd:output.obj
 0001:00046cc0       ??$extract_argument_from_va_list@_K_J@?$standard_base@_WV?$stream_output_adapter@_W@__crt_stdio_output@@@__crt_stdio_output@@IAE_NAA_J@Z 10047cc0 f i libucrtd:output.obj
 0001:00046cf0       ??$extract_argument_from_va_list@_K_J@?$standard_base@_WV?$string_output_adapter@_W@__crt_stdio_output@@@__crt_stdio_output@@IAE_NAA_J@Z 10047cf0 f i libucrtd:output.obj
 0001:00046d20       ??$extract_argument_from_va_list@_W_W@?$positional_parameter_base@DV?$stream_output_adapter@D@__crt_stdio_output@@@__crt_stdio_output@@IAE_NAA_W@Z 10047d20 f i libucrtd:output.obj
 0001:00046e50       ??$extract_argument_from_va_list@_W_W@?$positional_parameter_base@DV?$string_output_adapter@D@__crt_stdio_output@@@__crt_stdio_output@@IAE_NAA_W@Z 10047e50 f i libucrtd:output.obj
 0001:00046f80       ??$extract_argument_from_va_list@_W_W@?$positional_parameter_base@_WV?$stream_output_adapter@_W@__crt_stdio_output@@@__crt_stdio_output@@IAE_NAA_W@Z 10047f80 f i libucrtd:output.obj
 0001:000470b0       ??$extract_argument_from_va_list@_W_W@?$positional_parameter_base@_WV?$string_output_adapter@_W@__crt_stdio_output@@@__crt_stdio_output@@IAE_NAA_W@Z 100480b0 f i libucrtd:output.obj
 0001:000471e0       ??$extract_argument_from_va_list@_W_W@?$standard_base@DV?$stream_output_adapter@D@__crt_stdio_output@@@__crt_stdio_output@@IAE_NAA_W@Z 100481e0 f i libucrtd:output.obj
 0001:00047210       ??$extract_argument_from_va_list@_W_W@?$standard_base@DV?$string_output_adapter@D@__crt_stdio_output@@@__crt_stdio_output@@IAE_NAA_W@Z 10048210 f i libucrtd:output.obj
 0001:00047240       ??$extract_argument_from_va_list@_W_W@?$standard_base@_WV?$stream_output_adapter@_W@__crt_stdio_output@@@__crt_stdio_output@@IAE_NAA_W@Z 10048240 f i libucrtd:output.obj
 0001:00047270       ??$extract_argument_from_va_list@_W_W@?$standard_base@_WV?$string_output_adapter@_W@__crt_stdio_output@@@__crt_stdio_output@@IAE_NAA_W@Z 10048270 f i libucrtd:output.obj
 0001:000472a0       ??$get_parameter_type@D@?$positional_parameter_base@DV?$stream_output_adapter@D@__crt_stdio_output@@@__crt_stdio_output@@CA?AW4parameter_type@01@PAD@Z 100482a0 f i libucrtd:output.obj
 0001:000472b0       ??$get_parameter_type@D@?$positional_parameter_base@DV?$string_output_adapter@D@__crt_stdio_output@@@__crt_stdio_output@@CA?AW4parameter_type@01@PAD@Z 100482b0 f i libucrtd:output.obj
 0001:000472c0       ??$get_parameter_type@D@?$positional_parameter_base@_WV?$stream_output_adapter@_W@__crt_stdio_output@@@__crt_stdio_output@@CA?AW4parameter_type@01@PAD@Z 100482c0 f i libucrtd:output.obj
 0001:000472d0       ??$get_parameter_type@D@?$positional_parameter_base@_WV?$string_output_adapter@_W@__crt_stdio_output@@@__crt_stdio_output@@CA?AW4parameter_type@01@PAD@Z 100482d0 f i libucrtd:output.obj
 0001:00047320       ??$get_parameter_type@X@?$positional_parameter_base@DV?$stream_output_adapter@D@__crt_stdio_output@@@__crt_stdio_output@@CA?AW4parameter_type@01@PAX@Z 10048320 f i libucrtd:output.obj
 0001:00047330       ??$get_parameter_type@X@?$positional_parameter_base@DV?$string_output_adapter@D@__crt_stdio_output@@@__crt_stdio_output@@CA?AW4parameter_type@01@PAX@Z 10048330 f i libucrtd:output.obj
 0001:00047340       ??$get_parameter_type@X@?$positional_parameter_base@_WV?$stream_output_adapter@_W@__crt_stdio_output@@@__crt_stdio_output@@CA?AW4parameter_type@01@PAX@Z 10048340 f i libucrtd:output.obj
 0001:00047350       ??$get_parameter_type@X@?$positional_parameter_base@_WV?$string_output_adapter@_W@__crt_stdio_output@@@__crt_stdio_output@@CA?AW4parameter_type@01@PAX@Z 10048350 f i libucrtd:output.obj
 0001:00047360       ??$is_character_specifier@D@?$positional_parameter_base@DV?$stream_output_adapter@D@__crt_stdio_output@@@__crt_stdio_output@@CA_ND@Z 10048360 f i libucrtd:output.obj
 0001:00047390       ??$is_character_specifier@D@?$positional_parameter_base@DV?$string_output_adapter@D@__crt_stdio_output@@@__crt_stdio_output@@CA_ND@Z 10048390 f i libucrtd:output.obj
 0001:000473c0       ??$is_character_specifier@_W@?$positional_parameter_base@_WV?$stream_output_adapter@_W@__crt_stdio_output@@@__crt_stdio_output@@CA_N_W@Z 100483c0 f i libucrtd:output.obj
 0001:000473f0       ??$is_character_specifier@_W@?$positional_parameter_base@_WV?$string_output_adapter@_W@__crt_stdio_output@@@__crt_stdio_output@@CA_N_W@Z 100483f0 f i libucrtd:output.obj
 0001:00047420       ??$is_integral_specifier@D@?$positional_parameter_base@DV?$stream_output_adapter@D@__crt_stdio_output@@@__crt_stdio_output@@CA_ND@Z 10048420 f i libucrtd:output.obj
 0001:00047480       ??$is_integral_specifier@D@?$positional_parameter_base@DV?$string_output_adapter@D@__crt_stdio_output@@@__crt_stdio_output@@CA_ND@Z 10048480 f i libucrtd:output.obj
 0001:000474e0       ??$is_integral_specifier@_W@?$positional_parameter_base@_WV?$stream_output_adapter@_W@__crt_stdio_output@@@__crt_stdio_output@@CA_N_W@Z 100484e0 f i libucrtd:output.obj
 0001:00047540       ??$is_integral_specifier@_W@?$positional_parameter_base@_WV?$string_output_adapter@_W@__crt_stdio_output@@@__crt_stdio_output@@CA_N_W@Z 10048540 f i libucrtd:output.obj
 0001:000475a0       ??$is_pointer_specifier@D@?$positional_parameter_base@DV?$stream_output_adapter@D@__crt_stdio_output@@@__crt_stdio_output@@CA_ND@Z 100485a0 f i libucrtd:output.obj
 0001:000475d0       ??$is_pointer_specifier@D@?$positional_parameter_base@DV?$string_output_adapter@D@__crt_stdio_output@@@__crt_stdio_output@@CA_ND@Z 100485d0 f i libucrtd:output.obj
 0001:00047600       ??$is_pointer_specifier@_W@?$positional_parameter_base@_WV?$stream_output_adapter@_W@__crt_stdio_output@@@__crt_stdio_output@@CA_N_W@Z 10048600 f i libucrtd:output.obj
 0001:00047630       ??$is_pointer_specifier@_W@?$positional_parameter_base@_WV?$string_output_adapter@_W@__crt_stdio_output@@@__crt_stdio_output@@CA_N_W@Z 10048630 f i libucrtd:output.obj
 0001:00047660       ??$is_string_specifier@D@?$positional_parameter_base@DV?$stream_output_adapter@D@__crt_stdio_output@@@__crt_stdio_output@@CA_ND@Z 10048660 f i libucrtd:output.obj
 0001:00047690       ??$is_string_specifier@D@?$positional_parameter_base@DV?$string_output_adapter@D@__crt_stdio_output@@@__crt_stdio_output@@CA_ND@Z 10048690 f i libucrtd:output.obj
 0001:000476c0       ??$is_string_specifier@_W@?$positional_parameter_base@_WV?$stream_output_adapter@_W@__crt_stdio_output@@@__crt_stdio_output@@CA_N_W@Z 100486c0 f i libucrtd:output.obj
 0001:000476f0       ??$is_string_specifier@_W@?$positional_parameter_base@_WV?$string_output_adapter@_W@__crt_stdio_output@@@__crt_stdio_output@@CA_N_W@Z 100486f0 f i libucrtd:output.obj
 0001:00047720       ??$is_wide_character_specifier@D@__crt_stdio_output@@YA_N_KDW4length_modifier@0@@Z 10048720 f i libucrtd:output.obj
 0001:000477a0       ??$is_wide_character_specifier@_W@__crt_stdio_output@@YA_N_K_WW4length_modifier@0@@Z 100487a0 f i libucrtd:output.obj
 0001:00047860       ??$peek_va_arg@C@__crt_stdio_output@@YACPAD@Z 10048860 f i libucrtd:output.obj
 0001:00047880       ??$peek_va_arg@E@__crt_stdio_output@@YAEPAD@Z 10048880 f i libucrtd:output.obj
 0001:000478a0       ??$peek_va_arg@F@__crt_stdio_output@@YAFPAD@Z 100488a0 f i libucrtd:output.obj
 0001:000478c0       ??$peek_va_arg@G@__crt_stdio_output@@YAGPAD@Z 100488c0 f i libucrtd:output.obj
 0001:000478e0       ??$peek_va_arg@H@__crt_stdio_output@@YAHPAD@Z 100488e0 f i libucrtd:output.obj
 0001:00047900       ??$peek_va_arg@I@__crt_stdio_output@@YAIPAD@Z 10048900 f i libucrtd:output.obj
 0001:00047920       ??$peek_va_arg@PAD@__crt_stdio_output@@YAPADPAD@Z 10048920 f i libucrtd:output.obj
 0001:000479c0       ??$peek_va_arg@PAX@__crt_stdio_output@@YAPAXPAD@Z 100489c0 f i libucrtd:output.obj
 0001:000479e0       ??$peek_va_arg@U_CRT_DOUBLE@@@__crt_stdio_output@@YA?AU_CRT_DOUBLE@@PAD@Z 100489e0 f i libucrtd:output.obj
 0001:00047a00       ??$peek_va_arg@_J@__crt_stdio_output@@YA_JPAD@Z 10048a00 f i libucrtd:output.obj
 0001:00047a20       ??$peek_va_arg@_K@__crt_stdio_output@@YA_KPAD@Z 10048a20 f i libucrtd:output.obj
 0001:00047a40       ??$peek_va_arg@_W@__crt_stdio_output@@YA_WPAD@Z 10048a40 f i libucrtd:output.obj
 0001:00047a60       ??$puttc_nolock@ABDPAU_iobuf@@@?$__crt_char_traits@D@@SAHABD$$QAPAU_iobuf@@@Z 10048a60 f i libucrtd:output.obj
 0001:00047a80       ??$puttc_nolock@AB_WPAU_iobuf@@@?$__crt_char_traits@_W@@SAGAB_W$$QAPAU_iobuf@@@Z 10048a80 f i libucrtd:output.obj
 0001:00047aa0       ??$read_va_arg@C@__crt_stdio_output@@YACAAPAD@Z 10048aa0 f i libucrtd:output.obj
 0001:00047ac0       ??$read_va_arg@E@__crt_stdio_output@@YAEAAPAD@Z 10048ac0 f i libucrtd:output.obj
 0001:00047ae0       ??$read_va_arg@F@__crt_stdio_output@@YAFAAPAD@Z 10048ae0 f i libucrtd:output.obj
 0001:00047b00       ??$read_va_arg@G@__crt_stdio_output@@YAGAAPAD@Z 10048b00 f i libucrtd:output.obj
 0001:00047b20       ??$read_va_arg@H@__crt_stdio_output@@YAHAAPAD@Z 10048b20 f i libucrtd:output.obj
 0001:00047b40       ??$read_va_arg@I@__crt_stdio_output@@YAIAAPAD@Z 10048b40 f i libucrtd:output.obj
 0001:00047b60       ??$read_va_arg@PAD@__crt_stdio_output@@YAPADAAPAD@Z 10048b60 f i libucrtd:output.obj
 0001:00047d00       ??$read_va_arg@PAX@__crt_stdio_output@@YAPAXAAPAD@Z 10048d00 f i libucrtd:output.obj
 0001:00047d20       ??$read_va_arg@U_CRT_DOUBLE@@@__crt_stdio_output@@YA?AU_CRT_DOUBLE@@AAPAD@Z 10048d20 f i libucrtd:output.obj
 0001:00047d40       ??$read_va_arg@_J@__crt_stdio_output@@YA_JAAPAD@Z 10048d40 f i libucrtd:output.obj
 0001:00047d60       ??$read_va_arg@_K@__crt_stdio_output@@YA_KAAPAD@Z 10048d60 f i libucrtd:output.obj
 0001:00047d80       ??$read_va_arg@_W@__crt_stdio_output@@YA_WAAPAD@Z 10048d80 f i libucrtd:output.obj
 0001:00047da0       ??$scratch_count@D@formatting_buffer@__crt_stdio_output@@QBEIXZ 10048da0 f i libucrtd:output.obj
 0001:00047dc0       ??$scratch_data@D@formatting_buffer@__crt_stdio_output@@QAEPADXZ 10048dc0 f i libucrtd:output.obj
 0001:00047e10       ??$tcstol@AAPBDPAPADH@?$__crt_char_traits@D@@SAJAAPBD$$QAPAPAD$$QAH@Z 10048e10 f i libucrtd:output.obj
 0001:00047e40       ??$tcstol@AAPB_WPAPA_WH@?$__crt_char_traits@_W@@SAJAAPB_W$$QAPAPA_W$$QAH@Z 10048e40 f i libucrtd:output.obj
 0001:00047e70       ??$tcstol@PBDPAPADH@?$__crt_char_traits@D@@SAJ$$QAPBD$$QAPAPAD$$QAH@Z 10048e70 f i libucrtd:output.obj
 0001:00047ea0       ??$tcstol@PB_WPAPA_WH@?$__crt_char_traits@_W@@SAJ$$QAPB_W$$QAPAPA_W$$QAH@Z 10048ea0 f i libucrtd:output.obj
 0001:00047ed0       ??$type_case_integer_parse_into_buffer@I@?$output_processor@DV?$stream_output_adapter@D@__crt_stdio_output@@V?$format_validation_base@DV?$stream_output_adapter@D@__crt_stdio_output@@@2@@__crt_stdio_output@@AAEXII_N@Z 10048ed0 f i libucrtd:output.obj
 0001:00047fa0       ??$type_case_integer_parse_into_buffer@I@?$output_processor@DV?$stream_output_adapter@D@__crt_stdio_output@@V?$positional_parameter_base@DV?$stream_output_adapter@D@__crt_stdio_output@@@2@@__crt_stdio_output@@AAEXII_N@Z 10048fa0 f i libucrtd:output.obj
 0001:00048070       ??$type_case_integer_parse_into_buffer@I@?$output_processor@DV?$stream_output_adapter@D@__crt_stdio_output@@V?$standard_base@DV?$stream_output_adapter@D@__crt_stdio_output@@@2@@__crt_stdio_output@@AAEXII_N@Z 10049070 f i libucrtd:output.obj
 0001:00048140       ??$type_case_integer_parse_into_buffer@I@?$output_processor@DV?$string_output_adapter@D@__crt_stdio_output@@V?$format_validation_base@DV?$string_output_adapter@D@__crt_stdio_output@@@2@@__crt_stdio_output@@AAEXII_N@Z 10049140 f i libucrtd:output.obj
 0001:00048210       ??$type_case_integer_parse_into_buffer@I@?$output_processor@DV?$string_output_adapter@D@__crt_stdio_output@@V?$positional_parameter_base@DV?$string_output_adapter@D@__crt_stdio_output@@@2@@__crt_stdio_output@@AAEXII_N@Z 10049210 f i libucrtd:output.obj
 0001:000482e0       ??$type_case_integer_parse_into_buffer@I@?$output_processor@DV?$string_output_adapter@D@__crt_stdio_output@@V?$standard_base@DV?$string_output_adapter@D@__crt_stdio_output@@@2@@__crt_stdio_output@@AAEXII_N@Z 100492e0 f i libucrtd:output.obj
 0001:000483b0       ??$type_case_integer_parse_into_buffer@I@?$output_processor@_WV?$stream_output_adapter@_W@__crt_stdio_output@@V?$format_validation_base@_WV?$stream_output_adapter@_W@__crt_stdio_output@@@2@@__crt_stdio_output@@AAEXII_N@Z 100493b0 f i libucrtd:output.obj
 0001:00048490       ??$type_case_integer_parse_into_buffer@I@?$output_processor@_WV?$stream_output_adapter@_W@__crt_stdio_output@@V?$positional_parameter_base@_WV?$stream_output_adapter@_W@__crt_stdio_output@@@2@@__crt_stdio_output@@AAEXII_N@Z 10049490 f i libucrtd:output.obj
 0001:00048570       ??$type_case_integer_parse_into_buffer@I@?$output_processor@_WV?$stream_output_adapter@_W@__crt_stdio_output@@V?$standard_base@_WV?$stream_output_adapter@_W@__crt_stdio_output@@@2@@__crt_stdio_output@@AAEXII_N@Z 10049570 f i libucrtd:output.obj
 0001:00048650       ??$type_case_integer_parse_into_buffer@I@?$output_processor@_WV?$string_output_adapter@_W@__crt_stdio_output@@V?$format_validation_base@_WV?$string_output_adapter@_W@__crt_stdio_output@@@2@@__crt_stdio_output@@AAEXII_N@Z 10049650 f i libucrtd:output.obj
 0001:00048730       ??$type_case_integer_parse_into_buffer@I@?$output_processor@_WV?$string_output_adapter@_W@__crt_stdio_output@@V?$positional_parameter_base@_WV?$string_output_adapter@_W@__crt_stdio_output@@@2@@__crt_stdio_output@@AAEXII_N@Z 10049730 f i libucrtd:output.obj
 0001:00048810       ??$type_case_integer_parse_into_buffer@I@?$output_processor@_WV?$string_output_adapter@_W@__crt_stdio_output@@V?$standard_base@_WV?$string_output_adapter@_W@__crt_stdio_output@@@2@@__crt_stdio_output@@AAEXII_N@Z 10049810 f i libucrtd:output.obj
 0001:000488f0       ??$type_case_integer_parse_into_buffer@_K@?$output_processor@DV?$stream_output_adapter@D@__crt_stdio_output@@V?$format_validation_base@DV?$stream_output_adapter@D@__crt_stdio_output@@@2@@__crt_stdio_output@@AAEX_KI_N@Z 100498f0 f i libucrtd:output.obj
 0001:000489e0       ??$type_case_integer_parse_into_buffer@_K@?$output_processor@DV?$stream_output_adapter@D@__crt_stdio_output@@V?$positional_parameter_base@DV?$stream_output_adapter@D@__crt_stdio_output@@@2@@__crt_stdio_output@@AAEX_KI_N@Z 100499e0 f i libucrtd:output.obj
 0001:00048ad0       ??$type_case_integer_parse_into_buffer@_K@?$output_processor@DV?$stream_output_adapter@D@__crt_stdio_output@@V?$standard_base@DV?$stream_output_adapter@D@__crt_stdio_output@@@2@@__crt_stdio_output@@AAEX_KI_N@Z 10049ad0 f i libucrtd:output.obj
 0001:00048bc0       ??$type_case_integer_parse_into_buffer@_K@?$output_processor@DV?$string_output_adapter@D@__crt_stdio_output@@V?$format_validation_base@DV?$string_output_adapter@D@__crt_stdio_output@@@2@@__crt_stdio_output@@AAEX_KI_N@Z 10049bc0 f i libucrtd:output.obj
 0001:00048cb0       ??$type_case_integer_parse_into_buffer@_K@?$output_processor@DV?$string_output_adapter@D@__crt_stdio_output@@V?$positional_parameter_base@DV?$string_output_adapter@D@__crt_stdio_output@@@2@@__crt_stdio_output@@AAEX_KI_N@Z 10049cb0 f i libucrtd:output.obj
 0001:00048da0       ??$type_case_integer_parse_into_buffer@_K@?$output_processor@DV?$string_output_adapter@D@__crt_stdio_output@@V?$standard_base@DV?$string_output_adapter@D@__crt_stdio_output@@@2@@__crt_stdio_output@@AAEX_KI_N@Z 10049da0 f i libucrtd:output.obj
 0001:00048e90       ??$type_case_integer_parse_into_buffer@_K@?$output_processor@_WV?$stream_output_adapter@_W@__crt_stdio_output@@V?$format_validation_base@_WV?$stream_output_adapter@_W@__crt_stdio_output@@@2@@__crt_stdio_output@@AAEX_KI_N@Z 10049e90 f i libucrtd:output.obj
 0001:00048f90       ??$type_case_integer_parse_into_buffer@_K@?$output_processor@_WV?$stream_output_adapter@_W@__crt_stdio_output@@V?$positional_parameter_base@_WV?$stream_output_adapter@_W@__crt_stdio_output@@@2@@__crt_stdio_output@@AAEX_KI_N@Z 10049f90 f i libucrtd:output.obj
 0001:00049090       ??$type_case_integer_parse_into_buffer@_K@?$output_processor@_WV?$stream_output_adapter@_W@__crt_stdio_output@@V?$standard_base@_WV?$stream_output_adapter@_W@__crt_stdio_output@@@2@@__crt_stdio_output@@AAEX_KI_N@Z 1004a090 f i libucrtd:output.obj
 0001:00049190       ??$type_case_integer_parse_into_buffer@_K@?$output_processor@_WV?$string_output_adapter@_W@__crt_stdio_output@@V?$format_validation_base@_WV?$string_output_adapter@_W@__crt_stdio_output@@@2@@__crt_stdio_output@@AAEX_KI_N@Z 1004a190 f i libucrtd:output.obj
 0001:00049290       ??$type_case_integer_parse_into_buffer@_K@?$output_processor@_WV?$string_output_adapter@_W@__crt_stdio_output@@V?$positional_parameter_base@_WV?$string_output_adapter@_W@__crt_stdio_output@@@2@@__crt_stdio_output@@AAEX_KI_N@Z 1004a290 f i libucrtd:output.obj
 0001:00049390       ??$type_case_integer_parse_into_buffer@_K@?$output_processor@_WV?$string_output_adapter@_W@__crt_stdio_output@@V?$standard_base@_WV?$string_output_adapter@_W@__crt_stdio_output@@@2@@__crt_stdio_output@@AAEX_KI_N@Z 1004a390 f i libucrtd:output.obj
 0001:00049490       ??$write_multiple_characters@V?$stream_output_adapter@D@__crt_stdio_output@@D@__crt_stdio_output@@YAXABV?$stream_output_adapter@D@0@DHQAH@Z 1004a490 f i libucrtd:output.obj
 0001:000494e0       ??$write_multiple_characters@V?$stream_output_adapter@_W@__crt_stdio_output@@D@__crt_stdio_output@@YAXABV?$stream_output_adapter@_W@0@DHQAH@Z 1004a4e0 f i libucrtd:output.obj
 0001:00049530       ??$write_multiple_characters@V?$string_output_adapter@D@__crt_stdio_output@@D@__crt_stdio_output@@YAXABV?$string_output_adapter@D@0@DHQAH@Z 1004a530 f i libucrtd:output.obj
 0001:00049580       ??$write_multiple_characters@V?$string_output_adapter@_W@__crt_stdio_output@@D@__crt_stdio_output@@YAXABV?$string_output_adapter@_W@0@DHQAH@Z 1004a580 f i libucrtd:output.obj
 0001:000498d0       ??0?$common_data@D@__crt_stdio_output@@IAE@XZ 1004a8d0 f i libucrtd:output.obj
 0001:00049980       ??0?$common_data@_W@__crt_stdio_output@@IAE@XZ 1004a980 f i libucrtd:output.obj
 0001:00049a30       ??0?$output_adapter_data@DV?$stream_output_adapter@D@__crt_stdio_output@@@__crt_stdio_output@@IAE@ABV?$stream_output_adapter@D@1@_KQBDQAU__crt_locale_pointers@@QAD@Z 1004aa30 f i libucrtd:output.obj
 0001:00049a90       ??0?$output_adapter_data@DV?$string_output_adapter@D@__crt_stdio_output@@@__crt_stdio_output@@IAE@ABV?$string_output_adapter@D@1@_KQBDQAU__crt_locale_pointers@@QAD@Z 1004aa90 f i libucrtd:output.obj
 0001:00049af0       ??0?$output_adapter_data@_WV?$stream_output_adapter@_W@__crt_stdio_output@@@__crt_stdio_output@@IAE@ABV?$stream_output_adapter@_W@1@_KQB_WQAU__crt_locale_pointers@@QAD@Z 1004aaf0 f i libucrtd:output.obj
 0001:00049b50       ??0?$output_adapter_data@_WV?$string_output_adapter@_W@__crt_stdio_output@@@__crt_stdio_output@@IAE@ABV?$string_output_adapter@_W@1@_KQB_WQAU__crt_locale_pointers@@QAD@Z 1004ab50 f i libucrtd:output.obj
 0001:00049bb0       ??0?$output_processor@DV?$stream_output_adapter@D@__crt_stdio_output@@V?$format_validation_base@DV?$stream_output_adapter@D@__crt_stdio_output@@@2@@__crt_stdio_output@@QAE@ABV?$stream_output_adapter@D@1@_KQBDQAU__crt_locale_pointers@@QAD@Z 1004abb0 f i libucrtd:output.obj
 0001:00049be0       ??0?$output_processor@DV?$stream_output_adapter@D@__crt_stdio_output@@V?$positional_parameter_base@DV?$stream_output_adapter@D@__crt_stdio_output@@@2@@__crt_stdio_output@@QAE@ABV?$stream_output_adapter@D@1@_KQBDQAU__crt_locale_pointers@@QAD@Z 1004abe0 f i libucrtd:output.obj
 0001:00049c10       ??0?$output_processor@DV?$stream_output_adapter@D@__crt_stdio_output@@V?$standard_base@DV?$stream_output_adapter@D@__crt_stdio_output@@@2@@__crt_stdio_output@@QAE@ABV?$stream_output_adapter@D@1@_KQBDQAU__crt_locale_pointers@@QAD@Z 1004ac10 f i libucrtd:output.obj
 0001:00049c40       ??0?$output_processor@DV?$string_output_adapter@D@__crt_stdio_output@@V?$format_validation_base@DV?$string_output_adapter@D@__crt_stdio_output@@@2@@__crt_stdio_output@@QAE@ABV?$string_output_adapter@D@1@_KQBDQAU__crt_locale_pointers@@QAD@Z 1004ac40 f i libucrtd:output.obj
 0001:00049c70       ??0?$output_processor@DV?$string_output_adapter@D@__crt_stdio_output@@V?$positional_parameter_base@DV?$string_output_adapter@D@__crt_stdio_output@@@2@@__crt_stdio_output@@QAE@ABV?$string_output_adapter@D@1@_KQBDQAU__crt_locale_pointers@@QAD@Z 1004ac70 f i libucrtd:output.obj
 0001:00049ca0       ??0?$output_processor@DV?$string_output_adapter@D@__crt_stdio_output@@V?$standard_base@DV?$string_output_adapter@D@__crt_stdio_output@@@2@@__crt_stdio_output@@QAE@ABV?$string_output_adapter@D@1@_KQBDQAU__crt_locale_pointers@@QAD@Z 1004aca0 f i libucrtd:output.obj
 0001:00049cd0       ??0?$output_processor@_WV?$stream_output_adapter@_W@__crt_stdio_output@@V?$format_validation_base@_WV?$stream_output_adapter@_W@__crt_stdio_output@@@2@@__crt_stdio_output@@QAE@ABV?$stream_output_adapter@_W@1@_KQB_WQAU__crt_locale_pointers@@QAD@Z 1004acd0 f i libucrtd:output.obj
 0001:00049d00       ??0?$output_processor@_WV?$stream_output_adapter@_W@__crt_stdio_output@@V?$positional_parameter_base@_WV?$stream_output_adapter@_W@__crt_stdio_output@@@2@@__crt_stdio_output@@QAE@ABV?$stream_output_adapter@_W@1@_KQB_WQAU__crt_locale_pointers@@QAD@Z 1004ad00 f i libucrtd:output.obj
 0001:00049d30       ??0?$output_processor@_WV?$stream_output_adapter@_W@__crt_stdio_output@@V?$standard_base@_WV?$stream_output_adapter@_W@__crt_stdio_output@@@2@@__crt_stdio_output@@QAE@ABV?$stream_output_adapter@_W@1@_KQB_WQAU__crt_locale_pointers@@QAD@Z 1004ad30 f i libucrtd:output.obj
 0001:00049d60       ??0?$output_processor@_WV?$string_output_adapter@_W@__crt_stdio_output@@V?$format_validation_base@_WV?$string_output_adapter@_W@__crt_stdio_output@@@2@@__crt_stdio_output@@QAE@ABV?$string_output_adapter@_W@1@_KQB_WQAU__crt_locale_pointers@@QAD@Z 1004ad60 f i libucrtd:output.obj
 0001:00049d90       ??0?$output_processor@_WV?$string_output_adapter@_W@__crt_stdio_output@@V?$positional_parameter_base@_WV?$string_output_adapter@_W@__crt_stdio_output@@@2@@__crt_stdio_output@@QAE@ABV?$string_output_adapter@_W@1@_KQB_WQAU__crt_locale_pointers@@QAD@Z 1004ad90 f i libucrtd:output.obj
 0001:00049dc0       ??0?$output_processor@_WV?$string_output_adapter@_W@__crt_stdio_output@@V?$standard_base@_WV?$string_output_adapter@_W@__crt_stdio_output@@@2@@__crt_stdio_output@@QAE@ABV?$string_output_adapter@_W@1@_KQB_WQAU__crt_locale_pointers@@QAD@Z 1004adc0 f i libucrtd:output.obj
 0001:00049df0       ??0?$stream_output_adapter@D@__crt_stdio_output@@QAE@QAU_iobuf@@@Z 1004adf0 f i libucrtd:output.obj
 0001:00049e10       ??0?$stream_output_adapter@_W@__crt_stdio_output@@QAE@QAU_iobuf@@@Z 1004ae10 f i libucrtd:output.obj
 0001:00049e30       ??0?$string_output_adapter@D@__crt_stdio_output@@QAE@QAU?$string_output_adapter_context@D@1@@Z 1004ae30 f i libucrtd:output.obj
 0001:00049e50       ??0?$string_output_adapter@_W@__crt_stdio_output@@QAE@QAU?$string_output_adapter_context@_W@1@@Z 1004ae50 f i libucrtd:output.obj
 0001:00049e70       ??0_LocaleUpdate@@QAE@QAU__crt_locale_pointers@@@Z 1004ae70 f i libucrtd:output.obj
 0001:00049f50       ??0__acrt_stdio_temporary_buffering_guard@@QAE@QAU_iobuf@@@Z 1004af50 f i libucrtd:output.obj
 0001:00049f80       ??0__crt_deferred_errno_cache@@QAE@XZ 1004af80 f i libucrtd:output.obj
 0001:00049fa0       ??0__crt_errno_guard@@QAE@QAH@Z 1004afa0 f i libucrtd:output.obj
 0001:00049fd0       ??0__crt_stdio_stream@@QAE@QAU_iobuf@@@Z 1004afd0 f i libucrtd:output.obj
 0001:00049ff0       ??0formatting_buffer@__crt_stdio_output@@QAE@XZ 1004aff0 f i libucrtd:output.obj
 0001:0004a020       ??1?$common_data@D@__crt_stdio_output@@QAE@XZ 1004b020 f i libucrtd:output.obj
 0001:0004a040       ??1?$common_data@_W@__crt_stdio_output@@QAE@XZ 1004b040 f i libucrtd:output.obj
 0001:0004a060       ??1?$format_validation_base@DV?$stream_output_adapter@D@__crt_stdio_output@@@__crt_stdio_output@@QAE@XZ 1004b060 f i libucrtd:output.obj
 0001:0004a080       ??1?$format_validation_base@DV?$string_output_adapter@D@__crt_stdio_output@@@__crt_stdio_output@@QAE@XZ 1004b080 f i libucrtd:output.obj
 0001:0004a0a0       ??1?$format_validation_base@_WV?$stream_output_adapter@_W@__crt_stdio_output@@@__crt_stdio_output@@QAE@XZ 1004b0a0 f i libucrtd:output.obj
 0001:0004a0c0       ??1?$format_validation_base@_WV?$string_output_adapter@_W@__crt_stdio_output@@@__crt_stdio_output@@QAE@XZ 1004b0c0 f i libucrtd:output.obj
 0001:0004a0e0       ??1?$output_adapter_data@DV?$stream_output_adapter@D@__crt_stdio_output@@@__crt_stdio_output@@QAE@XZ 1004b0e0 f i libucrtd:output.obj
 0001:0004a100       ??1?$output_adapter_data@DV?$string_output_adapter@D@__crt_stdio_output@@@__crt_stdio_output@@QAE@XZ 1004b100 f i libucrtd:output.obj
 0001:0004a120       ??1?$output_adapter_data@_WV?$stream_output_adapter@_W@__crt_stdio_output@@@__crt_stdio_output@@QAE@XZ 1004b120 f i libucrtd:output.obj
 0001:0004a140       ??1?$output_adapter_data@_WV?$string_output_adapter@_W@__crt_stdio_output@@@__crt_stdio_output@@QAE@XZ 1004b140 f i libucrtd:output.obj
 0001:0004a160       ??1?$output_processor@DV?$stream_output_adapter@D@__crt_stdio_output@@V?$format_validation_base@DV?$stream_output_adapter@D@__crt_stdio_output@@@2@@__crt_stdio_output@@QAE@XZ 1004b160 f i libucrtd:output.obj
 0001:0004a180       ??1?$output_processor@DV?$stream_output_adapter@D@__crt_stdio_output@@V?$positional_parameter_base@DV?$stream_output_adapter@D@__crt_stdio_output@@@2@@__crt_stdio_output@@QAE@XZ 1004b180 f i libucrtd:output.obj
 0001:0004a1a0       ??1?$output_processor@DV?$stream_output_adapter@D@__crt_stdio_output@@V?$standard_base@DV?$stream_output_adapter@D@__crt_stdio_output@@@2@@__crt_stdio_output@@QAE@XZ 1004b1a0 f i libucrtd:output.obj
 0001:0004a1c0       ??1?$output_processor@DV?$string_output_adapter@D@__crt_stdio_output@@V?$format_validation_base@DV?$string_output_adapter@D@__crt_stdio_output@@@2@@__crt_stdio_output@@QAE@XZ 1004b1c0 f i libucrtd:output.obj
 0001:0004a1e0       ??1?$output_processor@DV?$string_output_adapter@D@__crt_stdio_output@@V?$positional_parameter_base@DV?$string_output_adapter@D@__crt_stdio_output@@@2@@__crt_stdio_output@@QAE@XZ 1004b1e0 f i libucrtd:output.obj
 0001:0004a200       ??1?$output_processor@DV?$string_output_adapter@D@__crt_stdio_output@@V?$standard_base@DV?$string_output_adapter@D@__crt_stdio_output@@@2@@__crt_stdio_output@@QAE@XZ 1004b200 f i libucrtd:output.obj
 0001:0004a220       ??1?$output_processor@_WV?$stream_output_adapter@_W@__crt_stdio_output@@V?$format_validation_base@_WV?$stream_output_adapter@_W@__crt_stdio_output@@@2@@__crt_stdio_output@@QAE@XZ 1004b220 f i libucrtd:output.obj
 0001:0004a240       ??1?$output_processor@_WV?$stream_output_adapter@_W@__crt_stdio_output@@V?$positional_parameter_base@_WV?$stream_output_adapter@_W@__crt_stdio_output@@@2@@__crt_stdio_output@@QAE@XZ 1004b240 f i libucrtd:output.obj
 0001:0004a260       ??1?$output_processor@_WV?$stream_output_adapter@_W@__crt_stdio_output@@V?$standard_base@_WV?$stream_output_adapter@_W@__crt_stdio_output@@@2@@__crt_stdio_output@@QAE@XZ 1004b260 f i libucrtd:output.obj
 0001:0004a280       ??1?$output_processor@_WV?$string_output_adapter@_W@__crt_stdio_output@@V?$format_validation_base@_WV?$string_output_adapter@_W@__crt_stdio_output@@@2@@__crt_stdio_output@@QAE@XZ 1004b280 f i libucrtd:output.obj
 0001:0004a2a0       ??1?$output_processor@_WV?$string_output_adapter@_W@__crt_stdio_output@@V?$positional_parameter_base@_WV?$string_output_adapter@_W@__crt_stdio_output@@@2@@__crt_stdio_output@@QAE@XZ 1004b2a0 f i libucrtd:output.obj
 0001:0004a2c0       ??1?$output_processor@_WV?$string_output_adapter@_W@__crt_stdio_output@@V?$standard_base@_WV?$string_output_adapter@_W@__crt_stdio_output@@@2@@__crt_stdio_output@@QAE@XZ 1004b2c0 f i libucrtd:output.obj
 0001:0004a2e0       ??1?$positional_parameter_base@DV?$stream_output_adapter@D@__crt_stdio_output@@@__crt_stdio_output@@QAE@XZ 1004b2e0 f i libucrtd:output.obj
 0001:0004a300       ??1?$positional_parameter_base@DV?$string_output_adapter@D@__crt_stdio_output@@@__crt_stdio_output@@QAE@XZ 1004b300 f i libucrtd:output.obj
 0001:0004a320       ??1?$positional_parameter_base@_WV?$stream_output_adapter@_W@__crt_stdio_output@@@__crt_stdio_output@@QAE@XZ 1004b320 f i libucrtd:output.obj
 0001:0004a340       ??1?$positional_parameter_base@_WV?$string_output_adapter@_W@__crt_stdio_output@@@__crt_stdio_output@@QAE@XZ 1004b340 f i libucrtd:output.obj
 0001:0004a360       ??1?$standard_base@DV?$stream_output_adapter@D@__crt_stdio_output@@@__crt_stdio_output@@QAE@XZ 1004b360 f i libucrtd:output.obj
 0001:0004a380       ??1?$standard_base@DV?$string_output_adapter@D@__crt_stdio_output@@@__crt_stdio_output@@QAE@XZ 1004b380 f i libucrtd:output.obj
 0001:0004a3a0       ??1?$standard_base@_WV?$stream_output_adapter@_W@__crt_stdio_output@@@__crt_stdio_output@@QAE@XZ 1004b3a0 f i libucrtd:output.obj
 0001:0004a3c0       ??1?$standard_base@_WV?$string_output_adapter@_W@__crt_stdio_output@@@__crt_stdio_output@@QAE@XZ 1004b3c0 f i libucrtd:output.obj
 0001:0004a3e0       ??1_LocaleUpdate@@QAE@XZ   1004b3e0 f i libucrtd:output.obj
 0001:0004a420       ??1__acrt_stdio_temporary_buffering_guard@@QAE@XZ 1004b420 f i libucrtd:output.obj
 0001:0004a450       ??1__crt_errno_guard@@QAE@XZ 1004b450 f i libucrtd:output.obj
 0001:0004a480       ??1formatting_buffer@__crt_stdio_output@@QAE@XZ 1004b480 f i libucrtd:output.obj
 0001:0004a4a0       ??4?$__crt_unique_heap_ptr@DU__crt_internal_free_policy@@@@QAEAAV0@$$QAV0@@Z 1004b4a0 f i libucrtd:output.obj
 0001:0004a4d0       ??C__crt_stdio_stream@@QBEPAU__crt_stdio_stream_data@@XZ 1004b4d0 f i libucrtd:output.obj
 0001:0004ac10       ?GetLocaleT@_LocaleUpdate@@QAEPAU__crt_locale_pointers@@XZ 1004bc10 f i libucrtd:output.obj
 0001:0004ac30       ?adjust_hexit@?$output_processor@DV?$stream_output_adapter@D@__crt_stdio_output@@V?$format_validation_base@DV?$stream_output_adapter@D@__crt_stdio_output@@@2@@__crt_stdio_output@@CADH_N@Z 1004bc30 f i libucrtd:output.obj
 0001:0004ac70       ?adjust_hexit@?$output_processor@DV?$stream_output_adapter@D@__crt_stdio_output@@V?$positional_parameter_base@DV?$stream_output_adapter@D@__crt_stdio_output@@@2@@__crt_stdio_output@@CADH_N@Z 1004bc70 f i libucrtd:output.obj
 0001:0004acb0       ?adjust_hexit@?$output_processor@DV?$stream_output_adapter@D@__crt_stdio_output@@V?$standard_base@DV?$stream_output_adapter@D@__crt_stdio_output@@@2@@__crt_stdio_output@@CADH_N@Z 1004bcb0 f i libucrtd:output.obj
 0001:0004acf0       ?adjust_hexit@?$output_processor@DV?$string_output_adapter@D@__crt_stdio_output@@V?$format_validation_base@DV?$string_output_adapter@D@__crt_stdio_output@@@2@@__crt_stdio_output@@CADH_N@Z 1004bcf0 f i libucrtd:output.obj
 0001:0004ad30       ?adjust_hexit@?$output_processor@DV?$string_output_adapter@D@__crt_stdio_output@@V?$positional_parameter_base@DV?$string_output_adapter@D@__crt_stdio_output@@@2@@__crt_stdio_output@@CADH_N@Z 1004bd30 f i libucrtd:output.obj
 0001:0004ad70       ?adjust_hexit@?$output_processor@DV?$string_output_adapter@D@__crt_stdio_output@@V?$standard_base@DV?$string_output_adapter@D@__crt_stdio_output@@@2@@__crt_stdio_output@@CADH_N@Z 1004bd70 f i libucrtd:output.obj
 0001:0004adb0       ?adjust_hexit@?$output_processor@_WV?$stream_output_adapter@_W@__crt_stdio_output@@V?$format_validation_base@_WV?$stream_output_adapter@_W@__crt_stdio_output@@@2@@__crt_stdio_output@@CADH_N@Z 1004bdb0 f i libucrtd:output.obj
 0001:0004adf0       ?adjust_hexit@?$output_processor@_WV?$stream_output_adapter@_W@__crt_stdio_output@@V?$positional_parameter_base@_WV?$stream_output_adapter@_W@__crt_stdio_output@@@2@@__crt_stdio_output@@CADH_N@Z 1004bdf0 f i libucrtd:output.obj
 0001:0004ae30       ?adjust_hexit@?$output_processor@_WV?$stream_output_adapter@_W@__crt_stdio_output@@V?$standard_base@_WV?$stream_output_adapter@_W@__crt_stdio_output@@@2@@__crt_stdio_output@@CADH_N@Z 1004be30 f i libucrtd:output.obj
 0001:0004ae70       ?adjust_hexit@?$output_processor@_WV?$string_output_adapter@_W@__crt_stdio_output@@V?$format_validation_base@_WV?$string_output_adapter@_W@__crt_stdio_output@@@2@@__crt_stdio_output@@CADH_N@Z 1004be70 f i libucrtd:output.obj
 0001:0004aeb0       ?adjust_hexit@?$output_processor@_WV?$string_output_adapter@_W@__crt_stdio_output@@V?$positional_parameter_base@_WV?$string_output_adapter@_W@__crt_stdio_output@@@2@@__crt_stdio_output@@CADH_N@Z 1004beb0 f i libucrtd:output.obj
 0001:0004aef0       ?adjust_hexit@?$output_processor@_WV?$string_output_adapter@_W@__crt_stdio_output@@V?$standard_base@_WV?$string_output_adapter@_W@__crt_stdio_output@@@2@@__crt_stdio_output@@CADH_N@Z 1004bef0 f i libucrtd:output.obj
 0001:0004af30       ?advance_to_next_pass@?$positional_parameter_base@DV?$stream_output_adapter@D@__crt_stdio_output@@@__crt_stdio_output@@IAE_NXZ 1004bf30 f i libucrtd:output.obj
 0001:0004afd0       ?advance_to_next_pass@?$positional_parameter_base@DV?$string_output_adapter@D@__crt_stdio_output@@@__crt_stdio_output@@IAE_NXZ 1004bfd0 f i libucrtd:output.obj
 0001:0004b070       ?advance_to_next_pass@?$positional_parameter_base@_WV?$stream_output_adapter@_W@__crt_stdio_output@@@__crt_stdio_output@@IAE_NXZ 1004c070 f i libucrtd:output.obj
 0001:0004b110       ?advance_to_next_pass@?$positional_parameter_base@_WV?$string_output_adapter@_W@__crt_stdio_output@@@__crt_stdio_output@@IAE_NXZ 1004c110 f i libucrtd:output.obj
 0001:0004b1b0       ?advance_to_next_pass@?$standard_base@DV?$stream_output_adapter@D@__crt_stdio_output@@@__crt_stdio_output@@IAE_NXZ 1004c1b0 f i libucrtd:output.obj
 0001:0004b200       ?advance_to_next_pass@?$standard_base@DV?$string_output_adapter@D@__crt_stdio_output@@@__crt_stdio_output@@IAE_NXZ 1004c200 f i libucrtd:output.obj
 0001:0004b250       ?advance_to_next_pass@?$standard_base@_WV?$stream_output_adapter@_W@__crt_stdio_output@@@__crt_stdio_output@@IAE_NXZ 1004c250 f i libucrtd:output.obj
 0001:0004b2a0       ?advance_to_next_pass@?$standard_base@_WV?$string_output_adapter@_W@__crt_stdio_output@@@__crt_stdio_output@@IAE_NXZ 1004c2a0 f i libucrtd:output.obj
 0001:0004b2f0       ?crop_zeroes@__crt_stdio_output@@YAXPADQAU__crt_locale_pointers@@@Z 1004c2f0 f i libucrtd:output.obj
 0001:0004b3f0       ?find_next_state@?$output_processor@DV?$stream_output_adapter@D@__crt_stdio_output@@V?$format_validation_base@DV?$stream_output_adapter@D@__crt_stdio_output@@@2@@__crt_stdio_output@@ABE?AW4state@2@DW432@@Z 1004c3f0 f i libucrtd:output.obj
 0001:0004b470       ?find_next_state@?$output_processor@DV?$stream_output_adapter@D@__crt_stdio_output@@V?$positional_parameter_base@DV?$stream_output_adapter@D@__crt_stdio_output@@@2@@__crt_stdio_output@@ABE?AW4state@2@DW432@@Z 1004c470 f i libucrtd:output.obj
 0001:0004b4f0       ?find_next_state@?$output_processor@DV?$stream_output_adapter@D@__crt_stdio_output@@V?$standard_base@DV?$stream_output_adapter@D@__crt_stdio_output@@@2@@__crt_stdio_output@@ABE?AW4state@2@DW432@@Z 1004c4f0 f i libucrtd:output.obj
 0001:0004b570       ?find_next_state@?$output_processor@DV?$string_output_adapter@D@__crt_stdio_output@@V?$format_validation_base@DV?$string_output_adapter@D@__crt_stdio_output@@@2@@__crt_stdio_output@@ABE?AW4state@2@DW432@@Z 1004c570 f i libucrtd:output.obj
 0001:0004b5f0       ?find_next_state@?$output_processor@DV?$string_output_adapter@D@__crt_stdio_output@@V?$positional_parameter_base@DV?$string_output_adapter@D@__crt_stdio_output@@@2@@__crt_stdio_output@@ABE?AW4state@2@DW432@@Z 1004c5f0 f i libucrtd:output.obj
 0001:0004b670       ?find_next_state@?$output_processor@DV?$string_output_adapter@D@__crt_stdio_output@@V?$standard_base@DV?$string_output_adapter@D@__crt_stdio_output@@@2@@__crt_stdio_output@@ABE?AW4state@2@DW432@@Z 1004c670 f i libucrtd:output.obj
 0001:0004b6f0       ?find_next_state@?$output_processor@_WV?$stream_output_adapter@_W@__crt_stdio_output@@V?$format_validation_base@_WV?$stream_output_adapter@_W@__crt_stdio_output@@@2@@__crt_stdio_output@@ABE?AW4state@2@_WW432@@Z 1004c6f0 f i libucrtd:output.obj
 0001:0004b770       ?find_next_state@?$output_processor@_WV?$stream_output_adapter@_W@__crt_stdio_output@@V?$positional_parameter_base@_WV?$stream_output_adapter@_W@__crt_stdio_output@@@2@@__crt_stdio_output@@ABE?AW4state@2@_WW432@@Z 1004c770 f i libucrtd:output.obj
 0001:0004b7f0       ?find_next_state@?$output_processor@_WV?$stream_output_adapter@_W@__crt_stdio_output@@V?$standard_base@_WV?$stream_output_adapter@_W@__crt_stdio_output@@@2@@__crt_stdio_output@@ABE?AW4state@2@_WW432@@Z 1004c7f0 f i libucrtd:output.obj
 0001:0004b870       ?find_next_state@?$output_processor@_WV?$string_output_adapter@_W@__crt_stdio_output@@V?$format_validation_base@_WV?$string_output_adapter@_W@__crt_stdio_output@@@2@@__crt_stdio_output@@ABE?AW4state@2@_WW432@@Z 1004c870 f i libucrtd:output.obj
 0001:0004b8f0       ?find_next_state@?$output_processor@_WV?$string_output_adapter@_W@__crt_stdio_output@@V?$positional_parameter_base@_WV?$string_output_adapter@_W@__crt_stdio_output@@@2@@__crt_stdio_output@@ABE?AW4state@2@_WW432@@Z 1004c8f0 f i libucrtd:output.obj
 0001:0004b970       ?find_next_state@?$output_processor@_WV?$string_output_adapter@_W@__crt_stdio_output@@V?$standard_base@_WV?$string_output_adapter@_W@__crt_stdio_output@@@2@@__crt_stdio_output@@ABE?AW4state@2@_WW432@@Z 1004c970 f i libucrtd:output.obj
 0001:0004b9f0       ?force_decimal_point@__crt_stdio_output@@YAXPADQAU__crt_locale_pointers@@@Z 1004c9f0 f i libucrtd:output.obj
 0001:0004bac0       ?get@__crt_deferred_errno_cache@@QAEAAHXZ 1004cac0 f i libucrtd:output.obj
 0001:0004baf0       ?get_flags@__crt_stdio_stream@@QBEJXZ 1004caf0 f i libucrtd:output.obj
 0001:0004bb10       ?get_parameter_type@?$positional_parameter_base@DV?$stream_output_adapter@D@__crt_stdio_output@@@__crt_stdio_output@@CA?AW4parameter_type@12@F@Z 1004cb10 f i libucrtd:output.obj
 0001:0004bb20       ?get_parameter_type@?$positional_parameter_base@DV?$stream_output_adapter@D@__crt_stdio_output@@@__crt_stdio_output@@CA?AW4parameter_type@12@G@Z 1004cb20 f i libucrtd:output.obj
 0001:0004bb30       ?get_parameter_type@?$positional_parameter_base@DV?$stream_output_adapter@D@__crt_stdio_output@@@__crt_stdio_output@@CA?AW4parameter_type@12@H@Z 1004cb30 f i libucrtd:output.obj
 0001:0004bb40       ?get_parameter_type@?$positional_parameter_base@DV?$stream_output_adapter@D@__crt_stdio_output@@@__crt_stdio_output@@CA?AW4parameter_type@12@I@Z 1004cb40 f i libucrtd:output.obj
 0001:0004bb50       ?get_parameter_type@?$positional_parameter_base@DV?$stream_output_adapter@D@__crt_stdio_output@@@__crt_stdio_output@@CA?AW4parameter_type@12@U_CRT_DOUBLE@@@Z 1004cb50 f i libucrtd:output.obj
 0001:0004bb60       ?get_parameter_type@?$positional_parameter_base@DV?$stream_output_adapter@D@__crt_stdio_output@@@__crt_stdio_output@@CA?AW4parameter_type@12@_J@Z 1004cb60 f i libucrtd:output.obj
 0001:0004bb70       ?get_parameter_type@?$positional_parameter_base@DV?$stream_output_adapter@D@__crt_stdio_output@@@__crt_stdio_output@@CA?AW4parameter_type@12@_K@Z 1004cb70 f i libucrtd:output.obj
 0001:0004bb80       ?get_parameter_type@?$positional_parameter_base@DV?$stream_output_adapter@D@__crt_stdio_output@@@__crt_stdio_output@@CA?AW4parameter_type@12@_W@Z 1004cb80 f i libucrtd:output.obj
 0001:0004bb90       ?get_parameter_type@?$positional_parameter_base@DV?$string_output_adapter@D@__crt_stdio_output@@@__crt_stdio_output@@CA?AW4parameter_type@12@F@Z 1004cb90 f i libucrtd:output.obj
 0001:0004bba0       ?get_parameter_type@?$positional_parameter_base@DV?$string_output_adapter@D@__crt_stdio_output@@@__crt_stdio_output@@CA?AW4parameter_type@12@G@Z 1004cba0 f i libucrtd:output.obj
 0001:0004bbb0       ?get_parameter_type@?$positional_parameter_base@DV?$string_output_adapter@D@__crt_stdio_output@@@__crt_stdio_output@@CA?AW4parameter_type@12@H@Z 1004cbb0 f i libucrtd:output.obj
 0001:0004bbc0       ?get_parameter_type@?$positional_parameter_base@DV?$string_output_adapter@D@__crt_stdio_output@@@__crt_stdio_output@@CA?AW4parameter_type@12@I@Z 1004cbc0 f i libucrtd:output.obj
 0001:0004bbd0       ?get_parameter_type@?$positional_parameter_base@DV?$string_output_adapter@D@__crt_stdio_output@@@__crt_stdio_output@@CA?AW4parameter_type@12@U_CRT_DOUBLE@@@Z 1004cbd0 f i libucrtd:output.obj
 0001:0004bbe0       ?get_parameter_type@?$positional_parameter_base@DV?$string_output_adapter@D@__crt_stdio_output@@@__crt_stdio_output@@CA?AW4parameter_type@12@_J@Z 1004cbe0 f i libucrtd:output.obj
 0001:0004bbf0       ?get_parameter_type@?$positional_parameter_base@DV?$string_output_adapter@D@__crt_stdio_output@@@__crt_stdio_output@@CA?AW4parameter_type@12@_K@Z 1004cbf0 f i libucrtd:output.obj
 0001:0004bc00       ?get_parameter_type@?$positional_parameter_base@DV?$string_output_adapter@D@__crt_stdio_output@@@__crt_stdio_output@@CA?AW4parameter_type@12@_W@Z 1004cc00 f i libucrtd:output.obj
 0001:0004bc10       ?get_parameter_type@?$positional_parameter_base@_WV?$stream_output_adapter@_W@__crt_stdio_output@@@__crt_stdio_output@@CA?AW4parameter_type@12@F@Z 1004cc10 f i libucrtd:output.obj
 0001:0004bc20       ?get_parameter_type@?$positional_parameter_base@_WV?$stream_output_adapter@_W@__crt_stdio_output@@@__crt_stdio_output@@CA?AW4parameter_type@12@G@Z 1004cc20 f i libucrtd:output.obj
 0001:0004bc30       ?get_parameter_type@?$positional_parameter_base@_WV?$stream_output_adapter@_W@__crt_stdio_output@@@__crt_stdio_output@@CA?AW4parameter_type@12@H@Z 1004cc30 f i libucrtd:output.obj
 0001:0004bc40       ?get_parameter_type@?$positional_parameter_base@_WV?$stream_output_adapter@_W@__crt_stdio_output@@@__crt_stdio_output@@CA?AW4parameter_type@12@I@Z 1004cc40 f i libucrtd:output.obj
 0001:0004bc50       ?get_parameter_type@?$positional_parameter_base@_WV?$stream_output_adapter@_W@__crt_stdio_output@@@__crt_stdio_output@@CA?AW4parameter_type@12@U_CRT_DOUBLE@@@Z 1004cc50 f i libucrtd:output.obj
 0001:0004bc60       ?get_parameter_type@?$positional_parameter_base@_WV?$stream_output_adapter@_W@__crt_stdio_output@@@__crt_stdio_output@@CA?AW4parameter_type@12@_J@Z 1004cc60 f i libucrtd:output.obj
 0001:0004bc70       ?get_parameter_type@?$positional_parameter_base@_WV?$stream_output_adapter@_W@__crt_stdio_output@@@__crt_stdio_output@@CA?AW4parameter_type@12@_K@Z 1004cc70 f i libucrtd:output.obj
 0001:0004bc80       ?get_parameter_type@?$positional_parameter_base@_WV?$stream_output_adapter@_W@__crt_stdio_output@@@__crt_stdio_output@@CA?AW4parameter_type@12@_W@Z 1004cc80 f i libucrtd:output.obj
 0001:0004bc90       ?get_parameter_type@?$positional_parameter_base@_WV?$string_output_adapter@_W@__crt_stdio_output@@@__crt_stdio_output@@CA?AW4parameter_type@12@F@Z 1004cc90 f i libucrtd:output.obj
 0001:0004bca0       ?get_parameter_type@?$positional_parameter_base@_WV?$string_output_adapter@_W@__crt_stdio_output@@@__crt_stdio_output@@CA?AW4parameter_type@12@G@Z 1004cca0 f i libucrtd:output.obj
 0001:0004bcb0       ?get_parameter_type@?$positional_parameter_base@_WV?$string_output_adapter@_W@__crt_stdio_output@@@__crt_stdio_output@@CA?AW4parameter_type@12@H@Z 1004ccb0 f i libucrtd:output.obj
 0001:0004bcc0       ?get_parameter_type@?$positional_parameter_base@_WV?$string_output_adapter@_W@__crt_stdio_output@@@__crt_stdio_output@@CA?AW4parameter_type@12@I@Z 1004ccc0 f i libucrtd:output.obj
 0001:0004bcd0       ?get_parameter_type@?$positional_parameter_base@_WV?$string_output_adapter@_W@__crt_stdio_output@@@__crt_stdio_output@@CA?AW4parameter_type@12@U_CRT_DOUBLE@@@Z 1004ccd0 f i libucrtd:output.obj
 0001:0004bce0       ?get_parameter_type@?$positional_parameter_base@_WV?$string_output_adapter@_W@__crt_stdio_output@@@__crt_stdio_output@@CA?AW4parameter_type@12@_J@Z 1004cce0 f i libucrtd:output.obj
 0001:0004bcf0       ?get_parameter_type@?$positional_parameter_base@_WV?$string_output_adapter@_W@__crt_stdio_output@@@__crt_stdio_output@@CA?AW4parameter_type@12@_K@Z 1004ccf0 f i libucrtd:output.obj
 0001:0004bd00       ?get_parameter_type@?$positional_parameter_base@_WV?$string_output_adapter@_W@__crt_stdio_output@@@__crt_stdio_output@@CA?AW4parameter_type@12@_W@Z 1004cd00 f i libucrtd:output.obj
 0001:0004bd10       ?has_flag@?$output_processor@DV?$stream_output_adapter@D@__crt_stdio_output@@V?$format_validation_base@DV?$stream_output_adapter@D@__crt_stdio_output@@@2@@__crt_stdio_output@@ABE_NI@Z 1004cd10 f i libucrtd:output.obj
 0001:0004bd40       ?has_flag@?$output_processor@DV?$stream_output_adapter@D@__crt_stdio_output@@V?$positional_parameter_base@DV?$stream_output_adapter@D@__crt_stdio_output@@@2@@__crt_stdio_output@@ABE_NI@Z 1004cd40 f i libucrtd:output.obj
 0001:0004bd70       ?has_flag@?$output_processor@DV?$stream_output_adapter@D@__crt_stdio_output@@V?$standard_base@DV?$stream_output_adapter@D@__crt_stdio_output@@@2@@__crt_stdio_output@@ABE_NI@Z 1004cd70 f i libucrtd:output.obj
 0001:0004bda0       ?has_flag@?$output_processor@DV?$string_output_adapter@D@__crt_stdio_output@@V?$format_validation_base@DV?$string_output_adapter@D@__crt_stdio_output@@@2@@__crt_stdio_output@@ABE_NI@Z 1004cda0 f i libucrtd:output.obj
 0001:0004bdd0       ?has_flag@?$output_processor@DV?$string_output_adapter@D@__crt_stdio_output@@V?$positional_parameter_base@DV?$string_output_adapter@D@__crt_stdio_output@@@2@@__crt_stdio_output@@ABE_NI@Z 1004cdd0 f i libucrtd:output.obj
 0001:0004be00       ?has_flag@?$output_processor@DV?$string_output_adapter@D@__crt_stdio_output@@V?$standard_base@DV?$string_output_adapter@D@__crt_stdio_output@@@2@@__crt_stdio_output@@ABE_NI@Z 1004ce00 f i libucrtd:output.obj
 0001:0004be30       ?has_flag@?$output_processor@_WV?$stream_output_adapter@_W@__crt_stdio_output@@V?$format_validation_base@_WV?$stream_output_adapter@_W@__crt_stdio_output@@@2@@__crt_stdio_output@@ABE_NI@Z 1004ce30 f i libucrtd:output.obj
 0001:0004be60       ?has_flag@?$output_processor@_WV?$stream_output_adapter@_W@__crt_stdio_output@@V?$positional_parameter_base@_WV?$stream_output_adapter@_W@__crt_stdio_output@@@2@@__crt_stdio_output@@ABE_NI@Z 1004ce60 f i libucrtd:output.obj
 0001:0004be90       ?has_flag@?$output_processor@_WV?$stream_output_adapter@_W@__crt_stdio_output@@V?$standard_base@_WV?$stream_output_adapter@_W@__crt_stdio_output@@@2@@__crt_stdio_output@@ABE_NI@Z 1004ce90 f i libucrtd:output.obj
 0001:0004bec0       ?has_flag@?$output_processor@_WV?$string_output_adapter@_W@__crt_stdio_output@@V?$format_validation_base@_WV?$string_output_adapter@_W@__crt_stdio_output@@@2@@__crt_stdio_output@@ABE_NI@Z 1004cec0 f i libucrtd:output.obj
 0001:0004bef0       ?has_flag@?$output_processor@_WV?$string_output_adapter@_W@__crt_stdio_output@@V?$positional_parameter_base@_WV?$string_output_adapter@_W@__crt_stdio_output@@@2@@__crt_stdio_output@@ABE_NI@Z 1004cef0 f i libucrtd:output.obj
 0001:0004bf20       ?has_flag@?$output_processor@_WV?$string_output_adapter@_W@__crt_stdio_output@@V?$standard_base@_WV?$string_output_adapter@_W@__crt_stdio_output@@@2@@__crt_stdio_output@@ABE_NI@Z 1004cf20 f i libucrtd:output.obj
 0001:0004bf50       ?is_positional_parameter_reappearance_consistent@?$positional_parameter_base@DV?$stream_output_adapter@D@__crt_stdio_output@@@__crt_stdio_output@@AAE_NABUparameter_data@12@W4parameter_type@12@DW4length_modifier@2@@Z 1004cf50 f i libucrtd:output.obj
 0001:0004c180       ?is_positional_parameter_reappearance_consistent@?$positional_parameter_base@DV?$string_output_adapter@D@__crt_stdio_output@@@__crt_stdio_output@@AAE_NABUparameter_data@12@W4parameter_type@12@DW4length_modifier@2@@Z 1004d180 f i libucrtd:output.obj
 0001:0004c3b0       ?is_positional_parameter_reappearance_consistent@?$positional_parameter_base@_WV?$stream_output_adapter@_W@__crt_stdio_output@@@__crt_stdio_output@@AAE_NABUparameter_data@12@W4parameter_type@12@_WW4length_modifier@2@@Z 1004d3b0 f i libucrtd:output.obj
 0001:0004c5e0       ?is_positional_parameter_reappearance_consistent@?$positional_parameter_base@_WV?$string_output_adapter@_W@__crt_stdio_output@@@__crt_stdio_output@@AAE_NABUparameter_data@12@W4parameter_type@12@_WW4length_modifier@2@@Z 1004d5e0 f i libucrtd:output.obj
 0001:0004c810       ?is_string_backed@__crt_stdio_stream@@QBE_NXZ 1004d810 f i libucrtd:output.obj
 0001:0004c850       ?narrow_null_string@?$output_processor@DV?$stream_output_adapter@D@__crt_stdio_output@@V?$format_validation_base@DV?$stream_output_adapter@D@__crt_stdio_output@@@2@@__crt_stdio_output@@CAPADXZ 1004d850 f i libucrtd:output.obj
 0001:0004c860       ?narrow_null_string@?$output_processor@DV?$stream_output_adapter@D@__crt_stdio_output@@V?$positional_parameter_base@DV?$stream_output_adapter@D@__crt_stdio_output@@@2@@__crt_stdio_output@@CAPADXZ 1004d860 f i libucrtd:output.obj
 0001:0004c870       ?narrow_null_string@?$output_processor@DV?$stream_output_adapter@D@__crt_stdio_output@@V?$standard_base@DV?$stream_output_adapter@D@__crt_stdio_output@@@2@@__crt_stdio_output@@CAPADXZ 1004d870 f i libucrtd:output.obj
 0001:0004c880       ?narrow_null_string@?$output_processor@DV?$string_output_adapter@D@__crt_stdio_output@@V?$format_validation_base@DV?$string_output_adapter@D@__crt_stdio_output@@@2@@__crt_stdio_output@@CAPADXZ 1004d880 f i libucrtd:output.obj
 0001:0004c890       ?narrow_null_string@?$output_processor@DV?$string_output_adapter@D@__crt_stdio_output@@V?$positional_parameter_base@DV?$string_output_adapter@D@__crt_stdio_output@@@2@@__crt_stdio_output@@CAPADXZ 1004d890 f i libucrtd:output.obj
 0001:0004c8a0       ?narrow_null_string@?$output_processor@DV?$string_output_adapter@D@__crt_stdio_output@@V?$standard_base@DV?$string_output_adapter@D@__crt_stdio_output@@@2@@__crt_stdio_output@@CAPADXZ 1004d8a0 f i libucrtd:output.obj
 0001:0004c8b0       ?narrow_null_string@?$output_processor@_WV?$stream_output_adapter@_W@__crt_stdio_output@@V?$format_validation_base@_WV?$stream_output_adapter@_W@__crt_stdio_output@@@2@@__crt_stdio_output@@CAPADXZ 1004d8b0 f i libucrtd:output.obj
 0001:0004c8c0       ?narrow_null_string@?$output_processor@_WV?$stream_output_adapter@_W@__crt_stdio_output@@V?$positional_parameter_base@_WV?$stream_output_adapter@_W@__crt_stdio_output@@@2@@__crt_stdio_output@@CAPADXZ 1004d8c0 f i libucrtd:output.obj
 0001:0004c8d0       ?narrow_null_string@?$output_processor@_WV?$stream_output_adapter@_W@__crt_stdio_output@@V?$standard_base@_WV?$stream_output_adapter@_W@__crt_stdio_output@@@2@@__crt_stdio_output@@CAPADXZ 1004d8d0 f i libucrtd:output.obj
 0001:0004c8e0       ?narrow_null_string@?$output_processor@_WV?$string_output_adapter@_W@__crt_stdio_output@@V?$format_validation_base@_WV?$string_output_adapter@_W@__crt_stdio_output@@@2@@__crt_stdio_output@@CAPADXZ 1004d8e0 f i libucrtd:output.obj
 0001:0004c8f0       ?narrow_null_string@?$output_processor@_WV?$string_output_adapter@_W@__crt_stdio_output@@V?$positional_parameter_base@_WV?$string_output_adapter@_W@__crt_stdio_output@@@2@@__crt_stdio_output@@CAPADXZ 1004d8f0 f i libucrtd:output.obj
 0001:0004c900       ?narrow_null_string@?$output_processor@_WV?$string_output_adapter@_W@__crt_stdio_output@@V?$standard_base@_WV?$string_output_adapter@_W@__crt_stdio_output@@@2@@__crt_stdio_output@@CAPADXZ 1004d900 f i libucrtd:output.obj
 0001:0004c910       ?parse_int_from_format_string@?$output_processor@DV?$stream_output_adapter@D@__crt_stdio_output@@V?$format_validation_base@DV?$stream_output_adapter@D@__crt_stdio_output@@@2@@__crt_stdio_output@@AAE_NQAH@Z 1004d910 f i libucrtd:output.obj
 0001:0004c9d0       ?parse_int_from_format_string@?$output_processor@DV?$stream_output_adapter@D@__crt_stdio_output@@V?$positional_parameter_base@DV?$stream_output_adapter@D@__crt_stdio_output@@@2@@__crt_stdio_output@@AAE_NQAH@Z 1004d9d0 f i libucrtd:output.obj
 0001:0004ca90       ?parse_int_from_format_string@?$output_processor@DV?$stream_output_adapter@D@__crt_stdio_output@@V?$standard_base@DV?$stream_output_adapter@D@__crt_stdio_output@@@2@@__crt_stdio_output@@AAE_NQAH@Z 1004da90 f i libucrtd:output.obj
 0001:0004cb50       ?parse_int_from_format_string@?$output_processor@DV?$string_output_adapter@D@__crt_stdio_output@@V?$format_validation_base@DV?$string_output_adapter@D@__crt_stdio_output@@@2@@__crt_stdio_output@@AAE_NQAH@Z 1004db50 f i libucrtd:output.obj
 0001:0004cc10       ?parse_int_from_format_string@?$output_processor@DV?$string_output_adapter@D@__crt_stdio_output@@V?$positional_parameter_base@DV?$string_output_adapter@D@__crt_stdio_output@@@2@@__crt_stdio_output@@AAE_NQAH@Z 1004dc10 f i libucrtd:output.obj
 0001:0004ccd0       ?parse_int_from_format_string@?$output_processor@DV?$string_output_adapter@D@__crt_stdio_output@@V?$standard_base@DV?$string_output_adapter@D@__crt_stdio_output@@@2@@__crt_stdio_output@@AAE_NQAH@Z 1004dcd0 f i libucrtd:output.obj
 0001:0004cd90       ?parse_int_from_format_string@?$output_processor@_WV?$stream_output_adapter@_W@__crt_stdio_output@@V?$format_validation_base@_WV?$stream_output_adapter@_W@__crt_stdio_output@@@2@@__crt_stdio_output@@AAE_NQAH@Z 1004dd90 f i libucrtd:output.obj
 0001:0004ce50       ?parse_int_from_format_string@?$output_processor@_WV?$stream_output_adapter@_W@__crt_stdio_output@@V?$positional_parameter_base@_WV?$stream_output_adapter@_W@__crt_stdio_output@@@2@@__crt_stdio_output@@AAE_NQAH@Z 1004de50 f i libucrtd:output.obj
 0001:0004cf10       ?parse_int_from_format_string@?$output_processor@_WV?$stream_output_adapter@_W@__crt_stdio_output@@V?$standard_base@_WV?$stream_output_adapter@_W@__crt_stdio_output@@@2@@__crt_stdio_output@@AAE_NQAH@Z 1004df10 f i libucrtd:output.obj
 0001:0004cfd0       ?parse_int_from_format_string@?$output_processor@_WV?$string_output_adapter@_W@__crt_stdio_output@@V?$format_validation_base@_WV?$string_output_adapter@_W@__crt_stdio_output@@@2@@__crt_stdio_output@@AAE_NQAH@Z 1004dfd0 f i libucrtd:output.obj
 0001:0004d090       ?parse_int_from_format_string@?$output_processor@_WV?$string_output_adapter@_W@__crt_stdio_output@@V?$positional_parameter_base@_WV?$string_output_adapter@_W@__crt_stdio_output@@@2@@__crt_stdio_output@@AAE_NQAH@Z 1004e090 f i libucrtd:output.obj
 0001:0004d150       ?parse_int_from_format_string@?$output_processor@_WV?$string_output_adapter@_W@__crt_stdio_output@@V?$standard_base@_WV?$string_output_adapter@_W@__crt_stdio_output@@@2@@__crt_stdio_output@@AAE_NQAH@Z 1004e150 f i libucrtd:output.obj
 0001:0004d210       ?process@?$output_processor@DV?$stream_output_adapter@D@__crt_stdio_output@@V?$format_validation_base@DV?$stream_output_adapter@D@__crt_stdio_output@@@2@@__crt_stdio_output@@QAEHXZ 1004e210 f i libucrtd:output.obj
 0001:0004d4c0       ?process@?$output_processor@DV?$stream_output_adapter@D@__crt_stdio_output@@V?$positional_parameter_base@DV?$stream_output_adapter@D@__crt_stdio_output@@@2@@__crt_stdio_output@@QAEHXZ 1004e4c0 f i libucrtd:output.obj
 0001:0004d770       ?process@?$output_processor@DV?$stream_output_adapter@D@__crt_stdio_output@@V?$standard_base@DV?$stream_output_adapter@D@__crt_stdio_output@@@2@@__crt_stdio_output@@QAEHXZ 1004e770 f i libucrtd:output.obj
 0001:0004da20       ?process@?$output_processor@DV?$string_output_adapter@D@__crt_stdio_output@@V?$format_validation_base@DV?$string_output_adapter@D@__crt_stdio_output@@@2@@__crt_stdio_output@@QAEHXZ 1004ea20 f i libucrtd:output.obj
 0001:0004dcd0       ?process@?$output_processor@DV?$string_output_adapter@D@__crt_stdio_output@@V?$positional_parameter_base@DV?$string_output_adapter@D@__crt_stdio_output@@@2@@__crt_stdio_output@@QAEHXZ 1004ecd0 f i libucrtd:output.obj
 0001:0004df80       ?process@?$output_processor@DV?$string_output_adapter@D@__crt_stdio_output@@V?$standard_base@DV?$string_output_adapter@D@__crt_stdio_output@@@2@@__crt_stdio_output@@QAEHXZ 1004ef80 f i libucrtd:output.obj
 0001:0004e230       ?process@?$output_processor@_WV?$stream_output_adapter@_W@__crt_stdio_output@@V?$format_validation_base@_WV?$stream_output_adapter@_W@__crt_stdio_output@@@2@@__crt_stdio_output@@QAEHXZ 1004f230 f i libucrtd:output.obj
 0001:0004e4e0       ?process@?$output_processor@_WV?$stream_output_adapter@_W@__crt_stdio_output@@V?$positional_parameter_base@_WV?$stream_output_adapter@_W@__crt_stdio_output@@@2@@__crt_stdio_output@@QAEHXZ 1004f4e0 f i libucrtd:output.obj
 0001:0004e790       ?process@?$output_processor@_WV?$stream_output_adapter@_W@__crt_stdio_output@@V?$standard_base@_WV?$stream_output_adapter@_W@__crt_stdio_output@@@2@@__crt_stdio_output@@QAEHXZ 1004f790 f i libucrtd:output.obj
 0001:0004ea40       ?process@?$output_processor@_WV?$string_output_adapter@_W@__crt_stdio_output@@V?$format_validation_base@_WV?$string_output_adapter@_W@__crt_stdio_output@@@2@@__crt_stdio_output@@QAEHXZ 1004fa40 f i libucrtd:output.obj
 0001:0004ecf0       ?process@?$output_processor@_WV?$string_output_adapter@_W@__crt_stdio_output@@V?$positional_parameter_base@_WV?$string_output_adapter@_W@__crt_stdio_output@@@2@@__crt_stdio_output@@QAEHXZ 1004fcf0 f i libucrtd:output.obj
 0001:0004efa0       ?process@?$output_processor@_WV?$string_output_adapter@_W@__crt_stdio_output@@V?$standard_base@_WV?$string_output_adapter@_W@__crt_stdio_output@@@2@@__crt_stdio_output@@QAEHXZ 1004ffa0 f i libucrtd:output.obj
 0001:0004f250       ?public_stream@__crt_stdio_stream@@QBEPAU_iobuf@@XZ 10050250 f i libucrtd:output.obj
 0001:0004f270       ?set_flag@?$output_processor@DV?$stream_output_adapter@D@__crt_stdio_output@@V?$format_validation_base@DV?$stream_output_adapter@D@__crt_stdio_output@@@2@@__crt_stdio_output@@AAEXI@Z 10050270 f i libucrtd:output.obj
 0001:0004f290       ?set_flag@?$output_processor@DV?$stream_output_adapter@D@__crt_stdio_output@@V?$positional_parameter_base@DV?$stream_output_adapter@D@__crt_stdio_output@@@2@@__crt_stdio_output@@AAEXI@Z 10050290 f i libucrtd:output.obj
 0001:0004f2b0       ?set_flag@?$output_processor@DV?$stream_output_adapter@D@__crt_stdio_output@@V?$standard_base@DV?$stream_output_adapter@D@__crt_stdio_output@@@2@@__crt_stdio_output@@AAEXI@Z 100502b0 f i libucrtd:output.obj
 0001:0004f2d0       ?set_flag@?$output_processor@DV?$string_output_adapter@D@__crt_stdio_output@@V?$format_validation_base@DV?$string_output_adapter@D@__crt_stdio_output@@@2@@__crt_stdio_output@@AAEXI@Z 100502d0 f i libucrtd:output.obj
 0001:0004f2f0       ?set_flag@?$output_processor@DV?$string_output_adapter@D@__crt_stdio_output@@V?$positional_parameter_base@DV?$string_output_adapter@D@__crt_stdio_output@@@2@@__crt_stdio_output@@AAEXI@Z 100502f0 f i libucrtd:output.obj
 0001:0004f310       ?set_flag@?$output_processor@DV?$string_output_adapter@D@__crt_stdio_output@@V?$standard_base@DV?$string_output_adapter@D@__crt_stdio_output@@@2@@__crt_stdio_output@@AAEXI@Z 10050310 f i libucrtd:output.obj
 0001:0004f330       ?set_flag@?$output_processor@_WV?$stream_output_adapter@_W@__crt_stdio_output@@V?$format_validation_base@_WV?$stream_output_adapter@_W@__crt_stdio_output@@@2@@__crt_stdio_output@@AAEXI@Z 10050330 f i libucrtd:output.obj
 0001:0004f350       ?set_flag@?$output_processor@_WV?$stream_output_adapter@_W@__crt_stdio_output@@V?$positional_parameter_base@_WV?$stream_output_adapter@_W@__crt_stdio_output@@@2@@__crt_stdio_output@@AAEXI@Z 10050350 f i libucrtd:output.obj
 0001:0004f370       ?set_flag@?$output_processor@_WV?$stream_output_adapter@_W@__crt_stdio_output@@V?$standard_base@_WV?$stream_output_adapter@_W@__crt_stdio_output@@@2@@__crt_stdio_output@@AAEXI@Z 10050370 f i libucrtd:output.obj
 0001:0004f390       ?set_flag@?$output_processor@_WV?$string_output_adapter@_W@__crt_stdio_output@@V?$format_validation_base@_WV?$string_output_adapter@_W@__crt_stdio_output@@@2@@__crt_stdio_output@@AAEXI@Z 10050390 f i libucrtd:output.obj
 0001:0004f3b0       ?set_flag@?$output_processor@_WV?$string_output_adapter@_W@__crt_stdio_output@@V?$positional_parameter_base@_WV?$string_output_adapter@_W@__crt_stdio_output@@@2@@__crt_stdio_output@@AAEXI@Z 100503b0 f i libucrtd:output.obj
 0001:0004f3d0       ?set_flag@?$output_processor@_WV?$string_output_adapter@_W@__crt_stdio_output@@V?$standard_base@_WV?$string_output_adapter@_W@__crt_stdio_output@@@2@@__crt_stdio_output@@AAEXI@Z 100503d0 f i libucrtd:output.obj
 0001:0004f3f0       ?should_format@?$positional_parameter_base@DV?$stream_output_adapter@D@__crt_stdio_output@@@__crt_stdio_output@@IAE_NXZ 100503f0 f i libucrtd:output.obj
 0001:0004f430       ?should_format@?$positional_parameter_base@DV?$string_output_adapter@D@__crt_stdio_output@@@__crt_stdio_output@@IAE_NXZ 10050430 f i libucrtd:output.obj
 0001:0004f470       ?should_format@?$positional_parameter_base@_WV?$stream_output_adapter@_W@__crt_stdio_output@@@__crt_stdio_output@@IAE_NXZ 10050470 f i libucrtd:output.obj
 0001:0004f4b0       ?should_format@?$positional_parameter_base@_WV?$string_output_adapter@_W@__crt_stdio_output@@@__crt_stdio_output@@IAE_NXZ 100504b0 f i libucrtd:output.obj
 0001:0004f4f0       ?should_format@?$standard_base@DV?$stream_output_adapter@D@__crt_stdio_output@@@__crt_stdio_output@@IAE_NXZ 100504f0 f i libucrtd:output.obj
 0001:0004f500       ?should_format@?$standard_base@DV?$string_output_adapter@D@__crt_stdio_output@@@__crt_stdio_output@@IAE_NXZ 10050500 f i libucrtd:output.obj
 0001:0004f510       ?should_format@?$standard_base@_WV?$stream_output_adapter@_W@__crt_stdio_output@@@__crt_stdio_output@@IAE_NXZ 10050510 f i libucrtd:output.obj
 0001:0004f520       ?should_format@?$standard_base@_WV?$string_output_adapter@_W@__crt_stdio_output@@@__crt_stdio_output@@IAE_NXZ 10050520 f i libucrtd:output.obj
 0001:0004f530       ?should_skip_normal_state_processing@?$positional_parameter_base@DV?$stream_output_adapter@D@__crt_stdio_output@@@__crt_stdio_output@@IAE_NXZ 10050530 f i libucrtd:output.obj
 0001:0004f580       ?should_skip_normal_state_processing@?$positional_parameter_base@DV?$string_output_adapter@D@__crt_stdio_output@@@__crt_stdio_output@@IAE_NXZ 10050580 f i libucrtd:output.obj
 0001:0004f5d0       ?should_skip_normal_state_processing@?$positional_parameter_base@_WV?$stream_output_adapter@_W@__crt_stdio_output@@@__crt_stdio_output@@IAE_NXZ 100505d0 f i libucrtd:output.obj
 0001:0004f620       ?should_skip_normal_state_processing@?$positional_parameter_base@_WV?$string_output_adapter@_W@__crt_stdio_output@@@__crt_stdio_output@@IAE_NXZ 10050620 f i libucrtd:output.obj
 0001:0004f670       ?should_skip_normal_state_processing@?$standard_base@DV?$stream_output_adapter@D@__crt_stdio_output@@@__crt_stdio_output@@IAE_NXZ 10050670 f i libucrtd:output.obj
 0001:0004f680       ?should_skip_normal_state_processing@?$standard_base@DV?$string_output_adapter@D@__crt_stdio_output@@@__crt_stdio_output@@IAE_NXZ 10050680 f i libucrtd:output.obj
 0001:0004f690       ?should_skip_normal_state_processing@?$standard_base@_WV?$stream_output_adapter@_W@__crt_stdio_output@@@__crt_stdio_output@@IAE_NXZ 10050690 f i libucrtd:output.obj
 0001:0004f6a0       ?should_skip_normal_state_processing@?$standard_base@_WV?$string_output_adapter@_W@__crt_stdio_output@@@__crt_stdio_output@@IAE_NXZ 100506a0 f i libucrtd:output.obj
 0001:0004f6b0       ?should_skip_type_state_output@?$positional_parameter_base@DV?$stream_output_adapter@D@__crt_stdio_output@@@__crt_stdio_output@@IBE_NXZ 100506b0 f i libucrtd:output.obj
 0001:0004f6f0       ?should_skip_type_state_output@?$positional_parameter_base@DV?$string_output_adapter@D@__crt_stdio_output@@@__crt_stdio_output@@IBE_NXZ 100506f0 f i libucrtd:output.obj
 0001:0004f730       ?should_skip_type_state_output@?$positional_parameter_base@_WV?$stream_output_adapter@_W@__crt_stdio_output@@@__crt_stdio_output@@IBE_NXZ 10050730 f i libucrtd:output.obj
 0001:0004f770       ?should_skip_type_state_output@?$positional_parameter_base@_WV?$string_output_adapter@_W@__crt_stdio_output@@@__crt_stdio_output@@IBE_NXZ 10050770 f i libucrtd:output.obj
 0001:0004f7b0       ?should_skip_type_state_output@?$standard_base@DV?$stream_output_adapter@D@__crt_stdio_output@@@__crt_stdio_output@@IBE_NXZ 100507b0 f i libucrtd:output.obj
 0001:0004f7c0       ?should_skip_type_state_output@?$standard_base@DV?$string_output_adapter@D@__crt_stdio_output@@@__crt_stdio_output@@IBE_NXZ 100507c0 f i libucrtd:output.obj
 0001:0004f7d0       ?should_skip_type_state_output@?$standard_base@_WV?$stream_output_adapter@_W@__crt_stdio_output@@@__crt_stdio_output@@IBE_NXZ 100507d0 f i libucrtd:output.obj
 0001:0004f7e0       ?should_skip_type_state_output@?$standard_base@_WV?$string_output_adapter@_W@__crt_stdio_output@@@__crt_stdio_output@@IBE_NXZ 100507e0 f i libucrtd:output.obj
 0001:0004f7f0       ?state_case_dot@?$output_processor@DV?$stream_output_adapter@D@__crt_stdio_output@@V?$format_validation_base@DV?$stream_output_adapter@D@__crt_stdio_output@@@2@@__crt_stdio_output@@AAE_NXZ 100507f0 f i libucrtd:output.obj
 0001:0004f810       ?state_case_dot@?$output_processor@DV?$stream_output_adapter@D@__crt_stdio_output@@V?$positional_parameter_base@DV?$stream_output_adapter@D@__crt_stdio_output@@@2@@__crt_stdio_output@@AAE_NXZ 10050810 f i libucrtd:output.obj
 0001:0004f830       ?state_case_dot@?$output_processor@DV?$stream_output_adapter@D@__crt_stdio_output@@V?$standard_base@DV?$stream_output_adapter@D@__crt_stdio_output@@@2@@__crt_stdio_output@@AAE_NXZ 10050830 f i libucrtd:output.obj
 0001:0004f850       ?state_case_dot@?$output_processor@DV?$string_output_adapter@D@__crt_stdio_output@@V?$format_validation_base@DV?$string_output_adapter@D@__crt_stdio_output@@@2@@__crt_stdio_output@@AAE_NXZ 10050850 f i libucrtd:output.obj
 0001:0004f870       ?state_case_dot@?$output_processor@DV?$string_output_adapter@D@__crt_stdio_output@@V?$positional_parameter_base@DV?$string_output_adapter@D@__crt_stdio_output@@@2@@__crt_stdio_output@@AAE_NXZ 10050870 f i libucrtd:output.obj
 0001:0004f890       ?state_case_dot@?$output_processor@DV?$string_output_adapter@D@__crt_stdio_output@@V?$standard_base@DV?$string_output_adapter@D@__crt_stdio_output@@@2@@__crt_stdio_output@@AAE_NXZ 10050890 f i libucrtd:output.obj
 0001:0004f8b0       ?state_case_dot@?$output_processor@_WV?$stream_output_adapter@_W@__crt_stdio_output@@V?$format_validation_base@_WV?$stream_output_adapter@_W@__crt_stdio_output@@@2@@__crt_stdio_output@@AAE_NXZ 100508b0 f i libucrtd:output.obj
 0001:0004f8d0       ?state_case_dot@?$output_processor@_WV?$stream_output_adapter@_W@__crt_stdio_output@@V?$positional_parameter_base@_WV?$stream_output_adapter@_W@__crt_stdio_output@@@2@@__crt_stdio_output@@AAE_NXZ 100508d0 f i libucrtd:output.obj
 0001:0004f8f0       ?state_case_dot@?$output_processor@_WV?$stream_output_adapter@_W@__crt_stdio_output@@V?$standard_base@_WV?$stream_output_adapter@_W@__crt_stdio_output@@@2@@__crt_stdio_output@@AAE_NXZ 100508f0 f i libucrtd:output.obj
 0001:0004f910       ?state_case_dot@?$output_processor@_WV?$string_output_adapter@_W@__crt_stdio_output@@V?$format_validation_base@_WV?$string_output_adapter@_W@__crt_stdio_output@@@2@@__crt_stdio_output@@AAE_NXZ 10050910 f i libucrtd:output.obj
 0001:0004f930       ?state_case_dot@?$output_processor@_WV?$string_output_adapter@_W@__crt_stdio_output@@V?$positional_parameter_base@_WV?$string_output_adapter@_W@__crt_stdio_output@@@2@@__crt_stdio_output@@AAE_NXZ 10050930 f i libucrtd:output.obj
 0001:0004f950       ?state_case_dot@?$output_processor@_WV?$string_output_adapter@_W@__crt_stdio_output@@V?$standard_base@_WV?$string_output_adapter@_W@__crt_stdio_output@@@2@@__crt_stdio_output@@AAE_NXZ 10050950 f i libucrtd:output.obj
 0001:0004f970       ?state_case_flag@?$output_processor@DV?$stream_output_adapter@D@__crt_stdio_output@@V?$format_validation_base@DV?$stream_output_adapter@D@__crt_stdio_output@@@2@@__crt_stdio_output@@AAE_NXZ 10050970 f i libucrtd:output.obj
 0001:0004fa20       ?state_case_flag@?$output_processor@DV?$stream_output_adapter@D@__crt_stdio_output@@V?$positional_parameter_base@DV?$stream_output_adapter@D@__crt_stdio_output@@@2@@__crt_stdio_output@@AAE_NXZ 10050a20 f i libucrtd:output.obj
 0001:0004fad0       ?state_case_flag@?$output_processor@DV?$stream_output_adapter@D@__crt_stdio_output@@V?$standard_base@DV?$stream_output_adapter@D@__crt_stdio_output@@@2@@__crt_stdio_output@@AAE_NXZ 10050ad0 f i libucrtd:output.obj
 0001:0004fb80       ?state_case_flag@?$output_processor@DV?$string_output_adapter@D@__crt_stdio_output@@V?$format_validation_base@DV?$string_output_adapter@D@__crt_stdio_output@@@2@@__crt_stdio_output@@AAE_NXZ 10050b80 f i libucrtd:output.obj
 0001:0004fc30       ?state_case_flag@?$output_processor@DV?$string_output_adapter@D@__crt_stdio_output@@V?$positional_parameter_base@DV?$string_output_adapter@D@__crt_stdio_output@@@2@@__crt_stdio_output@@AAE_NXZ 10050c30 f i libucrtd:output.obj
 0001:0004fce0       ?state_case_flag@?$output_processor@DV?$string_output_adapter@D@__crt_stdio_output@@V?$standard_base@DV?$string_output_adapter@D@__crt_stdio_output@@@2@@__crt_stdio_output@@AAE_NXZ 10050ce0 f i libucrtd:output.obj
 0001:0004fd90       ?state_case_flag@?$output_processor@_WV?$stream_output_adapter@_W@__crt_stdio_output@@V?$format_validation_base@_WV?$stream_output_adapter@_W@__crt_stdio_output@@@2@@__crt_stdio_output@@AAE_NXZ 10050d90 f i libucrtd:output.obj
 0001:0004fe40       ?state_case_flag@?$output_processor@_WV?$stream_output_adapter@_W@__crt_stdio_output@@V?$positional_parameter_base@_WV?$stream_output_adapter@_W@__crt_stdio_output@@@2@@__crt_stdio_output@@AAE_NXZ 10050e40 f i libucrtd:output.obj
 0001:0004fef0       ?state_case_flag@?$output_processor@_WV?$stream_output_adapter@_W@__crt_stdio_output@@V?$standard_base@_WV?$stream_output_adapter@_W@__crt_stdio_output@@@2@@__crt_stdio_output@@AAE_NXZ 10050ef0 f i libucrtd:output.obj
 0001:0004ffa0       ?state_case_flag@?$output_processor@_WV?$string_output_adapter@_W@__crt_stdio_output@@V?$format_validation_base@_WV?$string_output_adapter@_W@__crt_stdio_output@@@2@@__crt_stdio_output@@AAE_NXZ 10050fa0 f i libucrtd:output.obj
 0001:00050050       ?state_case_flag@?$output_processor@_WV?$string_output_adapter@_W@__crt_stdio_output@@V?$positional_parameter_base@_WV?$string_output_adapter@_W@__crt_stdio_output@@@2@@__crt_stdio_output@@AAE_NXZ 10051050 f i libucrtd:output.obj
 0001:00050100       ?state_case_flag@?$output_processor@_WV?$string_output_adapter@_W@__crt_stdio_output@@V?$standard_base@_WV?$string_output_adapter@_W@__crt_stdio_output@@@2@@__crt_stdio_output@@AAE_NXZ 10051100 f i libucrtd:output.obj
 0001:000501b0       ?state_case_normal@?$output_processor@DV?$stream_output_adapter@D@__crt_stdio_output@@V?$format_validation_base@DV?$stream_output_adapter@D@__crt_stdio_output@@@2@@__crt_stdio_output@@AAE_NXZ 100511b0 f i libucrtd:output.obj
 0001:00050260       ?state_case_normal@?$output_processor@DV?$stream_output_adapter@D@__crt_stdio_output@@V?$positional_parameter_base@DV?$stream_output_adapter@D@__crt_stdio_output@@@2@@__crt_stdio_output@@AAE_NXZ 10051260 f i libucrtd:output.obj
 0001:00050310       ?state_case_normal@?$output_processor@DV?$stream_output_adapter@D@__crt_stdio_output@@V?$standard_base@DV?$stream_output_adapter@D@__crt_stdio_output@@@2@@__crt_stdio_output@@AAE_NXZ 10051310 f i libucrtd:output.obj
 0001:000503c0       ?state_case_normal@?$output_processor@DV?$string_output_adapter@D@__crt_stdio_output@@V?$format_validation_base@DV?$string_output_adapter@D@__crt_stdio_output@@@2@@__crt_stdio_output@@AAE_NXZ 100513c0 f i libucrtd:output.obj
 0001:00050470       ?state_case_normal@?$output_processor@DV?$string_output_adapter@D@__crt_stdio_output@@V?$positional_parameter_base@DV?$string_output_adapter@D@__crt_stdio_output@@@2@@__crt_stdio_output@@AAE_NXZ 10051470 f i libucrtd:output.obj
 0001:00050520       ?state_case_normal@?$output_processor@DV?$string_output_adapter@D@__crt_stdio_output@@V?$standard_base@DV?$string_output_adapter@D@__crt_stdio_output@@@2@@__crt_stdio_output@@AAE_NXZ 10051520 f i libucrtd:output.obj
 0001:000505d0       ?state_case_normal@?$output_processor@_WV?$stream_output_adapter@_W@__crt_stdio_output@@V?$format_validation_base@_WV?$stream_output_adapter@_W@__crt_stdio_output@@@2@@__crt_stdio_output@@AAE_NXZ 100515d0 f i libucrtd:output.obj
 0001:00050680       ?state_case_normal@?$output_processor@_WV?$stream_output_adapter@_W@__crt_stdio_output@@V?$positional_parameter_base@_WV?$stream_output_adapter@_W@__crt_stdio_output@@@2@@__crt_stdio_output@@AAE_NXZ 10051680 f i libucrtd:output.obj
 0001:00050730       ?state_case_normal@?$output_processor@_WV?$stream_output_adapter@_W@__crt_stdio_output@@V?$standard_base@_WV?$stream_output_adapter@_W@__crt_stdio_output@@@2@@__crt_stdio_output@@AAE_NXZ 10051730 f i libucrtd:output.obj
 0001:000507e0       ?state_case_normal@?$output_processor@_WV?$string_output_adapter@_W@__crt_stdio_output@@V?$format_validation_base@_WV?$string_output_adapter@_W@__crt_stdio_output@@@2@@__crt_stdio_output@@AAE_NXZ 100517e0 f i libucrtd:output.obj
 0001:00050890       ?state_case_normal@?$output_processor@_WV?$string_output_adapter@_W@__crt_stdio_output@@V?$positional_parameter_base@_WV?$string_output_adapter@_W@__crt_stdio_output@@@2@@__crt_stdio_output@@AAE_NXZ 10051890 f i libucrtd:output.obj
 0001:00050940       ?state_case_normal@?$output_processor@_WV?$string_output_adapter@_W@__crt_stdio_output@@V?$standard_base@_WV?$string_output_adapter@_W@__crt_stdio_output@@@2@@__crt_stdio_output@@AAE_NXZ 10051940 f i libucrtd:output.obj
 0001:000509f0       ?state_case_normal_common@?$output_processor@DV?$stream_output_adapter@D@__crt_stdio_output@@V?$format_validation_base@DV?$stream_output_adapter@D@__crt_stdio_output@@@2@@__crt_stdio_output@@AAE_NXZ 100519f0 f i libucrtd:output.obj
 0001:00050a40       ?state_case_normal_common@?$output_processor@DV?$stream_output_adapter@D@__crt_stdio_output@@V?$positional_parameter_base@DV?$stream_output_adapter@D@__crt_stdio_output@@@2@@__crt_stdio_output@@AAE_NXZ 10051a40 f i libucrtd:output.obj
 0001:00050a90       ?state_case_normal_common@?$output_processor@DV?$stream_output_adapter@D@__crt_stdio_output@@V?$standard_base@DV?$stream_output_adapter@D@__crt_stdio_output@@@2@@__crt_stdio_output@@AAE_NXZ 10051a90 f i libucrtd:output.obj
 0001:00050ae0       ?state_case_normal_common@?$output_processor@DV?$string_output_adapter@D@__crt_stdio_output@@V?$format_validation_base@DV?$string_output_adapter@D@__crt_stdio_output@@@2@@__crt_stdio_output@@AAE_NXZ 10051ae0 f i libucrtd:output.obj
 0001:00050b30       ?state_case_normal_common@?$output_processor@DV?$string_output_adapter@D@__crt_stdio_output@@V?$positional_parameter_base@DV?$string_output_adapter@D@__crt_stdio_output@@@2@@__crt_stdio_output@@AAE_NXZ 10051b30 f i libucrtd:output.obj
 0001:00050b80       ?state_case_normal_common@?$output_processor@DV?$string_output_adapter@D@__crt_stdio_output@@V?$standard_base@DV?$string_output_adapter@D@__crt_stdio_output@@@2@@__crt_stdio_output@@AAE_NXZ 10051b80 f i libucrtd:output.obj
 0001:00050bd0       ?state_case_normal_common@?$output_processor@_WV?$stream_output_adapter@_W@__crt_stdio_output@@V?$format_validation_base@_WV?$stream_output_adapter@_W@__crt_stdio_output@@@2@@__crt_stdio_output@@AAE_NXZ 10051bd0 f i libucrtd:output.obj
 0001:00050c20       ?state_case_normal_common@?$output_processor@_WV?$stream_output_adapter@_W@__crt_stdio_output@@V?$positional_parameter_base@_WV?$stream_output_adapter@_W@__crt_stdio_output@@@2@@__crt_stdio_output@@AAE_NXZ 10051c20 f i libucrtd:output.obj
 0001:00050c70       ?state_case_normal_common@?$output_processor@_WV?$stream_output_adapter@_W@__crt_stdio_output@@V?$standard_base@_WV?$stream_output_adapter@_W@__crt_stdio_output@@@2@@__crt_stdio_output@@AAE_NXZ 10051c70 f i libucrtd:output.obj
 0001:00050cc0       ?state_case_normal_common@?$output_processor@_WV?$string_output_adapter@_W@__crt_stdio_output@@V?$format_validation_base@_WV?$string_output_adapter@_W@__crt_stdio_output@@@2@@__crt_stdio_output@@AAE_NXZ 10051cc0 f i libucrtd:output.obj
 0001:00050d10       ?state_case_normal_common@?$output_processor@_WV?$string_output_adapter@_W@__crt_stdio_output@@V?$positional_parameter_base@_WV?$string_output_adapter@_W@__crt_stdio_output@@@2@@__crt_stdio_output@@AAE_NXZ 10051d10 f i libucrtd:output.obj
 0001:00050d60       ?state_case_normal_common@?$output_processor@_WV?$string_output_adapter@_W@__crt_stdio_output@@V?$standard_base@_WV?$string_output_adapter@_W@__crt_stdio_output@@@2@@__crt_stdio_output@@AAE_NXZ 10051d60 f i libucrtd:output.obj
 0001:00050db0       ?state_case_normal_tchar@?$output_processor@DV?$stream_output_adapter@D@__crt_stdio_output@@V?$format_validation_base@DV?$stream_output_adapter@D@__crt_stdio_output@@@2@@__crt_stdio_output@@AAE_ND@Z 10051db0 f i libucrtd:output.obj
 0001:00050eb0       ?state_case_normal_tchar@?$output_processor@DV?$stream_output_adapter@D@__crt_stdio_output@@V?$positional_parameter_base@DV?$stream_output_adapter@D@__crt_stdio_output@@@2@@__crt_stdio_output@@AAE_ND@Z 10051eb0 f i libucrtd:output.obj
 0001:00050fb0       ?state_case_normal_tchar@?$output_processor@DV?$stream_output_adapter@D@__crt_stdio_output@@V?$standard_base@DV?$stream_output_adapter@D@__crt_stdio_output@@@2@@__crt_stdio_output@@AAE_ND@Z 10051fb0 f i libucrtd:output.obj
 0001:000510b0       ?state_case_normal_tchar@?$output_processor@DV?$string_output_adapter@D@__crt_stdio_output@@V?$format_validation_base@DV?$string_output_adapter@D@__crt_stdio_output@@@2@@__crt_stdio_output@@AAE_ND@Z 100520b0 f i libucrtd:output.obj
 0001:000511b0       ?state_case_normal_tchar@?$output_processor@DV?$string_output_adapter@D@__crt_stdio_output@@V?$positional_parameter_base@DV?$string_output_adapter@D@__crt_stdio_output@@@2@@__crt_stdio_output@@AAE_ND@Z 100521b0 f i libucrtd:output.obj
 0001:000512b0       ?state_case_normal_tchar@?$output_processor@DV?$string_output_adapter@D@__crt_stdio_output@@V?$standard_base@DV?$string_output_adapter@D@__crt_stdio_output@@@2@@__crt_stdio_output@@AAE_ND@Z 100522b0 f i libucrtd:output.obj
 0001:000513b0       ?state_case_normal_tchar@?$output_processor@_WV?$stream_output_adapter@_W@__crt_stdio_output@@V?$format_validation_base@_WV?$stream_output_adapter@_W@__crt_stdio_output@@@2@@__crt_stdio_output@@AAE_N_W@Z 100523b0 f i libucrtd:output.obj
 0001:000513d0       ?state_case_normal_tchar@?$output_processor@_WV?$stream_output_adapter@_W@__crt_stdio_output@@V?$positional_parameter_base@_WV?$stream_output_adapter@_W@__crt_stdio_output@@@2@@__crt_stdio_output@@AAE_N_W@Z 100523d0 f i libucrtd:output.obj
 0001:000513f0       ?state_case_normal_tchar@?$output_processor@_WV?$stream_output_adapter@_W@__crt_stdio_output@@V?$standard_base@_WV?$stream_output_adapter@_W@__crt_stdio_output@@@2@@__crt_stdio_output@@AAE_N_W@Z 100523f0 f i libucrtd:output.obj
 0001:00051410       ?state_case_normal_tchar@?$output_processor@_WV?$string_output_adapter@_W@__crt_stdio_output@@V?$format_validation_base@_WV?$string_output_adapter@_W@__crt_stdio_output@@@2@@__crt_stdio_output@@AAE_N_W@Z 10052410 f i libucrtd:output.obj
 0001:00051430       ?state_case_normal_tchar@?$output_processor@_WV?$string_output_adapter@_W@__crt_stdio_output@@V?$positional_parameter_base@_WV?$string_output_adapter@_W@__crt_stdio_output@@@2@@__crt_stdio_output@@AAE_N_W@Z 10052430 f i libucrtd:output.obj
 0001:00051450       ?state_case_normal_tchar@?$output_processor@_WV?$string_output_adapter@_W@__crt_stdio_output@@V?$standard_base@_WV?$string_output_adapter@_W@__crt_stdio_output@@@2@@__crt_stdio_output@@AAE_N_W@Z 10052450 f i libucrtd:output.obj
 0001:00051470       ?state_case_percent@?$output_processor@DV?$stream_output_adapter@D@__crt_stdio_output@@V?$format_validation_base@DV?$stream_output_adapter@D@__crt_stdio_output@@@2@@__crt_stdio_output@@AAE_NXZ 10052470 f i libucrtd:output.obj
 0001:000514c0       ?state_case_percent@?$output_processor@DV?$stream_output_adapter@D@__crt_stdio_output@@V?$positional_parameter_base@DV?$stream_output_adapter@D@__crt_stdio_output@@@2@@__crt_stdio_output@@AAE_NXZ 100524c0 f i libucrtd:output.obj
 0001:00051510       ?state_case_percent@?$output_processor@DV?$stream_output_adapter@D@__crt_stdio_output@@V?$standard_base@DV?$stream_output_adapter@D@__crt_stdio_output@@@2@@__crt_stdio_output@@AAE_NXZ 10052510 f i libucrtd:output.obj
 0001:00051560       ?state_case_percent@?$output_processor@DV?$string_output_adapter@D@__crt_stdio_output@@V?$format_validation_base@DV?$string_output_adapter@D@__crt_stdio_output@@@2@@__crt_stdio_output@@AAE_NXZ 10052560 f i libucrtd:output.obj
 0001:000515b0       ?state_case_percent@?$output_processor@DV?$string_output_adapter@D@__crt_stdio_output@@V?$positional_parameter_base@DV?$string_output_adapter@D@__crt_stdio_output@@@2@@__crt_stdio_output@@AAE_NXZ 100525b0 f i libucrtd:output.obj
 0001:00051600       ?state_case_percent@?$output_processor@DV?$string_output_adapter@D@__crt_stdio_output@@V?$standard_base@DV?$string_output_adapter@D@__crt_stdio_output@@@2@@__crt_stdio_output@@AAE_NXZ 10052600 f i libucrtd:output.obj
 0001:00051650       ?state_case_percent@?$output_processor@_WV?$stream_output_adapter@_W@__crt_stdio_output@@V?$format_validation_base@_WV?$stream_output_adapter@_W@__crt_stdio_output@@@2@@__crt_stdio_output@@AAE_NXZ 10052650 f i libucrtd:output.obj
 0001:000516a0       ?state_case_percent@?$output_processor@_WV?$stream_output_adapter@_W@__crt_stdio_output@@V?$positional_parameter_base@_WV?$stream_output_adapter@_W@__crt_stdio_output@@@2@@__crt_stdio_output@@AAE_NXZ 100526a0 f i libucrtd:output.obj
 0001:000516f0       ?state_case_percent@?$output_processor@_WV?$stream_output_adapter@_W@__crt_stdio_output@@V?$standard_base@_WV?$stream_output_adapter@_W@__crt_stdio_output@@@2@@__crt_stdio_output@@AAE_NXZ 100526f0 f i libucrtd:output.obj
 0001:00051740       ?state_case_percent@?$output_processor@_WV?$string_output_adapter@_W@__crt_stdio_output@@V?$format_validation_base@_WV?$string_output_adapter@_W@__crt_stdio_output@@@2@@__crt_stdio_output@@AAE_NXZ 10052740 f i libucrtd:output.obj
 0001:00051790       ?state_case_percent@?$output_processor@_WV?$string_output_adapter@_W@__crt_stdio_output@@V?$positional_parameter_base@_WV?$string_output_adapter@_W@__crt_stdio_output@@@2@@__crt_stdio_output@@AAE_NXZ 10052790 f i libucrtd:output.obj
 0001:000517e0       ?state_case_percent@?$output_processor@_WV?$string_output_adapter@_W@__crt_stdio_output@@V?$standard_base@_WV?$string_output_adapter@_W@__crt_stdio_output@@@2@@__crt_stdio_output@@AAE_NXZ 100527e0 f i libucrtd:output.obj
 0001:00051830       ?state_case_precision@?$output_processor@DV?$stream_output_adapter@D@__crt_stdio_output@@V?$format_validation_base@DV?$stream_output_adapter@D@__crt_stdio_output@@@2@@__crt_stdio_output@@AAE_NXZ 10052830 f i libucrtd:output.obj
 0001:000518a0       ?state_case_precision@?$output_processor@DV?$stream_output_adapter@D@__crt_stdio_output@@V?$positional_parameter_base@DV?$stream_output_adapter@D@__crt_stdio_output@@@2@@__crt_stdio_output@@AAE_NXZ 100528a0 f i libucrtd:output.obj
 0001:00051910       ?state_case_precision@?$output_processor@DV?$stream_output_adapter@D@__crt_stdio_output@@V?$standard_base@DV?$stream_output_adapter@D@__crt_stdio_output@@@2@@__crt_stdio_output@@AAE_NXZ 10052910 f i libucrtd:output.obj
 0001:00051980       ?state_case_precision@?$output_processor@DV?$string_output_adapter@D@__crt_stdio_output@@V?$format_validation_base@DV?$string_output_adapter@D@__crt_stdio_output@@@2@@__crt_stdio_output@@AAE_NXZ 10052980 f i libucrtd:output.obj
 0001:000519f0       ?state_case_precision@?$output_processor@DV?$string_output_adapter@D@__crt_stdio_output@@V?$positional_parameter_base@DV?$string_output_adapter@D@__crt_stdio_output@@@2@@__crt_stdio_output@@AAE_NXZ 100529f0 f i libucrtd:output.obj
 0001:00051a60       ?state_case_precision@?$output_processor@DV?$string_output_adapter@D@__crt_stdio_output@@V?$standard_base@DV?$string_output_adapter@D@__crt_stdio_output@@@2@@__crt_stdio_output@@AAE_NXZ 10052a60 f i libucrtd:output.obj
 0001:00051ad0       ?state_case_precision@?$output_processor@_WV?$stream_output_adapter@_W@__crt_stdio_output@@V?$format_validation_base@_WV?$stream_output_adapter@_W@__crt_stdio_output@@@2@@__crt_stdio_output@@AAE_NXZ 10052ad0 f i libucrtd:output.obj
 0001:00051b40       ?state_case_precision@?$output_processor@_WV?$stream_output_adapter@_W@__crt_stdio_output@@V?$positional_parameter_base@_WV?$stream_output_adapter@_W@__crt_stdio_output@@@2@@__crt_stdio_output@@AAE_NXZ 10052b40 f i libucrtd:output.obj
 0001:00051bb0       ?state_case_precision@?$output_processor@_WV?$stream_output_adapter@_W@__crt_stdio_output@@V?$standard_base@_WV?$stream_output_adapter@_W@__crt_stdio_output@@@2@@__crt_stdio_output@@AAE_NXZ 10052bb0 f i libucrtd:output.obj
 0001:00051c20       ?state_case_precision@?$output_processor@_WV?$string_output_adapter@_W@__crt_stdio_output@@V?$format_validation_base@_WV?$string_output_adapter@_W@__crt_stdio_output@@@2@@__crt_stdio_output@@AAE_NXZ 10052c20 f i libucrtd:output.obj
 0001:00051c90       ?state_case_precision@?$output_processor@_WV?$string_output_adapter@_W@__crt_stdio_output@@V?$positional_parameter_base@_WV?$string_output_adapter@_W@__crt_stdio_output@@@2@@__crt_stdio_output@@AAE_NXZ 10052c90 f i libucrtd:output.obj
 0001:00051d00       ?state_case_precision@?$output_processor@_WV?$string_output_adapter@_W@__crt_stdio_output@@V?$standard_base@_WV?$string_output_adapter@_W@__crt_stdio_output@@@2@@__crt_stdio_output@@AAE_NXZ 10052d00 f i libucrtd:output.obj
 0001:00051d70       ?state_case_size@?$output_processor@DV?$stream_output_adapter@D@__crt_stdio_output@@V?$format_validation_base@DV?$stream_output_adapter@D@__crt_stdio_output@@@2@@__crt_stdio_output@@AAE_NXZ 10052d70 f i libucrtd:output.obj
 0001:00052140       ?state_case_size@?$output_processor@DV?$stream_output_adapter@D@__crt_stdio_output@@V?$positional_parameter_base@DV?$stream_output_adapter@D@__crt_stdio_output@@@2@@__crt_stdio_output@@AAE_NXZ 10053140 f i libucrtd:output.obj
 0001:00052510       ?state_case_size@?$output_processor@DV?$stream_output_adapter@D@__crt_stdio_output@@V?$standard_base@DV?$stream_output_adapter@D@__crt_stdio_output@@@2@@__crt_stdio_output@@AAE_NXZ 10053510 f i libucrtd:output.obj
 0001:000528e0       ?state_case_size@?$output_processor@DV?$string_output_adapter@D@__crt_stdio_output@@V?$format_validation_base@DV?$string_output_adapter@D@__crt_stdio_output@@@2@@__crt_stdio_output@@AAE_NXZ 100538e0 f i libucrtd:output.obj
 0001:00052cb0       ?state_case_size@?$output_processor@DV?$string_output_adapter@D@__crt_stdio_output@@V?$positional_parameter_base@DV?$string_output_adapter@D@__crt_stdio_output@@@2@@__crt_stdio_output@@AAE_NXZ 10053cb0 f i libucrtd:output.obj
 0001:00053080       ?state_case_size@?$output_processor@DV?$string_output_adapter@D@__crt_stdio_output@@V?$standard_base@DV?$string_output_adapter@D@__crt_stdio_output@@@2@@__crt_stdio_output@@AAE_NXZ 10054080 f i libucrtd:output.obj
 0001:00053450       ?state_case_size@?$output_processor@_WV?$stream_output_adapter@_W@__crt_stdio_output@@V?$format_validation_base@_WV?$stream_output_adapter@_W@__crt_stdio_output@@@2@@__crt_stdio_output@@AAE_NXZ 10054450 f i libucrtd:output.obj
 0001:00053820       ?state_case_size@?$output_processor@_WV?$stream_output_adapter@_W@__crt_stdio_output@@V?$positional_parameter_base@_WV?$stream_output_adapter@_W@__crt_stdio_output@@@2@@__crt_stdio_output@@AAE_NXZ 10054820 f i libucrtd:output.obj
 0001:00053bf0       ?state_case_size@?$output_processor@_WV?$stream_output_adapter@_W@__crt_stdio_output@@V?$standard_base@_WV?$stream_output_adapter@_W@__crt_stdio_output@@@2@@__crt_stdio_output@@AAE_NXZ 10054bf0 f i libucrtd:output.obj
 0001:00053fc0       ?state_case_size@?$output_processor@_WV?$string_output_adapter@_W@__crt_stdio_output@@V?$format_validation_base@_WV?$string_output_adapter@_W@__crt_stdio_output@@@2@@__crt_stdio_output@@AAE_NXZ 10054fc0 f i libucrtd:output.obj
 0001:00054390       ?state_case_size@?$output_processor@_WV?$string_output_adapter@_W@__crt_stdio_output@@V?$positional_parameter_base@_WV?$string_output_adapter@_W@__crt_stdio_output@@@2@@__crt_stdio_output@@AAE_NXZ 10055390 f i libucrtd:output.obj
 0001:00054760       ?state_case_size@?$output_processor@_WV?$string_output_adapter@_W@__crt_stdio_output@@V?$standard_base@_WV?$string_output_adapter@_W@__crt_stdio_output@@@2@@__crt_stdio_output@@AAE_NXZ 10055760 f i libucrtd:output.obj
 0001:00054b30       ?state_case_type@?$output_processor@DV?$stream_output_adapter@D@__crt_stdio_output@@V?$format_validation_base@DV?$stream_output_adapter@D@__crt_stdio_output@@@2@@__crt_stdio_output@@AAE_NXZ 10055b30 f i libucrtd:output.obj
 0001:00054ee0       ?state_case_type@?$output_processor@DV?$stream_output_adapter@D@__crt_stdio_output@@V?$positional_parameter_base@DV?$stream_output_adapter@D@__crt_stdio_output@@@2@@__crt_stdio_output@@AAE_NXZ 10055ee0 f i libucrtd:output.obj
 0001:00055290       ?state_case_type@?$output_processor@DV?$stream_output_adapter@D@__crt_stdio_output@@V?$standard_base@DV?$stream_output_adapter@D@__crt_stdio_output@@@2@@__crt_stdio_output@@AAE_NXZ 10056290 f i libucrtd:output.obj
 0001:00055640       ?state_case_type@?$output_processor@DV?$string_output_adapter@D@__crt_stdio_output@@V?$format_validation_base@DV?$string_output_adapter@D@__crt_stdio_output@@@2@@__crt_stdio_output@@AAE_NXZ 10056640 f i libucrtd:output.obj
 0001:000559f0       ?state_case_type@?$output_processor@DV?$string_output_adapter@D@__crt_stdio_output@@V?$positional_parameter_base@DV?$string_output_adapter@D@__crt_stdio_output@@@2@@__crt_stdio_output@@AAE_NXZ 100569f0 f i libucrtd:output.obj
 0001:00055da0       ?state_case_type@?$output_processor@DV?$string_output_adapter@D@__crt_stdio_output@@V?$standard_base@DV?$string_output_adapter@D@__crt_stdio_output@@@2@@__crt_stdio_output@@AAE_NXZ 10056da0 f i libucrtd:output.obj
 0001:00056150       ?state_case_type@?$output_processor@_WV?$stream_output_adapter@_W@__crt_stdio_output@@V?$format_validation_base@_WV?$stream_output_adapter@_W@__crt_stdio_output@@@2@@__crt_stdio_output@@AAE_NXZ 10057150 f i libucrtd:output.obj
 0001:00056530       ?state_case_type@?$output_processor@_WV?$stream_output_adapter@_W@__crt_stdio_output@@V?$positional_parameter_base@_WV?$stream_output_adapter@_W@__crt_stdio_output@@@2@@__crt_stdio_output@@AAE_NXZ 10057530 f i libucrtd:output.obj
 0001:00056910       ?state_case_type@?$output_processor@_WV?$stream_output_adapter@_W@__crt_stdio_output@@V?$standard_base@_WV?$stream_output_adapter@_W@__crt_stdio_output@@@2@@__crt_stdio_output@@AAE_NXZ 10057910 f i libucrtd:output.obj
 0001:00056cf0       ?state_case_type@?$output_processor@_WV?$string_output_adapter@_W@__crt_stdio_output@@V?$format_validation_base@_WV?$string_output_adapter@_W@__crt_stdio_output@@@2@@__crt_stdio_output@@AAE_NXZ 10057cf0 f i libucrtd:output.obj
 0001:000570d0       ?state_case_type@?$output_processor@_WV?$string_output_adapter@_W@__crt_stdio_output@@V?$positional_parameter_base@_WV?$string_output_adapter@_W@__crt_stdio_output@@@2@@__crt_stdio_output@@AAE_NXZ 100580d0 f i libucrtd:output.obj
 0001:000574b0       ?state_case_type@?$output_processor@_WV?$string_output_adapter@_W@__crt_stdio_output@@V?$standard_base@_WV?$string_output_adapter@_W@__crt_stdio_output@@@2@@__crt_stdio_output@@AAE_NXZ 100584b0 f i libucrtd:output.obj
 0001:00057890       ?state_case_width@?$output_processor@DV?$stream_output_adapter@D@__crt_stdio_output@@V?$format_validation_base@DV?$stream_output_adapter@D@__crt_stdio_output@@@2@@__crt_stdio_output@@AAE_NXZ 10058890 f i libucrtd:output.obj
 0001:00057910       ?state_case_width@?$output_processor@DV?$stream_output_adapter@D@__crt_stdio_output@@V?$positional_parameter_base@DV?$stream_output_adapter@D@__crt_stdio_output@@@2@@__crt_stdio_output@@AAE_NXZ 10058910 f i libucrtd:output.obj
 0001:00057990       ?state_case_width@?$output_processor@DV?$stream_output_adapter@D@__crt_stdio_output@@V?$standard_base@DV?$stream_output_adapter@D@__crt_stdio_output@@@2@@__crt_stdio_output@@AAE_NXZ 10058990 f i libucrtd:output.obj
 0001:00057a10       ?state_case_width@?$output_processor@DV?$string_output_adapter@D@__crt_stdio_output@@V?$format_validation_base@DV?$string_output_adapter@D@__crt_stdio_output@@@2@@__crt_stdio_output@@AAE_NXZ 10058a10 f i libucrtd:output.obj
 0001:00057a90       ?state_case_width@?$output_processor@DV?$string_output_adapter@D@__crt_stdio_output@@V?$positional_parameter_base@DV?$string_output_adapter@D@__crt_stdio_output@@@2@@__crt_stdio_output@@AAE_NXZ 10058a90 f i libucrtd:output.obj
 0001:00057b10       ?state_case_width@?$output_processor@DV?$string_output_adapter@D@__crt_stdio_output@@V?$standard_base@DV?$string_output_adapter@D@__crt_stdio_output@@@2@@__crt_stdio_output@@AAE_NXZ 10058b10 f i libucrtd:output.obj
 0001:00057b90       ?state_case_width@?$output_processor@_WV?$stream_output_adapter@_W@__crt_stdio_output@@V?$format_validation_base@_WV?$stream_output_adapter@_W@__crt_stdio_output@@@2@@__crt_stdio_output@@AAE_NXZ 10058b90 f i libucrtd:output.obj
 0001:00057c10       ?state_case_width@?$output_processor@_WV?$stream_output_adapter@_W@__crt_stdio_output@@V?$positional_parameter_base@_WV?$stream_output_adapter@_W@__crt_stdio_output@@@2@@__crt_stdio_output@@AAE_NXZ 10058c10 f i libucrtd:output.obj
 0001:00057c90       ?state_case_width@?$output_processor@_WV?$stream_output_adapter@_W@__crt_stdio_output@@V?$standard_base@_WV?$stream_output_adapter@_W@__crt_stdio_output@@@2@@__crt_stdio_output@@AAE_NXZ 10058c90 f i libucrtd:output.obj
 0001:00057d10       ?state_case_width@?$output_processor@_WV?$string_output_adapter@_W@__crt_stdio_output@@V?$format_validation_base@_WV?$string_output_adapter@_W@__crt_stdio_output@@@2@@__crt_stdio_output@@AAE_NXZ 10058d10 f i libucrtd:output.obj
 0001:00057d90       ?state_case_width@?$output_processor@_WV?$string_output_adapter@_W@__crt_stdio_output@@V?$positional_parameter_base@_WV?$string_output_adapter@_W@__crt_stdio_output@@@2@@__crt_stdio_output@@AAE_NXZ 10058d90 f i libucrtd:output.obj
 0001:00057e10       ?state_case_width@?$output_processor@_WV?$string_output_adapter@_W@__crt_stdio_output@@V?$standard_base@_WV?$string_output_adapter@_W@__crt_stdio_output@@@2@@__crt_stdio_output@@AAE_NXZ 10058e10 f i libucrtd:output.obj
 0001:00057e90       ?state_count@?$format_validation_base@DV?$stream_output_adapter@D@__crt_stdio_output@@@__crt_stdio_output@@KAIXZ 10058e90 f i libucrtd:output.obj
 0001:00057ea0       ?state_count@?$format_validation_base@DV?$string_output_adapter@D@__crt_stdio_output@@@__crt_stdio_output@@KAIXZ 10058ea0 f i libucrtd:output.obj
 0001:00057eb0       ?state_count@?$format_validation_base@_WV?$stream_output_adapter@_W@__crt_stdio_output@@@__crt_stdio_output@@KAIXZ 10058eb0 f i libucrtd:output.obj
 0001:00057ec0       ?state_count@?$format_validation_base@_WV?$string_output_adapter@_W@__crt_stdio_output@@@__crt_stdio_output@@KAIXZ 10058ec0 f i libucrtd:output.obj
 0001:00057ed0       ?state_count@?$standard_base@DV?$stream_output_adapter@D@__crt_stdio_output@@@__crt_stdio_output@@KAIXZ 10058ed0 f i libucrtd:output.obj
 0001:00057ee0       ?state_count@?$standard_base@DV?$string_output_adapter@D@__crt_stdio_output@@@__crt_stdio_output@@KAIXZ 10058ee0 f i libucrtd:output.obj
 0001:00057ef0       ?state_count@?$standard_base@_WV?$stream_output_adapter@_W@__crt_stdio_output@@@__crt_stdio_output@@KAIXZ 10058ef0 f i libucrtd:output.obj
 0001:00057f00       ?state_count@?$standard_base@_WV?$string_output_adapter@_W@__crt_stdio_output@@@__crt_stdio_output@@KAIXZ 10058f00 f i libucrtd:output.obj
 0001:00057f10       ?state_transition_table@?$format_validation_base@DV?$stream_output_adapter@D@__crt_stdio_output@@@__crt_stdio_output@@KAPBEXZ 10058f10 f i libucrtd:output.obj
 0001:00057f20       ?state_transition_table@?$format_validation_base@DV?$string_output_adapter@D@__crt_stdio_output@@@__crt_stdio_output@@KAPBEXZ 10058f20 f i libucrtd:output.obj
 0001:00057f30       ?state_transition_table@?$format_validation_base@_WV?$stream_output_adapter@_W@__crt_stdio_output@@@__crt_stdio_output@@KAPBEXZ 10058f30 f i libucrtd:output.obj
 0001:00057f40       ?state_transition_table@?$format_validation_base@_WV?$string_output_adapter@_W@__crt_stdio_output@@@__crt_stdio_output@@KAPBEXZ 10058f40 f i libucrtd:output.obj
 0001:00057f50       ?state_transition_table@?$standard_base@DV?$stream_output_adapter@D@__crt_stdio_output@@@__crt_stdio_output@@KAPBEXZ 10058f50 f i libucrtd:output.obj
 0001:00057f60       ?state_transition_table@?$standard_base@DV?$string_output_adapter@D@__crt_stdio_output@@@__crt_stdio_output@@KAPBEXZ 10058f60 f i libucrtd:output.obj
 0001:00057f70       ?state_transition_table@?$standard_base@_WV?$stream_output_adapter@_W@__crt_stdio_output@@@__crt_stdio_output@@KAPBEXZ 10058f70 f i libucrtd:output.obj
 0001:00057f80       ?state_transition_table@?$standard_base@_WV?$string_output_adapter@_W@__crt_stdio_output@@@__crt_stdio_output@@KAPBEXZ 10058f80 f i libucrtd:output.obj
 0001:00057f90       ?tchar_string@?$common_data@D@__crt_stdio_output@@IAEAAPADD@Z 10058f90 f i libucrtd:output.obj
 0001:00057fb0       ?tchar_string@?$common_data@D@__crt_stdio_output@@IAEAAPADXZ 10058fb0 f i libucrtd:output.obj
 0001:00057fd0       ?tchar_string@?$common_data@_W@__crt_stdio_output@@IAEAAPA_WXZ 10058fd0 f i libucrtd:output.obj
 0001:00057ff0       ?tchar_string@?$common_data@_W@__crt_stdio_output@@IAEAAPA_W_W@Z 10058ff0 f i libucrtd:output.obj
 0001:00058010       ?to_integer_size@__crt_stdio_output@@YAIW4length_modifier@1@@Z 10059010 f i libucrtd:output.obj
 0001:000580b0       ?type_case_X@?$output_processor@DV?$stream_output_adapter@D@__crt_stdio_output@@V?$format_validation_base@DV?$stream_output_adapter@D@__crt_stdio_output@@@2@@__crt_stdio_output@@AAE_NXZ 100590b0 f i libucrtd:output.obj
 0001:000580d0       ?type_case_X@?$output_processor@DV?$stream_output_adapter@D@__crt_stdio_output@@V?$positional_parameter_base@DV?$stream_output_adapter@D@__crt_stdio_output@@@2@@__crt_stdio_output@@AAE_NXZ 100590d0 f i libucrtd:output.obj
 0001:000580f0       ?type_case_X@?$output_processor@DV?$stream_output_adapter@D@__crt_stdio_output@@V?$standard_base@DV?$stream_output_adapter@D@__crt_stdio_output@@@2@@__crt_stdio_output@@AAE_NXZ 100590f0 f i libucrtd:output.obj
 0001:00058110       ?type_case_X@?$output_processor@DV?$string_output_adapter@D@__crt_stdio_output@@V?$format_validation_base@DV?$string_output_adapter@D@__crt_stdio_output@@@2@@__crt_stdio_output@@AAE_NXZ 10059110 f i libucrtd:output.obj
 0001:00058130       ?type_case_X@?$output_processor@DV?$string_output_adapter@D@__crt_stdio_output@@V?$positional_parameter_base@DV?$string_output_adapter@D@__crt_stdio_output@@@2@@__crt_stdio_output@@AAE_NXZ 10059130 f i libucrtd:output.obj
 0001:00058150       ?type_case_X@?$output_processor@DV?$string_output_adapter@D@__crt_stdio_output@@V?$standard_base@DV?$string_output_adapter@D@__crt_stdio_output@@@2@@__crt_stdio_output@@AAE_NXZ 10059150 f i libucrtd:output.obj
 0001:00058170       ?type_case_X@?$output_processor@_WV?$stream_output_adapter@_W@__crt_stdio_output@@V?$format_validation_base@_WV?$stream_output_adapter@_W@__crt_stdio_output@@@2@@__crt_stdio_output@@AAE_NXZ 10059170 f i libucrtd:output.obj
 0001:00058190       ?type_case_X@?$output_processor@_WV?$stream_output_adapter@_W@__crt_stdio_output@@V?$positional_parameter_base@_WV?$stream_output_adapter@_W@__crt_stdio_output@@@2@@__crt_stdio_output@@AAE_NXZ 10059190 f i libucrtd:output.obj
 0001:000581b0       ?type_case_X@?$output_processor@_WV?$stream_output_adapter@_W@__crt_stdio_output@@V?$standard_base@_WV?$stream_output_adapter@_W@__crt_stdio_output@@@2@@__crt_stdio_output@@AAE_NXZ 100591b0 f i libucrtd:output.obj
 0001:000581d0       ?type_case_X@?$output_processor@_WV?$string_output_adapter@_W@__crt_stdio_output@@V?$format_validation_base@_WV?$string_output_adapter@_W@__crt_stdio_output@@@2@@__crt_stdio_output@@AAE_NXZ 100591d0 f i libucrtd:output.obj
 0001:000581f0       ?type_case_X@?$output_processor@_WV?$string_output_adapter@_W@__crt_stdio_output@@V?$positional_parameter_base@_WV?$string_output_adapter@_W@__crt_stdio_output@@@2@@__crt_stdio_output@@AAE_NXZ 100591f0 f i libucrtd:output.obj
 0001:00058210       ?type_case_X@?$output_processor@_WV?$string_output_adapter@_W@__crt_stdio_output@@V?$standard_base@_WV?$string_output_adapter@_W@__crt_stdio_output@@@2@@__crt_stdio_output@@AAE_NXZ 10059210 f i libucrtd:output.obj
 0001:00058230       ?type_case_Z@?$output_processor@DV?$stream_output_adapter@D@__crt_stdio_output@@V?$format_validation_base@DV?$stream_output_adapter@D@__crt_stdio_output@@@2@@__crt_stdio_output@@AAE_NXZ 10059230 f i libucrtd:output.obj
 0001:00058320       ?type_case_Z@?$output_processor@DV?$stream_output_adapter@D@__crt_stdio_output@@V?$positional_parameter_base@DV?$stream_output_adapter@D@__crt_stdio_output@@@2@@__crt_stdio_output@@AAE_NXZ 10059320 f i libucrtd:output.obj
 0001:00058410       ?type_case_Z@?$output_processor@DV?$stream_output_adapter@D@__crt_stdio_output@@V?$standard_base@DV?$stream_output_adapter@D@__crt_stdio_output@@@2@@__crt_stdio_output@@AAE_NXZ 10059410 f i libucrtd:output.obj
 0001:00058500       ?type_case_Z@?$output_processor@DV?$string_output_adapter@D@__crt_stdio_output@@V?$format_validation_base@DV?$string_output_adapter@D@__crt_stdio_output@@@2@@__crt_stdio_output@@AAE_NXZ 10059500 f i libucrtd:output.obj
 0001:000585f0       ?type_case_Z@?$output_processor@DV?$string_output_adapter@D@__crt_stdio_output@@V?$positional_parameter_base@DV?$string_output_adapter@D@__crt_stdio_output@@@2@@__crt_stdio_output@@AAE_NXZ 100595f0 f i libucrtd:output.obj
 0001:000586e0       ?type_case_Z@?$output_processor@DV?$string_output_adapter@D@__crt_stdio_output@@V?$standard_base@DV?$string_output_adapter@D@__crt_stdio_output@@@2@@__crt_stdio_output@@AAE_NXZ 100596e0 f i libucrtd:output.obj
 0001:000587d0       ?type_case_Z@?$output_processor@_WV?$stream_output_adapter@_W@__crt_stdio_output@@V?$format_validation_base@_WV?$stream_output_adapter@_W@__crt_stdio_output@@@2@@__crt_stdio_output@@AAE_NXZ 100597d0 f i libucrtd:output.obj
 0001:000588c0       ?type_case_Z@?$output_processor@_WV?$stream_output_adapter@_W@__crt_stdio_output@@V?$positional_parameter_base@_WV?$stream_output_adapter@_W@__crt_stdio_output@@@2@@__crt_stdio_output@@AAE_NXZ 100598c0 f i libucrtd:output.obj
 0001:000589b0       ?type_case_Z@?$output_processor@_WV?$stream_output_adapter@_W@__crt_stdio_output@@V?$standard_base@_WV?$stream_output_adapter@_W@__crt_stdio_output@@@2@@__crt_stdio_output@@AAE_NXZ 100599b0 f i libucrtd:output.obj
 0001:00058aa0       ?type_case_Z@?$output_processor@_WV?$string_output_adapter@_W@__crt_stdio_output@@V?$format_validation_base@_WV?$string_output_adapter@_W@__crt_stdio_output@@@2@@__crt_stdio_output@@AAE_NXZ 10059aa0 f i libucrtd:output.obj
 0001:00058b90       ?type_case_Z@?$output_processor@_WV?$string_output_adapter@_W@__crt_stdio_output@@V?$positional_parameter_base@_WV?$string_output_adapter@_W@__crt_stdio_output@@@2@@__crt_stdio_output@@AAE_NXZ 10059b90 f i libucrtd:output.obj
 0001:00058c80       ?type_case_Z@?$output_processor@_WV?$string_output_adapter@_W@__crt_stdio_output@@V?$standard_base@_WV?$string_output_adapter@_W@__crt_stdio_output@@@2@@__crt_stdio_output@@AAE_NXZ 10059c80 f i libucrtd:output.obj
 0001:00058d70       ?type_case_a@?$output_processor@DV?$stream_output_adapter@D@__crt_stdio_output@@V?$format_validation_base@DV?$stream_output_adapter@D@__crt_stdio_output@@@2@@__crt_stdio_output@@AAE_NXZ 10059d70 f i libucrtd:output.obj
 0001:00058fe0       ?type_case_a@?$output_processor@DV?$stream_output_adapter@D@__crt_stdio_output@@V?$positional_parameter_base@DV?$stream_output_adapter@D@__crt_stdio_output@@@2@@__crt_stdio_output@@AAE_NXZ 10059fe0 f i libucrtd:output.obj
 0001:00059250       ?type_case_a@?$output_processor@DV?$stream_output_adapter@D@__crt_stdio_output@@V?$standard_base@DV?$stream_output_adapter@D@__crt_stdio_output@@@2@@__crt_stdio_output@@AAE_NXZ 1005a250 f i libucrtd:output.obj
 0001:000594c0       ?type_case_a@?$output_processor@DV?$string_output_adapter@D@__crt_stdio_output@@V?$format_validation_base@DV?$string_output_adapter@D@__crt_stdio_output@@@2@@__crt_stdio_output@@AAE_NXZ 1005a4c0 f i libucrtd:output.obj
 0001:00059730       ?type_case_a@?$output_processor@DV?$string_output_adapter@D@__crt_stdio_output@@V?$positional_parameter_base@DV?$string_output_adapter@D@__crt_stdio_output@@@2@@__crt_stdio_output@@AAE_NXZ 1005a730 f i libucrtd:output.obj
 0001:000599a0       ?type_case_a@?$output_processor@DV?$string_output_adapter@D@__crt_stdio_output@@V?$standard_base@DV?$string_output_adapter@D@__crt_stdio_output@@@2@@__crt_stdio_output@@AAE_NXZ 1005a9a0 f i libucrtd:output.obj
 0001:00059c10       ?type_case_a@?$output_processor@_WV?$stream_output_adapter@_W@__crt_stdio_output@@V?$format_validation_base@_WV?$stream_output_adapter@_W@__crt_stdio_output@@@2@@__crt_stdio_output@@AAE_NXZ 1005ac10 f i libucrtd:output.obj
 0001:00059e80       ?type_case_a@?$output_processor@_WV?$stream_output_adapter@_W@__crt_stdio_output@@V?$positional_parameter_base@_WV?$stream_output_adapter@_W@__crt_stdio_output@@@2@@__crt_stdio_output@@AAE_NXZ 1005ae80 f i libucrtd:output.obj
 0001:0005a0f0       ?type_case_a@?$output_processor@_WV?$stream_output_adapter@_W@__crt_stdio_output@@V?$standard_base@_WV?$stream_output_adapter@_W@__crt_stdio_output@@@2@@__crt_stdio_output@@AAE_NXZ 1005b0f0 f i libucrtd:output.obj
 0001:0005a360       ?type_case_a@?$output_processor@_WV?$string_output_adapter@_W@__crt_stdio_output@@V?$format_validation_base@_WV?$string_output_adapter@_W@__crt_stdio_output@@@2@@__crt_stdio_output@@AAE_NXZ 1005b360 f i libucrtd:output.obj
 0001:0005a5d0       ?type_case_a@?$output_processor@_WV?$string_output_adapter@_W@__crt_stdio_output@@V?$positional_parameter_base@_WV?$string_output_adapter@_W@__crt_stdio_output@@@2@@__crt_stdio_output@@AAE_NXZ 1005b5d0 f i libucrtd:output.obj
 0001:0005a840       ?type_case_a@?$output_processor@_WV?$string_output_adapter@_W@__crt_stdio_output@@V?$standard_base@_WV?$string_output_adapter@_W@__crt_stdio_output@@@2@@__crt_stdio_output@@AAE_NXZ 1005b840 f i libucrtd:output.obj
 0001:0005aab0       ?type_case_c@?$output_processor@DV?$stream_output_adapter@D@__crt_stdio_output@@V?$format_validation_base@DV?$stream_output_adapter@D@__crt_stdio_output@@@2@@__crt_stdio_output@@AAE_NXZ 1005bab0 f i libucrtd:output.obj
 0001:0005aad0       ?type_case_c@?$output_processor@DV?$stream_output_adapter@D@__crt_stdio_output@@V?$positional_parameter_base@DV?$stream_output_adapter@D@__crt_stdio_output@@@2@@__crt_stdio_output@@AAE_NXZ 1005bad0 f i libucrtd:output.obj
 0001:0005aaf0       ?type_case_c@?$output_processor@DV?$stream_output_adapter@D@__crt_stdio_output@@V?$standard_base@DV?$stream_output_adapter@D@__crt_stdio_output@@@2@@__crt_stdio_output@@AAE_NXZ 1005baf0 f i libucrtd:output.obj
 0001:0005ab10       ?type_case_c@?$output_processor@DV?$string_output_adapter@D@__crt_stdio_output@@V?$format_validation_base@DV?$string_output_adapter@D@__crt_stdio_output@@@2@@__crt_stdio_output@@AAE_NXZ 1005bb10 f i libucrtd:output.obj
 0001:0005ab30       ?type_case_c@?$output_processor@DV?$string_output_adapter@D@__crt_stdio_output@@V?$positional_parameter_base@DV?$string_output_adapter@D@__crt_stdio_output@@@2@@__crt_stdio_output@@AAE_NXZ 1005bb30 f i libucrtd:output.obj
 0001:0005ab50       ?type_case_c@?$output_processor@DV?$string_output_adapter@D@__crt_stdio_output@@V?$standard_base@DV?$string_output_adapter@D@__crt_stdio_output@@@2@@__crt_stdio_output@@AAE_NXZ 1005bb50 f i libucrtd:output.obj
 0001:0005ab70       ?type_case_c@?$output_processor@_WV?$stream_output_adapter@_W@__crt_stdio_output@@V?$format_validation_base@_WV?$stream_output_adapter@_W@__crt_stdio_output@@@2@@__crt_stdio_output@@AAE_NXZ 1005bb70 f i libucrtd:output.obj
 0001:0005ab90       ?type_case_c@?$output_processor@_WV?$stream_output_adapter@_W@__crt_stdio_output@@V?$positional_parameter_base@_WV?$stream_output_adapter@_W@__crt_stdio_output@@@2@@__crt_stdio_output@@AAE_NXZ 1005bb90 f i libucrtd:output.obj
 0001:0005abb0       ?type_case_c@?$output_processor@_WV?$stream_output_adapter@_W@__crt_stdio_output@@V?$standard_base@_WV?$stream_output_adapter@_W@__crt_stdio_output@@@2@@__crt_stdio_output@@AAE_NXZ 1005bbb0 f i libucrtd:output.obj
 0001:0005abd0       ?type_case_c@?$output_processor@_WV?$string_output_adapter@_W@__crt_stdio_output@@V?$format_validation_base@_WV?$string_output_adapter@_W@__crt_stdio_output@@@2@@__crt_stdio_output@@AAE_NXZ 1005bbd0 f i libucrtd:output.obj
 0001:0005abf0       ?type_case_c@?$output_processor@_WV?$string_output_adapter@_W@__crt_stdio_output@@V?$positional_parameter_base@_WV?$string_output_adapter@_W@__crt_stdio_output@@@2@@__crt_stdio_output@@AAE_NXZ 1005bbf0 f i libucrtd:output.obj
 0001:0005ac10       ?type_case_c@?$output_processor@_WV?$string_output_adapter@_W@__crt_stdio_output@@V?$standard_base@_WV?$string_output_adapter@_W@__crt_stdio_output@@@2@@__crt_stdio_output@@AAE_NXZ 1005bc10 f i libucrtd:output.obj
 0001:0005ac30       ?type_case_c_tchar@?$output_processor@DV?$stream_output_adapter@D@__crt_stdio_output@@V?$format_validation_base@DV?$stream_output_adapter@D@__crt_stdio_output@@@2@@__crt_stdio_output@@AAE_ND@Z 1005bc30 f i libucrtd:output.obj
 0001:0005ad40       ?type_case_c_tchar@?$output_processor@DV?$stream_output_adapter@D@__crt_stdio_output@@V?$positional_parameter_base@DV?$stream_output_adapter@D@__crt_stdio_output@@@2@@__crt_stdio_output@@AAE_ND@Z 1005bd40 f i libucrtd:output.obj
 0001:0005ae50       ?type_case_c_tchar@?$output_processor@DV?$stream_output_adapter@D@__crt_stdio_output@@V?$standard_base@DV?$stream_output_adapter@D@__crt_stdio_output@@@2@@__crt_stdio_output@@AAE_ND@Z 1005be50 f i libucrtd:output.obj
 0001:0005af60       ?type_case_c_tchar@?$output_processor@DV?$string_output_adapter@D@__crt_stdio_output@@V?$format_validation_base@DV?$string_output_adapter@D@__crt_stdio_output@@@2@@__crt_stdio_output@@AAE_ND@Z 1005bf60 f i libucrtd:output.obj
 0001:0005b070       ?type_case_c_tchar@?$output_processor@DV?$string_output_adapter@D@__crt_stdio_output@@V?$positional_parameter_base@DV?$string_output_adapter@D@__crt_stdio_output@@@2@@__crt_stdio_output@@AAE_ND@Z 1005c070 f i libucrtd:output.obj
 0001:0005b180       ?type_case_c_tchar@?$output_processor@DV?$string_output_adapter@D@__crt_stdio_output@@V?$standard_base@DV?$string_output_adapter@D@__crt_stdio_output@@@2@@__crt_stdio_output@@AAE_ND@Z 1005c180 f i libucrtd:output.obj
 0001:0005b290       ?type_case_c_tchar@?$output_processor@_WV?$stream_output_adapter@_W@__crt_stdio_output@@V?$format_validation_base@_WV?$stream_output_adapter@_W@__crt_stdio_output@@@2@@__crt_stdio_output@@AAE_N_W@Z 1005c290 f i libucrtd:output.obj
 0001:0005b390       ?type_case_c_tchar@?$output_processor@_WV?$stream_output_adapter@_W@__crt_stdio_output@@V?$positional_parameter_base@_WV?$stream_output_adapter@_W@__crt_stdio_output@@@2@@__crt_stdio_output@@AAE_N_W@Z 1005c390 f i libucrtd:output.obj
 0001:0005b490       ?type_case_c_tchar@?$output_processor@_WV?$stream_output_adapter@_W@__crt_stdio_output@@V?$standard_base@_WV?$stream_output_adapter@_W@__crt_stdio_output@@@2@@__crt_stdio_output@@AAE_N_W@Z 1005c490 f i libucrtd:output.obj
 0001:0005b590       ?type_case_c_tchar@?$output_processor@_WV?$string_output_adapter@_W@__crt_stdio_output@@V?$format_validation_base@_WV?$string_output_adapter@_W@__crt_stdio_output@@@2@@__crt_stdio_output@@AAE_N_W@Z 1005c590 f i libucrtd:output.obj
 0001:0005b690       ?type_case_c_tchar@?$output_processor@_WV?$string_output_adapter@_W@__crt_stdio_output@@V?$positional_parameter_base@_WV?$string_output_adapter@_W@__crt_stdio_output@@@2@@__crt_stdio_output@@AAE_N_W@Z 1005c690 f i libucrtd:output.obj
 0001:0005b790       ?type_case_c_tchar@?$output_processor@_WV?$string_output_adapter@_W@__crt_stdio_output@@V?$standard_base@_WV?$string_output_adapter@_W@__crt_stdio_output@@@2@@__crt_stdio_output@@AAE_N_W@Z 1005c790 f i libucrtd:output.obj
 0001:0005b890       ?type_case_d@?$output_processor@DV?$stream_output_adapter@D@__crt_stdio_output@@V?$format_validation_base@DV?$stream_output_adapter@D@__crt_stdio_output@@@2@@__crt_stdio_output@@AAE_NXZ 1005c890 f i libucrtd:output.obj
 0001:0005b8c0       ?type_case_d@?$output_processor@DV?$stream_output_adapter@D@__crt_stdio_output@@V?$positional_parameter_base@DV?$stream_output_adapter@D@__crt_stdio_output@@@2@@__crt_stdio_output@@AAE_NXZ 1005c8c0 f i libucrtd:output.obj
 0001:0005b8f0       ?type_case_d@?$output_processor@DV?$stream_output_adapter@D@__crt_stdio_output@@V?$standard_base@DV?$stream_output_adapter@D@__crt_stdio_output@@@2@@__crt_stdio_output@@AAE_NXZ 1005c8f0 f i libucrtd:output.obj
 0001:0005b920       ?type_case_d@?$output_processor@DV?$string_output_adapter@D@__crt_stdio_output@@V?$format_validation_base@DV?$string_output_adapter@D@__crt_stdio_output@@@2@@__crt_stdio_output@@AAE_NXZ 1005c920 f i libucrtd:output.obj
 0001:0005b950       ?type_case_d@?$output_processor@DV?$string_output_adapter@D@__crt_stdio_output@@V?$positional_parameter_base@DV?$string_output_adapter@D@__crt_stdio_output@@@2@@__crt_stdio_output@@AAE_NXZ 1005c950 f i libucrtd:output.obj
 0001:0005b980       ?type_case_d@?$output_processor@DV?$string_output_adapter@D@__crt_stdio_output@@V?$standard_base@DV?$string_output_adapter@D@__crt_stdio_output@@@2@@__crt_stdio_output@@AAE_NXZ 1005c980 f i libucrtd:output.obj
 0001:0005b9b0       ?type_case_d@?$output_processor@_WV?$stream_output_adapter@_W@__crt_stdio_output@@V?$format_validation_base@_WV?$stream_output_adapter@_W@__crt_stdio_output@@@2@@__crt_stdio_output@@AAE_NXZ 1005c9b0 f i libucrtd:output.obj
 0001:0005b9e0       ?type_case_d@?$output_processor@_WV?$stream_output_adapter@_W@__crt_stdio_output@@V?$positional_parameter_base@_WV?$stream_output_adapter@_W@__crt_stdio_output@@@2@@__crt_stdio_output@@AAE_NXZ 1005c9e0 f i libucrtd:output.obj
 0001:0005ba10       ?type_case_d@?$output_processor@_WV?$stream_output_adapter@_W@__crt_stdio_output@@V?$standard_base@_WV?$stream_output_adapter@_W@__crt_stdio_output@@@2@@__crt_stdio_output@@AAE_NXZ 1005ca10 f i libucrtd:output.obj
 0001:0005ba40       ?type_case_d@?$output_processor@_WV?$string_output_adapter@_W@__crt_stdio_output@@V?$format_validation_base@_WV?$string_output_adapter@_W@__crt_stdio_output@@@2@@__crt_stdio_output@@AAE_NXZ 1005ca40 f i libucrtd:output.obj
 0001:0005ba70       ?type_case_d@?$output_processor@_WV?$string_output_adapter@_W@__crt_stdio_output@@V?$positional_parameter_base@_WV?$string_output_adapter@_W@__crt_stdio_output@@@2@@__crt_stdio_output@@AAE_NXZ 1005ca70 f i libucrtd:output.obj
 0001:0005baa0       ?type_case_d@?$output_processor@_WV?$string_output_adapter@_W@__crt_stdio_output@@V?$standard_base@_WV?$string_output_adapter@_W@__crt_stdio_output@@@2@@__crt_stdio_output@@AAE_NXZ 1005caa0 f i libucrtd:output.obj
 0001:0005bad0       ?type_case_integer@?$output_processor@DV?$stream_output_adapter@D@__crt_stdio_output@@V?$format_validation_base@DV?$stream_output_adapter@D@__crt_stdio_output@@@2@@__crt_stdio_output@@AAE_NI_N@Z 1005cad0 f i libucrtd:output.obj
 0001:0005be20       ?type_case_integer@?$output_processor@DV?$stream_output_adapter@D@__crt_stdio_output@@V?$positional_parameter_base@DV?$stream_output_adapter@D@__crt_stdio_output@@@2@@__crt_stdio_output@@AAE_NI_N@Z 1005ce20 f i libucrtd:output.obj
 0001:0005c170       ?type_case_integer@?$output_processor@DV?$stream_output_adapter@D@__crt_stdio_output@@V?$standard_base@DV?$stream_output_adapter@D@__crt_stdio_output@@@2@@__crt_stdio_output@@AAE_NI_N@Z 1005d170 f i libucrtd:output.obj
 0001:0005c4c0       ?type_case_integer@?$output_processor@DV?$string_output_adapter@D@__crt_stdio_output@@V?$format_validation_base@DV?$string_output_adapter@D@__crt_stdio_output@@@2@@__crt_stdio_output@@AAE_NI_N@Z 1005d4c0 f i libucrtd:output.obj
 0001:0005c810       ?type_case_integer@?$output_processor@DV?$string_output_adapter@D@__crt_stdio_output@@V?$positional_parameter_base@DV?$string_output_adapter@D@__crt_stdio_output@@@2@@__crt_stdio_output@@AAE_NI_N@Z 1005d810 f i libucrtd:output.obj
 0001:0005cb60       ?type_case_integer@?$output_processor@DV?$string_output_adapter@D@__crt_stdio_output@@V?$standard_base@DV?$string_output_adapter@D@__crt_stdio_output@@@2@@__crt_stdio_output@@AAE_NI_N@Z 1005db60 f i libucrtd:output.obj
 0001:0005ceb0       ?type_case_integer@?$output_processor@_WV?$stream_output_adapter@_W@__crt_stdio_output@@V?$format_validation_base@_WV?$stream_output_adapter@_W@__crt_stdio_output@@@2@@__crt_stdio_output@@AAE_NI_N@Z 1005deb0 f i libucrtd:output.obj
 0001:0005d200       ?type_case_integer@?$output_processor@_WV?$stream_output_adapter@_W@__crt_stdio_output@@V?$positional_parameter_base@_WV?$stream_output_adapter@_W@__crt_stdio_output@@@2@@__crt_stdio_output@@AAE_NI_N@Z 1005e200 f i libucrtd:output.obj
 0001:0005d550       ?type_case_integer@?$output_processor@_WV?$stream_output_adapter@_W@__crt_stdio_output@@V?$standard_base@_WV?$stream_output_adapter@_W@__crt_stdio_output@@@2@@__crt_stdio_output@@AAE_NI_N@Z 1005e550 f i libucrtd:output.obj
 0001:0005d8a0       ?type_case_integer@?$output_processor@_WV?$string_output_adapter@_W@__crt_stdio_output@@V?$format_validation_base@_WV?$string_output_adapter@_W@__crt_stdio_output@@@2@@__crt_stdio_output@@AAE_NI_N@Z 1005e8a0 f i libucrtd:output.obj
 0001:0005dbf0       ?type_case_integer@?$output_processor@_WV?$string_output_adapter@_W@__crt_stdio_output@@V?$positional_parameter_base@_WV?$string_output_adapter@_W@__crt_stdio_output@@@2@@__crt_stdio_output@@AAE_NI_N@Z 1005ebf0 f i libucrtd:output.obj
 0001:0005df40       ?type_case_integer@?$output_processor@_WV?$string_output_adapter@_W@__crt_stdio_output@@V?$standard_base@_WV?$string_output_adapter@_W@__crt_stdio_output@@@2@@__crt_stdio_output@@AAE_NI_N@Z 1005ef40 f i libucrtd:output.obj
 0001:0005e290       ?type_case_n@?$output_processor@DV?$stream_output_adapter@D@__crt_stdio_output@@V?$format_validation_base@DV?$stream_output_adapter@D@__crt_stdio_output@@@2@@__crt_stdio_output@@AAE_NXZ 1005f290 f i libucrtd:output.obj
 0001:0005e480       ?type_case_n@?$output_processor@DV?$stream_output_adapter@D@__crt_stdio_output@@V?$positional_parameter_base@DV?$stream_output_adapter@D@__crt_stdio_output@@@2@@__crt_stdio_output@@AAE_NXZ 1005f480 f i libucrtd:output.obj
 0001:0005e670       ?type_case_n@?$output_processor@DV?$stream_output_adapter@D@__crt_stdio_output@@V?$standard_base@DV?$stream_output_adapter@D@__crt_stdio_output@@@2@@__crt_stdio_output@@AAE_NXZ 1005f670 f i libucrtd:output.obj
 0001:0005e860       ?type_case_n@?$output_processor@DV?$string_output_adapter@D@__crt_stdio_output@@V?$format_validation_base@DV?$string_output_adapter@D@__crt_stdio_output@@@2@@__crt_stdio_output@@AAE_NXZ 1005f860 f i libucrtd:output.obj
 0001:0005ea50       ?type_case_n@?$output_processor@DV?$string_output_adapter@D@__crt_stdio_output@@V?$positional_parameter_base@DV?$string_output_adapter@D@__crt_stdio_output@@@2@@__crt_stdio_output@@AAE_NXZ 1005fa50 f i libucrtd:output.obj
 0001:0005ec40       ?type_case_n@?$output_processor@DV?$string_output_adapter@D@__crt_stdio_output@@V?$standard_base@DV?$string_output_adapter@D@__crt_stdio_output@@@2@@__crt_stdio_output@@AAE_NXZ 1005fc40 f i libucrtd:output.obj
 0001:0005ee30       ?type_case_n@?$output_processor@_WV?$stream_output_adapter@_W@__crt_stdio_output@@V?$format_validation_base@_WV?$stream_output_adapter@_W@__crt_stdio_output@@@2@@__crt_stdio_output@@AAE_NXZ 1005fe30 f i libucrtd:output.obj
 0001:0005f020       ?type_case_n@?$output_processor@_WV?$stream_output_adapter@_W@__crt_stdio_output@@V?$positional_parameter_base@_WV?$stream_output_adapter@_W@__crt_stdio_output@@@2@@__crt_stdio_output@@AAE_NXZ 10060020 f i libucrtd:output.obj
 0001:0005f210       ?type_case_n@?$output_processor@_WV?$stream_output_adapter@_W@__crt_stdio_output@@V?$standard_base@_WV?$stream_output_adapter@_W@__crt_stdio_output@@@2@@__crt_stdio_output@@AAE_NXZ 10060210 f i libucrtd:output.obj
 0001:0005f400       ?type_case_n@?$output_processor@_WV?$string_output_adapter@_W@__crt_stdio_output@@V?$format_validation_base@_WV?$string_output_adapter@_W@__crt_stdio_output@@@2@@__crt_stdio_output@@AAE_NXZ 10060400 f i libucrtd:output.obj
 0001:0005f5f0       ?type_case_n@?$output_processor@_WV?$string_output_adapter@_W@__crt_stdio_output@@V?$positional_parameter_base@_WV?$string_output_adapter@_W@__crt_stdio_output@@@2@@__crt_stdio_output@@AAE_NXZ 100605f0 f i libucrtd:output.obj
 0001:0005f7e0       ?type_case_n@?$output_processor@_WV?$string_output_adapter@_W@__crt_stdio_output@@V?$standard_base@_WV?$string_output_adapter@_W@__crt_stdio_output@@@2@@__crt_stdio_output@@AAE_NXZ 100607e0 f i libucrtd:output.obj
 0001:0005f9d0       ?type_case_o@?$output_processor@DV?$stream_output_adapter@D@__crt_stdio_output@@V?$format_validation_base@DV?$stream_output_adapter@D@__crt_stdio_output@@@2@@__crt_stdio_output@@AAE_NXZ 100609d0 f i libucrtd:output.obj
 0001:0005fa10       ?type_case_o@?$output_processor@DV?$stream_output_adapter@D@__crt_stdio_output@@V?$positional_parameter_base@DV?$stream_output_adapter@D@__crt_stdio_output@@@2@@__crt_stdio_output@@AAE_NXZ 10060a10 f i libucrtd:output.obj
 0001:0005fa50       ?type_case_o@?$output_processor@DV?$stream_output_adapter@D@__crt_stdio_output@@V?$standard_base@DV?$stream_output_adapter@D@__crt_stdio_output@@@2@@__crt_stdio_output@@AAE_NXZ 10060a50 f i libucrtd:output.obj
 0001:0005fa90       ?type_case_o@?$output_processor@DV?$string_output_adapter@D@__crt_stdio_output@@V?$format_validation_base@DV?$string_output_adapter@D@__crt_stdio_output@@@2@@__crt_stdio_output@@AAE_NXZ 10060a90 f i libucrtd:output.obj
 0001:0005fad0       ?type_case_o@?$output_processor@DV?$string_output_adapter@D@__crt_stdio_output@@V?$positional_parameter_base@DV?$string_output_adapter@D@__crt_stdio_output@@@2@@__crt_stdio_output@@AAE_NXZ 10060ad0 f i libucrtd:output.obj
 0001:0005fb10       ?type_case_o@?$output_processor@DV?$string_output_adapter@D@__crt_stdio_output@@V?$standard_base@DV?$string_output_adapter@D@__crt_stdio_output@@@2@@__crt_stdio_output@@AAE_NXZ 10060b10 f i libucrtd:output.obj
 0001:0005fb50       ?type_case_o@?$output_processor@_WV?$stream_output_adapter@_W@__crt_stdio_output@@V?$format_validation_base@_WV?$stream_output_adapter@_W@__crt_stdio_output@@@2@@__crt_stdio_output@@AAE_NXZ 10060b50 f i libucrtd:output.obj
 0001:0005fb90       ?type_case_o@?$output_processor@_WV?$stream_output_adapter@_W@__crt_stdio_output@@V?$positional_parameter_base@_WV?$stream_output_adapter@_W@__crt_stdio_output@@@2@@__crt_stdio_output@@AAE_NXZ 10060b90 f i libucrtd:output.obj
 0001:0005fbd0       ?type_case_o@?$output_processor@_WV?$stream_output_adapter@_W@__crt_stdio_output@@V?$standard_base@_WV?$stream_output_adapter@_W@__crt_stdio_output@@@2@@__crt_stdio_output@@AAE_NXZ 10060bd0 f i libucrtd:output.obj
 0001:0005fc10       ?type_case_o@?$output_processor@_WV?$string_output_adapter@_W@__crt_stdio_output@@V?$format_validation_base@_WV?$string_output_adapter@_W@__crt_stdio_output@@@2@@__crt_stdio_output@@AAE_NXZ 10060c10 f i libucrtd:output.obj
 0001:0005fc50       ?type_case_o@?$output_processor@_WV?$string_output_adapter@_W@__crt_stdio_output@@V?$positional_parameter_base@_WV?$string_output_adapter@_W@__crt_stdio_output@@@2@@__crt_stdio_output@@AAE_NXZ 10060c50 f i libucrtd:output.obj
 0001:0005fc90       ?type_case_o@?$output_processor@_WV?$string_output_adapter@_W@__crt_stdio_output@@V?$standard_base@_WV?$string_output_adapter@_W@__crt_stdio_output@@@2@@__crt_stdio_output@@AAE_NXZ 10060c90 f i libucrtd:output.obj
 0001:0005fcd0       ?type_case_p@?$output_processor@DV?$stream_output_adapter@D@__crt_stdio_output@@V?$format_validation_base@DV?$stream_output_adapter@D@__crt_stdio_output@@@2@@__crt_stdio_output@@AAE_NXZ 10060cd0 f i libucrtd:output.obj
 0001:0005fd00       ?type_case_p@?$output_processor@DV?$stream_output_adapter@D@__crt_stdio_output@@V?$positional_parameter_base@DV?$stream_output_adapter@D@__crt_stdio_output@@@2@@__crt_stdio_output@@AAE_NXZ 10060d00 f i libucrtd:output.obj
 0001:0005fd30       ?type_case_p@?$output_processor@DV?$stream_output_adapter@D@__crt_stdio_output@@V?$standard_base@DV?$stream_output_adapter@D@__crt_stdio_output@@@2@@__crt_stdio_output@@AAE_NXZ 10060d30 f i libucrtd:output.obj
 0001:0005fd60       ?type_case_p@?$output_processor@DV?$string_output_adapter@D@__crt_stdio_output@@V?$format_validation_base@DV?$string_output_adapter@D@__crt_stdio_output@@@2@@__crt_stdio_output@@AAE_NXZ 10060d60 f i libucrtd:output.obj
 0001:0005fd90       ?type_case_p@?$output_processor@DV?$string_output_adapter@D@__crt_stdio_output@@V?$positional_parameter_base@DV?$string_output_adapter@D@__crt_stdio_output@@@2@@__crt_stdio_output@@AAE_NXZ 10060d90 f i libucrtd:output.obj
 0001:0005fdc0       ?type_case_p@?$output_processor@DV?$string_output_adapter@D@__crt_stdio_output@@V?$standard_base@DV?$string_output_adapter@D@__crt_stdio_output@@@2@@__crt_stdio_output@@AAE_NXZ 10060dc0 f i libucrtd:output.obj
 0001:0005fdf0       ?type_case_p@?$output_processor@_WV?$stream_output_adapter@_W@__crt_stdio_output@@V?$format_validation_base@_WV?$stream_output_adapter@_W@__crt_stdio_output@@@2@@__crt_stdio_output@@AAE_NXZ 10060df0 f i libucrtd:output.obj
 0001:0005fe20       ?type_case_p@?$output_processor@_WV?$stream_output_adapter@_W@__crt_stdio_output@@V?$positional_parameter_base@_WV?$stream_output_adapter@_W@__crt_stdio_output@@@2@@__crt_stdio_output@@AAE_NXZ 10060e20 f i libucrtd:output.obj
 0001:0005fe50       ?type_case_p@?$output_processor@_WV?$stream_output_adapter@_W@__crt_stdio_output@@V?$standard_base@_WV?$stream_output_adapter@_W@__crt_stdio_output@@@2@@__crt_stdio_output@@AAE_NXZ 10060e50 f i libucrtd:output.obj
 0001:0005fe80       ?type_case_p@?$output_processor@_WV?$string_output_adapter@_W@__crt_stdio_output@@V?$format_validation_base@_WV?$string_output_adapter@_W@__crt_stdio_output@@@2@@__crt_stdio_output@@AAE_NXZ 10060e80 f i libucrtd:output.obj
 0001:0005feb0       ?type_case_p@?$output_processor@_WV?$string_output_adapter@_W@__crt_stdio_output@@V?$positional_parameter_base@_WV?$string_output_adapter@_W@__crt_stdio_output@@@2@@__crt_stdio_output@@AAE_NXZ 10060eb0 f i libucrtd:output.obj
 0001:0005fee0       ?type_case_p@?$output_processor@_WV?$string_output_adapter@_W@__crt_stdio_output@@V?$standard_base@_WV?$string_output_adapter@_W@__crt_stdio_output@@@2@@__crt_stdio_output@@AAE_NXZ 10060ee0 f i libucrtd:output.obj
 0001:0005ff10       ?type_case_s@?$output_processor@DV?$stream_output_adapter@D@__crt_stdio_output@@V?$format_validation_base@DV?$stream_output_adapter@D@__crt_stdio_output@@@2@@__crt_stdio_output@@AAE_NXZ 10060f10 f i libucrtd:output.obj
 0001:00060000       ?type_case_s@?$output_processor@DV?$stream_output_adapter@D@__crt_stdio_output@@V?$positional_parameter_base@DV?$stream_output_adapter@D@__crt_stdio_output@@@2@@__crt_stdio_output@@AAE_NXZ 10061000 f i libucrtd:output.obj
 0001:000600f0       ?type_case_s@?$output_processor@DV?$stream_output_adapter@D@__crt_stdio_output@@V?$standard_base@DV?$stream_output_adapter@D@__crt_stdio_output@@@2@@__crt_stdio_output@@AAE_NXZ 100610f0 f i libucrtd:output.obj
 0001:000601e0       ?type_case_s@?$output_processor@DV?$string_output_adapter@D@__crt_stdio_output@@V?$format_validation_base@DV?$string_output_adapter@D@__crt_stdio_output@@@2@@__crt_stdio_output@@AAE_NXZ 100611e0 f i libucrtd:output.obj
 0001:000602d0       ?type_case_s@?$output_processor@DV?$string_output_adapter@D@__crt_stdio_output@@V?$positional_parameter_base@DV?$string_output_adapter@D@__crt_stdio_output@@@2@@__crt_stdio_output@@AAE_NXZ 100612d0 f i libucrtd:output.obj
 0001:000603c0       ?type_case_s@?$output_processor@DV?$string_output_adapter@D@__crt_stdio_output@@V?$standard_base@DV?$string_output_adapter@D@__crt_stdio_output@@@2@@__crt_stdio_output@@AAE_NXZ 100613c0 f i libucrtd:output.obj
 0001:000604b0       ?type_case_s@?$output_processor@_WV?$stream_output_adapter@_W@__crt_stdio_output@@V?$format_validation_base@_WV?$stream_output_adapter@_W@__crt_stdio_output@@@2@@__crt_stdio_output@@AAE_NXZ 100614b0 f i libucrtd:output.obj
 0001:000605a0       ?type_case_s@?$output_processor@_WV?$stream_output_adapter@_W@__crt_stdio_output@@V?$positional_parameter_base@_WV?$stream_output_adapter@_W@__crt_stdio_output@@@2@@__crt_stdio_output@@AAE_NXZ 100615a0 f i libucrtd:output.obj
 0001:00060690       ?type_case_s@?$output_processor@_WV?$stream_output_adapter@_W@__crt_stdio_output@@V?$standard_base@_WV?$stream_output_adapter@_W@__crt_stdio_output@@@2@@__crt_stdio_output@@AAE_NXZ 10061690 f i libucrtd:output.obj
 0001:00060780       ?type_case_s@?$output_processor@_WV?$string_output_adapter@_W@__crt_stdio_output@@V?$format_validation_base@_WV?$string_output_adapter@_W@__crt_stdio_output@@@2@@__crt_stdio_output@@AAE_NXZ 10061780 f i libucrtd:output.obj
 0001:00060870       ?type_case_s@?$output_processor@_WV?$string_output_adapter@_W@__crt_stdio_output@@V?$positional_parameter_base@_WV?$string_output_adapter@_W@__crt_stdio_output@@@2@@__crt_stdio_output@@AAE_NXZ 10061870 f i libucrtd:output.obj
 0001:00060960       ?type_case_s@?$output_processor@_WV?$string_output_adapter@_W@__crt_stdio_output@@V?$standard_base@_WV?$string_output_adapter@_W@__crt_stdio_output@@@2@@__crt_stdio_output@@AAE_NXZ 10061960 f i libucrtd:output.obj
 0001:00060a50       ?type_case_s_compute_narrow_string_length@?$output_processor@DV?$stream_output_adapter@D@__crt_stdio_output@@V?$format_validation_base@DV?$stream_output_adapter@D@__crt_stdio_output@@@2@@__crt_stdio_output@@ABEHHD@Z 10061a50 f i libucrtd:output.obj
 0001:00060a80       ?type_case_s_compute_narrow_string_length@?$output_processor@DV?$stream_output_adapter@D@__crt_stdio_output@@V?$positional_parameter_base@DV?$stream_output_adapter@D@__crt_stdio_output@@@2@@__crt_stdio_output@@ABEHHD@Z 10061a80 f i libucrtd:output.obj
 0001:00060ab0       ?type_case_s_compute_narrow_string_length@?$output_processor@DV?$stream_output_adapter@D@__crt_stdio_output@@V?$standard_base@DV?$stream_output_adapter@D@__crt_stdio_output@@@2@@__crt_stdio_output@@ABEHHD@Z 10061ab0 f i libucrtd:output.obj
 0001:00060ae0       ?type_case_s_compute_narrow_string_length@?$output_processor@DV?$string_output_adapter@D@__crt_stdio_output@@V?$format_validation_base@DV?$string_output_adapter@D@__crt_stdio_output@@@2@@__crt_stdio_output@@ABEHHD@Z 10061ae0 f i libucrtd:output.obj
 0001:00060b10       ?type_case_s_compute_narrow_string_length@?$output_processor@DV?$string_output_adapter@D@__crt_stdio_output@@V?$positional_parameter_base@DV?$string_output_adapter@D@__crt_stdio_output@@@2@@__crt_stdio_output@@ABEHHD@Z 10061b10 f i libucrtd:output.obj
 0001:00060b40       ?type_case_s_compute_narrow_string_length@?$output_processor@DV?$string_output_adapter@D@__crt_stdio_output@@V?$standard_base@DV?$string_output_adapter@D@__crt_stdio_output@@@2@@__crt_stdio_output@@ABEHHD@Z 10061b40 f i libucrtd:output.obj
 0001:00060b70       ?type_case_s_compute_narrow_string_length@?$output_processor@_WV?$stream_output_adapter@_W@__crt_stdio_output@@V?$format_validation_base@_WV?$stream_output_adapter@_W@__crt_stdio_output@@@2@@__crt_stdio_output@@ABEHH_W@Z 10061b70 f i libucrtd:output.obj
 0001:00060be0       ?type_case_s_compute_narrow_string_length@?$output_processor@_WV?$stream_output_adapter@_W@__crt_stdio_output@@V?$positional_parameter_base@_WV?$stream_output_adapter@_W@__crt_stdio_output@@@2@@__crt_stdio_output@@ABEHH_W@Z 10061be0 f i libucrtd:output.obj
 0001:00060c50       ?type_case_s_compute_narrow_string_length@?$output_processor@_WV?$stream_output_adapter@_W@__crt_stdio_output@@V?$standard_base@_WV?$stream_output_adapter@_W@__crt_stdio_output@@@2@@__crt_stdio_output@@ABEHH_W@Z 10061c50 f i libucrtd:output.obj
 0001:00060cc0       ?type_case_s_compute_narrow_string_length@?$output_processor@_WV?$string_output_adapter@_W@__crt_stdio_output@@V?$format_validation_base@_WV?$string_output_adapter@_W@__crt_stdio_output@@@2@@__crt_stdio_output@@ABEHH_W@Z 10061cc0 f i libucrtd:output.obj
 0001:00060d30       ?type_case_s_compute_narrow_string_length@?$output_processor@_WV?$string_output_adapter@_W@__crt_stdio_output@@V?$positional_parameter_base@_WV?$string_output_adapter@_W@__crt_stdio_output@@@2@@__crt_stdio_output@@ABEHH_W@Z 10061d30 f i libucrtd:output.obj
 0001:00060da0       ?type_case_s_compute_narrow_string_length@?$output_processor@_WV?$string_output_adapter@_W@__crt_stdio_output@@V?$standard_base@_WV?$string_output_adapter@_W@__crt_stdio_output@@@2@@__crt_stdio_output@@ABEHH_W@Z 10061da0 f i libucrtd:output.obj
 0001:00060e10       ?type_case_u@?$output_processor@DV?$stream_output_adapter@D@__crt_stdio_output@@V?$format_validation_base@DV?$stream_output_adapter@D@__crt_stdio_output@@@2@@__crt_stdio_output@@AAE_NXZ 10061e10 f i libucrtd:output.obj
 0001:00060e30       ?type_case_u@?$output_processor@DV?$stream_output_adapter@D@__crt_stdio_output@@V?$positional_parameter_base@DV?$stream_output_adapter@D@__crt_stdio_output@@@2@@__crt_stdio_output@@AAE_NXZ 10061e30 f i libucrtd:output.obj
 0001:00060e50       ?type_case_u@?$output_processor@DV?$stream_output_adapter@D@__crt_stdio_output@@V?$standard_base@DV?$stream_output_adapter@D@__crt_stdio_output@@@2@@__crt_stdio_output@@AAE_NXZ 10061e50 f i libucrtd:output.obj
 0001:00060e70       ?type_case_u@?$output_processor@DV?$string_output_adapter@D@__crt_stdio_output@@V?$format_validation_base@DV?$string_output_adapter@D@__crt_stdio_output@@@2@@__crt_stdio_output@@AAE_NXZ 10061e70 f i libucrtd:output.obj
 0001:00060e90       ?type_case_u@?$output_processor@DV?$string_output_adapter@D@__crt_stdio_output@@V?$positional_parameter_base@DV?$string_output_adapter@D@__crt_stdio_output@@@2@@__crt_stdio_output@@AAE_NXZ 10061e90 f i libucrtd:output.obj
 0001:00060eb0       ?type_case_u@?$output_processor@DV?$string_output_adapter@D@__crt_stdio_output@@V?$standard_base@DV?$string_output_adapter@D@__crt_stdio_output@@@2@@__crt_stdio_output@@AAE_NXZ 10061eb0 f i libucrtd:output.obj
 0001:00060ed0       ?type_case_u@?$output_processor@_WV?$stream_output_adapter@_W@__crt_stdio_output@@V?$format_validation_base@_WV?$stream_output_adapter@_W@__crt_stdio_output@@@2@@__crt_stdio_output@@AAE_NXZ 10061ed0 f i libucrtd:output.obj
 0001:00060ef0       ?type_case_u@?$output_processor@_WV?$stream_output_adapter@_W@__crt_stdio_output@@V?$positional_parameter_base@_WV?$stream_output_adapter@_W@__crt_stdio_output@@@2@@__crt_stdio_output@@AAE_NXZ 10061ef0 f i libucrtd:output.obj
 0001:00060f10       ?type_case_u@?$output_processor@_WV?$stream_output_adapter@_W@__crt_stdio_output@@V?$standard_base@_WV?$stream_output_adapter@_W@__crt_stdio_output@@@2@@__crt_stdio_output@@AAE_NXZ 10061f10 f i libucrtd:output.obj
 0001:00060f30       ?type_case_u@?$output_processor@_WV?$string_output_adapter@_W@__crt_stdio_output@@V?$format_validation_base@_WV?$string_output_adapter@_W@__crt_stdio_output@@@2@@__crt_stdio_output@@AAE_NXZ 10061f30 f i libucrtd:output.obj
 0001:00060f50       ?type_case_u@?$output_processor@_WV?$string_output_adapter@_W@__crt_stdio_output@@V?$positional_parameter_base@_WV?$string_output_adapter@_W@__crt_stdio_output@@@2@@__crt_stdio_output@@AAE_NXZ 10061f50 f i libucrtd:output.obj
 0001:00060f70       ?type_case_u@?$output_processor@_WV?$string_output_adapter@_W@__crt_stdio_output@@V?$standard_base@_WV?$string_output_adapter@_W@__crt_stdio_output@@@2@@__crt_stdio_output@@AAE_NXZ 10061f70 f i libucrtd:output.obj
 0001:00060f90       ?type_case_x@?$output_processor@DV?$stream_output_adapter@D@__crt_stdio_output@@V?$format_validation_base@DV?$stream_output_adapter@D@__crt_stdio_output@@@2@@__crt_stdio_output@@AAE_NXZ 10061f90 f i libucrtd:output.obj
 0001:00060fb0       ?type_case_x@?$output_processor@DV?$stream_output_adapter@D@__crt_stdio_output@@V?$positional_parameter_base@DV?$stream_output_adapter@D@__crt_stdio_output@@@2@@__crt_stdio_output@@AAE_NXZ 10061fb0 f i libucrtd:output.obj
 0001:00060fd0       ?type_case_x@?$output_processor@DV?$stream_output_adapter@D@__crt_stdio_output@@V?$standard_base@DV?$stream_output_adapter@D@__crt_stdio_output@@@2@@__crt_stdio_output@@AAE_NXZ 10061fd0 f i libucrtd:output.obj
 0001:00060ff0       ?type_case_x@?$output_processor@DV?$string_output_adapter@D@__crt_stdio_output@@V?$format_validation_base@DV?$string_output_adapter@D@__crt_stdio_output@@@2@@__crt_stdio_output@@AAE_NXZ 10061ff0 f i libucrtd:output.obj
 0001:00061010       ?type_case_x@?$output_processor@DV?$string_output_adapter@D@__crt_stdio_output@@V?$positional_parameter_base@DV?$string_output_adapter@D@__crt_stdio_output@@@2@@__crt_stdio_output@@AAE_NXZ 10062010 f i libucrtd:output.obj
 0001:00061030       ?type_case_x@?$output_processor@DV?$string_output_adapter@D@__crt_stdio_output@@V?$standard_base@DV?$string_output_adapter@D@__crt_stdio_output@@@2@@__crt_stdio_output@@AAE_NXZ 10062030 f i libucrtd:output.obj
 0001:00061050       ?type_case_x@?$output_processor@_WV?$stream_output_adapter@_W@__crt_stdio_output@@V?$format_validation_base@_WV?$stream_output_adapter@_W@__crt_stdio_output@@@2@@__crt_stdio_output@@AAE_NXZ 10062050 f i libucrtd:output.obj
 0001:00061070       ?type_case_x@?$output_processor@_WV?$stream_output_adapter@_W@__crt_stdio_output@@V?$positional_parameter_base@_WV?$stream_output_adapter@_W@__crt_stdio_output@@@2@@__crt_stdio_output@@AAE_NXZ 10062070 f i libucrtd:output.obj
 0001:00061090       ?type_case_x@?$output_processor@_WV?$stream_output_adapter@_W@__crt_stdio_output@@V?$standard_base@_WV?$stream_output_adapter@_W@__crt_stdio_output@@@2@@__crt_stdio_output@@AAE_NXZ 10062090 f i libucrtd:output.obj
 0001:000610b0       ?type_case_x@?$output_processor@_WV?$string_output_adapter@_W@__crt_stdio_output@@V?$format_validation_base@_WV?$string_output_adapter@_W@__crt_stdio_output@@@2@@__crt_stdio_output@@AAE_NXZ 100620b0 f i libucrtd:output.obj
 0001:000610d0       ?type_case_x@?$output_processor@_WV?$string_output_adapter@_W@__crt_stdio_output@@V?$positional_parameter_base@_WV?$string_output_adapter@_W@__crt_stdio_output@@@2@@__crt_stdio_output@@AAE_NXZ 100620d0 f i libucrtd:output.obj
 0001:000610f0       ?type_case_x@?$output_processor@_WV?$string_output_adapter@_W@__crt_stdio_output@@V?$standard_base@_WV?$string_output_adapter@_W@__crt_stdio_output@@@2@@__crt_stdio_output@@AAE_NXZ 100620f0 f i libucrtd:output.obj
 0001:00061110       ?unset_flag@?$output_processor@DV?$stream_output_adapter@D@__crt_stdio_output@@V?$format_validation_base@DV?$stream_output_adapter@D@__crt_stdio_output@@@2@@__crt_stdio_output@@AAEXI@Z 10062110 f i libucrtd:output.obj
 0001:00061130       ?unset_flag@?$output_processor@DV?$stream_output_adapter@D@__crt_stdio_output@@V?$positional_parameter_base@DV?$stream_output_adapter@D@__crt_stdio_output@@@2@@__crt_stdio_output@@AAEXI@Z 10062130 f i libucrtd:output.obj
 0001:00061150       ?unset_flag@?$output_processor@DV?$stream_output_adapter@D@__crt_stdio_output@@V?$standard_base@DV?$stream_output_adapter@D@__crt_stdio_output@@@2@@__crt_stdio_output@@AAEXI@Z 10062150 f i libucrtd:output.obj
 0001:00061170       ?unset_flag@?$output_processor@DV?$string_output_adapter@D@__crt_stdio_output@@V?$format_validation_base@DV?$string_output_adapter@D@__crt_stdio_output@@@2@@__crt_stdio_output@@AAEXI@Z 10062170 f i libucrtd:output.obj
 0001:00061190       ?unset_flag@?$output_processor@DV?$string_output_adapter@D@__crt_stdio_output@@V?$positional_parameter_base@DV?$string_output_adapter@D@__crt_stdio_output@@@2@@__crt_stdio_output@@AAEXI@Z 10062190 f i libucrtd:output.obj
 0001:000611b0       ?unset_flag@?$output_processor@DV?$string_output_adapter@D@__crt_stdio_output@@V?$standard_base@DV?$string_output_adapter@D@__crt_stdio_output@@@2@@__crt_stdio_output@@AAEXI@Z 100621b0 f i libucrtd:output.obj
 0001:000611d0       ?unset_flag@?$output_processor@_WV?$stream_output_adapter@_W@__crt_stdio_output@@V?$format_validation_base@_WV?$stream_output_adapter@_W@__crt_stdio_output@@@2@@__crt_stdio_output@@AAEXI@Z 100621d0 f i libucrtd:output.obj
 0001:000611f0       ?unset_flag@?$output_processor@_WV?$stream_output_adapter@_W@__crt_stdio_output@@V?$positional_parameter_base@_WV?$stream_output_adapter@_W@__crt_stdio_output@@@2@@__crt_stdio_output@@AAEXI@Z 100621f0 f i libucrtd:output.obj
 0001:00061210       ?unset_flag@?$output_processor@_WV?$stream_output_adapter@_W@__crt_stdio_output@@V?$standard_base@_WV?$stream_output_adapter@_W@__crt_stdio_output@@@2@@__crt_stdio_output@@AAEXI@Z 10062210 f i libucrtd:output.obj
 0001:00061230       ?unset_flag@?$output_processor@_WV?$string_output_adapter@_W@__crt_stdio_output@@V?$format_validation_base@_WV?$string_output_adapter@_W@__crt_stdio_output@@@2@@__crt_stdio_output@@AAEXI@Z 10062230 f i libucrtd:output.obj
 0001:00061250       ?unset_flag@?$output_processor@_WV?$string_output_adapter@_W@__crt_stdio_output@@V?$positional_parameter_base@_WV?$string_output_adapter@_W@__crt_stdio_output@@@2@@__crt_stdio_output@@AAEXI@Z 10062250 f i libucrtd:output.obj
 0001:00061270       ?unset_flag@?$output_processor@_WV?$string_output_adapter@_W@__crt_stdio_output@@V?$standard_base@_WV?$string_output_adapter@_W@__crt_stdio_output@@@2@@__crt_stdio_output@@AAEXI@Z 10062270 f i libucrtd:output.obj
 0001:00061290       ?update_field_width@?$positional_parameter_base@DV?$stream_output_adapter@D@__crt_stdio_output@@@__crt_stdio_output@@IAE_NXZ 10062290 f i libucrtd:output.obj
 0001:00061410       ?update_field_width@?$positional_parameter_base@DV?$string_output_adapter@D@__crt_stdio_output@@@__crt_stdio_output@@IAE_NXZ 10062410 f i libucrtd:output.obj
 0001:00061590       ?update_field_width@?$positional_parameter_base@_WV?$stream_output_adapter@_W@__crt_stdio_output@@@__crt_stdio_output@@IAE_NXZ 10062590 f i libucrtd:output.obj
 0001:00061710       ?update_field_width@?$positional_parameter_base@_WV?$string_output_adapter@_W@__crt_stdio_output@@@__crt_stdio_output@@IAE_NXZ 10062710 f i libucrtd:output.obj
 0001:00061890       ?update_field_width@?$standard_base@DV?$stream_output_adapter@D@__crt_stdio_output@@@__crt_stdio_output@@IAE_NXZ 10062890 f i libucrtd:output.obj
 0001:000618c0       ?update_field_width@?$standard_base@DV?$string_output_adapter@D@__crt_stdio_output@@@__crt_stdio_output@@IAE_NXZ 100628c0 f i libucrtd:output.obj
 0001:000618f0       ?update_field_width@?$standard_base@_WV?$stream_output_adapter@_W@__crt_stdio_output@@@__crt_stdio_output@@IAE_NXZ 100628f0 f i libucrtd:output.obj
 0001:00061920       ?update_field_width@?$standard_base@_WV?$string_output_adapter@_W@__crt_stdio_output@@@__crt_stdio_output@@IAE_NXZ 10062920 f i libucrtd:output.obj
 0001:00061950       ?update_precision@?$positional_parameter_base@DV?$stream_output_adapter@D@__crt_stdio_output@@@__crt_stdio_output@@IAE_NXZ 10062950 f i libucrtd:output.obj
 0001:00061ad0       ?update_precision@?$positional_parameter_base@DV?$string_output_adapter@D@__crt_stdio_output@@@__crt_stdio_output@@IAE_NXZ 10062ad0 f i libucrtd:output.obj
 0001:00061c50       ?update_precision@?$positional_parameter_base@_WV?$stream_output_adapter@_W@__crt_stdio_output@@@__crt_stdio_output@@IAE_NXZ 10062c50 f i libucrtd:output.obj
 0001:00061dd0       ?update_precision@?$positional_parameter_base@_WV?$string_output_adapter@_W@__crt_stdio_output@@@__crt_stdio_output@@IAE_NXZ 10062dd0 f i libucrtd:output.obj
 0001:00061f50       ?update_precision@?$standard_base@DV?$stream_output_adapter@D@__crt_stdio_output@@@__crt_stdio_output@@IAE_NXZ 10062f50 f i libucrtd:output.obj
 0001:00061f80       ?update_precision@?$standard_base@DV?$string_output_adapter@D@__crt_stdio_output@@@__crt_stdio_output@@IAE_NXZ 10062f80 f i libucrtd:output.obj
 0001:00061fb0       ?update_precision@?$standard_base@_WV?$stream_output_adapter@_W@__crt_stdio_output@@@__crt_stdio_output@@IAE_NXZ 10062fb0 f i libucrtd:output.obj
 0001:00061fe0       ?update_precision@?$standard_base@_WV?$string_output_adapter@_W@__crt_stdio_output@@@__crt_stdio_output@@IAE_NXZ 10062fe0 f i libucrtd:output.obj
 0001:00062010       ?valid@__crt_stdio_stream@@QBE_NXZ 10063010 f i libucrtd:output.obj
 0001:00062040       ?validate@?$stream_output_adapter@D@__crt_stdio_output@@QBE_NXZ 10063040 f i libucrtd:output.obj
 0001:000620f0       ?validate@?$stream_output_adapter@_W@__crt_stdio_output@@QBE_NXZ 100630f0 f i libucrtd:output.obj
 0001:000621a0       ?validate@?$string_output_adapter@D@__crt_stdio_output@@QBE_NXZ 100631a0 f i libucrtd:output.obj
 0001:00062230       ?validate@?$string_output_adapter@_W@__crt_stdio_output@@QBE_NXZ 10063230 f i libucrtd:output.obj
 0001:000622c0       ?validate_and_store_parameter_data@?$positional_parameter_base@DV?$stream_output_adapter@D@__crt_stdio_output@@@__crt_stdio_output@@AAE_NAAUparameter_data@12@W4parameter_type@12@DW4length_modifier@2@@Z 100632c0 f i libucrtd:output.obj
 0001:00062390       ?validate_and_store_parameter_data@?$positional_parameter_base@DV?$string_output_adapter@D@__crt_stdio_output@@@__crt_stdio_output@@AAE_NAAUparameter_data@12@W4parameter_type@12@DW4length_modifier@2@@Z 10063390 f i libucrtd:output.obj
 0001:00062460       ?validate_and_store_parameter_data@?$positional_parameter_base@_WV?$stream_output_adapter@_W@__crt_stdio_output@@@__crt_stdio_output@@AAE_NAAUparameter_data@12@W4parameter_type@12@_WW4length_modifier@2@@Z 10063460 f i libucrtd:output.obj
 0001:00062540       ?validate_and_store_parameter_data@?$positional_parameter_base@_WV?$string_output_adapter@_W@__crt_stdio_output@@@__crt_stdio_output@@AAE_NAAUparameter_data@12@W4parameter_type@12@_WW4length_modifier@2@@Z 10063540 f i libucrtd:output.obj
 0001:00062620       ?validate_and_update_state_at_beginning_of_format_character@?$positional_parameter_base@DV?$stream_output_adapter@D@__crt_stdio_output@@@__crt_stdio_output@@IAE_NXZ 10063620 f i libucrtd:output.obj
 0001:00062840       ?validate_and_update_state_at_beginning_of_format_character@?$positional_parameter_base@DV?$string_output_adapter@D@__crt_stdio_output@@@__crt_stdio_output@@IAE_NXZ 10063840 f i libucrtd:output.obj
 0001:00062a60       ?validate_and_update_state_at_beginning_of_format_character@?$positional_parameter_base@_WV?$stream_output_adapter@_W@__crt_stdio_output@@@__crt_stdio_output@@IAE_NXZ 10063a60 f i libucrtd:output.obj
 0001:00062c80       ?validate_and_update_state_at_beginning_of_format_character@?$positional_parameter_base@_WV?$string_output_adapter@_W@__crt_stdio_output@@@__crt_stdio_output@@IAE_NXZ 10063c80 f i libucrtd:output.obj
 0001:00062ea0       ?validate_and_update_state_at_beginning_of_format_character@?$standard_base@DV?$stream_output_adapter@D@__crt_stdio_output@@@__crt_stdio_output@@IAE_NXZ 10063ea0 f i libucrtd:output.obj
 0001:00062eb0       ?validate_and_update_state_at_beginning_of_format_character@?$standard_base@DV?$string_output_adapter@D@__crt_stdio_output@@@__crt_stdio_output@@IAE_NXZ 10063eb0 f i libucrtd:output.obj
 0001:00062ec0       ?validate_and_update_state_at_beginning_of_format_character@?$standard_base@_WV?$stream_output_adapter@_W@__crt_stdio_output@@@__crt_stdio_output@@IAE_NXZ 10063ec0 f i libucrtd:output.obj
 0001:00062ed0       ?validate_and_update_state_at_beginning_of_format_character@?$standard_base@_WV?$string_output_adapter@_W@__crt_stdio_output@@@__crt_stdio_output@@IAE_NXZ 10063ed0 f i libucrtd:output.obj
 0001:00062ee0       ?validate_and_update_state_at_end_of_format_string@?$format_validation_base@DV?$stream_output_adapter@D@__crt_stdio_output@@@__crt_stdio_output@@IBE_NXZ 10063ee0 f i libucrtd:output.obj
 0001:00062f80       ?validate_and_update_state_at_end_of_format_string@?$format_validation_base@DV?$string_output_adapter@D@__crt_stdio_output@@@__crt_stdio_output@@IBE_NXZ 10063f80 f i libucrtd:output.obj
 0001:00063020       ?validate_and_update_state_at_end_of_format_string@?$format_validation_base@_WV?$stream_output_adapter@_W@__crt_stdio_output@@@__crt_stdio_output@@IBE_NXZ 10064020 f i libucrtd:output.obj
 0001:000630c0       ?validate_and_update_state_at_end_of_format_string@?$format_validation_base@_WV?$string_output_adapter@_W@__crt_stdio_output@@@__crt_stdio_output@@IBE_NXZ 100640c0 f i libucrtd:output.obj
 0001:00063160       ?validate_and_update_state_at_end_of_format_string@?$positional_parameter_base@DV?$stream_output_adapter@D@__crt_stdio_output@@@__crt_stdio_output@@IAE_NXZ 10064160 f i libucrtd:output.obj
 0001:00063300       ?validate_and_update_state_at_end_of_format_string@?$positional_parameter_base@DV?$string_output_adapter@D@__crt_stdio_output@@@__crt_stdio_output@@IAE_NXZ 10064300 f i libucrtd:output.obj
 0001:000634a0       ?validate_and_update_state_at_end_of_format_string@?$positional_parameter_base@_WV?$stream_output_adapter@_W@__crt_stdio_output@@@__crt_stdio_output@@IAE_NXZ 100644a0 f i libucrtd:output.obj
 0001:00063640       ?validate_and_update_state_at_end_of_format_string@?$positional_parameter_base@_WV?$string_output_adapter@_W@__crt_stdio_output@@@__crt_stdio_output@@IAE_NXZ 10064640 f i libucrtd:output.obj
 0001:000637e0       ?validate_and_update_state_at_end_of_format_string@?$standard_base@DV?$stream_output_adapter@D@__crt_stdio_output@@@__crt_stdio_output@@IBE_NXZ 100647e0 f i libucrtd:output.obj
 0001:000637f0       ?validate_and_update_state_at_end_of_format_string@?$standard_base@DV?$string_output_adapter@D@__crt_stdio_output@@@__crt_stdio_output@@IBE_NXZ 100647f0 f i libucrtd:output.obj
 0001:00063800       ?validate_and_update_state_at_end_of_format_string@?$standard_base@_WV?$stream_output_adapter@_W@__crt_stdio_output@@@__crt_stdio_output@@IBE_NXZ 10064800 f i libucrtd:output.obj
 0001:00063810       ?validate_and_update_state_at_end_of_format_string@?$standard_base@_WV?$string_output_adapter@_W@__crt_stdio_output@@@__crt_stdio_output@@IBE_NXZ 10064810 f i libucrtd:output.obj
 0001:00063820       ?validate_state_for_type_case_a@?$positional_parameter_base@DV?$stream_output_adapter@D@__crt_stdio_output@@@__crt_stdio_output@@IAE_NXZ 10064820 f i libucrtd:output.obj
 0001:00063910       ?validate_state_for_type_case_a@?$positional_parameter_base@DV?$string_output_adapter@D@__crt_stdio_output@@@__crt_stdio_output@@IAE_NXZ 10064910 f i libucrtd:output.obj
 0001:00063a00       ?validate_state_for_type_case_a@?$positional_parameter_base@_WV?$stream_output_adapter@_W@__crt_stdio_output@@@__crt_stdio_output@@IAE_NXZ 10064a00 f i libucrtd:output.obj
 0001:00063af0       ?validate_state_for_type_case_a@?$positional_parameter_base@_WV?$string_output_adapter@_W@__crt_stdio_output@@@__crt_stdio_output@@IAE_NXZ 10064af0 f i libucrtd:output.obj
 0001:00063be0       ?validate_state_for_type_case_a@?$standard_base@DV?$stream_output_adapter@D@__crt_stdio_output@@@__crt_stdio_output@@IBE_NXZ 10064be0 f i libucrtd:output.obj
 0001:00063bf0       ?validate_state_for_type_case_a@?$standard_base@DV?$string_output_adapter@D@__crt_stdio_output@@@__crt_stdio_output@@IBE_NXZ 10064bf0 f i libucrtd:output.obj
 0001:00063c00       ?validate_state_for_type_case_a@?$standard_base@_WV?$stream_output_adapter@_W@__crt_stdio_output@@@__crt_stdio_output@@IBE_NXZ 10064c00 f i libucrtd:output.obj
 0001:00063c10       ?validate_state_for_type_case_a@?$standard_base@_WV?$string_output_adapter@_W@__crt_stdio_output@@@__crt_stdio_output@@IBE_NXZ 10064c10 f i libucrtd:output.obj
 0001:00063c20       ?validate_stream_is_ansi_if_required@?$__acrt_stdio_char_traits@D@@SA_NQAU_iobuf@@@Z 10064c20 f i libucrtd:output.obj
 0001:00063d50       ?validate_stream_is_ansi_if_required@?$__acrt_stdio_char_traits@_W@@SA_NQAU_iobuf@@@Z 10064d50 f i libucrtd:output.obj
 0001:00063d60       ?wide_null_string@?$output_processor@DV?$stream_output_adapter@D@__crt_stdio_output@@V?$format_validation_base@DV?$stream_output_adapter@D@__crt_stdio_output@@@2@@__crt_stdio_output@@CAPA_WXZ 10064d60 f i libucrtd:output.obj
 0001:00063d70       ?wide_null_string@?$output_processor@DV?$stream_output_adapter@D@__crt_stdio_output@@V?$positional_parameter_base@DV?$stream_output_adapter@D@__crt_stdio_output@@@2@@__crt_stdio_output@@CAPA_WXZ 10064d70 f i libucrtd:output.obj
 0001:00063d80       ?wide_null_string@?$output_processor@DV?$stream_output_adapter@D@__crt_stdio_output@@V?$standard_base@DV?$stream_output_adapter@D@__crt_stdio_output@@@2@@__crt_stdio_output@@CAPA_WXZ 10064d80 f i libucrtd:output.obj
 0001:00063d90       ?wide_null_string@?$output_processor@DV?$string_output_adapter@D@__crt_stdio_output@@V?$format_validation_base@DV?$string_output_adapter@D@__crt_stdio_output@@@2@@__crt_stdio_output@@CAPA_WXZ 10064d90 f i libucrtd:output.obj
 0001:00063da0       ?wide_null_string@?$output_processor@DV?$string_output_adapter@D@__crt_stdio_output@@V?$positional_parameter_base@DV?$string_output_adapter@D@__crt_stdio_output@@@2@@__crt_stdio_output@@CAPA_WXZ 10064da0 f i libucrtd:output.obj
 0001:00063db0       ?wide_null_string@?$output_processor@DV?$string_output_adapter@D@__crt_stdio_output@@V?$standard_base@DV?$string_output_adapter@D@__crt_stdio_output@@@2@@__crt_stdio_output@@CAPA_WXZ 10064db0 f i libucrtd:output.obj
 0001:00063dc0       ?wide_null_string@?$output_processor@_WV?$stream_output_adapter@_W@__crt_stdio_output@@V?$format_validation_base@_WV?$stream_output_adapter@_W@__crt_stdio_output@@@2@@__crt_stdio_output@@CAPA_WXZ 10064dc0 f i libucrtd:output.obj
 0001:00063dd0       ?wide_null_string@?$output_processor@_WV?$stream_output_adapter@_W@__crt_stdio_output@@V?$positional_parameter_base@_WV?$stream_output_adapter@_W@__crt_stdio_output@@@2@@__crt_stdio_output@@CAPA_WXZ 10064dd0 f i libucrtd:output.obj
 0001:00063de0       ?wide_null_string@?$output_processor@_WV?$stream_output_adapter@_W@__crt_stdio_output@@V?$standard_base@_WV?$stream_output_adapter@_W@__crt_stdio_output@@@2@@__crt_stdio_output@@CAPA_WXZ 10064de0 f i libucrtd:output.obj
 0001:00063df0       ?wide_null_string@?$output_processor@_WV?$string_output_adapter@_W@__crt_stdio_output@@V?$format_validation_base@_WV?$string_output_adapter@_W@__crt_stdio_output@@@2@@__crt_stdio_output@@CAPA_WXZ 10064df0 f i libucrtd:output.obj
 0001:00063e00       ?wide_null_string@?$output_processor@_WV?$string_output_adapter@_W@__crt_stdio_output@@V?$positional_parameter_base@_WV?$string_output_adapter@_W@__crt_stdio_output@@@2@@__crt_stdio_output@@CAPA_WXZ 10064e00 f i libucrtd:output.obj
 0001:00063e10       ?wide_null_string@?$output_processor@_WV?$string_output_adapter@_W@__crt_stdio_output@@V?$standard_base@_WV?$string_output_adapter@_W@__crt_stdio_output@@@2@@__crt_stdio_output@@CAPA_WXZ 10064e10 f i libucrtd:output.obj
 0001:00063e20       ?write_character@?$output_adapter_common@DV?$stream_output_adapter@D@__crt_stdio_output@@@__crt_stdio_output@@QBEXDQAH@Z 10064e20 f i libucrtd:output.obj
 0001:00063e60       ?write_character@?$output_adapter_common@_WV?$stream_output_adapter@_W@__crt_stdio_output@@@__crt_stdio_output@@QBEX_WQAH@Z 10064e60 f i libucrtd:output.obj
 0001:00063ea0       ?write_character@?$string_output_adapter@D@__crt_stdio_output@@QBE_NDQAH@Z 10064ea0 f i libucrtd:output.obj
 0001:00063f30       ?write_character@?$string_output_adapter@_W@__crt_stdio_output@@QBE_N_WQAH@Z 10064f30 f i libucrtd:output.obj
 0001:00063fd0       ?write_character_without_count_update@?$stream_output_adapter@D@__crt_stdio_output@@QBE_ND@Z 10064fd0 f i libucrtd:output.obj
 0001:00064040       ?write_character_without_count_update@?$stream_output_adapter@_W@__crt_stdio_output@@QBE_N_W@Z 10065040 f i libucrtd:output.obj
 0001:000640b0       ?write_stored_string_tchar@?$output_processor@DV?$stream_output_adapter@D@__crt_stdio_output@@V?$format_validation_base@DV?$stream_output_adapter@D@__crt_stdio_output@@@2@@__crt_stdio_output@@AAE_ND@Z 100650b0 f i libucrtd:output.obj
 0001:000641c0       ?write_stored_string_tchar@?$output_processor@DV?$stream_output_adapter@D@__crt_stdio_output@@V?$positional_parameter_base@DV?$stream_output_adapter@D@__crt_stdio_output@@@2@@__crt_stdio_output@@AAE_ND@Z 100651c0 f i libucrtd:output.obj
 0001:000642d0       ?write_stored_string_tchar@?$output_processor@DV?$stream_output_adapter@D@__crt_stdio_output@@V?$standard_base@DV?$stream_output_adapter@D@__crt_stdio_output@@@2@@__crt_stdio_output@@AAE_ND@Z 100652d0 f i libucrtd:output.obj
 0001:000643e0       ?write_stored_string_tchar@?$output_processor@DV?$string_output_adapter@D@__crt_stdio_output@@V?$format_validation_base@DV?$string_output_adapter@D@__crt_stdio_output@@@2@@__crt_stdio_output@@AAE_ND@Z 100653e0 f i libucrtd:output.obj
 0001:000644f0       ?write_stored_string_tchar@?$output_processor@DV?$string_output_adapter@D@__crt_stdio_output@@V?$positional_parameter_base@DV?$string_output_adapter@D@__crt_stdio_output@@@2@@__crt_stdio_output@@AAE_ND@Z 100654f0 f i libucrtd:output.obj
 0001:00064600       ?write_stored_string_tchar@?$output_processor@DV?$string_output_adapter@D@__crt_stdio_output@@V?$standard_base@DV?$string_output_adapter@D@__crt_stdio_output@@@2@@__crt_stdio_output@@AAE_ND@Z 10065600 f i libucrtd:output.obj
 0001:00064710       ?write_stored_string_tchar@?$output_processor@_WV?$stream_output_adapter@_W@__crt_stdio_output@@V?$format_validation_base@_WV?$stream_output_adapter@_W@__crt_stdio_output@@@2@@__crt_stdio_output@@AAE_N_W@Z 10065710 f i libucrtd:output.obj
 0001:00064800       ?write_stored_string_tchar@?$output_processor@_WV?$stream_output_adapter@_W@__crt_stdio_output@@V?$positional_parameter_base@_WV?$stream_output_adapter@_W@__crt_stdio_output@@@2@@__crt_stdio_output@@AAE_N_W@Z 10065800 f i libucrtd:output.obj
 0001:000648f0       ?write_stored_string_tchar@?$output_processor@_WV?$stream_output_adapter@_W@__crt_stdio_output@@V?$standard_base@_WV?$stream_output_adapter@_W@__crt_stdio_output@@@2@@__crt_stdio_output@@AAE_N_W@Z 100658f0 f i libucrtd:output.obj
 0001:000649e0       ?write_stored_string_tchar@?$output_processor@_WV?$string_output_adapter@_W@__crt_stdio_output@@V?$format_validation_base@_WV?$string_output_adapter@_W@__crt_stdio_output@@@2@@__crt_stdio_output@@AAE_N_W@Z 100659e0 f i libucrtd:output.obj
 0001:00064ad0       ?write_stored_string_tchar@?$output_processor@_WV?$string_output_adapter@_W@__crt_stdio_output@@V?$positional_parameter_base@_WV?$string_output_adapter@_W@__crt_stdio_output@@@2@@__crt_stdio_output@@AAE_N_W@Z 10065ad0 f i libucrtd:output.obj
 0001:00064bc0       ?write_stored_string_tchar@?$output_processor@_WV?$string_output_adapter@_W@__crt_stdio_output@@V?$standard_base@_WV?$string_output_adapter@_W@__crt_stdio_output@@@2@@__crt_stdio_output@@AAE_N_W@Z 10065bc0 f i libucrtd:output.obj
 0001:00064cb0       ?write_string@?$stream_output_adapter@D@__crt_stdio_output@@QBEXQBDHQAHAAV__crt_deferred_errno_cache@@@Z 10065cb0 f i libucrtd:output.obj
 0001:00064d10       ?write_string@?$stream_output_adapter@_W@__crt_stdio_output@@QBEXQB_WHQAHAAV__crt_deferred_errno_cache@@@Z 10065d10 f i libucrtd:output.obj
 0001:00064d70       ?write_string@?$string_output_adapter@D@__crt_stdio_output@@QBEXQBDHQAHAAV__crt_deferred_errno_cache@@@Z 10065d70 f i libucrtd:output.obj
 0001:00064e70       ?write_string@?$string_output_adapter@_W@__crt_stdio_output@@QBEXQB_WHQAHAAV__crt_deferred_errno_cache@@@Z 10065e70 f i libucrtd:output.obj
 0001:00064f80       ?write_string_impl@?$output_adapter_common@DV?$stream_output_adapter@D@__crt_stdio_output@@@__crt_stdio_output@@IBEXQBDHQAHAAV__crt_deferred_errno_cache@@@Z 10065f80 f i libucrtd:output.obj
 0001:00065020       ?write_string_impl@?$output_adapter_common@_WV?$stream_output_adapter@_W@__crt_stdio_output@@@__crt_stdio_output@@IBEXQB_WHQAHAAV__crt_deferred_errno_cache@@@Z 10066020 f i libucrtd:output.obj
 0001:000650c0       ___acrt_isleadbyte_l_noupdate 100660c0 f i libucrtd:output.obj
 0001:000650e0       ___acrt_locale_changed     100660e0 f i libucrtd:output.obj
 0001:00065110       ___acrt_locale_get_ctype_array_value 10066110 f i libucrtd:output.obj
 0001:00065140       ___stdio_common_vfprintf   10066140 f   libucrtd:output.obj
 0001:00065170       ___stdio_common_vfprintf_p 10066170 f   libucrtd:output.obj
 0001:000651a0       ___stdio_common_vfprintf_s 100661a0 f   libucrtd:output.obj
 0001:000651d0       ___stdio_common_vfwprintf  100661d0 f   libucrtd:output.obj
 0001:00065200       ___stdio_common_vfwprintf_p 10066200 f   libucrtd:output.obj
 0001:00065230       ___stdio_common_vfwprintf_s 10066230 f   libucrtd:output.obj
 0001:00065260       ___stdio_common_vsnprintf_s 10066260 f   libucrtd:output.obj
 0001:00065290       ___stdio_common_vsnwprintf_s 10066290 f   libucrtd:output.obj
 0001:000652c0       ___stdio_common_vsprintf   100662c0 f   libucrtd:output.obj
 0001:000652f0       ___stdio_common_vsprintf_p 100662f0 f   libucrtd:output.obj
 0001:00065320       ___stdio_common_vsprintf_s 10066320 f   libucrtd:output.obj
 0001:00065350       ___stdio_common_vswprintf  10066350 f   libucrtd:output.obj
 0001:00065380       ___stdio_common_vswprintf_p 10066380 f   libucrtd:output.obj
 0001:000653b0       ___stdio_common_vswprintf_s 100663b0 f   libucrtd:output.obj
 0001:000653e0       __ctype_fast_check_internal 100663e0 f i libucrtd:output.obj
 0001:00065400       __isdigit_fast_internal    10066400 f i libucrtd:output.obj
 0001:00065420       __tolower_fast_internal    10066420 f i libucrtd:output.obj
 0001:00065440       _free                      10066440 f   libucrtd:free.obj
 0001:00065470       _malloc                    10066470 f   libucrtd:malloc.obj
 0001:00065490       ??$?RU?$__crt_report_hook_node@D@@@__crt_internal_free_policy@@QBEXQBU?$__crt_report_hook_node@D@@@Z 10066490 f i libucrtd:dbgrpt.obj
 0001:000654b0       ??$?RU?$__crt_report_hook_node@_W@@@__crt_internal_free_policy@@QBEXQBU?$__crt_report_hook_node@_W@@@Z 100664b0 f i libucrtd:dbgrpt.obj
 0001:000662a0       ??$get_module_file_name@AAPAUHINSTANCE__@@AAY0BAF@DK@?$__crt_char_traits@D@@SAKAAPAUHINSTANCE__@@AAY0BAF@D$$QAK@Z 100672a0 f i libucrtd:dbgrpt.obj
 0001:000662c0       ??$get_module_file_name@AAPAUHINSTANCE__@@AAY0BAF@_WK@?$__crt_char_traits@_W@@SAKAAPAUHINSTANCE__@@AAY0BAF@_W$$QAK@Z 100672c0 f i libucrtd:dbgrpt.obj
 0001:000662e0       ??$tcscpy_s@AAY0BAF@DIPBD@?$__crt_char_traits@D@@SAHAAY0BAF@D$$QAI$$QAPBD@Z 100672e0 f i libucrtd:dbgrpt.obj
 0001:00066300       ??$tcscpy_s@AAY0BAF@_WIPB_W@?$__crt_char_traits@_W@@SAHAAY0BAF@_W$$QAI$$QAPB_W@Z 10067300 f i libucrtd:dbgrpt.obj
 0001:00066320       ??$tcslen@AAY0BAF@D@?$__crt_char_traits@D@@SAIAAY0BAF@D@Z 10067320 f i libucrtd:dbgrpt.obj
 0001:00066340       ??$tcslen@AAY0BAF@_W@?$__crt_char_traits@_W@@SAIAAY0BAF@_W@Z 10067340 f i libucrtd:dbgrpt.obj
 0001:00066360       ??$tcslen@ABQBD@?$__crt_char_traits@D@@SAIABQBD@Z 10067360 f i libucrtd:dbgrpt.obj
 0001:00066380       ??$tcslen@ABQB_W@?$__crt_char_traits@_W@@SAIABQB_W@Z 10067380 f i libucrtd:dbgrpt.obj
 0001:00066480       ??0?$__crt_unique_heap_ptr@U?$__crt_report_hook_node@D@@U__crt_internal_free_policy@@@@QAE@QAU?$__crt_report_hook_node@D@@@Z 10067480 f i libucrtd:dbgrpt.obj
 0001:000664a0       ??0?$__crt_unique_heap_ptr@U?$__crt_report_hook_node@_W@@U__crt_internal_free_policy@@@@QAE@QAU?$__crt_report_hook_node@_W@@@Z 100674a0 f i libucrtd:dbgrpt.obj
 0001:000664c0       ??1?$__crt_unique_heap_ptr@U?$__crt_report_hook_node@D@@U__crt_internal_free_policy@@@@QAE@XZ 100674c0 f i libucrtd:dbgrpt.obj
 0001:000664e0       ??1?$__crt_unique_heap_ptr@U?$__crt_report_hook_node@_W@@U__crt_internal_free_policy@@@@QAE@XZ 100674e0 f i libucrtd:dbgrpt.obj
 0001:00066500       ??B?$__crt_unique_heap_ptr@U?$__crt_report_hook_node@D@@U__crt_internal_free_policy@@@@QBE_NXZ 10067500 f i libucrtd:dbgrpt.obj
 0001:00066520       ??B?$__crt_unique_heap_ptr@U?$__crt_report_hook_node@_W@@U__crt_internal_free_policy@@@@QBE_NXZ 10067520 f i libucrtd:dbgrpt.obj
 0001:00066a60       ?detach@?$__crt_unique_heap_ptr@U?$__crt_report_hook_node@D@@U__crt_internal_free_policy@@@@QAEPAU?$__crt_report_hook_node@D@@XZ 10067a60 f i libucrtd:dbgrpt.obj
 0001:00066a90       ?detach@?$__crt_unique_heap_ptr@U?$__crt_report_hook_node@_W@@U__crt_internal_free_policy@@@@QAEPAU?$__crt_report_hook_node@_W@@XZ 10067a90 f i libucrtd:dbgrpt.obj
 0001:00066ac0       ?get@?$__crt_unique_heap_ptr@U?$__crt_report_hook_node@D@@U__crt_internal_free_policy@@@@QBEPAU?$__crt_report_hook_node@D@@XZ 10067ac0 f i libucrtd:dbgrpt.obj
 0001:00066ae0       ?get@?$__crt_unique_heap_ptr@U?$__crt_report_hook_node@_W@@U__crt_internal_free_policy@@@@QBEPAU?$__crt_report_hook_node@_W@@XZ 10067ae0 f i libucrtd:dbgrpt.obj
 0001:00066b60       ?is_valid@?$__crt_unique_heap_ptr@U?$__crt_report_hook_node@D@@U__crt_internal_free_policy@@@@QBE_NXZ 10067b60 f i libucrtd:dbgrpt.obj
 0001:00066b90       ?is_valid@?$__crt_unique_heap_ptr@U?$__crt_report_hook_node@_W@@U__crt_internal_free_policy@@@@QBE_NXZ 10067b90 f i libucrtd:dbgrpt.obj
 0001:00066bc0       ?release@?$__crt_unique_heap_ptr@U?$__crt_report_hook_node@D@@U__crt_internal_free_policy@@@@QAEXXZ 10067bc0 f i libucrtd:dbgrpt.obj
 0001:00066bf0       ?release@?$__crt_unique_heap_ptr@U?$__crt_report_hook_node@_W@@U__crt_internal_free_policy@@@@QAEXXZ 10067bf0 f i libucrtd:dbgrpt.obj
 0001:00066c20       __CrtDbgReport             10067c20 f   libucrtd:dbgrpt.obj
 0001:00066c70       __CrtDbgReportW            10067c70 f   libucrtd:dbgrpt.obj
 0001:00066cc0       __CrtSetReportHook2        10067cc0 f   libucrtd:dbgrpt.obj
 0001:00066ce0       __CrtSetReportHookW2       10067ce0 f   libucrtd:dbgrpt.obj
 0001:00066d00       ___acrt_MessageWindowA     10067d00 f   libucrtd:dbgrpt.obj
 0001:00066d30       ___acrt_MessageWindowW     10067d30 f   libucrtd:dbgrpt.obj
 0001:00066d60       __invoke_watson_if_error   10067d60 f i libucrtd:dbgrpt.obj
 0001:00066d90       __invoke_watson_if_oneof   10067d90 f i libucrtd:dbgrpt.obj
 0001:00066dd0       __snwprintf_s              10067dd0 f i libucrtd:dbgrpt.obj
 0001:00066e10       __vsnwprintf_s_l           10067e10 f i libucrtd:dbgrpt.obj
 0001:00067190       _wcscpy_s                  10068190 f   libucrtd:wcscpy_s.obj
 0001:00067eb0       ??1?$__crt_simd_cleanup_guard@$00@@QAE@XZ 10068eb0 f i libucrtd:strnlen.obj
 0001:00067ec0       ??1?$__crt_simd_cleanup_guard@$0A@@@QAE@XZ 10068ec0 f i libucrtd:strnlen.obj
 0001:00067ed0       ?compare_equals@?$__crt_simd_traits@$00E@@SA?AT__m256i@@T2@0@Z 10068ed0 f i libucrtd:strnlen.obj
 0001:00067f10       ?compare_equals@?$__crt_simd_traits@$00G@@SA?AT__m256i@@T2@0@Z 10068f10 f i libucrtd:strnlen.obj
 0001:00067f50       ?compare_equals@?$__crt_simd_traits@$0A@E@@SA?AT__m128i@@T2@0@Z 10068f50 f i libucrtd:strnlen.obj
 0001:00067f90       ?compare_equals@?$__crt_simd_traits@$0A@G@@SA?AT__m128i@@T2@0@Z 10068f90 f i libucrtd:strnlen.obj
 0001:00067fd0       ?compute_byte_mask@?$__crt_simd_pack_traits@$00@@SAHT__m256i@@@Z 10068fd0 f i libucrtd:strnlen.obj
 0001:00068000       ?compute_byte_mask@?$__crt_simd_pack_traits@$0A@@@SAHT__m128i@@@Z 10069000 f i libucrtd:strnlen.obj
 0001:00068030       ?get_zero_pack@?$__crt_simd_pack_traits@$00@@SA?AT__m256i@@XZ 10069030 f i libucrtd:strnlen.obj
 0001:00068060       ?get_zero_pack@?$__crt_simd_pack_traits@$0A@@@SA?AT__m128i@@XZ 10069060 f i libucrtd:strnlen.obj
 0001:00068090       _strnlen                   10069090 f   libucrtd:strnlen.obj
 0001:000680b0       _wcslen                    100690b0 f   libucrtd:strnlen.obj
 0001:000680d0       _wcsnlen                   100690d0 f   libucrtd:strnlen.obj
 0001:000680f0       ??$__crt_fast_decode_pointer@P6AXPB_W00II@Z@@YAP6AXPB_W00II@ZQ6AX000II@Z@Z 100690f0 f i libucrtd:invalid_parameter.obj
 0001:00068120       ??$__crt_fast_encode_pointer@P6AXPB_W00II@Z@@YAP6AXPB_W00II@ZQ6AX000II@Z@Z 10069120 f i libucrtd:invalid_parameter.obj
 0001:00068150       ??$initialize_from_array@$$BY00Q6AXPB_W00II@Z@?$dual_state_global@P6AXPB_W00II@Z@__crt_state_management@@QAAXAAY00Q6AXPB_W00II@Z@Z 10069150 f i libucrtd:invalid_parameter.obj
 0001:000681a0       ?__crt_rotate_pointer_value@@YAIIH@Z 100691a0 f i libucrtd:invalid_parameter.obj
 0001:000681b0       ?dangerous_get_state_array@?$dual_state_global@P6AXPB_W00II@Z@__crt_state_management@@QAEPAP6AXPB_W00II@ZXZ 100691b0 f i libucrtd:invalid_parameter.obj
 0001:000681c0       ?get_current_state_index@__crt_state_management@@YAIXZ 100691c0 f i libucrtd:invalid_parameter.obj
 0001:000681d0       ?value@?$dual_state_global@P6AXPB_W00II@Z@__crt_state_management@@QAEAAP6AXPB_W00II@ZXZ 100691d0 f i libucrtd:invalid_parameter.obj
 0001:000681f0       ___acrt_call_reportfault   100691f0 f   libucrtd:invalid_parameter.obj
 0001:00068350       ___acrt_initialize_invalid_parameter_handler 10069350 f   libucrtd:invalid_parameter.obj
 0001:00068380       __get_invalid_parameter_handler 10069380 f   libucrtd:invalid_parameter.obj
 0001:000683a0       __get_thread_local_invalid_parameter_handler 100693a0 f   libucrtd:invalid_parameter.obj
 0001:000683d0       __invalid_parameter        100693d0 f   libucrtd:invalid_parameter.obj
 0001:00068490       __invalid_parameter_noinfo 10069490 f   libucrtd:invalid_parameter.obj
 0001:000684b0       __invalid_parameter_noinfo_noreturn 100694b0 f   libucrtd:invalid_parameter.obj
 0001:000684e0       __invoke_watson            100694e0 f   libucrtd:invalid_parameter.obj
 0001:00068520       __set_invalid_parameter_handler 10069520 f   libucrtd:invalid_parameter.obj
 0001:00068570       __set_thread_local_invalid_parameter_handler 10069570 f   libucrtd:invalid_parameter.obj
 0001:000685a0       ___acrt_errno_from_os_error 100695a0 f   libucrtd:errno.obj
 0001:00068620       ___acrt_errno_map_os_error 10069620 f   libucrtd:errno.obj
 0001:00068650       ___doserrno                10069650 f   libucrtd:errno.obj
 0001:00068680       __errno                    10069680 f   libucrtd:errno.obj
 0001:000686b0       __get_doserrno             100696b0 f   libucrtd:errno.obj
 0001:00068740       __get_errno                10069740 f   libucrtd:errno.obj
 0001:000687d0       __set_doserrno             100697d0 f   libucrtd:errno.obj
 0001:00068800       __set_errno                10069800 f   libucrtd:errno.obj
 0001:00068830       _calloc                    10069830 f   libucrtd:calloc.obj
 0001:00068850       __recalloc                 10069850 f   libucrtd:recalloc.obj
 0001:00068880       __recalloc_base            10069880 f   libucrtd:recalloc.obj
 0001:0006891a       __resetstkoflw             1006991a f   libucrtd:resetstk.obj
 0001:00068e00       _wcscat_s                  10069e00 f   libucrtd:wcscat_s.obj
 0001:00069250       _wcsncpy_s                 1006a250 f   libucrtd:wcsncpy_s.obj
 0001:00069290       ___acrt_get_locale_data_prefix 1006a290 f i libucrtd:_ctype.obj
 0001:000692b0       ___isascii                 1006a2b0 f i libucrtd:_ctype.obj
 0001:000692e0       ___iscsym                  1006a2e0 f i libucrtd:_ctype.obj
 0001:00069320       ___iscsymf                 1006a320 f i libucrtd:_ctype.obj
 0001:00069360       ___toascii                 1006a360 f i libucrtd:_ctype.obj
 0001:00069370       __chvalidchk_l             1006a370 f i libucrtd:_ctype.obj
 0001:00069390       __isalnum_l                1006a390 f i libucrtd:_ctype.obj
 0001:000693d0       __isalpha_l                1006a3d0 f i libucrtd:_ctype.obj
 0001:00069410       __isblank_l                1006a410 f i libucrtd:_ctype.obj
 0001:00069470       __ischartype_l             1006a470 f i libucrtd:_ctype.obj
 0001:000694f0       __iscntrl_l                1006a4f0 f i libucrtd:_ctype.obj
 0001:00069530       __iscsym_l                 1006a530 f i libucrtd:_ctype.obj
 0001:00069570       __iscsymf_l                1006a570 f i libucrtd:_ctype.obj
 0001:000695b0       __isdigit_l                1006a5b0 f i libucrtd:_ctype.obj
 0001:000695f0       __isgraph_l                1006a5f0 f i libucrtd:_ctype.obj
 0001:00069630       __islower_l                1006a630 f i libucrtd:_ctype.obj
 0001:00069670       __isprint_l                1006a670 f i libucrtd:_ctype.obj
 0001:000696b0       __ispunct_l                1006a6b0 f i libucrtd:_ctype.obj
 0001:000696f0       __isspace_l                1006a6f0 f i libucrtd:_ctype.obj
 0001:00069730       __isupper_l                1006a730 f i libucrtd:_ctype.obj
 0001:00069770       __isxdigit_l               1006a770 f i libucrtd:_ctype.obj
 0001:000697b0       _isalnum                   1006a7b0 f i libucrtd:_ctype.obj
 0001:000697f0       _isalpha                   1006a7f0 f i libucrtd:_ctype.obj
 0001:00069830       _isblank                   1006a830 f i libucrtd:_ctype.obj
 0001:00069890       _iscntrl                   1006a890 f i libucrtd:_ctype.obj
 0001:000698d0       _isdigit                   1006a8d0 f i libucrtd:_ctype.obj
 0001:00069910       _isgraph                   1006a910 f i libucrtd:_ctype.obj
 0001:00069950       _islower                   1006a950 f i libucrtd:_ctype.obj
 0001:00069990       _isprint                   1006a990 f i libucrtd:_ctype.obj
 0001:000699d0       _ispunct                   1006a9d0 f i libucrtd:_ctype.obj
 0001:00069a10       _isspace                   1006aa10 f i libucrtd:_ctype.obj
 0001:00069a50       _isupper                   1006aa50 f i libucrtd:_ctype.obj
 0001:00069a90       _isxdigit                  1006aa90 f i libucrtd:_ctype.obj
 0001:00069ad0       _wcscat                    1006aad0 f   libucrtd:wcscat.obj
 0001:00069b30       _wcscpy                    1006ab30 f   libucrtd:wcscpy.obj
 0001:0006a1c0       ??$open_file@ABQBDABQBDABHPAU_iobuf@@@?$__crt_char_traits@D@@SAPAU_iobuf@@ABQBD0ABH$$QAPAU1@@Z 1006b1c0 f i libucrtd:fopen.obj
 0001:0006a1f0       ??$open_file@ABQB_WABQB_WABHPAU_iobuf@@@?$__crt_char_traits@_W@@SAPAU_iobuf@@ABQB_W0ABH$$QAPAU1@@Z 1006b1f0 f i libucrtd:fopen.obj
 0001:0006a220       ?unlock@__crt_stdio_stream@@QBEXXZ 1006b220 f i libucrtd:fopen.obj
 0001:0006a240       __fsopen                   1006b240 f   libucrtd:fopen.obj
 0001:0006a260       __wfopen                   1006b260 f   libucrtd:fopen.obj
 0001:0006a280       __wfopen_s                 1006b280 f   libucrtd:fopen.obj
 0001:0006a2a0       __wfsopen                  1006b2a0 f   libucrtd:fopen.obj
 0001:0006a2c0       _fopen                     1006b2c0 f   libucrtd:fopen.obj
 0001:0006a2e0       _fopen_s                   1006b2e0 f   libucrtd:fopen.obj
 0001:0006a300       ?is_in_use@__crt_stdio_stream@@QBE_NXZ 1006b300 f i libucrtd:fclose.obj
 0001:0006a340       __fclose_nolock            1006b340 f   libucrtd:fclose.obj
 0001:0006a480       _fclose                    1006b480 f   libucrtd:fclose.obj
 0001:0006a5d0       __fputc_nolock             1006b5d0 f   libucrtd:fputc.obj
 0001:0006a660       __fputchar                 1006b660 f   libucrtd:fputc.obj
 0001:0006a680       __putc_nolock              1006b680 f   libucrtd:fputc.obj
 0001:0006a6a0       _fputc                     1006b6a0 f   libucrtd:fputc.obj
 0001:0006a8e0       _putc                      1006b8e0 f   libucrtd:fputc.obj
 0001:0006a900       _putchar                   1006b900 f   libucrtd:fputc.obj
 0001:0006a970       __seh_filter_dll           1006b970 f   libucrtd:exception_filter.obj
 0001:0006a9a0       __seh_filter_exe           1006b9a0 f   libucrtd:exception_filter.obj
 0001:0006abb0       ??$?B$$A6GXPAXK0@Z@__crt_fast_encoded_nullptr_t@@QBEP6GXPAXK0@ZXZ 1006bbb0 f i libucrtd:exit.obj
 0001:0006ac90       ??$__crt_fast_decode_pointer@P6GXPAXK0@Z@@YAP6GXPAXK0@ZQ6GX0K0@Z@Z 1006bc90 f i libucrtd:exit.obj
 0001:0006acc0       ??$__crt_fast_encode_pointer@P6GXPAXK0@Z@@YAP6GXPAXK0@ZQ6GX0K0@Z@Z 1006bcc0 f i libucrtd:exit.obj
 0001:0006acf0       ??$__crt_get_proc_address@P6GXI@Z@@YAP6GXI@ZQAUHINSTANCE__@@QBD@Z 1006bcf0 f i libucrtd:exit.obj
 0001:0006ad80       ??0?$__crt_unique_handle_t@U__crt_hmodule_traits@@@@QAE@QAUHINSTANCE__@@@Z 1006bd80 f i libucrtd:exit.obj
 0001:0006ada0       ??1?$__crt_unique_handle_t@U__crt_hmodule_traits@@@@QAE@XZ 1006bda0 f i libucrtd:exit.obj
 0001:0006af60       ?__acrt_select_exit_lock@@YA?AW4__acrt_lock_id@@XZ 1006bf60 f i libucrtd:exit.obj
 0001:0006af70       ?__crt_fast_encode_pointer@@YA?AU__crt_fast_encoded_nullptr_t@@$$T@Z 1006bf70 f i libucrtd:exit.obj
 0001:0006afa0       ?close@?$__crt_unique_handle_t@U__crt_hmodule_traits@@@@QAEXXZ 1006bfa0 f i libucrtd:exit.obj
 0001:0006afe0       ?close@__crt_hmodule_traits@@SA_NPAUHINSTANCE__@@@Z 1006bfe0 f i libucrtd:exit.obj
 0001:0006b0d0       ?get@?$__crt_unique_handle_t@U__crt_hmodule_traits@@@@QBEPAUHINSTANCE__@@XZ 1006c0d0 f i libucrtd:exit.obj
 0001:0006b0f0       ?get_address_of@?$__crt_unique_handle_t@U__crt_hmodule_traits@@@@QAEPAPAUHINSTANCE__@@XZ 1006c0f0 f i libucrtd:exit.obj
 0001:0006b100       ?get_invalid_value@__crt_hmodule_traits@@SAPAUHINSTANCE__@@XZ 1006c100 f i libucrtd:exit.obj
 0001:0006b280       __Exit                     1006c280 f   libucrtd:exit.obj
 0001:0006b2a0       ___acrt_initialize_thread_local_exit_callback 1006c2a0 f   libucrtd:exit.obj
 0001:0006b2b0       __c_exit                   1006c2b0 f   libucrtd:exit.obj
 0001:0006b2d0       __cexit                    1006c2d0 f   libucrtd:exit.obj
 0001:0006b2f0       __exit                     1006c2f0 f   libucrtd:exit.obj
 0001:0006b310       __is_c_termination_complete 1006c310 f   libucrtd:exit.obj
 0001:0006b330       __register_thread_local_exe_atexit_callback 1006c330 f   libucrtd:exit.obj
 0001:0006b370       _exit                      1006c370 f   libucrtd:exit.obj
 0001:0006b390       _quick_exit                1006c390 f   libucrtd:exit.obj
 0001:0006b3b0       ??$?RE@__crt_internal_free_policy@@QBEXQBE@Z 1006c3b0 f i libucrtd:argv_parsing.obj
 0001:0006b3d0       ??$?RPAD@__crt_internal_free_policy@@QBEXQBQAD@Z 1006c3d0 f i libucrtd:argv_parsing.obj
 0001:0006b3f0       ??$?RPA_W@__crt_internal_free_policy@@QBEXQBQA_W@Z 1006c3f0 f i libucrtd:argv_parsing.obj
 0001:0006b950       ??$get_module_file_name@$$TAAY0BAF@DH@?$__crt_char_traits@D@@SAK$$QA$$TAAY0BAF@D$$QAH@Z 1006c950 f i libucrtd:argv_parsing.obj
 0001:0006b970       ??$get_module_file_name@$$TAAY0BAF@_WH@?$__crt_char_traits@_W@@SAK$$QA$$TAAY0BAF@_W$$QAH@Z 1006c970 f i libucrtd:argv_parsing.obj
 0001:0006c090       ??$set_program_name@PAD@?$__crt_char_traits@D@@SAX$$QAPAD@Z 1006d090 f i libucrtd:argv_parsing.obj
 0001:0006c0b0       ??$set_program_name@PA_W@?$__crt_char_traits@_W@@SAX$$QAPA_W@Z 1006d0b0 f i libucrtd:argv_parsing.obj
 0001:0006c110       ??0?$__crt_unique_heap_ptr@EU__crt_internal_free_policy@@@@QAE@QAE@Z 1006d110 f i libucrtd:argv_parsing.obj
 0001:0006c130       ??0?$__crt_unique_heap_ptr@PADU__crt_internal_free_policy@@@@QAE@QAPAD@Z 1006d130 f i libucrtd:argv_parsing.obj
 0001:0006c150       ??0?$__crt_unique_heap_ptr@PA_WU__crt_internal_free_policy@@@@QAE@QAPA_W@Z 1006d150 f i libucrtd:argv_parsing.obj
 0001:0006c170       ??1?$__crt_unique_heap_ptr@EU__crt_internal_free_policy@@@@QAE@XZ 1006d170 f i libucrtd:argv_parsing.obj
 0001:0006c190       ??1?$__crt_unique_heap_ptr@PADU__crt_internal_free_policy@@@@QAE@XZ 1006d190 f i libucrtd:argv_parsing.obj
 0001:0006c1b0       ??1?$__crt_unique_heap_ptr@PA_WU__crt_internal_free_policy@@@@QAE@XZ 1006d1b0 f i libucrtd:argv_parsing.obj
 0001:0006c1d0       ??B?$__crt_unique_heap_ptr@EU__crt_internal_free_policy@@@@QBE_NXZ 1006d1d0 f i libucrtd:argv_parsing.obj
 0001:0006c290       ?detach@?$__crt_unique_heap_ptr@EU__crt_internal_free_policy@@@@QAEPAEXZ 1006d290 f i libucrtd:argv_parsing.obj
 0001:0006c2c0       ?detach@?$__crt_unique_heap_ptr@PADU__crt_internal_free_policy@@@@QAEPAPADXZ 1006d2c0 f i libucrtd:argv_parsing.obj
 0001:0006c2f0       ?detach@?$__crt_unique_heap_ptr@PA_WU__crt_internal_free_policy@@@@QAEPAPA_WXZ 1006d2f0 f i libucrtd:argv_parsing.obj
 0001:0006c380       ?get@?$__crt_unique_heap_ptr@EU__crt_internal_free_policy@@@@QBEPAEXZ 1006d380 f i libucrtd:argv_parsing.obj
 0001:0006c3a0       ?get@?$__crt_unique_heap_ptr@PADU__crt_internal_free_policy@@@@QBEPAPADXZ 1006d3a0 f i libucrtd:argv_parsing.obj
 0001:0006c3c0       ?get@?$__crt_unique_heap_ptr@PA_WU__crt_internal_free_policy@@@@QBEPAPA_WXZ 1006d3c0 f i libucrtd:argv_parsing.obj
 0001:0006c3e0       ?get_address_of@?$__crt_unique_heap_ptr@PADU__crt_internal_free_policy@@@@QAEPAPAPADXZ 1006d3e0 f i libucrtd:argv_parsing.obj
 0001:0006c3f0       ?get_address_of@?$__crt_unique_heap_ptr@PA_WU__crt_internal_free_policy@@@@QAEPAPAPA_WXZ 1006d3f0 f i libucrtd:argv_parsing.obj
 0001:0006c440       ?is_valid@?$__crt_unique_heap_ptr@EU__crt_internal_free_policy@@@@QBE_NXZ 1006d440 f i libucrtd:argv_parsing.obj
 0001:0006c470       ?release@?$__crt_unique_heap_ptr@EU__crt_internal_free_policy@@@@QAEXXZ 1006d470 f i libucrtd:argv_parsing.obj
 0001:0006c4a0       ?release@?$__crt_unique_heap_ptr@PADU__crt_internal_free_policy@@@@QAEXXZ 1006d4a0 f i libucrtd:argv_parsing.obj
 0001:0006c4d0       ?release@?$__crt_unique_heap_ptr@PA_WU__crt_internal_free_policy@@@@QAEXXZ 1006d4d0 f i libucrtd:argv_parsing.obj
 0001:0006c540       ___acrt_allocate_buffer_for_argv 1006d540 f   libucrtd:argv_parsing.obj
 0001:0006c600       __configure_narrow_argv    1006d600 f   libucrtd:argv_parsing.obj
 0001:0006c620       __configure_wide_argv      1006d620 f   libucrtd:argv_parsing.obj
 0001:0006c640       __set_pgmptr               1006d640 f i libucrtd:argv_parsing.obj
 0001:0006c650       __set_wpgmptr              1006d650 f i libucrtd:argv_parsing.obj
 0001:0006c65f       ??$?R_W@__crt_internal_free_policy@@QBEXQB_W@Z 1006d65f f i libucrtd:environment_initialization.obj
 0001:0006cac8       ??$get_environment_from_os@$$V@?$__crt_char_traits@D@@SAPADXZ 1006dac8 f i libucrtd:environment_initialization.obj
 0001:0006cacd       ??$get_environment_from_os@$$V@?$__crt_char_traits@_W@@SAPA_WXZ 1006dacd f i libucrtd:environment_initialization.obj
 0001:0006cbf6       ??$set_variable_in_environment_nolock@PADH@?$__crt_char_traits@D@@SAH$$QAPAD$$QAH@Z 1006dbf6 f i libucrtd:environment_initialization.obj
 0001:0006cc0e       ??$set_variable_in_environment_nolock@PA_WH@?$__crt_char_traits@_W@@SAH$$QAPA_W$$QAH@Z 1006dc0e f i libucrtd:environment_initialization.obj
 0001:0006cc26       ??$tcscpy_s@PADABIAAPAD@?$__crt_char_traits@D@@SAH$$QAPADABIAAPAD@Z 1006dc26 f i libucrtd:environment_initialization.obj
 0001:0006cc44       ??$tcscpy_s@PA_WABIAAPA_W@?$__crt_char_traits@_W@@SAH$$QAPA_WABIAAPA_W@Z 1006dc44 f i libucrtd:environment_initialization.obj
 0001:0006cc62       ??$tcslen@AAPAD@?$__crt_char_traits@D@@SAIAAPAD@Z 1006dc62 f i libucrtd:environment_initialization.obj
 0001:0006cc7a       ??$tcslen@AAPA_W@?$__crt_char_traits@_W@@SAIAAPA_W@Z 1006dc7a f i libucrtd:environment_initialization.obj
 0001:0006cc98       ??$uninitialize@A6AXAAPAPAD@Z@?$dual_state_global@PAPAD@__crt_state_management@@QAEXA6AXAAPAPAD@Z@Z 1006dc98 f i libucrtd:environment_initialization.obj
 0001:0006ccc1       ??$uninitialize@A6AXAAPAPA_W@Z@?$dual_state_global@PAPA_W@__crt_state_management@@QAEXA6AXAAPAPA_W@Z@Z 1006dcc1 f i libucrtd:environment_initialization.obj
 0001:0006cd20       ??0?$__crt_unique_heap_ptr@_WU__crt_internal_free_policy@@@@QAE@QA_W@Z 1006dd20 f i libucrtd:environment_initialization.obj
 0001:0006cd30       ??1?$__crt_unique_heap_ptr@_WU__crt_internal_free_policy@@@@QAE@XZ 1006dd30 f i libucrtd:environment_initialization.obj
 0001:0006cd45       ??B?$__crt_unique_heap_ptr@PADU__crt_internal_free_policy@@@@QBE_NXZ 1006dd45 f i libucrtd:environment_initialization.obj
 0001:0006cd4c       ??B?$__crt_unique_heap_ptr@PA_WU__crt_internal_free_policy@@@@QBE_NXZ 1006dd4c f i libucrtd:environment_initialization.obj
 0001:0006cd53       ??B?$__crt_unique_heap_ptr@_WU__crt_internal_free_policy@@@@QBE_NXZ 1006dd53 f i libucrtd:environment_initialization.obj
 0001:0006cd5a       ?__crt_compute_required_transform_buffer_count@@YAIIQBD@Z 1006dd5a f i libucrtd:environment_initialization.obj
 0001:0006cd76       ?__crt_compute_required_transform_buffer_count@@YAIIQB_W@Z 1006dd76 f i libucrtd:environment_initialization.obj
 0001:0006cd94       ?__crt_transform_string@@YAIIQBDQA_WI@Z 1006dd94 f i libucrtd:environment_initialization.obj
 0001:0006cdb3       ?__crt_transform_string@@YAIIQB_WQADI@Z 1006ddb3 f i libucrtd:environment_initialization.obj
 0001:0006cdd5       ?detach@?$__crt_unique_heap_ptr@DU__crt_internal_free_policy@@@@QAEPADXZ 1006ddd5 f i libucrtd:environment_initialization.obj
 0001:0006cddb       ?detach@?$__crt_unique_heap_ptr@_WU__crt_internal_free_policy@@@@QAEPA_WXZ 1006dddb f i libucrtd:environment_initialization.obj
 0001:0006cde1       ?get@?$__crt_unique_heap_ptr@_WU__crt_internal_free_policy@@@@QBEPA_WXZ 1006dde1 f i libucrtd:environment_initialization.obj
 0001:0006ce08       ?initialize@?$dual_state_global@PAPAD@__crt_state_management@@QAEXQAPAD@Z 1006de08 f i libucrtd:environment_initialization.obj
 0001:0006ce2e       ?initialize@?$dual_state_global@PAPA_W@__crt_state_management@@QAEXQAPA_W@Z 1006de2e f i libucrtd:environment_initialization.obj
 0001:0006ce54       ?is_valid@?$__crt_unique_heap_ptr@PADU__crt_internal_free_policy@@@@QBE_NXZ 1006de54 f i libucrtd:environment_initialization.obj
 0001:0006ce5b       ?is_valid@?$__crt_unique_heap_ptr@PA_WU__crt_internal_free_policy@@@@QBE_NXZ 1006de5b f i libucrtd:environment_initialization.obj
 0001:0006ce62       ?is_valid@?$__crt_unique_heap_ptr@_WU__crt_internal_free_policy@@@@QBE_NXZ 1006de62 f i libucrtd:environment_initialization.obj
 0001:0006ce71       ?release@?$__crt_unique_heap_ptr@_WU__crt_internal_free_policy@@@@QAEXXZ 1006de71 f i libucrtd:environment_initialization.obj
 0001:0006ce86       ?value@?$dual_state_global@PAPAD@__crt_state_management@@QAEAAPAPADXZ 1006de86 f i libucrtd:environment_initialization.obj
 0001:0006ce89       ?value@?$dual_state_global@PAPA_W@__crt_state_management@@QAEAAPAPA_WXZ 1006de89 f i libucrtd:environment_initialization.obj
 0001:0006ce8c       ___dcrt_get_or_create_narrow_environment_nolock 1006de8c f   libucrtd:environment_initialization.obj
 0001:0006ce91       ___dcrt_get_or_create_wide_environment_nolock 1006de91 f   libucrtd:environment_initialization.obj
 0001:0006ce96       ___dcrt_uninitialize_environments_nolock 1006de96 f   libucrtd:environment_initialization.obj
 0001:0006cecd       ___p__environ              1006decd f   libucrtd:environment_initialization.obj
 0001:0006ced3       ___p__wenviron             1006ded3 f   libucrtd:environment_initialization.obj
 0001:0006ced9       __get_initial_narrow_environment 1006ded9 f   libucrtd:environment_initialization.obj
 0001:0006ceed       __get_initial_wide_environment 1006deed f   libucrtd:environment_initialization.obj
 0001:0006cf01       __initialize_narrow_environment 1006df01 f   libucrtd:environment_initialization.obj
 0001:0006cf06       __initialize_wide_environment 1006df06 f   libucrtd:environment_initialization.obj
 0001:0006cf10       ??$?B$$A6AXXZ@__crt_fast_encoded_nullptr_t@@QBEP6AXXZXZ 1006df10 f i libucrtd:onexit.obj
 0001:0006cf30       ??$?BP6AXXZ@__crt_fast_encoded_nullptr_t@@QBEPAP6AXXZXZ 1006df30 f i libucrtd:onexit.obj
 0001:0006cf50       ??$?RP6AXXZ@__crt_internal_free_policy@@QBEXQBQ6AXXZ@Z 1006df50 f i libucrtd:onexit.obj
 0001:0006d110       ??$__crt_fast_decode_pointer@P6AXXZ@@YAP6AXXZQ6AXXZ@Z 1006e110 f i libucrtd:onexit.obj
 0001:0006d140       ??$__crt_fast_decode_pointer@PAP6AXXZ@@YAPAP6AXXZQAP6AXXZ@Z 1006e140 f i libucrtd:onexit.obj
 0001:0006d170       ??$__crt_fast_encode_pointer@P6AHXZ@@YAP6AHXZQ6AHXZ@Z 1006e170 f i libucrtd:onexit.obj
 0001:0006d1a0       ??$__crt_fast_encode_pointer@P6AXXZ@@YAP6AXXZQ6AXXZ@Z 1006e1a0 f i libucrtd:onexit.obj
 0001:0006d1d0       ??$__crt_fast_encode_pointer@PAP6AXXZ@@YAPAP6AXXZQAP6AXXZ@Z 1006e1d0 f i libucrtd:onexit.obj
 0001:0006d2d0       ??0?$__crt_unique_heap_ptr@P6AXXZU__crt_internal_free_policy@@@@QAE@QAP6AXXZ@Z 1006e2d0 f i libucrtd:onexit.obj
 0001:0006d2f0       ??1?$__crt_unique_heap_ptr@P6AXXZU__crt_internal_free_policy@@@@QAE@XZ 1006e2f0 f i libucrtd:onexit.obj
 0001:0006d310       ??1scoped_global_state_reset@__crt_state_management@@QAE@XZ 1006e310 f i libucrtd:onexit.obj
 0001:0006d780       ?detach@?$__crt_unique_heap_ptr@P6AXXZU__crt_internal_free_policy@@@@QAEPAP6AXXZXZ 1006e780 f i libucrtd:onexit.obj
 0001:0006d7b0       ?release@?$__crt_unique_heap_ptr@P6AXXZU__crt_internal_free_policy@@@@QAEXXZ 1006e7b0 f i libucrtd:onexit.obj
 0001:0006d7e0       __crt_at_quick_exit        1006e7e0 f   libucrtd:onexit.obj
 0001:0006d800       __crt_atexit               1006e800 f   libucrtd:onexit.obj
 0001:0006d820       __execute_onexit_table     1006e820 f   libucrtd:onexit.obj
 0001:0006d850       __initialize_onexit_table  1006e850 f   libucrtd:onexit.obj
 0001:0006d8b0       __register_onexit_function 1006e8b0 f   libucrtd:onexit.obj
 0001:0006daf0       ??$?BX@__crt_fast_encoded_nullptr_t@@QBEPAXXZ 1006eaf0 f i libucrtd:initialization.obj
 0001:0006db10       ??$__crt_fast_encode_pointer@PAX@@YAPAXQAX@Z 1006eb10 f i libucrtd:initialization.obj
 0001:0006dbd0       ?initialize@?$dual_state_global@PAU__crt_locale_data@@@__crt_state_management@@QAEXQAU__crt_locale_data@@@Z 1006ebd0 f i libucrtd:initialization.obj
 0001:0006dc10       ___acrt_initialize         1006ec10 f   libucrtd:initialization.obj
 0001:0006dc30       ___acrt_thread_attach      1006ec30 f   libucrtd:initialization.obj
 0001:0006dc50       ___acrt_thread_detach      1006ec50 f   libucrtd:initialization.obj
 0001:0006dc60       ___acrt_uninitialize       1006ec60 f   libucrtd:initialization.obj
 0001:0006dc80       ___acrt_uninitialize_critical 1006ec80 f   libucrtd:initialization.obj
 0001:0006f4f0       __CrtCheckMemory           100704f0 f   libucrtd:debug_heap.obj
 0001:0006f680       __CrtDoForAllClientObjects 10070680 f   libucrtd:debug_heap.obj
 0001:0006f7d0       __CrtDumpMemoryLeaks       100707d0 f   libucrtd:debug_heap.obj
 0001:0006f870       __CrtGetAllocHook          10070870 f   libucrtd:debug_heap.obj
 0001:0006f880       __CrtGetDumpClient         10070880 f   libucrtd:debug_heap.obj
 0001:0006f890       __CrtIsMemoryBlock         10070890 f   libucrtd:debug_heap.obj
 0001:0006f9e0       __CrtIsValidHeapPointer    100709e0 f   libucrtd:debug_heap.obj
 0001:0006fa10       __CrtIsValidPointer        10070a10 f   libucrtd:debug_heap.obj
 0001:0006fa40       __CrtMemCheckpoint         10070a40 f   libucrtd:debug_heap.obj
 0001:0006fc70       __CrtMemDifference         10070c70 f   libucrtd:debug_heap.obj
 0001:0006fee0       __CrtMemDumpAllObjectsSince 10070ee0 f   libucrtd:debug_heap.obj
 0001:0006ff80       __CrtMemDumpStatistics     10070f80 f   libucrtd:debug_heap.obj
 0001:000700b0       __CrtReportBlockType       100710b0 f   libucrtd:debug_heap.obj
 0001:000700e0       __CrtSetAllocHook          100710e0 f   libucrtd:debug_heap.obj
 0001:00070100       __CrtSetBreakAlloc         10071100 f   libucrtd:debug_heap.obj
 0001:00070120       __CrtSetDbgBlockType       10071120 f   libucrtd:debug_heap.obj
 0001:00070200       __CrtSetDbgFlag            10071200 f   libucrtd:debug_heap.obj
 0001:00070370       __CrtSetDumpClient         10071370 f   libucrtd:debug_heap.obj
 0001:00070390       ___p__crtBreakAlloc        10071390 f   libucrtd:debug_heap.obj
 0001:000703a0       ___p__crtDbgFlag           100713a0 f   libucrtd:debug_heap.obj
 0001:000703b0       __aligned_free_dbg         100713b0 f   libucrtd:debug_heap.obj
 0001:00070460       __aligned_malloc_dbg       10071460 f   libucrtd:debug_heap.obj
 0001:00070490       __aligned_msize_dbg        10071490 f   libucrtd:debug_heap.obj
 0001:000705c0       __aligned_offset_malloc_dbg 100715c0 f   libucrtd:debug_heap.obj
 0001:000707a0       __aligned_offset_realloc_dbg 100717a0 f   libucrtd:debug_heap.obj
 0001:00070ab0       __aligned_offset_recalloc_dbg 10071ab0 f   libucrtd:debug_heap.obj
 0001:00070b70       __aligned_realloc_dbg      10071b70 f   libucrtd:debug_heap.obj
 0001:00070ba0       __aligned_recalloc_dbg     10071ba0 f   libucrtd:debug_heap.obj
 0001:00070bd0       __calloc_dbg               10071bd0 f   libucrtd:debug_heap.obj
 0001:00070c40       __expand_dbg               10071c40 f   libucrtd:debug_heap.obj
 0001:00070d70       __free_dbg                 10071d70 f   libucrtd:debug_heap.obj
 0001:00070e20       __malloc_dbg               10071e20 f   libucrtd:debug_heap.obj
 0001:00070e40       __msize_dbg                10071e40 f   libucrtd:debug_heap.obj
 0001:00070fd0       __realloc_dbg              10071fd0 f   libucrtd:debug_heap.obj
 0001:00071070       __recalloc_dbg             10072070 f   libucrtd:debug_heap.obj
 0001:00071120       __initterm                 10072120 f   libucrtd:initterm.obj
 0001:00071170       __initterm_e               10072170 f   libucrtd:initterm.obj
 0001:000714e0       _strcpy_s                  100724e0 f   libucrtd:strcpy_s.obj
 0001:00071910       _strcat_s                  10072910 f   libucrtd:strcat_s.obj
 0001:00071930       ??$?B$$A6AHI@Z@__crt_fast_encoded_nullptr_t@@QBEP6AHI@ZXZ 10072930 f i libucrtd:new_handler.obj
 0001:00071950       ??$__crt_fast_decode_pointer@P6AHI@Z@@YAP6AHI@ZQ6AHI@Z@Z 10072950 f i libucrtd:new_handler.obj
 0001:00071980       ??$__crt_fast_encode_pointer@P6AHI@Z@@YAP6AHI@ZQ6AHI@Z@Z 10072980 f i libucrtd:new_handler.obj
 0001:000719b0       ?_set_new_handler@@YAP6AHI@ZH@Z 100729b0 f   libucrtd:new_handler.obj
 0001:00071a10       ?initialize@?$dual_state_global@P6AHI@Z@__crt_state_management@@QAEXQ6AHI@Z@Z 10072a10 f i libucrtd:new_handler.obj
 0001:00071a50       ?value@?$dual_state_global@P6AHI@Z@__crt_state_management@@QAEAAP6AHI@ZXZ 10072a50 f i libucrtd:new_handler.obj
 0001:00071a70       ___acrt_initialize_new_handler 10072a70 f   libucrtd:new_handler.obj
 0001:00071a90       __callnewh                 10072a90 f   libucrtd:new_handler.obj
 0001:00071ad0       __query_new_handler        10072ad0 f   libucrtd:new_handler.obj
 0001:00071b60       __set_new_handler          10072b60 f   libucrtd:new_handler.obj
 0001:00071c40       __get_terminate            10072c40 f   libucrtd:terminate.obj
 0001:00071c60       _set_terminate             10072c60 f   libucrtd:terminate.obj
 0001:00071c90       _terminate                 10072c90 f   libucrtd:terminate.obj
 0001:00072660       __makepath                 10073660 f   libucrtd:makepath.obj
 0001:00072690       __makepath_s               10073690 f   libucrtd:makepath.obj
 0001:000726c0       __wmakepath                100736c0 f   libucrtd:makepath.obj
 0001:000726f0       __wmakepath_s              100736f0 f   libucrtd:makepath.obj
 0001:00074040       ??$tcsncpy_s@AAPADIAAPBDABI@?$__crt_char_traits@D@@SAHAAPAD$$QAIAAPBDABI@Z 10075040 f i libucrtd:splitpath.obj
 0001:00074070       ??$tcsncpy_s@AAPADIAAPBDH@?$__crt_char_traits@D@@SAHAAPAD$$QAIAAPBD$$QAH@Z 10075070 f i libucrtd:splitpath.obj
 0001:000740a0       ??$tcsncpy_s@AAPA_WIAAPB_WABI@?$__crt_char_traits@_W@@SAHAAPA_W$$QAIAAPB_WABI@Z 100750a0 f i libucrtd:splitpath.obj
 0001:000740d0       ??$tcsncpy_s@AAPA_WIAAPB_WH@?$__crt_char_traits@_W@@SAHAAPA_W$$QAIAAPB_W$$QAH@Z 100750d0 f i libucrtd:splitpath.obj
 0001:00074310       __splitpath                10075310 f   libucrtd:splitpath.obj
 0001:00074340       __splitpath_s              10075340 f   libucrtd:splitpath.obj
 0001:00074390       __wsplitpath               10075390 f   libucrtd:splitpath.obj
 0001:000743c0       __wsplitpath_s             100753c0 f   libucrtd:splitpath.obj
 0001:00074410       __set_abort_behavior       10075410 f   libucrtd:abort.obj
 0001:00074440       _abort                     10075440 f   libucrtd:abort.obj
 0001:000744b0       _strcmp                    100754b0 f   libucrtd:strcmp.obj
 0001:00074540       _strlen                    10075540 f   libucrtd:strlen.obj
 0001:000745d0       ??$is_overflow_condition@K@__crt_strtox@@YA_NIK@Z 100755d0 f i libucrtd:atox.obj
 0001:00074630       ??$is_overflow_condition@_K@__crt_strtox@@YA_NI_K@Z 10075630 f i libucrtd:atox.obj
 0001:000746c0       ??$make_c_string_character_source@D$$T@__crt_strtox@@YA?AV?$c_string_character_source@D@0@QBD$$T@Z 100756c0 f i libucrtd:atox.obj
 0001:000746e0       ??$make_c_string_character_source@_W$$T@__crt_strtox@@YA?AV?$c_string_character_source@_W@0@QB_W$$T@Z 100756e0 f i libucrtd:atox.obj
 0001:00074700       ??$parse_integer@KV?$c_string_character_source@D@__crt_strtox@@@__crt_strtox@@YAKQAU__crt_locale_pointers@@V?$c_string_character_source@D@0@H_N@Z 10075700 f i libucrtd:atox.obj
 0001:00074a70       ??$parse_integer@KV?$c_string_character_source@_W@__crt_strtox@@@__crt_strtox@@YAKQAU__crt_locale_pointers@@V?$c_string_character_source@_W@0@H_N@Z 10075a70 f i libucrtd:atox.obj
 0001:00074de0       ??$parse_integer@_KV?$c_string_character_source@D@__crt_strtox@@@__crt_strtox@@YA_KQAU__crt_locale_pointers@@V?$c_string_character_source@D@0@H_N@Z 10075de0 f i libucrtd:atox.obj
 0001:00075200       ??$parse_integer@_KV?$c_string_character_source@_W@__crt_strtox@@@__crt_strtox@@YA_KQAU__crt_locale_pointers@@V?$c_string_character_source@_W@0@H_N@Z 10076200 f i libucrtd:atox.obj
 0001:00075630       ??$parse_integer_from_string@JD$$T@__crt_strtox@@YAJQBD$$THQAU__crt_locale_pointers@@@Z 10076630 f i libucrtd:atox.obj
 0001:00075670       ??$parse_integer_from_string@J_W$$T@__crt_strtox@@YAJQB_W$$THQAU__crt_locale_pointers@@@Z 10076670 f i libucrtd:atox.obj
 0001:000756b0       ??$parse_integer_from_string@_JD$$T@__crt_strtox@@YA_JQBD$$THQAU__crt_locale_pointers@@@Z 100766b0 f i libucrtd:atox.obj
 0001:000756f0       ??$parse_integer_from_string@_J_W$$T@__crt_strtox@@YA_JQB_W$$THQAU__crt_locale_pointers@@@Z 100766f0 f i libucrtd:atox.obj
 0001:00075730       ??0?$c_string_character_source@D@__crt_strtox@@QAE@QBDQAPBD@Z 10076730 f i libucrtd:atox.obj
 0001:00075770       ??0?$c_string_character_source@_W@__crt_strtox@@QAE@QB_WQAPB_W@Z 10076770 f i libucrtd:atox.obj
 0001:000757b0       ??1?$c_string_character_source@D@__crt_strtox@@QAE@XZ 100767b0 f i libucrtd:atox.obj
 0001:000757e0       ??1?$c_string_character_source@_W@__crt_strtox@@QAE@XZ 100767e0 f i libucrtd:atox.obj
 0001:00075810       ?get@?$c_string_character_source@D@__crt_strtox@@QAEDXZ 10076810 f i libucrtd:atox.obj
 0001:00075840       ?get@?$c_string_character_source@_W@__crt_strtox@@QAE_WXZ 10076840 f i libucrtd:atox.obj
 0001:00075870       ?is_space@__crt_strtox@@YA_NDQAU__crt_locale_pointers@@@Z 10076870 f i libucrtd:atox.obj
 0001:000758b0       ?is_space@__crt_strtox@@YA_N_WPAU__crt_locale_pointers@@@Z 100768b0 f i libucrtd:atox.obj
 0001:000758e0       ?maximum_signed_value@__crt_strtox@@YAJK@Z 100768e0 f i libucrtd:atox.obj
 0001:000758f0       ?maximum_signed_value@__crt_strtox@@YA_J_K@Z 100768f0 f i libucrtd:atox.obj
 0001:00075900       ?minimum_signed_value@__crt_strtox@@YAJK@Z 10076900 f i libucrtd:atox.obj
 0001:00075910       ?minimum_signed_value@__crt_strtox@@YA_J_K@Z 10076910 f i libucrtd:atox.obj
 0001:00075920       ?parse_digit@__crt_strtox@@YAID@Z 10076920 f i libucrtd:atox.obj
 0001:00075980       ?parse_digit@__crt_strtox@@YAI_W@Z 10076980 f i libucrtd:atox.obj
 0001:000759d0       ?restore_state@?$c_string_character_source@D@__crt_strtox@@QAE_NQBD@Z 100769d0 f i libucrtd:atox.obj
 0001:000759f0       ?restore_state@?$c_string_character_source@_W@__crt_strtox@@QAE_NQB_W@Z 100769f0 f i libucrtd:atox.obj
 0001:00075a10       ?save_state@?$c_string_character_source@D@__crt_strtox@@QBEPBDXZ 10076a10 f i libucrtd:atox.obj
 0001:00075a30       ?save_state@?$c_string_character_source@_W@__crt_strtox@@QBEPB_WXZ 10076a30 f i libucrtd:atox.obj
 0001:00075a50       ?unget@?$c_string_character_source@D@__crt_strtox@@QAEXD@Z 10076a50 f i libucrtd:atox.obj
 0001:00075b00       ?unget@?$c_string_character_source@_W@__crt_strtox@@QAEX_W@Z 10076b00 f i libucrtd:atox.obj
 0001:00075bb0       ?validate@?$c_string_character_source@D@__crt_strtox@@QBE_NXZ 10076bb0 f i libucrtd:atox.obj
 0001:00075c40       ?validate@?$c_string_character_source@_W@__crt_strtox@@QBE_NXZ 10076c40 f i libucrtd:atox.obj
 0001:00075cd0       ?wide_character_to_digit@__crt_strtox@@YAH_W@Z 10076cd0 f i libucrtd:atox.obj
 0001:00076000       ___ascii_iswalpha          10077000 f i libucrtd:atox.obj
 0001:00076040       ___ascii_toupper           10077040 f i libucrtd:atox.obj
 0001:00076060       ___ascii_towupper          10077060 f i libucrtd:atox.obj
 0001:00076080       __atoi64                   10077080 f   libucrtd:atox.obj
 0001:000760a0       __atoi64_l                 100770a0 f   libucrtd:atox.obj
 0001:000760c0       __atoi_l                   100770c0 f   libucrtd:atox.obj
 0001:000760e0       __atol_l                   100770e0 f   libucrtd:atox.obj
 0001:00076100       __atoll_l                  10077100 f   libucrtd:atox.obj
 0001:00076120       __wtoi                     10077120 f   libucrtd:atox.obj
 0001:00076140       __wtoi64                   10077140 f   libucrtd:atox.obj
 0001:00076160       __wtoi64_l                 10077160 f   libucrtd:atox.obj
 0001:00076180       __wtoi_l                   10077180 f   libucrtd:atox.obj
 0001:000761a0       __wtol                     100771a0 f   libucrtd:atox.obj
 0001:000761c0       __wtol_l                   100771c0 f   libucrtd:atox.obj
 0001:000761e0       __wtoll                    100771e0 f   libucrtd:atox.obj
 0001:00076200       __wtoll_l                  10077200 f   libucrtd:atox.obj
 0001:00076220       _atoi                      10077220 f   libucrtd:atox.obj
 0001:00076240       _atol                      10077240 f   libucrtd:atox.obj
 0001:00076260       _atoll                     10077260 f   libucrtd:atox.obj
 0001:00076280       _strncmp                   10077280 f   libucrtd:strncmp.obj
 0001:00076300       _wcsncmp                   10077300 f   libucrtd:wcsncmp.obj
 0001:00076360       __CrtGetDebugFillThreshold 10077360 f   libucrtd:debug_fill_threshold.obj
 0001:00076370       __CrtSetDebugFillThreshold 10077370 f   libucrtd:debug_fill_threshold.obj
 0001:00076390       ??$make_c_string_character_source@DPAPAD@__crt_strtox@@YA?AV?$c_string_character_source@D@0@QBDQAPAD@Z 10077390 f i libucrtd:strtox.obj
 0001:000763b0       ??$make_c_string_character_source@_WPAPA_W@__crt_strtox@@YA?AV?$c_string_character_source@_W@0@QB_WQAPA_W@Z 100773b0 f i libucrtd:strtox.obj
 0001:000763d0       ??$parse_integer_from_string@JDPAPAD@__crt_strtox@@YAJQBDQAPADHQAU__crt_locale_pointers@@@Z 100773d0 f i libucrtd:strtox.obj
 0001:00076410       ??$parse_integer_from_string@J_WPAPA_W@__crt_strtox@@YAJQB_WQAPA_WHQAU__crt_locale_pointers@@@Z 10077410 f i libucrtd:strtox.obj
 0001:00076450       ??$parse_integer_from_string@KDPAPAD@__crt_strtox@@YAKQBDQAPADHQAU__crt_locale_pointers@@@Z 10077450 f i libucrtd:strtox.obj
 0001:00076490       ??$parse_integer_from_string@K_WPAPA_W@__crt_strtox@@YAKQB_WQAPA_WHQAU__crt_locale_pointers@@@Z 10077490 f i libucrtd:strtox.obj
 0001:000764d0       ??$parse_integer_from_string@_JDPAPAD@__crt_strtox@@YA_JQBDQAPADHQAU__crt_locale_pointers@@@Z 100774d0 f i libucrtd:strtox.obj
 0001:00076510       ??$parse_integer_from_string@_J_WPAPA_W@__crt_strtox@@YA_JQB_WQAPA_WHQAU__crt_locale_pointers@@@Z 10077510 f i libucrtd:strtox.obj
 0001:00076550       ??$parse_integer_from_string@_KDPAPAD@__crt_strtox@@YA_KQBDQAPADHQAU__crt_locale_pointers@@@Z 10077550 f i libucrtd:strtox.obj
 0001:00076590       ??$parse_integer_from_string@_K_WPAPA_W@__crt_strtox@@YA_KQB_WQAPA_WHQAU__crt_locale_pointers@@@Z 10077590 f i libucrtd:strtox.obj
 0001:000765d0       __strtoi64                 100775d0 f   libucrtd:strtox.obj
 0001:000765f0       __strtoi64_l               100775f0 f   libucrtd:strtox.obj
 0001:00076610       __strtoimax_l              10077610 f   libucrtd:strtox.obj
 0001:00076630       __strtol_l                 10077630 f   libucrtd:strtox.obj
 0001:00076650       __strtoll_l                10077650 f   libucrtd:strtox.obj
 0001:00076670       __strtoui64                10077670 f   libucrtd:strtox.obj
 0001:00076690       __strtoui64_l              10077690 f   libucrtd:strtox.obj
 0001:000766b0       __strtoul_l                100776b0 f   libucrtd:strtox.obj
 0001:000766d0       __strtoull_l               100776d0 f   libucrtd:strtox.obj
 0001:000766f0       __strtoumax_l              100776f0 f   libucrtd:strtox.obj
 0001:00076710       __wcstoi64                 10077710 f   libucrtd:strtox.obj
 0001:00076730       __wcstoi64_l               10077730 f   libucrtd:strtox.obj
 0001:00076750       __wcstoimax_l              10077750 f   libucrtd:strtox.obj
 0001:00076770       __wcstol_l                 10077770 f   libucrtd:strtox.obj
 0001:00076790       __wcstoll_l                10077790 f   libucrtd:strtox.obj
 0001:000767b0       __wcstoui64                100777b0 f   libucrtd:strtox.obj
 0001:000767d0       __wcstoui64_l              100777d0 f   libucrtd:strtox.obj
 0001:000767f0       __wcstoul_l                100777f0 f   libucrtd:strtox.obj
 0001:00076810       __wcstoull_l               10077810 f   libucrtd:strtox.obj
 0001:00076830       __wcstoumax_l              10077830 f   libucrtd:strtox.obj
 0001:00076850       _strtoimax                 10077850 f   libucrtd:strtox.obj
 0001:00076870       _strtol                    10077870 f   libucrtd:strtox.obj
 0001:00076890       _strtoll                   10077890 f   libucrtd:strtox.obj
 0001:000768b0       _strtoul                   100778b0 f   libucrtd:strtox.obj
 0001:000768d0       _strtoull                  100778d0 f   libucrtd:strtox.obj
 0001:000768f0       _strtoumax                 100778f0 f   libucrtd:strtox.obj
 0001:00076910       _wcstoimax                 10077910 f   libucrtd:strtox.obj
 0001:00076930       _wcstol                    10077930 f   libucrtd:strtox.obj
 0001:00076950       _wcstoll                   10077950 f   libucrtd:strtox.obj
 0001:00076970       _wcstoul                   10077970 f   libucrtd:strtox.obj
 0001:00076990       _wcstoull                  10077990 f   libucrtd:strtox.obj
 0001:000769b0       _wcstoumax                 100779b0 f   libucrtd:strtox.obj
 0001:000769d0       __mbtowc_l                 100779d0 f   libucrtd:mbtowc.obj
 0001:00076cf0       _mbtowc                    10077cf0 f   libucrtd:mbtowc.obj
 0001:00076d10       __wctomb_l                 10077d10 f   libucrtd:wctomb.obj
 0001:00076d90       __wctomb_s_l               10077d90 f   libucrtd:wctomb.obj
 0001:00077150       _wctomb                    10078150 f   libucrtd:wctomb.obj
 0001:000771a0       _wctomb_s                  100781a0 f   libucrtd:wctomb.obj
 0001:000771d0       ??$?RU__acrt_ptd@@@__crt_internal_free_policy@@QBEXQBU__acrt_ptd@@@Z 100781d0 f i libucrtd:per_thread_data.obj
 0001:00077680       ??0?$__crt_unique_heap_ptr@U__acrt_ptd@@U__crt_internal_free_policy@@@@QAE@QAU__acrt_ptd@@@Z 10078680 f i libucrtd:per_thread_data.obj
 0001:000776a0       ??0__crt_scoped_get_last_error_reset@@QAE@XZ 100786a0 f i libucrtd:per_thread_data.obj
 0001:000776c0       ??1?$__crt_unique_heap_ptr@U__acrt_ptd@@U__crt_internal_free_policy@@@@QAE@XZ 100786c0 f i libucrtd:per_thread_data.obj
 0001:000776e0       ??1__crt_scoped_get_last_error_reset@@QAE@XZ 100786e0 f i libucrtd:per_thread_data.obj
 0001:00077700       ??B?$__crt_unique_heap_ptr@U__acrt_ptd@@U__crt_internal_free_policy@@@@QBE_NXZ 10078700 f i libucrtd:per_thread_data.obj
 0001:000779e0       ?dangerous_get_state_array@?$dual_state_global@PAU__crt_locale_data@@@__crt_state_management@@QAEPAPAU__crt_locale_data@@XZ 100789e0 f i libucrtd:per_thread_data.obj
 0001:00077b60       ?detach@?$__crt_unique_heap_ptr@U__acrt_ptd@@U__crt_internal_free_policy@@@@QAEPAU__acrt_ptd@@XZ 10078b60 f i libucrtd:per_thread_data.obj
 0001:00077b90       ?get@?$__crt_unique_heap_ptr@U__acrt_ptd@@U__crt_internal_free_policy@@@@QBEPAU__acrt_ptd@@XZ 10078b90 f i libucrtd:per_thread_data.obj
 0001:00077bb0       ?get_current_state_index@__crt_state_management@@YAIABV__crt_scoped_get_last_error_reset@@@Z 10078bb0 f i libucrtd:per_thread_data.obj
 0001:00077d20       ?is_valid@?$__crt_unique_heap_ptr@U__acrt_ptd@@U__crt_internal_free_policy@@@@QBE_NXZ 10078d20 f i libucrtd:per_thread_data.obj
 0001:00077d50       ?release@?$__crt_unique_heap_ptr@U__acrt_ptd@@U__crt_internal_free_policy@@@@QAEXXZ 10078d50 f i libucrtd:per_thread_data.obj
 0001:00077e40       ?value@?$dual_state_global@PAU__crt_locale_data@@@__crt_state_management@@QAEAAPAU__crt_locale_data@@XZ 10078e40 f i libucrtd:per_thread_data.obj
 0001:00077e60       ___acrt_freeptd            10078e60 f   libucrtd:per_thread_data.obj
 0001:00077e90       ___acrt_getptd             10078e90 f   libucrtd:per_thread_data.obj
 0001:00077eb0       ___acrt_getptd_head        10078eb0 f   libucrtd:per_thread_data.obj
 0001:00077ed0       ___acrt_getptd_noexit      10078ed0 f   libucrtd:per_thread_data.obj
 0001:00077ee0       ___acrt_initialize_ptd     10078ee0 f   libucrtd:per_thread_data.obj
 0001:00077f20       ___acrt_uninitialize_ptd   10078f20 f   libucrtd:per_thread_data.obj
 0001:00077f50       ___threadhandle            10078f50 f   libucrtd:per_thread_data.obj
 0001:00077f60       ___threadid                10078f60 f   libucrtd:per_thread_data.obj
 0001:00077f70       ?value@?$dual_state_global@PAU__crt_multibyte_data@@@__crt_state_management@@QAEAAPAU__crt_multibyte_data@@XZ 10078f70 f i libucrtd:locale_update.obj
 0001:00077f90       ___acrt_update_locale_info 10078f90 f   libucrtd:locale_update.obj
 0001:00077fd0       ___acrt_update_multibyte_info 10078fd0 f   libucrtd:locale_update.obj
 0001:00078010       ?__acrt_fp_classify@@YA?AW4__acrt_fp_class@@ABN@Z 10079010 f i libucrtd:cvt.obj
 0001:00078130       ?__acrt_fp_is_negative@@YA_NABN@Z 10079130 f i libucrtd:cvt.obj
 0001:00079180       ?strrchr@@YAPADQADH@Z      1007a180 f i libucrtd:cvt.obj
 0001:000791a0       ___acrt_fp_format          1007a1a0 f   libucrtd:cvt.obj
 0001:00079630       __fputwc_nolock            1007a630 f   libucrtd:fputwc.obj
 0001:00079820       __fputwchar                1007a820 f   libucrtd:fputwc.obj
 0001:00079840       __putwc_nolock             1007a840 f   libucrtd:fputwc.obj
 0001:00079860       _fputwc                    1007a860 f   libucrtd:fputwc.obj
 0001:00079970       _putwc                     1007a970 f   libucrtd:fputwc.obj
 0001:00079990       _putwchar                  1007a990 f   libucrtd:fputwc.obj
 0001:000799b0       ?lowio_handle@__crt_stdio_stream@@QBEHXZ 1007a9b0 f i libucrtd:fileno.obj
 0001:000799d0       __fileno                   1007a9d0 f   libucrtd:fileno.obj
 0001:00079a70       ??$?RPAU__crt_stdio_stream_data@@@__crt_internal_free_policy@@QBEXQBQAU__crt_stdio_stream_data@@@Z 1007aa70 f i libucrtd:_file.obj
 0001:00079a90       ??0?$__crt_unique_heap_ptr@PAU__crt_stdio_stream_data@@U__crt_internal_free_policy@@@@QAE@QAPAU__crt_stdio_stream_data@@@Z 1007aa90 f i libucrtd:_file.obj
 0001:00079ab0       ??1?$__crt_unique_heap_ptr@PAU__crt_stdio_stream_data@@U__crt_internal_free_policy@@@@QAE@XZ 1007aab0 f i libucrtd:_file.obj
 0001:00079ad0       ?detach@?$__crt_unique_heap_ptr@PAU__crt_stdio_stream_data@@U__crt_internal_free_policy@@@@QAEPAPAU__crt_stdio_stream_data@@XZ 1007aad0 f i libucrtd:_file.obj
 0001:00079b00       ?release@?$__crt_unique_heap_ptr@PAU__crt_stdio_stream_data@@U__crt_internal_free_policy@@@@QAEXXZ 1007ab00 f i libucrtd:_file.obj
 0001:00079b30       ___acrt_initialize_stdio   1007ab30 f   libucrtd:_file.obj
 0001:00079ca0       ___acrt_iob_func           1007aca0 f   libucrtd:_file.obj
 0001:00079cb0       ___acrt_uninitialize_stdio 1007acb0 f   libucrtd:_file.obj
 0001:00079d30       __get_stream_buffer_pointers 1007ad30 f   libucrtd:_file.obj
 0001:00079e10       __lock_file                1007ae10 f   libucrtd:_file.obj
 0001:00079e40       __unlock_file              1007ae40 f   libucrtd:_file.obj
 0001:00079e70       __get_printf_count_output  1007ae70 f   libucrtd:printf_count_output.obj
 0001:00079ea0       __set_printf_count_output  1007aea0 f   libucrtd:printf_count_output.obj
 0001:00079f00       ?has_any_buffer@__crt_stdio_stream@@QBE_NXZ 1007af00 f i libucrtd:_sftbuf.obj
 0001:00079f20       ?has_any_of@__crt_stdio_stream@@QBE_NJ@Z 1007af20 f i libucrtd:_sftbuf.obj
 0001:00079f60       ?has_temporary_buffer@__crt_stdio_stream@@QBE_NXZ 1007af60 f i libucrtd:_sftbuf.obj
 0001:00079f80       ?set_flags@__crt_stdio_stream@@QBE_NJ@Z 1007af80 f i libucrtd:_sftbuf.obj
 0001:00079fd0       ?unset_flags@__crt_stdio_stream@@QBE_NJ@Z 1007afd0 f i libucrtd:_sftbuf.obj
 0001:0007a020       ___acrt_stdio_begin_temporary_buffering_nolock 1007b020 f   libucrtd:_sftbuf.obj
 0001:0007a1e0       ___acrt_stdio_end_temporary_buffering_nolock 1007b1e0 f   libucrtd:_sftbuf.obj
 0001:0007a270       ??$?RU__crt_locale_data@@@__crt_internal_free_policy@@QBEXQBU__crt_locale_data@@@Z 1007b270 f i libucrtd:wsetlocale.obj
 0001:0007a290       ??$?RU__crt_locale_pointers@@@__crt_internal_free_policy@@QBEXQBU__crt_locale_pointers@@@Z 1007b290 f i libucrtd:wsetlocale.obj
 0001:0007a2b0       ??$?RU__crt_multibyte_data@@@__crt_internal_free_policy@@QBEXQBU__crt_multibyte_data@@@Z 1007b2b0 f i libucrtd:wsetlocale.obj
 0001:0007a8a0       ??0?$__crt_unique_heap_ptr@U__crt_locale_data@@U__crt_internal_free_policy@@@@QAE@QAU__crt_locale_data@@@Z 1007b8a0 f i libucrtd:wsetlocale.obj
 0001:0007a8c0       ??0?$__crt_unique_heap_ptr@U__crt_locale_pointers@@U__crt_internal_free_policy@@@@QAE@QAU__crt_locale_pointers@@@Z 1007b8c0 f i libucrtd:wsetlocale.obj
 0001:0007a8e0       ??0?$__crt_unique_heap_ptr@U__crt_multibyte_data@@U__crt_internal_free_policy@@@@QAE@QAU__crt_multibyte_data@@@Z 1007b8e0 f i libucrtd:wsetlocale.obj
 0001:0007a900       ??0_expandlocale_locale_name_cache@@QAE@QA_WIQAU__crt_qualified_locale_data@@@Z 1007b900 f i libucrtd:wsetlocale.obj
 0001:0007a970       ??1?$__crt_unique_heap_ptr@U__crt_locale_data@@U__crt_internal_free_policy@@@@QAE@XZ 1007b970 f i libucrtd:wsetlocale.obj
 0001:0007a990       ??1?$__crt_unique_heap_ptr@U__crt_locale_pointers@@U__crt_internal_free_policy@@@@QAE@XZ 1007b990 f i libucrtd:wsetlocale.obj
 0001:0007a9b0       ??1?$__crt_unique_heap_ptr@U__crt_multibyte_data@@U__crt_internal_free_policy@@@@QAE@XZ 1007b9b0 f i libucrtd:wsetlocale.obj
 0001:0007a9d0       ??1_expandlocale_locale_name_cache@@QAE@XZ 1007b9d0 f i libucrtd:wsetlocale.obj
 0001:0007aa30       ??B?$__crt_unique_heap_ptr@U__crt_locale_data@@U__crt_internal_free_policy@@@@QBE_NXZ 1007ba30 f i libucrtd:wsetlocale.obj
 0001:0007aa50       ??B?$__crt_unique_heap_ptr@U__crt_locale_pointers@@U__crt_internal_free_policy@@@@QBE_NXZ 1007ba50 f i libucrtd:wsetlocale.obj
 0001:0007aa70       ??B?$__crt_unique_heap_ptr@U__crt_multibyte_data@@U__crt_internal_free_policy@@@@QBE_NXZ 1007ba70 f i libucrtd:wsetlocale.obj
 0001:0007ae60       ?commit_locale_name@_expandlocale_locale_name_cache@@QAEXQB_WI@Z 1007be60 f i libucrtd:wsetlocale.obj
 0001:0007aec0       ?commit_locale_name_cache_already_updated@_expandlocale_locale_name_cache@@QAEXQB_WI@Z 1007bec0 f i libucrtd:wsetlocale.obj
 0001:0007af20       ?detach@?$__crt_unique_heap_ptr@U__crt_locale_data@@U__crt_internal_free_policy@@@@QAEPAU__crt_locale_data@@XZ 1007bf20 f i libucrtd:wsetlocale.obj
 0001:0007af50       ?detach@?$__crt_unique_heap_ptr@U__crt_locale_pointers@@U__crt_internal_free_policy@@@@QAEPAU__crt_locale_pointers@@XZ 1007bf50 f i libucrtd:wsetlocale.obj
 0001:0007af80       ?detach@?$__crt_unique_heap_ptr@U__crt_multibyte_data@@U__crt_internal_free_policy@@@@QAEPAU__crt_multibyte_data@@XZ 1007bf80 f i libucrtd:wsetlocale.obj
 0001:0007afb0       ?get@?$__crt_unique_heap_ptr@U__crt_locale_data@@U__crt_internal_free_policy@@@@QBEPAU__crt_locale_data@@XZ 1007bfb0 f i libucrtd:wsetlocale.obj
 0001:0007afd0       ?get@?$__crt_unique_heap_ptr@U__crt_locale_pointers@@U__crt_internal_free_policy@@@@QBEPAU__crt_locale_pointers@@XZ 1007bfd0 f i libucrtd:wsetlocale.obj
 0001:0007aff0       ?get@?$__crt_unique_heap_ptr@U__crt_multibyte_data@@U__crt_internal_free_policy@@@@QBEPAU__crt_multibyte_data@@XZ 1007bff0 f i libucrtd:wsetlocale.obj
 0001:0007b010       ?is_valid@?$__crt_unique_heap_ptr@U__crt_locale_data@@U__crt_internal_free_policy@@@@QBE_NXZ 1007c010 f i libucrtd:wsetlocale.obj
 0001:0007b040       ?is_valid@?$__crt_unique_heap_ptr@U__crt_locale_pointers@@U__crt_internal_free_policy@@@@QBE_NXZ 1007c040 f i libucrtd:wsetlocale.obj
 0001:0007b070       ?is_valid@?$__crt_unique_heap_ptr@U__crt_multibyte_data@@U__crt_internal_free_policy@@@@QBE_NXZ 1007c070 f i libucrtd:wsetlocale.obj
 0001:0007b0a0       ?release@?$__crt_unique_heap_ptr@U__crt_locale_data@@U__crt_internal_free_policy@@@@QAEXXZ 1007c0a0 f i libucrtd:wsetlocale.obj
 0001:0007b0d0       ?release@?$__crt_unique_heap_ptr@U__crt_locale_pointers@@U__crt_internal_free_policy@@@@QAEXXZ 1007c0d0 f i libucrtd:wsetlocale.obj
 0001:0007b100       ?release@?$__crt_unique_heap_ptr@U__crt_multibyte_data@@U__crt_internal_free_policy@@@@QAEXXZ 1007c100 f i libucrtd:wsetlocale.obj
 0001:0007b130       ___acrt_copy_locale_name   1007c130 f   libucrtd:wsetlocale.obj
 0001:0007b1d0       ___acrt_set_locale_changed 1007c1d0 f   libucrtd:wsetlocale.obj
 0001:0007b1f0       ___acrt_uninitialize_locale 1007c1f0 f   libucrtd:wsetlocale.obj
 0001:0007b210       ___ascii_tolower           1007c210 f i libucrtd:wsetlocale.obj
 0001:0007b230       ___ascii_towlower          1007c230 f i libucrtd:wsetlocale.obj
 0001:0007b250       ___lc_lctowcs              1007c250 f   libucrtd:wsetlocale.obj
 0001:0007b300       ___lc_wcstolc              1007c300 f   libucrtd:wsetlocale.obj
 0001:0007b530       __configthreadlocale       1007c530 f   libucrtd:wsetlocale.obj
 0001:0007b6b0       __create_locale            1007c6b0 f   libucrtd:wsetlocale.obj
 0001:0007bcf0       __free_locale              1007ccf0 f   libucrtd:wsetlocale.obj
 0001:0007be20       __get_current_locale       1007ce20 f   libucrtd:wsetlocale.obj
 0001:0007bef0       __wcreate_locale           1007cef0 f   libucrtd:wsetlocale.obj
 0001:0007c130       __wcscats                  1007d130 f   libucrtd:wsetlocale.obj
 0001:0007c1b0       __wsetlocale               1007d1b0 f   libucrtd:wsetlocale.obj
 0001:0007d8b0       ___p___mb_cur_max          1007e8b0 f   libucrtd:nlsdata.obj
 0001:0007dbb0       ___acrt_initialize_lowio   1007ebb0 f   libucrtd:ioinit.obj
 0001:0007dc50       ___acrt_uninitialize_lowio 1007ec50 f   libucrtd:ioinit.obj
 0001:0007dcb0       __CrtGetReportHook         1007ecb0 f   libucrtd:dbgrptt.obj
 0001:0007dcc0       __CrtSetReportFile         1007ecc0 f   libucrtd:dbgrptt.obj
 0001:0007ddc0       __CrtSetReportHook         1007edc0 f   libucrtd:dbgrptt.obj
 0001:0007dde0       __CrtSetReportMode         1007ede0 f   libucrtd:dbgrptt.obj
 0001:0007df20       __VCrtDbgReportA           1007ef20 f   libucrtd:dbgrptt.obj
 0001:0007e7a0       __VCrtDbgReportW           1007f7a0 f   libucrtd:dbgrptt.obj
 0001:0007f150       __snprintf_s               10080150 f i libucrtd:dbgrptt.obj
 0001:0007f190       __vsnprintf_s              10080190 f i libucrtd:dbgrptt.obj
 0001:0007f1c0       __vsnprintf_s_l            100801c0 f i libucrtd:dbgrptt.obj
 0001:0007f350       ??$__acrt_wcs_to_mbs_cp@U__crt_win32_buffer_no_resizing@@@@YAHQB_WAAV?$__crt_win32_buffer@DU__crt_win32_buffer_no_resizing@@@@I@Z 10080350 f i libucrtd:getmodulefilenamea.obj
 0001:0007f380       ??0?$__crt_win32_buffer@DU__crt_win32_buffer_no_resizing@@@@QAE@QADI@Z 10080380 f i libucrtd:getmodulefilenamea.obj
 0001:0007f3d0       ??1?$__crt_win32_buffer@DU__crt_win32_buffer_no_resizing@@@@QAE@XZ 100803d0 f i libucrtd:getmodulefilenamea.obj
 0001:0007f440       ?__acrt_get_utf8_acp_compatibility_codepage@@YAIXZ 10080440 f i libucrtd:getmodulefilenamea.obj
 0001:0007f4d0       ?_deallocate@?$__crt_win32_buffer@DU__crt_win32_buffer_no_resizing@@@@AAEXXZ 100804d0 f i libucrtd:getmodulefilenamea.obj
 0001:0007f510       ?allocate@?$__crt_win32_buffer@DU__crt_win32_buffer_no_resizing@@@@QAEHI@Z 10080510 f i libucrtd:getmodulefilenamea.obj
 0001:0007f580       ?allocate@__crt_win32_buffer_no_resizing@@SAHQAPAXIABV__crt_win32_buffer_empty_debug_info@@@Z 10080580 f i libucrtd:getmodulefilenamea.obj
 0001:0007f5a0       ?capacity@?$__crt_win32_buffer@DU__crt_win32_buffer_no_resizing@@@@QBEIXZ 100805a0 f i libucrtd:getmodulefilenamea.obj
 0001:0007f5c0       ?data@?$__crt_win32_buffer@DU__crt_win32_buffer_no_resizing@@@@QAEPADXZ 100805c0 f i libucrtd:getmodulefilenamea.obj
 0001:0007f5e0       ?deallocate@__crt_win32_buffer_no_resizing@@SAXQAXABV__crt_win32_buffer_empty_debug_info@@@Z 100805e0 f i libucrtd:getmodulefilenamea.obj
 0001:0007f5f0       ?debug_info@?$__crt_win32_buffer@DU__crt_win32_buffer_no_resizing@@@@QBEABV__crt_win32_buffer_empty_debug_info@@XZ 100805f0 f i libucrtd:getmodulefilenamea.obj
 0001:0007f600       ?set_to_nullptr@?$__crt_win32_buffer@DU__crt_win32_buffer_no_resizing@@@@QAEXXZ 10080600 f i libucrtd:getmodulefilenamea.obj
 0001:0007f640       ?size@?$__crt_win32_buffer@DU__crt_win32_buffer_no_resizing@@@@QAEXI@Z 10080640 f i libucrtd:getmodulefilenamea.obj
 0001:0007f660       ?size@?$__crt_win32_buffer@DU__crt_win32_buffer_no_resizing@@@@QBEIXZ 10080660 f i libucrtd:getmodulefilenamea.obj
 0001:0007f680       ___acrt_GetModuleFileNameA 10080680 f   libucrtd:getmodulefilenamea.obj
 0001:0007f960       ??$message_box@$$TABQBDABQBDK@?$__crt_char_traits@D@@SAH$$QA$$TABQBD1$$QAK@Z 10080960 f i libucrtd:crtmbox.obj
 0001:0007f990       ??$message_box@$$TABQB_WABQB_WK@?$__crt_char_traits@_W@@SAH$$QA$$TABQB_W1$$QAK@Z 10080990 f i libucrtd:crtmbox.obj
 0001:0007f9c0       ??$message_box@PAUHWND__@@ABQBDABQBDABI@?$__crt_char_traits@D@@SAH$$QAPAUHWND__@@ABQBD1ABI@Z 100809c0 f i libucrtd:crtmbox.obj
 0001:0007f9f0       ??$message_box@PAUHWND__@@ABQB_WABQB_WABI@?$__crt_char_traits@_W@@SAH$$QAPAUHWND__@@ABQB_W1ABI@Z 100809f0 f i libucrtd:crtmbox.obj
 0001:0007fa20       ??$output_debug_string@ABQBD@?$__crt_char_traits@D@@SAXABQBD@Z 10080a20 f i libucrtd:crtmbox.obj
 0001:0007fa40       ??$output_debug_string@ABQB_W@?$__crt_char_traits@_W@@SAXABQB_W@Z 10080a40 f i libucrtd:crtmbox.obj
 0001:0007fa60       ___acrt_show_narrow_message_box 10080a60 f   libucrtd:crtmbox.obj
 0001:0007fa80       ___acrt_show_wide_message_box 10080a80 f   libucrtd:crtmbox.obj
 0001:0007faa0       ___acrt_initialize_locks   10080aa0 f   libucrtd:locks.obj
 0001:0007fb00       ___acrt_lock               10080b00 f   libucrtd:locks.obj
 0001:0007fb20       ___acrt_uninitialize_locks 10080b20 f   libucrtd:locks.obj
 0001:0007fb70       ___acrt_unlock             10080b70 f   libucrtd:locks.obj
 0001:0007fb90       __lock_locales             10080b90 f   libucrtd:locks.obj
 0001:0007fbb0       __unlock_locales           10080bb0 f   libucrtd:locks.obj
 0001:0007fbd0       ??$?B$$A6AXH@Z@__crt_fast_encoded_nullptr_t@@QBEP6AXH@ZXZ 10080bd0 f i libucrtd:signal.obj
 0001:0007fcc0       ??$__crt_fast_decode_pointer@P6AXH@Z@@YAP6AXH@ZQ6AXH@Z@Z 10080cc0 f i libucrtd:signal.obj
 0001:0007fcf0       ??$__crt_fast_encode_pointer@P6AXH@Z@@YAP6AXH@ZQ6AXH@Z@Z 10080cf0 f i libucrtd:signal.obj
 0001:0007ffa0       ?initialize@?$dual_state_global@P6AXH@Z@__crt_state_management@@QAEXQ6AXH@Z@Z 10080fa0 f i libucrtd:signal.obj
 0001:000800e0       ?value@?$dual_state_global@P6AXH@Z@__crt_state_management@@QAEAAP6AXH@ZXZ 100810e0 f i libucrtd:signal.obj
 0001:00080100       ___acrt_get_sigabrt_handler 10081100 f   libucrtd:signal.obj
 0001:00080120       ___acrt_initialize_signal_handlers 10081120 f   libucrtd:signal.obj
 0001:00080160       ___fpecode                 10081160 f   libucrtd:signal.obj
 0001:00080170       ___pxcptinfoptrs           10081170 f   libucrtd:signal.obj
 0001:00080180       _raise                     10081180 f   libucrtd:signal.obj
 0001:00080550       _signal                    10081550 f   libucrtd:signal.obj
 0001:000807d0       __msize                    100817d0 f   libucrtd:msize.obj
 0001:000807f0       __msize_base               100817f0 f   libucrtd:msize.obj
 0001:00080890       __realloc_base             10081890 f   libucrtd:realloc_base.obj
 0001:00080950       ??$?B$$A6GHPA_WKJ@Z@__crt_fast_encoded_nullptr_t@@QBEP6GHPA_WKJ@ZXZ 10081950 f i libucrtd:winapi_thunks.obj
 0001:00080a40       ??$__crt_fast_decode_pointer@P6GHPA_WKJ@Z@@YAP6GHPA_WKJ@ZQ6GH0KJ@Z@Z 10081a40 f i libucrtd:winapi_thunks.obj
 0001:00080a70       ??$__crt_fast_decode_pointer@PAX@@YAPAXQAX@Z 10081a70 f i libucrtd:winapi_thunks.obj
 0001:00080aa0       ??$__crt_fast_encode_pointer@P6GHPA_WKJ@Z@@YAP6GHPA_WKJ@ZQ6GH0KJ@Z@Z 10081aa0 f i libucrtd:winapi_thunks.obj
 0001:00081400       _GetCurrentThreadEffectiveToken 10082400 f i libucrtd:winapi_thunks.obj
 0001:00081410       ___acrt_AppPolicyGetProcessTerminationMethodInternal@4 10082410 f   libucrtd:winapi_thunks.obj
 0001:00081450       ___acrt_AppPolicyGetShowDeveloperDiagnosticInternal@4 10082450 f   libucrtd:winapi_thunks.obj
 0001:00081490       ___acrt_AppPolicyGetThreadInitializationTypeInternal@4 10082490 f   libucrtd:winapi_thunks.obj
 0001:000814d0       ___acrt_AppPolicyGetWindowingModelInternal@4 100824d0 f   libucrtd:winapi_thunks.obj
 0001:00081510       ___acrt_AreFileApisANSI@0  10082510 f   libucrtd:winapi_thunks.obj
 0001:00081550       ___acrt_CompareStringEx@36 10082550 f   libucrtd:winapi_thunks.obj
 0001:000815d0       ___acrt_EnumSystemLocalesEx@16 100825d0 f   libucrtd:winapi_thunks.obj
 0001:00081630       ___acrt_FlsAlloc@4         10082630 f   libucrtd:winapi_thunks.obj
 0001:00081670       ___acrt_FlsFree@4          10082670 f   libucrtd:winapi_thunks.obj
 0001:000816b0       ___acrt_FlsGetValue@4      100826b0 f   libucrtd:winapi_thunks.obj
 0001:000816f0       ___acrt_FlsSetValue@8      100826f0 f   libucrtd:winapi_thunks.obj
 0001:00081740       ___acrt_GetDateFormatEx@28 10082740 f   libucrtd:winapi_thunks.obj
 0001:000817c0       ___acrt_GetEnabledXStateFeatures@0 100827c0 f   libucrtd:winapi_thunks.obj
 0001:00081800       ___acrt_GetLocaleInfoEx@16 10082800 f   libucrtd:winapi_thunks.obj
 0001:00081860       ___acrt_GetSystemTimePreciseAsFileTime@4 10082860 f   libucrtd:winapi_thunks.obj
 0001:000818a0       ___acrt_GetTimeFormatEx@24 100828a0 f   libucrtd:winapi_thunks.obj
 0001:00081910       ___acrt_GetUserDefaultLocaleName@8 10082910 f   libucrtd:winapi_thunks.obj
 0001:00081960       ___acrt_GetXStateFeaturesMask@8 10082960 f   libucrtd:winapi_thunks.obj
 0001:000819a0       ___acrt_InitializeCriticalSectionEx@12 100829a0 f   libucrtd:winapi_thunks.obj
 0001:000819f0       ___acrt_IsValidLocaleName@4 100829f0 f   libucrtd:winapi_thunks.obj
 0001:00081a40       ___acrt_LCIDToLocaleName@16 10082a40 f   libucrtd:winapi_thunks.obj
 0001:00081aa0       ___acrt_LCMapStringEx@36   10082aa0 f   libucrtd:winapi_thunks.obj
 0001:00081b20       ___acrt_LocaleNameToLCID@8 10082b20 f   libucrtd:winapi_thunks.obj
 0001:00081b70       ___acrt_LocateXStateFeature@12 10082b70 f   libucrtd:winapi_thunks.obj
 0001:00081bc0       ___acrt_MessageBoxA@16     10082bc0 f   libucrtd:winapi_thunks.obj
 0001:00081c10       ___acrt_MessageBoxW@16     10082c10 f   libucrtd:winapi_thunks.obj
 0001:00081c60       ___acrt_RoInitialize@4     10082c60 f   libucrtd:winapi_thunks.obj
 0001:00081ca0       ___acrt_RoUninitialize@0   10082ca0 f   libucrtd:winapi_thunks.obj
 0001:00081cd0       ___acrt_RtlGenRandom@8     10082cd0 f   libucrtd:winapi_thunks.obj
 0001:00081d10       ___acrt_SetThreadStackGuarantee@4 10082d10 f   libucrtd:winapi_thunks.obj
 0001:00081d50       ___acrt_can_show_message_box 10082d50 f   libucrtd:winapi_thunks.obj
 0001:00081d90       ___acrt_can_use_vista_locale_apis 10082d90 f   libucrtd:winapi_thunks.obj
 0001:00081dc0       ___acrt_can_use_xstate_apis 10082dc0 f   libucrtd:winapi_thunks.obj
 0001:00081df0       ___acrt_eagerly_load_locale_apis 10082df0 f   libucrtd:winapi_thunks.obj
 0001:00081e30       ___acrt_get_parent_window  10082e30 f   libucrtd:winapi_thunks.obj
 0001:00081ea0       ___acrt_initialize_winapi_thunks 10082ea0 f   libucrtd:winapi_thunks.obj
 0001:00081f10       ___acrt_is_interactive     10082f10 f   libucrtd:winapi_thunks.obj
 0001:00081fc0       ___acrt_uninitialize_winapi_thunks 10082fc0 f   libucrtd:winapi_thunks.obj
 0001:00082030       __chvalidator              10083030 f   libucrtd:isctype.obj
 0001:00082080       __chvalidator_l            10083080 f   libucrtd:isctype.obj
 0001:00082100       __isctype                  10083100 f   libucrtd:isctype.obj
 0001:00082140       __isctype_l                10083140 f   libucrtd:isctype.obj
 0001:000822c0       __isleadbyte_fast_internal 100832c0 f i libucrtd:isctype.obj
 0001:000822e0       ??$?RU__crt_stdio_stream_data@@@__crt_internal_free_policy@@QBEXQBU__crt_stdio_stream_data@@@Z 100832e0 f i libucrtd:stream.obj
 0001:00082300       ??0?$__crt_unique_heap_ptr@U__crt_stdio_stream_data@@U__crt_internal_free_policy@@@@QAE@QAU__crt_stdio_stream_data@@@Z 10083300 f i libucrtd:stream.obj
 0001:00082320       ??0__crt_stdio_stream@@QAE@QAU__crt_stdio_stream_data@@@Z 10083320 f i libucrtd:stream.obj
 0001:00082340       ??0__crt_stdio_stream@@QAE@XZ 10083340 f i libucrtd:stream.obj
 0001:00082360       ??1?$__crt_unique_heap_ptr@U__crt_stdio_stream_data@@U__crt_internal_free_policy@@@@QAE@XZ 10083360 f i libucrtd:stream.obj
 0001:00082380       ?__acrt_stdio_allocate_stream@@YA?AV__crt_stdio_stream@@XZ 10083380 f   libucrtd:stream.obj
 0001:00082470       ?__acrt_stdio_free_stream@@YAXV__crt_stdio_stream@@@Z 10083470 f   libucrtd:stream.obj
 0001:000824f0       ?deallocate@__crt_stdio_stream@@QAEXXZ 100834f0 f i libucrtd:stream.obj
 0001:00082510       ?detach@?$__crt_unique_heap_ptr@U__crt_stdio_stream_data@@U__crt_internal_free_policy@@@@QAEPAU__crt_stdio_stream_data@@XZ 10083510 f i libucrtd:stream.obj
 0001:00082680       ?lock@__crt_stdio_stream@@QBEXXZ 10083680 f i libucrtd:stream.obj
 0001:000826a0       ?release@?$__crt_unique_heap_ptr@U__crt_stdio_stream_data@@U__crt_internal_free_policy@@@@QAEXXZ 100836a0 f i libucrtd:stream.obj
 0001:000826d0       ?try_allocate@__crt_stdio_stream@@QAE_NXZ 100836d0 f i libucrtd:stream.obj
 0001:00082720       ??$__acrt_stdio_parse_mode@D@@YA?AU__acrt_stdio_stream_mode@@QBD@Z 10083720 f i libucrtd:openfile.obj
 0001:00082f90       ??$__acrt_stdio_parse_mode@_W@@YA?AU__acrt_stdio_stream_mode@@QB_W@Z 10083f90 f i libucrtd:openfile.obj
 0001:00083b20       ??$tcsncmp@AAPBDAAY02$$CBDI@?$__crt_char_traits@D@@SAHAAPBDAAY02$$CBD$$QAI@Z 10084b20 f i libucrtd:openfile.obj
 0001:00083b40       ??$tcsncmp@AAPB_WAAY02$$CB_WI@?$__crt_char_traits@_W@@SAHAAPB_WAAY02$$CB_W$$QAI@Z 10084b40 f i libucrtd:openfile.obj
 0001:00083b60       ??$tcsnicmp@AAPBDAAY04$$CBDI@?$__crt_char_traits@D@@SAHAAPBDAAY04$$CBD$$QAI@Z 10084b60 f i libucrtd:openfile.obj
 0001:00083b80       ??$tcsnicmp@AAPBDAAY06$$CBDI@?$__crt_char_traits@D@@SAHAAPBDAAY06$$CBD$$QAI@Z 10084b80 f i libucrtd:openfile.obj
 0001:00083ba0       ??$tcsnicmp@AAPBDAAY07$$CBDI@?$__crt_char_traits@D@@SAHAAPBDAAY07$$CBD$$QAI@Z 10084ba0 f i libucrtd:openfile.obj
 0001:00083bc0       ??$tcsnicmp@AAPB_WAAY04$$CB_WI@?$__crt_char_traits@_W@@SAHAAPB_WAAY04$$CB_W$$QAI@Z 10084bc0 f i libucrtd:openfile.obj
 0001:00083be0       ??$tcsnicmp@AAPB_WAAY06$$CB_WI@?$__crt_char_traits@_W@@SAHAAPB_WAAY06$$CB_W$$QAI@Z 10084be0 f i libucrtd:openfile.obj
 0001:00083c00       ??$tcsnicmp@AAPB_WAAY07$$CB_WI@?$__crt_char_traits@_W@@SAHAAPB_WAAY07$$CB_W$$QAI@Z 10084c00 f i libucrtd:openfile.obj
 0001:00083c20       ??$tsopen_s@PAHABQBDABHABHH@?$__crt_char_traits@D@@SAH$$QAPAHABQBDABH2$$QAH@Z 10084c20 f i libucrtd:openfile.obj
 0001:00083c50       ??$tsopen_s@PAHABQB_WABHABHH@?$__crt_char_traits@_W@@SAH$$QAPAHABQB_WABH2$$QAH@Z 10084c50 f i libucrtd:openfile.obj
 0001:00083c80       ?__acrt_stdio_parse_mode_D@@YA_NAAU__acrt_stdio_stream_mode@@@Z 10084c80 f i libucrtd:openfile.obj
 0001:00083cb0       ?__acrt_stdio_parse_mode_N@@YA_NAAU__acrt_stdio_stream_mode@@@Z 10084cb0 f i libucrtd:openfile.obj
 0001:00083cd0       ?__acrt_stdio_parse_mode_R@@YA_NAAU__acrt_stdio_stream_mode@@AA_N@Z 10084cd0 f i libucrtd:openfile.obj
 0001:00083d00       ?__acrt_stdio_parse_mode_S@@YA_NAAU__acrt_stdio_stream_mode@@AA_N@Z 10084d00 f i libucrtd:openfile.obj
 0001:00083d30       ?__acrt_stdio_parse_mode_T@@YA_NAAU__acrt_stdio_stream_mode@@@Z 10084d30 f i libucrtd:openfile.obj
 0001:00083d60       ?__acrt_stdio_parse_mode_b@@YA_NAAU__acrt_stdio_stream_mode@@@Z 10084d60 f i libucrtd:openfile.obj
 0001:00083d90       ?__acrt_stdio_parse_mode_c@@YA_NAAU__acrt_stdio_stream_mode@@AA_N@Z 10084d90 f i libucrtd:openfile.obj
 0001:00083dc0       ?__acrt_stdio_parse_mode_n@@YA_NAAU__acrt_stdio_stream_mode@@AA_N@Z 10084dc0 f i libucrtd:openfile.obj
 0001:00083df0       ?__acrt_stdio_parse_mode_plus@@YA_NAAU__acrt_stdio_stream_mode@@AA_N@Z 10084df0 f i libucrtd:openfile.obj
 0001:00083e60       ?__acrt_stdio_parse_mode_t@@YA_NAAU__acrt_stdio_stream_mode@@@Z 10084e60 f i libucrtd:openfile.obj
 0001:00083e90       ?__acrt_stdio_parse_mode_x@@YA_NAAU__acrt_stdio_stream_mode@@@Z 10084e90 f i libucrtd:openfile.obj
 0001:00083ec0       __openfile                 10084ec0 f   libucrtd:openfile.obj
 0001:00083ef0       __wopenfile                10084ef0 f   libucrtd:openfile.obj
 0001:000841d0       __close                    100851d0 f   libucrtd:close.obj
 0001:00084350       __close_nolock             10085350 f   libucrtd:close.obj
 0001:000843b0       ?has_crt_buffer@__crt_stdio_stream@@QBE_NXZ 100853b0 f i libucrtd:_freebuf.obj
 0001:000843d0       ___acrt_stdio_free_buffer_nolock 100853d0 f   libucrtd:_freebuf.obj
 0001:00084a30       ?__acrt_stdio_reset_buffer@@YAXV__crt_stdio_stream@@@Z 10085a30 f i libucrtd:fflush.obj
 0001:00084b30       ?has_all_of@__crt_stdio_stream@@QBE_NJ@Z 10085b30 f i libucrtd:fflush.obj
 0001:00084c00       ___acrt_stdio_flush_nolock 10085c00 f   libucrtd:fflush.obj
 0001:00084cd0       __fflush_nolock            10085cd0 f   libucrtd:fflush.obj
 0001:00084d50       __flushall                 10085d50 f   libucrtd:fflush.obj
 0001:00084d70       _fflush                    10085d70 f   libucrtd:fflush.obj
 0001:00085520       ?has_big_buffer@__crt_stdio_stream@@QBE_NXZ 10086520 f i libucrtd:_flsbuf.obj
 0001:00085620       ___acrt_stdio_flush_and_write_narrow_nolock 10086620 f   libucrtd:_flsbuf.obj
 0001:00085650       ___acrt_stdio_flush_and_write_wide_nolock 10086650 f   libucrtd:_flsbuf.obj
 0001:00085980       ___acrt_get_begin_thread_init_policy 10086980 f   libucrtd:win_policies.obj
 0001:000859a0       ___acrt_get_developer_information_policy 100869a0 f   libucrtd:win_policies.obj
 0001:000859c0       ___acrt_get_process_end_policy 100869c0 f   libucrtd:win_policies.obj
 0001:000859e0       ___acrt_get_windowing_model_policy 100869e0 f   libucrtd:win_policies.obj
 0001:00085cb0       ??$__acrt_mbs_to_wcs_cp@U__crt_win32_buffer_internal_dynamic_resizing@@@@YAHQBDAAV?$__crt_win32_buffer@_WU__crt_win32_buffer_internal_dynamic_resizing@@@@I@Z 10086cb0 f i libucrtd:argv_wildcards.obj
 0001:00085ce0       ??$__acrt_wcs_to_mbs_cp@U__crt_win32_buffer_internal_dynamic_resizing@@@@YAHQB_WAAV?$__crt_win32_buffer@DU__crt_win32_buffer_internal_dynamic_resizing@@@@I@Z 10086ce0 f i libucrtd:argv_wildcards.obj
 0001:00086c30       ??$tcsncpy_s@AAPADIAAPADABI@?$__crt_char_traits@D@@SAHAAPAD$$QAI0ABI@Z 10087c30 f i libucrtd:argv_wildcards.obj
 0001:00086c60       ??$tcsncpy_s@AAPA_WIAAPA_WABI@?$__crt_char_traits@_W@@SAHAAPA_W$$QAI0ABI@Z 10087c60 f i libucrtd:argv_wildcards.obj
 0001:00086c90       ??$tcsncpy_s@PADABIABQBDABI@?$__crt_char_traits@D@@SAH$$QAPADABIABQBD1@Z 10087c90 f i libucrtd:argv_wildcards.obj
 0001:00086cc0       ??$tcsncpy_s@PADIABQBDABI@?$__crt_char_traits@D@@SAH$$QAPAD$$QAIABQBDABI@Z 10087cc0 f i libucrtd:argv_wildcards.obj
 0001:00086cf0       ??$tcsncpy_s@PA_WABIABQB_WABI@?$__crt_char_traits@_W@@SAH$$QAPA_WABIABQB_W1@Z 10087cf0 f i libucrtd:argv_wildcards.obj
 0001:00086d20       ??$tcsncpy_s@PA_WIABQB_WABI@?$__crt_char_traits@_W@@SAH$$QAPA_W$$QAIABQB_WABI@Z 10087d20 f i libucrtd:argv_wildcards.obj
 0001:00086d50       ??$tcspbrk@AAPADAAY02$$CBD@?$__crt_char_traits@D@@SAPADAAPADAAY02$$CBD@Z 10087d50 f i libucrtd:argv_wildcards.obj
 0001:00086d70       ??$tcspbrk@AAPA_WAAY02$$CB_W@?$__crt_char_traits@_W@@SAPA_WAAPA_WAAY02$$CB_W@Z 10087d70 f i libucrtd:argv_wildcards.obj
 0001:00086d90       ??0?$__crt_unique_handle_t@U__crt_findfile_traits@@@@QAE@QAX@Z 10087d90 f i libucrtd:argv_wildcards.obj
 0001:00086db0       ??0?$__crt_win32_buffer@DU__crt_win32_buffer_internal_dynamic_resizing@@@@QAE@XZ 10087db0 f i libucrtd:argv_wildcards.obj
 0001:00086e00       ??0?$__crt_win32_buffer@_WU__crt_win32_buffer_internal_dynamic_resizing@@@@QAE@XZ 10087e00 f i libucrtd:argv_wildcards.obj
 0001:00086eb0       ??1?$__crt_unique_handle_t@U__crt_findfile_traits@@@@QAE@XZ 10087eb0 f i libucrtd:argv_wildcards.obj
 0001:00086ed0       ??1?$__crt_win32_buffer@DU__crt_win32_buffer_internal_dynamic_resizing@@@@QAE@XZ 10087ed0 f i libucrtd:argv_wildcards.obj
 0001:00086f10       ??1?$__crt_win32_buffer@_WU__crt_win32_buffer_internal_dynamic_resizing@@@@QAE@XZ 10087f10 f i libucrtd:argv_wildcards.obj
 0001:00087170       ?_deallocate@?$__crt_win32_buffer@DU__crt_win32_buffer_internal_dynamic_resizing@@@@AAEXXZ 10088170 f i libucrtd:argv_wildcards.obj
 0001:000871b0       ?_deallocate@?$__crt_win32_buffer@_WU__crt_win32_buffer_internal_dynamic_resizing@@@@AAEXXZ 100881b0 f i libucrtd:argv_wildcards.obj
 0001:000871f0       ?allocate@?$__crt_win32_buffer@DU__crt_win32_buffer_internal_dynamic_resizing@@@@QAEHI@Z 100881f0 f i libucrtd:argv_wildcards.obj
 0001:00087260       ?allocate@?$__crt_win32_buffer@_WU__crt_win32_buffer_internal_dynamic_resizing@@@@QAEHI@Z 10088260 f i libucrtd:argv_wildcards.obj
 0001:000872d0       ?allocate@__crt_win32_buffer_internal_dynamic_resizing@@SAHQAPAXIABV__crt_win32_buffer_empty_debug_info@@@Z 100882d0 f i libucrtd:argv_wildcards.obj
 0001:00087410       ?capacity@?$__crt_win32_buffer@DU__crt_win32_buffer_internal_dynamic_resizing@@@@QBEIXZ 10088410 f i libucrtd:argv_wildcards.obj
 0001:00087430       ?capacity@?$__crt_win32_buffer@_WU__crt_win32_buffer_internal_dynamic_resizing@@@@QBEIXZ 10088430 f i libucrtd:argv_wildcards.obj
 0001:00087450       ?close@?$__crt_unique_handle_t@U__crt_findfile_traits@@@@QAEXXZ 10088450 f i libucrtd:argv_wildcards.obj
 0001:00087490       ?close@__crt_findfile_traits@@SA_NPAX@Z 10088490 f i libucrtd:argv_wildcards.obj
 0001:000874c0       ?data@?$__crt_win32_buffer@DU__crt_win32_buffer_internal_dynamic_resizing@@@@QAEPADXZ 100884c0 f i libucrtd:argv_wildcards.obj
 0001:000874e0       ?data@?$__crt_win32_buffer@_WU__crt_win32_buffer_internal_dynamic_resizing@@@@QAEPA_WXZ 100884e0 f i libucrtd:argv_wildcards.obj
 0001:00087500       ?deallocate@__crt_win32_buffer_internal_dynamic_resizing@@SAXQAXABV__crt_win32_buffer_empty_debug_info@@@Z 10088500 f i libucrtd:argv_wildcards.obj
 0001:00087520       ?debug_info@?$__crt_win32_buffer@DU__crt_win32_buffer_internal_dynamic_resizing@@@@QBEABV__crt_win32_buffer_empty_debug_info@@XZ 10088520 f i libucrtd:argv_wildcards.obj
 0001:00087530       ?debug_info@?$__crt_win32_buffer@_WU__crt_win32_buffer_internal_dynamic_resizing@@@@QBEABV__crt_win32_buffer_empty_debug_info@@XZ 10088530 f i libucrtd:argv_wildcards.obj
 0001:00087840       ?get@?$__crt_unique_handle_t@U__crt_findfile_traits@@@@QBEPAXXZ 10088840 f i libucrtd:argv_wildcards.obj
 0001:000878b0       ?get_invalid_value@__crt_findfile_traits@@SAPAXXZ 100888b0 f i libucrtd:argv_wildcards.obj
 0001:00087940       ?set_to_nullptr@?$__crt_win32_buffer@DU__crt_win32_buffer_internal_dynamic_resizing@@@@QAEXXZ 10088940 f i libucrtd:argv_wildcards.obj
 0001:00087980       ?set_to_nullptr@?$__crt_win32_buffer@_WU__crt_win32_buffer_internal_dynamic_resizing@@@@QAEXXZ 10088980 f i libucrtd:argv_wildcards.obj
 0001:000879c0       ?size@?$__crt_win32_buffer@DU__crt_win32_buffer_internal_dynamic_resizing@@@@QAEXI@Z 100889c0 f i libucrtd:argv_wildcards.obj
 0001:000879e0       ?size@?$__crt_win32_buffer@_WU__crt_win32_buffer_internal_dynamic_resizing@@@@QAEXI@Z 100889e0 f i libucrtd:argv_wildcards.obj
 0001:00087a40       ?strpbrk@@YAPADQADQBD@Z    10088a40 f i libucrtd:argv_wildcards.obj
 0001:00087a60       ?wcspbrk@@YAPA_WPA_WPB_W@Z 10088a60 f i libucrtd:argv_wildcards.obj
 0001:00087a80       ___acrt_expand_narrow_argv_wildcards 10088a80 f   libucrtd:argv_wildcards.obj
 0001:00087aa0       ___acrt_expand_wide_argv_wildcards 10088aa0 f   libucrtd:argv_wildcards.obj
 0001:00087b80       ??$initialize_from_array@$$BY10BAA@E@?$dual_state_global@PAE@__crt_state_management@@QAAXAAY10BAA@E@Z 10088b80 f i libucrtd:mbctype.obj
 0001:00087bd0       ??$initialize_from_array@$$BY10BAB@E@?$dual_state_global@PAE@__crt_state_management@@QAAXAAY10BAB@E@Z 10088bd0 f i libucrtd:mbctype.obj
 0001:00087e40       ?dangerous_get_state_array@?$dual_state_global@PAE@__crt_state_management@@QAEPAPAEXZ 10088e40 f i libucrtd:mbctype.obj
 0001:00087e50       ?dangerous_get_state_array@?$dual_state_global@PAU__crt_multibyte_data@@@__crt_state_management@@QAEPAPAU__crt_multibyte_data@@XZ 10088e50 f i libucrtd:mbctype.obj
 0001:00087f20       ?initialize@?$dual_state_global@PAU__crt_multibyte_data@@@__crt_state_management@@QAEXQAU__crt_multibyte_data@@@Z 10088f20 f i libucrtd:mbctype.obj
 0001:00088680       ?value@?$dual_state_global@PAE@__crt_state_management@@QAEAAPAEXZ 10089680 f i libucrtd:mbctype.obj
 0001:000886a0       ___acrt_initialize_multibyte 100896a0 f   libucrtd:mbctype.obj
 0001:00088750       ___acrt_update_thread_multibyte_data 10089750 f   libucrtd:mbctype.obj
 0001:00088770       ___p__mbcasemap            10089770 f   libucrtd:mbctype.obj
 0001:00088790       ___p__mbctype              10089790 f   libucrtd:mbctype.obj
 0001:000887b0       __getmbcp                  100897b0 f   libucrtd:mbctype.obj
 0001:00088820       __setmbcp                  10089820 f   libucrtd:mbctype.obj
 0001:00088850       __setmbcp_nolock           10089850 f   libucrtd:mbctype.obj
 0001:00088dc1       __ismbbalnum               10089dc1 f   libucrtd:ismbbyte.obj
 0001:00088ddc       __ismbbalnum_l             10089ddc f   libucrtd:ismbbyte.obj
 0001:00088df8       __ismbbalpha               10089df8 f   libucrtd:ismbbyte.obj
 0001:00088e13       __ismbbalpha_l             10089e13 f   libucrtd:ismbbyte.obj
 0001:00088e2f       __ismbbblank               10089e2f f   libucrtd:ismbbyte.obj
 0001:00088e52       __ismbbblank_l             10089e52 f   libucrtd:ismbbyte.obj
 0001:00088e76       __ismbbgraph               10089e76 f   libucrtd:ismbbyte.obj
 0001:00088e91       __ismbbgraph_l             10089e91 f   libucrtd:ismbbyte.obj
 0001:00088ead       __ismbbkalnum              10089ead f   libucrtd:ismbbyte.obj
 0001:00088ec5       __ismbbkalnum_l            10089ec5 f   libucrtd:ismbbyte.obj
 0001:00088ede       __ismbbkana                10089ede f   libucrtd:ismbbyte.obj
 0001:00088ef1       __ismbbkana_l              10089ef1 f   libucrtd:ismbbyte.obj
 0001:00088f40       __ismbbkprint              10089f40 f   libucrtd:ismbbyte.obj
 0001:00088f58       __ismbbkprint_l            10089f58 f   libucrtd:ismbbyte.obj
 0001:00088f71       __ismbbkpunct              10089f71 f   libucrtd:ismbbyte.obj
 0001:00088f89       __ismbbkpunct_l            10089f89 f   libucrtd:ismbbyte.obj
 0001:00088fa2       __ismbblead                10089fa2 f   libucrtd:ismbbyte.obj
 0001:00088fba       __ismbblead_l              10089fba f   libucrtd:ismbbyte.obj
 0001:00088fd3       __ismbbprint               10089fd3 f   libucrtd:ismbbyte.obj
 0001:00088fee       __ismbbprint_l             10089fee f   libucrtd:ismbbyte.obj
 0001:0008900a       __ismbbpunct               1008a00a f   libucrtd:ismbbyte.obj
 0001:00089022       __ismbbpunct_l             1008a022 f   libucrtd:ismbbyte.obj
 0001:0008903b       __ismbbtrail               1008a03b f   libucrtd:ismbbyte.obj
 0001:00089053       __ismbbtrail_l             1008a053 f   libucrtd:ismbbyte.obj
 0001:00089070       ___acrt_initialize_command_line 1008a070 f   libucrtd:argv_data.obj
 0001:00089090       ___acrt_uninitialize_command_line 1008a090 f   libucrtd:argv_data.obj
 0001:000890a0       ___p___argc                1008a0a0 f   libucrtd:argv_data.obj
 0001:000890b0       ___p___argv                1008a0b0 f   libucrtd:argv_data.obj
 0001:000890c0       ___p___wargv               1008a0c0 f   libucrtd:argv_data.obj
 0001:000890d0       ___p__acmdln               1008a0d0 f   libucrtd:argv_data.obj
 0001:000890e0       ___p__pgmptr               1008a0e0 f   libucrtd:argv_data.obj
 0001:000890f0       ___p__wcmdln               1008a0f0 f   libucrtd:argv_data.obj
 0001:00089100       ___p__wpgmptr              1008a100 f   libucrtd:argv_data.obj
 0001:00089110       __get_pgmptr               1008a110 f   libucrtd:argv_data.obj
 0001:00089220       __get_wpgmptr              1008a220 f   libucrtd:argv_data.obj
 0001:000893e0       ___acrt_MultiByteToWideChar 1008a3e0 f   libucrtd:multibytetowidechar.obj
 0001:000894e0       ___acrt_WideCharToMultiByte 1008a4e0 f   libucrtd:widechartomultibyte.obj
 0001:00089622       ___dcrt_get_narrow_environment_from_os 1008a622 f   libucrtd:get_environment_from_os.obj
 0001:000896b4       ___dcrt_get_wide_environment_from_os 1008a6b4 f   libucrtd:get_environment_from_os.obj
 0001:0008a049       ??$get_or_create_environment_nolock@$$V@?$__crt_char_traits@D@@SAPAPADXZ 1008b049 f i libucrtd:setenv.obj
 0001:0008a04e       ??$get_or_create_environment_nolock@$$V@?$__crt_char_traits@_W@@SAPAPA_WXZ 1008b04e f i libucrtd:setenv.obj
 0001:0008a053       ??$set_environment_variable@ABQADQAD@?$__crt_char_traits@D@@SAHABQAD$$QBQAD@Z 1008b053 f i libucrtd:setenv.obj
 0001:0008a06b       ??$set_environment_variable@ABQA_WQA_W@?$__crt_char_traits@_W@@SAHABQA_W$$QBQA_W@Z 1008b06b f i libucrtd:setenv.obj
 0001:0008a082       ??$tcschr@ABQADD@?$__crt_char_traits@D@@SAPADABQAD$$QAD@Z 1008b082 f i libucrtd:setenv.obj
 0001:0008a09c       ??$tcschr@ABQA_WD@?$__crt_char_traits@_W@@SAPA_WABQA_W$$QAD@Z 1008b09c f i libucrtd:setenv.obj
 0001:0008a0ba       ??$tcscpy_s@AAPADABIAAPAD@?$__crt_char_traits@D@@SAHAAPADABI0@Z 1008b0ba f i libucrtd:setenv.obj
 0001:0008a0d8       ??$tcscpy_s@AAPA_WABIAAPA_W@?$__crt_char_traits@_W@@SAHAAPA_WABI0@Z 1008b0d8 f i libucrtd:setenv.obj
 0001:0008a0f6       ??$tcscpy_s@ABQADABIABQAD@?$__crt_char_traits@D@@SAHABQADABI0@Z 1008b0f6 f i libucrtd:setenv.obj
 0001:0008a114       ??$tcscpy_s@ABQA_WABIABQA_W@?$__crt_char_traits@_W@@SAHABQA_WABI0@Z 1008b114 f i libucrtd:setenv.obj
 0001:0008a132       ??$tcslen@ABQAD@?$__crt_char_traits@D@@SAIABQAD@Z 1008b132 f i libucrtd:setenv.obj
 0001:0008a14a       ??$tcslen@ABQA_W@?$__crt_char_traits@_W@@SAIABQA_W@Z 1008b14a f i libucrtd:setenv.obj
 0001:0008a168       ??$tcsnicoll@ABQBDAAPADABI@?$__crt_char_traits@D@@SAHABQBDAAPADABI@Z 1008b168 f i libucrtd:setenv.obj
 0001:0008a186       ??$tcsnicoll@ABQB_WAAPA_WABI@?$__crt_char_traits@_W@@SAHABQB_WAAPA_WABI@Z 1008b186 f i libucrtd:setenv.obj
 0001:0008a1a4       ??$tcsnlen@PADH@?$__crt_char_traits@D@@SAI$$QAPAD$$QAH@Z 1008b1a4 f i libucrtd:setenv.obj
 0001:0008a1bc       ??$tcsnlen@PA_WH@?$__crt_char_traits@_W@@SAI$$QAPA_W$$QAH@Z 1008b1bc f i libucrtd:setenv.obj
 0001:0008a1f8       ?strchr@@YAPADQADH@Z       1008b1f8 f i libucrtd:setenv.obj
 0001:0008a203       ?wcschr@@YAPA_WPA_W_W@Z    1008b203 f i libucrtd:setenv.obj
 0001:0008a20e       ___dcrt_set_variable_in_narrow_environment_nolock 1008b20e f   libucrtd:setenv.obj
 0001:0008a219       ___dcrt_set_variable_in_wide_environment_nolock 1008b219 f   libucrtd:setenv.obj
 0001:0008a230       ___acrt_getheap            1008b230 f   libucrtd:heap_handle.obj
 0001:0008a270       ___acrt_initialize_heap    1008b270 f   libucrtd:heap_handle.obj
 0001:0008a2a0       ___acrt_uninitialize_heap  1008b2a0 f   libucrtd:heap_handle.obj
 0001:0008a2c0       __get_heap_handle          1008b2c0 f   libucrtd:heap_handle.obj
 0001:0008a300       ___acrt_execute_initializers 1008b300 f   libucrtd:shared_initialization.obj
 0001:0008a3b0       ___acrt_execute_uninitializers 1008b3b0 f   libucrtd:shared_initialization.obj
 0001:0008a410       ??$__crt_fast_decode_pointer@P6AHPAU_exception@@@Z@@YAP6AHPAU_exception@@@ZQ6AH0@Z@Z 1008b410 f i libucrtd:matherr.obj
 0001:0008a440       ??$__crt_fast_encode_pointer@P6AHPAU_exception@@@Z@@YAP6AHPAU_exception@@@ZQ6AH0@Z@Z 1008b440 f i libucrtd:matherr.obj
 0001:0008a470       ?initialize@?$dual_state_global@P6AHPAU_exception@@@Z@__crt_state_management@@QAEXQ6AHPAU_exception@@@Z@Z 1008b470 f i libucrtd:matherr.obj
 0001:0008a4b0       ?value@?$dual_state_global@P6AHPAU_exception@@@Z@__crt_state_management@@QAEAAP6AHPAU_exception@@@ZXZ 1008b4b0 f i libucrtd:matherr.obj
 0001:0008a4d0       ___acrt_has_user_matherr   1008b4d0 f   libucrtd:matherr.obj
 0001:0008a510       ___acrt_initialize_user_matherr 1008b510 f   libucrtd:matherr.obj
 0001:0008a530       ___acrt_invoke_user_matherr 1008b530 f   libucrtd:matherr.obj
 0001:0008a580       ___setusermatherr          1008b580 f   libucrtd:matherr.obj
 0001:0008a5c0       __free_base                1008b5c0 f   libucrtd:free_base.obj
 0001:0008a670       __expand                   1008b670 f   libucrtd:expand.obj
 0001:0008a690       __expand_base              1008b690 f   libucrtd:expand.obj
 0001:0008a7c0       ?value@?$dual_state_global@J@__crt_state_management@@QAEAAJXZ 1008b7c0 f i libucrtd:new_mode.obj
 0001:0008a7e0       __query_new_mode           1008b7e0 f   libucrtd:new_mode.obj
 0001:0008a800       __set_new_mode             1008b800 f   libucrtd:new_mode.obj
 0001:0008a8a0       __CrtDefaultAllocHook      1008b8a0 f   libucrtd:debug_heap_hook.obj
 0001:0008a8ac       __mbsdec                   1008b8ac f   libucrtd:mbsdec.obj
 0001:0008a8c3       __mbsdec_l                 1008b8c3 f   libucrtd:mbsdec.obj
 0001:0008adb0       _strncpy_s                 1008bdb0 f   libucrtd:strncpy_s.obj
 0001:0008af80       ___acrt_report_runtime_error 1008bf80 f   libucrtd:report_runtime_error.obj
 0001:0008b170       __query_app_type           1008c170 f   libucrtd:report_runtime_error.obj
 0001:0008b180       __set_app_type             1008c180 f   libucrtd:report_runtime_error.obj
 0001:0008b190       __iswctype_l               1008c190 f   libucrtd:iswctype.obj
 0001:0008b1b0       _iswctype                  1008c1b0 f   libucrtd:iswctype.obj
 0001:0008b220       ___iswcsym                 1008c220 f i libucrtd:_wctype.obj
 0001:0008b260       ___iswcsymf                1008c260 f i libucrtd:_wctype.obj
 0001:0008b2a0       __isleadbyte_l             1008c2a0 f i libucrtd:_wctype.obj
 0001:0008b2f0       __iswalnum_l               1008c2f0 f i libucrtd:_wctype.obj
 0001:0008b310       __iswalpha_l               1008c310 f i libucrtd:_wctype.obj
 0001:0008b330       __iswblank_l               1008c330 f i libucrtd:_wctype.obj
 0001:0008b370       __iswcntrl_l               1008c370 f i libucrtd:_wctype.obj
 0001:0008b390       __iswcsym_l                1008c390 f i libucrtd:_wctype.obj
 0001:0008b3d0       __iswcsymf_l               1008c3d0 f i libucrtd:_wctype.obj
 0001:0008b410       __iswdigit_l               1008c410 f i libucrtd:_wctype.obj
 0001:0008b430       __iswgraph_l               1008c430 f i libucrtd:_wctype.obj
 0001:0008b450       __iswlower_l               1008c450 f i libucrtd:_wctype.obj
 0001:0008b470       __iswprint_l               1008c470 f i libucrtd:_wctype.obj
 0001:0008b490       __iswpunct_l               1008c490 f i libucrtd:_wctype.obj
 0001:0008b4b0       __iswspace_l               1008c4b0 f i libucrtd:_wctype.obj
 0001:0008b4d0       __iswupper_l               1008c4d0 f i libucrtd:_wctype.obj
 0001:0008b4f0       __iswxdigit_l              1008c4f0 f i libucrtd:_wctype.obj
 0001:0008b510       _isleadbyte                1008c510 f i libucrtd:_wctype.obj
 0001:0008b530       _iswalnum                  1008c530 f i libucrtd:_wctype.obj
 0001:0008b550       _iswalpha                  1008c550 f i libucrtd:_wctype.obj
 0001:0008b570       _iswascii                  1008c570 f i libucrtd:_wctype.obj
 0001:0008b5a0       _iswblank                  1008c5a0 f i libucrtd:_wctype.obj
 0001:0008b5e0       _iswcntrl                  1008c5e0 f i libucrtd:_wctype.obj
 0001:0008b600       _iswdigit                  1008c600 f i libucrtd:_wctype.obj
 0001:0008b620       _iswgraph                  1008c620 f i libucrtd:_wctype.obj
 0001:0008b640       _iswlower                  1008c640 f i libucrtd:_wctype.obj
 0001:0008b660       _iswprint                  1008c660 f i libucrtd:_wctype.obj
 0001:0008b680       _iswpunct                  1008c680 f i libucrtd:_wctype.obj
 0001:0008b6a0       _iswspace                  1008c6a0 f i libucrtd:_wctype.obj
 0001:0008b6c0       _iswupper                  1008c6c0 f i libucrtd:_wctype.obj
 0001:0008b6e0       _iswxdigit                 1008c6e0 f i libucrtd:_wctype.obj
 0001:0008b770       ?__mbrtowc_utf8@__crt_mbstring@@YAIPA_WPBDIPAU_Mbstatet@@@Z 1008c770 f   libucrtd:mbrtowc.obj
 0001:0008b7c0       ?__mbsrtowcs_utf8@__crt_mbstring@@YAIPA_WPAPBDIPAU_Mbstatet@@@Z 1008c7c0 f   libucrtd:mbrtowc.obj
 0001:0008c030       _btowc                     1008d030 f   libucrtd:mbrtowc.obj
 0001:0008c0a0       _mbrlen                    1008d0a0 f   libucrtd:mbrtowc.obj
 0001:0008c0f0       _mbrtowc                   1008d0f0 f   libucrtd:mbrtowc.obj
 0001:0008c180       _mbsrtowcs                 1008d180 f   libucrtd:mbrtowc.obj
 0001:0008c1a0       _mbsrtowcs_s               1008d1a0 f   libucrtd:mbrtowc.obj
 0001:0008c4f0       ??$?RG@__crt_internal_free_policy@@QBEXQBG@Z 1008d4f0 f i libucrtd:initctype.obj
 0001:0008c510       ??$?RJ@__crt_internal_free_policy@@QBEXQBJ@Z 1008d510 f i libucrtd:initctype.obj
 0001:0008c530       ??0?$__crt_unique_heap_ptr@GU__crt_internal_free_policy@@@@QAE@QAG@Z 1008d530 f i libucrtd:initctype.obj
 0001:0008c550       ??0?$__crt_unique_heap_ptr@JU__crt_internal_free_policy@@@@QAE@QAJ@Z 1008d550 f i libucrtd:initctype.obj
 0001:0008c570       ??1?$__crt_unique_heap_ptr@GU__crt_internal_free_policy@@@@QAE@XZ 1008d570 f i libucrtd:initctype.obj
 0001:0008c590       ??1?$__crt_unique_heap_ptr@JU__crt_internal_free_policy@@@@QAE@XZ 1008d590 f i libucrtd:initctype.obj
 0001:0008c5b0       ?detach@?$__crt_unique_heap_ptr@GU__crt_internal_free_policy@@@@QAEPAGXZ 1008d5b0 f i libucrtd:initctype.obj
 0001:0008c5e0       ?detach@?$__crt_unique_heap_ptr@JU__crt_internal_free_policy@@@@QAEPAJXZ 1008d5e0 f i libucrtd:initctype.obj
 0001:0008c610       ?release@?$__crt_unique_heap_ptr@GU__crt_internal_free_policy@@@@QAEXXZ 1008d610 f i libucrtd:initctype.obj
 0001:0008c640       ?release@?$__crt_unique_heap_ptr@JU__crt_internal_free_policy@@@@QAEXXZ 1008d640 f i libucrtd:initctype.obj
 0001:0008c670       ____lc_codepage_func       1008d670 f   libucrtd:initctype.obj
 0001:0008c6b0       ____lc_collate_cp_func     1008d6b0 f   libucrtd:initctype.obj
 0001:0008c6f0       ____lc_locale_name_func    1008d6f0 f   libucrtd:initctype.obj
 0001:0008c730       ____mb_cur_max_func        1008d730 f   libucrtd:initctype.obj
 0001:0008c770       ____mb_cur_max_l_func      1008d770 f   libucrtd:initctype.obj
 0001:0008c7a0       ___acrt_locale_initialize_ctype 1008d7a0 f   libucrtd:initctype.obj
 0001:0008cf20       ?__c32rtomb_utf8@__crt_mbstring@@YAIPAD_UPAU_Mbstatet@@@Z 1008df20 f   libucrtd:c32rtomb.obj
 0001:0008d100       ?reset_and_return@__crt_mbstring@@YAIIPAU_Mbstatet@@@Z 1008e100 f i libucrtd:c32rtomb.obj
 0001:0008d130       ?return_illegal_sequence@__crt_mbstring@@YAIPAU_Mbstatet@@@Z 1008e130 f i libucrtd:c32rtomb.obj
 0001:0008d160       _c32rtomb                  1008e160 f   libucrtd:c32rtomb.obj
 0001:0008d180       ___acrt_add_locale_ref     1008e180 f   libucrtd:locale_refcounting.obj
 0001:0008d290       ___acrt_free_locale        1008e290 f   libucrtd:locale_refcounting.obj
 0001:0008d560       ___acrt_locale_add_lc_time_reference 1008e560 f   libucrtd:locale_refcounting.obj
 0001:0008d5a0       ___acrt_locale_free_lc_time_if_unreferenced 1008e5a0 f   libucrtd:locale_refcounting.obj
 0001:0008d5f0       ___acrt_locale_release_lc_time_reference 1008e5f0 f   libucrtd:locale_refcounting.obj
 0001:0008d620       ___acrt_release_locale_ref 1008e620 f   libucrtd:locale_refcounting.obj
 0001:0008d730       ___acrt_update_thread_locale_data 1008e730 f   libucrtd:locale_refcounting.obj
 0001:0008d800       __updatetlocinfoEx_nolock  1008e800 f   libucrtd:locale_refcounting.obj
 0001:0008d880       ___acrt_fp_strflt_to_string 1008e880 f   libucrtd:_fptostr.obj
 0001:0008e1c0       ??0big_integer@__crt_strtox@@QAE@ABU01@@Z 1008f1c0 f i libucrtd:cfout.obj
 0001:0008e200       ??0big_integer@__crt_strtox@@QAE@XZ 1008f200 f i libucrtd:cfout.obj
 0001:0008e2c0       ??4big_integer@__crt_strtox@@QAEAAU01@ABU01@@Z 1008f2c0 f i libucrtd:cfout.obj
 0001:0008e300       ??8__crt_strtox@@YA_NABUbig_integer@0@0@Z 1008f300 f i libucrtd:cfout.obj
 0001:0008e360       ??9__crt_strtox@@YA_NABUbig_integer@0@0@Z 1008f360 f i libucrtd:cfout.obj
 0001:0008e3a0       ?add_carry@__crt_strtox@@YAIAAIII@Z 1008f3a0 f i libucrtd:cfout.obj
 0001:0008e3e0       ?add_multiply_carry@__crt_strtox@@YAIAAIIII@Z 1008f3e0 f i libucrtd:cfout.obj
 0001:0008e420       ?bit_scan_reverse@__crt_strtox@@YAII@Z 1008f420 f i libucrtd:cfout.obj
 0001:0008e450       ?count_sequential_high_zeroes@__crt_strtox@@YAII@Z 1008f450 f i libucrtd:cfout.obj
 0001:0008e490       ?divide@__crt_strtox@@YA_KAAUbig_integer@1@ABU21@@Z 1008f490 f i libucrtd:cfout.obj
 0001:0008ef10       ?is_zero@__crt_strtox@@YA_NABUbig_integer@1@@Z 1008ff10 f i libucrtd:cfout.obj
 0001:0008ef40       ?make_big_integer@__crt_strtox@@YA?AUbig_integer@1@_K@Z 1008ff40 f i libucrtd:cfout.obj
 0001:0008eff0       ?make_big_integer_power_of_two@__crt_strtox@@YA?AUbig_integer@1@I@Z 1008fff0 f i libucrtd:cfout.obj
 0001:0008f0a0       ?multiply@__crt_strtox@@YA_NAAUbig_integer@1@ABU21@@Z 100900a0 f i libucrtd:cfout.obj
 0001:0008f420       ?multiply@__crt_strtox@@YA_NAAUbig_integer@1@I@Z 10090420 f i libucrtd:cfout.obj
 0001:0008f4f0       ?multiply_64_32@__crt_strtox@@YA_K_KI@Z 100904f0 f i libucrtd:cfout.obj
 0001:0008f510       ?multiply_by_power_of_ten@__crt_strtox@@YA_NAAUbig_integer@1@I@Z 10090510 f i libucrtd:cfout.obj
 0001:0008f6b0       ?multiply_core@__crt_strtox@@YAIQAIII@Z 100906b0 f i libucrtd:cfout.obj
 0001:0008f720       ?shift_left@__crt_strtox@@YA_NAAUbig_integer@1@I@Z 10090720 f i libucrtd:cfout.obj
 0001:0008fa70       ___acrt_fltout             10090a70 f   libucrtd:cfout.obj
 0001:0008fe20       __fcloseall                10090e20 f   libucrtd:closeall.obj
 0001:0008ff50       __isatty                   10090f50 f   libucrtd:isatty.obj
 0001:00090020       ??$?RUlconv@@@__crt_internal_free_policy@@QBEXQBUlconv@@@Z 10091020 f i libucrtd:initmon.obj
 0001:00090040       ??0?$__crt_unique_heap_ptr@Ulconv@@U__crt_internal_free_policy@@@@QAE@QAUlconv@@@Z 10091040 f i libucrtd:initmon.obj
 0001:00090060       ??1?$__crt_unique_heap_ptr@Ulconv@@U__crt_internal_free_policy@@@@QAE@XZ 10091060 f i libucrtd:initmon.obj
 0001:00090080       ?detach@?$__crt_unique_heap_ptr@Ulconv@@U__crt_internal_free_policy@@@@QAEPAUlconv@@XZ 10091080 f i libucrtd:initmon.obj
 0001:000900b0       ?release@?$__crt_unique_heap_ptr@Ulconv@@U__crt_internal_free_policy@@@@QAEXXZ 100910b0 f i libucrtd:initmon.obj
 0001:000900e0       ___acrt_locale_free_monetary 100910e0 f   libucrtd:initmon.obj
 0001:00090290       ___acrt_locale_initialize_monetary 10091290 f   libucrtd:initmon.obj
 0001:00090930       ___acrt_locale_free_numeric 10091930 f   libucrtd:initnum.obj
 0001:000909e0       ___acrt_locale_initialize_numeric 100919e0 f   libucrtd:initnum.obj
 0001:00090e30       ??$?RU__crt_lc_time_data@@@__crt_internal_free_policy@@QBEXQBU__crt_lc_time_data@@@Z 10091e30 f i libucrtd:inittime.obj
 0001:00090f10       ??0?$__crt_unique_heap_ptr@U__crt_lc_time_data@@U__crt_internal_free_policy@@@@QAE@QAU__crt_lc_time_data@@@Z 10091f10 f i libucrtd:inittime.obj
 0001:00090f30       ??1?$__crt_unique_heap_ptr@U__crt_lc_time_data@@U__crt_internal_free_policy@@@@QAE@XZ 10091f30 f i libucrtd:inittime.obj
 0001:00090f50       ??B?$__crt_unique_heap_ptr@U__crt_lc_time_data@@U__crt_internal_free_policy@@@@QBE_NXZ 10091f50 f i libucrtd:inittime.obj
 0001:00090f70       ?detach@?$__crt_unique_heap_ptr@U__crt_lc_time_data@@U__crt_internal_free_policy@@@@QAEPAU__crt_lc_time_data@@XZ 10091f70 f i libucrtd:inittime.obj
 0001:00090fe0       ?get@?$__crt_unique_heap_ptr@U__crt_lc_time_data@@U__crt_internal_free_policy@@@@QBEPAU__crt_lc_time_data@@XZ 10091fe0 f i libucrtd:inittime.obj
 0001:000914b0       ?is_valid@?$__crt_unique_heap_ptr@U__crt_lc_time_data@@U__crt_internal_free_policy@@@@QBE_NXZ 100924b0 f i libucrtd:inittime.obj
 0001:000914e0       ?release@?$__crt_unique_heap_ptr@U__crt_lc_time_data@@U__crt_internal_free_policy@@@@QAEXXZ 100924e0 f i libucrtd:inittime.obj
 0001:00091510       ___acrt_locale_free_time   10092510 f   libucrtd:inittime.obj
 0001:00091660       ___acrt_locale_initialize_time 10092660 f   libucrtd:inittime.obj
 0001:000916e0       ___pctype_func             100926e0 f   libucrtd:ctype.obj
 0001:00091720       ___pwctype_func            10092720 f   libucrtd:ctype.obj
 0001:00091c00       _wcsncat_s                 10092c00 f   libucrtd:wcsncat_s.obj
 0001:00091c20       _wcscmp                    10092c20 f   libucrtd:wcscmp.obj
 0001:00091ca0       _wcscspn                   10092ca0 f   libucrtd:wcscspn.obj
 0001:00091d10       _wcspbrk                   10092d10 f   libucrtd:wcspbrk.obj
 0001:00091d70       ??0?$__crt_scoped_stack_ptr@_W@@QAE@U?$__crt_scoped_stack_ptr_tag@_W@@@Z 10092d70 f i libucrtd:getstringtypea.obj
 0001:00091d90       ??0?$__crt_scoped_stack_ptr_tag@_W@@QAE@QA_W@Z 10092d90 f i libucrtd:getstringtypea.obj
 0001:00091db0       ??1?$__crt_scoped_stack_ptr@_W@@QAE@XZ 10092db0 f i libucrtd:getstringtypea.obj
 0001:00091dd0       ?get@?$__crt_scoped_stack_ptr@_W@@QBEPA_WXZ 10092dd0 f i libucrtd:getstringtypea.obj
 0001:00091df0       __MallocaComputeSize       10092df0 f i libucrtd:getstringtypea.obj
 0001:00091e20       __MarkAllocaS              10092e20 f i libucrtd:getstringtypea.obj
 0001:00091e50       ___acrt_GetStringTypeA     10092e50 f   libucrtd:getstringtypea.obj
 0001:00092000       __freea_crt                10093000 f i libucrtd:getstringtypea.obj
 0001:00092bd0       ___acrt_get_qualified_locale 10093bd0 f   libucrtd:get_qualified_locale.obj
 0001:00093be0       ___acrt_get_qualified_locale_downlevel 10094be0 f   libucrtd:getqloc_downlevel.obj
 0001:00093e80       _localeconv                10094e80 f   libucrtd:localeconv.obj
 0001:00093ec0       ??$?RU__crt_lowio_handle_data@@@__crt_internal_free_policy@@QBEXQBU__crt_lowio_handle_data@@@Z 10094ec0 f i libucrtd:osfinfo.obj
 0001:00093ee0       ??0?$__crt_unique_heap_ptr@U__crt_lowio_handle_data@@U__crt_internal_free_policy@@@@QAE@QAU__crt_lowio_handle_data@@@Z 10094ee0 f i libucrtd:osfinfo.obj
 0001:00093f00       ??1?$__crt_unique_heap_ptr@U__crt_lowio_handle_data@@U__crt_internal_free_policy@@@@QAE@XZ 10094f00 f i libucrtd:osfinfo.obj
 0001:00093f20       ??B?$__crt_unique_heap_ptr@U__crt_lowio_handle_data@@U__crt_internal_free_policy@@@@QBE_NXZ 10094f20 f i libucrtd:osfinfo.obj
 0001:00093f40       ?detach@?$__crt_unique_heap_ptr@U__crt_lowio_handle_data@@U__crt_internal_free_policy@@@@QAEPAU__crt_lowio_handle_data@@XZ 10094f40 f i libucrtd:osfinfo.obj
 0001:00093f70       ?get@?$__crt_unique_heap_ptr@U__crt_lowio_handle_data@@U__crt_internal_free_policy@@@@QBEPAU__crt_lowio_handle_data@@XZ 10094f70 f i libucrtd:osfinfo.obj
 0001:00093f90       ?is_valid@?$__crt_unique_heap_ptr@U__crt_lowio_handle_data@@U__crt_internal_free_policy@@@@QBE_NXZ 10094f90 f i libucrtd:osfinfo.obj
 0001:00093fc0       ?release@?$__crt_unique_heap_ptr@U__crt_lowio_handle_data@@U__crt_internal_free_policy@@@@QAEXXZ 10094fc0 f i libucrtd:osfinfo.obj
 0001:00093ff0       ___acrt_lowio_create_handle_array 10094ff0 f   libucrtd:osfinfo.obj
 0001:00094150       ___acrt_lowio_destroy_handle_array 10095150 f   libucrtd:osfinfo.obj
 0001:000941b0       ___acrt_lowio_ensure_fh_exists 100951b0 f   libucrtd:osfinfo.obj
 0001:00094310       ___acrt_lowio_lock_fh      10095310 f   libucrtd:osfinfo.obj
 0001:00094340       ___acrt_lowio_set_os_handle 10095340 f   libucrtd:osfinfo.obj
 0001:00094410       ___acrt_lowio_unlock_fh    10095410 f   libucrtd:osfinfo.obj
 0001:00094440       __alloc_osfhnd             10095440 f   libucrtd:osfinfo.obj
 0001:00094620       __free_osfhnd              10095620 f   libucrtd:osfinfo.obj
 0001:00094710       __get_osfhandle            10095710 f   libucrtd:osfinfo.obj
 0001:00094890       __open_osfhandle           10095890 f   libucrtd:osfinfo.obj
 0001:00095ba0       __i64toa                   10096ba0 f   libucrtd:xtoa.obj
 0001:00095bf0       __i64toa_s                 10096bf0 f   libucrtd:xtoa.obj
 0001:00095c40       __i64tow                   10096c40 f   libucrtd:xtoa.obj
 0001:00095c90       __i64tow_s                 10096c90 f   libucrtd:xtoa.obj
 0001:00095ce0       __itoa                     10096ce0 f   libucrtd:xtoa.obj
 0001:00095d30       __itoa_s                   10096d30 f   libucrtd:xtoa.obj
 0001:00095d80       __itow                     10096d80 f   libucrtd:xtoa.obj
 0001:00095dd0       __itow_s                   10096dd0 f   libucrtd:xtoa.obj
 0001:00095e20       __ltoa                     10096e20 f   libucrtd:xtoa.obj
 0001:00095e70       __ltoa_s                   10096e70 f   libucrtd:xtoa.obj
 0001:00095ec0       __ltow                     10096ec0 f   libucrtd:xtoa.obj
 0001:00095f10       __ltow_s                   10096f10 f   libucrtd:xtoa.obj
 0001:00095f60       __ui64toa                  10096f60 f   libucrtd:xtoa.obj
 0001:00095f90       __ui64toa_s                10096f90 f   libucrtd:xtoa.obj
 0001:00095fc0       __ui64tow                  10096fc0 f   libucrtd:xtoa.obj
 0001:00095ff0       __ui64tow_s                10096ff0 f   libucrtd:xtoa.obj
 0001:00096020       __ultoa                    10097020 f   libucrtd:xtoa.obj
 0001:00096050       __ultoa_s                  10097050 f   libucrtd:xtoa.obj
 0001:00096080       __ultow                    10097080 f   libucrtd:xtoa.obj
 0001:000960b0       __ultow_s                  100970b0 f   libucrtd:xtoa.obj
 0001:000964c0       __mbstowcs_l               100974c0 f   libucrtd:mbstowcs.obj
 0001:000964e0       __mbstowcs_s_l             100974e0 f   libucrtd:mbstowcs.obj
 0001:000968a0       _mbstowcs                  100978a0 f   libucrtd:mbstowcs.obj
 0001:000968f0       _mbstowcs_s                100978f0 f   libucrtd:mbstowcs.obj
 0001:00096fe0       __wcstombs_l               10097fe0 f   libucrtd:wcstombs.obj
 0001:00097000       __wcstombs_s_l             10098000 f   libucrtd:wcstombs.obj
 0001:00097370       _wcstombs                  10098370 f   libucrtd:wcstombs.obj
 0001:00097390       _wcstombs_s                10098390 f   libucrtd:wcstombs.obj
 0001:000973c0       ___acrt_OutputDebugStringA@4 100983c0 f   libucrtd:outputdebugstringa.obj
 0001:00097450       __malloc_base              10098450 f   libucrtd:malloc_base.obj
 0001:000975e0       ___acrt_DownlevelLCIDToLocaleName 100985e0 f   libucrtd:lcidtoname_downlevel.obj
 0001:000976b0       ___acrt_DownlevelLocaleNameToLCID 100986b0 f   libucrtd:lcidtoname_downlevel.obj
 0001:000976f0       ___ascii_wcsnicmp          100986f0 f   libucrtd:wcsnicmp.obj
 0001:00097780       __towlower_fast_internal   10098780 f i libucrtd:wcsnicmp.obj
 0001:000977c0       __towlower_internal        100987c0 f i libucrtd:wcsnicmp.obj
 0001:00097800       __wcsnicmp                 10098800 f   libucrtd:wcsnicmp.obj
 0001:00097940       __wcsnicmp_l               10098940 f   libucrtd:wcsnicmp.obj
 0001:00097b40       __strnicmp                 10098b40 f   libucrtd:strnicmp.obj
 0001:00097d00       __strnicmp_l               10098d00 f   libucrtd:strnicmp.obj
 0001:00098900       ??$tsopen_nolock@PAHABQAHABQBDABHABHABHABH@?$__crt_char_traits@D@@SAH$$QAPAHABQAHABQBDABH333@Z 10099900 f i libucrtd:open.obj
 0001:00098940       ??$tsopen_nolock@PAHABQAHABQB_WABHABHABHABH@?$__crt_char_traits@_W@@SAH$$QAPAHABQAHABQB_WABH333@Z 10099940 f i libucrtd:open.obj
 0001:00098980       ??$tsopen_nolock@PAHPAHABQBDABHHABHH@?$__crt_char_traits@D@@SAH$$QAPAH0ABQBDABH$$QAH23@Z 10099980 f i libucrtd:open.obj
 0001:000989c0       ??$tsopen_nolock@PAHPAHABQB_WABHHABHH@?$__crt_char_traits@_W@@SAH$$QAPAH0ABQB_WABH$$QAH23@Z 100999c0 f i libucrtd:open.obj
 0001:00099560       __open                     1009a560 f   libucrtd:open.obj
 0001:000995a0       __sopen                    1009a5a0 f   libucrtd:open.obj
 0001:00099610       __sopen_dispatch           1009a610 f   libucrtd:open.obj
 0001:00099640       __sopen_nolock             1009a640 f   libucrtd:open.obj
 0001:000996c0       __sopen_s                  1009a6c0 f   libucrtd:open.obj
 0001:000996f0       __wopen                    1009a6f0 f   libucrtd:open.obj
 0001:00099730       __wsopen                   1009a730 f   libucrtd:open.obj
 0001:000997a0       __wsopen_dispatch          1009a7a0 f   libucrtd:open.obj
 0001:000997d0       __wsopen_nolock            1009a7d0 f   libucrtd:open.obj
 0001:00099d60       __wsopen_s                 1009ad60 f   libucrtd:open.obj
 0001:00099d90       ___p__commode              1009ad90 f   libucrtd:ncommode.obj
 0001:00099fb0       __commit                   1009afb0 f   libucrtd:commit.obj
 0001:0009b670       __utf8_no_of_trailbytes    1009c670 f i libucrtd:write.obj
 0001:0009b690       __write                    1009c690 f   libucrtd:write.obj
 0001:0009b8e0       __write_nolock             1009c8e0 f   libucrtd:write.obj
 0001:0009c4a0       __lseek                    1009d4a0 f   libucrtd:lseek.obj
 0001:0009c4c0       __lseek_nolock             1009d4c0 f   libucrtd:lseek.obj
 0001:0009c4e0       __lseeki64                 1009d4e0 f   libucrtd:lseek.obj
 0001:0009c500       __lseeki64_nolock          1009d500 f   libucrtd:lseek.obj
 0001:0009c520       ___acrt_stdio_allocate_buffer_nolock 1009d520 f   libucrtd:_getbuf.obj
 0001:0009c750       _qsort                     1009d750 f   libucrtd:qsort.obj
 0001:0009cdd0       _strpbrk                   1009ddd0 f   libucrtd:strpbrk.obj
 0001:0009ce10       ??B?$__crt_scoped_stack_ptr@_W@@QBE_NXZ 1009de10 f i libucrtd:lcmapstringa.obj
 0001:0009d200       ___acrt_LCMapStringA       1009e200 f   libucrtd:lcmapstringa.obj
 0001:0009d290       __wcsnicoll                1009e290 f   libucrtd:wcsnicol.obj
 0001:0009d450       __wcsnicoll_l              1009e450 f   libucrtd:wcsnicol.obj
 0001:0009d6a0       __strnicoll                1009e6a0 f   libucrtd:strnicol.obj
 0001:0009d6f0       __strnicoll_l              1009e6f0 f   libucrtd:strnicol.obj
 0001:0009db10       ___acrt_SetEnvironmentVariableA 1009eb10 f   libucrtd:setenvironmentvariablea.obj
 0001:0009dbd0       __set_error_mode           1009ebd0 f   libucrtd:set_error_mode.obj
 0001:0009dc90       ___acrt_GetStringTypeW     1009ec90 f   libucrtd:getstringtypew.obj
 0001:0009dcb0       ?__mbrtoc32_utf8@__crt_mbstring@@YAIPA_UPBDIPAU_Mbstatet@@@Z 1009ecb0 f   libucrtd:mbrtoc32.obj
 0001:0009df80       _mbrtoc32                  1009ef80 f   libucrtd:mbrtoc32.obj
 0001:0009e120       ___acrt_GetLocaleInfoA     1009f120 f   libucrtd:getlocaleinfoa.obj
 0001:0009e4e0       _log10                     1009f4e0 f   libucrtd:log10.obj
 0001:0009e530       _ceil                      1009f530 f   libucrtd:ceil_pentium4.obj
 0001:0009e570       __ceil_pentium4            1009f570 f   libucrtd:ceil_pentium4.obj
 0001:0009e650       _fegetenv                  1009f650 f   libucrtd:fegetenv.obj
 0001:0009e670       _fesetenv                  1009f670 f   libucrtd:fesetenv.obj
 0001:0009e6e0       _feholdexcept              1009f6e0 f   libucrtd:feholdexcept.obj
 0001:0009e750       ___ascii_wcsicmp           1009f750 f   libucrtd:wcsicmp.obj
 0001:0009e7c0       __wcsicmp                  1009f7c0 f   libucrtd:wcsicmp.obj
 0001:0009e900       __wcsicmp_l                1009f900 f   libucrtd:wcsicmp.obj
 0001:0009eae0       ?__wcsrtombs_utf8@__crt_mbstring@@YAIPADPAPB_WIPAU_Mbstatet@@@Z 1009fae0 f   libucrtd:wcrtomb.obj
 0001:0009f2c0       _wcrtomb                   100a02c0 f   libucrtd:wcrtomb.obj
 0001:0009f310       _wcrtomb_s                 100a0310 f   libucrtd:wcrtomb.obj
 0001:0009f430       _wcsrtombs                 100a0430 f   libucrtd:wcrtomb.obj
 0001:0009f450       _wcsrtombs_s               100a0450 f   libucrtd:wcrtomb.obj
 0001:0009f7a0       _wctob                     100a07a0 f   libucrtd:wcrtomb.obj
 0001:0009f820       __towlower_l               100a0820 f   libucrtd:towlower.obj
 0001:0009f920       _towlower                  100a0920 f   libucrtd:towlower.obj
 0001:0009f940       ___ascii_strnicmp          100a0940 f   libucrtd:_strnicm.obj
 0001:0009f9b0       ??$__crt_interlocked_read@H@@YAHPDH@Z 100a09b0 f i libucrtd:setmode.obj
 0001:0009f9d0       ?value@?$dual_state_global@H@__crt_state_management@@QAEAAHXZ 100a09d0 f i libucrtd:setmode.obj
 0001:0009f9f0       __get_fmode                100a09f0 f   libucrtd:setmode.obj
 0001:0009fa90       __set_fmode                100a0a90 f   libucrtd:setmode.obj
 0001:0009fb40       __setmode                  100a0b40 f   libucrtd:setmode.obj
 0001:0009fe00       __setmode_nolock           100a0e00 f   libucrtd:setmode.obj
 0001:000a0160       ??0__crt_seek_guard@@QAE@H_J@Z 100a1160 f i libucrtd:chsize.obj
 0001:000a01d0       ??1__crt_seek_guard@@QAE@XZ 100a11d0 f i libucrtd:chsize.obj
 0001:000a02d0       __chsize                   100a12d0 f   libucrtd:chsize.obj
 0001:000a0310       __chsize_nolock            100a1310 f   libucrtd:chsize.obj
 0001:000a0560       __chsize_s                 100a1560 f   libucrtd:chsize.obj
 0001:000a1160       __read                     100a2160 f   libucrtd:read.obj
 0001:000a1440       __read_nolock              100a2440 f   libucrtd:read.obj
 0001:000a1de0       __umask                    100a2de0 f   libucrtd:umask.obj
 0001:000a1e20       __umask_s                  100a2e20 f   libucrtd:umask.obj
 0001:000a201a       __putwch                   100a301a f   libucrtd:putwch.obj
 0001:000a2047       __putwch_nolock            100a3047 f   libucrtd:putwch.obj
 0001:000a2080       ___strncnt                 100a3080 f   libucrtd:strncnt.obj
 0001:000a20d0       ___acrt_CompareStringW     100a30d0 f   libucrtd:comparestringw.obj
 0001:000a2610       ___acrt_CompareStringA     100a3610 f   libucrtd:comparestringa.obj
 0001:000a2670       ___acrt_initialize_sse2    100a3670 f   libucrtd:mathfcns.obj
 0001:000a2690       __set_SSE2_enable          100a3690 f   libucrtd:mathfcns.obj
 0001:000a26e0       __CIlog10                  100a36e0 f   libucrtd:log10_impl.obj
 0001:000a271b       __CIlog10_default          100a371b f   libucrtd:log10_impl.obj
 0001:000a272f       __log10_default            100a372f     libucrtd:log10_impl.obj
 0001:000a27f0       __CIlog10_pentium4         100a37f0 f   libucrtd:log10_pentium4.obj
 0001:000a2808       __log10_pentium4           100a3808     libucrtd:log10_pentium4.obj
 0001:000a2a80       ___libm_error_support      100a3a80 f   libucrtd:libm_error.obj
 0001:000a3040       ___libm_setusermatherr     100a4040 f   libucrtd:libm_error.obj
 0001:000a3080       __ceil_default             100a4080 f   libucrtd:ceil.obj
 0001:000a31a0       ??$__acrt_fenv_shift_bits@W4__acrt_fenv_abstract_control@@@@YA?AW4__acrt_fenv_abstract_control@@W40@0I@Z 100a41a0 f i libucrtd:_fenvutils.obj
 0001:000a31c0       ??$__acrt_fenv_shift_bits@W4__acrt_fenv_abstract_status@@@@YA?AW4__acrt_fenv_abstract_status@@W40@0I@Z 100a41c0 f i libucrtd:_fenvutils.obj
 0001:000a31e0       ??$__acrt_fenv_translate_bit@W4__acrt_fenv_abstract_control@@W4__acrt_fenv_machine_sse_control@@@@YA?AW4__acrt_fenv_abstract_control@@W4__acrt_fenv_machine_sse_control@@0W40@1@Z 100a41e0 f i libucrtd:_fenvutils.obj
 0001:000a3220       ??$__acrt_fenv_translate_bit@W4__acrt_fenv_abstract_control@@W4__acrt_fenv_machine_x87_control@@@@YA?AW4__acrt_fenv_abstract_control@@W4__acrt_fenv_machine_x87_control@@0W40@1@Z 100a4220 f i libucrtd:_fenvutils.obj
 0001:000a3260       ??$__acrt_fenv_translate_bit@W4__acrt_fenv_abstract_status@@W4__acrt_fenv_machine_sse_status@@@@YA?AW4__acrt_fenv_abstract_status@@W4__acrt_fenv_machine_sse_status@@0W40@1@Z 100a4260 f i libucrtd:_fenvutils.obj
 0001:000a32a0       ??$__acrt_fenv_translate_bit@W4__acrt_fenv_abstract_status@@W4__acrt_fenv_machine_x87_status@@@@YA?AW4__acrt_fenv_abstract_status@@W4__acrt_fenv_machine_x87_status@@0W40@1@Z 100a42a0 f i libucrtd:_fenvutils.obj
 0001:000a32e0       ??$__acrt_fenv_translate_bit@W4__acrt_fenv_machine_sse_control@@W4__acrt_fenv_abstract_control@@@@YA?AW4__acrt_fenv_machine_sse_control@@W4__acrt_fenv_abstract_control@@0W40@1@Z 100a42e0 f i libucrtd:_fenvutils.obj
 0001:000a3320       ??$__acrt_fenv_translate_bit@W4__acrt_fenv_machine_sse_status@@W4__acrt_fenv_abstract_status@@@@YA?AW4__acrt_fenv_machine_sse_status@@W4__acrt_fenv_abstract_status@@0W40@1@Z 100a4320 f i libucrtd:_fenvutils.obj
 0001:000a3360       ??$__acrt_fenv_translate_bit@W4__acrt_fenv_machine_x87_control@@W4__acrt_fenv_abstract_control@@@@YA?AW4__acrt_fenv_machine_x87_control@@W4__acrt_fenv_abstract_control@@0W40@1@Z 100a4360 f i libucrtd:_fenvutils.obj
 0001:000a33a0       ??$__acrt_fenv_translate_bit@W4__acrt_fenv_machine_x87_status@@W4__acrt_fenv_abstract_status@@@@YA?AW4__acrt_fenv_machine_x87_status@@W4__acrt_fenv_abstract_status@@0W40@1@Z 100a43a0 f i libucrtd:_fenvutils.obj
 0001:000a33e0       ??$__acrt_fenv_unshift_bits@W4__acrt_fenv_abstract_control@@@@YA?AW4__acrt_fenv_abstract_control@@W40@0I@Z 100a43e0 f i libucrtd:_fenvutils.obj
 0001:000a3400       ??$__acrt_fenv_unshift_bits@W4__acrt_fenv_abstract_status@@@@YA?AW4__acrt_fenv_abstract_status@@W40@0I@Z 100a4400 f i libucrtd:_fenvutils.obj
 0001:000a3e30       ??I@YA?AW4__acrt_fenv_abstract_control@@W40@0@Z 100a4e30 f i libucrtd:_fenvutils.obj
 0001:000a3e40       ??I@YA?AW4__acrt_fenv_abstract_status@@W40@0@Z 100a4e40 f i libucrtd:_fenvutils.obj
 0001:000a3e50       ??I@YA?AW4__acrt_fenv_machine_sse_control@@W40@0@Z 100a4e50 f i libucrtd:_fenvutils.obj
 0001:000a3e70       ??I@YA?AW4__acrt_fenv_machine_sse_status@@W40@0@Z 100a4e70 f i libucrtd:_fenvutils.obj
 0001:000a3e80       ??I@YA?AW4__acrt_fenv_machine_x87_control@@W40@0@Z 100a4e80 f i libucrtd:_fenvutils.obj
 0001:000a3ea0       ??I@YA?AW4__acrt_fenv_machine_x87_status@@W40@0@Z 100a4ea0 f i libucrtd:_fenvutils.obj
 0001:000a3eb0       ??U@YA?AW4__acrt_fenv_abstract_control@@W40@0@Z 100a4eb0 f i libucrtd:_fenvutils.obj
 0001:000a3ec0       ??U@YA?AW4__acrt_fenv_abstract_status@@W40@0@Z 100a4ec0 f i libucrtd:_fenvutils.obj
 0001:000a3ed0       ??U@YA?AW4__acrt_fenv_machine_sse_control@@W40@0@Z 100a4ed0 f i libucrtd:_fenvutils.obj
 0001:000a3ef0       ??U@YA?AW4__acrt_fenv_machine_x87_control@@W40@0@Z 100a4ef0 f i libucrtd:_fenvutils.obj
 0001:000a3f10       ??_5@YAAAW4__acrt_fenv_abstract_control@@AAW40@W40@@Z 100a4f10 f i libucrtd:_fenvutils.obj
 0001:000a3f30       ??_5@YAAAW4__acrt_fenv_abstract_status@@AAW40@W40@@Z 100a4f30 f i libucrtd:_fenvutils.obj
 0001:000a3f50       ??_5@YAAAW4__acrt_fenv_machine_sse_control@@AAW40@W40@@Z 100a4f50 f i libucrtd:_fenvutils.obj
