 OPOSBillDispenser

 Timestamp is 61a75cfa (Wed Dec  1 20:31:06 2021)

 Preferred load address is 10000000

 Start         Length     Name                   Class
 0001:00000000 00000d90H .text$di                CODE
 0001:00000d90 000b68b0H .text$mn                CODE
 0001:000b7640 00000cb0H .text$x                 CODE
 0001:000b82f0 00000120H .text$yd                CODE
 0002:00000000 00000358H .idata$5                DATA
 0002:00000358 0000000cH .00cfg                  DATA
 0002:00000364 00000004H .CRT$XCA                DATA
 0002:00000368 00000004H .CRT$XCL                DATA
 0002:0000036c 0000006cH .CRT$XCU                DATA
 0002:000003d8 00000004H .CRT$XCZ                DATA
 0002:000003dc 00000004H .CRT$XIA                DATA
 0002:000003e0 00000014H .CRT$XIC                DATA
 0002:000003f4 00000004H .CRT$XIZ                DATA
 0002:000003f8 00000004H .CRT$XLA                DATA
 0002:000003fc 00000004H .CRT$XLZ                DATA
 0002:00000400 00000004H .CRT$XPA                DATA
 0002:00000404 00000008H .CRT$XPX                DATA
 0002:0000040c 00000004H .CRT$XPXA               DATA
 0002:00000410 00000004H .CRT$XPZ                DATA
 0002:00000414 00000004H .CRT$XTA                DATA
 0002:00000418 00000008H .CRT$XTZ                DATA
 0002:0000041c 00000000H .gfids$y                DATA
 0002:00000420 0002f3a0H .rdata                  DATA
 0002:0002f7c0 00000040H .rdata$CastGuardVftablesA DATA
 0002:0002f800 00000040H .rdata$CastGuardVftablesC DATA
 0002:0002f840 00000018H .rdata$T                DATA
 0002:0002f858 0000033cH .rdata$r                DATA
 0002:0002fb94 000001a0H .rdata$sxdata           DATA
 0002:0002fd34 00000160H .rdata$voltmd           DATA
 0002:0002fe94 0000047cH .rdata$zzzdbg           DATA
 0002:00030310 00000004H .rtc$IAA                DATA
 0002:00030314 00000018H .rtc$IMZ                DATA
 0002:0003032c 00000004H .rtc$IZZ                DATA
 0002:00030330 00000004H .rtc$TAA                DATA
 0002:00030334 00000018H .rtc$TMZ                DATA
 0002:0003034c 00000004H .rtc$TZZ                DATA
 0002:00030350 00000004H .tls                    DATA
 0002:00030354 00000004H .tls$                   DATA
 0002:00030358 00000008H .tls$ZZZ                DATA
 0002:00030360 00001a4cH .xdata$x                DATA
 0002:00031dac 00000004H ATL$__a                 DATA
 0002:00031db0 00000010H ATL$__z                 DATA
 0002:00031dc0 000000b0H .edata                  DATA
 0002:00031e70 00000078H .idata$2                DATA
 0002:00031ee8 00000014H .idata$3                DATA
 0002:00031efc 00000358H .idata$4                DATA
 0002:00032254 00000d56H .idata$6                DATA
 0003:00000000 00000bb0H .data                   DATA
 0003:00000bb0 00000080H .data$r                 DATA
 0003:00000c30 000000b8H .data$rs                DATA
 0003:00000ce8 00003580H .bss                    DATA
 0004:00000000 00000220H .rsrc$01                DATA
 0004:00000220 00003e00H .rsrc$02                DATA

  Address         Publics by Value              Rva+Base       Lib:Object

 0000:00000000       ___arm64x_extra_rfe_table  00000000     <absolute>
 0000:00000000       ___AbsoluteZero            00000000     <absolute>
 0000:00000000       ___guard_fids_count        00000000     <absolute>
 0000:00000000       ___guard_eh_cont_count     00000000     <absolute>
 0000:00000000       ___hybrid_auxiliary_iat_copy 00000000     <absolute>
 0000:00000000       ___x64_code_ranges_to_entry_points_count 00000000     <absolute>
 0000:00000000       ___arm64x_extra_rfe_table_size 00000000     <absolute>
 0000:00000000       ___hybrid_code_map_count   00000000     <absolute>
 0000:00000000       ___arm64x_redirection_metadata 00000000     <absolute>
 0000:00000000       ___dynamic_value_reloc_table 00000000     <absolute>
 0000:00000000       ___guard_longjmp_table     00000000     <absolute>
 0000:00000000       ___hybrid_auxiliary_iat    00000000     <absolute>
 0000:00000000       ___guard_iat_count         00000000     <absolute>
 0000:00000000       ___arm64x_redirection_metadata_count 00000000     <absolute>
 0000:00000000       ___guard_check_icall_a64n_fptr 00000000     <absolute>
 0000:00000000       ___guard_eh_cont_table     00000000     <absolute>
 0000:00000000       ___x64_code_ranges_to_entry_points 00000000     <absolute>
 0000:00000000       __except_list              00000000     <absolute>
 0000:00000000       ___guard_iat_table         00000000     <absolute>
 0000:00000000       ___guard_fids_table        00000000     <absolute>
 0000:00000000       ___hybrid_code_map         00000000     <absolute>
 0000:00000000       ___enclave_config          00000000     <absolute>
 0000:00000000       ___guard_longjmp_count     00000000     <absolute>
 0000:00000000       ___arm64x_native_entrypoint 00000000     <absolute>
 0000:0000002c       __tls_array                0000002c     <absolute>
 0000:00000068       ___safe_se_handler_count   00000068     <absolute>
 0000:00000100       ___guard_flags             00000100     <absolute>
 0000:00000000       ___ImageBase               10000000     <linker-defined>
 0001:00000d90       ?_assert@@YAXPB_W0I@Z      10001d90 f   Assert.obj
 0001:00000ec0       ___local_stdio_printf_options 10001ec0 f i Assert.obj
 0001:00000ed0       ___vswprintf_l             10001ed0 f i Assert.obj
 0001:00000f00       __swprintf                 10001f00 f i Assert.obj
 0001:00000f60       __vswprintf_c_l            10001f60 f i Assert.obj
 0001:00000fd0       __vswprintf_l              10001fd0 f i Assert.obj
 0001:00001000       ?cw_memcpy@@YGHPADPB_WH@Z  10002000 f   CWString.obj
 0001:00001060       ?cw_memcpy@@YGHPA_WPBDH@Z  10002060 f   CWString.obj
 0001:000010c0       ?cw_memcpy@@YGHPADPBDH@Z   100020c0 f   CWString.obj
 0001:00001110       ?cw_memcpy@@YGHPA_WPB_WH@Z 10002110 f   CWString.obj
 0001:00001150       ?cw_memset@@YAXPADDH@Z     10002150 f   CWString.obj
 0001:00001170       ?cw_memset@@YAXPA_W_WH@Z   10002170 f   CWString.obj
 0001:00001190       ?cw_strlen@@YAHPBD@Z       10002190 f   CWString.obj
 0001:000011d0       ?cw_strlen@@YAHPB_W@Z      100021d0 f   CWString.obj
 0001:00001210       ?cw_strcpy@@YAHPADPB_W@Z   10002210 f   CWString.obj
 0001:00001230       ?cw_strcpy@@YAHPA_WPBD@Z   10002230 f   CWString.obj
 0001:00001250       ?cw_strcpy@@YAHPADPBD@Z    10002250 f   CWString.obj
 0001:00001270       ?cw_strcpy@@YAHPA_WPB_W@Z  10002270 f   CWString.obj
 0001:00001290       ?cw_strcat@@YAHPADPB_W@Z   10002290 f   CWString.obj
 0001:000012c0       ?cw_strcat@@YAHPA_WPBD@Z   100022c0 f   CWString.obj
 0001:000012f0       ?cw_strcat@@YAHPADPBD@Z    100022f0 f   CWString.obj
 0001:00001320       ?cw_strcat@@YAHPA_WPB_W@Z  10002320 f   CWString.obj
 0001:00001350       ?cw_dup@@YGXPBDAAHAAPA_W1@Z 10002350 f   CWString.obj
 0001:00001410       ?cw_dup@@YGXPB_WAAHAAPAD1@Z 10002410 f   CWString.obj
 0001:000014c0       ?DupChar@_CW@@AAEXXZ       100024c0 f   CWString.obj
 0001:00001510       ?DupWide@_CW@@AAEXXZ       10002510 f   CWString.obj
 0001:00001560       ?GetCharsMbcs@_CW@@QAEHXZ  10002560 f   CWString.obj
 0001:000015c0       ?GetCharsWide@_CW@@QAEHXZ  100025c0 f   CWString.obj
 0001:00001620       ?SetVARIANT_BOOL@OposVariant@@QAEXF@Z 10002620 f   OposVariant.obj
 0001:00001680       ?SetVARIANT_BOOL_Ptr@OposVariant@@QAEXPAFAAJ@Z 10002680 f   OposVariant.obj
 0001:000016d0       ?GetLONG@OposVariant@@QAEJXZ 100026d0 f   OposVariant.obj
 0001:00001760       ?ChangeLONG@OposVariant@@QAEXPAJAAJ@Z 10002760 f   OposVariant.obj
 0001:00001820       ?SetLONG@OposVariant@@QAEXJ@Z 10002820 f   OposVariant.obj
 0001:00001860       ?SetLONG_Ptr@OposVariant@@QAEXPAJAAJ@Z 10002860 f   OposVariant.obj
 0001:000018b0       ?ChangeCURRENCY@OposVariant@@QAEXPATtagCY@@AAJ@Z 100028b0 f   OposVariant.obj
 0001:00001970       ?SetCURRENCY@OposVariant@@QAEXTtagCY@@@Z 10002970 f   OposVariant.obj
 0001:000019b0       ?SetCURRENCY_Ptr@OposVariant@@QAEXPATtagCY@@AAJ@Z 100029b0 f   OposVariant.obj
 0001:00001a00       ?ChangeBSTR@OposVariant@@QAEXPAPA_WAAJ@Z 10002a00 f   OposVariant.obj
 0001:00001ac0       ?SetBSTR@OposVariant@@QAEXPA_WAAJ@Z 10002ac0 f   OposVariant.obj
 0001:00001b10       ?SetBSTR_Copy@OposVariant@@QAEXPA_WAAJ@Z 10002b10 f   OposVariant.obj
 0001:00001bb0       ?SetBSTR_OutPtr@OposVariant@@QAE_NPAPA_WAAJ@Z 10002bb0 f   OposVariant.obj
 0001:00001c00       ?SetBSTR_InOutPtr@OposVariant@@QAE_NPAPA_WAAJ@Z 10002c00 f   OposVariant.obj
 0001:00001c50       ?SetVARIANT@OposVariant@@QAEXAAUtagVARIANT@@GAAJ@Z 10002c50 f   OposVariant.obj
 0001:00001cd0       ?SetVARIANT_Ptr@OposVariant@@QAEXAAPAUtagVARIANT@@GAAJ@Z 10002cd0 f   OposVariant.obj
 0001:00001d70       ?SetString@OposVariant@@QAEXPB_WAAJ@Z 10002d70 f   OposVariant.obj
 0001:00001e00       ?SetDispatch_Ptr@OposVariant@@QAEXPAUIDispatch@@AAJ@Z 10002e00 f   OposVariant.obj
 0001:00001e70       ??0OposDispParms@@QAE@PAVOposVariant@@H@Z 10002e70 f   OposVariant.obj
 0001:00001f40       ??1OposDispParms@@QAE@XZ   10002f40 f   OposVariant.obj
 0001:00001f90       ??$AtlMultiply@I@ATL@@YAJPAIII@Z 10002f90 f i OposVariant.obj
 0001:00001ff0       ??0?$CHeapPtr@_WVCCRTAllocator@ATL@@@ATL@@QAE@XZ 10002ff0 f i OposVariant.obj
 0001:00002020       ??0?$CHeapPtrBase@_WVCCRTAllocator@ATL@@@ATL@@IAE@XZ 10003020 f i OposVariant.obj
 0001:00002040       ??0?$CSimpleArray@GV?$CSimpleArrayEqualHelper@G@ATL@@@ATL@@QAE@XZ 10003040 f i OposVariant.obj
 0001:00002070       ??0?$CTraceCategoryEx@$00$0A@@ATL@@QAE@PB_W@Z 10003070 f i OposVariant.obj
 0001:000020a0       ??0?$CTraceCategoryEx@$01$0A@@ATL@@QAE@PB_W@Z 100030a0 f i OposVariant.obj
 0001:000020d0       ??0?$CTraceCategoryEx@$03$0A@@ATL@@QAE@PB_W@Z 100030d0 f i OposVariant.obj
 0001:00002100       ??0?$CTraceCategoryEx@$07$0A@@ATL@@QAE@PB_W@Z 10003100 f i OposVariant.obj
 0001:00002130       ??0?$CTraceCategoryEx@$0BA@$0A@@ATL@@QAE@PB_W@Z 10003130 f i OposVariant.obj
 0001:00002160       ??0?$CTraceCategoryEx@$0BAA@$0A@@ATL@@QAE@PB_W@Z 10003160 f i OposVariant.obj
 0001:000021a0       ??0?$CTraceCategoryEx@$0BAAA@$0A@@ATL@@QAE@PB_W@Z 100031a0 f i OposVariant.obj
 0001:000021e0       ??0?$CTraceCategoryEx@$0BAAAA@$0A@@ATL@@QAE@PB_W@Z 100031e0 f i OposVariant.obj
 0001:00002220       ??0?$CTraceCategoryEx@$0BAAAAA@$0A@@ATL@@QAE@PB_W@Z 10003220 f i OposVariant.obj
 0001:00002260       ??0?$CTraceCategoryEx@$0CA@$0A@@ATL@@QAE@PB_W@Z 10003260 f i OposVariant.obj
 0001:00002290       ??0?$CTraceCategoryEx@$0CAA@$0A@@ATL@@QAE@PB_W@Z 10003290 f i OposVariant.obj
 0001:000022d0       ??0?$CTraceCategoryEx@$0CAAA@$0A@@ATL@@QAE@PB_W@Z 100032d0 f i OposVariant.obj
 0001:00002310       ??0?$CTraceCategoryEx@$0CAAAA@$0A@@ATL@@QAE@PB_W@Z 10003310 f i OposVariant.obj
 0001:00002350       ??0?$CTraceCategoryEx@$0CAAAAA@$0A@@ATL@@QAE@PB_W@Z 10003350 f i OposVariant.obj
 0001:00002390       ??0?$CTraceCategoryEx@$0EA@$0A@@ATL@@QAE@PB_W@Z 10003390 f i OposVariant.obj
 0001:000023c0       ??0?$CTraceCategoryEx@$0EAA@$0A@@ATL@@QAE@PB_W@Z 100033c0 f i OposVariant.obj
 0001:00002400       ??0?$CTraceCategoryEx@$0EAAA@$0A@@ATL@@QAE@PB_W@Z 10003400 f i OposVariant.obj
 0001:00002440       ??0?$CTraceCategoryEx@$0EAAAA@$0A@@ATL@@QAE@PB_W@Z 10003440 f i OposVariant.obj
 0001:00002480       ??0?$CTraceCategoryEx@$0EAAAAA@$0A@@ATL@@QAE@PB_W@Z 10003480 f i OposVariant.obj
 0001:000024c0       ??0?$CTraceCategoryEx@$0IA@$0A@@ATL@@QAE@PB_W@Z 100034c0 f i OposVariant.obj
 0001:00002500       ??0?$CTraceCategoryEx@$0IAA@$0A@@ATL@@QAE@PB_W@Z 10003500 f i OposVariant.obj
 0001:00002540       ??0?$CTraceCategoryEx@$0IAAA@$0A@@ATL@@QAE@PB_W@Z 10003540 f i OposVariant.obj
 0001:00002580       ??0?$CTraceCategoryEx@$0IAAAA@$0A@@ATL@@QAE@PB_W@Z 10003580 f i OposVariant.obj
 0001:000025c0       ??0CAtlComModule@ATL@@QAE@XZ 100035c0 f i OposVariant.obj
 0001:000026a0       ??0CAtlWinModule@ATL@@QAE@XZ 100036a0 f i OposVariant.obj
 0001:00002730       ??0CComCriticalSection@ATL@@QAE@XZ 10003730 f i OposVariant.obj
 0001:00002760       ??0CPreserveLastError@ATL@@QAE@XZ 10003760 f i OposVariant.obj
 0001:000027a0       ??0CTraceFileAndLineInfo@ATL@@QAE@PBDH@Z 100037a0 f i OposVariant.obj
 0001:000027d0       ??0_ATL_COM_MODULE70@ATL@@QAE@XZ 100037d0 f i OposVariant.obj
 0001:00002800       ??0_ATL_WIN_MODULE70@ATL@@QAE@XZ 10003800 f i OposVariant.obj
 0001:00002840       ??1?$CHeapPtr@_WVCCRTAllocator@ATL@@@ATL@@QAE@XZ 10003840 f i OposVariant.obj
 0001:00002870       ??1?$CHeapPtrBase@_WVCCRTAllocator@ATL@@@ATL@@QAE@XZ 10003870 f i OposVariant.obj
 0001:000028a0       ??1?$CSimpleArray@GV?$CSimpleArrayEqualHelper@G@ATL@@@ATL@@QAE@XZ 100038a0 f i OposVariant.obj
 0001:000028d0       ??1CAtlComModule@ATL@@QAE@XZ 100038d0 f i OposVariant.obj
 0001:00002900       ??1CAtlWinModule@ATL@@QAE@XZ 10003900 f i OposVariant.obj
 0001:00002930       ??1CComBSTR@ATL@@QAE@XZ    10003930 f i OposVariant.obj
 0001:00002970       ??1CComCriticalSection@ATL@@QAE@XZ 10003970 f i OposVariant.obj
 0001:00002980       ??1CPreserveLastError@ATL@@QAE@XZ 10003980 f i OposVariant.obj
 0001:000029c0       ??1_ATL_COM_MODULE70@ATL@@QAE@XZ 100039c0 f i OposVariant.obj
 0001:000029f0       ??1_ATL_WIN_MODULE70@ATL@@QAE@XZ 100039f0 f i OposVariant.obj
 0001:00002a30       ??1stringdispid@CComTypeInfoHolder@ATL@@QAE@XZ 10003a30 f i OposVariant.obj
 0001:00002a60       ??A?$CSimpleArray@GV?$CSimpleArrayEqualHelper@G@ATL@@@ATL@@QAEAAGH@Z 10003a60 f i OposVariant.obj
 0001:00002ae0       ??B?$CHeapPtrBase@_WVCCRTAllocator@ATL@@@ATL@@QBEPA_WXZ 10003ae0 f i OposVariant.obj
 0001:00002af0       ??B?$CTraceCategoryEx@$01$0A@@ATL@@QAEIXZ 10003af0 f i OposVariant.obj
 0001:00002b00       ??B?$CTraceCategoryEx@$0CA@$0A@@ATL@@QAEIXZ 10003b00 f i OposVariant.obj
 0001:00002b10       ??RCTraceFileAndLineInfo@ATL@@QBAXHIPB_WZZ 10003b10 f i OposVariant.obj
 0001:00002bb0       ??_Estringdispid@CComTypeInfoHolder@ATL@@QAEPAXI@Z 10003bb0 f i OposVariant.obj
 0001:00002c40       ??_H@YGXPAXIIP6EPAX0@Z@Z   10003c40 f i OposVariant.obj
 0001:00002cb0       ??_I@YGXPAXIIP6EX0@Z@Z     10003cb0 f i OposVariant.obj
 0001:00002d30       ?Allocate@?$CHeapPtr@_WVCCRTAllocator@ATL@@@ATL@@QAE_NI@Z 10003d30 f i OposVariant.obj
 0001:00002dc0       ?Allocate@CCRTAllocator@ATL@@SAPAXI@Z 10003dc0 f i OposVariant.obj
 0001:00002de0       ?AllocateBytes@?$CHeapPtrBase@_WVCCRTAllocator@ATL@@@ATL@@QAE_NI@Z 10003de0 f i OposVariant.obj
 0001:00002e50       ?AtlWinModuleInit@ATL@@YGJPAU_ATL_WIN_MODULE70@1@@Z 10003e50 f i OposVariant.obj
 0001:00002f20       ?AtlWinModuleTerm@ATL@@YGJPAU_ATL_WIN_MODULE70@1@PAUHINSTANCE__@@@Z 10003f20 f i OposVariant.obj
 0001:00002fe0       ?Clear@OposVariant@@QAEJXZ 10003fe0 f i OposVariant.obj
 0001:00003020       ?Free@?$CHeapPtrBase@_WVCCRTAllocator@ATL@@@ATL@@QAEXXZ 10004020 f i OposVariant.obj
 0001:00003060       ?Free@CCRTAllocator@ATL@@SAXPAX@Z 10004060 f i OposVariant.obj
 0001:00003080       ?GetCategoryName@CTrace@ATL@@CAPA_WI@Z 10004080 f i OposVariant.obj
 0001:000030d0       ?GetModuleInstance@CAtlBaseModule@ATL@@QAEPAUHINSTANCE__@@XZ 100040d0 f i OposVariant.obj
 0001:000030f0       ?GetSize@?$CSimpleArray@GV?$CSimpleArrayEqualHelper@G@ATL@@@ATL@@QBEHXZ 100040f0 f i OposVariant.obj
 0001:00003110       ?Init@CComCriticalSection@ATL@@QAEJXZ 10004110 f i OposVariant.obj
 0001:00003170       ?RegisterCategory@CTrace@ATL@@SAXPB_WI@Z 10004170 f i OposVariant.obj
 0001:00003200       ?RemoveAll@?$CSimpleArray@GV?$CSimpleArrayEqualHelper@G@ATL@@@ATL@@QAEXXZ 10004200 f i OposVariant.obj
 0001:00003280       ?Term@CAtlComModule@ATL@@QAEXXZ 10004280 f i OposVariant.obj
 0001:00003340       ?Term@CAtlWinModule@ATL@@QAEXXZ 10004340 f i OposVariant.obj
 0001:00003370       ?Term@CComCriticalSection@ATL@@QAEJXZ 10004370 f i OposVariant.obj
 0001:000033b0       ?TraceV@CTrace@ATL@@CAXPBDHIIPB_W@Z 100043b0 f i OposVariant.obj
 0001:00003630       ?TraceV@CTrace@ATL@@SAXPBDHIIPB_WPAD@Z 10004630 f i OposVariant.obj
 0001:00003770       ?_AtlInitializeCriticalSectionEx@ATL@@YAHPAU_RTL_CRITICAL_SECTION@@KK@Z 10004770 f i OposVariant.obj
 0001:000037a0       ?_AtlRaiseException@ATL@@YAXKK@Z 100047a0 f i OposVariant.obj
 0001:000037d0       _HRESULT_FROM_WIN32        100047d0 f i OposVariant.obj
 0001:00003810       __vswprintf_s_l            10004810 f i OposVariant.obj
 0001:00003880       _swprintf_s                10004880 f i OposVariant.obj
 0001:000038e0       ?ObjectMain@CComObjectRootBase@ATL@@SGX_N@Z 100048e0 f i BillDispenser.obj
 0001:000038f0       ?GetCategoryMap@CComObjectRootBase@ATL@@SAPBU_ATL_CATMAP_ENTRY@2@XZ 100048f0 f i BillDispenser.obj
 0001:00003900       ?GetObjectDescription@?$CComCoClass@VCOPOSBillDispenser@@$1?CLSID_OPOSBillDispenser@@3U_GUID@@B@ATL@@SGPB_WXZ 10004900 f i BillDispenser.obj
 0001:00003910       ?UpdateRegistry@COPOSBillDispenser@@SGJH@Z 10004910 f i BillDispenser.obj
 0001:00003930       ?CreateInstance@?$CComCreator@V?$CComObjectCached@VCComClassFactory@ATL@@@ATL@@@ATL@@SGJPAXABU_GUID@@PAPAX@Z 10004930 f i BillDispenser.obj
 0001:00003ab0       ?CreateInstance@?$CComCreator2@V?$CComCreator@V?$CComObject@VCOPOSBillDispenser@@@ATL@@@ATL@@V?$CComCreator@V?$CComAggObject@VCOPOSBillDispenser@@@ATL@@@2@@ATL@@SGJPAXABU_GUID@@PAPAX@Z 10004ab0 f i BillDispenser.obj
 0001:00003c60       _DllGetClassObject@12      10004c60 f   BillDispenser.obj
 0001:00003c90       _DllCanUnloadNow@0         10004c90 f   BillDispenser.obj
 0001:00003cd0       _DllRegisterServer@0       10004cd0 f   BillDispenser.obj
 0001:00003cf0       _DllUnregisterServer@0     10004cf0 f   BillDispenser.obj
 0001:00003e80       _DllMain@12                10004e80 f   BillDispenser.obj
 0001:00003ee0       ??$?2G@Wrapper@?$CSimpleArray@GV?$CSimpleArrayEqualHelper@G@ATL@@@ATL@@SAPAXIPAG@Z 10004ee0 f i BillDispenser.obj
 0001:00003ef0       ??$?2PA_W@?$Wrapper@PA_W@?$CSimpleMap@PA_WPA_WVCExpansionVectorEqualHelper@ATL@@@ATL@@SAPAXIPAPA_W@Z 10004ef0 f i BillDispenser.obj
 0001:00003f00       ??$?4UITypeInfo2@@@?$CComPtr@UITypeInfo@@@ATL@@QAEPAUITypeInfo@@ABV?$CComPtr@UITypeInfo2@@@1@@Z 10004f00 f i BillDispenser.obj
 0001:00003f60       ??$AtlAdd@K@ATL@@YAJPAKKK@Z 10004f60 f i BillDispenser.obj
 0001:00003fa0       ??$AtlAdd@_K@ATL@@YAJPA_K_K1@Z 10004fa0 f i BillDispenser.obj
 0001:00004010       ??$AtlAddThrow@K@ATL@@YAKKK@Z 10005010 f i BillDispenser.obj
 0001:00004090       ??$AtlModuleRegisterWndClassInfoT@VAtlModuleRegisterWndClassInfoParamW@ATL@@@ATL@@YAGPAU_ATL_BASE_MODULE70@0@PAU_ATL_WIN_MODULE70@0@PAU_ATL_WNDCLASSINFOW@0@PAP6GJPAUHWND__@@IIJ@ZVAtlModuleRegisterWndClassInfoParamW@0@@Z 10005090 f i BillDispenser.obj
 0001:000044a0       ??$AtlMultiply@H@ATL@@YAJPAHHH@Z 100054a0 f i BillDispenser.obj
 0001:00004520       ??$AtlMultiply@K@ATL@@YAJPAKKK@Z 10005520 f i BillDispenser.obj
 0001:00004580       ??$AtlMultiplyThrow@I@ATL@@YAIII@Z 10005580 f i BillDispenser.obj
 0001:00004600       ??$QueryInterface@UIPersistStream@@@IUnknown@@QAGJPAPAUIPersistStream@@@Z 10005600 f i BillDispenser.obj
 0001:00004630       ??$QueryInterface@UITypeInfo2@@@IUnknown@@QAGJPAPAUITypeInfo2@@@Z 10005630 f i BillDispenser.obj
 0001:00004660       ??0?$CAtlModuleT@VCComModule@ATL@@@ATL@@QAE@XZ 10005660 f i BillDispenser.obj
 0001:00004690       ??0?$CAtlSafeAllocBufferManager@VCCRTAllocator@ATL@@@_ATL_SAFE_ALLOCA_IMPL@ATL@@QAE@XZ 10005690 f i BillDispenser.obj
 0001:000046b0       ??0?$CAutoVectorPtr@_W@ATL@@QAE@XZ 100056b0 f i BillDispenser.obj
 0001:000046d0       ??0?$CComAggObject@VCOPOSBillDispenser@@@ATL@@QAE@PAX@Z 100056d0 f i BillDispenser.obj
 0001:00004740       ??0?$CComContainedObject@VCOPOSBillDispenser@@@ATL@@QAE@PAX@Z 10005740 f i BillDispenser.obj
 0001:00004850       ??0?$CComCritSecLock@VCComCriticalSection@ATL@@@ATL@@QAE@AAVCComCriticalSection@1@_N@Z 10005850 f i BillDispenser.obj
 0001:000048b0       ??0?$CComEnum@UIEnumConnectionPoints@@$1?_GUID_b196b285_bab4_101a_b69c_00aa00341d07@@3U__s_GUID@@BPAUIConnectionPoint@@V?$_CopyInterface@UIConnectionPoint@@@ATL@@VCComSingleThreadModel@6@@ATL@@QAE@XZ 100058b0 f i BillDispenser.obj
 0001:000048f0       ??0?$CComEnum@UIEnumConnections@@$1?_GUID_b196b287_bab4_101a_b69c_00aa00341d07@@3U__s_GUID@@BUtagCONNECTDATA@@V?$_Copy@UtagCONNECTDATA@@@ATL@@VCComSingleThreadModel@6@@ATL@@QAE@XZ 100058f0 f i BillDispenser.obj
 0001:00004930       ??0?$CComEnumImpl@UIEnumConnectionPoints@@$1?_GUID_b196b285_bab4_101a_b69c_00aa00341d07@@3U__s_GUID@@BPAUIConnectionPoint@@V?$_CopyInterface@UIConnectionPoint@@@ATL@@@ATL@@QAE@XZ 10005930 f i BillDispenser.obj
 0001:00004990       ??0?$CComEnumImpl@UIEnumConnections@@$1?_GUID_b196b287_bab4_101a_b69c_00aa00341d07@@3U__s_GUID@@BUtagCONNECTDATA@@V?$_Copy@UtagCONNECTDATA@@@ATL@@@ATL@@QAE@XZ 10005990 f i BillDispenser.obj
 0001:000049f0       ??0?$CComObject@V?$CComEnum@UIEnumConnectionPoints@@$1?_GUID_b196b285_bab4_101a_b69c_00aa00341d07@@3U__s_GUID@@BPAUIConnectionPoint@@V?$_CopyInterface@UIConnectionPoint@@@ATL@@VCComSingleThreadModel@6@@ATL@@@ATL@@QAE@PAX@Z 100059f0 f i BillDispenser.obj
 0001:00004a40       ??0?$CComObject@V?$CComEnum@UIEnumConnections@@$1?_GUID_b196b287_bab4_101a_b69c_00aa00341d07@@3U__s_GUID@@BUtagCONNECTDATA@@V?$_Copy@UtagCONNECTDATA@@@ATL@@VCComSingleThreadModel@6@@ATL@@@ATL@@QAE@PAX@Z 10005a40 f i BillDispenser.obj
 0001:00004a90       ??0?$CComObject@VCOPOSBillDispenser@@@ATL@@QAE@PAX@Z 10005a90 f i BillDispenser.obj
 0001:00004bb0       ??0?$CComObjectCached@VCComClassFactory@ATL@@@ATL@@QAE@PAX@Z 10005bb0 f i BillDispenser.obj
 0001:00004bf0       ??0?$CComObjectRootEx@VCComMultiThreadModel@ATL@@@ATL@@QAE@XZ 10005bf0 f i BillDispenser.obj
 0001:00004c30       ??0?$CComObjectRootEx@VCComSingleThreadModel@ATL@@@ATL@@QAE@XZ 10005c30 f i BillDispenser.obj
 0001:00004c60       ??0?$CComPtr@UIAdviseSink@@@ATL@@QAE@PAUIAdviseSink@@@Z 10005c60 f i BillDispenser.obj
 0001:00004c90       ??0?$CComPtr@UICatRegister@@@ATL@@QAE@XZ 10005c90 f i BillDispenser.obj
 0001:00004cc0       ??0?$CComPtr@UIConnectionPoint@@@ATL@@QAE@XZ 10005cc0 f i BillDispenser.obj
 0001:00004cf0       ??0?$CComPtr@UIConnectionPointContainer@@@ATL@@QAE@XZ 10005cf0 f i BillDispenser.obj
 0001:00004d20       ??0?$CComPtr@UIDataObject@@@ATL@@QAE@XZ 10005d20 f i BillDispenser.obj
 0001:00004d50       ??0?$CComPtr@UIDispatch@@@ATL@@QAE@XZ 10005d50 f i BillDispenser.obj
 0001:00004d80       ??0?$CComPtr@UIOleClientSite@@@ATL@@QAE@PAUIOleClientSite@@@Z 10005d80 f i BillDispenser.obj
 0001:00004db0       ??0?$CComPtr@UIOleControlSite@@@ATL@@QAE@XZ 10005db0 f i BillDispenser.obj
 0001:00004de0       ??0?$CComPtr@UIOleInPlaceActiveObject@@@ATL@@QAE@XZ 10005de0 f i BillDispenser.obj
 0001:00004e10       ??0?$CComPtr@UIOleInPlaceFrame@@@ATL@@QAE@XZ 10005e10 f i BillDispenser.obj
 0001:00004e40       ??0?$CComPtr@UIOleInPlaceObject@@@ATL@@QAE@XZ 10005e40 f i BillDispenser.obj
 0001:00004e70       ??0?$CComPtr@UIOleInPlaceUIWindow@@@ATL@@QAE@XZ 10005e70 f i BillDispenser.obj
 0001:00004ea0       ??0?$CComPtr@UIOleObject@@@ATL@@QAE@XZ 10005ea0 f i BillDispenser.obj
 0001:00004ed0       ??0?$CComPtr@UIPersistStream@@@ATL@@QAE@XZ 10005ed0 f i BillDispenser.obj
 0001:00004f00       ??0?$CComPtr@UIPersistStreamInit@@@ATL@@QAE@XZ 10005f00 f i BillDispenser.obj
 0001:00004f30       ??0?$CComPtr@UIPointerInactive@@@ATL@@QAE@XZ 10005f30 f i BillDispenser.obj
 0001:00004f60       ??0?$CComPtr@UIProvideClassInfo2@@@ATL@@QAE@XZ 10005f60 f i BillDispenser.obj
 0001:00004f90       ??0?$CComPtr@UISpecifyPropertyPages@@@ATL@@QAE@XZ 10005f90 f i BillDispenser.obj
 0001:00004fc0       ??0?$CComPtr@UIStream@@@ATL@@QAE@XZ 10005fc0 f i BillDispenser.obj
 0001:00004ff0       ??0?$CComPtr@UITypeInfo2@@@ATL@@QAE@XZ 10005ff0 f i BillDispenser.obj
 0001:00005020       ??0?$CComPtr@UITypeInfo@@@ATL@@QAE@ABV01@@Z 10006020 f i BillDispenser.obj
 0001:00005050       ??0?$CComPtr@UITypeInfo@@@ATL@@QAE@XZ 10006050 f i BillDispenser.obj
 0001:00005080       ??0?$CComPtr@UITypeLib@@@ATL@@QAE@XZ 10006080 f i BillDispenser.obj
 0001:000050b0       ??0?$CComPtr@UIUnknown@@@ATL@@QAE@ABV01@@Z 100060b0 f i BillDispenser.obj
 0001:000050e0       ??0?$CComPtr@UIUnknown@@@ATL@@QAE@PAUIUnknown@@@Z 100060e0 f i BillDispenser.obj
 0001:00005110       ??0?$CComPtr@UIUnknown@@@ATL@@QAE@XZ 10006110 f i BillDispenser.obj
 0001:00005140       ??0?$CComPtr@UIViewObjectEx@@@ATL@@QAE@XZ 10006140 f i BillDispenser.obj
 0001:00005170       ??0?$CComPtrBase@UIAdviseSink@@@ATL@@IAE@PAUIAdviseSink@@@Z 10006170 f i BillDispenser.obj
 0001:000051c0       ??0?$CComPtrBase@UICatRegister@@@ATL@@IAE@XZ 100061c0 f i BillDispenser.obj
 0001:000051e0       ??0?$CComPtrBase@UIConnectionPoint@@@ATL@@IAE@XZ 100061e0 f i BillDispenser.obj
 0001:00005200       ??0?$CComPtrBase@UIConnectionPointContainer@@@ATL@@IAE@XZ 10006200 f i BillDispenser.obj
 0001:00005220       ??0?$CComPtrBase@UIDataObject@@@ATL@@IAE@XZ 10006220 f i BillDispenser.obj
 0001:00005240       ??0?$CComPtrBase@UIDispatch@@@ATL@@IAE@XZ 10006240 f i BillDispenser.obj
 0001:00005260       ??0?$CComPtrBase@UIOleClientSite@@@ATL@@IAE@PAUIOleClientSite@@@Z 10006260 f i BillDispenser.obj
 0001:000052b0       ??0?$CComPtrBase@UIOleControlSite@@@ATL@@IAE@XZ 100062b0 f i BillDispenser.obj
 0001:000052d0       ??0?$CComPtrBase@UIOleInPlaceActiveObject@@@ATL@@IAE@XZ 100062d0 f i BillDispenser.obj
 0001:000052f0       ??0?$CComPtrBase@UIOleInPlaceFrame@@@ATL@@IAE@XZ 100062f0 f i BillDispenser.obj
 0001:00005310       ??0?$CComPtrBase@UIOleInPlaceObject@@@ATL@@IAE@XZ 10006310 f i BillDispenser.obj
 0001:00005330       ??0?$CComPtrBase@UIOleInPlaceUIWindow@@@ATL@@IAE@XZ 10006330 f i BillDispenser.obj
 0001:00005350       ??0?$CComPtrBase@UIOleObject@@@ATL@@IAE@XZ 10006350 f i BillDispenser.obj
 0001:00005370       ??0?$CComPtrBase@UIPersistStream@@@ATL@@IAE@XZ 10006370 f i BillDispenser.obj
 0001:00005390       ??0?$CComPtrBase@UIPersistStreamInit@@@ATL@@IAE@XZ 10006390 f i BillDispenser.obj
 0001:000053b0       ??0?$CComPtrBase@UIPointerInactive@@@ATL@@IAE@XZ 100063b0 f i BillDispenser.obj
 0001:000053d0       ??0?$CComPtrBase@UIProvideClassInfo2@@@ATL@@IAE@XZ 100063d0 f i BillDispenser.obj
 0001:000053f0       ??0?$CComPtrBase@UISpecifyPropertyPages@@@ATL@@IAE@XZ 100063f0 f i BillDispenser.obj
 0001:00005410       ??0?$CComPtrBase@UIStream@@@ATL@@IAE@XZ 10006410 f i BillDispenser.obj
 0001:00005430       ??0?$CComPtrBase@UITypeInfo2@@@ATL@@IAE@XZ 10006430 f i BillDispenser.obj
 0001:00005450       ??0?$CComPtrBase@UITypeInfo@@@ATL@@IAE@PAUITypeInfo@@@Z 10006450 f i BillDispenser.obj
 0001:000054a0       ??0?$CComPtrBase@UITypeInfo@@@ATL@@IAE@XZ 100064a0 f i BillDispenser.obj
 0001:000054c0       ??0?$CComPtrBase@UITypeLib@@@ATL@@IAE@XZ 100064c0 f i BillDispenser.obj
 0001:000054e0       ??0?$CComPtrBase@UIUnknown@@@ATL@@IAE@PAUIUnknown@@@Z 100064e0 f i BillDispenser.obj
 0001:00005530       ??0?$CComPtrBase@UIUnknown@@@ATL@@IAE@XZ 10006530 f i BillDispenser.obj
 0001:00005550       ??0?$CComPtrBase@UIViewObjectEx@@@ATL@@IAE@XZ 10006550 f i BillDispenser.obj
 0001:00005570       ??0?$CComQIPtr@UIOleControlSite@@$1?_GUID_b196b289_bab4_101a_b69c_00aa00341d07@@3U__s_GUID@@B@ATL@@QAE@PAUIUnknown@@@Z 10006570 f i BillDispenser.obj
 0001:000055d0       ??0?$CComQIPtr@UIOleObject@@$1?_GUID_00000112_0000_0000_c000_000000000046@@3U__s_GUID@@B@ATL@@QAE@XZ 100065d0 f i BillDispenser.obj
 0001:00005600       ??0?$CComQIPtr@UISpecifyPropertyPages@@$1?_GUID_b196b28b_bab4_101a_b69c_00aa00341d07@@3U__s_GUID@@B@ATL@@QAE@XZ 10006600 f i BillDispenser.obj
 0001:00005630       ??0?$CSimpleMap@PA_WPA_WVCExpansionVectorEqualHelper@ATL@@@ATL@@QAE@XZ 10006630 f i BillDispenser.obj
 0001:00005660       ??0?$CTempBuffer@E$0BAA@VCCRTAllocator@ATL@@@ATL@@QAE@XZ 10006660 f i BillDispenser.obj
 0001:00005680       ??0?$CTempBuffer@_W$0BAA@VCCRTAllocator@ATL@@@ATL@@QAE@XZ 10006680 f i BillDispenser.obj
 0001:000056a0       ??0?$CTempBuffer@_W$0EAA@VCCRTAllocator@ATL@@@ATL@@QAE@XZ 100066a0 f i BillDispenser.obj
 0001:000056c0       ??0?$Wrapper@PA_W@?$CSimpleMap@PA_WPA_WVCExpansionVectorEqualHelper@ATL@@@ATL@@QAE@ABQA_W@Z 100066c0 f i BillDispenser.obj
 0001:000056e0       ??0CAtlModule@ATL@@QAE@XZ  100066e0 f i BillDispenser.obj
 0001:00005800       ??0CComAutoDeleteCriticalSection@ATL@@QAE@XZ 10006800 f i BillDispenser.obj
 0001:00005830       ??0CComBSTR@ATL@@QAE@XZ    10006830 f i BillDispenser.obj
 0001:00005850       ??0CComClassFactory@ATL@@QAE@XZ 10006850 f i BillDispenser.obj
 0001:00005890       ??0CComModule@ATL@@QAE@XZ  10006890 f i BillDispenser.obj
 0001:00005900       ??0CComObjectRootBase@ATL@@QAE@XZ 10006900 f i BillDispenser.obj
 0001:00005920       ??0CComSafeDeleteCriticalSection@ATL@@QAE@XZ 10006920 f i BillDispenser.obj
 0001:00005950       ??0CComVariant@ATL@@QAE@XZ 10006950 f i BillDispenser.obj
 0001:000059a0       ??0CExpansionVector@ATL@@QAE@XZ 100069a0 f i BillDispenser.obj
 0001:000059d0       ??0CParseBuffer@CRegParser@ATL@@QAE@H@Z 100069d0 f i BillDispenser.obj
 0001:00005a40       ??0CRegKey@ATL@@QAE@PAUHKEY__@@@Z 10006a40 f i BillDispenser.obj
 0001:00005a70       ??0CRegKey@ATL@@QAE@PAVCAtlTransactionManager@1@@Z 10006a70 f i BillDispenser.obj
 0001:00005aa0       ??0CRegObject@ATL@@QAE@XZ  10006aa0 f i BillDispenser.obj
 0001:00005ae0       ??0CRegParser@ATL@@QAE@PAVCRegObject@1@@Z 10006ae0 f i BillDispenser.obj
 0001:00005b10       ??0IClassFactory@@QAE@XZ   10006b10 f i BillDispenser.obj
 0001:00005b40       ??0IEnumConnectionPoints@@QAE@XZ 10006b40 f i BillDispenser.obj
 0001:00005b70       ??0IEnumConnections@@QAE@XZ 10006b70 f i BillDispenser.obj
 0001:00005ba0       ??0IRegistrarBase@@QAE@XZ  10006ba0 f i BillDispenser.obj
 0001:00005bd0       ??0IUnknown@@QAE@XZ        10006bd0 f i BillDispenser.obj
 0001:00005be0       ??0ModuleLockHelper@ATL@@QAE@XZ 10006be0 f i BillDispenser.obj
 0001:00005c20       ??0OposVariant@@QAE@XZ     10006c20 f i BillDispenser.obj
 0001:00005c40       ??0Wrapper@?$CSimpleArray@GV?$CSimpleArrayEqualHelper@G@ATL@@@ATL@@QAE@ABG@Z 10006c40 f i BillDispenser.obj
 0001:00005c60       ??0_ATL_MODULE70@ATL@@QAE@XZ 10006c60 f i BillDispenser.obj
 0001:00005c90       ??0_ATL_MSG@ATL@@QAE@PAUHWND__@@IIJH@Z 10006c90 f i BillDispenser.obj
 0001:00005d00       ??0_U_MENUorID@ATL@@QAE@I@Z 10006d00 f i BillDispenser.obj
 0001:00005d20       ??0_U_RECT@ATL@@QAE@AAUtagRECT@@@Z 10006d20 f i BillDispenser.obj
 0001:00005d40       ??0stringdispid@CComTypeInfoHolder@ATL@@QAE@XZ 10006d40 f i BillDispenser.obj
 0001:00005d80       ??1?$CAtlModuleT@VCComModule@ATL@@@ATL@@UAE@XZ 10006d80 f i BillDispenser.obj
 0001:00005db0       ??1?$CAtlSafeAllocBufferManager@VCCRTAllocator@ATL@@@_ATL_SAFE_ALLOCA_IMPL@ATL@@QAE@XZ 10006db0 f i BillDispenser.obj
 0001:00005e00       ??1?$CAutoVectorPtr@_W@ATL@@QAE@XZ 10006e00 f i BillDispenser.obj
 0001:00005e30       ??1?$CComAggObject@VCOPOSBillDispenser@@@ATL@@UAE@XZ 10006e30 f i BillDispenser.obj
 0001:00005ea0       ??1?$CComContainedObject@VCOPOSBillDispenser@@@ATL@@UAE@XZ 10006ea0 f i BillDispenser.obj
 0001:00005ed0       ??1?$CComCritSecLock@VCComCriticalSection@ATL@@@ATL@@QAE@XZ 10006ed0 f i BillDispenser.obj
 0001:00005f00       ??1?$CComEnum@UIEnumConnectionPoints@@$1?_GUID_b196b285_bab4_101a_b69c_00aa00341d07@@3U__s_GUID@@BPAUIConnectionPoint@@V?$_CopyInterface@UIConnectionPoint@@@ATL@@VCComSingleThreadModel@6@@ATL@@UAE@XZ 10006f00 f i BillDispenser.obj
 0001:00005f30       ??1?$CComEnum@UIEnumConnections@@$1?_GUID_b196b287_bab4_101a_b69c_00aa00341d07@@3U__s_GUID@@BUtagCONNECTDATA@@V?$_Copy@UtagCONNECTDATA@@@ATL@@VCComSingleThreadModel@6@@ATL@@UAE@XZ 10006f30 f i BillDispenser.obj
 0001:00005f60       ??1?$CComEnumImpl@UIEnumConnectionPoints@@$1?_GUID_b196b285_bab4_101a_b69c_00aa00341d07@@3U__s_GUID@@BPAUIConnectionPoint@@V?$_CopyInterface@UIConnectionPoint@@@ATL@@@ATL@@UAE@XZ 10006f60 f i BillDispenser.obj
 0001:00005ff0       ??1?$CComEnumImpl@UIEnumConnections@@$1?_GUID_b196b287_bab4_101a_b69c_00aa00341d07@@3U__s_GUID@@BUtagCONNECTDATA@@V?$_Copy@UtagCONNECTDATA@@@ATL@@@ATL@@UAE@XZ 10006ff0 f i BillDispenser.obj
 0001:00006080       ??1?$CComObject@V?$CComEnum@UIEnumConnectionPoints@@$1?_GUID_b196b285_bab4_101a_b69c_00aa00341d07@@3U__s_GUID@@BPAUIConnectionPoint@@V?$_CopyInterface@UIConnectionPoint@@@ATL@@VCComSingleThreadModel@6@@ATL@@@ATL@@UAE@XZ 10007080 f i BillDispenser.obj
 0001:000060e0       ??1?$CComObject@V?$CComEnum@UIEnumConnections@@$1?_GUID_b196b287_bab4_101a_b69c_00aa00341d07@@3U__s_GUID@@BUtagCONNECTDATA@@V?$_Copy@UtagCONNECTDATA@@@ATL@@VCComSingleThreadModel@6@@ATL@@@ATL@@UAE@XZ 100070e0 f i BillDispenser.obj
 0001:00006140       ??1?$CComObject@VCOPOSBillDispenser@@@ATL@@UAE@XZ 10007140 f i BillDispenser.obj
 0001:00006280       ??1?$CComObjectCached@VCComClassFactory@ATL@@@ATL@@UAE@XZ 10007280 f i BillDispenser.obj
 0001:000062d0       ??1?$CComObjectRootEx@VCComMultiThreadModel@ATL@@@ATL@@QAE@XZ 100072d0 f i BillDispenser.obj
 0001:00006300       ??1?$CComObjectRootEx@VCComSingleThreadModel@ATL@@@ATL@@QAE@XZ 10007300 f i BillDispenser.obj
 0001:00006330       ??1?$CComPtr@UIAdviseSink@@@ATL@@QAE@XZ 10007330 f i BillDispenser.obj
 0001:00006360       ??1?$CComPtr@UICatRegister@@@ATL@@QAE@XZ 10007360 f i BillDispenser.obj
 0001:00006390       ??1?$CComPtr@UIConnectionPoint@@@ATL@@QAE@XZ 10007390 f i BillDispenser.obj
 0001:000063c0       ??1?$CComPtr@UIConnectionPointContainer@@@ATL@@QAE@XZ 100073c0 f i BillDispenser.obj
 0001:000063f0       ??1?$CComPtr@UIDataObject@@@ATL@@QAE@XZ 100073f0 f i BillDispenser.obj
 0001:00006420       ??1?$CComPtr@UIDispatch@@@ATL@@QAE@XZ 10007420 f i BillDispenser.obj
 0001:00006450       ??1?$CComPtr@UIOleClientSite@@@ATL@@QAE@XZ 10007450 f i BillDispenser.obj
 0001:00006480       ??1?$CComPtr@UIOleControlSite@@@ATL@@QAE@XZ 10007480 f i BillDispenser.obj
 0001:000064b0       ??1?$CComPtr@UIOleInPlaceActiveObject@@@ATL@@QAE@XZ 100074b0 f i BillDispenser.obj
 0001:000064e0       ??1?$CComPtr@UIOleInPlaceFrame@@@ATL@@QAE@XZ 100074e0 f i BillDispenser.obj
 0001:00006510       ??1?$CComPtr@UIOleInPlaceObject@@@ATL@@QAE@XZ 10007510 f i BillDispenser.obj
 0001:00006540       ??1?$CComPtr@UIOleInPlaceUIWindow@@@ATL@@QAE@XZ 10007540 f i BillDispenser.obj
 0001:00006570       ??1?$CComPtr@UIOleObject@@@ATL@@QAE@XZ 10007570 f i BillDispenser.obj
 0001:000065a0       ??1?$CComPtr@UIPersistStream@@@ATL@@QAE@XZ 100075a0 f i BillDispenser.obj
 0001:000065d0       ??1?$CComPtr@UIPersistStreamInit@@@ATL@@QAE@XZ 100075d0 f i BillDispenser.obj
 0001:00006600       ??1?$CComPtr@UIPointerInactive@@@ATL@@QAE@XZ 10007600 f i BillDispenser.obj
 0001:00006630       ??1?$CComPtr@UIProvideClassInfo2@@@ATL@@QAE@XZ 10007630 f i BillDispenser.obj
 0001:00006660       ??1?$CComPtr@UISpecifyPropertyPages@@@ATL@@QAE@XZ 10007660 f i BillDispenser.obj
 0001:00006690       ??1?$CComPtr@UIStream@@@ATL@@QAE@XZ 10007690 f i BillDispenser.obj
 0001:000066c0       ??1?$CComPtr@UITypeInfo2@@@ATL@@QAE@XZ 100076c0 f i BillDispenser.obj
 0001:000066f0       ??1?$CComPtr@UITypeInfo@@@ATL@@QAE@XZ 100076f0 f i BillDispenser.obj
 0001:00006720       ??1?$CComPtr@UITypeLib@@@ATL@@QAE@XZ 10007720 f i BillDispenser.obj
 0001:00006750       ??1?$CComPtr@UIUnknown@@@ATL@@QAE@XZ 10007750 f i BillDispenser.obj
 0001:00006780       ??1?$CComPtr@UIViewObjectEx@@@ATL@@QAE@XZ 10007780 f i BillDispenser.obj
 0001:000067b0       ??1?$CComPtrBase@UIAdviseSink@@@ATL@@QAE@XZ 100077b0 f i BillDispenser.obj
 0001:00006800       ??1?$CComPtrBase@UICatRegister@@@ATL@@QAE@XZ 10007800 f i BillDispenser.obj
 0001:00006850       ??1?$CComPtrBase@UIConnectionPoint@@@ATL@@QAE@XZ 10007850 f i BillDispenser.obj
 0001:000068a0       ??1?$CComPtrBase@UIConnectionPointContainer@@@ATL@@QAE@XZ 100078a0 f i BillDispenser.obj
 0001:000068f0       ??1?$CComPtrBase@UIDataObject@@@ATL@@QAE@XZ 100078f0 f i BillDispenser.obj
 0001:00006940       ??1?$CComPtrBase@UIDispatch@@@ATL@@QAE@XZ 10007940 f i BillDispenser.obj
 0001:00006990       ??1?$CComPtrBase@UIOleClientSite@@@ATL@@QAE@XZ 10007990 f i BillDispenser.obj
 0001:000069e0       ??1?$CComPtrBase@UIOleControlSite@@@ATL@@QAE@XZ 100079e0 f i BillDispenser.obj
 0001:00006a30       ??1?$CComPtrBase@UIOleInPlaceActiveObject@@@ATL@@QAE@XZ 10007a30 f i BillDispenser.obj
 0001:00006a80       ??1?$CComPtrBase@UIOleInPlaceFrame@@@ATL@@QAE@XZ 10007a80 f i BillDispenser.obj
 0001:00006ad0       ??1?$CComPtrBase@UIOleInPlaceObject@@@ATL@@QAE@XZ 10007ad0 f i BillDispenser.obj
 0001:00006b20       ??1?$CComPtrBase@UIOleInPlaceUIWindow@@@ATL@@QAE@XZ 10007b20 f i BillDispenser.obj
 0001:00006b70       ??1?$CComPtrBase@UIOleObject@@@ATL@@QAE@XZ 10007b70 f i BillDispenser.obj
 0001:00006bc0       ??1?$CComPtrBase@UIPersistStream@@@ATL@@QAE@XZ 10007bc0 f i BillDispenser.obj
 0001:00006c10       ??1?$CComPtrBase@UIPersistStreamInit@@@ATL@@QAE@XZ 10007c10 f i BillDispenser.obj
 0001:00006c60       ??1?$CComPtrBase@UIPointerInactive@@@ATL@@QAE@XZ 10007c60 f i BillDispenser.obj
 0001:00006cb0       ??1?$CComPtrBase@UIProvideClassInfo2@@@ATL@@QAE@XZ 10007cb0 f i BillDispenser.obj
 0001:00006d00       ??1?$CComPtrBase@UISpecifyPropertyPages@@@ATL@@QAE@XZ 10007d00 f i BillDispenser.obj
 0001:00006d50       ??1?$CComPtrBase@UIStream@@@ATL@@QAE@XZ 10007d50 f i BillDispenser.obj
 0001:00006da0       ??1?$CComPtrBase@UITypeInfo2@@@ATL@@QAE@XZ 10007da0 f i BillDispenser.obj
 0001:00006df0       ??1?$CComPtrBase@UITypeInfo@@@ATL@@QAE@XZ 10007df0 f i BillDispenser.obj
 0001:00006e40       ??1?$CComPtrBase@UITypeLib@@@ATL@@QAE@XZ 10007e40 f i BillDispenser.obj
 0001:00006e90       ??1?$CComPtrBase@UIUnknown@@@ATL@@QAE@XZ 10007e90 f i BillDispenser.obj
 0001:00006ee0       ??1?$CComPtrBase@UIViewObjectEx@@@ATL@@QAE@XZ 10007ee0 f i BillDispenser.obj
 0001:00006f30       ??1?$CComQIPtr@UIOleControlSite@@$1?_GUID_b196b289_bab4_101a_b69c_00aa00341d07@@3U__s_GUID@@B@ATL@@QAE@XZ 10007f30 f i BillDispenser.obj
 0001:00006f60       ??1?$CComQIPtr@UIOleObject@@$1?_GUID_00000112_0000_0000_c000_000000000046@@3U__s_GUID@@B@ATL@@QAE@XZ 10007f60 f i BillDispenser.obj
 0001:00006f90       ??1?$CComQIPtr@UISpecifyPropertyPages@@$1?_GUID_b196b28b_bab4_101a_b69c_00aa00341d07@@3U__s_GUID@@B@ATL@@QAE@XZ 10007f90 f i BillDispenser.obj
 0001:00006fc0       ??1?$CSimpleMap@PA_WPA_WVCExpansionVectorEqualHelper@ATL@@@ATL@@QAE@XZ 10007fc0 f i BillDispenser.obj
 0001:00006ff0       ??1?$CTempBuffer@E$0BAA@VCCRTAllocator@ATL@@@ATL@@QAE@XZ 10007ff0 f i BillDispenser.obj
 0001:00007030       ??1?$CTempBuffer@_W$0BAA@VCCRTAllocator@ATL@@@ATL@@QAE@XZ 10008030 f i BillDispenser.obj
 0001:00007070       ??1?$CTempBuffer@_W$0EAA@VCCRTAllocator@ATL@@@ATL@@QAE@XZ 10008070 f i BillDispenser.obj
 0001:000070b0       ??1CAtlModule@ATL@@UAE@XZ  100080b0 f i BillDispenser.obj
 0001:000070e0       ??1CComAutoDeleteCriticalSection@ATL@@QAE@XZ 100080e0 f i BillDispenser.obj
 0001:00007110       ??1CComClassFactory@ATL@@UAE@XZ 10008110 f i BillDispenser.obj
 0001:00007140       ??1CComModule@ATL@@UAE@XZ  10008140 f i BillDispenser.obj
 0001:00007170       ??1CComObjectRootBase@ATL@@QAE@XZ 10008170 f i BillDispenser.obj
 0001:00007180       ??1CComSafeDeleteCriticalSection@ATL@@QAE@XZ 10008180 f i BillDispenser.obj
 0001:000071c0       ??1CComVariant@ATL@@QAE@XZ 100081c0 f i BillDispenser.obj
 0001:00007220       ??1CExpansionVector@ATL@@QAE@XZ 10008220 f i BillDispenser.obj
 0001:00007250       ??1CParseBuffer@CRegParser@ATL@@QAE@XZ 10008250 f i BillDispenser.obj
 0001:00007290       ??1CRegKey@ATL@@QAE@XZ     10008290 f i BillDispenser.obj
 0001:000072c0       ??1CRegObject@ATL@@UAE@XZ  100082c0 f i BillDispenser.obj
 0001:00007300       ??1ModuleLockHelper@ATL@@QAE@XZ 10008300 f i BillDispenser.obj
 0001:00007340       ??1OposVariant@@QAE@XZ     10008340 f i BillDispenser.obj
 0001:00007370       ??1_ATL_MODULE70@ATL@@QAE@XZ 10008370 f i BillDispenser.obj
 0001:000073a0       ??4?$CComPtr@UIAdviseSink@@@ATL@@QAEPAUIAdviseSink@@PAU2@@Z 100083a0 f i BillDispenser.obj
 0001:00007400       ??4?$CComPtr@UIOleClientSite@@@ATL@@QAEPAUIOleClientSite@@PAU2@@Z 10008400 f i BillDispenser.obj
 0001:00007460       ??4?$CComPtr@UIUnknown@@@ATL@@QAEPAUIUnknown@@PAU2@@Z 10008460 f i BillDispenser.obj
 0001:000074c0       ??4?$CComQIPtr@UIOleObject@@$1?_GUID_00000112_0000_0000_c000_000000000046@@3U__s_GUID@@B@ATL@@QAEPAUIOleObject@@PAUIUnknown@@@Z 100084c0 f i BillDispenser.obj
 0001:00007510       ??4?$CComQIPtr@UISpecifyPropertyPages@@$1?_GUID_b196b28b_bab4_101a_b69c_00aa00341d07@@3U__s_GUID@@B@ATL@@QAEPAUISpecifyPropertyPages@@PAUIUnknown@@@Z 10008510 f i BillDispenser.obj
 0001:00007560       ??7?$CComPtrBase@UIOleClientSite@@@ATL@@QBE_NXZ 10008560 f i BillDispenser.obj
 0001:00007590       ??7?$CComPtrBase@UIOleInPlaceSiteWindowless@@@ATL@@QBE_NXZ 10008590 f i BillDispenser.obj
 0001:000075c0       ??7CComBSTR@ATL@@QBE_NXZ   100085c0 f i BillDispenser.obj
 0001:000075f0       ??8?$CComPtrBase@UIConnectionPointContainer@@@ATL@@QBE_NPAUIConnectionPointContainer@@@Z 100085f0 f i BillDispenser.obj
 0001:00007620       ??8?$CComPtrBase@UIDataAdviseHolder@@@ATL@@QBE_NPAUIDataAdviseHolder@@@Z 10008620 f i BillDispenser.obj
 0001:00007650       ??8?$CComPtrBase@UIOleAdviseHolder@@@ATL@@QBE_NPAUIOleAdviseHolder@@@Z 10008650 f i BillDispenser.obj
 0001:00007680       ??8?$CComPtrBase@UIOleClientSite@@@ATL@@QBE_NPAUIOleClientSite@@@Z 10008680 f i BillDispenser.obj
 0001:000076b0       ??8?$CComPtrBase@UIOleControlSite@@@ATL@@QBE_NPAUIOleControlSite@@@Z 100086b0 f i BillDispenser.obj
 0001:000076e0       ??8?$CComPtrBase@UIOleInPlaceObject@@@ATL@@QBE_NPAUIOleInPlaceObject@@@Z 100086e0 f i BillDispenser.obj
 0001:00007710       ??8?$CComPtrBase@UIOleInPlaceSiteWindowless@@@ATL@@QBE_NPAUIOleInPlaceSiteWindowless@@@Z 10008710 f i BillDispenser.obj
 0001:00007740       ??8?$CComPtrBase@UIOleObject@@@ATL@@QBE_NPAUIOleObject@@@Z 10008740 f i BillDispenser.obj
 0001:00007770       ??8?$CComPtrBase@UIPersistStream@@@ATL@@QBE_NPAUIPersistStream@@@Z 10008770 f i BillDispenser.obj
 0001:000077a0       ??8?$CComPtrBase@UIPersistStreamInit@@@ATL@@QBE_NPAUIPersistStreamInit@@@Z 100087a0 f i BillDispenser.obj
 0001:000077d0       ??8?$CComPtrBase@UIPointerInactive@@@ATL@@QBE_NPAUIPointerInactive@@@Z 100087d0 f i BillDispenser.obj
 0001:00007800       ??8?$CComPtrBase@UIUnknown@@@ATL@@QBE_NPAUIUnknown@@@Z 10008800 f i BillDispenser.obj
 0001:00007830       ??8?$CComPtrBase@UIViewObjectEx@@@ATL@@QBE_NPAUIViewObjectEx@@@Z 10008830 f i BillDispenser.obj
 0001:00007860       ??8CComBSTR@ATL@@QBE_NH@Z  10008860 f i BillDispenser.obj
 0001:000078c0       ??9?$CComPtrBase@UIConnectionPointContainer@@@ATL@@QBE_NPAUIConnectionPointContainer@@@Z 100088c0 f i BillDispenser.obj
 0001:00007910       ??9?$CComPtrBase@UIDataAdviseHolder@@@ATL@@QBE_NPAUIDataAdviseHolder@@@Z 10008910 f i BillDispenser.obj
 0001:00007960       ??9?$CComPtrBase@UIOleAdviseHolder@@@ATL@@QBE_NPAUIOleAdviseHolder@@@Z 10008960 f i BillDispenser.obj
 0001:000079b0       ??9?$CComPtrBase@UIOleClientSite@@@ATL@@QBE_NPAUIOleClientSite@@@Z 100089b0 f i BillDispenser.obj
 0001:00007a00       ??9?$CComPtrBase@UIOleControlSite@@@ATL@@QBE_NPAUIOleControlSite@@@Z 10008a00 f i BillDispenser.obj
 0001:00007a50       ??9?$CComPtrBase@UIOleInPlaceObject@@@ATL@@QBE_NPAUIOleInPlaceObject@@@Z 10008a50 f i BillDispenser.obj
 0001:00007aa0       ??9?$CComPtrBase@UIOleInPlaceSiteWindowless@@@ATL@@QBE_NPAUIOleInPlaceSiteWindowless@@@Z 10008aa0 f i BillDispenser.obj
 0001:00007af0       ??9?$CComPtrBase@UIOleObject@@@ATL@@QBE_NPAUIOleObject@@@Z 10008af0 f i BillDispenser.obj
 0001:00007b40       ??9?$CComPtrBase@UIPersistStream@@@ATL@@QBE_NPAUIPersistStream@@@Z 10008b40 f i BillDispenser.obj
 0001:00007b90       ??9?$CComPtrBase@UIPersistStreamInit@@@ATL@@QBE_NPAUIPersistStreamInit@@@Z 10008b90 f i BillDispenser.obj
 0001:00007be0       ??9?$CComPtrBase@UIPointerInactive@@@ATL@@QBE_NPAUIPointerInactive@@@Z 10008be0 f i BillDispenser.obj
 0001:00007c30       ??9?$CComPtrBase@UIUnknown@@@ATL@@QBE_NPAUIUnknown@@@Z 10008c30 f i BillDispenser.obj
 0001:00007c80       ??9?$CComPtrBase@UIViewObjectEx@@@ATL@@QBE_NPAUIViewObjectEx@@@Z 10008c80 f i BillDispenser.obj
 0001:00007cd0       ??9CComBSTR@ATL@@QBE_NH@Z  10008cd0 f i BillDispenser.obj
 0001:00007d20       ??B?$CComPtrBase@UIAdviseSink@@@ATL@@QBEPAUIAdviseSink@@XZ 10008d20 f i BillDispenser.obj
 0001:00007d30       ??B?$CComPtrBase@UIDataAdviseHolder@@@ATL@@QBEPAUIDataAdviseHolder@@XZ 10008d30 f i BillDispenser.obj
 0001:00007d40       ??B?$CComPtrBase@UIDataObject@@@ATL@@QBEPAUIDataObject@@XZ 10008d40 f i BillDispenser.obj
 0001:00007d50       ??B?$CComPtrBase@UIOleAdviseHolder@@@ATL@@QBEPAUIOleAdviseHolder@@XZ 10008d50 f i BillDispenser.obj
 0001:00007d60       ??B?$CComPtrBase@UIOleClientSite@@@ATL@@QBEPAUIOleClientSite@@XZ 10008d60 f i BillDispenser.obj
 0001:00007d70       ??B?$CComPtrBase@UIOleControlSite@@@ATL@@QBEPAUIOleControlSite@@XZ 10008d70 f i BillDispenser.obj
 0001:00007d80       ??B?$CComPtrBase@UIOleInPlaceActiveObject@@@ATL@@QBEPAUIOleInPlaceActiveObject@@XZ 10008d80 f i BillDispenser.obj
 0001:00007d90       ??B?$CComPtrBase@UIOleInPlaceFrame@@@ATL@@QBEPAUIOleInPlaceFrame@@XZ 10008d90 f i BillDispenser.obj
 0001:00007da0       ??B?$CComPtrBase@UIOleInPlaceSiteWindowless@@@ATL@@QBEPAUIOleInPlaceSiteWindowless@@XZ 10008da0 f i BillDispenser.obj
 0001:00007db0       ??B?$CComPtrBase@UIOleInPlaceUIWindow@@@ATL@@QBEPAUIOleInPlaceUIWindow@@XZ 10008db0 f i BillDispenser.obj
 0001:00007dc0       ??B?$CComPtrBase@UIOleObject@@@ATL@@QBEPAUIOleObject@@XZ 10008dc0 f i BillDispenser.obj
 0001:00007dd0       ??B?$CComPtrBase@UIPersistStream@@@ATL@@QBEPAUIPersistStream@@XZ 10008dd0 f i BillDispenser.obj
 0001:00007de0       ??B?$CComPtrBase@UIProvideClassInfo2@@@ATL@@QBEPAUIProvideClassInfo2@@XZ 10008de0 f i BillDispenser.obj
 0001:00007df0       ??B?$CComPtrBase@UISpecifyPropertyPages@@@ATL@@QBEPAUISpecifyPropertyPages@@XZ 10008df0 f i BillDispenser.obj
 0001:00007e00       ??B?$CComPtrBase@UIStream@@@ATL@@QBEPAUIStream@@XZ 10008e00 f i BillDispenser.obj
 0001:00007e10       ??B?$CComPtrBase@UITypeInfo2@@@ATL@@QBEPAUITypeInfo2@@XZ 10008e10 f i BillDispenser.obj
 0001:00007e20       ??B?$CComPtrBase@UITypeInfo@@@ATL@@QBEPAUITypeInfo@@XZ 10008e20 f i BillDispenser.obj
 0001:00007e30       ??B?$CComPtrBase@UITypeLib@@@ATL@@QBEPAUITypeLib@@XZ 10008e30 f i BillDispenser.obj
 0001:00007e40       ??B?$CComPtrBase@UIUnknown@@@ATL@@QBEPAUIUnknown@@XZ 10008e40 f i BillDispenser.obj
 0001:00007e50       ??B?$CTempBuffer@E$0BAA@VCCRTAllocator@ATL@@@ATL@@QBEPAEXZ 10008e50 f i BillDispenser.obj
 0001:00007e60       ??B?$CTempBuffer@_W$0BAA@VCCRTAllocator@ATL@@@ATL@@QBEPA_WXZ 10008e60 f i BillDispenser.obj
 0001:00007e70       ??B?$CTempBuffer@_W$0EAA@VCCRTAllocator@ATL@@@ATL@@QBEPA_WXZ 10008e70 f i BillDispenser.obj
 0001:00007e80       ??B?$CTraceCategoryEx@$00$0A@@ATL@@QAEIXZ 10008e80 f i BillDispenser.obj
 0001:00007e90       ??B?$CTraceCategoryEx@$07$0A@@ATL@@QAEIXZ 10008e90 f i BillDispenser.obj
 0001:00007ea0       ??B?$CTraceCategoryEx@$0CAAA@$0A@@ATL@@QAEIXZ 10008ea0 f i BillDispenser.obj
 0001:00007eb0       ??B?$CTraceCategoryEx@$0EA@$0A@@ATL@@QAEIXZ 10008eb0 f i BillDispenser.obj
 0001:00007ec0       ??B?$CTraceCategoryEx@$0IAA@$0A@@ATL@@QAEIXZ 10008ec0 f i BillDispenser.obj
 0001:00007ed0       ??BCComBSTR@ATL@@QBEPA_WXZ 10008ed0 f i BillDispenser.obj
 0001:00007ee0       ??BCRegKey@ATL@@QBEPAUHKEY__@@XZ 10008ee0 f i BillDispenser.obj
 0001:00007ef0       ??C?$CComPtrBase@UIAdviseSink@@@ATL@@QBEPAV?$_NoAddRefReleaseOnCComPtr@UIAdviseSink@@@1@XZ 10008ef0 f i BillDispenser.obj
 0001:00007f40       ??C?$CComPtrBase@UICatRegister@@@ATL@@QBEPAV?$_NoAddRefReleaseOnCComPtr@UICatRegister@@@1@XZ 10008f40 f i BillDispenser.obj
 0001:00007f90       ??C?$CComPtrBase@UIConnectionPoint@@@ATL@@QBEPAV?$_NoAddRefReleaseOnCComPtr@UIConnectionPoint@@@1@XZ 10008f90 f i BillDispenser.obj
 0001:00007fe0       ??C?$CComPtrBase@UIConnectionPointContainer@@@ATL@@QBEPAV?$_NoAddRefReleaseOnCComPtr@UIConnectionPointContainer@@@1@XZ 10008fe0 f i BillDispenser.obj
 0001:00008030       ??C?$CComPtrBase@UIDataAdviseHolder@@@ATL@@QBEPAV?$_NoAddRefReleaseOnCComPtr@UIDataAdviseHolder@@@1@XZ 10009030 f i BillDispenser.obj
 0001:00008080       ??C?$CComPtrBase@UIOleAdviseHolder@@@ATL@@QBEPAV?$_NoAddRefReleaseOnCComPtr@UIOleAdviseHolder@@@1@XZ 10009080 f i BillDispenser.obj
 0001:000080d0       ??C?$CComPtrBase@UIOleClientSite@@@ATL@@QBEPAV?$_NoAddRefReleaseOnCComPtr@UIOleClientSite@@@1@XZ 100090d0 f i BillDispenser.obj
 0001:00008120       ??C?$CComPtrBase@UIOleControlSite@@@ATL@@QBEPAV?$_NoAddRefReleaseOnCComPtr@UIOleControlSite@@@1@XZ 10009120 f i BillDispenser.obj
 0001:00008170       ??C?$CComPtrBase@UIOleInPlaceFrame@@@ATL@@QBEPAV?$_NoAddRefReleaseOnCComPtr@UIOleInPlaceFrame@@@1@XZ 10009170 f i BillDispenser.obj
 0001:000081c0       ??C?$CComPtrBase@UIOleInPlaceObject@@@ATL@@QBEPAV?$_NoAddRefReleaseOnCComPtr@UIOleInPlaceObject@@@1@XZ 100091c0 f i BillDispenser.obj
 0001:00008210       ??C?$CComPtrBase@UIOleInPlaceSiteWindowless@@@ATL@@QBEPAV?$_NoAddRefReleaseOnCComPtr@UIOleInPlaceSiteWindowless@@@1@XZ 10009210 f i BillDispenser.obj
 0001:00008260       ??C?$CComPtrBase@UIOleInPlaceUIWindow@@@ATL@@QBEPAV?$_NoAddRefReleaseOnCComPtr@UIOleInPlaceUIWindow@@@1@XZ 10009260 f i BillDispenser.obj
 0001:000082b0       ??C?$CComPtrBase@UIOleObject@@@ATL@@QBEPAV?$_NoAddRefReleaseOnCComPtr@UIOleObject@@@1@XZ 100092b0 f i BillDispenser.obj
 0001:00008300       ??C?$CComPtrBase@UIPersistStream@@@ATL@@QBEPAV?$_NoAddRefReleaseOnCComPtr@UIPersistStream@@@1@XZ 10009300 f i BillDispenser.obj
 0001:00008350       ??C?$CComPtrBase@UIPersistStreamInit@@@ATL@@QBEPAV?$_NoAddRefReleaseOnCComPtr@UIPersistStreamInit@@@1@XZ 10009350 f i BillDispenser.obj
 0001:000083a0       ??C?$CComPtrBase@UIPointerInactive@@@ATL@@QBEPAV?$_NoAddRefReleaseOnCComPtr@UIPointerInactive@@@1@XZ 100093a0 f i BillDispenser.obj
 0001:000083f0       ??C?$CComPtrBase@UIProvideClassInfo2@@@ATL@@QBEPAV?$_NoAddRefReleaseOnCComPtr@UIProvideClassInfo2@@@1@XZ 100093f0 f i BillDispenser.obj
 0001:00008440       ??C?$CComPtrBase@UISpecifyPropertyPages@@@ATL@@QBEPAV?$_NoAddRefReleaseOnCComPtr@UISpecifyPropertyPages@@@1@XZ 10009440 f i BillDispenser.obj
 0001:00008490       ??C?$CComPtrBase@UITypeInfo@@@ATL@@QBEPAV?$_NoAddRefReleaseOnCComPtr@UITypeInfo@@@1@XZ 10009490 f i BillDispenser.obj
 0001:000084e0       ??C?$CComPtrBase@UITypeLib@@@ATL@@QBEPAV?$_NoAddRefReleaseOnCComPtr@UITypeLib@@@1@XZ 100094e0 f i BillDispenser.obj
 0001:00008530       ??C?$CComPtrBase@UIUnknown@@@ATL@@QBEPAV?$_NoAddRefReleaseOnCComPtr@UIUnknown@@@1@XZ 10009530 f i BillDispenser.obj
 0001:00008580       ??C?$CComPtrBase@UIViewObjectEx@@@ATL@@QBEPAV?$_NoAddRefReleaseOnCComPtr@UIViewObjectEx@@@1@XZ 10009580 f i BillDispenser.obj
 0001:000085d0       ??I?$CComPtrBase@UICatRegister@@@ATL@@QAEPAPAUICatRegister@@XZ 100095d0 f i BillDispenser.obj
 0001:00008620       ??I?$CComPtrBase@UIConnectionPoint@@@ATL@@QAEPAPAUIConnectionPoint@@XZ 10009620 f i BillDispenser.obj
 0001:00008670       ??I?$CComPtrBase@UIConnectionPointContainer@@@ATL@@QAEPAPAUIConnectionPointContainer@@XZ 10009670 f i BillDispenser.obj
 0001:000086c0       ??I?$CComPtrBase@UIDataAdviseHolder@@@ATL@@QAEPAPAUIDataAdviseHolder@@XZ 100096c0 f i BillDispenser.obj
 0001:00008710       ??I?$CComPtrBase@UIDataObject@@@ATL@@QAEPAPAUIDataObject@@XZ 10009710 f i BillDispenser.obj
 0001:00008760       ??I?$CComPtrBase@UIDispatch@@@ATL@@QAEPAPAUIDispatch@@XZ 10009760 f i BillDispenser.obj
 0001:000087b0       ??I?$CComPtrBase@UIOleAdviseHolder@@@ATL@@QAEPAPAUIOleAdviseHolder@@XZ 100097b0 f i BillDispenser.obj
 0001:00008800       ??I?$CComPtrBase@UIOleControlSite@@@ATL@@QAEPAPAUIOleControlSite@@XZ 10009800 f i BillDispenser.obj
 0001:00008850       ??I?$CComPtrBase@UIOleInPlaceActiveObject@@@ATL@@QAEPAPAUIOleInPlaceActiveObject@@XZ 10009850 f i BillDispenser.obj
 0001:000088a0       ??I?$CComPtrBase@UIOleInPlaceFrame@@@ATL@@QAEPAPAUIOleInPlaceFrame@@XZ 100098a0 f i BillDispenser.obj
 0001:000088f0       ??I?$CComPtrBase@UIOleInPlaceObject@@@ATL@@QAEPAPAUIOleInPlaceObject@@XZ 100098f0 f i BillDispenser.obj
 0001:00008940       ??I?$CComPtrBase@UIOleInPlaceSiteWindowless@@@ATL@@QAEPAPAUIOleInPlaceSiteWindowless@@XZ 10009940 f i BillDispenser.obj
 0001:00008990       ??I?$CComPtrBase@UIOleInPlaceUIWindow@@@ATL@@QAEPAPAUIOleInPlaceUIWindow@@XZ 10009990 f i BillDispenser.obj
 0001:000089e0       ??I?$CComPtrBase@UIOleObject@@@ATL@@QAEPAPAUIOleObject@@XZ 100099e0 f i BillDispenser.obj
 0001:00008a30       ??I?$CComPtrBase@UIPersistStream@@@ATL@@QAEPAPAUIPersistStream@@XZ 10009a30 f i BillDispenser.obj
 0001:00008a80       ??I?$CComPtrBase@UIPointerInactive@@@ATL@@QAEPAPAUIPointerInactive@@XZ 10009a80 f i BillDispenser.obj
 0001:00008ad0       ??I?$CComPtrBase@UIProvideClassInfo2@@@ATL@@QAEPAPAUIProvideClassInfo2@@XZ 10009ad0 f i BillDispenser.obj
 0001:00008b20       ??I?$CComPtrBase@UIStream@@@ATL@@QAEPAPAUIStream@@XZ 10009b20 f i BillDispenser.obj
 0001:00008b70       ??I?$CComPtrBase@UITypeInfo2@@@ATL@@QAEPAPAUITypeInfo2@@XZ 10009b70 f i BillDispenser.obj
 0001:00008bc0       ??I?$CComPtrBase@UITypeInfo@@@ATL@@QAEPAPAUITypeInfo@@XZ 10009bc0 f i BillDispenser.obj
 0001:00008c10       ??I?$CComPtrBase@UITypeLib@@@ATL@@QAEPAPAUITypeLib@@XZ 10009c10 f i BillDispenser.obj
 0001:00008c60       ??I?$CComPtrBase@UIUnknown@@@ATL@@QAEPAPAUIUnknown@@XZ 10009c60 f i BillDispenser.obj
 0001:00008cb0       ??I?$CComPtrBase@UIViewObjectEx@@@ATL@@QAEPAPAUIViewObjectEx@@XZ 10009cb0 f i BillDispenser.obj
 0001:00008d00       ??ICComBSTR@ATL@@QAEPAPA_WXZ 10009d00 f i BillDispenser.obj
 0001:00008d0e       ??_E?$CComContainedObject@VCOPOSBillDispenser@@@ATL@@W3AEPAXI@Z 10009d0e f i BillDispenser.obj
 0001:00008d16       ??_E?$CComContainedObject@VCOPOSBillDispenser@@@ATL@@WEM@AEPAXI@Z 10009d16 f i BillDispenser.obj
 0001:00008d1e       ??_E?$CComObject@VCOPOSBillDispenser@@@ATL@@W3AEPAXI@Z 10009d1e f i BillDispenser.obj
 0001:00008d26       ??_E?$CComObject@VCOPOSBillDispenser@@@ATL@@WEM@AEPAXI@Z 10009d26 f i BillDispenser.obj
 0001:00008d30       ??_E?$CComAggObject@VCOPOSBillDispenser@@@ATL@@UAEPAXI@Z 10009d30 f i BillDispenser.obj
 0001:00008d30       ??_G?$CComAggObject@VCOPOSBillDispenser@@@ATL@@UAEPAXI@Z 10009d30 f i BillDispenser.obj
 0001:00008d80       ??_E?$CComContainedObject@VCOPOSBillDispenser@@@ATL@@UAEPAXI@Z 10009d80 f i BillDispenser.obj
 0001:00008d80       ??_G?$CComContainedObject@VCOPOSBillDispenser@@@ATL@@UAEPAXI@Z 10009d80 f i BillDispenser.obj
 0001:00008dd0       ??_G?$CComObject@V?$CComEnum@UIEnumConnectionPoints@@$1?_GUID_b196b285_bab4_101a_b69c_00aa00341d07@@3U__s_GUID@@BPAUIConnectionPoint@@V?$_CopyInterface@UIConnectionPoint@@@ATL@@VCComSingleThreadModel@6@@ATL@@@ATL@@UAEPAXI@Z 10009dd0 f i BillDispenser.obj
 0001:00008dd0       ??_E?$CComObject@V?$CComEnum@UIEnumConnectionPoints@@$1?_GUID_b196b285_bab4_101a_b69c_00aa00341d07@@3U__s_GUID@@BPAUIConnectionPoint@@V?$_CopyInterface@UIConnectionPoint@@@ATL@@VCComSingleThreadModel@6@@ATL@@@ATL@@UAEPAXI@Z 10009dd0 f i BillDispenser.obj
 0001:00008e10       ??_G?$CComObject@V?$CComEnum@UIEnumConnections@@$1?_GUID_b196b287_bab4_101a_b69c_00aa00341d07@@3U__s_GUID@@BUtagCONNECTDATA@@V?$_Copy@UtagCONNECTDATA@@@ATL@@VCComSingleThreadModel@6@@ATL@@@ATL@@UAEPAXI@Z 10009e10 f i BillDispenser.obj
 0001:00008e10       ??_E?$CComObject@V?$CComEnum@UIEnumConnections@@$1?_GUID_b196b287_bab4_101a_b69c_00aa00341d07@@3U__s_GUID@@BUtagCONNECTDATA@@V?$_Copy@UtagCONNECTDATA@@@ATL@@VCComSingleThreadModel@6@@ATL@@@ATL@@UAEPAXI@Z 10009e10 f i BillDispenser.obj
 0001:00008e50       ??_E?$CComObject@VCOPOSBillDispenser@@@ATL@@UAEPAXI@Z 10009e50 f i BillDispenser.obj
 0001:00008e50       ??_G?$CComObject@VCOPOSBillDispenser@@@ATL@@UAEPAXI@Z 10009e50 f i BillDispenser.obj
 0001:00008ea0       ??_E?$CComObjectCached@VCComClassFactory@ATL@@@ATL@@UAEPAXI@Z 10009ea0 f i BillDispenser.obj
 0001:00008ea0       ??_G?$CComObjectCached@VCComClassFactory@ATL@@@ATL@@UAEPAXI@Z 10009ea0 f i BillDispenser.obj
 0001:00008ee0       ??_ECComClassFactory@ATL@@UAEPAXI@Z 10009ee0 f i BillDispenser.obj
 0001:00008ee0       ??_GCComClassFactory@ATL@@UAEPAXI@Z 10009ee0 f i BillDispenser.obj
 0001:00008f20       ??_ECComModule@ATL@@UAEPAXI@Z 10009f20 f i BillDispenser.obj
 0001:00008f20       ??_GCComModule@ATL@@UAEPAXI@Z 10009f20 f i BillDispenser.obj
 0001:00008f60       ??_GCRegObject@ATL@@UAEPAXI@Z 10009f60 f i BillDispenser.obj
 0001:00008f60       ??_ECRegObject@ATL@@UAEPAXI@Z 10009f60 f i BillDispenser.obj
 0001:00008fa0       ?Add@?$CSimpleArray@GV?$CSimpleArrayEqualHelper@G@ATL@@@ATL@@QAEHABG@Z 10009fa0 f i BillDispenser.obj
 0001:000090f0       ?Add@?$CSimpleMap@PA_WPA_WVCExpansionVectorEqualHelper@ATL@@@ATL@@QAEHABQA_W0@Z 1000a0f0 f i BillDispenser.obj
 0001:000091b0       ?Add@CComDynamicUnkArray@ATL@@QAEKPAUIUnknown@@@Z 1000a1b0 f i BillDispenser.obj
 0001:00009350       ?Add@CExpansionVector@ATL@@QAEHPB_W0@Z 1000a350 f i BillDispenser.obj
 0001:000095e0       ?AddChar@CParseBuffer@CRegParser@ATL@@QAEHPB_W@Z 1000a5e0 f i BillDispenser.obj
 0001:00009620       ?AddCommonRGSReplacements@?$CAtlModuleT@VCComModule@ATL@@@ATL@@UAEJPAUIRegistrarBase@@@Z 1000a620 f i BillDispenser.obj
 0001:00009670       ?AddCreateWndData@CAtlWinModule@ATL@@QAEXPAU_AtlCreateWndData@2@PAX@Z 1000a670 f i BillDispenser.obj
 0001:000096a0       ?AddRef@?$CComAggObject@VCOPOSBillDispenser@@@ATL@@UAGKXZ 1000a6a0 f i BillDispenser.obj
 0001:000096c0       ?AddRef@?$CComContainedObject@VCOPOSBillDispenser@@@ATL@@UAGKXZ 1000a6c0 f i BillDispenser.obj
 0001:000096dc       ?AddRef@?$CComContainedObject@VCOPOSBillDispenser@@@ATL@@WHA@AGKXZ 1000a6dc f i BillDispenser.obj
 0001:000096e6       ?AddRef@?$CComContainedObject@VCOPOSBillDispenser@@@ATL@@WHE@AGKXZ 1000a6e6 f i BillDispenser.obj
 0001:000096f0       ?AddRef@?$CComContainedObject@VCOPOSBillDispenser@@@ATL@@WHI@AGKXZ 1000a6f0 f i BillDispenser.obj
 0001:000096fa       ?AddRef@?$CComContainedObject@VCOPOSBillDispenser@@@ATL@@WHM@AGKXZ 1000a6fa f i BillDispenser.obj
 0001:00009704       ?AddRef@?$CComContainedObject@VCOPOSBillDispenser@@@ATL@@WIA@AGKXZ 1000a704 f i BillDispenser.obj
 0001:00009711       ?AddRef@?$CComContainedObject@VCOPOSBillDispenser@@@ATL@@WIE@AGKXZ 1000a711 f i BillDispenser.obj
 0001:0000971e       ?AddRef@?$CComContainedObject@VCOPOSBillDispenser@@@ATL@@WII@AGKXZ 1000a71e f i BillDispenser.obj
 0001:0000972b       ?AddRef@?$CComContainedObject@VCOPOSBillDispenser@@@ATL@@WIM@AGKXZ 1000a72b f i BillDispenser.obj
 0001:00009738       ?AddRef@?$CComContainedObject@VCOPOSBillDispenser@@@ATL@@WJA@AGKXZ 1000a738 f i BillDispenser.obj
 0001:00009745       ?AddRef@?$CComContainedObject@VCOPOSBillDispenser@@@ATL@@WJE@AGKXZ 1000a745 f i BillDispenser.obj
 0001:00009752       ?AddRef@?$CComContainedObject@VCOPOSBillDispenser@@@ATL@@WJI@AGKXZ 1000a752 f i BillDispenser.obj
 0001:0000975f       ?AddRef@?$CComContainedObject@VCOPOSBillDispenser@@@ATL@@WJM@AGKXZ 1000a75f f i BillDispenser.obj
 0001:0000976c       ?AddRef@?$CComContainedObject@VCOPOSBillDispenser@@@ATL@@WKA@AGKXZ 1000a76c f i BillDispenser.obj
 0001:00009779       ?AddRef@?$CComContainedObject@VCOPOSBillDispenser@@@ATL@@WKI@AGKXZ 1000a779 f i BillDispenser.obj
 0001:00009786       ?AddRef@?$CComContainedObject@VCOPOSBillDispenser@@@ATL@@WLE@AGKXZ 1000a786 f i BillDispenser.obj
 0001:000097a0       ?AddRef@?$CComObject@V?$CComEnum@UIEnumConnectionPoints@@$1?_GUID_b196b285_bab4_101a_b69c_00aa00341d07@@3U__s_GUID@@BPAUIConnectionPoint@@V?$_CopyInterface@UIConnectionPoint@@@ATL@@VCComSingleThreadModel@6@@ATL@@@ATL@@UAGKXZ 1000a7a0 f i BillDispenser.obj
 0001:000097c0       ?AddRef@?$CComObject@V?$CComEnum@UIEnumConnections@@$1?_GUID_b196b287_bab4_101a_b69c_00aa00341d07@@3U__s_GUID@@BUtagCONNECTDATA@@V?$_Copy@UtagCONNECTDATA@@@ATL@@VCComSingleThreadModel@6@@ATL@@@ATL@@UAGKXZ 1000a7c0 f i BillDispenser.obj
 0001:000097e0       ?AddRef@?$CComObject@VCOPOSBillDispenser@@@ATL@@UAGKXZ 1000a7e0 f i BillDispenser.obj
 0001:000097fc       ?AddRef@?$CComObject@VCOPOSBillDispenser@@@ATL@@WHA@AGKXZ 1000a7fc f i BillDispenser.obj
 0001:00009806       ?AddRef@?$CComObject@VCOPOSBillDispenser@@@ATL@@WHE@AGKXZ 1000a806 f i BillDispenser.obj
 0001:00009810       ?AddRef@?$CComObject@VCOPOSBillDispenser@@@ATL@@WHI@AGKXZ 1000a810 f i BillDispenser.obj
 0001:0000981a       ?AddRef@?$CComObject@VCOPOSBillDispenser@@@ATL@@WHM@AGKXZ 1000a81a f i BillDispenser.obj
 0001:00009824       ?AddRef@?$CComObject@VCOPOSBillDispenser@@@ATL@@WIA@AGKXZ 1000a824 f i BillDispenser.obj
 0001:00009831       ?AddRef@?$CComObject@VCOPOSBillDispenser@@@ATL@@WIE@AGKXZ 1000a831 f i BillDispenser.obj
 0001:0000983e       ?AddRef@?$CComObject@VCOPOSBillDispenser@@@ATL@@WII@AGKXZ 1000a83e f i BillDispenser.obj
 0001:0000984b       ?AddRef@?$CComObject@VCOPOSBillDispenser@@@ATL@@WIM@AGKXZ 1000a84b f i BillDispenser.obj
 0001:00009858       ?AddRef@?$CComObject@VCOPOSBillDispenser@@@ATL@@WJA@AGKXZ 1000a858 f i BillDispenser.obj
 0001:00009865       ?AddRef@?$CComObject@VCOPOSBillDispenser@@@ATL@@WJE@AGKXZ 1000a865 f i BillDispenser.obj
 0001:00009872       ?AddRef@?$CComObject@VCOPOSBillDispenser@@@ATL@@WJI@AGKXZ 1000a872 f i BillDispenser.obj
 0001:0000987f       ?AddRef@?$CComObject@VCOPOSBillDispenser@@@ATL@@WJM@AGKXZ 1000a87f f i BillDispenser.obj
 0001:0000988c       ?AddRef@?$CComObject@VCOPOSBillDispenser@@@ATL@@WKA@AGKXZ 1000a88c f i BillDispenser.obj
 0001:00009899       ?AddRef@?$CComObject@VCOPOSBillDispenser@@@ATL@@WKI@AGKXZ 1000a899 f i BillDispenser.obj
 0001:000098a6       ?AddRef@?$CComObject@VCOPOSBillDispenser@@@ATL@@WLE@AGKXZ 1000a8a6 f i BillDispenser.obj
 0001:000098c0       ?AddRef@?$CComObjectCached@VCComClassFactory@ATL@@@ATL@@UAGKXZ 1000a8c0 f i BillDispenser.obj
 0001:00009910       ?AddRef@CRegObject@ATL@@UAGKXZ 1000a910 f i BillDispenser.obj
 0001:00009960       ?AddReplacement@CRegObject@ATL@@UAGJPB_W0@Z 1000a960 f i BillDispenser.obj
 0001:00009a70       ?AddString@CParseBuffer@CRegParser@ATL@@QAEHPB_W@Z 1000aa70 f i BillDispenser.obj
 0001:00009b60       ?AddTermFunc@CAtlModule@ATL@@QAEJP6GXK@ZK@Z 1000ab60 f i BillDispenser.obj
 0001:00009bb0       ?AddValue@CRegParser@ATL@@IAEJAAVCRegKey@2@PB_WPA_W@Z 1000abb0 f i BillDispenser.obj
 0001:0000a340       ?Advise@?$CProxy_IOPOSEvents@VCOPOSBillDispenser@@@@UAGJPAUIUnknown@@PAK@Z 1000b340 f i BillDispenser.obj
 0001:0000a390       ?Advise@?$IConnectionPointImpl@VCOPOSBillDispenser@@$1?DIID__IOPOSBillDispenserEvents@@3U_GUID@@BVCComDynamicUnkArray@ATL@@@ATL@@UAGJPAUIUnknown@@PAK@Z 1000b390 f i BillDispenser.obj
 0001:0000a530       ?Advise@?$IConnectionPointImpl@VCOPOSBillDispenser@@$1?IID_IPropertyNotifySink@@3U_GUID@@BVCComDynamicUnkArray@ATL@@@ATL@@UAGJPAUIUnknown@@PAK@Z 1000b530 f i BillDispenser.obj
 0001:0000a6d0       ?Advise@?$IOleObjectImpl@VCOPOSBillDispenser@@@ATL@@UAGJPAUIAdviseSink@@PAK@Z 1000b6d0 f i BillDispenser.obj
 0001:0000a760       ?Allocate@?$CAtlSafeAllocBufferManager@VCCRTAllocator@ATL@@@_ATL_SAFE_ALLOCA_IMPL@ATL@@QAEPAXK@Z 1000b760 f i BillDispenser.obj
 0001:0000a7d0       ?Allocate@?$CTempBuffer@E$0BAA@VCCRTAllocator@ATL@@@ATL@@QAEPAEI@Z 1000b7d0 f i BillDispenser.obj
 0001:0000a810       ?Allocate@?$CTempBuffer@_W$0BAA@VCCRTAllocator@ATL@@@ATL@@QAEPA_WI@Z 1000b810 f i BillDispenser.obj
 0001:0000a850       ?Allocate@?$CTempBuffer@_W$0EAA@VCCRTAllocator@ATL@@@ATL@@QAEPA_WI@Z 1000b850 f i BillDispenser.obj
 0001:0000a890       ?AllocateBytes@?$CTempBuffer@E$0BAA@VCCRTAllocator@ATL@@@ATL@@QAEPAEI@Z 1000b890 f i BillDispenser.obj
 0001:0000a910       ?AllocateBytes@?$CTempBuffer@_W$0BAA@VCCRTAllocator@ATL@@@ATL@@QAEPA_WI@Z 1000b910 f i BillDispenser.obj
 0001:0000a990       ?AllocateBytes@?$CTempBuffer@_W$0EAA@VCCRTAllocator@ATL@@@ATL@@QAEPA_WI@Z 1000b990 f i BillDispenser.obj
 0001:0000aa10       ?AllocateHeap@?$CTempBuffer@E$0BAA@VCCRTAllocator@ATL@@@ATL@@AAEXI@Z 1000ba10 f i BillDispenser.obj
 0001:0000aa60       ?AllocateHeap@?$CTempBuffer@_W$0BAA@VCCRTAllocator@ATL@@@ATL@@AAEXI@Z 1000ba60 f i BillDispenser.obj
 0001:0000aab0       ?AllocateHeap@?$CTempBuffer@_W$0EAA@VCCRTAllocator@ATL@@@ATL@@AAEXI@Z 1000bab0 f i BillDispenser.obj
 0001:0000ab00       ?Append@CParseBuffer@CRegParser@ATL@@QAEHPB_WH@Z 1000bb00 f i BillDispenser.obj
 0001:0000aca0       ?AtlCallTermFunc@ATL@@YGXPAU_ATL_MODULE70@1@@Z 1000bca0 f i BillDispenser.obj
 0001:0000ad40       ?AtlCoTaskMemCAlloc@ATL@@YAPAXKK@Z 1000bd40 f i BillDispenser.obj
 0001:0000add0       ?AtlCoTaskMemRecalloc@ATL@@YAPAXPAXKK@Z 1000bdd0 f i BillDispenser.obj
 0001:0000ae70       ?AtlComModuleGetClassObject@ATL@@YGJPAU_ATL_COM_MODULE70@1@ABU_GUID@@1PAPAX@Z 1000be70 f i BillDispenser.obj
 0001:0000b100       ?AtlComModuleRegisterServer@ATL@@YGJPAU_ATL_COM_MODULE70@1@HPBU_GUID@@@Z 1000c100 f i BillDispenser.obj
 0001:0000b290       ?AtlComModuleUnregisterServer@ATL@@YGJPAU_ATL_COM_MODULE70@1@HPBU_GUID@@@Z 1000c290 f i BillDispenser.obj
 0001:0000b3c0       ?AtlComQIPtrAssign2@ATL@@YAXPAPAUIUnknown@@PAU2@ABU_GUID@@@Z 1000c3c0 f i BillDispenser.obj
 0001:0000b440       ?AtlCreateTargetDC@ATL@@YGPAUHDC__@@PAU2@PAUtagDVTARGETDEVICE@@@Z 1000c440 f i BillDispenser.obj
 0001:0000b5e0       ?AtlCrtErrorCheck@ATL@@YAHH@Z 1000c5e0 f i BillDispenser.obj
 0001:0000b6b0       ?AtlGetPerUserRegistration@ATL@@YGJPA_N@Z 1000c6b0 f i BillDispenser.obj
 0001:0000b6e0       ?AtlHiMetricToPixel@ATL@@YGXPBUtagSIZE@@PAU2@@Z 1000c6e0 f i BillDispenser.obj
 0001:0000b8b0       ?AtlHresultFromLastError@ATL@@YAJXZ 1000c8b0 f i BillDispenser.obj
 0001:0000b8f0       ?AtlHresultFromWin32@ATL@@YAJK@Z 1000c8f0 f i BillDispenser.obj
 0001:0000b910       ?AtlIPersistStreamInit_Load@ATL@@YGJPAUIStream@@PBUATL_PROPMAP_ENTRY@1@PAXPAUIUnknown@@@Z 1000c910 f i BillDispenser.obj
 0001:0000bd70       ?AtlIPersistStreamInit_Save@ATL@@YGJPAUIStream@@HPBUATL_PROPMAP_ENTRY@1@PAXPAUIUnknown@@@Z 1000cd70 f i BillDispenser.obj
 0001:0000c150       ?AtlInternalOleLoadFromStream@ATL@@YAJPAUIStream@@ABU_GUID@@PAPAXTClassesAllowedInStream@1@K@Z 1000d150 f i BillDispenser.obj
 0001:0000c3f0       ?AtlInternalQueryInterface@ATL@@YGJPAXPBU_ATL_INTMAP_ENTRY@1@ABU_GUID@@PAPAX@Z 1000d3f0 f i BillDispenser.obj
 0001:0000c620       ?AtlLoadTypeLib@ATL@@YGJPAUHINSTANCE__@@PB_WPAPA_WPAPAUITypeLib@@@Z 1000d620 f i BillDispenser.obj
 0001:0000ca80       ?AtlModuleAddTermFunc@ATL@@YGJPAU_ATL_MODULE70@1@P6GXK@ZK@Z 1000da80 f i BillDispenser.obj
 0001:0000cbe0       ?AtlRegisterClassCategoriesHelper@ATL@@YGJABU_GUID@@PBU_ATL_CATMAP_ENTRY@1@H@Z 1000dbe0 f i BillDispenser.obj
 0001:0000d2c0       ?AtlRegisterTypeLib@ATL@@YGJPAUHINSTANCE__@@PB_W@Z 1000e2c0 f i BillDispenser.obj
 0001:0000d600       ?AtlThrowImpl@ATL@@YGXJ@Z  1000e600 f i BillDispenser.obj
 0001:0000d6b0       ?AtlUnRegisterTypeLib@ATL@@YGJPAUHINSTANCE__@@PB_W@Z 1000e6b0 f i BillDispenser.obj
 0001:0000d8c0       ?AtlWinModuleAddCreateWndData@ATL@@YGXPAU_ATL_WIN_MODULE70@1@PAU_AtlCreateWndData@1@PAX@Z 1000e8c0 f i BillDispenser.obj
 0001:0000da30       ?AtlWinModuleExtractCreateWndData@ATL@@YGPAXPAU_ATL_WIN_MODULE70@1@@Z 1000ea30 f i BillDispenser.obj
 0001:0000dbb0       ?AtlWinModuleRegisterClassExW@ATL@@YGGPAU_ATL_WIN_MODULE70@1@PBUtagWNDCLASSEXW@@@Z 1000ebb0 f i BillDispenser.obj
 0001:0000dc80       ?AtlWinModuleRegisterWndClassInfoW@ATL@@YGGPAU_ATL_WIN_MODULE70@1@PAU_ATL_BASE_MODULE70@1@PAU_ATL_WNDCLASSINFOW@1@PAP6GJPAUHWND__@@IIJ@Z@Z 1000ec80 f i BillDispenser.obj
 0001:0000dd10       ?Attach@?$CAutoVectorPtr@_W@ATL@@QAEXPA_W@Z 1000ed10 f i BillDispenser.obj
 0001:0000dd70       ?Attach@CComBSTR@ATL@@QAEXPA_W@Z 1000ed70 f i BillDispenser.obj
 0001:0000ddc0       ?Attach@CRegKey@ATL@@QAEXPAUHKEY__@@@Z 1000edc0 f i BillDispenser.obj
 0001:0000de30       ?CanForceRemoveKey@CRegParser@ATL@@IAEHPB_W@Z 1000ee30 f i BillDispenser.obj
 0001:0000dea0       ?ChToByte@CRegParser@ATL@@KAE_W@Z 1000eea0 f i BillDispenser.obj
 0001:0000dfc0       ?ChangeType@CComVariant@ATL@@QAEJGPBUtagVARIANT@@@Z 1000efc0 f i BillDispenser.obj
 0001:0000e020       ?Cleanup@CComTypeInfoHolder@ATL@@SGXK@Z 1000f020 f i BillDispenser.obj
 0001:0000e0f0       ?Clear@CComVariant@ATL@@QAEJXZ 1000f0f0 f i BillDispenser.obj
 0001:0000e130       ?ClearReplacements@CExpansionVector@ATL@@QAEJXZ 1000f130 f i BillDispenser.obj
 0001:0000e1c0       ?ClearReplacements@CRegObject@ATL@@UAGJXZ 1000f1c0 f i BillDispenser.obj
 0001:0000e210       ?Clone@?$CComEnumImpl@UIEnumConnectionPoints@@$1?_GUID_b196b285_bab4_101a_b69c_00aa00341d07@@3U__s_GUID@@BPAUIConnectionPoint@@V?$_CopyInterface@UIConnectionPoint@@@ATL@@@ATL@@UAGJPAPAUIEnumConnectionPoints@@@Z 1000f210 f i BillDispenser.obj
 0001:0000e380       ?Clone@?$CComEnumImpl@UIEnumConnections@@$1?_GUID_b196b287_bab4_101a_b69c_00aa00341d07@@3U__s_GUID@@BUtagCONNECTDATA@@V?$_Copy@UtagCONNECTDATA@@@ATL@@@ATL@@UAGJPAPAUIEnumConnections@@@Z 1000f380 f i BillDispenser.obj
 0001:0000e4f0       ?Close@?$IOleObjectImpl@VCOPOSBillDispenser@@@ATL@@UAGJK@Z 1000f4f0 f i BillDispenser.obj
 0001:0000e580       ?Close@CRegKey@ATL@@QAEJXZ 1000f580 f i BillDispenser.obj
 0001:0000e5f0       ?ContextSensitiveHelp@?$IOleInPlaceActiveObjectImpl@VCOPOSBillDispenser@@@ATL@@UAGJH@Z 1000f5f0 f i BillDispenser.obj
 0001:0000e660       ?ContextSensitiveHelp@?$IOleInPlaceObjectWindowlessImpl@VCOPOSBillDispenser@@@ATL@@UAGJH@Z 1000f660 f i BillDispenser.obj
 0001:0000e6d0       ?ControlQueryInterface@?$CComControl@VCOPOSBillDispenser@@V?$CWindowImpl@VCOPOSBillDispenser@@VCWindow@ATL@@V?$CWinTraits@$0FGAAAAAA@$0A@@3@@ATL@@@ATL@@UAEJABU_GUID@@PAPAX@Z 1000f6d0 f i BillDispenser.obj
 0001:0000e750       ?CreateControlWindow@?$CComControl@VCOPOSBillDispenser@@V?$CWindowImpl@VCOPOSBillDispenser@@VCWindow@ATL@@V?$CWinTraits@$0FGAAAAAA@$0A@@3@@ATL@@@ATL@@UAEPAUHWND__@@PAU3@AAUtagRECT@@@Z 1000f750 f i BillDispenser.obj
 0001:0000e7d0       ?CreateInstance@?$CComCreator@V?$CComAggObject@VCOPOSBillDispenser@@@ATL@@@ATL@@SGJPAXABU_GUID@@PAPAX@Z 1000f7d0 f i BillDispenser.obj
 0001:0000e950       ?CreateInstance@?$CComCreator@V?$CComObject@VCOPOSBillDispenser@@@ATL@@@ATL@@SGJPAXABU_GUID@@PAPAX@Z 1000f950 f i BillDispenser.obj
 0001:0000eae0       ?CreateInstance@?$CComObject@V?$CComEnum@UIEnumConnectionPoints@@$1?_GUID_b196b285_bab4_101a_b69c_00aa00341d07@@3U__s_GUID@@BPAUIConnectionPoint@@V?$_CopyInterface@UIConnectionPoint@@@ATL@@VCComSingleThreadModel@6@@ATL@@@ATL@@SGJPAPAV12@@Z 1000fae0 f i BillDispenser.obj
 0001:0000ec50       ?CreateInstance@?$CComObject@V?$CComEnum@UIEnumConnections@@$1?_GUID_b196b287_bab4_101a_b69c_00aa00341d07@@3U__s_GUID@@BUtagCONNECTDATA@@V?$_Copy@UtagCONNECTDATA@@@ATL@@VCComSingleThreadModel@6@@ATL@@@ATL@@SGJPAPAV12@@Z 1000fc50 f i BillDispenser.obj
 0001:0000edc0       ?CreateInstance@CComClassFactory@ATL@@UAGJPAUIUnknown@@ABU_GUID@@PAPAX@Z 1000fdc0 f i BillDispenser.obj
 0001:0000eeb0       ?DAdvise@?$IDataObjectImpl@VCOPOSBillDispenser@@@ATL@@UAGJPAUtagFORMATETC@@KPAUIAdviseSink@@PAK@Z 1000feb0 f i BillDispenser.obj
 0001:0000efb0       ?DEVMODEOLE2T_EX@@YAPAU_devicemodeW@@PAU1@@Z 1000ffb0 f i BillDispenser.obj
 0001:0000efc0       ?DUnadvise@?$IDataObjectImpl@VCOPOSBillDispenser@@@ATL@@UAGJK@Z 1000ffc0 f i BillDispenser.obj
 0001:0000f090       ?Decrement@CComMultiThreadModel@ATL@@SGKPAJ@Z 10010090 f i BillDispenser.obj
 0001:0000f0b0       ?Decrement@CComSingleThreadModel@ATL@@SGKPAJ@Z 100100b0 f i BillDispenser.obj
 0001:0000f0d0       ?DefWindowProcW@?$CWindowImplBaseT@VCWindow@ATL@@V?$CWinTraits@$0FGAAAAAA@$0A@@2@@ATL@@QAEJIIJ@Z 100100d0 f i BillDispenser.obj
 0001:0000f120       ?DefaultReflectionHandler@?$CWindowImplRoot@VCWindow@ATL@@@ATL@@SAHPAUHWND__@@IIJAAJ@Z 10010120 f i BillDispenser.obj
 0001:0000f3b0       ?DeleteSubKey@CRegKey@ATL@@QAEJPB_W@Z 100103b0 f i BillDispenser.obj
 0001:0000f4c0       ?DeleteValue@CRegKey@ATL@@QAEJPB_W@Z 100104c0 f i BillDispenser.obj
 0001:0000f530       ?Detach@?$CAutoVectorPtr@_W@ATL@@QAEPA_WXZ 10010530 f i BillDispenser.obj
 0001:0000f560       ?Detach@?$CComPtrBase@UIPersistStream@@@ATL@@QAEPAUIPersistStream@@XZ 10010560 f i BillDispenser.obj
 0001:0000f590       ?Detach@?$CComPtrBase@UITypeInfo@@@ATL@@QAEPAUITypeInfo@@XZ 10010590 f i BillDispenser.obj
 0001:0000f5c0       ?Detach@?$CComPtrBase@UIUnknown@@@ATL@@QAEPAUIUnknown@@XZ 100105c0 f i BillDispenser.obj
 0001:0000f5f0       ?Detach@CComBSTR@ATL@@QAEPA_WXZ 100105f0 f i BillDispenser.obj
 0001:0000f620       ?Detach@CParseBuffer@CRegParser@ATL@@QAEPA_WXZ 10010620 f i BillDispenser.obj
 0001:0000f660       ?Detach@CRegKey@ATL@@QAEPAUHKEY__@@XZ 10010660 f i BillDispenser.obj
 0001:0000f6a0       ?DoEvent@COPOSBillDispenser@@IAEXIIJ@Z 100106a0 f i BillDispenser.obj
 0001:0000f7e0       ?DoVerb@?$IOleObjectImpl@VCOPOSBillDispenser@@@ATL@@UAGJJPAUtagMSG@@PAUIOleClientSite@@JPAUHWND__@@PBUtagRECT@@@Z 100107e0 f i BillDispenser.obj
 0001:0000f9f0       ?DoVerbDiscardUndo@?$IOleObjectImpl@VCOPOSBillDispenser@@@ATL@@QAEJPBUtagRECT@@PAUHWND__@@@Z 100109f0 f i BillDispenser.obj
 0001:0000fa60       ?DoVerbHide@?$IOleObjectImpl@VCOPOSBillDispenser@@@ATL@@QAEJPBUtagRECT@@PAUHWND__@@@Z 10010a60 f i BillDispenser.obj
 0001:0000fb10       ?DoVerbInPlaceActivate@?$IOleObjectImpl@VCOPOSBillDispenser@@@ATL@@QAEJPBUtagRECT@@PAUHWND__@@@Z 10010b10 f i BillDispenser.obj
 0001:0000fbb0       ?DoVerbOpen@?$IOleObjectImpl@VCOPOSBillDispenser@@@ATL@@QAEJPBUtagRECT@@PAUHWND__@@@Z 10010bb0 f i BillDispenser.obj
 0001:0000fc20       ?DoVerbPrimary@?$IOleObjectImpl@VCOPOSBillDispenser@@@ATL@@QAEJPBUtagRECT@@PAUHWND__@@@Z 10010c20 f i BillDispenser.obj
 0001:0000fd30       ?DoVerbProperties@CComControlBase@ATL@@QAEJPBUtagRECT@@PAUHWND__@@@Z 10010d30 f i BillDispenser.obj
 0001:00010050       ?DoVerbShow@?$IOleObjectImpl@VCOPOSBillDispenser@@@ATL@@QAEJPBUtagRECT@@PAUHWND__@@@Z 10011050 f i BillDispenser.obj
 0001:000100e0       ?DoVerbUIActivate@?$IOleObjectImpl@VCOPOSBillDispenser@@@ATL@@QAEJPBUtagRECT@@PAUHWND__@@@Z 100110e0 f i BillDispenser.obj
 0001:00010180       ?DoesVerbActivate@CComControlBase@ATL@@QAEHJ@Z 10011180 f i BillDispenser.obj
 0001:000101e0       ?DoesVerbUIActivate@CComControlBase@ATL@@QAEHJ@Z 100111e0 f i BillDispenser.obj
 0001:00010260       ?Draw@?$IViewObjectExImpl@VCOPOSBillDispenser@@@ATL@@UAGJKJPAXPAUtagDVTARGETDEVICE@@PAUHDC__@@2PBU_RECTL@@3P6GHK@ZK@Z 10011260 f i BillDispenser.obj
 0001:00010300       ?Empty@CComBSTR@ATL@@QAEXXZ 10011300 f i BillDispenser.obj
 0001:00010340       ?EnableModeless@?$IOleInPlaceActiveObjectImpl@VCOPOSBillDispenser@@@ATL@@UAGJH@Z 10011340 f i BillDispenser.obj
 0001:000103a0       ?EndOfVar@CRegParser@ATL@@IAEHXZ 100113a0 f i BillDispenser.obj
 0001:00010410       ?EnsureTI@CComTypeInfoHolder@ATL@@QAEJK@Z 10011410 f i BillDispenser.obj
 0001:00010470       ?EnumAdvise@?$IOleObjectImpl@VCOPOSBillDispenser@@@ATL@@UAGJPAPAUIEnumSTATDATA@@@Z 10011470 f i BillDispenser.obj
 0001:00010580       ?EnumConnectionPoints@?$IConnectionPointContainerImpl@VCOPOSBillDispenser@@@ATL@@UAGJPAPAUIEnumConnectionPoints@@@Z 10011580 f i BillDispenser.obj
 0001:000109b0       ?EnumConnections@?$IConnectionPointImpl@VCOPOSBillDispenser@@$1?DIID__IOPOSBillDispenserEvents@@3U_GUID@@BVCComDynamicUnkArray@ATL@@@ATL@@UAGJPAPAUIEnumConnections@@@Z 100119b0 f i BillDispenser.obj
 0001:00010c00       ?EnumConnections@?$IConnectionPointImpl@VCOPOSBillDispenser@@$1?IID_IPropertyNotifySink@@3U_GUID@@BVCComDynamicUnkArray@ATL@@@ATL@@UAGJPAPAUIEnumConnections@@@Z 10011c00 f i BillDispenser.obj
 0001:00010e50       ?EnumDAdvise@?$IDataObjectImpl@VCOPOSBillDispenser@@@ATL@@UAGJPAPAUIEnumSTATDATA@@@Z 10011e50 f i BillDispenser.obj
 0001:00010f50       ?EnumFormatEtc@?$IDataObjectImpl@VCOPOSBillDispenser@@@ATL@@UAGJKPAPAUIEnumFORMATETC@@@Z 10011f50 f i BillDispenser.obj
 0001:00010fc0       ?EnumVerbs@?$IOleObjectImpl@VCOPOSBillDispenser@@@ATL@@UAGJPAPAUIEnumOLEVERB@@@Z 10011fc0 f i BillDispenser.obj
 0001:00011070       ?EscapeSingleQuote@CAtlModule@ATL@@SAXPA_WIPB_W@Z 10012070 f i BillDispenser.obj
 0001:00011110       ?ExtractCreateWndData@CAtlWinModule@ATL@@QAEPAXXZ 10012110 f i BillDispenser.obj
 0001:00011140       ?FAccessAllowed@?$IObjectSafetyImpl@VCOPOSBillDispenser@@$02@ATL@@MAEHXZ 10012140 f i BillDispenser.obj
 0001:00011150       ?FinalConstruct@?$CComAggObject@VCOPOSBillDispenser@@@ATL@@QAEJXZ 10012150 f i BillDispenser.obj
 0001:00011190       ?FinalConstruct@CComObjectRootBase@ATL@@QAEJXZ 10012190 f i BillDispenser.obj
 0001:000111a0       ?FinalConstruct@CRegObject@ATL@@QAEJXZ 100121a0 f i BillDispenser.obj
 0001:000111d0       ?FinalRelease@?$CComAggObject@VCOPOSBillDispenser@@@ATL@@QAEXXZ 100121d0 f i BillDispenser.obj
 0001:00011210       ?FinalRelease@CComObjectRootBase@ATL@@QAEXXZ 10012210 f i BillDispenser.obj
 0001:00011220       ?FindConnectionPoint@?$IConnectionPointContainerImpl@VCOPOSBillDispenser@@@ATL@@UAGJABU_GUID@@PAPAUIConnectionPoint@@@Z 10012220 f i BillDispenser.obj
 0001:00011370       ?FindKey@?$CSimpleMap@PA_WPA_WVCExpansionVectorEqualHelper@ATL@@@ATL@@QBEHABQA_W@Z 10012370 f i BillDispenser.obj
 0001:000113e0       ?FireTheEvent@?$CProxy_IOPOSEvents@VCOPOSBillDispenser@@@@IAEXPAUIUnknown@@PAVOposVariant@@IAAJPB_WJ@Z 100123e0 f i BillDispenser.obj
 0001:00011550       ?FireViewChange@CComControlBase@ATL@@QAEJXZ 10012550 f i BillDispenser.obj
 0001:00011610       ?Fire_DirectIOEvent@?$CProxy_IOPOSEvents@VCOPOSBillDispenser@@@@QAEXJPAJPAPA_W@Z 10012610 f i BillDispenser.obj
 0001:000117e0       ?Fire_StatusUpdateEvent@?$CProxy_IOPOSEvents@VCOPOSBillDispenser@@@@QAEXJ@Z 100127e0 f i BillDispenser.obj
 0001:00011940       ?FormatWindowClassName@AtlModuleRegisterWndClassInfoParamW@ATL@@SAXPA_WKPAX@Z 10012940 f i BillDispenser.obj
 0001:00011970       ?Free@?$CAutoVectorPtr@_W@ATL@@QAEXXZ 10012970 f i BillDispenser.obj
 0001:000119c0       ?FreeHeap@?$CTempBuffer@E$0BAA@VCCRTAllocator@ATL@@@ATL@@AAEXXZ 100129c0 f i BillDispenser.obj
 0001:000119f0       ?FreeHeap@?$CTempBuffer@_W$0BAA@VCCRTAllocator@ATL@@@ATL@@AAEXXZ 100129f0 f i BillDispenser.obj
 0001:00011a20       ?FreeHeap@?$CTempBuffer@_W$0EAA@VCCRTAllocator@ATL@@@ATL@@AAEXXZ 10012a20 f i BillDispenser.obj
 0001:00011a50       ?Freeze@?$IViewObjectExImpl@VCOPOSBillDispenser@@@ATL@@UAGJKJPAXPAK@Z 10012a50 f i BillDispenser.obj
 0001:00011ac0       ?GenerateError@CRegParser@ATL@@IAEJI@Z 10012ac0 f i BillDispenser.obj
 0001:00011ae0       ?GetAdvise@?$IViewObjectExImpl@VCOPOSBillDispenser@@@ATL@@UAGJPAK0PAPAUIAdviseSink@@@Z 10012ae0 f i BillDispenser.obj
 0001:00011be0       ?GetAmbientLocaleID@CComControlBase@ATL@@QAEJAAK@Z 10012be0 f i BillDispenser.obj
 0001:00011cc0       ?GetAmbientProperty@CComControlBase@ATL@@QAEJJAAUtagVARIANT@@@Z 10012cc0 f i BillDispenser.obj
 0001:00011d10       ?GetAmbientUserMode@CComControlBase@ATL@@QAEJAAH@Z 10012d10 f i BillDispenser.obj
 0001:00011e10       ?GetAppId@?$CAtlModuleT@VCComModule@ATL@@@ATL@@SAPB_WXZ 10012e10 f i BillDispenser.obj
 0001:00011e20       ?GetAt@CComDynamicUnkArray@ATL@@QAEPAUIUnknown@@H@Z 10012e20 f i BillDispenser.obj
 0001:00011ea0       ?GetCanonicalFormatEtc@?$IDataObjectImpl@VCOPOSBillDispenser@@@ATL@@UAGJPAUtagFORMATETC@@0@Z 10012ea0 f i BillDispenser.obj
 0001:00011f10       ?GetClassID@?$IPersistStorageImpl@VCOPOSBillDispenser@@@ATL@@UAGJPAU_GUID@@@Z 10012f10 f i BillDispenser.obj
 0001:00011f90       ?GetClassID@?$IPersistStreamInitImpl@VCOPOSBillDispenser@@@ATL@@UAGJPAU_GUID@@@Z 10012f90 f i BillDispenser.obj
 0001:00012010       ?GetClassInfoExW@AtlModuleRegisterWndClassInfoParamW@ATL@@SAHPAUHINSTANCE__@@PB_WPAUtagWNDCLASSEXW@@@Z 10013010 f i BillDispenser.obj
 0001:00012040       ?GetClassInfoW@?$IProvideClassInfo2Impl@$1?CLSID_OPOSBillDispenser@@3U_GUID@@B$1?DIID__IOPOSBillDispenserEvents@@3U2@B$1?LIBID_OposBillDispenser_CCO@@3U2@B$00$0A@VCComTypeInfoHolder@ATL@@@ATL@@UAGJPAPAUITypeInfo@@@Z 10013040 f i BillDispenser.obj
 0001:00012060       ?GetClassObject@CComModule@ATL@@QAEJABU_GUID@@0PAPAX@Z 10013060 f i BillDispenser.obj
 0001:00012260       ?GetClientSite@?$IOleObjectImpl@VCOPOSBillDispenser@@@ATL@@UAGJPAPAUIOleClientSite@@@Z 10013260 f i BillDispenser.obj
 0001:000122f0       ?GetClipboardData@?$IOleObjectImpl@VCOPOSBillDispenser@@@ATL@@UAGJKPAPAUIDataObject@@@Z 100132f0 f i BillDispenser.obj
 0001:00012360       ?GetCodeAddress@CDynamicStdCallThunk2@ATL@@QAEPAXXZ 10013360 f i BillDispenser.obj
 0001:00012390       ?GetColorSet@?$IViewObjectExImpl@VCOPOSBillDispenser@@@ATL@@UAGJKJPAXPAUtagDVTARGETDEVICE@@PAUHDC__@@PAPAUtagLOGPALETTE@@@Z 10013390 f i BillDispenser.obj
 0001:00012400       ?GetConnMap@COPOSBillDispenser@@SAPBU_ATL_CONNMAP_ENTRY@ATL@@PAH@Z 10013400 f i BillDispenser.obj
 0001:00012540       ?GetConnectionInterface@?$IConnectionPointImpl@VCOPOSBillDispenser@@$1?DIID__IOPOSBillDispenserEvents@@3U_GUID@@BVCComDynamicUnkArray@ATL@@@ATL@@UAGJPAU_GUID@@@Z 10013540 f i BillDispenser.obj
 0001:00012580       ?GetConnectionInterface@?$IConnectionPointImpl@VCOPOSBillDispenser@@$1?IID_IPropertyNotifySink@@3U_GUID@@BVCComDynamicUnkArray@ATL@@@ATL@@UAGJPAU_GUID@@@Z 10013580 f i BillDispenser.obj
 0001:000125c0       ?GetConnectionPointContainer@?$IConnectionPointImpl@VCOPOSBillDispenser@@$1?DIID__IOPOSBillDispenserEvents@@3U_GUID@@BVCComDynamicUnkArray@ATL@@@ATL@@UAGJPAPAUIConnectionPointContainer@@@Z 100135c0 f i BillDispenser.obj
 0001:00012630       ?GetConnectionPointContainer@?$IConnectionPointImpl@VCOPOSBillDispenser@@$1?IID_IPropertyNotifySink@@3U_GUID@@BVCComDynamicUnkArray@ATL@@@ATL@@UAGJPAPAUIConnectionPointContainer@@@Z 10013630 f i BillDispenser.obj
 0001:000126a0       ?GetContentExtent@?$IQuickActivateImpl@VCOPOSBillDispenser@@@ATL@@UAGJPAUtagSIZE@@@Z 100136a0 f i BillDispenser.obj
 0001:00012730       ?GetControlInfo@?$IOleControlImpl@VCOPOSBillDispenser@@@ATL@@UAGJPAUtagCONTROLINFO@@@Z 10013730 f i BillDispenser.obj
 0001:000127a0       ?GetCookie@CComDynamicUnkArray@ATL@@QAGKPAPAUIUnknown@@@Z 100137a0 f i BillDispenser.obj
 0001:00012860       ?GetData@?$IDataObjectImpl@VCOPOSBillDispenser@@@ATL@@UAGJPAUtagFORMATETC@@PAUtagSTGMEDIUM@@@Z 10013860 f i BillDispenser.obj
 0001:000128f0       ?GetData@CAtlSafeAllocBufferNode@?$CAtlSafeAllocBufferManager@VCCRTAllocator@ATL@@@_ATL_SAFE_ALLOCA_IMPL@ATL@@QAEPAXXZ 100138f0 f i BillDispenser.obj
 0001:00012910       ?GetDataHere@?$IDataObjectImpl@VCOPOSBillDispenser@@@ATL@@UAGJPAUtagFORMATETC@@PAUtagSTGMEDIUM@@@Z 10013910 f i BillDispenser.obj
 0001:00012980       ?GetDropTarget@?$IOleInPlaceObjectWindowlessImpl@VCOPOSBillDispenser@@@ATL@@UAGJPAPAUIDropTarget@@@Z 10013980 f i BillDispenser.obj
 0001:000129f0       ?GetExtent@?$IOleObjectImpl@VCOPOSBillDispenser@@@ATL@@UAGJKPAUtagSIZE@@@Z 100139f0 f i BillDispenser.obj
 0001:00012a90       ?GetExtent@?$IViewObjectExImpl@VCOPOSBillDispenser@@@ATL@@UAGJKJPAUtagDVTARGETDEVICE@@PAUtagSIZE@@@Z 10013a90 f i BillDispenser.obj
 0001:00012b60       ?GetGITPtr@CAtlModule@ATL@@UAEJPAPAUIGlobalInterfaceTable@@@Z 10013b60 f i BillDispenser.obj
 0001:00012c60       ?GetGUID@?$IProvideClassInfo2Impl@$1?CLSID_OPOSBillDispenser@@3U_GUID@@B$1?DIID__IOPOSBillDispenserEvents@@3U2@B$1?LIBID_OposBillDispenser_CCO@@3U2@B$00$0A@VCComTypeInfoHolder@ATL@@@ATL@@UAGJKPAU_GUID@@@Z 10013c60 f i BillDispenser.obj
 0001:00012ce0       ?GetIDsOfNames@?$IDispatchImpl@UIOPOSBillDispenser@@$1?IID_IOPOSBillDispenser@@3U_GUID@@B$1?LIBID_OposBillDispenser_CCO@@3U3@B$00$0A@VCComTypeInfoHolder@ATL@@@ATL@@UAGJABU_GUID@@PAPA_WIKPAJ@Z 10013ce0 f i BillDispenser.obj
 0001:00012d10       ?GetIDsOfNames@CComTypeInfoHolder@ATL@@QAEJABU_GUID@@PAPA_WIKPAJ@Z 10013d10 f i BillDispenser.obj
 0001:00012ec0       ?GetInterfaceSafetyOptions@?$IObjectSafetyImpl@VCOPOSBillDispenser@@$02@ATL@@UAGJABU_GUID@@PAK1@Z 10013ec0 f i BillDispenser.obj
 0001:00013030       ?GetKeyAt@?$CSimpleMap@PA_WPA_WVCExpansionVectorEqualHelper@ATL@@@ATL@@QBEAAPA_WH@Z 10014030 f i BillDispenser.obj
 0001:000130b0       ?GetLockCount@CAtlModule@ATL@@UAEJXZ 100140b0 f i BillDispenser.obj
 0001:000130d0       ?GetMiscStatus@?$IOleObjectImpl@VCOPOSBillDispenser@@@ATL@@UAGJKPAK@Z 100140d0 f i BillDispenser.obj
 0001:00013140       ?GetMoniker@?$IOleObjectImpl@VCOPOSBillDispenser@@@ATL@@UAGJKKPAPAUIMoniker@@@Z 10014140 f i BillDispenser.obj
 0001:000131b0       ?GetNaturalExtent@?$IViewObjectExImpl@VCOPOSBillDispenser@@@ATL@@UAGJKJPAUtagDVTARGETDEVICE@@PAUHDC__@@PAUtagExtentInfo@@PAUtagSIZE@@@Z 100141b0 f i BillDispenser.obj
 0001:000132d0       ?GetObjectCLSID@?$CComCoClass@VCOPOSBillDispenser@@$1?CLSID_OPOSBillDispenser@@3U_GUID@@B@ATL@@SGABU_GUID@@XZ 100142d0 f i BillDispenser.obj
 0001:000132e0       ?GetPages@?$ISpecifyPropertyPagesImpl@VCOPOSBillDispenser@@@ATL@@UAGJPAUtagCAUUID@@@Z 100142e0 f i BillDispenser.obj
 0001:00013350       ?GetPagesHelper@?$ISpecifyPropertyPagesImpl@VCOPOSBillDispenser@@@ATL@@IAEJPAUtagCAUUID@@PBUATL_PROPMAP_ENTRY@2@@Z 10014350 f i BillDispenser.obj
 0001:00013550       ?GetProperty@?$CComPtr@UIDispatch@@@ATL@@QAEJJPAUtagVARIANT@@@Z 10014550 f i BillDispenser.obj
 0001:00013590       ?GetProperty@?$CComPtr@UIDispatch@@@ATL@@SAJPAUIDispatch@@JPAUtagVARIANT@@@Z 10014590 f i BillDispenser.obj
 0001:000136f0       ?GetPropertyMap@COPOSBillDispenser@@SAPBUATL_PROPMAP_ENTRY@ATL@@XZ 100146f0 f i BillDispenser.obj
 0001:00013700       ?GetRect@?$IViewObjectExImpl@VCOPOSBillDispenser@@@ATL@@UAGJKPAU_RECTL@@@Z 10014700 f i BillDispenser.obj
 0001:00013770       ?GetSize@?$CSimpleMap@PA_WPA_WVCExpansionVectorEqualHelper@ATL@@@ATL@@QBEHXZ 10014770 f i BillDispenser.obj
 0001:00013790       ?GetSize@CComDynamicUnkArray@ATL@@QBEHXZ 10014790 f i BillDispenser.obj
 0001:000137b0       ?GetSizeMax@?$IPersistStreamInitImpl@VCOPOSBillDispenser@@@ATL@@UAGJPAT_ULARGE_INTEGER@@@Z 100147b0 f i BillDispenser.obj
 0001:00013d20       ?GetSizeMax@CComVariant@ATL@@QBEJPAT_ULARGE_INTEGER@@@Z 10014d20 f i BillDispenser.obj
 0001:000140a0       ?GetStreamSize@CComBSTR@ATL@@SAKPA_W@Z 100150a0 f i BillDispenser.obj
 0001:000140f0       ?GetTI@CComTypeInfoHolder@ATL@@QAEJK@Z 100150f0 f i BillDispenser.obj
 0001:00014900       ?GetTI@CComTypeInfoHolder@ATL@@QAEJKPAPAUITypeInfo@@@Z 10015900 f i BillDispenser.obj
 0001:000149c0       ?GetTypeInfo@?$IDispatchImpl@UIOPOSBillDispenser@@$1?IID_IOPOSBillDispenser@@3U_GUID@@B$1?LIBID_OposBillDispenser_CCO@@3U3@B$00$0A@VCComTypeInfoHolder@ATL@@@ATL@@UAGJIKPAPAUITypeInfo@@@Z 100159c0 f i BillDispenser.obj
 0001:000149f0       ?GetTypeInfo@CComTypeInfoHolder@ATL@@QAEJIKPAPAUITypeInfo@@@Z 100159f0 f i BillDispenser.obj
 0001:00014a30       ?GetTypeInfoCount@?$IDispatchImpl@UIOPOSBillDispenser@@$1?IID_IOPOSBillDispenser@@3U_GUID@@B$1?LIBID_OposBillDispenser_CCO@@3U3@B$00$0A@VCComTypeInfoHolder@ATL@@@ATL@@UAGJPAI@Z 10015a30 f i BillDispenser.obj
 0001:00014a50       ?GetUnknown@CComDynamicUnkArray@ATL@@QAGPAUIUnknown@@K@Z 10015a50 f i BillDispenser.obj
 0001:00014ac0       ?GetUnknown@COPOSBillDispenser@@QAEPAUIUnknown@@XZ 10015ac0 f i BillDispenser.obj
 0001:00014af0       ?GetUserClassID@?$IOleObjectImpl@VCOPOSBillDispenser@@@ATL@@UAGJPAU_GUID@@@Z 10015af0 f i BillDispenser.obj
 0001:00014ba0       ?GetUserType@?$IOleObjectImpl@VCOPOSBillDispenser@@@ATL@@UAGJKPAPA_W@Z 10015ba0 f i BillDispenser.obj
 0001:00014c10       ?GetValueAt@?$CSimpleMap@PA_WPA_WVCExpansionVectorEqualHelper@ATL@@@ATL@@QBEAAPA_WH@Z 10015c10 f i BillDispenser.obj
 0001:00014c90       ?GetViewStatus@?$IViewObjectExImpl@VCOPOSBillDispenser@@@ATL@@UAGJPAK@Z 10015c90 f i BillDispenser.obj
 0001:00014d50       ?GetWNDPROC@CWndProcThunk@ATL@@QAEP6GJPAUHWND__@@IIJ@ZXZ 10015d50 f i BillDispenser.obj
 0001:00014d80       ?GetWindow@?$IOleInPlaceActiveObjectImpl@VCOPOSBillDispenser@@@ATL@@UAGJPAPAUHWND__@@@Z 10015d80 f i BillDispenser.obj
 0001:00014e50       ?GetWindow@?$IOleInPlaceObjectWindowlessImpl@VCOPOSBillDispenser@@@ATL@@UAGJPAPAUHWND__@@@Z 10015e50 f i BillDispenser.obj
 0001:00014f20       ?GetWindowLongPtrW@@YAJPAUHWND__@@H@Z 10015f20 f i BillDispenser.obj
 0001:00014f50       ?GetWindowProc@?$CWindowImplBaseT@VCWindow@ATL@@V?$CWinTraits@$0FGAAAAAA@$0A@@2@@ATL@@UAEP6GJPAUHWND__@@IIJ@ZXZ 10015f50 f i BillDispenser.obj
 0001:00014f60       ?GetWndCaption@?$CWindowImpl@VCOPOSBillDispenser@@VCWindow@ATL@@V?$CWinTraits@$0FGAAAAAA@$0A@@3@@ATL@@SAPB_WXZ 10015f60 f i BillDispenser.obj
 0001:00014f70       ?GetWndClassInfo@?$CWindowImpl@VCOPOSBillDispenser@@VCWindow@ATL@@V?$CWinTraits@$0FGAAAAAA@$0A@@3@@ATL@@SAAAU_ATL_WNDCLASSINFOW@2@XZ 10015f70 f i BillDispenser.obj
 0001:00014f80       ?GetWndClassName@CWindow@ATL@@SAPB_WXZ 10015f80 f i BillDispenser.obj
 0001:00014f90       ?GetWndExStyle@?$CWinTraits@$0FGAAAAAA@$0A@@ATL@@SAKK@Z 10015f90 f i BillDispenser.obj
 0001:00014fb0       ?GetWndExStyle@?$CWindowImplBaseT@VCWindow@ATL@@V?$CWinTraits@$0FGAAAAAA@$0A@@2@@ATL@@SAKK@Z 10015fb0 f i BillDispenser.obj
 0001:00014fd0       ?GetWndStyle@?$CWinTraits@$0FGAAAAAA@$0A@@ATL@@SAKK@Z 10015fd0 f i BillDispenser.obj
 0001:00014ff0       ?GetWndStyle@?$CWindowImplBaseT@VCWindow@ATL@@V?$CWinTraits@$0FGAAAAAA@$0A@@2@@ATL@@SAKK@Z 10015ff0 f i BillDispenser.obj
 0001:00015010       ?GetZoomInfo@CComControlBase@ATL@@QAEXAAUATL_DRAWINFO@@@Z 10016010 f i BillDispenser.obj
 0001:00015180       ?HKeyFromString@CRegParser@ATL@@KAPAUHKEY__@@PA_W@Z 10016180 f i BillDispenser.obj
 0001:000151f0       ?HandsOffStorage@?$IPersistStorageImpl@VCOPOSBillDispenser@@@ATL@@UAGJXZ 100161f0 f i BillDispenser.obj
 0001:00015250       ?HasSubKeys@CRegParser@ATL@@IAEHPAUHKEY__@@@Z 10016250 f i BillDispenser.obj
 0001:00015360       ?IDataObject_GetData@CComControlBase@ATL@@QAEJPAUtagFORMATETC@@PAUtagSTGMEDIUM@@@Z 10016360 f i BillDispenser.obj
 0001:00015780       ?IOleInPlaceObject_InPlaceDeactivate@CComControlBase@ATL@@QAEJXZ 10016780 f i BillDispenser.obj
 0001:00015980       ?IOleInPlaceObject_SetObjectRects@CComControlBase@ATL@@QAEJPBUtagRECT@@0@Z 10016980 f i BillDispenser.obj
 0001:00015b40       ?IOleInPlaceObject_UIDeactivate@CComControlBase@ATL@@QAEJXZ 10016b40 f i BillDispenser.obj
 0001:00015db0       ?IOleObject_Advise@CComControlBase@ATL@@QAEJPAUIAdviseSink@@PAK@Z 10016db0 f i BillDispenser.obj
 0001:00015e60       ?IOleObject_Close@CComControlBase@ATL@@QAEJK@Z 10016e60 f i BillDispenser.obj
 0001:00016110       ?IOleObject_GetClientSite@CComControlBase@ATL@@QAEJPAPAUIOleClientSite@@@Z 10017110 f i BillDispenser.obj
 0001:000161b0       ?IOleObject_SetClientSite@CComControlBase@ATL@@QAEJPAUIOleClientSite@@@Z 100171b0 f i BillDispenser.obj
 0001:00016280       ?IOleObject_SetExtent@CComControlBase@ATL@@QAEJKPAUtagSIZE@@@Z 10017280 f i BillDispenser.obj
 0001:000163c0       ?IPSI_GetIPersistStreamInit@?$IPersistStorageImpl@VCOPOSBillDispenser@@@ATL@@AAEPAUIPersistStreamInit@@XZ 100173c0 f i BillDispenser.obj
 0001:00016490       ?IPersistStreamInit_Load@?$IPersistStreamInitImpl@VCOPOSBillDispenser@@@ATL@@QAEJPAUIStream@@PBUATL_PROPMAP_ENTRY@2@@Z 10017490 f i BillDispenser.obj
 0001:00016510       ?IPersistStreamInit_Save@?$IPersistStreamInitImpl@VCOPOSBillDispenser@@@ATL@@QAEJPAUIStream@@HPBUATL_PROPMAP_ENTRY@2@@Z 10017510 f i BillDispenser.obj
 0001:000165a0       ?IQuickActivate_QuickActivate@CComControlBase@ATL@@QAEJPAUtagQACONTAINER@@PAUtagQACONTROL@@@Z 100175a0 f i BillDispenser.obj
 0001:00016bf0       ?IViewObject_Draw@CComControlBase@ATL@@QAEJKJPAXPAUtagDVTARGETDEVICE@@PAUHDC__@@2PBU_RECTL@@3@Z 10017bf0 f i BillDispenser.obj
 0001:00016e90       ?InPlaceActivate@CComControlBase@ATL@@QAEJJPBUtagRECT@@@Z 10017e90 f i BillDispenser.obj
 0001:00017820       ?InPlaceDeactivate@?$IOleInPlaceObjectWindowlessImpl@VCOPOSBillDispenser@@@ATL@@UAGJXZ 10018820 f i BillDispenser.obj
 0001:000178a0       ?Increment@CComMultiThreadModel@ATL@@SGKPAJ@Z 100188a0 f i BillDispenser.obj
 0001:000178c0       ?Increment@CComSingleThreadModel@ATL@@SGKPAJ@Z 100188c0 f i BillDispenser.obj
 0001:000178e0       ?Init@?$CComEnumImpl@UIEnumConnectionPoints@@$1?_GUID_b196b285_bab4_101a_b69c_00aa00341d07@@3U__s_GUID@@BPAUIConnectionPoint@@V?$_CopyInterface@UIConnectionPoint@@@ATL@@@ATL@@QAEJPAPAUIConnectionPoint@@0PAUIUnknown@@W4CComEnumFlags@2@@Z 100188e0 f i BillDispenser.obj
 0001:00017ac0       ?Init@?$CComEnumImpl@UIEnumConnections@@$1?_GUID_b196b287_bab4_101a_b69c_00aa00341d07@@3U__s_GUID@@BUtagCONNECTDATA@@V?$_Copy@UtagCONNECTDATA@@@ATL@@@ATL@@QAEJPAUtagCONNECTDATA@@0PAUIUnknown@@W4CComEnumFlags@2@@Z 10018ac0 f i BillDispenser.obj
 0001:00017ca0       ?Init@CComFakeCriticalSection@ATL@@QAEJXZ 10018ca0 f i BillDispenser.obj
 0001:00017cb0       ?Init@CComModule@ATL@@QAEJPAU_ATL_OBJMAP_ENTRY30@2@PAUHINSTANCE__@@PBU_GUID@@@Z 10018cb0 f i BillDispenser.obj
 0001:00017da0       ?Init@CComSafeDeleteCriticalSection@ATL@@QAEJXZ 10018da0 f i BillDispenser.obj
 0001:00017e20       ?Init@CDynamicStdCallThunk2@ATL@@QAEHKPAX@Z 10018e20 f i BillDispenser.obj
 0001:00017e80       ?Init@CWndProcThunk@ATL@@QAEHP6GJPAUHWND__@@IIJ@ZPAX@Z 10018e80 f i BillDispenser.obj
 0001:00017ec0       ?InitFromData@?$IOleObjectImpl@VCOPOSBillDispenser@@@ATL@@UAGJPAUIDataObject@@HK@Z 10018ec0 f i BillDispenser.obj
 0001:00017f30       ?InitLibId@?$CAtlModuleT@VCComModule@ATL@@@ATL@@SAXXZ 10018f30 f i BillDispenser.obj
 0001:00017f40       ?InitNew@?$IPersistStorageImpl@VCOPOSBillDispenser@@@ATL@@UAGJPAUIStorage@@@Z 10018f40 f i BillDispenser.obj
 0001:00018030       ?InitNew@?$IPersistStreamInitImpl@VCOPOSBillDispenser@@@ATL@@UAGJXZ 10019030 f i BillDispenser.obj
 0001:000180c0       ?InlineIsEqualUnknown@ATL@@YGHABU_GUID@@@Z 100190c0 f i BillDispenser.obj
 0001:00018130       ?InternalAddRef@?$CComObjectRootEx@VCComMultiThreadModel@ATL@@@ATL@@QAEKXZ 10019130 f i BillDispenser.obj
 0001:00018190       ?InternalAddRef@?$CComObjectRootEx@VCComSingleThreadModel@ATL@@@ATL@@QAEKXZ 10019190 f i BillDispenser.obj
 0001:000181f0       ?InternalFinalConstructAddRef@CComObjectRootBase@ATL@@QAEXXZ 100191f0 f i BillDispenser.obj
 0001:00018200       ?InternalFinalConstructAddRef@COPOSBillDispenser@@QAEXXZ 10019200 f i BillDispenser.obj
 0001:00018230       ?InternalFinalConstructRelease@CComObjectRootBase@ATL@@QAEXXZ 10019230 f i BillDispenser.obj
 0001:00018280       ?InternalFinalConstructRelease@COPOSBillDispenser@@QAEXXZ 10019280 f i BillDispenser.obj
 0001:000182b0       ?InternalGetSite@CComControlBase@ATL@@QAEJABU_GUID@@PAPAX@Z 100192b0 f i BillDispenser.obj
 0001:00018370       ?InternalQueryInterface@CComObjectRootBase@ATL@@SGJPAXPBU_ATL_INTMAP_ENTRY@2@ABU_GUID@@PAPAX@Z 10019370 f i BillDispenser.obj
 0001:00018430       ?InternalRelease@?$CComObjectRootEx@VCComMultiThreadModel@ATL@@@ATL@@QAEKXZ 10019430 f i BillDispenser.obj
 0001:000184a0       ?InternalRelease@?$CComObjectRootEx@VCComSingleThreadModel@ATL@@@ATL@@QAEKXZ 100194a0 f i BillDispenser.obj
 0001:00018510       ?InternalSetAtIndex@?$CSimpleArray@GV?$CSimpleArrayEqualHelper@G@ATL@@@ATL@@QAEXHABG@Z 10019510 f i BillDispenser.obj
 0001:00018580       ?InternalSetAtIndex@?$CSimpleMap@PA_WPA_WVCExpansionVectorEqualHelper@ATL@@@ATL@@QAEXHABQA_W0@Z 10019580 f i BillDispenser.obj
 0001:00018620       ?Invoke@?$IDispatchImpl@UIOPOSBillDispenser@@$1?IID_IOPOSBillDispenser@@3U_GUID@@B$1?LIBID_OposBillDispenser_CCO@@3U3@B$00$0A@VCComTypeInfoHolder@ATL@@@ATL@@UAGJJABU_GUID@@KGPAUtagDISPPARAMS@@PAUtagVARIANT@@PAUtagEXCEPINFO@@PAI@Z 10019620 f i BillDispenser.obj
 0001:00018660       ?Invoke@CComTypeInfoHolder@ATL@@QAEJPAUIDispatch@@JABU_GUID@@KGPAUtagDISPPARAMS@@PAUtagVARIANT@@PAUtagEXCEPINFO@@PAI@Z 10019660 f i BillDispenser.obj
 0001:000186f0       ?IsDirty@?$IPersistStorageImpl@VCOPOSBillDispenser@@@ATL@@UAGJXZ 100196f0 f i BillDispenser.obj
 0001:000187e0       ?IsDirty@?$IPersistStreamInitImpl@VCOPOSBillDispenser@@@ATL@@UAGJXZ 100197e0 f i BillDispenser.obj
 0001:00018880       ?IsEqualKey@CExpansionVectorEqualHelper@ATL@@SA_NQA_W0@Z 10019880 f i BillDispenser.obj
 0001:000188b0       ?IsEqualObject@?$CComPtrBase@UIOleClientSite@@@ATL@@QAE_NPAUIUnknown@@@Z 100198b0 f i BillDispenser.obj
 0001:000189e0       ?IsEqualObject@?$CComPtrBase@UITypeInfo@@@ATL@@QAE_NPAUIUnknown@@@Z 100199e0 f i BillDispenser.obj
 0001:00018b10       ?IsSpace@CRegParser@ATL@@IAEH_W@Z 10019b10 f i BillDispenser.obj
 0001:00018b70       ?IsUpToDate@?$IOleObjectImpl@VCOPOSBillDispenser@@@ATL@@UAGJXZ 10019b70 f i BillDispenser.obj
 0001:00018bd0       ?Length@CComBSTR@ATL@@QBEIXZ 10019bd0 f i BillDispenser.obj
 0001:00018c10       ?Load@?$IPersistStorageImpl@VCOPOSBillDispenser@@@ATL@@UAGJPAUIStorage@@@Z 10019c10 f i BillDispenser.obj
 0001:00018d70       ?Load@?$IPersistStreamInitImpl@VCOPOSBillDispenser@@@ATL@@UAGJPAUIStream@@@Z 10019d70 f i BillDispenser.obj
 0001:00018e00       ?LoadCursorW@AtlModuleRegisterWndClassInfoParamW@ATL@@SAPAUHICON__@@PAUHINSTANCE__@@PB_W@Z 10019e00 f i BillDispenser.obj
 0001:00018e30       ?LoadNameCache@CComTypeInfoHolder@ATL@@QAEJPAUITypeInfo@@@Z 10019e30 f i BillDispenser.obj
 0001:000190c0       ?Lock@?$CComCritSecLock@VCComCriticalSection@ATL@@@ATL@@QAEJXZ 1001a0c0 f i BillDispenser.obj
 0001:00019170       ?Lock@?$CComObjectRootEx@VCComSingleThreadModel@ATL@@@ATL@@QAEXXZ 1001a170 f i BillDispenser.obj
 0001:00019180       ?Lock@CAtlModule@ATL@@UAEJXZ 1001a180 f i BillDispenser.obj
 0001:000191b0       ?Lock@CComCriticalSection@ATL@@QAEJXZ 1001a1b0 f i BillDispenser.obj
 0001:000191f0       ?Lock@CComFakeCriticalSection@ATL@@QAEJXZ 1001a1f0 f i BillDispenser.obj
 0001:00019200       ?LockServer@CComClassFactory@ATL@@UAGJH@Z 1001a200 f i BillDispenser.obj
 0001:00019260       ?Lookup@?$CSimpleMap@PA_WPA_WVCExpansionVectorEqualHelper@ATL@@@ATL@@QBEPA_WABQA_W@Z 1001a260 f i BillDispenser.obj
 0001:000192b0       ?Next@?$CComEnumImpl@UIEnumConnectionPoints@@$1?_GUID_b196b285_bab4_101a_b69c_00aa00341d07@@3U__s_GUID@@BPAUIConnectionPoint@@V?$_CopyInterface@UIConnectionPoint@@@ATL@@@ATL@@UAGJKPAPAUIConnectionPoint@@PAK@Z 1001a2b0 f i BillDispenser.obj
 0001:00019420       ?Next@?$CComEnumImpl@UIEnumConnections@@$1?_GUID_b196b287_bab4_101a_b69c_00aa00341d07@@3U__s_GUID@@BUtagCONNECTDATA@@V?$_Copy@UtagCONNECTDATA@@@ATL@@@ATL@@UAGJKPAUtagCONNECTDATA@@PAK@Z 1001a420 f i BillDispenser.obj
 0001:00019590       ?NextToken@CRegParser@ATL@@IAEJPA_W@Z 1001a590 f i BillDispenser.obj
 0001:00019830       ?OLE2CT_EX@@YAPB_WPB_WI@Z  1001a830 f i BillDispenser.obj
 0001:00019840       ?OLE2CT_EX_DEF@@YAPB_WPB_W@Z 1001a840 f i BillDispenser.obj
 0001:00019850       ?OLE2T_EX@@YAPA_WPA_WI@Z   1001a850 f i BillDispenser.obj
 0001:00019860       ?OnAmbientPropertyChange@?$IOleControlImpl@VCOPOSBillDispenser@@@ATL@@UAGJJ@Z 1001a860 f i BillDispenser.obj
 0001:000198f0       ?OnDocWindowActivate@?$IOleInPlaceActiveObjectImpl@VCOPOSBillDispenser@@@ATL@@UAGJH@Z 1001a8f0 f i BillDispenser.obj
 0001:00019980       ?OnDrawAdvanced@CComControlBase@ATL@@UAEJAAUATL_DRAWINFO@@@Z 1001a980 f i BillDispenser.obj
 0001:00019ba0       ?OnFinalMessage@?$CWindowImplBaseT@VCWindow@ATL@@V?$CWinTraits@$0FGAAAAAA@$0A@@2@@ATL@@UAEXPAUHWND__@@@Z 1001aba0 f i BillDispenser.obj
 0001:00019bb0       ?OnFrameWindowActivate@?$IOleInPlaceActiveObjectImpl@VCOPOSBillDispenser@@@ATL@@UAGJH@Z 1001abb0 f i BillDispenser.obj
 0001:00019c10       ?OnKillFocus@CComControlBase@ATL@@QAEJIIJAAH@Z 1001ac10 f i BillDispenser.obj
 0001:00019d10       ?OnMnemonic@?$IOleControlImpl@VCOPOSBillDispenser@@@ATL@@UAGJPAUtagMSG@@@Z 1001ad10 f i BillDispenser.obj
 0001:00019d80       ?OnMouseActivate@CComControlBase@ATL@@QAEJIIJAAH@Z 1001ad80 f i BillDispenser.obj
 0001:00019ed0       ?OnPaint@CComControlBase@ATL@@QAEJIIJAAH@Z 1001aed0 f i BillDispenser.obj
 0001:0001a050       ?OnPostVerbDiscardUndo@?$IOleObjectImpl@VCOPOSBillDispenser@@@ATL@@QAEJXZ 1001b050 f i BillDispenser.obj
 0001:0001a060       ?OnPostVerbHide@?$IOleObjectImpl@VCOPOSBillDispenser@@@ATL@@QAEJXZ 1001b060 f i BillDispenser.obj
 0001:0001a070       ?OnPostVerbInPlaceActivate@?$IOleObjectImpl@VCOPOSBillDispenser@@@ATL@@QAEJXZ 1001b070 f i BillDispenser.obj
 0001:0001a080       ?OnPostVerbOpen@?$IOleObjectImpl@VCOPOSBillDispenser@@@ATL@@QAEJXZ 1001b080 f i BillDispenser.obj
 0001:0001a090       ?OnPostVerbShow@?$IOleObjectImpl@VCOPOSBillDispenser@@@ATL@@QAEJXZ 1001b090 f i BillDispenser.obj
 0001:0001a0a0       ?OnPostVerbUIActivate@?$IOleObjectImpl@VCOPOSBillDispenser@@@ATL@@QAEJXZ 1001b0a0 f i BillDispenser.obj
 0001:0001a0b0       ?OnPreVerbDiscardUndo@?$IOleObjectImpl@VCOPOSBillDispenser@@@ATL@@QAEJXZ 1001b0b0 f i BillDispenser.obj
 0001:0001a0c0       ?OnPreVerbHide@?$IOleObjectImpl@VCOPOSBillDispenser@@@ATL@@QAEJXZ 1001b0c0 f i BillDispenser.obj
 0001:0001a0d0       ?OnPreVerbInPlaceActivate@?$IOleObjectImpl@VCOPOSBillDispenser@@@ATL@@QAEJXZ 1001b0d0 f i BillDispenser.obj
 0001:0001a0e0       ?OnPreVerbOpen@?$IOleObjectImpl@VCOPOSBillDispenser@@@ATL@@QAEJXZ 1001b0e0 f i BillDispenser.obj
 0001:0001a0f0       ?OnPreVerbShow@?$IOleObjectImpl@VCOPOSBillDispenser@@@ATL@@QAEJXZ 1001b0f0 f i BillDispenser.obj
 0001:0001a100       ?OnPreVerbUIActivate@?$IOleObjectImpl@VCOPOSBillDispenser@@@ATL@@QAEJXZ 1001b100 f i BillDispenser.obj
 0001:0001a110       ?OnSetFocus@CComControlBase@ATL@@QAEJIIJAAH@Z 1001b110 f i BillDispenser.obj
 0001:0001a2a0       ?OnWindowMessage@?$IOleInPlaceObjectWindowlessImpl@VCOPOSBillDispenser@@@ATL@@UAGJIIJPAJ@Z 1001b2a0 f i BillDispenser.obj
 0001:0001a400       ?Open@CRegKey@ATL@@QAEJPAUHKEY__@@PB_WK@Z 1001b400 f i BillDispenser.obj
 0001:0001a550       ?OuterAddRef@CComObjectRootBase@ATL@@QAEKXZ 1001b550 f i BillDispenser.obj
 0001:0001a590       ?OuterQueryInterface@CComObjectRootBase@ATL@@QAEJABU_GUID@@PAPAX@Z 1001b590 f i BillDispenser.obj
 0001:0001a5e0       ?OuterRelease@CComObjectRootBase@ATL@@QAEKXZ 1001b5e0 f i BillDispenser.obj
 0001:0001a620       ?PreProcessBuffer@CRegParser@ATL@@QAEJPA_WPAPA_W@Z 1001b620 f i BillDispenser.obj
 0001:0001ab60       ?PreTranslateAccelerator@CComControlBase@ATL@@QAEHPAUtagMSG@@AAJ@Z 1001bb60 f i BillDispenser.obj
 0001:0001ab70       ?ProcessWindowMessage@?$CComControl@VCOPOSBillDispenser@@V?$CWindowImpl@VCOPOSBillDispenser@@VCWindow@ATL@@V?$CWinTraits@$0FGAAAAAA@$0A@@3@@ATL@@@ATL@@UAEHPAUHWND__@@IIJAAJK@Z 1001bb70 f i BillDispenser.obj
 0001:0001ad40       ?ProcessWindowMessage@COPOSBillDispenser@@UAEHPAUHWND__@@IIJAAJK@Z 1001bd40 f i BillDispenser.obj
 0001:0001ae40       ?PutProperty@?$CComPtr@UIDispatch@@@ATL@@QAEJJPAUtagVARIANT@@@Z 1001be40 f i BillDispenser.obj
 0001:0001ae80       ?PutProperty@?$CComPtr@UIDispatch@@@ATL@@SAJPAUIDispatch@@JPAUtagVARIANT@@@Z 1001be80 f i BillDispenser.obj
 0001:0001b070       ?QueryGetData@?$IDataObjectImpl@VCOPOSBillDispenser@@@ATL@@UAGJPAUtagFORMATETC@@@Z 1001c070 f i BillDispenser.obj
 0001:0001b0e0       ?QueryHitPoint@?$IViewObjectExImpl@VCOPOSBillDispenser@@@ATL@@UAGJKPBUtagRECT@@UtagPOINT@@JPAK@Z 1001c0e0 f i BillDispenser.obj
 0001:0001b1f0       ?QueryHitRect@?$IViewObjectExImpl@VCOPOSBillDispenser@@@ATL@@UAGJKPBUtagRECT@@0JPAK@Z 1001c1f0 f i BillDispenser.obj
 0001:0001b340       ?QueryInterface@?$CComAggObject@VCOPOSBillDispenser@@@ATL@@UAGJABU_GUID@@PAPAX@Z 1001c340 f i BillDispenser.obj
 0001:0001b3f0       ?QueryInterface@?$CComContainedObject@VCOPOSBillDispenser@@@ATL@@UAGJABU_GUID@@PAPAX@Z 1001c3f0 f i BillDispenser.obj
 0001:0001b414       ?QueryInterface@?$CComContainedObject@VCOPOSBillDispenser@@@ATL@@WHA@AGJABU_GUID@@PAPAX@Z 1001c414 f i BillDispenser.obj
 0001:0001b41e       ?QueryInterface@?$CComContainedObject@VCOPOSBillDispenser@@@ATL@@WHE@AGJABU_GUID@@PAPAX@Z 1001c41e f i BillDispenser.obj
 0001:0001b428       ?QueryInterface@?$CComContainedObject@VCOPOSBillDispenser@@@ATL@@WHI@AGJABU_GUID@@PAPAX@Z 1001c428 f i BillDispenser.obj
 0001:0001b432       ?QueryInterface@?$CComContainedObject@VCOPOSBillDispenser@@@ATL@@WHM@AGJABU_GUID@@PAPAX@Z 1001c432 f i BillDispenser.obj
 0001:0001b43c       ?QueryInterface@?$CComContainedObject@VCOPOSBillDispenser@@@ATL@@WIA@AGJABU_GUID@@PAPAX@Z 1001c43c f i BillDispenser.obj
 0001:0001b449       ?QueryInterface@?$CComContainedObject@VCOPOSBillDispenser@@@ATL@@WIE@AGJABU_GUID@@PAPAX@Z 1001c449 f i BillDispenser.obj
 0001:0001b456       ?QueryInterface@?$CComContainedObject@VCOPOSBillDispenser@@@ATL@@WII@AGJABU_GUID@@PAPAX@Z 1001c456 f i BillDispenser.obj
 0001:0001b463       ?QueryInterface@?$CComContainedObject@VCOPOSBillDispenser@@@ATL@@WIM@AGJABU_GUID@@PAPAX@Z 1001c463 f i BillDispenser.obj
 0001:0001b470       ?QueryInterface@?$CComContainedObject@VCOPOSBillDispenser@@@ATL@@WJA@AGJABU_GUID@@PAPAX@Z 1001c470 f i BillDispenser.obj
 0001:0001b47d       ?QueryInterface@?$CComContainedObject@VCOPOSBillDispenser@@@ATL@@WJE@AGJABU_GUID@@PAPAX@Z 1001c47d f i BillDispenser.obj
 0001:0001b48a       ?QueryInterface@?$CComContainedObject@VCOPOSBillDispenser@@@ATL@@WJI@AGJABU_GUID@@PAPAX@Z 1001c48a f i BillDispenser.obj
 0001:0001b497       ?QueryInterface@?$CComContainedObject@VCOPOSBillDispenser@@@ATL@@WJM@AGJABU_GUID@@PAPAX@Z 1001c497 f i BillDispenser.obj
 0001:0001b4a4       ?QueryInterface@?$CComContainedObject@VCOPOSBillDispenser@@@ATL@@WKA@AGJABU_GUID@@PAPAX@Z 1001c4a4 f i BillDispenser.obj
 0001:0001b4c0       ?QueryInterface@?$CComObject@V?$CComEnum@UIEnumConnectionPoints@@$1?_GUID_b196b285_bab4_101a_b69c_00aa00341d07@@3U__s_GUID@@BPAUIConnectionPoint@@V?$_CopyInterface@UIConnectionPoint@@@ATL@@VCComSingleThreadModel@6@@ATL@@@ATL@@UAGJABU_GUID@@PAPAX@Z 1001c4c0 f i BillDispenser.obj
 0001:0001b4e0       ?QueryInterface@?$CComObject@V?$CComEnum@UIEnumConnections@@$1?_GUID_b196b287_bab4_101a_b69c_00aa00341d07@@3U__s_GUID@@BUtagCONNECTDATA@@V?$_Copy@UtagCONNECTDATA@@@ATL@@VCComSingleThreadModel@6@@ATL@@@ATL@@UAGJABU_GUID@@PAPAX@Z 1001c4e0 f i BillDispenser.obj
 0001:0001b500       ?QueryInterface@?$CComObject@VCOPOSBillDispenser@@@ATL@@UAGJABU_GUID@@PAPAX@Z 1001c500 f i BillDispenser.obj
 0001:0001b51e       ?QueryInterface@?$CComObject@VCOPOSBillDispenser@@@ATL@@WHA@AGJABU_GUID@@PAPAX@Z 1001c51e f i BillDispenser.obj
 0001:0001b528       ?QueryInterface@?$CComObject@VCOPOSBillDispenser@@@ATL@@WHE@AGJABU_GUID@@PAPAX@Z 1001c528 f i BillDispenser.obj
 0001:0001b532       ?QueryInterface@?$CComObject@VCOPOSBillDispenser@@@ATL@@WHI@AGJABU_GUID@@PAPAX@Z 1001c532 f i BillDispenser.obj
 0001:0001b53c       ?QueryInterface@?$CComObject@VCOPOSBillDispenser@@@ATL@@WHM@AGJABU_GUID@@PAPAX@Z 1001c53c f i BillDispenser.obj
 0001:0001b546       ?QueryInterface@?$CComObject@VCOPOSBillDispenser@@@ATL@@WIA@AGJABU_GUID@@PAPAX@Z 1001c546 f i BillDispenser.obj
 0001:0001b553       ?QueryInterface@?$CComObject@VCOPOSBillDispenser@@@ATL@@WIE@AGJABU_GUID@@PAPAX@Z 1001c553 f i BillDispenser.obj
 0001:0001b560       ?QueryInterface@?$CComObject@VCOPOSBillDispenser@@@ATL@@WII@AGJABU_GUID@@PAPAX@Z 1001c560 f i BillDispenser.obj
 0001:0001b56d       ?QueryInterface@?$CComObject@VCOPOSBillDispenser@@@ATL@@WIM@AGJABU_GUID@@PAPAX@Z 1001c56d f i BillDispenser.obj
 0001:0001b57a       ?QueryInterface@?$CComObject@VCOPOSBillDispenser@@@ATL@@WJA@AGJABU_GUID@@PAPAX@Z 1001c57a f i BillDispenser.obj
 0001:0001b587       ?QueryInterface@?$CComObject@VCOPOSBillDispenser@@@ATL@@WJE@AGJABU_GUID@@PAPAX@Z 1001c587 f i BillDispenser.obj
 0001:0001b594       ?QueryInterface@?$CComObject@VCOPOSBillDispenser@@@ATL@@WJI@AGJABU_GUID@@PAPAX@Z 1001c594 f i BillDispenser.obj
 0001:0001b5a1       ?QueryInterface@?$CComObject@VCOPOSBillDispenser@@@ATL@@WJM@AGJABU_GUID@@PAPAX@Z 1001c5a1 f i BillDispenser.obj
 0001:0001b5ae       ?QueryInterface@?$CComObject@VCOPOSBillDispenser@@@ATL@@WKA@AGJABU_GUID@@PAPAX@Z 1001c5ae f i BillDispenser.obj
 0001:0001b5c0       ?QueryInterface@?$CComObjectCached@VCComClassFactory@ATL@@@ATL@@UAGJABU_GUID@@PAPAX@Z 1001c5c0 f i BillDispenser.obj
 0001:0001b5e0       ?QueryInterface@CRegObject@ATL@@UAGJABU_GUID@@PAPAX@Z 1001c5e0 f i BillDispenser.obj
 0001:0001b630       ?QuickActivate@?$IQuickActivateImpl@VCOPOSBillDispenser@@@ATL@@UAGJPAUtagQACONTAINER@@PAUtagQACONTROL@@@Z 1001c630 f i BillDispenser.obj
 0001:0001b6c0       ?ReactivateAndUndo@?$IOleInPlaceObjectWindowlessImpl@VCOPOSBillDispenser@@@ATL@@UAGJXZ 1001c6c0 f i BillDispenser.obj
 0001:0001b730       ?ReadFromStream@CComBSTR@ATL@@QAEJPAUIStream@@@Z 1001c730 f i BillDispenser.obj
 0001:0001bb30       ?ReadFromStream@CComVariant@ATL@@QAEJPAUIStream@@GTClassesAllowedInStream@2@K@Z 1001cb30 f i BillDispenser.obj
 0001:0001beb0       ?RecurseDeleteKey@CRegKey@ATL@@QAEJPB_W@Z 1001ceb0 f i BillDispenser.obj
 0001:0001c090       ?RegCreateKeyExW@CAtlTransactionManager@ATL@@QAEJPAUHKEY__@@PB_WKPA_WKKQAU_SECURITY_ATTRIBUTES@@PAPAU3@PAK@Z 1001d090 f i BillDispenser.obj
 0001:0001c1c0       ?RegDeleteKeyW@CAtlTransactionManager@ATL@@QAEJPAUHKEY__@@PB_W@Z 1001d1c0 f i BillDispenser.obj
 0001:0001c2c0       ?RegOpenKeyExW@CAtlTransactionManager@ATL@@QAEJPAUHKEY__@@PB_WKKPAPAU3@@Z 1001d2c0 f i BillDispenser.obj
 0001:0001c3d0       ?Register@_ATL_WNDCLASSINFOW@ATL@@QAEGPAP6GJPAUHWND__@@IIJ@Z@Z 1001d3d0 f i BillDispenser.obj
 0001:0001c410       ?RegisterBuffer@CRegParser@ATL@@QAEJPA_WH@Z 1001d410 f i BillDispenser.obj
 0001:0001c740       ?RegisterClassExW@AtlModuleRegisterWndClassInfoParamW@ATL@@SAGPAU_ATL_WIN_MODULE70@2@PBUtagWNDCLASSEXW@@@Z 1001d740 f i BillDispenser.obj
 0001:0001c760       ?RegisterFromResource@CRegObject@ATL@@IAEJPB_W00H@Z 1001d760 f i BillDispenser.obj
 0001:0001caf0       ?RegisterServer@?$CAtlModuleT@VCComModule@ATL@@@ATL@@QAEJHPBU_GUID@@@Z 1001daf0 f i BillDispenser.obj
 0001:0001cb70       ?RegisterServer@CAtlComModule@ATL@@QAEJHPBU_GUID@@@Z 1001db70 f i BillDispenser.obj
 0001:0001cba0       ?RegisterServer@CComModule@ATL@@QAEJHPBU_GUID@@@Z 1001dba0 f i BillDispenser.obj
 0001:0001cc80       ?RegisterSubkeys@CRegParser@ATL@@IAEJPA_WPAUHKEY__@@HH@Z 1001dc80 f i BillDispenser.obj
 0001:0001d7a0       ?Release@?$CComAggObject@VCOPOSBillDispenser@@@ATL@@UAGKXZ 1001e7a0 f i BillDispenser.obj
 0001:0001d860       ?Release@?$CComContainedObject@VCOPOSBillDispenser@@@ATL@@UAGKXZ 1001e860 f i BillDispenser.obj
 0001:0001d87c       ?Release@?$CComContainedObject@VCOPOSBillDispenser@@@ATL@@WHA@AGKXZ 1001e87c f i BillDispenser.obj
 0001:0001d886       ?Release@?$CComContainedObject@VCOPOSBillDispenser@@@ATL@@WHE@AGKXZ 1001e886 f i BillDispenser.obj
 0001:0001d890       ?Release@?$CComContainedObject@VCOPOSBillDispenser@@@ATL@@WHI@AGKXZ 1001e890 f i BillDispenser.obj
 0001:0001d89a       ?Release@?$CComContainedObject@VCOPOSBillDispenser@@@ATL@@WHM@AGKXZ 1001e89a f i BillDispenser.obj
 0001:0001d8a4       ?Release@?$CComContainedObject@VCOPOSBillDispenser@@@ATL@@WIA@AGKXZ 1001e8a4 f i BillDispenser.obj
 0001:0001d8b1       ?Release@?$CComContainedObject@VCOPOSBillDispenser@@@ATL@@WIE@AGKXZ 1001e8b1 f i BillDispenser.obj
 0001:0001d8be       ?Release@?$CComContainedObject@VCOPOSBillDispenser@@@ATL@@WII@AGKXZ 1001e8be f i BillDispenser.obj
 0001:0001d8cb       ?Release@?$CComContainedObject@VCOPOSBillDispenser@@@ATL@@WIM@AGKXZ 1001e8cb f i BillDispenser.obj
 0001:0001d8d8       ?Release@?$CComContainedObject@VCOPOSBillDispenser@@@ATL@@WJA@AGKXZ 1001e8d8 f i BillDispenser.obj
 0001:0001d8e5       ?Release@?$CComContainedObject@VCOPOSBillDispenser@@@ATL@@WJE@AGKXZ 1001e8e5 f i BillDispenser.obj
 0001:0001d8f2       ?Release@?$CComContainedObject@VCOPOSBillDispenser@@@ATL@@WJI@AGKXZ 1001e8f2 f i BillDispenser.obj
 0001:0001d8ff       ?Release@?$CComContainedObject@VCOPOSBillDispenser@@@ATL@@WJM@AGKXZ 1001e8ff f i BillDispenser.obj
 0001:0001d90c       ?Release@?$CComContainedObject@VCOPOSBillDispenser@@@ATL@@WKA@AGKXZ 1001e90c f i BillDispenser.obj
 0001:0001d919       ?Release@?$CComContainedObject@VCOPOSBillDispenser@@@ATL@@WKI@AGKXZ 1001e919 f i BillDispenser.obj
 0001:0001d926       ?Release@?$CComContainedObject@VCOPOSBillDispenser@@@ATL@@WLE@AGKXZ 1001e926 f i BillDispenser.obj
 0001:0001d940       ?Release@?$CComObject@V?$CComEnum@UIEnumConnectionPoints@@$1?_GUID_b196b285_bab4_101a_b69c_00aa00341d07@@3U__s_GUID@@BPAUIConnectionPoint@@V?$_CopyInterface@UIConnectionPoint@@@ATL@@VCComSingleThreadModel@6@@ATL@@@ATL@@UAGKXZ 1001e940 f i BillDispenser.obj
 0001:0001da00       ?Release@?$CComObject@V?$CComEnum@UIEnumConnections@@$1?_GUID_b196b287_bab4_101a_b69c_00aa00341d07@@3U__s_GUID@@BUtagCONNECTDATA@@V?$_Copy@UtagCONNECTDATA@@@ATL@@VCComSingleThreadModel@6@@ATL@@@ATL@@UAGKXZ 1001ea00 f i BillDispenser.obj
 0001:0001dac0       ?Release@?$CComObject@VCOPOSBillDispenser@@@ATL@@UAGKXZ 1001eac0 f i BillDispenser.obj
 0001:0001db79       ?Release@?$CComObject@VCOPOSBillDispenser@@@ATL@@WHA@AGKXZ 1001eb79 f i BillDispenser.obj
 0001:0001db83       ?Release@?$CComObject@VCOPOSBillDispenser@@@ATL@@WHE@AGKXZ 1001eb83 f i BillDispenser.obj
 0001:0001db8d       ?Release@?$CComObject@VCOPOSBillDispenser@@@ATL@@WHI@AGKXZ 1001eb8d f i BillDispenser.obj
 0001:0001db97       ?Release@?$CComObject@VCOPOSBillDispenser@@@ATL@@WHM@AGKXZ 1001eb97 f i BillDispenser.obj
 0001:0001dba1       ?Release@?$CComObject@VCOPOSBillDispenser@@@ATL@@WIA@AGKXZ 1001eba1 f i BillDispenser.obj
 0001:0001dbae       ?Release@?$CComObject@VCOPOSBillDispenser@@@ATL@@WIE@AGKXZ 1001ebae f i BillDispenser.obj
 0001:0001dbbb       ?Release@?$CComObject@VCOPOSBillDispenser@@@ATL@@WII@AGKXZ 1001ebbb f i BillDispenser.obj
 0001:0001dbc8       ?Release@?$CComObject@VCOPOSBillDispenser@@@ATL@@WIM@AGKXZ 1001ebc8 f i BillDispenser.obj
 0001:0001dbd5       ?Release@?$CComObject@VCOPOSBillDispenser@@@ATL@@WJA@AGKXZ 1001ebd5 f i BillDispenser.obj
 0001:0001dbe2       ?Release@?$CComObject@VCOPOSBillDispenser@@@ATL@@WJE@AGKXZ 1001ebe2 f i BillDispenser.obj
 0001:0001dbef       ?Release@?$CComObject@VCOPOSBillDispenser@@@ATL@@WJI@AGKXZ 1001ebef f i BillDispenser.obj
 0001:0001dbfc       ?Release@?$CComObject@VCOPOSBillDispenser@@@ATL@@WJM@AGKXZ 1001ebfc f i BillDispenser.obj
 0001:0001dc09       ?Release@?$CComObject@VCOPOSBillDispenser@@@ATL@@WKA@AGKXZ 1001ec09 f i BillDispenser.obj
 0001:0001dc16       ?Release@?$CComObject@VCOPOSBillDispenser@@@ATL@@WKI@AGKXZ 1001ec16 f i BillDispenser.obj
 0001:0001dc23       ?Release@?$CComObject@VCOPOSBillDispenser@@@ATL@@WLE@AGKXZ 1001ec23 f i BillDispenser.obj
 0001:0001dc30       ?Release@?$CComObjectCached@VCComClassFactory@ATL@@@ATL@@UAGKXZ 1001ec30 f i BillDispenser.obj
 0001:0001dcd0       ?Release@?$CComPtrBase@UIAdviseSink@@@ATL@@QAEXXZ 1001ecd0 f i BillDispenser.obj
 0001:0001dd30       ?Release@?$CComPtrBase@UIDispatch@@@ATL@@QAEXXZ 1001ed30 f i BillDispenser.obj
 0001:0001dd90       ?Release@?$CComPtrBase@UIOleInPlaceSiteWindowless@@@ATL@@QAEXXZ 1001ed90 f i BillDispenser.obj
 0001:0001ddf0       ?Release@CRegObject@ATL@@UAGKXZ 1001edf0 f i BillDispenser.obj
 0001:0001de30       ?Remove@CComDynamicUnkArray@ATL@@QAEHK@Z 1001ee30 f i BillDispenser.obj
 0001:0001dee0       ?RemoveAll@?$CSimpleMap@PA_WPA_WVCExpansionVectorEqualHelper@ATL@@@ATL@@QAEXXZ 1001eee0 f i BillDispenser.obj
 0001:0001df70       ?Reset@?$CComEnumImpl@UIEnumConnectionPoints@@$1?_GUID_b196b285_bab4_101a_b69c_00aa00341d07@@3U__s_GUID@@BPAUIConnectionPoint@@V?$_CopyInterface@UIConnectionPoint@@@ATL@@@ATL@@UAGJXZ 1001ef70 f i BillDispenser.obj
 0001:0001df90       ?Reset@?$CComEnumImpl@UIEnumConnections@@$1?_GUID_b196b287_bab4_101a_b69c_00aa00341d07@@3U__s_GUID@@BUtagCONNECTDATA@@V?$_Copy@UtagCONNECTDATA@@@ATL@@@ATL@@UAGJXZ 1001ef90 f i BillDispenser.obj
 0001:0001dfb0       ?ResizeBorder@?$IOleInPlaceActiveObjectImpl@VCOPOSBillDispenser@@@ATL@@UAGJPBUtagRECT@@PAUIOleInPlaceUIWindow@@H@Z 1001efb0 f i BillDispenser.obj
 0001:0001e010       ?ResourceRegister@CRegObject@ATL@@QAGJPB_WI0@Z 1001f010 f i BillDispenser.obj
 0001:0001e0f0       ?ResourceRegisterSz@CRegObject@ATL@@QAGJPB_W00@Z 1001f0f0 f i BillDispenser.obj
 0001:0001e1f0       ?ResourceUnregister@CRegObject@ATL@@QAGJPB_WI0@Z 1001f1f0 f i BillDispenser.obj
 0001:0001e2d0       ?ResourceUnregisterSz@CRegObject@ATL@@QAGJPB_W00@Z 1001f2d0 f i BillDispenser.obj
 0001:0001e3d0       ?SODataDummy@COPOSBillDispenser@@MAGJJ@Z 1001f3d0 f i BillDispenser.obj
 0001:0001e3e0       ?SODirectIO@COPOSBillDispenser@@MAGJJPAJPAPA_W@Z 1001f3e0 f i BillDispenser.obj
 0001:0001e5a0       ?SOErrorDummy@COPOSBillDispenser@@MAGJJJJPAJ@Z 1001f5a0 f i BillDispenser.obj
 0001:0001e5b0       ?SOOutputCompleteDummy@COPOSBillDispenser@@MAGJJ@Z 1001f5b0 f i BillDispenser.obj
 0001:0001e5c0       ?SOStatusUpdate@COPOSBillDispenser@@MAGJJ@Z 1001f5c0 f i BillDispenser.obj
 0001:0001e640       ?Save@?$IPersistStorageImpl@VCOPOSBillDispenser@@@ATL@@UAGJPAUIStorage@@H@Z 1001f640 f i BillDispenser.obj
 0001:0001e7a0       ?Save@?$IPersistStreamInitImpl@VCOPOSBillDispenser@@@ATL@@UAGJPAUIStream@@H@Z 1001f7a0 f i BillDispenser.obj
 0001:0001e830       ?SaveCompleted@?$IPersistStorageImpl@VCOPOSBillDispenser@@@ATL@@UAGJPAUIStorage@@@Z 1001f830 f i BillDispenser.obj
 0001:0001e890       ?SendOnDataChange@CComControlBase@ATL@@QAEJK@Z 1001f890 f i BillDispenser.obj
 0001:0001e980       ?SendOnSave@CComControlBase@ATL@@QAEJXZ 1001f980 f i BillDispenser.obj
 0001:0001e9f0       ?SendOnViewChange@CComControlBase@ATL@@QAEJKJ@Z 1001f9f0 f i BillDispenser.obj
 0001:0001ea60       ?SetAdvise@?$IViewObjectExImpl@VCOPOSBillDispenser@@@ATL@@UAGJKKPAUIAdviseSink@@@Z 1001fa60 f i BillDispenser.obj
 0001:0001eaf0       ?SetClientSite@?$IOleObjectImpl@VCOPOSBillDispenser@@@ATL@@UAGJPAUIOleClientSite@@@Z 1001faf0 f i BillDispenser.obj
 0001:0001eb80       ?SetColorScheme@?$IOleObjectImpl@VCOPOSBillDispenser@@@ATL@@UAGJPAUtagLOGPALETTE@@@Z 1001fb80 f i BillDispenser.obj
 0001:0001ebf0       ?SetContentExtent@?$IQuickActivateImpl@VCOPOSBillDispenser@@@ATL@@UAGJPAUtagSIZE@@@Z 1001fbf0 f i BillDispenser.obj
 0001:0001ec80       ?SetControlFocus@CComControlBase@ATL@@QAEHH@Z 1001fc80 f i BillDispenser.obj
 0001:0001ee00       ?SetDWORDValue@CRegKey@ATL@@QAEJPB_WK@Z 1001fe00 f i BillDispenser.obj
 0001:0001ee80       ?SetData@?$IDataObjectImpl@VCOPOSBillDispenser@@@ATL@@UAGJPAUtagFORMATETC@@PAUtagSTGMEDIUM@@H@Z 1001fe80 f i BillDispenser.obj
 0001:0001eef0       ?SetExtent@?$IOleObjectImpl@VCOPOSBillDispenser@@@ATL@@UAGJKPAUtagSIZE@@@Z 1001fef0 f i BillDispenser.obj
 0001:0001ef80       ?SetHostNames@?$IOleObjectImpl@VCOPOSBillDispenser@@@ATL@@UAGJPB_W0@Z 1001ff80 f i BillDispenser.obj
 0001:0001efe0       ?SetInterfaceSafetyOptions@?$IObjectSafetyImpl@VCOPOSBillDispenser@@$02@ATL@@UAGJABU_GUID@@KK@Z 1001ffe0 f i BillDispenser.obj
 0001:0001f150       ?SetMoniker@?$IOleObjectImpl@VCOPOSBillDispenser@@@ATL@@UAGJKPAUIMoniker@@@Z 10020150 f i BillDispenser.obj
 0001:0001f1c0       ?SetMultiStringValue@CRegKey@ATL@@QAEJPB_W0@Z 100201c0 f i BillDispenser.obj
 0001:0001f2e0       ?SetObjectRects@?$IOleInPlaceObjectWindowlessImpl@VCOPOSBillDispenser@@@ATL@@UAGJPBUtagRECT@@0@Z 100202e0 f i BillDispenser.obj
 0001:0001f370       ?SetStringValue@CRegKey@ATL@@QAEJPB_W0K@Z 10020370 f i BillDispenser.obj
 0001:0001f4a0       ?SetVoid@CComClassFactory@ATL@@QAEXPAX@Z 100204a0 f i BillDispenser.obj
 0001:0001f4c0       ?SetVoid@CComObjectRootBase@ATL@@QAEXPAX@Z 100204c0 f i BillDispenser.obj
 0001:0001f4d0       ?SetWindowLongPtrW@@YAJPAUHWND__@@HJ@Z 100204d0 f i BillDispenser.obj
 0001:0001f500       ?ShowWindow@CWindow@ATL@@QAEHH@Z 10020500 f i BillDispenser.obj
 0001:0001f580       ?Skip@?$CComEnumImpl@UIEnumConnectionPoints@@$1?_GUID_b196b285_bab4_101a_b69c_00aa00341d07@@3U__s_GUID@@BPAUIConnectionPoint@@V?$_CopyInterface@UIConnectionPoint@@@ATL@@@ATL@@UAGJK@Z 10020580 f i BillDispenser.obj
 0001:0001f5f0       ?Skip@?$CComEnumImpl@UIEnumConnections@@$1?_GUID_b196b287_bab4_101a_b69c_00aa00341d07@@3U__s_GUID@@BUtagCONNECTDATA@@V?$_Copy@UtagCONNECTDATA@@@ATL@@@ATL@@UAGJK@Z 100205f0 f i BillDispenser.obj
 0001:0001f660       ?SkipAssignment@CRegParser@ATL@@IAEJPA_W@Z 10020660 f i BillDispenser.obj
 0001:0001f740       ?SkipWhiteSpace@CRegParser@ATL@@IAEXXZ 10020740 f i BillDispenser.obj
 0001:0001f790       ?StartWindowProc@?$CWindowImplBaseT@VCWindow@ATL@@V?$CWinTraits@$0FGAAAAAA@$0A@@2@@ATL@@SGJPAUHWND__@@IIJ@Z 10020790 f i BillDispenser.obj
 0001:0001f8b0       ?StrChrW@CRegParser@ATL@@KAPA_WPA_W_W@Z 100208b0 f i BillDispenser.obj
 0001:0001f920       ?StrFromMap@CRegObject@ATL@@QAEPB_WPA_W@Z 10020920 f i BillDispenser.obj
 0001:0001f9b0       ?Swap@?$CComPtrBase@UIAdviseSink@@@ATL@@IAEXAAV12@@Z 100209b0 f i BillDispenser.obj
 0001:0001f9e0       ?Swap@?$CComPtrBase@UIOleClientSite@@@ATL@@IAEXAAV12@@Z 100209e0 f i BillDispenser.obj
 0001:0001fa10       ?Swap@?$CComPtrBase@UIUnknown@@@ATL@@IAEXAAV12@@Z 10020a10 f i BillDispenser.obj
 0001:0001fa40       ?T2COLE_EX@@YAPB_WPB_WI@Z  10020a40 f i BillDispenser.obj
 0001:0001fa50       ?T2OLE_EX@@YAPA_WPA_WI@Z   10020a50 f i BillDispenser.obj
 0001:0001fa60       ?Term@CAtlModule@ATL@@QAEXXZ 10020a60 f i BillDispenser.obj
 0001:0001fb10       ?Term@CComModule@ATL@@QAEXXZ 10020b10 f i BillDispenser.obj
 0001:0001fc00       ?TranslateAcceleratorW@?$IOleInPlaceActiveObjectImpl@VCOPOSBillDispenser@@@ATL@@UAGJPAUtagMSG@@@Z 10020c00 f i BillDispenser.obj
 0001:0001fe00       ?UIDeactivate@?$IOleInPlaceObjectWindowlessImpl@VCOPOSBillDispenser@@@ATL@@UAGJXZ 10020e00 f i BillDispenser.obj
 0001:0001fe80       ?Unadvise@?$CProxy_IOPOSEvents@VCOPOSBillDispenser@@@@UAGJK@Z 10020e80 f i BillDispenser.obj
 0001:0001fec0       ?Unadvise@?$IConnectionPointImpl@VCOPOSBillDispenser@@$1?DIID__IOPOSBillDispenserEvents@@3U_GUID@@BVCComDynamicUnkArray@ATL@@@ATL@@UAGJK@Z 10020ec0 f i BillDispenser.obj
 0001:0001ff90       ?Unadvise@?$IConnectionPointImpl@VCOPOSBillDispenser@@$1?IID_IPropertyNotifySink@@3U_GUID@@BVCComDynamicUnkArray@ATL@@@ATL@@UAGJK@Z 10020f90 f i BillDispenser.obj
 0001:00020060       ?Unadvise@?$IOleObjectImpl@VCOPOSBillDispenser@@@ATL@@UAGJK@Z 10021060 f i BillDispenser.obj
 0001:00020130       ?Unfreeze@?$IViewObjectExImpl@VCOPOSBillDispenser@@@ATL@@UAGJK@Z 10021130 f i BillDispenser.obj
 0001:000201a0       ?Unlock@?$CComCritSecLock@VCComCriticalSection@ATL@@@ATL@@QAEXXZ 100211a0 f i BillDispenser.obj
 0001:00020210       ?Unlock@?$CComObjectRootEx@VCComSingleThreadModel@ATL@@@ATL@@QAEXXZ 10021210 f i BillDispenser.obj
 0001:00020220       ?Unlock@CAtlModule@ATL@@UAEJXZ 10021220 f i BillDispenser.obj
 0001:00020250       ?Unlock@CComCriticalSection@ATL@@QAEJXZ 10021250 f i BillDispenser.obj
 0001:00020290       ?Unlock@CComFakeCriticalSection@ATL@@QAEJXZ 10021290 f i BillDispenser.obj
 0001:000202a0       ?UnregisterServer@?$CAtlModuleT@VCComModule@ATL@@@ATL@@QAEJHPBU_GUID@@@Z 100212a0 f i BillDispenser.obj
 0001:00020310       ?UnregisterServer@CAtlComModule@ATL@@QAEJHPBU_GUID@@@Z 10021310 f i BillDispenser.obj
 0001:00020340       ?UnregisterServer@CComModule@ATL@@QAEJHPBU_GUID@@@Z 10021340 f i BillDispenser.obj
 0001:00020420       ?Update@?$IOleObjectImpl@VCOPOSBillDispenser@@@ATL@@UAGJXZ 10021420 f i BillDispenser.obj
 0001:00020480       ?UpdateRegistryFromResource@CAtlModule@ATL@@QAGJIHPAU_ATL_REGMAP_ENTRY@2@@Z 10021480 f i BillDispenser.obj
 0001:00020950       ?UpdateRegistryFromResource@CAtlModule@ATL@@QAGJPB_WHPAU_ATL_REGMAP_ENTRY@2@@Z 10021950 f i BillDispenser.obj
 0001:00020e40       ?UpdateRegistryFromResource@CComModule@ATL@@UAGJIHPAU_ATL_REGMAP_ENTRY@2@@Z 10021e40 f i BillDispenser.obj
 0001:00020e70       ?UpdateRegistryFromResource@CComModule@ATL@@UAGJPB_WHPAU_ATL_REGMAP_ENTRY@2@@Z 10021e70 f i BillDispenser.obj
 0001:00020ea0       ?UpdateRegistryFromResourceD@CComModule@ATL@@UAGJIHPAU_ATL_REGMAP_ENTRY@2@@Z 10021ea0 f i BillDispenser.obj
 0001:00020eb0       ?UpdateRegistryFromResourceD@CComModule@ATL@@UAGJPB_WHPAU_ATL_REGMAP_ENTRY@2@@Z 10021eb0 f i BillDispenser.obj
 0001:00020ec0       ?VTFromRegType@CRegParser@ATL@@KAHPB_WAAG@Z 10021ec0 f i BillDispenser.obj
 0001:00020fa0       ?WindowProc@?$CWindowImplBaseT@VCWindow@ATL@@V?$CWinTraits@$0FGAAAAAA@$0A@@2@@ATL@@SGJPAUHWND__@@IIJ@Z 10021fa0 f i BillDispenser.obj
 0001:000211b0       ?WriteToStream@CComBSTR@ATL@@QAEJPAUIStream@@@Z 100221b0 f i BillDispenser.obj
 0001:00021310       ?WriteToStream@CComVariant@ATL@@QAEJPAUIStream@@@Z 10022310 f i BillDispenser.obj
 0001:00021670       ?WriteToStream@CComVariant@ATL@@QAEJPAUIStream@@G@Z 10022670 f i BillDispenser.obj
 0001:00021740       ?_AtlFinalConstruct@CComObjectRootBase@ATL@@QAEJXZ 10022740 f i BillDispenser.obj
 0001:00021750       ?_AtlGetConversionACP@ATL@@YGIXZ 10022750 f i BillDispenser.obj
 0001:00021760       ?_AtlInitialConstruct@?$CComAggObject@VCOPOSBillDispenser@@@ATL@@QAEJXZ 10022760 f i BillDispenser.obj
 0001:000217b0       ?_AtlInitialConstruct@?$CComObjectRootEx@VCComMultiThreadModel@ATL@@@ATL@@QAEJXZ 100227b0 f i BillDispenser.obj
 0001:000217e0       ?_AtlInitialConstruct@?$CComObjectRootEx@VCComSingleThreadModel@ATL@@@ATL@@QAEJXZ 100227e0 f i BillDispenser.obj
 0001:000217f0       ?_AtlVerifyStackAvailable@_ATL_SAFE_ALLOCA_IMPL@ATL@@YA_NK@Z 100227f0 f i BillDispenser.obj
 0001:000219a0       ?_GetEntries@?$CComEnum@UIEnumConnectionPoints@@$1?_GUID_b196b285_bab4_101a_b69c_00aa00341d07@@3U__s_GUID@@BPAUIConnectionPoint@@V?$_CopyInterface@UIConnectionPoint@@@ATL@@VCComSingleThreadModel@6@@ATL@@SGPBU_ATL_INTMAP_ENTRY@2@XZ 100229a0 f i BillDispenser.obj
 0001:000219c0       ?_GetEntries@?$CComEnum@UIEnumConnections@@$1?_GUID_b196b287_bab4_101a_b69c_00aa00341d07@@3U__s_GUID@@BUtagCONNECTDATA@@V?$_Copy@UtagCONNECTDATA@@@ATL@@VCComSingleThreadModel@6@@ATL@@SGPBU_ATL_INTMAP_ENTRY@2@XZ 100229c0 f i BillDispenser.obj
 0001:000219e0       ?_GetEntries@CComClassFactory@ATL@@SGPBU_ATL_INTMAP_ENTRY@2@XZ 100229e0 f i BillDispenser.obj
 0001:00021a00       ?_GetEntries@COPOSBillDispenser@@SGPBU_ATL_INTMAP_ENTRY@ATL@@XZ 10022a00 f i BillDispenser.obj
 0001:00021a20       ?_GetRawUnknown@COPOSBillDispenser@@QAEPAUIUnknown@@XZ 10022a20 f i BillDispenser.obj
 0001:00021a90       ?_GetViewStatus@COPOSBillDispenser@@QAEKXZ 10022a90 f i BillDispenser.obj
 0001:00021aa0       ?_InternalQueryInterface@?$CComEnum@UIEnumConnectionPoints@@$1?_GUID_b196b285_bab4_101a_b69c_00aa00341d07@@3U__s_GUID@@BPAUIConnectionPoint@@V?$_CopyInterface@UIConnectionPoint@@@ATL@@VCComSingleThreadModel@6@@ATL@@QAEJABU_GUID@@PAPAX@Z 10022aa0 f i BillDispenser.obj
 0001:00021ae0       ?_InternalQueryInterface@?$CComEnum@UIEnumConnections@@$1?_GUID_b196b287_bab4_101a_b69c_00aa00341d07@@3U__s_GUID@@BUtagCONNECTDATA@@V?$_Copy@UtagCONNECTDATA@@@ATL@@VCComSingleThreadModel@6@@ATL@@QAEJABU_GUID@@PAPAX@Z 10022ae0 f i BillDispenser.obj
 0001:00021b20       ?_InternalQueryInterface@CComClassFactory@ATL@@QAEJABU_GUID@@PAPAX@Z 10022b20 f i BillDispenser.obj
 0001:00021b60       ?_InternalQueryInterface@COPOSBillDispenser@@QAEJABU_GUID@@PAPAX@Z 10022b60 f i BillDispenser.obj
 0001:00021ba0       ?_LocCPQueryInterface@?$IConnectionPointImpl@VCOPOSBillDispenser@@$1?DIID__IOPOSBillDispenserEvents@@3U_GUID@@BVCComDynamicUnkArray@ATL@@@ATL@@UAGJABU_GUID@@PAPAX@Z 10022ba0 f i BillDispenser.obj
 0001:00021c40       ?_LocCPQueryInterface@?$IConnectionPointImpl@VCOPOSBillDispenser@@$1?IID_IPropertyNotifySink@@3U_GUID@@BVCComDynamicUnkArray@ATL@@@ATL@@UAGJABU_GUID@@PAPAX@Z 10022c40 f i BillDispenser.obj
 0001:00021ce0       ?atlCreate@?$CWindowImpl@VCOPOSBillDispenser@@VCWindow@ATL@@V?$CWinTraits@$0FGAAAAAA@$0A@@3@@ATL@@QAEPAUHWND__@@PAU3@V_U_RECT@2@PB_WKKV_U_MENUorID@2@PAX@Z 10022ce0 f i BillDispenser.obj
 0001:00021d90       ?atlCreate@?$CWindowImplBaseT@VCWindow@ATL@@V?$CWinTraits@$0FGAAAAAA@$0A@@2@@ATL@@QAEPAUHWND__@@PAU3@V_U_RECT@2@PB_WKKV_U_MENUorID@2@GPAX@Z 10022d90 f i BillDispenser.obj
 0001:00021f10       ?atlCreate@CRegKey@ATL@@QAEJPAUHKEY__@@PB_WPA_WKKPAU_SECURITY_ATTRIBUTES@@PAK@Z 10022f10 f i BillDispenser.obj
 0001:00022070       ?begin@CComDynamicUnkArray@ATL@@QAEPAPAUIUnknown@@XZ 10023070 f i BillDispenser.obj
 0001:00022080       ?copy@?$_Copy@UtagCONNECTDATA@@@ATL@@SAJPAUtagCONNECTDATA@@PBU3@@Z 10023080 f i BillDispenser.obj
 0001:00022140       ?copy@?$_CopyInterface@UIConnectionPoint@@@ATL@@SAJPAPAUIConnectionPoint@@PBQAU3@@Z 10023140 f i BillDispenser.obj
 0001:00022200       ?destroy@?$_Copy@UtagCONNECTDATA@@@ATL@@SAXPAUtagCONNECTDATA@@@Z 10023200 f i BillDispenser.obj
 0001:00022240       ?destroy@?$_CopyInterface@UIConnectionPoint@@@ATL@@SAXPAPAUIConnectionPoint@@@Z 10023240 f i BillDispenser.obj
 0001:00022280       ?end@CComDynamicUnkArray@ATL@@QAEPAPAUIUnknown@@XZ 10023280 f i BillDispenser.obj
 0001:000222a0       ?init@?$_Copy@UtagCONNECTDATA@@@ATL@@SAXPAUtagCONNECTDATA@@@Z 100232a0 f i BillDispenser.obj
 0001:000222b0       ?init@?$_CopyInterface@UIConnectionPoint@@@ATL@@SAXPAPAUIConnectionPoint@@@Z 100232b0 f i BillDispenser.obj
 0001:000222c0       ?memcpy_s@Checked@ATL@@YAXPAXIPBXI@Z 100232c0 f i BillDispenser.obj
 0001:000222f0       ?ocscpy_s@@YA_NPA_WIPB_W@Z 100232f0 f i BillDispenser.obj
 0001:00022350       ?ocslen@@YAHPB_W@Z         10023350 f i BillDispenser.obj
 0001:00022380       ?tcsncpy_s@Checked@ATL@@YAHPA_WIPB_WI@Z 10023380 f i BillDispenser.obj
 0001:000223b0       ?wcscat_s@Checked@ATL@@YAXPA_WIPB_W@Z 100233b0 f i BillDispenser.obj
 0001:000223e0       ?wcscpy_s@Checked@ATL@@YAXPA_WIPB_W@Z 100233e0 f i BillDispenser.obj
 0001:00022410       ?wcsncpy_s@Checked@ATL@@YAHPA_WIPB_WI@Z 10023410 f i BillDispenser.obj
 0001:00022440       ?wcsstr@@YAPA_WPA_WPB_W@Z  10023440 f i BillDispenser.obj
 0001:00022460       _InlineIsEqualGUID         10023460 f i BillDispenser.obj
 0001:00022500       _IsEqualGUID               10023500 f i BillDispenser.obj
 0001:00022550       ??0COPOSBillDispenser@@QAE@XZ 10023550 f   BillDispenserImpl.obj
 0001:00022660       ?FinalConstruct@COPOSBillDispenser@@QAEJXZ 10023660 f   BillDispenserImpl.obj
 0001:00022730       ??1COPOSBillDispenser@@UAE@XZ 10023730 f   BillDispenserImpl.obj
 0001:00022810       ?WriteTrace@COPOSBillDispenser@@QAAXPB_WZZ 10023810 f   BillDispenserImpl.obj
 0001:000228c0       ?WriteTraceString@COPOSBillDispenser@@QAEXPB_WPA_W@Z 100238c0 f   BillDispenserImpl.obj
 0001:00022c30       ?WriteTraceString@COPOSBillDispenser@@QAAXPAXHHHPB_WZZ 10023c30 f   BillDispenserImpl.obj
 0001:00022e60       ?WriteTraceError@COPOSBillDispenser@@QAEXPB_WK@Z 10023e60 f   BillDispenserImpl.obj
 0001:00022f50       ?WriteTraceMethods@COPOSBillDispenser@@QAEXPAJH@Z 10023f50 f   BillDispenserImpl.obj
 0001:00022fc0       ?GetOposProp@COPOSBillDispenser@@IAEJPBDJPAJJ@Z 10023fc0 f   BillDispenserImpl.obj
 0001:00023230       ?SetOposProp@COPOSBillDispenser@@IAEJPBDJJJ@Z 10024230 f   BillDispenserImpl.obj
 0001:000234c0       ?GetOposProp@COPOSBillDispenser@@IAEJPBDJPAFJ@Z 100244c0 f   BillDispenserImpl.obj
 0001:00023560       ?SetOposProp@COPOSBillDispenser@@IAEJPBDJFJ@Z 10024560 f   BillDispenserImpl.obj
 0001:000235c0       ?GetOposProp@COPOSBillDispenser@@IAEJPBDJPAPA_WJ@Z 100245c0 f   BillDispenserImpl.obj
 0001:00023840       ?SetOposProp@COPOSBillDispenser@@IAEJPBDJPA_WJ@Z 10024840 f   BillDispenserImpl.obj
 0001:00023b80       ?DoInvoke@COPOSBillDispenser@@IAEJPBDJPAVOposVariant@@IHPAJ_N@Z 10024b80 f   BillDispenserImpl.obj
 0001:000244b0       ?SetCOFreezeEvents@COPOSBillDispenser@@IAEXF@Z 100254b0 f   BillDispenserImpl.obj
 0001:000245f0       ?FreezeEvents@COPOSBillDispenser@@MAGJH@Z 100255f0 f   BillDispenserImpl.obj
 0001:000246b0       ?OnDraw@COPOSBillDispenser@@MAEJAAUATL_DRAWINFO@@@Z 100256b0 f   BillDispenserImpl.obj
 0001:00024850       ?SOProcessID@COPOSBillDispenser@@UAGJPAJ@Z 10025850 f   BillDispenserImpl.obj
 0001:00024890       ?get_OpenResult@COPOSBillDispenser@@UAGJPAJ@Z 10025890 f   BillDispenserImpl.obj
 0001:000248d0       ?get_BinaryConversion@COPOSBillDispenser@@UAGJPAJ@Z 100258d0 f   BillDispenserImpl.obj
 0001:00024900       ?put_BinaryConversion@COPOSBillDispenser@@UAGJJ@Z 10025900 f   BillDispenserImpl.obj
 0001:00024930       ?get_CapPowerReporting@COPOSBillDispenser@@UAGJPAJ@Z 10025930 f   BillDispenserImpl.obj
 0001:00024960       ?get_CheckHealthText@COPOSBillDispenser@@UAGJPAPA_W@Z 10025960 f   BillDispenserImpl.obj
 0001:00024990       ?get_Claimed@COPOSBillDispenser@@UAGJPAF@Z 10025990 f   BillDispenserImpl.obj
 0001:000249c0       ?get_DeviceEnabled@COPOSBillDispenser@@UAGJPAF@Z 100259c0 f   BillDispenserImpl.obj
 0001:000249f0       ?put_DeviceEnabled@COPOSBillDispenser@@UAGJF@Z 100259f0 f   BillDispenserImpl.obj
 0001:00024a20       ?get_FreezeEvents@COPOSBillDispenser@@UAGJPAF@Z 10025a20 f   BillDispenserImpl.obj
 0001:00024a50       ?put_FreezeEvents@COPOSBillDispenser@@UAGJF@Z 10025a50 f   BillDispenserImpl.obj
 0001:00024ae0       ?get_PowerNotify@COPOSBillDispenser@@UAGJPAJ@Z 10025ae0 f   BillDispenserImpl.obj
 0001:00024b10       ?put_PowerNotify@COPOSBillDispenser@@UAGJJ@Z 10025b10 f   BillDispenserImpl.obj
 0001:00024b40       ?get_PowerState@COPOSBillDispenser@@UAGJPAJ@Z 10025b40 f   BillDispenserImpl.obj
 0001:00024b70       ?get_ResultCode@COPOSBillDispenser@@UAGJPAJ@Z 10025b70 f   BillDispenserImpl.obj
 0001:00024c00       ?get_ResultCodeExtended@COPOSBillDispenser@@UAGJPAJ@Z 10025c00 f   BillDispenserImpl.obj
 0001:00024c30       ?get_State@COPOSBillDispenser@@UAGJPAJ@Z 10025c30 f   BillDispenserImpl.obj
 0001:00024c80       ?get_ControlObjectDescription@COPOSBillDispenser@@UAGJPAPA_W@Z 10025c80 f   BillDispenserImpl.obj
 0001:00024d00       ?get_ControlObjectVersion@COPOSBillDispenser@@UAGJPAJ@Z 10025d00 f   BillDispenserImpl.obj
 0001:00024d40       ?get_ServiceObjectDescription@COPOSBillDispenser@@UAGJPAPA_W@Z 10025d40 f   BillDispenserImpl.obj
 0001:00024d70       ?get_ServiceObjectVersion@COPOSBillDispenser@@UAGJPAJ@Z 10025d70 f   BillDispenserImpl.obj
 0001:00024da0       ?get_DeviceDescription@COPOSBillDispenser@@UAGJPAPA_W@Z 10025da0 f   BillDispenserImpl.obj
 0001:00024dd0       ?get_DeviceName@COPOSBillDispenser@@UAGJPAPA_W@Z 10025dd0 f   BillDispenserImpl.obj
 0001:00024e00       ?get_CapStatisticsReporting@COPOSBillDispenser@@UAGJPAF@Z 10025e00 f   BillDispenserImpl.obj
 0001:00024e30       ?get_CapUpdateStatistics@COPOSBillDispenser@@UAGJPAF@Z 10025e30 f   BillDispenserImpl.obj
 0001:00024e60       ?get_CapCompareFirmwareVersion@COPOSBillDispenser@@UAGJPAF@Z 10025e60 f   BillDispenserImpl.obj
 0001:00024e90       ?get_CapUpdateFirmware@COPOSBillDispenser@@UAGJPAF@Z 10025e90 f   BillDispenserImpl.obj
 0001:00024ec0       ?CheckHealth@COPOSBillDispenser@@UAGJJPAJ@Z 10025ec0 f   BillDispenserImpl.obj
 0001:00024f60       ?ClaimDevice@COPOSBillDispenser@@UAGJJPAJ@Z 10025f60 f   BillDispenserImpl.obj
 0001:00025040       ?Close@COPOSBillDispenser@@UAGJPAJ@Z 10026040 f   BillDispenserImpl.obj
 0001:00025110       ?DirectIO@COPOSBillDispenser@@UAGJJPAJPAPA_W0@Z 10026110 f   BillDispenserImpl.obj
 0001:00025220       ?Open@COPOSBillDispenser@@UAGJPA_WPAJ@Z 10026220 f   BillDispenserImpl.obj
 0001:00026410       ?ReleaseDevice@COPOSBillDispenser@@UAGJPAJ@Z 10027410 f   BillDispenserImpl.obj
 0001:00026480       ?ResetStatistics@COPOSBillDispenser@@UAGJPA_WPAJ@Z 10027480 f   BillDispenserImpl.obj
 0001:00026530       ?RetrieveStatistics@COPOSBillDispenser@@UAGJPAPA_WPAJ@Z 10027530 f   BillDispenserImpl.obj
 0001:000265e0       ?UpdateStatistics@COPOSBillDispenser@@UAGJPA_WPAJ@Z 100275e0 f   BillDispenserImpl.obj
 0001:00026690       ?CompareFirmwareVersion@COPOSBillDispenser@@UAGJPA_WPAJ1@Z 10027690 f   BillDispenserImpl.obj
 0001:00026780       ?UpdateFirmware@COPOSBillDispenser@@UAGJPA_WPAJ@Z 10027780 f   BillDispenserImpl.obj
 0001:00026830       ?get_CapDiscrepancy@COPOSBillDispenser@@UAGJPAF@Z 10027830 f   BillDispenserImpl.obj
 0001:00026860       ?get_CapEmptySensor@COPOSBillDispenser@@UAGJPAF@Z 10027860 f   BillDispenserImpl.obj
 0001:00026890       ?get_CapJamSensor@COPOSBillDispenser@@UAGJPAF@Z 10027890 f   BillDispenserImpl.obj
 0001:000268c0       ?get_CapNearEmptySensor@COPOSBillDispenser@@UAGJPAF@Z 100278c0 f   BillDispenserImpl.obj
 0001:000268f0       ?get_AsyncMode@COPOSBillDispenser@@UAGJPAF@Z 100278f0 f   BillDispenserImpl.obj
 0001:00026920       ?put_AsyncMode@COPOSBillDispenser@@UAGJF@Z 10027920 f   BillDispenserImpl.obj
 0001:00026950       ?get_AsyncResultCode@COPOSBillDispenser@@UAGJPAJ@Z 10027950 f   BillDispenserImpl.obj
 0001:00026980       ?get_AsyncResultCodeExtended@COPOSBillDispenser@@UAGJPAJ@Z 10027980 f   BillDispenserImpl.obj
 0001:000269b0       ?get_CurrencyCashList@COPOSBillDispenser@@UAGJPAPA_W@Z 100279b0 f   BillDispenserImpl.obj
 0001:000269e0       ?get_CurrencyCode@COPOSBillDispenser@@UAGJPAPA_W@Z 100279e0 f   BillDispenserImpl.obj
 0001:00026a10       ?put_CurrencyCode@COPOSBillDispenser@@UAGJPA_W@Z 10027a10 f   BillDispenserImpl.obj
 0001:00026a40       ?get_CurrencyCodeList@COPOSBillDispenser@@UAGJPAPA_W@Z 10027a40 f   BillDispenserImpl.obj
 0001:00026a70       ?get_CurrentExit@COPOSBillDispenser@@UAGJPAJ@Z 10027a70 f   BillDispenserImpl.obj
 0001:00026aa0       ?put_CurrentExit@COPOSBillDispenser@@UAGJJ@Z 10027aa0 f   BillDispenserImpl.obj
 0001:00026ad0       ?get_DeviceExits@COPOSBillDispenser@@UAGJPAJ@Z 10027ad0 f   BillDispenserImpl.obj
 0001:00026b00       ?get_DeviceStatus@COPOSBillDispenser@@UAGJPAJ@Z 10027b00 f   BillDispenserImpl.obj
 0001:00026b30       ?get_ExitCashList@COPOSBillDispenser@@UAGJPAPA_W@Z 10027b30 f   BillDispenserImpl.obj
 0001:00026b60       ?AdjustCashCounts@COPOSBillDispenser@@UAGJPA_WPAJ@Z 10027b60 f   BillDispenserImpl.obj
 0001:00026c10       ?DispenseCash@COPOSBillDispenser@@UAGJPA_WPAJ@Z 10027c10 f   BillDispenserImpl.obj
 0001:00026cc0       ?ReadCashCounts@COPOSBillDispenser@@UAGJPAPA_WPAFPAJ@Z 10027cc0 f   BillDispenserImpl.obj
 0001:00026db0       ??0?$CComControl@VCOPOSBillDispenser@@V?$CWindowImpl@VCOPOSBillDispenser@@VCWindow@ATL@@V?$CWinTraits@$0FGAAAAAA@$0A@@3@@ATL@@@ATL@@QAE@XZ 10027db0 f i BillDispenserImpl.obj
 0001:00026df0       ??0?$CComPtr@UIAdviseSink@@@ATL@@QAE@XZ 10027df0 f i BillDispenserImpl.obj
 0001:00026e20       ??0?$CComPtr@UIDataAdviseHolder@@@ATL@@QAE@XZ 10027e20 f i BillDispenserImpl.obj
 0001:00026e50       ??0?$CComPtr@UIOleAdviseHolder@@@ATL@@QAE@XZ 10027e50 f i BillDispenserImpl.obj
 0001:00026e80       ??0?$CComPtr@UIOleClientSite@@@ATL@@QAE@XZ 10027e80 f i BillDispenserImpl.obj
 0001:00026eb0       ??0?$CComPtr@UIOleInPlaceSiteWindowless@@@ATL@@QAE@XZ 10027eb0 f i BillDispenserImpl.obj
 0001:00026ee0       ??0?$CComPtrBase@UIAdviseSink@@@ATL@@IAE@XZ 10027ee0 f i BillDispenserImpl.obj
 0001:00026f00       ??0?$CComPtrBase@UIDataAdviseHolder@@@ATL@@IAE@XZ 10027f00 f i BillDispenserImpl.obj
 0001:00026f20       ??0?$CComPtrBase@UIOleAdviseHolder@@@ATL@@IAE@XZ 10027f20 f i BillDispenserImpl.obj
 0001:00026f40       ??0?$CComPtrBase@UIOleClientSite@@@ATL@@IAE@XZ 10027f40 f i BillDispenserImpl.obj
 0001:00026f60       ??0?$CComPtrBase@UIOleInPlaceSiteWindowless@@@ATL@@IAE@XZ 10027f60 f i BillDispenserImpl.obj
 0001:00026f80       ??0?$CComQIPtr@UIDispatch@@$1?_GUID_00020400_0000_0000_c000_000000000046@@3U__s_GUID@@B@ATL@@QAE@XZ 10027f80 f i BillDispenserImpl.obj
 0001:00026fb0       ??0?$CProxy_IOPOSEvents@VCOPOSBillDispenser@@@@QAE@PAVCOPOSBillDispenser@@@Z 10027fb0 f i BillDispenserImpl.obj
 0001:00027000       ??0?$CWindowImpl@VCOPOSBillDispenser@@VCWindow@ATL@@V?$CWinTraits@$0FGAAAAAA@$0A@@3@@ATL@@QAE@XZ 10028000 f i BillDispenserImpl.obj
 0001:00027030       ??0?$CWindowImplBaseT@VCWindow@ATL@@V?$CWinTraits@$0FGAAAAAA@$0A@@2@@ATL@@QAE@XZ 10028030 f i BillDispenserImpl.obj
 0001:00027070       ??0?$CWindowImplRoot@VCWindow@ATL@@@ATL@@QAE@XZ 10028070 f i BillDispenserImpl.obj
 0001:000270d0       ??0?$IConnectionPointContainerImpl@VCOPOSBillDispenser@@@ATL@@QAE@XZ 100280d0 f i BillDispenserImpl.obj
 0001:00027100       ??0?$IConnectionPointImpl@VCOPOSBillDispenser@@$1?DIID__IOPOSBillDispenserEvents@@3U_GUID@@BVCComDynamicUnkArray@ATL@@@ATL@@QAE@XZ 10028100 f i BillDispenserImpl.obj
 0001:00027140       ??0?$IConnectionPointImpl@VCOPOSBillDispenser@@$1?IID_IPropertyNotifySink@@3U_GUID@@BVCComDynamicUnkArray@ATL@@@ATL@@QAE@XZ 10028140 f i BillDispenserImpl.obj
 0001:00027180       ??0?$IDataObjectImpl@VCOPOSBillDispenser@@@ATL@@QAE@XZ 10028180 f i BillDispenserImpl.obj
 0001:000271b0       ??0?$IDispatchImpl@UIOPOSBillDispenser@@$1?IID_IOPOSBillDispenser@@3U_GUID@@B$1?LIBID_OposBillDispenser_CCO@@3U3@B$00$0A@VCComTypeInfoHolder@ATL@@@ATL@@QAE@XZ 100281b0 f i BillDispenserImpl.obj
 0001:000271e0       ??0?$IObjectSafetyImpl@VCOPOSBillDispenser@@$02@ATL@@QAE@XZ 100281e0 f i BillDispenserImpl.obj
 0001:00027220       ??0?$IOleControlImpl@VCOPOSBillDispenser@@@ATL@@QAE@XZ 10028220 f i BillDispenserImpl.obj
 0001:00027250       ??0?$IOleInPlaceActiveObjectImpl@VCOPOSBillDispenser@@@ATL@@QAE@XZ 10028250 f i BillDispenserImpl.obj
 0001:00027280       ??0?$IOleInPlaceObjectWindowlessImpl@VCOPOSBillDispenser@@@ATL@@QAE@XZ 10028280 f i BillDispenserImpl.obj
 0001:000272b0       ??0?$IOleObjectImpl@VCOPOSBillDispenser@@@ATL@@QAE@XZ 100282b0 f i BillDispenserImpl.obj
 0001:000272e0       ??0?$IPersistStorageImpl@VCOPOSBillDispenser@@@ATL@@QAE@XZ 100282e0 f i BillDispenserImpl.obj
 0001:00027310       ??0?$IPersistStreamInitImpl@VCOPOSBillDispenser@@@ATL@@QAE@XZ 10028310 f i BillDispenserImpl.obj
 0001:00027340       ??0?$IPropertyNotifySinkCP@VCOPOSBillDispenser@@VCComDynamicUnkArray@ATL@@@ATL@@QAE@XZ 10028340 f i BillDispenserImpl.obj
 0001:00027370       ??0?$IProvideClassInfo2Impl@$1?CLSID_OPOSBillDispenser@@3U_GUID@@B$1?DIID__IOPOSBillDispenserEvents@@3U2@B$1?LIBID_OposBillDispenser_CCO@@3U2@B$00$0A@VCComTypeInfoHolder@ATL@@@ATL@@QAE@XZ 10028370 f i BillDispenserImpl.obj
 0001:000273a0       ??0?$IQuickActivateImpl@VCOPOSBillDispenser@@@ATL@@QAE@XZ 100283a0 f i BillDispenserImpl.obj
 0001:000273d0       ??0?$ISpecifyPropertyPagesImpl@VCOPOSBillDispenser@@@ATL@@QAE@XZ 100283d0 f i BillDispenserImpl.obj
 0001:00027400       ??0?$IViewObjectExImpl@VCOPOSBillDispenser@@@ATL@@QAE@XZ 10028400 f i BillDispenserImpl.obj
 0001:00027430       ??0?$_ICPLocator@$1?DIID__IOPOSBillDispenserEvents@@3U_GUID@@B@ATL@@QAE@XZ 10028430 f i BillDispenserImpl.obj
 0001:00027440       ??0?$_ICPLocator@$1?IID_IPropertyNotifySink@@3U_GUID@@B@ATL@@QAE@XZ 10028440 f i BillDispenserImpl.obj
 0001:00027450       ??0CComControlBase@ATL@@QAE@AAPAUHWND__@@@Z 10028450 f i BillDispenserImpl.obj
 0001:00027600       ??0CComDynamicUnkArray@ATL@@QAE@XZ 10028600 f i BillDispenserImpl.obj
 0001:00027630       ??0CDynamicStdCallThunk2@ATL@@QAE@XZ 10028630 f i BillDispenserImpl.obj
 0001:00027650       ??0CMessageMap@ATL@@QAE@XZ 10028650 f i BillDispenserImpl.obj
 0001:00027660       ??0CWindow@ATL@@QAE@PAUHWND__@@@Z 10028660 f i BillDispenserImpl.obj
 0001:00027680       ??0CWndProcThunk@ATL@@QAE@XZ 10028680 f i BillDispenserImpl.obj
 0001:000276b0       ??0IConnectionPointContainer@@QAE@XZ 100286b0 f i BillDispenserImpl.obj
 0001:000276e0       ??0IDataObject@@QAE@XZ     100286e0 f i BillDispenserImpl.obj
 0001:00027710       ??0IDispatch@@QAE@XZ       10028710 f i BillDispenserImpl.obj
 0001:00027740       ??0IOPOSBillDispenser@@QAE@XZ 10028740 f i BillDispenserImpl.obj
 0001:00027770       ??0IOPOSBillDispenser_1_11@@QAE@XZ 10028770 f i BillDispenserImpl.obj
 0001:000277a0       ??0IObjectSafety@@QAE@XZ   100287a0 f i BillDispenserImpl.obj
 0001:000277d0       ??0IOleControl@@QAE@XZ     100287d0 f i BillDispenserImpl.obj
 0001:00027800       ??0IOleInPlaceActiveObject@@QAE@XZ 10028800 f i BillDispenserImpl.obj
 0001:00027830       ??0IOleInPlaceObject@@QAE@XZ 10028830 f i BillDispenserImpl.obj
 0001:00027860       ??0IOleInPlaceObjectWindowless@@QAE@XZ 10028860 f i BillDispenserImpl.obj
 0001:00027890       ??0IOleObject@@QAE@XZ      10028890 f i BillDispenserImpl.obj
 0001:000278c0       ??0IOleWindow@@QAE@XZ      100288c0 f i BillDispenserImpl.obj
 0001:000278f0       ??0IPersist@@QAE@XZ        100288f0 f i BillDispenserImpl.obj
 0001:00027920       ??0IPersistStorage@@QAE@XZ 10028920 f i BillDispenserImpl.obj
 0001:00027950       ??0IPersistStreamInit@@QAE@XZ 10028950 f i BillDispenserImpl.obj
 0001:00027980       ??0IProvideClassInfo2@@QAE@XZ 10028980 f i BillDispenserImpl.obj
 0001:000279b0       ??0IProvideClassInfo@@QAE@XZ 100289b0 f i BillDispenserImpl.obj
 0001:000279e0       ??0IQuickActivate@@QAE@XZ  100289e0 f i BillDispenserImpl.obj
 0001:00027a10       ??0ISpecifyPropertyPages@@QAE@XZ 10028a10 f i BillDispenserImpl.obj
 0001:00027a40       ??0IViewObject2@@QAE@XZ    10028a40 f i BillDispenserImpl.obj
 0001:00027a70       ??0IViewObject@@QAE@XZ     10028a70 f i BillDispenserImpl.obj
 0001:00027aa0       ??0IViewObjectEx@@QAE@XZ   10028aa0 f i BillDispenserImpl.obj
 0001:00027ad0       ??0OposVariantResult@@QAE@XZ 10028ad0 f i BillDispenserImpl.obj
 0001:00027b00       ??0_CW@@QAE@PBD@Z          10028b00 f i BillDispenserImpl.obj
 0001:00027b40       ??0_CW@@QAE@PB_W@Z         10028b40 f i BillDispenserImpl.obj
 0001:00027b80       ??0_CWNCC@@QAE@PBD@Z       10028b80 f i BillDispenserImpl.obj
 0001:00027bb0       ??1?$CComControl@VCOPOSBillDispenser@@V?$CWindowImpl@VCOPOSBillDispenser@@VCWindow@ATL@@V?$CWinTraits@$0FGAAAAAA@$0A@@3@@ATL@@@ATL@@UAE@XZ 10028bb0 f i BillDispenserImpl.obj
 0001:00027be0       ??1?$CComPtr@UIDataAdviseHolder@@@ATL@@QAE@XZ 10028be0 f i BillDispenserImpl.obj
 0001:00027c10       ??1?$CComPtr@UIOleAdviseHolder@@@ATL@@QAE@XZ 10028c10 f i BillDispenserImpl.obj
 0001:00027c40       ??1?$CComPtr@UIOleInPlaceSiteWindowless@@@ATL@@QAE@XZ 10028c40 f i BillDispenserImpl.obj
 0001:00027c70       ??1?$CComPtrBase@UIDataAdviseHolder@@@ATL@@QAE@XZ 10028c70 f i BillDispenserImpl.obj
 0001:00027cc0       ??1?$CComPtrBase@UIOleAdviseHolder@@@ATL@@QAE@XZ 10028cc0 f i BillDispenserImpl.obj
 0001:00027d10       ??1?$CComPtrBase@UIOleInPlaceSiteWindowless@@@ATL@@QAE@XZ 10028d10 f i BillDispenserImpl.obj
 0001:00027d60       ??1?$CComQIPtr@UIDispatch@@$1?_GUID_00020400_0000_0000_c000_000000000046@@3U__s_GUID@@B@ATL@@QAE@XZ 10028d60 f i BillDispenserImpl.obj
 0001:00027d90       ??1?$CProxy_IOPOSEvents@VCOPOSBillDispenser@@@@QAE@XZ 10028d90 f i BillDispenserImpl.obj
 0001:00027dc0       ??1?$CWindowImpl@VCOPOSBillDispenser@@VCWindow@ATL@@V?$CWinTraits@$0FGAAAAAA@$0A@@3@@ATL@@UAE@XZ 10028dc0 f i BillDispenserImpl.obj
 0001:00027df0       ??1?$CWindowImplBaseT@VCWindow@ATL@@V?$CWinTraits@$0FGAAAAAA@$0A@@2@@ATL@@UAE@XZ 10028df0 f i BillDispenserImpl.obj
 0001:00027e20       ??1?$CWindowImplRoot@VCWindow@ATL@@@ATL@@UAE@XZ 10028e20 f i BillDispenserImpl.obj
 0001:00027ec0       ??1?$IConnectionPointImpl@VCOPOSBillDispenser@@$1?DIID__IOPOSBillDispenserEvents@@3U_GUID@@BVCComDynamicUnkArray@ATL@@@ATL@@QAE@XZ 10028ec0 f i BillDispenserImpl.obj
 0001:00027f40       ??1?$IConnectionPointImpl@VCOPOSBillDispenser@@$1?IID_IPropertyNotifySink@@3U_GUID@@BVCComDynamicUnkArray@ATL@@@ATL@@QAE@XZ 10028f40 f i BillDispenserImpl.obj
 0001:00027fc0       ??1?$IPropertyNotifySinkCP@VCOPOSBillDispenser@@VCComDynamicUnkArray@ATL@@@ATL@@QAE@XZ 10028fc0 f i BillDispenserImpl.obj
 0001:00027ff0       ??1CComControlBase@ATL@@UAE@XZ 10028ff0 f i BillDispenserImpl.obj
 0001:000280b0       ??1CComDynamicUnkArray@ATL@@QAE@XZ 100290b0 f i BillDispenserImpl.obj
 0001:000280f0       ??1CDynamicStdCallThunk2@ATL@@QAE@XZ 100290f0 f i BillDispenserImpl.obj
 0001:00028120       ??1CWndProcThunk@ATL@@QAE@XZ 10029120 f i BillDispenserImpl.obj
 0001:00028150       ??1OposVariantResult@@QAE@XZ 10029150 f i BillDispenserImpl.obj
 0001:00028180       ??1_CW@@QAE@XZ             10029180 f i BillDispenserImpl.obj
 0001:000281f0       ??1_CWNCC@@QAE@XZ          100291f0 f i BillDispenserImpl.obj
 0001:00028220       ??B_CW@@QAEPB_WXZ          10029220 f i BillDispenserImpl.obj
 0001:00028260       ??B_CWNCC@@QAEPA_WXZ       10029260 f i BillDispenserImpl.obj
 0001:00028290       ??_EOposVariant@@QAEPAXI@Z 10029290 f i BillDispenserImpl.obj
 0001:00028320       ?EventClaim@COPOSBillDispenser@@IAEXXZ 10029320 f i BillDispenserImpl.obj
 0001:00028360       ?EventClose@COPOSBillDispenser@@IAEXXZ 10029360 f i BillDispenserImpl.obj
 0001:00028400       ?EventInit@COPOSBillDispenser@@IAEJXZ 10029400 f i BillDispenserImpl.obj
 0001:00028630       ?EventOpen@COPOSBillDispenser@@IAEXXZ 10029630 f i BillDispenserImpl.obj
 0001:00028670       ?EventPreCloseRelease@COPOSBillDispenser@@IAEXXZ 10029670 f i BillDispenserImpl.obj
 0001:000286f0       ?EventUninit@COPOSBillDispenser@@IAEXXZ 100296f0 f i BillDispenserImpl.obj
 0001:00028820       ?EventWindowProc@COPOSBillDispenser@@IAGJIIJ@Z 10029820 f i BillDispenserImpl.obj
 0001:00028900       ?FireEventCleanup@COPOSBillDispenser@@IAEXXZ 10029900 f i BillDispenserImpl.obj
 0001:00028950       ?FireEventSetup@COPOSBillDispenser@@IAE_NXZ 10029950 f i BillDispenserImpl.obj
 0001:000289c0       ?GetModuleInstance@CComModule@ATL@@QAEPAUHINSTANCE__@@XZ 100299c0 f i BillDispenserImpl.obj
 0001:000289d0       ?SetRC@COPOSBillDispenser@@IAEJJ@Z 100299d0 f i BillDispenserImpl.obj
 0001:000289f0       ?s_EventWindowProc@COPOSBillDispenser@@KGJPAUHWND__@@IIJ@Z 100299f0 f i BillDispenserImpl.obj
 0001:00028a90       __snwprintf                10029a90 f i BillDispenserImpl.obj
 0001:00028af0       __vfwprintf_l              10029af0 f i BillDispenserImpl.obj
 0001:00028b20       __vsnwprintf               10029b20 f i BillDispenserImpl.obj
 0001:00028b50       __vsnwprintf_l             10029b50 f i BillDispenserImpl.obj
 0001:00028bc0       _vfwprintf                 10029bc0 f i BillDispenserImpl.obj
 0001:00028be2       _DebugBreak@0              10029be2 f   kernel32:KERNEL32.dll
 0001:00028be8       _Sleep@4                   10029be8 f   kernel32:KERNEL32.dll
 0001:00028bee       _GetCurrentProcess@0       10029bee f   kernel32:KERNEL32.dll
 0001:00028bf4       _TerminateProcess@8        10029bf4 f   kernel32:KERNEL32.dll
 0001:00028bfa       _MultiByteToWideChar@24    10029bfa f   kernel32:KERNEL32.dll
 0001:00028c00       _WideCharToMultiByte@32    10029c00 f   kernel32:KERNEL32.dll
 0001:00028c06       _DecodePointer@4           10029c06 f   kernel32:KERNEL32.dll
 0001:00028c0c       _RaiseException@16         10029c0c f   kernel32:KERNEL32.dll
 0001:00028c12       _GetLastError@0            10029c12 f   kernel32:KERNEL32.dll
 0001:00028c18       _SetLastError@4            10029c18 f   kernel32:KERNEL32.dll
 0001:00028c1e       _InitializeCriticalSectionEx@12 10029c1e f   kernel32:KERNEL32.dll
 0001:00028c24       _DeleteCriticalSection@4   10029c24 f   kernel32:KERNEL32.dll
 0001:00028c2a       _EncodePointer@4           10029c2a f   kernel32:KERNEL32.dll
 0001:00028c30       _EnterCriticalSection@4    10029c30 f   kernel32:KERNEL32.dll
 0001:00028c36       _LeaveCriticalSection@4    10029c36 f   kernel32:KERNEL32.dll
 0001:00028c3c       _ResetEvent@4              10029c3c f   kernel32:KERNEL32.dll
 0001:00028c42       _ReleaseMutex@4            10029c42 f   kernel32:KERNEL32.dll
 0001:00028c48       _WaitForSingleObject@8     10029c48 f   kernel32:KERNEL32.dll
 0001:00028c4e       _GetCurrentThreadId@0      10029c4e f   kernel32:KERNEL32.dll
 0001:00028c54       _DisableThreadLibraryCalls@4 10029c54 f   kernel32:KERNEL32.dll
 0001:00028c5a       _FreeLibrary@4             10029c5a f   kernel32:KERNEL32.dll
 0001:00028c60       _GetModuleFileNameW@12     10029c60 f   kernel32:KERNEL32.dll
 0001:00028c66       _GetModuleHandleW@4        10029c66 f   kernel32:KERNEL32.dll
 0001:00028c6c       _GetProcAddress@8          10029c6c f   kernel32:KERNEL32.dll
 0001:00028c72       _LoadLibraryExW@12         10029c72 f   kernel32:KERNEL32.dll
 0001:00028c78       _LoadResource@8            10029c78 f   kernel32:KERNEL32.dll
 0001:00028c7e       _SizeofResource@8          10029c7e f   kernel32:KERNEL32.dll
 0001:00028c84       _FindResourceW@12          10029c84 f   kernel32:KERNEL32.dll
 0001:00028c8a       _GlobalAlloc@8             10029c8a f   kernel32:KERNEL32.dll
 0001:00028c90       _GlobalUnlock@4            10029c90 f   kernel32:KERNEL32.dll
 0001:00028c96       _GlobalLock@4              10029c96 f   kernel32:KERNEL32.dll
 0001:00028c9c       _MulDiv@12                 10029c9c f   kernel32:KERNEL32.dll
 0001:00028ca2       _lstrcmpiW@8               10029ca2 f   kernel32:KERNEL32.dll
 0001:00028ca8       _DeleteFileW@4             10029ca8 f   kernel32:KERNEL32.dll
 0001:00028cae       _CloseHandle@4             10029cae f   kernel32:KERNEL32.dll
 0001:00028cb4       _SetEvent@4                10029cb4 f   kernel32:KERNEL32.dll
 0001:00028cba       _CreateMutexW@12           10029cba f   kernel32:KERNEL32.dll
 0001:00028cc0       _CreateEventW@16           10029cc0 f   kernel32:KERNEL32.dll
 0001:00028cc6       _GetCurrentProcessId@0     10029cc6 f   kernel32:KERNEL32.dll
 0001:00028ccc       _LocalFree@4               10029ccc f   kernel32:KERNEL32.dll
 0001:00028cd2       _FormatMessageW@28         10029cd2 f   kernel32:KERNEL32.dll
 0001:00028cd8       _GetActiveWindow@0         10029cd8 f   user32:USER32.dll
 0001:00028cde       _MessageBoxW@16            10029cde f   user32:USER32.dll
 0001:00028ce4       _UnregisterClassW@8        10029ce4 f   user32:USER32.dll
 0001:00028cea       _PostMessageW@16           10029cea f   user32:USER32.dll
 0001:00028cf0       _DefWindowProcW@16         10029cf0 f   user32:USER32.dll
 0001:00028cf6       _CallWindowProcW@20        10029cf6 f   user32:USER32.dll
 0001:00028cfc       _RegisterClassExW@4        10029cfc f   user32:USER32.dll
 0001:00028d02       _GetClassInfoExW@12        10029d02 f   user32:USER32.dll
 0001:00028d08       _CreateWindowExW@48        10029d08 f   user32:USER32.dll
 0001:00028d0e       _IsWindow@4                10029d0e f   user32:USER32.dll
 0001:00028d14       _IsChild@8                 10029d14 f   user32:USER32.dll
 0001:00028d1a       _DestroyWindow@4           10029d1a f   user32:USER32.dll
 0001:00028d20       _ShowWindow@8              10029d20 f   user32:USER32.dll
 0001:00028d26       _SetWindowPos@28           10029d26 f   user32:USER32.dll
 0001:00028d2c       _CharNextW@4               10029d2c f   user32:USER32.dll
 0001:00028d32       _SetFocus@4                10029d32 f   user32:USER32.dll
 0001:00028d38       _GetFocus@0                10029d38 f   user32:USER32.dll
 0001:00028d3e       _GetKeyState@4             10029d3e f   user32:USER32.dll
 0001:00028d44       _GetDC@4                   10029d44 f   user32:USER32.dll
 0001:00028d4a       _ReleaseDC@8               10029d4a f   user32:USER32.dll
 0001:00028d50       _BeginPaint@8              10029d50 f   user32:USER32.dll
 0001:00028d56       _EndPaint@8                10029d56 f   user32:USER32.dll
 0001:00028d5c       _SetWindowRgn@12           10029d5c f   user32:USER32.dll
 0001:00028d62       _InvalidateRect@12         10029d62 f   user32:USER32.dll
 0001:00028d68       _GetClientRect@8           10029d68 f   user32:USER32.dll
 0001:00028d6e       _IntersectRect@12          10029d6e f   user32:USER32.dll
 0001:00028d74       _UnionRect@12              10029d74 f   user32:USER32.dll
 0001:00028d7a       _OffsetRect@12             10029d7a f   user32:USER32.dll
 0001:00028d80       _EqualRect@8               10029d80 f   user32:USER32.dll
 0001:00028d86       _PtInRect@12               10029d86 f   user32:USER32.dll
 0001:00028d8c       _GetWindowLongW@8          10029d8c f   user32:USER32.dll
 0001:00028d92       _SetWindowLongW@12         10029d92 f   user32:USER32.dll
 0001:00028d98       _GetParent@4               10029d98 f   user32:USER32.dll
 0001:00028d9e       _LoadCursorW@8             10029d9e f   user32:USER32.dll
 0001:00028da4       _PeekMessageW@20           10029da4 f   user32:USER32.dll
 0001:00028daa       _RegisterClassW@4          10029daa f   user32:USER32.dll
 0001:00028db0       _LoadBitmapW@8             10029db0 f   user32:USER32.dll
 0001:00028db6       _CloseMetaFile@4           10029db6 f   gdi32:GDI32.dll
 0001:00028dbc       _CreateDCW@16              10029dbc f   gdi32:GDI32.dll
 0001:00028dc2       _CreateMetaFileW@4         10029dc2 f   gdi32:GDI32.dll
 0001:00028dc8       _CreateRectRgnIndirect@4   10029dc8 f   gdi32:GDI32.dll
 0001:00028dce       _DeleteDC@4                10029dce f   gdi32:GDI32.dll
 0001:00028dd4       _DeleteMetaFile@4          10029dd4 f   gdi32:GDI32.dll
 0001:00028dda       _GetDeviceCaps@8           10029dda f   gdi32:GDI32.dll
 0001:00028de0       _RestoreDC@8               10029de0 f   gdi32:GDI32.dll
 0001:00028de6       _SaveDC@4                  10029de6 f   gdi32:GDI32.dll
 0001:00028dec       _SetMapMode@8              10029dec f   gdi32:GDI32.dll
 0001:00028df2       _LPtoDP@12                 10029df2 f   gdi32:GDI32.dll
 0001:00028df8       _SetViewportOrgEx@16       10029df8 f   gdi32:GDI32.dll
 0001:00028dfe       _SetWindowExtEx@16         10029dfe f   gdi32:GDI32.dll
 0001:00028e04       _SetWindowOrgEx@16         10029e04 f   gdi32:GDI32.dll
 0001:00028e0a       _BitBlt@36                 10029e0a f   gdi32:GDI32.dll
 0001:00028e10       _CreateCompatibleDC@4      10029e10 f   gdi32:GDI32.dll
 0001:00028e16       _DeleteObject@4            10029e16 f   gdi32:GDI32.dll
 0001:00028e1c       _SelectObject@8            10029e1c f   gdi32:GDI32.dll
 0001:00028e22       _GetObjectW@12             10029e22 f   gdi32:GDI32.dll
 0001:00028e28       _RegCloseKey@4             10029e28 f   advapi32:ADVAPI32.dll
 0001:00028e2e       _RegCreateKeyExW@36        10029e2e f   advapi32:ADVAPI32.dll
 0001:00028e34       _RegDeleteKeyW@8           10029e34 f   advapi32:ADVAPI32.dll
 0001:00028e3a       _RegDeleteValueW@8         10029e3a f   advapi32:ADVAPI32.dll
 0001:00028e40       _RegEnumKeyExW@32          10029e40 f   advapi32:ADVAPI32.dll
 0001:00028e46       _RegOpenKeyExW@20          10029e46 f   advapi32:ADVAPI32.dll
 0001:00028e4c       _RegQueryInfoKeyW@48       10029e4c f   advapi32:ADVAPI32.dll
 0001:00028e52       _RegSetValueExW@24         10029e52 f   advapi32:ADVAPI32.dll
 0001:00028e58       _RegQueryValueExW@24       10029e58 f   advapi32:ADVAPI32.dll
 0001:00028e5e       _CoCreateInstance@20       10029e5e f   ole32:ole32.dll
 0001:00028e64       _StringFromGUID2@12        10029e64 f   ole32:ole32.dll
 0001:00028e6a       _CoTaskMemAlloc@4          10029e6a f   ole32:ole32.dll
 0001:00028e70       _CoTaskMemRealloc@8        10029e70 f   ole32:ole32.dll
 0001:00028e76       _CoTaskMemFree@4           10029e76 f   ole32:ole32.dll
 0001:00028e7c       _ReadClassStm@8            10029e7c f   ole32:ole32.dll
 0001:00028e82       _WriteClassStm@8           10029e82 f   ole32:ole32.dll
 0001:00028e88       _CreateDataAdviseHolder@4  10029e88 f   ole32:ole32.dll
 0001:00028e8e       _OleSaveToStream@8         10029e8e f   ole32:ole32.dll
 0001:00028e94       _CreateOleAdviseHolder@4   10029e94 f   ole32:ole32.dll
 0001:00028e9a       _OleRegGetUserType@12      10029e9a f   ole32:ole32.dll
 0001:00028ea0       _OleRegGetMiscStatus@12    10029ea0 f   ole32:ole32.dll
 0001:00028ea6       _OleRegEnumVerbs@8         10029ea6 f   ole32:ole32.dll
 0001:00028eac       _CLSIDFromProgID@8         10029eac f   ole32:ole32.dll
 0001:00028eb2       _SysAllocString@4          10029eb2 f   oleaut32:OLEAUT32.dll
 0001:00028eb8       _SysAllocStringLen@8       10029eb8 f   oleaut32:OLEAUT32.dll
 0001:00028ebe       _SysFreeString@4           10029ebe f   oleaut32:OLEAUT32.dll
 0001:00028ec4       _SysStringLen@4            10029ec4 f   oleaut32:OLEAUT32.dll
 0001:00028eca       _VariantClear@4            10029eca f   oleaut32:OLEAUT32.dll
 0001:00028ed0       _VariantCopyInd@8          10029ed0 f   oleaut32:OLEAUT32.dll
 0001:00028ed6       _VariantChangeType@16      10029ed6 f   oleaut32:OLEAUT32.dll
 0001:00028edc       _SysStringByteLen@4        10029edc f   oleaut32:OLEAUT32.dll
 0001:00028ee2       _SysAllocStringByteLen@8   10029ee2 f   oleaut32:OLEAUT32.dll
 0001:00028ee8       _VariantInit@4             10029ee8 f   oleaut32:OLEAUT32.dll
 0001:00028eee       _VarUI4FromStr@16          10029eee f   oleaut32:OLEAUT32.dll
 0001:00028ef4       _LoadTypeLib@8             10029ef4 f   oleaut32:OLEAUT32.dll
 0001:00028efa       _LoadRegTypeLib@20         10029efa f   oleaut32:OLEAUT32.dll
 0001:00028f00       _RegisterTypeLib@12        10029f00 f   oleaut32:OLEAUT32.dll
 0001:00028f06       _UnRegisterTypeLib@20      10029f06 f   oleaut32:OLEAUT32.dll
 0001:00028f0c       _OleCreatePropertyFrame@44 10029f0c f   oleaut32:OLEAUT32.dll
 0001:00028f20       @_RTC_AllocaHelper@12      10029f20 f   LIBCMTD:stack.obj
 0001:00028f60       @_RTC_CheckStackVars2@12   10029f60 f   LIBCMTD:stack.obj
 0001:00029040       @_RTC_CheckStackVars@8     1002a040 f   LIBCMTD:stack.obj
 0001:000290a0       __RTC_CheckEsp             1002a0a0 f   LIBCMTD:stack.obj
 0001:000290d0       @__security_check_cookie@4 1002a0d0 f   LIBCMTD:secchk.obj
 0001:000290e0       __CRT_RTC_INIT             1002a0e0 f   LIBCMTD:init.obj
 0001:000290f0       __CRT_RTC_INITW            1002a0f0 f   LIBCMTD:init.obj
 0001:00029100       __RTC_InitBase             1002a100 f   LIBCMTD:init.obj
 0001:00029130       __RTC_Shutdown             1002a130 f   LIBCMTD:init.obj
 0001:00029150       ??_U@YAPAXI@Z              1002a150 f   LIBCMTD:new_array.obj
 0001:00029170       ??3@YAXPAXI@Z              1002a170 f   LIBCMTD:delete_scalar_size.obj
 0001:00029190       ??_V@YAXPAX@Z              1002a190 f   LIBCMTD:delete_array.obj
 0001:000291b0       ??_V@YAXPAXI@Z             1002a1b0 f   LIBCMTD:delete_array_size.obj
 0001:000291d0       ?configure_argv@__scrt_narrow_argv_policy@@SAHXZ 1002a1d0 f i LIBCMTD:utility.obj
 0001:00029280       ?initialize_environment@__scrt_narrow_environment_policy@@SAHXZ 1002a280 f i LIBCMTD:utility.obj
 0001:00029300       _NtCurrentTeb              1002a300 f i LIBCMTD:utility.obj
 0001:00029310       ___scrt_acquire_startup_lock 1002a310 f   LIBCMTD:utility.obj
 0001:00029360       ___scrt_dllmain_after_initialize_c 1002a360 f   LIBCMTD:utility.obj
 0001:00029390       ___scrt_dllmain_before_initialize_c 1002a390 f   LIBCMTD:utility.obj
 0001:000293b0       ___scrt_dllmain_crt_thread_attach 1002a3b0 f   LIBCMTD:utility.obj
 0001:000293e0       ___scrt_dllmain_crt_thread_detach 1002a3e0 f   LIBCMTD:utility.obj
 0001:00029400       ___scrt_dllmain_exception_filter 1002a400 f   LIBCMTD:utility.obj
 0001:00029450       ___scrt_dllmain_uninitialize_c 1002a450 f   LIBCMTD:utility.obj
 0001:00029480       ___scrt_dllmain_uninitialize_critical 1002a480 f   LIBCMTD:utility.obj
 0001:000294a0       ___scrt_initialize_crt     1002a4a0 f   LIBCMTD:utility.obj
 0001:000294f0       ___scrt_initialize_onexit_tables 1002a4f0 f   LIBCMTD:utility.obj
 0001:000295d0       ___scrt_is_nonwritable_in_current_image 1002a5d0 f   LIBCMTD:utility.obj
 0001:00029700       ___scrt_release_startup_lock 1002a700 f   LIBCMTD:utility.obj
 0001:00029730       ___scrt_uninitialize_crt   1002a730 f   LIBCMTD:utility.obj
 0001:00029770       __onexit                   1002a770 f   LIBCMTD:utility.obj
 0001:000297e0       _at_quick_exit             1002a7e0 f   LIBCMTD:utility.obj
 0001:00029820       _atexit                    1002a820 f   LIBCMTD:utility.obj
 0001:00029850       ??3@YAXPAX@Z               1002a850 f   LIBCMTD:delete_scalar.obj
 0001:00029870       ___raise_securityfailure   1002a870 f   LIBCMTD:gs_report.obj
 0001:000298a0       ___report_gsfailure        1002a8a0 f   LIBCMTD:gs_report.obj
 0001:000299b0       ___report_rangecheckfailure 1002a9b0 f   LIBCMTD:gs_report.obj
 0001:000299c0       ___report_securityfailure  1002a9c0 f   LIBCMTD:gs_report.obj
 0001:00029aa0       ___report_securityfailureEx 1002aaa0 f   LIBCMTD:gs_report.obj
 0001:00029cf0       __Init_thread_abort        1002acf0 f   LIBCMTD:thread_safe_statics.obj
 0001:00029d10       __Init_thread_footer       1002ad10 f   LIBCMTD:thread_safe_statics.obj
 0001:00029d60       __Init_thread_header       1002ad60 f   LIBCMTD:thread_safe_statics.obj
 0001:00029dd0       __Init_thread_lock         1002add0 f   LIBCMTD:thread_safe_statics.obj
 0001:00029de0       __Init_thread_notify       1002ade0 f   LIBCMTD:thread_safe_statics.obj
 0001:00029e30       __Init_thread_unlock       1002ae30 f   LIBCMTD:thread_safe_statics.obj
 0001:00029e40       __Init_thread_wait         1002ae40 f   LIBCMTD:thread_safe_statics.obj
 0001:00029ed0       ??2@YAPAXIABUnothrow_t@std@@@Z 1002aed0 f   LIBCMTD:new_scalar_nothrow.obj
 0001:00029f60       ??_U@YAPAXIABUnothrow_t@std@@@Z 1002af60 f   LIBCMTD:new_array_nothrow.obj
 0001:00029f80       __allmul                   1002af80 f   LIBCMTD:llmul.obj
 0001:00029fc0       __alloca_probe_16          1002afc0 f   LIBCMTD:alloca16.obj
 0001:00029fd6       __alloca_probe_8           1002afd6     LIBCMTD:alloca16.obj
 0001:00029ff0       __chkstk                   1002aff0 f   LIBCMTD:chkstk.obj
 0001:00029ff0       __alloca_probe             1002aff0 f   LIBCMTD:chkstk.obj
 0001:0002a4f0       __CRT_INIT@12              1002b4f0 f   LIBCMTD:dll_dllmain.obj
 0001:0002a510       __DllMainCRTStartup@12     1002b510 f   LIBCMTD:dll_dllmain.obj
 0001:0002a5d0       ?_RTC_AllocaFailure@@YAXPAXPAU_RTC_ALLOCA_NODE@@H@Z 1002b5d0 f   LIBCMTD:error.obj
 0001:0002a6c0       ?_RTC_Failure@@YAXPAXH@Z   1002b6c0 f   LIBCMTD:error.obj
 0001:0002a710       ?_RTC_StackFailure@@YAXPAXPBD@Z 1002b710 f   LIBCMTD:error.obj
 0001:0002aad0       __RTC_UninitUse            1002bad0 f   LIBCMTD:error.obj
 0001:0002ab80       __vsprintf_s_l             1002bb80 f i LIBCMTD:error.obj
 0001:0002abb0       _sprintf_s                 1002bbb0 f i LIBCMTD:error.obj
 0001:0002abd0       ?_RTC_GetErrorFunc@@YAP6AHHPBDH00ZZPBX@Z 1002bbd0 f   LIBCMTD:userapi.obj
 0001:0002abe0       ?_RTC_GetErrorFuncW@@YAP6AHHPB_WH00ZZPBX@Z 1002bbe0 f   LIBCMTD:userapi.obj
 0001:0002abf0       __RTC_GetErrDesc           1002bbf0 f   LIBCMTD:userapi.obj
 0001:0002ac10       __RTC_NumErrors            1002bc10 f   LIBCMTD:userapi.obj
 0001:0002ac20       __RTC_SetErrorFunc         1002bc20 f   LIBCMTD:userapi.obj
 0001:0002ac40       __RTC_SetErrorFuncW        1002bc40 f   LIBCMTD:userapi.obj
 0001:0002ac60       __RTC_SetErrorType         1002bc60 f   LIBCMTD:userapi.obj
 0001:0002ac90       ??2@YAPAXI@Z               1002bc90 f   LIBCMTD:new_scalar.obj
 0001:0002ace0       ___isa_available_init      1002bce0 f   LIBCMTD:cpu_disp.obj
 0001:0002b020       __get_startup_argv_mode    1002c020 f   LIBCMTD:argv_mode.obj
 0001:0002b030       ___scrt_is_ucrt_dll_in_use 1002c030 f   LIBCMTD:ucrt_detection.obj
 0001:0002b060       ___scrt_fastfail           1002c060 f   LIBCMTD:utility_desktop.obj
 0001:0002b1a0       ___scrt_get_show_window_mode 1002c1a0 f   LIBCMTD:utility_desktop.obj
 0001:0002b1e0       ___scrt_initialize_mta     1002c1e0 f   LIBCMTD:utility_desktop.obj
 0001:0002b1f0       ___scrt_initialize_winrt   1002c1f0 f   LIBCMTD:utility_desktop.obj
 0001:0002b200       ___scrt_is_managed_app     1002c200 f   LIBCMTD:utility_desktop.obj
 0001:0002b290       ___scrt_set_unhandled_exception_filter 1002c290 f   LIBCMTD:utility_desktop.obj
 0001:0002b2a0       ___scrt_exe_initialize_mta 1002c2a0 f   LIBCMTD:utility_desktop.obj
 0001:0002b2a0       ___scrt_stub_for_initialize_mta 1002c2a0 f   LIBCMTD:utility_desktop.obj
 0001:0002b2b0       ___scrt_unhandled_exception_filter@4 1002c2b0 f   LIBCMTD:utility_desktop.obj
 0001:0002b330       __crt_debugger_hook        1002c330 f   LIBCMTD:utility_desktop.obj
 0001:0002b340       @_guard_check_icall_nop@4  1002c340 f i LIBCMTD:guard_support.obj
 0001:0002b350       _ReadNoFence               1002c350 f i LIBCMTD:guard_support.obj
 0001:0002b370       _ReadPointerNoFence        1002c370 f i LIBCMTD:guard_support.obj
 0001:0002b390       ___castguard_check_failure_debugbreak 1002c390 f i LIBCMTD:guard_support.obj
 0001:0002b3b0       ___castguard_check_failure_fastfail 1002c3b0 f i LIBCMTD:guard_support.obj
 0001:0002b3d0       ___castguard_check_failure_nop 1002c3d0 f i LIBCMTD:guard_support.obj
 0001:0002b3e0       ___castguard_check_failure_os_handled 1002c3e0 f i LIBCMTD:guard_support.obj
 0001:0002b470       ___castguard_slow_path_check_debugbreak 1002c470 f i LIBCMTD:guard_support.obj
 0001:0002b4a0       ___castguard_slow_path_check_fastfail 1002c4a0 f i LIBCMTD:guard_support.obj
 0001:0002b4e0       ___castguard_slow_path_check_nop 1002c4e0 f i LIBCMTD:guard_support.obj
 0001:0002b4f0       ___castguard_slow_path_check_os_handled 1002c4f0 f i LIBCMTD:guard_support.obj
 0001:0002b570       __guard_icall_checks_enforced 1002c570 f i LIBCMTD:guard_support.obj
 0001:0002b610       ___security_init_cookie    1002c610 f   LIBCMTD:gs_support.obj
 0001:0002b690       ?__scrt_initialize_type_info@@YAXXZ 1002c690 f   LIBCMTD:tncleanup.obj
 0001:0002b6a0       ?__scrt_uninitialize_type_info@@YAXXZ 1002c6a0 f   LIBCMTD:tncleanup.obj
 0001:0002b6c0       ___local_stdio_scanf_options 1002c6c0 f i LIBCMTD:default_local_stdio_options.obj
 0001:0002b6d0       ___scrt_initialize_default_local_stdio_options 1002c6d0 f   LIBCMTD:default_local_stdio_options.obj
 0001:0002b710       ___scrt_get_dyn_tls_init_callback 1002c710 f   LIBCMTD:dyn_tls_init.obj
 0001:0002b720       __RTC_Initialize           1002c720 f   LIBCMTD:initsect.obj
 0001:0002b750       __RTC_Terminate            1002c750 f   LIBCMTD:initsect.obj
 0001:0002bc00       ?_RTC_GetSrcLine@@YAHPAEPA_WKPAH1K@Z 1002cc00 f   LIBCMTD:pdblkup.obj
 0001:0002bf80       __except_handler4_noexcept 1002cf80 f   LIBCMTD:chandler4_noexcept.obj
 0001:0002bfe0       ??0bad_alloc@std@@AAE@QBD@Z 1002cfe0 f i LIBCMTD:throw_bad_alloc.obj
 0001:0002c010       ??0bad_alloc@std@@QAE@ABV01@@Z 1002d010 f i LIBCMTD:throw_bad_alloc.obj
 0001:0002c040       ??0bad_alloc@std@@QAE@XZ   1002d040 f i LIBCMTD:throw_bad_alloc.obj
 0001:0002c070       ??0bad_array_new_length@std@@QAE@ABV01@@Z 1002d070 f i LIBCMTD:throw_bad_alloc.obj
 0001:0002c0a0       ??0bad_array_new_length@std@@QAE@XZ 1002d0a0 f i LIBCMTD:throw_bad_alloc.obj
 0001:0002c0d0       ??0exception@std@@QAE@ABV01@@Z 1002d0d0 f i LIBCMTD:throw_bad_alloc.obj
 0001:0002c110       ??0exception@std@@QAE@QBDH@Z 1002d110 f i LIBCMTD:throw_bad_alloc.obj
 0001:0002c140       ??1bad_alloc@std@@UAE@XZ   1002d140 f i LIBCMTD:throw_bad_alloc.obj
 0001:0002c160       ??1bad_array_new_length@std@@UAE@XZ 1002d160 f i LIBCMTD:throw_bad_alloc.obj
 0001:0002c180       ??1exception@std@@UAE@XZ   1002d180 f i LIBCMTD:throw_bad_alloc.obj
 0001:0002c1b0       ??_Ebad_alloc@std@@UAEPAXI@Z 1002d1b0 f i LIBCMTD:throw_bad_alloc.obj
 0001:0002c1b0       ??_Gbad_alloc@std@@UAEPAXI@Z 1002d1b0 f i LIBCMTD:throw_bad_alloc.obj
 0001:0002c1e0       ??_Ebad_array_new_length@std@@UAEPAXI@Z 1002d1e0 f i LIBCMTD:throw_bad_alloc.obj
 0001:0002c1e0       ??_Gbad_array_new_length@std@@UAEPAXI@Z 1002d1e0 f i LIBCMTD:throw_bad_alloc.obj
 0001:0002c210       ??_Eexception@std@@UAEPAXI@Z 1002d210 f i LIBCMTD:throw_bad_alloc.obj
 0001:0002c210       ??_Gexception@std@@UAEPAXI@Z 1002d210 f i LIBCMTD:throw_bad_alloc.obj
 0001:0002c240       ?__scrt_throw_std_bad_alloc@@YAXXZ 1002d240 f   LIBCMTD:throw_bad_alloc.obj
 0001:0002c260       ?__scrt_throw_std_bad_array_new_length@@YAXXZ 1002d260 f   LIBCMTD:throw_bad_alloc.obj
 0001:0002c280       ?what@exception@std@@UBEPBDXZ 1002d280 f i LIBCMTD:throw_bad_alloc.obj
 0001:0002c2b0       ??1type_info@@UAE@XZ       1002d2b0 f   LIBCMTD:std_type_info_static.obj
 0001:0002c2d0       ??_Gtype_info@@UAEPAXI@Z   1002d2d0 f i LIBCMTD:std_type_info_static.obj
 0001:0002c2d0       ??_Etype_info@@UAEPAXI@Z   1002d2d0 f i LIBCMTD:std_type_info_static.obj
 0001:0002c2fe       ??$?2PAUHINSTANCE__@@@Wrapper@?$CSimpleArray@PAUHINSTANCE__@@V?$CSimpleArrayEqualHelper@PAUHINSTANCE__@@@ATL@@@ATL@@SAPAXIPAPAUHINSTANCE__@@@Z 1002d2fe f i atls:atlbase.obj
 0001:0002c306       ??0?$CSimpleArray@PAUHINSTANCE__@@V?$CSimpleArrayEqualHelper@PAUHINSTANCE__@@@ATL@@@ATL@@QAE@XZ 1002d306 f i atls:atlbase.obj
 0001:0002c313       ??0CAtlBaseModule@ATL@@QAE@XZ 1002d313 f   atls:atlbase.obj
 0001:0002c366       ??0Wrapper@?$CSimpleArray@PAUHINSTANCE__@@V?$CSimpleArrayEqualHelper@PAUHINSTANCE__@@@ATL@@@ATL@@QAE@ABQAUHINSTANCE__@@@Z 1002d366 f i atls:atlbase.obj
 0001:0002c376       ??0_ATL_BASE_MODULE70@ATL@@QAE@XZ 1002d376 f i atls:atlbase.obj
 0001:0002c399       ??1?$CSimpleArray@PAUHINSTANCE__@@V?$CSimpleArrayEqualHelper@PAUHINSTANCE__@@@ATL@@@ATL@@QAE@XZ 1002d399 f i atls:atlbase.obj
 0001:0002c39e       ??1CAtlBaseModule@ATL@@QAE@XZ 1002d39e f   atls:atlbase.obj
 0001:0002c3b4       ??1_ATL_BASE_MODULE70@ATL@@QAE@XZ 1002d3b4 f i atls:atlbase.obj
 0001:0002c3bc       ??A?$CSimpleArray@PAUHINSTANCE__@@V?$CSimpleArrayEqualHelper@PAUHINSTANCE__@@@ATL@@@ATL@@QAEAAPAUHINSTANCE__@@H@Z 1002d3bc f i atls:atlbase.obj
 0001:0002c3e1       ?Add@?$CSimpleArray@PAUHINSTANCE__@@V?$CSimpleArrayEqualHelper@PAUHINSTANCE__@@@ATL@@@ATL@@QAEHABQAUHINSTANCE__@@@Z 1002d3e1 f i atls:atlbase.obj
 0001:0002c459       ?AddResourceInstance@CAtlBaseModule@ATL@@QAE_NPAUHINSTANCE__@@@Z 1002d459 f   atls:atlbase.obj
 0001:0002c48c       ?GetHInstanceAt@CAtlBaseModule@ATL@@QAEPAUHINSTANCE__@@H@Z 1002d48c f   atls:atlbase.obj
 0001:0002c4d1       ?GetSize@?$CSimpleArray@PAUHINSTANCE__@@V?$CSimpleArrayEqualHelper@PAUHINSTANCE__@@@ATL@@@ATL@@QBEHXZ 1002d4d1 f i atls:atlbase.obj
 0001:0002c4d5       ?InternalSetAtIndex@?$CSimpleArray@PAUHINSTANCE__@@V?$CSimpleArrayEqualHelper@PAUHINSTANCE__@@@ATL@@@ATL@@QAEXHABQAUHINSTANCE__@@@Z 1002d4d5 f i atls:atlbase.obj
 0001:0002c4ef       ?RemoveAll@?$CSimpleArray@PAUHINSTANCE__@@V?$CSimpleArrayEqualHelper@PAUHINSTANCE__@@@ATL@@@ATL@@QAEXXZ 1002d4ef f i atls:atlbase.obj
 0001:0002c50c       ?RemoveAt@?$CSimpleArray@PAUHINSTANCE__@@V?$CSimpleArrayEqualHelper@PAUHINSTANCE__@@@ATL@@@ATL@@QAEHH@Z 1002d50c f i atls:atlbase.obj
 0001:0002c554       ?RemoveResourceInstance@CAtlBaseModule@ATL@@QAE_NPAUHINSTANCE__@@@Z 1002d554 f   atls:atlbase.obj
 0001:0002c5b1       ?memmove_s@Checked@ATL@@YAXPAXIPBXI@Z 1002d5b1 f i atls:atlbase.obj
 0001:0002c90e       ?GetCodeAddress@_stdcallthunk@ATL@@QAEPAXXZ 1002d90e f i atls:atlthunk.obj
 0001:0002c938       ?Init@_stdcallthunk@ATL@@QAEHKPAX@Z 1002d938 f i atls:atlthunk.obj
 0001:0002c96d       ?__AllocStdCallThunk@@YGPAXXZ 1002d96d f   atls:atlthunk.obj
 0001:0002c972       ?__AllocStdCallThunk@ATL@@YGPAXXZ 1002d972 f   atls:atlthunk.obj
 0001:0002c977       ?__AllocStdCallThunk_cmn@@YAPAXXZ 1002d977 f   atls:atlthunk.obj
 0001:0002ca3d       ?__FreeStdCallThunk@@YGXPAX@Z 1002da3d f   atls:atlthunk.obj
 0001:0002ca4d       ?__FreeStdCallThunk@ATL@@YGXPAX@Z 1002da4d f   atls:atlthunk.obj
 0001:0002ca5d       ?__FreeStdCallThunk_cmn@@YAXPAX@Z 1002da5d f   atls:atlthunk.obj
 0001:0002caf9       _AtlThunk_AllocateData@0   1002daf9 f   atls:atlthunk.obj
 0001:0002cb5e       _AtlThunk_DataToCode@4     1002db5e f   atls:atlthunk.obj
 0001:0002cba5       _AtlThunk_FreeData@4       1002dba5 f   atls:atlthunk.obj
 0001:0002cbfb       _AtlThunk_InitData@12      1002dbfb f   atls:atlthunk.obj
 0001:0002cc4a       _MemoryBarrier             1002dc4a f i atls:atlthunk.obj
 0001:0002cc58       __InlineInterlockedCompareExchangePointer 1002dc58 f i atls:atlthunk.obj
 0001:0002cc70       _memset                    1002dc70 f   libvcruntimed:memset.obj
 0001:0002cdd0       ??$__crt_interlocked_exchange_pointer@$$A6AXXZP6AXXZ@@YAP6AXXZPDS6AXXZQ6AXXZ@Z 1002ddd0 f i libvcruntimed:purevirt.obj
 0001:0002cde0       ??$__crt_interlocked_read_pointer@$$A6AXXZ@@YAP6AXXZPDS6AXXZ@Z 1002dde0 f i libvcruntimed:purevirt.obj
 0001:0002ce00       ?__crt_interlocked_read_32@@YAHPDH@Z 1002de00 f i libvcruntimed:purevirt.obj
 0001:0002ce20       __get_purecall_handler     1002de20 f   libvcruntimed:purevirt.obj
 0001:0002ce40       __purecall                 1002de40 f   libvcruntimed:purevirt.obj
 0001:0002ce70       __set_purecall_handler     1002de70 f   libvcruntimed:purevirt.obj
 0001:0002d040       _memcmp                    1002e040 f   libvcruntimed:memcmp.obj
 0001:0002d910       _memcpy                    1002e910 f   libvcruntimed:memcpy.obj
 0001:0002de90       _wcsstr                    1002ee90 f   libvcruntimed:wcsstr.obj
 0001:0002e3c0       __except_handler4          1002f3c0 f   libvcruntimed:chandler4.obj
 0001:0002e5b0       ___vcrt_initialize         1002f5b0 f   libvcruntimed:initialization.obj
 0001:0002e5f0       ___vcrt_thread_attach      1002f5f0 f   libvcruntimed:initialization.obj
 0001:0002e610       ___vcrt_thread_detach      1002f610 f   libvcruntimed:initialization.obj
 0001:0002e630       ___vcrt_uninitialize       1002f630 f   libvcruntimed:initialization.obj
 0001:0002e650       ___vcrt_uninitialize_critical 1002f650 f   libvcruntimed:initialization.obj
 0001:0002e670       ??$?0AAViterator@TryBlockMap@__FrameHandler3@@AAV012@$0A@@?$pair@Viterator@TryBlockMap@__FrameHandler3@@V123@@std@@QAE@AAViterator@TryBlockMap@__FrameHandler3@@0@Z 1002f670 f i libvcruntimed:trnsctrl.obj
 0001:0002e6c0       ??$forward@AAViterator@TryBlockMap@__FrameHandler3@@@std@@YAAAViterator@TryBlockMap@__FrameHandler3@@AAV123@@Z 1002f6c0 f i libvcruntimed:trnsctrl.obj
 0001:0002e6d0       ??0iterator@TryBlockMap@__FrameHandler3@@QAE@AAV12@I@Z 1002f6d0 f i libvcruntimed:trnsctrl.obj
 0001:0002e700       ?GetRangeOfTrysToCheck@__FrameHandler3@@SA?AU?$pair@Viterator@TryBlockMap@__FrameHandler3@@V123@@std@@AAVTryBlockMap@1@HPAXPBU_s_FuncInfo@@H@Z 1002f700 f   libvcruntimed:trnsctrl.obj
 0001:0002e7e0       ?_CallCatchBlock2@@YAPAXPAUEHRegistrationNode@@PBU_s_FuncInfo@@PAXHK@Z 1002f7e0 f   libvcruntimed:trnsctrl.obj
 0001:0002e850       ?_CallSETranslator@@YAHPAUEHExceptionRecord@@PAUEHRegistrationNode@@PAX2PBU_s_FuncInfo@@H1@Z 1002f850 f   libvcruntimed:trnsctrl.obj
 0001:0002e960       ?_JumpToContinuation@@YGXPAXPAUEHRegistrationNode@@@Z 1002f960 f   libvcruntimed:trnsctrl.obj
 0001:0002e9a0       ?_UnwindNestedFrames@@YGXPAUEHRegistrationNode@@PAUEHExceptionRecord@@@Z 1002f9a0 f   libvcruntimed:trnsctrl.obj
 0001:0002ea00       __CatchGuardHandler        1002fa00 f   libvcruntimed:trnsctrl.obj
 0001:0002ea50       __CreateFrameInfo          1002fa50 f   libvcruntimed:trnsctrl.obj
 0001:0002ea80       __FindAndUnlinkFrame       1002fa80 f   libvcruntimed:trnsctrl.obj
 0001:0002eaf0       __TranslatorGuardHandler   1002faf0 f   libvcruntimed:trnsctrl.obj
 0001:0002eba0       ___CxxFrameHandler         1002fba0 f   libvcruntimed:trnsctrl.obj
 0001:0002ebe0       ___CxxFrameHandler2        1002fbe0 f   libvcruntimed:trnsctrl.obj
 0001:0002ec20       ___CxxFrameHandler3        1002fc20 f   libvcruntimed:trnsctrl.obj
 0001:0002ec60       ___CxxLongjmpUnwind@4      1002fc60 f   libvcruntimed:trnsctrl.obj
 0001:0002eca0       ___DestructExceptionObject 1002fca0 f   libvcruntimed:ehhelpers.obj
 0001:0002edc0       ?_CallMemberFunction0@@YGXQAX0@Z 1002fdc0 f i libvcruntimed:ehhelpers.obj
 0001:0002ee60       ?raw_name@type_info@@QBEPBDXZ 1002fe60 f i libvcruntimed:ehhelpers.obj
 0001:0002ee80       __IsExceptionObjectToBeDestroyed 1002fe80 f   libvcruntimed:ehhelpers.obj
 0001:0002eec0       __SetWinRTOutOfMemoryExceptionCallback 1002fec0 f   libvcruntimed:ehhelpers.obj
 0001:0002eed0       ___AdjustPointer           1002fed0 f   libvcruntimed:ehhelpers.obj
 0001:0002ef20       ___FrameUnwindFilter       1002ff20 f   libvcruntimed:ehhelpers.obj
 0001:0002efb0       ___GetPlatformExceptionInfo 1002ffb0 f   libvcruntimed:ehhelpers.obj
 0001:0002f030       ___current_exception       10030030 f   libvcruntimed:ehhelpers.obj
 0001:0002f040       ___current_exception_context 10030040 f   libvcruntimed:ehhelpers.obj
 0001:0002f050       ___processing_throw        10030050 f   libvcruntimed:ehhelpers.obj
 0001:0002f060       ___std_terminate           10030060 f   libvcruntimed:ehhelpers.obj
 0001:0002f070       __is_exception_typeof      10030070 f   libvcruntimed:ehhelpers.obj
 0001:0002f170       ??$?RD@__crt_internal_free_policy@@QBEXQBD@Z 10030170 f i libvcruntimed:std_type_info.obj
 0001:0002f190       ??$?RX@__crt_internal_free_policy@@QBEXQBX@Z 10030190 f i libvcruntimed:std_type_info.obj
 0001:0002f1b0       ??$__crt_interlocked_compare_exchange_pointer@$$CBDPAD$$T@@YAPBDPDSBDQAD$$T@Z 100301b0 f i libvcruntimed:std_type_info.obj
 0001:0002f1d0       ??$__crt_interlocked_read_pointer@$$CBD@@YAPBDPDSBD@Z 100301d0 f i libvcruntimed:std_type_info.obj
 0001:0002f1f0       ??0?$__crt_unique_heap_ptr@DU__crt_internal_free_policy@@@@QAE@QAD@Z 100301f0 f i libvcruntimed:std_type_info.obj
 0001:0002f210       ??0?$__crt_unique_heap_ptr@XU__crt_internal_free_policy@@@@QAE@QAX@Z 10030210 f i libvcruntimed:std_type_info.obj
 0001:0002f230       ??1?$__crt_unique_heap_ptr@DU__crt_internal_free_policy@@@@QAE@XZ 10030230 f i libvcruntimed:std_type_info.obj
 0001:0002f250       ??1?$__crt_unique_heap_ptr@XU__crt_internal_free_policy@@@@QAE@XZ 10030250 f i libvcruntimed:std_type_info.obj
 0001:0002f270       ??B?$__crt_unique_heap_ptr@DU__crt_internal_free_policy@@@@QBE_NXZ 10030270 f i libvcruntimed:std_type_info.obj
 0001:0002f290       ??B?$__crt_unique_heap_ptr@XU__crt_internal_free_policy@@@@QBE_NXZ 10030290 f i libvcruntimed:std_type_info.obj
 0001:0002f320       ?detach@?$__crt_unique_heap_ptr@XU__crt_internal_free_policy@@@@QAEPAXXZ 10030320 f i libvcruntimed:std_type_info.obj
 0001:0002f350       ?get@?$__crt_unique_heap_ptr@DU__crt_internal_free_policy@@@@QBEPADXZ 10030350 f i libvcruntimed:std_type_info.obj
 0001:0002f360       ?get@?$__crt_unique_heap_ptr@XU__crt_internal_free_policy@@@@QBEPAXXZ 10030360 f i libvcruntimed:std_type_info.obj
 0001:0002f370       ?is_valid@?$__crt_unique_heap_ptr@DU__crt_internal_free_policy@@@@QBE_NXZ 10030370 f i libvcruntimed:std_type_info.obj
 0001:0002f3a0       ?is_valid@?$__crt_unique_heap_ptr@XU__crt_internal_free_policy@@@@QBE_NXZ 100303a0 f i libvcruntimed:std_type_info.obj
 0001:0002f3d0       ?release@?$__crt_unique_heap_ptr@DU__crt_internal_free_policy@@@@QAEXXZ 100303d0 f i libvcruntimed:std_type_info.obj
 0001:0002f400       ?release@?$__crt_unique_heap_ptr@XU__crt_internal_free_policy@@@@QAEXXZ 10030400 f i libvcruntimed:std_type_info.obj
 0001:0002f430       ___std_type_info_compare   10030430 f   libvcruntimed:std_type_info.obj
 0001:0002f460       ___std_type_info_destroy_list 10030460 f   libvcruntimed:std_type_info.obj
 0001:0002f4a0       ___std_type_info_hash      100304a0 f   libvcruntimed:std_type_info.obj
 0001:0002f500       ___std_type_info_name      10030500 f   libvcruntimed:std_type_info.obj
 0001:0002f6e0       ___vcrt_GetModuleFileNameW 100306e0 f   libvcruntimed:winapi_thunks.obj
 0001:0002f700       ___vcrt_GetModuleHandleW   10030700 f   libvcruntimed:winapi_thunks.obj
 0001:0002f710       ___vcrt_LoadLibraryExW     10030710 f   libvcruntimed:winapi_thunks.obj
 0001:0002f730       ??$?RD@__crt_public_free_policy@@QBEXQBD@Z 10030730 f i libvcruntimed:std_exception.obj
 0001:0002f750       ??0?$__crt_unique_heap_ptr@DU__crt_public_free_policy@@@@QAE@QAD@Z 10030750 f i libvcruntimed:std_exception.obj
 0001:0002f770       ??1?$__crt_unique_heap_ptr@DU__crt_public_free_policy@@@@QAE@XZ 10030770 f i libvcruntimed:std_exception.obj
 0001:0002f790       ??B?$__crt_unique_heap_ptr@DU__crt_public_free_policy@@@@QBE_NXZ 10030790 f i libvcruntimed:std_exception.obj
 0001:0002f7b0       ?detach@?$__crt_unique_heap_ptr@DU__crt_public_free_policy@@@@QAEPADXZ 100307b0 f i libvcruntimed:std_exception.obj
 0001:0002f7e0       ?get@?$__crt_unique_heap_ptr@DU__crt_public_free_policy@@@@QBEPADXZ 100307e0 f i libvcruntimed:std_exception.obj
 0001:0002f7f0       ?is_valid@?$__crt_unique_heap_ptr@DU__crt_public_free_policy@@@@QBE_NXZ 100307f0 f i libvcruntimed:std_exception.obj
 0001:0002f820       ?release@?$__crt_unique_heap_ptr@DU__crt_public_free_policy@@@@QAEXXZ 10030820 f i libvcruntimed:std_exception.obj
 0001:0002f850       ___std_exception_copy      10030850 f   libvcruntimed:std_exception.obj
 0001:0002f940       ___std_exception_destroy   10030940 f   libvcruntimed:std_exception.obj
 0001:0002f970       __CxxThrowException@8      10030970 f   libvcruntimed:throw.obj
 0001:0002fa20       _memmove                   10030a20 f   libvcruntimed:memmove.obj
 0001:0002ffa0       __local_unwind4            10030fa0 f   libvcruntimed:exsup4.obj
 0001:00030090       __seh_longjmp_unwind4@4    10031090 f   libvcruntimed:exsup4.obj
 0001:000300c0       @_EH4_CallFilterFunc@8     100310c0 f   libvcruntimed:exsup4.obj
 0001:000300e0       @_EH4_TransferToHandler@8  100310e0 f   libvcruntimed:exsup4.obj
 0001:00030100       @_EH4_GlobalUnwind2@8      10031100 f   libvcruntimed:exsup4.obj
 0001:00030120       @_EH4_LocalUnwind@16       10031120 f   libvcruntimed:exsup4.obj
 0001:00030150       ___except_validate_context_record 10031150 f   libvcruntimed:jbcxrval.obj
 0001:000301a0       ___except_validate_jump_buffer 100311a0 f   libvcruntimed:jbcxrval.obj
 0001:000301c0       ___except_validate_jump_buffer_common 100311c0 f i libvcruntimed:jbcxrval.obj
 0001:00030220       ??$?RU__vcrt_ptd@@@__crt_internal_free_policy@@QBEXQBU__vcrt_ptd@@@Z 10031220 f i libvcruntimed:per_thread_data.obj
 0001:00030240       ??0?$__crt_unique_heap_ptr@U__vcrt_ptd@@U__crt_internal_free_policy@@@@QAE@QAU__vcrt_ptd@@@Z 10031240 f i libvcruntimed:per_thread_data.obj
 0001:00030280       ??1?$__crt_unique_heap_ptr@U__vcrt_ptd@@U__crt_internal_free_policy@@@@QAE@XZ 10031280 f i libvcruntimed:per_thread_data.obj
 0001:000302c0       ??B?$__crt_unique_heap_ptr@U__vcrt_ptd@@U__crt_internal_free_policy@@@@QBE_NXZ 100312c0 f i libvcruntimed:per_thread_data.obj
 0001:000302e0       ?detach@?$__crt_unique_heap_ptr@U__vcrt_ptd@@U__crt_internal_free_policy@@@@QAEPAU__vcrt_ptd@@XZ 100312e0 f i libvcruntimed:per_thread_data.obj
 0001:00030310       ?get@?$__crt_unique_heap_ptr@U__vcrt_ptd@@U__crt_internal_free_policy@@@@QBEPAU__vcrt_ptd@@XZ 10031310 f i libvcruntimed:per_thread_data.obj
 0001:00030320       ?is_valid@?$__crt_unique_heap_ptr@U__vcrt_ptd@@U__crt_internal_free_policy@@@@QBE_NXZ 10031320 f i libvcruntimed:per_thread_data.obj
 0001:00030350       ?release@?$__crt_unique_heap_ptr@U__vcrt_ptd@@U__crt_internal_free_policy@@@@QAEXXZ 10031350 f i libvcruntimed:per_thread_data.obj
 0001:000303b0       ___vcrt_freefls@4          100313b0 f   libvcruntimed:per_thread_data.obj
 0001:000303e0       ___vcrt_freeptd            100313e0 f   libvcruntimed:per_thread_data.obj
 0001:00030440       ___vcrt_getptd             10031440 f   libvcruntimed:per_thread_data.obj
 0001:00030460       ___vcrt_getptd_noexit      10031460 f   libvcruntimed:per_thread_data.obj
 0001:000305c0       ___vcrt_getptd_noinit      100315c0 f   libvcruntimed:per_thread_data.obj
 0001:00030620       ___vcrt_initialize_ptd     10031620 f   libvcruntimed:per_thread_data.obj
 0001:00030670       ___vcrt_uninitialize_ptd   10031670 f   libvcruntimed:per_thread_data.obj
 0001:000306a0       ___vcrt_initialize_locks   100316a0 f   libvcruntimed:locks.obj
 0001:00030700       ___vcrt_lock               10031700 f   libvcruntimed:locks.obj
 0001:00030720       ___vcrt_uninitialize_locks 10031720 f   libvcruntimed:locks.obj
 0001:00030770       ___vcrt_unlock             10031770 f   libvcruntimed:locks.obj
 0001:000312e0       ??$TypeMatchHelper@V__FrameHandler3@@@@YAHPBU_s_HandlerType@@PBU_s_CatchableType@@PBU_s_ThrowInfo@@@Z 100322e0 f i libvcruntimed:frame.obj
 0001:000313c0       ??$__InternalCxxFrameHandler@V__FrameHandler3@@@@YA?AW4_EXCEPTION_DISPOSITION@@PAUEHExceptionRecord@@PAUEHRegistrationNode@@PAU_CONTEXT@@PAXPBU_s_FuncInfo@@H1E@Z 100323c0 f i libvcruntimed:frame.obj
 0001:00031580       ??0HandlerMap@__FrameHandler3@@QAE@PBU_s_TryBlockMapEntry@@II@Z 10032580 f i libvcruntimed:frame.obj
 0001:000315b0       ??0TryBlockMap@__FrameHandler3@@QAE@PBU_s_FuncInfo@@I@Z 100325b0 f i libvcruntimed:frame.obj
 0001:000315e0       ??0bad_exception@std@@QAE@ABV01@@Z 100325e0 f i libvcruntimed:frame.obj
 0001:00031610       ??0bad_exception@std@@QAE@XZ 10032610 f i libvcruntimed:frame.obj
 0001:00031640       ??0iterator@HandlerMap@__FrameHandler3@@QAE@AAV12@I@Z 10032640 f i libvcruntimed:frame.obj
 0001:00031670       ??1bad_exception@std@@UAE@XZ 10032670 f i libvcruntimed:frame.obj
 0001:00031690       ??8iterator@HandlerMap@__FrameHandler3@@QBE_NABV012@@Z 10032690 f i libvcruntimed:frame.obj
 0001:000316c0       ??8type_info@@QBE_NABV0@@Z 100326c0 f i libvcruntimed:frame.obj
 0001:00031700       ??9iterator@HandlerMap@__FrameHandler3@@QBE_NABV012@@Z 10032700 f i libvcruntimed:frame.obj
 0001:00031740       ??Diterator@HandlerMap@__FrameHandler3@@QAE?BU_s_HandlerType@@XZ 10032740 f i libvcruntimed:frame.obj
 0001:00031780       ??Diterator@TryBlockMap@__FrameHandler3@@QAE?BU_s_TryBlockMapEntry@@XZ 10032780 f i libvcruntimed:frame.obj
 0001:000317d0       ??Eiterator@HandlerMap@__FrameHandler3@@QAEAAV012@XZ 100327d0 f i libvcruntimed:frame.obj
 0001:000317f0       ??Eiterator@TryBlockMap@__FrameHandler3@@QAEAAV012@XZ 100327f0 f i libvcruntimed:frame.obj
 0001:00031810       ??Miterator@TryBlockMap@__FrameHandler3@@QBE_NABV012@@Z 10032810 f i libvcruntimed:frame.obj
 0001:00031840       ??_Gbad_exception@std@@UAEPAXI@Z 10032840 f i libvcruntimed:frame.obj
 0001:00031840       ??_Ebad_exception@std@@UAEPAXI@Z 10032840 f i libvcruntimed:frame.obj
 0001:00031870       ?BuildCatchObject@__FrameHandler3@@SAXPAUEHExceptionRecord@@PAXPBU_s_HandlerType@@PBU_s_CatchableType@@@Z 10032870 f   libvcruntimed:frame.obj
 0001:00031890       ?BuildCatchObjectHelper@__FrameHandler3@@SAHPAUEHExceptionRecord@@PAXPBU_s_HandlerType@@PBU_s_CatchableType@@@Z 10032890 f   libvcruntimed:frame.obj
 0001:00031c30       ?FrameUnwindToEmptyState@__FrameHandler3@@SAXPAUEHRegistrationNode@@PAXPBU_s_FuncInfo@@@Z 10032c30 f   libvcruntimed:frame.obj
 0001:00031c50       ?FrameUnwindToState@__FrameHandler3@@SAXPAUEHRegistrationNode@@PAXPBU_s_FuncInfo@@H@Z 10032c50 f   libvcruntimed:frame.obj
 0001:00031dd0       ?GetMaxState@__FrameHandler3@@SAHPAXPBU_s_FuncInfo@@@Z 10032dd0 f i libvcruntimed:frame.obj
 0001:00031ef0       ?TypeMatch@__FrameHandler3@@SAHPBU_s_HandlerType@@PBU_s_CatchableType@@PBU_s_ThrowInfo@@@Z 10032ef0 f   libvcruntimed:frame.obj
 0001:00031f10       ?_CallMemberFunction1@@YGXQAX00@Z 10032f10 f i libvcruntimed:frame.obj
 0001:00031f40       ?_CallMemberFunction2@@YGXQAX00H@Z 10032f40 f i libvcruntimed:frame.obj
 0001:00031f70       ?begin@HandlerMap@__FrameHandler3@@QAE?AViterator@12@XZ 10032f70 f i libvcruntimed:frame.obj
 0001:00031f90       ?end@HandlerMap@__FrameHandler3@@QAE?AViterator@12@XZ 10032f90 f i libvcruntimed:frame.obj
 0001:00031fc0       ?getESTypes@__FrameHandler3@@SAPBU_s_ESTypeList@@PBU_s_FuncInfo@@@Z 10032fc0 f i libvcruntimed:frame.obj
 0001:00031fd0       ?getLastEntry@HandlerMap@__FrameHandler3@@QAEPBU_s_HandlerType@@XZ 10032fd0 f i libvcruntimed:frame.obj
 0001:00031ff0       ?getMagicNum@__FrameHandler3@@SAIPBU_s_FuncInfo@@@Z 10032ff0 f i libvcruntimed:frame.obj
 0001:00032000       ?getNumTryBlocks@TryBlockMap@__FrameHandler3@@QAEIXZ 10033000 f i libvcruntimed:frame.obj
 0001:00032020       ?isEHs@__FrameHandler3@@SA_NPBU_s_FuncInfo@@@Z 10033020 f i libvcruntimed:frame.obj
 0001:00032050       ?isNoExcept@__FrameHandler3@@SA_NPBU_s_FuncInfo@@@Z 10033050 f i libvcruntimed:frame.obj
 0001:00032080       ___BuildCatchObject        10033080 f   libvcruntimed:frame.obj
 0001:000320a0       ___BuildCatchObjectHelper  100330a0 f   libvcruntimed:frame.obj
 0001:000320c0       ___TypeMatch               100330c0 f   libvcruntimed:frame.obj
 0001:000320e0       ___vcrt_EncodePointer      100330e0 f i libvcruntimed:frame.obj
 0001:000320f0       __CallSettingFrame@12      100330f0 f   libvcruntimed:lowhelpr.obj
 0001:00032117       __NLG_Return               10033117     libvcruntimed:lowhelpr.obj
 0001:00032140       ??$?0$00@DName@@QAE@PBDU?$StringLifeSelector@$00@@@Z 10033140 f i libvcruntimed:undname.obj
 0001:00032190       ??$?0$00@pcharNode@@QAE@PBDHU?$StringLifeSelector@$00@@@Z 10033190 f i libvcruntimed:undname.obj
 0001:000321d0       ??$?0$01@DName@@QAE@PBDU?$StringLifeSelector@$01@@@Z 100331d0 f i libvcruntimed:undname.obj
 0001:00032220       ??$?0$01@pcharNode@@QAE@PBDHU?$StringLifeSelector@$01@@@Z 10033220 f i libvcruntimed:undname.obj
 0001:000322a0       ??$?0$0A@@DName@@QAE@PBDU?$StringLifeSelector@$0A@@@@Z 100332a0 f i libvcruntimed:undname.obj
 0001:000322f0       ??$?0$0A@@pcharNode@@QAE@PBDHU?$StringLifeSelector@$0A@@@@Z 100332f0 f i libvcruntimed:undname.obj
 0001:00032370       ??$?0_K$0A@@?$optional@_K@std@@QAE@$$QA_K@Z 10033370 f i libvcruntimed:undname.obj
 0001:000323b0       ??$?0_K@?$_Optional_construct_base@_K@std@@QAE@Uin_place_t@1@$$QA_K@Z 100333b0 f i libvcruntimed:undname.obj
 0001:000323e0       ??$?0_K@?$_Optional_destruct_base@_K$00@std@@QAE@Uin_place_t@1@$$QA_K@Z 100333e0 f i libvcruntimed:undname.obj
 0001:00032410       ??$append@VDNameNode@@@DName@@AAEXPBVDNameNode@@@Z 10033410 f i libvcruntimed:undname.obj
 0001:000324a0       ??$append@VDNameStatusNode@@@DName@@AAEXPBVDNameStatusNode@@@Z 100334a0 f i libvcruntimed:undname.obj
 0001:00032530       ??$append@VcharNode@@@DName@@AAEXPBVcharNode@@@Z 10033530 f i libvcruntimed:undname.obj
 0001:000325c0       ??$append@VpDNameNode@@@DName@@AAEXPBVpDNameNode@@@Z 100335c0 f i libvcruntimed:undname.obj
 0001:00032650       ??$append@VpcharNode@@@DName@@AAEXPBVpcharNode@@@Z 10033650 f i libvcruntimed:undname.obj
 0001:000326e0       ??$doPchar@$00@DName@@AAEXPBDH@Z 100336e0 f i libvcruntimed:undname.obj
 0001:000327f0       ??$doPchar@$01@DName@@AAEXPBDH@Z 100337f0 f i libvcruntimed:undname.obj
 0001:00032900       ??$doPchar@$0A@@DName@@AAEXPBDH@Z 10033900 f i libvcruntimed:undname.obj
 0001:00032a10       ??$forward@_K@std@@YA$$QA_KAA_K@Z 10033a10 f i libvcruntimed:undname.obj
 0001:00032a20       ??$size@D$04@std@@YAIAAY04$$CBD@Z 10033a20 f i libvcruntimed:undname.obj
 0001:00032a30       ??$size@D$0EB@@std@@YAIAAY0EB@$$CBD@Z 10033a30 f i libvcruntimed:undname.obj
 0001:00032a40       ??0?$_Optional_construct_base@_K@std@@QAE@XZ 10033a40 f i libvcruntimed:undname.obj
 0001:00032a60       ??0?$_Optional_destruct_base@_K$00@std@@QAE@XZ 10033a60 f i libvcruntimed:undname.obj
 0001:00032a80       ??0?$optional@_K@std@@QAE@XZ 10033a80 f i libvcruntimed:undname.obj
 0001:00032aa0       ??0Block@_HeapManager@@QAE@XZ 10033aa0 f i libvcruntimed:undname.obj
 0001:00032ac0       ??0DName@@QAE@AAPBDD@Z     10033ac0 f   libvcruntimed:undname.obj
 0001:00032c30       ??0DName@@QAE@ABUStringLiteral@@@Z 10033c30 f   libvcruntimed:undname.obj
 0001:00032c80       ??0DName@@QAE@ABV0@@Z      10033c80 f i libvcruntimed:undname.obj
 0001:00032cb0       ??0DName@@QAE@D@Z          10033cb0 f   libvcruntimed:undname.obj
 0001:00032ce0       ??0DName@@QAE@PAV0@@Z      10033ce0 f   libvcruntimed:undname.obj
 0001:00032d90       ??0DName@@QAE@W4DNameStatus@@@Z 10033d90 f   libvcruntimed:undname.obj
 0001:00032e30       ??0DName@@QAE@XZ           10033e30 f i libvcruntimed:undname.obj
 0001:00032e60       ??0DName@@QAE@_J@Z         10033e60 f   libvcruntimed:undname.obj
 0001:00032f50       ??0DName@@QAE@_K@Z         10033f50 f   libvcruntimed:undname.obj
 0001:00033000       ??0DNameNode@@IAE@XZ       10034000 f i libvcruntimed:undname.obj
 0001:00033020       ??0Replicator@@QAE@XZ      10034020 f i libvcruntimed:undname.obj
 0001:00033060       ??0UnDecorator@@QAE@PBDP6APADJ@ZK@Z 10034060 f i libvcruntimed:undname.obj
 0001:000330e0       ??0_Nontrivial_dummy_type@std@@QAE@XZ 100340e0 f i libvcruntimed:undname.obj
 0001:000330f0       ??0charNode@@QAE@D@Z       100340f0 f i libvcruntimed:undname.obj
 0001:00033120       ??0pDNameNode@@QAE@PAVDName@@@Z 10034120 f   libvcruntimed:undname.obj
 0001:00033180       ??0pairNode@@QAE@PBVDNameNode@@0@Z 10034180 f i libvcruntimed:undname.obj
 0001:000331e0       ??2@YAPAXIAAV_HeapManager@@H@Z 100341e0 f   libvcruntimed:undname.obj
 0001:00033220       ??4DName@@QAEAAV0@ABUStringLiteral@@@Z 10034220 f   libvcruntimed:undname.obj
 0001:00033260       ??4DName@@QAEAAV0@ABV0@@Z  10034260 f   libvcruntimed:undname.obj
 0001:00033290       ??4DName@@QAEAAV0@D@Z      10034290 f i libvcruntimed:undname.obj
 0001:000332c0       ??4DName@@QAEAAV0@PAV0@@Z  100342c0 f   libvcruntimed:undname.obj
 0001:00033360       ??4DName@@QAEAAV0@W4DNameStatus@@@Z 10034360 f   libvcruntimed:undname.obj
 0001:000333e0       ??AReplicator@@QBE?AVDName@@H@Z 100343e0 f   libvcruntimed:undname.obj
 0001:00033450       ??B?$optional@_K@std@@QBE_NXZ 10034450 f i libvcruntimed:undname.obj
 0001:00033470       ??D?$optional@_K@std@@QGAEAA_KXZ 10034470 f i libvcruntimed:undname.obj
 0001:000334e0       ??H@YA?AVDName@@ABUStringLiteral@@ABV0@@Z 100344e0 f i libvcruntimed:undname.obj
 0001:00033510       ??H@YA?AVDName@@DABV0@@Z   10034510 f i libvcruntimed:undname.obj
 0001:00033540       ??H@YA?AVDName@@W4DNameStatus@@ABV0@@Z 10034540 f i libvcruntimed:undname.obj
 0001:00033570       ??HDName@@QBE?AV0@ABUStringLiteral@@@Z 10034570 f   libvcruntimed:undname.obj
 0001:000335b0       ??HDName@@QBE?AV0@ABV0@@Z  100345b0 f   libvcruntimed:undname.obj
 0001:000335f0       ??HDName@@QBE?AV0@D@Z      100345f0 f   libvcruntimed:undname.obj
 0001:00033630       ??HDName@@QBE?AV0@PAV0@@Z  10034630 f   libvcruntimed:undname.obj
 0001:00033670       ??HDName@@QBE?AV0@W4DNameStatus@@@Z 10034670 f   libvcruntimed:undname.obj
 0001:000336b0       ??HStringLiteral@@QBE?AU0@H@Z 100346b0 f i libvcruntimed:undname.obj
 0001:000336e0       ??YDName@@QAEAAV0@ABUStringLiteral@@@Z 100346e0 f   libvcruntimed:undname.obj
 0001:00033780       ??YDName@@QAEAAV0@ABV0@@Z  10034780 f   libvcruntimed:undname.obj
 0001:00033820       ??YDName@@QAEAAV0@D@Z      10034820 f   libvcruntimed:undname.obj
 0001:000338a0       ??YDName@@QAEAAV0@PAV0@@Z  100348a0 f   libvcruntimed:undname.obj
 0001:00033950       ??YDName@@QAEAAV0@W4DNameStatus@@@Z 10034950 f   libvcruntimed:undname.obj
 0001:000339b0       ??YReplicator@@QAEAAV0@ABVDName@@@Z 100349b0 f   libvcruntimed:undname.obj
 0001:00033a40       ??_5DName@@QAEAAV0@ABV0@@Z 10034a40 f   libvcruntimed:undname.obj
 0001:00033aa0       ??__K_l@@YA?AUStringLiteral@@PBDI@Z 10034aa0 f i libvcruntimed:undname.obj
 0001:00033ac0       ?Constructor@_HeapManager@@QAEXP6APAXI@ZP6AXPAX@Z@Z 10034ac0 f i libvcruntimed:undname.obj
 0001:00033b00       ?Destructor@_HeapManager@@QAEXXZ 10034b00 f i libvcruntimed:undname.obj
 0001:00033b70       ?UScore@UnDecorator@@SA?AUStringLiteral@@W4Tokens@@@Z 10034b70 f   libvcruntimed:undname.obj
 0001:00033bc0       ?composeDeclaration@UnDecorator@@CA?AVDName@@ABV2@@Z 10034bc0 f i libvcruntimed:undname.obj
 0001:00035b30       ?dbGetString@DName@@QBEPADXZ 10036b30 f   libvcruntimed:undname.obj
 0001:00035b50       ?doAccessSpecifiers@UnDecorator@@SAHXZ 10036b50 f i libvcruntimed:undname.obj
 0001:00035b80       ?doAllocationLanguage@UnDecorator@@SAHXZ 10036b80 f i libvcruntimed:undname.obj
 0001:00035bb0       ?doAllocationModel@UnDecorator@@SAHXZ 10036bb0 f i libvcruntimed:undname.obj
 0001:00035be0       ?doEcsu@UnDecorator@@SAHXZ 10036be0 f i libvcruntimed:undname.obj
 0001:00035c10       ?doEllipsis@UnDecorator@@SAHXZ 10036c10 f i libvcruntimed:undname.obj
 0001:00035c40       ?doFunctionReturns@UnDecorator@@SAHXZ 10036c40 f i libvcruntimed:undname.obj
 0001:00035c70       ?doMSKeywords@UnDecorator@@SAHXZ 10036c70 f i libvcruntimed:undname.obj
 0001:00035ca0       ?doMemberTypes@UnDecorator@@SAHXZ 10036ca0 f i libvcruntimed:undname.obj
 0001:00035cd0       ?doNameOnly@UnDecorator@@SAHXZ 10036cd0 f i libvcruntimed:undname.obj
 0001:00035ce0       ?doNoIdentCharCheck@UnDecorator@@SAHXZ 10036ce0 f i libvcruntimed:undname.obj
 0001:00035cf0       ?doPchar@DName@@AAEXD@Z    10036cf0 f   libvcruntimed:undname.obj
 0001:00035d60       ?doPtr64@UnDecorator@@SAHXZ 10036d60 f i libvcruntimed:undname.obj
 0001:00035d90       ?doRestrictionSpec@UnDecorator@@SAHXZ 10036d90 f i libvcruntimed:undname.obj
 0001:00035dc0       ?doThisTypes@UnDecorator@@SAHXZ 10036dc0 f i libvcruntimed:undname.obj
 0001:00035df0       ?doThrowTypes@UnDecorator@@SAHXZ 10036df0 f i libvcruntimed:undname.obj
 0001:00035e20       ?doTypeOnly@UnDecorator@@SAHXZ 10036e20 f i libvcruntimed:undname.obj
 0001:00035e30       ?doUnderScore@UnDecorator@@SAHXZ 10036e30 f i libvcruntimed:undname.obj
 0001:00035e60       ?getAddressOf@UnDecorator@@CA?AVDName@@XZ 10036e60 f   libvcruntimed:undname.obj
 0001:00035ee0       ?getArgumentList@UnDecorator@@CA?AVDName@@XZ 10036ee0 f   libvcruntimed:undname.obj
 0001:00036030       ?getArgumentTypes@UnDecorator@@CA?AVDName@@XZ 10037030 f   libvcruntimed:undname.obj
 0001:00036200       ?getArrayAccess@UnDecorator@@CA?AVDName@@XZ 10037200 f   libvcruntimed:undname.obj
 0001:000362a0       ?getArrayObject@UnDecorator@@CA?AVDName@@XZ 100372a0 f   libvcruntimed:undname.obj
 0001:00036380       ?getArrayType@UnDecorator@@CA?AVDName@@ABV2@@Z 10037380 f i libvcruntimed:undname.obj
 0001:00036620       ?getBasedType@UnDecorator@@CA?AVDName@@XZ 10037620 f   libvcruntimed:undname.obj
 0001:00036710       ?getBasicDataType@UnDecorator@@CA?AVDName@@ABV2@@Z 10037710 f   libvcruntimed:undname.obj
 0001:00037080       ?getCHPEName@UnDecorator@@QAEPADPADH@Z 10038080 f i libvcruntimed:undname.obj
 0001:000371e0       ?getCallIndex@UnDecorator@@CA?AVDName@@XZ 100381e0 f i libvcruntimed:undname.obj
 0001:00037200       ?getCallingConvention@UnDecorator@@CA?AVDName@@XZ 10038200 f   libvcruntimed:undname.obj
 0001:00037460       ?getDataIndirectType@UnDecorator@@CA?AVDName@@ABV2@W4IndirectionKind@@0H@Z 10038460 f   libvcruntimed:undname.obj
 0001:00037d80       ?getDataIndirectType@UnDecorator@@CA?AVDName@@XZ 10038d80 f i libvcruntimed:undname.obj
 0001:00037dc0       ?getDataType@UnDecorator@@CA?AVDName@@PAV2@@Z 10038dc0 f   libvcruntimed:undname.obj
 0001:00037f00       ?getDecoratedName@UnDecorator@@CA?AVDName@@XZ 10038f00 f   libvcruntimed:undname.obj
 0001:00038340       ?getDimension@UnDecorator@@CA?AVDName@@_N@Z 10039340 f   libvcruntimed:undname.obj
 0001:000385a0       ?getDispatchTarget@UnDecorator@@CA?AVDName@@XZ 100395a0 f   libvcruntimed:undname.obj
 0001:00038640       ?getDisplacement@UnDecorator@@CA?AVDName@@XZ 10039640 f i libvcruntimed:undname.obj
 0001:00038660       ?getECSUDataType@UnDecorator@@CA?AVDName@@XZ 10039660 f   libvcruntimed:undname.obj
 0001:000388c0       ?getECSUName@UnDecorator@@CA?AVDName@@XZ 100398c0 f i libvcruntimed:undname.obj
 0001:000388e0       ?getEnumType@UnDecorator@@CA?AVDName@@XZ 100398e0 f i libvcruntimed:undname.obj
 0001:00038aa0       ?getExtendedDataIndirectType@UnDecorator@@CA?AVDName@@AAW4IndirectionKind@@AA_NH@Z 10039aa0 f   libvcruntimed:undname.obj
 0001:00038cf0       ?getExternalDataType@UnDecorator@@CA?AVDName@@ABV2@@Z 10039cf0 f i libvcruntimed:undname.obj
 0001:00038d90       ?getFloatingPoint@UnDecorator@@CA?AVDName@@H@Z 10039d90 f   libvcruntimed:undname.obj
 0001:00038f50       ?getFunctionIndirectType@UnDecorator@@CA?AVDName@@ABV2@@Z 10039f50 f   libvcruntimed:undname.obj
 0001:00039430       ?getGuardNumber@UnDecorator@@CA?AVDName@@XZ 1003a430 f i libvcruntimed:undname.obj
 0001:00039450       ?getLastChar@DName@@QBEDXZ 1003a450 f i libvcruntimed:undname.obj
 0001:00039490       ?getLastChar@DNameStatusNode@@UBEDXZ 1003a490 f i libvcruntimed:undname.obj
 0001:000394c0       ?getLastChar@charNode@@UBEDXZ 1003a4c0 f i libvcruntimed:undname.obj
 0001:000394e0       ?getLastChar@pDNameNode@@UBEDXZ 1003a4e0 f i libvcruntimed:undname.obj
 0001:00039510       ?getLastChar@pairNode@@UBEDXZ 1003a510 f i libvcruntimed:undname.obj
 0001:00039580       ?getLastChar@pcharNode@@UBEDXZ 1003a580 f i libvcruntimed:undname.obj
 0001:000395c0       ?getLexicalFrame@UnDecorator@@CA?AVDName@@XZ 1003a5c0 f i libvcruntimed:undname.obj
 0001:00039600       ?getMemberAccess@UnDecorator@@CA?AVDName@@XZ 1003a600 f   libvcruntimed:undname.obj
 0001:00039690       ?getMemoryWithBuffer@_HeapManager@@QAEPAXI@Z 1003a690 f   libvcruntimed:undname.obj
 0001:00039780       ?getMemoryWithoutBuffer@_HeapManager@@QAEPAXI@Z 1003a780 f   libvcruntimed:undname.obj
 0001:000397c0       ?getNoexcept@UnDecorator@@CA?AVDName@@XZ 1003a7c0 f   libvcruntimed:undname.obj
 0001:00039840       ?getNumberOfDimensions@UnDecorator@@CAHXZ 1003a840 f   libvcruntimed:undname.obj
 0001:00039940       ?getOperatorName@UnDecorator@@CA?AVDName@@_NPA_N@Z 1003a940 f i libvcruntimed:undname.obj
 0001:0003a440       ?getPointerToMember@UnDecorator@@CA?AVDName@@XZ 1003b440 f   libvcruntimed:undname.obj
 0001:0003a530       ?getPointerType@UnDecorator@@CA?AVDName@@ABV2@0@Z 1003b530 f i libvcruntimed:undname.obj
 0001:0003a550       ?getPointerTypeArray@UnDecorator@@CA?AVDName@@ABV2@0@Z 1003b550 f i libvcruntimed:undname.obj
 0001:0003a570       ?getPrimaryDataType@UnDecorator@@CA?AVDName@@ABV2@@Z 1003b570 f   libvcruntimed:undname.obj
 0001:0003aa00       ?getPtrRefDataType@UnDecorator@@CA?AVDName@@ABV2@H@Z 1003ba00 f   libvcruntimed:undname.obj
 0001:0003acb0       ?getPtrRefType@UnDecorator@@CA?AVDName@@ABV2@0W4IndirectionKind@@@Z 1003bcb0 f   libvcruntimed:undname.obj
 0001:0003ae30       ?getReferenceType@UnDecorator@@CA?AVDName@@ABV2@0W4IndirectionKind@@@Z 1003be30 f i libvcruntimed:undname.obj
 0001:0003ae50       ?getRestrictionSpec@UnDecorator@@CA?AVDName@@XZ 1003be50 f   libvcruntimed:undname.obj
 0001:0003b010       ?getReturnType@UnDecorator@@CA?AVDName@@PAV2@@Z 1003c010 f   libvcruntimed:undname.obj
 0001:0003b060       ?getScope@UnDecorator@@CA?AVDName@@XZ 1003c060 f   libvcruntimed:undname.obj
 0001:0003b5f0       ?getScopedName@UnDecorator@@CA?AVDName@@XZ 1003c5f0 f   libvcruntimed:undname.obj
 0001:0003b740       ?getSignedDimension@UnDecorator@@CA?AVDName@@XZ 1003c740 f   libvcruntimed:undname.obj
 0001:0003b7c0       ?getStorageConvention@UnDecorator@@CA?AVDName@@XZ 1003c7c0 f i libvcruntimed:undname.obj
 0001:0003b7e0       ?getString@DName@@QBEPADPAD0@Z 1003c7e0 f i libvcruntimed:undname.obj
 0001:0003b840       ?getString@DName@@QBEPADPADH@Z 1003c840 f i libvcruntimed:undname.obj
 0001:0003b8d0       ?getString@DNameStatusNode@@UBEPADPAD0@Z 1003c8d0 f i libvcruntimed:undname.obj
 0001:0003b910       ?getString@charNode@@UBEPADPAD0@Z 1003c910 f i libvcruntimed:undname.obj
 0001:0003b940       ?getString@pDNameNode@@UBEPADPAD0@Z 1003c940 f i libvcruntimed:undname.obj
 0001:0003b980       ?getString@pairNode@@UBEPADPAD0@Z 1003c980 f i libvcruntimed:undname.obj
 0001:0003ba10       ?getString@pcharNode@@UBEPADPAD0@Z 1003ca10 f i libvcruntimed:undname.obj
 0001:0003ba40       ?getStringEncoding@UnDecorator@@CA?AVDName@@W4PrefixKind@@H@Z 1003ca40 f   libvcruntimed:undname.obj
 0001:0003bb50       ?getStringHelper@@YAPADPADPBD1H@Z 1003cb50 f i libvcruntimed:undname.obj
 0001:0003bb90       ?getStringObject@UnDecorator@@CA?AVDName@@XZ 1003cb90 f   libvcruntimed:undname.obj
 0001:0003bc40       ?getSymbolName@UnDecorator@@CA?AVDName@@XZ 1003cc40 f i libvcruntimed:undname.obj
 0001:0003bcd0       ?getTemplateArgumentList@UnDecorator@@CA?AVDName@@XZ 1003ccd0 f   libvcruntimed:undname.obj
 0001:0003bfc0       ?getTemplateName@UnDecorator@@CA?AVDName@@_N@Z 1003cfc0 f   libvcruntimed:undname.obj
 0001:0003c180       ?getTemplateNonTypeArgument@UnDecorator@@CA?AVDName@@XZ 1003d180 f   libvcruntimed:undname.obj
 0001:0003c7c0       ?getTemplateTypeArgument@UnDecorator@@CA?AVDName@@XZ 1003d7c0 f   libvcruntimed:undname.obj
 0001:0003c960       ?getThisType@UnDecorator@@CA?AVDName@@XZ 1003d960 f i libvcruntimed:undname.obj
 0001:0003c9a0       ?getThrowTypes@UnDecorator@@CA?AVDName@@XZ 1003d9a0 f   libvcruntimed:undname.obj
 0001:0003c9e0       ?getTypeEncoding@UnDecorator@@CAHXZ 1003d9e0 f i libvcruntimed:undname.obj
 0001:0003d4a0       ?getUndecoratedName@UnDecorator@@QAEPADPADH@Z 1003e4a0 f i libvcruntimed:undname.obj
 0001:0003d600       ?getUnionObject@UnDecorator@@CA?AVDName@@XZ 1003e600 f   libvcruntimed:undname.obj
 0001:0003d6d0       ?getVCallThunkType@UnDecorator@@CA?AVDName@@XZ 1003e6d0 f i libvcruntimed:undname.obj
 0001:0003d750       ?getValue@UnDecorator@@CA?AV?$optional@_K@std@@XZ 1003e750 f   libvcruntimed:undname.obj
 0001:0003d810       ?getValueObject@UnDecorator@@CA?AVDName@@XZ 1003e810 f   libvcruntimed:undname.obj
 0001:0003d9f0       ?getVbTableType@UnDecorator@@CA?AVDName@@ABV2@@Z 1003e9f0 f i libvcruntimed:undname.obj
 0001:0003da10       ?getVdispMapType@UnDecorator@@CA?AVDName@@ABV2@@Z 1003ea10 f i libvcruntimed:undname.obj
 0001:0003daa0       ?getVfTableType@UnDecorator@@CA?AVDName@@ABV2@@Z 1003eaa0 f i libvcruntimed:undname.obj
 0001:0003dca0       ?getZName@UnDecorator@@CA?AVDName@@_N0@Z 1003eca0 f   libvcruntimed:undname.obj
 0001:0003dfd0       ?haveTemplateParameters@UnDecorator@@SAHXZ 1003efd0 f i libvcruntimed:undname.obj
 0001:0003dfe0       ?isArray@DName@@QBEHXZ     1003efe0 f i libvcruntimed:undname.obj
 0001:0003e000       ?isComArray@DName@@QBEHXZ  1003f000 f i libvcruntimed:undname.obj
 0001:0003e020       ?isEmpty@DName@@QBEHXZ     1003f020 f i libvcruntimed:undname.obj
 0001:0003e050       ?isFull@Replicator@@QBEHXZ 1003f050 f i libvcruntimed:undname.obj
 0001:0003e080       ?isNoTE@DName@@QBEHXZ      1003f080 f i libvcruntimed:undname.obj
 0001:0003e0a0       ?isPinPtr@DName@@QBEHXZ    1003f0a0 f i libvcruntimed:undname.obj
 0001:0003e0c0       ?isPtrRef@DName@@QBEHXZ    1003f0c0 f i libvcruntimed:undname.obj
 0001:0003e0e0       ?isUDC@DName@@QBEHXZ       1003f0e0 f i libvcruntimed:undname.obj
 0001:0003e120       ?isUDTThunk@DName@@QBEHXZ  1003f120 f i libvcruntimed:undname.obj
 0001:0003e160       ?isVCallThunk@DName@@QBEHXZ 1003f160 f i libvcruntimed:undname.obj
 0001:0003e180       ?isValid@DName@@QBEHXZ     1003f180 f i libvcruntimed:undname.obj
 0001:0003e1c0       ?length@DName@@QBEHXZ      1003f1c0 f i libvcruntimed:undname.obj
 0001:0003e200       ?length@DNameStatusNode@@UBEHXZ 1003f200 f i libvcruntimed:undname.obj
 0001:0003e220       ?length@charNode@@UBEHXZ   1003f220 f i libvcruntimed:undname.obj
 0001:0003e230       ?length@pDNameNode@@UBEHXZ 1003f230 f i libvcruntimed:undname.obj
 0001:0003e260       ?length@pairNode@@UBEHXZ   1003f260 f i libvcruntimed:undname.obj
 0001:0003e2d0       ?length@pcharNode@@UBEHXZ  1003f2d0 f i libvcruntimed:undname.obj
 0001:0003e2f0       ?make@DNameStatusNode@@SAPBV1@W4DNameStatus@@@Z 1003f2f0 f i libvcruntimed:undname.obj
 0001:0003e320       ?parseDecoratedName@UnDecorator@@CA?AVDName@@XZ 1003f320 f   libvcruntimed:undname.obj
 0001:0003e4b0       ?raw_length@DNameStatusNode@@UBEHXZ 1003f4b0 f i libvcruntimed:undname.obj
 0001:0003e4d0       ?raw_length@charNode@@UBEHXZ 1003f4d0 f i libvcruntimed:undname.obj
 0001:0003e4f0       ?raw_length@pDNameNode@@UBEHXZ 1003f4f0 f i libvcruntimed:undname.obj
 0001:0003e500       ?raw_length@pairNode@@UBEHXZ 1003f500 f i libvcruntimed:undname.obj
 0001:0003e520       ?raw_length@pcharNode@@UBEHXZ 1003f520 f i libvcruntimed:undname.obj
 0001:0003e540       ?setIsArray@DName@@QAEXXZ  1003f540 f i libvcruntimed:undname.obj
 0001:0003e560       ?setIsComArray@DName@@QAEXXZ 1003f560 f i libvcruntimed:undname.obj
 0001:0003e580       ?setIsNoTE@DName@@QAEXXZ   1003f580 f i libvcruntimed:undname.obj
 0001:0003e5a0       ?setIsPinPtr@DName@@QAEXXZ 1003f5a0 f i libvcruntimed:undname.obj
 0001:0003e5c0       ?setIsUDC@DName@@QAEXXZ    1003f5c0 f i libvcruntimed:undname.obj
 0001:0003e5f0       ?setIsVCallThunk@DName@@QAEXXZ 1003f5f0 f i libvcruntimed:undname.obj
 0001:0003e610       ?setPtrRef@DName@@QAEAAV1@XZ 1003f610 f i libvcruntimed:undname.obj
 0001:0003e630       ?status@DName@@QBE?AW4DNameStatus@@XZ 1003f630 f i libvcruntimed:undname.obj
 0001:0003e730       ___unDName                 1003f730 f   libvcruntimed:undname.obj
 0001:0003e760       ___unDNameEx               1003f760 f   libvcruntimed:undname.obj
 0001:0003e830       _unDNameGenerateCHPE       1003f830 f   libvcruntimed:undname.obj
 0001:0003e890       __global_unwind2           1003f890 f   libvcruntimed:exsup.obj
 0001:0003e910       __local_unwind2            1003f910 f   libvcruntimed:exsup.obj
 0001:0003e9b0       __abnormal_termination     1003f9b0 f   libvcruntimed:exsup.obj
 0001:0003e9e0       __NLG_Notify1              1003f9e0 f   libvcruntimed:exsup.obj
 0001:0003e9f0       __NLG_Notify               1003f9f0 f   libvcruntimed:exsup.obj
 0001:0003ea07       __NLG_Dispatch2            1003fa07     libvcruntimed:exsup.obj
 0001:0003ea07       __NLG_Dispatch             1003fa07     libvcruntimed:exsup.obj
 0001:0003ea10       __NLG_Call                 1003fa10 f   libvcruntimed:exsup.obj
 0001:0003ea12       __NLG_Return2              1003fa12     libvcruntimed:exsup.obj
 0001:0003ea20       ??$__crt_interlocked_exchange_pointer@UHINSTANCE__@@PAU1@@@YAPAUHINSTANCE__@@PDSAU0@QAU0@@Z 1003fa20 f i libvcruntimed:winapi_downlevel.obj
 0001:0003ea30       ??$__crt_interlocked_exchange_pointer@UHINSTANCE__@@PAX@@YAPAUHINSTANCE__@@PDSAU0@QAX@Z 1003fa30 f i libvcruntimed:winapi_downlevel.obj
 0001:0003ea40       ??$__crt_interlocked_exchange_pointer@XPAX@@YAPAXPDSAXQAX@Z 1003fa40 f i libvcruntimed:winapi_downlevel.obj
 0001:0003ea50       ??$__crt_interlocked_read_pointer@UHINSTANCE__@@@@YAPAUHINSTANCE__@@PDSAU0@@Z 1003fa50 f i libvcruntimed:winapi_downlevel.obj
 0001:0003ea70       ??$__crt_interlocked_read_pointer@X@@YAPAXPDSAX@Z 1003fa70 f i libvcruntimed:winapi_downlevel.obj
 0001:0003ee40       ___vcrt_FlsAlloc           1003fe40 f   libvcruntimed:winapi_downlevel.obj
 0001:0003ee80       ___vcrt_FlsFree            1003fe80 f   libvcruntimed:winapi_downlevel.obj
 0001:0003eec0       ___vcrt_FlsGetValue        1003fec0 f   libvcruntimed:winapi_downlevel.obj
 0001:0003ef00       ___vcrt_FlsSetValue        1003ff00 f   libvcruntimed:winapi_downlevel.obj
 0001:0003ef50       ___vcrt_InitializeCriticalSectionEx 1003ff50 f   libvcruntimed:winapi_downlevel.obj
 0001:0003efd0       __get_unexpected           1003ffd0 f   libvcruntimed:unexpected.obj
 0001:0003eff0       _set_unexpected            1003fff0 f   libvcruntimed:unexpected.obj
 0001:0003f020       _unexpected                10040020 f   libvcruntimed:unexpected.obj
 0001:0003f060       ?GetCurrentState@__FrameHandler3@@SAHPAUEHRegistrationNode@@PAXPBU_s_FuncInfo@@@Z 10040060 f   libvcruntimed:ehstate.obj
 0001:0003f090       ?SetState@__FrameHandler3@@SAXPAUEHRegistrationNode@@PBU_s_FuncInfo@@H@Z 10040090 f   libvcruntimed:ehstate.obj
 0001:0003f0a0       ??$?0ABV?$stream_output_adapter@D@__crt_stdio_output@@AB_KABQBDAAV__crt_cached_ptd_host@@ABQAD@?$format_validation_base@DV?$stream_output_adapter@D@__crt_stdio_output@@@__crt_stdio_output@@IAE@ABV?$stream_output_adapter@D@1@AB_KABQBDAAV__crt_cached_ptd_host@@ABQAD@Z 100400a0 f i libucrtd:output.obj
 0001:0003f0d0       ??$?0ABV?$stream_output_adapter@D@__crt_stdio_output@@AB_KABQBDAAV__crt_cached_ptd_host@@ABQAD@?$positional_parameter_base@DV?$stream_output_adapter@D@__crt_stdio_output@@@__crt_stdio_output@@IAE@ABV?$stream_output_adapter@D@1@AB_KABQBDAAV__crt_cached_ptd_host@@ABQAD@Z 100400d0 f i libucrtd:output.obj
 0001:0003f150       ??$?0ABV?$stream_output_adapter@D@__crt_stdio_output@@AB_KABQBDAAV__crt_cached_ptd_host@@ABQAD@?$standard_base@DV?$stream_output_adapter@D@__crt_stdio_output@@@__crt_stdio_output@@IAE@ABV?$stream_output_adapter@D@1@AB_KABQBDAAV__crt_cached_ptd_host@@ABQAD@Z 10040150 f i libucrtd:output.obj
 0001:0003f1a0       ??$?0ABV?$stream_output_adapter@_W@__crt_stdio_output@@AB_KABQB_WAAV__crt_cached_ptd_host@@ABQAD@?$format_validation_base@_WV?$stream_output_adapter@_W@__crt_stdio_output@@@__crt_stdio_output@@IAE@ABV?$stream_output_adapter@_W@1@AB_KABQB_WAAV__crt_cached_ptd_host@@ABQAD@Z 100401a0 f i libucrtd:output.obj
 0001:0003f1d0       ??$?0ABV?$stream_output_adapter@_W@__crt_stdio_output@@AB_KABQB_WAAV__crt_cached_ptd_host@@ABQAD@?$positional_parameter_base@_WV?$stream_output_adapter@_W@__crt_stdio_output@@@__crt_stdio_output@@IAE@ABV?$stream_output_adapter@_W@1@AB_KABQB_WAAV__crt_cached_ptd_host@@ABQAD@Z 100401d0 f i libucrtd:output.obj
 0001:0003f250       ??$?0ABV?$stream_output_adapter@_W@__crt_stdio_output@@AB_KABQB_WAAV__crt_cached_ptd_host@@ABQAD@?$standard_base@_WV?$stream_output_adapter@_W@__crt_stdio_output@@@__crt_stdio_output@@IAE@ABV?$stream_output_adapter@_W@1@AB_KABQB_WAAV__crt_cached_ptd_host@@ABQAD@Z 10040250 f i libucrtd:output.obj
 0001:0003f2a0       ??$?0ABV?$string_output_adapter@D@__crt_stdio_output@@AB_KABQBDAAV__crt_cached_ptd_host@@ABQAD@?$format_validation_base@DV?$string_output_adapter@D@__crt_stdio_output@@@__crt_stdio_output@@IAE@ABV?$string_output_adapter@D@1@AB_KABQBDAAV__crt_cached_ptd_host@@ABQAD@Z 100402a0 f i libucrtd:output.obj
 0001:0003f2d0       ??$?0ABV?$string_output_adapter@D@__crt_stdio_output@@AB_KABQBDAAV__crt_cached_ptd_host@@ABQAD@?$positional_parameter_base@DV?$string_output_adapter@D@__crt_stdio_output@@@__crt_stdio_output@@IAE@ABV?$string_output_adapter@D@1@AB_KABQBDAAV__crt_cached_ptd_host@@ABQAD@Z 100402d0 f i libucrtd:output.obj
 0001:0003f350       ??$?0ABV?$string_output_adapter@D@__crt_stdio_output@@AB_KABQBDAAV__crt_cached_ptd_host@@ABQAD@?$standard_base@DV?$string_output_adapter@D@__crt_stdio_output@@@__crt_stdio_output@@IAE@ABV?$string_output_adapter@D@1@AB_KABQBDAAV__crt_cached_ptd_host@@ABQAD@Z 10040350 f i libucrtd:output.obj
 0001:0003f3a0       ??$?0ABV?$string_output_adapter@_W@__crt_stdio_output@@AB_KABQB_WAAV__crt_cached_ptd_host@@ABQAD@?$format_validation_base@_WV?$string_output_adapter@_W@__crt_stdio_output@@@__crt_stdio_output@@IAE@ABV?$string_output_adapter@_W@1@AB_KABQB_WAAV__crt_cached_ptd_host@@ABQAD@Z 100403a0 f i libucrtd:output.obj
 0001:0003f3d0       ??$?0ABV?$string_output_adapter@_W@__crt_stdio_output@@AB_KABQB_WAAV__crt_cached_ptd_host@@ABQAD@?$positional_parameter_base@_WV?$string_output_adapter@_W@__crt_stdio_output@@@__crt_stdio_output@@IAE@ABV?$string_output_adapter@_W@1@AB_KABQB_WAAV__crt_cached_ptd_host@@ABQAD@Z 100403d0 f i libucrtd:output.obj
 0001:0003f450       ??$?0ABV?$string_output_adapter@_W@__crt_stdio_output@@AB_KABQB_WAAV__crt_cached_ptd_host@@ABQAD@?$standard_base@_WV?$string_output_adapter@_W@__crt_stdio_output@@@__crt_stdio_output@@IAE@ABV?$string_output_adapter@_W@1@AB_KABQB_WAAV__crt_cached_ptd_host@@ABQAD@Z 10040450 f i libucrtd:output.obj
 0001:0003faa0       ??$__crt_interlocked_read@J@@YAJPDJ@Z 10040aa0 f i libucrtd:output.obj
 0001:0003fac0       ??$_tcstol_internal@DPAPAD$0A@@@YAJAAV__crt_cached_ptd_host@@QBDQAPADH@Z 10040ac0 f i libucrtd:output.obj
 0001:0003fb00       ??$_tcstol_internal@_WPAPA_W$0A@@@YAJAAV__crt_cached_ptd_host@@QB_WQAPA_WH@Z 10040b00 f i libucrtd:output.obj
 0001:00042aa0       ??$count@D@formatting_buffer@__crt_stdio_output@@QBEIXZ 10043aa0 f i libucrtd:output.obj
 0001:00042ae0       ??$count@_W@formatting_buffer@__crt_stdio_output@@QBEIXZ 10043ae0 f i libucrtd:output.obj
 0001:00042b20       ??$data@D@formatting_buffer@__crt_stdio_output@@QAEPADXZ 10043b20 f i libucrtd:output.obj
 0001:00042b60       ??$data@_W@formatting_buffer@__crt_stdio_output@@QAEPA_WXZ 10043b60 f i libucrtd:output.obj
 0001:00042ba0       ??$ensure_buffer_is_big_enough@D@formatting_buffer@__crt_stdio_output@@QAE_NIAAV__crt_cached_ptd_host@@@Z 10043ba0 f i libucrtd:output.obj
 0001:00042c90       ??$ensure_buffer_is_big_enough@_W@formatting_buffer@__crt_stdio_output@@QAE_NIAAV__crt_cached_ptd_host@@@Z 10043c90 f i libucrtd:output.obj
 0001:00042d80       ??$extract_argument_from_va_list@C_J@?$positional_parameter_base@DV?$stream_output_adapter@D@__crt_stdio_output@@@__crt_stdio_output@@IAE_NAA_J@Z 10043d80 f i libucrtd:output.obj
 0001:00042ee0       ??$extract_argument_from_va_list@C_J@?$positional_parameter_base@DV?$string_output_adapter@D@__crt_stdio_output@@@__crt_stdio_output@@IAE_NAA_J@Z 10043ee0 f i libucrtd:output.obj
 0001:00043040       ??$extract_argument_from_va_list@C_J@?$positional_parameter_base@_WV?$stream_output_adapter@_W@__crt_stdio_output@@@__crt_stdio_output@@IAE_NAA_J@Z 10044040 f i libucrtd:output.obj
 0001:000431b0       ??$extract_argument_from_va_list@C_J@?$positional_parameter_base@_WV?$string_output_adapter@_W@__crt_stdio_output@@@__crt_stdio_output@@IAE_NAA_J@Z 100441b0 f i libucrtd:output.obj
 0001:00043320       ??$extract_argument_from_va_list@C_J@?$standard_base@DV?$stream_output_adapter@D@__crt_stdio_output@@@__crt_stdio_output@@IAE_NAA_J@Z 10044320 f i libucrtd:output.obj
 0001:00043350       ??$extract_argument_from_va_list@C_J@?$standard_base@DV?$string_output_adapter@D@__crt_stdio_output@@@__crt_stdio_output@@IAE_NAA_J@Z 10044350 f i libucrtd:output.obj
 0001:00043380       ??$extract_argument_from_va_list@C_J@?$standard_base@_WV?$stream_output_adapter@_W@__crt_stdio_output@@@__crt_stdio_output@@IAE_NAA_J@Z 10044380 f i libucrtd:output.obj
 0001:000433b0       ??$extract_argument_from_va_list@C_J@?$standard_base@_WV?$string_output_adapter@_W@__crt_stdio_output@@@__crt_stdio_output@@IAE_NAA_J@Z 100443b0 f i libucrtd:output.obj
 0001:000433e0       ??$extract_argument_from_va_list@E_J@?$positional_parameter_base@DV?$stream_output_adapter@D@__crt_stdio_output@@@__crt_stdio_output@@IAE_NAA_J@Z 100443e0 f i libucrtd:output.obj
 0001:00043540       ??$extract_argument_from_va_list@E_J@?$positional_parameter_base@DV?$string_output_adapter@D@__crt_stdio_output@@@__crt_stdio_output@@IAE_NAA_J@Z 10044540 f i libucrtd:output.obj
 0001:000436a0       ??$extract_argument_from_va_list@E_J@?$positional_parameter_base@_WV?$stream_output_adapter@_W@__crt_stdio_output@@@__crt_stdio_output@@IAE_NAA_J@Z 100446a0 f i libucrtd:output.obj
 0001:00043810       ??$extract_argument_from_va_list@E_J@?$positional_parameter_base@_WV?$string_output_adapter@_W@__crt_stdio_output@@@__crt_stdio_output@@IAE_NAA_J@Z 10044810 f i libucrtd:output.obj
 0001:00043980       ??$extract_argument_from_va_list@E_J@?$standard_base@DV?$stream_output_adapter@D@__crt_stdio_output@@@__crt_stdio_output@@IAE_NAA_J@Z 10044980 f i libucrtd:output.obj
 0001:000439b0       ??$extract_argument_from_va_list@E_J@?$standard_base@DV?$string_output_adapter@D@__crt_stdio_output@@@__crt_stdio_output@@IAE_NAA_J@Z 100449b0 f i libucrtd:output.obj
 0001:000439e0       ??$extract_argument_from_va_list@E_J@?$standard_base@_WV?$stream_output_adapter@_W@__crt_stdio_output@@@__crt_stdio_output@@IAE_NAA_J@Z 100449e0 f i libucrtd:output.obj
 0001:00043a10       ??$extract_argument_from_va_list@E_J@?$standard_base@_WV?$string_output_adapter@_W@__crt_stdio_output@@@__crt_stdio_output@@IAE_NAA_J@Z 10044a10 f i libucrtd:output.obj
 0001:00043a40       ??$extract_argument_from_va_list@F_J@?$positional_parameter_base@DV?$stream_output_adapter@D@__crt_stdio_output@@@__crt_stdio_output@@IAE_NAA_J@Z 10044a40 f i libucrtd:output.obj
 0001:00043ba0       ??$extract_argument_from_va_list@F_J@?$positional_parameter_base@DV?$string_output_adapter@D@__crt_stdio_output@@@__crt_stdio_output@@IAE_NAA_J@Z 10044ba0 f i libucrtd:output.obj
 0001:00043d00       ??$extract_argument_from_va_list@F_J@?$positional_parameter_base@_WV?$stream_output_adapter@_W@__crt_stdio_output@@@__crt_stdio_output@@IAE_NAA_J@Z 10044d00 f i libucrtd:output.obj
 0001:00043e60       ??$extract_argument_from_va_list@F_J@?$positional_parameter_base@_WV?$string_output_adapter@_W@__crt_stdio_output@@@__crt_stdio_output@@IAE_NAA_J@Z 10044e60 f i libucrtd:output.obj
 0001:00043fc0       ??$extract_argument_from_va_list@F_J@?$standard_base@DV?$stream_output_adapter@D@__crt_stdio_output@@@__crt_stdio_output@@IAE_NAA_J@Z 10044fc0 f i libucrtd:output.obj
 0001:00043ff0       ??$extract_argument_from_va_list@F_J@?$standard_base@DV?$string_output_adapter@D@__crt_stdio_output@@@__crt_stdio_output@@IAE_NAA_J@Z 10044ff0 f i libucrtd:output.obj
 0001:00044020       ??$extract_argument_from_va_list@F_J@?$standard_base@_WV?$stream_output_adapter@_W@__crt_stdio_output@@@__crt_stdio_output@@IAE_NAA_J@Z 10045020 f i libucrtd:output.obj
 0001:00044050       ??$extract_argument_from_va_list@F_J@?$standard_base@_WV?$string_output_adapter@_W@__crt_stdio_output@@@__crt_stdio_output@@IAE_NAA_J@Z 10045050 f i libucrtd:output.obj
 0001:00044080       ??$extract_argument_from_va_list@GD@?$positional_parameter_base@DV?$stream_output_adapter@D@__crt_stdio_output@@@__crt_stdio_output@@IAE_NAAD@Z 10045080 f i libucrtd:output.obj
 0001:000441e0       ??$extract_argument_from_va_list@GD@?$positional_parameter_base@DV?$string_output_adapter@D@__crt_stdio_output@@@__crt_stdio_output@@IAE_NAAD@Z 100451e0 f i libucrtd:output.obj
 0001:00044340       ??$extract_argument_from_va_list@GD@?$standard_base@DV?$stream_output_adapter@D@__crt_stdio_output@@@__crt_stdio_output@@IAE_NAAD@Z 10045340 f i libucrtd:output.obj
 0001:00044370       ??$extract_argument_from_va_list@GD@?$standard_base@DV?$string_output_adapter@D@__crt_stdio_output@@@__crt_stdio_output@@IAE_NAAD@Z 10045370 f i libucrtd:output.obj
 0001:000443a0       ??$extract_argument_from_va_list@G_J@?$positional_parameter_base@DV?$stream_output_adapter@D@__crt_stdio_output@@@__crt_stdio_output@@IAE_NAA_J@Z 100453a0 f i libucrtd:output.obj
 0001:00044500       ??$extract_argument_from_va_list@G_J@?$positional_parameter_base@DV?$string_output_adapter@D@__crt_stdio_output@@@__crt_stdio_output@@IAE_NAA_J@Z 10045500 f i libucrtd:output.obj
 0001:00044660       ??$extract_argument_from_va_list@G_J@?$positional_parameter_base@_WV?$stream_output_adapter@_W@__crt_stdio_output@@@__crt_stdio_output@@IAE_NAA_J@Z 10045660 f i libucrtd:output.obj
 0001:000447d0       ??$extract_argument_from_va_list@G_J@?$positional_parameter_base@_WV?$string_output_adapter@_W@__crt_stdio_output@@@__crt_stdio_output@@IAE_NAA_J@Z 100457d0 f i libucrtd:output.obj
 0001:00044940       ??$extract_argument_from_va_list@G_J@?$standard_base@DV?$stream_output_adapter@D@__crt_stdio_output@@@__crt_stdio_output@@IAE_NAA_J@Z 10045940 f i libucrtd:output.obj
 0001:00044970       ??$extract_argument_from_va_list@G_J@?$standard_base@DV?$string_output_adapter@D@__crt_stdio_output@@@__crt_stdio_output@@IAE_NAA_J@Z 10045970 f i libucrtd:output.obj
 0001:000449a0       ??$extract_argument_from_va_list@G_J@?$standard_base@_WV?$stream_output_adapter@_W@__crt_stdio_output@@@__crt_stdio_output@@IAE_NAA_J@Z 100459a0 f i libucrtd:output.obj
 0001:000449d0       ??$extract_argument_from_va_list@G_J@?$standard_base@_WV?$string_output_adapter@_W@__crt_stdio_output@@@__crt_stdio_output@@IAE_NAA_J@Z 100459d0 f i libucrtd:output.obj
 0001:00044a00       ??$extract_argument_from_va_list@H_J@?$positional_parameter_base@DV?$stream_output_adapter@D@__crt_stdio_output@@@__crt_stdio_output@@IAE_NAA_J@Z 10045a00 f i libucrtd:output.obj
 0001:00044b60       ??$extract_argument_from_va_list@H_J@?$positional_parameter_base@DV?$string_output_adapter@D@__crt_stdio_output@@@__crt_stdio_output@@IAE_NAA_J@Z 10045b60 f i libucrtd:output.obj
 0001:00044cc0       ??$extract_argument_from_va_list@H_J@?$positional_parameter_base@_WV?$stream_output_adapter@_W@__crt_stdio_output@@@__crt_stdio_output@@IAE_NAA_J@Z 10045cc0 f i libucrtd:output.obj
 0001:00044e20       ??$extract_argument_from_va_list@H_J@?$positional_parameter_base@_WV?$string_output_adapter@_W@__crt_stdio_output@@@__crt_stdio_output@@IAE_NAA_J@Z 10045e20 f i libucrtd:output.obj
 0001:00044f80       ??$extract_argument_from_va_list@H_J@?$standard_base@DV?$stream_output_adapter@D@__crt_stdio_output@@@__crt_stdio_output@@IAE_NAA_J@Z 10045f80 f i libucrtd:output.obj
 0001:00044fb0       ??$extract_argument_from_va_list@H_J@?$standard_base@DV?$string_output_adapter@D@__crt_stdio_output@@@__crt_stdio_output@@IAE_NAA_J@Z 10045fb0 f i libucrtd:output.obj
 0001:00044fe0       ??$extract_argument_from_va_list@H_J@?$standard_base@_WV?$stream_output_adapter@_W@__crt_stdio_output@@@__crt_stdio_output@@IAE_NAA_J@Z 10045fe0 f i libucrtd:output.obj
 0001:00045010       ??$extract_argument_from_va_list@H_J@?$standard_base@_WV?$string_output_adapter@_W@__crt_stdio_output@@@__crt_stdio_output@@IAE_NAA_J@Z 10046010 f i libucrtd:output.obj
 0001:00045040       ??$extract_argument_from_va_list@I_J@?$positional_parameter_base@DV?$stream_output_adapter@D@__crt_stdio_output@@@__crt_stdio_output@@IAE_NAA_J@Z 10046040 f i libucrtd:output.obj
 0001:000451a0       ??$extract_argument_from_va_list@I_J@?$positional_parameter_base@DV?$string_output_adapter@D@__crt_stdio_output@@@__crt_stdio_output@@IAE_NAA_J@Z 100461a0 f i libucrtd:output.obj
 0001:00045300       ??$extract_argument_from_va_list@I_J@?$positional_parameter_base@_WV?$stream_output_adapter@_W@__crt_stdio_output@@@__crt_stdio_output@@IAE_NAA_J@Z 10046300 f i libucrtd:output.obj
 0001:00045460       ??$extract_argument_from_va_list@I_J@?$positional_parameter_base@_WV?$string_output_adapter@_W@__crt_stdio_output@@@__crt_stdio_output@@IAE_NAA_J@Z 10046460 f i libucrtd:output.obj
 0001:000455c0       ??$extract_argument_from_va_list@I_J@?$standard_base@DV?$stream_output_adapter@D@__crt_stdio_output@@@__crt_stdio_output@@IAE_NAA_J@Z 100465c0 f i libucrtd:output.obj
 0001:000455f0       ??$extract_argument_from_va_list@I_J@?$standard_base@DV?$string_output_adapter@D@__crt_stdio_output@@@__crt_stdio_output@@IAE_NAA_J@Z 100465f0 f i libucrtd:output.obj
 0001:00045620       ??$extract_argument_from_va_list@I_J@?$standard_base@_WV?$stream_output_adapter@_W@__crt_stdio_output@@@__crt_stdio_output@@IAE_NAA_J@Z 10046620 f i libucrtd:output.obj
 0001:00045650       ??$extract_argument_from_va_list@I_J@?$standard_base@_WV?$string_output_adapter@_W@__crt_stdio_output@@@__crt_stdio_output@@IAE_NAA_J@Z 10046650 f i libucrtd:output.obj
 0001:00045680       ??$extract_argument_from_va_list@PADPAD@?$positional_parameter_base@DV?$stream_output_adapter@D@__crt_stdio_output@@@__crt_stdio_output@@IAE_NAAPAD@Z 10046680 f i libucrtd:output.obj
 0001:000457e0       ??$extract_argument_from_va_list@PADPAD@?$positional_parameter_base@DV?$string_output_adapter@D@__crt_stdio_output@@@__crt_stdio_output@@IAE_NAAPAD@Z 100467e0 f i libucrtd:output.obj
 0001:00045940       ??$extract_argument_from_va_list@PADPAD@?$positional_parameter_base@_WV?$stream_output_adapter@_W@__crt_stdio_output@@@__crt_stdio_output@@IAE_NAAPAD@Z 10046940 f i libucrtd:output.obj
 0001:00045aa0       ??$extract_argument_from_va_list@PADPAD@?$positional_parameter_base@_WV?$string_output_adapter@_W@__crt_stdio_output@@@__crt_stdio_output@@IAE_NAAPAD@Z 10046aa0 f i libucrtd:output.obj
 0001:00045c00       ??$extract_argument_from_va_list@PADPAD@?$standard_base@DV?$stream_output_adapter@D@__crt_stdio_output@@@__crt_stdio_output@@IAE_NAAPAD@Z 10046c00 f i libucrtd:output.obj
 0001:00045c30       ??$extract_argument_from_va_list@PADPAD@?$standard_base@DV?$string_output_adapter@D@__crt_stdio_output@@@__crt_stdio_output@@IAE_NAAPAD@Z 10046c30 f i libucrtd:output.obj
 0001:00045c60       ??$extract_argument_from_va_list@PADPAD@?$standard_base@_WV?$stream_output_adapter@_W@__crt_stdio_output@@@__crt_stdio_output@@IAE_NAAPAD@Z 10046c60 f i libucrtd:output.obj
 0001:00045c90       ??$extract_argument_from_va_list@PADPAD@?$standard_base@_WV?$string_output_adapter@_W@__crt_stdio_output@@@__crt_stdio_output@@IAE_NAAPAD@Z 10046c90 f i libucrtd:output.obj
 0001:00045cc0       ??$extract_argument_from_va_list@PAUansi_string@?1??type_case_Z@?$output_processor@DV?$stream_output_adapter@D@__crt_stdio_output@@V?$format_validation_base@DV?$stream_output_adapter@D@__crt_stdio_output@@@2@@__crt_stdio_output@@AAE_NXZ@PAU1?1??234@AAE_NXZ@@?$standard_base@DV?$stream_output_adapter@D@__crt_stdio_output@@@__crt_stdio_output@@IAE_NAAPAUansi_string@?1??type_case_Z@?$output_processor@DV?$stream_output_adapter@D@__crt_stdio_output@@V?$format_validation_base@DV?$stream_output_adapter@D@__crt_stdio_output@@@2@@1@AAE_NXZ@@Z 10046cc0 f i libucrtd:output.obj
 0001:00045cf0       ??$extract_argument_from_va_list@PAUansi_string@?1??type_case_Z@?$output_processor@DV?$stream_output_adapter@D@__crt_stdio_output@@V?$positional_parameter_base@DV?$stream_output_adapter@D@__crt_stdio_output@@@2@@__crt_stdio_output@@AAE_NXZ@PAU1?1??234@AAE_NXZ@@?$positional_parameter_base@DV?$stream_output_adapter@D@__crt_stdio_output@@@__crt_stdio_output@@IAE_NAAPAUansi_string@?1??type_case_Z@?$output_processor@DV?$stream_output_adapter@D@__crt_stdio_output@@V?$positional_parameter_base@DV?$stream_output_adapter@D@__crt_stdio_output@@@2@@1@AAE_NXZ@@Z 10046cf0 f i libucrtd:output.obj
 0001:00045e50       ??$extract_argument_from_va_list@PAUansi_string@?1??type_case_Z@?$output_processor@DV?$stream_output_adapter@D@__crt_stdio_output@@V?$positional_parameter_base@DV?$stream_output_adapter@D@__crt_stdio_output@@@2@@__crt_stdio_output@@AAE_NXZ@PAU1?1??234@AAE_NXZ@@?$standard_base@DV?$stream_output_adapter@D@__crt_stdio_output@@@__crt_stdio_output@@IAE_NAAPAUansi_string@?1??type_case_Z@?$output_processor@DV?$stream_output_adapter@D@__crt_stdio_output@@V?$positional_parameter_base@DV?$stream_output_adapter@D@__crt_stdio_output@@@2@@1@AAE_NXZ@@Z 10046e50 f i libucrtd:output.obj
 0001:00045e80       ??$extract_argument_from_va_list@PAUansi_string@?1??type_case_Z@?$output_processor@DV?$stream_output_adapter@D@__crt_stdio_output@@V?$standard_base@DV?$stream_output_adapter@D@__crt_stdio_output@@@2@@__crt_stdio_output@@AAE_NXZ@PAU1?1??234@AAE_NXZ@@?$standard_base@DV?$stream_output_adapter@D@__crt_stdio_output@@@__crt_stdio_output@@IAE_NAAPAUansi_string@?1??type_case_Z@?$output_processor@DV?$stream_output_adapter@D@__crt_stdio_output@@V?$standard_base@DV?$stream_output_adapter@D@__crt_stdio_output@@@2@@1@AAE_NXZ@@Z 10046e80 f i libucrtd:output.obj
 0001:00045eb0       ??$extract_argument_from_va_list@PAUansi_string@?1??type_case_Z@?$output_processor@DV?$string_output_adapter@D@__crt_stdio_output@@V?$format_validation_base@DV?$string_output_adapter@D@__crt_stdio_output@@@2@@__crt_stdio_output@@AAE_NXZ@PAU1?1??234@AAE_NXZ@@?$standard_base@DV?$string_output_adapter@D@__crt_stdio_output@@@__crt_stdio_output@@IAE_NAAPAUansi_string@?1??type_case_Z@?$output_processor@DV?$string_output_adapter@D@__crt_stdio_output@@V?$format_validation_base@DV?$string_output_adapter@D@__crt_stdio_output@@@2@@1@AAE_NXZ@@Z 10046eb0 f i libucrtd:output.obj
 0001:00045ee0       ??$extract_argument_from_va_list@PAUansi_string@?1??type_case_Z@?$output_processor@DV?$string_output_adapter@D@__crt_stdio_output@@V?$positional_parameter_base@DV?$string_output_adapter@D@__crt_stdio_output@@@2@@__crt_stdio_output@@AAE_NXZ@PAU1?1??234@AAE_NXZ@@?$positional_parameter_base@DV?$string_output_adapter@D@__crt_stdio_output@@@__crt_stdio_output@@IAE_NAAPAUansi_string@?1??type_case_Z@?$output_processor@DV?$string_output_adapter@D@__crt_stdio_output@@V?$positional_parameter_base@DV?$string_output_adapter@D@__crt_stdio_output@@@2@@1@AAE_NXZ@@Z 10046ee0 f i libucrtd:output.obj
 0001:00046040       ??$extract_argument_from_va_list@PAUansi_string@?1??type_case_Z@?$output_processor@DV?$string_output_adapter@D@__crt_stdio_output@@V?$positional_parameter_base@DV?$string_output_adapter@D@__crt_stdio_output@@@2@@__crt_stdio_output@@AAE_NXZ@PAU1?1??234@AAE_NXZ@@?$standard_base@DV?$string_output_adapter@D@__crt_stdio_output@@@__crt_stdio_output@@IAE_NAAPAUansi_string@?1??type_case_Z@?$output_processor@DV?$string_output_adapter@D@__crt_stdio_output@@V?$positional_parameter_base@DV?$string_output_adapter@D@__crt_stdio_output@@@2@@1@AAE_NXZ@@Z 10047040 f i libucrtd:output.obj
 0001:00046070       ??$extract_argument_from_va_list@PAUansi_string@?1??type_case_Z@?$output_processor@DV?$string_output_adapter@D@__crt_stdio_output@@V?$standard_base@DV?$string_output_adapter@D@__crt_stdio_output@@@2@@__crt_stdio_output@@AAE_NXZ@PAU1?1??234@AAE_NXZ@@?$standard_base@DV?$string_output_adapter@D@__crt_stdio_output@@@__crt_stdio_output@@IAE_NAAPAUansi_string@?1??type_case_Z@?$output_processor@DV?$string_output_adapter@D@__crt_stdio_output@@V?$standard_base@DV?$string_output_adapter@D@__crt_stdio_output@@@2@@1@AAE_NXZ@@Z 10047070 f i libucrtd:output.obj
 0001:000460a0       ??$extract_argument_from_va_list@PAUansi_string@?1??type_case_Z@?$output_processor@_WV?$stream_output_adapter@_W@__crt_stdio_output@@V?$format_validation_base@_WV?$stream_output_adapter@_W@__crt_stdio_output@@@2@@__crt_stdio_output@@AAE_NXZ@PAU1?1??234@AAE_NXZ@@?$standard_base@_WV?$stream_output_adapter@_W@__crt_stdio_output@@@__crt_stdio_output@@IAE_NAAPAUansi_string@?1??type_case_Z@?$output_processor@_WV?$stream_output_adapter@_W@__crt_stdio_output@@V?$format_validation_base@_WV?$stream_output_adapter@_W@__crt_stdio_output@@@2@@1@AAE_NXZ@@Z 100470a0 f i libucrtd:output.obj
 0001:000460d0       ??$extract_argument_from_va_list@PAUansi_string@?1??type_case_Z@?$output_processor@_WV?$stream_output_adapter@_W@__crt_stdio_output@@V?$positional_parameter_base@_WV?$stream_output_adapter@_W@__crt_stdio_output@@@2@@__crt_stdio_output@@AAE_NXZ@PAU1?1??234@AAE_NXZ@@?$positional_parameter_base@_WV?$stream_output_adapter@_W@__crt_stdio_output@@@__crt_stdio_output@@IAE_NAAPAUansi_string@?1??type_case_Z@?$output_processor@_WV?$stream_output_adapter@_W@__crt_stdio_output@@V?$positional_parameter_base@_WV?$stream_output_adapter@_W@__crt_stdio_output@@@2@@1@AAE_NXZ@@Z 100470d0 f i libucrtd:output.obj
 0001:00046230       ??$extract_argument_from_va_list@PAUansi_string@?1??type_case_Z@?$output_processor@_WV?$stream_output_adapter@_W@__crt_stdio_output@@V?$positional_parameter_base@_WV?$stream_output_adapter@_W@__crt_stdio_output@@@2@@__crt_stdio_output@@AAE_NXZ@PAU1?1??234@AAE_NXZ@@?$standard_base@_WV?$stream_output_adapter@_W@__crt_stdio_output@@@__crt_stdio_output@@IAE_NAAPAUansi_string@?1??type_case_Z@?$output_processor@_WV?$stream_output_adapter@_W@__crt_stdio_output@@V?$positional_parameter_base@_WV?$stream_output_adapter@_W@__crt_stdio_output@@@2@@1@AAE_NXZ@@Z 10047230 f i libucrtd:output.obj
 0001:00046260       ??$extract_argument_from_va_list@PAUansi_string@?1??type_case_Z@?$output_processor@_WV?$stream_output_adapter@_W@__crt_stdio_output@@V?$standard_base@_WV?$stream_output_adapter@_W@__crt_stdio_output@@@2@@__crt_stdio_output@@AAE_NXZ@PAU1?1??234@AAE_NXZ@@?$standard_base@_WV?$stream_output_adapter@_W@__crt_stdio_output@@@__crt_stdio_output@@IAE_NAAPAUansi_string@?1??type_case_Z@?$output_processor@_WV?$stream_output_adapter@_W@__crt_stdio_output@@V?$standard_base@_WV?$stream_output_adapter@_W@__crt_stdio_output@@@2@@1@AAE_NXZ@@Z 10047260 f i libucrtd:output.obj
 0001:00046290       ??$extract_argument_from_va_list@PAUansi_string@?1??type_case_Z@?$output_processor@_WV?$string_output_adapter@_W@__crt_stdio_output@@V?$format_validation_base@_WV?$string_output_adapter@_W@__crt_stdio_output@@@2@@__crt_stdio_output@@AAE_NXZ@PAU1?1??234@AAE_NXZ@@?$standard_base@_WV?$string_output_adapter@_W@__crt_stdio_output@@@__crt_stdio_output@@IAE_NAAPAUansi_string@?1??type_case_Z@?$output_processor@_WV?$string_output_adapter@_W@__crt_stdio_output@@V?$format_validation_base@_WV?$string_output_adapter@_W@__crt_stdio_output@@@2@@1@AAE_NXZ@@Z 10047290 f i libucrtd:output.obj
 0001:000462c0       ??$extract_argument_from_va_list@PAUansi_string@?1??type_case_Z@?$output_processor@_WV?$string_output_adapter@_W@__crt_stdio_output@@V?$positional_parameter_base@_WV?$string_output_adapter@_W@__crt_stdio_output@@@2@@__crt_stdio_output@@AAE_NXZ@PAU1?1??234@AAE_NXZ@@?$positional_parameter_base@_WV?$string_output_adapter@_W@__crt_stdio_output@@@__crt_stdio_output@@IAE_NAAPAUansi_string@?1??type_case_Z@?$output_processor@_WV?$string_output_adapter@_W@__crt_stdio_output@@V?$positional_parameter_base@_WV?$string_output_adapter@_W@__crt_stdio_output@@@2@@1@AAE_NXZ@@Z 100472c0 f i libucrtd:output.obj
 0001:00046420       ??$extract_argument_from_va_list@PAUansi_string@?1??type_case_Z@?$output_processor@_WV?$string_output_adapter@_W@__crt_stdio_output@@V?$positional_parameter_base@_WV?$string_output_adapter@_W@__crt_stdio_output@@@2@@__crt_stdio_output@@AAE_NXZ@PAU1?1??234@AAE_NXZ@@?$standard_base@_WV?$string_output_adapter@_W@__crt_stdio_output@@@__crt_stdio_output@@IAE_NAAPAUansi_string@?1??type_case_Z@?$output_processor@_WV?$string_output_adapter@_W@__crt_stdio_output@@V?$positional_parameter_base@_WV?$string_output_adapter@_W@__crt_stdio_output@@@2@@1@AAE_NXZ@@Z 10047420 f i libucrtd:output.obj
 0001:00046450       ??$extract_argument_from_va_list@PAUansi_string@?1??type_case_Z@?$output_processor@_WV?$string_output_adapter@_W@__crt_stdio_output@@V?$standard_base@_WV?$string_output_adapter@_W@__crt_stdio_output@@@2@@__crt_stdio_output@@AAE_NXZ@PAU1?1??234@AAE_NXZ@@?$standard_base@_WV?$string_output_adapter@_W@__crt_stdio_output@@@__crt_stdio_output@@IAE_NAAPAUansi_string@?1??type_case_Z@?$output_processor@_WV?$string_output_adapter@_W@__crt_stdio_output@@V?$standard_base@_WV?$string_output_adapter@_W@__crt_stdio_output@@@2@@1@AAE_NXZ@@Z 10047450 f i libucrtd:output.obj
 0001:00046480       ??$extract_argument_from_va_list@PAXPAX@?$positional_parameter_base@DV?$stream_output_adapter@D@__crt_stdio_output@@@__crt_stdio_output@@IAE_NAAPAX@Z 10047480 f i libucrtd:output.obj
 0001:000465e0       ??$extract_argument_from_va_list@PAXPAX@?$positional_parameter_base@DV?$string_output_adapter@D@__crt_stdio_output@@@__crt_stdio_output@@IAE_NAAPAX@Z 100475e0 f i libucrtd:output.obj
 0001:00046740       ??$extract_argument_from_va_list@PAXPAX@?$positional_parameter_base@_WV?$stream_output_adapter@_W@__crt_stdio_output@@@__crt_stdio_output@@IAE_NAAPAX@Z 10047740 f i libucrtd:output.obj
 0001:000468a0       ??$extract_argument_from_va_list@PAXPAX@?$positional_parameter_base@_WV?$string_output_adapter@_W@__crt_stdio_output@@@__crt_stdio_output@@IAE_NAAPAX@Z 100478a0 f i libucrtd:output.obj
 0001:00046a00       ??$extract_argument_from_va_list@PAXPAX@?$standard_base@DV?$stream_output_adapter@D@__crt_stdio_output@@@__crt_stdio_output@@IAE_NAAPAX@Z 10047a00 f i libucrtd:output.obj
 0001:00046a30       ??$extract_argument_from_va_list@PAXPAX@?$standard_base@DV?$string_output_adapter@D@__crt_stdio_output@@@__crt_stdio_output@@IAE_NAAPAX@Z 10047a30 f i libucrtd:output.obj
 0001:00046a60       ??$extract_argument_from_va_list@PAXPAX@?$standard_base@_WV?$stream_output_adapter@_W@__crt_stdio_output@@@__crt_stdio_output@@IAE_NAAPAX@Z 10047a60 f i libucrtd:output.obj
 0001:00046a90       ??$extract_argument_from_va_list@PAXPAX@?$standard_base@_WV?$string_output_adapter@_W@__crt_stdio_output@@@__crt_stdio_output@@IAE_NAAPAX@Z 10047a90 f i libucrtd:output.obj
 0001:00046ac0       ??$extract_argument_from_va_list@U_CRT_DOUBLE@@U1@@?$positional_parameter_base@DV?$stream_output_adapter@D@__crt_stdio_output@@@__crt_stdio_output@@IAE_NAAU_CRT_DOUBLE@@@Z 10047ac0 f i libucrtd:output.obj
 0001:00046c50       ??$extract_argument_from_va_list@U_CRT_DOUBLE@@U1@@?$positional_parameter_base@DV?$string_output_adapter@D@__crt_stdio_output@@@__crt_stdio_output@@IAE_NAAU_CRT_DOUBLE@@@Z 10047c50 f i libucrtd:output.obj
 0001:00046de0       ??$extract_argument_from_va_list@U_CRT_DOUBLE@@U1@@?$positional_parameter_base@_WV?$stream_output_adapter@_W@__crt_stdio_output@@@__crt_stdio_output@@IAE_NAAU_CRT_DOUBLE@@@Z 10047de0 f i libucrtd:output.obj
 0001:00046f70       ??$extract_argument_from_va_list@U_CRT_DOUBLE@@U1@@?$positional_parameter_base@_WV?$string_output_adapter@_W@__crt_stdio_output@@@__crt_stdio_output@@IAE_NAAU_CRT_DOUBLE@@@Z 10047f70 f i libucrtd:output.obj
 0001:00047100       ??$extract_argument_from_va_list@U_CRT_DOUBLE@@U1@@?$standard_base@DV?$stream_output_adapter@D@__crt_stdio_output@@@__crt_stdio_output@@IAE_NAAU_CRT_DOUBLE@@@Z 10048100 f i libucrtd:output.obj
 0001:00047150       ??$extract_argument_from_va_list@U_CRT_DOUBLE@@U1@@?$standard_base@DV?$string_output_adapter@D@__crt_stdio_output@@@__crt_stdio_output@@IAE_NAAU_CRT_DOUBLE@@@Z 10048150 f i libucrtd:output.obj
 0001:000471a0       ??$extract_argument_from_va_list@U_CRT_DOUBLE@@U1@@?$standard_base@_WV?$stream_output_adapter@_W@__crt_stdio_output@@@__crt_stdio_output@@IAE_NAAU_CRT_DOUBLE@@@Z 100481a0 f i libucrtd:output.obj
 0001:000471f0       ??$extract_argument_from_va_list@U_CRT_DOUBLE@@U1@@?$standard_base@_WV?$string_output_adapter@_W@__crt_stdio_output@@@__crt_stdio_output@@IAE_NAAU_CRT_DOUBLE@@@Z 100481f0 f i libucrtd:output.obj
 0001:00047240       ??$extract_argument_from_va_list@_J_J@?$positional_parameter_base@DV?$stream_output_adapter@D@__crt_stdio_output@@@__crt_stdio_output@@IAE_NAA_J@Z 10048240 f i libucrtd:output.obj
 0001:000473a0       ??$extract_argument_from_va_list@_J_J@?$positional_parameter_base@DV?$string_output_adapter@D@__crt_stdio_output@@@__crt_stdio_output@@IAE_NAA_J@Z 100483a0 f i libucrtd:output.obj
 0001:00047500       ??$extract_argument_from_va_list@_J_J@?$positional_parameter_base@_WV?$stream_output_adapter@_W@__crt_stdio_output@@@__crt_stdio_output@@IAE_NAA_J@Z 10048500 f i libucrtd:output.obj
 0001:00047660       ??$extract_argument_from_va_list@_J_J@?$positional_parameter_base@_WV?$string_output_adapter@_W@__crt_stdio_output@@@__crt_stdio_output@@IAE_NAA_J@Z 10048660 f i libucrtd:output.obj
 0001:000477c0       ??$extract_argument_from_va_list@_J_J@?$standard_base@DV?$stream_output_adapter@D@__crt_stdio_output@@@__crt_stdio_output@@IAE_NAA_J@Z 100487c0 f i libucrtd:output.obj
 0001:000477f0       ??$extract_argument_from_va_list@_J_J@?$standard_base@DV?$string_output_adapter@D@__crt_stdio_output@@@__crt_stdio_output@@IAE_NAA_J@Z 100487f0 f i libucrtd:output.obj
 0001:00047820       ??$extract_argument_from_va_list@_J_J@?$standard_base@_WV?$stream_output_adapter@_W@__crt_stdio_output@@@__crt_stdio_output@@IAE_NAA_J@Z 10048820 f i libucrtd:output.obj
 0001:00047850       ??$extract_argument_from_va_list@_J_J@?$standard_base@_WV?$string_output_adapter@_W@__crt_stdio_output@@@__crt_stdio_output@@IAE_NAA_J@Z 10048850 f i libucrtd:output.obj
 0001:00047880       ??$extract_argument_from_va_list@_K_J@?$positional_parameter_base@DV?$stream_output_adapter@D@__crt_stdio_output@@@__crt_stdio_output@@IAE_NAA_J@Z 10048880 f i libucrtd:output.obj
 0001:000479e0       ??$extract_argument_from_va_list@_K_J@?$positional_parameter_base@DV?$string_output_adapter@D@__crt_stdio_output@@@__crt_stdio_output@@IAE_NAA_J@Z 100489e0 f i libucrtd:output.obj
 0001:00047b40       ??$extract_argument_from_va_list@_K_J@?$positional_parameter_base@_WV?$stream_output_adapter@_W@__crt_stdio_output@@@__crt_stdio_output@@IAE_NAA_J@Z 10048b40 f i libucrtd:output.obj
 0001:00047ca0       ??$extract_argument_from_va_list@_K_J@?$positional_parameter_base@_WV?$string_output_adapter@_W@__crt_stdio_output@@@__crt_stdio_output@@IAE_NAA_J@Z 10048ca0 f i libucrtd:output.obj
 0001:00047e00       ??$extract_argument_from_va_list@_K_J@?$standard_base@DV?$stream_output_adapter@D@__crt_stdio_output@@@__crt_stdio_output@@IAE_NAA_J@Z 10048e00 f i libucrtd:output.obj
 0001:00047e30       ??$extract_argument_from_va_list@_K_J@?$standard_base@DV?$string_output_adapter@D@__crt_stdio_output@@@__crt_stdio_output@@IAE_NAA_J@Z 10048e30 f i libucrtd:output.obj
 0001:00047e60       ??$extract_argument_from_va_list@_K_J@?$standard_base@_WV?$stream_output_adapter@_W@__crt_stdio_output@@@__crt_stdio_output@@IAE_NAA_J@Z 10048e60 f i libucrtd:output.obj
 0001:00047e90       ??$extract_argument_from_va_list@_K_J@?$standard_base@_WV?$string_output_adapter@_W@__crt_stdio_output@@@__crt_stdio_output@@IAE_NAA_J@Z 10048e90 f i libucrtd:output.obj
 0001:00047ec0       ??$extract_argument_from_va_list@_W_W@?$positional_parameter_base@DV?$stream_output_adapter@D@__crt_stdio_output@@@__crt_stdio_output@@IAE_NAA_W@Z 10048ec0 f i libucrtd:output.obj
 0001:00048020       ??$extract_argument_from_va_list@_W_W@?$positional_parameter_base@DV?$string_output_adapter@D@__crt_stdio_output@@@__crt_stdio_output@@IAE_NAA_W@Z 10049020 f i libucrtd:output.obj
 0001:00048180       ??$extract_argument_from_va_list@_W_W@?$positional_parameter_base@_WV?$stream_output_adapter@_W@__crt_stdio_output@@@__crt_stdio_output@@IAE_NAA_W@Z 10049180 f i libucrtd:output.obj
 0001:000482e0       ??$extract_argument_from_va_list@_W_W@?$positional_parameter_base@_WV?$string_output_adapter@_W@__crt_stdio_output@@@__crt_stdio_output@@IAE_NAA_W@Z 100492e0 f i libucrtd:output.obj
 0001:00048440       ??$extract_argument_from_va_list@_W_W@?$standard_base@DV?$stream_output_adapter@D@__crt_stdio_output@@@__crt_stdio_output@@IAE_NAA_W@Z 10049440 f i libucrtd:output.obj
 0001:00048470       ??$extract_argument_from_va_list@_W_W@?$standard_base@DV?$string_output_adapter@D@__crt_stdio_output@@@__crt_stdio_output@@IAE_NAA_W@Z 10049470 f i libucrtd:output.obj
 0001:000484a0       ??$extract_argument_from_va_list@_W_W@?$standard_base@_WV?$stream_output_adapter@_W@__crt_stdio_output@@@__crt_stdio_output@@IAE_NAA_W@Z 100494a0 f i libucrtd:output.obj
 0001:000484d0       ??$extract_argument_from_va_list@_W_W@?$standard_base@_WV?$string_output_adapter@_W@__crt_stdio_output@@@__crt_stdio_output@@IAE_NAA_W@Z 100494d0 f i libucrtd:output.obj
 0001:00048500       ??$get_parameter_type@D@?$positional_parameter_base@DV?$stream_output_adapter@D@__crt_stdio_output@@@__crt_stdio_output@@CA?AW4parameter_type@01@PAD@Z 10049500 f i libucrtd:output.obj
 0001:00048510       ??$get_parameter_type@D@?$positional_parameter_base@DV?$string_output_adapter@D@__crt_stdio_output@@@__crt_stdio_output@@CA?AW4parameter_type@01@PAD@Z 10049510 f i libucrtd:output.obj
 0001:00048520       ??$get_parameter_type@D@?$positional_parameter_base@_WV?$stream_output_adapter@_W@__crt_stdio_output@@@__crt_stdio_output@@CA?AW4parameter_type@01@PAD@Z 10049520 f i libucrtd:output.obj
 0001:00048530       ??$get_parameter_type@D@?$positional_parameter_base@_WV?$string_output_adapter@_W@__crt_stdio_output@@@__crt_stdio_output@@CA?AW4parameter_type@01@PAD@Z 10049530 f i libucrtd:output.obj
 0001:00048540       ??$get_parameter_type@Uansi_string@?1??type_case_Z@?$output_processor@DV?$stream_output_adapter@D@__crt_stdio_output@@V?$positional_parameter_base@DV?$stream_output_adapter@D@__crt_stdio_output@@@2@@__crt_stdio_output@@AAE_NXZ@@?$positional_parameter_base@DV?$stream_output_adapter@D@__crt_stdio_output@@@__crt_stdio_output@@CA?AW4parameter_type@01@PAUansi_string@?1??type_case_Z@?$output_processor@DV?$stream_output_adapter@D@__crt_stdio_output@@V?$positional_parameter_base@DV?$stream_output_adapter@D@__crt_stdio_output@@@2@@1@AAE_NXZ@@Z 10049540 f i libucrtd:output.obj
 0001:00048550       ??$get_parameter_type@Uansi_string@?1??type_case_Z@?$output_processor@DV?$string_output_adapter@D@__crt_stdio_output@@V?$positional_parameter_base@DV?$string_output_adapter@D@__crt_stdio_output@@@2@@__crt_stdio_output@@AAE_NXZ@@?$positional_parameter_base@DV?$string_output_adapter@D@__crt_stdio_output@@@__crt_stdio_output@@CA?AW4parameter_type@01@PAUansi_string@?1??type_case_Z@?$output_processor@DV?$string_output_adapter@D@__crt_stdio_output@@V?$positional_parameter_base@DV?$string_output_adapter@D@__crt_stdio_output@@@2@@1@AAE_NXZ@@Z 10049550 f i libucrtd:output.obj
 0001:00048560       ??$get_parameter_type@Uansi_string@?1??type_case_Z@?$output_processor@_WV?$stream_output_adapter@_W@__crt_stdio_output@@V?$positional_parameter_base@_WV?$stream_output_adapter@_W@__crt_stdio_output@@@2@@__crt_stdio_output@@AAE_NXZ@@?$positional_parameter_base@_WV?$stream_output_adapter@_W@__crt_stdio_output@@@__crt_stdio_output@@CA?AW4parameter_type@01@PAUansi_string@?1??type_case_Z@?$output_processor@_WV?$stream_output_adapter@_W@__crt_stdio_output@@V?$positional_parameter_base@_WV?$stream_output_adapter@_W@__crt_stdio_output@@@2@@1@AAE_NXZ@@Z 10049560 f i libucrtd:output.obj
 0001:00048570       ??$get_parameter_type@Uansi_string@?1??type_case_Z@?$output_processor@_WV?$string_output_adapter@_W@__crt_stdio_output@@V?$positional_parameter_base@_WV?$string_output_adapter@_W@__crt_stdio_output@@@2@@__crt_stdio_output@@AAE_NXZ@@?$positional_parameter_base@_WV?$string_output_adapter@_W@__crt_stdio_output@@@__crt_stdio_output@@CA?AW4parameter_type@01@PAUansi_string@?1??type_case_Z@?$output_processor@_WV?$string_output_adapter@_W@__crt_stdio_output@@V?$positional_parameter_base@_WV?$string_output_adapter@_W@__crt_stdio_output@@@2@@1@AAE_NXZ@@Z 10049570 f i libucrtd:output.obj
 0001:00048580       ??$get_parameter_type@X@?$positional_parameter_base@DV?$stream_output_adapter@D@__crt_stdio_output@@@__crt_stdio_output@@CA?AW4parameter_type@01@PAX@Z 10049580 f i libucrtd:output.obj
 0001:00048590       ??$get_parameter_type@X@?$positional_parameter_base@DV?$string_output_adapter@D@__crt_stdio_output@@@__crt_stdio_output@@CA?AW4parameter_type@01@PAX@Z 10049590 f i libucrtd:output.obj
 0001:000485a0       ??$get_parameter_type@X@?$positional_parameter_base@_WV?$stream_output_adapter@_W@__crt_stdio_output@@@__crt_stdio_output@@CA?AW4parameter_type@01@PAX@Z 100495a0 f i libucrtd:output.obj
 0001:000485b0       ??$get_parameter_type@X@?$positional_parameter_base@_WV?$string_output_adapter@_W@__crt_stdio_output@@@__crt_stdio_output@@CA?AW4parameter_type@01@PAX@Z 100495b0 f i libucrtd:output.obj
 0001:000485c0       ??$is_character_specifier@D@?$positional_parameter_base@DV?$stream_output_adapter@D@__crt_stdio_output@@@__crt_stdio_output@@CA_ND@Z 100495c0 f i libucrtd:output.obj
 0001:000485f0       ??$is_character_specifier@D@?$positional_parameter_base@DV?$string_output_adapter@D@__crt_stdio_output@@@__crt_stdio_output@@CA_ND@Z 100495f0 f i libucrtd:output.obj
 0001:00048620       ??$is_character_specifier@_W@?$positional_parameter_base@_WV?$stream_output_adapter@_W@__crt_stdio_output@@@__crt_stdio_output@@CA_N_W@Z 10049620 f i libucrtd:output.obj
 0001:00048650       ??$is_character_specifier@_W@?$positional_parameter_base@_WV?$string_output_adapter@_W@__crt_stdio_output@@@__crt_stdio_output@@CA_N_W@Z 10049650 f i libucrtd:output.obj
 0001:00048680       ??$is_integral_specifier@D@?$positional_parameter_base@DV?$stream_output_adapter@D@__crt_stdio_output@@@__crt_stdio_output@@CA_ND@Z 10049680 f i libucrtd:output.obj
 0001:000486e0       ??$is_integral_specifier@D@?$positional_parameter_base@DV?$string_output_adapter@D@__crt_stdio_output@@@__crt_stdio_output@@CA_ND@Z 100496e0 f i libucrtd:output.obj
 0001:00048740       ??$is_integral_specifier@_W@?$positional_parameter_base@_WV?$stream_output_adapter@_W@__crt_stdio_output@@@__crt_stdio_output@@CA_N_W@Z 10049740 f i libucrtd:output.obj
 0001:000487a0       ??$is_integral_specifier@_W@?$positional_parameter_base@_WV?$string_output_adapter@_W@__crt_stdio_output@@@__crt_stdio_output@@CA_N_W@Z 100497a0 f i libucrtd:output.obj
 0001:00048800       ??$is_overflow_condition@K@__crt_strtox@@YA_NIK@Z 10049800 f i libucrtd:output.obj
 0001:00048860       ??$is_pointer_specifier@D@?$positional_parameter_base@DV?$stream_output_adapter@D@__crt_stdio_output@@@__crt_stdio_output@@CA_ND@Z 10049860 f i libucrtd:output.obj
 0001:00048890       ??$is_pointer_specifier@D@?$positional_parameter_base@DV?$string_output_adapter@D@__crt_stdio_output@@@__crt_stdio_output@@CA_ND@Z 10049890 f i libucrtd:output.obj
 0001:000488c0       ??$is_pointer_specifier@_W@?$positional_parameter_base@_WV?$stream_output_adapter@_W@__crt_stdio_output@@@__crt_stdio_output@@CA_N_W@Z 100498c0 f i libucrtd:output.obj
 0001:000488f0       ??$is_pointer_specifier@_W@?$positional_parameter_base@_WV?$string_output_adapter@_W@__crt_stdio_output@@@__crt_stdio_output@@CA_N_W@Z 100498f0 f i libucrtd:output.obj
 0001:00048920       ??$is_string_specifier@D@?$positional_parameter_base@DV?$stream_output_adapter@D@__crt_stdio_output@@@__crt_stdio_output@@CA_ND@Z 10049920 f i libucrtd:output.obj
 0001:00048950       ??$is_string_specifier@D@?$positional_parameter_base@DV?$string_output_adapter@D@__crt_stdio_output@@@__crt_stdio_output@@CA_ND@Z 10049950 f i libucrtd:output.obj
 0001:00048980       ??$is_string_specifier@_W@?$positional_parameter_base@_WV?$stream_output_adapter@_W@__crt_stdio_output@@@__crt_stdio_output@@CA_N_W@Z 10049980 f i libucrtd:output.obj
 0001:000489b0       ??$is_string_specifier@_W@?$positional_parameter_base@_WV?$string_output_adapter@_W@__crt_stdio_output@@@__crt_stdio_output@@CA_N_W@Z 100499b0 f i libucrtd:output.obj
 0001:000489e0       ??$is_wide_character_specifier@D@__crt_stdio_output@@YA_N_KDW4length_modifier@0@@Z 100499e0 f i libucrtd:output.obj
 0001:00048a60       ??$is_wide_character_specifier@_W@__crt_stdio_output@@YA_N_K_WW4length_modifier@0@@Z 10049a60 f i libucrtd:output.obj
 0001:00048b20       ??$make_c_string_character_source@DPAPAD@__crt_strtox@@YA?AV?$c_string_character_source@D@0@QBDQAPAD@Z 10049b20 f i libucrtd:output.obj
 0001:00048b40       ??$make_c_string_character_source@_WPAPA_W@__crt_strtox@@YA?AV?$c_string_character_source@_W@0@QB_WQAPA_W@Z 10049b40 f i libucrtd:output.obj
 0001:00048b60       ??$parse_integer@KV?$c_string_character_source@D@__crt_strtox@@$0A@@__crt_strtox@@YAKAAV__crt_cached_ptd_host@@V?$c_string_character_source@D@0@H_N@Z 10049b60 f i libucrtd:output.obj
 0001:00048e90       ??$parse_integer@KV?$c_string_character_source@_W@__crt_strtox@@$0A@@__crt_strtox@@YAKAAV__crt_cached_ptd_host@@V?$c_string_character_source@_W@0@H_N@Z 10049e90 f i libucrtd:output.obj
 0001:000491d0       ??$peek_va_arg@C@__crt_stdio_output@@YACPAD@Z 1004a1d0 f i libucrtd:output.obj
 0001:000491f0       ??$peek_va_arg@E@__crt_stdio_output@@YAEPAD@Z 1004a1f0 f i libucrtd:output.obj
 0001:00049210       ??$peek_va_arg@F@__crt_stdio_output@@YAFPAD@Z 1004a210 f i libucrtd:output.obj
 0001:00049230       ??$peek_va_arg@G@__crt_stdio_output@@YAGPAD@Z 1004a230 f i libucrtd:output.obj
 0001:00049250       ??$peek_va_arg@H@__crt_stdio_output@@YAHPAD@Z 1004a250 f i libucrtd:output.obj
 0001:00049270       ??$peek_va_arg@I@__crt_stdio_output@@YAIPAD@Z 1004a270 f i libucrtd:output.obj
 0001:00049290       ??$peek_va_arg@PAD@__crt_stdio_output@@YAPADPAD@Z 1004a290 f i libucrtd:output.obj
 0001:000492b0       ??$peek_va_arg@PAUansi_string@?1??type_case_Z@?$output_processor@DV?$stream_output_adapter@D@__crt_stdio_output@@V?$positional_parameter_base@DV?$stream_output_adapter@D@__crt_stdio_output@@@2@@__crt_stdio_output@@AAE_NXZ@@__crt_stdio_output@@YAPAUansi_string@?1??type_case_Z@?$output_processor@DV?$stream_output_adapter@D@__crt_stdio_output@@V?$positional_parameter_base@DV?$stream_output_adapter@D@__crt_stdio_output@@@2@@0@AAE_NXZ@PAD@Z 1004a2b0 f i libucrtd:output.obj
 0001:000492d0       ??$peek_va_arg@PAUansi_string@?1??type_case_Z@?$output_processor@DV?$string_output_adapter@D@__crt_stdio_output@@V?$positional_parameter_base@DV?$string_output_adapter@D@__crt_stdio_output@@@2@@__crt_stdio_output@@AAE_NXZ@@__crt_stdio_output@@YAPAUansi_string@?1??type_case_Z@?$output_processor@DV?$string_output_adapter@D@__crt_stdio_output@@V?$positional_parameter_base@DV?$string_output_adapter@D@__crt_stdio_output@@@2@@0@AAE_NXZ@PAD@Z 1004a2d0 f i libucrtd:output.obj
 0001:000492f0       ??$peek_va_arg@PAUansi_string@?1??type_case_Z@?$output_processor@_WV?$stream_output_adapter@_W@__crt_stdio_output@@V?$positional_parameter_base@_WV?$stream_output_adapter@_W@__crt_stdio_output@@@2@@__crt_stdio_output@@AAE_NXZ@@__crt_stdio_output@@YAPAUansi_string@?1??type_case_Z@?$output_processor@_WV?$stream_output_adapter@_W@__crt_stdio_output@@V?$positional_parameter_base@_WV?$stream_output_adapter@_W@__crt_stdio_output@@@2@@0@AAE_NXZ@PAD@Z 1004a2f0 f i libucrtd:output.obj
 0001:00049310       ??$peek_va_arg@PAUansi_string@?1??type_case_Z@?$output_processor@_WV?$string_output_adapter@_W@__crt_stdio_output@@V?$positional_parameter_base@_WV?$string_output_adapter@_W@__crt_stdio_output@@@2@@__crt_stdio_output@@AAE_NXZ@@__crt_stdio_output@@YAPAUansi_string@?1??type_case_Z@?$output_processor@_WV?$string_output_adapter@_W@__crt_stdio_output@@V?$positional_parameter_base@_WV?$string_output_adapter@_W@__crt_stdio_output@@@2@@0@AAE_NXZ@PAD@Z 1004a310 f i libucrtd:output.obj
 0001:00049330       ??$peek_va_arg@PAX@__crt_stdio_output@@YAPAXPAD@Z 1004a330 f i libucrtd:output.obj
 0001:00049350       ??$peek_va_arg@U_CRT_DOUBLE@@@__crt_stdio_output@@YA?AU_CRT_DOUBLE@@PAD@Z 1004a350 f i libucrtd:output.obj
 0001:00049370       ??$peek_va_arg@_J@__crt_stdio_output@@YA_JPAD@Z 1004a370 f i libucrtd:output.obj
 0001:00049390       ??$peek_va_arg@_K@__crt_stdio_output@@YA_KPAD@Z 1004a390 f i libucrtd:output.obj
 0001:000493b0       ??$peek_va_arg@_W@__crt_stdio_output@@YA_WPAD@Z 1004a3b0 f i libucrtd:output.obj
 0001:000493d0       ??$puttc_nolock_internal@ABDPAU_iobuf@@AAV__crt_cached_ptd_host@@@?$__crt_char_traits@D@@SAHABD$$QAPAU_iobuf@@AAV__crt_cached_ptd_host@@@Z 1004a3d0 f i libucrtd:output.obj
 0001:000493f0       ??$puttc_nolock_internal@AB_WPAU_iobuf@@AAV__crt_cached_ptd_host@@@?$__crt_char_traits@_W@@SAGAB_W$$QAPAU_iobuf@@AAV__crt_cached_ptd_host@@@Z 1004a3f0 f i libucrtd:output.obj
 0001:00049410       ??$read_va_arg@C@__crt_stdio_output@@YACAAPAD@Z 1004a410 f i libucrtd:output.obj
 0001:00049430       ??$read_va_arg@E@__crt_stdio_output@@YAEAAPAD@Z 1004a430 f i libucrtd:output.obj
 0001:00049450       ??$read_va_arg@F@__crt_stdio_output@@YAFAAPAD@Z 1004a450 f i libucrtd:output.obj
 0001:00049470       ??$read_va_arg@G@__crt_stdio_output@@YAGAAPAD@Z 1004a470 f i libucrtd:output.obj
 0001:00049490       ??$read_va_arg@H@__crt_stdio_output@@YAHAAPAD@Z 1004a490 f i libucrtd:output.obj
 0001:000494b0       ??$read_va_arg@I@__crt_stdio_output@@YAIAAPAD@Z 1004a4b0 f i libucrtd:output.obj
 0001:000494d0       ??$read_va_arg@PAD@__crt_stdio_output@@YAPADAAPAD@Z 1004a4d0 f i libucrtd:output.obj
 0001:000494f0       ??$read_va_arg@PAUansi_string@?1??type_case_Z@?$output_processor@DV?$stream_output_adapter@D@__crt_stdio_output@@V?$format_validation_base@DV?$stream_output_adapter@D@__crt_stdio_output@@@2@@__crt_stdio_output@@AAE_NXZ@@__crt_stdio_output@@YAPAUansi_string@?1??type_case_Z@?$output_processor@DV?$stream_output_adapter@D@__crt_stdio_output@@V?$format_validation_base@DV?$stream_output_adapter@D@__crt_stdio_output@@@2@@0@AAE_NXZ@AAPAD@Z 1004a4f0 f i libucrtd:output.obj
 0001:00049510       ??$read_va_arg@PAUansi_string@?1??type_case_Z@?$output_processor@DV?$stream_output_adapter@D@__crt_stdio_output@@V?$positional_parameter_base@DV?$stream_output_adapter@D@__crt_stdio_output@@@2@@__crt_stdio_output@@AAE_NXZ@@__crt_stdio_output@@YAPAUansi_string@?1??type_case_Z@?$output_processor@DV?$stream_output_adapter@D@__crt_stdio_output@@V?$positional_parameter_base@DV?$stream_output_adapter@D@__crt_stdio_output@@@2@@0@AAE_NXZ@AAPAD@Z 1004a510 f i libucrtd:output.obj
 0001:00049530       ??$read_va_arg@PAUansi_string@?1??type_case_Z@?$output_processor@DV?$stream_output_adapter@D@__crt_stdio_output@@V?$standard_base@DV?$stream_output_adapter@D@__crt_stdio_output@@@2@@__crt_stdio_output@@AAE_NXZ@@__crt_stdio_output@@YAPAUansi_string@?1??type_case_Z@?$output_processor@DV?$stream_output_adapter@D@__crt_stdio_output@@V?$standard_base@DV?$stream_output_adapter@D@__crt_stdio_output@@@2@@0@AAE_NXZ@AAPAD@Z 1004a530 f i libucrtd:output.obj
 0001:00049550       ??$read_va_arg@PAUansi_string@?1??type_case_Z@?$output_processor@DV?$string_output_adapter@D@__crt_stdio_output@@V?$format_validation_base@DV?$string_output_adapter@D@__crt_stdio_output@@@2@@__crt_stdio_output@@AAE_NXZ@@__crt_stdio_output@@YAPAUansi_string@?1??type_case_Z@?$output_processor@DV?$string_output_adapter@D@__crt_stdio_output@@V?$format_validation_base@DV?$string_output_adapter@D@__crt_stdio_output@@@2@@0@AAE_NXZ@AAPAD@Z 1004a550 f i libucrtd:output.obj
 0001:00049570       ??$read_va_arg@PAUansi_string@?1??type_case_Z@?$output_processor@DV?$string_output_adapter@D@__crt_stdio_output@@V?$positional_parameter_base@DV?$string_output_adapter@D@__crt_stdio_output@@@2@@__crt_stdio_output@@AAE_NXZ@@__crt_stdio_output@@YAPAUansi_string@?1??type_case_Z@?$output_processor@DV?$string_output_adapter@D@__crt_stdio_output@@V?$positional_parameter_base@DV?$string_output_adapter@D@__crt_stdio_output@@@2@@0@AAE_NXZ@AAPAD@Z 1004a570 f i libucrtd:output.obj
 0001:00049590       ??$read_va_arg@PAUansi_string@?1??type_case_Z@?$output_processor@DV?$string_output_adapter@D@__crt_stdio_output@@V?$standard_base@DV?$string_output_adapter@D@__crt_stdio_output@@@2@@__crt_stdio_output@@AAE_NXZ@@__crt_stdio_output@@YAPAUansi_string@?1??type_case_Z@?$output_processor@DV?$string_output_adapter@D@__crt_stdio_output@@V?$standard_base@DV?$string_output_adapter@D@__crt_stdio_output@@@2@@0@AAE_NXZ@AAPAD@Z 1004a590 f i libucrtd:output.obj
 0001:000495b0       ??$read_va_arg@PAUansi_string@?1??type_case_Z@?$output_processor@_WV?$stream_output_adapter@_W@__crt_stdio_output@@V?$format_validation_base@_WV?$stream_output_adapter@_W@__crt_stdio_output@@@2@@__crt_stdio_output@@AAE_NXZ@@__crt_stdio_output@@YAPAUansi_string@?1??type_case_Z@?$output_processor@_WV?$stream_output_adapter@_W@__crt_stdio_output@@V?$format_validation_base@_WV?$stream_output_adapter@_W@__crt_stdio_output@@@2@@0@AAE_NXZ@AAPAD@Z 1004a5b0 f i libucrtd:output.obj
 0001:000495d0       ??$read_va_arg@PAUansi_string@?1??type_case_Z@?$output_processor@_WV?$stream_output_adapter@_W@__crt_stdio_output@@V?$positional_parameter_base@_WV?$stream_output_adapter@_W@__crt_stdio_output@@@2@@__crt_stdio_output@@AAE_NXZ@@__crt_stdio_output@@YAPAUansi_string@?1??type_case_Z@?$output_processor@_WV?$stream_output_adapter@_W@__crt_stdio_output@@V?$positional_parameter_base@_WV?$stream_output_adapter@_W@__crt_stdio_output@@@2@@0@AAE_NXZ@AAPAD@Z 1004a5d0 f i libucrtd:output.obj
 0001:000495f0       ??$read_va_arg@PAUansi_string@?1??type_case_Z@?$output_processor@_WV?$stream_output_adapter@_W@__crt_stdio_output@@V?$standard_base@_WV?$stream_output_adapter@_W@__crt_stdio_output@@@2@@__crt_stdio_output@@AAE_NXZ@@__crt_stdio_output@@YAPAUansi_string@?1??type_case_Z@?$output_processor@_WV?$stream_output_adapter@_W@__crt_stdio_output@@V?$standard_base@_WV?$stream_output_adapter@_W@__crt_stdio_output@@@2@@0@AAE_NXZ@AAPAD@Z 1004a5f0 f i libucrtd:output.obj
 0001:00049610       ??$read_va_arg@PAUansi_string@?1??type_case_Z@?$output_processor@_WV?$string_output_adapter@_W@__crt_stdio_output@@V?$format_validation_base@_WV?$string_output_adapter@_W@__crt_stdio_output@@@2@@__crt_stdio_output@@AAE_NXZ@@__crt_stdio_output@@YAPAUansi_string@?1??type_case_Z@?$output_processor@_WV?$string_output_adapter@_W@__crt_stdio_output@@V?$format_validation_base@_WV?$string_output_adapter@_W@__crt_stdio_output@@@2@@0@AAE_NXZ@AAPAD@Z 1004a610 f i libucrtd:output.obj
 0001:00049630       ??$read_va_arg@PAUansi_string@?1??type_case_Z@?$output_processor@_WV?$string_output_adapter@_W@__crt_stdio_output@@V?$positional_parameter_base@_WV?$string_output_adapter@_W@__crt_stdio_output@@@2@@__crt_stdio_output@@AAE_NXZ@@__crt_stdio_output@@YAPAUansi_string@?1??type_case_Z@?$output_processor@_WV?$string_output_adapter@_W@__crt_stdio_output@@V?$positional_parameter_base@_WV?$string_output_adapter@_W@__crt_stdio_output@@@2@@0@AAE_NXZ@AAPAD@Z 1004a630 f i libucrtd:output.obj
 0001:00049650       ??$read_va_arg@PAUansi_string@?1??type_case_Z@?$output_processor@_WV?$string_output_adapter@_W@__crt_stdio_output@@V?$standard_base@_WV?$string_output_adapter@_W@__crt_stdio_output@@@2@@__crt_stdio_output@@AAE_NXZ@@__crt_stdio_output@@YAPAUansi_string@?1??type_case_Z@?$output_processor@_WV?$string_output_adapter@_W@__crt_stdio_output@@V?$standard_base@_WV?$string_output_adapter@_W@__crt_stdio_output@@@2@@0@AAE_NXZ@AAPAD@Z 1004a650 f i libucrtd:output.obj
 0001:00049670       ??$read_va_arg@PAX@__crt_stdio_output@@YAPAXAAPAD@Z 1004a670 f i libucrtd:output.obj
 0001:00049690       ??$read_va_arg@U_CRT_DOUBLE@@@__crt_stdio_output@@YA?AU_CRT_DOUBLE@@AAPAD@Z 1004a690 f i libucrtd:output.obj
 0001:000496b0       ??$read_va_arg@_J@__crt_stdio_output@@YA_JAAPAD@Z 1004a6b0 f i libucrtd:output.obj
 0001:000496d0       ??$read_va_arg@_K@__crt_stdio_output@@YA_KAAPAD@Z 1004a6d0 f i libucrtd:output.obj
 0001:000496f0       ??$read_va_arg@_W@__crt_stdio_output@@YA_WAAPAD@Z 1004a6f0 f i libucrtd:output.obj
 0001:00049710       ??$scratch_count@D@formatting_buffer@__crt_stdio_output@@QBEIXZ 1004a710 f i libucrtd:output.obj
 0001:00049730       ??$scratch_data@D@formatting_buffer@__crt_stdio_output@@QAEPADXZ 1004a730 f i libucrtd:output.obj
 0001:00049780       ??$type_case_integer@$07@?$output_processor@DV?$stream_output_adapter@D@__crt_stdio_output@@V?$format_validation_base@DV?$stream_output_adapter@D@__crt_stdio_output@@@2@@__crt_stdio_output@@AAE_N_N@Z 1004a780 f i libucrtd:output.obj
 0001:00049ae0       ??$type_case_integer@$07@?$output_processor@DV?$stream_output_adapter@D@__crt_stdio_output@@V?$positional_parameter_base@DV?$stream_output_adapter@D@__crt_stdio_output@@@2@@__crt_stdio_output@@AAE_N_N@Z 1004aae0 f i libucrtd:output.obj
 0001:00049e40       ??$type_case_integer@$07@?$output_processor@DV?$stream_output_adapter@D@__crt_stdio_output@@V?$standard_base@DV?$stream_output_adapter@D@__crt_stdio_output@@@2@@__crt_stdio_output@@AAE_N_N@Z 1004ae40 f i libucrtd:output.obj
 0001:0004a1a0       ??$type_case_integer@$07@?$output_processor@DV?$string_output_adapter@D@__crt_stdio_output@@V?$format_validation_base@DV?$string_output_adapter@D@__crt_stdio_output@@@2@@__crt_stdio_output@@AAE_N_N@Z 1004b1a0 f i libucrtd:output.obj
 0001:0004a500       ??$type_case_integer@$07@?$output_processor@DV?$string_output_adapter@D@__crt_stdio_output@@V?$positional_parameter_base@DV?$string_output_adapter@D@__crt_stdio_output@@@2@@__crt_stdio_output@@AAE_N_N@Z 1004b500 f i libucrtd:output.obj
 0001:0004a860       ??$type_case_integer@$07@?$output_processor@DV?$string_output_adapter@D@__crt_stdio_output@@V?$standard_base@DV?$string_output_adapter@D@__crt_stdio_output@@@2@@__crt_stdio_output@@AAE_N_N@Z 1004b860 f i libucrtd:output.obj
 0001:0004abc0       ??$type_case_integer@$07@?$output_processor@_WV?$stream_output_adapter@_W@__crt_stdio_output@@V?$format_validation_base@_WV?$stream_output_adapter@_W@__crt_stdio_output@@@2@@__crt_stdio_output@@AAE_N_N@Z 1004bbc0 f i libucrtd:output.obj
 0001:0004af20       ??$type_case_integer@$07@?$output_processor@_WV?$stream_output_adapter@_W@__crt_stdio_output@@V?$positional_parameter_base@_WV?$stream_output_adapter@_W@__crt_stdio_output@@@2@@__crt_stdio_output@@AAE_N_N@Z 1004bf20 f i libucrtd:output.obj
 0001:0004b280       ??$type_case_integer@$07@?$output_processor@_WV?$stream_output_adapter@_W@__crt_stdio_output@@V?$standard_base@_WV?$stream_output_adapter@_W@__crt_stdio_output@@@2@@__crt_stdio_output@@AAE_N_N@Z 1004c280 f i libucrtd:output.obj
 0001:0004b5e0       ??$type_case_integer@$07@?$output_processor@_WV?$string_output_adapter@_W@__crt_stdio_output@@V?$format_validation_base@_WV?$string_output_adapter@_W@__crt_stdio_output@@@2@@__crt_stdio_output@@AAE_N_N@Z 1004c5e0 f i libucrtd:output.obj
 0001:0004b940       ??$type_case_integer@$07@?$output_processor@_WV?$string_output_adapter@_W@__crt_stdio_output@@V?$positional_parameter_base@_WV?$string_output_adapter@_W@__crt_stdio_output@@@2@@__crt_stdio_output@@AAE_N_N@Z 1004c940 f i libucrtd:output.obj
 0001:0004bca0       ??$type_case_integer@$07@?$output_processor@_WV?$string_output_adapter@_W@__crt_stdio_output@@V?$standard_base@_WV?$string_output_adapter@_W@__crt_stdio_output@@@2@@__crt_stdio_output@@AAE_N_N@Z 1004cca0 f i libucrtd:output.obj
 0001:0004c000       ??$type_case_integer@$09@?$output_processor@DV?$stream_output_adapter@D@__crt_stdio_output@@V?$format_validation_base@DV?$stream_output_adapter@D@__crt_stdio_output@@@2@@__crt_stdio_output@@AAE_N_N@Z 1004d000 f i libucrtd:output.obj
 0001:0004c360       ??$type_case_integer@$09@?$output_processor@DV?$stream_output_adapter@D@__crt_stdio_output@@V?$positional_parameter_base@DV?$stream_output_adapter@D@__crt_stdio_output@@@2@@__crt_stdio_output@@AAE_N_N@Z 1004d360 f i libucrtd:output.obj
 0001:0004c6c0       ??$type_case_integer@$09@?$output_processor@DV?$stream_output_adapter@D@__crt_stdio_output@@V?$standard_base@DV?$stream_output_adapter@D@__crt_stdio_output@@@2@@__crt_stdio_output@@AAE_N_N@Z 1004d6c0 f i libucrtd:output.obj
 0001:0004ca20       ??$type_case_integer@$09@?$output_processor@DV?$string_output_adapter@D@__crt_stdio_output@@V?$format_validation_base@DV?$string_output_adapter@D@__crt_stdio_output@@@2@@__crt_stdio_output@@AAE_N_N@Z 1004da20 f i libucrtd:output.obj
 0001:0004cd80       ??$type_case_integer@$09@?$output_processor@DV?$string_output_adapter@D@__crt_stdio_output@@V?$positional_parameter_base@DV?$string_output_adapter@D@__crt_stdio_output@@@2@@__crt_stdio_output@@AAE_N_N@Z 1004dd80 f i libucrtd:output.obj
 0001:0004d0e0       ??$type_case_integer@$09@?$output_processor@DV?$string_output_adapter@D@__crt_stdio_output@@V?$standard_base@DV?$string_output_adapter@D@__crt_stdio_output@@@2@@__crt_stdio_output@@AAE_N_N@Z 1004e0e0 f i libucrtd:output.obj
 0001:0004d440       ??$type_case_integer@$09@?$output_processor@_WV?$stream_output_adapter@_W@__crt_stdio_output@@V?$format_validation_base@_WV?$stream_output_adapter@_W@__crt_stdio_output@@@2@@__crt_stdio_output@@AAE_N_N@Z 1004e440 f i libucrtd:output.obj
 0001:0004d7a0       ??$type_case_integer@$09@?$output_processor@_WV?$stream_output_adapter@_W@__crt_stdio_output@@V?$positional_parameter_base@_WV?$stream_output_adapter@_W@__crt_stdio_output@@@2@@__crt_stdio_output@@AAE_N_N@Z 1004e7a0 f i libucrtd:output.obj
 0001:0004db00       ??$type_case_integer@$09@?$output_processor@_WV?$stream_output_adapter@_W@__crt_stdio_output@@V?$standard_base@_WV?$stream_output_adapter@_W@__crt_stdio_output@@@2@@__crt_stdio_output@@AAE_N_N@Z 1004eb00 f i libucrtd:output.obj
 0001:0004de60       ??$type_case_integer@$09@?$output_processor@_WV?$string_output_adapter@_W@__crt_stdio_output@@V?$format_validation_base@_WV?$string_output_adapter@_W@__crt_stdio_output@@@2@@__crt_stdio_output@@AAE_N_N@Z 1004ee60 f i libucrtd:output.obj
 0001:0004e1c0       ??$type_case_integer@$09@?$output_processor@_WV?$string_output_adapter@_W@__crt_stdio_output@@V?$positional_parameter_base@_WV?$string_output_adapter@_W@__crt_stdio_output@@@2@@__crt_stdio_output@@AAE_N_N@Z 1004f1c0 f i libucrtd:output.obj
 0001:0004e520       ??$type_case_integer@$09@?$output_processor@_WV?$string_output_adapter@_W@__crt_stdio_output@@V?$standard_base@_WV?$string_output_adapter@_W@__crt_stdio_output@@@2@@__crt_stdio_output@@AAE_N_N@Z 1004f520 f i libucrtd:output.obj
 0001:0004e880       ??$type_case_integer@$0BA@@?$output_processor@DV?$stream_output_adapter@D@__crt_stdio_output@@V?$format_validation_base@DV?$stream_output_adapter@D@__crt_stdio_output@@@2@@__crt_stdio_output@@AAE_N_N@Z 1004f880 f i libucrtd:output.obj
 0001:0004ebe0       ??$type_case_integer@$0BA@@?$output_processor@DV?$stream_output_adapter@D@__crt_stdio_output@@V?$positional_parameter_base@DV?$stream_output_adapter@D@__crt_stdio_output@@@2@@__crt_stdio_output@@AAE_N_N@Z 1004fbe0 f i libucrtd:output.obj
 0001:0004ef40       ??$type_case_integer@$0BA@@?$output_processor@DV?$stream_output_adapter@D@__crt_stdio_output@@V?$standard_base@DV?$stream_output_adapter@D@__crt_stdio_output@@@2@@__crt_stdio_output@@AAE_N_N@Z 1004ff40 f i libucrtd:output.obj
 0001:0004f2a0       ??$type_case_integer@$0BA@@?$output_processor@DV?$string_output_adapter@D@__crt_stdio_output@@V?$format_validation_base@DV?$string_output_adapter@D@__crt_stdio_output@@@2@@__crt_stdio_output@@AAE_N_N@Z 100502a0 f i libucrtd:output.obj
 0001:0004f600       ??$type_case_integer@$0BA@@?$output_processor@DV?$string_output_adapter@D@__crt_stdio_output@@V?$positional_parameter_base@DV?$string_output_adapter@D@__crt_stdio_output@@@2@@__crt_stdio_output@@AAE_N_N@Z 10050600 f i libucrtd:output.obj
 0001:0004f960       ??$type_case_integer@$0BA@@?$output_processor@DV?$string_output_adapter@D@__crt_stdio_output@@V?$standard_base@DV?$string_output_adapter@D@__crt_stdio_output@@@2@@__crt_stdio_output@@AAE_N_N@Z 10050960 f i libucrtd:output.obj
 0001:0004fcc0       ??$type_case_integer@$0BA@@?$output_processor@_WV?$stream_output_adapter@_W@__crt_stdio_output@@V?$format_validation_base@_WV?$stream_output_adapter@_W@__crt_stdio_output@@@2@@__crt_stdio_output@@AAE_N_N@Z 10050cc0 f i libucrtd:output.obj
 0001:00050020       ??$type_case_integer@$0BA@@?$output_processor@_WV?$stream_output_adapter@_W@__crt_stdio_output@@V?$positional_parameter_base@_WV?$stream_output_adapter@_W@__crt_stdio_output@@@2@@__crt_stdio_output@@AAE_N_N@Z 10051020 f i libucrtd:output.obj
 0001:00050380       ??$type_case_integer@$0BA@@?$output_processor@_WV?$stream_output_adapter@_W@__crt_stdio_output@@V?$standard_base@_WV?$stream_output_adapter@_W@__crt_stdio_output@@@2@@__crt_stdio_output@@AAE_N_N@Z 10051380 f i libucrtd:output.obj
 0001:000506e0       ??$type_case_integer@$0BA@@?$output_processor@_WV?$string_output_adapter@_W@__crt_stdio_output@@V?$format_validation_base@_WV?$string_output_adapter@_W@__crt_stdio_output@@@2@@__crt_stdio_output@@AAE_N_N@Z 100516e0 f i libucrtd:output.obj
 0001:00050a40       ??$type_case_integer@$0BA@@?$output_processor@_WV?$string_output_adapter@_W@__crt_stdio_output@@V?$positional_parameter_base@_WV?$string_output_adapter@_W@__crt_stdio_output@@@2@@__crt_stdio_output@@AAE_N_N@Z 10051a40 f i libucrtd:output.obj
 0001:00050da0       ??$type_case_integer@$0BA@@?$output_processor@_WV?$string_output_adapter@_W@__crt_stdio_output@@V?$standard_base@_WV?$string_output_adapter@_W@__crt_stdio_output@@@2@@__crt_stdio_output@@AAE_N_N@Z 10051da0 f i libucrtd:output.obj
 0001:00051100       ??$type_case_integer_parse_into_buffer@I$07@?$output_processor@DV?$stream_output_adapter@D@__crt_stdio_output@@V?$format_validation_base@DV?$stream_output_adapter@D@__crt_stdio_output@@@2@@__crt_stdio_output@@AAEXI_N@Z 10052100 f i libucrtd:output.obj
 0001:000511d0       ??$type_case_integer_parse_into_buffer@I$07@?$output_processor@DV?$stream_output_adapter@D@__crt_stdio_output@@V?$positional_parameter_base@DV?$stream_output_adapter@D@__crt_stdio_output@@@2@@__crt_stdio_output@@AAEXI_N@Z 100521d0 f i libucrtd:output.obj
 0001:000512a0       ??$type_case_integer_parse_into_buffer@I$07@?$output_processor@DV?$stream_output_adapter@D@__crt_stdio_output@@V?$standard_base@DV?$stream_output_adapter@D@__crt_stdio_output@@@2@@__crt_stdio_output@@AAEXI_N@Z 100522a0 f i libucrtd:output.obj
 0001:00051370       ??$type_case_integer_parse_into_buffer@I$07@?$output_processor@DV?$string_output_adapter@D@__crt_stdio_output@@V?$format_validation_base@DV?$string_output_adapter@D@__crt_stdio_output@@@2@@__crt_stdio_output@@AAEXI_N@Z 10052370 f i libucrtd:output.obj
 0001:00051440       ??$type_case_integer_parse_into_buffer@I$07@?$output_processor@DV?$string_output_adapter@D@__crt_stdio_output@@V?$positional_parameter_base@DV?$string_output_adapter@D@__crt_stdio_output@@@2@@__crt_stdio_output@@AAEXI_N@Z 10052440 f i libucrtd:output.obj
 0001:00051510       ??$type_case_integer_parse_into_buffer@I$07@?$output_processor@DV?$string_output_adapter@D@__crt_stdio_output@@V?$standard_base@DV?$string_output_adapter@D@__crt_stdio_output@@@2@@__crt_stdio_output@@AAEXI_N@Z 10052510 f i libucrtd:output.obj
 0001:000515e0       ??$type_case_integer_parse_into_buffer@I$07@?$output_processor@_WV?$stream_output_adapter@_W@__crt_stdio_output@@V?$format_validation_base@_WV?$stream_output_adapter@_W@__crt_stdio_output@@@2@@__crt_stdio_output@@AAEXI_N@Z 100525e0 f i libucrtd:output.obj
 0001:000516c0       ??$type_case_integer_parse_into_buffer@I$07@?$output_processor@_WV?$stream_output_adapter@_W@__crt_stdio_output@@V?$positional_parameter_base@_WV?$stream_output_adapter@_W@__crt_stdio_output@@@2@@__crt_stdio_output@@AAEXI_N@Z 100526c0 f i libucrtd:output.obj
 0001:000517a0       ??$type_case_integer_parse_into_buffer@I$07@?$output_processor@_WV?$stream_output_adapter@_W@__crt_stdio_output@@V?$standard_base@_WV?$stream_output_adapter@_W@__crt_stdio_output@@@2@@__crt_stdio_output@@AAEXI_N@Z 100527a0 f i libucrtd:output.obj
 0001:00051880       ??$type_case_integer_parse_into_buffer@I$07@?$output_processor@_WV?$string_output_adapter@_W@__crt_stdio_output@@V?$format_validation_base@_WV?$string_output_adapter@_W@__crt_stdio_output@@@2@@__crt_stdio_output@@AAEXI_N@Z 10052880 f i libucrtd:output.obj
 0001:00051960       ??$type_case_integer_parse_into_buffer@I$07@?$output_processor@_WV?$string_output_adapter@_W@__crt_stdio_output@@V?$positional_parameter_base@_WV?$string_output_adapter@_W@__crt_stdio_output@@@2@@__crt_stdio_output@@AAEXI_N@Z 10052960 f i libucrtd:output.obj
 0001:00051a40       ??$type_case_integer_parse_into_buffer@I$07@?$output_processor@_WV?$string_output_adapter@_W@__crt_stdio_output@@V?$standard_base@_WV?$string_output_adapter@_W@__crt_stdio_output@@@2@@__crt_stdio_output@@AAEXI_N@Z 10052a40 f i libucrtd:output.obj
 0001:00051b20       ??$type_case_integer_parse_into_buffer@I$09@?$output_processor@DV?$stream_output_adapter@D@__crt_stdio_output@@V?$format_validation_base@DV?$stream_output_adapter@D@__crt_stdio_output@@@2@@__crt_stdio_output@@AAEXI_N@Z 10052b20 f i libucrtd:output.obj
 0001:00051c00       ??$type_case_integer_parse_into_buffer@I$09@?$output_processor@DV?$stream_output_adapter@D@__crt_stdio_output@@V?$positional_parameter_base@DV?$stream_output_adapter@D@__crt_stdio_output@@@2@@__crt_stdio_output@@AAEXI_N@Z 10052c00 f i libucrtd:output.obj
 0001:00051ce0       ??$type_case_integer_parse_into_buffer@I$09@?$output_processor@DV?$stream_output_adapter@D@__crt_stdio_output@@V?$standard_base@DV?$stream_output_adapter@D@__crt_stdio_output@@@2@@__crt_stdio_output@@AAEXI_N@Z 10052ce0 f i libucrtd:output.obj
 0001:00051dc0       ??$type_case_integer_parse_into_buffer@I$09@?$output_processor@DV?$string_output_adapter@D@__crt_stdio_output@@V?$format_validation_base@DV?$string_output_adapter@D@__crt_stdio_output@@@2@@__crt_stdio_output@@AAEXI_N@Z 10052dc0 f i libucrtd:output.obj
 0001:00051ea0       ??$type_case_integer_parse_into_buffer@I$09@?$output_processor@DV?$string_output_adapter@D@__crt_stdio_output@@V?$positional_parameter_base@DV?$string_output_adapter@D@__crt_stdio_output@@@2@@__crt_stdio_output@@AAEXI_N@Z 10052ea0 f i libucrtd:output.obj
 0001:00051f80       ??$type_case_integer_parse_into_buffer@I$09@?$output_processor@DV?$string_output_adapter@D@__crt_stdio_output@@V?$standard_base@DV?$string_output_adapter@D@__crt_stdio_output@@@2@@__crt_stdio_output@@AAEXI_N@Z 10052f80 f i libucrtd:output.obj
 0001:00052060       ??$type_case_integer_parse_into_buffer@I$09@?$output_processor@_WV?$stream_output_adapter@_W@__crt_stdio_output@@V?$format_validation_base@_WV?$stream_output_adapter@_W@__crt_stdio_output@@@2@@__crt_stdio_output@@AAEXI_N@Z 10053060 f i libucrtd:output.obj
 0001:00052150       ??$type_case_integer_parse_into_buffer@I$09@?$output_processor@_WV?$stream_output_adapter@_W@__crt_stdio_output@@V?$positional_parameter_base@_WV?$stream_output_adapter@_W@__crt_stdio_output@@@2@@__crt_stdio_output@@AAEXI_N@Z 10053150 f i libucrtd:output.obj
 0001:00052240       ??$type_case_integer_parse_into_buffer@I$09@?$output_processor@_WV?$stream_output_adapter@_W@__crt_stdio_output@@V?$standard_base@_WV?$stream_output_adapter@_W@__crt_stdio_output@@@2@@__crt_stdio_output@@AAEXI_N@Z 10053240 f i libucrtd:output.obj
 0001:00052330       ??$type_case_integer_parse_into_buffer@I$09@?$output_processor@_WV?$string_output_adapter@_W@__crt_stdio_output@@V?$format_validation_base@_WV?$string_output_adapter@_W@__crt_stdio_output@@@2@@__crt_stdio_output@@AAEXI_N@Z 10053330 f i libucrtd:output.obj
 0001:00052420       ??$type_case_integer_parse_into_buffer@I$09@?$output_processor@_WV?$string_output_adapter@_W@__crt_stdio_output@@V?$positional_parameter_base@_WV?$string_output_adapter@_W@__crt_stdio_output@@@2@@__crt_stdio_output@@AAEXI_N@Z 10053420 f i libucrtd:output.obj
 0001:00052510       ??$type_case_integer_parse_into_buffer@I$09@?$output_processor@_WV?$string_output_adapter@_W@__crt_stdio_output@@V?$standard_base@_WV?$string_output_adapter@_W@__crt_stdio_output@@@2@@__crt_stdio_output@@AAEXI_N@Z 10053510 f i libucrtd:output.obj
 0001:00052600       ??$type_case_integer_parse_into_buffer@I$0BA@@?$output_processor@DV?$stream_output_adapter@D@__crt_stdio_output@@V?$format_validation_base@DV?$stream_output_adapter@D@__crt_stdio_output@@@2@@__crt_stdio_output@@AAEXI_N@Z 10053600 f i libucrtd:output.obj
 0001:000526d0       ??$type_case_integer_parse_into_buffer@I$0BA@@?$output_processor@DV?$stream_output_adapter@D@__crt_stdio_output@@V?$positional_parameter_base@DV?$stream_output_adapter@D@__crt_stdio_output@@@2@@__crt_stdio_output@@AAEXI_N@Z 100536d0 f i libucrtd:output.obj
 0001:000527a0       ??$type_case_integer_parse_into_buffer@I$0BA@@?$output_processor@DV?$stream_output_adapter@D@__crt_stdio_output@@V?$standard_base@DV?$stream_output_adapter@D@__crt_stdio_output@@@2@@__crt_stdio_output@@AAEXI_N@Z 100537a0 f i libucrtd:output.obj
 0001:00052870       ??$type_case_integer_parse_into_buffer@I$0BA@@?$output_processor@DV?$string_output_adapter@D@__crt_stdio_output@@V?$format_validation_base@DV?$string_output_adapter@D@__crt_stdio_output@@@2@@__crt_stdio_output@@AAEXI_N@Z 10053870 f i libucrtd:output.obj
 0001:00052940       ??$type_case_integer_parse_into_buffer@I$0BA@@?$output_processor@DV?$string_output_adapter@D@__crt_stdio_output@@V?$positional_parameter_base@DV?$string_output_adapter@D@__crt_stdio_output@@@2@@__crt_stdio_output@@AAEXI_N@Z 10053940 f i libucrtd:output.obj
 0001:00052a10       ??$type_case_integer_parse_into_buffer@I$0BA@@?$output_processor@DV?$string_output_adapter@D@__crt_stdio_output@@V?$standard_base@DV?$string_output_adapter@D@__crt_stdio_output@@@2@@__crt_stdio_output@@AAEXI_N@Z 10053a10 f i libucrtd:output.obj
 0001:00052ae0       ??$type_case_integer_parse_into_buffer@I$0BA@@?$output_processor@_WV?$stream_output_adapter@_W@__crt_stdio_output@@V?$format_validation_base@_WV?$stream_output_adapter@_W@__crt_stdio_output@@@2@@__crt_stdio_output@@AAEXI_N@Z 10053ae0 f i libucrtd:output.obj
 0001:00052bc0       ??$type_case_integer_parse_into_buffer@I$0BA@@?$output_processor@_WV?$stream_output_adapter@_W@__crt_stdio_output@@V?$positional_parameter_base@_WV?$stream_output_adapter@_W@__crt_stdio_output@@@2@@__crt_stdio_output@@AAEXI_N@Z 10053bc0 f i libucrtd:output.obj
 0001:00052ca0       ??$type_case_integer_parse_into_buffer@I$0BA@@?$output_processor@_WV?$stream_output_adapter@_W@__crt_stdio_output@@V?$standard_base@_WV?$stream_output_adapter@_W@__crt_stdio_output@@@2@@__crt_stdio_output@@AAEXI_N@Z 10053ca0 f i libucrtd:output.obj
 0001:00052d80       ??$type_case_integer_parse_into_buffer@I$0BA@@?$output_processor@_WV?$string_output_adapter@_W@__crt_stdio_output@@V?$format_validation_base@_WV?$string_output_adapter@_W@__crt_stdio_output@@@2@@__crt_stdio_output@@AAEXI_N@Z 10053d80 f i libucrtd:output.obj
 0001:00052e60       ??$type_case_integer_parse_into_buffer@I$0BA@@?$output_processor@_WV?$string_output_adapter@_W@__crt_stdio_output@@V?$positional_parameter_base@_WV?$string_output_adapter@_W@__crt_stdio_output@@@2@@__crt_stdio_output@@AAEXI_N@Z 10053e60 f i libucrtd:output.obj
 0001:00052f40       ??$type_case_integer_parse_into_buffer@I$0BA@@?$output_processor@_WV?$string_output_adapter@_W@__crt_stdio_output@@V?$standard_base@_WV?$string_output_adapter@_W@__crt_stdio_output@@@2@@__crt_stdio_output@@AAEXI_N@Z 10053f40 f i libucrtd:output.obj
 0001:00053020       ??$type_case_integer_parse_into_buffer@_K$07@?$output_processor@DV?$stream_output_adapter@D@__crt_stdio_output@@V?$format_validation_base@DV?$stream_output_adapter@D@__crt_stdio_output@@@2@@__crt_stdio_output@@AAEX_K_N@Z 10054020 f i libucrtd:output.obj
 0001:00053110       ??$type_case_integer_parse_into_buffer@_K$07@?$output_processor@DV?$stream_output_adapter@D@__crt_stdio_output@@V?$positional_parameter_base@DV?$stream_output_adapter@D@__crt_stdio_output@@@2@@__crt_stdio_output@@AAEX_K_N@Z 10054110 f i libucrtd:output.obj
 0001:00053200       ??$type_case_integer_parse_into_buffer@_K$07@?$output_processor@DV?$stream_output_adapter@D@__crt_stdio_output@@V?$standard_base@DV?$stream_output_adapter@D@__crt_stdio_output@@@2@@__crt_stdio_output@@AAEX_K_N@Z 10054200 f i libucrtd:output.obj
 0001:000532f0       ??$type_case_integer_parse_into_buffer@_K$07@?$output_processor@DV?$string_output_adapter@D@__crt_stdio_output@@V?$format_validation_base@DV?$string_output_adapter@D@__crt_stdio_output@@@2@@__crt_stdio_output@@AAEX_K_N@Z 100542f0 f i libucrtd:output.obj
 0001:000533e0       ??$type_case_integer_parse_into_buffer@_K$07@?$output_processor@DV?$string_output_adapter@D@__crt_stdio_output@@V?$positional_parameter_base@DV?$string_output_adapter@D@__crt_stdio_output@@@2@@__crt_stdio_output@@AAEX_K_N@Z 100543e0 f i libucrtd:output.obj
 0001:000534d0       ??$type_case_integer_parse_into_buffer@_K$07@?$output_processor@DV?$string_output_adapter@D@__crt_stdio_output@@V?$standard_base@DV?$string_output_adapter@D@__crt_stdio_output@@@2@@__crt_stdio_output@@AAEX_K_N@Z 100544d0 f i libucrtd:output.obj
 0001:000535c0       ??$type_case_integer_parse_into_buffer@_K$07@?$output_processor@_WV?$stream_output_adapter@_W@__crt_stdio_output@@V?$format_validation_base@_WV?$stream_output_adapter@_W@__crt_stdio_output@@@2@@__crt_stdio_output@@AAEX_K_N@Z 100545c0 f i libucrtd:output.obj
 0001:000536c0       ??$type_case_integer_parse_into_buffer@_K$07@?$output_processor@_WV?$stream_output_adapter@_W@__crt_stdio_output@@V?$positional_parameter_base@_WV?$stream_output_adapter@_W@__crt_stdio_output@@@2@@__crt_stdio_output@@AAEX_K_N@Z 100546c0 f i libucrtd:output.obj
 0001:000537c0       ??$type_case_integer_parse_into_buffer@_K$07@?$output_processor@_WV?$stream_output_adapter@_W@__crt_stdio_output@@V?$standard_base@_WV?$stream_output_adapter@_W@__crt_stdio_output@@@2@@__crt_stdio_output@@AAEX_K_N@Z 100547c0 f i libucrtd:output.obj
 0001:000538c0       ??$type_case_integer_parse_into_buffer@_K$07@?$output_processor@_WV?$string_output_adapter@_W@__crt_stdio_output@@V?$format_validation_base@_WV?$string_output_adapter@_W@__crt_stdio_output@@@2@@__crt_stdio_output@@AAEX_K_N@Z 100548c0 f i libucrtd:output.obj
 0001:000539c0       ??$type_case_integer_parse_into_buffer@_K$07@?$output_processor@_WV?$string_output_adapter@_W@__crt_stdio_output@@V?$positional_parameter_base@_WV?$string_output_adapter@_W@__crt_stdio_output@@@2@@__crt_stdio_output@@AAEX_K_N@Z 100549c0 f i libucrtd:output.obj
 0001:00053ac0       ??$type_case_integer_parse_into_buffer@_K$07@?$output_processor@_WV?$string_output_adapter@_W@__crt_stdio_output@@V?$standard_base@_WV?$string_output_adapter@_W@__crt_stdio_output@@@2@@__crt_stdio_output@@AAEX_K_N@Z 10054ac0 f i libucrtd:output.obj
 0001:00053bc0       ??$type_case_integer_parse_into_buffer@_K$09@?$output_processor@DV?$stream_output_adapter@D@__crt_stdio_output@@V?$format_validation_base@DV?$stream_output_adapter@D@__crt_stdio_output@@@2@@__crt_stdio_output@@AAEX_K_N@Z 10054bc0 f i libucrtd:output.obj
 0001:00053cb0       ??$type_case_integer_parse_into_buffer@_K$09@?$output_processor@DV?$stream_output_adapter@D@__crt_stdio_output@@V?$positional_parameter_base@DV?$stream_output_adapter@D@__crt_stdio_output@@@2@@__crt_stdio_output@@AAEX_K_N@Z 10054cb0 f i libucrtd:output.obj
 0001:00053da0       ??$type_case_integer_parse_into_buffer@_K$09@?$output_processor@DV?$stream_output_adapter@D@__crt_stdio_output@@V?$standard_base@DV?$stream_output_adapter@D@__crt_stdio_output@@@2@@__crt_stdio_output@@AAEX_K_N@Z 10054da0 f i libucrtd:output.obj
 0001:00053e90       ??$type_case_integer_parse_into_buffer@_K$09@?$output_processor@DV?$string_output_adapter@D@__crt_stdio_output@@V?$format_validation_base@DV?$string_output_adapter@D@__crt_stdio_output@@@2@@__crt_stdio_output@@AAEX_K_N@Z 10054e90 f i libucrtd:output.obj
 0001:00053f80       ??$type_case_integer_parse_into_buffer@_K$09@?$output_processor@DV?$string_output_adapter@D@__crt_stdio_output@@V?$positional_parameter_base@DV?$string_output_adapter@D@__crt_stdio_output@@@2@@__crt_stdio_output@@AAEX_K_N@Z 10054f80 f i libucrtd:output.obj
 0001:00054070       ??$type_case_integer_parse_into_buffer@_K$09@?$output_processor@DV?$string_output_adapter@D@__crt_stdio_output@@V?$standard_base@DV?$string_output_adapter@D@__crt_stdio_output@@@2@@__crt_stdio_output@@AAEX_K_N@Z 10055070 f i libucrtd:output.obj
 0001:00054160       ??$type_case_integer_parse_into_buffer@_K$09@?$output_processor@_WV?$stream_output_adapter@_W@__crt_stdio_output@@V?$format_validation_base@_WV?$stream_output_adapter@_W@__crt_stdio_output@@@2@@__crt_stdio_output@@AAEX_K_N@Z 10055160 f i libucrtd:output.obj
 0001:00054260       ??$type_case_integer_parse_into_buffer@_K$09@?$output_processor@_WV?$stream_output_adapter@_W@__crt_stdio_output@@V?$positional_parameter_base@_WV?$stream_output_adapter@_W@__crt_stdio_output@@@2@@__crt_stdio_output@@AAEX_K_N@Z 10055260 f i libucrtd:output.obj
 0001:00054360       ??$type_case_integer_parse_into_buffer@_K$09@?$output_processor@_WV?$stream_output_adapter@_W@__crt_stdio_output@@V?$standard_base@_WV?$stream_output_adapter@_W@__crt_stdio_output@@@2@@__crt_stdio_output@@AAEX_K_N@Z 10055360 f i libucrtd:output.obj
 0001:00054460       ??$type_case_integer_parse_into_buffer@_K$09@?$output_processor@_WV?$string_output_adapter@_W@__crt_stdio_output@@V?$format_validation_base@_WV?$string_output_adapter@_W@__crt_stdio_output@@@2@@__crt_stdio_output@@AAEX_K_N@Z 10055460 f i libucrtd:output.obj
 0001:00054560       ??$type_case_integer_parse_into_buffer@_K$09@?$output_processor@_WV?$string_output_adapter@_W@__crt_stdio_output@@V?$positional_parameter_base@_WV?$string_output_adapter@_W@__crt_stdio_output@@@2@@__crt_stdio_output@@AAEX_K_N@Z 10055560 f i libucrtd:output.obj
 0001:00054660       ??$type_case_integer_parse_into_buffer@_K$09@?$output_processor@_WV?$string_output_adapter@_W@__crt_stdio_output@@V?$standard_base@_WV?$string_output_adapter@_W@__crt_stdio_output@@@2@@__crt_stdio_output@@AAEX_K_N@Z 10055660 f i libucrtd:output.obj
 0001:00054760       ??$type_case_integer_parse_into_buffer@_K$0BA@@?$output_processor@DV?$stream_output_adapter@D@__crt_stdio_output@@V?$format_validation_base@DV?$stream_output_adapter@D@__crt_stdio_output@@@2@@__crt_stdio_output@@AAEX_K_N@Z 10055760 f i libucrtd:output.obj
 0001:00054850       ??$type_case_integer_parse_into_buffer@_K$0BA@@?$output_processor@DV?$stream_output_adapter@D@__crt_stdio_output@@V?$positional_parameter_base@DV?$stream_output_adapter@D@__crt_stdio_output@@@2@@__crt_stdio_output@@AAEX_K_N@Z 10055850 f i libucrtd:output.obj
 0001:00054940       ??$type_case_integer_parse_into_buffer@_K$0BA@@?$output_processor@DV?$stream_output_adapter@D@__crt_stdio_output@@V?$standard_base@DV?$stream_output_adapter@D@__crt_stdio_output@@@2@@__crt_stdio_output@@AAEX_K_N@Z 10055940 f i libucrtd:output.obj
 0001:00054a30       ??$type_case_integer_parse_into_buffer@_K$0BA@@?$output_processor@DV?$string_output_adapter@D@__crt_stdio_output@@V?$format_validation_base@DV?$string_output_adapter@D@__crt_stdio_output@@@2@@__crt_stdio_output@@AAEX_K_N@Z 10055a30 f i libucrtd:output.obj
 0001:00054b20       ??$type_case_integer_parse_into_buffer@_K$0BA@@?$output_processor@DV?$string_output_adapter@D@__crt_stdio_output@@V?$positional_parameter_base@DV?$string_output_adapter@D@__crt_stdio_output@@@2@@__crt_stdio_output@@AAEX_K_N@Z 10055b20 f i libucrtd:output.obj
 0001:00054c10       ??$type_case_integer_parse_into_buffer@_K$0BA@@?$output_processor@DV?$string_output_adapter@D@__crt_stdio_output@@V?$standard_base@DV?$string_output_adapter@D@__crt_stdio_output@@@2@@__crt_stdio_output@@AAEX_K_N@Z 10055c10 f i libucrtd:output.obj
 0001:00054d00       ??$type_case_integer_parse_into_buffer@_K$0BA@@?$output_processor@_WV?$stream_output_adapter@_W@__crt_stdio_output@@V?$format_validation_base@_WV?$stream_output_adapter@_W@__crt_stdio_output@@@2@@__crt_stdio_output@@AAEX_K_N@Z 10055d00 f i libucrtd:output.obj
 0001:00054e00       ??$type_case_integer_parse_into_buffer@_K$0BA@@?$output_processor@_WV?$stream_output_adapter@_W@__crt_stdio_output@@V?$positional_parameter_base@_WV?$stream_output_adapter@_W@__crt_stdio_output@@@2@@__crt_stdio_output@@AAEX_K_N@Z 10055e00 f i libucrtd:output.obj
 0001:00054f00       ??$type_case_integer_parse_into_buffer@_K$0BA@@?$output_processor@_WV?$stream_output_adapter@_W@__crt_stdio_output@@V?$standard_base@_WV?$stream_output_adapter@_W@__crt_stdio_output@@@2@@__crt_stdio_output@@AAEX_K_N@Z 10055f00 f i libucrtd:output.obj
 0001:00055000       ??$type_case_integer_parse_into_buffer@_K$0BA@@?$output_processor@_WV?$string_output_adapter@_W@__crt_stdio_output@@V?$format_validation_base@_WV?$string_output_adapter@_W@__crt_stdio_output@@@2@@__crt_stdio_output@@AAEX_K_N@Z 10056000 f i libucrtd:output.obj
 0001:00055100       ??$type_case_integer_parse_into_buffer@_K$0BA@@?$output_processor@_WV?$string_output_adapter@_W@__crt_stdio_output@@V?$positional_parameter_base@_WV?$string_output_adapter@_W@__crt_stdio_output@@@2@@__crt_stdio_output@@AAEX_K_N@Z 10056100 f i libucrtd:output.obj
 0001:00055200       ??$type_case_integer_parse_into_buffer@_K$0BA@@?$output_processor@_WV?$string_output_adapter@_W@__crt_stdio_output@@V?$standard_base@_WV?$string_output_adapter@_W@__crt_stdio_output@@@2@@__crt_stdio_output@@AAEX_K_N@Z 10056200 f i libucrtd:output.obj
 0001:00055300       ??$write_multiple_characters@V?$stream_output_adapter@D@__crt_stdio_output@@D@__crt_stdio_output@@YAXABV?$stream_output_adapter@D@0@DHQAHAAV__crt_cached_ptd_host@@@Z 10056300 f i libucrtd:output.obj
 0001:00055350       ??$write_multiple_characters@V?$stream_output_adapter@_W@__crt_stdio_output@@D@__crt_stdio_output@@YAXABV?$stream_output_adapter@_W@0@DHQAHAAV__crt_cached_ptd_host@@@Z 10056350 f i libucrtd:output.obj
 0001:000553a0       ??$write_multiple_characters@V?$string_output_adapter@D@__crt_stdio_output@@D@__crt_stdio_output@@YAXABV?$string_output_adapter@D@0@DHQAHAAV__crt_cached_ptd_host@@@Z 100563a0 f i libucrtd:output.obj
 0001:000553f0       ??$write_multiple_characters@V?$string_output_adapter@_W@__crt_stdio_output@@D@__crt_stdio_output@@YAXABV?$string_output_adapter@_W@0@DHQAHAAV__crt_cached_ptd_host@@@Z 100563f0 f i libucrtd:output.obj
 0001:00055740       ??0?$c_string_character_source@D@__crt_strtox@@QAE@QBDQAPBD@Z 10056740 f i libucrtd:output.obj
 0001:00055780       ??0?$c_string_character_source@_W@__crt_strtox@@QAE@QB_WQAPB_W@Z 10056780 f i libucrtd:output.obj
 0001:000557c0       ??0?$cached@H@__crt_cached_ptd_host@@QAE@XZ 100567c0 f i libucrtd:output.obj
 0001:000557e0       ??0?$cached@K@__crt_cached_ptd_host@@QAE@XZ 100567e0 f i libucrtd:output.obj
 0001:00055800       ??0?$common_data@D@__crt_stdio_output@@IAE@AAV__crt_cached_ptd_host@@@Z 10056800 f i libucrtd:output.obj
 0001:000558a0       ??0?$common_data@_W@__crt_stdio_output@@IAE@AAV__crt_cached_ptd_host@@@Z 100568a0 f i libucrtd:output.obj
 0001:00055940       ??0?$output_adapter_data@DV?$stream_output_adapter@D@__crt_stdio_output@@@__crt_stdio_output@@IAE@ABV?$stream_output_adapter@D@1@_KQBDAAV__crt_cached_ptd_host@@QAD@Z 10056940 f i libucrtd:output.obj
 0001:000559c0       ??0?$output_adapter_data@DV?$string_output_adapter@D@__crt_stdio_output@@@__crt_stdio_output@@IAE@ABV?$string_output_adapter@D@1@_KQBDAAV__crt_cached_ptd_host@@QAD@Z 100569c0 f i libucrtd:output.obj
 0001:00055a40       ??0?$output_adapter_data@_WV?$stream_output_adapter@_W@__crt_stdio_output@@@__crt_stdio_output@@IAE@ABV?$stream_output_adapter@_W@1@_KQB_WAAV__crt_cached_ptd_host@@QAD@Z 10056a40 f i libucrtd:output.obj
 0001:00055ac0       ??0?$output_adapter_data@_WV?$string_output_adapter@_W@__crt_stdio_output@@@__crt_stdio_output@@IAE@ABV?$string_output_adapter@_W@1@_KQB_WAAV__crt_cached_ptd_host@@QAD@Z 10056ac0 f i libucrtd:output.obj
 0001:00055b40       ??0?$output_processor@DV?$stream_output_adapter@D@__crt_stdio_output@@V?$format_validation_base@DV?$stream_output_adapter@D@__crt_stdio_output@@@2@@__crt_stdio_output@@QAE@ABV?$stream_output_adapter@D@1@_KQBDAAV__crt_cached_ptd_host@@QAD@Z 10056b40 f i libucrtd:output.obj
 0001:00055b70       ??0?$output_processor@DV?$stream_output_adapter@D@__crt_stdio_output@@V?$positional_parameter_base@DV?$stream_output_adapter@D@__crt_stdio_output@@@2@@__crt_stdio_output@@QAE@ABV?$stream_output_adapter@D@1@_KQBDAAV__crt_cached_ptd_host@@QAD@Z 10056b70 f i libucrtd:output.obj
 0001:00055ba0       ??0?$output_processor@DV?$stream_output_adapter@D@__crt_stdio_output@@V?$standard_base@DV?$stream_output_adapter@D@__crt_stdio_output@@@2@@__crt_stdio_output@@QAE@ABV?$stream_output_adapter@D@1@_KQBDAAV__crt_cached_ptd_host@@QAD@Z 10056ba0 f i libucrtd:output.obj
 0001:00055bd0       ??0?$output_processor@DV?$string_output_adapter@D@__crt_stdio_output@@V?$format_validation_base@DV?$string_output_adapter@D@__crt_stdio_output@@@2@@__crt_stdio_output@@QAE@ABV?$string_output_adapter@D@1@_KQBDAAV__crt_cached_ptd_host@@QAD@Z 10056bd0 f i libucrtd:output.obj
 0001:00055c00       ??0?$output_processor@DV?$string_output_adapter@D@__crt_stdio_output@@V?$positional_parameter_base@DV?$string_output_adapter@D@__crt_stdio_output@@@2@@__crt_stdio_output@@QAE@ABV?$string_output_adapter@D@1@_KQBDAAV__crt_cached_ptd_host@@QAD@Z 10056c00 f i libucrtd:output.obj
 0001:00055c30       ??0?$output_processor@DV?$string_output_adapter@D@__crt_stdio_output@@V?$standard_base@DV?$string_output_adapter@D@__crt_stdio_output@@@2@@__crt_stdio_output@@QAE@ABV?$string_output_adapter@D@1@_KQBDAAV__crt_cached_ptd_host@@QAD@Z 10056c30 f i libucrtd:output.obj
 0001:00055c60       ??0?$output_processor@_WV?$stream_output_adapter@_W@__crt_stdio_output@@V?$format_validation_base@_WV?$stream_output_adapter@_W@__crt_stdio_output@@@2@@__crt_stdio_output@@QAE@ABV?$stream_output_adapter@_W@1@_KQB_WAAV__crt_cached_ptd_host@@QAD@Z 10056c60 f i libucrtd:output.obj
 0001:00055c90       ??0?$output_processor@_WV?$stream_output_adapter@_W@__crt_stdio_output@@V?$positional_parameter_base@_WV?$stream_output_adapter@_W@__crt_stdio_output@@@2@@__crt_stdio_output@@QAE@ABV?$stream_output_adapter@_W@1@_KQB_WAAV__crt_cached_ptd_host@@QAD@Z 10056c90 f i libucrtd:output.obj
 0001:00055cc0       ??0?$output_processor@_WV?$stream_output_adapter@_W@__crt_stdio_output@@V?$standard_base@_WV?$stream_output_adapter@_W@__crt_stdio_output@@@2@@__crt_stdio_output@@QAE@ABV?$stream_output_adapter@_W@1@_KQB_WAAV__crt_cached_ptd_host@@QAD@Z 10056cc0 f i libucrtd:output.obj
 0001:00055cf0       ??0?$output_processor@_WV?$string_output_adapter@_W@__crt_stdio_output@@V?$format_validation_base@_WV?$string_output_adapter@_W@__crt_stdio_output@@@2@@__crt_stdio_output@@QAE@ABV?$string_output_adapter@_W@1@_KQB_WAAV__crt_cached_ptd_host@@QAD@Z 10056cf0 f i libucrtd:output.obj
 0001:00055d20       ??0?$output_processor@_WV?$string_output_adapter@_W@__crt_stdio_output@@V?$positional_parameter_base@_WV?$string_output_adapter@_W@__crt_stdio_output@@@2@@__crt_stdio_output@@QAE@ABV?$string_output_adapter@_W@1@_KQB_WAAV__crt_cached_ptd_host@@QAD@Z 10056d20 f i libucrtd:output.obj
 0001:00055d50       ??0?$output_processor@_WV?$string_output_adapter@_W@__crt_stdio_output@@V?$standard_base@_WV?$string_output_adapter@_W@__crt_stdio_output@@@2@@__crt_stdio_output@@QAE@ABV?$string_output_adapter@_W@1@_KQB_WAAV__crt_cached_ptd_host@@QAD@Z 10056d50 f i libucrtd:output.obj
 0001:00055d80       ??0?$stream_output_adapter@D@__crt_stdio_output@@QAE@QAU_iobuf@@@Z 10056d80 f i libucrtd:output.obj
 0001:00055db0       ??0?$stream_output_adapter@_W@__crt_stdio_output@@QAE@QAU_iobuf@@@Z 10056db0 f i libucrtd:output.obj
 0001:00055de0       ??0?$string_output_adapter@D@__crt_stdio_output@@QAE@QAU?$string_output_adapter_context@D@1@@Z 10056de0 f i libucrtd:output.obj
 0001:00055e00       ??0?$string_output_adapter@_W@__crt_stdio_output@@QAE@QAU?$string_output_adapter_context@_W@1@@Z 10056e00 f i libucrtd:output.obj
 0001:00055e20       ??0__acrt_stdio_temporary_buffering_guard@@QAE@QAU_iobuf@@AAV__crt_cached_ptd_host@@@Z 10056e20 f i libucrtd:output.obj
 0001:00055e60       ??0__crt_cached_ptd_host@@QAE@QAU__crt_locale_pointers@@@Z 10056e60 f i libucrtd:output.obj
 0001:00055ef0       ??0__crt_scoped_get_last_error_reset@@QAE@XZ 10056ef0 f i libucrtd:output.obj
 0001:00055f10       ??0__crt_stdio_stream@@QAE@QAU_iobuf@@@Z 10056f10 f i libucrtd:output.obj
 0001:00055f30       ??0formatting_buffer@__crt_stdio_output@@QAE@XZ 10056f30 f i libucrtd:output.obj
 0001:00055f70       ??0guard@?$cached@H@__crt_cached_ptd_host@@QAE@AAU12@@Z 10056f70 f i libucrtd:output.obj
 0001:00055fb0       ??1?$c_string_character_source@D@__crt_strtox@@QAE@XZ 10056fb0 f i libucrtd:output.obj
 0001:00055fe0       ??1?$c_string_character_source@_W@__crt_strtox@@QAE@XZ 10056fe0 f i libucrtd:output.obj
 0001:00056010       ??1?$common_data@D@__crt_stdio_output@@QAE@XZ 10057010 f i libucrtd:output.obj
 0001:00056030       ??1?$common_data@_W@__crt_stdio_output@@QAE@XZ 10057030 f i libucrtd:output.obj
 0001:00056050       ??1?$format_validation_base@DV?$stream_output_adapter@D@__crt_stdio_output@@@__crt_stdio_output@@QAE@XZ 10057050 f i libucrtd:output.obj
 0001:00056070       ??1?$format_validation_base@DV?$string_output_adapter@D@__crt_stdio_output@@@__crt_stdio_output@@QAE@XZ 10057070 f i libucrtd:output.obj
 0001:00056090       ??1?$format_validation_base@_WV?$stream_output_adapter@_W@__crt_stdio_output@@@__crt_stdio_output@@QAE@XZ 10057090 f i libucrtd:output.obj
 0001:000560b0       ??1?$format_validation_base@_WV?$string_output_adapter@_W@__crt_stdio_output@@@__crt_stdio_output@@QAE@XZ 100570b0 f i libucrtd:output.obj
 0001:000560d0       ??1?$output_adapter_data@DV?$stream_output_adapter@D@__crt_stdio_output@@@__crt_stdio_output@@QAE@XZ 100570d0 f i libucrtd:output.obj
 0001:000560f0       ??1?$output_adapter_data@DV?$string_output_adapter@D@__crt_stdio_output@@@__crt_stdio_output@@QAE@XZ 100570f0 f i libucrtd:output.obj
 0001:00056110       ??1?$output_adapter_data@_WV?$stream_output_adapter@_W@__crt_stdio_output@@@__crt_stdio_output@@QAE@XZ 10057110 f i libucrtd:output.obj
 0001:00056130       ??1?$output_adapter_data@_WV?$string_output_adapter@_W@__crt_stdio_output@@@__crt_stdio_output@@QAE@XZ 10057130 f i libucrtd:output.obj
 0001:00056150       ??1?$output_processor@DV?$stream_output_adapter@D@__crt_stdio_output@@V?$format_validation_base@DV?$stream_output_adapter@D@__crt_stdio_output@@@2@@__crt_stdio_output@@QAE@XZ 10057150 f i libucrtd:output.obj
 0001:00056170       ??1?$output_processor@DV?$stream_output_adapter@D@__crt_stdio_output@@V?$positional_parameter_base@DV?$stream_output_adapter@D@__crt_stdio_output@@@2@@__crt_stdio_output@@QAE@XZ 10057170 f i libucrtd:output.obj
 0001:00056190       ??1?$output_processor@DV?$stream_output_adapter@D@__crt_stdio_output@@V?$standard_base@DV?$stream_output_adapter@D@__crt_stdio_output@@@2@@__crt_stdio_output@@QAE@XZ 10057190 f i libucrtd:output.obj
 0001:000561b0       ??1?$output_processor@DV?$string_output_adapter@D@__crt_stdio_output@@V?$format_validation_base@DV?$string_output_adapter@D@__crt_stdio_output@@@2@@__crt_stdio_output@@QAE@XZ 100571b0 f i libucrtd:output.obj
 0001:000561d0       ??1?$output_processor@DV?$string_output_adapter@D@__crt_stdio_output@@V?$positional_parameter_base@DV?$string_output_adapter@D@__crt_stdio_output@@@2@@__crt_stdio_output@@QAE@XZ 100571d0 f i libucrtd:output.obj
 0001:000561f0       ??1?$output_processor@DV?$string_output_adapter@D@__crt_stdio_output@@V?$standard_base@DV?$string_output_adapter@D@__crt_stdio_output@@@2@@__crt_stdio_output@@QAE@XZ 100571f0 f i libucrtd:output.obj
 0001:00056210       ??1?$output_processor@_WV?$stream_output_adapter@_W@__crt_stdio_output@@V?$format_validation_base@_WV?$stream_output_adapter@_W@__crt_stdio_output@@@2@@__crt_stdio_output@@QAE@XZ 10057210 f i libucrtd:output.obj
 0001:00056230       ??1?$output_processor@_WV?$stream_output_adapter@_W@__crt_stdio_output@@V?$positional_parameter_base@_WV?$stream_output_adapter@_W@__crt_stdio_output@@@2@@__crt_stdio_output@@QAE@XZ 10057230 f i libucrtd:output.obj
 0001:00056250       ??1?$output_processor@_WV?$stream_output_adapter@_W@__crt_stdio_output@@V?$standard_base@_WV?$stream_output_adapter@_W@__crt_stdio_output@@@2@@__crt_stdio_output@@QAE@XZ 10057250 f i libucrtd:output.obj
 0001:00056270       ??1?$output_processor@_WV?$string_output_adapter@_W@__crt_stdio_output@@V?$format_validation_base@_WV?$string_output_adapter@_W@__crt_stdio_output@@@2@@__crt_stdio_output@@QAE@XZ 10057270 f i libucrtd:output.obj
 0001:00056290       ??1?$output_processor@_WV?$string_output_adapter@_W@__crt_stdio_output@@V?$positional_parameter_base@_WV?$string_output_adapter@_W@__crt_stdio_output@@@2@@__crt_stdio_output@@QAE@XZ 10057290 f i libucrtd:output.obj
 0001:000562b0       ??1?$output_processor@_WV?$string_output_adapter@_W@__crt_stdio_output@@V?$standard_base@_WV?$string_output_adapter@_W@__crt_stdio_output@@@2@@__crt_stdio_output@@QAE@XZ 100572b0 f i libucrtd:output.obj
 0001:000562d0       ??1?$positional_parameter_base@DV?$stream_output_adapter@D@__crt_stdio_output@@@__crt_stdio_output@@QAE@XZ 100572d0 f i libucrtd:output.obj
 0001:000562f0       ??1?$positional_parameter_base@DV?$string_output_adapter@D@__crt_stdio_output@@@__crt_stdio_output@@QAE@XZ 100572f0 f i libucrtd:output.obj
 0001:00056310       ??1?$positional_parameter_base@_WV?$stream_output_adapter@_W@__crt_stdio_output@@@__crt_stdio_output@@QAE@XZ 10057310 f i libucrtd:output.obj
 0001:00056330       ??1?$positional_parameter_base@_WV?$string_output_adapter@_W@__crt_stdio_output@@@__crt_stdio_output@@QAE@XZ 10057330 f i libucrtd:output.obj
 0001:00056350       ??1?$standard_base@DV?$stream_output_adapter@D@__crt_stdio_output@@@__crt_stdio_output@@QAE@XZ 10057350 f i libucrtd:output.obj
 0001:00056370       ??1?$standard_base@DV?$string_output_adapter@D@__crt_stdio_output@@@__crt_stdio_output@@QAE@XZ 10057370 f i libucrtd:output.obj
 0001:00056390       ??1?$standard_base@_WV?$stream_output_adapter@_W@__crt_stdio_output@@@__crt_stdio_output@@QAE@XZ 10057390 f i libucrtd:output.obj
 0001:000563b0       ??1?$standard_base@_WV?$string_output_adapter@_W@__crt_stdio_output@@@__crt_stdio_output@@QAE@XZ 100573b0 f i libucrtd:output.obj
 0001:000563d0       ??1__acrt_stdio_temporary_buffering_guard@@QAE@XZ 100573d0 f i libucrtd:output.obj
 0001:00056400       ??1__crt_cached_ptd_host@@QAE@XZ 10057400 f i libucrtd:output.obj
 0001:00056490       ??1__crt_scoped_get_last_error_reset@@QAE@XZ 10057490 f i libucrtd:output.obj
 0001:000564b0       ??1formatting_buffer@__crt_stdio_output@@QAE@XZ 100574b0 f i libucrtd:output.obj
 0001:000564d0       ??1guard@?$cached@H@__crt_cached_ptd_host@@QAE@XZ 100574d0 f i libucrtd:output.obj
 0001:00056500       ??4?$__crt_unique_heap_ptr@DU__crt_internal_free_policy@@@@QAEAAV0@$$QAV0@@Z 10057500 f i libucrtd:output.obj
 0001:00056530       ??A?$spectre_mitigated_lookup_table@Ustate_transition_pair@__crt_stdio_output@@$0IA@@__crt_stdio_output@@QBEABUstate_transition_pair@1@I@Z 10057530 f i libucrtd:output.obj
 0001:00056550       ??C__crt_stdio_stream@@QBEPAU__crt_stdio_stream_data@@XZ 10057550 f i libucrtd:output.obj
 0001:00056db0       ?adjust_hexit@?$output_processor@DV?$stream_output_adapter@D@__crt_stdio_output@@V?$format_validation_base@DV?$stream_output_adapter@D@__crt_stdio_output@@@2@@__crt_stdio_output@@CADH_N@Z 10057db0 f i libucrtd:output.obj
 0001:00056df0       ?adjust_hexit@?$output_processor@DV?$stream_output_adapter@D@__crt_stdio_output@@V?$positional_parameter_base@DV?$stream_output_adapter@D@__crt_stdio_output@@@2@@__crt_stdio_output@@CADH_N@Z 10057df0 f i libucrtd:output.obj
 0001:00056e30       ?adjust_hexit@?$output_processor@DV?$stream_output_adapter@D@__crt_stdio_output@@V?$standard_base@DV?$stream_output_adapter@D@__crt_stdio_output@@@2@@__crt_stdio_output@@CADH_N@Z 10057e30 f i libucrtd:output.obj
 0001:00056e70       ?adjust_hexit@?$output_processor@DV?$string_output_adapter@D@__crt_stdio_output@@V?$format_validation_base@DV?$string_output_adapter@D@__crt_stdio_output@@@2@@__crt_stdio_output@@CADH_N@Z 10057e70 f i libucrtd:output.obj
 0001:00056eb0       ?adjust_hexit@?$output_processor@DV?$string_output_adapter@D@__crt_stdio_output@@V?$positional_parameter_base@DV?$string_output_adapter@D@__crt_stdio_output@@@2@@__crt_stdio_output@@CADH_N@Z 10057eb0 f i libucrtd:output.obj
 0001:00056ef0       ?adjust_hexit@?$output_processor@DV?$string_output_adapter@D@__crt_stdio_output@@V?$standard_base@DV?$string_output_adapter@D@__crt_stdio_output@@@2@@__crt_stdio_output@@CADH_N@Z 10057ef0 f i libucrtd:output.obj
 0001:00056f30       ?adjust_hexit@?$output_processor@_WV?$stream_output_adapter@_W@__crt_stdio_output@@V?$format_validation_base@_WV?$stream_output_adapter@_W@__crt_stdio_output@@@2@@__crt_stdio_output@@CADH_N@Z 10057f30 f i libucrtd:output.obj
 0001:00056f70       ?adjust_hexit@?$output_processor@_WV?$stream_output_adapter@_W@__crt_stdio_output@@V?$positional_parameter_base@_WV?$stream_output_adapter@_W@__crt_stdio_output@@@2@@__crt_stdio_output@@CADH_N@Z 10057f70 f i libucrtd:output.obj
 0001:00056fb0       ?adjust_hexit@?$output_processor@_WV?$stream_output_adapter@_W@__crt_stdio_output@@V?$standard_base@_WV?$stream_output_adapter@_W@__crt_stdio_output@@@2@@__crt_stdio_output@@CADH_N@Z 10057fb0 f i libucrtd:output.obj
 0001:00056ff0       ?adjust_hexit@?$output_processor@_WV?$string_output_adapter@_W@__crt_stdio_output@@V?$format_validation_base@_WV?$string_output_adapter@_W@__crt_stdio_output@@@2@@__crt_stdio_output@@CADH_N@Z 10057ff0 f i libucrtd:output.obj
 0001:00057030       ?adjust_hexit@?$output_processor@_WV?$string_output_adapter@_W@__crt_stdio_output@@V?$positional_parameter_base@_WV?$string_output_adapter@_W@__crt_stdio_output@@@2@@__crt_stdio_output@@CADH_N@Z 10058030 f i libucrtd:output.obj
 0001:00057070       ?adjust_hexit@?$output_processor@_WV?$string_output_adapter@_W@__crt_stdio_output@@V?$standard_base@_WV?$string_output_adapter@_W@__crt_stdio_output@@@2@@__crt_stdio_output@@CADH_N@Z 10058070 f i libucrtd:output.obj
 0001:000570b0       ?advance_to_next_pass@?$positional_parameter_base@DV?$stream_output_adapter@D@__crt_stdio_output@@@__crt_stdio_output@@IAE_NXZ 100580b0 f i libucrtd:output.obj
 0001:00057150       ?advance_to_next_pass@?$positional_parameter_base@DV?$string_output_adapter@D@__crt_stdio_output@@@__crt_stdio_output@@IAE_NXZ 10058150 f i libucrtd:output.obj
 0001:000571f0       ?advance_to_next_pass@?$positional_parameter_base@_WV?$stream_output_adapter@_W@__crt_stdio_output@@@__crt_stdio_output@@IAE_NXZ 100581f0 f i libucrtd:output.obj
 0001:00057290       ?advance_to_next_pass@?$positional_parameter_base@_WV?$string_output_adapter@_W@__crt_stdio_output@@@__crt_stdio_output@@IAE_NXZ 10058290 f i libucrtd:output.obj
 0001:00057330       ?advance_to_next_pass@?$standard_base@DV?$stream_output_adapter@D@__crt_stdio_output@@@__crt_stdio_output@@IAE_NXZ 10058330 f i libucrtd:output.obj
 0001:00057380       ?advance_to_next_pass@?$standard_base@DV?$string_output_adapter@D@__crt_stdio_output@@@__crt_stdio_output@@IAE_NXZ 10058380 f i libucrtd:output.obj
 0001:000573d0       ?advance_to_next_pass@?$standard_base@_WV?$stream_output_adapter@_W@__crt_stdio_output@@@__crt_stdio_output@@IAE_NXZ 100583d0 f i libucrtd:output.obj
 0001:00057420       ?advance_to_next_pass@?$standard_base@_WV?$string_output_adapter@_W@__crt_stdio_output@@@__crt_stdio_output@@IAE_NXZ 10058420 f i libucrtd:output.obj
 0001:00057470       ?check@?$cached@H@__crt_cached_ptd_host@@QBE_NH@Z 10058470 f i libucrtd:output.obj
 0001:000574b0       ?check_synchronize_global_state_index@__crt_cached_ptd_host@@AAEIABV__crt_scoped_get_last_error_reset@@@Z 100584b0 f i libucrtd:output.obj
 0001:000574e0       ?check_synchronize_per_thread_data@__crt_cached_ptd_host@@AAEPAU__acrt_ptd@@XZ 100584e0 f i libucrtd:output.obj
 0001:00057510       ?create_guard@?$cached@H@__crt_cached_ptd_host@@QAE?AVguard@12@XZ 10058510 f i libucrtd:output.obj
 0001:00057530       ?crop_zeroes@__crt_stdio_output@@YAXPADQAU__crt_locale_pointers@@@Z 10058530 f i libucrtd:output.obj
 0001:00057630       ?disable@guard@?$cached@H@__crt_cached_ptd_host@@QAEXXZ 10058630 f i libucrtd:output.obj
 0001:00057650       ?enable@guard@?$cached@H@__crt_cached_ptd_host@@QAEXXZ 10058650 f i libucrtd:output.obj
 0001:00057670       ?find_next_state@?$output_processor@DV?$stream_output_adapter@D@__crt_stdio_output@@V?$format_validation_base@DV?$stream_output_adapter@D@__crt_stdio_output@@@2@@__crt_stdio_output@@ABE?AW4state@2@DW432@@Z 10058670 f i libucrtd:output.obj
 0001:00057710       ?find_next_state@?$output_processor@DV?$stream_output_adapter@D@__crt_stdio_output@@V?$positional_parameter_base@DV?$stream_output_adapter@D@__crt_stdio_output@@@2@@__crt_stdio_output@@ABE?AW4state@2@DW432@@Z 10058710 f i libucrtd:output.obj
 0001:000577b0       ?find_next_state@?$output_processor@DV?$stream_output_adapter@D@__crt_stdio_output@@V?$standard_base@DV?$stream_output_adapter@D@__crt_stdio_output@@@2@@__crt_stdio_output@@ABE?AW4state@2@DW432@@Z 100587b0 f i libucrtd:output.obj
 0001:00057850       ?find_next_state@?$output_processor@DV?$string_output_adapter@D@__crt_stdio_output@@V?$format_validation_base@DV?$string_output_adapter@D@__crt_stdio_output@@@2@@__crt_stdio_output@@ABE?AW4state@2@DW432@@Z 10058850 f i libucrtd:output.obj
 0001:000578f0       ?find_next_state@?$output_processor@DV?$string_output_adapter@D@__crt_stdio_output@@V?$positional_parameter_base@DV?$string_output_adapter@D@__crt_stdio_output@@@2@@__crt_stdio_output@@ABE?AW4state@2@DW432@@Z 100588f0 f i libucrtd:output.obj
 0001:00057990       ?find_next_state@?$output_processor@DV?$string_output_adapter@D@__crt_stdio_output@@V?$standard_base@DV?$string_output_adapter@D@__crt_stdio_output@@@2@@__crt_stdio_output@@ABE?AW4state@2@DW432@@Z 10058990 f i libucrtd:output.obj
 0001:00057a30       ?find_next_state@?$output_processor@_WV?$stream_output_adapter@_W@__crt_stdio_output@@V?$format_validation_base@_WV?$stream_output_adapter@_W@__crt_stdio_output@@@2@@__crt_stdio_output@@ABE?AW4state@2@_WW432@@Z 10058a30 f i libucrtd:output.obj
 0001:00057ad0       ?find_next_state@?$output_processor@_WV?$stream_output_adapter@_W@__crt_stdio_output@@V?$positional_parameter_base@_WV?$stream_output_adapter@_W@__crt_stdio_output@@@2@@__crt_stdio_output@@ABE?AW4state@2@_WW432@@Z 10058ad0 f i libucrtd:output.obj
 0001:00057b70       ?find_next_state@?$output_processor@_WV?$stream_output_adapter@_W@__crt_stdio_output@@V?$standard_base@_WV?$stream_output_adapter@_W@__crt_stdio_output@@@2@@__crt_stdio_output@@ABE?AW4state@2@_WW432@@Z 10058b70 f i libucrtd:output.obj
 0001:00057c10       ?find_next_state@?$output_processor@_WV?$string_output_adapter@_W@__crt_stdio_output@@V?$format_validation_base@_WV?$string_output_adapter@_W@__crt_stdio_output@@@2@@__crt_stdio_output@@ABE?AW4state@2@_WW432@@Z 10058c10 f i libucrtd:output.obj
 0001:00057cb0       ?find_next_state@?$output_processor@_WV?$string_output_adapter@_W@__crt_stdio_output@@V?$positional_parameter_base@_WV?$string_output_adapter@_W@__crt_stdio_output@@@2@@__crt_stdio_output@@ABE?AW4state@2@_WW432@@Z 10058cb0 f i libucrtd:output.obj
 0001:00057d50       ?find_next_state@?$output_processor@_WV?$string_output_adapter@_W@__crt_stdio_output@@V?$standard_base@_WV?$string_output_adapter@_W@__crt_stdio_output@@@2@@__crt_stdio_output@@ABE?AW4state@2@_WW432@@Z 10058d50 f i libucrtd:output.obj
 0001:00057df0       ?force_decimal_point@__crt_stdio_output@@YAXPADQAU__crt_locale_pointers@@@Z 10058df0 f i libucrtd:output.obj
 0001:00057ec0       ?force_synchronize_global_state_index@__crt_cached_ptd_host@@AAEIABV__crt_scoped_get_last_error_reset@@@Z 10058ec0 f i libucrtd:output.obj
 0001:00057ef0       ?force_synchronize_per_thread_data@__crt_cached_ptd_host@@AAEPAU__acrt_ptd@@XZ 10058ef0 f i libucrtd:output.obj
 0001:00057f40       ?get@?$c_string_character_source@D@__crt_strtox@@QAEDXZ 10058f40 f i libucrtd:output.obj
 0001:00057f70       ?get@?$c_string_character_source@_W@__crt_strtox@@QAE_WXZ 10058f70 f i libucrtd:output.obj
 0001:00057fa0       ?get_current_state_index@__crt_state_management@@YAIABV__crt_scoped_get_last_error_reset@@@Z 10058fa0 f i libucrtd:output.obj
 0001:00057fb0       ?get_errno@__crt_cached_ptd_host@@QAEAAU?$cached@H@1@XZ 10058fb0 f i libucrtd:output.obj
 0001:00057fd0       ?get_flags@__crt_stdio_stream@@QBEJXZ 10058fd0 f i libucrtd:output.obj
 0001:00057ff0       ?get_locale@__crt_cached_ptd_host@@QAEPAU__crt_locale_pointers@@XZ 10058ff0 f i libucrtd:output.obj
 0001:00058010       ?get_parameter_type@?$positional_parameter_base@DV?$stream_output_adapter@D@__crt_stdio_output@@@__crt_stdio_output@@CA?AW4parameter_type@12@F@Z 10059010 f i libucrtd:output.obj
 0001:00058020       ?get_parameter_type@?$positional_parameter_base@DV?$stream_output_adapter@D@__crt_stdio_output@@@__crt_stdio_output@@CA?AW4parameter_type@12@G@Z 10059020 f i libucrtd:output.obj
 0001:00058030       ?get_parameter_type@?$positional_parameter_base@DV?$stream_output_adapter@D@__crt_stdio_output@@@__crt_stdio_output@@CA?AW4parameter_type@12@H@Z 10059030 f i libucrtd:output.obj
 0001:00058040       ?get_parameter_type@?$positional_parameter_base@DV?$stream_output_adapter@D@__crt_stdio_output@@@__crt_stdio_output@@CA?AW4parameter_type@12@I@Z 10059040 f i libucrtd:output.obj
 0001:00058050       ?get_parameter_type@?$positional_parameter_base@DV?$stream_output_adapter@D@__crt_stdio_output@@@__crt_stdio_output@@CA?AW4parameter_type@12@U_CRT_DOUBLE@@@Z 10059050 f i libucrtd:output.obj
 0001:00058060       ?get_parameter_type@?$positional_parameter_base@DV?$stream_output_adapter@D@__crt_stdio_output@@@__crt_stdio_output@@CA?AW4parameter_type@12@_J@Z 10059060 f i libucrtd:output.obj
 0001:00058070       ?get_parameter_type@?$positional_parameter_base@DV?$stream_output_adapter@D@__crt_stdio_output@@@__crt_stdio_output@@CA?AW4parameter_type@12@_K@Z 10059070 f i libucrtd:output.obj
 0001:00058080       ?get_parameter_type@?$positional_parameter_base@DV?$stream_output_adapter@D@__crt_stdio_output@@@__crt_stdio_output@@CA?AW4parameter_type@12@_W@Z 10059080 f i libucrtd:output.obj
 0001:00058090       ?get_parameter_type@?$positional_parameter_base@DV?$string_output_adapter@D@__crt_stdio_output@@@__crt_stdio_output@@CA?AW4parameter_type@12@F@Z 10059090 f i libucrtd:output.obj
 0001:000580a0       ?get_parameter_type@?$positional_parameter_base@DV?$string_output_adapter@D@__crt_stdio_output@@@__crt_stdio_output@@CA?AW4parameter_type@12@G@Z 100590a0 f i libucrtd:output.obj
 0001:000580b0       ?get_parameter_type@?$positional_parameter_base@DV?$string_output_adapter@D@__crt_stdio_output@@@__crt_stdio_output@@CA?AW4parameter_type@12@H@Z 100590b0 f i libucrtd:output.obj
 0001:000580c0       ?get_parameter_type@?$positional_parameter_base@DV?$string_output_adapter@D@__crt_stdio_output@@@__crt_stdio_output@@CA?AW4parameter_type@12@I@Z 100590c0 f i libucrtd:output.obj
 0001:000580d0       ?get_parameter_type@?$positional_parameter_base@DV?$string_output_adapter@D@__crt_stdio_output@@@__crt_stdio_output@@CA?AW4parameter_type@12@U_CRT_DOUBLE@@@Z 100590d0 f i libucrtd:output.obj
 0001:000580e0       ?get_parameter_type@?$positional_parameter_base@DV?$string_output_adapter@D@__crt_stdio_output@@@__crt_stdio_output@@CA?AW4parameter_type@12@_J@Z 100590e0 f i libucrtd:output.obj
 0001:000580f0       ?get_parameter_type@?$positional_parameter_base@DV?$string_output_adapter@D@__crt_stdio_output@@@__crt_stdio_output@@CA?AW4parameter_type@12@_K@Z 100590f0 f i libucrtd:output.obj
 0001:00058100       ?get_parameter_type@?$positional_parameter_base@DV?$string_output_adapter@D@__crt_stdio_output@@@__crt_stdio_output@@CA?AW4parameter_type@12@_W@Z 10059100 f i libucrtd:output.obj
 0001:00058110       ?get_parameter_type@?$positional_parameter_base@_WV?$stream_output_adapter@_W@__crt_stdio_output@@@__crt_stdio_output@@CA?AW4parameter_type@12@F@Z 10059110 f i libucrtd:output.obj
 0001:00058120       ?get_parameter_type@?$positional_parameter_base@_WV?$stream_output_adapter@_W@__crt_stdio_output@@@__crt_stdio_output@@CA?AW4parameter_type@12@G@Z 10059120 f i libucrtd:output.obj
 0001:00058130       ?get_parameter_type@?$positional_parameter_base@_WV?$stream_output_adapter@_W@__crt_stdio_output@@@__crt_stdio_output@@CA?AW4parameter_type@12@H@Z 10059130 f i libucrtd:output.obj
 0001:00058140       ?get_parameter_type@?$positional_parameter_base@_WV?$stream_output_adapter@_W@__crt_stdio_output@@@__crt_stdio_output@@CA?AW4parameter_type@12@I@Z 10059140 f i libucrtd:output.obj
 0001:00058150       ?get_parameter_type@?$positional_parameter_base@_WV?$stream_output_adapter@_W@__crt_stdio_output@@@__crt_stdio_output@@CA?AW4parameter_type@12@U_CRT_DOUBLE@@@Z 10059150 f i libucrtd:output.obj
 0001:00058160       ?get_parameter_type@?$positional_parameter_base@_WV?$stream_output_adapter@_W@__crt_stdio_output@@@__crt_stdio_output@@CA?AW4parameter_type@12@_J@Z 10059160 f i libucrtd:output.obj
 0001:00058170       ?get_parameter_type@?$positional_parameter_base@_WV?$stream_output_adapter@_W@__crt_stdio_output@@@__crt_stdio_output@@CA?AW4parameter_type@12@_K@Z 10059170 f i libucrtd:output.obj
 0001:00058180       ?get_parameter_type@?$positional_parameter_base@_WV?$stream_output_adapter@_W@__crt_stdio_output@@@__crt_stdio_output@@CA?AW4parameter_type@12@_W@Z 10059180 f i libucrtd:output.obj
 0001:00058190       ?get_parameter_type@?$positional_parameter_base@_WV?$string_output_adapter@_W@__crt_stdio_output@@@__crt_stdio_output@@CA?AW4parameter_type@12@F@Z 10059190 f i libucrtd:output.obj
 0001:000581a0       ?get_parameter_type@?$positional_parameter_base@_WV?$string_output_adapter@_W@__crt_stdio_output@@@__crt_stdio_output@@CA?AW4parameter_type@12@G@Z 100591a0 f i libucrtd:output.obj
 0001:000581b0       ?get_parameter_type@?$positional_parameter_base@_WV?$string_output_adapter@_W@__crt_stdio_output@@@__crt_stdio_output@@CA?AW4parameter_type@12@H@Z 100591b0 f i libucrtd:output.obj
 0001:000581c0       ?get_parameter_type@?$positional_parameter_base@_WV?$string_output_adapter@_W@__crt_stdio_output@@@__crt_stdio_output@@CA?AW4parameter_type@12@I@Z 100591c0 f i libucrtd:output.obj
 0001:000581d0       ?get_parameter_type@?$positional_parameter_base@_WV?$string_output_adapter@_W@__crt_stdio_output@@@__crt_stdio_output@@CA?AW4parameter_type@12@U_CRT_DOUBLE@@@Z 100591d0 f i libucrtd:output.obj
 0001:000581e0       ?get_parameter_type@?$positional_parameter_base@_WV?$string_output_adapter@_W@__crt_stdio_output@@@__crt_stdio_output@@CA?AW4parameter_type@12@_J@Z 100591e0 f i libucrtd:output.obj
 0001:000581f0       ?get_parameter_type@?$positional_parameter_base@_WV?$string_output_adapter@_W@__crt_stdio_output@@@__crt_stdio_output@@CA?AW4parameter_type@12@_K@Z 100591f0 f i libucrtd:output.obj
 0001:00058200       ?get_parameter_type@?$positional_parameter_base@_WV?$string_output_adapter@_W@__crt_stdio_output@@@__crt_stdio_output@@CA?AW4parameter_type@12@_W@Z 10059200 f i libucrtd:output.obj
 0001:00058210       ?get_raw_ptd@__crt_cached_ptd_host@@QAEPAU__acrt_ptd@@XZ 10059210 f i libucrtd:output.obj
 0001:00058230       ?has_flag@?$output_processor@DV?$stream_output_adapter@D@__crt_stdio_output@@V?$format_validation_base@DV?$stream_output_adapter@D@__crt_stdio_output@@@2@@__crt_stdio_output@@ABE_NI@Z 10059230 f i libucrtd:output.obj
 0001:00058260       ?has_flag@?$output_processor@DV?$stream_output_adapter@D@__crt_stdio_output@@V?$positional_parameter_base@DV?$stream_output_adapter@D@__crt_stdio_output@@@2@@__crt_stdio_output@@ABE_NI@Z 10059260 f i libucrtd:output.obj
 0001:00058290       ?has_flag@?$output_processor@DV?$stream_output_adapter@D@__crt_stdio_output@@V?$standard_base@DV?$stream_output_adapter@D@__crt_stdio_output@@@2@@__crt_stdio_output@@ABE_NI@Z 10059290 f i libucrtd:output.obj
 0001:000582c0       ?has_flag@?$output_processor@DV?$string_output_adapter@D@__crt_stdio_output@@V?$format_validation_base@DV?$string_output_adapter@D@__crt_stdio_output@@@2@@__crt_stdio_output@@ABE_NI@Z 100592c0 f i libucrtd:output.obj
 0001:000582f0       ?has_flag@?$output_processor@DV?$string_output_adapter@D@__crt_stdio_output@@V?$positional_parameter_base@DV?$string_output_adapter@D@__crt_stdio_output@@@2@@__crt_stdio_output@@ABE_NI@Z 100592f0 f i libucrtd:output.obj
 0001:00058320       ?has_flag@?$output_processor@DV?$string_output_adapter@D@__crt_stdio_output@@V?$standard_base@DV?$string_output_adapter@D@__crt_stdio_output@@@2@@__crt_stdio_output@@ABE_NI@Z 10059320 f i libucrtd:output.obj
 0001:00058350       ?has_flag@?$output_processor@_WV?$stream_output_adapter@_W@__crt_stdio_output@@V?$format_validation_base@_WV?$stream_output_adapter@_W@__crt_stdio_output@@@2@@__crt_stdio_output@@ABE_NI@Z 10059350 f i libucrtd:output.obj
 0001:00058380       ?has_flag@?$output_processor@_WV?$stream_output_adapter@_W@__crt_stdio_output@@V?$positional_parameter_base@_WV?$stream_output_adapter@_W@__crt_stdio_output@@@2@@__crt_stdio_output@@ABE_NI@Z 10059380 f i libucrtd:output.obj
 0001:000583b0       ?has_flag@?$output_processor@_WV?$stream_output_adapter@_W@__crt_stdio_output@@V?$standard_base@_WV?$stream_output_adapter@_W@__crt_stdio_output@@@2@@__crt_stdio_output@@ABE_NI@Z 100593b0 f i libucrtd:output.obj
 0001:000583e0       ?has_flag@?$output_processor@_WV?$string_output_adapter@_W@__crt_stdio_output@@V?$format_validation_base@_WV?$string_output_adapter@_W@__crt_stdio_output@@@2@@__crt_stdio_output@@ABE_NI@Z 100593e0 f i libucrtd:output.obj
 0001:00058410       ?has_flag@?$output_processor@_WV?$string_output_adapter@_W@__crt_stdio_output@@V?$positional_parameter_base@_WV?$string_output_adapter@_W@__crt_stdio_output@@@2@@__crt_stdio_output@@ABE_NI@Z 10059410 f i libucrtd:output.obj
 0001:00058440       ?has_flag@?$output_processor@_WV?$string_output_adapter@_W@__crt_stdio_output@@V?$standard_base@_WV?$string_output_adapter@_W@__crt_stdio_output@@@2@@__crt_stdio_output@@ABE_NI@Z 10059440 f i libucrtd:output.obj
 0001:00058470       ?is_positional_parameter_reappearance_consistent@?$positional_parameter_base@DV?$stream_output_adapter@D@__crt_stdio_output@@@__crt_stdio_output@@AAE_NABUparameter_data@12@W4parameter_type@12@DW4length_modifier@2@@Z 10059470 f i libucrtd:output.obj
 0001:000586a0       ?is_positional_parameter_reappearance_consistent@?$positional_parameter_base@DV?$string_output_adapter@D@__crt_stdio_output@@@__crt_stdio_output@@AAE_NABUparameter_data@12@W4parameter_type@12@DW4length_modifier@2@@Z 100596a0 f i libucrtd:output.obj
 0001:000588d0       ?is_positional_parameter_reappearance_consistent@?$positional_parameter_base@_WV?$stream_output_adapter@_W@__crt_stdio_output@@@__crt_stdio_output@@AAE_NABUparameter_data@12@W4parameter_type@12@_WW4length_modifier@2@@Z 100598d0 f i libucrtd:output.obj
 0001:00058b00       ?is_positional_parameter_reappearance_consistent@?$positional_parameter_base@_WV?$string_output_adapter@_W@__crt_stdio_output@@@__crt_stdio_output@@AAE_NABUparameter_data@12@W4parameter_type@12@_WW4length_modifier@2@@Z 10059b00 f i libucrtd:output.obj
 0001:00058d30       ?is_string_backed@__crt_stdio_stream@@QBE_NXZ 10059d30 f i libucrtd:output.obj
 0001:00058d70       ?maximum_signed_value@__crt_strtox@@YAJK@Z 10059d70 f i libucrtd:output.obj
 0001:00058d80       ?minimum_signed_value@__crt_strtox@@YAJK@Z 10059d80 f i libucrtd:output.obj
 0001:00058d90       ?narrow_null_string@?$output_processor@DV?$stream_output_adapter@D@__crt_stdio_output@@V?$format_validation_base@DV?$stream_output_adapter@D@__crt_stdio_output@@@2@@__crt_stdio_output@@CAPADXZ 10059d90 f i libucrtd:output.obj
 0001:00058da0       ?narrow_null_string@?$output_processor@DV?$stream_output_adapter@D@__crt_stdio_output@@V?$positional_parameter_base@DV?$stream_output_adapter@D@__crt_stdio_output@@@2@@__crt_stdio_output@@CAPADXZ 10059da0 f i libucrtd:output.obj
 0001:00058db0       ?narrow_null_string@?$output_processor@DV?$stream_output_adapter@D@__crt_stdio_output@@V?$standard_base@DV?$stream_output_adapter@D@__crt_stdio_output@@@2@@__crt_stdio_output@@CAPADXZ 10059db0 f i libucrtd:output.obj
 0001:00058dc0       ?narrow_null_string@?$output_processor@DV?$string_output_adapter@D@__crt_stdio_output@@V?$format_validation_base@DV?$string_output_adapter@D@__crt_stdio_output@@@2@@__crt_stdio_output@@CAPADXZ 10059dc0 f i libucrtd:output.obj
 0001:00058dd0       ?narrow_null_string@?$output_processor@DV?$string_output_adapter@D@__crt_stdio_output@@V?$positional_parameter_base@DV?$string_output_adapter@D@__crt_stdio_output@@@2@@__crt_stdio_output@@CAPADXZ 10059dd0 f i libucrtd:output.obj
 0001:00058de0       ?narrow_null_string@?$output_processor@DV?$string_output_adapter@D@__crt_stdio_output@@V?$standard_base@DV?$string_output_adapter@D@__crt_stdio_output@@@2@@__crt_stdio_output@@CAPADXZ 10059de0 f i libucrtd:output.obj
 0001:00058df0       ?narrow_null_string@?$output_processor@_WV?$stream_output_adapter@_W@__crt_stdio_output@@V?$format_validation_base@_WV?$stream_output_adapter@_W@__crt_stdio_output@@@2@@__crt_stdio_output@@CAPADXZ 10059df0 f i libucrtd:output.obj
 0001:00058e00       ?narrow_null_string@?$output_processor@_WV?$stream_output_adapter@_W@__crt_stdio_output@@V?$positional_parameter_base@_WV?$stream_output_adapter@_W@__crt_stdio_output@@@2@@__crt_stdio_output@@CAPADXZ 10059e00 f i libucrtd:output.obj
 0001:00058e10       ?narrow_null_string@?$output_processor@_WV?$stream_output_adapter@_W@__crt_stdio_output@@V?$standard_base@_WV?$stream_output_adapter@_W@__crt_stdio_output@@@2@@__crt_stdio_output@@CAPADXZ 10059e10 f i libucrtd:output.obj
 0001:00058e20       ?narrow_null_string@?$output_processor@_WV?$string_output_adapter@_W@__crt_stdio_output@@V?$format_validation_base@_WV?$string_output_adapter@_W@__crt_stdio_output@@@2@@__crt_stdio_output@@CAPADXZ 10059e20 f i libucrtd:output.obj
 0001:00058e30       ?narrow_null_string@?$output_processor@_WV?$string_output_adapter@_W@__crt_stdio_output@@V?$positional_parameter_base@_WV?$string_output_adapter@_W@__crt_stdio_output@@@2@@__crt_stdio_output@@CAPADXZ 10059e30 f i libucrtd:output.obj
 0001:00058e40       ?narrow_null_string@?$output_processor@_WV?$string_output_adapter@_W@__crt_stdio_output@@V?$standard_base@_WV?$string_output_adapter@_W@__crt_stdio_output@@@2@@__crt_stdio_output@@CAPADXZ 10059e40 f i libucrtd:output.obj
 0001:00058e50       ?parse_digit@__crt_strtox@@YAID@Z 10059e50 f i libucrtd:output.obj
 0001:00058eb0       ?parse_digit@__crt_strtox@@YAI_W@Z 10059eb0 f i libucrtd:output.obj
 0001:00058f00       ?parse_int_from_format_string@?$output_processor@DV?$stream_output_adapter@D@__crt_stdio_output@@V?$format_validation_base@DV?$stream_output_adapter@D@__crt_stdio_output@@@2@@__crt_stdio_output@@AAE_NQAH@Z 10059f00 f i libucrtd:output.obj
 0001:00058fc0       ?parse_int_from_format_string@?$output_processor@DV?$stream_output_adapter@D@__crt_stdio_output@@V?$positional_parameter_base@DV?$stream_output_adapter@D@__crt_stdio_output@@@2@@__crt_stdio_output@@AAE_NQAH@Z 10059fc0 f i libucrtd:output.obj
 0001:00059080       ?parse_int_from_format_string@?$output_processor@DV?$stream_output_adapter@D@__crt_stdio_output@@V?$standard_base@DV?$stream_output_adapter@D@__crt_stdio_output@@@2@@__crt_stdio_output@@AAE_NQAH@Z 1005a080 f i libucrtd:output.obj
 0001:00059140       ?parse_int_from_format_string@?$output_processor@DV?$string_output_adapter@D@__crt_stdio_output@@V?$format_validation_base@DV?$string_output_adapter@D@__crt_stdio_output@@@2@@__crt_stdio_output@@AAE_NQAH@Z 1005a140 f i libucrtd:output.obj
 0001:00059200       ?parse_int_from_format_string@?$output_processor@DV?$string_output_adapter@D@__crt_stdio_output@@V?$positional_parameter_base@DV?$string_output_adapter@D@__crt_stdio_output@@@2@@__crt_stdio_output@@AAE_NQAH@Z 1005a200 f i libucrtd:output.obj
 0001:000592c0       ?parse_int_from_format_string@?$output_processor@DV?$string_output_adapter@D@__crt_stdio_output@@V?$standard_base@DV?$string_output_adapter@D@__crt_stdio_output@@@2@@__crt_stdio_output@@AAE_NQAH@Z 1005a2c0 f i libucrtd:output.obj
 0001:00059380       ?parse_int_from_format_string@?$output_processor@_WV?$stream_output_adapter@_W@__crt_stdio_output@@V?$format_validation_base@_WV?$stream_output_adapter@_W@__crt_stdio_output@@@2@@__crt_stdio_output@@AAE_NQAH@Z 1005a380 f i libucrtd:output.obj
 0001:00059440       ?parse_int_from_format_string@?$output_processor@_WV?$stream_output_adapter@_W@__crt_stdio_output@@V?$positional_parameter_base@_WV?$stream_output_adapter@_W@__crt_stdio_output@@@2@@__crt_stdio_output@@AAE_NQAH@Z 1005a440 f i libucrtd:output.obj
 0001:00059500       ?parse_int_from_format_string@?$output_processor@_WV?$stream_output_adapter@_W@__crt_stdio_output@@V?$standard_base@_WV?$stream_output_adapter@_W@__crt_stdio_output@@@2@@__crt_stdio_output@@AAE_NQAH@Z 1005a500 f i libucrtd:output.obj
 0001:000595c0       ?parse_int_from_format_string@?$output_processor@_WV?$string_output_adapter@_W@__crt_stdio_output@@V?$format_validation_base@_WV?$string_output_adapter@_W@__crt_stdio_output@@@2@@__crt_stdio_output@@AAE_NQAH@Z 1005a5c0 f i libucrtd:output.obj
 0001:00059680       ?parse_int_from_format_string@?$output_processor@_WV?$string_output_adapter@_W@__crt_stdio_output@@V?$positional_parameter_base@_WV?$string_output_adapter@_W@__crt_stdio_output@@@2@@__crt_stdio_output@@AAE_NQAH@Z 1005a680 f i libucrtd:output.obj
 0001:00059740       ?parse_int_from_format_string@?$output_processor@_WV?$string_output_adapter@_W@__crt_stdio_output@@V?$standard_base@_WV?$string_output_adapter@_W@__crt_stdio_output@@@2@@__crt_stdio_output@@AAE_NQAH@Z 1005a740 f i libucrtd:output.obj
 0001:00059800       ?process@?$output_processor@DV?$stream_output_adapter@D@__crt_stdio_output@@V?$format_validation_base@DV?$stream_output_adapter@D@__crt_stdio_output@@@2@@__crt_stdio_output@@QAEHXZ 1005a800 f i libucrtd:output.obj
 0001:00059ae0       ?process@?$output_processor@DV?$stream_output_adapter@D@__crt_stdio_output@@V?$positional_parameter_base@DV?$stream_output_adapter@D@__crt_stdio_output@@@2@@__crt_stdio_output@@QAEHXZ 1005aae0 f i libucrtd:output.obj
 0001:00059dc0       ?process@?$output_processor@DV?$stream_output_adapter@D@__crt_stdio_output@@V?$standard_base@DV?$stream_output_adapter@D@__crt_stdio_output@@@2@@__crt_stdio_output@@QAEHXZ 1005adc0 f i libucrtd:output.obj
 0001:0005a0a0       ?process@?$output_processor@DV?$string_output_adapter@D@__crt_stdio_output@@V?$format_validation_base@DV?$string_output_adapter@D@__crt_stdio_output@@@2@@__crt_stdio_output@@QAEHXZ 1005b0a0 f i libucrtd:output.obj
 0001:0005a380       ?process@?$output_processor@DV?$string_output_adapter@D@__crt_stdio_output@@V?$positional_parameter_base@DV?$string_output_adapter@D@__crt_stdio_output@@@2@@__crt_stdio_output@@QAEHXZ 1005b380 f i libucrtd:output.obj
 0001:0005a660       ?process@?$output_processor@DV?$string_output_adapter@D@__crt_stdio_output@@V?$standard_base@DV?$string_output_adapter@D@__crt_stdio_output@@@2@@__crt_stdio_output@@QAEHXZ 1005b660 f i libucrtd:output.obj
 0001:0005a940       ?process@?$output_processor@_WV?$stream_output_adapter@_W@__crt_stdio_output@@V?$format_validation_base@_WV?$stream_output_adapter@_W@__crt_stdio_output@@@2@@__crt_stdio_output@@QAEHXZ 1005b940 f i libucrtd:output.obj
 0001:0005ac20       ?process@?$output_processor@_WV?$stream_output_adapter@_W@__crt_stdio_output@@V?$positional_parameter_base@_WV?$stream_output_adapter@_W@__crt_stdio_output@@@2@@__crt_stdio_output@@QAEHXZ 1005bc20 f i libucrtd:output.obj
 0001:0005af00       ?process@?$output_processor@_WV?$stream_output_adapter@_W@__crt_stdio_output@@V?$standard_base@_WV?$stream_output_adapter@_W@__crt_stdio_output@@@2@@__crt_stdio_output@@QAEHXZ 1005bf00 f i libucrtd:output.obj
 0001:0005b1e0       ?process@?$output_processor@_WV?$string_output_adapter@_W@__crt_stdio_output@@V?$format_validation_base@_WV?$string_output_adapter@_W@__crt_stdio_output@@@2@@__crt_stdio_output@@QAEHXZ 1005c1e0 f i libucrtd:output.obj
 0001:0005b4c0       ?process@?$output_processor@_WV?$string_output_adapter@_W@__crt_stdio_output@@V?$positional_parameter_base@_WV?$string_output_adapter@_W@__crt_stdio_output@@@2@@__crt_stdio_output@@QAEHXZ 1005c4c0 f i libucrtd:output.obj
 0001:0005b7a0       ?process@?$output_processor@_WV?$string_output_adapter@_W@__crt_stdio_output@@V?$standard_base@_WV?$string_output_adapter@_W@__crt_stdio_output@@@2@@__crt_stdio_output@@QAEHXZ 1005c7a0 f i libucrtd:output.obj
 0001:0005ba80       ?public_stream@__crt_stdio_stream@@QBEPAU_iobuf@@XZ 1005ca80 f i libucrtd:output.obj
 0001:0005baa0       ?restore_state@?$c_string_character_source@D@__crt_strtox@@QAE_NQBD@Z 1005caa0 f i libucrtd:output.obj
 0001:0005bac0       ?restore_state@?$c_string_character_source@_W@__crt_strtox@@QAE_NQB_W@Z 1005cac0 f i libucrtd:output.obj
 0001:0005bae0       ?save_state@?$c_string_character_source@D@__crt_strtox@@QBEPBDXZ 1005cae0 f i libucrtd:output.obj
 0001:0005bb00       ?save_state@?$c_string_character_source@_W@__crt_strtox@@QBEPB_WXZ 1005cb00 f i libucrtd:output.obj
 0001:0005bb20       ?set@?$cached@H@__crt_cached_ptd_host@@QAEHH@Z 1005cb20 f i libucrtd:output.obj
 0001:0005bb50       ?set_flag@?$output_processor@DV?$stream_output_adapter@D@__crt_stdio_output@@V?$format_validation_base@DV?$stream_output_adapter@D@__crt_stdio_output@@@2@@__crt_stdio_output@@AAEXI@Z 1005cb50 f i libucrtd:output.obj
 0001:0005bb70       ?set_flag@?$output_processor@DV?$stream_output_adapter@D@__crt_stdio_output@@V?$positional_parameter_base@DV?$stream_output_adapter@D@__crt_stdio_output@@@2@@__crt_stdio_output@@AAEXI@Z 1005cb70 f i libucrtd:output.obj
 0001:0005bb90       ?set_flag@?$output_processor@DV?$stream_output_adapter@D@__crt_stdio_output@@V?$standard_base@DV?$stream_output_adapter@D@__crt_stdio_output@@@2@@__crt_stdio_output@@AAEXI@Z 1005cb90 f i libucrtd:output.obj
 0001:0005bbb0       ?set_flag@?$output_processor@DV?$string_output_adapter@D@__crt_stdio_output@@V?$format_validation_base@DV?$string_output_adapter@D@__crt_stdio_output@@@2@@__crt_stdio_output@@AAEXI@Z 1005cbb0 f i libucrtd:output.obj
 0001:0005bbd0       ?set_flag@?$output_processor@DV?$string_output_adapter@D@__crt_stdio_output@@V?$positional_parameter_base@DV?$string_output_adapter@D@__crt_stdio_output@@@2@@__crt_stdio_output@@AAEXI@Z 1005cbd0 f i libucrtd:output.obj
 0001:0005bbf0       ?set_flag@?$output_processor@DV?$string_output_adapter@D@__crt_stdio_output@@V?$standard_base@DV?$string_output_adapter@D@__crt_stdio_output@@@2@@__crt_stdio_output@@AAEXI@Z 1005cbf0 f i libucrtd:output.obj
 0001:0005bc10       ?set_flag@?$output_processor@_WV?$stream_output_adapter@_W@__crt_stdio_output@@V?$format_validation_base@_WV?$stream_output_adapter@_W@__crt_stdio_output@@@2@@__crt_stdio_output@@AAEXI@Z 1005cc10 f i libucrtd:output.obj
 0001:0005bc30       ?set_flag@?$output_processor@_WV?$stream_output_adapter@_W@__crt_stdio_output@@V?$positional_parameter_base@_WV?$stream_output_adapter@_W@__crt_stdio_output@@@2@@__crt_stdio_output@@AAEXI@Z 1005cc30 f i libucrtd:output.obj
 0001:0005bc50       ?set_flag@?$output_processor@_WV?$stream_output_adapter@_W@__crt_stdio_output@@V?$standard_base@_WV?$stream_output_adapter@_W@__crt_stdio_output@@@2@@__crt_stdio_output@@AAEXI@Z 1005cc50 f i libucrtd:output.obj
 0001:0005bc70       ?set_flag@?$output_processor@_WV?$string_output_adapter@_W@__crt_stdio_output@@V?$format_validation_base@_WV?$string_output_adapter@_W@__crt_stdio_output@@@2@@__crt_stdio_output@@AAEXI@Z 1005cc70 f i libucrtd:output.obj
 0001:0005bc90       ?set_flag@?$output_processor@_WV?$string_output_adapter@_W@__crt_stdio_output@@V?$positional_parameter_base@_WV?$string_output_adapter@_W@__crt_stdio_output@@@2@@__crt_stdio_output@@AAEXI@Z 1005cc90 f i libucrtd:output.obj
 0001:0005bcb0       ?set_flag@?$output_processor@_WV?$string_output_adapter@_W@__crt_stdio_output@@V?$standard_base@_WV?$string_output_adapter@_W@__crt_stdio_output@@@2@@__crt_stdio_output@@AAEXI@Z 1005ccb0 f i libucrtd:output.obj
 0001:0005bcd0       ?should_format@?$positional_parameter_base@DV?$stream_output_adapter@D@__crt_stdio_output@@@__crt_stdio_output@@IAE_NXZ 1005ccd0 f i libucrtd:output.obj
 0001:0005bd10       ?should_format@?$positional_parameter_base@DV?$string_output_adapter@D@__crt_stdio_output@@@__crt_stdio_output@@IAE_NXZ 1005cd10 f i libucrtd:output.obj
 0001:0005bd50       ?should_format@?$positional_parameter_base@_WV?$stream_output_adapter@_W@__crt_stdio_output@@@__crt_stdio_output@@IAE_NXZ 1005cd50 f i libucrtd:output.obj
 0001:0005bd90       ?should_format@?$positional_parameter_base@_WV?$string_output_adapter@_W@__crt_stdio_output@@@__crt_stdio_output@@IAE_NXZ 1005cd90 f i libucrtd:output.obj
 0001:0005bdd0       ?should_format@?$standard_base@DV?$stream_output_adapter@D@__crt_stdio_output@@@__crt_stdio_output@@IAE_NXZ 1005cdd0 f i libucrtd:output.obj
 0001:0005bde0       ?should_format@?$standard_base@DV?$string_output_adapter@D@__crt_stdio_output@@@__crt_stdio_output@@IAE_NXZ 1005cde0 f i libucrtd:output.obj
 0001:0005bdf0       ?should_format@?$standard_base@_WV?$stream_output_adapter@_W@__crt_stdio_output@@@__crt_stdio_output@@IAE_NXZ 1005cdf0 f i libucrtd:output.obj
 0001:0005be00       ?should_format@?$standard_base@_WV?$string_output_adapter@_W@__crt_stdio_output@@@__crt_stdio_output@@IAE_NXZ 1005ce00 f i libucrtd:output.obj
 0001:0005be10       ?should_skip_normal_state_processing@?$positional_parameter_base@DV?$stream_output_adapter@D@__crt_stdio_output@@@__crt_stdio_output@@IAE_NXZ 1005ce10 f i libucrtd:output.obj
 0001:0005be60       ?should_skip_normal_state_processing@?$positional_parameter_base@DV?$string_output_adapter@D@__crt_stdio_output@@@__crt_stdio_output@@IAE_NXZ 1005ce60 f i libucrtd:output.obj
 0001:0005beb0       ?should_skip_normal_state_processing@?$positional_parameter_base@_WV?$stream_output_adapter@_W@__crt_stdio_output@@@__crt_stdio_output@@IAE_NXZ 1005ceb0 f i libucrtd:output.obj
 0001:0005bf00       ?should_skip_normal_state_processing@?$positional_parameter_base@_WV?$string_output_adapter@_W@__crt_stdio_output@@@__crt_stdio_output@@IAE_NXZ 1005cf00 f i libucrtd:output.obj
 0001:0005bf50       ?should_skip_normal_state_processing@?$standard_base@DV?$stream_output_adapter@D@__crt_stdio_output@@@__crt_stdio_output@@IAE_NXZ 1005cf50 f i libucrtd:output.obj
 0001:0005bf60       ?should_skip_normal_state_processing@?$standard_base@DV?$string_output_adapter@D@__crt_stdio_output@@@__crt_stdio_output@@IAE_NXZ 1005cf60 f i libucrtd:output.obj
 0001:0005bf70       ?should_skip_normal_state_processing@?$standard_base@_WV?$stream_output_adapter@_W@__crt_stdio_output@@@__crt_stdio_output@@IAE_NXZ 1005cf70 f i libucrtd:output.obj
 0001:0005bf80       ?should_skip_normal_state_processing@?$standard_base@_WV?$string_output_adapter@_W@__crt_stdio_output@@@__crt_stdio_output@@IAE_NXZ 1005cf80 f i libucrtd:output.obj
 0001:0005bf90       ?should_skip_type_state_output@?$positional_parameter_base@DV?$stream_output_adapter@D@__crt_stdio_output@@@__crt_stdio_output@@IBE_NXZ 1005cf90 f i libucrtd:output.obj
 0001:0005bfd0       ?should_skip_type_state_output@?$positional_parameter_base@DV?$string_output_adapter@D@__crt_stdio_output@@@__crt_stdio_output@@IBE_NXZ 1005cfd0 f i libucrtd:output.obj
 0001:0005c010       ?should_skip_type_state_output@?$positional_parameter_base@_WV?$stream_output_adapter@_W@__crt_stdio_output@@@__crt_stdio_output@@IBE_NXZ 1005d010 f i libucrtd:output.obj
 0001:0005c050       ?should_skip_type_state_output@?$positional_parameter_base@_WV?$string_output_adapter@_W@__crt_stdio_output@@@__crt_stdio_output@@IBE_NXZ 1005d050 f i libucrtd:output.obj
 0001:0005c090       ?should_skip_type_state_output@?$standard_base@DV?$stream_output_adapter@D@__crt_stdio_output@@@__crt_stdio_output@@IBE_NXZ 1005d090 f i libucrtd:output.obj
 0001:0005c0a0       ?should_skip_type_state_output@?$standard_base@DV?$string_output_adapter@D@__crt_stdio_output@@@__crt_stdio_output@@IBE_NXZ 1005d0a0 f i libucrtd:output.obj
 0001:0005c0b0       ?should_skip_type_state_output@?$standard_base@_WV?$stream_output_adapter@_W@__crt_stdio_output@@@__crt_stdio_output@@IBE_NXZ 1005d0b0 f i libucrtd:output.obj
 0001:0005c0c0       ?should_skip_type_state_output@?$standard_base@_WV?$string_output_adapter@_W@__crt_stdio_output@@@__crt_stdio_output@@IBE_NXZ 1005d0c0 f i libucrtd:output.obj
 0001:0005c0d0       ?state_case_dot@?$output_processor@DV?$stream_output_adapter@D@__crt_stdio_output@@V?$format_validation_base@DV?$stream_output_adapter@D@__crt_stdio_output@@@2@@__crt_stdio_output@@AAE_NXZ 1005d0d0 f i libucrtd:output.obj
 0001:0005c0f0       ?state_case_dot@?$output_processor@DV?$stream_output_adapter@D@__crt_stdio_output@@V?$positional_parameter_base@DV?$stream_output_adapter@D@__crt_stdio_output@@@2@@__crt_stdio_output@@AAE_NXZ 1005d0f0 f i libucrtd:output.obj
 0001:0005c110       ?state_case_dot@?$output_processor@DV?$stream_output_adapter@D@__crt_stdio_output@@V?$standard_base@DV?$stream_output_adapter@D@__crt_stdio_output@@@2@@__crt_stdio_output@@AAE_NXZ 1005d110 f i libucrtd:output.obj
 0001:0005c130       ?state_case_dot@?$output_processor@DV?$string_output_adapter@D@__crt_stdio_output@@V?$format_validation_base@DV?$string_output_adapter@D@__crt_stdio_output@@@2@@__crt_stdio_output@@AAE_NXZ 1005d130 f i libucrtd:output.obj
 0001:0005c150       ?state_case_dot@?$output_processor@DV?$string_output_adapter@D@__crt_stdio_output@@V?$positional_parameter_base@DV?$string_output_adapter@D@__crt_stdio_output@@@2@@__crt_stdio_output@@AAE_NXZ 1005d150 f i libucrtd:output.obj
 0001:0005c170       ?state_case_dot@?$output_processor@DV?$string_output_adapter@D@__crt_stdio_output@@V?$standard_base@DV?$string_output_adapter@D@__crt_stdio_output@@@2@@__crt_stdio_output@@AAE_NXZ 1005d170 f i libucrtd:output.obj
 0001:0005c190       ?state_case_dot@?$output_processor@_WV?$stream_output_adapter@_W@__crt_stdio_output@@V?$format_validation_base@_WV?$stream_output_adapter@_W@__crt_stdio_output@@@2@@__crt_stdio_output@@AAE_NXZ 1005d190 f i libucrtd:output.obj
 0001:0005c1b0       ?state_case_dot@?$output_processor@_WV?$stream_output_adapter@_W@__crt_stdio_output@@V?$positional_parameter_base@_WV?$stream_output_adapter@_W@__crt_stdio_output@@@2@@__crt_stdio_output@@AAE_NXZ 1005d1b0 f i libucrtd:output.obj
 0001:0005c1d0       ?state_case_dot@?$output_processor@_WV?$stream_output_adapter@_W@__crt_stdio_output@@V?$standard_base@_WV?$stream_output_adapter@_W@__crt_stdio_output@@@2@@__crt_stdio_output@@AAE_NXZ 1005d1d0 f i libucrtd:output.obj
 0001:0005c1f0       ?state_case_dot@?$output_processor@_WV?$string_output_adapter@_W@__crt_stdio_output@@V?$format_validation_base@_WV?$string_output_adapter@_W@__crt_stdio_output@@@2@@__crt_stdio_output@@AAE_NXZ 1005d1f0 f i libucrtd:output.obj
 0001:0005c210       ?state_case_dot@?$output_processor@_WV?$string_output_adapter@_W@__crt_stdio_output@@V?$positional_parameter_base@_WV?$string_output_adapter@_W@__crt_stdio_output@@@2@@__crt_stdio_output@@AAE_NXZ 1005d210 f i libucrtd:output.obj
 0001:0005c230       ?state_case_dot@?$output_processor@_WV?$string_output_adapter@_W@__crt_stdio_output@@V?$standard_base@_WV?$string_output_adapter@_W@__crt_stdio_output@@@2@@__crt_stdio_output@@AAE_NXZ 1005d230 f i libucrtd:output.obj
 0001:0005c250       ?state_case_flag@?$output_processor@DV?$stream_output_adapter@D@__crt_stdio_output@@V?$format_validation_base@DV?$stream_output_adapter@D@__crt_stdio_output@@@2@@__crt_stdio_output@@AAE_NXZ 1005d250 f i libucrtd:output.obj
 0001:0005c300       ?state_case_flag@?$output_processor@DV?$stream_output_adapter@D@__crt_stdio_output@@V?$positional_parameter_base@DV?$stream_output_adapter@D@__crt_stdio_output@@@2@@__crt_stdio_output@@AAE_NXZ 1005d300 f i libucrtd:output.obj
 0001:0005c3b0       ?state_case_flag@?$output_processor@DV?$stream_output_adapter@D@__crt_stdio_output@@V?$standard_base@DV?$stream_output_adapter@D@__crt_stdio_output@@@2@@__crt_stdio_output@@AAE_NXZ 1005d3b0 f i libucrtd:output.obj
 0001:0005c460       ?state_case_flag@?$output_processor@DV?$string_output_adapter@D@__crt_stdio_output@@V?$format_validation_base@DV?$string_output_adapter@D@__crt_stdio_output@@@2@@__crt_stdio_output@@AAE_NXZ 1005d460 f i libucrtd:output.obj
 0001:0005c510       ?state_case_flag@?$output_processor@DV?$string_output_adapter@D@__crt_stdio_output@@V?$positional_parameter_base@DV?$string_output_adapter@D@__crt_stdio_output@@@2@@__crt_stdio_output@@AAE_NXZ 1005d510 f i libucrtd:output.obj
 0001:0005c5c0       ?state_case_flag@?$output_processor@DV?$string_output_adapter@D@__crt_stdio_output@@V?$standard_base@DV?$string_output_adapter@D@__crt_stdio_output@@@2@@__crt_stdio_output@@AAE_NXZ 1005d5c0 f i libucrtd:output.obj
 0001:0005c670       ?state_case_flag@?$output_processor@_WV?$stream_output_adapter@_W@__crt_stdio_output@@V?$format_validation_base@_WV?$stream_output_adapter@_W@__crt_stdio_output@@@2@@__crt_stdio_output@@AAE_NXZ 1005d670 f i libucrtd:output.obj
 0001:0005c720       ?state_case_flag@?$output_processor@_WV?$stream_output_adapter@_W@__crt_stdio_output@@V?$positional_parameter_base@_WV?$stream_output_adapter@_W@__crt_stdio_output@@@2@@__crt_stdio_output@@AAE_NXZ 1005d720 f i libucrtd:output.obj
 0001:0005c7d0       ?state_case_flag@?$output_processor@_WV?$stream_output_adapter@_W@__crt_stdio_output@@V?$standard_base@_WV?$stream_output_adapter@_W@__crt_stdio_output@@@2@@__crt_stdio_output@@AAE_NXZ 1005d7d0 f i libucrtd:output.obj
 0001:0005c880       ?state_case_flag@?$output_processor@_WV?$string_output_adapter@_W@__crt_stdio_output@@V?$format_validation_base@_WV?$string_output_adapter@_W@__crt_stdio_output@@@2@@__crt_stdio_output@@AAE_NXZ 1005d880 f i libucrtd:output.obj
 0001:0005c930       ?state_case_flag@?$output_processor@_WV?$string_output_adapter@_W@__crt_stdio_output@@V?$positional_parameter_base@_WV?$string_output_adapter@_W@__crt_stdio_output@@@2@@__crt_stdio_output@@AAE_NXZ 1005d930 f i libucrtd:output.obj
 0001:0005c9e0       ?state_case_flag@?$output_processor@_WV?$string_output_adapter@_W@__crt_stdio_output@@V?$standard_base@_WV?$string_output_adapter@_W@__crt_stdio_output@@@2@@__crt_stdio_output@@AAE_NXZ 1005d9e0 f i libucrtd:output.obj
 0001:0005ca90       ?state_case_normal@?$output_processor@DV?$stream_output_adapter@D@__crt_stdio_output@@V?$format_validation_base@DV?$stream_output_adapter@D@__crt_stdio_output@@@2@@__crt_stdio_output@@AAE_NXZ 1005da90 f i libucrtd:output.obj
 0001:0005cb50       ?state_case_normal@?$output_processor@DV?$stream_output_adapter@D@__crt_stdio_output@@V?$positional_parameter_base@DV?$stream_output_adapter@D@__crt_stdio_output@@@2@@__crt_stdio_output@@AAE_NXZ 1005db50 f i libucrtd:output.obj
 0001:0005cc10       ?state_case_normal@?$output_processor@DV?$stream_output_adapter@D@__crt_stdio_output@@V?$standard_base@DV?$stream_output_adapter@D@__crt_stdio_output@@@2@@__crt_stdio_output@@AAE_NXZ 1005dc10 f i libucrtd:output.obj
 0001:0005ccd0       ?state_case_normal@?$output_processor@DV?$string_output_adapter@D@__crt_stdio_output@@V?$format_validation_base@DV?$string_output_adapter@D@__crt_stdio_output@@@2@@__crt_stdio_output@@AAE_NXZ 1005dcd0 f i libucrtd:output.obj
 0001:0005cd90       ?state_case_normal@?$output_processor@DV?$string_output_adapter@D@__crt_stdio_output@@V?$positional_parameter_base@DV?$string_output_adapter@D@__crt_stdio_output@@@2@@__crt_stdio_output@@AAE_NXZ 1005dd90 f i libucrtd:output.obj
 0001:0005ce50       ?state_case_normal@?$output_processor@DV?$string_output_adapter@D@__crt_stdio_output@@V?$standard_base@DV?$string_output_adapter@D@__crt_stdio_output@@@2@@__crt_stdio_output@@AAE_NXZ 1005de50 f i libucrtd:output.obj
 0001:0005cf10       ?state_case_normal@?$output_processor@_WV?$stream_output_adapter@_W@__crt_stdio_output@@V?$format_validation_base@_WV?$stream_output_adapter@_W@__crt_stdio_output@@@2@@__crt_stdio_output@@AAE_NXZ 1005df10 f i libucrtd:output.obj
 0001:0005cfd0       ?state_case_normal@?$output_processor@_WV?$stream_output_adapter@_W@__crt_stdio_output@@V?$positional_parameter_base@_WV?$stream_output_adapter@_W@__crt_stdio_output@@@2@@__crt_stdio_output@@AAE_NXZ 1005dfd0 f i libucrtd:output.obj
 0001:0005d090       ?state_case_normal@?$output_processor@_WV?$stream_output_adapter@_W@__crt_stdio_output@@V?$standard_base@_WV?$stream_output_adapter@_W@__crt_stdio_output@@@2@@__crt_stdio_output@@AAE_NXZ 1005e090 f i libucrtd:output.obj
 0001:0005d150       ?state_case_normal@?$output_processor@_WV?$string_output_adapter@_W@__crt_stdio_output@@V?$format_validation_base@_WV?$string_output_adapter@_W@__crt_stdio_output@@@2@@__crt_stdio_output@@AAE_NXZ 1005e150 f i libucrtd:output.obj
 0001:0005d210       ?state_case_normal@?$output_processor@_WV?$string_output_adapter@_W@__crt_stdio_output@@V?$positional_parameter_base@_WV?$string_output_adapter@_W@__crt_stdio_output@@@2@@__crt_stdio_output@@AAE_NXZ 1005e210 f i libucrtd:output.obj
 0001:0005d2d0       ?state_case_normal@?$output_processor@_WV?$string_output_adapter@_W@__crt_stdio_output@@V?$standard_base@_WV?$string_output_adapter@_W@__crt_stdio_output@@@2@@__crt_stdio_output@@AAE_NXZ 1005e2d0 f i libucrtd:output.obj
 0001:0005d390       ?state_case_normal_common@?$output_processor@DV?$stream_output_adapter@D@__crt_stdio_output@@V?$format_validation_base@DV?$stream_output_adapter@D@__crt_stdio_output@@@2@@__crt_stdio_output@@AAE_NXZ 1005e390 f i libucrtd:output.obj
 0001:0005d3e0       ?state_case_normal_common@?$output_processor@DV?$stream_output_adapter@D@__crt_stdio_output@@V?$positional_parameter_base@DV?$stream_output_adapter@D@__crt_stdio_output@@@2@@__crt_stdio_output@@AAE_NXZ 1005e3e0 f i libucrtd:output.obj
 0001:0005d430       ?state_case_normal_common@?$output_processor@DV?$stream_output_adapter@D@__crt_stdio_output@@V?$standard_base@DV?$stream_output_adapter@D@__crt_stdio_output@@@2@@__crt_stdio_output@@AAE_NXZ 1005e430 f i libucrtd:output.obj
 0001:0005d480       ?state_case_normal_common@?$output_processor@DV?$string_output_adapter@D@__crt_stdio_output@@V?$format_validation_base@DV?$string_output_adapter@D@__crt_stdio_output@@@2@@__crt_stdio_output@@AAE_NXZ 1005e480 f i libucrtd:output.obj
 0001:0005d4d0       ?state_case_normal_common@?$output_processor@DV?$string_output_adapter@D@__crt_stdio_output@@V?$positional_parameter_base@DV?$string_output_adapter@D@__crt_stdio_output@@@2@@__crt_stdio_output@@AAE_NXZ 1005e4d0 f i libucrtd:output.obj
 0001:0005d520       ?state_case_normal_common@?$output_processor@DV?$string_output_adapter@D@__crt_stdio_output@@V?$standard_base@DV?$string_output_adapter@D@__crt_stdio_output@@@2@@__crt_stdio_output@@AAE_NXZ 1005e520 f i libucrtd:output.obj
 0001:0005d570       ?state_case_normal_common@?$output_processor@_WV?$stream_output_adapter@_W@__crt_stdio_output@@V?$format_validation_base@_WV?$stream_output_adapter@_W@__crt_stdio_output@@@2@@__crt_stdio_output@@AAE_NXZ 1005e570 f i libucrtd:output.obj
 0001:0005d5c0       ?state_case_normal_common@?$output_processor@_WV?$stream_output_adapter@_W@__crt_stdio_output@@V?$positional_parameter_base@_WV?$stream_output_adapter@_W@__crt_stdio_output@@@2@@__crt_stdio_output@@AAE_NXZ 1005e5c0 f i libucrtd:output.obj
 0001:0005d610       ?state_case_normal_common@?$output_processor@_WV?$stream_output_adapter@_W@__crt_stdio_output@@V?$standard_base@_WV?$stream_output_adapter@_W@__crt_stdio_output@@@2@@__crt_stdio_output@@AAE_NXZ 1005e610 f i libucrtd:output.obj
 0001:0005d660       ?state_case_normal_common@?$output_processor@_WV?$string_output_adapter@_W@__crt_stdio_output@@V?$format_validation_base@_WV?$string_output_adapter@_W@__crt_stdio_output@@@2@@__crt_stdio_output@@AAE_NXZ 1005e660 f i libucrtd:output.obj
 0001:0005d6b0       ?state_case_normal_common@?$output_processor@_WV?$string_output_adapter@_W@__crt_stdio_output@@V?$positional_parameter_base@_WV?$string_output_adapter@_W@__crt_stdio_output@@@2@@__crt_stdio_output@@AAE_NXZ 1005e6b0 f i libucrtd:output.obj
 0001:0005d700       ?state_case_normal_common@?$output_processor@_WV?$string_output_adapter@_W@__crt_stdio_output@@V?$standard_base@_WV?$string_output_adapter@_W@__crt_stdio_output@@@2@@__crt_stdio_output@@AAE_NXZ 1005e700 f i libucrtd:output.obj
 0001:0005d750       ?state_case_normal_tchar@?$output_processor@DV?$stream_output_adapter@D@__crt_stdio_output@@V?$format_validation_base@DV?$stream_output_adapter@D@__crt_stdio_output@@@2@@__crt_stdio_output@@AAE_ND@Z 1005e750 f i libucrtd:output.obj
 0001:0005d880       ?state_case_normal_tchar@?$output_processor@DV?$stream_output_adapter@D@__crt_stdio_output@@V?$positional_parameter_base@DV?$stream_output_adapter@D@__crt_stdio_output@@@2@@__crt_stdio_output@@AAE_ND@Z 1005e880 f i libucrtd:output.obj
 0001:0005d9b0       ?state_case_normal_tchar@?$output_processor@DV?$stream_output_adapter@D@__crt_stdio_output@@V?$standard_base@DV?$stream_output_adapter@D@__crt_stdio_output@@@2@@__crt_stdio_output@@AAE_ND@Z 1005e9b0 f i libucrtd:output.obj
 0001:0005dae0       ?state_case_normal_tchar@?$output_processor@DV?$string_output_adapter@D@__crt_stdio_output@@V?$format_validation_base@DV?$string_output_adapter@D@__crt_stdio_output@@@2@@__crt_stdio_output@@AAE_ND@Z 1005eae0 f i libucrtd:output.obj
 0001:0005dc10       ?state_case_normal_tchar@?$output_processor@DV?$string_output_adapter@D@__crt_stdio_output@@V?$positional_parameter_base@DV?$string_output_adapter@D@__crt_stdio_output@@@2@@__crt_stdio_output@@AAE_ND@Z 1005ec10 f i libucrtd:output.obj
 0001:0005dd40       ?state_case_normal_tchar@?$output_processor@DV?$string_output_adapter@D@__crt_stdio_output@@V?$standard_base@DV?$string_output_adapter@D@__crt_stdio_output@@@2@@__crt_stdio_output@@AAE_ND@Z 1005ed40 f i libucrtd:output.obj
 0001:0005de70       ?state_case_normal_tchar@?$output_processor@_WV?$stream_output_adapter@_W@__crt_stdio_output@@V?$format_validation_base@_WV?$stream_output_adapter@_W@__crt_stdio_output@@@2@@__crt_stdio_output@@AAE_N_W@Z 1005ee70 f i libucrtd:output.obj
 0001:0005de90       ?state_case_normal_tchar@?$output_processor@_WV?$stream_output_adapter@_W@__crt_stdio_output@@V?$positional_parameter_base@_WV?$stream_output_adapter@_W@__crt_stdio_output@@@2@@__crt_stdio_output@@AAE_N_W@Z 1005ee90 f i libucrtd:output.obj
 0001:0005deb0       ?state_case_normal_tchar@?$output_processor@_WV?$stream_output_adapter@_W@__crt_stdio_output@@V?$standard_base@_WV?$stream_output_adapter@_W@__crt_stdio_output@@@2@@__crt_stdio_output@@AAE_N_W@Z 1005eeb0 f i libucrtd:output.obj
 0001:0005ded0       ?state_case_normal_tchar@?$output_processor@_WV?$string_output_adapter@_W@__crt_stdio_output@@V?$format_validation_base@_WV?$string_output_adapter@_W@__crt_stdio_output@@@2@@__crt_stdio_output@@AAE_N_W@Z 1005eed0 f i libucrtd:output.obj
 0001:0005def0       ?state_case_normal_tchar@?$output_processor@_WV?$string_output_adapter@_W@__crt_stdio_output@@V?$positional_parameter_base@_WV?$string_output_adapter@_W@__crt_stdio_output@@@2@@__crt_stdio_output@@AAE_N_W@Z 1005eef0 f i libucrtd:output.obj
 0001:0005df10       ?state_case_normal_tchar@?$output_processor@_WV?$string_output_adapter@_W@__crt_stdio_output@@V?$standard_base@_WV?$string_output_adapter@_W@__crt_stdio_output@@@2@@__crt_stdio_output@@AAE_N_W@Z 1005ef10 f i libucrtd:output.obj
 0001:0005df30       ?state_case_percent@?$output_processor@DV?$stream_output_adapter@D@__crt_stdio_output@@V?$format_validation_base@DV?$stream_output_adapter@D@__crt_stdio_output@@@2@@__crt_stdio_output@@AAE_NXZ 1005ef30 f i libucrtd:output.obj
 0001:0005df80       ?state_case_percent@?$output_processor@DV?$stream_output_adapter@D@__crt_stdio_output@@V?$positional_parameter_base@DV?$stream_output_adapter@D@__crt_stdio_output@@@2@@__crt_stdio_output@@AAE_NXZ 1005ef80 f i libucrtd:output.obj
 0001:0005dfd0       ?state_case_percent@?$output_processor@DV?$stream_output_adapter@D@__crt_stdio_output@@V?$standard_base@DV?$stream_output_adapter@D@__crt_stdio_output@@@2@@__crt_stdio_output@@AAE_NXZ 1005efd0 f i libucrtd:output.obj
 0001:0005e020       ?state_case_percent@?$output_processor@DV?$string_output_adapter@D@__crt_stdio_output@@V?$format_validation_base@DV?$string_output_adapter@D@__crt_stdio_output@@@2@@__crt_stdio_output@@AAE_NXZ 1005f020 f i libucrtd:output.obj
 0001:0005e070       ?state_case_percent@?$output_processor@DV?$string_output_adapter@D@__crt_stdio_output@@V?$positional_parameter_base@DV?$string_output_adapter@D@__crt_stdio_output@@@2@@__crt_stdio_output@@AAE_NXZ 1005f070 f i libucrtd:output.obj
 0001:0005e0c0       ?state_case_percent@?$output_processor@DV?$string_output_adapter@D@__crt_stdio_output@@V?$standard_base@DV?$string_output_adapter@D@__crt_stdio_output@@@2@@__crt_stdio_output@@AAE_NXZ 1005f0c0 f i libucrtd:output.obj
 0001:0005e110       ?state_case_percent@?$output_processor@_WV?$stream_output_adapter@_W@__crt_stdio_output@@V?$format_validation_base@_WV?$stream_output_adapter@_W@__crt_stdio_output@@@2@@__crt_stdio_output@@AAE_NXZ 1005f110 f i libucrtd:output.obj
 0001:0005e160       ?state_case_percent@?$output_processor@_WV?$stream_output_adapter@_W@__crt_stdio_output@@V?$positional_parameter_base@_WV?$stream_output_adapter@_W@__crt_stdio_output@@@2@@__crt_stdio_output@@AAE_NXZ 1005f160 f i libucrtd:output.obj
 0001:0005e1b0       ?state_case_percent@?$output_processor@_WV?$stream_output_adapter@_W@__crt_stdio_output@@V?$standard_base@_WV?$stream_output_adapter@_W@__crt_stdio_output@@@2@@__crt_stdio_output@@AAE_NXZ 1005f1b0 f i libucrtd:output.obj
 0001:0005e200       ?state_case_percent@?$output_processor@_WV?$string_output_adapter@_W@__crt_stdio_output@@V?$format_validation_base@_WV?$string_output_adapter@_W@__crt_stdio_output@@@2@@__crt_stdio_output@@AAE_NXZ 1005f200 f i libucrtd:output.obj
 0001:0005e250       ?state_case_percent@?$output_processor@_WV?$string_output_adapter@_W@__crt_stdio_output@@V?$positional_parameter_base@_WV?$string_output_adapter@_W@__crt_stdio_output@@@2@@__crt_stdio_output@@AAE_NXZ 1005f250 f i libucrtd:output.obj
 0001:0005e2a0       ?state_case_percent@?$output_processor@_WV?$string_output_adapter@_W@__crt_stdio_output@@V?$standard_base@_WV?$string_output_adapter@_W@__crt_stdio_output@@@2@@__crt_stdio_output@@AAE_NXZ 1005f2a0 f i libucrtd:output.obj
 0001:0005e2f0       ?state_case_precision@?$output_processor@DV?$stream_output_adapter@D@__crt_stdio_output@@V?$format_validation_base@DV?$stream_output_adapter@D@__crt_stdio_output@@@2@@__crt_stdio_output@@AAE_NXZ 1005f2f0 f i libucrtd:output.obj
 0001:0005e360       ?state_case_precision@?$output_processor@DV?$stream_output_adapter@D@__crt_stdio_output@@V?$positional_parameter_base@DV?$stream_output_adapter@D@__crt_stdio_output@@@2@@__crt_stdio_output@@AAE_NXZ 1005f360 f i libucrtd:output.obj
 0001:0005e3d0       ?state_case_precision@?$output_processor@DV?$stream_output_adapter@D@__crt_stdio_output@@V?$standard_base@DV?$stream_output_adapter@D@__crt_stdio_output@@@2@@__crt_stdio_output@@AAE_NXZ 1005f3d0 f i libucrtd:output.obj
 0001:0005e440       ?state_case_precision@?$output_processor@DV?$string_output_adapter@D@__crt_stdio_output@@V?$format_validation_base@DV?$string_output_adapter@D@__crt_stdio_output@@@2@@__crt_stdio_output@@AAE_NXZ 1005f440 f i libucrtd:output.obj
 0001:0005e4b0       ?state_case_precision@?$output_processor@DV?$string_output_adapter@D@__crt_stdio_output@@V?$positional_parameter_base@DV?$string_output_adapter@D@__crt_stdio_output@@@2@@__crt_stdio_output@@AAE_NXZ 1005f4b0 f i libucrtd:output.obj
 0001:0005e520       ?state_case_precision@?$output_processor@DV?$string_output_adapter@D@__crt_stdio_output@@V?$standard_base@DV?$string_output_adapter@D@__crt_stdio_output@@@2@@__crt_stdio_output@@AAE_NXZ 1005f520 f i libucrtd:output.obj
 0001:0005e590       ?state_case_precision@?$output_processor@_WV?$stream_output_adapter@_W@__crt_stdio_output@@V?$format_validation_base@_WV?$stream_output_adapter@_W@__crt_stdio_output@@@2@@__crt_stdio_output@@AAE_NXZ 1005f590 f i libucrtd:output.obj
 0001:0005e600       ?state_case_precision@?$output_processor@_WV?$stream_output_adapter@_W@__crt_stdio_output@@V?$positional_parameter_base@_WV?$stream_output_adapter@_W@__crt_stdio_output@@@2@@__crt_stdio_output@@AAE_NXZ 1005f600 f i libucrtd:output.obj
 0001:0005e670       ?state_case_precision@?$output_processor@_WV?$stream_output_adapter@_W@__crt_stdio_output@@V?$standard_base@_WV?$stream_output_adapter@_W@__crt_stdio_output@@@2@@__crt_stdio_output@@AAE_NXZ 1005f670 f i libucrtd:output.obj
 0001:0005e6e0       ?state_case_precision@?$output_processor@_WV?$string_output_adapter@_W@__crt_stdio_output@@V?$format_validation_base@_WV?$string_output_adapter@_W@__crt_stdio_output@@@2@@__crt_stdio_output@@AAE_NXZ 1005f6e0 f i libucrtd:output.obj
 0001:0005e750       ?state_case_precision@?$output_processor@_WV?$string_output_adapter@_W@__crt_stdio_output@@V?$positional_parameter_base@_WV?$string_output_adapter@_W@__crt_stdio_output@@@2@@__crt_stdio_output@@AAE_NXZ 1005f750 f i libucrtd:output.obj
 0001:0005e7c0       ?state_case_precision@?$output_processor@_WV?$string_output_adapter@_W@__crt_stdio_output@@V?$standard_base@_WV?$string_output_adapter@_W@__crt_stdio_output@@@2@@__crt_stdio_output@@AAE_NXZ 1005f7c0 f i libucrtd:output.obj
 0001:0005e830       ?state_case_size@?$output_processor@DV?$stream_output_adapter@D@__crt_stdio_output@@V?$format_validation_base@DV?$stream_output_adapter@D@__crt_stdio_output@@@2@@__crt_stdio_output@@AAE_NXZ 1005f830 f i libucrtd:output.obj
 0001:0005ec20       ?state_case_size@?$output_processor@DV?$stream_output_adapter@D@__crt_stdio_output@@V?$positional_parameter_base@DV?$stream_output_adapter@D@__crt_stdio_output@@@2@@__crt_stdio_output@@AAE_NXZ 1005fc20 f i libucrtd:output.obj
 0001:0005f010       ?state_case_size@?$output_processor@DV?$stream_output_adapter@D@__crt_stdio_output@@V?$standard_base@DV?$stream_output_adapter@D@__crt_stdio_output@@@2@@__crt_stdio_output@@AAE_NXZ 10060010 f i libucrtd:output.obj
 0001:0005f400       ?state_case_size@?$output_processor@DV?$string_output_adapter@D@__crt_stdio_output@@V?$format_validation_base@DV?$string_output_adapter@D@__crt_stdio_output@@@2@@__crt_stdio_output@@AAE_NXZ 10060400 f i libucrtd:output.obj
 0001:0005f7f0       ?state_case_size@?$output_processor@DV?$string_output_adapter@D@__crt_stdio_output@@V?$positional_parameter_base@DV?$string_output_adapter@D@__crt_stdio_output@@@2@@__crt_stdio_output@@AAE_NXZ 100607f0 f i libucrtd:output.obj
 0001:0005fbe0       ?state_case_size@?$output_processor@DV?$string_output_adapter@D@__crt_stdio_output@@V?$standard_base@DV?$string_output_adapter@D@__crt_stdio_output@@@2@@__crt_stdio_output@@AAE_NXZ 10060be0 f i libucrtd:output.obj
 0001:0005ffd0       ?state_case_size@?$output_processor@_WV?$stream_output_adapter@_W@__crt_stdio_output@@V?$format_validation_base@_WV?$stream_output_adapter@_W@__crt_stdio_output@@@2@@__crt_stdio_output@@AAE_NXZ 10060fd0 f i libucrtd:output.obj
 0001:000603c0       ?state_case_size@?$output_processor@_WV?$stream_output_adapter@_W@__crt_stdio_output@@V?$positional_parameter_base@_WV?$stream_output_adapter@_W@__crt_stdio_output@@@2@@__crt_stdio_output@@AAE_NXZ 100613c0 f i libucrtd:output.obj
 0001:000607b0       ?state_case_size@?$output_processor@_WV?$stream_output_adapter@_W@__crt_stdio_output@@V?$standard_base@_WV?$stream_output_adapter@_W@__crt_stdio_output@@@2@@__crt_stdio_output@@AAE_NXZ 100617b0 f i libucrtd:output.obj
 0001:00060ba0       ?state_case_size@?$output_processor@_WV?$string_output_adapter@_W@__crt_stdio_output@@V?$format_validation_base@_WV?$string_output_adapter@_W@__crt_stdio_output@@@2@@__crt_stdio_output@@AAE_NXZ 10061ba0 f i libucrtd:output.obj
 0001:00060f90       ?state_case_size@?$output_processor@_WV?$string_output_adapter@_W@__crt_stdio_output@@V?$positional_parameter_base@_WV?$string_output_adapter@_W@__crt_stdio_output@@@2@@__crt_stdio_output@@AAE_NXZ 10061f90 f i libucrtd:output.obj
 0001:00061380       ?state_case_size@?$output_processor@_WV?$string_output_adapter@_W@__crt_stdio_output@@V?$standard_base@_WV?$string_output_adapter@_W@__crt_stdio_output@@@2@@__crt_stdio_output@@AAE_NXZ 10062380 f i libucrtd:output.obj
 0001:00061770       ?state_case_type@?$output_processor@DV?$stream_output_adapter@D@__crt_stdio_output@@V?$format_validation_base@DV?$stream_output_adapter@D@__crt_stdio_output@@@2@@__crt_stdio_output@@AAE_NXZ 10062770 f i libucrtd:output.obj
 0001:00061b40       ?state_case_type@?$output_processor@DV?$stream_output_adapter@D@__crt_stdio_output@@V?$positional_parameter_base@DV?$stream_output_adapter@D@__crt_stdio_output@@@2@@__crt_stdio_output@@AAE_NXZ 10062b40 f i libucrtd:output.obj
 0001:00061f10       ?state_case_type@?$output_processor@DV?$stream_output_adapter@D@__crt_stdio_output@@V?$standard_base@DV?$stream_output_adapter@D@__crt_stdio_output@@@2@@__crt_stdio_output@@AAE_NXZ 10062f10 f i libucrtd:output.obj
 0001:000622e0       ?state_case_type@?$output_processor@DV?$string_output_adapter@D@__crt_stdio_output@@V?$format_validation_base@DV?$string_output_adapter@D@__crt_stdio_output@@@2@@__crt_stdio_output@@AAE_NXZ 100632e0 f i libucrtd:output.obj
 0001:000626b0       ?state_case_type@?$output_processor@DV?$string_output_adapter@D@__crt_stdio_output@@V?$positional_parameter_base@DV?$string_output_adapter@D@__crt_stdio_output@@@2@@__crt_stdio_output@@AAE_NXZ 100636b0 f i libucrtd:output.obj
 0001:00062a80       ?state_case_type@?$output_processor@DV?$string_output_adapter@D@__crt_stdio_output@@V?$standard_base@DV?$string_output_adapter@D@__crt_stdio_output@@@2@@__crt_stdio_output@@AAE_NXZ 10063a80 f i libucrtd:output.obj
 0001:00062e50       ?state_case_type@?$output_processor@_WV?$stream_output_adapter@_W@__crt_stdio_output@@V?$format_validation_base@_WV?$stream_output_adapter@_W@__crt_stdio_output@@@2@@__crt_stdio_output@@AAE_NXZ 10063e50 f i libucrtd:output.obj
 0001:00063250       ?state_case_type@?$output_processor@_WV?$stream_output_adapter@_W@__crt_stdio_output@@V?$positional_parameter_base@_WV?$stream_output_adapter@_W@__crt_stdio_output@@@2@@__crt_stdio_output@@AAE_NXZ 10064250 f i libucrtd:output.obj
 0001:00063650       ?state_case_type@?$output_processor@_WV?$stream_output_adapter@_W@__crt_stdio_output@@V?$standard_base@_WV?$stream_output_adapter@_W@__crt_stdio_output@@@2@@__crt_stdio_output@@AAE_NXZ 10064650 f i libucrtd:output.obj
 0001:00063a50       ?state_case_type@?$output_processor@_WV?$string_output_adapter@_W@__crt_stdio_output@@V?$format_validation_base@_WV?$string_output_adapter@_W@__crt_stdio_output@@@2@@__crt_stdio_output@@AAE_NXZ 10064a50 f i libucrtd:output.obj
 0001:00063e50       ?state_case_type@?$output_processor@_WV?$string_output_adapter@_W@__crt_stdio_output@@V?$positional_parameter_base@_WV?$string_output_adapter@_W@__crt_stdio_output@@@2@@__crt_stdio_output@@AAE_NXZ 10064e50 f i libucrtd:output.obj
 0001:00064250       ?state_case_type@?$output_processor@_WV?$string_output_adapter@_W@__crt_stdio_output@@V?$standard_base@_WV?$string_output_adapter@_W@__crt_stdio_output@@@2@@__crt_stdio_output@@AAE_NXZ 10065250 f i libucrtd:output.obj
 0001:00064650       ?state_case_width@?$output_processor@DV?$stream_output_adapter@D@__crt_stdio_output@@V?$format_validation_base@DV?$stream_output_adapter@D@__crt_stdio_output@@@2@@__crt_stdio_output@@AAE_NXZ 10065650 f i libucrtd:output.obj
 0001:000646d0       ?state_case_width@?$output_processor@DV?$stream_output_adapter@D@__crt_stdio_output@@V?$positional_parameter_base@DV?$stream_output_adapter@D@__crt_stdio_output@@@2@@__crt_stdio_output@@AAE_NXZ 100656d0 f i libucrtd:output.obj
 0001:00064750       ?state_case_width@?$output_processor@DV?$stream_output_adapter@D@__crt_stdio_output@@V?$standard_base@DV?$stream_output_adapter@D@__crt_stdio_output@@@2@@__crt_stdio_output@@AAE_NXZ 10065750 f i libucrtd:output.obj
 0001:000647d0       ?state_case_width@?$output_processor@DV?$string_output_adapter@D@__crt_stdio_output@@V?$format_validation_base@DV?$string_output_adapter@D@__crt_stdio_output@@@2@@__crt_stdio_output@@AAE_NXZ 100657d0 f i libucrtd:output.obj
 0001:00064850       ?state_case_width@?$output_processor@DV?$string_output_adapter@D@__crt_stdio_output@@V?$positional_parameter_base@DV?$string_output_adapter@D@__crt_stdio_output@@@2@@__crt_stdio_output@@AAE_NXZ 10065850 f i libucrtd:output.obj
 0001:000648d0       ?state_case_width@?$output_processor@DV?$string_output_adapter@D@__crt_stdio_output@@V?$standard_base@DV?$string_output_adapter@D@__crt_stdio_output@@@2@@__crt_stdio_output@@AAE_NXZ 100658d0 f i libucrtd:output.obj
 0001:00064950       ?state_case_width@?$output_processor@_WV?$stream_output_adapter@_W@__crt_stdio_output@@V?$format_validation_base@_WV?$stream_output_adapter@_W@__crt_stdio_output@@@2@@__crt_stdio_output@@AAE_NXZ 10065950 f i libucrtd:output.obj
 0001:000649d0       ?state_case_width@?$output_processor@_WV?$stream_output_adapter@_W@__crt_stdio_output@@V?$positional_parameter_base@_WV?$stream_output_adapter@_W@__crt_stdio_output@@@2@@__crt_stdio_output@@AAE_NXZ 100659d0 f i libucrtd:output.obj
 0001:00064a50       ?state_case_width@?$output_processor@_WV?$stream_output_adapter@_W@__crt_stdio_output@@V?$standard_base@_WV?$stream_output_adapter@_W@__crt_stdio_output@@@2@@__crt_stdio_output@@AAE_NXZ 10065a50 f i libucrtd:output.obj
 0001:00064ad0       ?state_case_width@?$output_processor@_WV?$string_output_adapter@_W@__crt_stdio_output@@V?$format_validation_base@_WV?$string_output_adapter@_W@__crt_stdio_output@@@2@@__crt_stdio_output@@AAE_NXZ 10065ad0 f i libucrtd:output.obj
 0001:00064b50       ?state_case_width@?$output_processor@_WV?$string_output_adapter@_W@__crt_stdio_output@@V?$positional_parameter_base@_WV?$string_output_adapter@_W@__crt_stdio_output@@@2@@__crt_stdio_output@@AAE_NXZ 10065b50 f i libucrtd:output.obj
 0001:00064bd0       ?state_case_width@?$output_processor@_WV?$string_output_adapter@_W@__crt_stdio_output@@V?$standard_base@_WV?$string_output_adapter@_W@__crt_stdio_output@@@2@@__crt_stdio_output@@AAE_NXZ 10065bd0 f i libucrtd:output.obj
 0001:00064c50       ?state_count@?$format_validation_base@DV?$stream_output_adapter@D@__crt_stdio_output@@@__crt_stdio_output@@KAIXZ 10065c50 f i libucrtd:output.obj
 0001:00064c60       ?state_count@?$format_validation_base@DV?$string_output_adapter@D@__crt_stdio_output@@@__crt_stdio_output@@KAIXZ 10065c60 f i libucrtd:output.obj
 0001:00064c70       ?state_count@?$format_validation_base@_WV?$stream_output_adapter@_W@__crt_stdio_output@@@__crt_stdio_output@@KAIXZ 10065c70 f i libucrtd:output.obj
 0001:00064c80       ?state_count@?$format_validation_base@_WV?$string_output_adapter@_W@__crt_stdio_output@@@__crt_stdio_output@@KAIXZ 10065c80 f i libucrtd:output.obj
 0001:00064c90       ?state_count@?$standard_base@DV?$stream_output_adapter@D@__crt_stdio_output@@@__crt_stdio_output@@KAIXZ 10065c90 f i libucrtd:output.obj
 0001:00064ca0       ?state_count@?$standard_base@DV?$string_output_adapter@D@__crt_stdio_output@@@__crt_stdio_output@@KAIXZ 10065ca0 f i libucrtd:output.obj
 0001:00064cb0       ?state_count@?$standard_base@_WV?$stream_output_adapter@_W@__crt_stdio_output@@@__crt_stdio_output@@KAIXZ 10065cb0 f i libucrtd:output.obj
 0001:00064cc0       ?state_count@?$standard_base@_WV?$string_output_adapter@_W@__crt_stdio_output@@@__crt_stdio_output@@KAIXZ 10065cc0 f i libucrtd:output.obj
 0001:00064cd0       ?state_transition_table@?$format_validation_base@DV?$stream_output_adapter@D@__crt_stdio_output@@@__crt_stdio_output@@KAABV?$spectre_mitigated_lookup_table@Ustate_transition_pair@__crt_stdio_output@@$0IA@@2@XZ 10065cd0 f i libucrtd:output.obj
 0001:00064ce0       ?state_transition_table@?$format_validation_base@DV?$string_output_adapter@D@__crt_stdio_output@@@__crt_stdio_output@@KAABV?$spectre_mitigated_lookup_table@Ustate_transition_pair@__crt_stdio_output@@$0IA@@2@XZ 10065ce0 f i libucrtd:output.obj
 0001:00064cf0       ?state_transition_table@?$format_validation_base@_WV?$stream_output_adapter@_W@__crt_stdio_output@@@__crt_stdio_output@@KAABV?$spectre_mitigated_lookup_table@Ustate_transition_pair@__crt_stdio_output@@$0IA@@2@XZ 10065cf0 f i libucrtd:output.obj
 0001:00064d00       ?state_transition_table@?$format_validation_base@_WV?$string_output_adapter@_W@__crt_stdio_output@@@__crt_stdio_output@@KAABV?$spectre_mitigated_lookup_table@Ustate_transition_pair@__crt_stdio_output@@$0IA@@2@XZ 10065d00 f i libucrtd:output.obj
 0001:00064d10       ?state_transition_table@?$standard_base@DV?$stream_output_adapter@D@__crt_stdio_output@@@__crt_stdio_output@@KAABV?$spectre_mitigated_lookup_table@Ustate_transition_pair@__crt_stdio_output@@$0IA@@2@XZ 10065d10 f i libucrtd:output.obj
 0001:00064d20       ?state_transition_table@?$standard_base@DV?$string_output_adapter@D@__crt_stdio_output@@@__crt_stdio_output@@KAABV?$spectre_mitigated_lookup_table@Ustate_transition_pair@__crt_stdio_output@@$0IA@@2@XZ 10065d20 f i libucrtd:output.obj
 0001:00064d30       ?state_transition_table@?$standard_base@_WV?$stream_output_adapter@_W@__crt_stdio_output@@@__crt_stdio_output@@KAABV?$spectre_mitigated_lookup_table@Ustate_transition_pair@__crt_stdio_output@@$0IA@@2@XZ 10065d30 f i libucrtd:output.obj
 0001:00064d40       ?state_transition_table@?$standard_base@_WV?$string_output_adapter@_W@__crt_stdio_output@@@__crt_stdio_output@@KAABV?$spectre_mitigated_lookup_table@Ustate_transition_pair@__crt_stdio_output@@$0IA@@2@XZ 10065d40 f i libucrtd:output.obj
 0001:00064d50       ?tchar_string@?$common_data@D@__crt_stdio_output@@IAEAAPADD@Z 10065d50 f i libucrtd:output.obj
 0001:00064d70       ?tchar_string@?$common_data@D@__crt_stdio_output@@IAEAAPADXZ 10065d70 f i libucrtd:output.obj
 0001:00064d90       ?tchar_string@?$common_data@_W@__crt_stdio_output@@IAEAAPA_WXZ 10065d90 f i libucrtd:output.obj
 0001:00064db0       ?tchar_string@?$common_data@_W@__crt_stdio_output@@IAEAAPA_W_W@Z 10065db0 f i libucrtd:output.obj
 0001:00064dd0       ?to_integer_size@__crt_stdio_output@@YAIW4length_modifier@1@@Z 10065dd0 f i libucrtd:output.obj
 0001:00064e70       ?type_case_X@?$output_processor@DV?$stream_output_adapter@D@__crt_stdio_output@@V?$format_validation_base@DV?$stream_output_adapter@D@__crt_stdio_output@@@2@@__crt_stdio_output@@AAE_NXZ 10065e70 f i libucrtd:output.obj
 0001:00064e90       ?type_case_X@?$output_processor@DV?$stream_output_adapter@D@__crt_stdio_output@@V?$positional_parameter_base@DV?$stream_output_adapter@D@__crt_stdio_output@@@2@@__crt_stdio_output@@AAE_NXZ 10065e90 f i libucrtd:output.obj
 0001:00064eb0       ?type_case_X@?$output_processor@DV?$stream_output_adapter@D@__crt_stdio_output@@V?$standard_base@DV?$stream_output_adapter@D@__crt_stdio_output@@@2@@__crt_stdio_output@@AAE_NXZ 10065eb0 f i libucrtd:output.obj
 0001:00064ed0       ?type_case_X@?$output_processor@DV?$string_output_adapter@D@__crt_stdio_output@@V?$format_validation_base@DV?$string_output_adapter@D@__crt_stdio_output@@@2@@__crt_stdio_output@@AAE_NXZ 10065ed0 f i libucrtd:output.obj
 0001:00064ef0       ?type_case_X@?$output_processor@DV?$string_output_adapter@D@__crt_stdio_output@@V?$positional_parameter_base@DV?$string_output_adapter@D@__crt_stdio_output@@@2@@__crt_stdio_output@@AAE_NXZ 10065ef0 f i libucrtd:output.obj
 0001:00064f10       ?type_case_X@?$output_processor@DV?$string_output_adapter@D@__crt_stdio_output@@V?$standard_base@DV?$string_output_adapter@D@__crt_stdio_output@@@2@@__crt_stdio_output@@AAE_NXZ 10065f10 f i libucrtd:output.obj
 0001:00064f30       ?type_case_X@?$output_processor@_WV?$stream_output_adapter@_W@__crt_stdio_output@@V?$format_validation_base@_WV?$stream_output_adapter@_W@__crt_stdio_output@@@2@@__crt_stdio_output@@AAE_NXZ 10065f30 f i libucrtd:output.obj
 0001:00064f50       ?type_case_X@?$output_processor@_WV?$stream_output_adapter@_W@__crt_stdio_output@@V?$positional_parameter_base@_WV?$stream_output_adapter@_W@__crt_stdio_output@@@2@@__crt_stdio_output@@AAE_NXZ 10065f50 f i libucrtd:output.obj
 0001:00064f70       ?type_case_X@?$output_processor@_WV?$stream_output_adapter@_W@__crt_stdio_output@@V?$standard_base@_WV?$stream_output_adapter@_W@__crt_stdio_output@@@2@@__crt_stdio_output@@AAE_NXZ 10065f70 f i libucrtd:output.obj
 0001:00064f90       ?type_case_X@?$output_processor@_WV?$string_output_adapter@_W@__crt_stdio_output@@V?$format_validation_base@_WV?$string_output_adapter@_W@__crt_stdio_output@@@2@@__crt_stdio_output@@AAE_NXZ 10065f90 f i libucrtd:output.obj
 0001:00064fb0       ?type_case_X@?$output_processor@_WV?$string_output_adapter@_W@__crt_stdio_output@@V?$positional_parameter_base@_WV?$string_output_adapter@_W@__crt_stdio_output@@@2@@__crt_stdio_output@@AAE_NXZ 10065fb0 f i libucrtd:output.obj
 0001:00064fd0       ?type_case_X@?$output_processor@_WV?$string_output_adapter@_W@__crt_stdio_output@@V?$standard_base@_WV?$string_output_adapter@_W@__crt_stdio_output@@@2@@__crt_stdio_output@@AAE_NXZ 10065fd0 f i libucrtd:output.obj
 0001:00064ff0       ?type_case_Z@?$output_processor@DV?$stream_output_adapter@D@__crt_stdio_output@@V?$format_validation_base@DV?$stream_output_adapter@D@__crt_stdio_output@@@2@@__crt_stdio_output@@AAE_NXZ 10065ff0 f i libucrtd:output.obj
 0001:000650e0       ?type_case_Z@?$output_processor@DV?$stream_output_adapter@D@__crt_stdio_output@@V?$positional_parameter_base@DV?$stream_output_adapter@D@__crt_stdio_output@@@2@@__crt_stdio_output@@AAE_NXZ 100660e0 f i libucrtd:output.obj
 0001:000651d0       ?type_case_Z@?$output_processor@DV?$stream_output_adapter@D@__crt_stdio_output@@V?$standard_base@DV?$stream_output_adapter@D@__crt_stdio_output@@@2@@__crt_stdio_output@@AAE_NXZ 100661d0 f i libucrtd:output.obj
 0001:000652c0       ?type_case_Z@?$output_processor@DV?$string_output_adapter@D@__crt_stdio_output@@V?$format_validation_base@DV?$string_output_adapter@D@__crt_stdio_output@@@2@@__crt_stdio_output@@AAE_NXZ 100662c0 f i libucrtd:output.obj
 0001:000653b0       ?type_case_Z@?$output_processor@DV?$string_output_adapter@D@__crt_stdio_output@@V?$positional_parameter_base@DV?$string_output_adapter@D@__crt_stdio_output@@@2@@__crt_stdio_output@@AAE_NXZ 100663b0 f i libucrtd:output.obj
 0001:000654a0       ?type_case_Z@?$output_processor@DV?$string_output_adapter@D@__crt_stdio_output@@V?$standard_base@DV?$string_output_adapter@D@__crt_stdio_output@@@2@@__crt_stdio_output@@AAE_NXZ 100664a0 f i libucrtd:output.obj
 0001:00065590       ?type_case_Z@?$output_processor@_WV?$stream_output_adapter@_W@__crt_stdio_output@@V?$format_validation_base@_WV?$stream_output_adapter@_W@__crt_stdio_output@@@2@@__crt_stdio_output@@AAE_NXZ 10066590 f i libucrtd:output.obj
 0001:00065680       ?type_case_Z@?$output_processor@_WV?$stream_output_adapter@_W@__crt_stdio_output@@V?$positional_parameter_base@_WV?$stream_output_adapter@_W@__crt_stdio_output@@@2@@__crt_stdio_output@@AAE_NXZ 10066680 f i libucrtd:output.obj
 0001:00065770       ?type_case_Z@?$output_processor@_WV?$stream_output_adapter@_W@__crt_stdio_output@@V?$standard_base@_WV?$stream_output_adapter@_W@__crt_stdio_output@@@2@@__crt_stdio_output@@AAE_NXZ 10066770 f i libucrtd:output.obj
 0001:00065860       ?type_case_Z@?$output_processor@_WV?$string_output_adapter@_W@__crt_stdio_output@@V?$format_validation_base@_WV?$string_output_adapter@_W@__crt_stdio_output@@@2@@__crt_stdio_output@@AAE_NXZ 10066860 f i libucrtd:output.obj
 0001:00065950       ?type_case_Z@?$output_processor@_WV?$string_output_adapter@_W@__crt_stdio_output@@V?$positional_parameter_base@_WV?$string_output_adapter@_W@__crt_stdio_output@@@2@@__crt_stdio_output@@AAE_NXZ 10066950 f i libucrtd:output.obj
 0001:00065a40       ?type_case_Z@?$output_processor@_WV?$string_output_adapter@_W@__crt_stdio_output@@V?$standard_base@_WV?$string_output_adapter@_W@__crt_stdio_output@@@2@@__crt_stdio_output@@AAE_NXZ 10066a40 f i libucrtd:output.obj
 0001:00065b30       ?type_case_a@?$output_processor@DV?$stream_output_adapter@D@__crt_stdio_output@@V?$format_validation_base@DV?$stream_output_adapter@D@__crt_stdio_output@@@2@@__crt_stdio_output@@AAE_NXZ 10066b30 f i libucrtd:output.obj
 0001:00065e00       ?type_case_a@?$output_processor@DV?$stream_output_adapter@D@__crt_stdio_output@@V?$positional_parameter_base@DV?$stream_output_adapter@D@__crt_stdio_output@@@2@@__crt_stdio_output@@AAE_NXZ 10066e00 f i libucrtd:output.obj
 0001:000660d0       ?type_case_a@?$output_processor@DV?$stream_output_adapter@D@__crt_stdio_output@@V?$standard_base@DV?$stream_output_adapter@D@__crt_stdio_output@@@2@@__crt_stdio_output@@AAE_NXZ 100670d0 f i libucrtd:output.obj
 0001:000663a0       ?type_case_a@?$output_processor@DV?$string_output_adapter@D@__crt_stdio_output@@V?$format_validation_base@DV?$string_output_adapter@D@__crt_stdio_output@@@2@@__crt_stdio_output@@AAE_NXZ 100673a0 f i libucrtd:output.obj
 0001:00066670       ?type_case_a@?$output_processor@DV?$string_output_adapter@D@__crt_stdio_output@@V?$positional_parameter_base@DV?$string_output_adapter@D@__crt_stdio_output@@@2@@__crt_stdio_output@@AAE_NXZ 10067670 f i libucrtd:output.obj
 0001:00066940       ?type_case_a@?$output_processor@DV?$string_output_adapter@D@__crt_stdio_output@@V?$standard_base@DV?$string_output_adapter@D@__crt_stdio_output@@@2@@__crt_stdio_output@@AAE_NXZ 10067940 f i libucrtd:output.obj
 0001:00066c10       ?type_case_a@?$output_processor@_WV?$stream_output_adapter@_W@__crt_stdio_output@@V?$format_validation_base@_WV?$stream_output_adapter@_W@__crt_stdio_output@@@2@@__crt_stdio_output@@AAE_NXZ 10067c10 f i libucrtd:output.obj
 0001:00066ee0       ?type_case_a@?$output_processor@_WV?$stream_output_adapter@_W@__crt_stdio_output@@V?$positional_parameter_base@_WV?$stream_output_adapter@_W@__crt_stdio_output@@@2@@__crt_stdio_output@@AAE_NXZ 10067ee0 f i libucrtd:output.obj
 0001:000671b0       ?type_case_a@?$output_processor@_WV?$stream_output_adapter@_W@__crt_stdio_output@@V?$standard_base@_WV?$stream_output_adapter@_W@__crt_stdio_output@@@2@@__crt_stdio_output@@AAE_NXZ 100681b0 f i libucrtd:output.obj
 0001:00067480       ?type_case_a@?$output_processor@_WV?$string_output_adapter@_W@__crt_stdio_output@@V?$format_validation_base@_WV?$string_output_adapter@_W@__crt_stdio_output@@@2@@__crt_stdio_output@@AAE_NXZ 10068480 f i libucrtd:output.obj
 0001:00067750       ?type_case_a@?$output_processor@_WV?$string_output_adapter@_W@__crt_stdio_output@@V?$positional_parameter_base@_WV?$string_output_adapter@_W@__crt_stdio_output@@@2@@__crt_stdio_output@@AAE_NXZ 10068750 f i libucrtd:output.obj
 0001:00067a20       ?type_case_a@?$output_processor@_WV?$string_output_adapter@_W@__crt_stdio_output@@V?$standard_base@_WV?$string_output_adapter@_W@__crt_stdio_output@@@2@@__crt_stdio_output@@AAE_NXZ 10068a20 f i libucrtd:output.obj
 0001:00067cf0       ?type_case_c@?$output_processor@DV?$stream_output_adapter@D@__crt_stdio_output@@V?$format_validation_base@DV?$stream_output_adapter@D@__crt_stdio_output@@@2@@__crt_stdio_output@@AAE_NXZ 10068cf0 f i libucrtd:output.obj
 0001:00067d10       ?type_case_c@?$output_processor@DV?$stream_output_adapter@D@__crt_stdio_output@@V?$positional_parameter_base@DV?$stream_output_adapter@D@__crt_stdio_output@@@2@@__crt_stdio_output@@AAE_NXZ 10068d10 f i libucrtd:output.obj
 0001:00067d30       ?type_case_c@?$output_processor@DV?$stream_output_adapter@D@__crt_stdio_output@@V?$standard_base@DV?$stream_output_adapter@D@__crt_stdio_output@@@2@@__crt_stdio_output@@AAE_NXZ 10068d30 f i libucrtd:output.obj
 0001:00067d50       ?type_case_c@?$output_processor@DV?$string_output_adapter@D@__crt_stdio_output@@V?$format_validation_base@DV?$string_output_adapter@D@__crt_stdio_output@@@2@@__crt_stdio_output@@AAE_NXZ 10068d50 f i libucrtd:output.obj
 0001:00067d70       ?type_case_c@?$output_processor@DV?$string_output_adapter@D@__crt_stdio_output@@V?$positional_parameter_base@DV?$string_output_adapter@D@__crt_stdio_output@@@2@@__crt_stdio_output@@AAE_NXZ 10068d70 f i libucrtd:output.obj
 0001:00067d90       ?type_case_c@?$output_processor@DV?$string_output_adapter@D@__crt_stdio_output@@V?$standard_base@DV?$string_output_adapter@D@__crt_stdio_output@@@2@@__crt_stdio_output@@AAE_NXZ 10068d90 f i libucrtd:output.obj
 0001:00067db0       ?type_case_c@?$output_processor@_WV?$stream_output_adapter@_W@__crt_stdio_output@@V?$format_validation_base@_WV?$stream_output_adapter@_W@__crt_stdio_output@@@2@@__crt_stdio_output@@AAE_NXZ 10068db0 f i libucrtd:output.obj
 0001:00067dd0       ?type_case_c@?$output_processor@_WV?$stream_output_adapter@_W@__crt_stdio_output@@V?$positional_parameter_base@_WV?$stream_output_adapter@_W@__crt_stdio_output@@@2@@__crt_stdio_output@@AAE_NXZ 10068dd0 f i libucrtd:output.obj
 0001:00067df0       ?type_case_c@?$output_processor@_WV?$stream_output_adapter@_W@__crt_stdio_output@@V?$standard_base@_WV?$stream_output_adapter@_W@__crt_stdio_output@@@2@@__crt_stdio_output@@AAE_NXZ 10068df0 f i libucrtd:output.obj
 0001:00067e10       ?type_case_c@?$output_processor@_WV?$string_output_adapter@_W@__crt_stdio_output@@V?$format_validation_base@_WV?$string_output_adapter@_W@__crt_stdio_output@@@2@@__crt_stdio_output@@AAE_NXZ 10068e10 f i libucrtd:output.obj
 0001:00067e30       ?type_case_c@?$output_processor@_WV?$string_output_adapter@_W@__crt_stdio_output@@V?$positional_parameter_base@_WV?$string_output_adapter@_W@__crt_stdio_output@@@2@@__crt_stdio_output@@AAE_NXZ 10068e30 f i libucrtd:output.obj
 0001:00067e50       ?type_case_c@?$output_processor@_WV?$string_output_adapter@_W@__crt_stdio_output@@V?$standard_base@_WV?$string_output_adapter@_W@__crt_stdio_output@@@2@@__crt_stdio_output@@AAE_NXZ 10068e50 f i libucrtd:output.obj
 0001:00067e70       ?type_case_c_tchar@?$output_processor@DV?$stream_output_adapter@D@__crt_stdio_output@@V?$format_validation_base@DV?$stream_output_adapter@D@__crt_stdio_output@@@2@@__crt_stdio_output@@AAE_ND@Z 10068e70 f i libucrtd:output.obj
 0001:00067fa0       ?type_case_c_tchar@?$output_processor@DV?$stream_output_adapter@D@__crt_stdio_output@@V?$positional_parameter_base@DV?$stream_output_adapter@D@__crt_stdio_output@@@2@@__crt_stdio_output@@AAE_ND@Z 10068fa0 f i libucrtd:output.obj
 0001:000680d0       ?type_case_c_tchar@?$output_processor@DV?$stream_output_adapter@D@__crt_stdio_output@@V?$standard_base@DV?$stream_output_adapter@D@__crt_stdio_output@@@2@@__crt_stdio_output@@AAE_ND@Z 100690d0 f i libucrtd:output.obj
 0001:00068200       ?type_case_c_tchar@?$output_processor@DV?$string_output_adapter@D@__crt_stdio_output@@V?$format_validation_base@DV?$string_output_adapter@D@__crt_stdio_output@@@2@@__crt_stdio_output@@AAE_ND@Z 10069200 f i libucrtd:output.obj
 0001:00068330       ?type_case_c_tchar@?$output_processor@DV?$string_output_adapter@D@__crt_stdio_output@@V?$positional_parameter_base@DV?$string_output_adapter@D@__crt_stdio_output@@@2@@__crt_stdio_output@@AAE_ND@Z 10069330 f i libucrtd:output.obj
 0001:00068460       ?type_case_c_tchar@?$output_processor@DV?$string_output_adapter@D@__crt_stdio_output@@V?$standard_base@DV?$string_output_adapter@D@__crt_stdio_output@@@2@@__crt_stdio_output@@AAE_ND@Z 10069460 f i libucrtd:output.obj
 0001:00068590       ?type_case_c_tchar@?$output_processor@_WV?$stream_output_adapter@_W@__crt_stdio_output@@V?$format_validation_base@_WV?$stream_output_adapter@_W@__crt_stdio_output@@@2@@__crt_stdio_output@@AAE_N_W@Z 10069590 f i libucrtd:output.obj
 0001:000686b0       ?type_case_c_tchar@?$output_processor@_WV?$stream_output_adapter@_W@__crt_stdio_output@@V?$positional_parameter_base@_WV?$stream_output_adapter@_W@__crt_stdio_output@@@2@@__crt_stdio_output@@AAE_N_W@Z 100696b0 f i libucrtd:output.obj
 0001:000687d0       ?type_case_c_tchar@?$output_processor@_WV?$stream_output_adapter@_W@__crt_stdio_output@@V?$standard_base@_WV?$stream_output_adapter@_W@__crt_stdio_output@@@2@@__crt_stdio_output@@AAE_N_W@Z 100697d0 f i libucrtd:output.obj
 0001:000688f0       ?type_case_c_tchar@?$output_processor@_WV?$string_output_adapter@_W@__crt_stdio_output@@V?$format_validation_base@_WV?$string_output_adapter@_W@__crt_stdio_output@@@2@@__crt_stdio_output@@AAE_N_W@Z 100698f0 f i libucrtd:output.obj
 0001:00068a10       ?type_case_c_tchar@?$output_processor@_WV?$string_output_adapter@_W@__crt_stdio_output@@V?$positional_parameter_base@_WV?$string_output_adapter@_W@__crt_stdio_output@@@2@@__crt_stdio_output@@AAE_N_W@Z 10069a10 f i libucrtd:output.obj
 0001:00068b30       ?type_case_c_tchar@?$output_processor@_WV?$string_output_adapter@_W@__crt_stdio_output@@V?$standard_base@_WV?$string_output_adapter@_W@__crt_stdio_output@@@2@@__crt_stdio_output@@AAE_N_W@Z 10069b30 f i libucrtd:output.obj
 0001:00068c50       ?type_case_d@?$output_processor@DV?$stream_output_adapter@D@__crt_stdio_output@@V?$format_validation_base@DV?$stream_output_adapter@D@__crt_stdio_output@@@2@@__crt_stdio_output@@AAE_NXZ 10069c50 f i libucrtd:output.obj
 0001:00068c80       ?type_case_d@?$output_processor@DV?$stream_output_adapter@D@__crt_stdio_output@@V?$positional_parameter_base@DV?$stream_output_adapter@D@__crt_stdio_output@@@2@@__crt_stdio_output@@AAE_NXZ 10069c80 f i libucrtd:output.obj
 0001:00068cb0       ?type_case_d@?$output_processor@DV?$stream_output_adapter@D@__crt_stdio_output@@V?$standard_base@DV?$stream_output_adapter@D@__crt_stdio_output@@@2@@__crt_stdio_output@@AAE_NXZ 10069cb0 f i libucrtd:output.obj
 0001:00068ce0       ?type_case_d@?$output_processor@DV?$string_output_adapter@D@__crt_stdio_output@@V?$format_validation_base@DV?$string_output_adapter@D@__crt_stdio_output@@@2@@__crt_stdio_output@@AAE_NXZ 10069ce0 f i libucrtd:output.obj
 0001:00068d10       ?type_case_d@?$output_processor@DV?$string_output_adapter@D@__crt_stdio_output@@V?$positional_parameter_base@DV?$string_output_adapter@D@__crt_stdio_output@@@2@@__crt_stdio_output@@AAE_NXZ 10069d10 f i libucrtd:output.obj
 0001:00068d40       ?type_case_d@?$output_processor@DV?$string_output_adapter@D@__crt_stdio_output@@V?$standard_base@DV?$string_output_adapter@D@__crt_stdio_output@@@2@@__crt_stdio_output@@AAE_NXZ 10069d40 f i libucrtd:output.obj
 0001:00068d70       ?type_case_d@?$output_processor@_WV?$stream_output_adapter@_W@__crt_stdio_output@@V?$format_validation_base@_WV?$stream_output_adapter@_W@__crt_stdio_output@@@2@@__crt_stdio_output@@AAE_NXZ 10069d70 f i libucrtd:output.obj
 0001:00068da0       ?type_case_d@?$output_processor@_WV?$stream_output_adapter@_W@__crt_stdio_output@@V?$positional_parameter_base@_WV?$stream_output_adapter@_W@__crt_stdio_output@@@2@@__crt_stdio_output@@AAE_NXZ 10069da0 f i libucrtd:output.obj
 0001:00068dd0       ?type_case_d@?$output_processor@_WV?$stream_output_adapter@_W@__crt_stdio_output@@V?$standard_base@_WV?$stream_output_adapter@_W@__crt_stdio_output@@@2@@__crt_stdio_output@@AAE_NXZ 10069dd0 f i libucrtd:output.obj
 0001:00068e00       ?type_case_d@?$output_processor@_WV?$string_output_adapter@_W@__crt_stdio_output@@V?$format_validation_base@_WV?$string_output_adapter@_W@__crt_stdio_output@@@2@@__crt_stdio_output@@AAE_NXZ 10069e00 f i libucrtd:output.obj
 0001:00068e30       ?type_case_d@?$output_processor@_WV?$string_output_adapter@_W@__crt_stdio_output@@V?$positional_parameter_base@_WV?$string_output_adapter@_W@__crt_stdio_output@@@2@@__crt_stdio_output@@AAE_NXZ 10069e30 f i libucrtd:output.obj
 0001:00068e60       ?type_case_d@?$output_processor@_WV?$string_output_adapter@_W@__crt_stdio_output@@V?$standard_base@_WV?$string_output_adapter@_W@__crt_stdio_output@@@2@@__crt_stdio_output@@AAE_NXZ 10069e60 f i libucrtd:output.obj
 0001:00068e90       ?type_case_n@?$output_processor@DV?$stream_output_adapter@D@__crt_stdio_output@@V?$format_validation_base@DV?$stream_output_adapter@D@__crt_stdio_output@@@2@@__crt_stdio_output@@AAE_NXZ 10069e90 f i libucrtd:output.obj
 0001:000690b0       ?type_case_n@?$output_processor@DV?$stream_output_adapter@D@__crt_stdio_output@@V?$positional_parameter_base@DV?$stream_output_adapter@D@__crt_stdio_output@@@2@@__crt_stdio_output@@AAE_NXZ 1006a0b0 f i libucrtd:output.obj
 0001:000692d0       ?type_case_n@?$output_processor@DV?$stream_output_adapter@D@__crt_stdio_output@@V?$standard_base@DV?$stream_output_adapter@D@__crt_stdio_output@@@2@@__crt_stdio_output@@AAE_NXZ 1006a2d0 f i libucrtd:output.obj
 0001:000694f0       ?type_case_n@?$output_processor@DV?$string_output_adapter@D@__crt_stdio_output@@V?$format_validation_base@DV?$string_output_adapter@D@__crt_stdio_output@@@2@@__crt_stdio_output@@AAE_NXZ 1006a4f0 f i libucrtd:output.obj
 0001:00069710       ?type_case_n@?$output_processor@DV?$string_output_adapter@D@__crt_stdio_output@@V?$positional_parameter_base@DV?$string_output_adapter@D@__crt_stdio_output@@@2@@__crt_stdio_output@@AAE_NXZ 1006a710 f i libucrtd:output.obj
 0001:00069930       ?type_case_n@?$output_processor@DV?$string_output_adapter@D@__crt_stdio_output@@V?$standard_base@DV?$string_output_adapter@D@__crt_stdio_output@@@2@@__crt_stdio_output@@AAE_NXZ 1006a930 f i libucrtd:output.obj
 0001:00069b50       ?type_case_n@?$output_processor@_WV?$stream_output_adapter@_W@__crt_stdio_output@@V?$format_validation_base@_WV?$stream_output_adapter@_W@__crt_stdio_output@@@2@@__crt_stdio_output@@AAE_NXZ 1006ab50 f i libucrtd:output.obj
 0001:00069d70       ?type_case_n@?$output_processor@_WV?$stream_output_adapter@_W@__crt_stdio_output@@V?$positional_parameter_base@_WV?$stream_output_adapter@_W@__crt_stdio_output@@@2@@__crt_stdio_output@@AAE_NXZ 1006ad70 f i libucrtd:output.obj
 0001:00069f90       ?type_case_n@?$output_processor@_WV?$stream_output_adapter@_W@__crt_stdio_output@@V?$standard_base@_WV?$stream_output_adapter@_W@__crt_stdio_output@@@2@@__crt_stdio_output@@AAE_NXZ 1006af90 f i libucrtd:output.obj
 0001:0006a1b0       ?type_case_n@?$output_processor@_WV?$string_output_adapter@_W@__crt_stdio_output@@V?$format_validation_base@_WV?$string_output_adapter@_W@__crt_stdio_output@@@2@@__crt_stdio_output@@AAE_NXZ 1006b1b0 f i libucrtd:output.obj
 0001:0006a3d0       ?type_case_n@?$output_processor@_WV?$string_output_adapter@_W@__crt_stdio_output@@V?$positional_parameter_base@_WV?$string_output_adapter@_W@__crt_stdio_output@@@2@@__crt_stdio_output@@AAE_NXZ 1006b3d0 f i libucrtd:output.obj
 0001:0006a5f0       ?type_case_n@?$output_processor@_WV?$string_output_adapter@_W@__crt_stdio_output@@V?$standard_base@_WV?$string_output_adapter@_W@__crt_stdio_output@@@2@@__crt_stdio_output@@AAE_NXZ 1006b5f0 f i libucrtd:output.obj
 0001:0006a810       ?type_case_o@?$output_processor@DV?$stream_output_adapter@D@__crt_stdio_output@@V?$format_validation_base@DV?$stream_output_adapter@D@__crt_stdio_output@@@2@@__crt_stdio_output@@AAE_NXZ 1006b810 f i libucrtd:output.obj
 0001:0006a850       ?type_case_o@?$output_processor@DV?$stream_output_adapter@D@__crt_stdio_output@@V?$positional_parameter_base@DV?$stream_output_adapter@D@__crt_stdio_output@@@2@@__crt_stdio_output@@AAE_NXZ 1006b850 f i libucrtd:output.obj
 0001:0006a890       ?type_case_o@?$output_processor@DV?$stream_output_adapter@D@__crt_stdio_output@@V?$standard_base@DV?$stream_output_adapter@D@__crt_stdio_output@@@2@@__crt_stdio_output@@AAE_NXZ 1006b890 f i libucrtd:output.obj
 0001:0006a8d0       ?type_case_o@?$output_processor@DV?$string_output_adapter@D@__crt_stdio_output@@V?$format_validation_base@DV?$string_output_adapter@D@__crt_stdio_output@@@2@@__crt_stdio_output@@AAE_NXZ 1006b8d0 f i libucrtd:output.obj
 0001:0006a910       ?type_case_o@?$output_processor@DV?$string_output_adapter@D@__crt_stdio_output@@V?$positional_parameter_base@DV?$string_output_adapter@D@__crt_stdio_output@@@2@@__crt_stdio_output@@AAE_NXZ 1006b910 f i libucrtd:output.obj
 0001:0006a950       ?type_case_o@?$output_processor@DV?$string_output_adapter@D@__crt_stdio_output@@V?$standard_base@DV?$string_output_adapter@D@__crt_stdio_output@@@2@@__crt_stdio_output@@AAE_NXZ 1006b950 f i libucrtd:output.obj
 0001:0006a990       ?type_case_o@?$output_processor@_WV?$stream_output_adapter@_W@__crt_stdio_output@@V?$format_validation_base@_WV?$stream_output_adapter@_W@__crt_stdio_output@@@2@@__crt_stdio_output@@AAE_NXZ 1006b990 f i libucrtd:output.obj
 0001:0006a9d0       ?type_case_o@?$output_processor@_WV?$stream_output_adapter@_W@__crt_stdio_output@@V?$positional_parameter_base@_WV?$stream_output_adapter@_W@__crt_stdio_output@@@2@@__crt_stdio_output@@AAE_NXZ 1006b9d0 f i libucrtd:output.obj
 0001:0006aa10       ?type_case_o@?$output_processor@_WV?$stream_output_adapter@_W@__crt_stdio_output@@V?$standard_base@_WV?$stream_output_adapter@_W@__crt_stdio_output@@@2@@__crt_stdio_output@@AAE_NXZ 1006ba10 f i libucrtd:output.obj
 0001:0006aa50       ?type_case_o@?$output_processor@_WV?$string_output_adapter@_W@__crt_stdio_output@@V?$format_validation_base@_WV?$string_output_adapter@_W@__crt_stdio_output@@@2@@__crt_stdio_output@@AAE_NXZ 1006ba50 f i libucrtd:output.obj
 0001:0006aa90       ?type_case_o@?$output_processor@_WV?$string_output_adapter@_W@__crt_stdio_output@@V?$positional_parameter_base@_WV?$string_output_adapter@_W@__crt_stdio_output@@@2@@__crt_stdio_output@@AAE_NXZ 1006ba90 f i libucrtd:output.obj
 0001:0006aad0       ?type_case_o@?$output_processor@_WV?$string_output_adapter@_W@__crt_stdio_output@@V?$standard_base@_WV?$string_output_adapter@_W@__crt_stdio_output@@@2@@__crt_stdio_output@@AAE_NXZ 1006bad0 f i libucrtd:output.obj
 0001:0006ab10       ?type_case_p@?$output_processor@DV?$stream_output_adapter@D@__crt_stdio_output@@V?$format_validation_base@DV?$stream_output_adapter@D@__crt_stdio_output@@@2@@__crt_stdio_output@@AAE_NXZ 1006bb10 f i libucrtd:output.obj
 0001:0006ab40       ?type_case_p@?$output_processor@DV?$stream_output_adapter@D@__crt_stdio_output@@V?$positional_parameter_base@DV?$stream_output_adapter@D@__crt_stdio_output@@@2@@__crt_stdio_output@@AAE_NXZ 1006bb40 f i libucrtd:output.obj
 0001:0006ab70       ?type_case_p@?$output_processor@DV?$stream_output_adapter@D@__crt_stdio_output@@V?$standard_base@DV?$stream_output_adapter@D@__crt_stdio_output@@@2@@__crt_stdio_output@@AAE_NXZ 1006bb70 f i libucrtd:output.obj
 0001:0006aba0       ?type_case_p@?$output_processor@DV?$string_output_adapter@D@__crt_stdio_output@@V?$format_validation_base@DV?$string_output_adapter@D@__crt_stdio_output@@@2@@__crt_stdio_output@@AAE_NXZ 1006bba0 f i libucrtd:output.obj
 0001:0006abd0       ?type_case_p@?$output_processor@DV?$string_output_adapter@D@__crt_stdio_output@@V?$positional_parameter_base@DV?$string_output_adapter@D@__crt_stdio_output@@@2@@__crt_stdio_output@@AAE_NXZ 1006bbd0 f i libucrtd:output.obj
 0001:0006ac00       ?type_case_p@?$output_processor@DV?$string_output_adapter@D@__crt_stdio_output@@V?$standard_base@DV?$string_output_adapter@D@__crt_stdio_output@@@2@@__crt_stdio_output@@AAE_NXZ 1006bc00 f i libucrtd:output.obj
 0001:0006ac30       ?type_case_p@?$output_processor@_WV?$stream_output_adapter@_W@__crt_stdio_output@@V?$format_validation_base@_WV?$stream_output_adapter@_W@__crt_stdio_output@@@2@@__crt_stdio_output@@AAE_NXZ 1006bc30 f i libucrtd:output.obj
 0001:0006ac60       ?type_case_p@?$output_processor@_WV?$stream_output_adapter@_W@__crt_stdio_output@@V?$positional_parameter_base@_WV?$stream_output_adapter@_W@__crt_stdio_output@@@2@@__crt_stdio_output@@AAE_NXZ 1006bc60 f i libucrtd:output.obj
 0001:0006ac90       ?type_case_p@?$output_processor@_WV?$stream_output_adapter@_W@__crt_stdio_output@@V?$standard_base@_WV?$stream_output_adapter@_W@__crt_stdio_output@@@2@@__crt_stdio_output@@AAE_NXZ 1006bc90 f i libucrtd:output.obj
 0001:0006acc0       ?type_case_p@?$output_processor@_WV?$string_output_adapter@_W@__crt_stdio_output@@V?$format_validation_base@_WV?$string_output_adapter@_W@__crt_stdio_output@@@2@@__crt_stdio_output@@AAE_NXZ 1006bcc0 f i libucrtd:output.obj
 0001:0006acf0       ?type_case_p@?$output_processor@_WV?$string_output_adapter@_W@__crt_stdio_output@@V?$positional_parameter_base@_WV?$string_output_adapter@_W@__crt_stdio_output@@@2@@__crt_stdio_output@@AAE_NXZ 1006bcf0 f i libucrtd:output.obj
 0001:0006ad20       ?type_case_p@?$output_processor@_WV?$string_output_adapter@_W@__crt_stdio_output@@V?$standard_base@_WV?$string_output_adapter@_W@__crt_stdio_output@@@2@@__crt_stdio_output@@AAE_NXZ 1006bd20 f i libucrtd:output.obj
 0001:0006ad50       ?type_case_s@?$output_processor@DV?$stream_output_adapter@D@__crt_stdio_output@@V?$format_validation_base@DV?$stream_output_adapter@D@__crt_stdio_output@@@2@@__crt_stdio_output@@AAE_NXZ 1006bd50 f i libucrtd:output.obj
 0001:0006ae40       ?type_case_s@?$output_processor@DV?$stream_output_adapter@D@__crt_stdio_output@@V?$positional_parameter_base@DV?$stream_output_adapter@D@__crt_stdio_output@@@2@@__crt_stdio_output@@AAE_NXZ 1006be40 f i libucrtd:output.obj
 0001:0006af30       ?type_case_s@?$output_processor@DV?$stream_output_adapter@D@__crt_stdio_output@@V?$standard_base@DV?$stream_output_adapter@D@__crt_stdio_output@@@2@@__crt_stdio_output@@AAE_NXZ 1006bf30 f i libucrtd:output.obj
 0001:0006b020       ?type_case_s@?$output_processor@DV?$string_output_adapter@D@__crt_stdio_output@@V?$format_validation_base@DV?$string_output_adapter@D@__crt_stdio_output@@@2@@__crt_stdio_output@@AAE_NXZ 1006c020 f i libucrtd:output.obj
 0001:0006b110       ?type_case_s@?$output_processor@DV?$string_output_adapter@D@__crt_stdio_output@@V?$positional_parameter_base@DV?$string_output_adapter@D@__crt_stdio_output@@@2@@__crt_stdio_output@@AAE_NXZ 1006c110 f i libucrtd:output.obj
 0001:0006b200       ?type_case_s@?$output_processor@DV?$string_output_adapter@D@__crt_stdio_output@@V?$standard_base@DV?$string_output_adapter@D@__crt_stdio_output@@@2@@__crt_stdio_output@@AAE_NXZ 1006c200 f i libucrtd:output.obj
 0001:0006b2f0       ?type_case_s@?$output_processor@_WV?$stream_output_adapter@_W@__crt_stdio_output@@V?$format_validation_base@_WV?$stream_output_adapter@_W@__crt_stdio_output@@@2@@__crt_stdio_output@@AAE_NXZ 1006c2f0 f i libucrtd:output.obj
 0001:0006b3e0       ?type_case_s@?$output_processor@_WV?$stream_output_adapter@_W@__crt_stdio_output@@V?$positional_parameter_base@_WV?$stream_output_adapter@_W@__crt_stdio_output@@@2@@__crt_stdio_output@@AAE_NXZ 1006c3e0 f i libucrtd:output.obj
 0001:0006b4d0       ?type_case_s@?$output_processor@_WV?$stream_output_adapter@_W@__crt_stdio_output@@V?$standard_base@_WV?$stream_output_adapter@_W@__crt_stdio_output@@@2@@__crt_stdio_output@@AAE_NXZ 1006c4d0 f i libucrtd:output.obj
 0001:0006b5c0       ?type_case_s@?$output_processor@_WV?$string_output_adapter@_W@__crt_stdio_output@@V?$format_validation_base@_WV?$string_output_adapter@_W@__crt_stdio_output@@@2@@__crt_stdio_output@@AAE_NXZ 1006c5c0 f i libucrtd:output.obj
 0001:0006b6b0       ?type_case_s@?$output_processor@_WV?$string_output_adapter@_W@__crt_stdio_output@@V?$positional_parameter_base@_WV?$string_output_adapter@_W@__crt_stdio_output@@@2@@__crt_stdio_output@@AAE_NXZ 1006c6b0 f i libucrtd:output.obj
 0001:0006b7a0       ?type_case_s@?$output_processor@_WV?$string_output_adapter@_W@__crt_stdio_output@@V?$standard_base@_WV?$string_output_adapter@_W@__crt_stdio_output@@@2@@__crt_stdio_output@@AAE_NXZ 1006c7a0 f i libucrtd:output.obj
 0001:0006b890       ?type_case_s_compute_narrow_string_length@?$output_processor@DV?$stream_output_adapter@D@__crt_stdio_output@@V?$format_validation_base@DV?$stream_output_adapter@D@__crt_stdio_output@@@2@@__crt_stdio_output@@AAEHHD@Z 1006c890 f i libucrtd:output.obj
 0001:0006b8c0       ?type_case_s_compute_narrow_string_length@?$output_processor@DV?$stream_output_adapter@D@__crt_stdio_output@@V?$positional_parameter_base@DV?$stream_output_adapter@D@__crt_stdio_output@@@2@@__crt_stdio_output@@AAEHHD@Z 1006c8c0 f i libucrtd:output.obj
 0001:0006b8f0       ?type_case_s_compute_narrow_string_length@?$output_processor@DV?$stream_output_adapter@D@__crt_stdio_output@@V?$standard_base@DV?$stream_output_adapter@D@__crt_stdio_output@@@2@@__crt_stdio_output@@AAEHHD@Z 1006c8f0 f i libucrtd:output.obj
 0001:0006b920       ?type_case_s_compute_narrow_string_length@?$output_processor@DV?$string_output_adapter@D@__crt_stdio_output@@V?$format_validation_base@DV?$string_output_adapter@D@__crt_stdio_output@@@2@@__crt_stdio_output@@AAEHHD@Z 1006c920 f i libucrtd:output.obj
 0001:0006b950       ?type_case_s_compute_narrow_string_length@?$output_processor@DV?$string_output_adapter@D@__crt_stdio_output@@V?$positional_parameter_base@DV?$string_output_adapter@D@__crt_stdio_output@@@2@@__crt_stdio_output@@AAEHHD@Z 1006c950 f i libucrtd:output.obj
 0001:0006b980       ?type_case_s_compute_narrow_string_length@?$output_processor@DV?$string_output_adapter@D@__crt_stdio_output@@V?$standard_base@DV?$string_output_adapter@D@__crt_stdio_output@@@2@@__crt_stdio_output@@AAEHHD@Z 1006c980 f i libucrtd:output.obj
 0001:0006b9b0       ?type_case_s_compute_narrow_string_length@?$output_processor@_WV?$stream_output_adapter@_W@__crt_stdio_output@@V?$format_validation_base@_WV?$stream_output_adapter@_W@__crt_stdio_output@@@2@@__crt_stdio_output@@AAEHH_W@Z 1006c9b0 f i libucrtd:output.obj
 0001:0006ba30       ?type_case_s_compute_narrow_string_length@?$output_processor@_WV?$stream_output_adapter@_W@__crt_stdio_output@@V?$positional_parameter_base@_WV?$stream_output_adapter@_W@__crt_stdio_output@@@2@@__crt_stdio_output@@AAEHH_W@Z 1006ca30 f i libucrtd:output.obj
 0001:0006bab0       ?type_case_s_compute_narrow_string_length@?$output_processor@_WV?$stream_output_adapter@_W@__crt_stdio_output@@V?$standard_base@_WV?$stream_output_adapter@_W@__crt_stdio_output@@@2@@__crt_stdio_output@@AAEHH_W@Z 1006cab0 f i libucrtd:output.obj
 0001:0006bb30       ?type_case_s_compute_narrow_string_length@?$output_processor@_WV?$string_output_adapter@_W@__crt_stdio_output@@V?$format_validation_base@_WV?$string_output_adapter@_W@__crt_stdio_output@@@2@@__crt_stdio_output@@AAEHH_W@Z 1006cb30 f i libucrtd:output.obj
 0001:0006bbb0       ?type_case_s_compute_narrow_string_length@?$output_processor@_WV?$string_output_adapter@_W@__crt_stdio_output@@V?$positional_parameter_base@_WV?$string_output_adapter@_W@__crt_stdio_output@@@2@@__crt_stdio_output@@AAEHH_W@Z 1006cbb0 f i libucrtd:output.obj
 0001:0006bc30       ?type_case_s_compute_narrow_string_length@?$output_processor@_WV?$string_output_adapter@_W@__crt_stdio_output@@V?$standard_base@_WV?$string_output_adapter@_W@__crt_stdio_output@@@2@@__crt_stdio_output@@AAEHH_W@Z 1006cc30 f i libucrtd:output.obj
 0001:0006bcb0       ?type_case_u@?$output_processor@DV?$stream_output_adapter@D@__crt_stdio_output@@V?$format_validation_base@DV?$stream_output_adapter@D@__crt_stdio_output@@@2@@__crt_stdio_output@@AAE_NXZ 1006ccb0 f i libucrtd:output.obj
 0001:0006bcd0       ?type_case_u@?$output_processor@DV?$stream_output_adapter@D@__crt_stdio_output@@V?$positional_parameter_base@DV?$stream_output_adapter@D@__crt_stdio_output@@@2@@__crt_stdio_output@@AAE_NXZ 1006ccd0 f i libucrtd:output.obj
 0001:0006bcf0       ?type_case_u@?$output_processor@DV?$stream_output_adapter@D@__crt_stdio_output@@V?$standard_base@DV?$stream_output_adapter@D@__crt_stdio_output@@@2@@__crt_stdio_output@@AAE_NXZ 1006ccf0 f i libucrtd:output.obj
 0001:0006bd10       ?type_case_u@?$output_processor@DV?$string_output_adapter@D@__crt_stdio_output@@V?$format_validation_base@DV?$string_output_adapter@D@__crt_stdio_output@@@2@@__crt_stdio_output@@AAE_NXZ 1006cd10 f i libucrtd:output.obj
 0001:0006bd30       ?type_case_u@?$output_processor@DV?$string_output_adapter@D@__crt_stdio_output@@V?$positional_parameter_base@DV?$string_output_adapter@D@__crt_stdio_output@@@2@@__crt_stdio_output@@AAE_NXZ 1006cd30 f i libucrtd:output.obj
 0001:0006bd50       ?type_case_u@?$output_processor@DV?$string_output_adapter@D@__crt_stdio_output@@V?$standard_base@DV?$string_output_adapter@D@__crt_stdio_output@@@2@@__crt_stdio_output@@AAE_NXZ 1006cd50 f i libucrtd:output.obj
 0001:0006bd70       ?type_case_u@?$output_processor@_WV?$stream_output_adapter@_W@__crt_stdio_output@@V?$format_validation_base@_WV?$stream_output_adapter@_W@__crt_stdio_output@@@2@@__crt_stdio_output@@AAE_NXZ 1006cd70 f i libucrtd:output.obj
 0001:0006bd90       ?type_case_u@?$output_processor@_WV?$stream_output_adapter@_W@__crt_stdio_output@@V?$positional_parameter_base@_WV?$stream_output_adapter@_W@__crt_stdio_output@@@2@@__crt_stdio_output@@AAE_NXZ 1006cd90 f i libucrtd:output.obj
 0001:0006bdb0       ?type_case_u@?$output_processor@_WV?$stream_output_adapter@_W@__crt_stdio_output@@V?$standard_base@_WV?$stream_output_adapter@_W@__crt_stdio_output@@@2@@__crt_stdio_output@@AAE_NXZ 1006cdb0 f i libucrtd:output.obj
 0001:0006bdd0       ?type_case_u@?$output_processor@_WV?$string_output_adapter@_W@__crt_stdio_output@@V?$format_validation_base@_WV?$string_output_adapter@_W@__crt_stdio_output@@@2@@__crt_stdio_output@@AAE_NXZ 1006cdd0 f i libucrtd:output.obj
 0001:0006bdf0       ?type_case_u@?$output_processor@_WV?$string_output_adapter@_W@__crt_stdio_output@@V?$positional_parameter_base@_WV?$string_output_adapter@_W@__crt_stdio_output@@@2@@__crt_stdio_output@@AAE_NXZ 1006cdf0 f i libucrtd:output.obj
 0001:0006be10       ?type_case_u@?$output_processor@_WV?$string_output_adapter@_W@__crt_stdio_output@@V?$standard_base@_WV?$string_output_adapter@_W@__crt_stdio_output@@@2@@__crt_stdio_output@@AAE_NXZ 1006ce10 f i libucrtd:output.obj
 0001:0006be30       ?type_case_x@?$output_processor@DV?$stream_output_adapter@D@__crt_stdio_output@@V?$format_validation_base@DV?$stream_output_adapter@D@__crt_stdio_output@@@2@@__crt_stdio_output@@AAE_NXZ 1006ce30 f i libucrtd:output.obj
 0001:0006be50       ?type_case_x@?$output_processor@DV?$stream_output_adapter@D@__crt_stdio_output@@V?$positional_parameter_base@DV?$stream_output_adapter@D@__crt_stdio_output@@@2@@__crt_stdio_output@@AAE_NXZ 1006ce50 f i libucrtd:output.obj
 0001:0006be70       ?type_case_x@?$output_processor@DV?$stream_output_adapter@D@__crt_stdio_output@@V?$standard_base@DV?$stream_output_adapter@D@__crt_stdio_output@@@2@@__crt_stdio_output@@AAE_NXZ 1006ce70 f i libucrtd:output.obj
 0001:0006be90       ?type_case_x@?$output_processor@DV?$string_output_adapter@D@__crt_stdio_output@@V?$format_validation_base@DV?$string_output_adapter@D@__crt_stdio_output@@@2@@__crt_stdio_output@@AAE_NXZ 1006ce90 f i libucrtd:output.obj
 0001:0006beb0       ?type_case_x@?$output_processor@DV?$string_output_adapter@D@__crt_stdio_output@@V?$positional_parameter_base@DV?$string_output_adapter@D@__crt_stdio_output@@@2@@__crt_stdio_output@@AAE_NXZ 1006ceb0 f i libucrtd:output.obj
 0001:0006bed0       ?type_case_x@?$output_processor@DV?$string_output_adapter@D@__crt_stdio_output@@V?$standard_base@DV?$string_output_adapter@D@__crt_stdio_output@@@2@@__crt_stdio_output@@AAE_NXZ 1006ced0 f i libucrtd:output.obj
 0001:0006bef0       ?type_case_x@?$output_processor@_WV?$stream_output_adapter@_W@__crt_stdio_output@@V?$format_validation_base@_WV?$stream_output_adapter@_W@__crt_stdio_output@@@2@@__crt_stdio_output@@AAE_NXZ 1006cef0 f i libucrtd:output.obj
 0001:0006bf10       ?type_case_x@?$output_processor@_WV?$stream_output_adapter@_W@__crt_stdio_output@@V?$positional_parameter_base@_WV?$stream_output_adapter@_W@__crt_stdio_output@@@2@@__crt_stdio_output@@AAE_NXZ 1006cf10 f i libucrtd:output.obj
 0001:0006bf30       ?type_case_x@?$output_processor@_WV?$stream_output_adapter@_W@__crt_stdio_output@@V?$standard_base@_WV?$stream_output_adapter@_W@__crt_stdio_output@@@2@@__crt_stdio_output@@AAE_NXZ 1006cf30 f i libucrtd:output.obj
 0001:0006bf50       ?type_case_x@?$output_processor@_WV?$string_output_adapter@_W@__crt_stdio_output@@V?$format_validation_base@_WV?$string_output_adapter@_W@__crt_stdio_output@@@2@@__crt_stdio_output@@AAE_NXZ 1006cf50 f i libucrtd:output.obj
 0001:0006bf70       ?type_case_x@?$output_processor@_WV?$string_output_adapter@_W@__crt_stdio_output@@V?$positional_parameter_base@_WV?$string_output_adapter@_W@__crt_stdio_output@@@2@@__crt_stdio_output@@AAE_NXZ 1006cf70 f i libucrtd:output.obj
 0001:0006bf90       ?type_case_x@?$output_processor@_WV?$string_output_adapter@_W@__crt_stdio_output@@V?$standard_base@_WV?$string_output_adapter@_W@__crt_stdio_output@@@2@@__crt_stdio_output@@AAE_NXZ 1006cf90 f i libucrtd:output.obj
 0001:0006bfb0       ?unget@?$c_string_character_source@D@__crt_strtox@@QAEXD@Z 1006cfb0 f i libucrtd:output.obj
 0001:0006c060       ?unget@?$c_string_character_source@_W@__crt_strtox@@QAEX_W@Z 1006d060 f i libucrtd:output.obj
 0001:0006c110       ?unsafe_value@?$cached@H@__crt_cached_ptd_host@@QAEHXZ 1006d110 f i libucrtd:output.obj
 0001:0006c130       ?unsafe_value@?$cached@K@__crt_cached_ptd_host@@QAEKXZ 1006d130 f i libucrtd:output.obj
 0001:0006c150       ?unset_flag@?$output_processor@DV?$stream_output_adapter@D@__crt_stdio_output@@V?$format_validation_base@DV?$stream_output_adapter@D@__crt_stdio_output@@@2@@__crt_stdio_output@@AAEXI@Z 1006d150 f i libucrtd:output.obj
 0001:0006c170       ?unset_flag@?$output_processor@DV?$stream_output_adapter@D@__crt_stdio_output@@V?$positional_parameter_base@DV?$stream_output_adapter@D@__crt_stdio_output@@@2@@__crt_stdio_output@@AAEXI@Z 1006d170 f i libucrtd:output.obj
 0001:0006c190       ?unset_flag@?$output_processor@DV?$stream_output_adapter@D@__crt_stdio_output@@V?$standard_base@DV?$stream_output_adapter@D@__crt_stdio_output@@@2@@__crt_stdio_output@@AAEXI@Z 1006d190 f i libucrtd:output.obj
 0001:0006c1b0       ?unset_flag@?$output_processor@DV?$string_output_adapter@D@__crt_stdio_output@@V?$format_validation_base@DV?$string_output_adapter@D@__crt_stdio_output@@@2@@__crt_stdio_output@@AAEXI@Z 1006d1b0 f i libucrtd:output.obj
 0001:0006c1d0       ?unset_flag@?$output_processor@DV?$string_output_adapter@D@__crt_stdio_output@@V?$positional_parameter_base@DV?$string_output_adapter@D@__crt_stdio_output@@@2@@__crt_stdio_output@@AAEXI@Z 1006d1d0 f i libucrtd:output.obj
 0001:0006c1f0       ?unset_flag@?$output_processor@DV?$string_output_adapter@D@__crt_stdio_output@@V?$standard_base@DV?$string_output_adapter@D@__crt_stdio_output@@@2@@__crt_stdio_output@@AAEXI@Z 1006d1f0 f i libucrtd:output.obj
 0001:0006c210       ?unset_flag@?$output_processor@_WV?$stream_output_adapter@_W@__crt_stdio_output@@V?$format_validation_base@_WV?$stream_output_adapter@_W@__crt_stdio_output@@@2@@__crt_stdio_output@@AAEXI@Z 1006d210 f i libucrtd:output.obj
 0001:0006c230       ?unset_flag@?$output_processor@_WV?$stream_output_adapter@_W@__crt_stdio_output@@V?$positional_parameter_base@_WV?$stream_output_adapter@_W@__crt_stdio_output@@@2@@__crt_stdio_output@@AAEXI@Z 1006d230 f i libucrtd:output.obj
 0001:0006c250       ?unset_flag@?$output_processor@_WV?$stream_output_adapter@_W@__crt_stdio_output@@V?$standard_base@_WV?$stream_output_adapter@_W@__crt_stdio_output@@@2@@__crt_stdio_output@@AAEXI@Z 1006d250 f i libucrtd:output.obj
 0001:0006c270       ?unset_flag@?$output_processor@_WV?$string_output_adapter@_W@__crt_stdio_output@@V?$format_validation_base@_WV?$string_output_adapter@_W@__crt_stdio_output@@@2@@__crt_stdio_output@@AAEXI@Z 1006d270 f i libucrtd:output.obj
 0001:0006c290       ?unset_flag@?$output_processor@_WV?$string_output_adapter@_W@__crt_stdio_output@@V?$positional_parameter_base@_WV?$string_output_adapter@_W@__crt_stdio_output@@@2@@__crt_stdio_output@@AAEXI@Z 1006d290 f i libucrtd:output.obj
 0001:0006c2b0       ?unset_flag@?$output_processor@_WV?$string_output_adapter@_W@__crt_stdio_output@@V?$standard_base@_WV?$string_output_adapter@_W@__crt_stdio_output@@@2@@__crt_stdio_output@@AAEXI@Z 1006d2b0 f i libucrtd:output.obj
 0001:0006c2d0       ?update_field_width@?$positional_parameter_base@DV?$stream_output_adapter@D@__crt_stdio_output@@@__crt_stdio_output@@IAE_NXZ 1006d2d0 f i libucrtd:output.obj
 0001:0006c460       ?update_field_width@?$positional_parameter_base@DV?$string_output_adapter@D@__crt_stdio_output@@@__crt_stdio_output@@IAE_NXZ 1006d460 f i libucrtd:output.obj
 0001:0006c5f0       ?update_field_width@?$positional_parameter_base@_WV?$stream_output_adapter@_W@__crt_stdio_output@@@__crt_stdio_output@@IAE_NXZ 1006d5f0 f i libucrtd:output.obj
 0001:0006c780       ?update_field_width@?$positional_parameter_base@_WV?$string_output_adapter@_W@__crt_stdio_output@@@__crt_stdio_output@@IAE_NXZ 1006d780 f i libucrtd:output.obj
 0001:0006c910       ?update_field_width@?$standard_base@DV?$stream_output_adapter@D@__crt_stdio_output@@@__crt_stdio_output@@IAE_NXZ 1006d910 f i libucrtd:output.obj
 0001:0006c940       ?update_field_width@?$standard_base@DV?$string_output_adapter@D@__crt_stdio_output@@@__crt_stdio_output@@IAE_NXZ 1006d940 f i libucrtd:output.obj
 0001:0006c970       ?update_field_width@?$standard_base@_WV?$stream_output_adapter@_W@__crt_stdio_output@@@__crt_stdio_output@@IAE_NXZ 1006d970 f i libucrtd:output.obj
 0001:0006c9a0       ?update_field_width@?$standard_base@_WV?$string_output_adapter@_W@__crt_stdio_output@@@__crt_stdio_output@@IAE_NXZ 1006d9a0 f i libucrtd:output.obj
 0001:0006c9d0       ?update_locale@__crt_cached_ptd_host@@AAEXXZ 1006d9d0 f i libucrtd:output.obj
 0001:0006c9f0       ?update_locale_slow@__crt_cached_ptd_host@@AAEXXZ 1006d9f0 f i libucrtd:output.obj
 0001:0006ca80       ?update_precision@?$positional_parameter_base@DV?$stream_output_adapter@D@__crt_stdio_output@@@__crt_stdio_output@@IAE_NXZ 1006da80 f i libucrtd:output.obj
 0001:0006cc10       ?update_precision@?$positional_parameter_base@DV?$string_output_adapter@D@__crt_stdio_output@@@__crt_stdio_output@@IAE_NXZ 1006dc10 f i libucrtd:output.obj
 0001:0006cda0       ?update_precision@?$positional_parameter_base@_WV?$stream_output_adapter@_W@__crt_stdio_output@@@__crt_stdio_output@@IAE_NXZ 1006dda0 f i libucrtd:output.obj
 0001:0006cf30       ?update_precision@?$positional_parameter_base@_WV?$string_output_adapter@_W@__crt_stdio_output@@@__crt_stdio_output@@IAE_NXZ 1006df30 f i libucrtd:output.obj
 0001:0006d0c0       ?update_precision@?$standard_base@DV?$stream_output_adapter@D@__crt_stdio_output@@@__crt_stdio_output@@IAE_NXZ 1006e0c0 f i libucrtd:output.obj
 0001:0006d0f0       ?update_precision@?$standard_base@DV?$string_output_adapter@D@__crt_stdio_output@@@__crt_stdio_output@@IAE_NXZ 1006e0f0 f i libucrtd:output.obj
 0001:0006d120       ?update_precision@?$standard_base@_WV?$stream_output_adapter@_W@__crt_stdio_output@@@__crt_stdio_output@@IAE_NXZ 1006e120 f i libucrtd:output.obj
 0001:0006d150       ?update_precision@?$standard_base@_WV?$string_output_adapter@_W@__crt_stdio_output@@@__crt_stdio_output@@IAE_NXZ 1006e150 f i libucrtd:output.obj
 0001:0006d180       ?valid@?$cached@H@__crt_cached_ptd_host@@QBE_NXZ 1006e180 f i libucrtd:output.obj
 0001:0006d1a0       ?valid@?$cached@K@__crt_cached_ptd_host@@QBE_NXZ 1006e1a0 f i libucrtd:output.obj
 0001:0006d1c0       ?valid@__crt_stdio_stream@@QBE_NXZ 1006e1c0 f i libucrtd:output.obj
 0001:0006d1f0       ?validate@?$c_string_character_source@D@__crt_strtox@@QBE_NXZ 1006e1f0 f i libucrtd:output.obj
 0001:0006d280       ?validate@?$c_string_character_source@_W@__crt_strtox@@QBE_NXZ 1006e280 f i libucrtd:output.obj
 0001:0006d310       ?validate@?$stream_output_adapter@D@__crt_stdio_output@@QBE_NAAV__crt_cached_ptd_host@@@Z 1006e310 f i libucrtd:output.obj
 0001:0006d3d0       ?validate@?$stream_output_adapter@_W@__crt_stdio_output@@QBE_NAAV__crt_cached_ptd_host@@@Z 1006e3d0 f i libucrtd:output.obj
 0001:0006d490       ?validate@?$string_output_adapter@D@__crt_stdio_output@@QBE_NAAV__crt_cached_ptd_host@@@Z 1006e490 f i libucrtd:output.obj
 0001:0006d530       ?validate@?$string_output_adapter@_W@__crt_stdio_output@@QBE_NAAV__crt_cached_ptd_host@@@Z 1006e530 f i libucrtd:output.obj
 0001:0006d5d0       ?validate_and_store_parameter_data@?$positional_parameter_base@DV?$stream_output_adapter@D@__crt_stdio_output@@@__crt_stdio_output@@AAE_NAAUparameter_data@12@W4parameter_type@12@DW4length_modifier@2@@Z 1006e5d0 f i libucrtd:output.obj
 0001:0006d6c0       ?validate_and_store_parameter_data@?$positional_parameter_base@DV?$string_output_adapter@D@__crt_stdio_output@@@__crt_stdio_output@@AAE_NAAUparameter_data@12@W4parameter_type@12@DW4length_modifier@2@@Z 1006e6c0 f i libucrtd:output.obj
 0001:0006d7b0       ?validate_and_store_parameter_data@?$positional_parameter_base@_WV?$stream_output_adapter@_W@__crt_stdio_output@@@__crt_stdio_output@@AAE_NAAUparameter_data@12@W4parameter_type@12@_WW4length_modifier@2@@Z 1006e7b0 f i libucrtd:output.obj
 0001:0006d8a0       ?validate_and_store_parameter_data@?$positional_parameter_base@_WV?$string_output_adapter@_W@__crt_stdio_output@@@__crt_stdio_output@@AAE_NAAUparameter_data@12@W4parameter_type@12@_WW4length_modifier@2@@Z 1006e8a0 f i libucrtd:output.obj
 0001:0006d990       ?validate_and_update_state_at_beginning_of_format_character@?$positional_parameter_base@DV?$stream_output_adapter@D@__crt_stdio_output@@@__crt_stdio_output@@IAE_NXZ 1006e990 f i libucrtd:output.obj
 0001:0006dbc0       ?validate_and_update_state_at_beginning_of_format_character@?$positional_parameter_base@DV?$string_output_adapter@D@__crt_stdio_output@@@__crt_stdio_output@@IAE_NXZ 1006ebc0 f i libucrtd:output.obj
 0001:0006ddf0       ?validate_and_update_state_at_beginning_of_format_character@?$positional_parameter_base@_WV?$stream_output_adapter@_W@__crt_stdio_output@@@__crt_stdio_output@@IAE_NXZ 1006edf0 f i libucrtd:output.obj
 0001:0006e020       ?validate_and_update_state_at_beginning_of_format_character@?$positional_parameter_base@_WV?$string_output_adapter@_W@__crt_stdio_output@@@__crt_stdio_output@@IAE_NXZ 1006f020 f i libucrtd:output.obj
 0001:0006e250       ?validate_and_update_state_at_beginning_of_format_character@?$standard_base@DV?$stream_output_adapter@D@__crt_stdio_output@@@__crt_stdio_output@@IAE_NXZ 1006f250 f i libucrtd:output.obj
 0001:0006e260       ?validate_and_update_state_at_beginning_of_format_character@?$standard_base@DV?$string_output_adapter@D@__crt_stdio_output@@@__crt_stdio_output@@IAE_NXZ 1006f260 f i libucrtd:output.obj
 0001:0006e270       ?validate_and_update_state_at_beginning_of_format_character@?$standard_base@_WV?$stream_output_adapter@_W@__crt_stdio_output@@@__crt_stdio_output@@IAE_NXZ 1006f270 f i libucrtd:output.obj
 0001:0006e280       ?validate_and_update_state_at_beginning_of_format_character@?$standard_base@_WV?$string_output_adapter@_W@__crt_stdio_output@@@__crt_stdio_output@@IAE_NXZ 1006f280 f i libucrtd:output.obj
 0001:0006e290       ?validate_and_update_state_at_end_of_format_string@?$format_validation_base@DV?$stream_output_adapter@D@__crt_stdio_output@@@__crt_stdio_output@@IAE_NXZ 1006f290 f i libucrtd:output.obj
 0001:0006e340       ?validate_and_update_state_at_end_of_format_string@?$format_validation_base@DV?$string_output_adapter@D@__crt_stdio_output@@@__crt_stdio_output@@IAE_NXZ 1006f340 f i libucrtd:output.obj
 0001:0006e3f0       ?validate_and_update_state_at_end_of_format_string@?$format_validation_base@_WV?$stream_output_adapter@_W@__crt_stdio_output@@@__crt_stdio_output@@IAE_NXZ 1006f3f0 f i libucrtd:output.obj
 0001:0006e4a0       ?validate_and_update_state_at_end_of_format_string@?$format_validation_base@_WV?$string_output_adapter@_W@__crt_stdio_output@@@__crt_stdio_output@@IAE_NXZ 1006f4a0 f i libucrtd:output.obj
 0001:0006e550       ?validate_and_update_state_at_end_of_format_string@?$positional_parameter_base@DV?$stream_output_adapter@D@__crt_stdio_output@@@__crt_stdio_output@@IAE_NXZ 1006f550 f i libucrtd:output.obj
 0001:0006e700       ?validate_and_update_state_at_end_of_format_string@?$positional_parameter_base@DV?$string_output_adapter@D@__crt_stdio_output@@@__crt_stdio_output@@IAE_NXZ 1006f700 f i libucrtd:output.obj
 0001:0006e8b0       ?validate_and_update_state_at_end_of_format_string@?$positional_parameter_base@_WV?$stream_output_adapter@_W@__crt_stdio_output@@@__crt_stdio_output@@IAE_NXZ 1006f8b0 f i libucrtd:output.obj
 0001:0006ea60       ?validate_and_update_state_at_end_of_format_string@?$positional_parameter_base@_WV?$string_output_adapter@_W@__crt_stdio_output@@@__crt_stdio_output@@IAE_NXZ 1006fa60 f i libucrtd:output.obj
 0001:0006ec10       ?validate_and_update_state_at_end_of_format_string@?$standard_base@DV?$stream_output_adapter@D@__crt_stdio_output@@@__crt_stdio_output@@IBE_NXZ 1006fc10 f i libucrtd:output.obj
 0001:0006ec20       ?validate_and_update_state_at_end_of_format_string@?$standard_base@DV?$string_output_adapter@D@__crt_stdio_output@@@__crt_stdio_output@@IBE_NXZ 1006fc20 f i libucrtd:output.obj
 0001:0006ec30       ?validate_and_update_state_at_end_of_format_string@?$standard_base@_WV?$stream_output_adapter@_W@__crt_stdio_output@@@__crt_stdio_output@@IBE_NXZ 1006fc30 f i libucrtd:output.obj
 0001:0006ec40       ?validate_and_update_state_at_end_of_format_string@?$standard_base@_WV?$string_output_adapter@_W@__crt_stdio_output@@@__crt_stdio_output@@IBE_NXZ 1006fc40 f i libucrtd:output.obj
 0001:0006ec50       ?validate_state_for_type_case_a@?$positional_parameter_base@DV?$stream_output_adapter@D@__crt_stdio_output@@@__crt_stdio_output@@IAE_NXZ 1006fc50 f i libucrtd:output.obj
 0001:0006ed60       ?validate_state_for_type_case_a@?$positional_parameter_base@DV?$string_output_adapter@D@__crt_stdio_output@@@__crt_stdio_output@@IAE_NXZ 1006fd60 f i libucrtd:output.obj
 0001:0006ee70       ?validate_state_for_type_case_a@?$positional_parameter_base@_WV?$stream_output_adapter@_W@__crt_stdio_output@@@__crt_stdio_output@@IAE_NXZ 1006fe70 f i libucrtd:output.obj
 0001:0006ef80       ?validate_state_for_type_case_a@?$positional_parameter_base@_WV?$string_output_adapter@_W@__crt_stdio_output@@@__crt_stdio_output@@IAE_NXZ 1006ff80 f i libucrtd:output.obj
 0001:0006f090       ?validate_state_for_type_case_a@?$standard_base@DV?$stream_output_adapter@D@__crt_stdio_output@@@__crt_stdio_output@@IBE_NXZ 10070090 f i libucrtd:output.obj
 0001:0006f0a0       ?validate_state_for_type_case_a@?$standard_base@DV?$string_output_adapter@D@__crt_stdio_output@@@__crt_stdio_output@@IBE_NXZ 100700a0 f i libucrtd:output.obj
 0001:0006f0b0       ?validate_state_for_type_case_a@?$standard_base@_WV?$stream_output_adapter@_W@__crt_stdio_output@@@__crt_stdio_output@@IBE_NXZ 100700b0 f i libucrtd:output.obj
 0001:0006f0c0       ?validate_state_for_type_case_a@?$standard_base@_WV?$string_output_adapter@_W@__crt_stdio_output@@@__crt_stdio_output@@IBE_NXZ 100700c0 f i libucrtd:output.obj
 0001:0006f0d0       ?validate_stream_is_ansi_if_required@?$__acrt_stdio_char_traits@D@@SA_NQAU_iobuf@@@Z 100700d0 f i libucrtd:output.obj
 0001:0006f200       ?validate_stream_is_ansi_if_required@?$__acrt_stdio_char_traits@_W@@SA_NQAU_iobuf@@@Z 10070200 f i libucrtd:output.obj
 0001:0006f210       ?wide_character_to_digit@__crt_strtox@@YAH_W@Z 10070210 f i libucrtd:output.obj
 0001:0006f540       ?wide_null_string@?$output_processor@DV?$stream_output_adapter@D@__crt_stdio_output@@V?$format_validation_base@DV?$stream_output_adapter@D@__crt_stdio_output@@@2@@__crt_stdio_output@@CAPA_WXZ 10070540 f i libucrtd:output.obj
 0001:0006f550       ?wide_null_string@?$output_processor@DV?$stream_output_adapter@D@__crt_stdio_output@@V?$positional_parameter_base@DV?$stream_output_adapter@D@__crt_stdio_output@@@2@@__crt_stdio_output@@CAPA_WXZ 10070550 f i libucrtd:output.obj
 0001:0006f560       ?wide_null_string@?$output_processor@DV?$stream_output_adapter@D@__crt_stdio_output@@V?$standard_base@DV?$stream_output_adapter@D@__crt_stdio_output@@@2@@__crt_stdio_output@@CAPA_WXZ 10070560 f i libucrtd:output.obj
 0001:0006f570       ?wide_null_string@?$output_processor@DV?$string_output_adapter@D@__crt_stdio_output@@V?$format_validation_base@DV?$string_output_adapter@D@__crt_stdio_output@@@2@@__crt_stdio_output@@CAPA_WXZ 10070570 f i libucrtd:output.obj
 0001:0006f580       ?wide_null_string@?$output_processor@DV?$string_output_adapter@D@__crt_stdio_output@@V?$positional_parameter_base@DV?$string_output_adapter@D@__crt_stdio_output@@@2@@__crt_stdio_output@@CAPA_WXZ 10070580 f i libucrtd:output.obj
 0001:0006f590       ?wide_null_string@?$output_processor@DV?$string_output_adapter@D@__crt_stdio_output@@V?$standard_base@DV?$string_output_adapter@D@__crt_stdio_output@@@2@@__crt_stdio_output@@CAPA_WXZ 10070590 f i libucrtd:output.obj
 0001:0006f5a0       ?wide_null_string@?$output_processor@_WV?$stream_output_adapter@_W@__crt_stdio_output@@V?$format_validation_base@_WV?$stream_output_adapter@_W@__crt_stdio_output@@@2@@__crt_stdio_output@@CAPA_WXZ 100705a0 f i libucrtd:output.obj
 0001:0006f5b0       ?wide_null_string@?$output_processor@_WV?$stream_output_adapter@_W@__crt_stdio_output@@V?$positional_parameter_base@_WV?$stream_output_adapter@_W@__crt_stdio_output@@@2@@__crt_stdio_output@@CAPA_WXZ 100705b0 f i libucrtd:output.obj
 0001:0006f5c0       ?wide_null_string@?$output_processor@_WV?$stream_output_adapter@_W@__crt_stdio_output@@V?$standard_base@_WV?$stream_output_adapter@_W@__crt_stdio_output@@@2@@__crt_stdio_output@@CAPA_WXZ 100705c0 f i libucrtd:output.obj
 0001:0006f5d0       ?wide_null_string@?$output_processor@_WV?$string_output_adapter@_W@__crt_stdio_output@@V?$format_validation_base@_WV?$string_output_adapter@_W@__crt_stdio_output@@@2@@__crt_stdio_output@@CAPA_WXZ 100705d0 f i libucrtd:output.obj
 0001:0006f5e0       ?wide_null_string@?$output_processor@_WV?$string_output_adapter@_W@__crt_stdio_output@@V?$positional_parameter_base@_WV?$string_output_adapter@_W@__crt_stdio_output@@@2@@__crt_stdio_output@@CAPA_WXZ 100705e0 f i libucrtd:output.obj
 0001:0006f5f0       ?wide_null_string@?$output_processor@_WV?$string_output_adapter@_W@__crt_stdio_output@@V?$standard_base@_WV?$string_output_adapter@_W@__crt_stdio_output@@@2@@__crt_stdio_output@@CAPA_WXZ 100705f0 f i libucrtd:output.obj
 0001:0006f600       ?write_character@?$output_adapter_common@DV?$stream_output_adapter@D@__crt_stdio_output@@@__crt_stdio_output@@QBEXDQAHAAV__crt_cached_ptd_host@@@Z 10070600 f i libucrtd:output.obj
 0001:0006f640       ?write_character@?$output_adapter_common@_WV?$stream_output_adapter@_W@__crt_stdio_output@@@__crt_stdio_output@@QBEX_WQAHAAV__crt_cached_ptd_host@@@Z 10070640 f i libucrtd:output.obj
 0001:0006f680       ?write_character@?$string_output_adapter@D@__crt_stdio_output@@QBE_NDQAHAAV__crt_cached_ptd_host@@@Z 10070680 f i libucrtd:output.obj
 0001:0006f710       ?write_character@?$string_output_adapter@_W@__crt_stdio_output@@QBE_N_WQAHAAV__crt_cached_ptd_host@@@Z 10070710 f i libucrtd:output.obj
 0001:0006f7b0       ?write_character_without_count_update@?$stream_output_adapter@D@__crt_stdio_output@@QBE_NDAAV__crt_cached_ptd_host@@@Z 100707b0 f i libucrtd:output.obj
 0001:0006f820       ?write_character_without_count_update@?$stream_output_adapter@_W@__crt_stdio_output@@QBE_N_WAAV__crt_cached_ptd_host@@@Z 10070820 f i libucrtd:output.obj
 0001:0006f890       ?write_stored_string_tchar@?$output_processor@DV?$stream_output_adapter@D@__crt_stdio_output@@V?$format_validation_base@DV?$stream_output_adapter@D@__crt_stdio_output@@@2@@__crt_stdio_output@@AAE_ND@Z 10070890 f i libucrtd:output.obj
 0001:0006f9b0       ?write_stored_string_tchar@?$output_processor@DV?$stream_output_adapter@D@__crt_stdio_output@@V?$positional_parameter_base@DV?$stream_output_adapter@D@__crt_stdio_output@@@2@@__crt_stdio_output@@AAE_ND@Z 100709b0 f i libucrtd:output.obj
 0001:0006fad0       ?write_stored_string_tchar@?$output_processor@DV?$stream_output_adapter@D@__crt_stdio_output@@V?$standard_base@DV?$stream_output_adapter@D@__crt_stdio_output@@@2@@__crt_stdio_output@@AAE_ND@Z 10070ad0 f i libucrtd:output.obj
 0001:0006fbf0       ?write_stored_string_tchar@?$output_processor@DV?$string_output_adapter@D@__crt_stdio_output@@V?$format_validation_base@DV?$string_output_adapter@D@__crt_stdio_output@@@2@@__crt_stdio_output@@AAE_ND@Z 10070bf0 f i libucrtd:output.obj
 0001:0006fd10       ?write_stored_string_tchar@?$output_processor@DV?$string_output_adapter@D@__crt_stdio_output@@V?$positional_parameter_base@DV?$string_output_adapter@D@__crt_stdio_output@@@2@@__crt_stdio_output@@AAE_ND@Z 10070d10 f i libucrtd:output.obj
 0001:0006fe30       ?write_stored_string_tchar@?$output_processor@DV?$string_output_adapter@D@__crt_stdio_output@@V?$standard_base@DV?$string_output_adapter@D@__crt_stdio_output@@@2@@__crt_stdio_output@@AAE_ND@Z 10070e30 f i libucrtd:output.obj
 0001:0006ff50       ?write_stored_string_tchar@?$output_processor@_WV?$stream_output_adapter@_W@__crt_stdio_output@@V?$format_validation_base@_WV?$stream_output_adapter@_W@__crt_stdio_output@@@2@@__crt_stdio_output@@AAE_N_W@Z 10070f50 f i libucrtd:output.obj
 0001:00070060       ?write_stored_string_tchar@?$output_processor@_WV?$stream_output_adapter@_W@__crt_stdio_output@@V?$positional_parameter_base@_WV?$stream_output_adapter@_W@__crt_stdio_output@@@2@@__crt_stdio_output@@AAE_N_W@Z 10071060 f i libucrtd:output.obj
 0001:00070170       ?write_stored_string_tchar@?$output_processor@_WV?$stream_output_adapter@_W@__crt_stdio_output@@V?$standard_base@_WV?$stream_output_adapter@_W@__crt_stdio_output@@@2@@__crt_stdio_output@@AAE_N_W@Z 10071170 f i libucrtd:output.obj
 0001:00070280       ?write_stored_string_tchar@?$output_processor@_WV?$string_output_adapter@_W@__crt_stdio_output@@V?$format_validation_base@_WV?$string_output_adapter@_W@__crt_stdio_output@@@2@@__crt_stdio_output@@AAE_N_W@Z 10071280 f i libucrtd:output.obj
 0001:00070390       ?write_stored_string_tchar@?$output_processor@_WV?$string_output_adapter@_W@__crt_stdio_output@@V?$positional_parameter_base@_WV?$string_output_adapter@_W@__crt_stdio_output@@@2@@__crt_stdio_output@@AAE_N_W@Z 10071390 f i libucrtd:output.obj
 0001:000704a0       ?write_stored_string_tchar@?$output_processor@_WV?$string_output_adapter@_W@__crt_stdio_output@@V?$standard_base@_WV?$string_output_adapter@_W@__crt_stdio_output@@@2@@__crt_stdio_output@@AAE_N_W@Z 100714a0 f i libucrtd:output.obj
 0001:000705b0       ?write_string@?$stream_output_adapter@D@__crt_stdio_output@@QBEXQBDHQAHAAV__crt_cached_ptd_host@@@Z 100715b0 f i libucrtd:output.obj
 0001:00070610       ?write_string@?$stream_output_adapter@_W@__crt_stdio_output@@QBEXQB_WHQAHAAV__crt_cached_ptd_host@@@Z 10071610 f i libucrtd:output.obj
 0001:00070670       ?write_string@?$string_output_adapter@D@__crt_stdio_output@@QBEXQBDHQAHAAV__crt_cached_ptd_host@@@Z 10071670 f i libucrtd:output.obj
 0001:00070770       ?write_string@?$string_output_adapter@_W@__crt_stdio_output@@QBEXQB_WHQAHAAV__crt_cached_ptd_host@@@Z 10071770 f i libucrtd:output.obj
 0001:00070880       ?write_string_impl@?$output_adapter_common@DV?$stream_output_adapter@D@__crt_stdio_output@@@__crt_stdio_output@@IBEXQBDHQAHAAV__crt_cached_ptd_host@@@Z 10071880 f i libucrtd:output.obj
 0001:00070940       ?write_string_impl@?$output_adapter_common@_WV?$stream_output_adapter@_W@__crt_stdio_output@@@__crt_stdio_output@@IBEXQB_WHQAHAAV__crt_cached_ptd_host@@@Z 10071940 f i libucrtd:output.obj
 0001:00070a00       ___acrt_disable_global_locale_sync 10071a00 f i libucrtd:output.obj
 0001:00070a20       ___acrt_enable_global_locale_sync 10071a20 f i libucrtd:output.obj
 0001:00070a40       ___acrt_isleadbyte_l_noupdate 10071a40 f i libucrtd:output.obj
 0001:00070a60       ___acrt_locale_changed     10071a60 f i libucrtd:output.obj
 0001:00070a90       ___acrt_locale_get_ctype_array_value 10071a90 f i libucrtd:output.obj
 0001:00070ac0       ___ascii_iswalpha          10071ac0 f i libucrtd:output.obj
 0001:00070b00       ___ascii_toupper           10071b00 f i libucrtd:output.obj
 0001:00070b20       ___ascii_towupper          10071b20 f i libucrtd:output.obj
 0001:00070b40       ___stdio_common_vfprintf   10071b40 f   libucrtd:output.obj
 0001:00070b90       ___stdio_common_vfprintf_p 10071b90 f   libucrtd:output.obj
 0001:00070be0       ___stdio_common_vfprintf_s 10071be0 f   libucrtd:output.obj
 0001:00070c30       ___stdio_common_vfwprintf  10071c30 f   libucrtd:output.obj
 0001:00070c80       ___stdio_common_vfwprintf_p 10071c80 f   libucrtd:output.obj
 0001:00070cd0       ___stdio_common_vfwprintf_s 10071cd0 f   libucrtd:output.obj
 0001:00070d20       ___stdio_common_vsnprintf_s 10071d20 f   libucrtd:output.obj
 0001:00070d70       ___stdio_common_vsnwprintf_s 10071d70 f   libucrtd:output.obj
 0001:00070dc0       ___stdio_common_vsprintf   10071dc0 f   libucrtd:output.obj
 0001:00070e10       ___stdio_common_vsprintf_p 10071e10 f   libucrtd:output.obj
 0001:00070e60       ___stdio_common_vsprintf_s 10071e60 f   libucrtd:output.obj
 0001:00070eb0       ___stdio_common_vswprintf  10071eb0 f   libucrtd:output.obj
 0001:00070f00       ___stdio_common_vswprintf_p 10071f00 f   libucrtd:output.obj
 0001:00070f50       ___stdio_common_vswprintf_s 10071f50 f   libucrtd:output.obj
 0001:00070fa0       __ctype_fast_check_internal 10071fa0 f i libucrtd:output.obj
 0001:00070fc0       __isdigit_fast_internal    10071fc0 f i libucrtd:output.obj
 0001:00070fe0       __tolower_fast_internal    10071fe0 f i libucrtd:output.obj
 0001:00071000       _free                      10072000 f   libucrtd:free.obj
 0001:00071030       _malloc                    10072030 f   libucrtd:malloc.obj
 0001:00071050       ??$?RU?$__crt_report_hook_node@D@@@__crt_internal_free_policy@@QBEXQBU?$__crt_report_hook_node@D@@@Z 10072050 f i libucrtd:dbgrpt.obj
 0001:00071070       ??$?RU?$__crt_report_hook_node@_W@@@__crt_internal_free_policy@@QBEXQBU?$__crt_report_hook_node@_W@@@Z 10072070 f i libucrtd:dbgrpt.obj
 0001:00071f40       ??$get_module_file_name@AAPAUHINSTANCE__@@AAY0BAF@DK@?$__crt_char_traits@D@@SAKAAPAUHINSTANCE__@@AAY0BAF@D$$QAK@Z 10072f40 f i libucrtd:dbgrpt.obj
 0001:00071f60       ??$get_module_file_name@AAPAUHINSTANCE__@@AAY0BAF@_WK@?$__crt_char_traits@_W@@SAKAAPAUHINSTANCE__@@AAY0BAF@_W$$QAK@Z 10072f60 f i libucrtd:dbgrpt.obj
 0001:00071f80       ??$tcscpy_s@AAY0BAF@DIPBD@?$__crt_char_traits@D@@SAHAAY0BAF@D$$QAI$$QAPBD@Z 10072f80 f i libucrtd:dbgrpt.obj
 0001:00071fa0       ??$tcscpy_s@AAY0BAF@_WIPB_W@?$__crt_char_traits@_W@@SAHAAY0BAF@_W$$QAI$$QAPB_W@Z 10072fa0 f i libucrtd:dbgrpt.obj
 0001:00071fc0       ??$tcslen@AAY0BAF@D@?$__crt_char_traits@D@@SAIAAY0BAF@D@Z 10072fc0 f i libucrtd:dbgrpt.obj
 0001:00071fe0       ??$tcslen@AAY0BAF@_W@?$__crt_char_traits@_W@@SAIAAY0BAF@_W@Z 10072fe0 f i libucrtd:dbgrpt.obj
 0001:00072000       ??$tcslen@ABQBD@?$__crt_char_traits@D@@SAIABQBD@Z 10073000 f i libucrtd:dbgrpt.obj
 0001:00072020       ??$tcslen@ABQB_W@?$__crt_char_traits@_W@@SAIABQB_W@Z 10073020 f i libucrtd:dbgrpt.obj
 0001:00072120       ??0?$__crt_unique_heap_ptr@U?$__crt_report_hook_node@D@@U__crt_internal_free_policy@@@@QAE@QAU?$__crt_report_hook_node@D@@@Z 10073120 f i libucrtd:dbgrpt.obj
 0001:00072140       ??0?$__crt_unique_heap_ptr@U?$__crt_report_hook_node@_W@@U__crt_internal_free_policy@@@@QAE@QAU?$__crt_report_hook_node@_W@@@Z 10073140 f i libucrtd:dbgrpt.obj
 0001:00072160       ??1?$__crt_unique_heap_ptr@U?$__crt_report_hook_node@D@@U__crt_internal_free_policy@@@@QAE@XZ 10073160 f i libucrtd:dbgrpt.obj
 0001:00072180       ??1?$__crt_unique_heap_ptr@U?$__crt_report_hook_node@_W@@U__crt_internal_free_policy@@@@QAE@XZ 10073180 f i libucrtd:dbgrpt.obj
 0001:000721a0       ??B?$__crt_unique_heap_ptr@U?$__crt_report_hook_node@D@@U__crt_internal_free_policy@@@@QBE_NXZ 100731a0 f i libucrtd:dbgrpt.obj
 0001:000721c0       ??B?$__crt_unique_heap_ptr@U?$__crt_report_hook_node@_W@@U__crt_internal_free_policy@@@@QBE_NXZ 100731c0 f i libucrtd:dbgrpt.obj
 0001:00072720       ?detach@?$__crt_unique_heap_ptr@U?$__crt_report_hook_node@D@@U__crt_internal_free_policy@@@@QAEPAU?$__crt_report_hook_node@D@@XZ 10073720 f i libucrtd:dbgrpt.obj
 0001:00072750       ?detach@?$__crt_unique_heap_ptr@U?$__crt_report_hook_node@_W@@U__crt_internal_free_policy@@@@QAEPAU?$__crt_report_hook_node@_W@@XZ 10073750 f i libucrtd:dbgrpt.obj
 0001:00072780       ?get@?$__crt_unique_heap_ptr@U?$__crt_report_hook_node@D@@U__crt_internal_free_policy@@@@QBEPAU?$__crt_report_hook_node@D@@XZ 10073780 f i libucrtd:dbgrpt.obj
 0001:000727a0       ?get@?$__crt_unique_heap_ptr@U?$__crt_report_hook_node@_W@@U__crt_internal_free_policy@@@@QBEPAU?$__crt_report_hook_node@_W@@XZ 100737a0 f i libucrtd:dbgrpt.obj
 0001:00072820       ?is_valid@?$__crt_unique_heap_ptr@U?$__crt_report_hook_node@D@@U__crt_internal_free_policy@@@@QBE_NXZ 10073820 f i libucrtd:dbgrpt.obj
 0001:00072850       ?is_valid@?$__crt_unique_heap_ptr@U?$__crt_report_hook_node@_W@@U__crt_internal_free_policy@@@@QBE_NXZ 10073850 f i libucrtd:dbgrpt.obj
 0001:00072880       ?release@?$__crt_unique_heap_ptr@U?$__crt_report_hook_node@D@@U__crt_internal_free_policy@@@@QAEXXZ 10073880 f i libucrtd:dbgrpt.obj
 0001:000728b0       ?release@?$__crt_unique_heap_ptr@U?$__crt_report_hook_node@_W@@U__crt_internal_free_policy@@@@QAEXXZ 100738b0 f i libucrtd:dbgrpt.obj
 0001:000728e0       __CrtDbgReport             100738e0 f   libucrtd:dbgrpt.obj
 0001:00072930       __CrtDbgReportW            10073930 f   libucrtd:dbgrpt.obj
 0001:00072980       __CrtSetReportHook2        10073980 f   libucrtd:dbgrpt.obj
 0001:000729a0       __CrtSetReportHookW2       100739a0 f   libucrtd:dbgrpt.obj
 0001:000729c0       ___acrt_MessageWindowA     100739c0 f   libucrtd:dbgrpt.obj
 0001:000729f0       ___acrt_MessageWindowW     100739f0 f   libucrtd:dbgrpt.obj
 0001:00072a20       __invoke_watson_if_error   10073a20 f i libucrtd:dbgrpt.obj
 0001:00072a50       __invoke_watson_if_oneof   10073a50 f i libucrtd:dbgrpt.obj
 0001:00072a90       __snwprintf_s              10073a90 f i libucrtd:dbgrpt.obj
 0001:00072ad0       __vsnwprintf_s_l           10073ad0 f i libucrtd:dbgrpt.obj
 0001:00072e50       _wcscpy_s                  10073e50 f   libucrtd:wcscpy_s.obj
 0001:00073b70       ??1?$__crt_simd_cleanup_guard@$00@@QAE@XZ 10074b70 f i libucrtd:strnlen.obj
 0001:00073b80       ??1?$__crt_simd_cleanup_guard@$0A@@@QAE@XZ 10074b80 f i libucrtd:strnlen.obj
 0001:00073b90       ?compare_equals@?$__crt_simd_traits@$00E@@SA?AT__m256i@@T2@0@Z 10074b90 f i libucrtd:strnlen.obj
 0001:00073bd0       ?compare_equals@?$__crt_simd_traits@$00G@@SA?AT__m256i@@T2@0@Z 10074bd0 f i libucrtd:strnlen.obj
 0001:00073c10       ?compare_equals@?$__crt_simd_traits@$0A@E@@SA?AT__m128i@@T2@0@Z 10074c10 f i libucrtd:strnlen.obj
 0001:00073c50       ?compare_equals@?$__crt_simd_traits@$0A@G@@SA?AT__m128i@@T2@0@Z 10074c50 f i libucrtd:strnlen.obj
 0001:00073c90       ?compute_byte_mask@?$__crt_simd_pack_traits@$00@@SAHT__m256i@@@Z 10074c90 f i libucrtd:strnlen.obj
 0001:00073cc0       ?compute_byte_mask@?$__crt_simd_pack_traits@$0A@@@SAHT__m128i@@@Z 10074cc0 f i libucrtd:strnlen.obj
 0001:00073cf0       ?get_zero_pack@?$__crt_simd_pack_traits@$00@@SA?AT__m256i@@XZ 10074cf0 f i libucrtd:strnlen.obj
 0001:00073d20       ?get_zero_pack@?$__crt_simd_pack_traits@$0A@@@SA?AT__m128i@@XZ 10074d20 f i libucrtd:strnlen.obj
 0001:00073d50       _strnlen                   10074d50 f   libucrtd:strnlen.obj
 0001:00073d70       _wcslen                    10074d70 f   libucrtd:strnlen.obj
 0001:00073d90       _wcsnlen                   10074d90 f   libucrtd:strnlen.obj
 0001:00073db0       ??$__crt_fast_decode_pointer@P6AXPB_W00II@Z@@YAP6AXPB_W00II@ZQ6AX000II@Z@Z 10074db0 f i libucrtd:invalid_parameter.obj
 0001:00073de0       ??$__crt_fast_encode_pointer@P6AXPB_W00II@Z@@YAP6AXPB_W00II@ZQ6AX000II@Z@Z 10074de0 f i libucrtd:invalid_parameter.obj
 0001:00073e10       ??$initialize_from_array@$$BY00Q6AXPB_W00II@Z@?$dual_state_global@P6AXPB_W00II@Z@__crt_state_management@@QAAXAAY00Q6AXPB_W00II@Z@Z 10074e10 f i libucrtd:invalid_parameter.obj
 0001:00073e60       ?__crt_rotate_pointer_value@@YAIIH@Z 10074e60 f i libucrtd:invalid_parameter.obj
 0001:00073e70       ?check_synchronize_global_state_index@__crt_cached_ptd_host@@AAEIXZ 10074e70 f i libucrtd:invalid_parameter.obj
 0001:00073ec0       ?dangerous_get_state_array@?$dual_state_global@P6AXPB_W00II@Z@__crt_state_management@@QAEPAP6AXPB_W00II@ZXZ 10074ec0 f i libucrtd:invalid_parameter.obj
 0001:00073ed0       ?get_current_global_state_index@__crt_cached_ptd_host@@QAEIXZ 10074ed0 f i libucrtd:invalid_parameter.obj
 0001:00073ef0       ?get_current_state_index@__crt_state_management@@YAIXZ 10074ef0 f i libucrtd:invalid_parameter.obj
 0001:00073f00       ?get_raw_ptd_noexit@__crt_cached_ptd_host@@QAEPAU__acrt_ptd@@XZ 10074f00 f i libucrtd:invalid_parameter.obj
 0001:00073f20       ?try_synchronize_per_thread_data@__crt_cached_ptd_host@@AAEPAU__acrt_ptd@@XZ 10074f20 f i libucrtd:invalid_parameter.obj
 0001:00073f50       ?value@?$dual_state_global@P6AXPB_W00II@Z@__crt_state_management@@QAEAAP6AXPB_W00II@ZAAV__crt_cached_ptd_host@@@Z 10074f50 f i libucrtd:invalid_parameter.obj
 0001:00073f70       ?value@?$dual_state_global@P6AXPB_W00II@Z@__crt_state_management@@QAEAAP6AXPB_W00II@ZXZ 10074f70 f i libucrtd:invalid_parameter.obj
 0001:00073f90       ___acrt_call_reportfault   10074f90 f   libucrtd:invalid_parameter.obj
 0001:000740f0       ___acrt_initialize_invalid_parameter_handler 100750f0 f   libucrtd:invalid_parameter.obj
 0001:00074120       __get_invalid_parameter_handler 10075120 f   libucrtd:invalid_parameter.obj
 0001:00074140       __get_thread_local_invalid_parameter_handler 10075140 f   libucrtd:invalid_parameter.obj
 0001:00074170       __invalid_parameter        10075170 f   libucrtd:invalid_parameter.obj
 0001:000741b0       __invalid_parameter_internal 100751b0 f   libucrtd:invalid_parameter.obj
 0001:00074280       __invalid_parameter_noinfo 10075280 f   libucrtd:invalid_parameter.obj
 0001:000742a0       __invalid_parameter_noinfo_noreturn 100752a0 f   libucrtd:invalid_parameter.obj
 0001:000742d0       __invoke_watson            100752d0 f   libucrtd:invalid_parameter.obj
 0001:00074310       __set_invalid_parameter_handler 10075310 f   libucrtd:invalid_parameter.obj
 0001:00074360       __set_thread_local_invalid_parameter_handler 10075360 f   libucrtd:invalid_parameter.obj
 0001:00074390       ?get_doserrno@__crt_cached_ptd_host@@QAEAAU?$cached@K@1@XZ 10075390 f i libucrtd:errno.obj
 0001:000743b0       ?set@?$cached@K@__crt_cached_ptd_host@@QAEKK@Z 100753b0 f i libucrtd:errno.obj
 0001:000743e0       ___acrt_errno_from_os_error 100753e0 f   libucrtd:errno.obj
 0001:00074460       ___acrt_errno_map_os_error 10075460 f   libucrtd:errno.obj
 0001:00074490       ___acrt_errno_map_os_error_ptd 10075490 f   libucrtd:errno.obj
 0001:000744e0       ___doserrno                100754e0 f   libucrtd:errno.obj
 0001:00074510       __errno                    10075510 f   libucrtd:errno.obj
 0001:00074540       __get_doserrno             10075540 f   libucrtd:errno.obj
 0001:000745d0       __get_errno                100755d0 f   libucrtd:errno.obj
 0001:00074660       __set_doserrno             10075660 f   libucrtd:errno.obj
 0001:00074690       __set_errno                10075690 f   libucrtd:errno.obj
 0001:000746c0       _calloc                    100756c0 f   libucrtd:calloc.obj
 0001:000746e0       __recalloc                 100756e0 f   libucrtd:recalloc.obj
 0001:00074710       __recalloc_base            10075710 f   libucrtd:recalloc.obj
 0001:000747b0       __resetstkoflw             100757b0 f   libucrtd:resetstk.obj
 0001:00074d10       _wcscat_s                  10075d10 f   libucrtd:wcscat_s.obj
 0001:00075160       _wcsncpy_s                 10076160 f   libucrtd:wcsncpy_s.obj
 0001:000752a0       ___isascii                 100762a0 f   libucrtd:_ctype.obj
 0001:000752d0       ___iscsym                  100762d0 f   libucrtd:_ctype.obj
 0001:00075310       ___iscsymf                 10076310 f   libucrtd:_ctype.obj
 0001:00075350       ___toascii                 10076350 f   libucrtd:_ctype.obj
 0001:00075360       __isalnum_l                10076360 f   libucrtd:_ctype.obj
 0001:00075380       __isalpha_l                10076380 f   libucrtd:_ctype.obj
 0001:000753a0       __isblank_l                100763a0 f   libucrtd:_ctype.obj
 0001:000753c0       __iscntrl_l                100763c0 f   libucrtd:_ctype.obj
 0001:000753e0       __iscsym_l                 100763e0 f   libucrtd:_ctype.obj
 0001:00075420       __iscsymf_l                10076420 f   libucrtd:_ctype.obj
 0001:00075460       __isdigit_l                10076460 f   libucrtd:_ctype.obj
 0001:00075480       __isgraph_l                10076480 f   libucrtd:_ctype.obj
 0001:000754a0       __islower_l                100764a0 f   libucrtd:_ctype.obj
 0001:000754c0       __isprint_l                100764c0 f   libucrtd:_ctype.obj
 0001:000754e0       __ispunct_l                100764e0 f   libucrtd:_ctype.obj
 0001:00075500       __isspace_l                10076500 f   libucrtd:_ctype.obj
 0001:00075520       __isupper_l                10076520 f   libucrtd:_ctype.obj
 0001:00075540       __isxdigit_l               10076540 f   libucrtd:_ctype.obj
 0001:00075560       _isalnum                   10076560 f   libucrtd:_ctype.obj
 0001:00075580       _isalpha                   10076580 f   libucrtd:_ctype.obj
 0001:000755a0       _isblank                   100765a0 f   libucrtd:_ctype.obj
 0001:000755d0       _iscntrl                   100765d0 f   libucrtd:_ctype.obj
 0001:000755f0       _isdigit                   100765f0 f   libucrtd:_ctype.obj
 0001:00075610       _isgraph                   10076610 f   libucrtd:_ctype.obj
 0001:00075630       _islower                   10076630 f   libucrtd:_ctype.obj
 0001:00075650       _isprint                   10076650 f   libucrtd:_ctype.obj
 0001:00075670       _ispunct                   10076670 f   libucrtd:_ctype.obj
 0001:00075690       _isspace                   10076690 f   libucrtd:_ctype.obj
 0001:000756b0       _isupper                   100766b0 f   libucrtd:_ctype.obj
 0001:000756d0       _isxdigit                  100766d0 f   libucrtd:_ctype.obj
 0001:000756f0       _wcscat                    100766f0 f   libucrtd:wcscat.obj
 0001:00075750       _wcscpy                    10076750 f   libucrtd:wcscpy.obj
 0001:00075de0       ??$open_file@ABQBDABQBDABHPAU_iobuf@@@?$__crt_char_traits@D@@SAPAU_iobuf@@ABQBD0ABH$$QAPAU1@@Z 10076de0 f i libucrtd:fopen.obj
 0001:00075e10       ??$open_file@ABQB_WABQB_WABHPAU_iobuf@@@?$__crt_char_traits@_W@@SAPAU_iobuf@@ABQB_W0ABH$$QAPAU1@@Z 10076e10 f i libucrtd:fopen.obj
 0001:00075e40       ?unlock@__crt_stdio_stream@@QBEXXZ 10076e40 f i libucrtd:fopen.obj
 0001:00075e60       __fsopen                   10076e60 f   libucrtd:fopen.obj
 0001:00075e80       __wfopen                   10076e80 f   libucrtd:fopen.obj
 0001:00075ea0       __wfopen_s                 10076ea0 f   libucrtd:fopen.obj
 0001:00075ec0       __wfsopen                  10076ec0 f   libucrtd:fopen.obj
 0001:00075ee0       _fopen                     10076ee0 f   libucrtd:fopen.obj
 0001:00075f00       _fopen_s                   10076f00 f   libucrtd:fopen.obj
 0001:000761e0       ?is_in_use@__crt_stdio_stream@@QBE_NXZ 100771e0 f i libucrtd:fclose.obj
 0001:00076220       __fclose_nolock            10077220 f   libucrtd:fclose.obj
 0001:00076260       _fclose                    10077260 f   libucrtd:fclose.obj
 0001:00076500       __fputc_nolock             10077500 f   libucrtd:fputc.obj
 0001:00076540       __fputc_nolock_internal    10077540 f   libucrtd:fputc.obj
 0001:000765d0       __fputchar                 100775d0 f   libucrtd:fputc.obj
 0001:000765f0       __putc_nolock              100775f0 f   libucrtd:fputc.obj
 0001:00076610       _fputc                     10077610 f   libucrtd:fputc.obj
 0001:00076650       _putc                      10077650 f   libucrtd:fputc.obj
 0001:00076670       _putchar                   10077670 f   libucrtd:fputc.obj
 0001:000766e0       __seh_filter_dll           100776e0 f   libucrtd:exception_filter.obj
 0001:00076710       __seh_filter_exe           10077710 f   libucrtd:exception_filter.obj
 0001:00076930       ??$?B$$A6GXPAXK0@Z@__crt_fast_encoded_nullptr_t@@QBEP6GXPAXK0@ZXZ 10077930 f i libucrtd:exit.obj
 0001:00076a40       ??$__crt_fast_decode_pointer@P6GXPAXK0@Z@@YAP6GXPAXK0@ZQ6GX0K0@Z@Z 10077a40 f i libucrtd:exit.obj
 0001:00076a70       ??$__crt_fast_encode_pointer@P6GXPAXK0@Z@@YAP6GXPAXK0@ZQ6GX0K0@Z@Z 10077a70 f i libucrtd:exit.obj
 0001:00076aa0       ??$__crt_get_proc_address@P6GXI@Z@@YAP6GXI@ZQAUHINSTANCE__@@QBD@Z 10077aa0 f i libucrtd:exit.obj
 0001:00076b30       ??0?$__crt_unique_handle_t@U__crt_hmodule_traits@@@@QAE@QAUHINSTANCE__@@@Z 10077b30 f i libucrtd:exit.obj
 0001:00076b50       ??1?$__crt_unique_handle_t@U__crt_hmodule_traits@@@@QAE@XZ 10077b50 f i libucrtd:exit.obj
 0001:00076d10       ?__acrt_select_exit_lock@@YA?AW4__acrt_lock_id@@XZ 10077d10 f i libucrtd:exit.obj
 0001:00076d20       ?__crt_fast_encode_pointer@@YA?AU__crt_fast_encoded_nullptr_t@@$$T@Z 10077d20 f i libucrtd:exit.obj
 0001:00076d50       ?close@?$__crt_unique_handle_t@U__crt_hmodule_traits@@@@QAEXXZ 10077d50 f i libucrtd:exit.obj
 0001:00076d90       ?close@__crt_hmodule_traits@@SA_NPAUHINSTANCE__@@@Z 10077d90 f i libucrtd:exit.obj
 0001:00076ec0       ?get@?$__crt_unique_handle_t@U__crt_hmodule_traits@@@@QBEPAUHINSTANCE__@@XZ 10077ec0 f i libucrtd:exit.obj
 0001:00076ee0       ?get_address_of@?$__crt_unique_handle_t@U__crt_hmodule_traits@@@@QAEPAPAUHINSTANCE__@@XZ 10077ee0 f i libucrtd:exit.obj
 0001:00076ef0       ?get_invalid_value@__crt_hmodule_traits@@SAPAUHINSTANCE__@@XZ 10077ef0 f i libucrtd:exit.obj
 0001:000770a0       __Exit                     100780a0 f   libucrtd:exit.obj
 0001:000770c0       ___acrt_initialize_thread_local_exit_callback 100780c0 f   libucrtd:exit.obj
 0001:000770d0       __c_exit                   100780d0 f   libucrtd:exit.obj
 0001:000770f0       __cexit                    100780f0 f   libucrtd:exit.obj
 0001:00077110       __exit                     10078110 f   libucrtd:exit.obj
 0001:00077130       __is_c_termination_complete 10078130 f   libucrtd:exit.obj
 0001:00077150       __register_thread_local_exe_atexit_callback 10078150 f   libucrtd:exit.obj
 0001:00077190       _exit                      10078190 f   libucrtd:exit.obj
 0001:000771b0       _quick_exit                100781b0 f   libucrtd:exit.obj
 0001:000771d0       ??$?RE@__crt_internal_free_policy@@QBEXQBE@Z 100781d0 f i libucrtd:argv_parsing.obj
 0001:000771f0       ??$?RPAD@__crt_internal_free_policy@@QBEXQBQAD@Z 100781f0 f i libucrtd:argv_parsing.obj
 0001:00077210       ??$?RPA_W@__crt_internal_free_policy@@QBEXQBQA_W@Z 10078210 f i libucrtd:argv_parsing.obj
 0001:000777d0       ??$get_module_file_name@$$TAAY0BAF@DH@?$__crt_char_traits@D@@SAK$$QA$$TAAY0BAF@D$$QAH@Z 100787d0 f i libucrtd:argv_parsing.obj
 0001:000777f0       ??$get_module_file_name@$$TAAY0BAF@_WH@?$__crt_char_traits@_W@@SAK$$QA$$TAAY0BAF@_W$$QAH@Z 100787f0 f i libucrtd:argv_parsing.obj
 0001:00077f30       ??$set_program_name@PAD@?$__crt_char_traits@D@@SAX$$QAPAD@Z 10078f30 f i libucrtd:argv_parsing.obj
 0001:00077f50       ??$set_program_name@PA_W@?$__crt_char_traits@_W@@SAX$$QAPA_W@Z 10078f50 f i libucrtd:argv_parsing.obj
 0001:00077fb0       ??0?$__crt_unique_heap_ptr@EU__crt_internal_free_policy@@@@QAE@QAE@Z 10078fb0 f i libucrtd:argv_parsing.obj
 0001:00077fd0       ??0?$__crt_unique_heap_ptr@PADU__crt_internal_free_policy@@@@QAE@QAPAD@Z 10078fd0 f i libucrtd:argv_parsing.obj
 0001:00077ff0       ??0?$__crt_unique_heap_ptr@PA_WU__crt_internal_free_policy@@@@QAE@QAPA_W@Z 10078ff0 f i libucrtd:argv_parsing.obj
 0001:00078010       ??1?$__crt_unique_heap_ptr@EU__crt_internal_free_policy@@@@QAE@XZ 10079010 f i libucrtd:argv_parsing.obj
 0001:00078030       ??1?$__crt_unique_heap_ptr@PADU__crt_internal_free_policy@@@@QAE@XZ 10079030 f i libucrtd:argv_parsing.obj
 0001:00078050       ??1?$__crt_unique_heap_ptr@PA_WU__crt_internal_free_policy@@@@QAE@XZ 10079050 f i libucrtd:argv_parsing.obj
 0001:00078070       ??B?$__crt_unique_heap_ptr@EU__crt_internal_free_policy@@@@QBE_NXZ 10079070 f i libucrtd:argv_parsing.obj
 0001:00078130       ?detach@?$__crt_unique_heap_ptr@EU__crt_internal_free_policy@@@@QAEPAEXZ 10079130 f i libucrtd:argv_parsing.obj
 0001:00078160       ?detach@?$__crt_unique_heap_ptr@PADU__crt_internal_free_policy@@@@QAEPAPADXZ 10079160 f i libucrtd:argv_parsing.obj
 0001:00078190       ?detach@?$__crt_unique_heap_ptr@PA_WU__crt_internal_free_policy@@@@QAEPAPA_WXZ 10079190 f i libucrtd:argv_parsing.obj
 0001:00078220       ?get@?$__crt_unique_heap_ptr@EU__crt_internal_free_policy@@@@QBEPAEXZ 10079220 f i libucrtd:argv_parsing.obj
 0001:00078240       ?get@?$__crt_unique_heap_ptr@PADU__crt_internal_free_policy@@@@QBEPAPADXZ 10079240 f i libucrtd:argv_parsing.obj
 0001:00078260       ?get@?$__crt_unique_heap_ptr@PA_WU__crt_internal_free_policy@@@@QBEPAPA_WXZ 10079260 f i libucrtd:argv_parsing.obj
 0001:00078280       ?get_address_of@?$__crt_unique_heap_ptr@PADU__crt_internal_free_policy@@@@QAEPAPAPADXZ 10079280 f i libucrtd:argv_parsing.obj
 0001:00078290       ?get_address_of@?$__crt_unique_heap_ptr@PA_WU__crt_internal_free_policy@@@@QAEPAPAPA_WXZ 10079290 f i libucrtd:argv_parsing.obj
 0001:000782e0       ?is_valid@?$__crt_unique_heap_ptr@EU__crt_internal_free_policy@@@@QBE_NXZ 100792e0 f i libucrtd:argv_parsing.obj
 0001:00078310       ?release@?$__crt_unique_heap_ptr@EU__crt_internal_free_policy@@@@QAEXXZ 10079310 f i libucrtd:argv_parsing.obj
 0001:00078340       ?release@?$__crt_unique_heap_ptr@PADU__crt_internal_free_policy@@@@QAEXXZ 10079340 f i libucrtd:argv_parsing.obj
 0001:00078370       ?release@?$__crt_unique_heap_ptr@PA_WU__crt_internal_free_policy@@@@QAEXXZ 10079370 f i libucrtd:argv_parsing.obj
 0001:000783e0       ___acrt_allocate_buffer_for_argv 100793e0 f   libucrtd:argv_parsing.obj
 0001:000784a0       __configure_narrow_argv    100794a0 f   libucrtd:argv_parsing.obj
 0001:000784c0       __configure_wide_argv      100794c0 f   libucrtd:argv_parsing.obj
 0001:000784e0       __set_pgmptr               100794e0 f i libucrtd:argv_parsing.obj
 0001:000784f0       __set_wpgmptr              100794f0 f i libucrtd:argv_parsing.obj
 0001:00078500       ??$?R_W@__crt_internal_free_policy@@QBEXQB_W@Z 10079500 f i libucrtd:environment_initialization.obj
 0001:00078ce0       ??$get_environment_from_os@$$V@?$__crt_char_traits@D@@SAPADXZ 10079ce0 f i libucrtd:environment_initialization.obj
 0001:00078cf0       ??$get_environment_from_os@$$V@?$__crt_char_traits@_W@@SAPA_WXZ 10079cf0 f i libucrtd:environment_initialization.obj
 0001:00078fc0       ??$set_variable_in_environment_nolock@PADH@?$__crt_char_traits@D@@SAH$$QAPAD$$QAH@Z 10079fc0 f i libucrtd:environment_initialization.obj
 0001:00078fe0       ??$set_variable_in_environment_nolock@PA_WH@?$__crt_char_traits@_W@@SAH$$QAPA_W$$QAH@Z 10079fe0 f i libucrtd:environment_initialization.obj
 0001:00079000       ??$tcscpy_s@PADABIAAPAD@?$__crt_char_traits@D@@SAH$$QAPADABIAAPAD@Z 1007a000 f i libucrtd:environment_initialization.obj
 0001:00079030       ??$tcscpy_s@PA_WABIAAPA_W@?$__crt_char_traits@_W@@SAH$$QAPA_WABIAAPA_W@Z 1007a030 f i libucrtd:environment_initialization.obj
 0001:00079060       ??$tcslen@AAPAD@?$__crt_char_traits@D@@SAIAAPAD@Z 1007a060 f i libucrtd:environment_initialization.obj
 0001:00079080       ??$tcslen@AAPA_W@?$__crt_char_traits@_W@@SAIAAPA_W@Z 1007a080 f i libucrtd:environment_initialization.obj
 0001:000790a0       ??$uninitialize@A6AXAAPAPAD@_E@?$dual_state_global@PAPAD@__crt_state_management@@QAEXA6AXAAPAPAD@_E@Z 1007a0a0 f i libucrtd:environment_initialization.obj
 0001:00079120       ??$uninitialize@A6AXAAPAPA_W@_E@?$dual_state_global@PAPA_W@__crt_state_management@@QAEXA6AXAAPAPA_W@_E@Z 1007a120 f i libucrtd:environment_initialization.obj
 0001:00079200       ??0?$__crt_unique_heap_ptr@_WU__crt_internal_free_policy@@@@QAE@QA_W@Z 1007a200 f i libucrtd:environment_initialization.obj
 0001:00079220       ??1?$__crt_unique_heap_ptr@_WU__crt_internal_free_policy@@@@QAE@XZ 1007a220 f i libucrtd:environment_initialization.obj
 0001:00079240       ??B?$__crt_unique_heap_ptr@PADU__crt_internal_free_policy@@@@QBE_NXZ 1007a240 f i libucrtd:environment_initialization.obj
 0001:00079260       ??B?$__crt_unique_heap_ptr@PA_WU__crt_internal_free_policy@@@@QBE_NXZ 1007a260 f i libucrtd:environment_initialization.obj
 0001:00079280       ??B?$__crt_unique_heap_ptr@_WU__crt_internal_free_policy@@@@QBE_NXZ 1007a280 f i libucrtd:environment_initialization.obj
 0001:000792a0       ?__crt_compute_required_transform_buffer_count@@YAIIQBD@Z 1007a2a0 f i libucrtd:environment_initialization.obj
 0001:000792c0       ?__crt_compute_required_transform_buffer_count@@YAIIQB_W@Z 1007a2c0 f i libucrtd:environment_initialization.obj
 0001:000792f0       ?__crt_transform_string@@YAIIQBDQA_WI@Z 1007a2f0 f i libucrtd:environment_initialization.obj
 0001:00079320       ?__crt_transform_string@@YAIIQB_WQADI@Z 1007a320 f i libucrtd:environment_initialization.obj
 0001:00079350       ?detach@?$__crt_unique_heap_ptr@DU__crt_internal_free_policy@@@@QAEPADXZ 1007a350 f i libucrtd:environment_initialization.obj
 0001:00079380       ?detach@?$__crt_unique_heap_ptr@_WU__crt_internal_free_policy@@@@QAEPA_WXZ 1007a380 f i libucrtd:environment_initialization.obj
 0001:000793b0       ?get@?$__crt_unique_heap_ptr@_WU__crt_internal_free_policy@@@@QBEPA_WXZ 1007a3b0 f i libucrtd:environment_initialization.obj
 0001:00079450       ?initialize@?$dual_state_global@PAPAD@__crt_state_management@@QAEXQAPAD@Z 1007a450 f i libucrtd:environment_initialization.obj
 0001:00079490       ?initialize@?$dual_state_global@PAPA_W@__crt_state_management@@QAEXQAPA_W@Z 1007a490 f i libucrtd:environment_initialization.obj
 0001:000794d0       ?is_valid@?$__crt_unique_heap_ptr@PADU__crt_internal_free_policy@@@@QBE_NXZ 1007a4d0 f i libucrtd:environment_initialization.obj
 0001:00079500       ?is_valid@?$__crt_unique_heap_ptr@PA_WU__crt_internal_free_policy@@@@QBE_NXZ 1007a500 f i libucrtd:environment_initialization.obj
 0001:00079530       ?is_valid@?$__crt_unique_heap_ptr@_WU__crt_internal_free_policy@@@@QBE_NXZ 1007a530 f i libucrtd:environment_initialization.obj
 0001:00079580       ?release@?$__crt_unique_heap_ptr@_WU__crt_internal_free_policy@@@@QAEXXZ 1007a580 f i libucrtd:environment_initialization.obj
 0001:000795b0       ?value@?$dual_state_global@PAPAD@__crt_state_management@@QAEAAPAPADXZ 1007a5b0 f i libucrtd:environment_initialization.obj
 0001:000795d0       ?value@?$dual_state_global@PAPA_W@__crt_state_management@@QAEAAPAPA_WXZ 1007a5d0 f i libucrtd:environment_initialization.obj
 0001:000795f0       ___dcrt_get_or_create_narrow_environment_nolock 1007a5f0 f   libucrtd:environment_initialization.obj
 0001:00079600       ___dcrt_get_or_create_wide_environment_nolock 1007a600 f   libucrtd:environment_initialization.obj
 0001:00079610       ___dcrt_uninitialize_environments_nolock 1007a610 f   libucrtd:environment_initialization.obj
 0001:00079660       ___p__environ              1007a660 f   libucrtd:environment_initialization.obj
 0001:00079680       ___p__wenviron             1007a680 f   libucrtd:environment_initialization.obj
 0001:000796a0       __get_initial_narrow_environment 1007a6a0 f   libucrtd:environment_initialization.obj
 0001:000796b0       __get_initial_wide_environment 1007a6b0 f   libucrtd:environment_initialization.obj
 0001:000796c0       __initialize_narrow_environment 1007a6c0 f   libucrtd:environment_initialization.obj
 0001:000796d0       __initialize_wide_environment 1007a6d0 f   libucrtd:environment_initialization.obj
 0001:000796e0       ??$?B$$A6AXXZ@__crt_fast_encoded_nullptr_t@@QBEP6AXXZXZ 1007a6e0 f i libucrtd:onexit.obj
 0001:00079700       ??$?BP6AXXZ@__crt_fast_encoded_nullptr_t@@QBEPAP6AXXZXZ 1007a700 f i libucrtd:onexit.obj
 0001:00079720       ??$?RP6AXXZ@__crt_internal_free_policy@@QBEXQBQ6AXXZ@Z 1007a720 f i libucrtd:onexit.obj
 0001:00079940       ??$__crt_fast_decode_pointer@P6AXXZ@@YAP6AXXZQ6AXXZ@Z 1007a940 f i libucrtd:onexit.obj
 0001:00079970       ??$__crt_fast_decode_pointer@PAP6AXXZ@@YAPAP6AXXZQAP6AXXZ@Z 1007a970 f i libucrtd:onexit.obj
 0001:000799a0       ??$__crt_fast_encode_pointer@P6AHXZ@@YAP6AHXZQ6AHXZ@Z 1007a9a0 f i libucrtd:onexit.obj
 0001:000799d0       ??$__crt_fast_encode_pointer@P6AXXZ@@YAP6AXXZQ6AXXZ@Z 1007a9d0 f i libucrtd:onexit.obj
 0001:00079a00       ??$__crt_fast_encode_pointer@PAP6AXXZ@@YAPAP6AXXZQAP6AXXZ@Z 1007aa00 f i libucrtd:onexit.obj
 0001:00079b00       ??0?$__crt_unique_heap_ptr@P6AXXZU__crt_internal_free_policy@@@@QAE@QAP6AXXZ@Z 1007ab00 f i libucrtd:onexit.obj
 0001:00079b20       ??1?$__crt_unique_heap_ptr@P6AXXZU__crt_internal_free_policy@@@@QAE@XZ 1007ab20 f i libucrtd:onexit.obj
 0001:00079b40       ??1scoped_global_state_reset@__crt_state_management@@QAE@XZ 1007ab40 f i libucrtd:onexit.obj
 0001:00079fc0       ?detach@?$__crt_unique_heap_ptr@P6AXXZU__crt_internal_free_policy@@@@QAEPAP6AXXZXZ 1007afc0 f i libucrtd:onexit.obj
 0001:00079ff0       ?release@?$__crt_unique_heap_ptr@P6AXXZU__crt_internal_free_policy@@@@QAEXXZ 1007aff0 f i libucrtd:onexit.obj
 0001:0007a020       __crt_at_quick_exit        1007b020 f   libucrtd:onexit.obj
 0001:0007a040       __crt_atexit               1007b040 f   libucrtd:onexit.obj
 0001:0007a060       __execute_onexit_table     1007b060 f   libucrtd:onexit.obj
 0001:0007a0a0       __initialize_onexit_table  1007b0a0 f   libucrtd:onexit.obj
 0001:0007a100       __register_onexit_function 1007b100 f   libucrtd:onexit.obj
 0001:0007a350       ??$?BX@__crt_fast_encoded_nullptr_t@@QBEPAXXZ 1007b350 f i libucrtd:initialization.obj
 0001:0007a370       ??$__crt_fast_encode_pointer@PAX@@YAPAXQAX@Z 1007b370 f i libucrtd:initialization.obj
 0001:0007a460       ?initialize@?$dual_state_global@PAU__crt_locale_data@@@__crt_state_management@@QAEXQAU__crt_locale_data@@@Z 1007b460 f i libucrtd:initialization.obj
 0001:0007a4a0       ___acrt_initialize         1007b4a0 f   libucrtd:initialization.obj
 0001:0007a4c0       ___acrt_thread_attach      1007b4c0 f   libucrtd:initialization.obj
 0001:0007a4e0       ___acrt_thread_detach      1007b4e0 f   libucrtd:initialization.obj
 0001:0007a4f0       ___acrt_uninitialize       1007b4f0 f   libucrtd:initialization.obj
 0001:0007a510       ___acrt_uninitialize_critical 1007b510 f   libucrtd:initialization.obj
 0001:0007a530       ??0_LocaleUpdate@@QAE@QAU__crt_locale_pointers@@@Z 1007b530 f i libucrtd:debug_heap.obj
 0001:0007a600       ??1_LocaleUpdate@@QAE@XZ   1007b600 f i libucrtd:debug_heap.obj
 0001:0007a630       ?GetLocaleT@_LocaleUpdate@@QAEPAU__crt_locale_pointers@@XZ 1007b630 f i libucrtd:debug_heap.obj
 0001:0007c080       __CrtCheckMemory           1007d080 f   libucrtd:debug_heap.obj
 0001:0007c210       __CrtDoForAllClientObjects 1007d210 f   libucrtd:debug_heap.obj
 0001:0007c370       __CrtDumpMemoryLeaks       1007d370 f   libucrtd:debug_heap.obj
 0001:0007c410       __CrtGetAllocHook          1007d410 f   libucrtd:debug_heap.obj
 0001:0007c420       __CrtGetDumpClient         1007d420 f   libucrtd:debug_heap.obj
 0001:0007c430       __CrtIsMemoryBlock         1007d430 f   libucrtd:debug_heap.obj
 0001:0007c580       __CrtIsValidHeapPointer    1007d580 f   libucrtd:debug_heap.obj
 0001:0007c5c0       __CrtIsValidPointer        1007d5c0 f   libucrtd:debug_heap.obj
 0001:0007c5f0       __CrtMemCheckpoint         1007d5f0 f   libucrtd:debug_heap.obj
 0001:0007c820       __CrtMemDifference         1007d820 f   libucrtd:debug_heap.obj
 0001:0007ca90       __CrtMemDumpAllObjectsSince 1007da90 f   libucrtd:debug_heap.obj
 0001:0007cb30       __CrtMemDumpStatistics     1007db30 f   libucrtd:debug_heap.obj
 0001:0007cc60       __CrtReportBlockType       1007dc60 f   libucrtd:debug_heap.obj
 0001:0007cc90       __CrtSetAllocHook          1007dc90 f   libucrtd:debug_heap.obj
 0001:0007ccb0       __CrtSetBreakAlloc         1007dcb0 f   libucrtd:debug_heap.obj
 0001:0007ccd0       __CrtSetDbgBlockType       1007dcd0 f   libucrtd:debug_heap.obj
 0001:0007cdb0       __CrtSetDbgFlag            1007ddb0 f   libucrtd:debug_heap.obj
 0001:0007cf20       __CrtSetDumpClient         1007df20 f   libucrtd:debug_heap.obj
 0001:0007cf40       ___acrt_get_locale_data_prefix 1007df40 f i libucrtd:debug_heap.obj
 0001:0007cf60       ___p__crtBreakAlloc        1007df60 f   libucrtd:debug_heap.obj
 0001:0007cf70       ___p__crtDbgFlag           1007df70 f   libucrtd:debug_heap.obj
 0001:0007cf80       __aligned_free_dbg         1007df80 f   libucrtd:debug_heap.obj
 0001:0007d030       __aligned_malloc_dbg       1007e030 f   libucrtd:debug_heap.obj
 0001:0007d060       __aligned_msize_dbg        1007e060 f   libucrtd:debug_heap.obj
 0001:0007d190       __aligned_offset_malloc_dbg 1007e190 f   libucrtd:debug_heap.obj
 0001:0007d370       __aligned_offset_realloc_dbg 1007e370 f   libucrtd:debug_heap.obj
 0001:0007d680       __aligned_offset_recalloc_dbg 1007e680 f   libucrtd:debug_heap.obj
 0001:0007d740       __aligned_realloc_dbg      1007e740 f   libucrtd:debug_heap.obj
 0001:0007d770       __aligned_recalloc_dbg     1007e770 f   libucrtd:debug_heap.obj
 0001:0007d7a0       __calloc_dbg               1007e7a0 f   libucrtd:debug_heap.obj
 0001:0007d810       __chvalidchk_l             1007e810 f i libucrtd:debug_heap.obj
 0001:0007d830       __expand_dbg               1007e830 f   libucrtd:debug_heap.obj
 0001:0007d960       __free_dbg                 1007e960 f   libucrtd:debug_heap.obj
 0001:0007da10       __ischartype_l             1007ea10 f i libucrtd:debug_heap.obj
 0001:0007da90       __malloc_dbg               1007ea90 f   libucrtd:debug_heap.obj
 0001:0007dab0       __msize_dbg                1007eab0 f   libucrtd:debug_heap.obj
 0001:0007dc40       __realloc_dbg              1007ec40 f   libucrtd:debug_heap.obj
 0001:0007dce0       __recalloc_dbg             1007ece0 f   libucrtd:debug_heap.obj
 0001:0007dd90       __initterm                 1007ed90 f   libucrtd:initterm.obj
 0001:0007dde0       __initterm_e               1007ede0 f   libucrtd:initterm.obj
 0001:0007e150       _strcpy_s                  1007f150 f   libucrtd:strcpy_s.obj
 0001:0007e580       _strcat_s                  1007f580 f   libucrtd:strcat_s.obj
 0001:0007e5a0       ??$?B$$A6AHI@Z@__crt_fast_encoded_nullptr_t@@QBEP6AHI@ZXZ 1007f5a0 f i libucrtd:new_handler.obj
 0001:0007e5c0       ??$__crt_fast_decode_pointer@P6AHI@Z@@YAP6AHI@ZQ6AHI@Z@Z 1007f5c0 f i libucrtd:new_handler.obj
 0001:0007e5f0       ??$__crt_fast_encode_pointer@P6AHI@Z@@YAP6AHI@ZQ6AHI@Z@Z 1007f5f0 f i libucrtd:new_handler.obj
 0001:0007e620       ?_set_new_handler@@YAP6AHI@ZH@Z 1007f620 f   libucrtd:new_handler.obj
 0001:0007e680       ?initialize@?$dual_state_global@P6AHI@Z@__crt_state_management@@QAEXQ6AHI@Z@Z 1007f680 f i libucrtd:new_handler.obj
 0001:0007e6c0       ?value@?$dual_state_global@P6AHI@Z@__crt_state_management@@QAEAAP6AHI@ZXZ 1007f6c0 f i libucrtd:new_handler.obj
 0001:0007e6e0       ___acrt_initialize_new_handler 1007f6e0 f   libucrtd:new_handler.obj
 0001:0007e700       __callnewh                 1007f700 f   libucrtd:new_handler.obj
 0001:0007e750       __query_new_handler        1007f750 f   libucrtd:new_handler.obj
 0001:0007e7e0       __set_new_handler          1007f7e0 f   libucrtd:new_handler.obj
 0001:0007e8c0       __get_terminate            1007f8c0 f   libucrtd:terminate.obj
 0001:0007e8e0       _set_terminate             1007f8e0 f   libucrtd:terminate.obj
 0001:0007e910       _terminate                 1007f910 f   libucrtd:terminate.obj
 0001:0007f310       __makepath                 10080310 f   libucrtd:makepath.obj
 0001:0007f340       __makepath_s               10080340 f   libucrtd:makepath.obj
 0001:0007f370       __wmakepath                10080370 f   libucrtd:makepath.obj
 0001:0007f3a0       __wmakepath_s              100803a0 f   libucrtd:makepath.obj
 0001:00080e70       ??$tcsncpy_s@AAPADIAAPBDABI@?$__crt_char_traits@D@@SAHAAPAD$$QAIAAPBDABI@Z 10081e70 f i libucrtd:splitpath.obj
 0001:00080ea0       ??$tcsncpy_s@AAPADIAAPBDH@?$__crt_char_traits@D@@SAHAAPAD$$QAIAAPBD$$QAH@Z 10081ea0 f i libucrtd:splitpath.obj
 0001:00080ed0       ??$tcsncpy_s@AAPA_WIAAPB_WABI@?$__crt_char_traits@_W@@SAHAAPA_W$$QAIAAPB_WABI@Z 10081ed0 f i libucrtd:splitpath.obj
 0001:00080f00       ??$tcsncpy_s@AAPA_WIAAPB_WH@?$__crt_char_traits@_W@@SAHAAPA_W$$QAIAAPB_W$$QAH@Z 10081f00 f i libucrtd:splitpath.obj
 0001:00081140       __splitpath                10082140 f   libucrtd:splitpath.obj
 0001:00081170       __splitpath_s              10082170 f   libucrtd:splitpath.obj
 0001:000811c0       __wsplitpath               100821c0 f   libucrtd:splitpath.obj
 0001:000811f0       __wsplitpath_s             100821f0 f   libucrtd:splitpath.obj
 0001:00081240       __set_abort_behavior       10082240 f   libucrtd:abort.obj
 0001:00081270       _abort                     10082270 f   libucrtd:abort.obj
 0001:000812e0       _strcmp                    100822e0 f   libucrtd:strcmp.obj
 0001:00081370       _strlen                    10082370 f   libucrtd:strlen.obj
 0001:00081400       ??$is_overflow_condition@_K@__crt_strtox@@YA_NI_K@Z 10082400 f i libucrtd:atox.obj
 0001:00081490       ??$make_c_string_character_source@D$$T@__crt_strtox@@YA?AV?$c_string_character_source@D@0@QBD$$T@Z 10082490 f i libucrtd:atox.obj
 0001:000814b0       ??$make_c_string_character_source@_W$$T@__crt_strtox@@YA?AV?$c_string_character_source@_W@0@QB_W$$T@Z 100824b0 f i libucrtd:atox.obj
 0001:000814d0       ??$parse_integer@KV?$c_string_character_source@D@__crt_strtox@@$00@__crt_strtox@@YAKAAV__crt_cached_ptd_host@@V?$c_string_character_source@D@0@H_N@Z 100824d0 f i libucrtd:atox.obj
 0001:00081830       ??$parse_integer@KV?$c_string_character_source@_W@__crt_strtox@@$00@__crt_strtox@@YAKAAV__crt_cached_ptd_host@@V?$c_string_character_source@_W@0@H_N@Z 10082830 f i libucrtd:atox.obj
 0001:00081ba0       ??$parse_integer@_KV?$c_string_character_source@D@__crt_strtox@@$00@__crt_strtox@@YA_KAAV__crt_cached_ptd_host@@V?$c_string_character_source@D@0@H_N@Z 10082ba0 f i libucrtd:atox.obj
 0001:00081f90       ??$parse_integer@_KV?$c_string_character_source@_W@__crt_strtox@@$00@__crt_strtox@@YA_KAAV__crt_cached_ptd_host@@V?$c_string_character_source@_W@0@H_N@Z 10082f90 f i libucrtd:atox.obj
 0001:00082380       ??$parse_integer_from_string@JD$$T@__crt_strtox@@YAJQBD$$THQAU__crt_locale_pointers@@@Z 10083380 f i libucrtd:atox.obj
 0001:000823e0       ??$parse_integer_from_string@J_W$$T@__crt_strtox@@YAJQB_W$$THQAU__crt_locale_pointers@@@Z 100833e0 f i libucrtd:atox.obj
 0001:00082440       ??$parse_integer_from_string@_JD$$T@__crt_strtox@@YA_JQBD$$THQAU__crt_locale_pointers@@@Z 10083440 f i libucrtd:atox.obj
 0001:000824a0       ??$parse_integer_from_string@_J_W$$T@__crt_strtox@@YA_JQB_W$$THQAU__crt_locale_pointers@@@Z 100834a0 f i libucrtd:atox.obj
 0001:00082500       ?is_space@__crt_strtox@@YA_NDQAU__crt_locale_pointers@@@Z 10083500 f i libucrtd:atox.obj
 0001:00082540       ?is_space@__crt_strtox@@YA_N_WPAU__crt_locale_pointers@@@Z 10083540 f i libucrtd:atox.obj
 0001:00082570       ?maximum_signed_value@__crt_strtox@@YA_J_K@Z 10083570 f i libucrtd:atox.obj
 0001:00082580       ?minimum_signed_value@__crt_strtox@@YA_J_K@Z 10083580 f i libucrtd:atox.obj
 0001:00082590       __atoi64                   10083590 f   libucrtd:atox.obj
 0001:000825b0       __atoi64_l                 100835b0 f   libucrtd:atox.obj
 0001:000825d0       __atoi_l                   100835d0 f   libucrtd:atox.obj
 0001:000825f0       __atol_l                   100835f0 f   libucrtd:atox.obj
 0001:00082610       __atoll_l                  10083610 f   libucrtd:atox.obj
 0001:00082630       __wtoi                     10083630 f   libucrtd:atox.obj
 0001:00082650       __wtoi64                   10083650 f   libucrtd:atox.obj
 0001:00082670       __wtoi64_l                 10083670 f   libucrtd:atox.obj
 0001:00082690       __wtoi_l                   10083690 f   libucrtd:atox.obj
 0001:000826b0       __wtol                     100836b0 f   libucrtd:atox.obj
 0001:000826d0       __wtol_l                   100836d0 f   libucrtd:atox.obj
 0001:000826f0       __wtoll                    100836f0 f   libucrtd:atox.obj
 0001:00082710       __wtoll_l                  10083710 f   libucrtd:atox.obj
 0001:00082730       _atoi                      10083730 f   libucrtd:atox.obj
 0001:00082750       _atol                      10083750 f   libucrtd:atox.obj
 0001:00082770       _atoll                     10083770 f   libucrtd:atox.obj
 0001:00082790       _strncmp                   10083790 f   libucrtd:strncmp.obj
 0001:00082810       _wcsncmp                   10083810 f   libucrtd:wcsncmp.obj
 0001:00082870       __CrtGetDebugFillThreshold 10083870 f   libucrtd:debug_fill_threshold.obj
 0001:00082880       __CrtSetDebugFillThreshold 10083880 f   libucrtd:debug_fill_threshold.obj
 0001:000828a0       ?value@?$dual_state_global@PAU__crt_locale_data@@@__crt_state_management@@QAEAAPAU__crt_locale_data@@XZ 100838a0 f i libucrtd:locale_update.obj
 0001:000828c0       ?value@?$dual_state_global@PAU__crt_multibyte_data@@@__crt_state_management@@QAEAAPAU__crt_multibyte_data@@XZ 100838c0 f i libucrtd:locale_update.obj
 0001:000828e0       ?value_explicit@?$dual_state_global@PAU__crt_locale_data@@@__crt_state_management@@QAEAAPAU__crt_locale_data@@I@Z 100838e0 f i libucrtd:locale_update.obj
 0001:00082900       ?value_explicit@?$dual_state_global@PAU__crt_multibyte_data@@@__crt_state_management@@QAEAAPAU__crt_multibyte_data@@I@Z 10083900 f i libucrtd:locale_update.obj
 0001:00082920       ___acrt_should_sync_with_global_locale 10083920 f i libucrtd:locale_update.obj
 0001:00082950       ___acrt_update_locale_info 10083950 f   libucrtd:locale_update.obj
 0001:00082990       ___acrt_update_locale_info_explicit 10083990 f   libucrtd:locale_update.obj
 0001:000829d0       ___acrt_update_multibyte_info 100839d0 f   libucrtd:locale_update.obj
 0001:00082a10       ___acrt_update_multibyte_info_explicit 10083a10 f   libucrtd:locale_update.obj
 0001:00082a50       ?__acrt_fp_classify@@YA?AW4__acrt_fp_class@@ABN@Z 10083a50 f i libucrtd:cvt.obj
 0001:00082b70       ?__acrt_fp_is_negative@@YA_NABN@Z 10083b70 f i libucrtd:cvt.obj
 0001:00083d80       ?strrchr@@YAPADQADH@Z      10084d80 f i libucrtd:cvt.obj
 0001:00083da0       ___acrt_fp_format          10084da0 f   libucrtd:cvt.obj
 0001:00084220       ?value_or@?$cached@H@__crt_cached_ptd_host@@QBEHH@Z 10085220 f i libucrtd:wctomb.obj
 0001:00084250       __wctomb_internal          10085250 f   libucrtd:wctomb.obj
 0001:000845d0       __wctomb_l                 100855d0 f   libucrtd:wctomb.obj
 0001:00084650       __wctomb_s_l               10085650 f   libucrtd:wctomb.obj
 0001:000846a0       _wctomb                    100856a0 f   libucrtd:wctomb.obj
 0001:00084710       _wctomb_s                  10085710 f   libucrtd:wctomb.obj
 0001:00084760       __isleadbyte_fast_internal 10085760 f i libucrtd:mbtowc.obj
 0001:00084780       __mbtowc_internal          10085780 f   libucrtd:mbtowc.obj
 0001:00084a10       __mbtowc_l                 10085a10 f   libucrtd:mbtowc.obj
 0001:00084a50       _mbtowc                    10085a50 f   libucrtd:mbtowc.obj
 0001:00084a90       ?lowio_handle@__crt_stdio_stream@@QBEHXZ 10085a90 f i libucrtd:fileno.obj
 0001:00084ab0       __fileno                   10085ab0 f   libucrtd:fileno.obj
 0001:00084b50       ??$?RPAU__crt_stdio_stream_data@@@__crt_internal_free_policy@@QBEXQBQAU__crt_stdio_stream_data@@@Z 10085b50 f i libucrtd:_file.obj
 0001:00084b70       ??0?$__crt_unique_heap_ptr@PAU__crt_stdio_stream_data@@U__crt_internal_free_policy@@@@QAE@QAPAU__crt_stdio_stream_data@@@Z 10085b70 f i libucrtd:_file.obj
 0001:00084b90       ??1?$__crt_unique_heap_ptr@PAU__crt_stdio_stream_data@@U__crt_internal_free_policy@@@@QAE@XZ 10085b90 f i libucrtd:_file.obj
 0001:00084bb0       ?detach@?$__crt_unique_heap_ptr@PAU__crt_stdio_stream_data@@U__crt_internal_free_policy@@@@QAEPAPAU__crt_stdio_stream_data@@XZ 10085bb0 f i libucrtd:_file.obj
 0001:00084be0       ?release@?$__crt_unique_heap_ptr@PAU__crt_stdio_stream_data@@U__crt_internal_free_policy@@@@QAEXXZ 10085be0 f i libucrtd:_file.obj
 0001:00084c10       ___acrt_initialize_stdio   10085c10 f   libucrtd:_file.obj
 0001:00084d80       ___acrt_iob_func           10085d80 f   libucrtd:_file.obj
 0001:00084d90       ___acrt_uninitialize_stdio 10085d90 f   libucrtd:_file.obj
 0001:00084e10       __get_stream_buffer_pointers 10085e10 f   libucrtd:_file.obj
 0001:00084ef0       __lock_file                10085ef0 f   libucrtd:_file.obj
 0001:00084f20       __unlock_file              10085f20 f   libucrtd:_file.obj
 0001:00084f50       __get_printf_count_output  10085f50 f   libucrtd:printf_count_output.obj
 0001:00084f80       __set_printf_count_output  10085f80 f   libucrtd:printf_count_output.obj
 0001:00085180       __fputwc_nolock            10086180 f   libucrtd:fputwc.obj
 0001:000851c0       __fputwc_nolock_internal   100861c0 f   libucrtd:fputwc.obj
 0001:000853d0       __fputwchar                100863d0 f   libucrtd:fputwc.obj
 0001:000853f0       __putwc_nolock             100863f0 f   libucrtd:fputwc.obj
 0001:00085410       _fputwc                    10086410 f   libucrtd:fputwc.obj
 0001:00085450       _putwc                     10086450 f   libucrtd:fputwc.obj
 0001:00085470       _putwchar                  10086470 f   libucrtd:fputwc.obj
 0001:00085490       ?has_any_buffer@__crt_stdio_stream@@QBE_NXZ 10086490 f i libucrtd:_sftbuf.obj
 0001:000854b0       ?has_any_of@__crt_stdio_stream@@QBE_NJ@Z 100864b0 f i libucrtd:_sftbuf.obj
 0001:000854f0       ?has_temporary_buffer@__crt_stdio_stream@@QBE_NXZ 100864f0 f i libucrtd:_sftbuf.obj
 0001:00085510       ?set_flags@__crt_stdio_stream@@QBE_NJ@Z 10086510 f i libucrtd:_sftbuf.obj
 0001:00085560       ?unset_flags@__crt_stdio_stream@@QBE_NJ@Z 10086560 f i libucrtd:_sftbuf.obj
 0001:000855b0       ___acrt_should_use_temporary_buffer 100865b0 f   libucrtd:_sftbuf.obj
 0001:00085600       ___acrt_stdio_begin_temporary_buffering_nolock 10086600 f   libucrtd:_sftbuf.obj
 0001:000857d0       ___acrt_stdio_end_temporary_buffering_nolock 100867d0 f   libucrtd:_sftbuf.obj
 0001:00085850       ??$?RU__acrt_ptd@@@__crt_internal_free_policy@@QBEXQBU__acrt_ptd@@@Z 10086850 f i libucrtd:per_thread_data.obj
 0001:00085dc0       ??0?$__crt_unique_heap_ptr@U__acrt_ptd@@U__crt_internal_free_policy@@@@QAE@QAU__acrt_ptd@@@Z 10086dc0 f i libucrtd:per_thread_data.obj
 0001:00085de0       ??1?$__crt_unique_heap_ptr@U__acrt_ptd@@U__crt_internal_free_policy@@@@QAE@XZ 10086de0 f i libucrtd:per_thread_data.obj
 0001:00085e00       ??B?$__crt_unique_heap_ptr@U__acrt_ptd@@U__crt_internal_free_policy@@@@QBE_NXZ 10086e00 f i libucrtd:per_thread_data.obj
 0001:00086110       ?dangerous_get_state_array@?$dual_state_global@PAU__crt_locale_data@@@__crt_state_management@@QAEPAPAU__crt_locale_data@@XZ 10087110 f i libucrtd:per_thread_data.obj
 0001:000862b0       ?detach@?$__crt_unique_heap_ptr@U__acrt_ptd@@U__crt_internal_free_policy@@@@QAEPAU__acrt_ptd@@XZ 100872b0 f i libucrtd:per_thread_data.obj
 0001:000862e0       ?get@?$__crt_unique_heap_ptr@U__acrt_ptd@@U__crt_internal_free_policy@@@@QBEPAU__acrt_ptd@@XZ 100872e0 f i libucrtd:per_thread_data.obj
 0001:00086480       ?is_valid@?$__crt_unique_heap_ptr@U__acrt_ptd@@U__crt_internal_free_policy@@@@QBE_NXZ 10087480 f i libucrtd:per_thread_data.obj
 0001:000864b0       ?release@?$__crt_unique_heap_ptr@U__acrt_ptd@@U__crt_internal_free_policy@@@@QAEXXZ 100874b0 f i libucrtd:per_thread_data.obj
 0001:000865a0       ___acrt_freeptd            100875a0 f   libucrtd:per_thread_data.obj
 0001:000865d0       ___acrt_getptd             100875d0 f   libucrtd:per_thread_data.obj
 0001:000865f0       ___acrt_getptd_head        100875f0 f   libucrtd:per_thread_data.obj
 0001:00086610       ___acrt_getptd_noexit      10087610 f   libucrtd:per_thread_data.obj
 0001:00086620       ___acrt_getptd_noexit_explicit 10087620 f   libucrtd:per_thread_data.obj
 0001:00086640       ___acrt_initialize_ptd     10087640 f   libucrtd:per_thread_data.obj
 0001:00086680       ___acrt_uninitialize_ptd   10087680 f   libucrtd:per_thread_data.obj
 0001:000866b0       ___threadhandle            100876b0 f   libucrtd:per_thread_data.obj
 0001:000866c0       ___threadid                100876c0 f   libucrtd:per_thread_data.obj
 0001:000866e0       ??$?RU__crt_locale_data@@@__crt_internal_free_policy@@QBEXQBU__crt_locale_data@@@Z 100876e0 f i libucrtd:wsetlocale.obj
 0001:00086700       ??$?RU__crt_locale_pointers@@@__crt_internal_free_policy@@QBEXQBU__crt_locale_pointers@@@Z 10087700 f i libucrtd:wsetlocale.obj
 0001:00086720       ??$?RU__crt_multibyte_data@@@__crt_internal_free_policy@@QBEXQBU__crt_multibyte_data@@@Z 10087720 f i libucrtd:wsetlocale.obj
 0001:00086e00       ??0?$__crt_unique_heap_ptr@U__crt_locale_data@@U__crt_internal_free_policy@@@@QAE@QAU__crt_locale_data@@@Z 10087e00 f i libucrtd:wsetlocale.obj
 0001:00086e20       ??0?$__crt_unique_heap_ptr@U__crt_locale_pointers@@U__crt_internal_free_policy@@@@QAE@QAU__crt_locale_pointers@@@Z 10087e20 f i libucrtd:wsetlocale.obj
 0001:00086e40       ??0?$__crt_unique_heap_ptr@U__crt_multibyte_data@@U__crt_internal_free_policy@@@@QAE@QAU__crt_multibyte_data@@@Z 10087e40 f i libucrtd:wsetlocale.obj
 0001:00086e60       ??0_expandlocale_locale_name_cache@@QAE@QA_WIQAU__crt_qualified_locale_data@@@Z 10087e60 f i libucrtd:wsetlocale.obj
 0001:00086ed0       ??1?$__crt_unique_heap_ptr@U__crt_locale_data@@U__crt_internal_free_policy@@@@QAE@XZ 10087ed0 f i libucrtd:wsetlocale.obj
 0001:00086ef0       ??1?$__crt_unique_heap_ptr@U__crt_locale_pointers@@U__crt_internal_free_policy@@@@QAE@XZ 10087ef0 f i libucrtd:wsetlocale.obj
 0001:00086f10       ??1?$__crt_unique_heap_ptr@U__crt_multibyte_data@@U__crt_internal_free_policy@@@@QAE@XZ 10087f10 f i libucrtd:wsetlocale.obj
 0001:00086f30       ??1_expandlocale_locale_name_cache@@QAE@XZ 10087f30 f i libucrtd:wsetlocale.obj
 0001:00086f90       ??B?$__crt_unique_heap_ptr@U__crt_locale_data@@U__crt_internal_free_policy@@@@QBE_NXZ 10087f90 f i libucrtd:wsetlocale.obj
 0001:00086fb0       ??B?$__crt_unique_heap_ptr@U__crt_locale_pointers@@U__crt_internal_free_policy@@@@QBE_NXZ 10087fb0 f i libucrtd:wsetlocale.obj
 0001:00086fd0       ??B?$__crt_unique_heap_ptr@U__crt_multibyte_data@@U__crt_internal_free_policy@@@@QBE_NXZ 10087fd0 f i libucrtd:wsetlocale.obj
 0001:000873c0       ?commit_locale_name@_expandlocale_locale_name_cache@@QAEXQB_WI@Z 100883c0 f i libucrtd:wsetlocale.obj
 0001:00087420       ?commit_locale_name_cache_already_updated@_expandlocale_locale_name_cache@@QAEXQB_WI@Z 10088420 f i libucrtd:wsetlocale.obj
 0001:00087480       ?detach@?$__crt_unique_heap_ptr@U__crt_locale_data@@U__crt_internal_free_policy@@@@QAEPAU__crt_locale_data@@XZ 10088480 f i libucrtd:wsetlocale.obj
 0001:000874b0       ?detach@?$__crt_unique_heap_ptr@U__crt_locale_pointers@@U__crt_internal_free_policy@@@@QAEPAU__crt_locale_pointers@@XZ 100884b0 f i libucrtd:wsetlocale.obj
 0001:000874e0       ?detach@?$__crt_unique_heap_ptr@U__crt_multibyte_data@@U__crt_internal_free_policy@@@@QAEPAU__crt_multibyte_data@@XZ 100884e0 f i libucrtd:wsetlocale.obj
 0001:00087510       ?get@?$__crt_unique_heap_ptr@U__crt_locale_data@@U__crt_internal_free_policy@@@@QBEPAU__crt_locale_data@@XZ 10088510 f i libucrtd:wsetlocale.obj
 0001:00087530       ?get@?$__crt_unique_heap_ptr@U__crt_locale_pointers@@U__crt_internal_free_policy@@@@QBEPAU__crt_locale_pointers@@XZ 10088530 f i libucrtd:wsetlocale.obj
 0001:00087550       ?get@?$__crt_unique_heap_ptr@U__crt_multibyte_data@@U__crt_internal_free_policy@@@@QBEPAU__crt_multibyte_data@@XZ 10088550 f i libucrtd:wsetlocale.obj
 0001:00087570       ?is_valid@?$__crt_unique_heap_ptr@U__crt_locale_data@@U__crt_internal_free_policy@@@@QBE_NXZ 10088570 f i libucrtd:wsetlocale.obj
 0001:000875a0       ?is_valid@?$__crt_unique_heap_ptr@U__crt_locale_pointers@@U__crt_internal_free_policy@@@@QBE_NXZ 100885a0 f i libucrtd:wsetlocale.obj
 0001:000875d0       ?is_valid@?$__crt_unique_heap_ptr@U__crt_multibyte_data@@U__crt_internal_free_policy@@@@QBE_NXZ 100885d0 f i libucrtd:wsetlocale.obj
 0001:00087600       ?release@?$__crt_unique_heap_ptr@U__crt_locale_data@@U__crt_internal_free_policy@@@@QAEXXZ 10088600 f i libucrtd:wsetlocale.obj
 0001:00087630       ?release@?$__crt_unique_heap_ptr@U__crt_locale_pointers@@U__crt_internal_free_policy@@@@QAEXXZ 10088630 f i libucrtd:wsetlocale.obj
 0001:00087660       ?release@?$__crt_unique_heap_ptr@U__crt_multibyte_data@@U__crt_internal_free_policy@@@@QAEXXZ 10088660 f i libucrtd:wsetlocale.obj
 0001:00087690       ___acrt_copy_locale_name   10088690 f   libucrtd:wsetlocale.obj
 0001:00087730       ___acrt_set_locale_changed 10088730 f   libucrtd:wsetlocale.obj
 0001:00087750       ___acrt_uninitialize_locale 10088750 f   libucrtd:wsetlocale.obj
 0001:00087770       ___ascii_tolower           10088770 f i libucrtd:wsetlocale.obj
 0001:00087790       ___ascii_towlower          10088790 f i libucrtd:wsetlocale.obj
 0001:000877b0       ___lc_lctowcs              100887b0 f   libucrtd:wsetlocale.obj
 0001:00087860       ___lc_wcstolc              10088860 f   libucrtd:wsetlocale.obj
 0001:00087a90       __configthreadlocale       10088a90 f   libucrtd:wsetlocale.obj
 0001:00087c10       __create_locale            10088c10 f   libucrtd:wsetlocale.obj
 0001:00088250       __free_locale              10089250 f   libucrtd:wsetlocale.obj
 0001:00088380       __get_current_locale       10089380 f   libucrtd:wsetlocale.obj
 0001:00088460       __wcreate_locale           10089460 f   libucrtd:wsetlocale.obj
 0001:000886b0       __wcscats                  100896b0 f   libucrtd:wsetlocale.obj
 0001:00088730       __wsetlocale               10089730 f   libucrtd:wsetlocale.obj
 0001:00089e40       ___p___mb_cur_max          1008ae40 f   libucrtd:nlsdata.obj
 0001:0008a140       ___acrt_initialize_lowio   1008b140 f   libucrtd:ioinit.obj
 0001:0008a1e0       ___acrt_uninitialize_lowio 1008b1e0 f   libucrtd:ioinit.obj
 0001:0008a240       __CrtGetReportHook         1008b240 f   libucrtd:dbgrptt.obj
 0001:0008a250       __CrtSetReportFile         1008b250 f   libucrtd:dbgrptt.obj
 0001:0008a350       __CrtSetReportHook         1008b350 f   libucrtd:dbgrptt.obj
 0001:0008a370       __CrtSetReportMode         1008b370 f   libucrtd:dbgrptt.obj
 0001:0008a4b0       __VCrtDbgReportA           1008b4b0 f   libucrtd:dbgrptt.obj
 0001:0008ad80       __VCrtDbgReportW           1008bd80 f   libucrtd:dbgrptt.obj
 0001:0008b7a0       __snprintf_s               1008c7a0 f i libucrtd:dbgrptt.obj
 0001:0008b7e0       __vsnprintf_s              1008c7e0 f i libucrtd:dbgrptt.obj
 0001:0008b810       __vsnprintf_s_l            1008c810 f i libucrtd:dbgrptt.obj
 0001:0008b870       ??$__acrt_convert_wcs_mbs_cp@_WDV<lambda_0fec1a7b3f42a53036604e18c2d5e07e>@@U__crt_win32_buffer_no_resizing@@@@YAHQB_WAAV?$__crt_win32_buffer@DU__crt_win32_buffer_no_resizing@@@@ABV<lambda_0fec1a7b3f42a53036604e18c2d5e07e>@@I@Z 1008c870 f i libucrtd:getmodulefilenamea.obj
 0001:0008b9b0       ??$__acrt_wcs_to_mbs_cp@U__crt_win32_buffer_no_resizing@@@@YAHQB_WAAV?$__crt_win32_buffer@DU__crt_win32_buffer_no_resizing@@@@I@Z 1008c9b0 f i libucrtd:getmodulefilenamea.obj
 0001:0008b9e0       ??0?$__crt_win32_buffer@DU__crt_win32_buffer_no_resizing@@@@QAE@QADI@Z 1008c9e0 f i libucrtd:getmodulefilenamea.obj
 0001:0008ba30       ??1?$__crt_win32_buffer@DU__crt_win32_buffer_no_resizing@@@@QAE@XZ 1008ca30 f i libucrtd:getmodulefilenamea.obj
 0001:0008ba80       ??R<lambda_0fec1a7b3f42a53036604e18c2d5e07e>@@QBEHIQB_WQADI@Z 1008ca80 f i libucrtd:getmodulefilenamea.obj
 0001:0008bab0       ?__acrt_get_utf8_acp_compatibility_codepage@@YAIXZ 1008cab0 f i libucrtd:getmodulefilenamea.obj
 0001:0008bb40       ?_deallocate@?$__crt_win32_buffer@DU__crt_win32_buffer_no_resizing@@@@AAEXXZ 1008cb40 f i libucrtd:getmodulefilenamea.obj
 0001:0008bb90       ?allocate@?$__crt_win32_buffer@DU__crt_win32_buffer_no_resizing@@@@QAEHI@Z 1008cb90 f i libucrtd:getmodulefilenamea.obj
 0001:0008bc00       ?allocate@__crt_win32_buffer_no_resizing@@SAHQAPAXIABV__crt_win32_buffer_empty_debug_info@@@Z 1008cc00 f i libucrtd:getmodulefilenamea.obj
 0001:0008bc20       ?capacity@?$__crt_win32_buffer@DU__crt_win32_buffer_no_resizing@@@@QBEIXZ 1008cc20 f i libucrtd:getmodulefilenamea.obj
 0001:0008bc40       ?data@?$__crt_win32_buffer@DU__crt_win32_buffer_no_resizing@@@@QAEPADXZ 1008cc40 f i libucrtd:getmodulefilenamea.obj
 0001:0008bc60       ?deallocate@__crt_win32_buffer_no_resizing@@SAXQAXABV__crt_win32_buffer_empty_debug_info@@@Z 1008cc60 f i libucrtd:getmodulefilenamea.obj
 0001:0008bc70       ?debug_info@?$__crt_win32_buffer@DU__crt_win32_buffer_no_resizing@@@@QBEABV__crt_win32_buffer_empty_debug_info@@XZ 1008cc70 f i libucrtd:getmodulefilenamea.obj
 0001:0008bc80       ?set_to_nullptr@?$__crt_win32_buffer@DU__crt_win32_buffer_no_resizing@@@@QAEXXZ 1008cc80 f i libucrtd:getmodulefilenamea.obj
 0001:0008bcc0       ?size@?$__crt_win32_buffer@DU__crt_win32_buffer_no_resizing@@@@QAEXI@Z 1008ccc0 f i libucrtd:getmodulefilenamea.obj
 0001:0008bce0       ?size@?$__crt_win32_buffer@DU__crt_win32_buffer_no_resizing@@@@QBEIXZ 1008cce0 f i libucrtd:getmodulefilenamea.obj
 0001:0008bd00       ___acrt_GetModuleFileNameA 1008cd00 f   libucrtd:getmodulefilenamea.obj
 0001:0008bfe0       ??$message_box@$$TABQBDABQBDK@?$__crt_char_traits@D@@SAH$$QA$$TABQBD1$$QAK@Z 1008cfe0 f i libucrtd:crtmbox.obj
 0001:0008c010       ??$message_box@$$TABQB_WABQB_WK@?$__crt_char_traits@_W@@SAH$$QA$$TABQB_W1$$QAK@Z 1008d010 f i libucrtd:crtmbox.obj
 0001:0008c040       ??$message_box@PAUHWND__@@ABQBDABQBDABI@?$__crt_char_traits@D@@SAH$$QAPAUHWND__@@ABQBD1ABI@Z 1008d040 f i libucrtd:crtmbox.obj
 0001:0008c070       ??$message_box@PAUHWND__@@ABQB_WABQB_WABI@?$__crt_char_traits@_W@@SAH$$QAPAUHWND__@@ABQB_W1ABI@Z 1008d070 f i libucrtd:crtmbox.obj
 0001:0008c0a0       ??$output_debug_string@ABQBD@?$__crt_char_traits@D@@SAXABQBD@Z 1008d0a0 f i libucrtd:crtmbox.obj
