 OPOSScale

 Timestamp is 5ed459c2 (Mon Jun  1 10:28:34 2020)

 Preferred load address is 10000000

 Start         Length     Name                   Class
 0001:00000000 00000d90H .text$di                CODE
 0001:00000d90 000aa810H .text$mn                CODE
 0001:000ab5a0 000001c0H .text$x                 CODE
 0001:000ab760 00000120H .text$yd                CODE
 0002:00000000 00000358H .idata$5                DATA
 0002:00000358 00000008H .00cfg                  DATA
 0002:00000360 00000004H .CRT$XCA                DATA
 0002:00000364 00000004H .CRT$XCL                DATA
 0002:00000368 0000006cH .CRT$XCU                DATA
 0002:000003d4 00000004H .CRT$XCZ                DATA
 0002:000003d8 00000004H .CRT$XIA                DATA
 0002:000003dc 00000014H .CRT$XIC                DATA
 0002:000003f0 00000004H .CRT$XIZ                DATA
 0002:000003f4 00000004H .CRT$XLA                DATA
 0002:000003f8 00000004H .CRT$XLZ                DATA
 0002:000003fc 00000004H .CRT$XPA                DATA
 0002:00000400 00000008H .CRT$XPX                DATA
 0002:00000408 00000004H .CRT$XPXA               DATA
 0002:0000040c 00000004H .CRT$XPZ                DATA
 0002:00000410 00000004H .CRT$XTA                DATA
 0002:00000414 0000000cH .CRT$XTZ                DATA
 0002:00000418 00000000H .gfids$y                DATA
 0002:00000420 00030418H .rdata                  DATA
 0002:00030838 00000018H .rdata$T                DATA
 0002:00030850 0000033cH .rdata$r                DATA
 0002:00030b8c 00000044H .rdata$sxdata           DATA
 0002:00030bd0 00000400H .rdata$zzzdbg           DATA
 0002:00030fd0 00000004H .rtc$IAA                DATA
 0002:00030fd4 00000018H .rtc$IMZ                DATA
 0002:00030fec 00000004H .rtc$IZZ                DATA
 0002:00030ff0 00000004H .rtc$TAA                DATA
 0002:00030ff4 00000018H .rtc$TMZ                DATA
 0002:0003100c 00000004H .rtc$TZZ                DATA
 0002:00031010 00000004H .tls                    DATA
 0002:00031014 00000004H .tls$                   DATA
 0002:00031018 00000008H .tls$ZZZ                DATA
 0002:00031020 00000e4cH .xdata$x                DATA
 0002:00031e6c 00000004H ATL$__a                 DATA
 0002:00031e70 00000010H ATL$__z                 DATA
 0002:00031e80 000000a8H .edata                  DATA
 0002:00031f28 00000078H .idata$2                DATA
 0002:00031fa0 00000014H .idata$3                DATA
 0002:00031fb4 00000358H .idata$4                DATA
 0002:0003230c 00000d56H .idata$6                DATA
 0003:00000000 00000be0H .data                   DATA
 0003:00000be0 00000138H .data$r                 DATA
 0003:00000d18 000035c0H .bss                    DATA
 0004:00000000 00000220H .rsrc$01                DATA
 0004:00000220 000050c0H .rsrc$02                DATA

  Address         Publics by Value              Rva+Base       Lib:Object

 0000:00000000       ___AbsoluteZero            00000000     <absolute>
 0000:00000000       ___guard_fids_count        00000000     <absolute>
 0000:00000000       ___guard_longjmp_count     00000000     <absolute>
 0000:00000000       ___x64_code_ranges_to_entry_points 00000000     <absolute>
 0000:00000000       ___dynamic_value_reloc_table 00000000     <absolute>
 0000:00000000       ___guard_longjmp_table     00000000     <absolute>
 0000:00000000       ___enclave_config          00000000     <absolute>
 0000:00000000       ___arm64x_redirection_metadata 00000000     <absolute>
 0000:00000000       __except_list              00000000     <absolute>
 0000:00000000       ___hybrid_code_map         00000000     <absolute>
 0000:00000000       ___guard_iat_count         00000000     <absolute>
 0000:00000000       ___hybrid_auxiliary_iat    00000000     <absolute>
 0000:00000000       ___guard_fids_table        00000000     <absolute>
 0000:00000000       ___hybrid_code_map_count   00000000     <absolute>
 0000:00000000       ___volatile_metadata       00000000     <absolute>
 0000:00000000       ___arm64x_native_entrypoint 00000000     <absolute>
 0000:00000000       ___guard_eh_cont_table     00000000     <absolute>
 0000:00000000       ___guard_eh_cont_count     00000000     <absolute>
 0000:00000000       ___guard_iat_table         00000000     <absolute>
 0000:00000011       ___safe_se_handler_count   00000011     <absolute>
 0000:0000002c       __tls_array                0000002c     <absolute>
 0000:00000100       ___guard_flags             00000100     <absolute>
 0000:00000000       ___ImageBase               10000000     <linker-defined>
 0001:00000d90       ?_assert@@YAXPB_W0I@Z      10001d90 f   Assert.obj
 0001:00000ec0       ___local_stdio_printf_options 10001ec0 f i Assert.obj
 0001:00000ed0       ___vswprintf_l             10001ed0 f i Assert.obj
 0001:00000f00       __swprintf                 10001f00 f i Assert.obj
 0001:00000f60       __vswprintf_c_l            10001f60 f i Assert.obj
 0001:00000fd0       __vswprintf_l              10001fd0 f i Assert.obj
 0001:00001000       ?cw_memcpy@@YGHPADPB_WH@Z  10002000 f   CWString.obj
 0001:00001060       ?cw_memcpy@@YGHPA_WPBDH@Z  10002060 f   CWString.obj
 0001:000010c0       ?cw_memcpy@@YGHPADPBDH@Z   100020c0 f   CWString.obj
 0001:00001110       ?cw_memcpy@@YGHPA_WPB_WH@Z 10002110 f   CWString.obj
 0001:00001150       ?cw_memset@@YAXPADDH@Z     10002150 f   CWString.obj
 0001:00001170       ?cw_memset@@YAXPA_W_WH@Z   10002170 f   CWString.obj
 0001:00001190       ?cw_strlen@@YAHPBD@Z       10002190 f   CWString.obj
 0001:000011e0       ?cw_strlen@@YAHPB_W@Z      100021e0 f   CWString.obj
 0001:00001230       ?cw_strcpy@@YAHPADPB_W@Z   10002230 f   CWString.obj
 0001:00001250       ?cw_strcpy@@YAHPA_WPBD@Z   10002250 f   CWString.obj
 0001:00001270       ?cw_strcpy@@YAHPADPBD@Z    10002270 f   CWString.obj
 0001:00001290       ?cw_strcpy@@YAHPA_WPB_W@Z  10002290 f   CWString.obj
 0001:000012b0       ?cw_strcat@@YAHPADPB_W@Z   100022b0 f   CWString.obj
 0001:000012e0       ?cw_strcat@@YAHPA_WPBD@Z   100022e0 f   CWString.obj
 0001:00001310       ?cw_strcat@@YAHPADPBD@Z    10002310 f   CWString.obj
 0001:00001340       ?cw_strcat@@YAHPA_WPB_W@Z  10002340 f   CWString.obj
 0001:00001370       ?cw_dup@@YGXPBDAAHAAPA_W1@Z 10002370 f   CWString.obj
 0001:00001430       ?cw_dup@@YGXPB_WAAHAAPAD1@Z 10002430 f   CWString.obj
 0001:000014e0       ?DupChar@_CW@@AAEXXZ       100024e0 f   CWString.obj
 0001:00001530       ?DupWide@_CW@@AAEXXZ       10002530 f   CWString.obj
 0001:00001580       ?GetCharsMbcs@_CW@@QAEHXZ  10002580 f   CWString.obj
 0001:000015e0       ?GetCharsWide@_CW@@QAEHXZ  100025e0 f   CWString.obj
 0001:00001640       ?SetVARIANT_BOOL@OposVariant@@QAEXF@Z 10002640 f   OposVariant.obj
 0001:000016a0       ?SetVARIANT_BOOL_Ptr@OposVariant@@QAEXPAFAAJ@Z 100026a0 f   OposVariant.obj
 0001:000016f0       ?GetLONG@OposVariant@@QAEJXZ 100026f0 f   OposVariant.obj
 0001:00001780       ?ChangeLONG@OposVariant@@QAEXPAJAAJ@Z 10002780 f   OposVariant.obj
 0001:00001840       ?SetLONG@OposVariant@@QAEXJ@Z 10002840 f   OposVariant.obj
 0001:00001880       ?SetLONG_Ptr@OposVariant@@QAEXPAJAAJ@Z 10002880 f   OposVariant.obj
 0001:000018d0       ?ChangeCURRENCY@OposVariant@@QAEXPATtagCY@@AAJ@Z 100028d0 f   OposVariant.obj
 0001:00001990       ?SetCURRENCY@OposVariant@@QAEXTtagCY@@@Z 10002990 f   OposVariant.obj
 0001:000019d0       ?SetCURRENCY_Ptr@OposVariant@@QAEXPATtagCY@@AAJ@Z 100029d0 f   OposVariant.obj
 0001:00001a20       ?ChangeBSTR@OposVariant@@QAEXPAPA_WAAJ@Z 10002a20 f   OposVariant.obj
 0001:00001ae0       ?SetBSTR@OposVariant@@QAEXPA_WAAJ@Z 10002ae0 f   OposVariant.obj
 0001:00001b30       ?SetBSTR_Copy@OposVariant@@QAEXPA_WAAJ@Z 10002b30 f   OposVariant.obj
 0001:00001bd0       ?SetBSTR_OutPtr@OposVariant@@QAE_NPAPA_WAAJ@Z 10002bd0 f   OposVariant.obj
 0001:00001c20       ?SetBSTR_InOutPtr@OposVariant@@QAE_NPAPA_WAAJ@Z 10002c20 f   OposVariant.obj
 0001:00001c70       ?SetVARIANT@OposVariant@@QAEXAAUtagVARIANT@@GAAJ@Z 10002c70 f   OposVariant.obj
 0001:00001cf0       ?SetVARIANT_Ptr@OposVariant@@QAEXAAPAUtagVARIANT@@GAAJ@Z 10002cf0 f   OposVariant.obj
 0001:00001d90       ?SetString@OposVariant@@QAEXPB_WAAJ@Z 10002d90 f   OposVariant.obj
 0001:00001e20       ?SetDispatch_Ptr@OposVariant@@QAEXPAUIDispatch@@AAJ@Z 10002e20 f   OposVariant.obj
 0001:00001e90       ??0OposDispParms@@QAE@PAVOposVariant@@H@Z 10002e90 f   OposVariant.obj
 0001:00001f60       ??1OposDispParms@@QAE@XZ   10002f60 f   OposVariant.obj
 0001:00001fb0       ??$AtlMultiply@I@ATL@@YAJPAIII@Z 10002fb0 f i OposVariant.obj
 0001:00002010       ??0?$CHeapPtr@_WVCCRTAllocator@ATL@@@ATL@@QAE@XZ 10003010 f i OposVariant.obj
 0001:00002040       ??0?$CHeapPtrBase@_WVCCRTAllocator@ATL@@@ATL@@IAE@XZ 10003040 f i OposVariant.obj
 0001:00002060       ??0?$CSimpleArray@GV?$CSimpleArrayEqualHelper@G@ATL@@@ATL@@QAE@XZ 10003060 f i OposVariant.obj
 0001:000020a0       ??0?$CTraceCategoryEx@$00$0A@@ATL@@QAE@PB_W@Z 100030a0 f i OposVariant.obj
 0001:000020d0       ??0?$CTraceCategoryEx@$01$0A@@ATL@@QAE@PB_W@Z 100030d0 f i OposVariant.obj
 0001:00002100       ??0?$CTraceCategoryEx@$03$0A@@ATL@@QAE@PB_W@Z 10003100 f i OposVariant.obj
 0001:00002130       ??0?$CTraceCategoryEx@$07$0A@@ATL@@QAE@PB_W@Z 10003130 f i OposVariant.obj
 0001:00002160       ??0?$CTraceCategoryEx@$0BA@$0A@@ATL@@QAE@PB_W@Z 10003160 f i OposVariant.obj
 0001:00002190       ??0?$CTraceCategoryEx@$0BAA@$0A@@ATL@@QAE@PB_W@Z 10003190 f i OposVariant.obj
 0001:000021d0       ??0?$CTraceCategoryEx@$0BAAA@$0A@@ATL@@QAE@PB_W@Z 100031d0 f i OposVariant.obj
 0001:00002210       ??0?$CTraceCategoryEx@$0BAAAA@$0A@@ATL@@QAE@PB_W@Z 10003210 f i OposVariant.obj
 0001:00002250       ??0?$CTraceCategoryEx@$0BAAAAA@$0A@@ATL@@QAE@PB_W@Z 10003250 f i OposVariant.obj
 0001:00002290       ??0?$CTraceCategoryEx@$0CA@$0A@@ATL@@QAE@PB_W@Z 10003290 f i OposVariant.obj
 0001:000022c0       ??0?$CTraceCategoryEx@$0CAA@$0A@@ATL@@QAE@PB_W@Z 100032c0 f i OposVariant.obj
 0001:00002300       ??0?$CTraceCategoryEx@$0CAAA@$0A@@ATL@@QAE@PB_W@Z 10003300 f i OposVariant.obj
 0001:00002340       ??0?$CTraceCategoryEx@$0CAAAA@$0A@@ATL@@QAE@PB_W@Z 10003340 f i OposVariant.obj
 0001:00002380       ??0?$CTraceCategoryEx@$0CAAAAA@$0A@@ATL@@QAE@PB_W@Z 10003380 f i OposVariant.obj
 0001:000023c0       ??0?$CTraceCategoryEx@$0EA@$0A@@ATL@@QAE@PB_W@Z 100033c0 f i OposVariant.obj
 0001:000023f0       ??0?$CTraceCategoryEx@$0EAA@$0A@@ATL@@QAE@PB_W@Z 100033f0 f i OposVariant.obj
 0001:00002430       ??0?$CTraceCategoryEx@$0EAAA@$0A@@ATL@@QAE@PB_W@Z 10003430 f i OposVariant.obj
 0001:00002470       ??0?$CTraceCategoryEx@$0EAAAA@$0A@@ATL@@QAE@PB_W@Z 10003470 f i OposVariant.obj
 0001:000024b0       ??0?$CTraceCategoryEx@$0EAAAAA@$0A@@ATL@@QAE@PB_W@Z 100034b0 f i OposVariant.obj
 0001:000024f0       ??0?$CTraceCategoryEx@$0IA@$0A@@ATL@@QAE@PB_W@Z 100034f0 f i OposVariant.obj
 0001:00002530       ??0?$CTraceCategoryEx@$0IAA@$0A@@ATL@@QAE@PB_W@Z 10003530 f i OposVariant.obj
 0001:00002570       ??0?$CTraceCategoryEx@$0IAAA@$0A@@ATL@@QAE@PB_W@Z 10003570 f i OposVariant.obj
 0001:000025b0       ??0?$CTraceCategoryEx@$0IAAAA@$0A@@ATL@@QAE@PB_W@Z 100035b0 f i OposVariant.obj
 0001:000025f0       ??0CAtlComModule@ATL@@QAE@XZ 100035f0 f i OposVariant.obj
 0001:000026d0       ??0CAtlWinModule@ATL@@QAE@XZ 100036d0 f i OposVariant.obj
 0001:00002760       ??0CComCriticalSection@ATL@@QAE@XZ 10003760 f i OposVariant.obj
 0001:00002790       ??0CPreserveLastError@ATL@@QAE@XZ 10003790 f i OposVariant.obj
 0001:000027d0       ??0CTraceFileAndLineInfo@ATL@@QAE@PBDH@Z 100037d0 f i OposVariant.obj
 0001:00002800       ??0_ATL_COM_MODULE70@ATL@@QAE@XZ 10003800 f i OposVariant.obj
 0001:00002830       ??0_ATL_WIN_MODULE70@ATL@@QAE@XZ 10003830 f i OposVariant.obj
 0001:00002870       ??1?$CHeapPtr@_WVCCRTAllocator@ATL@@@ATL@@QAE@XZ 10003870 f i OposVariant.obj
 0001:000028a0       ??1?$CHeapPtrBase@_WVCCRTAllocator@ATL@@@ATL@@QAE@XZ 100038a0 f i OposVariant.obj
 0001:000028d0       ??1?$CSimpleArray@GV?$CSimpleArrayEqualHelper@G@ATL@@@ATL@@QAE@XZ 100038d0 f i OposVariant.obj
 0001:00002900       ??1CAtlComModule@ATL@@QAE@XZ 10003900 f i OposVariant.obj
 0001:00002930       ??1CAtlWinModule@ATL@@QAE@XZ 10003930 f i OposVariant.obj
 0001:00002960       ??1CComBSTR@ATL@@QAE@XZ    10003960 f i OposVariant.obj
 0001:000029a0       ??1CComCriticalSection@ATL@@QAE@XZ 100039a0 f i OposVariant.obj
 0001:000029c0       ??1CPreserveLastError@ATL@@QAE@XZ 100039c0 f i OposVariant.obj
 0001:00002a00       ??1_ATL_COM_MODULE70@ATL@@QAE@XZ 10003a00 f i OposVariant.obj
 0001:00002a30       ??1_ATL_WIN_MODULE70@ATL@@QAE@XZ 10003a30 f i OposVariant.obj
 0001:00002a70       ??1stringdispid@CComTypeInfoHolder@ATL@@QAE@XZ 10003a70 f i OposVariant.obj
 0001:00002aa0       ??A?$CSimpleArray@GV?$CSimpleArrayEqualHelper@G@ATL@@@ATL@@QAEAAGH@Z 10003aa0 f i OposVariant.obj
 0001:00002b20       ??B?$CHeapPtrBase@_WVCCRTAllocator@ATL@@@ATL@@QBEPA_WXZ 10003b20 f i OposVariant.obj
 0001:00002b40       ??B?$CTraceCategoryEx@$01$0A@@ATL@@QAEIXZ 10003b40 f i OposVariant.obj
 0001:00002b60       ??B?$CTraceCategoryEx@$0CA@$0A@@ATL@@QAEIXZ 10003b60 f i OposVariant.obj
 0001:00002b80       ??RCTraceFileAndLineInfo@ATL@@QBAXHIPB_WZZ 10003b80 f i OposVariant.obj
 0001:00002c20       ??_Estringdispid@CComTypeInfoHolder@ATL@@QAEPAXI@Z 10003c20 f i OposVariant.obj
 0001:00002cb0       ??_H@YGXPAXIIP6EPAX0@Z@Z   10003cb0 f i OposVariant.obj
 0001:00002d20       ??_I@YGXPAXIIP6EX0@Z@Z     10003d20 f i OposVariant.obj
 0001:00002da0       ?Allocate@?$CHeapPtr@_WVCCRTAllocator@ATL@@@ATL@@QAE_NI@Z 10003da0 f i OposVariant.obj
 0001:00002e30       ?Allocate@CCRTAllocator@ATL@@SAPAXI@Z 10003e30 f i OposVariant.obj
 0001:00002e50       ?AllocateBytes@?$CHeapPtrBase@_WVCCRTAllocator@ATL@@@ATL@@QAE_NI@Z 10003e50 f i OposVariant.obj
 0001:00002ec0       ?AtlWinModuleInit@ATL@@YGJPAU_ATL_WIN_MODULE70@1@@Z 10003ec0 f i OposVariant.obj
 0001:00002f90       ?AtlWinModuleTerm@ATL@@YGJPAU_ATL_WIN_MODULE70@1@PAUHINSTANCE__@@@Z 10003f90 f i OposVariant.obj
 0001:00003050       ?Clear@OposVariant@@QAEJXZ 10004050 f i OposVariant.obj
 0001:00003090       ?Free@?$CHeapPtrBase@_WVCCRTAllocator@ATL@@@ATL@@QAEXXZ 10004090 f i OposVariant.obj
 0001:000030d0       ?Free@CCRTAllocator@ATL@@SAXPAX@Z 100040d0 f i OposVariant.obj
 0001:000030f0       ?GetCategoryName@CTrace@ATL@@CAPA_WI@Z 100040f0 f i OposVariant.obj
 0001:00003140       ?GetModuleInstance@CAtlBaseModule@ATL@@QAEPAUHINSTANCE__@@XZ 10004140 f i OposVariant.obj
 0001:00003160       ?GetSize@?$CSimpleArray@GV?$CSimpleArrayEqualHelper@G@ATL@@@ATL@@QBEHXZ 10004160 f i OposVariant.obj
 0001:00003180       ?Init@CComCriticalSection@ATL@@QAEJXZ 10004180 f i OposVariant.obj
 0001:000031e0       ?RegisterCategory@CTrace@ATL@@SAXPB_WI@Z 100041e0 f i OposVariant.obj
 0001:00003270       ?RemoveAll@?$CSimpleArray@GV?$CSimpleArrayEqualHelper@G@ATL@@@ATL@@QAEXXZ 10004270 f i OposVariant.obj
 0001:000032f0       ?Term@CAtlComModule@ATL@@QAEXXZ 100042f0 f i OposVariant.obj
 0001:000033b0       ?Term@CAtlWinModule@ATL@@QAEXXZ 100043b0 f i OposVariant.obj
 0001:000033e0       ?Term@CComCriticalSection@ATL@@QAEJXZ 100043e0 f i OposVariant.obj
 0001:00003420       ?TraceV@CTrace@ATL@@CAXPBDHIIPB_W@Z 10004420 f i OposVariant.obj
 0001:000036a0       ?TraceV@CTrace@ATL@@SAXPBDHIIPB_WPAD@Z 100046a0 f i OposVariant.obj
 0001:000037e0       ?_AtlInitializeCriticalSectionEx@ATL@@YAHPAU_RTL_CRITICAL_SECTION@@KK@Z 100047e0 f i OposVariant.obj
 0001:00003810       ?_AtlRaiseException@ATL@@YAXKK@Z 10004810 f i OposVariant.obj
 0001:00003840       _HRESULT_FROM_WIN32        10004840 f i OposVariant.obj
 0001:00003880       __vswprintf_s_l            10004880 f i OposVariant.obj
 0001:000038f0       _swprintf_s                100048f0 f i OposVariant.obj
 0001:00003950       ?ObjectMain@CComObjectRootBase@ATL@@SGX_N@Z 10004950 f i Scale.obj
 0001:00003960       ?GetCategoryMap@CComObjectRootBase@ATL@@SAPBU_ATL_CATMAP_ENTRY@2@XZ 10004960 f i Scale.obj
 0001:00003970       ?GetObjectDescription@?$CComCoClass@VCOPOSScale@@$1?CLSID_OPOSScale@@3U_GUID@@B@ATL@@SGPB_WXZ 10004970 f i Scale.obj
 0001:00003980       ?UpdateRegistry@COPOSScale@@SGJH@Z 10004980 f i Scale.obj
 0001:000039a0       ?CreateInstance@?$CComCreator@V?$CComObjectCached@VCComClassFactory@ATL@@@ATL@@@ATL@@SGJPAXABU_GUID@@PAPAX@Z 100049a0 f i Scale.obj
 0001:00003b20       ?CreateInstance@?$CComCreator2@V?$CComCreator@V?$CComObject@VCOPOSScale@@@ATL@@@ATL@@V?$CComCreator@V?$CComAggObject@VCOPOSScale@@@ATL@@@2@@ATL@@SGJPAXABU_GUID@@PAPAX@Z 10004b20 f i Scale.obj
 0001:00003cd0       _DllGetClassObject@12      10004cd0 f   Scale.obj
 0001:00003d00       _DllCanUnloadNow@0         10004d00 f   Scale.obj
 0001:00003d40       _DllRegisterServer@0       10004d40 f   Scale.obj
 0001:00003d60       _DllUnregisterServer@0     10004d60 f   Scale.obj
 0001:00003ef0       _DllMain@12                10004ef0 f   Scale.obj
 0001:00003f50       ??$?2G@Wrapper@?$CSimpleArray@GV?$CSimpleArrayEqualHelper@G@ATL@@@ATL@@SAPAXIPAG@Z 10004f50 f i Scale.obj
 0001:00003f60       ??$?2PA_W@?$Wrapper@PA_W@?$CSimpleMap@PA_WPA_WVCExpansionVectorEqualHelper@ATL@@@ATL@@SAPAXIPAPA_W@Z 10004f60 f i Scale.obj
 0001:00003f70       ??$?4UITypeInfo2@@@?$CComPtr@UITypeInfo@@@ATL@@QAEPAUITypeInfo@@ABV?$CComPtr@UITypeInfo2@@@1@@Z 10004f70 f i Scale.obj
 0001:00003fd0       ??$AtlAdd@K@ATL@@YAJPAKKK@Z 10004fd0 f i Scale.obj
 0001:00004010       ??$AtlAdd@_K@ATL@@YAJPA_K_K1@Z 10005010 f i Scale.obj
 0001:00004080       ??$AtlAddThrow@K@ATL@@YAKKK@Z 10005080 f i Scale.obj
 0001:00004100       ??$AtlModuleRegisterWndClassInfoT@VAtlModuleRegisterWndClassInfoParamW@ATL@@@ATL@@YAGPAU_ATL_BASE_MODULE70@0@PAU_ATL_WIN_MODULE70@0@PAU_ATL_WNDCLASSINFOW@0@PAP6GJPAUHWND__@@IIJ@ZVAtlModuleRegisterWndClassInfoParamW@0@@Z 10005100 f i Scale.obj
 0001:00004510       ??$AtlMultiply@H@ATL@@YAJPAHHH@Z 10005510 f i Scale.obj
 0001:00004590       ??$AtlMultiply@K@ATL@@YAJPAKKK@Z 10005590 f i Scale.obj
 0001:000045f0       ??$AtlMultiplyThrow@I@ATL@@YAIII@Z 100055f0 f i Scale.obj
 0001:00004670       ??$QueryInterface@UIPersistStream@@@IUnknown@@QAGJPAPAUIPersistStream@@@Z 10005670 f i Scale.obj
 0001:000046a0       ??$QueryInterface@UITypeInfo2@@@IUnknown@@QAGJPAPAUITypeInfo2@@@Z 100056a0 f i Scale.obj
 0001:000046d0       ??0?$CAtlModuleT@VCComModule@ATL@@@ATL@@QAE@XZ 100056d0 f i Scale.obj
 0001:00004700       ??0?$CAtlSafeAllocBufferManager@VCCRTAllocator@ATL@@@_ATL_SAFE_ALLOCA_IMPL@ATL@@QAE@XZ 10005700 f i Scale.obj
 0001:00004720       ??0?$CAutoVectorPtr@_W@ATL@@QAE@XZ 10005720 f i Scale.obj
 0001:00004740       ??0?$CComAggObject@VCOPOSScale@@@ATL@@QAE@PAX@Z 10005740 f i Scale.obj
 0001:000047b0       ??0?$CComContainedObject@VCOPOSScale@@@ATL@@QAE@PAX@Z 100057b0 f i Scale.obj
 0001:000048c0       ??0?$CComCritSecLock@VCComCriticalSection@ATL@@@ATL@@QAE@AAVCComCriticalSection@1@_N@Z 100058c0 f i Scale.obj
 0001:00004920       ??0?$CComEnum@UIEnumConnectionPoints@@$1?_GUID_b196b285_bab4_101a_b69c_00aa00341d07@@3U__s_GUID@@BPAUIConnectionPoint@@V?$_CopyInterface@UIConnectionPoint@@@ATL@@VCComSingleThreadModel@6@@ATL@@QAE@XZ 10005920 f i Scale.obj
 0001:00004960       ??0?$CComEnum@UIEnumConnections@@$1?_GUID_b196b287_bab4_101a_b69c_00aa00341d07@@3U__s_GUID@@BUtagCONNECTDATA@@V?$_Copy@UtagCONNECTDATA@@@ATL@@VCComSingleThreadModel@6@@ATL@@QAE@XZ 10005960 f i Scale.obj
 0001:000049a0       ??0?$CComEnumImpl@UIEnumConnectionPoints@@$1?_GUID_b196b285_bab4_101a_b69c_00aa00341d07@@3U__s_GUID@@BPAUIConnectionPoint@@V?$_CopyInterface@UIConnectionPoint@@@ATL@@@ATL@@QAE@XZ 100059a0 f i Scale.obj
 0001:00004a00       ??0?$CComEnumImpl@UIEnumConnections@@$1?_GUID_b196b287_bab4_101a_b69c_00aa00341d07@@3U__s_GUID@@BUtagCONNECTDATA@@V?$_Copy@UtagCONNECTDATA@@@ATL@@@ATL@@QAE@XZ 10005a00 f i Scale.obj
 0001:00004a60       ??0?$CComObject@V?$CComEnum@UIEnumConnectionPoints@@$1?_GUID_b196b285_bab4_101a_b69c_00aa00341d07@@3U__s_GUID@@BPAUIConnectionPoint@@V?$_CopyInterface@UIConnectionPoint@@@ATL@@VCComSingleThreadModel@6@@ATL@@@ATL@@QAE@PAX@Z 10005a60 f i Scale.obj
 0001:00004ab0       ??0?$CComObject@V?$CComEnum@UIEnumConnections@@$1?_GUID_b196b287_bab4_101a_b69c_00aa00341d07@@3U__s_GUID@@BUtagCONNECTDATA@@V?$_Copy@UtagCONNECTDATA@@@ATL@@VCComSingleThreadModel@6@@ATL@@@ATL@@QAE@PAX@Z 10005ab0 f i Scale.obj
 0001:00004b00       ??0?$CComObject@VCOPOSScale@@@ATL@@QAE@PAX@Z 10005b00 f i Scale.obj
 0001:00004c20       ??0?$CComObjectCached@VCComClassFactory@ATL@@@ATL@@QAE@PAX@Z 10005c20 f i Scale.obj
 0001:00004c60       ??0?$CComObjectRootEx@VCComMultiThreadModel@ATL@@@ATL@@QAE@XZ 10005c60 f i Scale.obj
 0001:00004ca0       ??0?$CComObjectRootEx@VCComSingleThreadModel@ATL@@@ATL@@QAE@XZ 10005ca0 f i Scale.obj
 0001:00004cd0       ??0?$CComPtr@UIAdviseSink@@@ATL@@QAE@PAUIAdviseSink@@@Z 10005cd0 f i Scale.obj
 0001:00004d00       ??0?$CComPtr@UICatRegister@@@ATL@@QAE@XZ 10005d00 f i Scale.obj
 0001:00004d30       ??0?$CComPtr@UIConnectionPoint@@@ATL@@QAE@XZ 10005d30 f i Scale.obj
 0001:00004d60       ??0?$CComPtr@UIConnectionPointContainer@@@ATL@@QAE@XZ 10005d60 f i Scale.obj
 0001:00004d90       ??0?$CComPtr@UIDataObject@@@ATL@@QAE@XZ 10005d90 f i Scale.obj
 0001:00004dc0       ??0?$CComPtr@UIDispatch@@@ATL@@QAE@XZ 10005dc0 f i Scale.obj
 0001:00004df0       ??0?$CComPtr@UIOleClientSite@@@ATL@@QAE@PAUIOleClientSite@@@Z 10005df0 f i Scale.obj
 0001:00004e20       ??0?$CComPtr@UIOleControlSite@@@ATL@@QAE@XZ 10005e20 f i Scale.obj
 0001:00004e50       ??0?$CComPtr@UIOleInPlaceActiveObject@@@ATL@@QAE@XZ 10005e50 f i Scale.obj
 0001:00004e80       ??0?$CComPtr@UIOleInPlaceFrame@@@ATL@@QAE@XZ 10005e80 f i Scale.obj
 0001:00004eb0       ??0?$CComPtr@UIOleInPlaceObject@@@ATL@@QAE@XZ 10005eb0 f i Scale.obj
 0001:00004ee0       ??0?$CComPtr@UIOleInPlaceUIWindow@@@ATL@@QAE@XZ 10005ee0 f i Scale.obj
 0001:00004f10       ??0?$CComPtr@UIOleObject@@@ATL@@QAE@XZ 10005f10 f i Scale.obj
 0001:00004f40       ??0?$CComPtr@UIPersistStream@@@ATL@@QAE@XZ 10005f40 f i Scale.obj
 0001:00004f70       ??0?$CComPtr@UIPersistStreamInit@@@ATL@@QAE@XZ 10005f70 f i Scale.obj
 0001:00004fa0       ??0?$CComPtr@UIPointerInactive@@@ATL@@QAE@XZ 10005fa0 f i Scale.obj
 0001:00004fd0       ??0?$CComPtr@UIProvideClassInfo2@@@ATL@@QAE@XZ 10005fd0 f i Scale.obj
 0001:00005000       ??0?$CComPtr@UISpecifyPropertyPages@@@ATL@@QAE@XZ 10006000 f i Scale.obj
 0001:00005030       ??0?$CComPtr@UIStream@@@ATL@@QAE@XZ 10006030 f i Scale.obj
 0001:00005060       ??0?$CComPtr@UITypeInfo2@@@ATL@@QAE@XZ 10006060 f i Scale.obj
 0001:00005090       ??0?$CComPtr@UITypeInfo@@@ATL@@QAE@ABV01@@Z 10006090 f i Scale.obj
 0001:000050c0       ??0?$CComPtr@UITypeInfo@@@ATL@@QAE@XZ 100060c0 f i Scale.obj
 0001:000050f0       ??0?$CComPtr@UITypeLib@@@ATL@@QAE@XZ 100060f0 f i Scale.obj
 0001:00005120       ??0?$CComPtr@UIUnknown@@@ATL@@QAE@ABV01@@Z 10006120 f i Scale.obj
 0001:00005150       ??0?$CComPtr@UIUnknown@@@ATL@@QAE@PAUIUnknown@@@Z 10006150 f i Scale.obj
 0001:00005180       ??0?$CComPtr@UIUnknown@@@ATL@@QAE@XZ 10006180 f i Scale.obj
 0001:000051b0       ??0?$CComPtr@UIViewObjectEx@@@ATL@@QAE@XZ 100061b0 f i Scale.obj
 0001:000051e0       ??0?$CComPtrBase@UIAdviseSink@@@ATL@@IAE@PAUIAdviseSink@@@Z 100061e0 f i Scale.obj
 0001:00005230       ??0?$CComPtrBase@UICatRegister@@@ATL@@IAE@XZ 10006230 f i Scale.obj
 0001:00005250       ??0?$CComPtrBase@UIConnectionPoint@@@ATL@@IAE@XZ 10006250 f i Scale.obj
 0001:00005270       ??0?$CComPtrBase@UIConnectionPointContainer@@@ATL@@IAE@XZ 10006270 f i Scale.obj
 0001:00005290       ??0?$CComPtrBase@UIDataObject@@@ATL@@IAE@XZ 10006290 f i Scale.obj
 0001:000052b0       ??0?$CComPtrBase@UIDispatch@@@ATL@@IAE@XZ 100062b0 f i Scale.obj
 0001:000052d0       ??0?$CComPtrBase@UIOleClientSite@@@ATL@@IAE@PAUIOleClientSite@@@Z 100062d0 f i Scale.obj
 0001:00005320       ??0?$CComPtrBase@UIOleControlSite@@@ATL@@IAE@XZ 10006320 f i Scale.obj
 0001:00005340       ??0?$CComPtrBase@UIOleInPlaceActiveObject@@@ATL@@IAE@XZ 10006340 f i Scale.obj
 0001:00005360       ??0?$CComPtrBase@UIOleInPlaceFrame@@@ATL@@IAE@XZ 10006360 f i Scale.obj
 0001:00005380       ??0?$CComPtrBase@UIOleInPlaceObject@@@ATL@@IAE@XZ 10006380 f i Scale.obj
 0001:000053a0       ??0?$CComPtrBase@UIOleInPlaceUIWindow@@@ATL@@IAE@XZ 100063a0 f i Scale.obj
 0001:000053c0       ??0?$CComPtrBase@UIOleObject@@@ATL@@IAE@XZ 100063c0 f i Scale.obj
 0001:000053e0       ??0?$CComPtrBase@UIPersistStream@@@ATL@@IAE@XZ 100063e0 f i Scale.obj
 0001:00005400       ??0?$CComPtrBase@UIPersistStreamInit@@@ATL@@IAE@XZ 10006400 f i Scale.obj
 0001:00005420       ??0?$CComPtrBase@UIPointerInactive@@@ATL@@IAE@XZ 10006420 f i Scale.obj
 0001:00005440       ??0?$CComPtrBase@UIProvideClassInfo2@@@ATL@@IAE@XZ 10006440 f i Scale.obj
 0001:00005460       ??0?$CComPtrBase@UISpecifyPropertyPages@@@ATL@@IAE@XZ 10006460 f i Scale.obj
 0001:00005480       ??0?$CComPtrBase@UIStream@@@ATL@@IAE@XZ 10006480 f i Scale.obj
 0001:000054a0       ??0?$CComPtrBase@UITypeInfo2@@@ATL@@IAE@XZ 100064a0 f i Scale.obj
 0001:000054c0       ??0?$CComPtrBase@UITypeInfo@@@ATL@@IAE@PAUITypeInfo@@@Z 100064c0 f i Scale.obj
 0001:00005510       ??0?$CComPtrBase@UITypeInfo@@@ATL@@IAE@XZ 10006510 f i Scale.obj
 0001:00005530       ??0?$CComPtrBase@UITypeLib@@@ATL@@IAE@XZ 10006530 f i Scale.obj
 0001:00005550       ??0?$CComPtrBase@UIUnknown@@@ATL@@IAE@PAUIUnknown@@@Z 10006550 f i Scale.obj
 0001:000055a0       ??0?$CComPtrBase@UIUnknown@@@ATL@@IAE@XZ 100065a0 f i Scale.obj
 0001:000055c0       ??0?$CComPtrBase@UIViewObjectEx@@@ATL@@IAE@XZ 100065c0 f i Scale.obj
 0001:000055e0       ??0?$CComQIPtr@UIOleControlSite@@$1?_GUID_b196b289_bab4_101a_b69c_00aa00341d07@@3U__s_GUID@@B@ATL@@QAE@PAUIUnknown@@@Z 100065e0 f i Scale.obj
 0001:00005640       ??0?$CComQIPtr@UIOleObject@@$1?_GUID_00000112_0000_0000_c000_000000000046@@3U__s_GUID@@B@ATL@@QAE@XZ 10006640 f i Scale.obj
 0001:00005670       ??0?$CComQIPtr@UISpecifyPropertyPages@@$1?_GUID_b196b28b_bab4_101a_b69c_00aa00341d07@@3U__s_GUID@@B@ATL@@QAE@XZ 10006670 f i Scale.obj
 0001:000056a0       ??0?$CSimpleMap@PA_WPA_WVCExpansionVectorEqualHelper@ATL@@@ATL@@QAE@XZ 100066a0 f i Scale.obj
 0001:000056e0       ??0?$CTempBuffer@E$0BAA@VCCRTAllocator@ATL@@@ATL@@QAE@XZ 100066e0 f i Scale.obj
 0001:00005700       ??0?$CTempBuffer@_W$0BAA@VCCRTAllocator@ATL@@@ATL@@QAE@XZ 10006700 f i Scale.obj
 0001:00005720       ??0?$CTempBuffer@_W$0EAA@VCCRTAllocator@ATL@@@ATL@@QAE@XZ 10006720 f i Scale.obj
 0001:00005740       ??0?$Wrapper@PA_W@?$CSimpleMap@PA_WPA_WVCExpansionVectorEqualHelper@ATL@@@ATL@@QAE@ABQA_W@Z 10006740 f i Scale.obj
 0001:00005770       ??0CAtlModule@ATL@@QAE@XZ  10006770 f i Scale.obj
 0001:00005890       ??0CComAutoDeleteCriticalSection@ATL@@QAE@XZ 10006890 f i Scale.obj
 0001:000058c0       ??0CComBSTR@ATL@@QAE@XZ    100068c0 f i Scale.obj
 0001:000058e0       ??0CComClassFactory@ATL@@QAE@XZ 100068e0 f i Scale.obj
 0001:00005920       ??0CComModule@ATL@@QAE@XZ  10006920 f i Scale.obj
 0001:00005990       ??0CComObjectRootBase@ATL@@QAE@XZ 10006990 f i Scale.obj
 0001:000059b0       ??0CComSafeDeleteCriticalSection@ATL@@QAE@XZ 100069b0 f i Scale.obj
 0001:000059e0       ??0CComVariant@ATL@@QAE@XZ 100069e0 f i Scale.obj
 0001:00005a30       ??0CExpansionVector@ATL@@QAE@XZ 10006a30 f i Scale.obj
 0001:00005a60       ??0CParseBuffer@CRegParser@ATL@@QAE@H@Z 10006a60 f i Scale.obj
 0001:00005ad0       ??0CRegKey@ATL@@QAE@PAUHKEY__@@@Z 10006ad0 f i Scale.obj
 0001:00005b10       ??0CRegKey@ATL@@QAE@PAVCAtlTransactionManager@1@@Z 10006b10 f i Scale.obj
 0001:00005b50       ??0CRegObject@ATL@@QAE@XZ  10006b50 f i Scale.obj
 0001:00005b90       ??0CRegParser@ATL@@QAE@PAVCRegObject@1@@Z 10006b90 f i Scale.obj
 0001:00005bc0       ??0IClassFactory@@QAE@XZ   10006bc0 f i Scale.obj
 0001:00005bf0       ??0IEnumConnectionPoints@@QAE@XZ 10006bf0 f i Scale.obj
 0001:00005c20       ??0IEnumConnections@@QAE@XZ 10006c20 f i Scale.obj
 0001:00005c50       ??0IRegistrarBase@@QAE@XZ  10006c50 f i Scale.obj
 0001:00005c80       ??0IUnknown@@QAE@XZ        10006c80 f i Scale.obj
 0001:00005ca0       ??0ModuleLockHelper@ATL@@QAE@XZ 10006ca0 f i Scale.obj
 0001:00005ce0       ??0OposVariant@@QAE@XZ     10006ce0 f i Scale.obj
 0001:00005d10       ??0Wrapper@?$CSimpleArray@GV?$CSimpleArrayEqualHelper@G@ATL@@@ATL@@QAE@ABG@Z 10006d10 f i Scale.obj
 0001:00005d40       ??0_ATL_MODULE70@ATL@@QAE@XZ 10006d40 f i Scale.obj
 0001:00005d70       ??0_ATL_MSG@ATL@@QAE@PAUHWND__@@IIJH@Z 10006d70 f i Scale.obj
 0001:00005de0       ??0_U_MENUorID@ATL@@QAE@I@Z 10006de0 f i Scale.obj
 0001:00005e00       ??0_U_RECT@ATL@@QAE@AAUtagRECT@@@Z 10006e00 f i Scale.obj
 0001:00005e20       ??0stringdispid@CComTypeInfoHolder@ATL@@QAE@XZ 10006e20 f i Scale.obj
 0001:00005e60       ??1?$CAtlModuleT@VCComModule@ATL@@@ATL@@UAE@XZ 10006e60 f i Scale.obj
 0001:00005e90       ??1?$CAtlSafeAllocBufferManager@VCCRTAllocator@ATL@@@_ATL_SAFE_ALLOCA_IMPL@ATL@@QAE@XZ 10006e90 f i Scale.obj
 0001:00005ee0       ??1?$CAutoVectorPtr@_W@ATL@@QAE@XZ 10006ee0 f i Scale.obj
 0001:00005f10       ??1?$CComAggObject@VCOPOSScale@@@ATL@@UAE@XZ 10006f10 f i Scale.obj
 0001:00005f80       ??1?$CComContainedObject@VCOPOSScale@@@ATL@@UAE@XZ 10006f80 f i Scale.obj
 0001:00005fb0       ??1?$CComCritSecLock@VCComCriticalSection@ATL@@@ATL@@QAE@XZ 10006fb0 f i Scale.obj
 0001:00005fe0       ??1?$CComEnum@UIEnumConnectionPoints@@$1?_GUID_b196b285_bab4_101a_b69c_00aa00341d07@@3U__s_GUID@@BPAUIConnectionPoint@@V?$_CopyInterface@UIConnectionPoint@@@ATL@@VCComSingleThreadModel@6@@ATL@@UAE@XZ 10006fe0 f i Scale.obj
 0001:00006010       ??1?$CComEnum@UIEnumConnections@@$1?_GUID_b196b287_bab4_101a_b69c_00aa00341d07@@3U__s_GUID@@BUtagCONNECTDATA@@V?$_Copy@UtagCONNECTDATA@@@ATL@@VCComSingleThreadModel@6@@ATL@@UAE@XZ 10007010 f i Scale.obj
 0001:00006040       ??1?$CComEnumImpl@UIEnumConnectionPoints@@$1?_GUID_b196b285_bab4_101a_b69c_00aa00341d07@@3U__s_GUID@@BPAUIConnectionPoint@@V?$_CopyInterface@UIConnectionPoint@@@ATL@@@ATL@@UAE@XZ 10007040 f i Scale.obj
 0001:000060d0       ??1?$CComEnumImpl@UIEnumConnections@@$1?_GUID_b196b287_bab4_101a_b69c_00aa00341d07@@3U__s_GUID@@BUtagCONNECTDATA@@V?$_Copy@UtagCONNECTDATA@@@ATL@@@ATL@@UAE@XZ 100070d0 f i Scale.obj
 0001:00006160       ??1?$CComObject@V?$CComEnum@UIEnumConnectionPoints@@$1?_GUID_b196b285_bab4_101a_b69c_00aa00341d07@@3U__s_GUID@@BPAUIConnectionPoint@@V?$_CopyInterface@UIConnectionPoint@@@ATL@@VCComSingleThreadModel@6@@ATL@@@ATL@@UAE@XZ 10007160 f i Scale.obj
 0001:000061c0       ??1?$CComObject@V?$CComEnum@UIEnumConnections@@$1?_GUID_b196b287_bab4_101a_b69c_00aa00341d07@@3U__s_GUID@@BUtagCONNECTDATA@@V?$_Copy@UtagCONNECTDATA@@@ATL@@VCComSingleThreadModel@6@@ATL@@@ATL@@UAE@XZ 100071c0 f i Scale.obj
 0001:00006220       ??1?$CComObject@VCOPOSScale@@@ATL@@UAE@XZ 10007220 f i Scale.obj
 0001:00006360       ??1?$CComObjectCached@VCComClassFactory@ATL@@@ATL@@UAE@XZ 10007360 f i Scale.obj
 0001:000063b0       ??1?$CComObjectRootEx@VCComMultiThreadModel@ATL@@@ATL@@QAE@XZ 100073b0 f i Scale.obj
 0001:000063e0       ??1?$CComObjectRootEx@VCComSingleThreadModel@ATL@@@ATL@@QAE@XZ 100073e0 f i Scale.obj
 0001:00006410       ??1?$CComPtr@UIAdviseSink@@@ATL@@QAE@XZ 10007410 f i Scale.obj
 0001:00006440       ??1?$CComPtr@UICatRegister@@@ATL@@QAE@XZ 10007440 f i Scale.obj
 0001:00006470       ??1?$CComPtr@UIConnectionPoint@@@ATL@@QAE@XZ 10007470 f i Scale.obj
 0001:000064a0       ??1?$CComPtr@UIConnectionPointContainer@@@ATL@@QAE@XZ 100074a0 f i Scale.obj
 0001:000064d0       ??1?$CComPtr@UIDataObject@@@ATL@@QAE@XZ 100074d0 f i Scale.obj
 0001:00006500       ??1?$CComPtr@UIDispatch@@@ATL@@QAE@XZ 10007500 f i Scale.obj
 0001:00006530       ??1?$CComPtr@UIOleClientSite@@@ATL@@QAE@XZ 10007530 f i Scale.obj
 0001:00006560       ??1?$CComPtr@UIOleControlSite@@@ATL@@QAE@XZ 10007560 f i Scale.obj
 0001:00006590       ??1?$CComPtr@UIOleInPlaceActiveObject@@@ATL@@QAE@XZ 10007590 f i Scale.obj
 0001:000065c0       ??1?$CComPtr@UIOleInPlaceFrame@@@ATL@@QAE@XZ 100075c0 f i Scale.obj
 0001:000065f0       ??1?$CComPtr@UIOleInPlaceObject@@@ATL@@QAE@XZ 100075f0 f i Scale.obj
 0001:00006620       ??1?$CComPtr@UIOleInPlaceUIWindow@@@ATL@@QAE@XZ 10007620 f i Scale.obj
 0001:00006650       ??1?$CComPtr@UIOleObject@@@ATL@@QAE@XZ 10007650 f i Scale.obj
 0001:00006680       ??1?$CComPtr@UIPersistStream@@@ATL@@QAE@XZ 10007680 f i Scale.obj
 0001:000066b0       ??1?$CComPtr@UIPersistStreamInit@@@ATL@@QAE@XZ 100076b0 f i Scale.obj
 0001:000066e0       ??1?$CComPtr@UIPointerInactive@@@ATL@@QAE@XZ 100076e0 f i Scale.obj
 0001:00006710       ??1?$CComPtr@UIProvideClassInfo2@@@ATL@@QAE@XZ 10007710 f i Scale.obj
 0001:00006740       ??1?$CComPtr@UISpecifyPropertyPages@@@ATL@@QAE@XZ 10007740 f i Scale.obj
 0001:00006770       ??1?$CComPtr@UIStream@@@ATL@@QAE@XZ 10007770 f i Scale.obj
 0001:000067a0       ??1?$CComPtr@UITypeInfo2@@@ATL@@QAE@XZ 100077a0 f i Scale.obj
 0001:000067d0       ??1?$CComPtr@UITypeInfo@@@ATL@@QAE@XZ 100077d0 f i Scale.obj
 0001:00006800       ??1?$CComPtr@UITypeLib@@@ATL@@QAE@XZ 10007800 f i Scale.obj
 0001:00006830       ??1?$CComPtr@UIUnknown@@@ATL@@QAE@XZ 10007830 f i Scale.obj
 0001:00006860       ??1?$CComPtr@UIViewObjectEx@@@ATL@@QAE@XZ 10007860 f i Scale.obj
 0001:00006890       ??1?$CComPtrBase@UIAdviseSink@@@ATL@@QAE@XZ 10007890 f i Scale.obj
 0001:000068e0       ??1?$CComPtrBase@UICatRegister@@@ATL@@QAE@XZ 100078e0 f i Scale.obj
 0001:00006930       ??1?$CComPtrBase@UIConnectionPoint@@@ATL@@QAE@XZ 10007930 f i Scale.obj
 0001:00006980       ??1?$CComPtrBase@UIConnectionPointContainer@@@ATL@@QAE@XZ 10007980 f i Scale.obj
 0001:000069d0       ??1?$CComPtrBase@UIDataObject@@@ATL@@QAE@XZ 100079d0 f i Scale.obj
 0001:00006a20       ??1?$CComPtrBase@UIDispatch@@@ATL@@QAE@XZ 10007a20 f i Scale.obj
 0001:00006a70       ??1?$CComPtrBase@UIOleClientSite@@@ATL@@QAE@XZ 10007a70 f i Scale.obj
 0001:00006ac0       ??1?$CComPtrBase@UIOleControlSite@@@ATL@@QAE@XZ 10007ac0 f i Scale.obj
 0001:00006b10       ??1?$CComPtrBase@UIOleInPlaceActiveObject@@@ATL@@QAE@XZ 10007b10 f i Scale.obj
 0001:00006b60       ??1?$CComPtrBase@UIOleInPlaceFrame@@@ATL@@QAE@XZ 10007b60 f i Scale.obj
 0001:00006bb0       ??1?$CComPtrBase@UIOleInPlaceObject@@@ATL@@QAE@XZ 10007bb0 f i Scale.obj
 0001:00006c00       ??1?$CComPtrBase@UIOleInPlaceUIWindow@@@ATL@@QAE@XZ 10007c00 f i Scale.obj
 0001:00006c50       ??1?$CComPtrBase@UIOleObject@@@ATL@@QAE@XZ 10007c50 f i Scale.obj
 0001:00006ca0       ??1?$CComPtrBase@UIPersistStream@@@ATL@@QAE@XZ 10007ca0 f i Scale.obj
 0001:00006cf0       ??1?$CComPtrBase@UIPersistStreamInit@@@ATL@@QAE@XZ 10007cf0 f i Scale.obj
 0001:00006d40       ??1?$CComPtrBase@UIPointerInactive@@@ATL@@QAE@XZ 10007d40 f i Scale.obj
 0001:00006d90       ??1?$CComPtrBase@UIProvideClassInfo2@@@ATL@@QAE@XZ 10007d90 f i Scale.obj
 0001:00006de0       ??1?$CComPtrBase@UISpecifyPropertyPages@@@ATL@@QAE@XZ 10007de0 f i Scale.obj
 0001:00006e30       ??1?$CComPtrBase@UIStream@@@ATL@@QAE@XZ 10007e30 f i Scale.obj
 0001:00006e80       ??1?$CComPtrBase@UITypeInfo2@@@ATL@@QAE@XZ 10007e80 f i Scale.obj
 0001:00006ed0       ??1?$CComPtrBase@UITypeInfo@@@ATL@@QAE@XZ 10007ed0 f i Scale.obj
 0001:00006f20       ??1?$CComPtrBase@UITypeLib@@@ATL@@QAE@XZ 10007f20 f i Scale.obj
 0001:00006f70       ??1?$CComPtrBase@UIUnknown@@@ATL@@QAE@XZ 10007f70 f i Scale.obj
 0001:00006fc0       ??1?$CComPtrBase@UIViewObjectEx@@@ATL@@QAE@XZ 10007fc0 f i Scale.obj
 0001:00007010       ??1?$CComQIPtr@UIOleControlSite@@$1?_GUID_b196b289_bab4_101a_b69c_00aa00341d07@@3U__s_GUID@@B@ATL@@QAE@XZ 10008010 f i Scale.obj
 0001:00007040       ??1?$CComQIPtr@UIOleObject@@$1?_GUID_00000112_0000_0000_c000_000000000046@@3U__s_GUID@@B@ATL@@QAE@XZ 10008040 f i Scale.obj
 0001:00007070       ??1?$CComQIPtr@UISpecifyPropertyPages@@$1?_GUID_b196b28b_bab4_101a_b69c_00aa00341d07@@3U__s_GUID@@B@ATL@@QAE@XZ 10008070 f i Scale.obj
 0001:000070a0       ??1?$CSimpleMap@PA_WPA_WVCExpansionVectorEqualHelper@ATL@@@ATL@@QAE@XZ 100080a0 f i Scale.obj
 0001:000070d0       ??1?$CTempBuffer@E$0BAA@VCCRTAllocator@ATL@@@ATL@@QAE@XZ 100080d0 f i Scale.obj
 0001:00007110       ??1?$CTempBuffer@_W$0BAA@VCCRTAllocator@ATL@@@ATL@@QAE@XZ 10008110 f i Scale.obj
 0001:00007150       ??1?$CTempBuffer@_W$0EAA@VCCRTAllocator@ATL@@@ATL@@QAE@XZ 10008150 f i Scale.obj
 0001:00007190       ??1CAtlModule@ATL@@UAE@XZ  10008190 f i Scale.obj
 0001:000071c0       ??1CComAutoDeleteCriticalSection@ATL@@QAE@XZ 100081c0 f i Scale.obj
 0001:000071f0       ??1CComClassFactory@ATL@@UAE@XZ 100081f0 f i Scale.obj
 0001:00007220       ??1CComModule@ATL@@UAE@XZ  10008220 f i Scale.obj
 0001:00007250       ??1CComObjectRootBase@ATL@@QAE@XZ 10008250 f i Scale.obj
 0001:00007270       ??1CComSafeDeleteCriticalSection@ATL@@QAE@XZ 10008270 f i Scale.obj
 0001:000072b0       ??1CComVariant@ATL@@QAE@XZ 100082b0 f i Scale.obj
 0001:00007310       ??1CExpansionVector@ATL@@QAE@XZ 10008310 f i Scale.obj
 0001:00007340       ??1CParseBuffer@CRegParser@ATL@@QAE@XZ 10008340 f i Scale.obj
 0001:00007380       ??1CRegKey@ATL@@QAE@XZ     10008380 f i Scale.obj
 0001:000073b0       ??1CRegObject@ATL@@UAE@XZ  100083b0 f i Scale.obj
 0001:000073f0       ??1ModuleLockHelper@ATL@@QAE@XZ 100083f0 f i Scale.obj
 0001:00007430       ??1OposVariant@@QAE@XZ     10008430 f i Scale.obj
 0001:00007460       ??1_ATL_MODULE70@ATL@@QAE@XZ 10008460 f i Scale.obj
 0001:00007490       ??4?$CComPtr@UIAdviseSink@@@ATL@@QAEPAUIAdviseSink@@PAU2@@Z 10008490 f i Scale.obj
 0001:00007500       ??4?$CComPtr@UIOleClientSite@@@ATL@@QAEPAUIOleClientSite@@PAU2@@Z 10008500 f i Scale.obj
 0001:00007570       ??4?$CComPtr@UIUnknown@@@ATL@@QAEPAUIUnknown@@PAU2@@Z 10008570 f i Scale.obj
 0001:000075e0       ??4?$CComQIPtr@UIOleObject@@$1?_GUID_00000112_0000_0000_c000_000000000046@@3U__s_GUID@@B@ATL@@QAEPAUIOleObject@@PAUIUnknown@@@Z 100085e0 f i Scale.obj
 0001:00007630       ??4?$CComQIPtr@UISpecifyPropertyPages@@$1?_GUID_b196b28b_bab4_101a_b69c_00aa00341d07@@3U__s_GUID@@B@ATL@@QAEPAUISpecifyPropertyPages@@PAUIUnknown@@@Z 10008630 f i Scale.obj
 0001:00007680       ??7?$CComPtrBase@UIOleClientSite@@@ATL@@QBE_NXZ 10008680 f i Scale.obj
 0001:000076c0       ??7?$CComPtrBase@UIOleInPlaceSiteWindowless@@@ATL@@QBE_NXZ 100086c0 f i Scale.obj
 0001:00007700       ??7CComBSTR@ATL@@QBE_NXZ   10008700 f i Scale.obj
 0001:00007740       ??8?$CComPtrBase@UIAdviseSink@@@ATL@@QBE_NPAUIAdviseSink@@@Z 10008740 f i Scale.obj
 0001:00007780       ??8?$CComPtrBase@UIConnectionPointContainer@@@ATL@@QBE_NPAUIConnectionPointContainer@@@Z 10008780 f i Scale.obj
 0001:000077c0       ??8?$CComPtrBase@UIDataAdviseHolder@@@ATL@@QBE_NPAUIDataAdviseHolder@@@Z 100087c0 f i Scale.obj
 0001:00007800       ??8?$CComPtrBase@UIOleAdviseHolder@@@ATL@@QBE_NPAUIOleAdviseHolder@@@Z 10008800 f i Scale.obj
 0001:00007840       ??8?$CComPtrBase@UIOleClientSite@@@ATL@@QBE_NPAUIOleClientSite@@@Z 10008840 f i Scale.obj
 0001:00007880       ??8?$CComPtrBase@UIOleControlSite@@@ATL@@QBE_NPAUIOleControlSite@@@Z 10008880 f i Scale.obj
 0001:000078c0       ??8?$CComPtrBase@UIOleInPlaceObject@@@ATL@@QBE_NPAUIOleInPlaceObject@@@Z 100088c0 f i Scale.obj
 0001:00007900       ??8?$CComPtrBase@UIOleInPlaceSiteWindowless@@@ATL@@QBE_NPAUIOleInPlaceSiteWindowless@@@Z 10008900 f i Scale.obj
 0001:00007940       ??8?$CComPtrBase@UIOleObject@@@ATL@@QBE_NPAUIOleObject@@@Z 10008940 f i Scale.obj
 0001:00007980       ??8?$CComPtrBase@UIPersistStream@@@ATL@@QBE_NPAUIPersistStream@@@Z 10008980 f i Scale.obj
 0001:000079c0       ??8?$CComPtrBase@UIPersistStreamInit@@@ATL@@QBE_NPAUIPersistStreamInit@@@Z 100089c0 f i Scale.obj
 0001:00007a00       ??8?$CComPtrBase@UIPointerInactive@@@ATL@@QBE_NPAUIPointerInactive@@@Z 10008a00 f i Scale.obj
 0001:00007a40       ??8?$CComPtrBase@UIUnknown@@@ATL@@QBE_NPAUIUnknown@@@Z 10008a40 f i Scale.obj
 0001:00007a80       ??8?$CComPtrBase@UIViewObjectEx@@@ATL@@QBE_NPAUIViewObjectEx@@@Z 10008a80 f i Scale.obj
 0001:00007ac0       ??8CComBSTR@ATL@@QBE_NH@Z  10008ac0 f i Scale.obj
 0001:00007b20       ??9?$CComPtrBase@UIAdviseSink@@@ATL@@QBE_NPAUIAdviseSink@@@Z 10008b20 f i Scale.obj
 0001:00007b70       ??9?$CComPtrBase@UIConnectionPointContainer@@@ATL@@QBE_NPAUIConnectionPointContainer@@@Z 10008b70 f i Scale.obj
 0001:00007bc0       ??9?$CComPtrBase@UIDataAdviseHolder@@@ATL@@QBE_NPAUIDataAdviseHolder@@@Z 10008bc0 f i Scale.obj
 0001:00007c10       ??9?$CComPtrBase@UIOleAdviseHolder@@@ATL@@QBE_NPAUIOleAdviseHolder@@@Z 10008c10 f i Scale.obj
 0001:00007c60       ??9?$CComPtrBase@UIOleClientSite@@@ATL@@QBE_NPAUIOleClientSite@@@Z 10008c60 f i Scale.obj
 0001:00007cb0       ??9?$CComPtrBase@UIOleControlSite@@@ATL@@QBE_NPAUIOleControlSite@@@Z 10008cb0 f i Scale.obj
 0001:00007d00       ??9?$CComPtrBase@UIOleInPlaceObject@@@ATL@@QBE_NPAUIOleInPlaceObject@@@Z 10008d00 f i Scale.obj
 0001:00007d50       ??9?$CComPtrBase@UIOleInPlaceSiteWindowless@@@ATL@@QBE_NPAUIOleInPlaceSiteWindowless@@@Z 10008d50 f i Scale.obj
 0001:00007da0       ??9?$CComPtrBase@UIOleObject@@@ATL@@QBE_NPAUIOleObject@@@Z 10008da0 f i Scale.obj
 0001:00007df0       ??9?$CComPtrBase@UIPersistStream@@@ATL@@QBE_NPAUIPersistStream@@@Z 10008df0 f i Scale.obj
 0001:00007e40       ??9?$CComPtrBase@UIPersistStreamInit@@@ATL@@QBE_NPAUIPersistStreamInit@@@Z 10008e40 f i Scale.obj
 0001:00007e90       ??9?$CComPtrBase@UIPointerInactive@@@ATL@@QBE_NPAUIPointerInactive@@@Z 10008e90 f i Scale.obj
 0001:00007ee0       ??9?$CComPtrBase@UIUnknown@@@ATL@@QBE_NPAUIUnknown@@@Z 10008ee0 f i Scale.obj
 0001:00007f30       ??9?$CComPtrBase@UIViewObjectEx@@@ATL@@QBE_NPAUIViewObjectEx@@@Z 10008f30 f i Scale.obj
 0001:00007f80       ??9CComBSTR@ATL@@QBE_NH@Z  10008f80 f i Scale.obj
 0001:00007fd0       ??B?$CComPtrBase@UIAdviseSink@@@ATL@@QBEPAUIAdviseSink@@XZ 10008fd0 f i Scale.obj
 0001:00007ff0       ??B?$CComPtrBase@UIDataAdviseHolder@@@ATL@@QBEPAUIDataAdviseHolder@@XZ 10008ff0 f i Scale.obj
 0001:00008010       ??B?$CComPtrBase@UIDataObject@@@ATL@@QBEPAUIDataObject@@XZ 10009010 f i Scale.obj
 0001:00008030       ??B?$CComPtrBase@UIOleAdviseHolder@@@ATL@@QBEPAUIOleAdviseHolder@@XZ 10009030 f i Scale.obj
 0001:00008050       ??B?$CComPtrBase@UIOleClientSite@@@ATL@@QBEPAUIOleClientSite@@XZ 10009050 f i Scale.obj
 0001:00008070       ??B?$CComPtrBase@UIOleControlSite@@@ATL@@QBEPAUIOleControlSite@@XZ 10009070 f i Scale.obj
 0001:00008090       ??B?$CComPtrBase@UIOleInPlaceActiveObject@@@ATL@@QBEPAUIOleInPlaceActiveObject@@XZ 10009090 f i Scale.obj
 0001:000080b0       ??B?$CComPtrBase@UIOleInPlaceFrame@@@ATL@@QBEPAUIOleInPlaceFrame@@XZ 100090b0 f i Scale.obj
 0001:000080d0       ??B?$CComPtrBase@UIOleInPlaceSiteWindowless@@@ATL@@QBEPAUIOleInPlaceSiteWindowless@@XZ 100090d0 f i Scale.obj
 0001:000080f0       ??B?$CComPtrBase@UIOleInPlaceUIWindow@@@ATL@@QBEPAUIOleInPlaceUIWindow@@XZ 100090f0 f i Scale.obj
 0001:00008110       ??B?$CComPtrBase@UIOleObject@@@ATL@@QBEPAUIOleObject@@XZ 10009110 f i Scale.obj
 0001:00008130       ??B?$CComPtrBase@UIPersistStream@@@ATL@@QBEPAUIPersistStream@@XZ 10009130 f i Scale.obj
 0001:00008150       ??B?$CComPtrBase@UIProvideClassInfo2@@@ATL@@QBEPAUIProvideClassInfo2@@XZ 10009150 f i Scale.obj
 0001:00008170       ??B?$CComPtrBase@UISpecifyPropertyPages@@@ATL@@QBEPAUISpecifyPropertyPages@@XZ 10009170 f i Scale.obj
 0001:00008190       ??B?$CComPtrBase@UIStream@@@ATL@@QBEPAUIStream@@XZ 10009190 f i Scale.obj
 0001:000081b0       ??B?$CComPtrBase@UITypeInfo2@@@ATL@@QBEPAUITypeInfo2@@XZ 100091b0 f i Scale.obj
 0001:000081d0       ??B?$CComPtrBase@UITypeInfo@@@ATL@@QBEPAUITypeInfo@@XZ 100091d0 f i Scale.obj
 0001:000081f0       ??B?$CComPtrBase@UITypeLib@@@ATL@@QBEPAUITypeLib@@XZ 100091f0 f i Scale.obj
 0001:00008210       ??B?$CComPtrBase@UIUnknown@@@ATL@@QBEPAUIUnknown@@XZ 10009210 f i Scale.obj
 0001:00008230       ??B?$CTempBuffer@E$0BAA@VCCRTAllocator@ATL@@@ATL@@QBEPAEXZ 10009230 f i Scale.obj
 0001:00008250       ??B?$CTempBuffer@_W$0BAA@VCCRTAllocator@ATL@@@ATL@@QBEPA_WXZ 10009250 f i Scale.obj
 0001:00008270       ??B?$CTempBuffer@_W$0EAA@VCCRTAllocator@ATL@@@ATL@@QBEPA_WXZ 10009270 f i Scale.obj
 0001:00008290       ??B?$CTraceCategoryEx@$00$0A@@ATL@@QAEIXZ 10009290 f i Scale.obj
 0001:000082b0       ??B?$CTraceCategoryEx@$07$0A@@ATL@@QAEIXZ 100092b0 f i Scale.obj
 0001:000082d0       ??B?$CTraceCategoryEx@$0CAAA@$0A@@ATL@@QAEIXZ 100092d0 f i Scale.obj
 0001:000082f0       ??B?$CTraceCategoryEx@$0EA@$0A@@ATL@@QAEIXZ 100092f0 f i Scale.obj
 0001:00008310       ??B?$CTraceCategoryEx@$0IAA@$0A@@ATL@@QAEIXZ 10009310 f i Scale.obj
 0001:00008330       ??BCComBSTR@ATL@@QBEPA_WXZ 10009330 f i Scale.obj
 0001:00008350       ??BCRegKey@ATL@@QBEPAUHKEY__@@XZ 10009350 f i Scale.obj
 0001:00008370       ??C?$CComPtrBase@UIAdviseSink@@@ATL@@QBEPAV?$_NoAddRefReleaseOnCComPtr@UIAdviseSink@@@1@XZ 10009370 f i Scale.obj
 0001:000083c0       ??C?$CComPtrBase@UICatRegister@@@ATL@@QBEPAV?$_NoAddRefReleaseOnCComPtr@UICatRegister@@@1@XZ 100093c0 f i Scale.obj
 0001:00008410       ??C?$CComPtrBase@UIConnectionPoint@@@ATL@@QBEPAV?$_NoAddRefReleaseOnCComPtr@UIConnectionPoint@@@1@XZ 10009410 f i Scale.obj
 0001:00008460       ??C?$CComPtrBase@UIConnectionPointContainer@@@ATL@@QBEPAV?$_NoAddRefReleaseOnCComPtr@UIConnectionPointContainer@@@1@XZ 10009460 f i Scale.obj
 0001:000084b0       ??C?$CComPtrBase@UIDataAdviseHolder@@@ATL@@QBEPAV?$_NoAddRefReleaseOnCComPtr@UIDataAdviseHolder@@@1@XZ 100094b0 f i Scale.obj
 0001:00008500       ??C?$CComPtrBase@UIOleAdviseHolder@@@ATL@@QBEPAV?$_NoAddRefReleaseOnCComPtr@UIOleAdviseHolder@@@1@XZ 10009500 f i Scale.obj
 0001:00008550       ??C?$CComPtrBase@UIOleClientSite@@@ATL@@QBEPAV?$_NoAddRefReleaseOnCComPtr@UIOleClientSite@@@1@XZ 10009550 f i Scale.obj
 0001:000085a0       ??C?$CComPtrBase@UIOleControlSite@@@ATL@@QBEPAV?$_NoAddRefReleaseOnCComPtr@UIOleControlSite@@@1@XZ 100095a0 f i Scale.obj
 0001:000085f0       ??C?$CComPtrBase@UIOleInPlaceFrame@@@ATL@@QBEPAV?$_NoAddRefReleaseOnCComPtr@UIOleInPlaceFrame@@@1@XZ 100095f0 f i Scale.obj
 0001:00008640       ??C?$CComPtrBase@UIOleInPlaceObject@@@ATL@@QBEPAV?$_NoAddRefReleaseOnCComPtr@UIOleInPlaceObject@@@1@XZ 10009640 f i Scale.obj
 0001:00008690       ??C?$CComPtrBase@UIOleInPlaceSiteWindowless@@@ATL@@QBEPAV?$_NoAddRefReleaseOnCComPtr@UIOleInPlaceSiteWindowless@@@1@XZ 10009690 f i Scale.obj
 0001:000086e0       ??C?$CComPtrBase@UIOleInPlaceUIWindow@@@ATL@@QBEPAV?$_NoAddRefReleaseOnCComPtr@UIOleInPlaceUIWindow@@@1@XZ 100096e0 f i Scale.obj
 0001:00008730       ??C?$CComPtrBase@UIOleObject@@@ATL@@QBEPAV?$_NoAddRefReleaseOnCComPtr@UIOleObject@@@1@XZ 10009730 f i Scale.obj
 0001:00008780       ??C?$CComPtrBase@UIPersistStream@@@ATL@@QBEPAV?$_NoAddRefReleaseOnCComPtr@UIPersistStream@@@1@XZ 10009780 f i Scale.obj
 0001:000087d0       ??C?$CComPtrBase@UIPersistStreamInit@@@ATL@@QBEPAV?$_NoAddRefReleaseOnCComPtr@UIPersistStreamInit@@@1@XZ 100097d0 f i Scale.obj
 0001:00008820       ??C?$CComPtrBase@UIPointerInactive@@@ATL@@QBEPAV?$_NoAddRefReleaseOnCComPtr@UIPointerInactive@@@1@XZ 10009820 f i Scale.obj
 0001:00008870       ??C?$CComPtrBase@UIProvideClassInfo2@@@ATL@@QBEPAV?$_NoAddRefReleaseOnCComPtr@UIProvideClassInfo2@@@1@XZ 10009870 f i Scale.obj
 0001:000088c0       ??C?$CComPtrBase@UISpecifyPropertyPages@@@ATL@@QBEPAV?$_NoAddRefReleaseOnCComPtr@UISpecifyPropertyPages@@@1@XZ 100098c0 f i Scale.obj
 0001:00008910       ??C?$CComPtrBase@UITypeInfo@@@ATL@@QBEPAV?$_NoAddRefReleaseOnCComPtr@UITypeInfo@@@1@XZ 10009910 f i Scale.obj
 0001:00008960       ??C?$CComPtrBase@UITypeLib@@@ATL@@QBEPAV?$_NoAddRefReleaseOnCComPtr@UITypeLib@@@1@XZ 10009960 f i Scale.obj
 0001:000089b0       ??C?$CComPtrBase@UIUnknown@@@ATL@@QBEPAV?$_NoAddRefReleaseOnCComPtr@UIUnknown@@@1@XZ 100099b0 f i Scale.obj
 0001:00008a00       ??C?$CComPtrBase@UIViewObjectEx@@@ATL@@QBEPAV?$_NoAddRefReleaseOnCComPtr@UIViewObjectEx@@@1@XZ 10009a00 f i Scale.obj
 0001:00008a50       ??I?$CComPtrBase@UICatRegister@@@ATL@@QAEPAPAUICatRegister@@XZ 10009a50 f i Scale.obj
 0001:00008aa0       ??I?$CComPtrBase@UIConnectionPoint@@@ATL@@QAEPAPAUIConnectionPoint@@XZ 10009aa0 f i Scale.obj
 0001:00008af0       ??I?$CComPtrBase@UIConnectionPointContainer@@@ATL@@QAEPAPAUIConnectionPointContainer@@XZ 10009af0 f i Scale.obj
 0001:00008b40       ??I?$CComPtrBase@UIDataAdviseHolder@@@ATL@@QAEPAPAUIDataAdviseHolder@@XZ 10009b40 f i Scale.obj
 0001:00008b90       ??I?$CComPtrBase@UIDataObject@@@ATL@@QAEPAPAUIDataObject@@XZ 10009b90 f i Scale.obj
 0001:00008be0       ??I?$CComPtrBase@UIDispatch@@@ATL@@QAEPAPAUIDispatch@@XZ 10009be0 f i Scale.obj
 0001:00008c30       ??I?$CComPtrBase@UIOleAdviseHolder@@@ATL@@QAEPAPAUIOleAdviseHolder@@XZ 10009c30 f i Scale.obj
 0001:00008c80       ??I?$CComPtrBase@UIOleControlSite@@@ATL@@QAEPAPAUIOleControlSite@@XZ 10009c80 f i Scale.obj
 0001:00008cd0       ??I?$CComPtrBase@UIOleInPlaceActiveObject@@@ATL@@QAEPAPAUIOleInPlaceActiveObject@@XZ 10009cd0 f i Scale.obj
 0001:00008d20       ??I?$CComPtrBase@UIOleInPlaceFrame@@@ATL@@QAEPAPAUIOleInPlaceFrame@@XZ 10009d20 f i Scale.obj
 0001:00008d70       ??I?$CComPtrBase@UIOleInPlaceObject@@@ATL@@QAEPAPAUIOleInPlaceObject@@XZ 10009d70 f i Scale.obj
 0001:00008dc0       ??I?$CComPtrBase@UIOleInPlaceSiteWindowless@@@ATL@@QAEPAPAUIOleInPlaceSiteWindowless@@XZ 10009dc0 f i Scale.obj
 0001:00008e10       ??I?$CComPtrBase@UIOleInPlaceUIWindow@@@ATL@@QAEPAPAUIOleInPlaceUIWindow@@XZ 10009e10 f i Scale.obj
 0001:00008e60       ??I?$CComPtrBase@UIOleObject@@@ATL@@QAEPAPAUIOleObject@@XZ 10009e60 f i Scale.obj
 0001:00008eb0       ??I?$CComPtrBase@UIPersistStream@@@ATL@@QAEPAPAUIPersistStream@@XZ 10009eb0 f i Scale.obj
 0001:00008f00       ??I?$CComPtrBase@UIPointerInactive@@@ATL@@QAEPAPAUIPointerInactive@@XZ 10009f00 f i Scale.obj
 0001:00008f50       ??I?$CComPtrBase@UIProvideClassInfo2@@@ATL@@QAEPAPAUIProvideClassInfo2@@XZ 10009f50 f i Scale.obj
 0001:00008fa0       ??I?$CComPtrBase@UIStream@@@ATL@@QAEPAPAUIStream@@XZ 10009fa0 f i Scale.obj
 0001:00008ff0       ??I?$CComPtrBase@UITypeInfo2@@@ATL@@QAEPAPAUITypeInfo2@@XZ 10009ff0 f i Scale.obj
 0001:00009040       ??I?$CComPtrBase@UITypeInfo@@@ATL@@QAEPAPAUITypeInfo@@XZ 1000a040 f i Scale.obj
 0001:00009090       ??I?$CComPtrBase@UITypeLib@@@ATL@@QAEPAPAUITypeLib@@XZ 1000a090 f i Scale.obj
 0001:000090e0       ??I?$CComPtrBase@UIUnknown@@@ATL@@QAEPAPAUIUnknown@@XZ 1000a0e0 f i Scale.obj
 0001:00009130       ??I?$CComPtrBase@UIViewObjectEx@@@ATL@@QAEPAPAUIViewObjectEx@@XZ 1000a130 f i Scale.obj
 0001:00009180       ??ICComBSTR@ATL@@QAEPAPA_WXZ 1000a180 f i Scale.obj
 0001:00009195       ??_E?$CComContainedObject@VCOPOSScale@@@ATL@@W3AEPAXI@Z 1000a195 f i Scale.obj
 0001:0000919d       ??_E?$CComContainedObject@VCOPOSScale@@@ATL@@WEM@AEPAXI@Z 1000a19d f i Scale.obj
 0001:000091a5       ??_E?$CComObject@VCOPOSScale@@@ATL@@W3AEPAXI@Z 1000a1a5 f i Scale.obj
 0001:000091ad       ??_E?$CComObject@VCOPOSScale@@@ATL@@WEM@AEPAXI@Z 1000a1ad f i Scale.obj
 0001:000091c0       ??_G?$CComAggObject@VCOPOSScale@@@ATL@@UAEPAXI@Z 1000a1c0 f i Scale.obj
 0001:000091c0       ??_E?$CComAggObject@VCOPOSScale@@@ATL@@UAEPAXI@Z 1000a1c0 f i Scale.obj
 0001:00009210       ??_G?$CComContainedObject@VCOPOSScale@@@ATL@@UAEPAXI@Z 1000a210 f i Scale.obj
 0001:00009210       ??_E?$CComContainedObject@VCOPOSScale@@@ATL@@UAEPAXI@Z 1000a210 f i Scale.obj
 0001:00009260       ??_G?$CComObject@V?$CComEnum@UIEnumConnectionPoints@@$1?_GUID_b196b285_bab4_101a_b69c_00aa00341d07@@3U__s_GUID@@BPAUIConnectionPoint@@V?$_CopyInterface@UIConnectionPoint@@@ATL@@VCComSingleThreadModel@6@@ATL@@@ATL@@UAEPAXI@Z 1000a260 f i Scale.obj
 0001:00009260       ??_E?$CComObject@V?$CComEnum@UIEnumConnectionPoints@@$1?_GUID_b196b285_bab4_101a_b69c_00aa00341d07@@3U__s_GUID@@BPAUIConnectionPoint@@V?$_CopyInterface@UIConnectionPoint@@@ATL@@VCComSingleThreadModel@6@@ATL@@@ATL@@UAEPAXI@Z 1000a260 f i Scale.obj
 0001:000092a0       ??_E?$CComObject@V?$CComEnum@UIEnumConnections@@$1?_GUID_b196b287_bab4_101a_b69c_00aa00341d07@@3U__s_GUID@@BUtagCONNECTDATA@@V?$_Copy@UtagCONNECTDATA@@@ATL@@VCComSingleThreadModel@6@@ATL@@@ATL@@UAEPAXI@Z 1000a2a0 f i Scale.obj
 0001:000092a0       ??_G?$CComObject@V?$CComEnum@UIEnumConnections@@$1?_GUID_b196b287_bab4_101a_b69c_00aa00341d07@@3U__s_GUID@@BUtagCONNECTDATA@@V?$_Copy@UtagCONNECTDATA@@@ATL@@VCComSingleThreadModel@6@@ATL@@@ATL@@UAEPAXI@Z 1000a2a0 f i Scale.obj
 0001:000092e0       ??_G?$CComObject@VCOPOSScale@@@ATL@@UAEPAXI@Z 1000a2e0 f i Scale.obj
 0001:000092e0       ??_E?$CComObject@VCOPOSScale@@@ATL@@UAEPAXI@Z 1000a2e0 f i Scale.obj
 0001:00009330       ??_G?$CComObjectCached@VCComClassFactory@ATL@@@ATL@@UAEPAXI@Z 1000a330 f i Scale.obj
 0001:00009330       ??_E?$CComObjectCached@VCComClassFactory@ATL@@@ATL@@UAEPAXI@Z 1000a330 f i Scale.obj
 0001:00009370       ??_ECComClassFactory@ATL@@UAEPAXI@Z 1000a370 f i Scale.obj
 0001:00009370       ??_GCComClassFactory@ATL@@UAEPAXI@Z 1000a370 f i Scale.obj
 0001:000093b0       ??_ECComModule@ATL@@UAEPAXI@Z 1000a3b0 f i Scale.obj
 0001:000093b0       ??_GCComModule@ATL@@UAEPAXI@Z 1000a3b0 f i Scale.obj
 0001:000093f0       ??_ECRegObject@ATL@@UAEPAXI@Z 1000a3f0 f i Scale.obj
 0001:000093f0       ??_GCRegObject@ATL@@UAEPAXI@Z 1000a3f0 f i Scale.obj
 0001:00009430       ?Add@?$CSimpleArray@GV?$CSimpleArrayEqualHelper@G@ATL@@@ATL@@QAEHABG@Z 1000a430 f i Scale.obj
 0001:00009580       ?Add@?$CSimpleMap@PA_WPA_WVCExpansionVectorEqualHelper@ATL@@@ATL@@QAEHABQA_W0@Z 1000a580 f i Scale.obj
 0001:00009640       ?Add@CComDynamicUnkArray@ATL@@QAEKPAUIUnknown@@@Z 1000a640 f i Scale.obj
 0001:000097e0       ?Add@CExpansionVector@ATL@@QAEHPB_W0@Z 1000a7e0 f i Scale.obj
 0001:00009a70       ?AddChar@CParseBuffer@CRegParser@ATL@@QAEHPB_W@Z 1000aa70 f i Scale.obj
 0001:00009ab0       ?AddCommonRGSReplacements@?$CAtlModuleT@VCComModule@ATL@@@ATL@@UAEJPAUIRegistrarBase@@@Z 1000aab0 f i Scale.obj
 0001:00009b00       ?AddCreateWndData@CAtlWinModule@ATL@@QAEXPAU_AtlCreateWndData@2@PAX@Z 1000ab00 f i Scale.obj
 0001:00009b30       ?AddRef@?$CComAggObject@VCOPOSScale@@@ATL@@UAGKXZ 1000ab30 f i Scale.obj
 0001:00009b50       ?AddRef@?$CComContainedObject@VCOPOSScale@@@ATL@@UAGKXZ 1000ab50 f i Scale.obj
 0001:00009b6c       ?AddRef@?$CComContainedObject@VCOPOSScale@@@ATL@@WHA@AGKXZ 1000ab6c f i Scale.obj
 0001:00009b76       ?AddRef@?$CComContainedObject@VCOPOSScale@@@ATL@@WHE@AGKXZ 1000ab76 f i Scale.obj
 0001:00009b80       ?AddRef@?$CComContainedObject@VCOPOSScale@@@ATL@@WHI@AGKXZ 1000ab80 f i Scale.obj
 0001:00009b8a       ?AddRef@?$CComContainedObject@VCOPOSScale@@@ATL@@WHM@AGKXZ 1000ab8a f i Scale.obj
 0001:00009b94       ?AddRef@?$CComContainedObject@VCOPOSScale@@@ATL@@WIA@AGKXZ 1000ab94 f i Scale.obj
 0001:00009ba1       ?AddRef@?$CComContainedObject@VCOPOSScale@@@ATL@@WIE@AGKXZ 1000aba1 f i Scale.obj
 0001:00009bae       ?AddRef@?$CComContainedObject@VCOPOSScale@@@ATL@@WII@AGKXZ 1000abae f i Scale.obj
 0001:00009bbb       ?AddRef@?$CComContainedObject@VCOPOSScale@@@ATL@@WIM@AGKXZ 1000abbb f i Scale.obj
 0001:00009bc8       ?AddRef@?$CComContainedObject@VCOPOSScale@@@ATL@@WJA@AGKXZ 1000abc8 f i Scale.obj
 0001:00009bd5       ?AddRef@?$CComContainedObject@VCOPOSScale@@@ATL@@WJE@AGKXZ 1000abd5 f i Scale.obj
 0001:00009be2       ?AddRef@?$CComContainedObject@VCOPOSScale@@@ATL@@WJI@AGKXZ 1000abe2 f i Scale.obj
 0001:00009bef       ?AddRef@?$CComContainedObject@VCOPOSScale@@@ATL@@WJM@AGKXZ 1000abef f i Scale.obj
 0001:00009bfc       ?AddRef@?$CComContainedObject@VCOPOSScale@@@ATL@@WKA@AGKXZ 1000abfc f i Scale.obj
 0001:00009c09       ?AddRef@?$CComContainedObject@VCOPOSScale@@@ATL@@WKI@AGKXZ 1000ac09 f i Scale.obj
 0001:00009c16       ?AddRef@?$CComContainedObject@VCOPOSScale@@@ATL@@WLE@AGKXZ 1000ac16 f i Scale.obj
 0001:00009c30       ?AddRef@?$CComObject@V?$CComEnum@UIEnumConnectionPoints@@$1?_GUID_b196b285_bab4_101a_b69c_00aa00341d07@@3U__s_GUID@@BPAUIConnectionPoint@@V?$_CopyInterface@UIConnectionPoint@@@ATL@@VCComSingleThreadModel@6@@ATL@@@ATL@@UAGKXZ 1000ac30 f i Scale.obj
 0001:00009c50       ?AddRef@?$CComObject@V?$CComEnum@UIEnumConnections@@$1?_GUID_b196b287_bab4_101a_b69c_00aa00341d07@@3U__s_GUID@@BUtagCONNECTDATA@@V?$_Copy@UtagCONNECTDATA@@@ATL@@VCComSingleThreadModel@6@@ATL@@@ATL@@UAGKXZ 1000ac50 f i Scale.obj
 0001:00009c70       ?AddRef@?$CComObject@VCOPOSScale@@@ATL@@UAGKXZ 1000ac70 f i Scale.obj
 0001:00009c8c       ?AddRef@?$CComObject@VCOPOSScale@@@ATL@@WHA@AGKXZ 1000ac8c f i Scale.obj
 0001:00009c96       ?AddRef@?$CComObject@VCOPOSScale@@@ATL@@WHE@AGKXZ 1000ac96 f i Scale.obj
 0001:00009ca0       ?AddRef@?$CComObject@VCOPOSScale@@@ATL@@WHI@AGKXZ 1000aca0 f i Scale.obj
 0001:00009caa       ?AddRef@?$CComObject@VCOPOSScale@@@ATL@@WHM@AGKXZ 1000acaa f i Scale.obj
 0001:00009cb4       ?AddRef@?$CComObject@VCOPOSScale@@@ATL@@WIA@AGKXZ 1000acb4 f i Scale.obj
 0001:00009cc1       ?AddRef@?$CComObject@VCOPOSScale@@@ATL@@WIE@AGKXZ 1000acc1 f i Scale.obj
 0001:00009cce       ?AddRef@?$CComObject@VCOPOSScale@@@ATL@@WII@AGKXZ 1000acce f i Scale.obj
 0001:00009cdb       ?AddRef@?$CComObject@VCOPOSScale@@@ATL@@WIM@AGKXZ 1000acdb f i Scale.obj
 0001:00009ce8       ?AddRef@?$CComObject@VCOPOSScale@@@ATL@@WJA@AGKXZ 1000ace8 f i Scale.obj
 0001:00009cf5       ?AddRef@?$CComObject@VCOPOSScale@@@ATL@@WJE@AGKXZ 1000acf5 f i Scale.obj
 0001:00009d02       ?AddRef@?$CComObject@VCOPOSScale@@@ATL@@WJI@AGKXZ 1000ad02 f i Scale.obj
 0001:00009d0f       ?AddRef@?$CComObject@VCOPOSScale@@@ATL@@WJM@AGKXZ 1000ad0f f i Scale.obj
 0001:00009d1c       ?AddRef@?$CComObject@VCOPOSScale@@@ATL@@WKA@AGKXZ 1000ad1c f i Scale.obj
 0001:00009d29       ?AddRef@?$CComObject@VCOPOSScale@@@ATL@@WKI@AGKXZ 1000ad29 f i Scale.obj
 0001:00009d36       ?AddRef@?$CComObject@VCOPOSScale@@@ATL@@WLE@AGKXZ 1000ad36 f i Scale.obj
 0001:00009d50       ?AddRef@?$CComObjectCached@VCComClassFactory@ATL@@@ATL@@UAGKXZ 1000ad50 f i Scale.obj
 0001:00009da0       ?AddRef@CRegObject@ATL@@UAGKXZ 1000ada0 f i Scale.obj
 0001:00009df0       ?AddReplacement@CRegObject@ATL@@UAGJPB_W0@Z 1000adf0 f i Scale.obj
 0001:00009f00       ?AddString@CParseBuffer@CRegParser@ATL@@QAEHPB_W@Z 1000af00 f i Scale.obj
 0001:00009ff0       ?AddTermFunc@CAtlModule@ATL@@QAEJP6GXK@ZK@Z 1000aff0 f i Scale.obj
 0001:0000a040       ?AddValue@CRegParser@ATL@@IAEJAAVCRegKey@2@PB_WPA_W@Z 1000b040 f i Scale.obj
 0001:0000a7d0       ?Advise@?$CProxy_IOPOSEvents@VCOPOSScale@@@@UAGJPAUIUnknown@@PAK@Z 1000b7d0 f i Scale.obj
 0001:0000a820       ?Advise@?$IConnectionPointImpl@VCOPOSScale@@$1?DIID__IOPOSScaleEvents@@3U_GUID@@BVCComDynamicUnkArray@ATL@@@ATL@@UAGJPAUIUnknown@@PAK@Z 1000b820 f i Scale.obj
 0001:0000a9c0       ?Advise@?$IConnectionPointImpl@VCOPOSScale@@$1?IID_IPropertyNotifySink@@3U_GUID@@BVCComDynamicUnkArray@ATL@@@ATL@@UAGJPAUIUnknown@@PAK@Z 1000b9c0 f i Scale.obj
 0001:0000ab60       ?Advise@?$IOleObjectImpl@VCOPOSScale@@@ATL@@UAGJPAUIAdviseSink@@PAK@Z 1000bb60 f i Scale.obj
 0001:0000abf0       ?Allocate@?$CAtlSafeAllocBufferManager@VCCRTAllocator@ATL@@@_ATL_SAFE_ALLOCA_IMPL@ATL@@QAEPAXK@Z 1000bbf0 f i Scale.obj
 0001:0000ac60       ?Allocate@?$CTempBuffer@E$0BAA@VCCRTAllocator@ATL@@@ATL@@QAEPAEI@Z 1000bc60 f i Scale.obj
 0001:0000aca0       ?Allocate@?$CTempBuffer@_W$0BAA@VCCRTAllocator@ATL@@@ATL@@QAEPA_WI@Z 1000bca0 f i Scale.obj
 0001:0000ace0       ?Allocate@?$CTempBuffer@_W$0EAA@VCCRTAllocator@ATL@@@ATL@@QAEPA_WI@Z 1000bce0 f i Scale.obj
 0001:0000ad20       ?AllocateBytes@?$CTempBuffer@E$0BAA@VCCRTAllocator@ATL@@@ATL@@QAEPAEI@Z 1000bd20 f i Scale.obj
 0001:0000ada0       ?AllocateBytes@?$CTempBuffer@_W$0BAA@VCCRTAllocator@ATL@@@ATL@@QAEPA_WI@Z 1000bda0 f i Scale.obj
 0001:0000ae20       ?AllocateBytes@?$CTempBuffer@_W$0EAA@VCCRTAllocator@ATL@@@ATL@@QAEPA_WI@Z 1000be20 f i Scale.obj
 0001:0000aea0       ?AllocateHeap@?$CTempBuffer@E$0BAA@VCCRTAllocator@ATL@@@ATL@@AAEXI@Z 1000bea0 f i Scale.obj
 0001:0000aef0       ?AllocateHeap@?$CTempBuffer@_W$0BAA@VCCRTAllocator@ATL@@@ATL@@AAEXI@Z 1000bef0 f i Scale.obj
 0001:0000af40       ?AllocateHeap@?$CTempBuffer@_W$0EAA@VCCRTAllocator@ATL@@@ATL@@AAEXI@Z 1000bf40 f i Scale.obj
 0001:0000af90       ?Append@CParseBuffer@CRegParser@ATL@@QAEHPB_WH@Z 1000bf90 f i Scale.obj
 0001:0000b130       ?AtlCallTermFunc@ATL@@YGXPAU_ATL_MODULE70@1@@Z 1000c130 f i Scale.obj
 0001:0000b1d0       ?AtlCoTaskMemCAlloc@ATL@@YAPAXKK@Z 1000c1d0 f i Scale.obj
 0001:0000b260       ?AtlCoTaskMemRecalloc@ATL@@YAPAXPAXKK@Z 1000c260 f i Scale.obj
 0001:0000b300       ?AtlComModuleGetClassObject@ATL@@YGJPAU_ATL_COM_MODULE70@1@ABU_GUID@@1PAPAX@Z 1000c300 f i Scale.obj
 0001:0000b590       ?AtlComModuleRegisterServer@ATL@@YGJPAU_ATL_COM_MODULE70@1@HPBU_GUID@@@Z 1000c590 f i Scale.obj
 0001:0000b720       ?AtlComModuleUnregisterServer@ATL@@YGJPAU_ATL_COM_MODULE70@1@HPBU_GUID@@@Z 1000c720 f i Scale.obj
 0001:0000b850       ?AtlComQIPtrAssign2@ATL@@YAXPAPAUIUnknown@@PAU2@ABU_GUID@@@Z 1000c850 f i Scale.obj
 0001:0000b8d0       ?AtlCreateTargetDC@ATL@@YGPAUHDC__@@PAU2@PAUtagDVTARGETDEVICE@@@Z 1000c8d0 f i Scale.obj
 0001:0000ba70       ?AtlCrtErrorCheck@ATL@@YAHH@Z 1000ca70 f i Scale.obj
 0001:0000bb40       ?AtlGetPerUserRegistration@ATL@@YGJPA_N@Z 1000cb40 f i Scale.obj
 0001:0000bb70       ?AtlHiMetricToPixel@ATL@@YGXPBUtagSIZE@@PAU2@@Z 1000cb70 f i Scale.obj
 0001:0000bd40       ?AtlHresultFromLastError@ATL@@YAJXZ 1000cd40 f i Scale.obj
 0001:0000bd80       ?AtlHresultFromWin32@ATL@@YAJK@Z 1000cd80 f i Scale.obj
 0001:0000bda0       ?AtlIPersistStreamInit_Load@ATL@@YGJPAUIStream@@PBUATL_PROPMAP_ENTRY@1@PAXPAUIUnknown@@@Z 1000cda0 f i Scale.obj
 0001:0000c200       ?AtlIPersistStreamInit_Save@ATL@@YGJPAUIStream@@HPBUATL_PROPMAP_ENTRY@1@PAXPAUIUnknown@@@Z 1000d200 f i Scale.obj
 0001:0000c5e0       ?AtlInternalOleLoadFromStream@ATL@@YAJPAUIStream@@ABU_GUID@@PAPAXTClassesAllowedInStream@1@K@Z 1000d5e0 f i Scale.obj
 0001:0000c880       ?AtlInternalQueryInterface@ATL@@YGJPAXPBU_ATL_INTMAP_ENTRY@1@ABU_GUID@@PAPAX@Z 1000d880 f i Scale.obj
 0001:0000cab0       ?AtlLoadTypeLib@ATL@@YGJPAUHINSTANCE__@@PB_WPAPA_WPAPAUITypeLib@@@Z 1000dab0 f i Scale.obj
 0001:0000cf10       ?AtlModuleAddTermFunc@ATL@@YGJPAU_ATL_MODULE70@1@P6GXK@ZK@Z 1000df10 f i Scale.obj
 0001:0000d070       ?AtlRegisterClassCategoriesHelper@ATL@@YGJABU_GUID@@PBU_ATL_CATMAP_ENTRY@1@H@Z 1000e070 f i Scale.obj
 0001:0000d750       ?AtlRegisterTypeLib@ATL@@YGJPAUHINSTANCE__@@PB_W@Z 1000e750 f i Scale.obj
 0001:0000da90       ?AtlThrowImpl@ATL@@YGXJ@Z  1000ea90 f i Scale.obj
 0001:0000db40       ?AtlUnRegisterTypeLib@ATL@@YGJPAUHINSTANCE__@@PB_W@Z 1000eb40 f i Scale.obj
 0001:0000dd50       ?AtlWinModuleAddCreateWndData@ATL@@YGXPAU_ATL_WIN_MODULE70@1@PAU_AtlCreateWndData@1@PAX@Z 1000ed50 f i Scale.obj
 0001:0000dec0       ?AtlWinModuleExtractCreateWndData@ATL@@YGPAXPAU_ATL_WIN_MODULE70@1@@Z 1000eec0 f i Scale.obj
 0001:0000e040       ?AtlWinModuleRegisterClassExW@ATL@@YGGPAU_ATL_WIN_MODULE70@1@PBUtagWNDCLASSEXW@@@Z 1000f040 f i Scale.obj
 0001:0000e110       ?AtlWinModuleRegisterWndClassInfoW@ATL@@YGGPAU_ATL_WIN_MODULE70@1@PAU_ATL_BASE_MODULE70@1@PAU_ATL_WNDCLASSINFOW@1@PAP6GJPAUHWND__@@IIJ@Z@Z 1000f110 f i Scale.obj
 0001:0000e1a0       ?Attach@?$CAutoVectorPtr@_W@ATL@@QAEXPA_W@Z 1000f1a0 f i Scale.obj
 0001:0000e200       ?Attach@CComBSTR@ATL@@QAEXPA_W@Z 1000f200 f i Scale.obj
 0001:0000e250       ?Attach@CRegKey@ATL@@QAEXPAUHKEY__@@@Z 1000f250 f i Scale.obj
 0001:0000e2c0       ?CanForceRemoveKey@CRegParser@ATL@@IAEHPB_W@Z 1000f2c0 f i Scale.obj
 0001:0000e330       ?ChToByte@CRegParser@ATL@@KAE_W@Z 1000f330 f i Scale.obj
 0001:0000e450       ?ChangeType@CComVariant@ATL@@QAEJGPBUtagVARIANT@@@Z 1000f450 f i Scale.obj
 0001:0000e4b0       ?Cleanup@CComTypeInfoHolder@ATL@@SGXK@Z 1000f4b0 f i Scale.obj
 0001:0000e580       ?Clear@CComVariant@ATL@@QAEJXZ 1000f580 f i Scale.obj
 0001:0000e5c0       ?ClearReplacements@CExpansionVector@ATL@@QAEJXZ 1000f5c0 f i Scale.obj
 0001:0000e650       ?ClearReplacements@CRegObject@ATL@@UAGJXZ 1000f650 f i Scale.obj
 0001:0000e6a0       ?Clone@?$CComEnumImpl@UIEnumConnectionPoints@@$1?_GUID_b196b285_bab4_101a_b69c_00aa00341d07@@3U__s_GUID@@BPAUIConnectionPoint@@V?$_CopyInterface@UIConnectionPoint@@@ATL@@@ATL@@UAGJPAPAUIEnumConnectionPoints@@@Z 1000f6a0 f i Scale.obj
 0001:0000e810       ?Clone@?$CComEnumImpl@UIEnumConnections@@$1?_GUID_b196b287_bab4_101a_b69c_00aa00341d07@@3U__s_GUID@@BUtagCONNECTDATA@@V?$_Copy@UtagCONNECTDATA@@@ATL@@@ATL@@UAGJPAPAUIEnumConnections@@@Z 1000f810 f i Scale.obj
 0001:0000e980       ?Close@?$IOleObjectImpl@VCOPOSScale@@@ATL@@UAGJK@Z 1000f980 f i Scale.obj
 0001:0000ea10       ?Close@CRegKey@ATL@@QAEJXZ 1000fa10 f i Scale.obj
 0001:0000ea80       ?ContextSensitiveHelp@?$IOleInPlaceActiveObjectImpl@VCOPOSScale@@@ATL@@UAGJH@Z 1000fa80 f i Scale.obj
 0001:0000eaf0       ?ContextSensitiveHelp@?$IOleInPlaceObjectWindowlessImpl@VCOPOSScale@@@ATL@@UAGJH@Z 1000faf0 f i Scale.obj
 0001:0000eb60       ?ControlQueryInterface@?$CComControl@VCOPOSScale@@V?$CWindowImpl@VCOPOSScale@@VCWindow@ATL@@V?$CWinTraits@$0FGAAAAAA@$0A@@3@@ATL@@@ATL@@UAEJABU_GUID@@PAPAX@Z 1000fb60 f i Scale.obj
 0001:0000ebe0       ?CreateControlWindow@?$CComControl@VCOPOSScale@@V?$CWindowImpl@VCOPOSScale@@VCWindow@ATL@@V?$CWinTraits@$0FGAAAAAA@$0A@@3@@ATL@@@ATL@@UAEPAUHWND__@@PAU3@AAUtagRECT@@@Z 1000fbe0 f i Scale.obj
 0001:0000ec60       ?CreateInstance@?$CComCreator@V?$CComAggObject@VCOPOSScale@@@ATL@@@ATL@@SGJPAXABU_GUID@@PAPAX@Z 1000fc60 f i Scale.obj
 0001:0000ede0       ?CreateInstance@?$CComCreator@V?$CComObject@VCOPOSScale@@@ATL@@@ATL@@SGJPAXABU_GUID@@PAPAX@Z 1000fde0 f i Scale.obj
 0001:0000ef70       ?CreateInstance@?$CComObject@V?$CComEnum@UIEnumConnectionPoints@@$1?_GUID_b196b285_bab4_101a_b69c_00aa00341d07@@3U__s_GUID@@BPAUIConnectionPoint@@V?$_CopyInterface@UIConnectionPoint@@@ATL@@VCComSingleThreadModel@6@@ATL@@@ATL@@SGJPAPAV12@@Z 1000ff70 f i Scale.obj
 0001:0000f0e0       ?CreateInstance@?$CComObject@V?$CComEnum@UIEnumConnections@@$1?_GUID_b196b287_bab4_101a_b69c_00aa00341d07@@3U__s_GUID@@BUtagCONNECTDATA@@V?$_Copy@UtagCONNECTDATA@@@ATL@@VCComSingleThreadModel@6@@ATL@@@ATL@@SGJPAPAV12@@Z 100100e0 f i Scale.obj
 0001:0000f250       ?CreateInstance@CComClassFactory@ATL@@UAGJPAUIUnknown@@ABU_GUID@@PAPAX@Z 10010250 f i Scale.obj
 0001:0000f340       ?DAdvise@?$IDataObjectImpl@VCOPOSScale@@@ATL@@UAGJPAUtagFORMATETC@@KPAUIAdviseSink@@PAK@Z 10010340 f i Scale.obj
 0001:0000f440       ?DEVMODEOLE2T_EX@@YAPAU_devicemodeW@@PAU1@@Z 10010440 f i Scale.obj
 0001:0000f450       ?DUnadvise@?$IDataObjectImpl@VCOPOSScale@@@ATL@@UAGJK@Z 10010450 f i Scale.obj
 0001:0000f520       ?Decrement@CComMultiThreadModel@ATL@@SGKPAJ@Z 10010520 f i Scale.obj
 0001:0000f540       ?Decrement@CComSingleThreadModel@ATL@@SGKPAJ@Z 10010540 f i Scale.obj
 0001:0000f560       ?DefWindowProcW@?$CWindowImplBaseT@VCWindow@ATL@@V?$CWinTraits@$0FGAAAAAA@$0A@@2@@ATL@@QAEJIIJ@Z 10010560 f i Scale.obj
 0001:0000f5b0       ?DefaultReflectionHandler@?$CWindowImplRoot@VCWindow@ATL@@@ATL@@SAHPAUHWND__@@IIJAAJ@Z 100105b0 f i Scale.obj
 0001:0000f7a0       ?DeleteSubKey@CRegKey@ATL@@QAEJPB_W@Z 100107a0 f i Scale.obj
 0001:0000f8b0       ?DeleteValue@CRegKey@ATL@@QAEJPB_W@Z 100108b0 f i Scale.obj
 0001:0000f920       ?Detach@?$CAutoVectorPtr@_W@ATL@@QAEPA_WXZ 10010920 f i Scale.obj
 0001:0000f950       ?Detach@?$CComPtrBase@UIPersistStream@@@ATL@@QAEPAUIPersistStream@@XZ 10010950 f i Scale.obj
 0001:0000f980       ?Detach@?$CComPtrBase@UITypeInfo@@@ATL@@QAEPAUITypeInfo@@XZ 10010980 f i Scale.obj
 0001:0000f9b0       ?Detach@?$CComPtrBase@UIUnknown@@@ATL@@QAEPAUIUnknown@@XZ 100109b0 f i Scale.obj
 0001:0000f9e0       ?Detach@CComBSTR@ATL@@QAEPA_WXZ 100109e0 f i Scale.obj
 0001:0000fa10       ?Detach@CParseBuffer@CRegParser@ATL@@QAEPA_WXZ 10010a10 f i Scale.obj
 0001:0000fa60       ?Detach@CRegKey@ATL@@QAEPAUHKEY__@@XZ 10010a60 f i Scale.obj
 0001:0000fab0       ?DoEvent@COPOSScale@@IAEXIIJ@Z 10010ab0 f i Scale.obj
 0001:0000fbf0       ?DoVerb@?$IOleObjectImpl@VCOPOSScale@@@ATL@@UAGJJPAUtagMSG@@PAUIOleClientSite@@JPAUHWND__@@PBUtagRECT@@@Z 10010bf0 f i Scale.obj
 0001:0000fe00       ?DoVerbDiscardUndo@?$IOleObjectImpl@VCOPOSScale@@@ATL@@QAEJPBUtagRECT@@PAUHWND__@@@Z 10010e00 f i Scale.obj
 0001:0000fe70       ?DoVerbHide@?$IOleObjectImpl@VCOPOSScale@@@ATL@@QAEJPBUtagRECT@@PAUHWND__@@@Z 10010e70 f i Scale.obj
 0001:0000ff20       ?DoVerbInPlaceActivate@?$IOleObjectImpl@VCOPOSScale@@@ATL@@QAEJPBUtagRECT@@PAUHWND__@@@Z 10010f20 f i Scale.obj
 0001:0000ffc0       ?DoVerbOpen@?$IOleObjectImpl@VCOPOSScale@@@ATL@@QAEJPBUtagRECT@@PAUHWND__@@@Z 10010fc0 f i Scale.obj
 0001:00010030       ?DoVerbPrimary@?$IOleObjectImpl@VCOPOSScale@@@ATL@@QAEJPBUtagRECT@@PAUHWND__@@@Z 10011030 f i Scale.obj
 0001:00010140       ?DoVerbProperties@CComControlBase@ATL@@QAEJPBUtagRECT@@PAUHWND__@@@Z 10011140 f i Scale.obj
 0001:00010460       ?DoVerbShow@?$IOleObjectImpl@VCOPOSScale@@@ATL@@QAEJPBUtagRECT@@PAUHWND__@@@Z 10011460 f i Scale.obj
 0001:000104f0       ?DoVerbUIActivate@?$IOleObjectImpl@VCOPOSScale@@@ATL@@QAEJPBUtagRECT@@PAUHWND__@@@Z 100114f0 f i Scale.obj
 0001:00010590       ?DoesVerbActivate@CComControlBase@ATL@@QAEHJ@Z 10011590 f i Scale.obj
 0001:00010600       ?DoesVerbUIActivate@CComControlBase@ATL@@QAEHJ@Z 10011600 f i Scale.obj
 0001:00010680       ?Draw@?$IViewObjectExImpl@VCOPOSScale@@@ATL@@UAGJKJPAXPAUtagDVTARGETDEVICE@@PAUHDC__@@2PBU_RECTL@@3P6GHK@ZK@Z 10011680 f i Scale.obj
 0001:00010720       ?Empty@CComBSTR@ATL@@QAEXXZ 10011720 f i Scale.obj
 0001:00010760       ?EnableModeless@?$IOleInPlaceActiveObjectImpl@VCOPOSScale@@@ATL@@UAGJH@Z 10011760 f i Scale.obj
 0001:000107c0       ?EndOfVar@CRegParser@ATL@@IAEHXZ 100117c0 f i Scale.obj
 0001:00010830       ?EnsureTI@CComTypeInfoHolder@ATL@@QAEJK@Z 10011830 f i Scale.obj
 0001:00010890       ?EnumAdvise@?$IOleObjectImpl@VCOPOSScale@@@ATL@@UAGJPAPAUIEnumSTATDATA@@@Z 10011890 f i Scale.obj
 0001:000109a0       ?EnumConnectionPoints@?$IConnectionPointContainerImpl@VCOPOSScale@@@ATL@@UAGJPAPAUIEnumConnectionPoints@@@Z 100119a0 f i Scale.obj
 0001:00010dd0       ?EnumConnections@?$IConnectionPointImpl@VCOPOSScale@@$1?DIID__IOPOSScaleEvents@@3U_GUID@@BVCComDynamicUnkArray@ATL@@@ATL@@UAGJPAPAUIEnumConnections@@@Z 10011dd0 f i Scale.obj
 0001:00011020       ?EnumConnections@?$IConnectionPointImpl@VCOPOSScale@@$1?IID_IPropertyNotifySink@@3U_GUID@@BVCComDynamicUnkArray@ATL@@@ATL@@UAGJPAPAUIEnumConnections@@@Z 10012020 f i Scale.obj
 0001:00011270       ?EnumDAdvise@?$IDataObjectImpl@VCOPOSScale@@@ATL@@UAGJPAPAUIEnumSTATDATA@@@Z 10012270 f i Scale.obj
 0001:00011370       ?EnumFormatEtc@?$IDataObjectImpl@VCOPOSScale@@@ATL@@UAGJKPAPAUIEnumFORMATETC@@@Z 10012370 f i Scale.obj
 0001:000113e0       ?EnumVerbs@?$IOleObjectImpl@VCOPOSScale@@@ATL@@UAGJPAPAUIEnumOLEVERB@@@Z 100123e0 f i Scale.obj
 0001:00011490       ?EscapeSingleQuote@CAtlModule@ATL@@SAXPA_WIPB_W@Z 10012490 f i Scale.obj
 0001:00011540       ?ExtractCreateWndData@CAtlWinModule@ATL@@QAEPAXXZ 10012540 f i Scale.obj
 0001:00011570       ?FAccessAllowed@?$IObjectSafetyImpl@VCOPOSScale@@$02@ATL@@MAEHXZ 10012570 f i Scale.obj
 0001:00011590       ?FinalConstruct@?$CComAggObject@VCOPOSScale@@@ATL@@QAEJXZ 10012590 f i Scale.obj
 0001:000115d0       ?FinalConstruct@CComObjectRootBase@ATL@@QAEJXZ 100125d0 f i Scale.obj
 0001:000115f0       ?FinalConstruct@CRegObject@ATL@@QAEJXZ 100125f0 f i Scale.obj
 0001:00011620       ?FinalRelease@?$CComAggObject@VCOPOSScale@@@ATL@@QAEXXZ 10012620 f i Scale.obj
 0001:00011660       ?FinalRelease@CComObjectRootBase@ATL@@QAEXXZ 10012660 f i Scale.obj
 0001:00011680       ?FindConnectionPoint@?$IConnectionPointContainerImpl@VCOPOSScale@@@ATL@@UAGJABU_GUID@@PAPAUIConnectionPoint@@@Z 10012680 f i Scale.obj
 0001:000117d0       ?FindKey@?$CSimpleMap@PA_WPA_WVCExpansionVectorEqualHelper@ATL@@@ATL@@QBEHABQA_W@Z 100127d0 f i Scale.obj
 0001:00011840       ?FireTheEvent@?$CProxy_IOPOSEvents@VCOPOSScale@@@@IAEXPAUIUnknown@@PAVOposVariant@@IAAJPB_WJ@Z 10012840 f i Scale.obj
 0001:000119b0       ?FireViewChange@CComControlBase@ATL@@QAEJXZ 100129b0 f i Scale.obj
 0001:00011a70       ?Fire_DataEvent@?$CProxy_IOPOSEvents@VCOPOSScale@@@@QAEXJ@Z 10012a70 f i Scale.obj
 0001:00011bd0       ?Fire_DirectIOEvent@?$CProxy_IOPOSEvents@VCOPOSScale@@@@QAEXJPAJPAPA_W@Z 10012bd0 f i Scale.obj
 0001:00011da0       ?Fire_ErrorEvent@?$CProxy_IOPOSEvents@VCOPOSScale@@@@QAEXJJJPAJ@Z 10012da0 f i Scale.obj
 0001:00011f90       ?Fire_StatusUpdateEvent@?$CProxy_IOPOSEvents@VCOPOSScale@@@@QAEXJ@Z 10012f90 f i Scale.obj
 0001:000120f0       ?FormatWindowClassName@AtlModuleRegisterWndClassInfoParamW@ATL@@SAXPA_WKPAX@Z 100130f0 f i Scale.obj
 0001:00012120       ?Free@?$CAutoVectorPtr@_W@ATL@@QAEXXZ 10013120 f i Scale.obj
 0001:00012170       ?FreeHeap@?$CTempBuffer@E$0BAA@VCCRTAllocator@ATL@@@ATL@@AAEXXZ 10013170 f i Scale.obj
 0001:000121a0       ?FreeHeap@?$CTempBuffer@_W$0BAA@VCCRTAllocator@ATL@@@ATL@@AAEXXZ 100131a0 f i Scale.obj
 0001:000121d0       ?FreeHeap@?$CTempBuffer@_W$0EAA@VCCRTAllocator@ATL@@@ATL@@AAEXXZ 100131d0 f i Scale.obj
 0001:00012200       ?Freeze@?$IViewObjectExImpl@VCOPOSScale@@@ATL@@UAGJKJPAXPAK@Z 10013200 f i Scale.obj
 0001:00012270       ?GenerateError@CRegParser@ATL@@IAEJI@Z 10013270 f i Scale.obj
 0001:00012290       ?GetAdvise@?$IViewObjectExImpl@VCOPOSScale@@@ATL@@UAGJPAK0PAPAUIAdviseSink@@@Z 10013290 f i Scale.obj
 0001:00012390       ?GetAmbientLocaleID@CComControlBase@ATL@@QAEJAAK@Z 10013390 f i Scale.obj
 0001:00012470       ?GetAmbientProperty@CComControlBase@ATL@@QAEJJAAUtagVARIANT@@@Z 10013470 f i Scale.obj
 0001:000124c0       ?GetAmbientUserMode@CComControlBase@ATL@@QAEJAAH@Z 100134c0 f i Scale.obj
 0001:000125c0       ?GetAppId@?$CAtlModuleT@VCComModule@ATL@@@ATL@@SAPB_WXZ 100135c0 f i Scale.obj
 0001:000125d0       ?GetAt@CComDynamicUnkArray@ATL@@QAEPAUIUnknown@@H@Z 100135d0 f i Scale.obj
 0001:00012650       ?GetCanonicalFormatEtc@?$IDataObjectImpl@VCOPOSScale@@@ATL@@UAGJPAUtagFORMATETC@@0@Z 10013650 f i Scale.obj
 0001:000126c0       ?GetClassID@?$IPersistStorageImpl@VCOPOSScale@@@ATL@@UAGJPAU_GUID@@@Z 100136c0 f i Scale.obj
 0001:00012740       ?GetClassID@?$IPersistStreamInitImpl@VCOPOSScale@@@ATL@@UAGJPAU_GUID@@@Z 10013740 f i Scale.obj
 0001:000127c0       ?GetClassInfoExW@AtlModuleRegisterWndClassInfoParamW@ATL@@SAHPAUHINSTANCE__@@PB_WPAUtagWNDCLASSEXW@@@Z 100137c0 f i Scale.obj
 0001:000127f0       ?GetClassInfoW@?$IProvideClassInfo2Impl@$1?CLSID_OPOSScale@@3U_GUID@@B$1?DIID__IOPOSScaleEvents@@3U2@B$1?LIBID_OposScale_CCO@@3U2@B$00$0A@VCComTypeInfoHolder@ATL@@@ATL@@UAGJPAPAUITypeInfo@@@Z 100137f0 f i Scale.obj
 0001:00012810       ?GetClassObject@CComModule@ATL@@QAEJABU_GUID@@0PAPAX@Z 10013810 f i Scale.obj
 0001:00012a10       ?GetClientSite@?$IOleObjectImpl@VCOPOSScale@@@ATL@@UAGJPAPAUIOleClientSite@@@Z 10013a10 f i Scale.obj
 0001:00012aa0       ?GetClipboardData@?$IOleObjectImpl@VCOPOSScale@@@ATL@@UAGJKPAPAUIDataObject@@@Z 10013aa0 f i Scale.obj
 0001:00012b10       ?GetCodeAddress@CDynamicStdCallThunk2@ATL@@QAEPAXXZ 10013b10 f i Scale.obj
 0001:00012b40       ?GetColorSet@?$IViewObjectExImpl@VCOPOSScale@@@ATL@@UAGJKJPAXPAUtagDVTARGETDEVICE@@PAUHDC__@@PAPAUtagLOGPALETTE@@@Z 10013b40 f i Scale.obj
 0001:00012bb0       ?GetConnMap@COPOSScale@@SAPBU_ATL_CONNMAP_ENTRY@ATL@@PAH@Z 10013bb0 f i Scale.obj
 0001:00012cf0       ?GetConnectionInterface@?$IConnectionPointImpl@VCOPOSScale@@$1?DIID__IOPOSScaleEvents@@3U_GUID@@BVCComDynamicUnkArray@ATL@@@ATL@@UAGJPAU_GUID@@@Z 10013cf0 f i Scale.obj
 0001:00012d30       ?GetConnectionInterface@?$IConnectionPointImpl@VCOPOSScale@@$1?IID_IPropertyNotifySink@@3U_GUID@@BVCComDynamicUnkArray@ATL@@@ATL@@UAGJPAU_GUID@@@Z 10013d30 f i Scale.obj
 0001:00012d70       ?GetConnectionPointContainer@?$IConnectionPointImpl@VCOPOSScale@@$1?DIID__IOPOSScaleEvents@@3U_GUID@@BVCComDynamicUnkArray@ATL@@@ATL@@UAGJPAPAUIConnectionPointContainer@@@Z 10013d70 f i Scale.obj
 0001:00012de0       ?GetConnectionPointContainer@?$IConnectionPointImpl@VCOPOSScale@@$1?IID_IPropertyNotifySink@@3U_GUID@@BVCComDynamicUnkArray@ATL@@@ATL@@UAGJPAPAUIConnectionPointContainer@@@Z 10013de0 f i Scale.obj
 0001:00012e50       ?GetContentExtent@?$IQuickActivateImpl@VCOPOSScale@@@ATL@@UAGJPAUtagSIZE@@@Z 10013e50 f i Scale.obj
 0001:00012ee0       ?GetControlInfo@?$IOleControlImpl@VCOPOSScale@@@ATL@@UAGJPAUtagCONTROLINFO@@@Z 10013ee0 f i Scale.obj
 0001:00012f50       ?GetCookie@CComDynamicUnkArray@ATL@@QAGKPAPAUIUnknown@@@Z 10013f50 f i Scale.obj
 0001:00013010       ?GetData@?$IDataObjectImpl@VCOPOSScale@@@ATL@@UAGJPAUtagFORMATETC@@PAUtagSTGMEDIUM@@@Z 10014010 f i Scale.obj
 0001:000130a0       ?GetData@CAtlSafeAllocBufferNode@?$CAtlSafeAllocBufferManager@VCCRTAllocator@ATL@@@_ATL_SAFE_ALLOCA_IMPL@ATL@@QAEPAXXZ 100140a0 f i Scale.obj
 0001:000130c0       ?GetDataHere@?$IDataObjectImpl@VCOPOSScale@@@ATL@@UAGJPAUtagFORMATETC@@PAUtagSTGMEDIUM@@@Z 100140c0 f i Scale.obj
 0001:00013130       ?GetDropTarget@?$IOleInPlaceObjectWindowlessImpl@VCOPOSScale@@@ATL@@UAGJPAPAUIDropTarget@@@Z 10014130 f i Scale.obj
 0001:000131a0       ?GetExtent@?$IOleObjectImpl@VCOPOSScale@@@ATL@@UAGJKPAUtagSIZE@@@Z 100141a0 f i Scale.obj
 0001:00013240       ?GetExtent@?$IViewObjectExImpl@VCOPOSScale@@@ATL@@UAGJKJPAUtagDVTARGETDEVICE@@PAUtagSIZE@@@Z 10014240 f i Scale.obj
 0001:00013310       ?GetGITPtr@CAtlModule@ATL@@UAEJPAPAUIGlobalInterfaceTable@@@Z 10014310 f i Scale.obj
 0001:00013410       ?GetGUID@?$IProvideClassInfo2Impl@$1?CLSID_OPOSScale@@3U_GUID@@B$1?DIID__IOPOSScaleEvents@@3U2@B$1?LIBID_OposScale_CCO@@3U2@B$00$0A@VCComTypeInfoHolder@ATL@@@ATL@@UAGJKPAU_GUID@@@Z 10014410 f i Scale.obj
 0001:00013490       ?GetIDsOfNames@?$IDispatchImpl@UIOPOSScale@@$1?IID_IOPOSScale@@3U_GUID@@B$1?LIBID_OposScale_CCO@@3U3@B$00$0A@VCComTypeInfoHolder@ATL@@@ATL@@UAGJABU_GUID@@PAPA_WIKPAJ@Z 10014490 f i Scale.obj
 0001:000134c0       ?GetIDsOfNames@CComTypeInfoHolder@ATL@@QAEJABU_GUID@@PAPA_WIKPAJ@Z 100144c0 f i Scale.obj
 0001:00013670       ?GetInterfaceSafetyOptions@?$IObjectSafetyImpl@VCOPOSScale@@$02@ATL@@UAGJABU_GUID@@PAK1@Z 10014670 f i Scale.obj
 0001:000137e0       ?GetKeyAt@?$CSimpleMap@PA_WPA_WVCExpansionVectorEqualHelper@ATL@@@ATL@@QBEAAPA_WH@Z 100147e0 f i Scale.obj
 0001:00013860       ?GetLockCount@CAtlModule@ATL@@UAEJXZ 10014860 f i Scale.obj
 0001:00013880       ?GetMiscStatus@?$IOleObjectImpl@VCOPOSScale@@@ATL@@UAGJKPAK@Z 10014880 f i Scale.obj
 0001:000138f0       ?GetMoniker@?$IOleObjectImpl@VCOPOSScale@@@ATL@@UAGJKKPAPAUIMoniker@@@Z 100148f0 f i Scale.obj
 0001:00013960       ?GetNaturalExtent@?$IViewObjectExImpl@VCOPOSScale@@@ATL@@UAGJKJPAUtagDVTARGETDEVICE@@PAUHDC__@@PAUtagExtentInfo@@PAUtagSIZE@@@Z 10014960 f i Scale.obj
 0001:00013a80       ?GetObjectCLSID@?$CComCoClass@VCOPOSScale@@$1?CLSID_OPOSScale@@3U_GUID@@B@ATL@@SGABU_GUID@@XZ 10014a80 f i Scale.obj
 0001:00013a90       ?GetPages@?$ISpecifyPropertyPagesImpl@VCOPOSScale@@@ATL@@UAGJPAUtagCAUUID@@@Z 10014a90 f i Scale.obj
 0001:00013b00       ?GetPagesHelper@?$ISpecifyPropertyPagesImpl@VCOPOSScale@@@ATL@@IAEJPAUtagCAUUID@@PBUATL_PROPMAP_ENTRY@2@@Z 10014b00 f i Scale.obj
 0001:00013d00       ?GetProperty@?$CComPtr@UIDispatch@@@ATL@@QAEJJPAUtagVARIANT@@@Z 10014d00 f i Scale.obj
 0001:00013d40       ?GetProperty@?$CComPtr@UIDispatch@@@ATL@@SAJPAUIDispatch@@JPAUtagVARIANT@@@Z 10014d40 f i Scale.obj
 0001:00013ea0       ?GetPropertyMap@COPOSScale@@SAPBUATL_PROPMAP_ENTRY@ATL@@XZ 10014ea0 f i Scale.obj
 0001:00013eb0       ?GetRect@?$IViewObjectExImpl@VCOPOSScale@@@ATL@@UAGJKPAU_RECTL@@@Z 10014eb0 f i Scale.obj
 0001:00013f20       ?GetSize@?$CSimpleMap@PA_WPA_WVCExpansionVectorEqualHelper@ATL@@@ATL@@QBEHXZ 10014f20 f i Scale.obj
 0001:00013f40       ?GetSize@CComDynamicUnkArray@ATL@@QBEHXZ 10014f40 f i Scale.obj
 0001:00013f60       ?GetSizeMax@?$IPersistStreamInitImpl@VCOPOSScale@@@ATL@@UAGJPAT_ULARGE_INTEGER@@@Z 10014f60 f i Scale.obj
 0001:000144d0       ?GetSizeMax@CComVariant@ATL@@QBEJPAT_ULARGE_INTEGER@@@Z 100154d0 f i Scale.obj
 0001:00014830       ?GetStreamSize@CComBSTR@ATL@@SAKPA_W@Z 10015830 f i Scale.obj
 0001:00014880       ?GetTI@CComTypeInfoHolder@ATL@@QAEJK@Z 10015880 f i Scale.obj
 0001:00015090       ?GetTI@CComTypeInfoHolder@ATL@@QAEJKPAPAUITypeInfo@@@Z 10016090 f i Scale.obj
 0001:00015150       ?GetTypeInfo@?$IDispatchImpl@UIOPOSScale@@$1?IID_IOPOSScale@@3U_GUID@@B$1?LIBID_OposScale_CCO@@3U3@B$00$0A@VCComTypeInfoHolder@ATL@@@ATL@@UAGJIKPAPAUITypeInfo@@@Z 10016150 f i Scale.obj
 0001:00015180       ?GetTypeInfo@CComTypeInfoHolder@ATL@@QAEJIKPAPAUITypeInfo@@@Z 10016180 f i Scale.obj
 0001:000151c0       ?GetTypeInfoCount@?$IDispatchImpl@UIOPOSScale@@$1?IID_IOPOSScale@@3U_GUID@@B$1?LIBID_OposScale_CCO@@3U3@B$00$0A@VCComTypeInfoHolder@ATL@@@ATL@@UAGJPAI@Z 100161c0 f i Scale.obj
 0001:000151e0       ?GetUnknown@CComDynamicUnkArray@ATL@@QAGPAUIUnknown@@K@Z 100161e0 f i Scale.obj
 0001:00015250       ?GetUnknown@COPOSScale@@QAEPAUIUnknown@@XZ 10016250 f i Scale.obj
 0001:00015280       ?GetUserClassID@?$IOleObjectImpl@VCOPOSScale@@@ATL@@UAGJPAU_GUID@@@Z 10016280 f i Scale.obj
 0001:00015330       ?GetUserType@?$IOleObjectImpl@VCOPOSScale@@@ATL@@UAGJKPAPA_W@Z 10016330 f i Scale.obj
 0001:000153a0       ?GetValueAt@?$CSimpleMap@PA_WPA_WVCExpansionVectorEqualHelper@ATL@@@ATL@@QBEAAPA_WH@Z 100163a0 f i Scale.obj
 0001:00015420       ?GetViewStatus@?$IViewObjectExImpl@VCOPOSScale@@@ATL@@UAGJPAK@Z 10016420 f i Scale.obj
 0001:000154e0       ?GetWNDPROC@CWndProcThunk@ATL@@QAEP6GJPAUHWND__@@IIJ@ZXZ 100164e0 f i Scale.obj
 0001:00015510       ?GetWindow@?$IOleInPlaceActiveObjectImpl@VCOPOSScale@@@ATL@@UAGJPAPAUHWND__@@@Z 10016510 f i Scale.obj
 0001:000155e0       ?GetWindow@?$IOleInPlaceObjectWindowlessImpl@VCOPOSScale@@@ATL@@UAGJPAPAUHWND__@@@Z 100165e0 f i Scale.obj
 0001:000156b0       ?GetWindowLongPtrW@@YAJPAUHWND__@@H@Z 100166b0 f i Scale.obj
 0001:000156e0       ?GetWindowProc@?$CWindowImplBaseT@VCWindow@ATL@@V?$CWinTraits@$0FGAAAAAA@$0A@@2@@ATL@@UAEP6GJPAUHWND__@@IIJ@ZXZ 100166e0 f i Scale.obj
 0001:00015700       ?GetWndCaption@?$CWindowImpl@VCOPOSScale@@VCWindow@ATL@@V?$CWinTraits@$0FGAAAAAA@$0A@@3@@ATL@@SAPB_WXZ 10016700 f i Scale.obj
 0001:00015710       ?GetWndClassInfo@?$CWindowImpl@VCOPOSScale@@VCWindow@ATL@@V?$CWinTraits@$0FGAAAAAA@$0A@@3@@ATL@@SAAAU_ATL_WNDCLASSINFOW@2@XZ 10016710 f i Scale.obj
 0001:00015720       ?GetWndClassName@CWindow@ATL@@SAPB_WXZ 10016720 f i Scale.obj
 0001:00015730       ?GetWndExStyle@?$CWinTraits@$0FGAAAAAA@$0A@@ATL@@SAKK@Z 10016730 f i Scale.obj
 0001:00015760       ?GetWndExStyle@?$CWindowImplBaseT@VCWindow@ATL@@V?$CWinTraits@$0FGAAAAAA@$0A@@2@@ATL@@SAKK@Z 10016760 f i Scale.obj
 0001:00015780       ?GetWndStyle@?$CWinTraits@$0FGAAAAAA@$0A@@ATL@@SAKK@Z 10016780 f i Scale.obj
 0001:000157b0       ?GetWndStyle@?$CWindowImplBaseT@VCWindow@ATL@@V?$CWinTraits@$0FGAAAAAA@$0A@@2@@ATL@@SAKK@Z 100167b0 f i Scale.obj
 0001:000157d0       ?GetZoomInfo@CComControlBase@ATL@@QAEXAAUATL_DRAWINFO@@@Z 100167d0 f i Scale.obj
 0001:00015940       ?HKeyFromString@CRegParser@ATL@@KAPAUHKEY__@@PA_W@Z 10016940 f i Scale.obj
 0001:000159b0       ?HandsOffStorage@?$IPersistStorageImpl@VCOPOSScale@@@ATL@@UAGJXZ 100169b0 f i Scale.obj
 0001:00015a10       ?HasSubKeys@CRegParser@ATL@@IAEHPAUHKEY__@@@Z 10016a10 f i Scale.obj
 0001:00015b20       ?IDataObject_GetData@CComControlBase@ATL@@QAEJPAUtagFORMATETC@@PAUtagSTGMEDIUM@@@Z 10016b20 f i Scale.obj
 0001:00015f40       ?IOleInPlaceObject_InPlaceDeactivate@CComControlBase@ATL@@QAEJXZ 10016f40 f i Scale.obj
 0001:00016140       ?IOleInPlaceObject_SetObjectRects@CComControlBase@ATL@@QAEJPBUtagRECT@@0@Z 10017140 f i Scale.obj
 0001:00016300       ?IOleInPlaceObject_UIDeactivate@CComControlBase@ATL@@QAEJXZ 10017300 f i Scale.obj
 0001:00016570       ?IOleObject_Advise@CComControlBase@ATL@@QAEJPAUIAdviseSink@@PAK@Z 10017570 f i Scale.obj
 0001:00016620       ?IOleObject_Close@CComControlBase@ATL@@QAEJK@Z 10017620 f i Scale.obj
 0001:000168d0       ?IOleObject_GetClientSite@CComControlBase@ATL@@QAEJPAPAUIOleClientSite@@@Z 100178d0 f i Scale.obj
 0001:00016970       ?IOleObject_SetClientSite@CComControlBase@ATL@@QAEJPAUIOleClientSite@@@Z 10017970 f i Scale.obj
 0001:00016a40       ?IOleObject_SetExtent@CComControlBase@ATL@@QAEJKPAUtagSIZE@@@Z 10017a40 f i Scale.obj
 0001:00016b80       ?IPSI_GetIPersistStreamInit@?$IPersistStorageImpl@VCOPOSScale@@@ATL@@AAEPAUIPersistStreamInit@@XZ 10017b80 f i Scale.obj
 0001:00016c50       ?IPersistStreamInit_Load@?$IPersistStreamInitImpl@VCOPOSScale@@@ATL@@QAEJPAUIStream@@PBUATL_PROPMAP_ENTRY@2@@Z 10017c50 f i Scale.obj
 0001:00016cd0       ?IPersistStreamInit_Save@?$IPersistStreamInitImpl@VCOPOSScale@@@ATL@@QAEJPAUIStream@@HPBUATL_PROPMAP_ENTRY@2@@Z 10017cd0 f i Scale.obj
 0001:00016d60       ?IQuickActivate_QuickActivate@CComControlBase@ATL@@QAEJPAUtagQACONTAINER@@PAUtagQACONTROL@@@Z 10017d60 f i Scale.obj
 0001:000173b0       ?IViewObject_Draw@CComControlBase@ATL@@QAEJKJPAXPAUtagDVTARGETDEVICE@@PAUHDC__@@2PBU_RECTL@@3@Z 100183b0 f i Scale.obj
 0001:00017650       ?InPlaceActivate@CComControlBase@ATL@@QAEJJPBUtagRECT@@@Z 10018650 f i Scale.obj
 0001:00017fe0       ?InPlaceDeactivate@?$IOleInPlaceObjectWindowlessImpl@VCOPOSScale@@@ATL@@UAGJXZ 10018fe0 f i Scale.obj
 0001:00018060       ?Increment@CComMultiThreadModel@ATL@@SGKPAJ@Z 10019060 f i Scale.obj
 0001:00018080       ?Increment@CComSingleThreadModel@ATL@@SGKPAJ@Z 10019080 f i Scale.obj
 0001:000180a0       ?Init@?$CComEnumImpl@UIEnumConnectionPoints@@$1?_GUID_b196b285_bab4_101a_b69c_00aa00341d07@@3U__s_GUID@@BPAUIConnectionPoint@@V?$_CopyInterface@UIConnectionPoint@@@ATL@@@ATL@@QAEJPAPAUIConnectionPoint@@0PAUIUnknown@@W4CComEnumFlags@2@@Z 100190a0 f i Scale.obj
 0001:00018280       ?Init@?$CComEnumImpl@UIEnumConnections@@$1?_GUID_b196b287_bab4_101a_b69c_00aa00341d07@@3U__s_GUID@@BUtagCONNECTDATA@@V?$_Copy@UtagCONNECTDATA@@@ATL@@@ATL@@QAEJPAUtagCONNECTDATA@@0PAUIUnknown@@W4CComEnumFlags@2@@Z 10019280 f i Scale.obj
 0001:00018460       ?Init@CComFakeCriticalSection@ATL@@QAEJXZ 10019460 f i Scale.obj
 0001:00018480       ?Init@CComModule@ATL@@QAEJPAU_ATL_OBJMAP_ENTRY30@2@PAUHINSTANCE__@@PBU_GUID@@@Z 10019480 f i Scale.obj
 0001:00018570       ?Init@CComSafeDeleteCriticalSection@ATL@@QAEJXZ 10019570 f i Scale.obj
 0001:000185f0       ?Init@CDynamicStdCallThunk2@ATL@@QAEHKPAX@Z 100195f0 f i Scale.obj
 0001:00018650       ?Init@CWndProcThunk@ATL@@QAEHP6GJPAUHWND__@@IIJ@ZPAX@Z 10019650 f i Scale.obj
 0001:00018690       ?InitFromData@?$IOleObjectImpl@VCOPOSScale@@@ATL@@UAGJPAUIDataObject@@HK@Z 10019690 f i Scale.obj
 0001:00018700       ?InitLibId@?$CAtlModuleT@VCComModule@ATL@@@ATL@@SAXXZ 10019700 f i Scale.obj
 0001:00018710       ?InitNew@?$IPersistStorageImpl@VCOPOSScale@@@ATL@@UAGJPAUIStorage@@@Z 10019710 f i Scale.obj
 0001:00018800       ?InitNew@?$IPersistStreamInitImpl@VCOPOSScale@@@ATL@@UAGJXZ 10019800 f i Scale.obj
 0001:00018890       ?InlineIsEqualUnknown@ATL@@YGHABU_GUID@@@Z 10019890 f i Scale.obj
 0001:00018900       ?InternalAddRef@?$CComObjectRootEx@VCComMultiThreadModel@ATL@@@ATL@@QAEKXZ 10019900 f i Scale.obj
 0001:00018960       ?InternalAddRef@?$CComObjectRootEx@VCComSingleThreadModel@ATL@@@ATL@@QAEKXZ 10019960 f i Scale.obj
 0001:000189c0       ?InternalFinalConstructAddRef@CComObjectRootBase@ATL@@QAEXXZ 100199c0 f i Scale.obj
 0001:000189e0       ?InternalFinalConstructAddRef@COPOSScale@@QAEXXZ 100199e0 f i Scale.obj
 0001:00018a10       ?InternalFinalConstructRelease@CComObjectRootBase@ATL@@QAEXXZ 10019a10 f i Scale.obj
 0001:00018a60       ?InternalFinalConstructRelease@COPOSScale@@QAEXXZ 10019a60 f i Scale.obj
 0001:00018a90       ?InternalGetSite@CComControlBase@ATL@@QAEJABU_GUID@@PAPAX@Z 10019a90 f i Scale.obj
 0001:00018b50       ?InternalQueryInterface@CComObjectRootBase@ATL@@SGJPAXPBU_ATL_INTMAP_ENTRY@2@ABU_GUID@@PAPAX@Z 10019b50 f i Scale.obj
 0001:00018c10       ?InternalRelease@?$CComObjectRootEx@VCComMultiThreadModel@ATL@@@ATL@@QAEKXZ 10019c10 f i Scale.obj
 0001:00018c80       ?InternalRelease@?$CComObjectRootEx@VCComSingleThreadModel@ATL@@@ATL@@QAEKXZ 10019c80 f i Scale.obj
 0001:00018cf0       ?InternalSetAtIndex@?$CSimpleArray@GV?$CSimpleArrayEqualHelper@G@ATL@@@ATL@@QAEXHABG@Z 10019cf0 f i Scale.obj
 0001:00018d60       ?InternalSetAtIndex@?$CSimpleMap@PA_WPA_WVCExpansionVectorEqualHelper@ATL@@@ATL@@QAEXHABQA_W0@Z 10019d60 f i Scale.obj
 0001:00018e00       ?Invoke@?$IDispatchImpl@UIOPOSScale@@$1?IID_IOPOSScale@@3U_GUID@@B$1?LIBID_OposScale_CCO@@3U3@B$00$0A@VCComTypeInfoHolder@ATL@@@ATL@@UAGJJABU_GUID@@KGPAUtagDISPPARAMS@@PAUtagVARIANT@@PAUtagEXCEPINFO@@PAI@Z 10019e00 f i Scale.obj
 0001:00018e40       ?Invoke@CComTypeInfoHolder@ATL@@QAEJPAUIDispatch@@JABU_GUID@@KGPAUtagDISPPARAMS@@PAUtagVARIANT@@PAUtagEXCEPINFO@@PAI@Z 10019e40 f i Scale.obj
 0001:00018ed0       ?IsDirty@?$IPersistStorageImpl@VCOPOSScale@@@ATL@@UAGJXZ 10019ed0 f i Scale.obj
 0001:00018fc0       ?IsDirty@?$IPersistStreamInitImpl@VCOPOSScale@@@ATL@@UAGJXZ 10019fc0 f i Scale.obj
 0001:00019060       ?IsEqualKey@CExpansionVectorEqualHelper@ATL@@SA_NQA_W0@Z 1001a060 f i Scale.obj
 0001:00019090       ?IsEqualObject@?$CComPtrBase@UIOleClientSite@@@ATL@@QAE_NPAUIUnknown@@@Z 1001a090 f i Scale.obj
 0001:000191c0       ?IsEqualObject@?$CComPtrBase@UITypeInfo@@@ATL@@QAE_NPAUIUnknown@@@Z 1001a1c0 f i Scale.obj
 0001:000192f0       ?IsSpace@CRegParser@ATL@@IAEH_W@Z 1001a2f0 f i Scale.obj
 0001:00019360       ?IsUpToDate@?$IOleObjectImpl@VCOPOSScale@@@ATL@@UAGJXZ 1001a360 f i Scale.obj
 0001:000193c0       ?Length@CComBSTR@ATL@@QBEIXZ 1001a3c0 f i Scale.obj
 0001:00019400       ?Load@?$IPersistStorageImpl@VCOPOSScale@@@ATL@@UAGJPAUIStorage@@@Z 1001a400 f i Scale.obj
 0001:00019560       ?Load@?$IPersistStreamInitImpl@VCOPOSScale@@@ATL@@UAGJPAUIStream@@@Z 1001a560 f i Scale.obj
 0001:000195f0       ?LoadCursorW@AtlModuleRegisterWndClassInfoParamW@ATL@@SAPAUHICON__@@PAUHINSTANCE__@@PB_W@Z 1001a5f0 f i Scale.obj
 0001:00019620       ?LoadNameCache@CComTypeInfoHolder@ATL@@QAEJPAUITypeInfo@@@Z 1001a620 f i Scale.obj
 0001:000198b0       ?Lock@?$CComCritSecLock@VCComCriticalSection@ATL@@@ATL@@QAEJXZ 1001a8b0 f i Scale.obj
 0001:00019960       ?Lock@?$CComObjectRootEx@VCComSingleThreadModel@ATL@@@ATL@@QAEXXZ 1001a960 f i Scale.obj
 0001:00019980       ?Lock@CAtlModule@ATL@@UAEJXZ 1001a980 f i Scale.obj
 0001:000199b0       ?Lock@CComCriticalSection@ATL@@QAEJXZ 1001a9b0 f i Scale.obj
 0001:000199f0       ?Lock@CComFakeCriticalSection@ATL@@QAEJXZ 1001a9f0 f i Scale.obj
 0001:00019a10       ?LockServer@CComClassFactory@ATL@@UAGJH@Z 1001aa10 f i Scale.obj
 0001:00019a70       ?Lookup@?$CSimpleMap@PA_WPA_WVCExpansionVectorEqualHelper@ATL@@@ATL@@QBEPA_WABQA_W@Z 1001aa70 f i Scale.obj
 0001:00019ac0       ?Next@?$CComEnumImpl@UIEnumConnectionPoints@@$1?_GUID_b196b285_bab4_101a_b69c_00aa00341d07@@3U__s_GUID@@BPAUIConnectionPoint@@V?$_CopyInterface@UIConnectionPoint@@@ATL@@@ATL@@UAGJKPAPAUIConnectionPoint@@PAK@Z 1001aac0 f i Scale.obj
 0001:00019c30       ?Next@?$CComEnumImpl@UIEnumConnections@@$1?_GUID_b196b287_bab4_101a_b69c_00aa00341d07@@3U__s_GUID@@BUtagCONNECTDATA@@V?$_Copy@UtagCONNECTDATA@@@ATL@@@ATL@@UAGJKPAUtagCONNECTDATA@@PAK@Z 1001ac30 f i Scale.obj
 0001:00019da0       ?NextToken@CRegParser@ATL@@IAEJPA_W@Z 1001ada0 f i Scale.obj
 0001:0001a040       ?OLE2CT_EX@@YAPB_WPB_WI@Z  1001b040 f i Scale.obj
 0001:0001a050       ?OLE2CT_EX_DEF@@YAPB_WPB_W@Z 1001b050 f i Scale.obj
 0001:0001a060       ?OLE2T_EX@@YAPA_WPA_WI@Z   1001b060 f i Scale.obj
 0001:0001a070       ?OnAmbientPropertyChange@?$IOleControlImpl@VCOPOSScale@@@ATL@@UAGJJ@Z 1001b070 f i Scale.obj
 0001:0001a100       ?OnDocWindowActivate@?$IOleInPlaceActiveObjectImpl@VCOPOSScale@@@ATL@@UAGJH@Z 1001b100 f i Scale.obj
 0001:0001a190       ?OnDrawAdvanced@CComControlBase@ATL@@UAEJAAUATL_DRAWINFO@@@Z 1001b190 f i Scale.obj
 0001:0001a3b0       ?OnFinalMessage@?$CWindowImplBaseT@VCWindow@ATL@@V?$CWinTraits@$0FGAAAAAA@$0A@@2@@ATL@@UAEXPAUHWND__@@@Z 1001b3b0 f i Scale.obj
 0001:0001a3d0       ?OnFrameWindowActivate@?$IOleInPlaceActiveObjectImpl@VCOPOSScale@@@ATL@@UAGJH@Z 1001b3d0 f i Scale.obj
 0001:0001a430       ?OnKillFocus@CComControlBase@ATL@@QAEJIIJAAH@Z 1001b430 f i Scale.obj
 0001:0001a530       ?OnMnemonic@?$IOleControlImpl@VCOPOSScale@@@ATL@@UAGJPAUtagMSG@@@Z 1001b530 f i Scale.obj
 0001:0001a5a0       ?OnMouseActivate@CComControlBase@ATL@@QAEJIIJAAH@Z 1001b5a0 f i Scale.obj
 0001:0001a6f0       ?OnPaint@CComControlBase@ATL@@QAEJIIJAAH@Z 1001b6f0 f i Scale.obj
 0001:0001a870       ?OnPostVerbDiscardUndo@?$IOleObjectImpl@VCOPOSScale@@@ATL@@QAEJXZ 1001b870 f i Scale.obj
 0001:0001a890       ?OnPostVerbHide@?$IOleObjectImpl@VCOPOSScale@@@ATL@@QAEJXZ 1001b890 f i Scale.obj
 0001:0001a8b0       ?OnPostVerbInPlaceActivate@?$IOleObjectImpl@VCOPOSScale@@@ATL@@QAEJXZ 1001b8b0 f i Scale.obj
 0001:0001a8d0       ?OnPostVerbOpen@?$IOleObjectImpl@VCOPOSScale@@@ATL@@QAEJXZ 1001b8d0 f i Scale.obj
 0001:0001a8f0       ?OnPostVerbShow@?$IOleObjectImpl@VCOPOSScale@@@ATL@@QAEJXZ 1001b8f0 f i Scale.obj
 0001:0001a910       ?OnPostVerbUIActivate@?$IOleObjectImpl@VCOPOSScale@@@ATL@@QAEJXZ 1001b910 f i Scale.obj
 0001:0001a930       ?OnPreVerbDiscardUndo@?$IOleObjectImpl@VCOPOSScale@@@ATL@@QAEJXZ 1001b930 f i Scale.obj
 0001:0001a950       ?OnPreVerbHide@?$IOleObjectImpl@VCOPOSScale@@@ATL@@QAEJXZ 1001b950 f i Scale.obj
 0001:0001a970       ?OnPreVerbInPlaceActivate@?$IOleObjectImpl@VCOPOSScale@@@ATL@@QAEJXZ 1001b970 f i Scale.obj
 0001:0001a990       ?OnPreVerbOpen@?$IOleObjectImpl@VCOPOSScale@@@ATL@@QAEJXZ 1001b990 f i Scale.obj
 0001:0001a9b0       ?OnPreVerbShow@?$IOleObjectImpl@VCOPOSScale@@@ATL@@QAEJXZ 1001b9b0 f i Scale.obj
 0001:0001a9d0       ?OnPreVerbUIActivate@?$IOleObjectImpl@VCOPOSScale@@@ATL@@QAEJXZ 1001b9d0 f i Scale.obj
 0001:0001a9f0       ?OnSetFocus@CComControlBase@ATL@@QAEJIIJAAH@Z 1001b9f0 f i Scale.obj
 0001:0001ab80       ?OnWindowMessage@?$IOleInPlaceObjectWindowlessImpl@VCOPOSScale@@@ATL@@UAGJIIJPAJ@Z 1001bb80 f i Scale.obj
 0001:0001ace0       ?Open@CRegKey@ATL@@QAEJPAUHKEY__@@PB_WK@Z 1001bce0 f i Scale.obj
 0001:0001ae30       ?OuterAddRef@CComObjectRootBase@ATL@@QAEKXZ 1001be30 f i Scale.obj
 0001:0001ae70       ?OuterQueryInterface@CComObjectRootBase@ATL@@QAEJABU_GUID@@PAPAX@Z 1001be70 f i Scale.obj
 0001:0001aec0       ?OuterRelease@CComObjectRootBase@ATL@@QAEKXZ 1001bec0 f i Scale.obj
 0001:0001af00       ?PreProcessBuffer@CRegParser@ATL@@QAEJPA_WPAPA_W@Z 1001bf00 f i Scale.obj
 0001:0001b440       ?PreTranslateAccelerator@CComControlBase@ATL@@QAEHPAUtagMSG@@AAJ@Z 1001c440 f i Scale.obj
 0001:0001b460       ?ProcessWindowMessage@?$CComControl@VCOPOSScale@@V?$CWindowImpl@VCOPOSScale@@VCWindow@ATL@@V?$CWinTraits@$0FGAAAAAA@$0A@@3@@ATL@@@ATL@@UAEHPAUHWND__@@IIJAAJK@Z 1001c460 f i Scale.obj
 0001:0001b630       ?ProcessWindowMessage@COPOSScale@@UAEHPAUHWND__@@IIJAAJK@Z 1001c630 f i Scale.obj
 0001:0001b730       ?PutProperty@?$CComPtr@UIDispatch@@@ATL@@QAEJJPAUtagVARIANT@@@Z 1001c730 f i Scale.obj
 0001:0001b770       ?PutProperty@?$CComPtr@UIDispatch@@@ATL@@SAJPAUIDispatch@@JPAUtagVARIANT@@@Z 1001c770 f i Scale.obj
 0001:0001b960       ?QueryGetData@?$IDataObjectImpl@VCOPOSScale@@@ATL@@UAGJPAUtagFORMATETC@@@Z 1001c960 f i Scale.obj
 0001:0001b9d0       ?QueryHitPoint@?$IViewObjectExImpl@VCOPOSScale@@@ATL@@UAGJKPBUtagRECT@@UtagPOINT@@JPAK@Z 1001c9d0 f i Scale.obj
 0001:0001bae0       ?QueryHitRect@?$IViewObjectExImpl@VCOPOSScale@@@ATL@@UAGJKPBUtagRECT@@0JPAK@Z 1001cae0 f i Scale.obj
 0001:0001bc30       ?QueryInterface@?$CComAggObject@VCOPOSScale@@@ATL@@UAGJABU_GUID@@PAPAX@Z 1001cc30 f i Scale.obj
 0001:0001bce0       ?QueryInterface@?$CComContainedObject@VCOPOSScale@@@ATL@@UAGJABU_GUID@@PAPAX@Z 1001cce0 f i Scale.obj
 0001:0001bd04       ?QueryInterface@?$CComContainedObject@VCOPOSScale@@@ATL@@WHA@AGJABU_GUID@@PAPAX@Z 1001cd04 f i Scale.obj
 0001:0001bd0e       ?QueryInterface@?$CComContainedObject@VCOPOSScale@@@ATL@@WHE@AGJABU_GUID@@PAPAX@Z 1001cd0e f i Scale.obj
 0001:0001bd18       ?QueryInterface@?$CComContainedObject@VCOPOSScale@@@ATL@@WHI@AGJABU_GUID@@PAPAX@Z 1001cd18 f i Scale.obj
 0001:0001bd22       ?QueryInterface@?$CComContainedObject@VCOPOSScale@@@ATL@@WHM@AGJABU_GUID@@PAPAX@Z 1001cd22 f i Scale.obj
 0001:0001bd2c       ?QueryInterface@?$CComContainedObject@VCOPOSScale@@@ATL@@WIA@AGJABU_GUID@@PAPAX@Z 1001cd2c f i Scale.obj
 0001:0001bd39       ?QueryInterface@?$CComContainedObject@VCOPOSScale@@@ATL@@WIE@AGJABU_GUID@@PAPAX@Z 1001cd39 f i Scale.obj
 0001:0001bd46       ?QueryInterface@?$CComContainedObject@VCOPOSScale@@@ATL@@WII@AGJABU_GUID@@PAPAX@Z 1001cd46 f i Scale.obj
 0001:0001bd53       ?QueryInterface@?$CComContainedObject@VCOPOSScale@@@ATL@@WIM@AGJABU_GUID@@PAPAX@Z 1001cd53 f i Scale.obj
 0001:0001bd60       ?QueryInterface@?$CComContainedObject@VCOPOSScale@@@ATL@@WJA@AGJABU_GUID@@PAPAX@Z 1001cd60 f i Scale.obj
 0001:0001bd6d       ?QueryInterface@?$CComContainedObject@VCOPOSScale@@@ATL@@WJE@AGJABU_GUID@@PAPAX@Z 1001cd6d f i Scale.obj
 0001:0001bd7a       ?QueryInterface@?$CComContainedObject@VCOPOSScale@@@ATL@@WJI@AGJABU_GUID@@PAPAX@Z 1001cd7a f i Scale.obj
 0001:0001bd87       ?QueryInterface@?$CComContainedObject@VCOPOSScale@@@ATL@@WJM@AGJABU_GUID@@PAPAX@Z 1001cd87 f i Scale.obj
 0001:0001bd94       ?QueryInterface@?$CComContainedObject@VCOPOSScale@@@ATL@@WKA@AGJABU_GUID@@PAPAX@Z 1001cd94 f i Scale.obj
 0001:0001bdb0       ?QueryInterface@?$CComObject@V?$CComEnum@UIEnumConnectionPoints@@$1?_GUID_b196b285_bab4_101a_b69c_00aa00341d07@@3U__s_GUID@@BPAUIConnectionPoint@@V?$_CopyInterface@UIConnectionPoint@@@ATL@@VCComSingleThreadModel@6@@ATL@@@ATL@@UAGJABU_GUID@@PAPAX@Z 1001cdb0 f i Scale.obj
 0001:0001bdd0       ?QueryInterface@?$CComObject@V?$CComEnum@UIEnumConnections@@$1?_GUID_b196b287_bab4_101a_b69c_00aa00341d07@@3U__s_GUID@@BUtagCONNECTDATA@@V?$_Copy@UtagCONNECTDATA@@@ATL@@VCComSingleThreadModel@6@@ATL@@@ATL@@UAGJABU_GUID@@PAPAX@Z 1001cdd0 f i Scale.obj
 0001:0001bdf0       ?QueryInterface@?$CComObject@VCOPOSScale@@@ATL@@UAGJABU_GUID@@PAPAX@Z 1001cdf0 f i Scale.obj
 0001:0001be0e       ?QueryInterface@?$CComObject@VCOPOSScale@@@ATL@@WHA@AGJABU_GUID@@PAPAX@Z 1001ce0e f i Scale.obj
 0001:0001be18       ?QueryInterface@?$CComObject@VCOPOSScale@@@ATL@@WHE@AGJABU_GUID@@PAPAX@Z 1001ce18 f i Scale.obj
 0001:0001be22       ?QueryInterface@?$CComObject@VCOPOSScale@@@ATL@@WHI@AGJABU_GUID@@PAPAX@Z 1001ce22 f i Scale.obj
 0001:0001be2c       ?QueryInterface@?$CComObject@VCOPOSScale@@@ATL@@WHM@AGJABU_GUID@@PAPAX@Z 1001ce2c f i Scale.obj
 0001:0001be36       ?QueryInterface@?$CComObject@VCOPOSScale@@@ATL@@WIA@AGJABU_GUID@@PAPAX@Z 1001ce36 f i Scale.obj
 0001:0001be43       ?QueryInterface@?$CComObject@VCOPOSScale@@@ATL@@WIE@AGJABU_GUID@@PAPAX@Z 1001ce43 f i Scale.obj
 0001:0001be50       ?QueryInterface@?$CComObject@VCOPOSScale@@@ATL@@WII@AGJABU_GUID@@PAPAX@Z 1001ce50 f i Scale.obj
 0001:0001be5d       ?QueryInterface@?$CComObject@VCOPOSScale@@@ATL@@WIM@AGJABU_GUID@@PAPAX@Z 1001ce5d f i Scale.obj
 0001:0001be6a       ?QueryInterface@?$CComObject@VCOPOSScale@@@ATL@@WJA@AGJABU_GUID@@PAPAX@Z 1001ce6a f i Scale.obj
 0001:0001be77       ?QueryInterface@?$CComObject@VCOPOSScale@@@ATL@@WJE@AGJABU_GUID@@PAPAX@Z 1001ce77 f i Scale.obj
 0001:0001be84       ?QueryInterface@?$CComObject@VCOPOSScale@@@ATL@@WJI@AGJABU_GUID@@PAPAX@Z 1001ce84 f i Scale.obj
 0001:0001be91       ?QueryInterface@?$CComObject@VCOPOSScale@@@ATL@@WJM@AGJABU_GUID@@PAPAX@Z 1001ce91 f i Scale.obj
 0001:0001be9e       ?QueryInterface@?$CComObject@VCOPOSScale@@@ATL@@WKA@AGJABU_GUID@@PAPAX@Z 1001ce9e f i Scale.obj
 0001:0001beb0       ?QueryInterface@?$CComObjectCached@VCComClassFactory@ATL@@@ATL@@UAGJABU_GUID@@PAPAX@Z 1001ceb0 f i Scale.obj
 0001:0001bed0       ?QueryInterface@CRegObject@ATL@@UAGJABU_GUID@@PAPAX@Z 1001ced0 f i Scale.obj
 0001:0001bf20       ?QuickActivate@?$IQuickActivateImpl@VCOPOSScale@@@ATL@@UAGJPAUtagQACONTAINER@@PAUtagQACONTROL@@@Z 1001cf20 f i Scale.obj
 0001:0001bfb0       ?ReactivateAndUndo@?$IOleInPlaceObjectWindowlessImpl@VCOPOSScale@@@ATL@@UAGJXZ 1001cfb0 f i Scale.obj
 0001:0001c020       ?ReadFromStream@CComBSTR@ATL@@QAEJPAUIStream@@@Z 1001d020 f i Scale.obj
 0001:0001c420       ?ReadFromStream@CComVariant@ATL@@QAEJPAUIStream@@GTClassesAllowedInStream@2@K@Z 1001d420 f i Scale.obj
 0001:0001c780       ?RecurseDeleteKey@CRegKey@ATL@@QAEJPB_W@Z 1001d780 f i Scale.obj
 0001:0001c960       ?RegCreateKeyExW@CAtlTransactionManager@ATL@@QAEJPAUHKEY__@@PB_WKPA_WKKQAU_SECURITY_ATTRIBUTES@@PAPAU3@PAK@Z 1001d960 f i Scale.obj
 0001:0001ca90       ?RegDeleteKeyW@CAtlTransactionManager@ATL@@QAEJPAUHKEY__@@PB_W@Z 1001da90 f i Scale.obj
 0001:0001cb90       ?RegOpenKeyExW@CAtlTransactionManager@ATL@@QAEJPAUHKEY__@@PB_WKKPAPAU3@@Z 1001db90 f i Scale.obj
 0001:0001cca0       ?Register@_ATL_WNDCLASSINFOW@ATL@@QAEGPAP6GJPAUHWND__@@IIJ@Z@Z 1001dca0 f i Scale.obj
 0001:0001cce0       ?RegisterBuffer@CRegParser@ATL@@QAEJPA_WH@Z 1001dce0 f i Scale.obj
 0001:0001d010       ?RegisterClassExW@AtlModuleRegisterWndClassInfoParamW@ATL@@SAGPAU_ATL_WIN_MODULE70@2@PBUtagWNDCLASSEXW@@@Z 1001e010 f i Scale.obj
 0001:0001d030       ?RegisterFromResource@CRegObject@ATL@@IAEJPB_W00H@Z 1001e030 f i Scale.obj
 0001:0001d3c0       ?RegisterServer@?$CAtlModuleT@VCComModule@ATL@@@ATL@@QAEJHPBU_GUID@@@Z 1001e3c0 f i Scale.obj
 0001:0001d440       ?RegisterServer@CAtlComModule@ATL@@QAEJHPBU_GUID@@@Z 1001e440 f i Scale.obj
 0001:0001d470       ?RegisterServer@CComModule@ATL@@QAEJHPBU_GUID@@@Z 1001e470 f i Scale.obj
 0001:0001d550       ?RegisterSubkeys@CRegParser@ATL@@IAEJPA_WPAUHKEY__@@HH@Z 1001e550 f i Scale.obj
 0001:0001e070       ?Release@?$CComAggObject@VCOPOSScale@@@ATL@@UAGKXZ 1001f070 f i Scale.obj
 0001:0001e130       ?Release@?$CComContainedObject@VCOPOSScale@@@ATL@@UAGKXZ 1001f130 f i Scale.obj
 0001:0001e14c       ?Release@?$CComContainedObject@VCOPOSScale@@@ATL@@WHA@AGKXZ 1001f14c f i Scale.obj
 0001:0001e156       ?Release@?$CComContainedObject@VCOPOSScale@@@ATL@@WHE@AGKXZ 1001f156 f i Scale.obj
 0001:0001e160       ?Release@?$CComContainedObject@VCOPOSScale@@@ATL@@WHI@AGKXZ 1001f160 f i Scale.obj
 0001:0001e16a       ?Release@?$CComContainedObject@VCOPOSScale@@@ATL@@WHM@AGKXZ 1001f16a f i Scale.obj
 0001:0001e174       ?Release@?$CComContainedObject@VCOPOSScale@@@ATL@@WIA@AGKXZ 1001f174 f i Scale.obj
 0001:0001e181       ?Release@?$CComContainedObject@VCOPOSScale@@@ATL@@WIE@AGKXZ 1001f181 f i Scale.obj
 0001:0001e18e       ?Release@?$CComContainedObject@VCOPOSScale@@@ATL@@WII@AGKXZ 1001f18e f i Scale.obj
 0001:0001e19b       ?Release@?$CComContainedObject@VCOPOSScale@@@ATL@@WIM@AGKXZ 1001f19b f i Scale.obj
 0001:0001e1a8       ?Release@?$CComContainedObject@VCOPOSScale@@@ATL@@WJA@AGKXZ 1001f1a8 f i Scale.obj
 0001:0001e1b5       ?Release@?$CComContainedObject@VCOPOSScale@@@ATL@@WJE@AGKXZ 1001f1b5 f i Scale.obj
 0001:0001e1c2       ?Release@?$CComContainedObject@VCOPOSScale@@@ATL@@WJI@AGKXZ 1001f1c2 f i Scale.obj
 0001:0001e1cf       ?Release@?$CComContainedObject@VCOPOSScale@@@ATL@@WJM@AGKXZ 1001f1cf f i Scale.obj
 0001:0001e1dc       ?Release@?$CComContainedObject@VCOPOSScale@@@ATL@@WKA@AGKXZ 1001f1dc f i Scale.obj
 0001:0001e1e9       ?Release@?$CComContainedObject@VCOPOSScale@@@ATL@@WKI@AGKXZ 1001f1e9 f i Scale.obj
 0001:0001e1f6       ?Release@?$CComContainedObject@VCOPOSScale@@@ATL@@WLE@AGKXZ 1001f1f6 f i Scale.obj
 0001:0001e210       ?Release@?$CComObject@V?$CComEnum@UIEnumConnectionPoints@@$1?_GUID_b196b285_bab4_101a_b69c_00aa00341d07@@3U__s_GUID@@BPAUIConnectionPoint@@V?$_CopyInterface@UIConnectionPoint@@@ATL@@VCComSingleThreadModel@6@@ATL@@@ATL@@UAGKXZ 1001f210 f i Scale.obj
 0001:0001e2d0       ?Release@?$CComObject@V?$CComEnum@UIEnumConnections@@$1?_GUID_b196b287_bab4_101a_b69c_00aa00341d07@@3U__s_GUID@@BUtagCONNECTDATA@@V?$_Copy@UtagCONNECTDATA@@@ATL@@VCComSingleThreadModel@6@@ATL@@@ATL@@UAGKXZ 1001f2d0 f i Scale.obj
 0001:0001e390       ?Release@?$CComObject@VCOPOSScale@@@ATL@@UAGKXZ 1001f390 f i Scale.obj
 0001:0001e449       ?Release@?$CComObject@VCOPOSScale@@@ATL@@WHA@AGKXZ 1001f449 f i Scale.obj
 0001:0001e453       ?Release@?$CComObject@VCOPOSScale@@@ATL@@WHE@AGKXZ 1001f453 f i Scale.obj
 0001:0001e45d       ?Release@?$CComObject@VCOPOSScale@@@ATL@@WHI@AGKXZ 1001f45d f i Scale.obj
 0001:0001e467       ?Release@?$CComObject@VCOPOSScale@@@ATL@@WHM@AGKXZ 1001f467 f i Scale.obj
 0001:0001e471       ?Release@?$CComObject@VCOPOSScale@@@ATL@@WIA@AGKXZ 1001f471 f i Scale.obj
 0001:0001e47e       ?Release@?$CComObject@VCOPOSScale@@@ATL@@WIE@AGKXZ 1001f47e f i Scale.obj
 0001:0001e48b       ?Release@?$CComObject@VCOPOSScale@@@ATL@@WII@AGKXZ 1001f48b f i Scale.obj
 0001:0001e498       ?Release@?$CComObject@VCOPOSScale@@@ATL@@WIM@AGKXZ 1001f498 f i Scale.obj
 0001:0001e4a5       ?Release@?$CComObject@VCOPOSScale@@@ATL@@WJA@AGKXZ 1001f4a5 f i Scale.obj
 0001:0001e4b2       ?Release@?$CComObject@VCOPOSScale@@@ATL@@WJE@AGKXZ 1001f4b2 f i Scale.obj
 0001:0001e4bf       ?Release@?$CComObject@VCOPOSScale@@@ATL@@WJI@AGKXZ 1001f4bf f i Scale.obj
 0001:0001e4cc       ?Release@?$CComObject@VCOPOSScale@@@ATL@@WJM@AGKXZ 1001f4cc f i Scale.obj
 0001:0001e4d9       ?Release@?$CComObject@VCOPOSScale@@@ATL@@WKA@AGKXZ 1001f4d9 f i Scale.obj
 0001:0001e4e6       ?Release@?$CComObject@VCOPOSScale@@@ATL@@WKI@AGKXZ 1001f4e6 f i Scale.obj
 0001:0001e4f3       ?Release@?$CComObject@VCOPOSScale@@@ATL@@WLE@AGKXZ 1001f4f3 f i Scale.obj
 0001:0001e500       ?Release@?$CComObjectCached@VCComClassFactory@ATL@@@ATL@@UAGKXZ 1001f500 f i Scale.obj
 0001:0001e5a0       ?Release@?$CComPtrBase@UIAdviseSink@@@ATL@@QAEXXZ 1001f5a0 f i Scale.obj
 0001:0001e600       ?Release@?$CComPtrBase@UIDispatch@@@ATL@@QAEXXZ 1001f600 f i Scale.obj
 0001:0001e660       ?Release@?$CComPtrBase@UIOleInPlaceSiteWindowless@@@ATL@@QAEXXZ 1001f660 f i Scale.obj
 0001:0001e6c0       ?Release@CRegObject@ATL@@UAGKXZ 1001f6c0 f i Scale.obj
 0001:0001e700       ?Remove@CComDynamicUnkArray@ATL@@QAEHK@Z 1001f700 f i Scale.obj
 0001:0001e7b0       ?RemoveAll@?$CSimpleMap@PA_WPA_WVCExpansionVectorEqualHelper@ATL@@@ATL@@QAEXXZ 1001f7b0 f i Scale.obj
 0001:0001e840       ?Reset@?$CComEnumImpl@UIEnumConnectionPoints@@$1?_GUID_b196b285_bab4_101a_b69c_00aa00341d07@@3U__s_GUID@@BPAUIConnectionPoint@@V?$_CopyInterface@UIConnectionPoint@@@ATL@@@ATL@@UAGJXZ 1001f840 f i Scale.obj
 0001:0001e860       ?Reset@?$CComEnumImpl@UIEnumConnections@@$1?_GUID_b196b287_bab4_101a_b69c_00aa00341d07@@3U__s_GUID@@BUtagCONNECTDATA@@V?$_Copy@UtagCONNECTDATA@@@ATL@@@ATL@@UAGJXZ 1001f860 f i Scale.obj
 0001:0001e880       ?ResizeBorder@?$IOleInPlaceActiveObjectImpl@VCOPOSScale@@@ATL@@UAGJPBUtagRECT@@PAUIOleInPlaceUIWindow@@H@Z 1001f880 f i Scale.obj
 0001:0001e8e0       ?ResourceRegister@CRegObject@ATL@@QAGJPB_WI0@Z 1001f8e0 f i Scale.obj
 0001:0001e9c0       ?ResourceRegisterSz@CRegObject@ATL@@QAGJPB_W00@Z 1001f9c0 f i Scale.obj
 0001:0001eac0       ?ResourceUnregister@CRegObject@ATL@@QAGJPB_WI0@Z 1001fac0 f i Scale.obj
 0001:0001eba0       ?ResourceUnregisterSz@CRegObject@ATL@@QAGJPB_W00@Z 1001fba0 f i Scale.obj
 0001:0001eca0       ?SOData@COPOSScale@@MAGJJ@Z 1001fca0 f i Scale.obj
 0001:0001ed20       ?SODirectIO@COPOSScale@@MAGJJPAJPAPA_W@Z 1001fd20 f i Scale.obj
 0001:0001eee0       ?SOError@COPOSScale@@MAGJJJJPAJ@Z 1001fee0 f i Scale.obj
 0001:0001efa0       ?SOOutputCompleteDummy@COPOSScale@@MAGJJ@Z 1001ffa0 f i Scale.obj
 0001:0001efb0       ?SOStatusUpdate@COPOSScale@@MAGJJ@Z 1001ffb0 f i Scale.obj
 0001:0001f030       ?Save@?$IPersistStorageImpl@VCOPOSScale@@@ATL@@UAGJPAUIStorage@@H@Z 10020030 f i Scale.obj
 0001:0001f190       ?Save@?$IPersistStreamInitImpl@VCOPOSScale@@@ATL@@UAGJPAUIStream@@H@Z 10020190 f i Scale.obj
 0001:0001f220       ?SaveCompleted@?$IPersistStorageImpl@VCOPOSScale@@@ATL@@UAGJPAUIStorage@@@Z 10020220 f i Scale.obj
 0001:0001f280       ?SendOnDataChange@CComControlBase@ATL@@QAEJK@Z 10020280 f i Scale.obj
 0001:0001f370       ?SendOnSave@CComControlBase@ATL@@QAEJXZ 10020370 f i Scale.obj
 0001:0001f3e0       ?SendOnViewChange@CComControlBase@ATL@@QAEJKJ@Z 100203e0 f i Scale.obj
 0001:0001f450       ?SetAdvise@?$IViewObjectExImpl@VCOPOSScale@@@ATL@@UAGJKKPAUIAdviseSink@@@Z 10020450 f i Scale.obj
 0001:0001f4e0       ?SetClientSite@?$IOleObjectImpl@VCOPOSScale@@@ATL@@UAGJPAUIOleClientSite@@@Z 100204e0 f i Scale.obj
 0001:0001f570       ?SetColorScheme@?$IOleObjectImpl@VCOPOSScale@@@ATL@@UAGJPAUtagLOGPALETTE@@@Z 10020570 f i Scale.obj
 0001:0001f5e0       ?SetContentExtent@?$IQuickActivateImpl@VCOPOSScale@@@ATL@@UAGJPAUtagSIZE@@@Z 100205e0 f i Scale.obj
 0001:0001f670       ?SetControlFocus@CComControlBase@ATL@@QAEHH@Z 10020670 f i Scale.obj
 0001:0001f7f0       ?SetDWORDValue@CRegKey@ATL@@QAEJPB_WK@Z 100207f0 f i Scale.obj
 0001:0001f870       ?SetData@?$IDataObjectImpl@VCOPOSScale@@@ATL@@UAGJPAUtagFORMATETC@@PAUtagSTGMEDIUM@@H@Z 10020870 f i Scale.obj
 0001:0001f8e0       ?SetExtent@?$IOleObjectImpl@VCOPOSScale@@@ATL@@UAGJKPAUtagSIZE@@@Z 100208e0 f i Scale.obj
 0001:0001f970       ?SetHostNames@?$IOleObjectImpl@VCOPOSScale@@@ATL@@UAGJPB_W0@Z 10020970 f i Scale.obj
 0001:0001f9d0       ?SetInterfaceSafetyOptions@?$IObjectSafetyImpl@VCOPOSScale@@$02@ATL@@UAGJABU_GUID@@KK@Z 100209d0 f i Scale.obj
 0001:0001fb40       ?SetMoniker@?$IOleObjectImpl@VCOPOSScale@@@ATL@@UAGJKPAUIMoniker@@@Z 10020b40 f i Scale.obj
 0001:0001fbb0       ?SetMultiStringValue@CRegKey@ATL@@QAEJPB_W0@Z 10020bb0 f i Scale.obj
 0001:0001fcd0       ?SetObjectRects@?$IOleInPlaceObjectWindowlessImpl@VCOPOSScale@@@ATL@@UAGJPBUtagRECT@@0@Z 10020cd0 f i Scale.obj
 0001:0001fd60       ?SetStringValue@CRegKey@ATL@@QAEJPB_W0K@Z 10020d60 f i Scale.obj
 0001:0001fe90       ?SetVoid@CComClassFactory@ATL@@QAEXPAX@Z 10020e90 f i Scale.obj
 0001:0001feb0       ?SetVoid@CComObjectRootBase@ATL@@QAEXPAX@Z 10020eb0 f i Scale.obj
 0001:0001fed0       ?SetWindowLongPtrW@@YAJPAUHWND__@@HJ@Z 10020ed0 f i Scale.obj
 0001:0001ff00       ?ShowWindow@CWindow@ATL@@QAEHH@Z 10020f00 f i Scale.obj
 0001:0001ff80       ?Skip@?$CComEnumImpl@UIEnumConnectionPoints@@$1?_GUID_b196b285_bab4_101a_b69c_00aa00341d07@@3U__s_GUID@@BPAUIConnectionPoint@@V?$_CopyInterface@UIConnectionPoint@@@ATL@@@ATL@@UAGJK@Z 10020f80 f i Scale.obj
 0001:00020000       ?Skip@?$CComEnumImpl@UIEnumConnections@@$1?_GUID_b196b287_bab4_101a_b69c_00aa00341d07@@3U__s_GUID@@BUtagCONNECTDATA@@V?$_Copy@UtagCONNECTDATA@@@ATL@@@ATL@@UAGJK@Z 10021000 f i Scale.obj
 0001:00020080       ?SkipAssignment@CRegParser@ATL@@IAEJPA_W@Z 10021080 f i Scale.obj
 0001:00020160       ?SkipWhiteSpace@CRegParser@ATL@@IAEXXZ 10021160 f i Scale.obj
 0001:000201b0       ?StartWindowProc@?$CWindowImplBaseT@VCWindow@ATL@@V?$CWinTraits@$0FGAAAAAA@$0A@@2@@ATL@@SGJPAUHWND__@@IIJ@Z 100211b0 f i Scale.obj
 0001:000202d0       ?StrChrW@CRegParser@ATL@@KAPA_WPA_W_W@Z 100212d0 f i Scale.obj
 0001:00020340       ?StrFromMap@CRegObject@ATL@@QAEPB_WPA_W@Z 10021340 f i Scale.obj
 0001:000203d0       ?Swap@?$CComPtrBase@UIAdviseSink@@@ATL@@IAEXAAV12@@Z 100213d0 f i Scale.obj
 0001:00020410       ?Swap@?$CComPtrBase@UIOleClientSite@@@ATL@@IAEXAAV12@@Z 10021410 f i Scale.obj
 0001:00020450       ?Swap@?$CComPtrBase@UIUnknown@@@ATL@@IAEXAAV12@@Z 10021450 f i Scale.obj
 0001:00020490       ?T2COLE_EX@@YAPB_WPB_WI@Z  10021490 f i Scale.obj
 0001:000204a0       ?T2OLE_EX@@YAPA_WPA_WI@Z   100214a0 f i Scale.obj
 0001:000204b0       ?Term@CAtlModule@ATL@@QAEXXZ 100214b0 f i Scale.obj
 0001:00020560       ?Term@CComModule@ATL@@QAEXXZ 10021560 f i Scale.obj
 0001:00020650       ?TranslateAcceleratorW@?$IOleInPlaceActiveObjectImpl@VCOPOSScale@@@ATL@@UAGJPAUtagMSG@@@Z 10021650 f i Scale.obj
 0001:00020850       ?UIDeactivate@?$IOleInPlaceObjectWindowlessImpl@VCOPOSScale@@@ATL@@UAGJXZ 10021850 f i Scale.obj
 0001:000208d0       ?Unadvise@?$CProxy_IOPOSEvents@VCOPOSScale@@@@UAGJK@Z 100218d0 f i Scale.obj
 0001:00020910       ?Unadvise@?$IConnectionPointImpl@VCOPOSScale@@$1?DIID__IOPOSScaleEvents@@3U_GUID@@BVCComDynamicUnkArray@ATL@@@ATL@@UAGJK@Z 10021910 f i Scale.obj
 0001:000209e0       ?Unadvise@?$IConnectionPointImpl@VCOPOSScale@@$1?IID_IPropertyNotifySink@@3U_GUID@@BVCComDynamicUnkArray@ATL@@@ATL@@UAGJK@Z 100219e0 f i Scale.obj
 0001:00020ab0       ?Unadvise@?$IOleObjectImpl@VCOPOSScale@@@ATL@@UAGJK@Z 10021ab0 f i Scale.obj
 0001:00020b80       ?Unfreeze@?$IViewObjectExImpl@VCOPOSScale@@@ATL@@UAGJK@Z 10021b80 f i Scale.obj
 0001:00020bf0       ?Unlock@?$CComCritSecLock@VCComCriticalSection@ATL@@@ATL@@QAEXXZ 10021bf0 f i Scale.obj
 0001:00020c60       ?Unlock@?$CComObjectRootEx@VCComSingleThreadModel@ATL@@@ATL@@QAEXXZ 10021c60 f i Scale.obj
 0001:00020c80       ?Unlock@CAtlModule@ATL@@UAEJXZ 10021c80 f i Scale.obj
 0001:00020cb0       ?Unlock@CComCriticalSection@ATL@@QAEJXZ 10021cb0 f i Scale.obj
 0001:00020cf0       ?Unlock@CComFakeCriticalSection@ATL@@QAEJXZ 10021cf0 f i Scale.obj
 0001:00020d10       ?UnregisterServer@?$CAtlModuleT@VCComModule@ATL@@@ATL@@QAEJHPBU_GUID@@@Z 10021d10 f i Scale.obj
 0001:00020d80       ?UnregisterServer@CAtlComModule@ATL@@QAEJHPBU_GUID@@@Z 10021d80 f i Scale.obj
 0001:00020db0       ?UnregisterServer@CComModule@ATL@@QAEJHPBU_GUID@@@Z 10021db0 f i Scale.obj
 0001:00020e90       ?Update@?$IOleObjectImpl@VCOPOSScale@@@ATL@@UAGJXZ 10021e90 f i Scale.obj
 0001:00020ef0       ?UpdateRegistryFromResource@CAtlModule@ATL@@QAGJIHPAU_ATL_REGMAP_ENTRY@2@@Z 10021ef0 f i Scale.obj
 0001:000213c0       ?UpdateRegistryFromResource@CAtlModule@ATL@@QAGJPB_WHPAU_ATL_REGMAP_ENTRY@2@@Z 100223c0 f i Scale.obj
 0001:000218b0       ?UpdateRegistryFromResource@CComModule@ATL@@UAGJIHPAU_ATL_REGMAP_ENTRY@2@@Z 100228b0 f i Scale.obj
 0001:000218e0       ?UpdateRegistryFromResource@CComModule@ATL@@UAGJPB_WHPAU_ATL_REGMAP_ENTRY@2@@Z 100228e0 f i Scale.obj
 0001:00021910       ?UpdateRegistryFromResourceD@CComModule@ATL@@UAGJIHPAU_ATL_REGMAP_ENTRY@2@@Z 10022910 f i Scale.obj
 0001:00021920       ?UpdateRegistryFromResourceD@CComModule@ATL@@UAGJPB_WHPAU_ATL_REGMAP_ENTRY@2@@Z 10022920 f i Scale.obj
 0001:00021930       ?VTFromRegType@CRegParser@ATL@@KAHPB_WAAG@Z 10022930 f i Scale.obj
 0001:00021a10       ?WindowProc@?$CWindowImplBaseT@VCWindow@ATL@@V?$CWinTraits@$0FGAAAAAA@$0A@@2@@ATL@@SGJPAUHWND__@@IIJ@Z 10022a10 f i Scale.obj
 0001:00021c20       ?WriteToStream@CComBSTR@ATL@@QAEJPAUIStream@@@Z 10022c20 f i Scale.obj
 0001:00021d80       ?WriteToStream@CComVariant@ATL@@QAEJPAUIStream@@@Z 10022d80 f i Scale.obj
 0001:000220c0       ?WriteToStream@CComVariant@ATL@@QAEJPAUIStream@@G@Z 100230c0 f i Scale.obj
 0001:00022190       ?_AtlFinalConstruct@CComObjectRootBase@ATL@@QAEJXZ 10023190 f i Scale.obj
 0001:000221b0       ?_AtlGetConversionACP@ATL@@YGIXZ 100231b0 f i Scale.obj
 0001:000221c0       ?_AtlInitialConstruct@?$CComAggObject@VCOPOSScale@@@ATL@@QAEJXZ 100231c0 f i Scale.obj
 0001:00022210       ?_AtlInitialConstruct@?$CComObjectRootEx@VCComMultiThreadModel@ATL@@@ATL@@QAEJXZ 10023210 f i Scale.obj
 0001:00022240       ?_AtlInitialConstruct@?$CComObjectRootEx@VCComSingleThreadModel@ATL@@@ATL@@QAEJXZ 10023240 f i Scale.obj
 0001:00022260       ?_AtlVerifyStackAvailable@_ATL_SAFE_ALLOCA_IMPL@ATL@@YA_NK@Z 10023260 f i Scale.obj
 0001:00022410       ?_GetEntries@?$CComEnum@UIEnumConnectionPoints@@$1?_GUID_b196b285_bab4_101a_b69c_00aa00341d07@@3U__s_GUID@@BPAUIConnectionPoint@@V?$_CopyInterface@UIConnectionPoint@@@ATL@@VCComSingleThreadModel@6@@ATL@@SGPBU_ATL_INTMAP_ENTRY@2@XZ 10023410 f i Scale.obj
 0001:00022430       ?_GetEntries@?$CComEnum@UIEnumConnections@@$1?_GUID_b196b287_bab4_101a_b69c_00aa00341d07@@3U__s_GUID@@BUtagCONNECTDATA@@V?$_Copy@UtagCONNECTDATA@@@ATL@@VCComSingleThreadModel@6@@ATL@@SGPBU_ATL_INTMAP_ENTRY@2@XZ 10023430 f i Scale.obj
 0001:00022450       ?_GetEntries@CComClassFactory@ATL@@SGPBU_ATL_INTMAP_ENTRY@2@XZ 10023450 f i Scale.obj
 0001:00022470       ?_GetEntries@COPOSScale@@SGPBU_ATL_INTMAP_ENTRY@ATL@@XZ 10023470 f i Scale.obj
 0001:00022490       ?_GetRawUnknown@COPOSScale@@QAEPAUIUnknown@@XZ 10023490 f i Scale.obj
 0001:00022500       ?_GetViewStatus@COPOSScale@@QAEKXZ 10023500 f i Scale.obj
 0001:00022520       ?_InternalQueryInterface@?$CComEnum@UIEnumConnectionPoints@@$1?_GUID_b196b285_bab4_101a_b69c_00aa00341d07@@3U__s_GUID@@BPAUIConnectionPoint@@V?$_CopyInterface@UIConnectionPoint@@@ATL@@VCComSingleThreadModel@6@@ATL@@QAEJABU_GUID@@PAPAX@Z 10023520 f i Scale.obj
 0001:00022560       ?_InternalQueryInterface@?$CComEnum@UIEnumConnections@@$1?_GUID_b196b287_bab4_101a_b69c_00aa00341d07@@3U__s_GUID@@BUtagCONNECTDATA@@V?$_Copy@UtagCONNECTDATA@@@ATL@@VCComSingleThreadModel@6@@ATL@@QAEJABU_GUID@@PAPAX@Z 10023560 f i Scale.obj
 0001:000225a0       ?_InternalQueryInterface@CComClassFactory@ATL@@QAEJABU_GUID@@PAPAX@Z 100235a0 f i Scale.obj
 0001:000225e0       ?_InternalQueryInterface@COPOSScale@@QAEJABU_GUID@@PAPAX@Z 100235e0 f i Scale.obj
 0001:00022620       ?_LocCPQueryInterface@?$IConnectionPointImpl@VCOPOSScale@@$1?DIID__IOPOSScaleEvents@@3U_GUID@@BVCComDynamicUnkArray@ATL@@@ATL@@UAGJABU_GUID@@PAPAX@Z 10023620 f i Scale.obj
 0001:000226c0       ?_LocCPQueryInterface@?$IConnectionPointImpl@VCOPOSScale@@$1?IID_IPropertyNotifySink@@3U_GUID@@BVCComDynamicUnkArray@ATL@@@ATL@@UAGJABU_GUID@@PAPAX@Z 100236c0 f i Scale.obj
 0001:00022760       ?atlCreate@?$CWindowImpl@VCOPOSScale@@VCWindow@ATL@@V?$CWinTraits@$0FGAAAAAA@$0A@@3@@ATL@@QAEPAUHWND__@@PAU3@V_U_RECT@2@PB_WKKV_U_MENUorID@2@PAX@Z 10023760 f i Scale.obj
 0001:00022810       ?atlCreate@?$CWindowImplBaseT@VCWindow@ATL@@V?$CWinTraits@$0FGAAAAAA@$0A@@2@@ATL@@QAEPAUHWND__@@PAU3@V_U_RECT@2@PB_WKKV_U_MENUorID@2@GPAX@Z 10023810 f i Scale.obj
 0001:00022990       ?atlCreate@CRegKey@ATL@@QAEJPAUHKEY__@@PB_WPA_WKKPAU_SECURITY_ATTRIBUTES@@PAK@Z 10023990 f i Scale.obj
 0001:00022af0       ?begin@CComDynamicUnkArray@ATL@@QAEPAPAUIUnknown@@XZ 10023af0 f i Scale.obj
 0001:00022b10       ?copy@?$_Copy@UtagCONNECTDATA@@@ATL@@SAJPAUtagCONNECTDATA@@PBU3@@Z 10023b10 f i Scale.obj
 0001:00022bd0       ?copy@?$_CopyInterface@UIConnectionPoint@@@ATL@@SAJPAPAUIConnectionPoint@@PBQAU3@@Z 10023bd0 f i Scale.obj
 0001:00022c90       ?destroy@?$_Copy@UtagCONNECTDATA@@@ATL@@SAXPAUtagCONNECTDATA@@@Z 10023c90 f i Scale.obj
 0001:00022cd0       ?destroy@?$_CopyInterface@UIConnectionPoint@@@ATL@@SAXPAPAUIConnectionPoint@@@Z 10023cd0 f i Scale.obj
 0001:00022d10       ?end@CComDynamicUnkArray@ATL@@QAEPAPAUIUnknown@@XZ 10023d10 f i Scale.obj
 0001:00022d30       ?init@?$_Copy@UtagCONNECTDATA@@@ATL@@SAXPAUtagCONNECTDATA@@@Z 10023d30 f i Scale.obj
 0001:00022d40       ?init@?$_CopyInterface@UIConnectionPoint@@@ATL@@SAXPAPAUIConnectionPoint@@@Z 10023d40 f i Scale.obj
 0001:00022d50       ?memcpy_s@Checked@ATL@@YAXPAXIPBXI@Z 10023d50 f i Scale.obj
 0001:00022d80       ?ocscpy_s@@YA_NPA_WIPB_W@Z 10023d80 f i Scale.obj
 0001:00022de0       ?ocslen@@YAHPB_W@Z         10023de0 f i Scale.obj
 0001:00022e10       ?tcsncpy_s@Checked@ATL@@YAHPA_WIPB_WI@Z 10023e10 f i Scale.obj
 0001:00022e40       ?wcscat_s@Checked@ATL@@YAXPA_WIPB_W@Z 10023e40 f i Scale.obj
 0001:00022e70       ?wcscpy_s@Checked@ATL@@YAXPA_WIPB_W@Z 10023e70 f i Scale.obj
 0001:00022ea0       ?wcsncpy_s@Checked@ATL@@YAHPA_WIPB_WI@Z 10023ea0 f i Scale.obj
 0001:00022ed0       ?wcsstr@@YAPA_WPA_WPB_W@Z  10023ed0 f i Scale.obj
 0001:00022ef0       _InlineIsEqualGUID         10023ef0 f i Scale.obj
 0001:00022f90       _IsEqualGUID               10023f90 f i Scale.obj
 0001:00022fe0       ??0COPOSScale@@QAE@XZ      10023fe0 f   ScaleImpl.obj
 0001:000230f0       ?FinalConstruct@COPOSScale@@QAEJXZ 100240f0 f   ScaleImpl.obj
 0001:000231c0       ??1COPOSScale@@UAE@XZ      100241c0 f   ScaleImpl.obj
 0001:000232a0       ?WriteTrace@COPOSScale@@QAAXPB_WZZ 100242a0 f   ScaleImpl.obj
 0001:00023350       ?WriteTraceString@COPOSScale@@QAEXPB_WPA_W@Z 10024350 f   ScaleImpl.obj
 0001:000236c0       ?WriteTraceString@COPOSScale@@QAAXPAXHHHPB_WZZ 100246c0 f   ScaleImpl.obj
 0001:000238f0       ?WriteTraceError@COPOSScale@@QAEXPB_WK@Z 100248f0 f   ScaleImpl.obj
 0001:000239e0       ?WriteTraceMethods@COPOSScale@@QAEXPAJH@Z 100249e0 f   ScaleImpl.obj
 0001:00023a50       ?FormatCurrency@COPOSScale@@QAEPB_WTtagCY@@@Z 10024a50 f   ScaleImpl.obj
 0001:00023b70       ?GetOposProp@COPOSScale@@IAEJPBDJPAJJ@Z 10024b70 f   ScaleImpl.obj
 0001:00023de0       ?SetOposProp@COPOSScale@@IAEJPBDJJJ@Z 10024de0 f   ScaleImpl.obj
 0001:00024070       ?GetOposProp@COPOSScale@@IAEJPBDJPAFJ@Z 10025070 f   ScaleImpl.obj
 0001:00024110       ?SetOposProp@COPOSScale@@IAEJPBDJFJ@Z 10025110 f   ScaleImpl.obj
 0001:00024170       ?GetOposProp@COPOSScale@@IAEJPBDJPAPA_WJ@Z 10025170 f   ScaleImpl.obj
 0001:000243f0       ?SetOposProp@COPOSScale@@IAEJPBDJPA_WJ@Z 100253f0 f   ScaleImpl.obj
 0001:00024730       ?DoInvoke@COPOSScale@@IAEJPBDJPAVOposVariant@@IHPAJ_N@Z 10025730 f   ScaleImpl.obj
 0001:00025140       ?SetCOFreezeEvents@COPOSScale@@IAEXF@Z 10026140 f   ScaleImpl.obj
 0001:00025280       ?FreezeEvents@COPOSScale@@MAGJH@Z 10026280 f   ScaleImpl.obj
 0001:00025360       ?OnDraw@COPOSScale@@MAEJAAUATL_DRAWINFO@@@Z 10026360 f   ScaleImpl.obj
 0001:00025500       ?SOProcessID@COPOSScale@@UAGJPAJ@Z 10026500 f   ScaleImpl.obj
 0001:00025540       ?get_OpenResult@COPOSScale@@UAGJPAJ@Z 10026540 f   ScaleImpl.obj
 0001:00025580       ?get_CheckHealthText@COPOSScale@@UAGJPAPA_W@Z 10026580 f   ScaleImpl.obj
 0001:000255b0       ?get_Claimed@COPOSScale@@UAGJPAF@Z 100265b0 f   ScaleImpl.obj
 0001:000255e0       ?get_DeviceEnabled@COPOSScale@@UAGJPAF@Z 100265e0 f   ScaleImpl.obj
 0001:00025610       ?put_DeviceEnabled@COPOSScale@@UAGJF@Z 10026610 f   ScaleImpl.obj
 0001:00025640       ?get_FreezeEvents@COPOSScale@@UAGJPAF@Z 10026640 f   ScaleImpl.obj
 0001:00025670       ?put_FreezeEvents@COPOSScale@@UAGJF@Z 10026670 f   ScaleImpl.obj
 0001:00025700       ?get_ResultCode@COPOSScale@@UAGJPAJ@Z 10026700 f   ScaleImpl.obj
 0001:00025790       ?get_ResultCodeExtended@COPOSScale@@UAGJPAJ@Z 10026790 f   ScaleImpl.obj
 0001:000257c0       ?get_State@COPOSScale@@UAGJPAJ@Z 100267c0 f   ScaleImpl.obj
 0001:00025810       ?get_ControlObjectDescription@COPOSScale@@UAGJPAPA_W@Z 10026810 f   ScaleImpl.obj
 0001:00025890       ?get_ControlObjectVersion@COPOSScale@@UAGJPAJ@Z 10026890 f   ScaleImpl.obj
 0001:000258d0       ?get_ServiceObjectDescription@COPOSScale@@UAGJPAPA_W@Z 100268d0 f   ScaleImpl.obj
 0001:00025900       ?get_ServiceObjectVersion@COPOSScale@@UAGJPAJ@Z 10026900 f   ScaleImpl.obj
 0001:00025930       ?get_DeviceDescription@COPOSScale@@UAGJPAPA_W@Z 10026930 f   ScaleImpl.obj
 0001:00025960       ?get_DeviceName@COPOSScale@@UAGJPAPA_W@Z 10026960 f   ScaleImpl.obj
 0001:00025990       ?CheckHealth@COPOSScale@@UAGJJPAJ@Z 10026990 f   ScaleImpl.obj
 0001:00025a30       ?ClaimDevice@COPOSScale@@UAGJJPAJ@Z 10026a30 f   ScaleImpl.obj
 0001:00025b10       ?Close@COPOSScale@@UAGJPAJ@Z 10026b10 f   ScaleImpl.obj
 0001:00025be0       ?DirectIO@COPOSScale@@UAGJJPAJPAPA_W0@Z 10026be0 f   ScaleImpl.obj
 0001:00025cf0       ?Open@COPOSScale@@UAGJPA_WPAJ@Z 10026cf0 f   ScaleImpl.obj
 0001:00026ed0       ?ReleaseDevice@COPOSScale@@UAGJPAJ@Z 10027ed0 f   ScaleImpl.obj
 0001:00026f40       ?get_MaximumWeight@COPOSScale@@UAGJPAJ@Z 10027f40 f   ScaleImpl.obj
 0001:00026f70       ?get_WeightUnit@COPOSScale@@UAGJPAJ@Z 10027f70 f   ScaleImpl.obj
 0001:00026fa0       ?get_WeightUnits@COPOSScale@@UAGJPAJ@Z 10027fa0 f   ScaleImpl.obj
 0001:00026fd0       ?ReadWeight@COPOSScale@@UAGJPAJJ0@Z 10027fd0 f   ScaleImpl.obj
 0001:000270c0       ?get_BinaryConversion@COPOSScale@@UAGJPAJ@Z 100280c0 f   ScaleImpl.obj
 0001:000270f0       ?put_BinaryConversion@COPOSScale@@UAGJJ@Z 100280f0 f   ScaleImpl.obj
 0001:00027120       ?get_CapDisplay@COPOSScale@@UAGJPAF@Z 10028120 f   ScaleImpl.obj
 0001:00027150       ?get_AutoDisable@COPOSScale@@UAGJPAF@Z 10028150 f   ScaleImpl.obj
 0001:00027180       ?put_AutoDisable@COPOSScale@@UAGJF@Z 10028180 f   ScaleImpl.obj
 0001:000271b0       ?get_CapPowerReporting@COPOSScale@@UAGJPAJ@Z 100281b0 f   ScaleImpl.obj
 0001:000271e0       ?get_DataCount@COPOSScale@@UAGJPAJ@Z 100281e0 f   ScaleImpl.obj
 0001:00027210       ?get_DataEventEnabled@COPOSScale@@UAGJPAF@Z 10028210 f   ScaleImpl.obj
 0001:00027240       ?put_DataEventEnabled@COPOSScale@@UAGJF@Z 10028240 f   ScaleImpl.obj
 0001:00027270       ?get_PowerNotify@COPOSScale@@UAGJPAJ@Z 10028270 f   ScaleImpl.obj
 0001:000272a0       ?put_PowerNotify@COPOSScale@@UAGJJ@Z 100282a0 f   ScaleImpl.obj
 0001:000272d0       ?get_PowerState@COPOSScale@@UAGJPAJ@Z 100282d0 f   ScaleImpl.obj
 0001:00027300       ?ClearInput@COPOSScale@@UAGJPAJ@Z 10028300 f   ScaleImpl.obj
 0001:00027330       ?get_AsyncMode@COPOSScale@@UAGJPAF@Z 10028330 f   ScaleImpl.obj
 0001:00027360       ?put_AsyncMode@COPOSScale@@UAGJF@Z 10028360 f   ScaleImpl.obj
 0001:00027390       ?get_CapDisplayText@COPOSScale@@UAGJPAF@Z 10028390 f   ScaleImpl.obj
 0001:000273c0       ?get_CapPriceCalculating@COPOSScale@@UAGJPAF@Z 100283c0 f   ScaleImpl.obj
 0001:000273f0       ?get_CapTareWeight@COPOSScale@@UAGJPAF@Z 100283f0 f   ScaleImpl.obj
 0001:00027420       ?get_CapZeroScale@COPOSScale@@UAGJPAF@Z 10028420 f   ScaleImpl.obj
 0001:00027450       ?get_MaxDisplayTextChars@COPOSScale@@UAGJPAJ@Z 10028450 f   ScaleImpl.obj
 0001:00027480       ?get_SalesPrice@COPOSScale@@UAGJPATtagCY@@@Z 10028480 f   ScaleImpl.obj
 0001:00027690       ?get_TareWeight@COPOSScale@@UAGJPAJ@Z 10028690 f   ScaleImpl.obj
 0001:000276c0       ?put_TareWeight@COPOSScale@@UAGJJ@Z 100286c0 f   ScaleImpl.obj
 0001:000276f0       ?get_UnitPrice@COPOSScale@@UAGJPATtagCY@@@Z 100286f0 f   ScaleImpl.obj
 0001:00027900       ?put_UnitPrice@COPOSScale@@UAGJTtagCY@@@Z 10028900 f   ScaleImpl.obj
 0001:00027b30       ?DisplayText@COPOSScale@@UAGJPA_WPAJ@Z 10028b30 f   ScaleImpl.obj
 0001:00027be0       ?ZeroScale@COPOSScale@@UAGJPAJ@Z 10028be0 f   ScaleImpl.obj
 0001:00027c10       ?get_CapStatisticsReporting@COPOSScale@@UAGJPAF@Z 10028c10 f   ScaleImpl.obj
 0001:00027c40       ?get_CapUpdateStatistics@COPOSScale@@UAGJPAF@Z 10028c40 f   ScaleImpl.obj
 0001:00027c70       ?ResetStatistics@COPOSScale@@UAGJPA_WPAJ@Z 10028c70 f   ScaleImpl.obj
 0001:00027d20       ?RetrieveStatistics@COPOSScale@@UAGJPAPA_WPAJ@Z 10028d20 f   ScaleImpl.obj
 0001:00027dd0       ?UpdateStatistics@COPOSScale@@UAGJPA_WPAJ@Z 10028dd0 f   ScaleImpl.obj
 0001:00027e80       ?get_CapCompareFirmwareVersion@COPOSScale@@UAGJPAF@Z 10028e80 f   ScaleImpl.obj
 0001:00027eb0       ?get_CapUpdateFirmware@COPOSScale@@UAGJPAF@Z 10028eb0 f   ScaleImpl.obj
 0001:00027ee0       ?CompareFirmwareVersion@COPOSScale@@UAGJPA_WPAJ1@Z 10028ee0 f   ScaleImpl.obj
 0001:00027fd0       ?UpdateFirmware@COPOSScale@@UAGJPA_WPAJ@Z 10028fd0 f   ScaleImpl.obj
 0001:00028080       ?get_CapStatusUpdate@COPOSScale@@UAGJPAF@Z 10029080 f   ScaleImpl.obj
 0001:000280b0       ?get_ScaleLiveWeight@COPOSScale@@UAGJPAJ@Z 100290b0 f   ScaleImpl.obj
 0001:000280e0       ?get_StatusNotify@COPOSScale@@UAGJPAJ@Z 100290e0 f   ScaleImpl.obj
 0001:00028110       ?put_StatusNotify@COPOSScale@@UAGJJ@Z 10029110 f   ScaleImpl.obj
 0001:00028140       ?get_ZeroValid@COPOSScale@@UAGJPAF@Z 10029140 f   ScaleImpl.obj
 0001:00028170       ?put_ZeroValid@COPOSScale@@UAGJF@Z 10029170 f   ScaleImpl.obj
 0001:000281a0       ?get_CapFreezeValue@COPOSScale@@UAGJPAF@Z 100291a0 f   ScaleImpl.obj
 0001:000281d0       ?get_CapReadLiveWeightWithTare@COPOSScale@@UAGJPAF@Z 100291d0 f   ScaleImpl.obj
 0001:00028200       ?get_CapSetPriceCalculationMode@COPOSScale@@UAGJPAF@Z 10029200 f   ScaleImpl.obj
 0001:00028230       ?get_CapSetUnitPriceWithWeightUnit@COPOSScale@@UAGJPAF@Z 10029230 f   ScaleImpl.obj
 0001:00028260       ?get_CapSpecialTare@COPOSScale@@UAGJPAF@Z 10029260 f   ScaleImpl.obj
 0001:00028290       ?get_CapTarePriority@COPOSScale@@UAGJPAF@Z 10029290 f   ScaleImpl.obj
 0001:000282c0       ?get_MinimumWeight@COPOSScale@@UAGJPAJ@Z 100292c0 f   ScaleImpl.obj
 0001:000282f0       ?DoPriceCalculating@COPOSScale@@UAGJPAJ0PATtagCY@@10001J0@Z 100292f0 f   ScaleImpl.obj
 0001:000284f0       ?FreezeValue@COPOSScale@@UAGJJFPAJ@Z 100294f0 f   ScaleImpl.obj
 0001:000285c0       ?ReadLiveWeightWithTare@COPOSScale@@UAGJPAJ0J0@Z 100295c0 f   ScaleImpl.obj
 0001:000286d0       ?SetPriceCalculationMode@COPOSScale@@UAGJJPAJ@Z 100296d0 f   ScaleImpl.obj
 0001:00028770       ?SetSpecialTare@COPOSScale@@UAGJJJPAJ@Z 10029770 f   ScaleImpl.obj
 0001:00028840       ?SetTarePriority@COPOSScale@@UAGJJPAJ@Z 10029840 f   ScaleImpl.obj
 0001:000288e0       ?SetUnitPriceWithWeightUnit@COPOSScale@@UAGJTtagCY@@JJJPAJ@Z 100298e0 f   ScaleImpl.obj
 0001:000289f0       ??0?$CComControl@VCOPOSScale@@V?$CWindowImpl@VCOPOSScale@@VCWindow@ATL@@V?$CWinTraits@$0FGAAAAAA@$0A@@3@@ATL@@@ATL@@QAE@XZ 100299f0 f i ScaleImpl.obj
 0001:00028a30       ??0?$CComPtr@UIAdviseSink@@@ATL@@QAE@XZ 10029a30 f i ScaleImpl.obj
 0001:00028a60       ??0?$CComPtr@UIDataAdviseHolder@@@ATL@@QAE@XZ 10029a60 f i ScaleImpl.obj
 0001:00028a90       ??0?$CComPtr@UIOleAdviseHolder@@@ATL@@QAE@XZ 10029a90 f i ScaleImpl.obj
 0001:00028ac0       ??0?$CComPtr@UIOleClientSite@@@ATL@@QAE@XZ 10029ac0 f i ScaleImpl.obj
 0001:00028af0       ??0?$CComPtr@UIOleInPlaceSiteWindowless@@@ATL@@QAE@XZ 10029af0 f i ScaleImpl.obj
 0001:00028b20       ??0?$CComPtrBase@UIAdviseSink@@@ATL@@IAE@XZ 10029b20 f i ScaleImpl.obj
 0001:00028b40       ??0?$CComPtrBase@UIDataAdviseHolder@@@ATL@@IAE@XZ 10029b40 f i ScaleImpl.obj
 0001:00028b60       ??0?$CComPtrBase@UIOleAdviseHolder@@@ATL@@IAE@XZ 10029b60 f i ScaleImpl.obj
 0001:00028b80       ??0?$CComPtrBase@UIOleClientSite@@@ATL@@IAE@XZ 10029b80 f i ScaleImpl.obj
 0001:00028ba0       ??0?$CComPtrBase@UIOleInPlaceSiteWindowless@@@ATL@@IAE@XZ 10029ba0 f i ScaleImpl.obj
 0001:00028bc0       ??0?$CComQIPtr@UIDispatch@@$1?_GUID_00020400_0000_0000_c000_000000000046@@3U__s_GUID@@B@ATL@@QAE@XZ 10029bc0 f i ScaleImpl.obj
 0001:00028bf0       ??0?$CProxy_IOPOSEvents@VCOPOSScale@@@@QAE@PAVCOPOSScale@@@Z 10029bf0 f i ScaleImpl.obj
 0001:00028c60       ??0?$CWindowImpl@VCOPOSScale@@VCWindow@ATL@@V?$CWinTraits@$0FGAAAAAA@$0A@@3@@ATL@@QAE@XZ 10029c60 f i ScaleImpl.obj
 0001:00028c90       ??0?$CWindowImplBaseT@VCWindow@ATL@@V?$CWinTraits@$0FGAAAAAA@$0A@@2@@ATL@@QAE@XZ 10029c90 f i ScaleImpl.obj
 0001:00028cd0       ??0?$CWindowImplRoot@VCWindow@ATL@@@ATL@@QAE@XZ 10029cd0 f i ScaleImpl.obj
 0001:00028d30       ??0?$IConnectionPointContainerImpl@VCOPOSScale@@@ATL@@QAE@XZ 10029d30 f i ScaleImpl.obj
 0001:00028d60       ??0?$IConnectionPointImpl@VCOPOSScale@@$1?DIID__IOPOSScaleEvents@@3U_GUID@@BVCComDynamicUnkArray@ATL@@@ATL@@QAE@XZ 10029d60 f i ScaleImpl.obj
 0001:00028da0       ??0?$IConnectionPointImpl@VCOPOSScale@@$1?IID_IPropertyNotifySink@@3U_GUID@@BVCComDynamicUnkArray@ATL@@@ATL@@QAE@XZ 10029da0 f i ScaleImpl.obj
 0001:00028de0       ??0?$IDataObjectImpl@VCOPOSScale@@@ATL@@QAE@XZ 10029de0 f i ScaleImpl.obj
 0001:00028e10       ??0?$IDispatchImpl@UIOPOSScale@@$1?IID_IOPOSScale@@3U_GUID@@B$1?LIBID_OposScale_CCO@@3U3@B$00$0A@VCComTypeInfoHolder@ATL@@@ATL@@QAE@XZ 10029e10 f i ScaleImpl.obj
 0001:00028e40       ??0?$IObjectSafetyImpl@VCOPOSScale@@$02@ATL@@QAE@XZ 10029e40 f i ScaleImpl.obj
 0001:00028e80       ??0?$IOleControlImpl@VCOPOSScale@@@ATL@@QAE@XZ 10029e80 f i ScaleImpl.obj
 0001:00028eb0       ??0?$IOleInPlaceActiveObjectImpl@VCOPOSScale@@@ATL@@QAE@XZ 10029eb0 f i ScaleImpl.obj
 0001:00028ee0       ??0?$IOleInPlaceObjectWindowlessImpl@VCOPOSScale@@@ATL@@QAE@XZ 10029ee0 f i ScaleImpl.obj
 0001:00028f10       ??0?$IOleObjectImpl@VCOPOSScale@@@ATL@@QAE@XZ 10029f10 f i ScaleImpl.obj
 0001:00028f40       ??0?$IPersistStorageImpl@VCOPOSScale@@@ATL@@QAE@XZ 10029f40 f i ScaleImpl.obj
 0001:00028f70       ??0?$IPersistStreamInitImpl@VCOPOSScale@@@ATL@@QAE@XZ 10029f70 f i ScaleImpl.obj
 0001:00028fa0       ??0?$IPropertyNotifySinkCP@VCOPOSScale@@VCComDynamicUnkArray@ATL@@@ATL@@QAE@XZ 10029fa0 f i ScaleImpl.obj
 0001:00028fd0       ??0?$IProvideClassInfo2Impl@$1?CLSID_OPOSScale@@3U_GUID@@B$1?DIID__IOPOSScaleEvents@@3U2@B$1?LIBID_OposScale_CCO@@3U2@B$00$0A@VCComTypeInfoHolder@ATL@@@ATL@@QAE@XZ 10029fd0 f i ScaleImpl.obj
 0001:00029000       ??0?$IQuickActivateImpl@VCOPOSScale@@@ATL@@QAE@XZ 1002a000 f i ScaleImpl.obj
 0001:00029030       ??0?$ISpecifyPropertyPagesImpl@VCOPOSScale@@@ATL@@QAE@XZ 1002a030 f i ScaleImpl.obj
 0001:00029060       ??0?$IViewObjectExImpl@VCOPOSScale@@@ATL@@QAE@XZ 1002a060 f i ScaleImpl.obj
 0001:00029090       ??0?$_ICPLocator@$1?DIID__IOPOSScaleEvents@@3U_GUID@@B@ATL@@QAE@XZ 1002a090 f i ScaleImpl.obj
 0001:000290b0       ??0?$_ICPLocator@$1?IID_IPropertyNotifySink@@3U_GUID@@B@ATL@@QAE@XZ 1002a0b0 f i ScaleImpl.obj
 0001:000290d0       ??0CComControlBase@ATL@@QAE@AAPAUHWND__@@@Z 1002a0d0 f i ScaleImpl.obj
 0001:00029280       ??0CComDynamicUnkArray@ATL@@QAE@XZ 1002a280 f i ScaleImpl.obj
 0001:000292b0       ??0CDynamicStdCallThunk2@ATL@@QAE@XZ 1002a2b0 f i ScaleImpl.obj
 0001:000292d0       ??0CMessageMap@ATL@@QAE@XZ 1002a2d0 f i ScaleImpl.obj
 0001:000292f0       ??0CWindow@ATL@@QAE@PAUHWND__@@@Z 1002a2f0 f i ScaleImpl.obj
 0001:00029310       ??0CWndProcThunk@ATL@@QAE@XZ 1002a310 f i ScaleImpl.obj
 0001:00029340       ??0IConnectionPointContainer@@QAE@XZ 1002a340 f i ScaleImpl.obj
 0001:00029370       ??0IDataObject@@QAE@XZ     1002a370 f i ScaleImpl.obj
 0001:000293a0       ??0IDispatch@@QAE@XZ       1002a3a0 f i ScaleImpl.obj
 0001:000293d0       ??0IOPOSScale@@QAE@XZ      1002a3d0 f i ScaleImpl.obj
 0001:00029400       ??0IOPOSScale_1_13@@QAE@XZ 1002a400 f i ScaleImpl.obj
 0001:00029430       ??0IOPOSScale_1_14@@QAE@XZ 1002a430 f i ScaleImpl.obj
 0001:00029460       ??0IOPOSScale_1_5@@QAE@XZ  1002a460 f i ScaleImpl.obj
 0001:00029490       ??0IOPOSScale_1_8@@QAE@XZ  1002a490 f i ScaleImpl.obj
 0001:000294c0       ??0IOPOSScale_1_9@@QAE@XZ  1002a4c0 f i ScaleImpl.obj
 0001:000294f0       ??0IObjectSafety@@QAE@XZ   1002a4f0 f i ScaleImpl.obj
 0001:00029520       ??0IOleControl@@QAE@XZ     1002a520 f i ScaleImpl.obj
 0001:00029550       ??0IOleInPlaceActiveObject@@QAE@XZ 1002a550 f i ScaleImpl.obj
 0001:00029580       ??0IOleInPlaceObject@@QAE@XZ 1002a580 f i ScaleImpl.obj
 0001:000295b0       ??0IOleInPlaceObjectWindowless@@QAE@XZ 1002a5b0 f i ScaleImpl.obj
 0001:000295e0       ??0IOleObject@@QAE@XZ      1002a5e0 f i ScaleImpl.obj
 0001:00029610       ??0IOleWindow@@QAE@XZ      1002a610 f i ScaleImpl.obj
 0001:00029640       ??0IPersist@@QAE@XZ        1002a640 f i ScaleImpl.obj
 0001:00029670       ??0IPersistStorage@@QAE@XZ 1002a670 f i ScaleImpl.obj
 0001:000296a0       ??0IPersistStreamInit@@QAE@XZ 1002a6a0 f i ScaleImpl.obj
 0001:000296d0       ??0IProvideClassInfo2@@QAE@XZ 1002a6d0 f i ScaleImpl.obj
 0001:00029700       ??0IProvideClassInfo@@QAE@XZ 1002a700 f i ScaleImpl.obj
 0001:00029730       ??0IQuickActivate@@QAE@XZ  1002a730 f i ScaleImpl.obj
 0001:00029760       ??0ISpecifyPropertyPages@@QAE@XZ 1002a760 f i ScaleImpl.obj
 0001:00029790       ??0IViewObject2@@QAE@XZ    1002a790 f i ScaleImpl.obj
 0001:000297c0       ??0IViewObject@@QAE@XZ     1002a7c0 f i ScaleImpl.obj
 0001:000297f0       ??0IViewObjectEx@@QAE@XZ   1002a7f0 f i ScaleImpl.obj
 0001:00029820       ??0OposVariantResult@@QAE@XZ 1002a820 f i ScaleImpl.obj
 0001:00029850       ??0_CW@@QAE@PBD@Z          1002a850 f i ScaleImpl.obj
 0001:00029890       ??0_CW@@QAE@PB_W@Z         1002a890 f i ScaleImpl.obj
 0001:000298d0       ??0_CWNCC@@QAE@PBD@Z       1002a8d0 f i ScaleImpl.obj
 0001:00029900       ??1?$CComControl@VCOPOSScale@@V?$CWindowImpl@VCOPOSScale@@VCWindow@ATL@@V?$CWinTraits@$0FGAAAAAA@$0A@@3@@ATL@@@ATL@@UAE@XZ 1002a900 f i ScaleImpl.obj
 0001:00029930       ??1?$CComPtr@UIDataAdviseHolder@@@ATL@@QAE@XZ 1002a930 f i ScaleImpl.obj
 0001:00029960       ??1?$CComPtr@UIOleAdviseHolder@@@ATL@@QAE@XZ 1002a960 f i ScaleImpl.obj
 0001:00029990       ??1?$CComPtr@UIOleInPlaceSiteWindowless@@@ATL@@QAE@XZ 1002a990 f i ScaleImpl.obj
 0001:000299c0       ??1?$CComPtrBase@UIDataAdviseHolder@@@ATL@@QAE@XZ 1002a9c0 f i ScaleImpl.obj
 0001:00029a10       ??1?$CComPtrBase@UIOleAdviseHolder@@@ATL@@QAE@XZ 1002aa10 f i ScaleImpl.obj
 0001:00029a60       ??1?$CComPtrBase@UIOleInPlaceSiteWindowless@@@ATL@@QAE@XZ 1002aa60 f i ScaleImpl.obj
 0001:00029ab0       ??1?$CComQIPtr@UIDispatch@@$1?_GUID_00020400_0000_0000_c000_000000000046@@3U__s_GUID@@B@ATL@@QAE@XZ 1002aab0 f i ScaleImpl.obj
 0001:00029ae0       ??1?$CProxy_IOPOSEvents@VCOPOSScale@@@@QAE@XZ 1002aae0 f i ScaleImpl.obj
 0001:00029b10       ??1?$CWindowImpl@VCOPOSScale@@VCWindow@ATL@@V?$CWinTraits@$0FGAAAAAA@$0A@@3@@ATL@@UAE@XZ 1002ab10 f i ScaleImpl.obj
 0001:00029b40       ??1?$CWindowImplBaseT@VCWindow@ATL@@V?$CWinTraits@$0FGAAAAAA@$0A@@2@@ATL@@UAE@XZ 1002ab40 f i ScaleImpl.obj
 0001:00029b70       ??1?$CWindowImplRoot@VCWindow@ATL@@@ATL@@UAE@XZ 1002ab70 f i ScaleImpl.obj
 0001:00029c10       ??1?$IConnectionPointImpl@VCOPOSScale@@$1?DIID__IOPOSScaleEvents@@3U_GUID@@BVCComDynamicUnkArray@ATL@@@ATL@@QAE@XZ 1002ac10 f i ScaleImpl.obj
 0001:00029c90       ??1?$IConnectionPointImpl@VCOPOSScale@@$1?IID_IPropertyNotifySink@@3U_GUID@@BVCComDynamicUnkArray@ATL@@@ATL@@QAE@XZ 1002ac90 f i ScaleImpl.obj
 0001:00029d10       ??1?$IPropertyNotifySinkCP@VCOPOSScale@@VCComDynamicUnkArray@ATL@@@ATL@@QAE@XZ 1002ad10 f i ScaleImpl.obj
 0001:00029d40       ??1CComControlBase@ATL@@UAE@XZ 1002ad40 f i ScaleImpl.obj
 0001:00029e00       ??1CComDynamicUnkArray@ATL@@QAE@XZ 1002ae00 f i ScaleImpl.obj
 0001:00029e40       ??1CDynamicStdCallThunk2@ATL@@QAE@XZ 1002ae40 f i ScaleImpl.obj
 0001:00029e70       ??1CWndProcThunk@ATL@@QAE@XZ 1002ae70 f i ScaleImpl.obj
 0001:00029ea0       ??1OposVariantResult@@QAE@XZ 1002aea0 f i ScaleImpl.obj
 0001:00029ed0       ??1_CW@@QAE@XZ             1002aed0 f i ScaleImpl.obj
 0001:00029f40       ??1_CWNCC@@QAE@XZ          1002af40 f i ScaleImpl.obj
 0001:00029f70       ??B_CW@@QAEPB_WXZ          1002af70 f i ScaleImpl.obj
 0001:00029fb0       ??B_CWNCC@@QAEPA_WXZ       1002afb0 f i ScaleImpl.obj
 0001:00029fe0       ??_EOposVariant@@QAEPAXI@Z 1002afe0 f i ScaleImpl.obj
 0001:0002a070       ?EventClaim@COPOSScale@@IAEXXZ 1002b070 f i ScaleImpl.obj
 0001:0002a0b0       ?EventClose@COPOSScale@@IAEXXZ 1002b0b0 f i ScaleImpl.obj
 0001:0002a150       ?EventInit@COPOSScale@@IAEJXZ 1002b150 f i ScaleImpl.obj
 0001:0002a380       ?EventOpen@COPOSScale@@IAEXXZ 1002b380 f i ScaleImpl.obj
 0001:0002a3c0       ?EventPreCloseRelease@COPOSScale@@IAEXXZ 1002b3c0 f i ScaleImpl.obj
 0001:0002a440       ?EventUninit@COPOSScale@@IAEXXZ 1002b440 f i ScaleImpl.obj
 0001:0002a570       ?EventWindowProc@COPOSScale@@IAGJIIJ@Z 1002b570 f i ScaleImpl.obj
 0001:0002a700       ?FireEventCleanup@COPOSScale@@IAEXXZ 1002b700 f i ScaleImpl.obj
 0001:0002a750       ?FireEventSetup@COPOSScale@@IAE_NXZ 1002b750 f i ScaleImpl.obj
 0001:0002a7c0       ?GetModuleInstance@CComModule@ATL@@QAEPAUHINSTANCE__@@XZ 1002b7c0 f i ScaleImpl.obj
 0001:0002a7e0       ?SetRC@COPOSScale@@IAEJJ@Z 1002b7e0 f i ScaleImpl.obj
 0001:0002a810       ?s_EventWindowProc@COPOSScale@@KGJPAUHWND__@@IIJ@Z 1002b810 f i ScaleImpl.obj
 0001:0002a8b0       __snwprintf                1002b8b0 f i ScaleImpl.obj
 0001:0002a910       __vfwprintf_l              1002b910 f i ScaleImpl.obj
 0001:0002a940       __vsnwprintf               1002b940 f i ScaleImpl.obj
 0001:0002a970       __vsnwprintf_l             1002b970 f i ScaleImpl.obj
 0001:0002a9e0       _vfwprintf                 1002b9e0 f i ScaleImpl.obj
 0001:0002aa02       _DebugBreak@0              1002ba02 f   kernel32:KERNEL32.dll
 0001:0002aa08       _Sleep@4                   1002ba08 f   kernel32:KERNEL32.dll
 0001:0002aa0e       _GetCurrentProcess@0       1002ba0e f   kernel32:KERNEL32.dll
 0001:0002aa14       _TerminateProcess@8        1002ba14 f   kernel32:KERNEL32.dll
 0001:0002aa1a       _MultiByteToWideChar@24    1002ba1a f   kernel32:KERNEL32.dll
 0001:0002aa20       _WideCharToMultiByte@32    1002ba20 f   kernel32:KERNEL32.dll
 0001:0002aa26       _DecodePointer@4           1002ba26 f   kernel32:KERNEL32.dll
 0001:0002aa2c       _RaiseException@16         1002ba2c f   kernel32:KERNEL32.dll
 0001:0002aa32       _GetLastError@0            1002ba32 f   kernel32:KERNEL32.dll
 0001:0002aa38       _SetLastError@4            1002ba38 f   kernel32:KERNEL32.dll
 0001:0002aa3e       _InitializeCriticalSectionEx@12 1002ba3e f   kernel32:KERNEL32.dll
 0001:0002aa44       _DeleteCriticalSection@4   1002ba44 f   kernel32:KERNEL32.dll
 0001:0002aa4a       _EncodePointer@4           1002ba4a f   kernel32:KERNEL32.dll
 0001:0002aa50       _EnterCriticalSection@4    1002ba50 f   kernel32:KERNEL32.dll
 0001:0002aa56       _LeaveCriticalSection@4    1002ba56 f   kernel32:KERNEL32.dll
 0001:0002aa5c       _ResetEvent@4              1002ba5c f   kernel32:KERNEL32.dll
 0001:0002aa62       _ReleaseMutex@4            1002ba62 f   kernel32:KERNEL32.dll
 0001:0002aa68       _WaitForSingleObject@8     1002ba68 f   kernel32:KERNEL32.dll
 0001:0002aa6e       _GetCurrentThreadId@0      1002ba6e f   kernel32:KERNEL32.dll
 0001:0002aa74       _DisableThreadLibraryCalls@4 1002ba74 f   kernel32:KERNEL32.dll
 0001:0002aa7a       _FreeLibrary@4             1002ba7a f   kernel32:KERNEL32.dll
 0001:0002aa80       _GetModuleFileNameW@12     1002ba80 f   kernel32:KERNEL32.dll
 0001:0002aa86       _GetModuleHandleW@4        1002ba86 f   kernel32:KERNEL32.dll
 0001:0002aa8c       _GetProcAddress@8          1002ba8c f   kernel32:KERNEL32.dll
 0001:0002aa92       _LoadLibraryExW@12         1002ba92 f   kernel32:KERNEL32.dll
 0001:0002aa98       _LoadResource@8            1002ba98 f   kernel32:KERNEL32.dll
 0001:0002aa9e       _SizeofResource@8          1002ba9e f   kernel32:KERNEL32.dll
 0001:0002aaa4       _FindResourceW@12          1002baa4 f   kernel32:KERNEL32.dll
 0001:0002aaaa       _GlobalAlloc@8             1002baaa f   kernel32:KERNEL32.dll
 0001:0002aab0       _GlobalUnlock@4            1002bab0 f   kernel32:KERNEL32.dll
 0001:0002aab6       _GlobalLock@4              1002bab6 f   kernel32:KERNEL32.dll
 0001:0002aabc       _MulDiv@12                 1002babc f   kernel32:KERNEL32.dll
 0001:0002aac2       _lstrcmpiW@8               1002bac2 f   kernel32:KERNEL32.dll
 0001:0002aac8       _DeleteFileW@4             1002bac8 f   kernel32:KERNEL32.dll
 0001:0002aace       _CloseHandle@4             1002bace f   kernel32:KERNEL32.dll
 0001:0002aad4       _SetEvent@4                1002bad4 f   kernel32:KERNEL32.dll
 0001:0002aada       _CreateMutexW@12           1002bada f   kernel32:KERNEL32.dll
 0001:0002aae0       _CreateEventW@16           1002bae0 f   kernel32:KERNEL32.dll
 0001:0002aae6       _GetCurrentProcessId@0     1002bae6 f   kernel32:KERNEL32.dll
 0001:0002aaec       _LocalFree@4               1002baec f   kernel32:KERNEL32.dll
 0001:0002aaf2       _FormatMessageW@28         1002baf2 f   kernel32:KERNEL32.dll
 0001:0002aaf8       _GetActiveWindow@0         1002baf8 f   user32:USER32.dll
 0001:0002aafe       _MessageBoxW@16            1002bafe f   user32:USER32.dll
 0001:0002ab04       _UnregisterClassW@8        1002bb04 f   user32:USER32.dll
 0001:0002ab0a       _PostMessageW@16           1002bb0a f   user32:USER32.dll
 0001:0002ab10       _DefWindowProcW@16         1002bb10 f   user32:USER32.dll
 0001:0002ab16       _CallWindowProcW@20        1002bb16 f   user32:USER32.dll
 0001:0002ab1c       _RegisterClassExW@4        1002bb1c f   user32:USER32.dll
 0001:0002ab22       _GetClassInfoExW@12        1002bb22 f   user32:USER32.dll
 0001:0002ab28       _CreateWindowExW@48        1002bb28 f   user32:USER32.dll
 0001:0002ab2e       _IsWindow@4                1002bb2e f   user32:USER32.dll
 0001:0002ab34       _IsChild@8                 1002bb34 f   user32:USER32.dll
 0001:0002ab3a       _DestroyWindow@4           1002bb3a f   user32:USER32.dll
 0001:0002ab40       _ShowWindow@8              1002bb40 f   user32:USER32.dll
 0001:0002ab46       _SetWindowPos@28           1002bb46 f   user32:USER32.dll
 0001:0002ab4c       _CharNextW@4               1002bb4c f   user32:USER32.dll
 0001:0002ab52       _SetFocus@4                1002bb52 f   user32:USER32.dll
 0001:0002ab58       _GetFocus@0                1002bb58 f   user32:USER32.dll
 0001:0002ab5e       _GetKeyState@4             1002bb5e f   user32:USER32.dll
 0001:0002ab64       _GetDC@4                   1002bb64 f   user32:USER32.dll
 0001:0002ab6a       _ReleaseDC@8               1002bb6a f   user32:USER32.dll
 0001:0002ab70       _BeginPaint@8              1002bb70 f   user32:USER32.dll
 0001:0002ab76       _EndPaint@8                1002bb76 f   user32:USER32.dll
 0001:0002ab7c       _SetWindowRgn@12           1002bb7c f   user32:USER32.dll
 0001:0002ab82       _InvalidateRect@12         1002bb82 f   user32:USER32.dll
 0001:0002ab88       _GetClientRect@8           1002bb88 f   user32:USER32.dll
 0001:0002ab8e       _IntersectRect@12          1002bb8e f   user32:USER32.dll
 0001:0002ab94       _UnionRect@12              1002bb94 f   user32:USER32.dll
 0001:0002ab9a       _OffsetRect@12             1002bb9a f   user32:USER32.dll
 0001:0002aba0       _EqualRect@8               1002bba0 f   user32:USER32.dll
 0001:0002aba6       _PtInRect@12               1002bba6 f   user32:USER32.dll
 0001:0002abac       _GetWindowLongW@8          1002bbac f   user32:USER32.dll
 0001:0002abb2       _SetWindowLongW@12         1002bbb2 f   user32:USER32.dll
 0001:0002abb8       _GetParent@4               1002bbb8 f   user32:USER32.dll
 0001:0002abbe       _LoadCursorW@8             1002bbbe f   user32:USER32.dll
 0001:0002abc4       _PeekMessageW@20           1002bbc4 f   user32:USER32.dll
 0001:0002abca       _RegisterClassW@4          1002bbca f   user32:USER32.dll
 0001:0002abd0       _LoadBitmapW@8             1002bbd0 f   user32:USER32.dll
 0001:0002abd6       _CloseMetaFile@4           1002bbd6 f   gdi32:GDI32.dll
 0001:0002abdc       _CreateDCW@16              1002bbdc f   gdi32:GDI32.dll
 0001:0002abe2       _CreateMetaFileW@4         1002bbe2 f   gdi32:GDI32.dll
 0001:0002abe8       _CreateRectRgnIndirect@4   1002bbe8 f   gdi32:GDI32.dll
 0001:0002abee       _DeleteDC@4                1002bbee f   gdi32:GDI32.dll
 0001:0002abf4       _DeleteMetaFile@4          1002bbf4 f   gdi32:GDI32.dll
 0001:0002abfa       _GetDeviceCaps@8           1002bbfa f   gdi32:GDI32.dll
 0001:0002ac00       _RestoreDC@8               1002bc00 f   gdi32:GDI32.dll
 0001:0002ac06       _SaveDC@4                  1002bc06 f   gdi32:GDI32.dll
 0001:0002ac0c       _SetMapMode@8              1002bc0c f   gdi32:GDI32.dll
 0001:0002ac12       _LPtoDP@12                 1002bc12 f   gdi32:GDI32.dll
 0001:0002ac18       _SetViewportOrgEx@16       1002bc18 f   gdi32:GDI32.dll
 0001:0002ac1e       _SetWindowExtEx@16         1002bc1e f   gdi32:GDI32.dll
 0001:0002ac24       _SetWindowOrgEx@16         1002bc24 f   gdi32:GDI32.dll
 0001:0002ac2a       _BitBlt@36                 1002bc2a f   gdi32:GDI32.dll
 0001:0002ac30       _CreateCompatibleDC@4      1002bc30 f   gdi32:GDI32.dll
 0001:0002ac36       _DeleteObject@4            1002bc36 f   gdi32:GDI32.dll
 0001:0002ac3c       _SelectObject@8            1002bc3c f   gdi32:GDI32.dll
 0001:0002ac42       _GetObjectW@12             1002bc42 f   gdi32:GDI32.dll
 0001:0002ac48       _RegCloseKey@4             1002bc48 f   advapi32:ADVAPI32.dll
 0001:0002ac4e       _RegCreateKeyExW@36        1002bc4e f   advapi32:ADVAPI32.dll
 0001:0002ac54       _RegDeleteKeyW@8           1002bc54 f   advapi32:ADVAPI32.dll
 0001:0002ac5a       _RegDeleteValueW@8         1002bc5a f   advapi32:ADVAPI32.dll
 0001:0002ac60       _RegEnumKeyExW@32          1002bc60 f   advapi32:ADVAPI32.dll
 0001:0002ac66       _RegOpenKeyExW@20          1002bc66 f   advapi32:ADVAPI32.dll
 0001:0002ac6c       _RegQueryInfoKeyW@48       1002bc6c f   advapi32:ADVAPI32.dll
 0001:0002ac72       _RegSetValueExW@24         1002bc72 f   advapi32:ADVAPI32.dll
 0001:0002ac78       _RegQueryValueExW@24       1002bc78 f   advapi32:ADVAPI32.dll
 0001:0002ac7e       _CoCreateInstance@20       1002bc7e f   ole32:ole32.dll
 0001:0002ac84       _StringFromGUID2@12        1002bc84 f   ole32:ole32.dll
 0001:0002ac8a       _CoTaskMemAlloc@4          1002bc8a f   ole32:ole32.dll
 0001:0002ac90       _CoTaskMemRealloc@8        1002bc90 f   ole32:ole32.dll
 0001:0002ac96       _CoTaskMemFree@4           1002bc96 f   ole32:ole32.dll
 0001:0002ac9c       _ReadClassStm@8            1002bc9c f   ole32:ole32.dll
 0001:0002aca2       _WriteClassStm@8           1002bca2 f   ole32:ole32.dll
 0001:0002aca8       _CreateDataAdviseHolder@4  1002bca8 f   ole32:ole32.dll
 0001:0002acae       _OleSaveToStream@8         1002bcae f   ole32:ole32.dll
 0001:0002acb4       _CreateOleAdviseHolder@4   1002bcb4 f   ole32:ole32.dll
 0001:0002acba       _OleRegGetUserType@12      1002bcba f   ole32:ole32.dll
 0001:0002acc0       _OleRegGetMiscStatus@12    1002bcc0 f   ole32:ole32.dll
 0001:0002acc6       _OleRegEnumVerbs@8         1002bcc6 f   ole32:ole32.dll
 0001:0002accc       _CLSIDFromProgID@8         1002bccc f   ole32:ole32.dll
 0001:0002acd2       _SysAllocString@4          1002bcd2 f   oleaut32:OLEAUT32.dll
 0001:0002acd8       _SysAllocStringLen@8       1002bcd8 f   oleaut32:OLEAUT32.dll
 0001:0002acde       _SysFreeString@4           1002bcde f   oleaut32:OLEAUT32.dll
 0001:0002ace4       _SysStringLen@4            1002bce4 f   oleaut32:OLEAUT32.dll
 0001:0002acea       _VariantClear@4            1002bcea f   oleaut32:OLEAUT32.dll
 0001:0002acf0       _VariantCopyInd@8          1002bcf0 f   oleaut32:OLEAUT32.dll
 0001:0002acf6       _VariantChangeType@16      1002bcf6 f   oleaut32:OLEAUT32.dll
 0001:0002acfc       _SysStringByteLen@4        1002bcfc f   oleaut32:OLEAUT32.dll
 0001:0002ad02       _SysAllocStringByteLen@8   1002bd02 f   oleaut32:OLEAUT32.dll
 0001:0002ad08       _VariantInit@4             1002bd08 f   oleaut32:OLEAUT32.dll
 0001:0002ad0e       _VarUI4FromStr@16          1002bd0e f   oleaut32:OLEAUT32.dll
 0001:0002ad14       _LoadTypeLib@8             1002bd14 f   oleaut32:OLEAUT32.dll
 0001:0002ad1a       _LoadRegTypeLib@20         1002bd1a f   oleaut32:OLEAUT32.dll
 0001:0002ad20       _RegisterTypeLib@12        1002bd20 f   oleaut32:OLEAUT32.dll
 0001:0002ad26       _UnRegisterTypeLib@20      1002bd26 f   oleaut32:OLEAUT32.dll
 0001:0002ad2c       _OleCreatePropertyFrame@44 1002bd2c f   oleaut32:OLEAUT32.dll
 0001:0002ad40       @_RTC_AllocaHelper@12      1002bd40 f   LIBCMTD:stack.obj
 0001:0002ad80       @_RTC_CheckStackVars2@12   1002bd80 f   LIBCMTD:stack.obj
 0001:0002ae60       @_RTC_CheckStackVars@8     1002be60 f   LIBCMTD:stack.obj
 0001:0002aec0       __RTC_CheckEsp             1002bec0 f   LIBCMTD:stack.obj
 0001:0002af00       @__security_check_cookie@4 1002bf00 f   LIBCMTD:secchk.obj
 0001:0002af20       __CRT_RTC_INIT             1002bf20 f   LIBCMTD:init.obj
 0001:0002af30       __CRT_RTC_INITW            1002bf30 f   LIBCMTD:init.obj
 0001:0002af40       __RTC_InitBase             1002bf40 f   LIBCMTD:init.obj
 0001:0002af70       __RTC_Shutdown             1002bf70 f   LIBCMTD:init.obj
 0001:0002af90       ??_U@YAPAXI@Z              1002bf90 f   LIBCMTD:new_array.obj
 0001:0002afb0       ??3@YAXPAXI@Z              1002bfb0 f   LIBCMTD:delete_scalar_size.obj
 0001:0002afd0       ??_V@YAXPAX@Z              1002bfd0 f   LIBCMTD:delete_array.obj
 0001:0002aff0       ??_V@YAXPAXI@Z             1002bff0 f   LIBCMTD:delete_array_size.obj
 0001:0002b010       ?configure_argv@__scrt_narrow_argv_policy@@SAHXZ 1002c010 f i LIBCMTD:utility.obj
 0001:0002b0c0       ?initialize_environment@__scrt_narrow_environment_policy@@SAHXZ 1002c0c0 f i LIBCMTD:utility.obj
 0001:0002b140       _NtCurrentTeb              1002c140 f i LIBCMTD:utility.obj
 0001:0002b150       ___scrt_acquire_startup_lock 1002c150 f   LIBCMTD:utility.obj
 0001:0002b1a0       ___scrt_dllmain_after_initialize_c 1002c1a0 f   LIBCMTD:utility.obj
 0001:0002b1d0       ___scrt_dllmain_before_initialize_c 1002c1d0 f   LIBCMTD:utility.obj
 0001:0002b1f0       ___scrt_dllmain_crt_thread_attach 1002c1f0 f   LIBCMTD:utility.obj
 0001:0002b220       ___scrt_dllmain_crt_thread_detach 1002c220 f   LIBCMTD:utility.obj
 0001:0002b240       ___scrt_dllmain_exception_filter 1002c240 f   LIBCMTD:utility.obj
 0001:0002b290       ___scrt_dllmain_uninitialize_c 1002c290 f   LIBCMTD:utility.obj
 0001:0002b2c0       ___scrt_dllmain_uninitialize_critical 1002c2c0 f   LIBCMTD:utility.obj
 0001:0002b2e0       ___scrt_initialize_crt     1002c2e0 f   LIBCMTD:utility.obj
 0001:0002b330       ___scrt_initialize_onexit_tables 1002c330 f   LIBCMTD:utility.obj
 0001:0002b410       ___scrt_is_nonwritable_in_current_image 1002c410 f   LIBCMTD:utility.obj
 0001:0002b540       ___scrt_release_startup_lock 1002c540 f   LIBCMTD:utility.obj
 0001:0002b570       ___scrt_uninitialize_crt   1002c570 f   LIBCMTD:utility.obj
 0001:0002b5b0       __onexit                   1002c5b0 f   LIBCMTD:utility.obj
 0001:0002b620       _at_quick_exit             1002c620 f   LIBCMTD:utility.obj
 0001:0002b660       _atexit                    1002c660 f   LIBCMTD:utility.obj
 0001:0002b690       ??3@YAXPAX@Z               1002c690 f   LIBCMTD:delete_scalar.obj
 0001:0002b6b0       ___raise_securityfailure   1002c6b0 f   LIBCMTD:gs_report.obj
 0001:0002b6e0       ___report_gsfailure        1002c6e0 f   LIBCMTD:gs_report.obj
 0001:0002b7f0       ___report_rangecheckfailure 1002c7f0 f   LIBCMTD:gs_report.obj
 0001:0002b800       ___report_securityfailure  1002c800 f   LIBCMTD:gs_report.obj
 0001:0002b8e0       ___report_securityfailureEx 1002c8e0 f   LIBCMTD:gs_report.obj
 0001:0002bb30       __Init_thread_abort        1002cb30 f   LIBCMTD:thread_safe_statics.obj
 0001:0002bb50       __Init_thread_footer       1002cb50 f   LIBCMTD:thread_safe_statics.obj
 0001:0002bba0       __Init_thread_header       1002cba0 f   LIBCMTD:thread_safe_statics.obj
 0001:0002bc10       __Init_thread_lock         1002cc10 f   LIBCMTD:thread_safe_statics.obj
 0001:0002bc20       __Init_thread_notify       1002cc20 f   LIBCMTD:thread_safe_statics.obj
 0001:0002bc70       __Init_thread_unlock       1002cc70 f   LIBCMTD:thread_safe_statics.obj
 0001:0002bc80       __Init_thread_wait         1002cc80 f   LIBCMTD:thread_safe_statics.obj
 0001:0002bd10       ??2@YAPAXIABUnothrow_t@std@@@Z 1002cd10 f   LIBCMTD:new_scalar_nothrow.obj
 0001:0002bd90       ??_U@YAPAXIABUnothrow_t@std@@@Z 1002cd90 f   LIBCMTD:new_array_nothrow.obj
 0001:0002bdb0       __allmul                   1002cdb0 f   LIBCMTD:llmul.obj
 0001:0002bdf0       __alloca_probe_16          1002cdf0 f   LIBCMTD:alloca16.obj
 0001:0002be06       __alloca_probe_8           1002ce06     LIBCMTD:alloca16.obj
 0001:0002be20       __alloca_probe             1002ce20 f   LIBCMTD:chkstk.obj
 0001:0002be20       __chkstk                   1002ce20 f   LIBCMTD:chkstk.obj
 0001:0002be50       __alldiv                   1002ce50 f   LIBCMTD:lldiv.obj
 0001:0002bf00       __allrem                   1002cf00 f   LIBCMTD:llrem.obj
 0001:0002c490       __CRT_INIT@12              1002d490 f   LIBCMTD:dll_dllmain.obj
 0001:0002c4b0       __DllMainCRTStartup@12     1002d4b0 f   LIBCMTD:dll_dllmain.obj
 0001:0002c570       ?_RTC_AllocaFailure@@YAXPAXPAU_RTC_ALLOCA_NODE@@H@Z 1002d570 f   LIBCMTD:error.obj
 0001:0002c660       ?_RTC_Failure@@YAXPAXH@Z   1002d660 f   LIBCMTD:error.obj
 0001:0002c6b0       ?_RTC_StackFailure@@YAXPAXPBD@Z 1002d6b0 f   LIBCMTD:error.obj
 0001:0002ca70       __RTC_UninitUse            1002da70 f   LIBCMTD:error.obj
 0001:0002cb20       __vsprintf_s_l             1002db20 f i LIBCMTD:error.obj
 0001:0002cb50       _sprintf_s                 1002db50 f i LIBCMTD:error.obj
 0001:0002cb70       ?_RTC_GetErrorFunc@@YAP6AHHPBDH00ZZPBX@Z 1002db70 f   LIBCMTD:userapi.obj
 0001:0002cb80       ?_RTC_GetErrorFuncW@@YAP6AHHPB_WH00ZZPBX@Z 1002db80 f   LIBCMTD:userapi.obj
 0001:0002cb90       __RTC_GetErrDesc           1002db90 f   LIBCMTD:userapi.obj
 0001:0002cbb0       __RTC_NumErrors            1002dbb0 f   LIBCMTD:userapi.obj
 0001:0002cbc0       __RTC_SetErrorFunc         1002dbc0 f   LIBCMTD:userapi.obj
 0001:0002cbe0       __RTC_SetErrorFuncW        1002dbe0 f   LIBCMTD:userapi.obj
 0001:0002cc00       __RTC_SetErrorType         1002dc00 f   LIBCMTD:userapi.obj
 0001:0002cc30       ??2@YAPAXI@Z               1002dc30 f   LIBCMTD:new_scalar.obj
 0001:0002cc80       ___isa_available_init      1002dc80 f   LIBCMTD:cpu_disp.obj
 0001:0002cfc0       __get_startup_argv_mode    1002dfc0 f   LIBCMTD:argv_mode.obj
 0001:0002cfd0       ___scrt_is_ucrt_dll_in_use 1002dfd0 f   LIBCMTD:ucrt_detection.obj
 0001:0002d000       ___scrt_fastfail           1002e000 f   LIBCMTD:utility_desktop.obj
 0001:0002d140       ___scrt_get_show_window_mode 1002e140 f   LIBCMTD:utility_desktop.obj
 0001:0002d180       ___scrt_initialize_mta     1002e180 f   LIBCMTD:utility_desktop.obj
 0001:0002d190       ___scrt_initialize_winrt   1002e190 f   LIBCMTD:utility_desktop.obj
 0001:0002d1a0       ___scrt_is_managed_app     1002e1a0 f   LIBCMTD:utility_desktop.obj
 0001:0002d230       ___scrt_set_unhandled_exception_filter 1002e230 f   LIBCMTD:utility_desktop.obj
 0001:0002d240       ___scrt_stub_for_initialize_mta 1002e240 f   LIBCMTD:utility_desktop.obj
 0001:0002d240       ___scrt_exe_initialize_mta 1002e240 f   LIBCMTD:utility_desktop.obj
 0001:0002d250       ___scrt_unhandled_exception_filter@4 1002e250 f   LIBCMTD:utility_desktop.obj
 0001:0002d2d0       __crt_debugger_hook        1002e2d0 f   LIBCMTD:utility_desktop.obj
 0001:0002d2e0       @_guard_check_icall_nop@4  1002e2e0 f i LIBCMTD:guard_support.obj
 0001:0002d2f0       _ReadNoFence               1002e2f0 f i LIBCMTD:guard_support.obj
 0001:0002d310       _ReadPointerNoFence        1002e310 f i LIBCMTD:guard_support.obj
 0001:0002d330       __guard_icall_checks_enforced 1002e330 f i LIBCMTD:guard_support.obj
 0001:0002d3d0       ___security_init_cookie    1002e3d0 f   LIBCMTD:gs_support.obj
 0001:0002d450       ?__scrt_initialize_type_info@@YAXXZ 1002e450 f   LIBCMTD:tncleanup.obj
 0001:0002d460       ?__scrt_uninitialize_type_info@@YAXXZ 1002e460 f   LIBCMTD:tncleanup.obj
 0001:0002d480       ___local_stdio_scanf_options 1002e480 f i LIBCMTD:default_local_stdio_options.obj
 0001:0002d490       ___scrt_initialize_default_local_stdio_options 1002e490 f   LIBCMTD:default_local_stdio_options.obj
 0001:0002d4d0       ___scrt_get_dyn_tls_init_callback 1002e4d0 f   LIBCMTD:dyn_tls_init.obj
 0001:0002d4e0       __RTC_Initialize           1002e4e0 f   LIBCMTD:initsect.obj
 0001:0002d510       __RTC_Terminate            1002e510 f   LIBCMTD:initsect.obj
 0001:0002d9c0       ?_RTC_GetSrcLine@@YAHPAEPA_WKPAH1K@Z 1002e9c0 f   LIBCMTD:pdblkup.obj
 0001:0002dd40       __except_handler4_noexcept 1002ed40 f   LIBCMTD:chandler4_noexcept.obj
 0001:0002dda0       ??0bad_alloc@std@@AAE@QBD@Z 1002eda0 f i LIBCMTD:throw_bad_alloc.obj
 0001:0002ddd0       ??0bad_alloc@std@@QAE@ABV01@@Z 1002edd0 f i LIBCMTD:throw_bad_alloc.obj
 0001:0002de00       ??0bad_alloc@std@@QAE@XZ   1002ee00 f i LIBCMTD:throw_bad_alloc.obj
 0001:0002de30       ??0bad_array_new_length@std@@QAE@ABV01@@Z 1002ee30 f i LIBCMTD:throw_bad_alloc.obj
 0001:0002de60       ??0bad_array_new_length@std@@QAE@XZ 1002ee60 f i LIBCMTD:throw_bad_alloc.obj
 0001:0002de90       ??0exception@std@@QAE@ABV01@@Z 1002ee90 f i LIBCMTD:throw_bad_alloc.obj
 0001:0002ded0       ??0exception@std@@QAE@QBDH@Z 1002eed0 f i LIBCMTD:throw_bad_alloc.obj
 0001:0002df00       ??1bad_alloc@std@@UAE@XZ   1002ef00 f i LIBCMTD:throw_bad_alloc.obj
 0001:0002df20       ??1bad_array_new_length@std@@UAE@XZ 1002ef20 f i LIBCMTD:throw_bad_alloc.obj
 0001:0002df40       ??1exception@std@@UAE@XZ   1002ef40 f i LIBCMTD:throw_bad_alloc.obj
 0001:0002df70       ??_Ebad_alloc@std@@UAEPAXI@Z 1002ef70 f i LIBCMTD:throw_bad_alloc.obj
 0001:0002df70       ??_Gbad_alloc@std@@UAEPAXI@Z 1002ef70 f i LIBCMTD:throw_bad_alloc.obj
 0001:0002dfa0       ??_Ebad_array_new_length@std@@UAEPAXI@Z 1002efa0 f i LIBCMTD:throw_bad_alloc.obj
 0001:0002dfa0       ??_Gbad_array_new_length@std@@UAEPAXI@Z 1002efa0 f i LIBCMTD:throw_bad_alloc.obj
 0001:0002dfd0       ??_Eexception@std@@UAEPAXI@Z 1002efd0 f i LIBCMTD:throw_bad_alloc.obj
 0001:0002dfd0       ??_Gexception@std@@UAEPAXI@Z 1002efd0 f i LIBCMTD:throw_bad_alloc.obj
 0001:0002e000       ?__scrt_throw_std_bad_alloc@@YAXXZ 1002f000 f   LIBCMTD:throw_bad_alloc.obj
 0001:0002e020       ?__scrt_throw_std_bad_array_new_length@@YAXXZ 1002f020 f   LIBCMTD:throw_bad_alloc.obj
 0001:0002e040       ?what@exception@std@@UBEPBDXZ 1002f040 f i LIBCMTD:throw_bad_alloc.obj
 0001:0002e070       ??1type_info@@UAE@XZ       1002f070 f   LIBCMTD:std_type_info_static.obj
 0001:0002e090       ??_Etype_info@@UAEPAXI@Z   1002f090 f i LIBCMTD:std_type_info_static.obj
 0001:0002e090       ??_Gtype_info@@UAEPAXI@Z   1002f090 f i LIBCMTD:std_type_info_static.obj
 0001:0002e0be       ??$?2PAUHINSTANCE__@@@Wrapper@?$CSimpleArray@PAUHINSTANCE__@@V?$CSimpleArrayEqualHelper@PAUHINSTANCE__@@@ATL@@@ATL@@SAPAXIPAPAUHINSTANCE__@@@Z 1002f0be f i atls:atlbase.obj
 0001:0002e0c6       ??0?$CSimpleArray@PAUHINSTANCE__@@V?$CSimpleArrayEqualHelper@PAUHINSTANCE__@@@ATL@@@ATL@@QAE@XZ 1002f0c6 f i atls:atlbase.obj
 0001:0002e0d3       ??0CAtlBaseModule@ATL@@QAE@XZ 1002f0d3 f   atls:atlbase.obj
 0001:0002e126       ??0Wrapper@?$CSimpleArray@PAUHINSTANCE__@@V?$CSimpleArrayEqualHelper@PAUHINSTANCE__@@@ATL@@@ATL@@QAE@ABQAUHINSTANCE__@@@Z 1002f126 f i atls:atlbase.obj
 0001:0002e136       ??0_ATL_BASE_MODULE70@ATL@@QAE@XZ 1002f136 f i atls:atlbase.obj
 0001:0002e159       ??1?$CSimpleArray@PAUHINSTANCE__@@V?$CSimpleArrayEqualHelper@PAUHINSTANCE__@@@ATL@@@ATL@@QAE@XZ 1002f159 f i atls:atlbase.obj
 0001:0002e15e       ??1CAtlBaseModule@ATL@@QAE@XZ 1002f15e f   atls:atlbase.obj
 0001:0002e174       ??1_ATL_BASE_MODULE70@ATL@@QAE@XZ 1002f174 f i atls:atlbase.obj
 0001:0002e17c       ??A?$CSimpleArray@PAUHINSTANCE__@@V?$CSimpleArrayEqualHelper@PAUHINSTANCE__@@@ATL@@@ATL@@QAEAAPAUHINSTANCE__@@H@Z 1002f17c f i atls:atlbase.obj
 0001:0002e1a1       ?Add@?$CSimpleArray@PAUHINSTANCE__@@V?$CSimpleArrayEqualHelper@PAUHINSTANCE__@@@ATL@@@ATL@@QAEHABQAUHINSTANCE__@@@Z 1002f1a1 f i atls:atlbase.obj
 0001:0002e223       ?AddResourceInstance@CAtlBaseModule@ATL@@QAE_NPAUHINSTANCE__@@@Z 1002f223 f   atls:atlbase.obj
 0001:0002e256       ?GetHInstanceAt@CAtlBaseModule@ATL@@QAEPAUHINSTANCE__@@H@Z 1002f256 f   atls:atlbase.obj
 0001:0002e29b       ?GetSize@?$CSimpleArray@PAUHINSTANCE__@@V?$CSimpleArrayEqualHelper@PAUHINSTANCE__@@@ATL@@@ATL@@QBEHXZ 1002f29b f i atls:atlbase.obj
 0001:0002e29f       ?InternalSetAtIndex@?$CSimpleArray@PAUHINSTANCE__@@V?$CSimpleArrayEqualHelper@PAUHINSTANCE__@@@ATL@@@ATL@@QAEXHABQAUHINSTANCE__@@@Z 1002f29f f i atls:atlbase.obj
 0001:0002e2b9       ?RemoveAll@?$CSimpleArray@PAUHINSTANCE__@@V?$CSimpleArrayEqualHelper@PAUHINSTANCE__@@@ATL@@@ATL@@QAEXXZ 1002f2b9 f i atls:atlbase.obj
 0001:0002e2d6       ?RemoveAt@?$CSimpleArray@PAUHINSTANCE__@@V?$CSimpleArrayEqualHelper@PAUHINSTANCE__@@@ATL@@@ATL@@QAEHH@Z 1002f2d6 f i atls:atlbase.obj
 0001:0002e324       ?RemoveResourceInstance@CAtlBaseModule@ATL@@QAE_NPAUHINSTANCE__@@@Z 1002f324 f   atls:atlbase.obj
 0001:0002e381       ?memmove_s@Checked@ATL@@YAXPAXIPBXI@Z 1002f381 f i atls:atlbase.obj
 0001:0002e6de       ?GetCodeAddress@_stdcallthunk@ATL@@QAEPAXXZ 1002f6de f i atls:atlthunk.obj
 0001:0002e708       ?Init@_stdcallthunk@ATL@@QAEHKPAX@Z 1002f708 f i atls:atlthunk.obj
 0001:0002e73d       ?__AllocStdCallThunk@@YGPAXXZ 1002f73d f   atls:atlthunk.obj
 0001:0002e742       ?__AllocStdCallThunk@ATL@@YGPAXXZ 1002f742 f   atls:atlthunk.obj
 0001:0002e747       ?__AllocStdCallThunk_cmn@@YAPAXXZ 1002f747 f   atls:atlthunk.obj
 0001:0002e80d       ?__FreeStdCallThunk@@YGXPAX@Z 1002f80d f   atls:atlthunk.obj
 0001:0002e81d       ?__FreeStdCallThunk@ATL@@YGXPAX@Z 1002f81d f   atls:atlthunk.obj
 0001:0002e82d       ?__FreeStdCallThunk_cmn@@YAXPAX@Z 1002f82d f   atls:atlthunk.obj
 0001:0002e8c8       _AtlThunk_AllocateData@0   1002f8c8 f   atls:atlthunk.obj
 0001:0002e92d       _AtlThunk_DataToCode@4     1002f92d f   atls:atlthunk.obj
 0001:0002e974       _AtlThunk_FreeData@4       1002f974 f   atls:atlthunk.obj
 0001:0002e9ca       _AtlThunk_InitData@12      1002f9ca f   atls:atlthunk.obj
 0001:0002ea19       _MemoryBarrier             1002fa19 f i atls:atlthunk.obj
 0001:0002ea27       __InlineInterlockedCompareExchangePointer 1002fa27 f i atls:atlthunk.obj
 0001:0002ea40       _memset                    1002fa40 f   libvcruntimed:memset.obj
 0001:0002eba0       ??$__crt_interlocked_exchange_pointer@$$A6AXXZP6AXXZ@@YAP6AXXZPDS6AXXZQ6AXXZ@Z 1002fba0 f i libvcruntimed:purevirt.obj
 0001:0002ebb0       ??$__crt_interlocked_read_pointer@$$A6AXXZ@@YAP6AXXZPDS6AXXZ@Z 1002fbb0 f i libvcruntimed:purevirt.obj
 0001:0002ebd0       ?__crt_interlocked_read_32@@YAHPDH@Z 1002fbd0 f i libvcruntimed:purevirt.obj
 0001:0002ebf0       __get_purecall_handler     1002fbf0 f   libvcruntimed:purevirt.obj
 0001:0002ec10       __purecall                 1002fc10 f   libvcruntimed:purevirt.obj
 0001:0002ec40       __set_purecall_handler     1002fc40 f   libvcruntimed:purevirt.obj
 0001:0002ee10       _memcmp                    1002fe10 f   libvcruntimed:memcmp.obj
 0001:0002f6e0       _memcpy                    100306e0 f   libvcruntimed:memcpy.obj
 0001:0002fc60       _wcsstr                    10030c60 f   libvcruntimed:wcsstr.obj
 0001:00030190       __except_handler4          10031190 f   libvcruntimed:chandler4.obj
 0001:00030380       ___vcrt_initialize         10031380 f   libvcruntimed:initialization.obj
 0001:000303c0       ___vcrt_thread_attach      100313c0 f   libvcruntimed:initialization.obj
 0001:000303e0       ___vcrt_thread_detach      100313e0 f   libvcruntimed:initialization.obj
 0001:00030400       ___vcrt_uninitialize       10031400 f   libvcruntimed:initialization.obj
 0001:00030420       ___vcrt_uninitialize_critical 10031420 f   libvcruntimed:initialization.obj
 0001:00030440       ??$?0AAViterator@TryBlockMap@__FrameHandler3@@AAV012@$0A@@?$pair@Viterator@TryBlockMap@__FrameHandler3@@V123@@std@@QAE@AAViterator@TryBlockMap@__FrameHandler3@@0@Z 10031440 f i libvcruntimed:trnsctrl.obj
 0001:00030490       ??$forward@AAViterator@TryBlockMap@__FrameHandler3@@@std@@YAAAViterator@TryBlockMap@__FrameHandler3@@AAV123@@Z 10031490 f i libvcruntimed:trnsctrl.obj
 0001:000304a0       ??0iterator@TryBlockMap@__FrameHandler3@@QAE@AAV12@I@Z 100314a0 f i libvcruntimed:trnsctrl.obj
 0001:000304d0       ?GetRangeOfTrysToCheck@__FrameHandler3@@SA?AU?$pair@Viterator@TryBlockMap@__FrameHandler3@@V123@@std@@AAVTryBlockMap@1@HPAXPBU_s_FuncInfo@@H@Z 100314d0 f   libvcruntimed:trnsctrl.obj
 0001:000305b0       ?_CallCatchBlock2@@YAPAXPAUEHRegistrationNode@@PBU_s_FuncInfo@@PAXHK@Z 100315b0 f   libvcruntimed:trnsctrl.obj
 0001:00030620       ?_CallSETranslator@@YAHPAUEHExceptionRecord@@PAUEHRegistrationNode@@PAX2PBU_s_FuncInfo@@H1@Z 10031620 f   libvcruntimed:trnsctrl.obj
 0001:00030720       ?_JumpToContinuation@@YGXPAXPAUEHRegistrationNode@@@Z 10031720 f   libvcruntimed:trnsctrl.obj
 0001:00030760       ?_UnwindNestedFrames@@YGXPAUEHRegistrationNode@@PAUEHExceptionRecord@@@Z 10031760 f   libvcruntimed:trnsctrl.obj
 0001:000307c0       __CatchGuardHandler        100317c0 f   libvcruntimed:trnsctrl.obj
 0001:00030810       __CreateFrameInfo          10031810 f   libvcruntimed:trnsctrl.obj
 0001:00030840       __FindAndUnlinkFrame       10031840 f   libvcruntimed:trnsctrl.obj
 0001:000308b0       __TranslatorGuardHandler   100318b0 f   libvcruntimed:trnsctrl.obj
 0001:00030960       ___CxxFrameHandler         10031960 f   libvcruntimed:trnsctrl.obj
 0001:000309a0       ___CxxFrameHandler2        100319a0 f   libvcruntimed:trnsctrl.obj
 0001:000309e0       ___CxxFrameHandler3        100319e0 f   libvcruntimed:trnsctrl.obj
 0001:00030a20       ___CxxLongjmpUnwind@4      10031a20 f   libvcruntimed:trnsctrl.obj
 0001:00030a60       ___DestructExceptionObject 10031a60 f   libvcruntimed:ehhelpers.obj
 0001:00030b80       ?_CallMemberFunction0@@YGXQAX0@Z 10031b80 f i libvcruntimed:ehhelpers.obj
 0001:00030c20       ?raw_name@type_info@@QBEPBDXZ 10031c20 f i libvcruntimed:ehhelpers.obj
 0001:00030c40       __IsExceptionObjectToBeDestroyed 10031c40 f   libvcruntimed:ehhelpers.obj
 0001:00030c80       __SetWinRTOutOfMemoryExceptionCallback 10031c80 f   libvcruntimed:ehhelpers.obj
 0001:00030c90       ___AdjustPointer           10031c90 f   libvcruntimed:ehhelpers.obj
 0001:00030ce0       ___FrameUnwindFilter       10031ce0 f   libvcruntimed:ehhelpers.obj
 0001:00030d70       ___GetPlatformExceptionInfo 10031d70 f   libvcruntimed:ehhelpers.obj
 0001:00030df0       ___current_exception       10031df0 f   libvcruntimed:ehhelpers.obj
 0001:00030e00       ___current_exception_context 10031e00 f   libvcruntimed:ehhelpers.obj
 0001:00030e10       ___processing_throw        10031e10 f   libvcruntimed:ehhelpers.obj
 0001:00030e20       ___std_terminate           10031e20 f   libvcruntimed:ehhelpers.obj
 0001:00030e30       __is_exception_typeof      10031e30 f   libvcruntimed:ehhelpers.obj
 0001:00030f30       ??$?RD@__crt_internal_free_policy@@QBEXQBD@Z 10031f30 f i libvcruntimed:std_type_info.obj
 0001:00030f50       ??$?RX@__crt_internal_free_policy@@QBEXQBX@Z 10031f50 f i libvcruntimed:std_type_info.obj
 0001:00030f70       ??$__crt_interlocked_compare_exchange_pointer@$$CBDPAD$$T@@YAPBDPDSBDQAD$$T@Z 10031f70 f i libvcruntimed:std_type_info.obj
 0001:00030f90       ??$__crt_interlocked_read_pointer@$$CBD@@YAPBDPDSBD@Z 10031f90 f i libvcruntimed:std_type_info.obj
 0001:00030fb0       ??0?$__crt_unique_heap_ptr@DU__crt_internal_free_policy@@@@QAE@QAD@Z 10031fb0 f i libvcruntimed:std_type_info.obj
 0001:00030fd0       ??0?$__crt_unique_heap_ptr@XU__crt_internal_free_policy@@@@QAE@QAX@Z 10031fd0 f i libvcruntimed:std_type_info.obj
 0001:00030ff0       ??1?$__crt_unique_heap_ptr@DU__crt_internal_free_policy@@@@QAE@XZ 10031ff0 f i libvcruntimed:std_type_info.obj
 0001:00031010       ??1?$__crt_unique_heap_ptr@XU__crt_internal_free_policy@@@@QAE@XZ 10032010 f i libvcruntimed:std_type_info.obj
 0001:00031030       ??B?$__crt_unique_heap_ptr@DU__crt_internal_free_policy@@@@QBE_NXZ 10032030 f i libvcruntimed:std_type_info.obj
 0001:00031050       ??B?$__crt_unique_heap_ptr@XU__crt_internal_free_policy@@@@QBE_NXZ 10032050 f i libvcruntimed:std_type_info.obj
 0001:000310e0       ?detach@?$__crt_unique_heap_ptr@XU__crt_internal_free_policy@@@@QAEPAXXZ 100320e0 f i libvcruntimed:std_type_info.obj
 0001:00031110       ?get@?$__crt_unique_heap_ptr@DU__crt_internal_free_policy@@@@QBEPADXZ 10032110 f i libvcruntimed:std_type_info.obj
 0001:00031120       ?get@?$__crt_unique_heap_ptr@XU__crt_internal_free_policy@@@@QBEPAXXZ 10032120 f i libvcruntimed:std_type_info.obj
 0001:00031130       ?is_valid@?$__crt_unique_heap_ptr@DU__crt_internal_free_policy@@@@QBE_NXZ 10032130 f i libvcruntimed:std_type_info.obj
 0001:00031160       ?is_valid@?$__crt_unique_heap_ptr@XU__crt_internal_free_policy@@@@QBE_NXZ 10032160 f i libvcruntimed:std_type_info.obj
 0001:00031190       ?release@?$__crt_unique_heap_ptr@DU__crt_internal_free_policy@@@@QAEXXZ 10032190 f i libvcruntimed:std_type_info.obj
 0001:000311c0       ?release@?$__crt_unique_heap_ptr@XU__crt_internal_free_policy@@@@QAEXXZ 100321c0 f i libvcruntimed:std_type_info.obj
 0001:000311f0       ___std_type_info_compare   100321f0 f   libvcruntimed:std_type_info.obj
 0001:00031220       ___std_type_info_destroy_list 10032220 f   libvcruntimed:std_type_info.obj
 0001:00031260       ___std_type_info_hash      10032260 f   libvcruntimed:std_type_info.obj
 0001:000312c0       ___std_type_info_name      100322c0 f   libvcruntimed:std_type_info.obj
 0001:000314a0       ___vcrt_GetModuleFileNameW 100324a0 f   libvcruntimed:winapi_thunks.obj
 0001:000314c0       ___vcrt_GetModuleHandleW   100324c0 f   libvcruntimed:winapi_thunks.obj
 0001:000314d0       ___vcrt_LoadLibraryExW     100324d0 f   libvcruntimed:winapi_thunks.obj
 0001:000314f0       ??$?RD@__crt_public_free_policy@@QBEXQBD@Z 100324f0 f i libvcruntimed:std_exception.obj
 0001:00031510       ??0?$__crt_unique_heap_ptr@DU__crt_public_free_policy@@@@QAE@QAD@Z 10032510 f i libvcruntimed:std_exception.obj
 0001:00031530       ??1?$__crt_unique_heap_ptr@DU__crt_public_free_policy@@@@QAE@XZ 10032530 f i libvcruntimed:std_exception.obj
 0001:00031550       ??B?$__crt_unique_heap_ptr@DU__crt_public_free_policy@@@@QBE_NXZ 10032550 f i libvcruntimed:std_exception.obj
 0001:00031570       ?detach@?$__crt_unique_heap_ptr@DU__crt_public_free_policy@@@@QAEPADXZ 10032570 f i libvcruntimed:std_exception.obj
 0001:000315a0       ?get@?$__crt_unique_heap_ptr@DU__crt_public_free_policy@@@@QBEPADXZ 100325a0 f i libvcruntimed:std_exception.obj
 0001:000315b0       ?is_valid@?$__crt_unique_heap_ptr@DU__crt_public_free_policy@@@@QBE_NXZ 100325b0 f i libvcruntimed:std_exception.obj
 0001:000315e0       ?release@?$__crt_unique_heap_ptr@DU__crt_public_free_policy@@@@QAEXXZ 100325e0 f i libvcruntimed:std_exception.obj
 0001:00031610       ___std_exception_copy      10032610 f   libvcruntimed:std_exception.obj
 0001:00031700       ___std_exception_destroy   10032700 f   libvcruntimed:std_exception.obj
 0001:00031730       __CxxThrowException@8      10032730 f   libvcruntimed:throw.obj
 0001:000317e0       _memmove                   100327e0 f   libvcruntimed:memmove.obj
 0001:00031d60       __local_unwind4            10032d60 f   libvcruntimed:exsup4.obj
 0001:00031e38       __seh_longjmp_unwind4@4    10032e38 f   libvcruntimed:exsup4.obj
 0001:00031e60       @_EH4_CallFilterFunc@8     10032e60 f   libvcruntimed:exsup4.obj
 0001:00031e78       @_EH4_TransferToHandler@8  10032e78 f   libvcruntimed:exsup4.obj
 0001:00031e94       @_EH4_GlobalUnwind2@8      10032e94 f   libvcruntimed:exsup4.obj
 0001:00031eb0       @_EH4_LocalUnwind@16       10032eb0 f   libvcruntimed:exsup4.obj
 0001:00031ee0       ___except_validate_context_record 10032ee0 f   libvcruntimed:jbcxrval.obj
 0001:00031f30       ___except_validate_jump_buffer 10032f30 f   libvcruntimed:jbcxrval.obj
 0001:00031f50       ___except_validate_jump_buffer_common 10032f50 f i libvcruntimed:jbcxrval.obj
 0001:00031fb0       ??$?RU__vcrt_ptd@@@__crt_internal_free_policy@@QBEXQBU__vcrt_ptd@@@Z 10032fb0 f i libvcruntimed:per_thread_data.obj
 0001:00031fd0       ??0?$__crt_unique_heap_ptr@U__vcrt_ptd@@U__crt_internal_free_policy@@@@QAE@QAU__vcrt_ptd@@@Z 10032fd0 f i libvcruntimed:per_thread_data.obj
 0001:00032010       ??1?$__crt_unique_heap_ptr@U__vcrt_ptd@@U__crt_internal_free_policy@@@@QAE@XZ 10033010 f i libvcruntimed:per_thread_data.obj
 0001:00032050       ??B?$__crt_unique_heap_ptr@U__vcrt_ptd@@U__crt_internal_free_policy@@@@QBE_NXZ 10033050 f i libvcruntimed:per_thread_data.obj
 0001:00032070       ?detach@?$__crt_unique_heap_ptr@U__vcrt_ptd@@U__crt_internal_free_policy@@@@QAEPAU__vcrt_ptd@@XZ 10033070 f i libvcruntimed:per_thread_data.obj
 0001:000320a0       ?get@?$__crt_unique_heap_ptr@U__vcrt_ptd@@U__crt_internal_free_policy@@@@QBEPAU__vcrt_ptd@@XZ 100330a0 f i libvcruntimed:per_thread_data.obj
 0001:000320b0       ?is_valid@?$__crt_unique_heap_ptr@U__vcrt_ptd@@U__crt_internal_free_policy@@@@QBE_NXZ 100330b0 f i libvcruntimed:per_thread_data.obj
 0001:000320e0       ?release@?$__crt_unique_heap_ptr@U__vcrt_ptd@@U__crt_internal_free_policy@@@@QAEXXZ 100330e0 f i libvcruntimed:per_thread_data.obj
 0001:00032140       ___vcrt_freefls@4          10033140 f   libvcruntimed:per_thread_data.obj
 0001:00032170       ___vcrt_freeptd            10033170 f   libvcruntimed:per_thread_data.obj
 0001:000321d0       ___vcrt_getptd             100331d0 f   libvcruntimed:per_thread_data.obj
 0001:000321f0       ___vcrt_getptd_noexit      100331f0 f   libvcruntimed:per_thread_data.obj
 0001:00032350       ___vcrt_getptd_noinit      10033350 f   libvcruntimed:per_thread_data.obj
 0001:000323b0       ___vcrt_initialize_ptd     100333b0 f   libvcruntimed:per_thread_data.obj
 0001:00032400       ___vcrt_uninitialize_ptd   10033400 f   libvcruntimed:per_thread_data.obj
 0001:00032430       ___vcrt_initialize_locks   10033430 f   libvcruntimed:locks.obj
 0001:00032490       ___vcrt_lock               10033490 f   libvcruntimed:locks.obj
 0001:000324b0       ___vcrt_uninitialize_locks 100334b0 f   libvcruntimed:locks.obj
 0001:00032500       ___vcrt_unlock             10033500 f   libvcruntimed:locks.obj
 0001:00033090       ??$TypeMatchHelper@V__FrameHandler3@@@@YAHPBU_s_HandlerType@@PBU_s_CatchableType@@PBU_s_ThrowInfo@@@Z 10034090 f i libvcruntimed:frame.obj
 0001:00033170       ??$__InternalCxxFrameHandler@V__FrameHandler3@@@@YA?AW4_EXCEPTION_DISPOSITION@@PAUEHExceptionRecord@@PAUEHRegistrationNode@@PAU_CONTEXT@@PAXPBU_s_FuncInfo@@H1E@Z 10034170 f i libvcruntimed:frame.obj
 0001:00033330       ??0HandlerMap@__FrameHandler3@@QAE@PBU_s_TryBlockMapEntry@@II@Z 10034330 f i libvcruntimed:frame.obj
 0001:00033360       ??0TryBlockMap@__FrameHandler3@@QAE@PBU_s_FuncInfo@@I@Z 10034360 f i libvcruntimed:frame.obj
 0001:00033390       ??0bad_exception@std@@QAE@ABV01@@Z 10034390 f i libvcruntimed:frame.obj
 0001:000333c0       ??0bad_exception@std@@QAE@XZ 100343c0 f i libvcruntimed:frame.obj
 0001:000333f0       ??0iterator@HandlerMap@__FrameHandler3@@QAE@AAV12@I@Z 100343f0 f i libvcruntimed:frame.obj
 0001:00033420       ??1bad_exception@std@@UAE@XZ 10034420 f i libvcruntimed:frame.obj
 0001:00033440       ??8iterator@HandlerMap@__FrameHandler3@@QBE_NABV012@@Z 10034440 f i libvcruntimed:frame.obj
 0001:00033470       ??8type_info@@QBE_NABV0@@Z 10034470 f i libvcruntimed:frame.obj
 0001:000334b0       ??9iterator@HandlerMap@__FrameHandler3@@QBE_NABV012@@Z 100344b0 f i libvcruntimed:frame.obj
 0001:000334f0       ??Diterator@HandlerMap@__FrameHandler3@@QAE?BU_s_HandlerType@@XZ 100344f0 f i libvcruntimed:frame.obj
 0001:00033530       ??Diterator@TryBlockMap@__FrameHandler3@@QAE?BU_s_TryBlockMapEntry@@XZ 10034530 f i libvcruntimed:frame.obj
 0001:00033580       ??Eiterator@HandlerMap@__FrameHandler3@@QAEAAV012@XZ 10034580 f i libvcruntimed:frame.obj
 0001:000335a0       ??Eiterator@TryBlockMap@__FrameHandler3@@QAEAAV012@XZ 100345a0 f i libvcruntimed:frame.obj
 0001:000335c0       ??Miterator@TryBlockMap@__FrameHandler3@@QBE_NABV012@@Z 100345c0 f i libvcruntimed:frame.obj
 0001:000335f0       ??_Ebad_exception@std@@UAEPAXI@Z 100345f0 f i libvcruntimed:frame.obj
 0001:000335f0       ??_Gbad_exception@std@@UAEPAXI@Z 100345f0 f i libvcruntimed:frame.obj
 0001:00033620       ?BuildCatchObject@__FrameHandler3@@SAXPAUEHExceptionRecord@@PAXPBU_s_HandlerType@@PBU_s_CatchableType@@@Z 10034620 f   libvcruntimed:frame.obj
 0001:00033640       ?BuildCatchObjectHelper@__FrameHandler3@@SAHPAUEHExceptionRecord@@PAXPBU_s_HandlerType@@PBU_s_CatchableType@@@Z 10034640 f   libvcruntimed:frame.obj
 0001:000339e0       ?FrameUnwindToEmptyState@__FrameHandler3@@SAXPAUEHRegistrationNode@@PAXPBU_s_FuncInfo@@@Z 100349e0 f   libvcruntimed:frame.obj
 0001:00033a00       ?FrameUnwindToState@__FrameHandler3@@SAXPAUEHRegistrationNode@@PAXPBU_s_FuncInfo@@H@Z 10034a00 f   libvcruntimed:frame.obj
 0001:00033b80       ?GetMaxState@__FrameHandler3@@SAHPAXPBU_s_FuncInfo@@@Z 10034b80 f i libvcruntimed:frame.obj
 0001:00033ca0       ?TypeMatch@__FrameHandler3@@SAHPBU_s_HandlerType@@PBU_s_CatchableType@@PBU_s_ThrowInfo@@@Z 10034ca0 f   libvcruntimed:frame.obj
 0001:00033cc0       ?_CallMemberFunction1@@YGXQAX00@Z 10034cc0 f i libvcruntimed:frame.obj
 0001:00033cf0       ?_CallMemberFunction2@@YGXQAX00H@Z 10034cf0 f i libvcruntimed:frame.obj
 0001:00033d20       ?begin@HandlerMap@__FrameHandler3@@QAE?AViterator@12@XZ 10034d20 f i libvcruntimed:frame.obj
 0001:00033d40       ?end@HandlerMap@__FrameHandler3@@QAE?AViterator@12@XZ 10034d40 f i libvcruntimed:frame.obj
 0001:00033d70       ?getESTypes@__FrameHandler3@@SAPBU_s_ESTypeList@@PBU_s_FuncInfo@@@Z 10034d70 f i libvcruntimed:frame.obj
 0001:00033d80       ?getLastEntry@HandlerMap@__FrameHandler3@@QAEPBU_s_HandlerType@@XZ 10034d80 f i libvcruntimed:frame.obj
 0001:00033da0       ?getMagicNum@__FrameHandler3@@SAIPBU_s_FuncInfo@@@Z 10034da0 f i libvcruntimed:frame.obj
 0001:00033db0       ?getNumTryBlocks@TryBlockMap@__FrameHandler3@@QAEIXZ 10034db0 f i libvcruntimed:frame.obj
 0001:00033dd0       ?isEHs@__FrameHandler3@@SA_NPBU_s_FuncInfo@@@Z 10034dd0 f i libvcruntimed:frame.obj
 0001:00033e00       ?isNoExcept@__FrameHandler3@@SA_NPBU_s_FuncInfo@@@Z 10034e00 f i libvcruntimed:frame.obj
 0001:00033e30       ___BuildCatchObject        10034e30 f   libvcruntimed:frame.obj
 0001:00033e50       ___BuildCatchObjectHelper  10034e50 f   libvcruntimed:frame.obj
 0001:00033e70       ___TypeMatch               10034e70 f   libvcruntimed:frame.obj
 0001:00033e90       ___vcrt_EncodePointer      10034e90 f i libvcruntimed:frame.obj
 0001:00033ea0       __CallSettingFrame@12      10034ea0 f   libvcruntimed:lowhelpr.obj
 0001:00033ec7       __NLG_Return               10034ec7     libvcruntimed:lowhelpr.obj
 0001:00033ef0       ??$?0$00@DName@@QAE@PBDU?$StringLifeSelector@$00@@@Z 10034ef0 f i libvcruntimed:undname.obj
 0001:00033f40       ??$?0$00@pcharNode@@QAE@PBDHU?$StringLifeSelector@$00@@@Z 10034f40 f i libvcruntimed:undname.obj
 0001:00033f80       ??$?0$01@DName@@QAE@PBDU?$StringLifeSelector@$01@@@Z 10034f80 f i libvcruntimed:undname.obj
 0001:00033fd0       ??$?0$01@pcharNode@@QAE@PBDHU?$StringLifeSelector@$01@@@Z 10034fd0 f i libvcruntimed:undname.obj
 0001:00034050       ??$?0$0A@@DName@@QAE@PBDU?$StringLifeSelector@$0A@@@@Z 10035050 f i libvcruntimed:undname.obj
 0001:000340a0       ??$?0$0A@@pcharNode@@QAE@PBDHU?$StringLifeSelector@$0A@@@@Z 100350a0 f i libvcruntimed:undname.obj
 0001:00034120       ??$?0_K$0A@@?$optional@_K@std@@QAE@$$QA_K@Z 10035120 f i libvcruntimed:undname.obj
 0001:00034160       ??$?0_K@?$_Optional_construct_base@_K@std@@QAE@Uin_place_t@1@$$QA_K@Z 10035160 f i libvcruntimed:undname.obj
 0001:00034190       ??$?0_K@?$_Optional_destruct_base@_K$00@std@@QAE@Uin_place_t@1@$$QA_K@Z 10035190 f i libvcruntimed:undname.obj
 0001:000341c0       ??$append@VDNameNode@@@DName@@AAEXPBVDNameNode@@@Z 100351c0 f i libvcruntimed:undname.obj
 0001:00034250       ??$append@VDNameStatusNode@@@DName@@AAEXPBVDNameStatusNode@@@Z 10035250 f i libvcruntimed:undname.obj
 0001:000342e0       ??$append@VcharNode@@@DName@@AAEXPBVcharNode@@@Z 100352e0 f i libvcruntimed:undname.obj
 0001:00034370       ??$append@VpDNameNode@@@DName@@AAEXPBVpDNameNode@@@Z 10035370 f i libvcruntimed:undname.obj
 0001:00034400       ??$append@VpcharNode@@@DName@@AAEXPBVpcharNode@@@Z 10035400 f i libvcruntimed:undname.obj
 0001:00034490       ??$doPchar@$00@DName@@AAEXPBDH@Z 10035490 f i libvcruntimed:undname.obj
 0001:000345a0       ??$doPchar@$01@DName@@AAEXPBDH@Z 100355a0 f i libvcruntimed:undname.obj
 0001:000346b0       ??$doPchar@$0A@@DName@@AAEXPBDH@Z 100356b0 f i libvcruntimed:undname.obj
 0001:000347c0       ??$forward@_K@std@@YA$$QA_KAA_K@Z 100357c0 f i libvcruntimed:undname.obj
 0001:000347d0       ??$size@D$04@std@@YAIAAY04$$CBD@Z 100357d0 f i libvcruntimed:undname.obj
 0001:000347e0       ??$size@D$0EB@@std@@YAIAAY0EB@$$CBD@Z 100357e0 f i libvcruntimed:undname.obj
 0001:000347f0       ??0?$_Optional_construct_base@_K@std@@QAE@XZ 100357f0 f i libvcruntimed:undname.obj
 0001:00034810       ??0?$_Optional_destruct_base@_K$00@std@@QAE@XZ 10035810 f i libvcruntimed:undname.obj
 0001:00034830       ??0?$optional@_K@std@@QAE@XZ 10035830 f i libvcruntimed:undname.obj
 0001:00034860       ??0Block@_HeapManager@@QAE@XZ 10035860 f i libvcruntimed:undname.obj
 0001:00034880       ??0DName@@QAE@AAPBDD@Z     10035880 f   libvcruntimed:undname.obj
 0001:000349f0       ??0DName@@QAE@ABUStringLiteral@@@Z 100359f0 f   libvcruntimed:undname.obj
 0001:00034a40       ??0DName@@QAE@ABV0@@Z      10035a40 f i libvcruntimed:undname.obj
 0001:00034a70       ??0DName@@QAE@D@Z          10035a70 f   libvcruntimed:undname.obj
 0001:00034aa0       ??0DName@@QAE@PAV0@@Z      10035aa0 f   libvcruntimed:undname.obj
 0001:00034b50       ??0DName@@QAE@W4DNameStatus@@@Z 10035b50 f   libvcruntimed:undname.obj
 0001:00034bf0       ??0DName@@QAE@XZ           10035bf0 f i libvcruntimed:undname.obj
 0001:00034c20       ??0DName@@QAE@_J@Z         10035c20 f   libvcruntimed:undname.obj
 0001:00034d10       ??0DName@@QAE@_K@Z         10035d10 f   libvcruntimed:undname.obj
 0001:00034dc0       ??0DNameNode@@IAE@XZ       10035dc0 f i libvcruntimed:undname.obj
 0001:00034de0       ??0Replicator@@QAE@XZ      10035de0 f i libvcruntimed:undname.obj
 0001:00034e20       ??0UnDecorator@@QAE@PBDP6APADJ@ZK@Z 10035e20 f i libvcruntimed:undname.obj
 0001:00034ea0       ??0charNode@@QAE@D@Z       10035ea0 f i libvcruntimed:undname.obj
 0001:00034ed0       ??0pDNameNode@@QAE@PAVDName@@@Z 10035ed0 f   libvcruntimed:undname.obj
 0001:00034f30       ??0pairNode@@QAE@PBVDNameNode@@0@Z 10035f30 f i libvcruntimed:undname.obj
 0001:00034f90       ??2@YAPAXIAAV_HeapManager@@H@Z 10035f90 f   libvcruntimed:undname.obj
 0001:00034fd0       ??4DName@@QAEAAV0@ABUStringLiteral@@@Z 10035fd0 f   libvcruntimed:undname.obj
 0001:00035010       ??4DName@@QAEAAV0@ABV0@@Z  10036010 f   libvcruntimed:undname.obj
 0001:00035040       ??4DName@@QAEAAV0@D@Z      10036040 f i libvcruntimed:undname.obj
 0001:00035070       ??4DName@@QAEAAV0@PAV0@@Z  10036070 f   libvcruntimed:undname.obj
 0001:00035110       ??4DName@@QAEAAV0@W4DNameStatus@@@Z 10036110 f   libvcruntimed:undname.obj
 0001:00035190       ??AReplicator@@QBE?AVDName@@H@Z 10036190 f   libvcruntimed:undname.obj
 0001:00035200       ??B?$optional@_K@std@@QBE_NXZ 10036200 f i libvcruntimed:undname.obj
 0001:00035220       ??D?$optional@_K@std@@QGAEAA_KXZ 10036220 f i libvcruntimed:undname.obj
 0001:00035230       ??H@YA?AVDName@@ABUStringLiteral@@ABV0@@Z 10036230 f i libvcruntimed:undname.obj
 0001:00035260       ??H@YA?AVDName@@DABV0@@Z   10036260 f i libvcruntimed:undname.obj
 0001:00035290       ??H@YA?AVDName@@W4DNameStatus@@ABV0@@Z 10036290 f i libvcruntimed:undname.obj
 0001:000352c0       ??HDName@@QBE?AV0@ABUStringLiteral@@@Z 100362c0 f   libvcruntimed:undname.obj
 0001:00035300       ??HDName@@QBE?AV0@ABV0@@Z  10036300 f   libvcruntimed:undname.obj
 0001:00035340       ??HDName@@QBE?AV0@D@Z      10036340 f   libvcruntimed:undname.obj
 0001:00035380       ??HDName@@QBE?AV0@PAV0@@Z  10036380 f   libvcruntimed:undname.obj
 0001:000353c0       ??HDName@@QBE?AV0@W4DNameStatus@@@Z 100363c0 f   libvcruntimed:undname.obj
 0001:00035400       ??HStringLiteral@@QBE?AU0@H@Z 10036400 f i libvcruntimed:undname.obj
 0001:00035430       ??YDName@@QAEAAV0@ABUStringLiteral@@@Z 10036430 f   libvcruntimed:undname.obj
 0001:000354d0       ??YDName@@QAEAAV0@ABV0@@Z  100364d0 f   libvcruntimed:undname.obj
 0001:00035570       ??YDName@@QAEAAV0@D@Z      10036570 f   libvcruntimed:undname.obj
 0001:000355f0       ??YDName@@QAEAAV0@PAV0@@Z  100365f0 f   libvcruntimed:undname.obj
 0001:000356a0       ??YDName@@QAEAAV0@W4DNameStatus@@@Z 100366a0 f   libvcruntimed:undname.obj
 0001:00035700       ??YReplicator@@QAEAAV0@ABVDName@@@Z 10036700 f   libvcruntimed:undname.obj
 0001:00035790       ??_5DName@@QAEAAV0@ABV0@@Z 10036790 f   libvcruntimed:undname.obj
 0001:000357f0       ??__K_l@@YA?AUStringLiteral@@PBDI@Z 100367f0 f i libvcruntimed:undname.obj
 0001:00035810       ?Constructor@_HeapManager@@QAEXP6APAXI@ZP6AXPAX@Z@Z 10036810 f i libvcruntimed:undname.obj
 0001:00035850       ?Destructor@_HeapManager@@QAEXXZ 10036850 f i libvcruntimed:undname.obj
 0001:000358c0       ?UScore@UnDecorator@@SA?AUStringLiteral@@W4Tokens@@@Z 100368c0 f   libvcruntimed:undname.obj
 0001:00035910       ?composeDeclaration@UnDecorator@@CA?AVDName@@ABV2@@Z 10036910 f i libvcruntimed:undname.obj
 0001:00037880       ?dbGetString@DName@@QBEPADXZ 10038880 f   libvcruntimed:undname.obj
 0001:000378a0       ?doAccessSpecifiers@UnDecorator@@SAHXZ 100388a0 f i libvcruntimed:undname.obj
 0001:000378d0       ?doAllocationLanguage@UnDecorator@@SAHXZ 100388d0 f i libvcruntimed:undname.obj
 0001:00037900       ?doAllocationModel@UnDecorator@@SAHXZ 10038900 f i libvcruntimed:undname.obj
 0001:00037930       ?doEcsu@UnDecorator@@SAHXZ 10038930 f i libvcruntimed:undname.obj
 0001:00037960       ?doEllipsis@UnDecorator@@SAHXZ 10038960 f i libvcruntimed:undname.obj
 0001:00037990       ?doFunctionReturns@UnDecorator@@SAHXZ 10038990 f i libvcruntimed:undname.obj
 0001:000379c0       ?doMSKeywords@UnDecorator@@SAHXZ 100389c0 f i libvcruntimed:undname.obj
 0001:000379f0       ?doMemberTypes@UnDecorator@@SAHXZ 100389f0 f i libvcruntimed:undname.obj
 0001:00037a20       ?doNameOnly@UnDecorator@@SAHXZ 10038a20 f i libvcruntimed:undname.obj
 0001:00037a30       ?doNoIdentCharCheck@UnDecorator@@SAHXZ 10038a30 f i libvcruntimed:undname.obj
 0001:00037a40       ?doPchar@DName@@AAEXD@Z    10038a40 f   libvcruntimed:undname.obj
 0001:00037ab0       ?doPtr64@UnDecorator@@SAHXZ 10038ab0 f i libvcruntimed:undname.obj
 0001:00037ae0       ?doRestrictionSpec@UnDecorator@@SAHXZ 10038ae0 f i libvcruntimed:undname.obj
 0001:00037b10       ?doThisTypes@UnDecorator@@SAHXZ 10038b10 f i libvcruntimed:undname.obj
 0001:00037b40       ?doThrowTypes@UnDecorator@@SAHXZ 10038b40 f i libvcruntimed:undname.obj
 0001:00037b70       ?doTypeOnly@UnDecorator@@SAHXZ 10038b70 f i libvcruntimed:undname.obj
 0001:00037b80       ?doUnderScore@UnDecorator@@SAHXZ 10038b80 f i libvcruntimed:undname.obj
 0001:00037bb0       ?getArgumentList@UnDecorator@@CA?AVDName@@XZ 10038bb0 f   libvcruntimed:undname.obj
 0001:00037d00       ?getArgumentTypes@UnDecorator@@CA?AVDName@@XZ 10038d00 f   libvcruntimed:undname.obj
 0001:00037f10       ?getArrayObject@UnDecorator@@CA?AVDName@@XZ 10038f10 f   libvcruntimed:undname.obj
 0001:00037ff0       ?getArrayType@UnDecorator@@CA?AVDName@@ABV2@@Z 10038ff0 f i libvcruntimed:undname.obj
 0001:00038290       ?getBasedType@UnDecorator@@CA?AVDName@@XZ 10039290 f   libvcruntimed:undname.obj
 0001:00038380       ?getBasicDataType@UnDecorator@@CA?AVDName@@ABV2@@Z 10039380 f   libvcruntimed:undname.obj
 0001:00038c90       ?getCHPEName@UnDecorator@@QAEPADPADH@Z 10039c90 f i libvcruntimed:undname.obj
 0001:00038df0       ?getCallIndex@UnDecorator@@CA?AVDName@@XZ 10039df0 f i libvcruntimed:undname.obj
 0001:00038e10       ?getCallingConvention@UnDecorator@@CA?AVDName@@XZ 10039e10 f   libvcruntimed:undname.obj
 0001:00039050       ?getDataIndirectType@UnDecorator@@CA?AVDName@@ABV2@W4IndirectionKind@@0H@Z 1003a050 f   libvcruntimed:undname.obj
 0001:00039970       ?getDataIndirectType@UnDecorator@@CA?AVDName@@XZ 1003a970 f i libvcruntimed:undname.obj
 0001:000399b0       ?getDataType@UnDecorator@@CA?AVDName@@PAV2@@Z 1003a9b0 f   libvcruntimed:undname.obj
 0001:00039af0       ?getDecoratedName@UnDecorator@@CA?AVDName@@XZ 1003aaf0 f   libvcruntimed:undname.obj
 0001:00039f30       ?getDimension@UnDecorator@@CA?AVDName@@_N@Z 1003af30 f   libvcruntimed:undname.obj
 0001:0003a190       ?getDispatchTarget@UnDecorator@@CA?AVDName@@XZ 1003b190 f   libvcruntimed:undname.obj
 0001:0003a230       ?getDisplacement@UnDecorator@@CA?AVDName@@XZ 1003b230 f i libvcruntimed:undname.obj
 0001:0003a250       ?getECSUDataType@UnDecorator@@CA?AVDName@@XZ 1003b250 f   libvcruntimed:undname.obj
 0001:0003a4b0       ?getECSUName@UnDecorator@@CA?AVDName@@XZ 1003b4b0 f i libvcruntimed:undname.obj
 0001:0003a4d0       ?getEnumType@UnDecorator@@CA?AVDName@@XZ 1003b4d0 f i libvcruntimed:undname.obj
 0001:0003a680       ?getExtendedDataIndirectType@UnDecorator@@CA?AVDName@@AAW4IndirectionKind@@AA_NH@Z 1003b680 f   libvcruntimed:undname.obj
 0001:0003a8d0       ?getExternalDataType@UnDecorator@@CA?AVDName@@ABV2@@Z 1003b8d0 f i libvcruntimed:undname.obj
 0001:0003a970       ?getFloatingPoint@UnDecorator@@CA?AVDName@@H@Z 1003b970 f   libvcruntimed:undname.obj
 0001:0003ab20       ?getFunctionIndirectType@UnDecorator@@CA?AVDName@@ABV2@@Z 1003bb20 f   libvcruntimed:undname.obj
 0001:0003b000       ?getGuardNumber@UnDecorator@@CA?AVDName@@XZ 1003c000 f i libvcruntimed:undname.obj
 0001:0003b020       ?getLastChar@DName@@QBEDXZ 1003c020 f i libvcruntimed:undname.obj
 0001:0003b060       ?getLastChar@DNameStatusNode@@UBEDXZ 1003c060 f i libvcruntimed:undname.obj
 0001:0003b090       ?getLastChar@charNode@@UBEDXZ 1003c090 f i libvcruntimed:undname.obj
 0001:0003b0b0       ?getLastChar@pDNameNode@@UBEDXZ 1003c0b0 f i libvcruntimed:undname.obj
 0001:0003b0e0       ?getLastChar@pairNode@@UBEDXZ 1003c0e0 f i libvcruntimed:undname.obj
 0001:0003b150       ?getLastChar@pcharNode@@UBEDXZ 1003c150 f i libvcruntimed:undname.obj
 0001:0003b190       ?getLexicalFrame@UnDecorator@@CA?AVDName@@XZ 1003c190 f i libvcruntimed:undname.obj
 0001:0003b1d0       ?getMemoryWithBuffer@_HeapManager@@QAEPAXI@Z 1003c1d0 f   libvcruntimed:undname.obj
 0001:0003b2c0       ?getMemoryWithoutBuffer@_HeapManager@@QAEPAXI@Z 1003c2c0 f   libvcruntimed:undname.obj
 0001:0003b300       ?getNoexcept@UnDecorator@@CA?AVDName@@XZ 1003c300 f   libvcruntimed:undname.obj
 0001:0003b380       ?getNumberOfDimensions@UnDecorator@@CAHXZ 1003c380 f   libvcruntimed:undname.obj
 0001:0003b480       ?getOperatorName@UnDecorator@@CA?AVDName@@_NPA_N@Z 1003c480 f i libvcruntimed:undname.obj
 0001:0003bf70       ?getPointerType@UnDecorator@@CA?AVDName@@ABV2@0@Z 1003cf70 f i libvcruntimed:undname.obj
 0001:0003bf90       ?getPointerTypeArray@UnDecorator@@CA?AVDName@@ABV2@0@Z 1003cf90 f i libvcruntimed:undname.obj
 0001:0003bfb0       ?getPrimaryDataType@UnDecorator@@CA?AVDName@@ABV2@@Z 1003cfb0 f   libvcruntimed:undname.obj
 0001:0003c420       ?getPtrRefDataType@UnDecorator@@CA?AVDName@@ABV2@H@Z 1003d420 f   libvcruntimed:undname.obj
 0001:0003c6d0       ?getPtrRefType@UnDecorator@@CA?AVDName@@ABV2@0W4IndirectionKind@@@Z 1003d6d0 f   libvcruntimed:undname.obj
 0001:0003c850       ?getReferenceType@UnDecorator@@CA?AVDName@@ABV2@0W4IndirectionKind@@@Z 1003d850 f i libvcruntimed:undname.obj
 0001:0003c870       ?getRestrictionSpec@UnDecorator@@CA?AVDName@@XZ 1003d870 f   libvcruntimed:undname.obj
 0001:0003ca30       ?getReturnType@UnDecorator@@CA?AVDName@@PAV2@@Z 1003da30 f   libvcruntimed:undname.obj
 0001:0003ca80       ?getScope@UnDecorator@@CA?AVDName@@XZ 1003da80 f   libvcruntimed:undname.obj
 0001:0003d010       ?getScopedName@UnDecorator@@CA?AVDName@@XZ 1003e010 f   libvcruntimed:undname.obj
 0001:0003d160       ?getSignedDimension@UnDecorator@@CA?AVDName@@XZ 1003e160 f   libvcruntimed:undname.obj
 0001:0003d1e0       ?getStorageConvention@UnDecorator@@CA?AVDName@@XZ 1003e1e0 f i libvcruntimed:undname.obj
 0001:0003d200       ?getString@DName@@QBEPADPAD0@Z 1003e200 f i libvcruntimed:undname.obj
 0001:0003d260       ?getString@DName@@QBEPADPADH@Z 1003e260 f i libvcruntimed:undname.obj
 0001:0003d2f0       ?getString@DNameStatusNode@@UBEPADPAD0@Z 1003e2f0 f i libvcruntimed:undname.obj
 0001:0003d330       ?getString@charNode@@UBEPADPAD0@Z 1003e330 f i libvcruntimed:undname.obj
 0001:0003d360       ?getString@pDNameNode@@UBEPADPAD0@Z 1003e360 f i libvcruntimed:undname.obj
 0001:0003d3a0       ?getString@pairNode@@UBEPADPAD0@Z 1003e3a0 f i libvcruntimed:undname.obj
 0001:0003d430       ?getString@pcharNode@@UBEPADPAD0@Z 1003e430 f i libvcruntimed:undname.obj
 0001:0003d460       ?getStringEncoding@UnDecorator@@CA?AVDName@@W4PrefixKind@@H@Z 1003e460 f   libvcruntimed:undname.obj
 0001:0003d570       ?getStringHelper@@YAPADPADPBD1H@Z 1003e570 f i libvcruntimed:undname.obj
 0001:0003d5b0       ?getStringObject@UnDecorator@@CA?AVDName@@XZ 1003e5b0 f   libvcruntimed:undname.obj
 0001:0003d660       ?getSymbolName@UnDecorator@@CA?AVDName@@XZ 1003e660 f i libvcruntimed:undname.obj
 0001:0003d6f0       ?getTemplateArgumentList@UnDecorator@@CA?AVDName@@XZ 1003e6f0 f   libvcruntimed:undname.obj
 0001:0003d9c0       ?getTemplateName@UnDecorator@@CA?AVDName@@_N@Z 1003e9c0 f   libvcruntimed:undname.obj
 0001:0003db80       ?getTemplateNonTypeArgument@UnDecorator@@CA?AVDName@@XZ 1003eb80 f   libvcruntimed:undname.obj
 0001:0003e0a0       ?getTemplateTypeArgument@UnDecorator@@CA?AVDName@@XZ 1003f0a0 f   libvcruntimed:undname.obj
 0001:0003e240       ?getThisType@UnDecorator@@CA?AVDName@@XZ 1003f240 f i libvcruntimed:undname.obj
 0001:0003e280       ?getThrowTypes@UnDecorator@@CA?AVDName@@XZ 1003f280 f   libvcruntimed:undname.obj
 0001:0003e2c0       ?getTypeEncoding@UnDecorator@@CAHXZ 1003f2c0 f i libvcruntimed:undname.obj
 0001:0003ed80       ?getUndecoratedName@UnDecorator@@QAEPADPADH@Z 1003fd80 f i libvcruntimed:undname.obj
 0001:0003eee0       ?getVCallThunkType@UnDecorator@@CA?AVDName@@XZ 1003fee0 f i libvcruntimed:undname.obj
 0001:0003ef60       ?getValue@UnDecorator@@CA?AV?$optional@_K@std@@XZ 1003ff60 f   libvcruntimed:undname.obj
 0001:0003f020       ?getValueObject@UnDecorator@@CA?AVDName@@XZ 10040020 f   libvcruntimed:undname.obj
 0001:0003f190       ?getVbTableType@UnDecorator@@CA?AVDName@@ABV2@@Z 10040190 f i libvcruntimed:undname.obj
 0001:0003f1b0       ?getVdispMapType@UnDecorator@@CA?AVDName@@ABV2@@Z 100401b0 f i libvcruntimed:undname.obj
 0001:0003f240       ?getVfTableType@UnDecorator@@CA?AVDName@@ABV2@@Z 10040240 f i libvcruntimed:undname.obj
 0001:0003f440       ?getZName@UnDecorator@@CA?AVDName@@_N0@Z 10040440 f   libvcruntimed:undname.obj
 0001:0003f780       ?haveTemplateParameters@UnDecorator@@SAHXZ 10040780 f i libvcruntimed:undname.obj
 0001:0003f790       ?isArray@DName@@QBEHXZ     10040790 f i libvcruntimed:undname.obj
 0001:0003f7b0       ?isComArray@DName@@QBEHXZ  100407b0 f i libvcruntimed:undname.obj
 0001:0003f7d0       ?isEmpty@DName@@QBEHXZ     100407d0 f i libvcruntimed:undname.obj
 0001:0003f800       ?isFull@Replicator@@QBEHXZ 10040800 f i libvcruntimed:undname.obj
 0001:0003f830       ?isNoTE@DName@@QBEHXZ      10040830 f i libvcruntimed:undname.obj
 0001:0003f850       ?isPinPtr@DName@@QBEHXZ    10040850 f i libvcruntimed:undname.obj
 0001:0003f870       ?isPtrRef@DName@@QBEHXZ    10040870 f i libvcruntimed:undname.obj
 0001:0003f890       ?isUDC@DName@@QBEHXZ       10040890 f i libvcruntimed:undname.obj
 0001:0003f8d0       ?isUDTThunk@DName@@QBEHXZ  100408d0 f i libvcruntimed:undname.obj
 0001:0003f910       ?isVCallThunk@DName@@QBEHXZ 10040910 f i libvcruntimed:undname.obj
 0001:0003f930       ?isValid@DName@@QBEHXZ     10040930 f i libvcruntimed:undname.obj
 0001:0003f970       ?length@DName@@QBEHXZ      10040970 f i libvcruntimed:undname.obj
 0001:0003f9b0       ?length@DNameStatusNode@@UBEHXZ 100409b0 f i libvcruntimed:undname.obj
 0001:0003f9d0       ?length@charNode@@UBEHXZ   100409d0 f i libvcruntimed:undname.obj
 0001:0003f9e0       ?length@pDNameNode@@UBEHXZ 100409e0 f i libvcruntimed:undname.obj
 0001:0003fa10       ?length@pairNode@@UBEHXZ   10040a10 f i libvcruntimed:undname.obj
 0001:0003fa80       ?length@pcharNode@@UBEHXZ  10040a80 f i libvcruntimed:undname.obj
 0001:0003faa0       ?make@DNameStatusNode@@SAPBV1@W4DNameStatus@@@Z 10040aa0 f i libvcruntimed:undname.obj
 0001:0003fad0       ?parseDecoratedName@UnDecorator@@CA?AVDName@@XZ 10040ad0 f   libvcruntimed:undname.obj
 0001:0003fc60       ?raw_length@DNameStatusNode@@UBEHXZ 10040c60 f i libvcruntimed:undname.obj
 0001:0003fc80       ?raw_length@charNode@@UBEHXZ 10040c80 f i libvcruntimed:undname.obj
 0001:0003fca0       ?raw_length@pDNameNode@@UBEHXZ 10040ca0 f i libvcruntimed:undname.obj
 0001:0003fcb0       ?raw_length@pairNode@@UBEHXZ 10040cb0 f i libvcruntimed:undname.obj
 0001:0003fcd0       ?raw_length@pcharNode@@UBEHXZ 10040cd0 f i libvcruntimed:undname.obj
 0001:0003fcf0       ?setIsArray@DName@@QAEXXZ  10040cf0 f i libvcruntimed:undname.obj
 0001:0003fd10       ?setIsComArray@DName@@QAEXXZ 10040d10 f i libvcruntimed:undname.obj
 0001:0003fd30       ?setIsNoTE@DName@@QAEXXZ   10040d30 f i libvcruntimed:undname.obj
 0001:0003fd50       ?setIsPinPtr@DName@@QAEXXZ 10040d50 f i libvcruntimed:undname.obj
 0001:0003fd70       ?setIsUDC@DName@@QAEXXZ    10040d70 f i libvcruntimed:undname.obj
 0001:0003fda0       ?setIsVCallThunk@DName@@QAEXXZ 10040da0 f i libvcruntimed:undname.obj
 0001:0003fdc0       ?setPtrRef@DName@@QAEAAV1@XZ 10040dc0 f i libvcruntimed:undname.obj
 0001:0003fde0       ?status@DName@@QBE?AW4DNameStatus@@XZ 10040de0 f i libvcruntimed:undname.obj
 0001:0003fee0       ___unDName                 10040ee0 f   libvcruntimed:undname.obj
 0001:0003ff10       ___unDNameEx               10040f10 f   libvcruntimed:undname.obj
 0001:0003ffe0       _unDNameGenerateCHPE       10040fe0 f   libvcruntimed:undname.obj
 0001:00040040       __global_unwind2           10041040 f   libvcruntimed:exsup.obj
 0001:000400a6       __local_unwind2            100410a6 f   libvcruntimed:exsup.obj
 0001:0004012a       __abnormal_termination     1004112a f   libvcruntimed:exsup.obj
 0001:00040150       __NLG_Notify1              10041150 f   libvcruntimed:exsup.obj
 0001:0004015c       __NLG_Notify               1004115c f   libvcruntimed:exsup.obj
 0001:00040173       __NLG_Dispatch2            10041173     libvcruntimed:exsup.obj
 0001:00040173       __NLG_Dispatch             10041173     libvcruntimed:exsup.obj
 0001:0004017b       __NLG_Call                 1004117b f   libvcruntimed:exsup.obj
 0001:0004017d       __NLG_Return2              1004117d     libvcruntimed:exsup.obj
 0001:00040180       ??$__crt_interlocked_exchange_pointer@UHINSTANCE__@@PAU1@@@YAPAUHINSTANCE__@@PDSAU0@QAU0@@Z 10041180 f i libvcruntimed:winapi_downlevel.obj
 0001:00040190       ??$__crt_interlocked_exchange_pointer@UHINSTANCE__@@PAX@@YAPAUHINSTANCE__@@PDSAU0@QAX@Z 10041190 f i libvcruntimed:winapi_downlevel.obj
 0001:000401a0       ??$__crt_interlocked_exchange_pointer@XPAX@@YAPAXPDSAXQAX@Z 100411a0 f i libvcruntimed:winapi_downlevel.obj
 0001:000401b0       ??$__crt_interlocked_read_pointer@UHINSTANCE__@@@@YAPAUHINSTANCE__@@PDSAU0@@Z 100411b0 f i libvcruntimed:winapi_downlevel.obj
 0001:000401d0       ??$__crt_interlocked_read_pointer@X@@YAPAXPDSAX@Z 100411d0 f i libvcruntimed:winapi_downlevel.obj
 0001:000405a0       ___vcrt_FlsAlloc           100415a0 f   libvcruntimed:winapi_downlevel.obj
 0001:000405e0       ___vcrt_FlsFree            100415e0 f   libvcruntimed:winapi_downlevel.obj
 0001:00040620       ___vcrt_FlsGetValue        10041620 f   libvcruntimed:winapi_downlevel.obj
 0001:00040660       ___vcrt_FlsSetValue        10041660 f   libvcruntimed:winapi_downlevel.obj
 0001:000406b0       ___vcrt_InitializeCriticalSectionEx 100416b0 f   libvcruntimed:winapi_downlevel.obj
 0001:00040730       __get_unexpected           10041730 f   libvcruntimed:unexpected.obj
 0001:00040750       _set_unexpected            10041750 f   libvcruntimed:unexpected.obj
 0001:00040780       _unexpected                10041780 f   libvcruntimed:unexpected.obj
 0001:000407c0       ?GetCurrentState@__FrameHandler3@@SAHPAUEHRegistrationNode@@PAXPBU_s_FuncInfo@@@Z 100417c0 f   libvcruntimed:ehstate.obj
 0001:000407f0       ?SetState@__FrameHandler3@@SAXPAUEHRegistrationNode@@PBU_s_FuncInfo@@H@Z 100417f0 f   libvcruntimed:ehstate.obj
 0001:00040800       ??$?0ABV?$stream_output_adapter@D@__crt_stdio_output@@AB_KABQBDABQAU__crt_locale_pointers@@ABQAD@?$format_validation_base@DV?$stream_output_adapter@D@__crt_stdio_output@@@__crt_stdio_output@@IAE@ABV?$stream_output_adapter@D@1@AB_KABQBDABQAU__crt_locale_pointers@@ABQAD@Z 10041800 f i libucrtd:output.obj
 0001:00040830       ??$?0ABV?$stream_output_adapter@D@__crt_stdio_output@@AB_KABQBDABQAU__crt_locale_pointers@@ABQAD@?$positional_parameter_base@DV?$stream_output_adapter@D@__crt_stdio_output@@@__crt_stdio_output@@IAE@ABV?$stream_output_adapter@D@1@AB_KABQBDABQAU__crt_locale_pointers@@ABQAD@Z 10041830 f i libucrtd:output.obj
 0001:000408b0       ??$?0ABV?$stream_output_adapter@D@__crt_stdio_output@@AB_KABQBDABQAU__crt_locale_pointers@@ABQAD@?$standard_base@DV?$stream_output_adapter@D@__crt_stdio_output@@@__crt_stdio_output@@IAE@ABV?$stream_output_adapter@D@1@AB_KABQBDABQAU__crt_locale_pointers@@ABQAD@Z 100418b0 f i libucrtd:output.obj
 0001:00040900       ??$?0ABV?$stream_output_adapter@_W@__crt_stdio_output@@AB_KABQB_WABQAU__crt_locale_pointers@@ABQAD@?$format_validation_base@_WV?$stream_output_adapter@_W@__crt_stdio_output@@@__crt_stdio_output@@IAE@ABV?$stream_output_adapter@_W@1@AB_KABQB_WABQAU__crt_locale_pointers@@ABQAD@Z 10041900 f i libucrtd:output.obj
 0001:00040930       ??$?0ABV?$stream_output_adapter@_W@__crt_stdio_output@@AB_KABQB_WABQAU__crt_locale_pointers@@ABQAD@?$positional_parameter_base@_WV?$stream_output_adapter@_W@__crt_stdio_output@@@__crt_stdio_output@@IAE@ABV?$stream_output_adapter@_W@1@AB_KABQB_WABQAU__crt_locale_pointers@@ABQAD@Z 10041930 f i libucrtd:output.obj
 0001:000409b0       ??$?0ABV?$stream_output_adapter@_W@__crt_stdio_output@@AB_KABQB_WABQAU__crt_locale_pointers@@ABQAD@?$standard_base@_WV?$stream_output_adapter@_W@__crt_stdio_output@@@__crt_stdio_output@@IAE@ABV?$stream_output_adapter@_W@1@AB_KABQB_WABQAU__crt_locale_pointers@@ABQAD@Z 100419b0 f i libucrtd:output.obj
 0001:00040a00       ??$?0ABV?$string_output_adapter@D@__crt_stdio_output@@AB_KABQBDABQAU__crt_locale_pointers@@ABQAD@?$format_validation_base@DV?$string_output_adapter@D@__crt_stdio_output@@@__crt_stdio_output@@IAE@ABV?$string_output_adapter@D@1@AB_KABQBDABQAU__crt_locale_pointers@@ABQAD@Z 10041a00 f i libucrtd:output.obj
 0001:00040a30       ??$?0ABV?$string_output_adapter@D@__crt_stdio_output@@AB_KABQBDABQAU__crt_locale_pointers@@ABQAD@?$positional_parameter_base@DV?$string_output_adapter@D@__crt_stdio_output@@@__crt_stdio_output@@IAE@ABV?$string_output_adapter@D@1@AB_KABQBDABQAU__crt_locale_pointers@@ABQAD@Z 10041a30 f i libucrtd:output.obj
 0001:00040ab0       ??$?0ABV?$string_output_adapter@D@__crt_stdio_output@@AB_KABQBDABQAU__crt_locale_pointers@@ABQAD@?$standard_base@DV?$string_output_adapter@D@__crt_stdio_output@@@__crt_stdio_output@@IAE@ABV?$string_output_adapter@D@1@AB_KABQBDABQAU__crt_locale_pointers@@ABQAD@Z 10041ab0 f i libucrtd:output.obj
 0001:00040b00       ??$?0ABV?$string_output_adapter@_W@__crt_stdio_output@@AB_KABQB_WABQAU__crt_locale_pointers@@ABQAD@?$format_validation_base@_WV?$string_output_adapter@_W@__crt_stdio_output@@@__crt_stdio_output@@IAE@ABV?$string_output_adapter@_W@1@AB_KABQB_WABQAU__crt_locale_pointers@@ABQAD@Z 10041b00 f i libucrtd:output.obj
 0001:00040b30       ??$?0ABV?$string_output_adapter@_W@__crt_stdio_output@@AB_KABQB_WABQAU__crt_locale_pointers@@ABQAD@?$positional_parameter_base@_WV?$string_output_adapter@_W@__crt_stdio_output@@@__crt_stdio_output@@IAE@ABV?$string_output_adapter@_W@1@AB_KABQB_WABQAU__crt_locale_pointers@@ABQAD@Z 10041b30 f i libucrtd:output.obj
 0001:00040bb0       ??$?0ABV?$string_output_adapter@_W@__crt_stdio_output@@AB_KABQB_WABQAU__crt_locale_pointers@@ABQAD@?$standard_base@_WV?$string_output_adapter@_W@__crt_stdio_output@@@__crt_stdio_output@@IAE@ABV?$string_output_adapter@_W@1@AB_KABQB_WABQAU__crt_locale_pointers@@ABQAD@Z 10041bb0 f i libucrtd:output.obj
 0001:000410e0       ??$__crt_interlocked_read@J@@YAJPDJ@Z 100420e0 f i libucrtd:output.obj
 0001:00043e80       ??$count@D@formatting_buffer@__crt_stdio_output@@QBEIXZ 10044e80 f i libucrtd:output.obj
 0001:00043ec0       ??$count@_W@formatting_buffer@__crt_stdio_output@@QBEIXZ 10044ec0 f i libucrtd:output.obj
 0001:00043f00       ??$data@D@formatting_buffer@__crt_stdio_output@@QAEPADXZ 10044f00 f i libucrtd:output.obj
 0001:00043f40       ??$data@_W@formatting_buffer@__crt_stdio_output@@QAEPA_WXZ 10044f40 f i libucrtd:output.obj
 0001:00043f80       ??$ensure_buffer_is_big_enough@D@formatting_buffer@__crt_stdio_output@@QAE_NI@Z 10044f80 f i libucrtd:output.obj
 0001:00044060       ??$ensure_buffer_is_big_enough@_W@formatting_buffer@__crt_stdio_output@@QAE_NI@Z 10045060 f i libucrtd:output.obj
 0001:00044150       ??$extract_argument_from_va_list@C_J@?$positional_parameter_base@DV?$stream_output_adapter@D@__crt_stdio_output@@@__crt_stdio_output@@IAE_NAA_J@Z 10045150 f i libucrtd:output.obj
 0001:00044290       ??$extract_argument_from_va_list@C_J@?$positional_parameter_base@DV?$string_output_adapter@D@__crt_stdio_output@@@__crt_stdio_output@@IAE_NAA_J@Z 10045290 f i libucrtd:output.obj
 0001:000443d0       ??$extract_argument_from_va_list@C_J@?$positional_parameter_base@_WV?$stream_output_adapter@_W@__crt_stdio_output@@@__crt_stdio_output@@IAE_NAA_J@Z 100453d0 f i libucrtd:output.obj
 0001:00044510       ??$extract_argument_from_va_list@C_J@?$positional_parameter_base@_WV?$string_output_adapter@_W@__crt_stdio_output@@@__crt_stdio_output@@IAE_NAA_J@Z 10045510 f i libucrtd:output.obj
 0001:00044650       ??$extract_argument_from_va_list@C_J@?$standard_base@DV?$stream_output_adapter@D@__crt_stdio_output@@@__crt_stdio_output@@IAE_NAA_J@Z 10045650 f i libucrtd:output.obj
 0001:00044680       ??$extract_argument_from_va_list@C_J@?$standard_base@DV?$string_output_adapter@D@__crt_stdio_output@@@__crt_stdio_output@@IAE_NAA_J@Z 10045680 f i libucrtd:output.obj
 0001:000446b0       ??$extract_argument_from_va_list@C_J@?$standard_base@_WV?$stream_output_adapter@_W@__crt_stdio_output@@@__crt_stdio_output@@IAE_NAA_J@Z 100456b0 f i libucrtd:output.obj
 0001:000446e0       ??$extract_argument_from_va_list@C_J@?$standard_base@_WV?$string_output_adapter@_W@__crt_stdio_output@@@__crt_stdio_output@@IAE_NAA_J@Z 100456e0 f i libucrtd:output.obj
 0001:00044710       ??$extract_argument_from_va_list@E_J@?$positional_parameter_base@DV?$stream_output_adapter@D@__crt_stdio_output@@@__crt_stdio_output@@IAE_NAA_J@Z 10045710 f i libucrtd:output.obj
 0001:00044850       ??$extract_argument_from_va_list@E_J@?$positional_parameter_base@DV?$string_output_adapter@D@__crt_stdio_output@@@__crt_stdio_output@@IAE_NAA_J@Z 10045850 f i libucrtd:output.obj
 0001:00044990       ??$extract_argument_from_va_list@E_J@?$positional_parameter_base@_WV?$stream_output_adapter@_W@__crt_stdio_output@@@__crt_stdio_output@@IAE_NAA_J@Z 10045990 f i libucrtd:output.obj
 0001:00044ad0       ??$extract_argument_from_va_list@E_J@?$positional_parameter_base@_WV?$string_output_adapter@_W@__crt_stdio_output@@@__crt_stdio_output@@IAE_NAA_J@Z 10045ad0 f i libucrtd:output.obj
 0001:00044c10       ??$extract_argument_from_va_list@E_J@?$standard_base@DV?$stream_output_adapter@D@__crt_stdio_output@@@__crt_stdio_output@@IAE_NAA_J@Z 10045c10 f i libucrtd:output.obj
 0001:00044c40       ??$extract_argument_from_va_list@E_J@?$standard_base@DV?$string_output_adapter@D@__crt_stdio_output@@@__crt_stdio_output@@IAE_NAA_J@Z 10045c40 f i libucrtd:output.obj
 0001:00044c70       ??$extract_argument_from_va_list@E_J@?$standard_base@_WV?$stream_output_adapter@_W@__crt_stdio_output@@@__crt_stdio_output@@IAE_NAA_J@Z 10045c70 f i libucrtd:output.obj
 0001:00044ca0       ??$extract_argument_from_va_list@E_J@?$standard_base@_WV?$string_output_adapter@_W@__crt_stdio_output@@@__crt_stdio_output@@IAE_NAA_J@Z 10045ca0 f i libucrtd:output.obj
 0001:00044cd0       ??$extract_argument_from_va_list@F_J@?$positional_parameter_base@DV?$stream_output_adapter@D@__crt_stdio_output@@@__crt_stdio_output@@IAE_NAA_J@Z 10045cd0 f i libucrtd:output.obj
 0001:00044e00       ??$extract_argument_from_va_list@F_J@?$positional_parameter_base@DV?$string_output_adapter@D@__crt_stdio_output@@@__crt_stdio_output@@IAE_NAA_J@Z 10045e00 f i libucrtd:output.obj
 0001:00044f30       ??$extract_argument_from_va_list@F_J@?$positional_parameter_base@_WV?$stream_output_adapter@_W@__crt_stdio_output@@@__crt_stdio_output@@IAE_NAA_J@Z 10045f30 f i libucrtd:output.obj
 0001:00045060       ??$extract_argument_from_va_list@F_J@?$positional_parameter_base@_WV?$string_output_adapter@_W@__crt_stdio_output@@@__crt_stdio_output@@IAE_NAA_J@Z 10046060 f i libucrtd:output.obj
 0001:00045190       ??$extract_argument_from_va_list@F_J@?$standard_base@DV?$stream_output_adapter@D@__crt_stdio_output@@@__crt_stdio_output@@IAE_NAA_J@Z 10046190 f i libucrtd:output.obj
 0001:000451c0       ??$extract_argument_from_va_list@F_J@?$standard_base@DV?$string_output_adapter@D@__crt_stdio_output@@@__crt_stdio_output@@IAE_NAA_J@Z 100461c0 f i libucrtd:output.obj
 0001:000451f0       ??$extract_argument_from_va_list@F_J@?$standard_base@_WV?$stream_output_adapter@_W@__crt_stdio_output@@@__crt_stdio_output@@IAE_NAA_J@Z 100461f0 f i libucrtd:output.obj
 0001:00045220       ??$extract_argument_from_va_list@F_J@?$standard_base@_WV?$string_output_adapter@_W@__crt_stdio_output@@@__crt_stdio_output@@IAE_NAA_J@Z 10046220 f i libucrtd:output.obj
 0001:00045250       ??$extract_argument_from_va_list@GD@?$positional_parameter_base@DV?$stream_output_adapter@D@__crt_stdio_output@@@__crt_stdio_output@@IAE_NAAD@Z 10046250 f i libucrtd:output.obj
 0001:00045380       ??$extract_argument_from_va_list@GD@?$positional_parameter_base@DV?$string_output_adapter@D@__crt_stdio_output@@@__crt_stdio_output@@IAE_NAAD@Z 10046380 f i libucrtd:output.obj
 0001:000454b0       ??$extract_argument_from_va_list@GD@?$standard_base@DV?$stream_output_adapter@D@__crt_stdio_output@@@__crt_stdio_output@@IAE_NAAD@Z 100464b0 f i libucrtd:output.obj
 0001:000454e0       ??$extract_argument_from_va_list@GD@?$standard_base@DV?$string_output_adapter@D@__crt_stdio_output@@@__crt_stdio_output@@IAE_NAAD@Z 100464e0 f i libucrtd:output.obj
 0001:00045510       ??$extract_argument_from_va_list@G_J@?$positional_parameter_base@DV?$stream_output_adapter@D@__crt_stdio_output@@@__crt_stdio_output@@IAE_NAA_J@Z 10046510 f i libucrtd:output.obj
 0001:00045650       ??$extract_argument_from_va_list@G_J@?$positional_parameter_base@DV?$string_output_adapter@D@__crt_stdio_output@@@__crt_stdio_output@@IAE_NAA_J@Z 10046650 f i libucrtd:output.obj
 0001:00045790       ??$extract_argument_from_va_list@G_J@?$positional_parameter_base@_WV?$stream_output_adapter@_W@__crt_stdio_output@@@__crt_stdio_output@@IAE_NAA_J@Z 10046790 f i libucrtd:output.obj
 0001:000458d0       ??$extract_argument_from_va_list@G_J@?$positional_parameter_base@_WV?$string_output_adapter@_W@__crt_stdio_output@@@__crt_stdio_output@@IAE_NAA_J@Z 100468d0 f i libucrtd:output.obj
 0001:00045a10       ??$extract_argument_from_va_list@G_J@?$standard_base@DV?$stream_output_adapter@D@__crt_stdio_output@@@__crt_stdio_output@@IAE_NAA_J@Z 10046a10 f i libucrtd:output.obj
 0001:00045a40       ??$extract_argument_from_va_list@G_J@?$standard_base@DV?$string_output_adapter@D@__crt_stdio_output@@@__crt_stdio_output@@IAE_NAA_J@Z 10046a40 f i libucrtd:output.obj
 0001:00045a70       ??$extract_argument_from_va_list@G_J@?$standard_base@_WV?$stream_output_adapter@_W@__crt_stdio_output@@@__crt_stdio_output@@IAE_NAA_J@Z 10046a70 f i libucrtd:output.obj
 0001:00045aa0       ??$extract_argument_from_va_list@G_J@?$standard_base@_WV?$string_output_adapter@_W@__crt_stdio_output@@@__crt_stdio_output@@IAE_NAA_J@Z 10046aa0 f i libucrtd:output.obj
 0001:00045ad0       ??$extract_argument_from_va_list@H_J@?$positional_parameter_base@DV?$stream_output_adapter@D@__crt_stdio_output@@@__crt_stdio_output@@IAE_NAA_J@Z 10046ad0 f i libucrtd:output.obj
 0001:00045c00       ??$extract_argument_from_va_list@H_J@?$positional_parameter_base@DV?$string_output_adapter@D@__crt_stdio_output@@@__crt_stdio_output@@IAE_NAA_J@Z 10046c00 f i libucrtd:output.obj
 0001:00045d30       ??$extract_argument_from_va_list@H_J@?$positional_parameter_base@_WV?$stream_output_adapter@_W@__crt_stdio_output@@@__crt_stdio_output@@IAE_NAA_J@Z 10046d30 f i libucrtd:output.obj
 0001:00045e60       ??$extract_argument_from_va_list@H_J@?$positional_parameter_base@_WV?$string_output_adapter@_W@__crt_stdio_output@@@__crt_stdio_output@@IAE_NAA_J@Z 10046e60 f i libucrtd:output.obj
 0001:00045f90       ??$extract_argument_from_va_list@H_J@?$standard_base@DV?$stream_output_adapter@D@__crt_stdio_output@@@__crt_stdio_output@@IAE_NAA_J@Z 10046f90 f i libucrtd:output.obj
 0001:00045fc0       ??$extract_argument_from_va_list@H_J@?$standard_base@DV?$string_output_adapter@D@__crt_stdio_output@@@__crt_stdio_output@@IAE_NAA_J@Z 10046fc0 f i libucrtd:output.obj
 0001:00045ff0       ??$extract_argument_from_va_list@H_J@?$standard_base@_WV?$stream_output_adapter@_W@__crt_stdio_output@@@__crt_stdio_output@@IAE_NAA_J@Z 10046ff0 f i libucrtd:output.obj
 0001:00046020       ??$extract_argument_from_va_list@H_J@?$standard_base@_WV?$string_output_adapter@_W@__crt_stdio_output@@@__crt_stdio_output@@IAE_NAA_J@Z 10047020 f i libucrtd:output.obj
 0001:00046050       ??$extract_argument_from_va_list@I_J@?$positional_parameter_base@DV?$stream_output_adapter@D@__crt_stdio_output@@@__crt_stdio_output@@IAE_NAA_J@Z 10047050 f i libucrtd:output.obj
 0001:00046180       ??$extract_argument_from_va_list@I_J@?$positional_parameter_base@DV?$string_output_adapter@D@__crt_stdio_output@@@__crt_stdio_output@@IAE_NAA_J@Z 10047180 f i libucrtd:output.obj
 0001:000462b0       ??$extract_argument_from_va_list@I_J@?$positional_parameter_base@_WV?$stream_output_adapter@_W@__crt_stdio_output@@@__crt_stdio_output@@IAE_NAA_J@Z 100472b0 f i libucrtd:output.obj
 0001:000463e0       ??$extract_argument_from_va_list@I_J@?$positional_parameter_base@_WV?$string_output_adapter@_W@__crt_stdio_output@@@__crt_stdio_output@@IAE_NAA_J@Z 100473e0 f i libucrtd:output.obj
 0001:00046510       ??$extract_argument_from_va_list@I_J@?$standard_base@DV?$stream_output_adapter@D@__crt_stdio_output@@@__crt_stdio_output@@IAE_NAA_J@Z 10047510 f i libucrtd:output.obj
 0001:00046540       ??$extract_argument_from_va_list@I_J@?$standard_base@DV?$string_output_adapter@D@__crt_stdio_output@@@__crt_stdio_output@@IAE_NAA_J@Z 10047540 f i libucrtd:output.obj
 0001:00046570       ??$extract_argument_from_va_list@I_J@?$standard_base@_WV?$stream_output_adapter@_W@__crt_stdio_output@@@__crt_stdio_output@@IAE_NAA_J@Z 10047570 f i libucrtd:output.obj
 0001:000465a0       ??$extract_argument_from_va_list@I_J@?$standard_base@_WV?$string_output_adapter@_W@__crt_stdio_output@@@__crt_stdio_output@@IAE_NAA_J@Z 100475a0 f i libucrtd:output.obj
 0001:000465d0       ??$extract_argument_from_va_list@PADPAD@?$positional_parameter_base@DV?$stream_output_adapter@D@__crt_stdio_output@@@__crt_stdio_output@@IAE_NAAPAD@Z 100475d0 f i libucrtd:output.obj
 0001:00046700       ??$extract_argument_from_va_list@PADPAD@?$positional_parameter_base@DV?$string_output_adapter@D@__crt_stdio_output@@@__crt_stdio_output@@IAE_NAAPAD@Z 10047700 f i libucrtd:output.obj
 0001:00046830       ??$extract_argument_from_va_list@PADPAD@?$positional_parameter_base@_WV?$stream_output_adapter@_W@__crt_stdio_output@@@__crt_stdio_output@@IAE_NAAPAD@Z 10047830 f i libucrtd:output.obj
 0001:00046960       ??$extract_argument_from_va_list@PADPAD@?$positional_parameter_base@_WV?$string_output_adapter@_W@__crt_stdio_output@@@__crt_stdio_output@@IAE_NAAPAD@Z 10047960 f i libucrtd:output.obj
 0001:00046a90       ??$extract_argument_from_va_list@PADPAD@?$standard_base@DV?$stream_output_adapter@D@__crt_stdio_output@@@__crt_stdio_output@@IAE_NAAPAD@Z 10047a90 f i libucrtd:output.obj
 0001:00046ac0       ??$extract_argument_from_va_list@PADPAD@?$standard_base@DV?$string_output_adapter@D@__crt_stdio_output@@@__crt_stdio_output@@IAE_NAAPAD@Z 10047ac0 f i libucrtd:output.obj
 0001:00046af0       ??$extract_argument_from_va_list@PADPAD@?$standard_base@_WV?$stream_output_adapter@_W@__crt_stdio_output@@@__crt_stdio_output@@IAE_NAAPAD@Z 10047af0 f i libucrtd:output.obj
 0001:00046b20       ??$extract_argument_from_va_list@PADPAD@?$standard_base@_WV?$string_output_adapter@_W@__crt_stdio_output@@@__crt_stdio_output@@IAE_NAAPAD@Z 10047b20 f i libucrtd:output.obj
 0001:00046b50       ??$extract_argument_from_va_list@PAUansi_string@?1??type_case_Z@?$output_processor@DV?$stream_output_adapter@D@__crt_stdio_output@@V?$format_validation_base@DV?$stream_output_adapter@D@__crt_stdio_output@@@2@@__crt_stdio_output@@AAE_NXZ@PAU1?1??234@AAE_NXZ@@?$standard_base@DV?$stream_output_adapter@D@__crt_stdio_output@@@__crt_stdio_output@@IAE_NAAPAUansi_string@?1??type_case_Z@?$output_processor@DV?$stream_output_adapter@D@__crt_stdio_output@@V?$format_validation_base@DV?$stream_output_adapter@D@__crt_stdio_output@@@2@@1@AAE_NXZ@@Z 10047b50 f i libucrtd:output.obj
 0001:00046b80       ??$extract_argument_from_va_list@PAUansi_string@?1??type_case_Z@?$output_processor@DV?$stream_output_adapter@D@__crt_stdio_output@@V?$positional_parameter_base@DV?$stream_output_adapter@D@__crt_stdio_output@@@2@@__crt_stdio_output@@AAE_NXZ@PAU1?1??234@AAE_NXZ@@?$positional_parameter_base@DV?$stream_output_adapter@D@__crt_stdio_output@@@__crt_stdio_output@@IAE_NAAPAUansi_string@?1??type_case_Z@?$output_processor@DV?$stream_output_adapter@D@__crt_stdio_output@@V?$positional_parameter_base@DV?$stream_output_adapter@D@__crt_stdio_output@@@2@@1@AAE_NXZ@@Z 10047b80 f i libucrtd:output.obj
 0001:00046cb0       ??$extract_argument_from_va_list@PAUansi_string@?1??type_case_Z@?$output_processor@DV?$stream_output_adapter@D@__crt_stdio_output@@V?$positional_parameter_base@DV?$stream_output_adapter@D@__crt_stdio_output@@@2@@__crt_stdio_output@@AAE_NXZ@PAU1?1??234@AAE_NXZ@@?$standard_base@DV?$stream_output_adapter@D@__crt_stdio_output@@@__crt_stdio_output@@IAE_NAAPAUansi_string@?1??type_case_Z@?$output_processor@DV?$stream_output_adapter@D@__crt_stdio_output@@V?$positional_parameter_base@DV?$stream_output_adapter@D@__crt_stdio_output@@@2@@1@AAE_NXZ@@Z 10047cb0 f i libucrtd:output.obj
 0001:00046ce0       ??$extract_argument_from_va_list@PAUansi_string@?1??type_case_Z@?$output_processor@DV?$stream_output_adapter@D@__crt_stdio_output@@V?$standard_base@DV?$stream_output_adapter@D@__crt_stdio_output@@@2@@__crt_stdio_output@@AAE_NXZ@PAU1?1??234@AAE_NXZ@@?$standard_base@DV?$stream_output_adapter@D@__crt_stdio_output@@@__crt_stdio_output@@IAE_NAAPAUansi_string@?1??type_case_Z@?$output_processor@DV?$stream_output_adapter@D@__crt_stdio_output@@V?$standard_base@DV?$stream_output_adapter@D@__crt_stdio_output@@@2@@1@AAE_NXZ@@Z 10047ce0 f i libucrtd:output.obj
 0001:00046d10       ??$extract_argument_from_va_list@PAUansi_string@?1??type_case_Z@?$output_processor@DV?$string_output_adapter@D@__crt_stdio_output@@V?$format_validation_base@DV?$string_output_adapter@D@__crt_stdio_output@@@2@@__crt_stdio_output@@AAE_NXZ@PAU1?1??234@AAE_NXZ@@?$standard_base@DV?$string_output_adapter@D@__crt_stdio_output@@@__crt_stdio_output@@IAE_NAAPAUansi_string@?1??type_case_Z@?$output_processor@DV?$string_output_adapter@D@__crt_stdio_output@@V?$format_validation_base@DV?$string_output_adapter@D@__crt_stdio_output@@@2@@1@AAE_NXZ@@Z 10047d10 f i libucrtd:output.obj
 0001:00046d40       ??$extract_argument_from_va_list@PAUansi_string@?1??type_case_Z@?$output_processor@DV?$string_output_adapter@D@__crt_stdio_output@@V?$positional_parameter_base@DV?$string_output_adapter@D@__crt_stdio_output@@@2@@__crt_stdio_output@@AAE_NXZ@PAU1?1??234@AAE_NXZ@@?$positional_parameter_base@DV?$string_output_adapter@D@__crt_stdio_output@@@__crt_stdio_output@@IAE_NAAPAUansi_string@?1??type_case_Z@?$output_processor@DV?$string_output_adapter@D@__crt_stdio_output@@V?$positional_parameter_base@DV?$string_output_adapter@D@__crt_stdio_output@@@2@@1@AAE_NXZ@@Z 10047d40 f i libucrtd:output.obj
 0001:00046e70       ??$extract_argument_from_va_list@PAUansi_string@?1??type_case_Z@?$output_processor@DV?$string_output_adapter@D@__crt_stdio_output@@V?$positional_parameter_base@DV?$string_output_adapter@D@__crt_stdio_output@@@2@@__crt_stdio_output@@AAE_NXZ@PAU1?1??234@AAE_NXZ@@?$standard_base@DV?$string_output_adapter@D@__crt_stdio_output@@@__crt_stdio_output@@IAE_NAAPAUansi_string@?1??type_case_Z@?$output_processor@DV?$string_output_adapter@D@__crt_stdio_output@@V?$positional_parameter_base@DV?$string_output_adapter@D@__crt_stdio_output@@@2@@1@AAE_NXZ@@Z 10047e70 f i libucrtd:output.obj
 0001:00046ea0       ??$extract_argument_from_va_list@PAUansi_string@?1??type_case_Z@?$output_processor@DV?$string_output_adapter@D@__crt_stdio_output@@V?$standard_base@DV?$string_output_adapter@D@__crt_stdio_output@@@2@@__crt_stdio_output@@AAE_NXZ@PAU1?1??234@AAE_NXZ@@?$standard_base@DV?$string_output_adapter@D@__crt_stdio_output@@@__crt_stdio_output@@IAE_NAAPAUansi_string@?1??type_case_Z@?$output_processor@DV?$string_output_adapter@D@__crt_stdio_output@@V?$standard_base@DV?$string_output_adapter@D@__crt_stdio_output@@@2@@1@AAE_NXZ@@Z 10047ea0 f i libucrtd:output.obj
 0001:00046ed0       ??$extract_argument_from_va_list@PAUansi_string@?1??type_case_Z@?$output_processor@_WV?$stream_output_adapter@_W@__crt_stdio_output@@V?$format_validation_base@_WV?$stream_output_adapter@_W@__crt_stdio_output@@@2@@__crt_stdio_output@@AAE_NXZ@PAU1?1??234@AAE_NXZ@@?$standard_base@_WV?$stream_output_adapter@_W@__crt_stdio_output@@@__crt_stdio_output@@IAE_NAAPAUansi_string@?1??type_case_Z@?$output_processor@_WV?$stream_output_adapter@_W@__crt_stdio_output@@V?$format_validation_base@_WV?$stream_output_adapter@_W@__crt_stdio_output@@@2@@1@AAE_NXZ@@Z 10047ed0 f i libucrtd:output.obj
 0001:00046f00       ??$extract_argument_from_va_list@PAUansi_string@?1??type_case_Z@?$output_processor@_WV?$stream_output_adapter@_W@__crt_stdio_output@@V?$positional_parameter_base@_WV?$stream_output_adapter@_W@__crt_stdio_output@@@2@@__crt_stdio_output@@AAE_NXZ@PAU1?1??234@AAE_NXZ@@?$positional_parameter_base@_WV?$stream_output_adapter@_W@__crt_stdio_output@@@__crt_stdio_output@@IAE_NAAPAUansi_string@?1??type_case_Z@?$output_processor@_WV?$stream_output_adapter@_W@__crt_stdio_output@@V?$positional_parameter_base@_WV?$stream_output_adapter@_W@__crt_stdio_output@@@2@@1@AAE_NXZ@@Z 10047f00 f i libucrtd:output.obj
 0001:00047030       ??$extract_argument_from_va_list@PAUansi_string@?1??type_case_Z@?$output_processor@_WV?$stream_output_adapter@_W@__crt_stdio_output@@V?$positional_parameter_base@_WV?$stream_output_adapter@_W@__crt_stdio_output@@@2@@__crt_stdio_output@@AAE_NXZ@PAU1?1??234@AAE_NXZ@@?$standard_base@_WV?$stream_output_adapter@_W@__crt_stdio_output@@@__crt_stdio_output@@IAE_NAAPAUansi_string@?1??type_case_Z@?$output_processor@_WV?$stream_output_adapter@_W@__crt_stdio_output@@V?$positional_parameter_base@_WV?$stream_output_adapter@_W@__crt_stdio_output@@@2@@1@AAE_NXZ@@Z 10048030 f i libucrtd:output.obj
 0001:00047060       ??$extract_argument_from_va_list@PAUansi_string@?1??type_case_Z@?$output_processor@_WV?$stream_output_adapter@_W@__crt_stdio_output@@V?$standard_base@_WV?$stream_output_adapter@_W@__crt_stdio_output@@@2@@__crt_stdio_output@@AAE_NXZ@PAU1?1??234@AAE_NXZ@@?$standard_base@_WV?$stream_output_adapter@_W@__crt_stdio_output@@@__crt_stdio_output@@IAE_NAAPAUansi_string@?1??type_case_Z@?$output_processor@_WV?$stream_output_adapter@_W@__crt_stdio_output@@V?$standard_base@_WV?$stream_output_adapter@_W@__crt_stdio_output@@@2@@1@AAE_NXZ@@Z 10048060 f i libucrtd:output.obj
 0001:00047090       ??$extract_argument_from_va_list@PAUansi_string@?1??type_case_Z@?$output_processor@_WV?$string_output_adapter@_W@__crt_stdio_output@@V?$format_validation_base@_WV?$string_output_adapter@_W@__crt_stdio_output@@@2@@__crt_stdio_output@@AAE_NXZ@PAU1?1??234@AAE_NXZ@@?$standard_base@_WV?$string_output_adapter@_W@__crt_stdio_output@@@__crt_stdio_output@@IAE_NAAPAUansi_string@?1??type_case_Z@?$output_processor@_WV?$string_output_adapter@_W@__crt_stdio_output@@V?$format_validation_base@_WV?$string_output_adapter@_W@__crt_stdio_output@@@2@@1@AAE_NXZ@@Z 10048090 f i libucrtd:output.obj
 0001:000470c0       ??$extract_argument_from_va_list@PAUansi_string@?1??type_case_Z@?$output_processor@_WV?$string_output_adapter@_W@__crt_stdio_output@@V?$positional_parameter_base@_WV?$string_output_adapter@_W@__crt_stdio_output@@@2@@__crt_stdio_output@@AAE_NXZ@PAU1?1??234@AAE_NXZ@@?$positional_parameter_base@_WV?$string_output_adapter@_W@__crt_stdio_output@@@__crt_stdio_output@@IAE_NAAPAUansi_string@?1??type_case_Z@?$output_processor@_WV?$string_output_adapter@_W@__crt_stdio_output@@V?$positional_parameter_base@_WV?$string_output_adapter@_W@__crt_stdio_output@@@2@@1@AAE_NXZ@@Z 100480c0 f i libucrtd:output.obj
 0001:000471f0       ??$extract_argument_from_va_list@PAUansi_string@?1??type_case_Z@?$output_processor@_WV?$string_output_adapter@_W@__crt_stdio_output@@V?$positional_parameter_base@_WV?$string_output_adapter@_W@__crt_stdio_output@@@2@@__crt_stdio_output@@AAE_NXZ@PAU1?1??234@AAE_NXZ@@?$standard_base@_WV?$string_output_adapter@_W@__crt_stdio_output@@@__crt_stdio_output@@IAE_NAAPAUansi_string@?1??type_case_Z@?$output_processor@_WV?$string_output_adapter@_W@__crt_stdio_output@@V?$positional_parameter_base@_WV?$string_output_adapter@_W@__crt_stdio_output@@@2@@1@AAE_NXZ@@Z 100481f0 f i libucrtd:output.obj
 0001:00047220       ??$extract_argument_from_va_list@PAUansi_string@?1??type_case_Z@?$output_processor@_WV?$string_output_adapter@_W@__crt_stdio_output@@V?$standard_base@_WV?$string_output_adapter@_W@__crt_stdio_output@@@2@@__crt_stdio_output@@AAE_NXZ@PAU1?1??234@AAE_NXZ@@?$standard_base@_WV?$string_output_adapter@_W@__crt_stdio_output@@@__crt_stdio_output@@IAE_NAAPAUansi_string@?1??type_case_Z@?$output_processor@_WV?$string_output_adapter@_W@__crt_stdio_output@@V?$standard_base@_WV?$string_output_adapter@_W@__crt_stdio_output@@@2@@1@AAE_NXZ@@Z 10048220 f i libucrtd:output.obj
 0001:00047250       ??$extract_argument_from_va_list@PAXPAX@?$positional_parameter_base@DV?$stream_output_adapter@D@__crt_stdio_output@@@__crt_stdio_output@@IAE_NAAPAX@Z 10048250 f i libucrtd:output.obj
 0001:00047380       ??$extract_argument_from_va_list@PAXPAX@?$positional_parameter_base@DV?$string_output_adapter@D@__crt_stdio_output@@@__crt_stdio_output@@IAE_NAAPAX@Z 10048380 f i libucrtd:output.obj
 0001:000474b0       ??$extract_argument_from_va_list@PAXPAX@?$positional_parameter_base@_WV?$stream_output_adapter@_W@__crt_stdio_output@@@__crt_stdio_output@@IAE_NAAPAX@Z 100484b0 f i libucrtd:output.obj
 0001:000475e0       ??$extract_argument_from_va_list@PAXPAX@?$positional_parameter_base@_WV?$string_output_adapter@_W@__crt_stdio_output@@@__crt_stdio_output@@IAE_NAAPAX@Z 100485e0 f i libucrtd:output.obj
 0001:00047710       ??$extract_argument_from_va_list@PAXPAX@?$standard_base@DV?$stream_output_adapter@D@__crt_stdio_output@@@__crt_stdio_output@@IAE_NAAPAX@Z 10048710 f i libucrtd:output.obj
 0001:00047740       ??$extract_argument_from_va_list@PAXPAX@?$standard_base@DV?$string_output_adapter@D@__crt_stdio_output@@@__crt_stdio_output@@IAE_NAAPAX@Z 10048740 f i libucrtd:output.obj
 0001:00047770       ??$extract_argument_from_va_list@PAXPAX@?$standard_base@_WV?$stream_output_adapter@_W@__crt_stdio_output@@@__crt_stdio_output@@IAE_NAAPAX@Z 10048770 f i libucrtd:output.obj
 0001:000477a0       ??$extract_argument_from_va_list@PAXPAX@?$standard_base@_WV?$string_output_adapter@_W@__crt_stdio_output@@@__crt_stdio_output@@IAE_NAAPAX@Z 100487a0 f i libucrtd:output.obj
 0001:000477d0       ??$extract_argument_from_va_list@U_CRT_DOUBLE@@U1@@?$positional_parameter_base@DV?$stream_output_adapter@D@__crt_stdio_output@@@__crt_stdio_output@@IAE_NAAU_CRT_DOUBLE@@@Z 100487d0 f i libucrtd:output.obj
 0001:00047930       ??$extract_argument_from_va_list@U_CRT_DOUBLE@@U1@@?$positional_parameter_base@DV?$string_output_adapter@D@__crt_stdio_output@@@__crt_stdio_output@@IAE_NAAU_CRT_DOUBLE@@@Z 10048930 f i libucrtd:output.obj
 0001:00047a90       ??$extract_argument_from_va_list@U_CRT_DOUBLE@@U1@@?$positional_parameter_base@_WV?$stream_output_adapter@_W@__crt_stdio_output@@@__crt_stdio_output@@IAE_NAAU_CRT_DOUBLE@@@Z 10048a90 f i libucrtd:output.obj
 0001:00047bf0       ??$extract_argument_from_va_list@U_CRT_DOUBLE@@U1@@?$positional_parameter_base@_WV?$string_output_adapter@_W@__crt_stdio_output@@@__crt_stdio_output@@IAE_NAAU_CRT_DOUBLE@@@Z 10048bf0 f i libucrtd:output.obj
 0001:00047d50       ??$extract_argument_from_va_list@U_CRT_DOUBLE@@U1@@?$standard_base@DV?$stream_output_adapter@D@__crt_stdio_output@@@__crt_stdio_output@@IAE_NAAU_CRT_DOUBLE@@@Z 10048d50 f i libucrtd:output.obj
 0001:00047da0       ??$extract_argument_from_va_list@U_CRT_DOUBLE@@U1@@?$standard_base@DV?$string_output_adapter@D@__crt_stdio_output@@@__crt_stdio_output@@IAE_NAAU_CRT_DOUBLE@@@Z 10048da0 f i libucrtd:output.obj
 0001:00047df0       ??$extract_argument_from_va_list@U_CRT_DOUBLE@@U1@@?$standard_base@_WV?$stream_output_adapter@_W@__crt_stdio_output@@@__crt_stdio_output@@IAE_NAAU_CRT_DOUBLE@@@Z 10048df0 f i libucrtd:output.obj
 0001:00047e40       ??$extract_argument_from_va_list@U_CRT_DOUBLE@@U1@@?$standard_base@_WV?$string_output_adapter@_W@__crt_stdio_output@@@__crt_stdio_output@@IAE_NAAU_CRT_DOUBLE@@@Z 10048e40 f i libucrtd:output.obj
 0001:00047e90       ??$extract_argument_from_va_list@_J_J@?$positional_parameter_base@DV?$stream_output_adapter@D@__crt_stdio_output@@@__crt_stdio_output@@IAE_NAA_J@Z 10048e90 f i libucrtd:output.obj
 0001:00047fc0       ??$extract_argument_from_va_list@_J_J@?$positional_parameter_base@DV?$string_output_adapter@D@__crt_stdio_output@@@__crt_stdio_output@@IAE_NAA_J@Z 10048fc0 f i libucrtd:output.obj
 0001:000480f0       ??$extract_argument_from_va_list@_J_J@?$positional_parameter_base@_WV?$stream_output_adapter@_W@__crt_stdio_output@@@__crt_stdio_output@@IAE_NAA_J@Z 100490f0 f i libucrtd:output.obj
 0001:00048220       ??$extract_argument_from_va_list@_J_J@?$positional_parameter_base@_WV?$string_output_adapter@_W@__crt_stdio_output@@@__crt_stdio_output@@IAE_NAA_J@Z 10049220 f i libucrtd:output.obj
 0001:00048350       ??$extract_argument_from_va_list@_J_J@?$standard_base@DV?$stream_output_adapter@D@__crt_stdio_output@@@__crt_stdio_output@@IAE_NAA_J@Z 10049350 f i libucrtd:output.obj
 0001:00048380       ??$extract_argument_from_va_list@_J_J@?$standard_base@DV?$string_output_adapter@D@__crt_stdio_output@@@__crt_stdio_output@@IAE_NAA_J@Z 10049380 f i libucrtd:output.obj
 0001:000483b0       ??$extract_argument_from_va_list@_J_J@?$standard_base@_WV?$stream_output_adapter@_W@__crt_stdio_output@@@__crt_stdio_output@@IAE_NAA_J@Z 100493b0 f i libucrtd:output.obj
 0001:000483e0       ??$extract_argument_from_va_list@_J_J@?$standard_base@_WV?$string_output_adapter@_W@__crt_stdio_output@@@__crt_stdio_output@@IAE_NAA_J@Z 100493e0 f i libucrtd:output.obj
 0001:00048410       ??$extract_argument_from_va_list@_K_J@?$positional_parameter_base@DV?$stream_output_adapter@D@__crt_stdio_output@@@__crt_stdio_output@@IAE_NAA_J@Z 10049410 f i libucrtd:output.obj
 0001:00048540       ??$extract_argument_from_va_list@_K_J@?$positional_parameter_base@DV?$string_output_adapter@D@__crt_stdio_output@@@__crt_stdio_output@@IAE_NAA_J@Z 10049540 f i libucrtd:output.obj
 0001:00048670       ??$extract_argument_from_va_list@_K_J@?$positional_parameter_base@_WV?$stream_output_adapter@_W@__crt_stdio_output@@@__crt_stdio_output@@IAE_NAA_J@Z 10049670 f i libucrtd:output.obj
 0001:000487a0       ??$extract_argument_from_va_list@_K_J@?$positional_parameter_base@_WV?$string_output_adapter@_W@__crt_stdio_output@@@__crt_stdio_output@@IAE_NAA_J@Z 100497a0 f i libucrtd:output.obj
 0001:000488d0       ??$extract_argument_from_va_list@_K_J@?$standard_base@DV?$stream_output_adapter@D@__crt_stdio_output@@@__crt_stdio_output@@IAE_NAA_J@Z 100498d0 f i libucrtd:output.obj
 0001:00048900       ??$extract_argument_from_va_list@_K_J@?$standard_base@DV?$string_output_adapter@D@__crt_stdio_output@@@__crt_stdio_output@@IAE_NAA_J@Z 10049900 f i libucrtd:output.obj
 0001:00048930       ??$extract_argument_from_va_list@_K_J@?$standard_base@_WV?$stream_output_adapter@_W@__crt_stdio_output@@@__crt_stdio_output@@IAE_NAA_J@Z 10049930 f i libucrtd:output.obj
 0001:00048960       ??$extract_argument_from_va_list@_K_J@?$standard_base@_WV?$string_output_adapter@_W@__crt_stdio_output@@@__crt_stdio_output@@IAE_NAA_J@Z 10049960 f i libucrtd:output.obj
 0001:00048990       ??$extract_argument_from_va_list@_W_W@?$positional_parameter_base@DV?$stream_output_adapter@D@__crt_stdio_output@@@__crt_stdio_output@@IAE_NAA_W@Z 10049990 f i libucrtd:output.obj
 0001:00048ac0       ??$extract_argument_from_va_list@_W_W@?$positional_parameter_base@DV?$string_output_adapter@D@__crt_stdio_output@@@__crt_stdio_output@@IAE_NAA_W@Z 10049ac0 f i libucrtd:output.obj
 0001:00048bf0       ??$extract_argument_from_va_list@_W_W@?$positional_parameter_base@_WV?$stream_output_adapter@_W@__crt_stdio_output@@@__crt_stdio_output@@IAE_NAA_W@Z 10049bf0 f i libucrtd:output.obj
 0001:00048d20       ??$extract_argument_from_va_list@_W_W@?$positional_parameter_base@_WV?$string_output_adapter@_W@__crt_stdio_output@@@__crt_stdio_output@@IAE_NAA_W@Z 10049d20 f i libucrtd:output.obj
 0001:00048e50       ??$extract_argument_from_va_list@_W_W@?$standard_base@DV?$stream_output_adapter@D@__crt_stdio_output@@@__crt_stdio_output@@IAE_NAA_W@Z 10049e50 f i libucrtd:output.obj
 0001:00048e80       ??$extract_argument_from_va_list@_W_W@?$standard_base@DV?$string_output_adapter@D@__crt_stdio_output@@@__crt_stdio_output@@IAE_NAA_W@Z 10049e80 f i libucrtd:output.obj
 0001:00048eb0       ??$extract_argument_from_va_list@_W_W@?$standard_base@_WV?$stream_output_adapter@_W@__crt_stdio_output@@@__crt_stdio_output@@IAE_NAA_W@Z 10049eb0 f i libucrtd:output.obj
 0001:00048ee0       ??$extract_argument_from_va_list@_W_W@?$standard_base@_WV?$string_output_adapter@_W@__crt_stdio_output@@@__crt_stdio_output@@IAE_NAA_W@Z 10049ee0 f i libucrtd:output.obj
 0001:00048f10       ??$get_parameter_type@D@?$positional_parameter_base@DV?$stream_output_adapter@D@__crt_stdio_output@@@__crt_stdio_output@@CA?AW4parameter_type@01@PAD@Z 10049f10 f i libucrtd:output.obj
 0001:00048f20       ??$get_parameter_type@D@?$positional_parameter_base@DV?$string_output_adapter@D@__crt_stdio_output@@@__crt_stdio_output@@CA?AW4parameter_type@01@PAD@Z 10049f20 f i libucrtd:output.obj
 0001:00048f30       ??$get_parameter_type@D@?$positional_parameter_base@_WV?$stream_output_adapter@_W@__crt_stdio_output@@@__crt_stdio_output@@CA?AW4parameter_type@01@PAD@Z 10049f30 f i libucrtd:output.obj
 0001:00048f40       ??$get_parameter_type@D@?$positional_parameter_base@_WV?$string_output_adapter@_W@__crt_stdio_output@@@__crt_stdio_output@@CA?AW4parameter_type@01@PAD@Z 10049f40 f i libucrtd:output.obj
 0001:00048f50       ??$get_parameter_type@Uansi_string@?1??type_case_Z@?$output_processor@DV?$stream_output_adapter@D@__crt_stdio_output@@V?$positional_parameter_base@DV?$stream_output_adapter@D@__crt_stdio_output@@@2@@__crt_stdio_output@@AAE_NXZ@@?$positional_parameter_base@DV?$stream_output_adapter@D@__crt_stdio_output@@@__crt_stdio_output@@CA?AW4parameter_type@01@PAUansi_string@?1??type_case_Z@?$output_processor@DV?$stream_output_adapter@D@__crt_stdio_output@@V?$positional_parameter_base@DV?$stream_output_adapter@D@__crt_stdio_output@@@2@@1@AAE_NXZ@@Z 10049f50 f i libucrtd:output.obj
 0001:00048f60       ??$get_parameter_type@Uansi_string@?1??type_case_Z@?$output_processor@DV?$string_output_adapter@D@__crt_stdio_output@@V?$positional_parameter_base@DV?$string_output_adapter@D@__crt_stdio_output@@@2@@__crt_stdio_output@@AAE_NXZ@@?$positional_parameter_base@DV?$string_output_adapter@D@__crt_stdio_output@@@__crt_stdio_output@@CA?AW4parameter_type@01@PAUansi_string@?1??type_case_Z@?$output_processor@DV?$string_output_adapter@D@__crt_stdio_output@@V?$positional_parameter_base@DV?$string_output_adapter@D@__crt_stdio_output@@@2@@1@AAE_NXZ@@Z 10049f60 f i libucrtd:output.obj
 0001:00048f70       ??$get_parameter_type@Uansi_string@?1??type_case_Z@?$output_processor@_WV?$stream_output_adapter@_W@__crt_stdio_output@@V?$positional_parameter_base@_WV?$stream_output_adapter@_W@__crt_stdio_output@@@2@@__crt_stdio_output@@AAE_NXZ@@?$positional_parameter_base@_WV?$stream_output_adapter@_W@__crt_stdio_output@@@__crt_stdio_output@@CA?AW4parameter_type@01@PAUansi_string@?1??type_case_Z@?$output_processor@_WV?$stream_output_adapter@_W@__crt_stdio_output@@V?$positional_parameter_base@_WV?$stream_output_adapter@_W@__crt_stdio_output@@@2@@1@AAE_NXZ@@Z 10049f70 f i libucrtd:output.obj
 0001:00048f80       ??$get_parameter_type@Uansi_string@?1??type_case_Z@?$output_processor@_WV?$string_output_adapter@_W@__crt_stdio_output@@V?$positional_parameter_base@_WV?$string_output_adapter@_W@__crt_stdio_output@@@2@@__crt_stdio_output@@AAE_NXZ@@?$positional_parameter_base@_WV?$string_output_adapter@_W@__crt_stdio_output@@@__crt_stdio_output@@CA?AW4parameter_type@01@PAUansi_string@?1??type_case_Z@?$output_processor@_WV?$string_output_adapter@_W@__crt_stdio_output@@V?$positional_parameter_base@_WV?$string_output_adapter@_W@__crt_stdio_output@@@2@@1@AAE_NXZ@@Z 10049f80 f i libucrtd:output.obj
 0001:00048f90       ??$get_parameter_type@X@?$positional_parameter_base@DV?$stream_output_adapter@D@__crt_stdio_output@@@__crt_stdio_output@@CA?AW4parameter_type@01@PAX@Z 10049f90 f i libucrtd:output.obj
 0001:00048fa0       ??$get_parameter_type@X@?$positional_parameter_base@DV?$string_output_adapter@D@__crt_stdio_output@@@__crt_stdio_output@@CA?AW4parameter_type@01@PAX@Z 10049fa0 f i libucrtd:output.obj
 0001:00048fb0       ??$get_parameter_type@X@?$positional_parameter_base@_WV?$stream_output_adapter@_W@__crt_stdio_output@@@__crt_stdio_output@@CA?AW4parameter_type@01@PAX@Z 10049fb0 f i libucrtd:output.obj
 0001:00048fc0       ??$get_parameter_type@X@?$positional_parameter_base@_WV?$string_output_adapter@_W@__crt_stdio_output@@@__crt_stdio_output@@CA?AW4parameter_type@01@PAX@Z 10049fc0 f i libucrtd:output.obj
 0001:00048fd0       ??$is_character_specifier@D@?$positional_parameter_base@DV?$stream_output_adapter@D@__crt_stdio_output@@@__crt_stdio_output@@CA_ND@Z 10049fd0 f i libucrtd:output.obj
 0001:00049000       ??$is_character_specifier@D@?$positional_parameter_base@DV?$string_output_adapter@D@__crt_stdio_output@@@__crt_stdio_output@@CA_ND@Z 1004a000 f i libucrtd:output.obj
 0001:00049030       ??$is_character_specifier@_W@?$positional_parameter_base@_WV?$stream_output_adapter@_W@__crt_stdio_output@@@__crt_stdio_output@@CA_N_W@Z 1004a030 f i libucrtd:output.obj
 0001:00049060       ??$is_character_specifier@_W@?$positional_parameter_base@_WV?$string_output_adapter@_W@__crt_stdio_output@@@__crt_stdio_output@@CA_N_W@Z 1004a060 f i libucrtd:output.obj
 0001:00049090       ??$is_integral_specifier@D@?$positional_parameter_base@DV?$stream_output_adapter@D@__crt_stdio_output@@@__crt_stdio_output@@CA_ND@Z 1004a090 f i libucrtd:output.obj
 0001:000490f0       ??$is_integral_specifier@D@?$positional_parameter_base@DV?$string_output_adapter@D@__crt_stdio_output@@@__crt_stdio_output@@CA_ND@Z 1004a0f0 f i libucrtd:output.obj
 0001:00049150       ??$is_integral_specifier@_W@?$positional_parameter_base@_WV?$stream_output_adapter@_W@__crt_stdio_output@@@__crt_stdio_output@@CA_N_W@Z 1004a150 f i libucrtd:output.obj
 0001:000491b0       ??$is_integral_specifier@_W@?$positional_parameter_base@_WV?$string_output_adapter@_W@__crt_stdio_output@@@__crt_stdio_output@@CA_N_W@Z 1004a1b0 f i libucrtd:output.obj
 0001:00049210       ??$is_pointer_specifier@D@?$positional_parameter_base@DV?$stream_output_adapter@D@__crt_stdio_output@@@__crt_stdio_output@@CA_ND@Z 1004a210 f i libucrtd:output.obj
 0001:00049240       ??$is_pointer_specifier@D@?$positional_parameter_base@DV?$string_output_adapter@D@__crt_stdio_output@@@__crt_stdio_output@@CA_ND@Z 1004a240 f i libucrtd:output.obj
 0001:00049270       ??$is_pointer_specifier@_W@?$positional_parameter_base@_WV?$stream_output_adapter@_W@__crt_stdio_output@@@__crt_stdio_output@@CA_N_W@Z 1004a270 f i libucrtd:output.obj
 0001:000492a0       ??$is_pointer_specifier@_W@?$positional_parameter_base@_WV?$string_output_adapter@_W@__crt_stdio_output@@@__crt_stdio_output@@CA_N_W@Z 1004a2a0 f i libucrtd:output.obj
 0001:000492d0       ??$is_string_specifier@D@?$positional_parameter_base@DV?$stream_output_adapter@D@__crt_stdio_output@@@__crt_stdio_output@@CA_ND@Z 1004a2d0 f i libucrtd:output.obj
 0001:00049300       ??$is_string_specifier@D@?$positional_parameter_base@DV?$string_output_adapter@D@__crt_stdio_output@@@__crt_stdio_output@@CA_ND@Z 1004a300 f i libucrtd:output.obj
 0001:00049330       ??$is_string_specifier@_W@?$positional_parameter_base@_WV?$stream_output_adapter@_W@__crt_stdio_output@@@__crt_stdio_output@@CA_N_W@Z 1004a330 f i libucrtd:output.obj
 0001:00049360       ??$is_string_specifier@_W@?$positional_parameter_base@_WV?$string_output_adapter@_W@__crt_stdio_output@@@__crt_stdio_output@@CA_N_W@Z 1004a360 f i libucrtd:output.obj
 0001:00049390       ??$is_wide_character_specifier@D@__crt_stdio_output@@YA_N_KDW4length_modifier@0@@Z 1004a390 f i libucrtd:output.obj
 0001:00049410       ??$is_wide_character_specifier@_W@__crt_stdio_output@@YA_N_K_WW4length_modifier@0@@Z 1004a410 f i libucrtd:output.obj
 0001:000494d0       ??$peek_va_arg@C@__crt_stdio_output@@YACPAD@Z 1004a4d0 f i libucrtd:output.obj
 0001:000494f0       ??$peek_va_arg@E@__crt_stdio_output@@YAEPAD@Z 1004a4f0 f i libucrtd:output.obj
 0001:00049510       ??$peek_va_arg@F@__crt_stdio_output@@YAFPAD@Z 1004a510 f i libucrtd:output.obj
 0001:00049530       ??$peek_va_arg@G@__crt_stdio_output@@YAGPAD@Z 1004a530 f i libucrtd:output.obj
 0001:00049550       ??$peek_va_arg@H@__crt_stdio_output@@YAHPAD@Z 1004a550 f i libucrtd:output.obj
 0001:00049570       ??$peek_va_arg@I@__crt_stdio_output@@YAIPAD@Z 1004a570 f i libucrtd:output.obj
 0001:00049590       ??$peek_va_arg@PAD@__crt_stdio_output@@YAPADPAD@Z 1004a590 f i libucrtd:output.obj
 0001:000495b0       ??$peek_va_arg@PAUansi_string@?1??type_case_Z@?$output_processor@DV?$stream_output_adapter@D@__crt_stdio_output@@V?$positional_parameter_base@DV?$stream_output_adapter@D@__crt_stdio_output@@@2@@__crt_stdio_output@@AAE_NXZ@@__crt_stdio_output@@YAPAUansi_string@?1??type_case_Z@?$output_processor@DV?$stream_output_adapter@D@__crt_stdio_output@@V?$positional_parameter_base@DV?$stream_output_adapter@D@__crt_stdio_output@@@2@@0@AAE_NXZ@PAD@Z 1004a5b0 f i libucrtd:output.obj
 0001:000495d0       ??$peek_va_arg@PAUansi_string@?1??type_case_Z@?$output_processor@DV?$string_output_adapter@D@__crt_stdio_output@@V?$positional_parameter_base@DV?$string_output_adapter@D@__crt_stdio_output@@@2@@__crt_stdio_output@@AAE_NXZ@@__crt_stdio_output@@YAPAUansi_string@?1??type_case_Z@?$output_processor@DV?$string_output_adapter@D@__crt_stdio_output@@V?$positional_parameter_base@DV?$string_output_adapter@D@__crt_stdio_output@@@2@@0@AAE_NXZ@PAD@Z 1004a5d0 f i libucrtd:output.obj
 0001:000495f0       ??$peek_va_arg@PAUansi_string@?1??type_case_Z@?$output_processor@_WV?$stream_output_adapter@_W@__crt_stdio_output@@V?$positional_parameter_base@_WV?$stream_output_adapter@_W@__crt_stdio_output@@@2@@__crt_stdio_output@@AAE_NXZ@@__crt_stdio_output@@YAPAUansi_string@?1??type_case_Z@?$output_processor@_WV?$stream_output_adapter@_W@__crt_stdio_output@@V?$positional_parameter_base@_WV?$stream_output_adapter@_W@__crt_stdio_output@@@2@@0@AAE_NXZ@PAD@Z 1004a5f0 f i libucrtd:output.obj
 0001:00049610       ??$peek_va_arg@PAUansi_string@?1??type_case_Z@?$output_processor@_WV?$string_output_adapter@_W@__crt_stdio_output@@V?$positional_parameter_base@_WV?$string_output_adapter@_W@__crt_stdio_output@@@2@@__crt_stdio_output@@AAE_NXZ@@__crt_stdio_output@@YAPAUansi_string@?1??type_case_Z@?$output_processor@_WV?$string_output_adapter@_W@__crt_stdio_output@@V?$positional_parameter_base@_WV?$string_output_adapter@_W@__crt_stdio_output@@@2@@0@AAE_NXZ@PAD@Z 1004a610 f i libucrtd:output.obj
 0001:00049630       ??$peek_va_arg@PAX@__crt_stdio_output@@YAPAXPAD@Z 1004a630 f i libucrtd:output.obj
 0001:00049650       ??$peek_va_arg@U_CRT_DOUBLE@@@__crt_stdio_output@@YA?AU_CRT_DOUBLE@@PAD@Z 1004a650 f i libucrtd:output.obj
 0001:00049670       ??$peek_va_arg@_J@__crt_stdio_output@@YA_JPAD@Z 1004a670 f i libucrtd:output.obj
 0001:00049690       ??$peek_va_arg@_K@__crt_stdio_output@@YA_KPAD@Z 1004a690 f i libucrtd:output.obj
 0001:000496b0       ??$peek_va_arg@_W@__crt_stdio_output@@YA_WPAD@Z 1004a6b0 f i libucrtd:output.obj
 0001:000496d0       ??$puttc_nolock@ABDPAU_iobuf@@@?$__crt_char_traits@D@@SAHABD$$QAPAU_iobuf@@@Z 1004a6d0 f i libucrtd:output.obj
 0001:000496f0       ??$puttc_nolock@AB_WPAU_iobuf@@@?$__crt_char_traits@_W@@SAGAB_W$$QAPAU_iobuf@@@Z 1004a6f0 f i libucrtd:output.obj
 0001:00049710       ??$read_va_arg@C@__crt_stdio_output@@YACAAPAD@Z 1004a710 f i libucrtd:output.obj
 0001:00049730       ??$read_va_arg@E@__crt_stdio_output@@YAEAAPAD@Z 1004a730 f i libucrtd:output.obj
 0001:00049750       ??$read_va_arg@F@__crt_stdio_output@@YAFAAPAD@Z 1004a750 f i libucrtd:output.obj
 0001:00049770       ??$read_va_arg@G@__crt_stdio_output@@YAGAAPAD@Z 1004a770 f i libucrtd:output.obj
 0001:00049790       ??$read_va_arg@H@__crt_stdio_output@@YAHAAPAD@Z 1004a790 f i libucrtd:output.obj
 0001:000497b0       ??$read_va_arg@I@__crt_stdio_output@@YAIAAPAD@Z 1004a7b0 f i libucrtd:output.obj
 0001:000497d0       ??$read_va_arg@PAD@__crt_stdio_output@@YAPADAAPAD@Z 1004a7d0 f i libucrtd:output.obj
 0001:000497f0       ??$read_va_arg@PAUansi_string@?1??type_case_Z@?$output_processor@DV?$stream_output_adapter@D@__crt_stdio_output@@V?$format_validation_base@DV?$stream_output_adapter@D@__crt_stdio_output@@@2@@__crt_stdio_output@@AAE_NXZ@@__crt_stdio_output@@YAPAUansi_string@?1??type_case_Z@?$output_processor@DV?$stream_output_adapter@D@__crt_stdio_output@@V?$format_validation_base@DV?$stream_output_adapter@D@__crt_stdio_output@@@2@@0@AAE_NXZ@AAPAD@Z 1004a7f0 f i libucrtd:output.obj
 0001:00049810       ??$read_va_arg@PAUansi_string@?1??type_case_Z@?$output_processor@DV?$stream_output_adapter@D@__crt_stdio_output@@V?$positional_parameter_base@DV?$stream_output_adapter@D@__crt_stdio_output@@@2@@__crt_stdio_output@@AAE_NXZ@@__crt_stdio_output@@YAPAUansi_string@?1??type_case_Z@?$output_processor@DV?$stream_output_adapter@D@__crt_stdio_output@@V?$positional_parameter_base@DV?$stream_output_adapter@D@__crt_stdio_output@@@2@@0@AAE_NXZ@AAPAD@Z 1004a810 f i libucrtd:output.obj
 0001:00049830       ??$read_va_arg@PAUansi_string@?1??type_case_Z@?$output_processor@DV?$stream_output_adapter@D@__crt_stdio_output@@V?$standard_base@DV?$stream_output_adapter@D@__crt_stdio_output@@@2@@__crt_stdio_output@@AAE_NXZ@@__crt_stdio_output@@YAPAUansi_string@?1??type_case_Z@?$output_processor@DV?$stream_output_adapter@D@__crt_stdio_output@@V?$standard_base@DV?$stream_output_adapter@D@__crt_stdio_output@@@2@@0@AAE_NXZ@AAPAD@Z 1004a830 f i libucrtd:output.obj
 0001:00049850       ??$read_va_arg@PAUansi_string@?1??type_case_Z@?$output_processor@DV?$string_output_adapter@D@__crt_stdio_output@@V?$format_validation_base@DV?$string_output_adapter@D@__crt_stdio_output@@@2@@__crt_stdio_output@@AAE_NXZ@@__crt_stdio_output@@YAPAUansi_string@?1??type_case_Z@?$output_processor@DV?$string_output_adapter@D@__crt_stdio_output@@V?$format_validation_base@DV?$string_output_adapter@D@__crt_stdio_output@@@2@@0@AAE_NXZ@AAPAD@Z 1004a850 f i libucrtd:output.obj
 0001:00049870       ??$read_va_arg@PAUansi_string@?1??type_case_Z@?$output_processor@DV?$string_output_adapter@D@__crt_stdio_output@@V?$positional_parameter_base@DV?$string_output_adapter@D@__crt_stdio_output@@@2@@__crt_stdio_output@@AAE_NXZ@@__crt_stdio_output@@YAPAUansi_string@?1??type_case_Z@?$output_processor@DV?$string_output_adapter@D@__crt_stdio_output@@V?$positional_parameter_base@DV?$string_output_adapter@D@__crt_stdio_output@@@2@@0@AAE_NXZ@AAPAD@Z 1004a870 f i libucrtd:output.obj
 0001:00049890       ??$read_va_arg@PAUansi_string@?1??type_case_Z@?$output_processor@DV?$string_output_adapter@D@__crt_stdio_output@@V?$standard_base@DV?$string_output_adapter@D@__crt_stdio_output@@@2@@__crt_stdio_output@@AAE_NXZ@@__crt_stdio_output@@YAPAUansi_string@?1??type_case_Z@?$output_processor@DV?$string_output_adapter@D@__crt_stdio_output@@V?$standard_base@DV?$string_output_adapter@D@__crt_stdio_output@@@2@@0@AAE_NXZ@AAPAD@Z 1004a890 f i libucrtd:output.obj
 0001:000498b0       ??$read_va_arg@PAUansi_string@?1??type_case_Z@?$output_processor@_WV?$stream_output_adapter@_W@__crt_stdio_output@@V?$format_validation_base@_WV?$stream_output_adapter@_W@__crt_stdio_output@@@2@@__crt_stdio_output@@AAE_NXZ@@__crt_stdio_output@@YAPAUansi_string@?1??type_case_Z@?$output_processor@_WV?$stream_output_adapter@_W@__crt_stdio_output@@V?$format_validation_base@_WV?$stream_output_adapter@_W@__crt_stdio_output@@@2@@0@AAE_NXZ@AAPAD@Z 1004a8b0 f i libucrtd:output.obj
 0001:000498d0       ??$read_va_arg@PAUansi_string@?1??type_case_Z@?$output_processor@_WV?$stream_output_adapter@_W@__crt_stdio_output@@V?$positional_parameter_base@_WV?$stream_output_adapter@_W@__crt_stdio_output@@@2@@__crt_stdio_output@@AAE_NXZ@@__crt_stdio_output@@YAPAUansi_string@?1??type_case_Z@?$output_processor@_WV?$stream_output_adapter@_W@__crt_stdio_output@@V?$positional_parameter_base@_WV?$stream_output_adapter@_W@__crt_stdio_output@@@2@@0@AAE_NXZ@AAPAD@Z 1004a8d0 f i libucrtd:output.obj
 0001:000498f0       ??$read_va_arg@PAUansi_string@?1??type_case_Z@?$output_processor@_WV?$stream_output_adapter@_W@__crt_stdio_output@@V?$standard_base@_WV?$stream_output_adapter@_W@__crt_stdio_output@@@2@@__crt_stdio_output@@AAE_NXZ@@__crt_stdio_output@@YAPAUansi_string@?1??type_case_Z@?$output_processor@_WV?$stream_output_adapter@_W@__crt_stdio_output@@V?$standard_base@_WV?$stream_output_adapter@_W@__crt_stdio_output@@@2@@0@AAE_NXZ@AAPAD@Z 1004a8f0 f i libucrtd:output.obj
 0001:00049910       ??$read_va_arg@PAUansi_string@?1??type_case_Z@?$output_processor@_WV?$string_output_adapter@_W@__crt_stdio_output@@V?$format_validation_base@_WV?$string_output_adapter@_W@__crt_stdio_output@@@2@@__crt_stdio_output@@AAE_NXZ@@__crt_stdio_output@@YAPAUansi_string@?1??type_case_Z@?$output_processor@_WV?$string_output_adapter@_W@__crt_stdio_output@@V?$format_validation_base@_WV?$string_output_adapter@_W@__crt_stdio_output@@@2@@0@AAE_NXZ@AAPAD@Z 1004a910 f i libucrtd:output.obj
 0001:00049930       ??$read_va_arg@PAUansi_string@?1??type_case_Z@?$output_processor@_WV?$string_output_adapter@_W@__crt_stdio_output@@V?$positional_parameter_base@_WV?$string_output_adapter@_W@__crt_stdio_output@@@2@@__crt_stdio_output@@AAE_NXZ@@__crt_stdio_output@@YAPAUansi_string@?1??type_case_Z@?$output_processor@_WV?$string_output_adapter@_W@__crt_stdio_output@@V?$positional_parameter_base@_WV?$string_output_adapter@_W@__crt_stdio_output@@@2@@0@AAE_NXZ@AAPAD@Z 1004a930 f i libucrtd:output.obj
 0001:00049950       ??$read_va_arg@PAUansi_string@?1??type_case_Z@?$output_processor@_WV?$string_output_adapter@_W@__crt_stdio_output@@V?$standard_base@_WV?$string_output_adapter@_W@__crt_stdio_output@@@2@@__crt_stdio_output@@AAE_NXZ@@__crt_stdio_output@@YAPAUansi_string@?1??type_case_Z@?$output_processor@_WV?$string_output_adapter@_W@__crt_stdio_output@@V?$standard_base@_WV?$string_output_adapter@_W@__crt_stdio_output@@@2@@0@AAE_NXZ@AAPAD@Z 1004a950 f i libucrtd:output.obj
 0001:00049970       ??$read_va_arg@PAX@__crt_stdio_output@@YAPAXAAPAD@Z 1004a970 f i libucrtd:output.obj
 0001:00049990       ??$read_va_arg@U_CRT_DOUBLE@@@__crt_stdio_output@@YA?AU_CRT_DOUBLE@@AAPAD@Z 1004a990 f i libucrtd:output.obj
 0001:000499b0       ??$read_va_arg@_J@__crt_stdio_output@@YA_JAAPAD@Z 1004a9b0 f i libucrtd:output.obj
 0001:000499d0       ??$read_va_arg@_K@__crt_stdio_output@@YA_KAAPAD@Z 1004a9d0 f i libucrtd:output.obj
 0001:000499f0       ??$read_va_arg@_W@__crt_stdio_output@@YA_WAAPAD@Z 1004a9f0 f i libucrtd:output.obj
 0001:00049a10       ??$scratch_count@D@formatting_buffer@__crt_stdio_output@@QBEIXZ 1004aa10 f i libucrtd:output.obj
 0001:00049a30       ??$scratch_data@D@formatting_buffer@__crt_stdio_output@@QAEPADXZ 1004aa30 f i libucrtd:output.obj
 0001:00049a80       ??$tcstol@AAPBDPAPADH@?$__crt_char_traits@D@@SAJAAPBD$$QAPAPAD$$QAH@Z 1004aa80 f i libucrtd:output.obj
 0001:00049ab0       ??$tcstol@AAPB_WPAPA_WH@?$__crt_char_traits@_W@@SAJAAPB_W$$QAPAPA_W$$QAH@Z 1004aab0 f i libucrtd:output.obj
 0001:00049ae0       ??$tcstol@PBDPAPADH@?$__crt_char_traits@D@@SAJ$$QAPBD$$QAPAPAD$$QAH@Z 1004aae0 f i libucrtd:output.obj
 0001:00049b10       ??$tcstol@PB_WPAPA_WH@?$__crt_char_traits@_W@@SAJ$$QAPB_W$$QAPAPA_W$$QAH@Z 1004ab10 f i libucrtd:output.obj
 0001:00049b40       ??$type_case_integer_parse_into_buffer@I@?$output_processor@DV?$stream_output_adapter@D@__crt_stdio_output@@V?$format_validation_base@DV?$stream_output_adapter@D@__crt_stdio_output@@@2@@__crt_stdio_output@@AAEXII_N@Z 1004ab40 f i libucrtd:output.obj
 0001:00049c10       ??$type_case_integer_parse_into_buffer@I@?$output_processor@DV?$stream_output_adapter@D@__crt_stdio_output@@V?$positional_parameter_base@DV?$stream_output_adapter@D@__crt_stdio_output@@@2@@__crt_stdio_output@@AAEXII_N@Z 1004ac10 f i libucrtd:output.obj
 0001:00049ce0       ??$type_case_integer_parse_into_buffer@I@?$output_processor@DV?$stream_output_adapter@D@__crt_stdio_output@@V?$standard_base@DV?$stream_output_adapter@D@__crt_stdio_output@@@2@@__crt_stdio_output@@AAEXII_N@Z 1004ace0 f i libucrtd:output.obj
 0001:00049db0       ??$type_case_integer_parse_into_buffer@I@?$output_processor@DV?$string_output_adapter@D@__crt_stdio_output@@V?$format_validation_base@DV?$string_output_adapter@D@__crt_stdio_output@@@2@@__crt_stdio_output@@AAEXII_N@Z 1004adb0 f i libucrtd:output.obj
 0001:00049e80       ??$type_case_integer_parse_into_buffer@I@?$output_processor@DV?$string_output_adapter@D@__crt_stdio_output@@V?$positional_parameter_base@DV?$string_output_adapter@D@__crt_stdio_output@@@2@@__crt_stdio_output@@AAEXII_N@Z 1004ae80 f i libucrtd:output.obj
 0001:00049f50       ??$type_case_integer_parse_into_buffer@I@?$output_processor@DV?$string_output_adapter@D@__crt_stdio_output@@V?$standard_base@DV?$string_output_adapter@D@__crt_stdio_output@@@2@@__crt_stdio_output@@AAEXII_N@Z 1004af50 f i libucrtd:output.obj
 0001:0004a020       ??$type_case_integer_parse_into_buffer@I@?$output_processor@_WV?$stream_output_adapter@_W@__crt_stdio_output@@V?$format_validation_base@_WV?$stream_output_adapter@_W@__crt_stdio_output@@@2@@__crt_stdio_output@@AAEXII_N@Z 1004b020 f i libucrtd:output.obj
 0001:0004a100       ??$type_case_integer_parse_into_buffer@I@?$output_processor@_WV?$stream_output_adapter@_W@__crt_stdio_output@@V?$positional_parameter_base@_WV?$stream_output_adapter@_W@__crt_stdio_output@@@2@@__crt_stdio_output@@AAEXII_N@Z 1004b100 f i libucrtd:output.obj
 0001:0004a1e0       ??$type_case_integer_parse_into_buffer@I@?$output_processor@_WV?$stream_output_adapter@_W@__crt_stdio_output@@V?$standard_base@_WV?$stream_output_adapter@_W@__crt_stdio_output@@@2@@__crt_stdio_output@@AAEXII_N@Z 1004b1e0 f i libucrtd:output.obj
 0001:0004a2c0       ??$type_case_integer_parse_into_buffer@I@?$output_processor@_WV?$string_output_adapter@_W@__crt_stdio_output@@V?$format_validation_base@_WV?$string_output_adapter@_W@__crt_stdio_output@@@2@@__crt_stdio_output@@AAEXII_N@Z 1004b2c0 f i libucrtd:output.obj
 0001:0004a3a0       ??$type_case_integer_parse_into_buffer@I@?$output_processor@_WV?$string_output_adapter@_W@__crt_stdio_output@@V?$positional_parameter_base@_WV?$string_output_adapter@_W@__crt_stdio_output@@@2@@__crt_stdio_output@@AAEXII_N@Z 1004b3a0 f i libucrtd:output.obj
 0001:0004a480       ??$type_case_integer_parse_into_buffer@I@?$output_processor@_WV?$string_output_adapter@_W@__crt_stdio_output@@V?$standard_base@_WV?$string_output_adapter@_W@__crt_stdio_output@@@2@@__crt_stdio_output@@AAEXII_N@Z 1004b480 f i libucrtd:output.obj
 0001:0004a560       ??$type_case_integer_parse_into_buffer@_K@?$output_processor@DV?$stream_output_adapter@D@__crt_stdio_output@@V?$format_validation_base@DV?$stream_output_adapter@D@__crt_stdio_output@@@2@@__crt_stdio_output@@AAEX_KI_N@Z 1004b560 f i libucrtd:output.obj
 0001:0004a650       ??$type_case_integer_parse_into_buffer@_K@?$output_processor@DV?$stream_output_adapter@D@__crt_stdio_output@@V?$positional_parameter_base@DV?$stream_output_adapter@D@__crt_stdio_output@@@2@@__crt_stdio_output@@AAEX_KI_N@Z 1004b650 f i libucrtd:output.obj
 0001:0004a740       ??$type_case_integer_parse_into_buffer@_K@?$output_processor@DV?$stream_output_adapter@D@__crt_stdio_output@@V?$standard_base@DV?$stream_output_adapter@D@__crt_stdio_output@@@2@@__crt_stdio_output@@AAEX_KI_N@Z 1004b740 f i libucrtd:output.obj
 0001:0004a830       ??$type_case_integer_parse_into_buffer@_K@?$output_processor@DV?$string_output_adapter@D@__crt_stdio_output@@V?$format_validation_base@DV?$string_output_adapter@D@__crt_stdio_output@@@2@@__crt_stdio_output@@AAEX_KI_N@Z 1004b830 f i libucrtd:output.obj
 0001:0004a920       ??$type_case_integer_parse_into_buffer@_K@?$output_processor@DV?$string_output_adapter@D@__crt_stdio_output@@V?$positional_parameter_base@DV?$string_output_adapter@D@__crt_stdio_output@@@2@@__crt_stdio_output@@AAEX_KI_N@Z 1004b920 f i libucrtd:output.obj
 0001:0004aa10       ??$type_case_integer_parse_into_buffer@_K@?$output_processor@DV?$string_output_adapter@D@__crt_stdio_output@@V?$standard_base@DV?$string_output_adapter@D@__crt_stdio_output@@@2@@__crt_stdio_output@@AAEX_KI_N@Z 1004ba10 f i libucrtd:output.obj
 0001:0004ab00       ??$type_case_integer_parse_into_buffer@_K@?$output_processor@_WV?$stream_output_adapter@_W@__crt_stdio_output@@V?$format_validation_base@_WV?$stream_output_adapter@_W@__crt_stdio_output@@@2@@__crt_stdio_output@@AAEX_KI_N@Z 1004bb00 f i libucrtd:output.obj
 0001:0004ac00       ??$type_case_integer_parse_into_buffer@_K@?$output_processor@_WV?$stream_output_adapter@_W@__crt_stdio_output@@V?$positional_parameter_base@_WV?$stream_output_adapter@_W@__crt_stdio_output@@@2@@__crt_stdio_output@@AAEX_KI_N@Z 1004bc00 f i libucrtd:output.obj
 0001:0004ad00       ??$type_case_integer_parse_into_buffer@_K@?$output_processor@_WV?$stream_output_adapter@_W@__crt_stdio_output@@V?$standard_base@_WV?$stream_output_adapter@_W@__crt_stdio_output@@@2@@__crt_stdio_output@@AAEX_KI_N@Z 1004bd00 f i libucrtd:output.obj
 0001:0004ae00       ??$type_case_integer_parse_into_buffer@_K@?$output_processor@_WV?$string_output_adapter@_W@__crt_stdio_output@@V?$format_validation_base@_WV?$string_output_adapter@_W@__crt_stdio_output@@@2@@__crt_stdio_output@@AAEX_KI_N@Z 1004be00 f i libucrtd:output.obj
 0001:0004af00       ??$type_case_integer_parse_into_buffer@_K@?$output_processor@_WV?$string_output_adapter@_W@__crt_stdio_output@@V?$positional_parameter_base@_WV?$string_output_adapter@_W@__crt_stdio_output@@@2@@__crt_stdio_output@@AAEX_KI_N@Z 1004bf00 f i libucrtd:output.obj
 0001:0004b000       ??$type_case_integer_parse_into_buffer@_K@?$output_processor@_WV?$string_output_adapter@_W@__crt_stdio_output@@V?$standard_base@_WV?$string_output_adapter@_W@__crt_stdio_output@@@2@@__crt_stdio_output@@AAEX_KI_N@Z 1004c000 f i libucrtd:output.obj
 0001:0004b100       ??$write_multiple_characters@V?$stream_output_adapter@D@__crt_stdio_output@@D@__crt_stdio_output@@YAXABV?$stream_output_adapter@D@0@DHQAH@Z 1004c100 f i libucrtd:output.obj
 0001:0004b150       ??$write_multiple_characters@V?$stream_output_adapter@_W@__crt_stdio_output@@D@__crt_stdio_output@@YAXABV?$stream_output_adapter@_W@0@DHQAH@Z 1004c150 f i libucrtd:output.obj
 0001:0004b1a0       ??$write_multiple_characters@V?$string_output_adapter@D@__crt_stdio_output@@D@__crt_stdio_output@@YAXABV?$string_output_adapter@D@0@DHQAH@Z 1004c1a0 f i libucrtd:output.obj
 0001:0004b1f0       ??$write_multiple_characters@V?$string_output_adapter@_W@__crt_stdio_output@@D@__crt_stdio_output@@YAXABV?$string_output_adapter@_W@0@DHQAH@Z 1004c1f0 f i libucrtd:output.obj
 0001:0004b540       ??0?$common_data@D@__crt_stdio_output@@IAE@XZ 1004c540 f i libucrtd:output.obj
 0001:0004b5f0       ??0?$common_data@_W@__crt_stdio_output@@IAE@XZ 1004c5f0 f i libucrtd:output.obj
 0001:0004b6a0       ??0?$output_adapter_data@DV?$stream_output_adapter@D@__crt_stdio_output@@@__crt_stdio_output@@IAE@ABV?$stream_output_adapter@D@1@_KQBDQAU__crt_locale_pointers@@QAD@Z 1004c6a0 f i libucrtd:output.obj
 0001:0004b700       ??0?$output_adapter_data@DV?$string_output_adapter@D@__crt_stdio_output@@@__crt_stdio_output@@IAE@ABV?$string_output_adapter@D@1@_KQBDQAU__crt_locale_pointers@@QAD@Z 1004c700 f i libucrtd:output.obj
 0001:0004b760       ??0?$output_adapter_data@_WV?$stream_output_adapter@_W@__crt_stdio_output@@@__crt_stdio_output@@IAE@ABV?$stream_output_adapter@_W@1@_KQB_WQAU__crt_locale_pointers@@QAD@Z 1004c760 f i libucrtd:output.obj
 0001:0004b7c0       ??0?$output_adapter_data@_WV?$string_output_adapter@_W@__crt_stdio_output@@@__crt_stdio_output@@IAE@ABV?$string_output_adapter@_W@1@_KQB_WQAU__crt_locale_pointers@@QAD@Z 1004c7c0 f i libucrtd:output.obj
 0001:0004b820       ??0?$output_processor@DV?$stream_output_adapter@D@__crt_stdio_output@@V?$format_validation_base@DV?$stream_output_adapter@D@__crt_stdio_output@@@2@@__crt_stdio_output@@QAE@ABV?$stream_output_adapter@D@1@_KQBDQAU__crt_locale_pointers@@QAD@Z 1004c820 f i libucrtd:output.obj
 0001:0004b850       ??0?$output_processor@DV?$stream_output_adapter@D@__crt_stdio_output@@V?$positional_parameter_base@DV?$stream_output_adapter@D@__crt_stdio_output@@@2@@__crt_stdio_output@@QAE@ABV?$stream_output_adapter@D@1@_KQBDQAU__crt_locale_pointers@@QAD@Z 1004c850 f i libucrtd:output.obj
 0001:0004b880       ??0?$output_processor@DV?$stream_output_adapter@D@__crt_stdio_output@@V?$standard_base@DV?$stream_output_adapter@D@__crt_stdio_output@@@2@@__crt_stdio_output@@QAE@ABV?$stream_output_adapter@D@1@_KQBDQAU__crt_locale_pointers@@QAD@Z 1004c880 f i libucrtd:output.obj
 0001:0004b8b0       ??0?$output_processor@DV?$string_output_adapter@D@__crt_stdio_output@@V?$format_validation_base@DV?$string_output_adapter@D@__crt_stdio_output@@@2@@__crt_stdio_output@@QAE@ABV?$string_output_adapter@D@1@_KQBDQAU__crt_locale_pointers@@QAD@Z 1004c8b0 f i libucrtd:output.obj
 0001:0004b8e0       ??0?$output_processor@DV?$string_output_adapter@D@__crt_stdio_output@@V?$positional_parameter_base@DV?$string_output_adapter@D@__crt_stdio_output@@@2@@__crt_stdio_output@@QAE@ABV?$string_output_adapter@D@1@_KQBDQAU__crt_locale_pointers@@QAD@Z 1004c8e0 f i libucrtd:output.obj
 0001:0004b910       ??0?$output_processor@DV?$string_output_adapter@D@__crt_stdio_output@@V?$standard_base@DV?$string_output_adapter@D@__crt_stdio_output@@@2@@__crt_stdio_output@@QAE@ABV?$string_output_adapter@D@1@_KQBDQAU__crt_locale_pointers@@QAD@Z 1004c910 f i libucrtd:output.obj
 0001:0004b940       ??0?$output_processor@_WV?$stream_output_adapter@_W@__crt_stdio_output@@V?$format_validation_base@_WV?$stream_output_adapter@_W@__crt_stdio_output@@@2@@__crt_stdio_output@@QAE@ABV?$stream_output_adapter@_W@1@_KQB_WQAU__crt_locale_pointers@@QAD@Z 1004c940 f i libucrtd:output.obj
 0001:0004b970       ??0?$output_processor@_WV?$stream_output_adapter@_W@__crt_stdio_output@@V?$positional_parameter_base@_WV?$stream_output_adapter@_W@__crt_stdio_output@@@2@@__crt_stdio_output@@QAE@ABV?$stream_output_adapter@_W@1@_KQB_WQAU__crt_locale_pointers@@QAD@Z 1004c970 f i libucrtd:output.obj
 0001:0004b9a0       ??0?$output_processor@_WV?$stream_output_adapter@_W@__crt_stdio_output@@V?$standard_base@_WV?$stream_output_adapter@_W@__crt_stdio_output@@@2@@__crt_stdio_output@@QAE@ABV?$stream_output_adapter@_W@1@_KQB_WQAU__crt_locale_pointers@@QAD@Z 1004c9a0 f i libucrtd:output.obj
 0001:0004b9d0       ??0?$output_processor@_WV?$string_output_adapter@_W@__crt_stdio_output@@V?$format_validation_base@_WV?$string_output_adapter@_W@__crt_stdio_output@@@2@@__crt_stdio_output@@QAE@ABV?$string_output_adapter@_W@1@_KQB_WQAU__crt_locale_pointers@@QAD@Z 1004c9d0 f i libucrtd:output.obj
 0001:0004ba00       ??0?$output_processor@_WV?$string_output_adapter@_W@__crt_stdio_output@@V?$positional_parameter_base@_WV?$string_output_adapter@_W@__crt_stdio_output@@@2@@__crt_stdio_output@@QAE@ABV?$string_output_adapter@_W@1@_KQB_WQAU__crt_locale_pointers@@QAD@Z 1004ca00 f i libucrtd:output.obj
 0001:0004ba30       ??0?$output_processor@_WV?$string_output_adapter@_W@__crt_stdio_output@@V?$standard_base@_WV?$string_output_adapter@_W@__crt_stdio_output@@@2@@__crt_stdio_output@@QAE@ABV?$string_output_adapter@_W@1@_KQB_WQAU__crt_locale_pointers@@QAD@Z 1004ca30 f i libucrtd:output.obj
 0001:0004ba60       ??0?$stream_output_adapter@D@__crt_stdio_output@@QAE@QAU_iobuf@@@Z 1004ca60 f i libucrtd:output.obj
 0001:0004ba80       ??0?$stream_output_adapter@_W@__crt_stdio_output@@QAE@QAU_iobuf@@@Z 1004ca80 f i libucrtd:output.obj
 0001:0004baa0       ??0?$string_output_adapter@D@__crt_stdio_output@@QAE@QAU?$string_output_adapter_context@D@1@@Z 1004caa0 f i libucrtd:output.obj
 0001:0004bac0       ??0?$string_output_adapter@_W@__crt_stdio_output@@QAE@QAU?$string_output_adapter_context@_W@1@@Z 1004cac0 f i libucrtd:output.obj
 0001:0004bae0       ??0_LocaleUpdate@@QAE@QAU__crt_locale_pointers@@@Z 1004cae0 f i libucrtd:output.obj
 0001:0004bbb0       ??0__acrt_stdio_temporary_buffering_guard@@QAE@QAU_iobuf@@@Z 1004cbb0 f i libucrtd:output.obj
 0001:0004bbe0       ??0__crt_deferred_errno_cache@@QAE@XZ 1004cbe0 f i libucrtd:output.obj
 0001:0004bc00       ??0__crt_errno_guard@@QAE@QAH@Z 1004cc00 f i libucrtd:output.obj
 0001:0004bc30       ??0__crt_stdio_stream@@QAE@QAU_iobuf@@@Z 1004cc30 f i libucrtd:output.obj
 0001:0004bc50       ??0formatting_buffer@__crt_stdio_output@@QAE@XZ 1004cc50 f i libucrtd:output.obj
 0001:0004bc80       ??1?$common_data@D@__crt_stdio_output@@QAE@XZ 1004cc80 f i libucrtd:output.obj
 0001:0004bca0       ??1?$common_data@_W@__crt_stdio_output@@QAE@XZ 1004cca0 f i libucrtd:output.obj
 0001:0004bcc0       ??1?$format_validation_base@DV?$stream_output_adapter@D@__crt_stdio_output@@@__crt_stdio_output@@QAE@XZ 1004ccc0 f i libucrtd:output.obj
 0001:0004bce0       ??1?$format_validation_base@DV?$string_output_adapter@D@__crt_stdio_output@@@__crt_stdio_output@@QAE@XZ 1004cce0 f i libucrtd:output.obj
 0001:0004bd00       ??1?$format_validation_base@_WV?$stream_output_adapter@_W@__crt_stdio_output@@@__crt_stdio_output@@QAE@XZ 1004cd00 f i libucrtd:output.obj
 0001:0004bd20       ??1?$format_validation_base@_WV?$string_output_adapter@_W@__crt_stdio_output@@@__crt_stdio_output@@QAE@XZ 1004cd20 f i libucrtd:output.obj
 0001:0004bd40       ??1?$output_adapter_data@DV?$stream_output_adapter@D@__crt_stdio_output@@@__crt_stdio_output@@QAE@XZ 1004cd40 f i libucrtd:output.obj
 0001:0004bd60       ??1?$output_adapter_data@DV?$string_output_adapter@D@__crt_stdio_output@@@__crt_stdio_output@@QAE@XZ 1004cd60 f i libucrtd:output.obj
 0001:0004bd80       ??1?$output_adapter_data@_WV?$stream_output_adapter@_W@__crt_stdio_output@@@__crt_stdio_output@@QAE@XZ 1004cd80 f i libucrtd:output.obj
 0001:0004bda0       ??1?$output_adapter_data@_WV?$string_output_adapter@_W@__crt_stdio_output@@@__crt_stdio_output@@QAE@XZ 1004cda0 f i libucrtd:output.obj
 0001:0004bdc0       ??1?$output_processor@DV?$stream_output_adapter@D@__crt_stdio_output@@V?$format_validation_base@DV?$stream_output_adapter@D@__crt_stdio_output@@@2@@__crt_stdio_output@@QAE@XZ 1004cdc0 f i libucrtd:output.obj
 0001:0004bde0       ??1?$output_processor@DV?$stream_output_adapter@D@__crt_stdio_output@@V?$positional_parameter_base@DV?$stream_output_adapter@D@__crt_stdio_output@@@2@@__crt_stdio_output@@QAE@XZ 1004cde0 f i libucrtd:output.obj
 0001:0004be00       ??1?$output_processor@DV?$stream_output_adapter@D@__crt_stdio_output@@V?$standard_base@DV?$stream_output_adapter@D@__crt_stdio_output@@@2@@__crt_stdio_output@@QAE@XZ 1004ce00 f i libucrtd:output.obj
 0001:0004be20       ??1?$output_processor@DV?$string_output_adapter@D@__crt_stdio_output@@V?$format_validation_base@DV?$string_output_adapter@D@__crt_stdio_output@@@2@@__crt_stdio_output@@QAE@XZ 1004ce20 f i libucrtd:output.obj
 0001:0004be40       ??1?$output_processor@DV?$string_output_adapter@D@__crt_stdio_output@@V?$positional_parameter_base@DV?$string_output_adapter@D@__crt_stdio_output@@@2@@__crt_stdio_output@@QAE@XZ 1004ce40 f i libucrtd:output.obj
 0001:0004be60       ??1?$output_processor@DV?$string_output_adapter@D@__crt_stdio_output@@V?$standard_base@DV?$string_output_adapter@D@__crt_stdio_output@@@2@@__crt_stdio_output@@QAE@XZ 1004ce60 f i libucrtd:output.obj
 0001:0004be80       ??1?$output_processor@_WV?$stream_output_adapter@_W@__crt_stdio_output@@V?$format_validation_base@_WV?$stream_output_adapter@_W@__crt_stdio_output@@@2@@__crt_stdio_output@@QAE@XZ 1004ce80 f i libucrtd:output.obj
 0001:0004bea0       ??1?$output_processor@_WV?$stream_output_adapter@_W@__crt_stdio_output@@V?$positional_parameter_base@_WV?$stream_output_adapter@_W@__crt_stdio_output@@@2@@__crt_stdio_output@@QAE@XZ 1004cea0 f i libucrtd:output.obj
 0001:0004bec0       ??1?$output_processor@_WV?$stream_output_adapter@_W@__crt_stdio_output@@V?$standard_base@_WV?$stream_output_adapter@_W@__crt_stdio_output@@@2@@__crt_stdio_output@@QAE@XZ 1004cec0 f i libucrtd:output.obj
 0001:0004bee0       ??1?$output_processor@_WV?$string_output_adapter@_W@__crt_stdio_output@@V?$format_validation_base@_WV?$string_output_adapter@_W@__crt_stdio_output@@@2@@__crt_stdio_output@@QAE@XZ 1004cee0 f i libucrtd:output.obj
 0001:0004bf00       ??1?$output_processor@_WV?$string_output_adapter@_W@__crt_stdio_output@@V?$positional_parameter_base@_WV?$string_output_adapter@_W@__crt_stdio_output@@@2@@__crt_stdio_output@@QAE@XZ 1004cf00 f i libucrtd:output.obj
 0001:0004bf20       ??1?$output_processor@_WV?$string_output_adapter@_W@__crt_stdio_output@@V?$standard_base@_WV?$string_output_adapter@_W@__crt_stdio_output@@@2@@__crt_stdio_output@@QAE@XZ 1004cf20 f i libucrtd:output.obj
 0001:0004bf40       ??1?$positional_parameter_base@DV?$stream_output_adapter@D@__crt_stdio_output@@@__crt_stdio_output@@QAE@XZ 1004cf40 f i libucrtd:output.obj
 0001:0004bf60       ??1?$positional_parameter_base@DV?$string_output_adapter@D@__crt_stdio_output@@@__crt_stdio_output@@QAE@XZ 1004cf60 f i libucrtd:output.obj
 0001:0004bf80       ??1?$positional_parameter_base@_WV?$stream_output_adapter@_W@__crt_stdio_output@@@__crt_stdio_output@@QAE@XZ 1004cf80 f i libucrtd:output.obj
 0001:0004bfa0       ??1?$positional_parameter_base@_WV?$string_output_adapter@_W@__crt_stdio_output@@@__crt_stdio_output@@QAE@XZ 1004cfa0 f i libucrtd:output.obj
 0001:0004bfc0       ??1?$standard_base@DV?$stream_output_adapter@D@__crt_stdio_output@@@__crt_stdio_output@@QAE@XZ 1004cfc0 f i libucrtd:output.obj
 0001:0004bfe0       ??1?$standard_base@DV?$string_output_adapter@D@__crt_stdio_output@@@__crt_stdio_output@@QAE@XZ 1004cfe0 f i libucrtd:output.obj
 0001:0004c000       ??1?$standard_base@_WV?$stream_output_adapter@_W@__crt_stdio_output@@@__crt_stdio_output@@QAE@XZ 1004d000 f i libucrtd:output.obj
 0001:0004c020       ??1?$standard_base@_WV?$string_output_adapter@_W@__crt_stdio_output@@@__crt_stdio_output@@QAE@XZ 1004d020 f i libucrtd:output.obj
 0001:0004c040       ??1_LocaleUpdate@@QAE@XZ   1004d040 f i libucrtd:output.obj
 0001:0004c070       ??1__acrt_stdio_temporary_buffering_guard@@QAE@XZ 1004d070 f i libucrtd:output.obj
 0001:0004c0a0       ??1__crt_errno_guard@@QAE@XZ 1004d0a0 f i libucrtd:output.obj
 0001:0004c0d0       ??1formatting_buffer@__crt_stdio_output@@QAE@XZ 1004d0d0 f i libucrtd:output.obj
 0001:0004c0f0       ??4?$__crt_unique_heap_ptr@DU__crt_internal_free_policy@@@@QAEAAV0@$$QAV0@@Z 1004d0f0 f i libucrtd:output.obj
 0001:0004c120       ??A?$spectre_mitigated_lookup_table@Ustate_transition_pair@__crt_stdio_output@@$0IA@@__crt_stdio_output@@QBEABUstate_transition_pair@1@I@Z 1004d120 f i libucrtd:output.obj
 0001:0004c140       ??C__crt_stdio_stream@@QBEPAU__crt_stdio_stream_data@@XZ 1004d140 f i libucrtd:output.obj
 0001:0004c880       ?GetLocaleT@_LocaleUpdate@@QAEPAU__crt_locale_pointers@@XZ 1004d880 f i libucrtd:output.obj
 0001:0004c8a0       ?adjust_hexit@?$output_processor@DV?$stream_output_adapter@D@__crt_stdio_output@@V?$format_validation_base@DV?$stream_output_adapter@D@__crt_stdio_output@@@2@@__crt_stdio_output@@CADH_N@Z 1004d8a0 f i libucrtd:output.obj
 0001:0004c8e0       ?adjust_hexit@?$output_processor@DV?$stream_output_adapter@D@__crt_stdio_output@@V?$positional_parameter_base@DV?$stream_output_adapter@D@__crt_stdio_output@@@2@@__crt_stdio_output@@CADH_N@Z 1004d8e0 f i libucrtd:output.obj
 0001:0004c920       ?adjust_hexit@?$output_processor@DV?$stream_output_adapter@D@__crt_stdio_output@@V?$standard_base@DV?$stream_output_adapter@D@__crt_stdio_output@@@2@@__crt_stdio_output@@CADH_N@Z 1004d920 f i libucrtd:output.obj
 0001:0004c960       ?adjust_hexit@?$output_processor@DV?$string_output_adapter@D@__crt_stdio_output@@V?$format_validation_base@DV?$string_output_adapter@D@__crt_stdio_output@@@2@@__crt_stdio_output@@CADH_N@Z 1004d960 f i libucrtd:output.obj
 0001:0004c9a0       ?adjust_hexit@?$output_processor@DV?$string_output_adapter@D@__crt_stdio_output@@V?$positional_parameter_base@DV?$string_output_adapter@D@__crt_stdio_output@@@2@@__crt_stdio_output@@CADH_N@Z 1004d9a0 f i libucrtd:output.obj
 0001:0004c9e0       ?adjust_hexit@?$output_processor@DV?$string_output_adapter@D@__crt_stdio_output@@V?$standard_base@DV?$string_output_adapter@D@__crt_stdio_output@@@2@@__crt_stdio_output@@CADH_N@Z 1004d9e0 f i libucrtd:output.obj
 0001:0004ca20       ?adjust_hexit@?$output_processor@_WV?$stream_output_adapter@_W@__crt_stdio_output@@V?$format_validation_base@_WV?$stream_output_adapter@_W@__crt_stdio_output@@@2@@__crt_stdio_output@@CADH_N@Z 1004da20 f i libucrtd:output.obj
 0001:0004ca60       ?adjust_hexit@?$output_processor@_WV?$stream_output_adapter@_W@__crt_stdio_output@@V?$positional_parameter_base@_WV?$stream_output_adapter@_W@__crt_stdio_output@@@2@@__crt_stdio_output@@CADH_N@Z 1004da60 f i libucrtd:output.obj
 0001:0004caa0       ?adjust_hexit@?$output_processor@_WV?$stream_output_adapter@_W@__crt_stdio_output@@V?$standard_base@_WV?$stream_output_adapter@_W@__crt_stdio_output@@@2@@__crt_stdio_output@@CADH_N@Z 1004daa0 f i libucrtd:output.obj
 0001:0004cae0       ?adjust_hexit@?$output_processor@_WV?$string_output_adapter@_W@__crt_stdio_output@@V?$format_validation_base@_WV?$string_output_adapter@_W@__crt_stdio_output@@@2@@__crt_stdio_output@@CADH_N@Z 1004dae0 f i libucrtd:output.obj
 0001:0004cb20       ?adjust_hexit@?$output_processor@_WV?$string_output_adapter@_W@__crt_stdio_output@@V?$positional_parameter_base@_WV?$string_output_adapter@_W@__crt_stdio_output@@@2@@__crt_stdio_output@@CADH_N@Z 1004db20 f i libucrtd:output.obj
 0001:0004cb60       ?adjust_hexit@?$output_processor@_WV?$string_output_adapter@_W@__crt_stdio_output@@V?$standard_base@_WV?$string_output_adapter@_W@__crt_stdio_output@@@2@@__crt_stdio_output@@CADH_N@Z 1004db60 f i libucrtd:output.obj
 0001:0004cba0       ?advance_to_next_pass@?$positional_parameter_base@DV?$stream_output_adapter@D@__crt_stdio_output@@@__crt_stdio_output@@IAE_NXZ 1004dba0 f i libucrtd:output.obj
 0001:0004cc40       ?advance_to_next_pass@?$positional_parameter_base@DV?$string_output_adapter@D@__crt_stdio_output@@@__crt_stdio_output@@IAE_NXZ 1004dc40 f i libucrtd:output.obj
 0001:0004cce0       ?advance_to_next_pass@?$positional_parameter_base@_WV?$stream_output_adapter@_W@__crt_stdio_output@@@__crt_stdio_output@@IAE_NXZ 1004dce0 f i libucrtd:output.obj
 0001:0004cd80       ?advance_to_next_pass@?$positional_parameter_base@_WV?$string_output_adapter@_W@__crt_stdio_output@@@__crt_stdio_output@@IAE_NXZ 1004dd80 f i libucrtd:output.obj
 0001:0004ce20       ?advance_to_next_pass@?$standard_base@DV?$stream_output_adapter@D@__crt_stdio_output@@@__crt_stdio_output@@IAE_NXZ 1004de20 f i libucrtd:output.obj
 0001:0004ce70       ?advance_to_next_pass@?$standard_base@DV?$string_output_adapter@D@__crt_stdio_output@@@__crt_stdio_output@@IAE_NXZ 1004de70 f i libucrtd:output.obj
 0001:0004cec0       ?advance_to_next_pass@?$standard_base@_WV?$stream_output_adapter@_W@__crt_stdio_output@@@__crt_stdio_output@@IAE_NXZ 1004dec0 f i libucrtd:output.obj
 0001:0004cf10       ?advance_to_next_pass@?$standard_base@_WV?$string_output_adapter@_W@__crt_stdio_output@@@__crt_stdio_output@@IAE_NXZ 1004df10 f i libucrtd:output.obj
 0001:0004cf60       ?crop_zeroes@__crt_stdio_output@@YAXPADQAU__crt_locale_pointers@@@Z 1004df60 f i libucrtd:output.obj
 0001:0004d060       ?find_next_state@?$output_processor@DV?$stream_output_adapter@D@__crt_stdio_output@@V?$format_validation_base@DV?$stream_output_adapter@D@__crt_stdio_output@@@2@@__crt_stdio_output@@ABE?AW4state@2@DW432@@Z 1004e060 f i libucrtd:output.obj
 0001:0004d0d0       ?find_next_state@?$output_processor@DV?$stream_output_adapter@D@__crt_stdio_output@@V?$positional_parameter_base@DV?$stream_output_adapter@D@__crt_stdio_output@@@2@@__crt_stdio_output@@ABE?AW4state@2@DW432@@Z 1004e0d0 f i libucrtd:output.obj
 0001:0004d140       ?find_next_state@?$output_processor@DV?$stream_output_adapter@D@__crt_stdio_output@@V?$standard_base@DV?$stream_output_adapter@D@__crt_stdio_output@@@2@@__crt_stdio_output@@ABE?AW4state@2@DW432@@Z 1004e140 f i libucrtd:output.obj
 0001:0004d1b0       ?find_next_state@?$output_processor@DV?$string_output_adapter@D@__crt_stdio_output@@V?$format_validation_base@DV?$string_output_adapter@D@__crt_stdio_output@@@2@@__crt_stdio_output@@ABE?AW4state@2@DW432@@Z 1004e1b0 f i libucrtd:output.obj
 0001:0004d220       ?find_next_state@?$output_processor@DV?$string_output_adapter@D@__crt_stdio_output@@V?$positional_parameter_base@DV?$string_output_adapter@D@__crt_stdio_output@@@2@@__crt_stdio_output@@ABE?AW4state@2@DW432@@Z 1004e220 f i libucrtd:output.obj
 0001:0004d290       ?find_next_state@?$output_processor@DV?$string_output_adapter@D@__crt_stdio_output@@V?$standard_base@DV?$string_output_adapter@D@__crt_stdio_output@@@2@@__crt_stdio_output@@ABE?AW4state@2@DW432@@Z 1004e290 f i libucrtd:output.obj
 0001:0004d300       ?find_next_state@?$output_processor@_WV?$stream_output_adapter@_W@__crt_stdio_output@@V?$format_validation_base@_WV?$stream_output_adapter@_W@__crt_stdio_output@@@2@@__crt_stdio_output@@ABE?AW4state@2@_WW432@@Z 1004e300 f i libucrtd:output.obj
 0001:0004d370       ?find_next_state@?$output_processor@_WV?$stream_output_adapter@_W@__crt_stdio_output@@V?$positional_parameter_base@_WV?$stream_output_adapter@_W@__crt_stdio_output@@@2@@__crt_stdio_output@@ABE?AW4state@2@_WW432@@Z 1004e370 f i libucrtd:output.obj
 0001:0004d3e0       ?find_next_state@?$output_processor@_WV?$stream_output_adapter@_W@__crt_stdio_output@@V?$standard_base@_WV?$stream_output_adapter@_W@__crt_stdio_output@@@2@@__crt_stdio_output@@ABE?AW4state@2@_WW432@@Z 1004e3e0 f i libucrtd:output.obj
 0001:0004d450       ?find_next_state@?$output_processor@_WV?$string_output_adapter@_W@__crt_stdio_output@@V?$format_validation_base@_WV?$string_output_adapter@_W@__crt_stdio_output@@@2@@__crt_stdio_output@@ABE?AW4state@2@_WW432@@Z 1004e450 f i libucrtd:output.obj
 0001:0004d4c0       ?find_next_state@?$output_processor@_WV?$string_output_adapter@_W@__crt_stdio_output@@V?$positional_parameter_base@_WV?$string_output_adapter@_W@__crt_stdio_output@@@2@@__crt_stdio_output@@ABE?AW4state@2@_WW432@@Z 1004e4c0 f i libucrtd:output.obj
 0001:0004d530       ?find_next_state@?$output_processor@_WV?$string_output_adapter@_W@__crt_stdio_output@@V?$standard_base@_WV?$string_output_adapter@_W@__crt_stdio_output@@@2@@__crt_stdio_output@@ABE?AW4state@2@_WW432@@Z 1004e530 f i libucrtd:output.obj
 0001:0004d5a0       ?force_decimal_point@__crt_stdio_output@@YAXPADQAU__crt_locale_pointers@@@Z 1004e5a0 f i libucrtd:output.obj
 0001:0004d670       ?get@__crt_deferred_errno_cache@@QAEAAHXZ 1004e670 f i libucrtd:output.obj
 0001:0004d6a0       ?get_flags@__crt_stdio_stream@@QBEJXZ 1004e6a0 f i libucrtd:output.obj
 0001:0004d6c0       ?get_parameter_type@?$positional_parameter_base@DV?$stream_output_adapter@D@__crt_stdio_output@@@__crt_stdio_output@@CA?AW4parameter_type@12@F@Z 1004e6c0 f i libucrtd:output.obj
 0001:0004d6d0       ?get_parameter_type@?$positional_parameter_base@DV?$stream_output_adapter@D@__crt_stdio_output@@@__crt_stdio_output@@CA?AW4parameter_type@12@G@Z 1004e6d0 f i libucrtd:output.obj
 0001:0004d6e0       ?get_parameter_type@?$positional_parameter_base@DV?$stream_output_adapter@D@__crt_stdio_output@@@__crt_stdio_output@@CA?AW4parameter_type@12@H@Z 1004e6e0 f i libucrtd:output.obj
 0001:0004d6f0       ?get_parameter_type@?$positional_parameter_base@DV?$stream_output_adapter@D@__crt_stdio_output@@@__crt_stdio_output@@CA?AW4parameter_type@12@I@Z 1004e6f0 f i libucrtd:output.obj
 0001:0004d700       ?get_parameter_type@?$positional_parameter_base@DV?$stream_output_adapter@D@__crt_stdio_output@@@__crt_stdio_output@@CA?AW4parameter_type@12@U_CRT_DOUBLE@@@Z 1004e700 f i libucrtd:output.obj
 0001:0004d710       ?get_parameter_type@?$positional_parameter_base@DV?$stream_output_adapter@D@__crt_stdio_output@@@__crt_stdio_output@@CA?AW4parameter_type@12@_J@Z 1004e710 f i libucrtd:output.obj
 0001:0004d720       ?get_parameter_type@?$positional_parameter_base@DV?$stream_output_adapter@D@__crt_stdio_output@@@__crt_stdio_output@@CA?AW4parameter_type@12@_K@Z 1004e720 f i libucrtd:output.obj
 0001:0004d730       ?get_parameter_type@?$positional_parameter_base@DV?$stream_output_adapter@D@__crt_stdio_output@@@__crt_stdio_output@@CA?AW4parameter_type@12@_W@Z 1004e730 f i libucrtd:output.obj
 0001:0004d740       ?get_parameter_type@?$positional_parameter_base@DV?$string_output_adapter@D@__crt_stdio_output@@@__crt_stdio_output@@CA?AW4parameter_type@12@F@Z 1004e740 f i libucrtd:output.obj
 0001:0004d750       ?get_parameter_type@?$positional_parameter_base@DV?$string_output_adapter@D@__crt_stdio_output@@@__crt_stdio_output@@CA?AW4parameter_type@12@G@Z 1004e750 f i libucrtd:output.obj
 0001:0004d760       ?get_parameter_type@?$positional_parameter_base@DV?$string_output_adapter@D@__crt_stdio_output@@@__crt_stdio_output@@CA?AW4parameter_type@12@H@Z 1004e760 f i libucrtd:output.obj
 0001:0004d770       ?get_parameter_type@?$positional_parameter_base@DV?$string_output_adapter@D@__crt_stdio_output@@@__crt_stdio_output@@CA?AW4parameter_type@12@I@Z 1004e770 f i libucrtd:output.obj
 0001:0004d780       ?get_parameter_type@?$positional_parameter_base@DV?$string_output_adapter@D@__crt_stdio_output@@@__crt_stdio_output@@CA?AW4parameter_type@12@U_CRT_DOUBLE@@@Z 1004e780 f i libucrtd:output.obj
 0001:0004d790       ?get_parameter_type@?$positional_parameter_base@DV?$string_output_adapter@D@__crt_stdio_output@@@__crt_stdio_output@@CA?AW4parameter_type@12@_J@Z 1004e790 f i libucrtd:output.obj
 0001:0004d7a0       ?get_parameter_type@?$positional_parameter_base@DV?$string_output_adapter@D@__crt_stdio_output@@@__crt_stdio_output@@CA?AW4parameter_type@12@_K@Z 1004e7a0 f i libucrtd:output.obj
 0001:0004d7b0       ?get_parameter_type@?$positional_parameter_base@DV?$string_output_adapter@D@__crt_stdio_output@@@__crt_stdio_output@@CA?AW4parameter_type@12@_W@Z 1004e7b0 f i libucrtd:output.obj
 0001:0004d7c0       ?get_parameter_type@?$positional_parameter_base@_WV?$stream_output_adapter@_W@__crt_stdio_output@@@__crt_stdio_output@@CA?AW4parameter_type@12@F@Z 1004e7c0 f i libucrtd:output.obj
 0001:0004d7d0       ?get_parameter_type@?$positional_parameter_base@_WV?$stream_output_adapter@_W@__crt_stdio_output@@@__crt_stdio_output@@CA?AW4parameter_type@12@G@Z 1004e7d0 f i libucrtd:output.obj
 0001:0004d7e0       ?get_parameter_type@?$positional_parameter_base@_WV?$stream_output_adapter@_W@__crt_stdio_output@@@__crt_stdio_output@@CA?AW4parameter_type@12@H@Z 1004e7e0 f i libucrtd:output.obj
 0001:0004d7f0       ?get_parameter_type@?$positional_parameter_base@_WV?$stream_output_adapter@_W@__crt_stdio_output@@@__crt_stdio_output@@CA?AW4parameter_type@12@I@Z 1004e7f0 f i libucrtd:output.obj
 0001:0004d800       ?get_parameter_type@?$positional_parameter_base@_WV?$stream_output_adapter@_W@__crt_stdio_output@@@__crt_stdio_output@@CA?AW4parameter_type@12@U_CRT_DOUBLE@@@Z 1004e800 f i libucrtd:output.obj
 0001:0004d810       ?get_parameter_type@?$positional_parameter_base@_WV?$stream_output_adapter@_W@__crt_stdio_output@@@__crt_stdio_output@@CA?AW4parameter_type@12@_J@Z 1004e810 f i libucrtd:output.obj
 0001:0004d820       ?get_parameter_type@?$positional_parameter_base@_WV?$stream_output_adapter@_W@__crt_stdio_output@@@__crt_stdio_output@@CA?AW4parameter_type@12@_K@Z 1004e820 f i libucrtd:output.obj
 0001:0004d830       ?get_parameter_type@?$positional_parameter_base@_WV?$stream_output_adapter@_W@__crt_stdio_output@@@__crt_stdio_output@@CA?AW4parameter_type@12@_W@Z 1004e830 f i libucrtd:output.obj
 0001:0004d840       ?get_parameter_type@?$positional_parameter_base@_WV?$string_output_adapter@_W@__crt_stdio_output@@@__crt_stdio_output@@CA?AW4parameter_type@12@F@Z 1004e840 f i libucrtd:output.obj
 0001:0004d850       ?get_parameter_type@?$positional_parameter_base@_WV?$string_output_adapter@_W@__crt_stdio_output@@@__crt_stdio_output@@CA?AW4parameter_type@12@G@Z 1004e850 f i libucrtd:output.obj
 0001:0004d860       ?get_parameter_type@?$positional_parameter_base@_WV?$string_output_adapter@_W@__crt_stdio_output@@@__crt_stdio_output@@CA?AW4parameter_type@12@H@Z 1004e860 f i libucrtd:output.obj
 0001:0004d870       ?get_parameter_type@?$positional_parameter_base@_WV?$string_output_adapter@_W@__crt_stdio_output@@@__crt_stdio_output@@CA?AW4parameter_type@12@I@Z 1004e870 f i libucrtd:output.obj
 0001:0004d880       ?get_parameter_type@?$positional_parameter_base@_WV?$string_output_adapter@_W@__crt_stdio_output@@@__crt_stdio_output@@CA?AW4parameter_type@12@U_CRT_DOUBLE@@@Z 1004e880 f i libucrtd:output.obj
 0001:0004d890       ?get_parameter_type@?$positional_parameter_base@_WV?$string_output_adapter@_W@__crt_stdio_output@@@__crt_stdio_output@@CA?AW4parameter_type@12@_J@Z 1004e890 f i libucrtd:output.obj
 0001:0004d8a0       ?get_parameter_type@?$positional_parameter_base@_WV?$string_output_adapter@_W@__crt_stdio_output@@@__crt_stdio_output@@CA?AW4parameter_type@12@_K@Z 1004e8a0 f i libucrtd:output.obj
 0001:0004d8b0       ?get_parameter_type@?$positional_parameter_base@_WV?$string_output_adapter@_W@__crt_stdio_output@@@__crt_stdio_output@@CA?AW4parameter_type@12@_W@Z 1004e8b0 f i libucrtd:output.obj
 0001:0004d8c0       ?has_flag@?$output_processor@DV?$stream_output_adapter@D@__crt_stdio_output@@V?$format_validation_base@DV?$stream_output_adapter@D@__crt_stdio_output@@@2@@__crt_stdio_output@@ABE_NI@Z 1004e8c0 f i libucrtd:output.obj
 0001:0004d8f0       ?has_flag@?$output_processor@DV?$stream_output_adapter@D@__crt_stdio_output@@V?$positional_parameter_base@DV?$stream_output_adapter@D@__crt_stdio_output@@@2@@__crt_stdio_output@@ABE_NI@Z 1004e8f0 f i libucrtd:output.obj
 0001:0004d920       ?has_flag@?$output_processor@DV?$stream_output_adapter@D@__crt_stdio_output@@V?$standard_base@DV?$stream_output_adapter@D@__crt_stdio_output@@@2@@__crt_stdio_output@@ABE_NI@Z 1004e920 f i libucrtd:output.obj
 0001:0004d950       ?has_flag@?$output_processor@DV?$string_output_adapter@D@__crt_stdio_output@@V?$format_validation_base@DV?$string_output_adapter@D@__crt_stdio_output@@@2@@__crt_stdio_output@@ABE_NI@Z 1004e950 f i libucrtd:output.obj
 0001:0004d980       ?has_flag@?$output_processor@DV?$string_output_adapter@D@__crt_stdio_output@@V?$positional_parameter_base@DV?$string_output_adapter@D@__crt_stdio_output@@@2@@__crt_stdio_output@@ABE_NI@Z 1004e980 f i libucrtd:output.obj
 0001:0004d9b0       ?has_flag@?$output_processor@DV?$string_output_adapter@D@__crt_stdio_output@@V?$standard_base@DV?$string_output_adapter@D@__crt_stdio_output@@@2@@__crt_stdio_output@@ABE_NI@Z 1004e9b0 f i libucrtd:output.obj
 0001:0004d9e0       ?has_flag@?$output_processor@_WV?$stream_output_adapter@_W@__crt_stdio_output@@V?$format_validation_base@_WV?$stream_output_adapter@_W@__crt_stdio_output@@@2@@__crt_stdio_output@@ABE_NI@Z 1004e9e0 f i libucrtd:output.obj
 0001:0004da10       ?has_flag@?$output_processor@_WV?$stream_output_adapter@_W@__crt_stdio_output@@V?$positional_parameter_base@_WV?$stream_output_adapter@_W@__crt_stdio_output@@@2@@__crt_stdio_output@@ABE_NI@Z 1004ea10 f i libucrtd:output.obj
 0001:0004da40       ?has_flag@?$output_processor@_WV?$stream_output_adapter@_W@__crt_stdio_output@@V?$standard_base@_WV?$stream_output_adapter@_W@__crt_stdio_output@@@2@@__crt_stdio_output@@ABE_NI@Z 1004ea40 f i libucrtd:output.obj
 0001:0004da70       ?has_flag@?$output_processor@_WV?$string_output_adapter@_W@__crt_stdio_output@@V?$format_validation_base@_WV?$string_output_adapter@_W@__crt_stdio_output@@@2@@__crt_stdio_output@@ABE_NI@Z 1004ea70 f i libucrtd:output.obj
 0001:0004daa0       ?has_flag@?$output_processor@_WV?$string_output_adapter@_W@__crt_stdio_output@@V?$positional_parameter_base@_WV?$string_output_adapter@_W@__crt_stdio_output@@@2@@__crt_stdio_output@@ABE_NI@Z 1004eaa0 f i libucrtd:output.obj
 0001:0004dad0       ?has_flag@?$output_processor@_WV?$string_output_adapter@_W@__crt_stdio_output@@V?$standard_base@_WV?$string_output_adapter@_W@__crt_stdio_output@@@2@@__crt_stdio_output@@ABE_NI@Z 1004ead0 f i libucrtd:output.obj
 0001:0004db00       ?is_positional_parameter_reappearance_consistent@?$positional_parameter_base@DV?$stream_output_adapter@D@__crt_stdio_output@@@__crt_stdio_output@@AAE_NABUparameter_data@12@W4parameter_type@12@DW4length_modifier@2@@Z 1004eb00 f i libucrtd:output.obj
 0001:0004dd30       ?is_positional_parameter_reappearance_consistent@?$positional_parameter_base@DV?$string_output_adapter@D@__crt_stdio_output@@@__crt_stdio_output@@AAE_NABUparameter_data@12@W4parameter_type@12@DW4length_modifier@2@@Z 1004ed30 f i libucrtd:output.obj
 0001:0004df60       ?is_positional_parameter_reappearance_consistent@?$positional_parameter_base@_WV?$stream_output_adapter@_W@__crt_stdio_output@@@__crt_stdio_output@@AAE_NABUparameter_data@12@W4parameter_type@12@_WW4length_modifier@2@@Z 1004ef60 f i libucrtd:output.obj
 0001:0004e190       ?is_positional_parameter_reappearance_consistent@?$positional_parameter_base@_WV?$string_output_adapter@_W@__crt_stdio_output@@@__crt_stdio_output@@AAE_NABUparameter_data@12@W4parameter_type@12@_WW4length_modifier@2@@Z 1004f190 f i libucrtd:output.obj
 0001:0004e3c0       ?is_string_backed@__crt_stdio_stream@@QBE_NXZ 1004f3c0 f i libucrtd:output.obj
 0001:0004e400       ?narrow_null_string@?$output_processor@DV?$stream_output_adapter@D@__crt_stdio_output@@V?$format_validation_base@DV?$stream_output_adapter@D@__crt_stdio_output@@@2@@__crt_stdio_output@@CAPADXZ 1004f400 f i libucrtd:output.obj
 0001:0004e410       ?narrow_null_string@?$output_processor@DV?$stream_output_adapter@D@__crt_stdio_output@@V?$positional_parameter_base@DV?$stream_output_adapter@D@__crt_stdio_output@@@2@@__crt_stdio_output@@CAPADXZ 1004f410 f i libucrtd:output.obj
 0001:0004e420       ?narrow_null_string@?$output_processor@DV?$stream_output_adapter@D@__crt_stdio_output@@V?$standard_base@DV?$stream_output_adapter@D@__crt_stdio_output@@@2@@__crt_stdio_output@@CAPADXZ 1004f420 f i libucrtd:output.obj
 0001:0004e430       ?narrow_null_string@?$output_processor@DV?$string_output_adapter@D@__crt_stdio_output@@V?$format_validation_base@DV?$string_output_adapter@D@__crt_stdio_output@@@2@@__crt_stdio_output@@CAPADXZ 1004f430 f i libucrtd:output.obj
 0001:0004e440       ?narrow_null_string@?$output_processor@DV?$string_output_adapter@D@__crt_stdio_output@@V?$positional_parameter_base@DV?$string_output_adapter@D@__crt_stdio_output@@@2@@__crt_stdio_output@@CAPADXZ 1004f440 f i libucrtd:output.obj
 0001:0004e450       ?narrow_null_string@?$output_processor@DV?$string_output_adapter@D@__crt_stdio_output@@V?$standard_base@DV?$string_output_adapter@D@__crt_stdio_output@@@2@@__crt_stdio_output@@CAPADXZ 1004f450 f i libucrtd:output.obj
 0001:0004e460       ?narrow_null_string@?$output_processor@_WV?$stream_output_adapter@_W@__crt_stdio_output@@V?$format_validation_base@_WV?$stream_output_adapter@_W@__crt_stdio_output@@@2@@__crt_stdio_output@@CAPADXZ 1004f460 f i libucrtd:output.obj
 0001:0004e470       ?narrow_null_string@?$output_processor@_WV?$stream_output_adapter@_W@__crt_stdio_output@@V?$positional_parameter_base@_WV?$stream_output_adapter@_W@__crt_stdio_output@@@2@@__crt_stdio_output@@CAPADXZ 1004f470 f i libucrtd:output.obj
 0001:0004e480       ?narrow_null_string@?$output_processor@_WV?$stream_output_adapter@_W@__crt_stdio_output@@V?$standard_base@_WV?$stream_output_adapter@_W@__crt_stdio_output@@@2@@__crt_stdio_output@@CAPADXZ 1004f480 f i libucrtd:output.obj
 0001:0004e490       ?narrow_null_string@?$output_processor@_WV?$string_output_adapter@_W@__crt_stdio_output@@V?$format_validation_base@_WV?$string_output_adapter@_W@__crt_stdio_output@@@2@@__crt_stdio_output@@CAPADXZ 1004f490 f i libucrtd:output.obj
 0001:0004e4a0       ?narrow_null_string@?$output_processor@_WV?$string_output_adapter@_W@__crt_stdio_output@@V?$positional_parameter_base@_WV?$string_output_adapter@_W@__crt_stdio_output@@@2@@__crt_stdio_output@@CAPADXZ 1004f4a0 f i libucrtd:output.obj
 0001:0004e4b0       ?narrow_null_string@?$output_processor@_WV?$string_output_adapter@_W@__crt_stdio_output@@V?$standard_base@_WV?$string_output_adapter@_W@__crt_stdio_output@@@2@@__crt_stdio_output@@CAPADXZ 1004f4b0 f i libucrtd:output.obj
 0001:0004e4c0       ?parse_int_from_format_string@?$output_processor@DV?$stream_output_adapter@D@__crt_stdio_output@@V?$format_validation_base@DV?$stream_output_adapter@D@__crt_stdio_output@@@2@@__crt_stdio_output@@AAE_NQAH@Z 1004f4c0 f i libucrtd:output.obj
 0001:0004e580       ?parse_int_from_format_string@?$output_processor@DV?$stream_output_adapter@D@__crt_stdio_output@@V?$positional_parameter_base@DV?$stream_output_adapter@D@__crt_stdio_output@@@2@@__crt_stdio_output@@AAE_NQAH@Z 1004f580 f i libucrtd:output.obj
 0001:0004e640       ?parse_int_from_format_string@?$output_processor@DV?$stream_output_adapter@D@__crt_stdio_output@@V?$standard_base@DV?$stream_output_adapter@D@__crt_stdio_output@@@2@@__crt_stdio_output@@AAE_NQAH@Z 1004f640 f i libucrtd:output.obj
 0001:0004e700       ?parse_int_from_format_string@?$output_processor@DV?$string_output_adapter@D@__crt_stdio_output@@V?$format_validation_base@DV?$string_output_adapter@D@__crt_stdio_output@@@2@@__crt_stdio_output@@AAE_NQAH@Z 1004f700 f i libucrtd:output.obj
 0001:0004e7c0       ?parse_int_from_format_string@?$output_processor@DV?$string_output_adapter@D@__crt_stdio_output@@V?$positional_parameter_base@DV?$string_output_adapter@D@__crt_stdio_output@@@2@@__crt_stdio_output@@AAE_NQAH@Z 1004f7c0 f i libucrtd:output.obj
 0001:0004e880       ?parse_int_from_format_string@?$output_processor@DV?$string_output_adapter@D@__crt_stdio_output@@V?$standard_base@DV?$string_output_adapter@D@__crt_stdio_output@@@2@@__crt_stdio_output@@AAE_NQAH@Z 1004f880 f i libucrtd:output.obj
 0001:0004e940       ?parse_int_from_format_string@?$output_processor@_WV?$stream_output_adapter@_W@__crt_stdio_output@@V?$format_validation_base@_WV?$stream_output_adapter@_W@__crt_stdio_output@@@2@@__crt_stdio_output@@AAE_NQAH@Z 1004f940 f i libucrtd:output.obj
 0001:0004ea00       ?parse_int_from_format_string@?$output_processor@_WV?$stream_output_adapter@_W@__crt_stdio_output@@V?$positional_parameter_base@_WV?$stream_output_adapter@_W@__crt_stdio_output@@@2@@__crt_stdio_output@@AAE_NQAH@Z 1004fa00 f i libucrtd:output.obj
 0001:0004eac0       ?parse_int_from_format_string@?$output_processor@_WV?$stream_output_adapter@_W@__crt_stdio_output@@V?$standard_base@_WV?$stream_output_adapter@_W@__crt_stdio_output@@@2@@__crt_stdio_output@@AAE_NQAH@Z 1004fac0 f i libucrtd:output.obj
 0001:0004eb80       ?parse_int_from_format_string@?$output_processor@_WV?$string_output_adapter@_W@__crt_stdio_output@@V?$format_validation_base@_WV?$string_output_adapter@_W@__crt_stdio_output@@@2@@__crt_stdio_output@@AAE_NQAH@Z 1004fb80 f i libucrtd:output.obj
 0001:0004ec40       ?parse_int_from_format_string@?$output_processor@_WV?$string_output_adapter@_W@__crt_stdio_output@@V?$positional_parameter_base@_WV?$string_output_adapter@_W@__crt_stdio_output@@@2@@__crt_stdio_output@@AAE_NQAH@Z 1004fc40 f i libucrtd:output.obj
 0001:0004ed00       ?parse_int_from_format_string@?$output_processor@_WV?$string_output_adapter@_W@__crt_stdio_output@@V?$standard_base@_WV?$string_output_adapter@_W@__crt_stdio_output@@@2@@__crt_stdio_output@@AAE_NQAH@Z 1004fd00 f i libucrtd:output.obj
 0001:0004edc0       ?process@?$output_processor@DV?$stream_output_adapter@D@__crt_stdio_output@@V?$format_validation_base@DV?$stream_output_adapter@D@__crt_stdio_output@@@2@@__crt_stdio_output@@QAEHXZ 1004fdc0 f i libucrtd:output.obj
 0001:0004f070       ?process@?$output_processor@DV?$stream_output_adapter@D@__crt_stdio_output@@V?$positional_parameter_base@DV?$stream_output_adapter@D@__crt_stdio_output@@@2@@__crt_stdio_output@@QAEHXZ 10050070 f i libucrtd:output.obj
 0001:0004f320       ?process@?$output_processor@DV?$stream_output_adapter@D@__crt_stdio_output@@V?$standard_base@DV?$stream_output_adapter@D@__crt_stdio_output@@@2@@__crt_stdio_output@@QAEHXZ 10050320 f i libucrtd:output.obj
 0001:0004f5d0       ?process@?$output_processor@DV?$string_output_adapter@D@__crt_stdio_output@@V?$format_validation_base@DV?$string_output_adapter@D@__crt_stdio_output@@@2@@__crt_stdio_output@@QAEHXZ 100505d0 f i libucrtd:output.obj
 0001:0004f880       ?process@?$output_processor@DV?$string_output_adapter@D@__crt_stdio_output@@V?$positional_parameter_base@DV?$string_output_adapter@D@__crt_stdio_output@@@2@@__crt_stdio_output@@QAEHXZ 10050880 f i libucrtd:output.obj
 0001:0004fb30       ?process@?$output_processor@DV?$string_output_adapter@D@__crt_stdio_output@@V?$standard_base@DV?$string_output_adapter@D@__crt_stdio_output@@@2@@__crt_stdio_output@@QAEHXZ 10050b30 f i libucrtd:output.obj
 0001:0004fde0       ?process@?$output_processor@_WV?$stream_output_adapter@_W@__crt_stdio_output@@V?$format_validation_base@_WV?$stream_output_adapter@_W@__crt_stdio_output@@@2@@__crt_stdio_output@@QAEHXZ 10050de0 f i libucrtd:output.obj
 0001:00050090       ?process@?$output_processor@_WV?$stream_output_adapter@_W@__crt_stdio_output@@V?$positional_parameter_base@_WV?$stream_output_adapter@_W@__crt_stdio_output@@@2@@__crt_stdio_output@@QAEHXZ 10051090 f i libucrtd:output.obj
 0001:00050340       ?process@?$output_processor@_WV?$stream_output_adapter@_W@__crt_stdio_output@@V?$standard_base@_WV?$stream_output_adapter@_W@__crt_stdio_output@@@2@@__crt_stdio_output@@QAEHXZ 10051340 f i libucrtd:output.obj
 0001:000505f0       ?process@?$output_processor@_WV?$string_output_adapter@_W@__crt_stdio_output@@V?$format_validation_base@_WV?$string_output_adapter@_W@__crt_stdio_output@@@2@@__crt_stdio_output@@QAEHXZ 100515f0 f i libucrtd:output.obj
 0001:000508a0       ?process@?$output_processor@_WV?$string_output_adapter@_W@__crt_stdio_output@@V?$positional_parameter_base@_WV?$string_output_adapter@_W@__crt_stdio_output@@@2@@__crt_stdio_output@@QAEHXZ 100518a0 f i libucrtd:output.obj
 0001:00050b50       ?process@?$output_processor@_WV?$string_output_adapter@_W@__crt_stdio_output@@V?$standard_base@_WV?$string_output_adapter@_W@__crt_stdio_output@@@2@@__crt_stdio_output@@QAEHXZ 10051b50 f i libucrtd:output.obj
 0001:00050e00       ?public_stream@__crt_stdio_stream@@QBEPAU_iobuf@@XZ 10051e00 f i libucrtd:output.obj
 0001:00050e20       ?set_flag@?$output_processor@DV?$stream_output_adapter@D@__crt_stdio_output@@V?$format_validation_base@DV?$stream_output_adapter@D@__crt_stdio_output@@@2@@__crt_stdio_output@@AAEXI@Z 10051e20 f i libucrtd:output.obj
 0001:00050e40       ?set_flag@?$output_processor@DV?$stream_output_adapter@D@__crt_stdio_output@@V?$positional_parameter_base@DV?$stream_output_adapter@D@__crt_stdio_output@@@2@@__crt_stdio_output@@AAEXI@Z 10051e40 f i libucrtd:output.obj
 0001:00050e60       ?set_flag@?$output_processor@DV?$stream_output_adapter@D@__crt_stdio_output@@V?$standard_base@DV?$stream_output_adapter@D@__crt_stdio_output@@@2@@__crt_stdio_output@@AAEXI@Z 10051e60 f i libucrtd:output.obj
 0001:00050e80       ?set_flag@?$output_processor@DV?$string_output_adapter@D@__crt_stdio_output@@V?$format_validation_base@DV?$string_output_adapter@D@__crt_stdio_output@@@2@@__crt_stdio_output@@AAEXI@Z 10051e80 f i libucrtd:output.obj
 0001:00050ea0       ?set_flag@?$output_processor@DV?$string_output_adapter@D@__crt_stdio_output@@V?$positional_parameter_base@DV?$string_output_adapter@D@__crt_stdio_output@@@2@@__crt_stdio_output@@AAEXI@Z 10051ea0 f i libucrtd:output.obj
 0001:00050ec0       ?set_flag@?$output_processor@DV?$string_output_adapter@D@__crt_stdio_output@@V?$standard_base@DV?$string_output_adapter@D@__crt_stdio_output@@@2@@__crt_stdio_output@@AAEXI@Z 10051ec0 f i libucrtd:output.obj
 0001:00050ee0       ?set_flag@?$output_processor@_WV?$stream_output_adapter@_W@__crt_stdio_output@@V?$format_validation_base@_WV?$stream_output_adapter@_W@__crt_stdio_output@@@2@@__crt_stdio_output@@AAEXI@Z 10051ee0 f i libucrtd:output.obj
 0001:00050f00       ?set_flag@?$output_processor@_WV?$stream_output_adapter@_W@__crt_stdio_output@@V?$positional_parameter_base@_WV?$stream_output_adapter@_W@__crt_stdio_output@@@2@@__crt_stdio_output@@AAEXI@Z 10051f00 f i libucrtd:output.obj
 0001:00050f20       ?set_flag@?$output_processor@_WV?$stream_output_adapter@_W@__crt_stdio_output@@V?$standard_base@_WV?$stream_output_adapter@_W@__crt_stdio_output@@@2@@__crt_stdio_output@@AAEXI@Z 10051f20 f i libucrtd:output.obj
 0001:00050f40       ?set_flag@?$output_processor@_WV?$string_output_adapter@_W@__crt_stdio_output@@V?$format_validation_base@_WV?$string_output_adapter@_W@__crt_stdio_output@@@2@@__crt_stdio_output@@AAEXI@Z 10051f40 f i libucrtd:output.obj
 0001:00050f60       ?set_flag@?$output_processor@_WV?$string_output_adapter@_W@__crt_stdio_output@@V?$positional_parameter_base@_WV?$string_output_adapter@_W@__crt_stdio_output@@@2@@__crt_stdio_output@@AAEXI@Z 10051f60 f i libucrtd:output.obj
 0001:00050f80       ?set_flag@?$output_processor@_WV?$string_output_adapter@_W@__crt_stdio_output@@V?$standard_base@_WV?$string_output_adapter@_W@__crt_stdio_output@@@2@@__crt_stdio_output@@AAEXI@Z 10051f80 f i libucrtd:output.obj
 0001:00050fa0       ?should_format@?$positional_parameter_base@DV?$stream_output_adapter@D@__crt_stdio_output@@@__crt_stdio_output@@IAE_NXZ 10051fa0 f i libucrtd:output.obj
 0001:00050fe0       ?should_format@?$positional_parameter_base@DV?$string_output_adapter@D@__crt_stdio_output@@@__crt_stdio_output@@IAE_NXZ 10051fe0 f i libucrtd:output.obj
 0001:00051020       ?should_format@?$positional_parameter_base@_WV?$stream_output_adapter@_W@__crt_stdio_output@@@__crt_stdio_output@@IAE_NXZ 10052020 f i libucrtd:output.obj
 0001:00051060       ?should_format@?$positional_parameter_base@_WV?$string_output_adapter@_W@__crt_stdio_output@@@__crt_stdio_output@@IAE_NXZ 10052060 f i libucrtd:output.obj
 0001:000510a0       ?should_format@?$standard_base@DV?$stream_output_adapter@D@__crt_stdio_output@@@__crt_stdio_output@@IAE_NXZ 100520a0 f i libucrtd:output.obj
 0001:000510b0       ?should_format@?$standard_base@DV?$string_output_adapter@D@__crt_stdio_output@@@__crt_stdio_output@@IAE_NXZ 100520b0 f i libucrtd:output.obj
 0001:000510c0       ?should_format@?$standard_base@_WV?$stream_output_adapter@_W@__crt_stdio_output@@@__crt_stdio_output@@IAE_NXZ 100520c0 f i libucrtd:output.obj
 0001:000510d0       ?should_format@?$standard_base@_WV?$string_output_adapter@_W@__crt_stdio_output@@@__crt_stdio_output@@IAE_NXZ 100520d0 f i libucrtd:output.obj
 0001:000510e0       ?should_skip_normal_state_processing@?$positional_parameter_base@DV?$stream_output_adapter@D@__crt_stdio_output@@@__crt_stdio_output@@IAE_NXZ 100520e0 f i libucrtd:output.obj
 0001:00051130       ?should_skip_normal_state_processing@?$positional_parameter_base@DV?$string_output_adapter@D@__crt_stdio_output@@@__crt_stdio_output@@IAE_NXZ 10052130 f i libucrtd:output.obj
 0001:00051180       ?should_skip_normal_state_processing@?$positional_parameter_base@_WV?$stream_output_adapter@_W@__crt_stdio_output@@@__crt_stdio_output@@IAE_NXZ 10052180 f i libucrtd:output.obj
 0001:000511d0       ?should_skip_normal_state_processing@?$positional_parameter_base@_WV?$string_output_adapter@_W@__crt_stdio_output@@@__crt_stdio_output@@IAE_NXZ 100521d0 f i libucrtd:output.obj
 0001:00051220       ?should_skip_normal_state_processing@?$standard_base@DV?$stream_output_adapter@D@__crt_stdio_output@@@__crt_stdio_output@@IAE_NXZ 10052220 f i libucrtd:output.obj
 0001:00051230       ?should_skip_normal_state_processing@?$standard_base@DV?$string_output_adapter@D@__crt_stdio_output@@@__crt_stdio_output@@IAE_NXZ 10052230 f i libucrtd:output.obj
 0001:00051240       ?should_skip_normal_state_processing@?$standard_base@_WV?$stream_output_adapter@_W@__crt_stdio_output@@@__crt_stdio_output@@IAE_NXZ 10052240 f i libucrtd:output.obj
 0001:00051250       ?should_skip_normal_state_processing@?$standard_base@_WV?$string_output_adapter@_W@__crt_stdio_output@@@__crt_stdio_output@@IAE_NXZ 10052250 f i libucrtd:output.obj
 0001:00051260       ?should_skip_type_state_output@?$positional_parameter_base@DV?$stream_output_adapter@D@__crt_stdio_output@@@__crt_stdio_output@@IBE_NXZ 10052260 f i libucrtd:output.obj
 0001:000512a0       ?should_skip_type_state_output@?$positional_parameter_base@DV?$string_output_adapter@D@__crt_stdio_output@@@__crt_stdio_output@@IBE_NXZ 100522a0 f i libucrtd:output.obj
 0001:000512e0       ?should_skip_type_state_output@?$positional_parameter_base@_WV?$stream_output_adapter@_W@__crt_stdio_output@@@__crt_stdio_output@@IBE_NXZ 100522e0 f i libucrtd:output.obj
 0001:00051320       ?should_skip_type_state_output@?$positional_parameter_base@_WV?$string_output_adapter@_W@__crt_stdio_output@@@__crt_stdio_output@@IBE_NXZ 10052320 f i libucrtd:output.obj
 0001:00051360       ?should_skip_type_state_output@?$standard_base@DV?$stream_output_adapter@D@__crt_stdio_output@@@__crt_stdio_output@@IBE_NXZ 10052360 f i libucrtd:output.obj
 0001:00051370       ?should_skip_type_state_output@?$standard_base@DV?$string_output_adapter@D@__crt_stdio_output@@@__crt_stdio_output@@IBE_NXZ 10052370 f i libucrtd:output.obj
 0001:00051380       ?should_skip_type_state_output@?$standard_base@_WV?$stream_output_adapter@_W@__crt_stdio_output@@@__crt_stdio_output@@IBE_NXZ 10052380 f i libucrtd:output.obj
 0001:00051390       ?should_skip_type_state_output@?$standard_base@_WV?$string_output_adapter@_W@__crt_stdio_output@@@__crt_stdio_output@@IBE_NXZ 10052390 f i libucrtd:output.obj
 0001:000513a0       ?state_case_dot@?$output_processor@DV?$stream_output_adapter@D@__crt_stdio_output@@V?$format_validation_base@DV?$stream_output_adapter@D@__crt_stdio_output@@@2@@__crt_stdio_output@@AAE_NXZ 100523a0 f i libucrtd:output.obj
 0001:000513c0       ?state_case_dot@?$output_processor@DV?$stream_output_adapter@D@__crt_stdio_output@@V?$positional_parameter_base@DV?$stream_output_adapter@D@__crt_stdio_output@@@2@@__crt_stdio_output@@AAE_NXZ 100523c0 f i libucrtd:output.obj
 0001:000513e0       ?state_case_dot@?$output_processor@DV?$stream_output_adapter@D@__crt_stdio_output@@V?$standard_base@DV?$stream_output_adapter@D@__crt_stdio_output@@@2@@__crt_stdio_output@@AAE_NXZ 100523e0 f i libucrtd:output.obj
 0001:00051400       ?state_case_dot@?$output_processor@DV?$string_output_adapter@D@__crt_stdio_output@@V?$format_validation_base@DV?$string_output_adapter@D@__crt_stdio_output@@@2@@__crt_stdio_output@@AAE_NXZ 10052400 f i libucrtd:output.obj
 0001:00051420       ?state_case_dot@?$output_processor@DV?$string_output_adapter@D@__crt_stdio_output@@V?$positional_parameter_base@DV?$string_output_adapter@D@__crt_stdio_output@@@2@@__crt_stdio_output@@AAE_NXZ 10052420 f i libucrtd:output.obj
 0001:00051440       ?state_case_dot@?$output_processor@DV?$string_output_adapter@D@__crt_stdio_output@@V?$standard_base@DV?$string_output_adapter@D@__crt_stdio_output@@@2@@__crt_stdio_output@@AAE_NXZ 10052440 f i libucrtd:output.obj
 0001:00051460       ?state_case_dot@?$output_processor@_WV?$stream_output_adapter@_W@__crt_stdio_output@@V?$format_validation_base@_WV?$stream_output_adapter@_W@__crt_stdio_output@@@2@@__crt_stdio_output@@AAE_NXZ 10052460 f i libucrtd:output.obj
 0001:00051480       ?state_case_dot@?$output_processor@_WV?$stream_output_adapter@_W@__crt_stdio_output@@V?$positional_parameter_base@_WV?$stream_output_adapter@_W@__crt_stdio_output@@@2@@__crt_stdio_output@@AAE_NXZ 10052480 f i libucrtd:output.obj
 0001:000514a0       ?state_case_dot@?$output_processor@_WV?$stream_output_adapter@_W@__crt_stdio_output@@V?$standard_base@_WV?$stream_output_adapter@_W@__crt_stdio_output@@@2@@__crt_stdio_output@@AAE_NXZ 100524a0 f i libucrtd:output.obj
 0001:000514c0       ?state_case_dot@?$output_processor@_WV?$string_output_adapter@_W@__crt_stdio_output@@V?$format_validation_base@_WV?$string_output_adapter@_W@__crt_stdio_output@@@2@@__crt_stdio_output@@AAE_NXZ 100524c0 f i libucrtd:output.obj
 0001:000514e0       ?state_case_dot@?$output_processor@_WV?$string_output_adapter@_W@__crt_stdio_output@@V?$positional_parameter_base@_WV?$string_output_adapter@_W@__crt_stdio_output@@@2@@__crt_stdio_output@@AAE_NXZ 100524e0 f i libucrtd:output.obj
 0001:00051500       ?state_case_dot@?$output_processor@_WV?$string_output_adapter@_W@__crt_stdio_output@@V?$standard_base@_WV?$string_output_adapter@_W@__crt_stdio_output@@@2@@__crt_stdio_output@@AAE_NXZ 10052500 f i libucrtd:output.obj
 0001:00051520       ?state_case_flag@?$output_processor@DV?$stream_output_adapter@D@__crt_stdio_output@@V?$format_validation_base@DV?$stream_output_adapter@D@__crt_stdio_output@@@2@@__crt_stdio_output@@AAE_NXZ 10052520 f i libucrtd:output.obj
 0001:000515d0       ?state_case_flag@?$output_processor@DV?$stream_output_adapter@D@__crt_stdio_output@@V?$positional_parameter_base@DV?$stream_output_adapter@D@__crt_stdio_output@@@2@@__crt_stdio_output@@AAE_NXZ 100525d0 f i libucrtd:output.obj
 0001:00051680       ?state_case_flag@?$output_processor@DV?$stream_output_adapter@D@__crt_stdio_output@@V?$standard_base@DV?$stream_output_adapter@D@__crt_stdio_output@@@2@@__crt_stdio_output@@AAE_NXZ 10052680 f i libucrtd:output.obj
 0001:00051730       ?state_case_flag@?$output_processor@DV?$string_output_adapter@D@__crt_stdio_output@@V?$format_validation_base@DV?$string_output_adapter@D@__crt_stdio_output@@@2@@__crt_stdio_output@@AAE_NXZ 10052730 f i libucrtd:output.obj
 0001:000517e0       ?state_case_flag@?$output_processor@DV?$string_output_adapter@D@__crt_stdio_output@@V?$positional_parameter_base@DV?$string_output_adapter@D@__crt_stdio_output@@@2@@__crt_stdio_output@@AAE_NXZ 100527e0 f i libucrtd:output.obj
 0001:00051890       ?state_case_flag@?$output_processor@DV?$string_output_adapter@D@__crt_stdio_output@@V?$standard_base@DV?$string_output_adapter@D@__crt_stdio_output@@@2@@__crt_stdio_output@@AAE_NXZ 10052890 f i libucrtd:output.obj
 0001:00051940       ?state_case_flag@?$output_processor@_WV?$stream_output_adapter@_W@__crt_stdio_output@@V?$format_validation_base@_WV?$stream_output_adapter@_W@__crt_stdio_output@@@2@@__crt_stdio_output@@AAE_NXZ 10052940 f i libucrtd:output.obj
 0001:000519f0       ?state_case_flag@?$output_processor@_WV?$stream_output_adapter@_W@__crt_stdio_output@@V?$positional_parameter_base@_WV?$stream_output_adapter@_W@__crt_stdio_output@@@2@@__crt_stdio_output@@AAE_NXZ 100529f0 f i libucrtd:output.obj
 0001:00051aa0       ?state_case_flag@?$output_processor@_WV?$stream_output_adapter@_W@__crt_stdio_output@@V?$standard_base@_WV?$stream_output_adapter@_W@__crt_stdio_output@@@2@@__crt_stdio_output@@AAE_NXZ 10052aa0 f i libucrtd:output.obj
 0001:00051b50       ?state_case_flag@?$output_processor@_WV?$string_output_adapter@_W@__crt_stdio_output@@V?$format_validation_base@_WV?$string_output_adapter@_W@__crt_stdio_output@@@2@@__crt_stdio_output@@AAE_NXZ 10052b50 f i libucrtd:output.obj
 0001:00051c00       ?state_case_flag@?$output_processor@_WV?$string_output_adapter@_W@__crt_stdio_output@@V?$positional_parameter_base@_WV?$string_output_adapter@_W@__crt_stdio_output@@@2@@__crt_stdio_output@@AAE_NXZ 10052c00 f i libucrtd:output.obj
 0001:00051cb0       ?state_case_flag@?$output_processor@_WV?$string_output_adapter@_W@__crt_stdio_output@@V?$standard_base@_WV?$string_output_adapter@_W@__crt_stdio_output@@@2@@__crt_stdio_output@@AAE_NXZ 10052cb0 f i libucrtd:output.obj
 0001:00051d60       ?state_case_normal@?$output_processor@DV?$stream_output_adapter@D@__crt_stdio_output@@V?$format_validation_base@DV?$stream_output_adapter@D@__crt_stdio_output@@@2@@__crt_stdio_output@@AAE_NXZ 10052d60 f i libucrtd:output.obj
 0001:00051e10       ?state_case_normal@?$output_processor@DV?$stream_output_adapter@D@__crt_stdio_output@@V?$positional_parameter_base@DV?$stream_output_adapter@D@__crt_stdio_output@@@2@@__crt_stdio_output@@AAE_NXZ 10052e10 f i libucrtd:output.obj
 0001:00051ec0       ?state_case_normal@?$output_processor@DV?$stream_output_adapter@D@__crt_stdio_output@@V?$standard_base@DV?$stream_output_adapter@D@__crt_stdio_output@@@2@@__crt_stdio_output@@AAE_NXZ 10052ec0 f i libucrtd:output.obj
 0001:00051f70       ?state_case_normal@?$output_processor@DV?$string_output_adapter@D@__crt_stdio_output@@V?$format_validation_base@DV?$string_output_adapter@D@__crt_stdio_output@@@2@@__crt_stdio_output@@AAE_NXZ 10052f70 f i libucrtd:output.obj
 0001:00052020       ?state_case_normal@?$output_processor@DV?$string_output_adapter@D@__crt_stdio_output@@V?$positional_parameter_base@DV?$string_output_adapter@D@__crt_stdio_output@@@2@@__crt_stdio_output@@AAE_NXZ 10053020 f i libucrtd:output.obj
 0001:000520d0       ?state_case_normal@?$output_processor@DV?$string_output_adapter@D@__crt_stdio_output@@V?$standard_base@DV?$string_output_adapter@D@__crt_stdio_output@@@2@@__crt_stdio_output@@AAE_NXZ 100530d0 f i libucrtd:output.obj
 0001:00052180       ?state_case_normal@?$output_processor@_WV?$stream_output_adapter@_W@__crt_stdio_output@@V?$format_validation_base@_WV?$stream_output_adapter@_W@__crt_stdio_output@@@2@@__crt_stdio_output@@AAE_NXZ 10053180 f i libucrtd:output.obj
 0001:00052230       ?state_case_normal@?$output_processor@_WV?$stream_output_adapter@_W@__crt_stdio_output@@V?$positional_parameter_base@_WV?$stream_output_adapter@_W@__crt_stdio_output@@@2@@__crt_stdio_output@@AAE_NXZ 10053230 f i libucrtd:output.obj
 0001:000522e0       ?state_case_normal@?$output_processor@_WV?$stream_output_adapter@_W@__crt_stdio_output@@V?$standard_base@_WV?$stream_output_adapter@_W@__crt_stdio_output@@@2@@__crt_stdio_output@@AAE_NXZ 100532e0 f i libucrtd:output.obj
 0001:00052390       ?state_case_normal@?$output_processor@_WV?$string_output_adapter@_W@__crt_stdio_output@@V?$format_validation_base@_WV?$string_output_adapter@_W@__crt_stdio_output@@@2@@__crt_stdio_output@@AAE_NXZ 10053390 f i libucrtd:output.obj
 0001:00052440       ?state_case_normal@?$output_processor@_WV?$string_output_adapter@_W@__crt_stdio_output@@V?$positional_parameter_base@_WV?$string_output_adapter@_W@__crt_stdio_output@@@2@@__crt_stdio_output@@AAE_NXZ 10053440 f i libucrtd:output.obj
 0001:000524f0       ?state_case_normal@?$output_processor@_WV?$string_output_adapter@_W@__crt_stdio_output@@V?$standard_base@_WV?$string_output_adapter@_W@__crt_stdio_output@@@2@@__crt_stdio_output@@AAE_NXZ 100534f0 f i libucrtd:output.obj
 0001:000525a0       ?state_case_normal_common@?$output_processor@DV?$stream_output_adapter@D@__crt_stdio_output@@V?$format_validation_base@DV?$stream_output_adapter@D@__crt_stdio_output@@@2@@__crt_stdio_output@@AAE_NXZ 100535a0 f i libucrtd:output.obj
 0001:000525f0       ?state_case_normal_common@?$output_processor@DV?$stream_output_adapter@D@__crt_stdio_output@@V?$positional_parameter_base@DV?$stream_output_adapter@D@__crt_stdio_output@@@2@@__crt_stdio_output@@AAE_NXZ 100535f0 f i libucrtd:output.obj
 0001:00052640       ?state_case_normal_common@?$output_processor@DV?$stream_output_adapter@D@__crt_stdio_output@@V?$standard_base@DV?$stream_output_adapter@D@__crt_stdio_output@@@2@@__crt_stdio_output@@AAE_NXZ 10053640 f i libucrtd:output.obj
 0001:00052690       ?state_case_normal_common@?$output_processor@DV?$string_output_adapter@D@__crt_stdio_output@@V?$format_validation_base@DV?$string_output_adapter@D@__crt_stdio_output@@@2@@__crt_stdio_output@@AAE_NXZ 10053690 f i libucrtd:output.obj
 0001:000526e0       ?state_case_normal_common@?$output_processor@DV?$string_output_adapter@D@__crt_stdio_output@@V?$positional_parameter_base@DV?$string_output_adapter@D@__crt_stdio_output@@@2@@__crt_stdio_output@@AAE_NXZ 100536e0 f i libucrtd:output.obj
 0001:00052730       ?state_case_normal_common@?$output_processor@DV?$string_output_adapter@D@__crt_stdio_output@@V?$standard_base@DV?$string_output_adapter@D@__crt_stdio_output@@@2@@__crt_stdio_output@@AAE_NXZ 10053730 f i libucrtd:output.obj
 0001:00052780       ?state_case_normal_common@?$output_processor@_WV?$stream_output_adapter@_W@__crt_stdio_output@@V?$format_validation_base@_WV?$stream_output_adapter@_W@__crt_stdio_output@@@2@@__crt_stdio_output@@AAE_NXZ 10053780 f i libucrtd:output.obj
 0001:000527d0       ?state_case_normal_common@?$output_processor@_WV?$stream_output_adapter@_W@__crt_stdio_output@@V?$positional_parameter_base@_WV?$stream_output_adapter@_W@__crt_stdio_output@@@2@@__crt_stdio_output@@AAE_NXZ 100537d0 f i libucrtd:output.obj
 0001:00052820       ?state_case_normal_common@?$output_processor@_WV?$stream_output_adapter@_W@__crt_stdio_output@@V?$standard_base@_WV?$stream_output_adapter@_W@__crt_stdio_output@@@2@@__crt_stdio_output@@AAE_NXZ 10053820 f i libucrtd:output.obj
 0001:00052870       ?state_case_normal_common@?$output_processor@_WV?$string_output_adapter@_W@__crt_stdio_output@@V?$format_validation_base@_WV?$string_output_adapter@_W@__crt_stdio_output@@@2@@__crt_stdio_output@@AAE_NXZ 10053870 f i libucrtd:output.obj
 0001:000528c0       ?state_case_normal_common@?$output_processor@_WV?$string_output_adapter@_W@__crt_stdio_output@@V?$positional_parameter_base@_WV?$string_output_adapter@_W@__crt_stdio_output@@@2@@__crt_stdio_output@@AAE_NXZ 100538c0 f i libucrtd:output.obj
 0001:00052910       ?state_case_normal_common@?$output_processor@_WV?$string_output_adapter@_W@__crt_stdio_output@@V?$standard_base@_WV?$string_output_adapter@_W@__crt_stdio_output@@@2@@__crt_stdio_output@@AAE_NXZ 10053910 f i libucrtd:output.obj
 0001:00052960       ?state_case_normal_tchar@?$output_processor@DV?$stream_output_adapter@D@__crt_stdio_output@@V?$format_validation_base@DV?$stream_output_adapter@D@__crt_stdio_output@@@2@@__crt_stdio_output@@AAE_ND@Z 10053960 f i libucrtd:output.obj
 0001:00052a60       ?state_case_normal_tchar@?$output_processor@DV?$stream_output_adapter@D@__crt_stdio_output@@V?$positional_parameter_base@DV?$stream_output_adapter@D@__crt_stdio_output@@@2@@__crt_stdio_output@@AAE_ND@Z 10053a60 f i libucrtd:output.obj
 0001:00052b60       ?state_case_normal_tchar@?$output_processor@DV?$stream_output_adapter@D@__crt_stdio_output@@V?$standard_base@DV?$stream_output_adapter@D@__crt_stdio_output@@@2@@__crt_stdio_output@@AAE_ND@Z 10053b60 f i libucrtd:output.obj
 0001:00052c60       ?state_case_normal_tchar@?$output_processor@DV?$string_output_adapter@D@__crt_stdio_output@@V?$format_validation_base@DV?$string_output_adapter@D@__crt_stdio_output@@@2@@__crt_stdio_output@@AAE_ND@Z 10053c60 f i libucrtd:output.obj
 0001:00052d60       ?state_case_normal_tchar@?$output_processor@DV?$string_output_adapter@D@__crt_stdio_output@@V?$positional_parameter_base@DV?$string_output_adapter@D@__crt_stdio_output@@@2@@__crt_stdio_output@@AAE_ND@Z 10053d60 f i libucrtd:output.obj
 0001:00052e60       ?state_case_normal_tchar@?$output_processor@DV?$string_output_adapter@D@__crt_stdio_output@@V?$standard_base@DV?$string_output_adapter@D@__crt_stdio_output@@@2@@__crt_stdio_output@@AAE_ND@Z 10053e60 f i libucrtd:output.obj
 0001:00052f60       ?state_case_normal_tchar@?$output_processor@_WV?$stream_output_adapter@_W@__crt_stdio_output@@V?$format_validation_base@_WV?$stream_output_adapter@_W@__crt_stdio_output@@@2@@__crt_stdio_output@@AAE_N_W@Z 10053f60 f i libucrtd:output.obj
 0001:00052f80       ?state_case_normal_tchar@?$output_processor@_WV?$stream_output_adapter@_W@__crt_stdio_output@@V?$positional_parameter_base@_WV?$stream_output_adapter@_W@__crt_stdio_output@@@2@@__crt_stdio_output@@AAE_N_W@Z 10053f80 f i libucrtd:output.obj
 0001:00052fa0       ?state_case_normal_tchar@?$output_processor@_WV?$stream_output_adapter@_W@__crt_stdio_output@@V?$standard_base@_WV?$stream_output_adapter@_W@__crt_stdio_output@@@2@@__crt_stdio_output@@AAE_N_W@Z 10053fa0 f i libucrtd:output.obj
 0001:00052fc0       ?state_case_normal_tchar@?$output_processor@_WV?$string_output_adapter@_W@__crt_stdio_output@@V?$format_validation_base@_WV?$string_output_adapter@_W@__crt_stdio_output@@@2@@__crt_stdio_output@@AAE_N_W@Z 10053fc0 f i libucrtd:output.obj
 0001:00052fe0       ?state_case_normal_tchar@?$output_processor@_WV?$string_output_adapter@_W@__crt_stdio_output@@V?$positional_parameter_base@_WV?$string_output_adapter@_W@__crt_stdio_output@@@2@@__crt_stdio_output@@AAE_N_W@Z 10053fe0 f i libucrtd:output.obj
 0001:00053000       ?state_case_normal_tchar@?$output_processor@_WV?$string_output_adapter@_W@__crt_stdio_output@@V?$standard_base@_WV?$string_output_adapter@_W@__crt_stdio_output@@@2@@__crt_stdio_output@@AAE_N_W@Z 10054000 f i libucrtd:output.obj
 0001:00053020       ?state_case_percent@?$output_processor@DV?$stream_output_adapter@D@__crt_stdio_output@@V?$format_validation_base@DV?$stream_output_adapter@D@__crt_stdio_output@@@2@@__crt_stdio_output@@AAE_NXZ 10054020 f i libucrtd:output.obj
 0001:00053070       ?state_case_percent@?$output_processor@DV?$stream_output_adapter@D@__crt_stdio_output@@V?$positional_parameter_base@DV?$stream_output_adapter@D@__crt_stdio_output@@@2@@__crt_stdio_output@@AAE_NXZ 10054070 f i libucrtd:output.obj
 0001:000530c0       ?state_case_percent@?$output_processor@DV?$stream_output_adapter@D@__crt_stdio_output@@V?$standard_base@DV?$stream_output_adapter@D@__crt_stdio_output@@@2@@__crt_stdio_output@@AAE_NXZ 100540c0 f i libucrtd:output.obj
 0001:00053110       ?state_case_percent@?$output_processor@DV?$string_output_adapter@D@__crt_stdio_output@@V?$format_validation_base@DV?$string_output_adapter@D@__crt_stdio_output@@@2@@__crt_stdio_output@@AAE_NXZ 10054110 f i libucrtd:output.obj
 0001:00053160       ?state_case_percent@?$output_processor@DV?$string_output_adapter@D@__crt_stdio_output@@V?$positional_parameter_base@DV?$string_output_adapter@D@__crt_stdio_output@@@2@@__crt_stdio_output@@AAE_NXZ 10054160 f i libucrtd:output.obj
 0001:000531b0       ?state_case_percent@?$output_processor@DV?$string_output_adapter@D@__crt_stdio_output@@V?$standard_base@DV?$string_output_adapter@D@__crt_stdio_output@@@2@@__crt_stdio_output@@AAE_NXZ 100541b0 f i libucrtd:output.obj
 0001:00053200       ?state_case_percent@?$output_processor@_WV?$stream_output_adapter@_W@__crt_stdio_output@@V?$format_validation_base@_WV?$stream_output_adapter@_W@__crt_stdio_output@@@2@@__crt_stdio_output@@AAE_NXZ 10054200 f i libucrtd:output.obj
 0001:00053250       ?state_case_percent@?$output_processor@_WV?$stream_output_adapter@_W@__crt_stdio_output@@V?$positional_parameter_base@_WV?$stream_output_adapter@_W@__crt_stdio_output@@@2@@__crt_stdio_output@@AAE_NXZ 10054250 f i libucrtd:output.obj
 0001:000532a0       ?state_case_percent@?$output_processor@_WV?$stream_output_adapter@_W@__crt_stdio_output@@V?$standard_base@_WV?$stream_output_adapter@_W@__crt_stdio_output@@@2@@__crt_stdio_output@@AAE_NXZ 100542a0 f i libucrtd:output.obj
 0001:000532f0       ?state_case_percent@?$output_processor@_WV?$string_output_adapter@_W@__crt_stdio_output@@V?$format_validation_base@_WV?$string_output_adapter@_W@__crt_stdio_output@@@2@@__crt_stdio_output@@AAE_NXZ 100542f0 f i libucrtd:output.obj
 0001:00053340       ?state_case_percent@?$output_processor@_WV?$string_output_adapter@_W@__crt_stdio_output@@V?$positional_parameter_base@_WV?$string_output_adapter@_W@__crt_stdio_output@@@2@@__crt_stdio_output@@AAE_NXZ 10054340 f i libucrtd:output.obj
 0001:00053390       ?state_case_percent@?$output_processor@_WV?$string_output_adapter@_W@__crt_stdio_output@@V?$standard_base@_WV?$string_output_adapter@_W@__crt_stdio_output@@@2@@__crt_stdio_output@@AAE_NXZ 10054390 f i libucrtd:output.obj
 0001:000533e0       ?state_case_precision@?$output_processor@DV?$stream_output_adapter@D@__crt_stdio_output@@V?$format_validation_base@DV?$stream_output_adapter@D@__crt_stdio_output@@@2@@__crt_stdio_output@@AAE_NXZ 100543e0 f i libucrtd:output.obj
 0001:00053450       ?state_case_precision@?$output_processor@DV?$stream_output_adapter@D@__crt_stdio_output@@V?$positional_parameter_base@DV?$stream_output_adapter@D@__crt_stdio_output@@@2@@__crt_stdio_output@@AAE_NXZ 10054450 f i libucrtd:output.obj
 0001:000534c0       ?state_case_precision@?$output_processor@DV?$stream_output_adapter@D@__crt_stdio_output@@V?$standard_base@DV?$stream_output_adapter@D@__crt_stdio_output@@@2@@__crt_stdio_output@@AAE_NXZ 100544c0 f i libucrtd:output.obj
 0001:00053530       ?state_case_precision@?$output_processor@DV?$string_output_adapter@D@__crt_stdio_output@@V?$format_validation_base@DV?$string_output_adapter@D@__crt_stdio_output@@@2@@__crt_stdio_output@@AAE_NXZ 10054530 f i libucrtd:output.obj
 0001:000535a0       ?state_case_precision@?$output_processor@DV?$string_output_adapter@D@__crt_stdio_output@@V?$positional_parameter_base@DV?$string_output_adapter@D@__crt_stdio_output@@@2@@__crt_stdio_output@@AAE_NXZ 100545a0 f i libucrtd:output.obj
 0001:00053610       ?state_case_precision@?$output_processor@DV?$string_output_adapter@D@__crt_stdio_output@@V?$standard_base@DV?$string_output_adapter@D@__crt_stdio_output@@@2@@__crt_stdio_output@@AAE_NXZ 10054610 f i libucrtd:output.obj
 0001:00053680       ?state_case_precision@?$output_processor@_WV?$stream_output_adapter@_W@__crt_stdio_output@@V?$format_validation_base@_WV?$stream_output_adapter@_W@__crt_stdio_output@@@2@@__crt_stdio_output@@AAE_NXZ 10054680 f i libucrtd:output.obj
 0001:000536f0       ?state_case_precision@?$output_processor@_WV?$stream_output_adapter@_W@__crt_stdio_output@@V?$positional_parameter_base@_WV?$stream_output_adapter@_W@__crt_stdio_output@@@2@@__crt_stdio_output@@AAE_NXZ 100546f0 f i libucrtd:output.obj
 0001:00053760       ?state_case_precision@?$output_processor@_WV?$stream_output_adapter@_W@__crt_stdio_output@@V?$standard_base@_WV?$stream_output_adapter@_W@__crt_stdio_output@@@2@@__crt_stdio_output@@AAE_NXZ 10054760 f i libucrtd:output.obj
 0001:000537d0       ?state_case_precision@?$output_processor@_WV?$string_output_adapter@_W@__crt_stdio_output@@V?$format_validation_base@_WV?$string_output_adapter@_W@__crt_stdio_output@@@2@@__crt_stdio_output@@AAE_NXZ 100547d0 f i libucrtd:output.obj
 0001:00053840       ?state_case_precision@?$output_processor@_WV?$string_output_adapter@_W@__crt_stdio_output@@V?$positional_parameter_base@_WV?$string_output_adapter@_W@__crt_stdio_output@@@2@@__crt_stdio_output@@AAE_NXZ 10054840 f i libucrtd:output.obj
 0001:000538b0       ?state_case_precision@?$output_processor@_WV?$string_output_adapter@_W@__crt_stdio_output@@V?$standard_base@_WV?$string_output_adapter@_W@__crt_stdio_output@@@2@@__crt_stdio_output@@AAE_NXZ 100548b0 f i libucrtd:output.obj
 0001:00053920       ?state_case_size@?$output_processor@DV?$stream_output_adapter@D@__crt_stdio_output@@V?$format_validation_base@DV?$stream_output_adapter@D@__crt_stdio_output@@@2@@__crt_stdio_output@@AAE_NXZ 10054920 f i libucrtd:output.obj
 0001:00053cf0       ?state_case_size@?$output_processor@DV?$stream_output_adapter@D@__crt_stdio_output@@V?$positional_parameter_base@DV?$stream_output_adapter@D@__crt_stdio_output@@@2@@__crt_stdio_output@@AAE_NXZ 10054cf0 f i libucrtd:output.obj
 0001:000540c0       ?state_case_size@?$output_processor@DV?$stream_output_adapter@D@__crt_stdio_output@@V?$standard_base@DV?$stream_output_adapter@D@__crt_stdio_output@@@2@@__crt_stdio_output@@AAE_NXZ 100550c0 f i libucrtd:output.obj
 0001:00054490       ?state_case_size@?$output_processor@DV?$string_output_adapter@D@__crt_stdio_output@@V?$format_validation_base@DV?$string_output_adapter@D@__crt_stdio_output@@@2@@__crt_stdio_output@@AAE_NXZ 10055490 f i libucrtd:output.obj
 0001:00054860       ?state_case_size@?$output_processor@DV?$string_output_adapter@D@__crt_stdio_output@@V?$positional_parameter_base@DV?$string_output_adapter@D@__crt_stdio_output@@@2@@__crt_stdio_output@@AAE_NXZ 10055860 f i libucrtd:output.obj
 0001:00054c30       ?state_case_size@?$output_processor@DV?$string_output_adapter@D@__crt_stdio_output@@V?$standard_base@DV?$string_output_adapter@D@__crt_stdio_output@@@2@@__crt_stdio_output@@AAE_NXZ 10055c30 f i libucrtd:output.obj
 0001:00055000       ?state_case_size@?$output_processor@_WV?$stream_output_adapter@_W@__crt_stdio_output@@V?$format_validation_base@_WV?$stream_output_adapter@_W@__crt_stdio_output@@@2@@__crt_stdio_output@@AAE_NXZ 10056000 f i libucrtd:output.obj
 0001:000553d0       ?state_case_size@?$output_processor@_WV?$stream_output_adapter@_W@__crt_stdio_output@@V?$positional_parameter_base@_WV?$stream_output_adapter@_W@__crt_stdio_output@@@2@@__crt_stdio_output@@AAE_NXZ 100563d0 f i libucrtd:output.obj
 0001:000557a0       ?state_case_size@?$output_processor@_WV?$stream_output_adapter@_W@__crt_stdio_output@@V?$standard_base@_WV?$stream_output_adapter@_W@__crt_stdio_output@@@2@@__crt_stdio_output@@AAE_NXZ 100567a0 f i libucrtd:output.obj
 0001:00055b70       ?state_case_size@?$output_processor@_WV?$string_output_adapter@_W@__crt_stdio_output@@V?$format_validation_base@_WV?$string_output_adapter@_W@__crt_stdio_output@@@2@@__crt_stdio_output@@AAE_NXZ 10056b70 f i libucrtd:output.obj
 0001:00055f40       ?state_case_size@?$output_processor@_WV?$string_output_adapter@_W@__crt_stdio_output@@V?$positional_parameter_base@_WV?$string_output_adapter@_W@__crt_stdio_output@@@2@@__crt_stdio_output@@AAE_NXZ 10056f40 f i libucrtd:output.obj
 0001:00056310       ?state_case_size@?$output_processor@_WV?$string_output_adapter@_W@__crt_stdio_output@@V?$standard_base@_WV?$string_output_adapter@_W@__crt_stdio_output@@@2@@__crt_stdio_output@@AAE_NXZ 10057310 f i libucrtd:output.obj
 0001:000566e0       ?state_case_type@?$output_processor@DV?$stream_output_adapter@D@__crt_stdio_output@@V?$format_validation_base@DV?$stream_output_adapter@D@__crt_stdio_output@@@2@@__crt_stdio_output@@AAE_NXZ 100576e0 f i libucrtd:output.obj
 0001:00056a90       ?state_case_type@?$output_processor@DV?$stream_output_adapter@D@__crt_stdio_output@@V?$positional_parameter_base@DV?$stream_output_adapter@D@__crt_stdio_output@@@2@@__crt_stdio_output@@AAE_NXZ 10057a90 f i libucrtd:output.obj
 0001:00056e40       ?state_case_type@?$output_processor@DV?$stream_output_adapter@D@__crt_stdio_output@@V?$standard_base@DV?$stream_output_adapter@D@__crt_stdio_output@@@2@@__crt_stdio_output@@AAE_NXZ 10057e40 f i libucrtd:output.obj
 0001:000571f0       ?state_case_type@?$output_processor@DV?$string_output_adapter@D@__crt_stdio_output@@V?$format_validation_base@DV?$string_output_adapter@D@__crt_stdio_output@@@2@@__crt_stdio_output@@AAE_NXZ 100581f0 f i libucrtd:output.obj
 0001:000575a0       ?state_case_type@?$output_processor@DV?$string_output_adapter@D@__crt_stdio_output@@V?$positional_parameter_base@DV?$string_output_adapter@D@__crt_stdio_output@@@2@@__crt_stdio_output@@AAE_NXZ 100585a0 f i libucrtd:output.obj
 0001:00057950       ?state_case_type@?$output_processor@DV?$string_output_adapter@D@__crt_stdio_output@@V?$standard_base@DV?$string_output_adapter@D@__crt_stdio_output@@@2@@__crt_stdio_output@@AAE_NXZ 10058950 f i libucrtd:output.obj
 0001:00057d00       ?state_case_type@?$output_processor@_WV?$stream_output_adapter@_W@__crt_stdio_output@@V?$format_validation_base@_WV?$stream_output_adapter@_W@__crt_stdio_output@@@2@@__crt_stdio_output@@AAE_NXZ 10058d00 f i libucrtd:output.obj
 0001:000580e0       ?state_case_type@?$output_processor@_WV?$stream_output_adapter@_W@__crt_stdio_output@@V?$positional_parameter_base@_WV?$stream_output_adapter@_W@__crt_stdio_output@@@2@@__crt_stdio_output@@AAE_NXZ 100590e0 f i libucrtd:output.obj
 0001:000584c0       ?state_case_type@?$output_processor@_WV?$stream_output_adapter@_W@__crt_stdio_output@@V?$standard_base@_WV?$stream_output_adapter@_W@__crt_stdio_output@@@2@@__crt_stdio_output@@AAE_NXZ 100594c0 f i libucrtd:output.obj
 0001:000588a0       ?state_case_type@?$output_processor@_WV?$string_output_adapter@_W@__crt_stdio_output@@V?$format_validation_base@_WV?$string_output_adapter@_W@__crt_stdio_output@@@2@@__crt_stdio_output@@AAE_NXZ 100598a0 f i libucrtd:output.obj
 0001:00058c80       ?state_case_type@?$output_processor@_WV?$string_output_adapter@_W@__crt_stdio_output@@V?$positional_parameter_base@_WV?$string_output_adapter@_W@__crt_stdio_output@@@2@@__crt_stdio_output@@AAE_NXZ 10059c80 f i libucrtd:output.obj
 0001:00059060       ?state_case_type@?$output_processor@_WV?$string_output_adapter@_W@__crt_stdio_output@@V?$standard_base@_WV?$string_output_adapter@_W@__crt_stdio_output@@@2@@__crt_stdio_output@@AAE_NXZ 1005a060 f i libucrtd:output.obj
 0001:00059440       ?state_case_width@?$output_processor@DV?$stream_output_adapter@D@__crt_stdio_output@@V?$format_validation_base@DV?$stream_output_adapter@D@__crt_stdio_output@@@2@@__crt_stdio_output@@AAE_NXZ 1005a440 f i libucrtd:output.obj
 0001:000594c0       ?state_case_width@?$output_processor@DV?$stream_output_adapter@D@__crt_stdio_output@@V?$positional_parameter_base@DV?$stream_output_adapter@D@__crt_stdio_output@@@2@@__crt_stdio_output@@AAE_NXZ 1005a4c0 f i libucrtd:output.obj
 0001:00059540       ?state_case_width@?$output_processor@DV?$stream_output_adapter@D@__crt_stdio_output@@V?$standard_base@DV?$stream_output_adapter@D@__crt_stdio_output@@@2@@__crt_stdio_output@@AAE_NXZ 1005a540 f i libucrtd:output.obj
 0001:000595c0       ?state_case_width@?$output_processor@DV?$string_output_adapter@D@__crt_stdio_output@@V?$format_validation_base@DV?$string_output_adapter@D@__crt_stdio_output@@@2@@__crt_stdio_output@@AAE_NXZ 1005a5c0 f i libucrtd:output.obj
 0001:00059640       ?state_case_width@?$output_processor@DV?$string_output_adapter@D@__crt_stdio_output@@V?$positional_parameter_base@DV?$string_output_adapter@D@__crt_stdio_output@@@2@@__crt_stdio_output@@AAE_NXZ 1005a640 f i libucrtd:output.obj
 0001:000596c0       ?state_case_width@?$output_processor@DV?$string_output_adapter@D@__crt_stdio_output@@V?$standard_base@DV?$string_output_adapter@D@__crt_stdio_output@@@2@@__crt_stdio_output@@AAE_NXZ 1005a6c0 f i libucrtd:output.obj
 0001:00059740       ?state_case_width@?$output_processor@_WV?$stream_output_adapter@_W@__crt_stdio_output@@V?$format_validation_base@_WV?$stream_output_adapter@_W@__crt_stdio_output@@@2@@__crt_stdio_output@@AAE_NXZ 1005a740 f i libucrtd:output.obj
 0001:000597c0       ?state_case_width@?$output_processor@_WV?$stream_output_adapter@_W@__crt_stdio_output@@V?$positional_parameter_base@_WV?$stream_output_adapter@_W@__crt_stdio_output@@@2@@__crt_stdio_output@@AAE_NXZ 1005a7c0 f i libucrtd:output.obj
 0001:00059840       ?state_case_width@?$output_processor@_WV?$stream_output_adapter@_W@__crt_stdio_output@@V?$standard_base@_WV?$stream_output_adapter@_W@__crt_stdio_output@@@2@@__crt_stdio_output@@AAE_NXZ 1005a840 f i libucrtd:output.obj
 0001:000598c0       ?state_case_width@?$output_processor@_WV?$string_output_adapter@_W@__crt_stdio_output@@V?$format_validation_base@_WV?$string_output_adapter@_W@__crt_stdio_output@@@2@@__crt_stdio_output@@AAE_NXZ 1005a8c0 f i libucrtd:output.obj
 0001:00059940       ?state_case_width@?$output_processor@_WV?$string_output_adapter@_W@__crt_stdio_output@@V?$positional_parameter_base@_WV?$string_output_adapter@_W@__crt_stdio_output@@@2@@__crt_stdio_output@@AAE_NXZ 1005a940 f i libucrtd:output.obj
 0001:000599c0       ?state_case_width@?$output_processor@_WV?$string_output_adapter@_W@__crt_stdio_output@@V?$standard_base@_WV?$string_output_adapter@_W@__crt_stdio_output@@@2@@__crt_stdio_output@@AAE_NXZ 1005a9c0 f i libucrtd:output.obj
 0001:00059a40       ?state_count@?$format_validation_base@DV?$stream_output_adapter@D@__crt_stdio_output@@@__crt_stdio_output@@KAIXZ 1005aa40 f i libucrtd:output.obj
 0001:00059a50       ?state_count@?$format_validation_base@DV?$string_output_adapter@D@__crt_stdio_output@@@__crt_stdio_output@@KAIXZ 1005aa50 f i libucrtd:output.obj
 0001:00059a60       ?state_count@?$format_validation_base@_WV?$stream_output_adapter@_W@__crt_stdio_output@@@__crt_stdio_output@@KAIXZ 1005aa60 f i libucrtd:output.obj
 0001:00059a70       ?state_count@?$format_validation_base@_WV?$string_output_adapter@_W@__crt_stdio_output@@@__crt_stdio_output@@KAIXZ 1005aa70 f i libucrtd:output.obj
 0001:00059a80       ?state_count@?$standard_base@DV?$stream_output_adapter@D@__crt_stdio_output@@@__crt_stdio_output@@KAIXZ 1005aa80 f i libucrtd:output.obj
 0001:00059a90       ?state_count@?$standard_base@DV?$string_output_adapter@D@__crt_stdio_output@@@__crt_stdio_output@@KAIXZ 1005aa90 f i libucrtd:output.obj
 0001:00059aa0       ?state_count@?$standard_base@_WV?$stream_output_adapter@_W@__crt_stdio_output@@@__crt_stdio_output@@KAIXZ 1005aaa0 f i libucrtd:output.obj
 0001:00059ab0       ?state_count@?$standard_base@_WV?$string_output_adapter@_W@__crt_stdio_output@@@__crt_stdio_output@@KAIXZ 1005aab0 f i libucrtd:output.obj
 0001:00059ac0       ?state_transition_table@?$format_validation_base@DV?$stream_output_adapter@D@__crt_stdio_output@@@__crt_stdio_output@@KAABV?$spectre_mitigated_lookup_table@Ustate_transition_pair@__crt_stdio_output@@$0IA@@2@XZ 1005aac0 f i libucrtd:output.obj
 0001:00059ad0       ?state_transition_table@?$format_validation_base@DV?$string_output_adapter@D@__crt_stdio_output@@@__crt_stdio_output@@KAABV?$spectre_mitigated_lookup_table@Ustate_transition_pair@__crt_stdio_output@@$0IA@@2@XZ 1005aad0 f i libucrtd:output.obj
 0001:00059ae0       ?state_transition_table@?$format_validation_base@_WV?$stream_output_adapter@_W@__crt_stdio_output@@@__crt_stdio_output@@KAABV?$spectre_mitigated_lookup_table@Ustate_transition_pair@__crt_stdio_output@@$0IA@@2@XZ 1005aae0 f i libucrtd:output.obj
 0001:00059af0       ?state_transition_table@?$format_validation_base@_WV?$string_output_adapter@_W@__crt_stdio_output@@@__crt_stdio_output@@KAABV?$spectre_mitigated_lookup_table@Ustate_transition_pair@__crt_stdio_output@@$0IA@@2@XZ 1005aaf0 f i libucrtd:output.obj
 0001:00059b00       ?state_transition_table@?$standard_base@DV?$stream_output_adapter@D@__crt_stdio_output@@@__crt_stdio_output@@KAABV?$spectre_mitigated_lookup_table@Ustate_transition_pair@__crt_stdio_output@@$0IA@@2@XZ 1005ab00 f i libucrtd:output.obj
 0001:00059b10       ?state_transition_table@?$standard_base@DV?$string_output_adapter@D@__crt_stdio_output@@@__crt_stdio_output@@KAABV?$spectre_mitigated_lookup_table@Ustate_transition_pair@__crt_stdio_output@@$0IA@@2@XZ 1005ab10 f i libucrtd:output.obj
 0001:00059b20       ?state_transition_table@?$standard_base@_WV?$stream_output_adapter@_W@__crt_stdio_output@@@__crt_stdio_output@@KAABV?$spectre_mitigated_lookup_table@Ustate_transition_pair@__crt_stdio_output@@$0IA@@2@XZ 1005ab20 f i libucrtd:output.obj
 0001:00059b30       ?state_transition_table@?$standard_base@_WV?$string_output_adapter@_W@__crt_stdio_output@@@__crt_stdio_output@@KAABV?$spectre_mitigated_lookup_table@Ustate_transition_pair@__crt_stdio_output@@$0IA@@2@XZ 1005ab30 f i libucrtd:output.obj
 0001:00059b40       ?tchar_string@?$common_data@D@__crt_stdio_output@@IAEAAPADD@Z 1005ab40 f i libucrtd:output.obj
 0001:00059b60       ?tchar_string@?$common_data@D@__crt_stdio_output@@IAEAAPADXZ 1005ab60 f i libucrtd:output.obj
 0001:00059b80       ?tchar_string@?$common_data@_W@__crt_stdio_output@@IAEAAPA_WXZ 1005ab80 f i libucrtd:output.obj
 0001:00059ba0       ?tchar_string@?$common_data@_W@__crt_stdio_output@@IAEAAPA_W_W@Z 1005aba0 f i libucrtd:output.obj
 0001:00059bc0       ?to_integer_size@__crt_stdio_output@@YAIW4length_modifier@1@@Z 1005abc0 f i libucrtd:output.obj
 0001:00059c60       ?type_case_X@?$output_processor@DV?$stream_output_adapter@D@__crt_stdio_output@@V?$format_validation_base@DV?$stream_output_adapter@D@__crt_stdio_output@@@2@@__crt_stdio_output@@AAE_NXZ 1005ac60 f i libucrtd:output.obj
 0001:00059c80       ?type_case_X@?$output_processor@DV?$stream_output_adapter@D@__crt_stdio_output@@V?$positional_parameter_base@DV?$stream_output_adapter@D@__crt_stdio_output@@@2@@__crt_stdio_output@@AAE_NXZ 1005ac80 f i libucrtd:output.obj
 0001:00059ca0       ?type_case_X@?$output_processor@DV?$stream_output_adapter@D@__crt_stdio_output@@V?$standard_base@DV?$stream_output_adapter@D@__crt_stdio_output@@@2@@__crt_stdio_output@@AAE_NXZ 1005aca0 f i libucrtd:output.obj
 0001:00059cc0       ?type_case_X@?$output_processor@DV?$string_output_adapter@D@__crt_stdio_output@@V?$format_validation_base@DV?$string_output_adapter@D@__crt_stdio_output@@@2@@__crt_stdio_output@@AAE_NXZ 1005acc0 f i libucrtd:output.obj
 0001:00059ce0       ?type_case_X@?$output_processor@DV?$string_output_adapter@D@__crt_stdio_output@@V?$positional_parameter_base@DV?$string_output_adapter@D@__crt_stdio_output@@@2@@__crt_stdio_output@@AAE_NXZ 1005ace0 f i libucrtd:output.obj
 0001:00059d00       ?type_case_X@?$output_processor@DV?$string_output_adapter@D@__crt_stdio_output@@V?$standard_base@DV?$string_output_adapter@D@__crt_stdio_output@@@2@@__crt_stdio_output@@AAE_NXZ 1005ad00 f i libucrtd:output.obj
 0001:00059d20       ?type_case_X@?$output_processor@_WV?$stream_output_adapter@_W@__crt_stdio_output@@V?$format_validation_base@_WV?$stream_output_adapter@_W@__crt_stdio_output@@@2@@__crt_stdio_output@@AAE_NXZ 1005ad20 f i libucrtd:output.obj
 0001:00059d40       ?type_case_X@?$output_processor@_WV?$stream_output_adapter@_W@__crt_stdio_output@@V?$positional_parameter_base@_WV?$stream_output_adapter@_W@__crt_stdio_output@@@2@@__crt_stdio_output@@AAE_NXZ 1005ad40 f i libucrtd:output.obj
 0001:00059d60       ?type_case_X@?$output_processor@_WV?$stream_output_adapter@_W@__crt_stdio_output@@V?$standard_base@_WV?$stream_output_adapter@_W@__crt_stdio_output@@@2@@__crt_stdio_output@@AAE_NXZ 1005ad60 f i libucrtd:output.obj
 0001:00059d80       ?type_case_X@?$output_processor@_WV?$string_output_adapter@_W@__crt_stdio_output@@V?$format_validation_base@_WV?$string_output_adapter@_W@__crt_stdio_output@@@2@@__crt_stdio_output@@AAE_NXZ 1005ad80 f i libucrtd:output.obj
 0001:00059da0       ?type_case_X@?$output_processor@_WV?$string_output_adapter@_W@__crt_stdio_output@@V?$positional_parameter_base@_WV?$string_output_adapter@_W@__crt_stdio_output@@@2@@__crt_stdio_output@@AAE_NXZ 1005ada0 f i libucrtd:output.obj
 0001:00059dc0       ?type_case_X@?$output_processor@_WV?$string_output_adapter@_W@__crt_stdio_output@@V?$standard_base@_WV?$string_output_adapter@_W@__crt_stdio_output@@@2@@__crt_stdio_output@@AAE_NXZ 1005adc0 f i libucrtd:output.obj
 0001:00059de0       ?type_case_Z@?$output_processor@DV?$stream_output_adapter@D@__crt_stdio_output@@V?$format_validation_base@DV?$stream_output_adapter@D@__crt_stdio_output@@@2@@__crt_stdio_output@@AAE_NXZ 1005ade0 f i libucrtd:output.obj
 0001:00059ed0       ?type_case_Z@?$output_processor@DV?$stream_output_adapter@D@__crt_stdio_output@@V?$positional_parameter_base@DV?$stream_output_adapter@D@__crt_stdio_output@@@2@@__crt_stdio_output@@AAE_NXZ 1005aed0 f i libucrtd:output.obj
 0001:00059fc0       ?type_case_Z@?$output_processor@DV?$stream_output_adapter@D@__crt_stdio_output@@V?$standard_base@DV?$stream_output_adapter@D@__crt_stdio_output@@@2@@__crt_stdio_output@@AAE_NXZ 1005afc0 f i libucrtd:output.obj
 0001:0005a0b0       ?type_case_Z@?$output_processor@DV?$string_output_adapter@D@__crt_stdio_output@@V?$format_validation_base@DV?$string_output_adapter@D@__crt_stdio_output@@@2@@__crt_stdio_output@@AAE_NXZ 1005b0b0 f i libucrtd:output.obj
 0001:0005a1a0       ?type_case_Z@?$output_processor@DV?$string_output_adapter@D@__crt_stdio_output@@V?$positional_parameter_base@DV?$string_output_adapter@D@__crt_stdio_output@@@2@@__crt_stdio_output@@AAE_NXZ 1005b1a0 f i libucrtd:output.obj
 0001:0005a290       ?type_case_Z@?$output_processor@DV?$string_output_adapter@D@__crt_stdio_output@@V?$standard_base@DV?$string_output_adapter@D@__crt_stdio_output@@@2@@__crt_stdio_output@@AAE_NXZ 1005b290 f i libucrtd:output.obj
 0001:0005a380       ?type_case_Z@?$output_processor@_WV?$stream_output_adapter@_W@__crt_stdio_output@@V?$format_validation_base@_WV?$stream_output_adapter@_W@__crt_stdio_output@@@2@@__crt_stdio_output@@AAE_NXZ 1005b380 f i libucrtd:output.obj
 0001:0005a470       ?type_case_Z@?$output_processor@_WV?$stream_output_adapter@_W@__crt_stdio_output@@V?$positional_parameter_base@_WV?$stream_output_adapter@_W@__crt_stdio_output@@@2@@__crt_stdio_output@@AAE_NXZ 1005b470 f i libucrtd:output.obj
 0001:0005a560       ?type_case_Z@?$output_processor@_WV?$stream_output_adapter@_W@__crt_stdio_output@@V?$standard_base@_WV?$stream_output_adapter@_W@__crt_stdio_output@@@2@@__crt_stdio_output@@AAE_NXZ 1005b560 f i libucrtd:output.obj
 0001:0005a650       ?type_case_Z@?$output_processor@_WV?$string_output_adapter@_W@__crt_stdio_output@@V?$format_validation_base@_WV?$string_output_adapter@_W@__crt_stdio_output@@@2@@__crt_stdio_output@@AAE_NXZ 1005b650 f i libucrtd:output.obj
 0001:0005a740       ?type_case_Z@?$output_processor@_WV?$string_output_adapter@_W@__crt_stdio_output@@V?$positional_parameter_base@_WV?$string_output_adapter@_W@__crt_stdio_output@@@2@@__crt_stdio_output@@AAE_NXZ 1005b740 f i libucrtd:output.obj
 0001:0005a830       ?type_case_Z@?$output_processor@_WV?$string_output_adapter@_W@__crt_stdio_output@@V?$standard_base@_WV?$string_output_adapter@_W@__crt_stdio_output@@@2@@__crt_stdio_output@@AAE_NXZ 1005b830 f i libucrtd:output.obj
 0001:0005a920       ?type_case_a@?$output_processor@DV?$stream_output_adapter@D@__crt_stdio_output@@V?$format_validation_base@DV?$stream_output_adapter@D@__crt_stdio_output@@@2@@__crt_stdio_output@@AAE_NXZ 1005b920 f i libucrtd:output.obj
 0001:0005ab90       ?type_case_a@?$output_processor@DV?$stream_output_adapter@D@__crt_stdio_output@@V?$positional_parameter_base@DV?$stream_output_adapter@D@__crt_stdio_output@@@2@@__crt_stdio_output@@AAE_NXZ 1005bb90 f i libucrtd:output.obj
 0001:0005ae00       ?type_case_a@?$output_processor@DV?$stream_output_adapter@D@__crt_stdio_output@@V?$standard_base@DV?$stream_output_adapter@D@__crt_stdio_output@@@2@@__crt_stdio_output@@AAE_NXZ 1005be00 f i libucrtd:output.obj
 0001:0005b070       ?type_case_a@?$output_processor@DV?$string_output_adapter@D@__crt_stdio_output@@V?$format_validation_base@DV?$string_output_adapter@D@__crt_stdio_output@@@2@@__crt_stdio_output@@AAE_NXZ 1005c070 f i libucrtd:output.obj
 0001:0005b2e0       ?type_case_a@?$output_processor@DV?$string_output_adapter@D@__crt_stdio_output@@V?$positional_parameter_base@DV?$string_output_adapter@D@__crt_stdio_output@@@2@@__crt_stdio_output@@AAE_NXZ 1005c2e0 f i libucrtd:output.obj
 0001:0005b550       ?type_case_a@?$output_processor@DV?$string_output_adapter@D@__crt_stdio_output@@V?$standard_base@DV?$string_output_adapter@D@__crt_stdio_output@@@2@@__crt_stdio_output@@AAE_NXZ 1005c550 f i libucrtd:output.obj
 0001:0005b7c0       ?type_case_a@?$output_processor@_WV?$stream_output_adapter@_W@__crt_stdio_output@@V?$format_validation_base@_WV?$stream_output_adapter@_W@__crt_stdio_output@@@2@@__crt_stdio_output@@AAE_NXZ 1005c7c0 f i libucrtd:output.obj
 0001:0005ba30       ?type_case_a@?$output_processor@_WV?$stream_output_adapter@_W@__crt_stdio_output@@V?$positional_parameter_base@_WV?$stream_output_adapter@_W@__crt_stdio_output@@@2@@__crt_stdio_output@@AAE_NXZ 1005ca30 f i libucrtd:output.obj
 0001:0005bca0       ?type_case_a@?$output_processor@_WV?$stream_output_adapter@_W@__crt_stdio_output@@V?$standard_base@_WV?$stream_output_adapter@_W@__crt_stdio_output@@@2@@__crt_stdio_output@@AAE_NXZ 1005cca0 f i libucrtd:output.obj
 0001:0005bf10       ?type_case_a@?$output_processor@_WV?$string_output_adapter@_W@__crt_stdio_output@@V?$format_validation_base@_WV?$string_output_adapter@_W@__crt_stdio_output@@@2@@__crt_stdio_output@@AAE_NXZ 1005cf10 f i libucrtd:output.obj
 0001:0005c180       ?type_case_a@?$output_processor@_WV?$string_output_adapter@_W@__crt_stdio_output@@V?$positional_parameter_base@_WV?$string_output_adapter@_W@__crt_stdio_output@@@2@@__crt_stdio_output@@AAE_NXZ 1005d180 f i libucrtd:output.obj
 0001:0005c3f0       ?type_case_a@?$output_processor@_WV?$string_output_adapter@_W@__crt_stdio_output@@V?$standard_base@_WV?$string_output_adapter@_W@__crt_stdio_output@@@2@@__crt_stdio_output@@AAE_NXZ 1005d3f0 f i libucrtd:output.obj
 0001:0005c660       ?type_case_c@?$output_processor@DV?$stream_output_adapter@D@__crt_stdio_output@@V?$format_validation_base@DV?$stream_output_adapter@D@__crt_stdio_output@@@2@@__crt_stdio_output@@AAE_NXZ 1005d660 f i libucrtd:output.obj
 0001:0005c680       ?type_case_c@?$output_processor@DV?$stream_output_adapter@D@__crt_stdio_output@@V?$positional_parameter_base@DV?$stream_output_adapter@D@__crt_stdio_output@@@2@@__crt_stdio_output@@AAE_NXZ 1005d680 f i libucrtd:output.obj
 0001:0005c6a0       ?type_case_c@?$output_processor@DV?$stream_output_adapter@D@__crt_stdio_output@@V?$standard_base@DV?$stream_output_adapter@D@__crt_stdio_output@@@2@@__crt_stdio_output@@AAE_NXZ 1005d6a0 f i libucrtd:output.obj
 0001:0005c6c0       ?type_case_c@?$output_processor@DV?$string_output_adapter@D@__crt_stdio_output@@V?$format_validation_base@DV?$string_output_adapter@D@__crt_stdio_output@@@2@@__crt_stdio_output@@AAE_NXZ 1005d6c0 f i libucrtd:output.obj
 0001:0005c6e0       ?type_case_c@?$output_processor@DV?$string_output_adapter@D@__crt_stdio_output@@V?$positional_parameter_base@DV?$string_output_adapter@D@__crt_stdio_output@@@2@@__crt_stdio_output@@AAE_NXZ 1005d6e0 f i libucrtd:output.obj
 0001:0005c700       ?type_case_c@?$output_processor@DV?$string_output_adapter@D@__crt_stdio_output@@V?$standard_base@DV?$string_output_adapter@D@__crt_stdio_output@@@2@@__crt_stdio_output@@AAE_NXZ 1005d700 f i libucrtd:output.obj
 0001:0005c720       ?type_case_c@?$output_processor@_WV?$stream_output_adapter@_W@__crt_stdio_output@@V?$format_validation_base@_WV?$stream_output_adapter@_W@__crt_stdio_output@@@2@@__crt_stdio_output@@AAE_NXZ 1005d720 f i libucrtd:output.obj
 0001:0005c740       ?type_case_c@?$output_processor@_WV?$stream_output_adapter@_W@__crt_stdio_output@@V?$positional_parameter_base@_WV?$stream_output_adapter@_W@__crt_stdio_output@@@2@@__crt_stdio_output@@AAE_NXZ 1005d740 f i libucrtd:output.obj
 0001:0005c760       ?type_case_c@?$output_processor@_WV?$stream_output_adapter@_W@__crt_stdio_output@@V?$standard_base@_WV?$stream_output_adapter@_W@__crt_stdio_output@@@2@@__crt_stdio_output@@AAE_NXZ 1005d760 f i libucrtd:output.obj
 0001:0005c780       ?type_case_c@?$output_processor@_WV?$string_output_adapter@_W@__crt_stdio_output@@V?$format_validation_base@_WV?$string_output_adapter@_W@__crt_stdio_output@@@2@@__crt_stdio_output@@AAE_NXZ 1005d780 f i libucrtd:output.obj
 0001:0005c7a0       ?type_case_c@?$output_processor@_WV?$string_output_adapter@_W@__crt_stdio_output@@V?$positional_parameter_base@_WV?$string_output_adapter@_W@__crt_stdio_output@@@2@@__crt_stdio_output@@AAE_NXZ 1005d7a0 f i libucrtd:output.obj
 0001:0005c7c0       ?type_case_c@?$output_processor@_WV?$string_output_adapter@_W@__crt_stdio_output@@V?$standard_base@_WV?$string_output_adapter@_W@__crt_stdio_output@@@2@@__crt_stdio_output@@AAE_NXZ 1005d7c0 f i libucrtd:output.obj
 0001:0005c7e0       ?type_case_c_tchar@?$output_processor@DV?$stream_output_adapter@D@__crt_stdio_output@@V?$format_validation_base@DV?$stream_output_adapter@D@__crt_stdio_output@@@2@@__crt_stdio_output@@AAE_ND@Z 1005d7e0 f i libucrtd:output.obj
 0001:0005c8f0       ?type_case_c_tchar@?$output_processor@DV?$stream_output_adapter@D@__crt_stdio_output@@V?$positional_parameter_base@DV?$stream_output_adapter@D@__crt_stdio_output@@@2@@__crt_stdio_output@@AAE_ND@Z 1005d8f0 f i libucrtd:output.obj
 0001:0005ca00       ?type_case_c_tchar@?$output_processor@DV?$stream_output_adapter@D@__crt_stdio_output@@V?$standard_base@DV?$stream_output_adapter@D@__crt_stdio_output@@@2@@__crt_stdio_output@@AAE_ND@Z 1005da00 f i libucrtd:output.obj
 0001:0005cb10       ?type_case_c_tchar@?$output_processor@DV?$string_output_adapter@D@__crt_stdio_output@@V?$format_validation_base@DV?$string_output_adapter@D@__crt_stdio_output@@@2@@__crt_stdio_output@@AAE_ND@Z 1005db10 f i libucrtd:output.obj
 0001:0005cc20       ?type_case_c_tchar@?$output_processor@DV?$string_output_adapter@D@__crt_stdio_output@@V?$positional_parameter_base@DV?$string_output_adapter@D@__crt_stdio_output@@@2@@__crt_stdio_output@@AAE_ND@Z 1005dc20 f i libucrtd:output.obj
 0001:0005cd30       ?type_case_c_tchar@?$output_processor@DV?$string_output_adapter@D@__crt_stdio_output@@V?$standard_base@DV?$string_output_adapter@D@__crt_stdio_output@@@2@@__crt_stdio_output@@AAE_ND@Z 1005dd30 f i libucrtd:output.obj
 0001:0005ce40       ?type_case_c_tchar@?$output_processor@_WV?$stream_output_adapter@_W@__crt_stdio_output@@V?$format_validation_base@_WV?$stream_output_adapter@_W@__crt_stdio_output@@@2@@__crt_stdio_output@@AAE_N_W@Z 1005de40 f i libucrtd:output.obj
 0001:0005cf40       ?type_case_c_tchar@?$output_processor@_WV?$stream_output_adapter@_W@__crt_stdio_output@@V?$positional_parameter_base@_WV?$stream_output_adapter@_W@__crt_stdio_output@@@2@@__crt_stdio_output@@AAE_N_W@Z 1005df40 f i libucrtd:output.obj
 0001:0005d040       ?type_case_c_tchar@?$output_processor@_WV?$stream_output_adapter@_W@__crt_stdio_output@@V?$standard_base@_WV?$stream_output_adapter@_W@__crt_stdio_output@@@2@@__crt_stdio_output@@AAE_N_W@Z 1005e040 f i libucrtd:output.obj
 0001:0005d140       ?type_case_c_tchar@?$output_processor@_WV?$string_output_adapter@_W@__crt_stdio_output@@V?$format_validation_base@_WV?$string_output_adapter@_W@__crt_stdio_output@@@2@@__crt_stdio_output@@AAE_N_W@Z 1005e140 f i libucrtd:output.obj
 0001:0005d240       ?type_case_c_tchar@?$output_processor@_WV?$string_output_adapter@_W@__crt_stdio_output@@V?$positional_parameter_base@_WV?$string_output_adapter@_W@__crt_stdio_output@@@2@@__crt_stdio_output@@AAE_N_W@Z 1005e240 f i libucrtd:output.obj
 0001:0005d340       ?type_case_c_tchar@?$output_processor@_WV?$string_output_adapter@_W@__crt_stdio_output@@V?$standard_base@_WV?$string_output_adapter@_W@__crt_stdio_output@@@2@@__crt_stdio_output@@AAE_N_W@Z 1005e340 f i libucrtd:output.obj
 0001:0005d440       ?type_case_d@?$output_processor@DV?$stream_output_adapter@D@__crt_stdio_output@@V?$format_validation_base@DV?$stream_output_adapter@D@__crt_stdio_output@@@2@@__crt_stdio_output@@AAE_NXZ 1005e440 f i libucrtd:output.obj
 0001:0005d470       ?type_case_d@?$output_processor@DV?$stream_output_adapter@D@__crt_stdio_output@@V?$positional_parameter_base@DV?$stream_output_adapter@D@__crt_stdio_output@@@2@@__crt_stdio_output@@AAE_NXZ 1005e470 f i libucrtd:output.obj
 0001:0005d4a0       ?type_case_d@?$output_processor@DV?$stream_output_adapter@D@__crt_stdio_output@@V?$standard_base@DV?$stream_output_adapter@D@__crt_stdio_output@@@2@@__crt_stdio_output@@AAE_NXZ 1005e4a0 f i libucrtd:output.obj
 0001:0005d4d0       ?type_case_d@?$output_processor@DV?$string_output_adapter@D@__crt_stdio_output@@V?$format_validation_base@DV?$string_output_adapter@D@__crt_stdio_output@@@2@@__crt_stdio_output@@AAE_NXZ 1005e4d0 f i libucrtd:output.obj
 0001:0005d500       ?type_case_d@?$output_processor@DV?$string_output_adapter@D@__crt_stdio_output@@V?$positional_parameter_base@DV?$string_output_adapter@D@__crt_stdio_output@@@2@@__crt_stdio_output@@AAE_NXZ 1005e500 f i libucrtd:output.obj
 0001:0005d530       ?type_case_d@?$output_processor@DV?$string_output_adapter@D@__crt_stdio_output@@V?$standard_base@DV?$string_output_adapter@D@__crt_stdio_output@@@2@@__crt_stdio_output@@AAE_NXZ 1005e530 f i libucrtd:output.obj
 0001:0005d560       ?type_case_d@?$output_processor@_WV?$stream_output_adapter@_W@__crt_stdio_output@@V?$format_validation_base@_WV?$stream_output_adapter@_W@__crt_stdio_output@@@2@@__crt_stdio_output@@AAE_NXZ 1005e560 f i libucrtd:output.obj
 0001:0005d590       ?type_case_d@?$output_processor@_WV?$stream_output_adapter@_W@__crt_stdio_output@@V?$positional_parameter_base@_WV?$stream_output_adapter@_W@__crt_stdio_output@@@2@@__crt_stdio_output@@AAE_NXZ 1005e590 f i libucrtd:output.obj
 0001:0005d5c0       ?type_case_d@?$output_processor@_WV?$stream_output_adapter@_W@__crt_stdio_output@@V?$standard_base@_WV?$stream_output_adapter@_W@__crt_stdio_output@@@2@@__crt_stdio_output@@AAE_NXZ 1005e5c0 f i libucrtd:output.obj
 0001:0005d5f0       ?type_case_d@?$output_processor@_WV?$string_output_adapter@_W@__crt_stdio_output@@V?$format_validation_base@_WV?$string_output_adapter@_W@__crt_stdio_output@@@2@@__crt_stdio_output@@AAE_NXZ 1005e5f0 f i libucrtd:output.obj
 0001:0005d620       ?type_case_d@?$output_processor@_WV?$string_output_adapter@_W@__crt_stdio_output@@V?$positional_parameter_base@_WV?$string_output_adapter@_W@__crt_stdio_output@@@2@@__crt_stdio_output@@AAE_NXZ 1005e620 f i libucrtd:output.obj
 0001:0005d650       ?type_case_d@?$output_processor@_WV?$string_output_adapter@_W@__crt_stdio_output@@V?$standard_base@_WV?$string_output_adapter@_W@__crt_stdio_output@@@2@@__crt_stdio_output@@AAE_NXZ 1005e650 f i libucrtd:output.obj
 0001:0005d680       ?type_case_integer@?$output_processor@DV?$stream_output_adapter@D@__crt_stdio_output@@V?$format_validation_base@DV?$stream_output_adapter@D@__crt_stdio_output@@@2@@__crt_stdio_output@@AAE_NI_N@Z 1005e680 f i libucrtd:output.obj
 0001:0005d9d0       ?type_case_integer@?$output_processor@DV?$stream_output_adapter@D@__crt_stdio_output@@V?$positional_parameter_base@DV?$stream_output_adapter@D@__crt_stdio_output@@@2@@__crt_stdio_output@@AAE_NI_N@Z 1005e9d0 f i libucrtd:output.obj
 0001:0005dd20       ?type_case_integer@?$output_processor@DV?$stream_output_adapter@D@__crt_stdio_output@@V?$standard_base@DV?$stream_output_adapter@D@__crt_stdio_output@@@2@@__crt_stdio_output@@AAE_NI_N@Z 1005ed20 f i libucrtd:output.obj
 0001:0005e070       ?type_case_integer@?$output_processor@DV?$string_output_adapter@D@__crt_stdio_output@@V?$format_validation_base@DV?$string_output_adapter@D@__crt_stdio_output@@@2@@__crt_stdio_output@@AAE_NI_N@Z 1005f070 f i libucrtd:output.obj
 0001:0005e3c0       ?type_case_integer@?$output_processor@DV?$string_output_adapter@D@__crt_stdio_output@@V?$positional_parameter_base@DV?$string_output_adapter@D@__crt_stdio_output@@@2@@__crt_stdio_output@@AAE_NI_N@Z 1005f3c0 f i libucrtd:output.obj
 0001:0005e710       ?type_case_integer@?$output_processor@DV?$string_output_adapter@D@__crt_stdio_output@@V?$standard_base@DV?$string_output_adapter@D@__crt_stdio_output@@@2@@__crt_stdio_output@@AAE_NI_N@Z 1005f710 f i libucrtd:output.obj
 0001:0005ea60       ?type_case_integer@?$output_processor@_WV?$stream_output_adapter@_W@__crt_stdio_output@@V?$format_validation_base@_WV?$stream_output_adapter@_W@__crt_stdio_output@@@2@@__crt_stdio_output@@AAE_NI_N@Z 1005fa60 f i libucrtd:output.obj
 0001:0005edb0       ?type_case_integer@?$output_processor@_WV?$stream_output_adapter@_W@__crt_stdio_output@@V?$positional_parameter_base@_WV?$stream_output_adapter@_W@__crt_stdio_output@@@2@@__crt_stdio_output@@AAE_NI_N@Z 1005fdb0 f i libucrtd:output.obj
 0001:0005f100       ?type_case_integer@?$output_processor@_WV?$stream_output_adapter@_W@__crt_stdio_output@@V?$standard_base@_WV?$stream_output_adapter@_W@__crt_stdio_output@@@2@@__crt_stdio_output@@AAE_NI_N@Z 10060100 f i libucrtd:output.obj
 0001:0005f450       ?type_case_integer@?$output_processor@_WV?$string_output_adapter@_W@__crt_stdio_output@@V?$format_validation_base@_WV?$string_output_adapter@_W@__crt_stdio_output@@@2@@__crt_stdio_output@@AAE_NI_N@Z 10060450 f i libucrtd:output.obj
 0001:0005f7a0       ?type_case_integer@?$output_processor@_WV?$string_output_adapter@_W@__crt_stdio_output@@V?$positional_parameter_base@_WV?$string_output_adapter@_W@__crt_stdio_output@@@2@@__crt_stdio_output@@AAE_NI_N@Z 100607a0 f i libucrtd:output.obj
 0001:0005faf0       ?type_case_integer@?$output_processor@_WV?$string_output_adapter@_W@__crt_stdio_output@@V?$standard_base@_WV?$string_output_adapter@_W@__crt_stdio_output@@@2@@__crt_stdio_output@@AAE_NI_N@Z 10060af0 f i libucrtd:output.obj
 0001:0005fe40       ?type_case_n@?$output_processor@DV?$stream_output_adapter@D@__crt_stdio_output@@V?$format_validation_base@DV?$stream_output_adapter@D@__crt_stdio_output@@@2@@__crt_stdio_output@@AAE_NXZ 10060e40 f i libucrtd:output.obj
 0001:00060030       ?type_case_n@?$output_processor@DV?$stream_output_adapter@D@__crt_stdio_output@@V?$positional_parameter_base@DV?$stream_output_adapter@D@__crt_stdio_output@@@2@@__crt_stdio_output@@AAE_NXZ 10061030 f i libucrtd:output.obj
 0001:00060220       ?type_case_n@?$output_processor@DV?$stream_output_adapter@D@__crt_stdio_output@@V?$standard_base@DV?$stream_output_adapter@D@__crt_stdio_output@@@2@@__crt_stdio_output@@AAE_NXZ 10061220 f i libucrtd:output.obj
 0001:00060410       ?type_case_n@?$output_processor@DV?$string_output_adapter@D@__crt_stdio_output@@V?$format_validation_base@DV?$string_output_adapter@D@__crt_stdio_output@@@2@@__crt_stdio_output@@AAE_NXZ 10061410 f i libucrtd:output.obj
 0001:00060600       ?type_case_n@?$output_processor@DV?$string_output_adapter@D@__crt_stdio_output@@V?$positional_parameter_base@DV?$string_output_adapter@D@__crt_stdio_output@@@2@@__crt_stdio_output@@AAE_NXZ 10061600 f i libucrtd:output.obj
 0001:000607f0       ?type_case_n@?$output_processor@DV?$string_output_adapter@D@__crt_stdio_output@@V?$standard_base@DV?$string_output_adapter@D@__crt_stdio_output@@@2@@__crt_stdio_output@@AAE_NXZ 100617f0 f i libucrtd:output.obj
 0001:000609e0       ?type_case_n@?$output_processor@_WV?$stream_output_adapter@_W@__crt_stdio_output@@V?$format_validation_base@_WV?$stream_output_adapter@_W@__crt_stdio_output@@@2@@__crt_stdio_output@@AAE_NXZ 100619e0 f i libucrtd:output.obj
 0001:00060bd0       ?type_case_n@?$output_processor@_WV?$stream_output_adapter@_W@__crt_stdio_output@@V?$positional_parameter_base@_WV?$stream_output_adapter@_W@__crt_stdio_output@@@2@@__crt_stdio_output@@AAE_NXZ 10061bd0 f i libucrtd:output.obj
 0001:00060dc0       ?type_case_n@?$output_processor@_WV?$stream_output_adapter@_W@__crt_stdio_output@@V?$standard_base@_WV?$stream_output_adapter@_W@__crt_stdio_output@@@2@@__crt_stdio_output@@AAE_NXZ 10061dc0 f i libucrtd:output.obj
 0001:00060fb0       ?type_case_n@?$output_processor@_WV?$string_output_adapter@_W@__crt_stdio_output@@V?$format_validation_base@_WV?$string_output_adapter@_W@__crt_stdio_output@@@2@@__crt_stdio_output@@AAE_NXZ 10061fb0 f i libucrtd:output.obj
 0001:000611a0       ?type_case_n@?$output_processor@_WV?$string_output_adapter@_W@__crt_stdio_output@@V?$positional_parameter_base@_WV?$string_output_adapter@_W@__crt_stdio_output@@@2@@__crt_stdio_output@@AAE_NXZ 100621a0 f i libucrtd:output.obj
 0001:00061390       ?type_case_n@?$output_processor@_WV?$string_output_adapter@_W@__crt_stdio_output@@V?$standard_base@_WV?$string_output_adapter@_W@__crt_stdio_output@@@2@@__crt_stdio_output@@AAE_NXZ 10062390 f i libucrtd:output.obj
 0001:00061580       ?type_case_o@?$output_processor@DV?$stream_output_adapter@D@__crt_stdio_output@@V?$format_validation_base@DV?$stream_output_adapter@D@__crt_stdio_output@@@2@@__crt_stdio_output@@AAE_NXZ 10062580 f i libucrtd:output.obj
 0001:000615c0       ?type_case_o@?$output_processor@DV?$stream_output_adapter@D@__crt_stdio_output@@V?$positional_parameter_base@DV?$stream_output_adapter@D@__crt_stdio_output@@@2@@__crt_stdio_output@@AAE_NXZ 100625c0 f i libucrtd:output.obj
 0001:00061600       ?type_case_o@?$output_processor@DV?$stream_output_adapter@D@__crt_stdio_output@@V?$standard_base@DV?$stream_output_adapter@D@__crt_stdio_output@@@2@@__crt_stdio_output@@AAE_NXZ 10062600 f i libucrtd:output.obj
 0001:00061640       ?type_case_o@?$output_processor@DV?$string_output_adapter@D@__crt_stdio_output@@V?$format_validation_base@DV?$string_output_adapter@D@__crt_stdio_output@@@2@@__crt_stdio_output@@AAE_NXZ 10062640 f i libucrtd:output.obj
 0001:00061680       ?type_case_o@?$output_processor@DV?$string_output_adapter@D@__crt_stdio_output@@V?$positional_parameter_base@DV?$string_output_adapter@D@__crt_stdio_output@@@2@@__crt_stdio_output@@AAE_NXZ 10062680 f i libucrtd:output.obj
 0001:000616c0       ?type_case_o@?$output_processor@DV?$string_output_adapter@D@__crt_stdio_output@@V?$standard_base@DV?$string_output_adapter@D@__crt_stdio_output@@@2@@__crt_stdio_output@@AAE_NXZ 100626c0 f i libucrtd:output.obj
 0001:00061700       ?type_case_o@?$output_processor@_WV?$stream_output_adapter@_W@__crt_stdio_output@@V?$format_validation_base@_WV?$stream_output_adapter@_W@__crt_stdio_output@@@2@@__crt_stdio_output@@AAE_NXZ 10062700 f i libucrtd:output.obj
 0001:00061740       ?type_case_o@?$output_processor@_WV?$stream_output_adapter@_W@__crt_stdio_output@@V?$positional_parameter_base@_WV?$stream_output_adapter@_W@__crt_stdio_output@@@2@@__crt_stdio_output@@AAE_NXZ 10062740 f i libucrtd:output.obj
 0001:00061780       ?type_case_o@?$output_processor@_WV?$stream_output_adapter@_W@__crt_stdio_output@@V?$standard_base@_WV?$stream_output_adapter@_W@__crt_stdio_output@@@2@@__crt_stdio_output@@AAE_NXZ 10062780 f i libucrtd:output.obj
 0001:000617c0       ?type_case_o@?$output_processor@_WV?$string_output_adapter@_W@__crt_stdio_output@@V?$format_validation_base@_WV?$string_output_adapter@_W@__crt_stdio_output@@@2@@__crt_stdio_output@@AAE_NXZ 100627c0 f i libucrtd:output.obj
 0001:00061800       ?type_case_o@?$output_processor@_WV?$string_output_adapter@_W@__crt_stdio_output@@V?$positional_parameter_base@_WV?$string_output_adapter@_W@__crt_stdio_output@@@2@@__crt_stdio_output@@AAE_NXZ 10062800 f i libucrtd:output.obj
 0001:00061840       ?type_case_o@?$output_processor@_WV?$string_output_adapter@_W@__crt_stdio_output@@V?$standard_base@_WV?$string_output_adapter@_W@__crt_stdio_output@@@2@@__crt_stdio_output@@AAE_NXZ 10062840 f i libucrtd:output.obj
 0001:00061880       ?type_case_p@?$output_processor@DV?$stream_output_adapter@D@__crt_stdio_output@@V?$format_validation_base@DV?$stream_output_adapter@D@__crt_stdio_output@@@2@@__crt_stdio_output@@AAE_NXZ 10062880 f i libucrtd:output.obj
 0001:000618b0       ?type_case_p@?$output_processor@DV?$stream_output_adapter@D@__crt_stdio_output@@V?$positional_parameter_base@DV?$stream_output_adapter@D@__crt_stdio_output@@@2@@__crt_stdio_output@@AAE_NXZ 100628b0 f i libucrtd:output.obj
 0001:000618e0       ?type_case_p@?$output_processor@DV?$stream_output_adapter@D@__crt_stdio_output@@V?$standard_base@DV?$stream_output_adapter@D@__crt_stdio_output@@@2@@__crt_stdio_output@@AAE_NXZ 100628e0 f i libucrtd:output.obj
 0001:00061910       ?type_case_p@?$output_processor@DV?$string_output_adapter@D@__crt_stdio_output@@V?$format_validation_base@DV?$string_output_adapter@D@__crt_stdio_output@@@2@@__crt_stdio_output@@AAE_NXZ 10062910 f i libucrtd:output.obj
 0001:00061940       ?type_case_p@?$output_processor@DV?$string_output_adapter@D@__crt_stdio_output@@V?$positional_parameter_base@DV?$string_output_adapter@D@__crt_stdio_output@@@2@@__crt_stdio_output@@AAE_NXZ 10062940 f i libucrtd:output.obj
 0001:00061970       ?type_case_p@?$output_processor@DV?$string_output_adapter@D@__crt_stdio_output@@V?$standard_base@DV?$string_output_adapter@D@__crt_stdio_output@@@2@@__crt_stdio_output@@AAE_NXZ 10062970 f i libucrtd:output.obj
 0001:000619a0       ?type_case_p@?$output_processor@_WV?$stream_output_adapter@_W@__crt_stdio_output@@V?$format_validation_base@_WV?$stream_output_adapter@_W@__crt_stdio_output@@@2@@__crt_stdio_output@@AAE_NXZ 100629a0 f i libucrtd:output.obj
 0001:000619d0       ?type_case_p@?$output_processor@_WV?$stream_output_adapter@_W@__crt_stdio_output@@V?$positional_parameter_base@_WV?$stream_output_adapter@_W@__crt_stdio_output@@@2@@__crt_stdio_output@@AAE_NXZ 100629d0 f i libucrtd:output.obj
 0001:00061a00       ?type_case_p@?$output_processor@_WV?$stream_output_adapter@_W@__crt_stdio_output@@V?$standard_base@_WV?$stream_output_adapter@_W@__crt_stdio_output@@@2@@__crt_stdio_output@@AAE_NXZ 10062a00 f i libucrtd:output.obj
 0001:00061a30       ?type_case_p@?$output_processor@_WV?$string_output_adapter@_W@__crt_stdio_output@@V?$format_validation_base@_WV?$string_output_adapter@_W@__crt_stdio_output@@@2@@__crt_stdio_output@@AAE_NXZ 10062a30 f i libucrtd:output.obj
 0001:00061a60       ?type_case_p@?$output_processor@_WV?$string_output_adapter@_W@__crt_stdio_output@@V?$positional_parameter_base@_WV?$string_output_adapter@_W@__crt_stdio_output@@@2@@__crt_stdio_output@@AAE_NXZ 10062a60 f i libucrtd:output.obj
 0001:00061a90       ?type_case_p@?$output_processor@_WV?$string_output_adapter@_W@__crt_stdio_output@@V?$standard_base@_WV?$string_output_adapter@_W@__crt_stdio_output@@@2@@__crt_stdio_output@@AAE_NXZ 10062a90 f i libucrtd:output.obj
 0001:00061ac0       ?type_case_s@?$output_processor@DV?$stream_output_adapter@D@__crt_stdio_output@@V?$format_validation_base@DV?$stream_output_adapter@D@__crt_stdio_output@@@2@@__crt_stdio_output@@AAE_NXZ 10062ac0 f i libucrtd:output.obj
 0001:00061bb0       ?type_case_s@?$output_processor@DV?$stream_output_adapter@D@__crt_stdio_output@@V?$positional_parameter_base@DV?$stream_output_adapter@D@__crt_stdio_output@@@2@@__crt_stdio_output@@AAE_NXZ 10062bb0 f i libucrtd:output.obj
 0001:00061ca0       ?type_case_s@?$output_processor@DV?$stream_output_adapter@D@__crt_stdio_output@@V?$standard_base@DV?$stream_output_adapter@D@__crt_stdio_output@@@2@@__crt_stdio_output@@AAE_NXZ 10062ca0 f i libucrtd:output.obj
 0001:00061d90       ?type_case_s@?$output_processor@DV?$string_output_adapter@D@__crt_stdio_output@@V?$format_validation_base@DV?$string_output_adapter@D@__crt_stdio_output@@@2@@__crt_stdio_output@@AAE_NXZ 10062d90 f i libucrtd:output.obj
 0001:00061e80       ?type_case_s@?$output_processor@DV?$string_output_adapter@D@__crt_stdio_output@@V?$positional_parameter_base@DV?$string_output_adapter@D@__crt_stdio_output@@@2@@__crt_stdio_output@@AAE_NXZ 10062e80 f i libucrtd:output.obj
 0001:00061f70       ?type_case_s@?$output_processor@DV?$string_output_adapter@D@__crt_stdio_output@@V?$standard_base@DV?$string_output_adapter@D@__crt_stdio_output@@@2@@__crt_stdio_output@@AAE_NXZ 10062f70 f i libucrtd:output.obj
 0001:00062060       ?type_case_s@?$output_processor@_WV?$stream_output_adapter@_W@__crt_stdio_output@@V?$format_validation_base@_WV?$stream_output_adapter@_W@__crt_stdio_output@@@2@@__crt_stdio_output@@AAE_NXZ 10063060 f i libucrtd:output.obj
 0001:00062150       ?type_case_s@?$output_processor@_WV?$stream_output_adapter@_W@__crt_stdio_output@@V?$positional_parameter_base@_WV?$stream_output_adapter@_W@__crt_stdio_output@@@2@@__crt_stdio_output@@AAE_NXZ 10063150 f i libucrtd:output.obj
 0001:00062240       ?type_case_s@?$output_processor@_WV?$stream_output_adapter@_W@__crt_stdio_output@@V?$standard_base@_WV?$stream_output_adapter@_W@__crt_stdio_output@@@2@@__crt_stdio_output@@AAE_NXZ 10063240 f i libucrtd:output.obj
 0001:00062330       ?type_case_s@?$output_processor@_WV?$string_output_adapter@_W@__crt_stdio_output@@V?$format_validation_base@_WV?$string_output_adapter@_W@__crt_stdio_output@@@2@@__crt_stdio_output@@AAE_NXZ 10063330 f i libucrtd:output.obj
 0001:00062420       ?type_case_s@?$output_processor@_WV?$string_output_adapter@_W@__crt_stdio_output@@V?$positional_parameter_base@_WV?$string_output_adapter@_W@__crt_stdio_output@@@2@@__crt_stdio_output@@AAE_NXZ 10063420 f i libucrtd:output.obj
 0001:00062510       ?type_case_s@?$output_processor@_WV?$string_output_adapter@_W@__crt_stdio_output@@V?$standard_base@_WV?$string_output_adapter@_W@__crt_stdio_output@@@2@@__crt_stdio_output@@AAE_NXZ 10063510 f i libucrtd:output.obj
 0001:00062600       ?type_case_s_compute_narrow_string_length@?$output_processor@DV?$stream_output_adapter@D@__crt_stdio_output@@V?$format_validation_base@DV?$stream_output_adapter@D@__crt_stdio_output@@@2@@__crt_stdio_output@@ABEHHD@Z 10063600 f i libucrtd:output.obj
 0001:00062630       ?type_case_s_compute_narrow_string_length@?$output_processor@DV?$stream_output_adapter@D@__crt_stdio_output@@V?$positional_parameter_base@DV?$stream_output_adapter@D@__crt_stdio_output@@@2@@__crt_stdio_output@@ABEHHD@Z 10063630 f i libucrtd:output.obj
 0001:00062660       ?type_case_s_compute_narrow_string_length@?$output_processor@DV?$stream_output_adapter@D@__crt_stdio_output@@V?$standard_base@DV?$stream_output_adapter@D@__crt_stdio_output@@@2@@__crt_stdio_output@@ABEHHD@Z 10063660 f i libucrtd:output.obj
 0001:00062690       ?type_case_s_compute_narrow_string_length@?$output_processor@DV?$string_output_adapter@D@__crt_stdio_output@@V?$format_validation_base@DV?$string_output_adapter@D@__crt_stdio_output@@@2@@__crt_stdio_output@@ABEHHD@Z 10063690 f i libucrtd:output.obj
 0001:000626c0       ?type_case_s_compute_narrow_string_length@?$output_processor@DV?$string_output_adapter@D@__crt_stdio_output@@V?$positional_parameter_base@DV?$string_output_adapter@D@__crt_stdio_output@@@2@@__crt_stdio_output@@ABEHHD@Z 100636c0 f i libucrtd:output.obj
 0001:000626f0       ?type_case_s_compute_narrow_string_length@?$output_processor@DV?$string_output_adapter@D@__crt_stdio_output@@V?$standard_base@DV?$string_output_adapter@D@__crt_stdio_output@@@2@@__crt_stdio_output@@ABEHHD@Z 100636f0 f i libucrtd:output.obj
 0001:00062720       ?type_case_s_compute_narrow_string_length@?$output_processor@_WV?$stream_output_adapter@_W@__crt_stdio_output@@V?$format_validation_base@_WV?$stream_output_adapter@_W@__crt_stdio_output@@@2@@__crt_stdio_output@@ABEHH_W@Z 10063720 f i libucrtd:output.obj
 0001:00062790       ?type_case_s_compute_narrow_string_length@?$output_processor@_WV?$stream_output_adapter@_W@__crt_stdio_output@@V?$positional_parameter_base@_WV?$stream_output_adapter@_W@__crt_stdio_output@@@2@@__crt_stdio_output@@ABEHH_W@Z 10063790 f i libucrtd:output.obj
 0001:00062800       ?type_case_s_compute_narrow_string_length@?$output_processor@_WV?$stream_output_adapter@_W@__crt_stdio_output@@V?$standard_base@_WV?$stream_output_adapter@_W@__crt_stdio_output@@@2@@__crt_stdio_output@@ABEHH_W@Z 10063800 f i libucrtd:output.obj
 0001:00062870       ?type_case_s_compute_narrow_string_length@?$output_processor@_WV?$string_output_adapter@_W@__crt_stdio_output@@V?$format_validation_base@_WV?$string_output_adapter@_W@__crt_stdio_output@@@2@@__crt_stdio_output@@ABEHH_W@Z 10063870 f i libucrtd:output.obj
 0001:000628e0       ?type_case_s_compute_narrow_string_length@?$output_processor@_WV?$string_output_adapter@_W@__crt_stdio_output@@V?$positional_parameter_base@_WV?$string_output_adapter@_W@__crt_stdio_output@@@2@@__crt_stdio_output@@ABEHH_W@Z 100638e0 f i libucrtd:output.obj
 0001:00062950       ?type_case_s_compute_narrow_string_length@?$output_processor@_WV?$string_output_adapter@_W@__crt_stdio_output@@V?$standard_base@_WV?$string_output_adapter@_W@__crt_stdio_output@@@2@@__crt_stdio_output@@ABEHH_W@Z 10063950 f i libucrtd:output.obj
 0001:000629c0       ?type_case_u@?$output_processor@DV?$stream_output_adapter@D@__crt_stdio_output@@V?$format_validation_base@DV?$stream_output_adapter@D@__crt_stdio_output@@@2@@__crt_stdio_output@@AAE_NXZ 100639c0 f i libucrtd:output.obj
 0001:000629e0       ?type_case_u@?$output_processor@DV?$stream_output_adapter@D@__crt_stdio_output@@V?$positional_parameter_base@DV?$stream_output_adapter@D@__crt_stdio_output@@@2@@__crt_stdio_output@@AAE_NXZ 100639e0 f i libucrtd:output.obj
 0001:00062a00       ?type_case_u@?$output_processor@DV?$stream_output_adapter@D@__crt_stdio_output@@V?$standard_base@DV?$stream_output_adapter@D@__crt_stdio_output@@@2@@__crt_stdio_output@@AAE_NXZ 10063a00 f i libucrtd:output.obj
 0001:00062a20       ?type_case_u@?$output_processor@DV?$string_output_adapter@D@__crt_stdio_output@@V?$format_validation_base@DV?$string_output_adapter@D@__crt_stdio_output@@@2@@__crt_stdio_output@@AAE_NXZ 10063a20 f i libucrtd:output.obj
 0001:00062a40       ?type_case_u@?$output_processor@DV?$string_output_adapter@D@__crt_stdio_output@@V?$positional_parameter_base@DV?$string_output_adapter@D@__crt_stdio_output@@@2@@__crt_stdio_output@@AAE_NXZ 10063a40 f i libucrtd:output.obj
 0001:00062a60       ?type_case_u@?$output_processor@DV?$string_output_adapter@D@__crt_stdio_output@@V?$standard_base@DV?$string_output_adapter@D@__crt_stdio_output@@@2@@__crt_stdio_output@@AAE_NXZ 10063a60 f i libucrtd:output.obj
 0001:00062a80       ?type_case_u@?$output_processor@_WV?$stream_output_adapter@_W@__crt_stdio_output@@V?$format_validation_base@_WV?$stream_output_adapter@_W@__crt_stdio_output@@@2@@__crt_stdio_output@@AAE_NXZ 10063a80 f i libucrtd:output.obj
 0001:00062aa0       ?type_case_u@?$output_processor@_WV?$stream_output_adapter@_W@__crt_stdio_output@@V?$positional_parameter_base@_WV?$stream_output_adapter@_W@__crt_stdio_output@@@2@@__crt_stdio_output@@AAE_NXZ 10063aa0 f i libucrtd:output.obj
 0001:00062ac0       ?type_case_u@?$output_processor@_WV?$stream_output_adapter@_W@__crt_stdio_output@@V?$standard_base@_WV?$stream_output_adapter@_W@__crt_stdio_output@@@2@@__crt_stdio_output@@AAE_NXZ 10063ac0 f i libucrtd:output.obj
 0001:00062ae0       ?type_case_u@?$output_processor@_WV?$string_output_adapter@_W@__crt_stdio_output@@V?$format_validation_base@_WV?$string_output_adapter@_W@__crt_stdio_output@@@2@@__crt_stdio_output@@AAE_NXZ 10063ae0 f i libucrtd:output.obj
 0001:00062b00       ?type_case_u@?$output_processor@_WV?$string_output_adapter@_W@__crt_stdio_output@@V?$positional_parameter_base@_WV?$string_output_adapter@_W@__crt_stdio_output@@@2@@__crt_stdio_output@@AAE_NXZ 10063b00 f i libucrtd:output.obj
 0001:00062b20       ?type_case_u@?$output_processor@_WV?$string_output_adapter@_W@__crt_stdio_output@@V?$standard_base@_WV?$string_output_adapter@_W@__crt_stdio_output@@@2@@__crt_stdio_output@@AAE_NXZ 10063b20 f i libucrtd:output.obj
 0001:00062b40       ?type_case_x@?$output_processor@DV?$stream_output_adapter@D@__crt_stdio_output@@V?$format_validation_base@DV?$stream_output_adapter@D@__crt_stdio_output@@@2@@__crt_stdio_output@@AAE_NXZ 10063b40 f i libucrtd:output.obj
 0001:00062b60       ?type_case_x@?$output_processor@DV?$stream_output_adapter@D@__crt_stdio_output@@V?$positional_parameter_base@DV?$stream_output_adapter@D@__crt_stdio_output@@@2@@__crt_stdio_output@@AAE_NXZ 10063b60 f i libucrtd:output.obj
 0001:00062b80       ?type_case_x@?$output_processor@DV?$stream_output_adapter@D@__crt_stdio_output@@V?$standard_base@DV?$stream_output_adapter@D@__crt_stdio_output@@@2@@__crt_stdio_output@@AAE_NXZ 10063b80 f i libucrtd:output.obj
 0001:00062ba0       ?type_case_x@?$output_processor@DV?$string_output_adapter@D@__crt_stdio_output@@V?$format_validation_base@DV?$string_output_adapter@D@__crt_stdio_output@@@2@@__crt_stdio_output@@AAE_NXZ 10063ba0 f i libucrtd:output.obj
 0001:00062bc0       ?type_case_x@?$output_processor@DV?$string_output_adapter@D@__crt_stdio_output@@V?$positional_parameter_base@DV?$string_output_adapter@D@__crt_stdio_output@@@2@@__crt_stdio_output@@AAE_NXZ 10063bc0 f i libucrtd:output.obj
 0001:00062be0       ?type_case_x@?$output_processor@DV?$string_output_adapter@D@__crt_stdio_output@@V?$standard_base@DV?$string_output_adapter@D@__crt_stdio_output@@@2@@__crt_stdio_output@@AAE_NXZ 10063be0 f i libucrtd:output.obj
 0001:00062c00       ?type_case_x@?$output_processor@_WV?$stream_output_adapter@_W@__crt_stdio_output@@V?$format_validation_base@_WV?$stream_output_adapter@_W@__crt_stdio_output@@@2@@__crt_stdio_output@@AAE_NXZ 10063c00 f i libucrtd:output.obj
 0001:00062c20       ?type_case_x@?$output_processor@_WV?$stream_output_adapter@_W@__crt_stdio_output@@V?$positional_parameter_base@_WV?$stream_output_adapter@_W@__crt_stdio_output@@@2@@__crt_stdio_output@@AAE_NXZ 10063c20 f i libucrtd:output.obj
 0001:00062c40       ?type_case_x@?$output_processor@_WV?$stream_output_adapter@_W@__crt_stdio_output@@V?$standard_base@_WV?$stream_output_adapter@_W@__crt_stdio_output@@@2@@__crt_stdio_output@@AAE_NXZ 10063c40 f i libucrtd:output.obj
 0001:00062c60       ?type_case_x@?$output_processor@_WV?$string_output_adapter@_W@__crt_stdio_output@@V?$format_validation_base@_WV?$string_output_adapter@_W@__crt_stdio_output@@@2@@__crt_stdio_output@@AAE_NXZ 10063c60 f i libucrtd:output.obj
 0001:00062c80       ?type_case_x@?$output_processor@_WV?$string_output_adapter@_W@__crt_stdio_output@@V?$positional_parameter_base@_WV?$string_output_adapter@_W@__crt_stdio_output@@@2@@__crt_stdio_output@@AAE_NXZ 10063c80 f i libucrtd:output.obj
 0001:00062ca0       ?type_case_x@?$output_processor@_WV?$string_output_adapter@_W@__crt_stdio_output@@V?$standard_base@_WV?$string_output_adapter@_W@__crt_stdio_output@@@2@@__crt_stdio_output@@AAE_NXZ 10063ca0 f i libucrtd:output.obj
 0001:00062cc0       ?unset_flag@?$output_processor@DV?$stream_output_adapter@D@__crt_stdio_output@@V?$format_validation_base@DV?$stream_output_adapter@D@__crt_stdio_output@@@2@@__crt_stdio_output@@AAEXI@Z 10063cc0 f i libucrtd:output.obj
 0001:00062ce0       ?unset_flag@?$output_processor@DV?$stream_output_adapter@D@__crt_stdio_output@@V?$positional_parameter_base@DV?$stream_output_adapter@D@__crt_stdio_output@@@2@@__crt_stdio_output@@AAEXI@Z 10063ce0 f i libucrtd:output.obj
 0001:00062d00       ?unset_flag@?$output_processor@DV?$stream_output_adapter@D@__crt_stdio_output@@V?$standard_base@DV?$stream_output_adapter@D@__crt_stdio_output@@@2@@__crt_stdio_output@@AAEXI@Z 10063d00 f i libucrtd:output.obj
 0001:00062d20       ?unset_flag@?$output_processor@DV?$string_output_adapter@D@__crt_stdio_output@@V?$format_validation_base@DV?$string_output_adapter@D@__crt_stdio_output@@@2@@__crt_stdio_output@@AAEXI@Z 10063d20 f i libucrtd:output.obj
 0001:00062d40       ?unset_flag@?$output_processor@DV?$string_output_adapter@D@__crt_stdio_output@@V?$positional_parameter_base@DV?$string_output_adapter@D@__crt_stdio_output@@@2@@__crt_stdio_output@@AAEXI@Z 10063d40 f i libucrtd:output.obj
 0001:00062d60       ?unset_flag@?$output_processor@DV?$string_output_adapter@D@__crt_stdio_output@@V?$standard_base@DV?$string_output_adapter@D@__crt_stdio_output@@@2@@__crt_stdio_output@@AAEXI@Z 10063d60 f i libucrtd:output.obj
 0001:00062d80       ?unset_flag@?$output_processor@_WV?$stream_output_adapter@_W@__crt_stdio_output@@V?$format_validation_base@_WV?$stream_output_adapter@_W@__crt_stdio_output@@@2@@__crt_stdio_output@@AAEXI@Z 10063d80 f i libucrtd:output.obj
 0001:00062da0       ?unset_flag@?$output_processor@_WV?$stream_output_adapter@_W@__crt_stdio_output@@V?$positional_parameter_base@_WV?$stream_output_adapter@_W@__crt_stdio_output@@@2@@__crt_stdio_output@@AAEXI@Z 10063da0 f i libucrtd:output.obj
 0001:00062dc0       ?unset_flag@?$output_processor@_WV?$stream_output_adapter@_W@__crt_stdio_output@@V?$standard_base@_WV?$stream_output_adapter@_W@__crt_stdio_output@@@2@@__crt_stdio_output@@AAEXI@Z 10063dc0 f i libucrtd:output.obj
 0001:00062de0       ?unset_flag@?$output_processor@_WV?$string_output_adapter@_W@__crt_stdio_output@@V?$format_validation_base@_WV?$string_output_adapter@_W@__crt_stdio_output@@@2@@__crt_stdio_output@@AAEXI@Z 10063de0 f i libucrtd:output.obj
 0001:00062e00       ?unset_flag@?$output_processor@_WV?$string_output_adapter@_W@__crt_stdio_output@@V?$positional_parameter_base@_WV?$string_output_adapter@_W@__crt_stdio_output@@@2@@__crt_stdio_output@@AAEXI@Z 10063e00 f i libucrtd:output.obj
 0001:00062e20       ?unset_flag@?$output_processor@_WV?$string_output_adapter@_W@__crt_stdio_output@@V?$standard_base@_WV?$string_output_adapter@_W@__crt_stdio_output@@@2@@__crt_stdio_output@@AAEXI@Z 10063e20 f i libucrtd:output.obj
 0001:00062e40       ?update_field_width@?$positional_parameter_base@DV?$stream_output_adapter@D@__crt_stdio_output@@@__crt_stdio_output@@IAE_NXZ 10063e40 f i libucrtd:output.obj
 0001:00062fc0       ?update_field_width@?$positional_parameter_base@DV?$string_output_adapter@D@__crt_stdio_output@@@__crt_stdio_output@@IAE_NXZ 10063fc0 f i libucrtd:output.obj
 0001:00063140       ?update_field_width@?$positional_parameter_base@_WV?$stream_output_adapter@_W@__crt_stdio_output@@@__crt_stdio_output@@IAE_NXZ 10064140 f i libucrtd:output.obj
 0001:000632c0       ?update_field_width@?$positional_parameter_base@_WV?$string_output_adapter@_W@__crt_stdio_output@@@__crt_stdio_output@@IAE_NXZ 100642c0 f i libucrtd:output.obj
 0001:00063440       ?update_field_width@?$standard_base@DV?$stream_output_adapter@D@__crt_stdio_output@@@__crt_stdio_output@@IAE_NXZ 10064440 f i libucrtd:output.obj
 0001:00063470       ?update_field_width@?$standard_base@DV?$string_output_adapter@D@__crt_stdio_output@@@__crt_stdio_output@@IAE_NXZ 10064470 f i libucrtd:output.obj
 0001:000634a0       ?update_field_width@?$standard_base@_WV?$stream_output_adapter@_W@__crt_stdio_output@@@__crt_stdio_output@@IAE_NXZ 100644a0 f i libucrtd:output.obj
 0001:000634d0       ?update_field_width@?$standard_base@_WV?$string_output_adapter@_W@__crt_stdio_output@@@__crt_stdio_output@@IAE_NXZ 100644d0 f i libucrtd:output.obj
 0001:00063500       ?update_precision@?$positional_parameter_base@DV?$stream_output_adapter@D@__crt_stdio_output@@@__crt_stdio_output@@IAE_NXZ 10064500 f i libucrtd:output.obj
 0001:00063680       ?update_precision@?$positional_parameter_base@DV?$string_output_adapter@D@__crt_stdio_output@@@__crt_stdio_output@@IAE_NXZ 10064680 f i libucrtd:output.obj
 0001:00063800       ?update_precision@?$positional_parameter_base@_WV?$stream_output_adapter@_W@__crt_stdio_output@@@__crt_stdio_output@@IAE_NXZ 10064800 f i libucrtd:output.obj
 0001:00063980       ?update_precision@?$positional_parameter_base@_WV?$string_output_adapter@_W@__crt_stdio_output@@@__crt_stdio_output@@IAE_NXZ 10064980 f i libucrtd:output.obj
 0001:00063b00       ?update_precision@?$standard_base@DV?$stream_output_adapter@D@__crt_stdio_output@@@__crt_stdio_output@@IAE_NXZ 10064b00 f i libucrtd:output.obj
 0001:00063b30       ?update_precision@?$standard_base@DV?$string_output_adapter@D@__crt_stdio_output@@@__crt_stdio_output@@IAE_NXZ 10064b30 f i libucrtd:output.obj
 0001:00063b60       ?update_precision@?$standard_base@_WV?$stream_output_adapter@_W@__crt_stdio_output@@@__crt_stdio_output@@IAE_NXZ 10064b60 f i libucrtd:output.obj
 0001:00063b90       ?update_precision@?$standard_base@_WV?$string_output_adapter@_W@__crt_stdio_output@@@__crt_stdio_output@@IAE_NXZ 10064b90 f i libucrtd:output.obj
 0001:00063bc0       ?valid@__crt_stdio_stream@@QBE_NXZ 10064bc0 f i libucrtd:output.obj
 0001:00063bf0       ?validate@?$stream_output_adapter@D@__crt_stdio_output@@QBE_NXZ 10064bf0 f i libucrtd:output.obj
 0001:00063ca0       ?validate@?$stream_output_adapter@_W@__crt_stdio_output@@QBE_NXZ 10064ca0 f i libucrtd:output.obj
 0001:00063d50       ?validate@?$string_output_adapter@D@__crt_stdio_output@@QBE_NXZ 10064d50 f i libucrtd:output.obj
 0001:00063de0       ?validate@?$string_output_adapter@_W@__crt_stdio_output@@QBE_NXZ 10064de0 f i libucrtd:output.obj
 0001:00063e70       ?validate_and_store_parameter_data@?$positional_parameter_base@DV?$stream_output_adapter@D@__crt_stdio_output@@@__crt_stdio_output@@AAE_NAAUparameter_data@12@W4parameter_type@12@DW4length_modifier@2@@Z 10064e70 f i libucrtd:output.obj
 0001:00063f40       ?validate_and_store_parameter_data@?$positional_parameter_base@DV?$string_output_adapter@D@__crt_stdio_output@@@__crt_stdio_output@@AAE_NAAUparameter_data@12@W4parameter_type@12@DW4length_modifier@2@@Z 10064f40 f i libucrtd:output.obj
 0001:00064010       ?validate_and_store_parameter_data@?$positional_parameter_base@_WV?$stream_output_adapter@_W@__crt_stdio_output@@@__crt_stdio_output@@AAE_NAAUparameter_data@12@W4parameter_type@12@_WW4length_modifier@2@@Z 10065010 f i libucrtd:output.obj
 0001:000640f0       ?validate_and_store_parameter_data@?$positional_parameter_base@_WV?$string_output_adapter@_W@__crt_stdio_output@@@__crt_stdio_output@@AAE_NAAUparameter_data@12@W4parameter_type@12@_WW4length_modifier@2@@Z 100650f0 f i libucrtd:output.obj
 0001:000641d0       ?validate_and_update_state_at_beginning_of_format_character@?$positional_parameter_base@DV?$stream_output_adapter@D@__crt_stdio_output@@@__crt_stdio_output@@IAE_NXZ 100651d0 f i libucrtd:output.obj
 0001:000643f0       ?validate_and_update_state_at_beginning_of_format_character@?$positional_parameter_base@DV?$string_output_adapter@D@__crt_stdio_output@@@__crt_stdio_output@@IAE_NXZ 100653f0 f i libucrtd:output.obj
 0001:00064610       ?validate_and_update_state_at_beginning_of_format_character@?$positional_parameter_base@_WV?$stream_output_adapter@_W@__crt_stdio_output@@@__crt_stdio_output@@IAE_NXZ 10065610 f i libucrtd:output.obj
 0001:00064830       ?validate_and_update_state_at_beginning_of_format_character@?$positional_parameter_base@_WV?$string_output_adapter@_W@__crt_stdio_output@@@__crt_stdio_output@@IAE_NXZ 10065830 f i libucrtd:output.obj
 0001:00064a50       ?validate_and_update_state_at_beginning_of_format_character@?$standard_base@DV?$stream_output_adapter@D@__crt_stdio_output@@@__crt_stdio_output@@IAE_NXZ 10065a50 f i libucrtd:output.obj
 0001:00064a60       ?validate_and_update_state_at_beginning_of_format_character@?$standard_base@DV?$string_output_adapter@D@__crt_stdio_output@@@__crt_stdio_output@@IAE_NXZ 10065a60 f i libucrtd:output.obj
 0001:00064a70       ?validate_and_update_state_at_beginning_of_format_character@?$standard_base@_WV?$stream_output_adapter@_W@__crt_stdio_output@@@__crt_stdio_output@@IAE_NXZ 10065a70 f i libucrtd:output.obj
 0001:00064a80       ?validate_and_update_state_at_beginning_of_format_character@?$standard_base@_WV?$string_output_adapter@_W@__crt_stdio_output@@@__crt_stdio_output@@IAE_NXZ 10065a80 f i libucrtd:output.obj
 0001:00064a90       ?validate_and_update_state_at_end_of_format_string@?$format_validation_base@DV?$stream_output_adapter@D@__crt_stdio_output@@@__crt_stdio_output@@IBE_NXZ 10065a90 f i libucrtd:output.obj
 0001:00064b30       ?validate_and_update_state_at_end_of_format_string@?$format_validation_base@DV?$string_output_adapter@D@__crt_stdio_output@@@__crt_stdio_output@@IBE_NXZ 10065b30 f i libucrtd:output.obj
 0001:00064bd0       ?validate_and_update_state_at_end_of_format_string@?$format_validation_base@_WV?$stream_output_adapter@_W@__crt_stdio_output@@@__crt_stdio_output@@IBE_NXZ 10065bd0 f i libucrtd:output.obj
 0001:00064c70       ?validate_and_update_state_at_end_of_format_string@?$format_validation_base@_WV?$string_output_adapter@_W@__crt_stdio_output@@@__crt_stdio_output@@IBE_NXZ 10065c70 f i libucrtd:output.obj
 0001:00064d10       ?validate_and_update_state_at_end_of_format_string@?$positional_parameter_base@DV?$stream_output_adapter@D@__crt_stdio_output@@@__crt_stdio_output@@IAE_NXZ 10065d10 f i libucrtd:output.obj
 0001:00064eb0       ?validate_and_update_state_at_end_of_format_string@?$positional_parameter_base@DV?$string_output_adapter@D@__crt_stdio_output@@@__crt_stdio_output@@IAE_NXZ 10065eb0 f i libucrtd:output.obj
 0001:00065050       ?validate_and_update_state_at_end_of_format_string@?$positional_parameter_base@_WV?$stream_output_adapter@_W@__crt_stdio_output@@@__crt_stdio_output@@IAE_NXZ 10066050 f i libucrtd:output.obj
 0001:000651f0       ?validate_and_update_state_at_end_of_format_string@?$positional_parameter_base@_WV?$string_output_adapter@_W@__crt_stdio_output@@@__crt_stdio_output@@IAE_NXZ 100661f0 f i libucrtd:output.obj
 0001:00065390       ?validate_and_update_state_at_end_of_format_string@?$standard_base@DV?$stream_output_adapter@D@__crt_stdio_output@@@__crt_stdio_output@@IBE_NXZ 10066390 f i libucrtd:output.obj
 0001:000653a0       ?validate_and_update_state_at_end_of_format_string@?$standard_base@DV?$string_output_adapter@D@__crt_stdio_output@@@__crt_stdio_output@@IBE_NXZ 100663a0 f i libucrtd:output.obj
 0001:000653b0       ?validate_and_update_state_at_end_of_format_string@?$standard_base@_WV?$stream_output_adapter@_W@__crt_stdio_output@@@__crt_stdio_output@@IBE_NXZ 100663b0 f i libucrtd:output.obj
 0001:000653c0       ?validate_and_update_state_at_end_of_format_string@?$standard_base@_WV?$string_output_adapter@_W@__crt_stdio_output@@@__crt_stdio_output@@IBE_NXZ 100663c0 f i libucrtd:output.obj
 0001:000653d0       ?validate_state_for_type_case_a@?$positional_parameter_base@DV?$stream_output_adapter@D@__crt_stdio_output@@@__crt_stdio_output@@IAE_NXZ 100663d0 f i libucrtd:output.obj
 0001:000654c0       ?validate_state_for_type_case_a@?$positional_parameter_base@DV?$string_output_adapter@D@__crt_stdio_output@@@__crt_stdio_output@@IAE_NXZ 100664c0 f i libucrtd:output.obj
 0001:000655b0       ?validate_state_for_type_case_a@?$positional_parameter_base@_WV?$stream_output_adapter@_W@__crt_stdio_output@@@__crt_stdio_output@@IAE_NXZ 100665b0 f i libucrtd:output.obj
 0001:000656a0       ?validate_state_for_type_case_a@?$positional_parameter_base@_WV?$string_output_adapter@_W@__crt_stdio_output@@@__crt_stdio_output@@IAE_NXZ 100666a0 f i libucrtd:output.obj
 0001:00065790       ?validate_state_for_type_case_a@?$standard_base@DV?$stream_output_adapter@D@__crt_stdio_output@@@__crt_stdio_output@@IBE_NXZ 10066790 f i libucrtd:output.obj
 0001:000657a0       ?validate_state_for_type_case_a@?$standard_base@DV?$string_output_adapter@D@__crt_stdio_output@@@__crt_stdio_output@@IBE_NXZ 100667a0 f i libucrtd:output.obj
 0001:000657b0       ?validate_state_for_type_case_a@?$standard_base@_WV?$stream_output_adapter@_W@__crt_stdio_output@@@__crt_stdio_output@@IBE_NXZ 100667b0 f i libucrtd:output.obj
 0001:000657c0       ?validate_state_for_type_case_a@?$standard_base@_WV?$string_output_adapter@_W@__crt_stdio_output@@@__crt_stdio_output@@IBE_NXZ 100667c0 f i libucrtd:output.obj
 0001:000657d0       ?validate_stream_is_ansi_if_required@?$__acrt_stdio_char_traits@D@@SA_NQAU_iobuf@@@Z 100667d0 f i libucrtd:output.obj
 0001:00065900       ?validate_stream_is_ansi_if_required@?$__acrt_stdio_char_traits@_W@@SA_NQAU_iobuf@@@Z 10066900 f i libucrtd:output.obj
 0001:00065910       ?wide_null_string@?$output_processor@DV?$stream_output_adapter@D@__crt_stdio_output@@V?$format_validation_base@DV?$stream_output_adapter@D@__crt_stdio_output@@@2@@__crt_stdio_output@@CAPA_WXZ 10066910 f i libucrtd:output.obj
 0001:00065920       ?wide_null_string@?$output_processor@DV?$stream_output_adapter@D@__crt_stdio_output@@V?$positional_parameter_base@DV?$stream_output_adapter@D@__crt_stdio_output@@@2@@__crt_stdio_output@@CAPA_WXZ 10066920 f i libucrtd:output.obj
 0001:00065930       ?wide_null_string@?$output_processor@DV?$stream_output_adapter@D@__crt_stdio_output@@V?$standard_base@DV?$stream_output_adapter@D@__crt_stdio_output@@@2@@__crt_stdio_output@@CAPA_WXZ 10066930 f i libucrtd:output.obj
 0001:00065940       ?wide_null_string@?$output_processor@DV?$string_output_adapter@D@__crt_stdio_output@@V?$format_validation_base@DV?$string_output_adapter@D@__crt_stdio_output@@@2@@__crt_stdio_output@@CAPA_WXZ 10066940 f i libucrtd:output.obj
 0001:00065950       ?wide_null_string@?$output_processor@DV?$string_output_adapter@D@__crt_stdio_output@@V?$positional_parameter_base@DV?$string_output_adapter@D@__crt_stdio_output@@@2@@__crt_stdio_output@@CAPA_WXZ 10066950 f i libucrtd:output.obj
 0001:00065960       ?wide_null_string@?$output_processor@DV?$string_output_adapter@D@__crt_stdio_output@@V?$standard_base@DV?$string_output_adapter@D@__crt_stdio_output@@@2@@__crt_stdio_output@@CAPA_WXZ 10066960 f i libucrtd:output.obj
 0001:00065970       ?wide_null_string@?$output_processor@_WV?$stream_output_adapter@_W@__crt_stdio_output@@V?$format_validation_base@_WV?$stream_output_adapter@_W@__crt_stdio_output@@@2@@__crt_stdio_output@@CAPA_WXZ 10066970 f i libucrtd:output.obj
 0001:00065980       ?wide_null_string@?$output_processor@_WV?$stream_output_adapter@_W@__crt_stdio_output@@V?$positional_parameter_base@_WV?$stream_output_adapter@_W@__crt_stdio_output@@@2@@__crt_stdio_output@@CAPA_WXZ 10066980 f i libucrtd:output.obj
 0001:00065990       ?wide_null_string@?$output_processor@_WV?$stream_output_adapter@_W@__crt_stdio_output@@V?$standard_base@_WV?$stream_output_adapter@_W@__crt_stdio_output@@@2@@__crt_stdio_output@@CAPA_WXZ 10066990 f i libucrtd:output.obj
 0001:000659a0       ?wide_null_string@?$output_processor@_WV?$string_output_adapter@_W@__crt_stdio_output@@V?$format_validation_base@_WV?$string_output_adapter@_W@__crt_stdio_output@@@2@@__crt_stdio_output@@CAPA_WXZ 100669a0 f i libucrtd:output.obj
 0001:000659b0       ?wide_null_string@?$output_processor@_WV?$string_output_adapter@_W@__crt_stdio_output@@V?$positional_parameter_base@_WV?$string_output_adapter@_W@__crt_stdio_output@@@2@@__crt_stdio_output@@CAPA_WXZ 100669b0 f i libucrtd:output.obj
 0001:000659c0       ?wide_null_string@?$output_processor@_WV?$string_output_adapter@_W@__crt_stdio_output@@V?$standard_base@_WV?$string_output_adapter@_W@__crt_stdio_output@@@2@@__crt_stdio_output@@CAPA_WXZ 100669c0 f i libucrtd:output.obj
 0001:000659d0       ?write_character@?$output_adapter_common@DV?$stream_output_adapter@D@__crt_stdio_output@@@__crt_stdio_output@@QBEXDQAH@Z 100669d0 f i libucrtd:output.obj
 0001:00065a10       ?write_character@?$output_adapter_common@_WV?$stream_output_adapter@_W@__crt_stdio_output@@@__crt_stdio_output@@QBEX_WQAH@Z 10066a10 f i libucrtd:output.obj
 0001:00065a50       ?write_character@?$string_output_adapter@D@__crt_stdio_output@@QBE_NDQAH@Z 10066a50 f i libucrtd:output.obj
 0001:00065ae0       ?write_character@?$string_output_adapter@_W@__crt_stdio_output@@QBE_N_WQAH@Z 10066ae0 f i libucrtd:output.obj
 0001:00065b80       ?write_character_without_count_update@?$stream_output_adapter@D@__crt_stdio_output@@QBE_ND@Z 10066b80 f i libucrtd:output.obj
 0001:00065bf0       ?write_character_without_count_update@?$stream_output_adapter@_W@__crt_stdio_output@@QBE_N_W@Z 10066bf0 f i libucrtd:output.obj
 0001:00065c60       ?write_stored_string_tchar@?$output_processor@DV?$stream_output_adapter@D@__crt_stdio_output@@V?$format_validation_base@DV?$stream_output_adapter@D@__crt_stdio_output@@@2@@__crt_stdio_output@@AAE_ND@Z 10066c60 f i libucrtd:output.obj
 0001:00065d80       ?write_stored_string_tchar@?$output_processor@DV?$stream_output_adapter@D@__crt_stdio_output@@V?$positional_parameter_base@DV?$stream_output_adapter@D@__crt_stdio_output@@@2@@__crt_stdio_output@@AAE_ND@Z 10066d80 f i libucrtd:output.obj
 0001:00065ea0       ?write_stored_string_tchar@?$output_processor@DV?$stream_output_adapter@D@__crt_stdio_output@@V?$standard_base@DV?$stream_output_adapter@D@__crt_stdio_output@@@2@@__crt_stdio_output@@AAE_ND@Z 10066ea0 f i libucrtd:output.obj
 0001:00065fc0       ?write_stored_string_tchar@?$output_processor@DV?$string_output_adapter@D@__crt_stdio_output@@V?$format_validation_base@DV?$string_output_adapter@D@__crt_stdio_output@@@2@@__crt_stdio_output@@AAE_ND@Z 10066fc0 f i libucrtd:output.obj
 0001:000660e0       ?write_stored_string_tchar@?$output_processor@DV?$string_output_adapter@D@__crt_stdio_output@@V?$positional_parameter_base@DV?$string_output_adapter@D@__crt_stdio_output@@@2@@__crt_stdio_output@@AAE_ND@Z 100670e0 f i libucrtd:output.obj
 0001:00066200       ?write_stored_string_tchar@?$output_processor@DV?$string_output_adapter@D@__crt_stdio_output@@V?$standard_base@DV?$string_output_adapter@D@__crt_stdio_output@@@2@@__crt_stdio_output@@AAE_ND@Z 10067200 f i libucrtd:output.obj
 0001:00066320       ?write_stored_string_tchar@?$output_processor@_WV?$stream_output_adapter@_W@__crt_stdio_output@@V?$format_validation_base@_WV?$stream_output_adapter@_W@__crt_stdio_output@@@2@@__crt_stdio_output@@AAE_N_W@Z 10067320 f i libucrtd:output.obj
 0001:00066410       ?write_stored_string_tchar@?$output_processor@_WV?$stream_output_adapter@_W@__crt_stdio_output@@V?$positional_parameter_base@_WV?$stream_output_adapter@_W@__crt_stdio_output@@@2@@__crt_stdio_output@@AAE_N_W@Z 10067410 f i libucrtd:output.obj
 0001:00066500       ?write_stored_string_tchar@?$output_processor@_WV?$stream_output_adapter@_W@__crt_stdio_output@@V?$standard_base@_WV?$stream_output_adapter@_W@__crt_stdio_output@@@2@@__crt_stdio_output@@AAE_N_W@Z 10067500 f i libucrtd:output.obj
 0001:000665f0       ?write_stored_string_tchar@?$output_processor@_WV?$string_output_adapter@_W@__crt_stdio_output@@V?$format_validation_base@_WV?$string_output_adapter@_W@__crt_stdio_output@@@2@@__crt_stdio_output@@AAE_N_W@Z 100675f0 f i libucrtd:output.obj
 0001:000666e0       ?write_stored_string_tchar@?$output_processor@_WV?$string_output_adapter@_W@__crt_stdio_output@@V?$positional_parameter_base@_WV?$string_output_adapter@_W@__crt_stdio_output@@@2@@__crt_stdio_output@@AAE_N_W@Z 100676e0 f i libucrtd:output.obj
 0001:000667d0       ?write_stored_string_tchar@?$output_processor@_WV?$string_output_adapter@_W@__crt_stdio_output@@V?$standard_base@_WV?$string_output_adapter@_W@__crt_stdio_output@@@2@@__crt_stdio_output@@AAE_N_W@Z 100677d0 f i libucrtd:output.obj
 0001:000668c0       ?write_string@?$stream_output_adapter@D@__crt_stdio_output@@QBEXQBDHQAHAAV__crt_deferred_errno_cache@@@Z 100678c0 f i libucrtd:output.obj
 0001:00066920       ?write_string@?$stream_output_adapter@_W@__crt_stdio_output@@QBEXQB_WHQAHAAV__crt_deferred_errno_cache@@@Z 10067920 f i libucrtd:output.obj
 0001:00066980       ?write_string@?$string_output_adapter@D@__crt_stdio_output@@QBEXQBDHQAHAAV__crt_deferred_errno_cache@@@Z 10067980 f i libucrtd:output.obj
 0001:00066a80       ?write_string@?$string_output_adapter@_W@__crt_stdio_output@@QBEXQB_WHQAHAAV__crt_deferred_errno_cache@@@Z 10067a80 f i libucrtd:output.obj
 0001:00066b90       ?write_string_impl@?$output_adapter_common@DV?$stream_output_adapter@D@__crt_stdio_output@@@__crt_stdio_output@@IBEXQBDHQAHAAV__crt_deferred_errno_cache@@@Z 10067b90 f i libucrtd:output.obj
 0001:00066c30       ?write_string_impl@?$output_adapter_common@_WV?$stream_output_adapter@_W@__crt_stdio_output@@@__crt_stdio_output@@IBEXQB_WHQAHAAV__crt_deferred_errno_cache@@@Z 10067c30 f i libucrtd:output.obj
 0001:00066cd0       ___acrt_disable_global_locale_sync 10067cd0 f i libucrtd:output.obj
 0001:00066cf0       ___acrt_enable_global_locale_sync 10067cf0 f i libucrtd:output.obj
 0001:00066d10       ___acrt_isleadbyte_l_noupdate 10067d10 f i libucrtd:output.obj
 0001:00066d30       ___acrt_locale_changed     10067d30 f i libucrtd:output.obj
 0001:00066d60       ___acrt_locale_get_ctype_array_value 10067d60 f i libucrtd:output.obj
 0001:00066d90       ___stdio_common_vfprintf   10067d90 f   libucrtd:output.obj
 0001:00066dc0       ___stdio_common_vfprintf_p 10067dc0 f   libucrtd:output.obj
 0001:00066df0       ___stdio_common_vfprintf_s 10067df0 f   libucrtd:output.obj
 0001:00066e20       ___stdio_common_vfwprintf  10067e20 f   libucrtd:output.obj
 0001:00066e50       ___stdio_common_vfwprintf_p 10067e50 f   libucrtd:output.obj
 0001:00066e80       ___stdio_common_vfwprintf_s 10067e80 f   libucrtd:output.obj
 0001:00066eb0       ___stdio_common_vsnprintf_s 10067eb0 f   libucrtd:output.obj
 0001:00066ee0       ___stdio_common_vsnwprintf_s 10067ee0 f   libucrtd:output.obj
 0001:00066f10       ___stdio_common_vsprintf   10067f10 f   libucrtd:output.obj
 0001:00066f40       ___stdio_common_vsprintf_p 10067f40 f   libucrtd:output.obj
 0001:00066f70       ___stdio_common_vsprintf_s 10067f70 f   libucrtd:output.obj
 0001:00066fa0       ___stdio_common_vswprintf  10067fa0 f   libucrtd:output.obj
 0001:00066fd0       ___stdio_common_vswprintf_p 10067fd0 f   libucrtd:output.obj
 0001:00067000       ___stdio_common_vswprintf_s 10068000 f   libucrtd:output.obj
 0001:00067030       __ctype_fast_check_internal 10068030 f i libucrtd:output.obj
 0001:00067050       __isdigit_fast_internal    10068050 f i libucrtd:output.obj
 0001:00067070       __tolower_fast_internal    10068070 f i libucrtd:output.obj
 0001:00067090       _free                      10068090 f   libucrtd:free.obj
 0001:000670c0       _malloc                    100680c0 f   libucrtd:malloc.obj
 0001:000670e0       ??$?RU?$__crt_report_hook_node@D@@@__crt_internal_free_policy@@QBEXQBU?$__crt_report_hook_node@D@@@Z 100680e0 f i libucrtd:dbgrpt.obj
 0001:00067100       ??$?RU?$__crt_report_hook_node@_W@@@__crt_internal_free_policy@@QBEXQBU?$__crt_report_hook_node@_W@@@Z 10068100 f i libucrtd:dbgrpt.obj
 0001:00067ef0       ??$get_module_file_name@AAPAUHINSTANCE__@@AAY0BAF@DK@?$__crt_char_traits@D@@SAKAAPAUHINSTANCE__@@AAY0BAF@D$$QAK@Z 10068ef0 f i libucrtd:dbgrpt.obj
 0001:00067f10       ??$get_module_file_name@AAPAUHINSTANCE__@@AAY0BAF@_WK@?$__crt_char_traits@_W@@SAKAAPAUHINSTANCE__@@AAY0BAF@_W$$QAK@Z 10068f10 f i libucrtd:dbgrpt.obj
 0001:00067f30       ??$tcscpy_s@AAY0BAF@DIPBD@?$__crt_char_traits@D@@SAHAAY0BAF@D$$QAI$$QAPBD@Z 10068f30 f i libucrtd:dbgrpt.obj
 0001:00067f50       ??$tcscpy_s@AAY0BAF@_WIPB_W@?$__crt_char_traits@_W@@SAHAAY0BAF@_W$$QAI$$QAPB_W@Z 10068f50 f i libucrtd:dbgrpt.obj
 0001:00067f70       ??$tcslen@AAY0BAF@D@?$__crt_char_traits@D@@SAIAAY0BAF@D@Z 10068f70 f i libucrtd:dbgrpt.obj
 0001:00067f90       ??$tcslen@AAY0BAF@_W@?$__crt_char_traits@_W@@SAIAAY0BAF@_W@Z 10068f90 f i libucrtd:dbgrpt.obj
 0001:00067fb0       ??$tcslen@ABQBD@?$__crt_char_traits@D@@SAIABQBD@Z 10068fb0 f i libucrtd:dbgrpt.obj
 0001:00067fd0       ??$tcslen@ABQB_W@?$__crt_char_traits@_W@@SAIABQB_W@Z 10068fd0 f i libucrtd:dbgrpt.obj
 0001:000680d0       ??0?$__crt_unique_heap_ptr@U?$__crt_report_hook_node@D@@U__crt_internal_free_policy@@@@QAE@QAU?$__crt_report_hook_node@D@@@Z 100690d0 f i libucrtd:dbgrpt.obj
 0001:000680f0       ??0?$__crt_unique_heap_ptr@U?$__crt_report_hook_node@_W@@U__crt_internal_free_policy@@@@QAE@QAU?$__crt_report_hook_node@_W@@@Z 100690f0 f i libucrtd:dbgrpt.obj
 0001:00068110       ??1?$__crt_unique_heap_ptr@U?$__crt_report_hook_node@D@@U__crt_internal_free_policy@@@@QAE@XZ 10069110 f i libucrtd:dbgrpt.obj
 0001:00068130       ??1?$__crt_unique_heap_ptr@U?$__crt_report_hook_node@_W@@U__crt_internal_free_policy@@@@QAE@XZ 10069130 f i libucrtd:dbgrpt.obj
 0001:00068150       ??B?$__crt_unique_heap_ptr@U?$__crt_report_hook_node@D@@U__crt_internal_free_policy@@@@QBE_NXZ 10069150 f i libucrtd:dbgrpt.obj
 0001:00068170       ??B?$__crt_unique_heap_ptr@U?$__crt_report_hook_node@_W@@U__crt_internal_free_policy@@@@QBE_NXZ 10069170 f i libucrtd:dbgrpt.obj
 0001:000686b0       ?detach@?$__crt_unique_heap_ptr@U?$__crt_report_hook_node@D@@U__crt_internal_free_policy@@@@QAEPAU?$__crt_report_hook_node@D@@XZ 100696b0 f i libucrtd:dbgrpt.obj
 0001:000686e0       ?detach@?$__crt_unique_heap_ptr@U?$__crt_report_hook_node@_W@@U__crt_internal_free_policy@@@@QAEPAU?$__crt_report_hook_node@_W@@XZ 100696e0 f i libucrtd:dbgrpt.obj
 0001:00068710       ?get@?$__crt_unique_heap_ptr@U?$__crt_report_hook_node@D@@U__crt_internal_free_policy@@@@QBEPAU?$__crt_report_hook_node@D@@XZ 10069710 f i libucrtd:dbgrpt.obj
 0001:00068730       ?get@?$__crt_unique_heap_ptr@U?$__crt_report_hook_node@_W@@U__crt_internal_free_policy@@@@QBEPAU?$__crt_report_hook_node@_W@@XZ 10069730 f i libucrtd:dbgrpt.obj
 0001:000687b0       ?is_valid@?$__crt_unique_heap_ptr@U?$__crt_report_hook_node@D@@U__crt_internal_free_policy@@@@QBE_NXZ 100697b0 f i libucrtd:dbgrpt.obj
 0001:000687e0       ?is_valid@?$__crt_unique_heap_ptr@U?$__crt_report_hook_node@_W@@U__crt_internal_free_policy@@@@QBE_NXZ 100697e0 f i libucrtd:dbgrpt.obj
 0001:00068810       ?release@?$__crt_unique_heap_ptr@U?$__crt_report_hook_node@D@@U__crt_internal_free_policy@@@@QAEXXZ 10069810 f i libucrtd:dbgrpt.obj
 0001:00068840       ?release@?$__crt_unique_heap_ptr@U?$__crt_report_hook_node@_W@@U__crt_internal_free_policy@@@@QAEXXZ 10069840 f i libucrtd:dbgrpt.obj
 0001:00068870       __CrtDbgReport             10069870 f   libucrtd:dbgrpt.obj
 0001:000688c0       __CrtDbgReportW            100698c0 f   libucrtd:dbgrpt.obj
 0001:00068910       __CrtSetReportHook2        10069910 f   libucrtd:dbgrpt.obj
 0001:00068930       __CrtSetReportHookW2       10069930 f   libucrtd:dbgrpt.obj
 0001:00068950       ___acrt_MessageWindowA     10069950 f   libucrtd:dbgrpt.obj
 0001:00068980       ___acrt_MessageWindowW     10069980 f   libucrtd:dbgrpt.obj
 0001:000689b0       __invoke_watson_if_error   100699b0 f i libucrtd:dbgrpt.obj
 0001:000689e0       __invoke_watson_if_oneof   100699e0 f i libucrtd:dbgrpt.obj
 0001:00068a20       __snwprintf_s              10069a20 f i libucrtd:dbgrpt.obj
 0001:00068a60       __vsnwprintf_s_l           10069a60 f i libucrtd:dbgrpt.obj
 0001:00068de0       _wcscpy_s                  10069de0 f   libucrtd:wcscpy_s.obj
 0001:00069b00       ??1?$__crt_simd_cleanup_guard@$00@@QAE@XZ 1006ab00 f i libucrtd:strnlen.obj
 0001:00069b10       ??1?$__crt_simd_cleanup_guard@$0A@@@QAE@XZ 1006ab10 f i libucrtd:strnlen.obj
 0001:00069b20       ?compare_equals@?$__crt_simd_traits@$00E@@SA?AT__m256i@@T2@0@Z 1006ab20 f i libucrtd:strnlen.obj
 0001:00069b60       ?compare_equals@?$__crt_simd_traits@$00G@@SA?AT__m256i@@T2@0@Z 1006ab60 f i libucrtd:strnlen.obj
 0001:00069ba0       ?compare_equals@?$__crt_simd_traits@$0A@E@@SA?AT__m128i@@T2@0@Z 1006aba0 f i libucrtd:strnlen.obj
 0001:00069be0       ?compare_equals@?$__crt_simd_traits@$0A@G@@SA?AT__m128i@@T2@0@Z 1006abe0 f i libucrtd:strnlen.obj
 0001:00069c20       ?compute_byte_mask@?$__crt_simd_pack_traits@$00@@SAHT__m256i@@@Z 1006ac20 f i libucrtd:strnlen.obj
 0001:00069c50       ?compute_byte_mask@?$__crt_simd_pack_traits@$0A@@@SAHT__m128i@@@Z 1006ac50 f i libucrtd:strnlen.obj
 0001:00069c80       ?get_zero_pack@?$__crt_simd_pack_traits@$00@@SA?AT__m256i@@XZ 1006ac80 f i libucrtd:strnlen.obj
 0001:00069cb0       ?get_zero_pack@?$__crt_simd_pack_traits@$0A@@@SA?AT__m128i@@XZ 1006acb0 f i libucrtd:strnlen.obj
 0001:00069ce0       _strnlen                   1006ace0 f   libucrtd:strnlen.obj
 0001:00069d00       _wcslen                    1006ad00 f   libucrtd:strnlen.obj
 0001:00069d20       _wcsnlen                   1006ad20 f   libucrtd:strnlen.obj
 0001:00069d40       ??$__crt_fast_decode_pointer@P6AXPB_W00II@Z@@YAP6AXPB_W00II@ZQ6AX000II@Z@Z 1006ad40 f i libucrtd:invalid_parameter.obj
 0001:00069d70       ??$__crt_fast_encode_pointer@P6AXPB_W00II@Z@@YAP6AXPB_W00II@ZQ6AX000II@Z@Z 1006ad70 f i libucrtd:invalid_parameter.obj
 0001:00069da0       ??$initialize_from_array@$$BY00Q6AXPB_W00II@Z@?$dual_state_global@P6AXPB_W00II@Z@__crt_state_management@@QAAXAAY00Q6AXPB_W00II@Z@Z 1006ada0 f i libucrtd:invalid_parameter.obj
 0001:00069df0       ?__crt_rotate_pointer_value@@YAIIH@Z 1006adf0 f i libucrtd:invalid_parameter.obj
 0001:00069e00       ?dangerous_get_state_array@?$dual_state_global@P6AXPB_W00II@Z@__crt_state_management@@QAEPAP6AXPB_W00II@ZXZ 1006ae00 f i libucrtd:invalid_parameter.obj
 0001:00069e10       ?get_current_state_index@__crt_state_management@@YAIXZ 1006ae10 f i libucrtd:invalid_parameter.obj
 0001:00069e20       ?value@?$dual_state_global@P6AXPB_W00II@Z@__crt_state_management@@QAEAAP6AXPB_W00II@ZXZ 1006ae20 f i libucrtd:invalid_parameter.obj
 0001:00069e40       ___acrt_call_reportfault   1006ae40 f   libucrtd:invalid_parameter.obj
 0001:00069fa0       ___acrt_initialize_invalid_parameter_handler 1006afa0 f   libucrtd:invalid_parameter.obj
 0001:00069fd0       __get_invalid_parameter_handler 1006afd0 f   libucrtd:invalid_parameter.obj
 0001:00069ff0       __get_thread_local_invalid_parameter_handler 1006aff0 f   libucrtd:invalid_parameter.obj
 0001:0006a020       __invalid_parameter        1006b020 f   libucrtd:invalid_parameter.obj
 0001:0006a0e0       __invalid_parameter_noinfo 1006b0e0 f   libucrtd:invalid_parameter.obj
 0001:0006a100       __invalid_parameter_noinfo_noreturn 1006b100 f   libucrtd:invalid_parameter.obj
 0001:0006a130       __invoke_watson            1006b130 f   libucrtd:invalid_parameter.obj
 0001:0006a170       __set_invalid_parameter_handler 1006b170 f   libucrtd:invalid_parameter.obj
 0001:0006a1c0       __set_thread_local_invalid_parameter_handler 1006b1c0 f   libucrtd:invalid_parameter.obj
 0001:0006a1f0       ___acrt_errno_from_os_error 1006b1f0 f   libucrtd:errno.obj
 0001:0006a270       ___acrt_errno_map_os_error 1006b270 f   libucrtd:errno.obj
 0001:0006a2a0       ___doserrno                1006b2a0 f   libucrtd:errno.obj
 0001:0006a2d0       __errno                    1006b2d0 f   libucrtd:errno.obj
 0001:0006a300       __get_doserrno             1006b300 f   libucrtd:errno.obj
 0001:0006a390       __get_errno                1006b390 f   libucrtd:errno.obj
 0001:0006a420       __set_doserrno             1006b420 f   libucrtd:errno.obj
 0001:0006a450       __set_errno                1006b450 f   libucrtd:errno.obj
 0001:0006a480       _calloc                    1006b480 f   libucrtd:calloc.obj
 0001:0006a4a0       __recalloc                 1006b4a0 f   libucrtd:recalloc.obj
 0001:0006a4d0       __recalloc_base            1006b4d0 f   libucrtd:recalloc.obj
 0001:0006a56a       __resetstkoflw             1006b56a f   libucrtd:resetstk.obj
 0001:0006aa50       _wcscat_s                  1006ba50 f   libucrtd:wcscat_s.obj
 0001:0006aea0       _wcsncpy_s                 1006bea0 f   libucrtd:wcsncpy_s.obj
 0001:0006afe0       ___isascii                 1006bfe0 f   libucrtd:_ctype.obj
 0001:0006b010       ___iscsym                  1006c010 f   libucrtd:_ctype.obj
 0001:0006b050       ___iscsymf                 1006c050 f   libucrtd:_ctype.obj
 0001:0006b090       ___toascii                 1006c090 f   libucrtd:_ctype.obj
 0001:0006b0a0       __isalnum_l                1006c0a0 f   libucrtd:_ctype.obj
 0001:0006b0c0       __isalpha_l                1006c0c0 f   libucrtd:_ctype.obj
 0001:0006b0e0       __isblank_l                1006c0e0 f   libucrtd:_ctype.obj
 0001:0006b100       __iscntrl_l                1006c100 f   libucrtd:_ctype.obj
 0001:0006b120       __iscsym_l                 1006c120 f   libucrtd:_ctype.obj
 0001:0006b160       __iscsymf_l                1006c160 f   libucrtd:_ctype.obj
 0001:0006b1a0       __isdigit_l                1006c1a0 f   libucrtd:_ctype.obj
 0001:0006b1c0       __isgraph_l                1006c1c0 f   libucrtd:_ctype.obj
 0001:0006b1e0       __islower_l                1006c1e0 f   libucrtd:_ctype.obj
 0001:0006b200       __isprint_l                1006c200 f   libucrtd:_ctype.obj
 0001:0006b220       __ispunct_l                1006c220 f   libucrtd:_ctype.obj
 0001:0006b240       __isspace_l                1006c240 f   libucrtd:_ctype.obj
 0001:0006b260       __isupper_l                1006c260 f   libucrtd:_ctype.obj
 0001:0006b280       __isxdigit_l               1006c280 f   libucrtd:_ctype.obj
 0001:0006b2a0       _isalnum                   1006c2a0 f   libucrtd:_ctype.obj
 0001:0006b2c0       _isalpha                   1006c2c0 f   libucrtd:_ctype.obj
 0001:0006b2e0       _isblank                   1006c2e0 f   libucrtd:_ctype.obj
 0001:0006b310       _iscntrl                   1006c310 f   libucrtd:_ctype.obj
 0001:0006b330       _isdigit                   1006c330 f   libucrtd:_ctype.obj
 0001:0006b350       _isgraph                   1006c350 f   libucrtd:_ctype.obj
 0001:0006b370       _islower                   1006c370 f   libucrtd:_ctype.obj
 0001:0006b390       _isprint                   1006c390 f   libucrtd:_ctype.obj
 0001:0006b3b0       _ispunct                   1006c3b0 f   libucrtd:_ctype.obj
 0001:0006b3d0       _isspace                   1006c3d0 f   libucrtd:_ctype.obj
 0001:0006b3f0       _isupper                   1006c3f0 f   libucrtd:_ctype.obj
 0001:0006b410       _isxdigit                  1006c410 f   libucrtd:_ctype.obj
 0001:0006b430       _wcscat                    1006c430 f   libucrtd:wcscat.obj
 0001:0006b490       _wcscpy                    1006c490 f   libucrtd:wcscpy.obj
 0001:0006bb20       ??$open_file@ABQBDABQBDABHPAU_iobuf@@@?$__crt_char_traits@D@@SAPAU_iobuf@@ABQBD0ABH$$QAPAU1@@Z 1006cb20 f i libucrtd:fopen.obj
 0001:0006bb50       ??$open_file@ABQB_WABQB_WABHPAU_iobuf@@@?$__crt_char_traits@_W@@SAPAU_iobuf@@ABQB_W0ABH$$QAPAU1@@Z 1006cb50 f i libucrtd:fopen.obj
 0001:0006bb80       ?unlock@__crt_stdio_stream@@QBEXXZ 1006cb80 f i libucrtd:fopen.obj
 0001:0006bba0       __fsopen                   1006cba0 f   libucrtd:fopen.obj
 0001:0006bbc0       __wfopen                   1006cbc0 f   libucrtd:fopen.obj
 0001:0006bbe0       __wfopen_s                 1006cbe0 f   libucrtd:fopen.obj
 0001:0006bc00       __wfsopen                  1006cc00 f   libucrtd:fopen.obj
 0001:0006bc20       _fopen                     1006cc20 f   libucrtd:fopen.obj
 0001:0006bc40       _fopen_s                   1006cc40 f   libucrtd:fopen.obj
 0001:0006bc60       ?is_in_use@__crt_stdio_stream@@QBE_NXZ 1006cc60 f i libucrtd:fclose.obj
 0001:0006bca0       __fclose_nolock            1006cca0 f   libucrtd:fclose.obj
 0001:0006bde0       _fclose                    1006cde0 f   libucrtd:fclose.obj
 0001:0006bf30       __fputc_nolock             1006cf30 f   libucrtd:fputc.obj
 0001:0006bfc0       __fputchar                 1006cfc0 f   libucrtd:fputc.obj
 0001:0006bfe0       __putc_nolock              1006cfe0 f   libucrtd:fputc.obj
 0001:0006c000       _fputc                     1006d000 f   libucrtd:fputc.obj
 0001:0006c240       _putc                      1006d240 f   libucrtd:fputc.obj
 0001:0006c260       _putchar                   1006d260 f   libucrtd:fputc.obj
 0001:0006c2d0       __seh_filter_dll           1006d2d0 f   libucrtd:exception_filter.obj
 0001:0006c300       __seh_filter_exe           1006d300 f   libucrtd:exception_filter.obj
 0001:0006c510       ??$?B$$A6GXPAXK0@Z@__crt_fast_encoded_nullptr_t@@QBEP6GXPAXK0@ZXZ 1006d510 f i libucrtd:exit.obj
 0001:0006c5f0       ??$__crt_fast_decode_pointer@P6GXPAXK0@Z@@YAP6GXPAXK0@ZQ6GX0K0@Z@Z 1006d5f0 f i libucrtd:exit.obj
 0001:0006c620       ??$__crt_fast_encode_pointer@P6GXPAXK0@Z@@YAP6GXPAXK0@ZQ6GX0K0@Z@Z 1006d620 f i libucrtd:exit.obj
 0001:0006c650       ??$__crt_get_proc_address@P6GXI@Z@@YAP6GXI@ZQAUHINSTANCE__@@QBD@Z 1006d650 f i libucrtd:exit.obj
 0001:0006c6e0       ??0?$__crt_unique_handle_t@U__crt_hmodule_traits@@@@QAE@QAUHINSTANCE__@@@Z 1006d6e0 f i libucrtd:exit.obj
 0001:0006c700       ??1?$__crt_unique_handle_t@U__crt_hmodule_traits@@@@QAE@XZ 1006d700 f i libucrtd:exit.obj
 0001:0006c8c0       ?__acrt_select_exit_lock@@YA?AW4__acrt_lock_id@@XZ 1006d8c0 f i libucrtd:exit.obj
 0001:0006c8d0       ?__crt_fast_encode_pointer@@YA?AU__crt_fast_encoded_nullptr_t@@$$T@Z 1006d8d0 f i libucrtd:exit.obj
 0001:0006c900       ?close@?$__crt_unique_handle_t@U__crt_hmodule_traits@@@@QAEXXZ 1006d900 f i libucrtd:exit.obj
 0001:0006c940       ?close@__crt_hmodule_traits@@SA_NPAUHINSTANCE__@@@Z 1006d940 f i libucrtd:exit.obj
 0001:0006ca30       ?get@?$__crt_unique_handle_t@U__crt_hmodule_traits@@@@QBEPAUHINSTANCE__@@XZ 1006da30 f i libucrtd:exit.obj
 0001:0006ca50       ?get_address_of@?$__crt_unique_handle_t@U__crt_hmodule_traits@@@@QAEPAPAUHINSTANCE__@@XZ 1006da50 f i libucrtd:exit.obj
 0001:0006ca60       ?get_invalid_value@__crt_hmodule_traits@@SAPAUHINSTANCE__@@XZ 1006da60 f i libucrtd:exit.obj
 0001:0006cbe0       __Exit                     1006dbe0 f   libucrtd:exit.obj
 0001:0006cc00       ___acrt_initialize_thread_local_exit_callback 1006dc00 f   libucrtd:exit.obj
 0001:0006cc10       __c_exit                   1006dc10 f   libucrtd:exit.obj
 0001:0006cc30       __cexit                    1006dc30 f   libucrtd:exit.obj
 0001:0006cc50       __exit                     1006dc50 f   libucrtd:exit.obj
 0001:0006cc70       __is_c_termination_complete 1006dc70 f   libucrtd:exit.obj
 0001:0006cc90       __register_thread_local_exe_atexit_callback 1006dc90 f   libucrtd:exit.obj
 0001:0006ccd0       _exit                      1006dcd0 f   libucrtd:exit.obj
 0001:0006ccf0       _quick_exit                1006dcf0 f   libucrtd:exit.obj
 0001:0006cd10       ??$?RE@__crt_internal_free_policy@@QBEXQBE@Z 1006dd10 f i libucrtd:argv_parsing.obj
 0001:0006cd30       ??$?RPAD@__crt_internal_free_policy@@QBEXQBQAD@Z 1006dd30 f i libucrtd:argv_parsing.obj
 0001:0006cd50       ??$?RPA_W@__crt_internal_free_policy@@QBEXQBQA_W@Z 1006dd50 f i libucrtd:argv_parsing.obj
 0001:0006d2b0       ??$get_module_file_name@$$TAAY0BAF@DH@?$__crt_char_traits@D@@SAK$$QA$$TAAY0BAF@D$$QAH@Z 1006e2b0 f i libucrtd:argv_parsing.obj
 0001:0006d2d0       ??$get_module_file_name@$$TAAY0BAF@_WH@?$__crt_char_traits@_W@@SAK$$QA$$TAAY0BAF@_W$$QAH@Z 1006e2d0 f i libucrtd:argv_parsing.obj
 0001:0006d9f0       ??$set_program_name@PAD@?$__crt_char_traits@D@@SAX$$QAPAD@Z 1006e9f0 f i libucrtd:argv_parsing.obj
 0001:0006da10       ??$set_program_name@PA_W@?$__crt_char_traits@_W@@SAX$$QAPA_W@Z 1006ea10 f i libucrtd:argv_parsing.obj
 0001:0006da70       ??0?$__crt_unique_heap_ptr@EU__crt_internal_free_policy@@@@QAE@QAE@Z 1006ea70 f i libucrtd:argv_parsing.obj
 0001:0006da90       ??0?$__crt_unique_heap_ptr@PADU__crt_internal_free_policy@@@@QAE@QAPAD@Z 1006ea90 f i libucrtd:argv_parsing.obj
 0001:0006dab0       ??0?$__crt_unique_heap_ptr@PA_WU__crt_internal_free_policy@@@@QAE@QAPA_W@Z 1006eab0 f i libucrtd:argv_parsing.obj
 0001:0006dad0       ??1?$__crt_unique_heap_ptr@EU__crt_internal_free_policy@@@@QAE@XZ 1006ead0 f i libucrtd:argv_parsing.obj
 0001:0006daf0       ??1?$__crt_unique_heap_ptr@PADU__crt_internal_free_policy@@@@QAE@XZ 1006eaf0 f i libucrtd:argv_parsing.obj
 0001:0006db10       ??1?$__crt_unique_heap_ptr@PA_WU__crt_internal_free_policy@@@@QAE@XZ 1006eb10 f i libucrtd:argv_parsing.obj
 0001:0006db30       ??B?$__crt_unique_heap_ptr@EU__crt_internal_free_policy@@@@QBE_NXZ 1006eb30 f i libucrtd:argv_parsing.obj
 0001:0006dbf0       ?detach@?$__crt_unique_heap_ptr@EU__crt_internal_free_policy@@@@QAEPAEXZ 1006ebf0 f i libucrtd:argv_parsing.obj
 0001:0006dc20       ?detach@?$__crt_unique_heap_ptr@PADU__crt_internal_free_policy@@@@QAEPAPADXZ 1006ec20 f i libucrtd:argv_parsing.obj
 0001:0006dc50       ?detach@?$__crt_unique_heap_ptr@PA_WU__crt_internal_free_policy@@@@QAEPAPA_WXZ 1006ec50 f i libucrtd:argv_parsing.obj
 0001:0006dce0       ?get@?$__crt_unique_heap_ptr@EU__crt_internal_free_policy@@@@QBEPAEXZ 1006ece0 f i libucrtd:argv_parsing.obj
 0001:0006dd00       ?get@?$__crt_unique_heap_ptr@PADU__crt_internal_free_policy@@@@QBEPAPADXZ 1006ed00 f i libucrtd:argv_parsing.obj
 0001:0006dd20       ?get@?$__crt_unique_heap_ptr@PA_WU__crt_internal_free_policy@@@@QBEPAPA_WXZ 1006ed20 f i libucrtd:argv_parsing.obj
 0001:0006dd40       ?get_address_of@?$__crt_unique_heap_ptr@PADU__crt_internal_free_policy@@@@QAEPAPAPADXZ 1006ed40 f i libucrtd:argv_parsing.obj
 0001:0006dd50       ?get_address_of@?$__crt_unique_heap_ptr@PA_WU__crt_internal_free_policy@@@@QAEPAPAPA_WXZ 1006ed50 f i libucrtd:argv_parsing.obj
 0001:0006dda0       ?is_valid@?$__crt_unique_heap_ptr@EU__crt_internal_free_policy@@@@QBE_NXZ 1006eda0 f i libucrtd:argv_parsing.obj
 0001:0006ddd0       ?release@?$__crt_unique_heap_ptr@EU__crt_internal_free_policy@@@@QAEXXZ 1006edd0 f i libucrtd:argv_parsing.obj
 0001:0006de00       ?release@?$__crt_unique_heap_ptr@PADU__crt_internal_free_policy@@@@QAEXXZ 1006ee00 f i libucrtd:argv_parsing.obj
 0001:0006de30       ?release@?$__crt_unique_heap_ptr@PA_WU__crt_internal_free_policy@@@@QAEXXZ 1006ee30 f i libucrtd:argv_parsing.obj
 0001:0006dea0       ___acrt_allocate_buffer_for_argv 1006eea0 f   libucrtd:argv_parsing.obj
 0001:0006df60       __configure_narrow_argv    1006ef60 f   libucrtd:argv_parsing.obj
 0001:0006df80       __configure_wide_argv      1006ef80 f   libucrtd:argv_parsing.obj
 0001:0006dfa0       __set_pgmptr               1006efa0 f i libucrtd:argv_parsing.obj
 0001:0006dfb0       __set_wpgmptr              1006efb0 f i libucrtd:argv_parsing.obj
 0001:0006dfbf       ??$?R_W@__crt_internal_free_policy@@QBEXQB_W@Z 1006efbf f i libucrtd:environment_initialization.obj
 0001:0006e428       ??$get_environment_from_os@$$V@?$__crt_char_traits@D@@SAPADXZ 1006f428 f i libucrtd:environment_initialization.obj
 0001:0006e42d       ??$get_environment_from_os@$$V@?$__crt_char_traits@_W@@SAPA_WXZ 1006f42d f i libucrtd:environment_initialization.obj
 0001:0006e556       ??$set_variable_in_environment_nolock@PADH@?$__crt_char_traits@D@@SAH$$QAPAD$$QAH@Z 1006f556 f i libucrtd:environment_initialization.obj
 0001:0006e56e       ??$set_variable_in_environment_nolock@PA_WH@?$__crt_char_traits@_W@@SAH$$QAPA_W$$QAH@Z 1006f56e f i libucrtd:environment_initialization.obj
 0001:0006e586       ??$tcscpy_s@PADABIAAPAD@?$__crt_char_traits@D@@SAH$$QAPADABIAAPAD@Z 1006f586 f i libucrtd:environment_initialization.obj
 0001:0006e5a4       ??$tcscpy_s@PA_WABIAAPA_W@?$__crt_char_traits@_W@@SAH$$QAPA_WABIAAPA_W@Z 1006f5a4 f i libucrtd:environment_initialization.obj
 0001:0006e5c2       ??$tcslen@AAPAD@?$__crt_char_traits@D@@SAIAAPAD@Z 1006f5c2 f i libucrtd:environment_initialization.obj
 0001:0006e5da       ??$tcslen@AAPA_W@?$__crt_char_traits@_W@@SAIAAPA_W@Z 1006f5da f i libucrtd:environment_initialization.obj
 0001:0006e5f8       ??$uninitialize@A6AXAAPAPAD@Z@?$dual_state_global@PAPAD@__crt_state_management@@QAEXA6AXAAPAPAD@Z@Z 1006f5f8 f i libucrtd:environment_initialization.obj
 0001:0006e621       ??$uninitialize@A6AXAAPAPA_W@Z@?$dual_state_global@PAPA_W@__crt_state_management@@QAEXA6AXAAPAPA_W@Z@Z 1006f621 f i libucrtd:environment_initialization.obj
 0001:0006e680       ??0?$__crt_unique_heap_ptr@_WU__crt_internal_free_policy@@@@QAE@QA_W@Z 1006f680 f i libucrtd:environment_initialization.obj
 0001:0006e690       ??1?$__crt_unique_heap_ptr@_WU__crt_internal_free_policy@@@@QAE@XZ 1006f690 f i libucrtd:environment_initialization.obj
 0001:0006e6a5       ??B?$__crt_unique_heap_ptr@PADU__crt_internal_free_policy@@@@QBE_NXZ 1006f6a5 f i libucrtd:environment_initialization.obj
 0001:0006e6ac       ??B?$__crt_unique_heap_ptr@PA_WU__crt_internal_free_policy@@@@QBE_NXZ 1006f6ac f i libucrtd:environment_initialization.obj
 0001:0006e6b3       ??B?$__crt_unique_heap_ptr@_WU__crt_internal_free_policy@@@@QBE_NXZ 1006f6b3 f i libucrtd:environment_initialization.obj
 0001:0006e6ba       ?__crt_compute_required_transform_buffer_count@@YAIIQBD@Z 1006f6ba f i libucrtd:environment_initialization.obj
 0001:0006e6d6       ?__crt_compute_required_transform_buffer_count@@YAIIQB_W@Z 1006f6d6 f i libucrtd:environment_initialization.obj
 0001:0006e6f4       ?__crt_transform_string@@YAIIQBDQA_WI@Z 1006f6f4 f i libucrtd:environment_initialization.obj
 0001:0006e713       ?__crt_transform_string@@YAIIQB_WQADI@Z 1006f713 f i libucrtd:environment_initialization.obj
 0001:0006e735       ?detach@?$__crt_unique_heap_ptr@DU__crt_internal_free_policy@@@@QAEPADXZ 1006f735 f i libucrtd:environment_initialization.obj
 0001:0006e73b       ?detach@?$__crt_unique_heap_ptr@_WU__crt_internal_free_policy@@@@QAEPA_WXZ 1006f73b f i libucrtd:environment_initialization.obj
 0001:0006e741       ?get@?$__crt_unique_heap_ptr@_WU__crt_internal_free_policy@@@@QBEPA_WXZ 1006f741 f i libucrtd:environment_initialization.obj
 0001:0006e768       ?initialize@?$dual_state_global@PAPAD@__crt_state_management@@QAEXQAPAD@Z 1006f768 f i libucrtd:environment_initialization.obj
 0001:0006e78e       ?initialize@?$dual_state_global@PAPA_W@__crt_state_management@@QAEXQAPA_W@Z 1006f78e f i libucrtd:environment_initialization.obj
 0001:0006e7b4       ?is_valid@?$__crt_unique_heap_ptr@PADU__crt_internal_free_policy@@@@QBE_NXZ 1006f7b4 f i libucrtd:environment_initialization.obj
 0001:0006e7bb       ?is_valid@?$__crt_unique_heap_ptr@PA_WU__crt_internal_free_policy@@@@QBE_NXZ 1006f7bb f i libucrtd:environment_initialization.obj
 0001:0006e7c2       ?is_valid@?$__crt_unique_heap_ptr@_WU__crt_internal_free_policy@@@@QBE_NXZ 1006f7c2 f i libucrtd:environment_initialization.obj
 0001:0006e7d1       ?release@?$__crt_unique_heap_ptr@_WU__crt_internal_free_policy@@@@QAEXXZ 1006f7d1 f i libucrtd:environment_initialization.obj
 0001:0006e7e6       ?value@?$dual_state_global@PAPAD@__crt_state_management@@QAEAAPAPADXZ 1006f7e6 f i libucrtd:environment_initialization.obj
 0001:0006e7e9       ?value@?$dual_state_global@PAPA_W@__crt_state_management@@QAEAAPAPA_WXZ 1006f7e9 f i libucrtd:environment_initialization.obj
 0001:0006e7ec       ___dcrt_get_or_create_narrow_environment_nolock 1006f7ec f   libucrtd:environment_initialization.obj
 0001:0006e7f1       ___dcrt_get_or_create_wide_environment_nolock 1006f7f1 f   libucrtd:environment_initialization.obj
 0001:0006e7f6       ___dcrt_uninitialize_environments_nolock 1006f7f6 f   libucrtd:environment_initialization.obj
 0001:0006e82d       ___p__environ              1006f82d f   libucrtd:environment_initialization.obj
 0001:0006e833       ___p__wenviron             1006f833 f   libucrtd:environment_initialization.obj
 0001:0006e839       __get_initial_narrow_environment 1006f839 f   libucrtd:environment_initialization.obj
 0001:0006e84d       __get_initial_wide_environment 1006f84d f   libucrtd:environment_initialization.obj
 0001:0006e861       __initialize_narrow_environment 1006f861 f   libucrtd:environment_initialization.obj
 0001:0006e866       __initialize_wide_environment 1006f866 f   libucrtd:environment_initialization.obj
 0001:0006e870       ??$?B$$A6AXXZ@__crt_fast_encoded_nullptr_t@@QBEP6AXXZXZ 1006f870 f i libucrtd:onexit.obj
 0001:0006e890       ??$?BP6AXXZ@__crt_fast_encoded_nullptr_t@@QBEPAP6AXXZXZ 1006f890 f i libucrtd:onexit.obj
 0001:0006e8b0       ??$?RP6AXXZ@__crt_internal_free_policy@@QBEXQBQ6AXXZ@Z 1006f8b0 f i libucrtd:onexit.obj
 0001:0006ea70       ??$__crt_fast_decode_pointer@P6AXXZ@@YAP6AXXZQ6AXXZ@Z 1006fa70 f i libucrtd:onexit.obj
 0001:0006eaa0       ??$__crt_fast_decode_pointer@PAP6AXXZ@@YAPAP6AXXZQAP6AXXZ@Z 1006faa0 f i libucrtd:onexit.obj
 0001:0006ead0       ??$__crt_fast_encode_pointer@P6AHXZ@@YAP6AHXZQ6AHXZ@Z 1006fad0 f i libucrtd:onexit.obj
 0001:0006eb00       ??$__crt_fast_encode_pointer@P6AXXZ@@YAP6AXXZQ6AXXZ@Z 1006fb00 f i libucrtd:onexit.obj
 0001:0006eb30       ??$__crt_fast_encode_pointer@PAP6AXXZ@@YAPAP6AXXZQAP6AXXZ@Z 1006fb30 f i libucrtd:onexit.obj
 0001:0006ec30       ??0?$__crt_unique_heap_ptr@P6AXXZU__crt_internal_free_policy@@@@QAE@QAP6AXXZ@Z 1006fc30 f i libucrtd:onexit.obj
 0001:0006ec50       ??1?$__crt_unique_heap_ptr@P6AXXZU__crt_internal_free_policy@@@@QAE@XZ 1006fc50 f i libucrtd:onexit.obj
 0001:0006ec70       ??1scoped_global_state_reset@__crt_state_management@@QAE@XZ 1006fc70 f i libucrtd:onexit.obj
 0001:0006f0e0       ?detach@?$__crt_unique_heap_ptr@P6AXXZU__crt_internal_free_policy@@@@QAEPAP6AXXZXZ 100700e0 f i libucrtd:onexit.obj
 0001:0006f110       ?release@?$__crt_unique_heap_ptr@P6AXXZU__crt_internal_free_policy@@@@QAEXXZ 10070110 f i libucrtd:onexit.obj
 0001:0006f140       __crt_at_quick_exit        10070140 f   libucrtd:onexit.obj
 0001:0006f160       __crt_atexit               10070160 f   libucrtd:onexit.obj
 0001:0006f180       __execute_onexit_table     10070180 f   libucrtd:onexit.obj
 0001:0006f1b0       __initialize_onexit_table  100701b0 f   libucrtd:onexit.obj
 0001:0006f210       __register_onexit_function 10070210 f   libucrtd:onexit.obj
 0001:0006f450       ??$?BX@__crt_fast_encoded_nullptr_t@@QBEPAXXZ 10070450 f i libucrtd:initialization.obj
 0001:0006f470       ??$__crt_fast_encode_pointer@PAX@@YAPAXQAX@Z 10070470 f i libucrtd:initialization.obj
 0001:0006f530       ?initialize@?$dual_state_global@PAU__crt_locale_data@@@__crt_state_management@@QAEXQAU__crt_locale_data@@@Z 10070530 f i libucrtd:initialization.obj
 0001:0006f570       ___acrt_initialize         10070570 f   libucrtd:initialization.obj
 0001:0006f590       ___acrt_thread_attach      10070590 f   libucrtd:initialization.obj
 0001:0006f5b0       ___acrt_thread_detach      100705b0 f   libucrtd:initialization.obj
 0001:0006f5c0       ___acrt_uninitialize       100705c0 f   libucrtd:initialization.obj
 0001:0006f5e0       ___acrt_uninitialize_critical 100705e0 f   libucrtd:initialization.obj
 0001:00070e50       __CrtCheckMemory           10071e50 f   libucrtd:debug_heap.obj
 0001:00070fe0       __CrtDoForAllClientObjects 10071fe0 f   libucrtd:debug_heap.obj
 0001:00071130       __CrtDumpMemoryLeaks       10072130 f   libucrtd:debug_heap.obj
 0001:000711d0       __CrtGetAllocHook          100721d0 f   libucrtd:debug_heap.obj
 0001:000711e0       __CrtGetDumpClient         100721e0 f   libucrtd:debug_heap.obj
 0001:000711f0       __CrtIsMemoryBlock         100721f0 f   libucrtd:debug_heap.obj
 0001:00071340       __CrtIsValidHeapPointer    10072340 f   libucrtd:debug_heap.obj
 0001:00071370       __CrtIsValidPointer        10072370 f   libucrtd:debug_heap.obj
 0001:000713a0       __CrtMemCheckpoint         100723a0 f   libucrtd:debug_heap.obj
 0001:000715d0       __CrtMemDifference         100725d0 f   libucrtd:debug_heap.obj
 0001:00071840       __CrtMemDumpAllObjectsSince 10072840 f   libucrtd:debug_heap.obj
 0001:000718e0       __CrtMemDumpStatistics     100728e0 f   libucrtd:debug_heap.obj
 0001:00071a10       __CrtReportBlockType       10072a10 f   libucrtd:debug_heap.obj
 0001:00071a40       __CrtSetAllocHook          10072a40 f   libucrtd:debug_heap.obj
 0001:00071a60       __CrtSetBreakAlloc         10072a60 f   libucrtd:debug_heap.obj
 0001:00071a80       __CrtSetDbgBlockType       10072a80 f   libucrtd:debug_heap.obj
 0001:00071b60       __CrtSetDbgFlag            10072b60 f   libucrtd:debug_heap.obj
 0001:00071cd0       __CrtSetDumpClient         10072cd0 f   libucrtd:debug_heap.obj
 0001:00071cf0       ___acrt_get_locale_data_prefix 10072cf0 f i libucrtd:debug_heap.obj
 0001:00071d10       ___p__crtBreakAlloc        10072d10 f   libucrtd:debug_heap.obj
 0001:00071d20       ___p__crtDbgFlag           10072d20 f   libucrtd:debug_heap.obj
 0001:00071d30       __aligned_free_dbg         10072d30 f   libucrtd:debug_heap.obj
 0001:00071de0       __aligned_malloc_dbg       10072de0 f   libucrtd:debug_heap.obj
 0001:00071e10       __aligned_msize_dbg        10072e10 f   libucrtd:debug_heap.obj
 0001:00071f40       __aligned_offset_malloc_dbg 10072f40 f   libucrtd:debug_heap.obj
 0001:00072120       __aligned_offset_realloc_dbg 10073120 f   libucrtd:debug_heap.obj
 0001:00072430       __aligned_offset_recalloc_dbg 10073430 f   libucrtd:debug_heap.obj
 0001:000724f0       __aligned_realloc_dbg      100734f0 f   libucrtd:debug_heap.obj
 0001:00072520       __aligned_recalloc_dbg     10073520 f   libucrtd:debug_heap.obj
 0001:00072550       __calloc_dbg               10073550 f   libucrtd:debug_heap.obj
 0001:000725c0       __chvalidchk_l             100735c0 f i libucrtd:debug_heap.obj
 0001:000725e0       __expand_dbg               100735e0 f   libucrtd:debug_heap.obj
 0001:00072710       __free_dbg                 10073710 f   libucrtd:debug_heap.obj
 0001:000727c0       __ischartype_l             100737c0 f i libucrtd:debug_heap.obj
 0001:00072840       __malloc_dbg               10073840 f   libucrtd:debug_heap.obj
 0001:00072860       __msize_dbg                10073860 f   libucrtd:debug_heap.obj
 0001:000729f0       __realloc_dbg              100739f0 f   libucrtd:debug_heap.obj
 0001:00072a90       __recalloc_dbg             10073a90 f   libucrtd:debug_heap.obj
 0001:00072b40       __initterm                 10073b40 f   libucrtd:initterm.obj
 0001:00072b90       __initterm_e               10073b90 f   libucrtd:initterm.obj
 0001:00072f00       _strcpy_s                  10073f00 f   libucrtd:strcpy_s.obj
 0001:00073330       _strcat_s                  10074330 f   libucrtd:strcat_s.obj
 0001:00073350       ??$?B$$A6AHI@Z@__crt_fast_encoded_nullptr_t@@QBEP6AHI@ZXZ 10074350 f i libucrtd:new_handler.obj
 0001:00073370       ??$__crt_fast_decode_pointer@P6AHI@Z@@YAP6AHI@ZQ6AHI@Z@Z 10074370 f i libucrtd:new_handler.obj
 0001:000733a0       ??$__crt_fast_encode_pointer@P6AHI@Z@@YAP6AHI@ZQ6AHI@Z@Z 100743a0 f i libucrtd:new_handler.obj
 0001:000733d0       ?_set_new_handler@@YAP6AHI@ZH@Z 100743d0 f   libucrtd:new_handler.obj
 0001:00073430       ?initialize@?$dual_state_global@P6AHI@Z@__crt_state_management@@QAEXQ6AHI@Z@Z 10074430 f i libucrtd:new_handler.obj
 0001:00073470       ?value@?$dual_state_global@P6AHI@Z@__crt_state_management@@QAEAAP6AHI@ZXZ 10074470 f i libucrtd:new_handler.obj
 0001:00073490       ___acrt_initialize_new_handler 10074490 f   libucrtd:new_handler.obj
 0001:000734b0       __callnewh                 100744b0 f   libucrtd:new_handler.obj
 0001:000734f0       __query_new_handler        100744f0 f   libucrtd:new_handler.obj
 0001:00073580       __set_new_handler          10074580 f   libucrtd:new_handler.obj
 0001:00073660       __get_terminate            10074660 f   libucrtd:terminate.obj
 0001:00073680       _set_terminate             10074680 f   libucrtd:terminate.obj
 0001:000736b0       _terminate                 100746b0 f   libucrtd:terminate.obj
 0001:00074080       __makepath                 10075080 f   libucrtd:makepath.obj
 0001:000740b0       __makepath_s               100750b0 f   libucrtd:makepath.obj
 0001:000740e0       __wmakepath                100750e0 f   libucrtd:makepath.obj
 0001:00074110       __wmakepath_s              10075110 f   libucrtd:makepath.obj
 0001:00075a60       ??$tcsncpy_s@AAPADIAAPBDABI@?$__crt_char_traits@D@@SAHAAPAD$$QAIAAPBDABI@Z 10076a60 f i libucrtd:splitpath.obj
 0001:00075a90       ??$tcsncpy_s@AAPADIAAPBDH@?$__crt_char_traits@D@@SAHAAPAD$$QAIAAPBD$$QAH@Z 10076a90 f i libucrtd:splitpath.obj
 0001:00075ac0       ??$tcsncpy_s@AAPA_WIAAPB_WABI@?$__crt_char_traits@_W@@SAHAAPA_W$$QAIAAPB_WABI@Z 10076ac0 f i libucrtd:splitpath.obj
 0001:00075af0       ??$tcsncpy_s@AAPA_WIAAPB_WH@?$__crt_char_traits@_W@@SAHAAPA_W$$QAIAAPB_W$$QAH@Z 10076af0 f i libucrtd:splitpath.obj
 0001:00075d30       __splitpath                10076d30 f   libucrtd:splitpath.obj
 0001:00075d60       __splitpath_s              10076d60 f   libucrtd:splitpath.obj
 0001:00075db0       __wsplitpath               10076db0 f   libucrtd:splitpath.obj
 0001:00075de0       __wsplitpath_s             10076de0 f   libucrtd:splitpath.obj
 0001:00075e30       __set_abort_behavior       10076e30 f   libucrtd:abort.obj
 0001:00075e60       _abort                     10076e60 f   libucrtd:abort.obj
 0001:00075ed0       _strcmp                    10076ed0 f   libucrtd:strcmp.obj
 0001:00075f60       _strlen                    10076f60 f   libucrtd:strlen.obj
 0001:00075ff0       ??$is_overflow_condition@K@__crt_strtox@@YA_NIK@Z 10076ff0 f i libucrtd:atox.obj
 0001:00076050       ??$is_overflow_condition@_K@__crt_strtox@@YA_NI_K@Z 10077050 f i libucrtd:atox.obj
 0001:000760e0       ??$make_c_string_character_source@D$$T@__crt_strtox@@YA?AV?$c_string_character_source@D@0@QBD$$T@Z 100770e0 f i libucrtd:atox.obj
 0001:00076100       ??$make_c_string_character_source@_W$$T@__crt_strtox@@YA?AV?$c_string_character_source@_W@0@QB_W$$T@Z 10077100 f i libucrtd:atox.obj
 0001:00076120       ??$parse_integer@KV?$c_string_character_source@D@__crt_strtox@@@__crt_strtox@@YAKQAU__crt_locale_pointers@@V?$c_string_character_source@D@0@H_N@Z 10077120 f i libucrtd:atox.obj
 0001:00076490       ??$parse_integer@KV?$c_string_character_source@_W@__crt_strtox@@@__crt_strtox@@YAKQAU__crt_locale_pointers@@V?$c_string_character_source@_W@0@H_N@Z 10077490 f i libucrtd:atox.obj
 0001:00076800       ??$parse_integer@_KV?$c_string_character_source@D@__crt_strtox@@@__crt_strtox@@YA_KQAU__crt_locale_pointers@@V?$c_string_character_source@D@0@H_N@Z 10077800 f i libucrtd:atox.obj
 0001:00076c20       ??$parse_integer@_KV?$c_string_character_source@_W@__crt_strtox@@@__crt_strtox@@YA_KQAU__crt_locale_pointers@@V?$c_string_character_source@_W@0@H_N@Z 10077c20 f i libucrtd:atox.obj
 0001:00077050       ??$parse_integer_from_string@JD$$T@__crt_strtox@@YAJQBD$$THQAU__crt_locale_pointers@@@Z 10078050 f i libucrtd:atox.obj
 0001:00077090       ??$parse_integer_from_string@J_W$$T@__crt_strtox@@YAJQB_W$$THQAU__crt_locale_pointers@@@Z 10078090 f i libucrtd:atox.obj
 0001:000770d0       ??$parse_integer_from_string@_JD$$T@__crt_strtox@@YA_JQBD$$THQAU__crt_locale_pointers@@@Z 100780d0 f i libucrtd:atox.obj
 0001:00077110       ??$parse_integer_from_string@_J_W$$T@__crt_strtox@@YA_JQB_W$$THQAU__crt_locale_pointers@@@Z 10078110 f i libucrtd:atox.obj
 0001:00077150       ??0?$c_string_character_source@D@__crt_strtox@@QAE@QBDQAPBD@Z 10078150 f i libucrtd:atox.obj
 0001:00077190       ??0?$c_string_character_source@_W@__crt_strtox@@QAE@QB_WQAPB_W@Z 10078190 f i libucrtd:atox.obj
 0001:000771d0       ??1?$c_string_character_source@D@__crt_strtox@@QAE@XZ 100781d0 f i libucrtd:atox.obj
 0001:00077200       ??1?$c_string_character_source@_W@__crt_strtox@@QAE@XZ 10078200 f i libucrtd:atox.obj
 0001:00077230       ?get@?$c_string_character_source@D@__crt_strtox@@QAEDXZ 10078230 f i libucrtd:atox.obj
 0001:00077260       ?get@?$c_string_character_source@_W@__crt_strtox@@QAE_WXZ 10078260 f i libucrtd:atox.obj
 0001:00077290       ?is_space@__crt_strtox@@YA_NDQAU__crt_locale_pointers@@@Z 10078290 f i libucrtd:atox.obj
 0001:000772d0       ?is_space@__crt_strtox@@YA_N_WPAU__crt_locale_pointers@@@Z 100782d0 f i libucrtd:atox.obj
 0001:00077300       ?maximum_signed_value@__crt_strtox@@YAJK@Z 10078300 f i libucrtd:atox.obj
 0001:00077310       ?maximum_signed_value@__crt_strtox@@YA_J_K@Z 10078310 f i libucrtd:atox.obj
 0001:00077320       ?minimum_signed_value@__crt_strtox@@YAJK@Z 10078320 f i libucrtd:atox.obj
 0001:00077330       ?minimum_signed_value@__crt_strtox@@YA_J_K@Z 10078330 f i libucrtd:atox.obj
 0001:00077340       ?parse_digit@__crt_strtox@@YAID@Z 10078340 f i libucrtd:atox.obj
 0001:000773a0       ?parse_digit@__crt_strtox@@YAI_W@Z 100783a0 f i libucrtd:atox.obj
 0001:000773f0       ?restore_state@?$c_string_character_source@D@__crt_strtox@@QAE_NQBD@Z 100783f0 f i libucrtd:atox.obj
 0001:00077410       ?restore_state@?$c_string_character_source@_W@__crt_strtox@@QAE_NQB_W@Z 10078410 f i libucrtd:atox.obj
 0001:00077430       ?save_state@?$c_string_character_source@D@__crt_strtox@@QBEPBDXZ 10078430 f i libucrtd:atox.obj
 0001:00077450       ?save_state@?$c_string_character_source@_W@__crt_strtox@@QBEPB_WXZ 10078450 f i libucrtd:atox.obj
 0001:00077470       ?unget@?$c_string_character_source@D@__crt_strtox@@QAEXD@Z 10078470 f i libucrtd:atox.obj
 0001:00077520       ?unget@?$c_string_character_source@_W@__crt_strtox@@QAEX_W@Z 10078520 f i libucrtd:atox.obj
 0001:000775d0       ?validate@?$c_string_character_source@D@__crt_strtox@@QBE_NXZ 100785d0 f i libucrtd:atox.obj
 0001:00077660       ?validate@?$c_string_character_source@_W@__crt_strtox@@QBE_NXZ 10078660 f i libucrtd:atox.obj
 0001:000776f0       ?wide_character_to_digit@__crt_strtox@@YAH_W@Z 100786f0 f i libucrtd:atox.obj
 0001:00077a20       ___ascii_iswalpha          10078a20 f i libucrtd:atox.obj
 0001:00077a60       ___ascii_toupper           10078a60 f i libucrtd:atox.obj
 0001:00077a80       ___ascii_towupper          10078a80 f i libucrtd:atox.obj
 0001:00077aa0       __atoi64                   10078aa0 f   libucrtd:atox.obj
 0001:00077ac0       __atoi64_l                 10078ac0 f   libucrtd:atox.obj
 0001:00077ae0       __atoi_l                   10078ae0 f   libucrtd:atox.obj
 0001:00077b00       __atol_l                   10078b00 f   libucrtd:atox.obj
 0001:00077b20       __atoll_l                  10078b20 f   libucrtd:atox.obj
 0001:00077b40       __wtoi                     10078b40 f   libucrtd:atox.obj
 0001:00077b60       __wtoi64                   10078b60 f   libucrtd:atox.obj
 0001:00077b80       __wtoi64_l                 10078b80 f   libucrtd:atox.obj
 0001:00077ba0       __wtoi_l                   10078ba0 f   libucrtd:atox.obj
 0001:00077bc0       __wtol                     10078bc0 f   libucrtd:atox.obj
 0001:00077be0       __wtol_l                   10078be0 f   libucrtd:atox.obj
 0001:00077c00       __wtoll                    10078c00 f   libucrtd:atox.obj
 0001:00077c20       __wtoll_l                  10078c20 f   libucrtd:atox.obj
 0001:00077c40       _atoi                      10078c40 f   libucrtd:atox.obj
 0001:00077c60       _atol                      10078c60 f   libucrtd:atox.obj
 0001:00077c80       _atoll                     10078c80 f   libucrtd:atox.obj
 0001:00077ca0       _strncmp                   10078ca0 f   libucrtd:strncmp.obj
 0001:00077d20       _wcsncmp                   10078d20 f   libucrtd:wcsncmp.obj
 0001:00077d80       __CrtGetDebugFillThreshold 10078d80 f   libucrtd:debug_fill_threshold.obj
 0001:00077d90       __CrtSetDebugFillThreshold 10078d90 f   libucrtd:debug_fill_threshold.obj
 0001:00077db0       ??$make_c_string_character_source@DPAPAD@__crt_strtox@@YA?AV?$c_string_character_source@D@0@QBDQAPAD@Z 10078db0 f i libucrtd:strtox.obj
 0001:00077dd0       ??$make_c_string_character_source@_WPAPA_W@__crt_strtox@@YA?AV?$c_string_character_source@_W@0@QB_WQAPA_W@Z 10078dd0 f i libucrtd:strtox.obj
 0001:00077df0       ??$parse_integer_from_string@JDPAPAD@__crt_strtox@@YAJQBDQAPADHQAU__crt_locale_pointers@@@Z 10078df0 f i libucrtd:strtox.obj
 0001:00077e30       ??$parse_integer_from_string@J_WPAPA_W@__crt_strtox@@YAJQB_WQAPA_WHQAU__crt_locale_pointers@@@Z 10078e30 f i libucrtd:strtox.obj
 0001:00077e70       ??$parse_integer_from_string@KDPAPAD@__crt_strtox@@YAKQBDQAPADHQAU__crt_locale_pointers@@@Z 10078e70 f i libucrtd:strtox.obj
 0001:00077eb0       ??$parse_integer_from_string@K_WPAPA_W@__crt_strtox@@YAKQB_WQAPA_WHQAU__crt_locale_pointers@@@Z 10078eb0 f i libucrtd:strtox.obj
 0001:00077ef0       ??$parse_integer_from_string@_JDPAPAD@__crt_strtox@@YA_JQBDQAPADHQAU__crt_locale_pointers@@@Z 10078ef0 f i libucrtd:strtox.obj
 0001:00077f30       ??$parse_integer_from_string@_J_WPAPA_W@__crt_strtox@@YA_JQB_WQAPA_WHQAU__crt_locale_pointers@@@Z 10078f30 f i libucrtd:strtox.obj
 0001:00077f70       ??$parse_integer_from_string@_KDPAPAD@__crt_strtox@@YA_KQBDQAPADHQAU__crt_locale_pointers@@@Z 10078f70 f i libucrtd:strtox.obj
 0001:00077fb0       ??$parse_integer_from_string@_K_WPAPA_W@__crt_strtox@@YA_KQB_WQAPA_WHQAU__crt_locale_pointers@@@Z 10078fb0 f i libucrtd:strtox.obj
 0001:00077ff0       __strtoi64                 10078ff0 f   libucrtd:strtox.obj
 0001:00078010       __strtoi64_l               10079010 f   libucrtd:strtox.obj
 0001:00078030       __strtoimax_l              10079030 f   libucrtd:strtox.obj
 0001:00078050       __strtol_l                 10079050 f   libucrtd:strtox.obj
 0001:00078070       __strtoll_l                10079070 f   libucrtd:strtox.obj
 0001:00078090       __strtoui64                10079090 f   libucrtd:strtox.obj
 0001:000780b0       __strtoui64_l              100790b0 f   libucrtd:strtox.obj
 0001:000780d0       __strtoul_l                100790d0 f   libucrtd:strtox.obj
 0001:000780f0       __strtoull_l               100790f0 f   libucrtd:strtox.obj
 0001:00078110       __strtoumax_l              10079110 f   libucrtd:strtox.obj
 0001:00078130       __wcstoi64                 10079130 f   libucrtd:strtox.obj
 0001:00078150       __wcstoi64_l               10079150 f   libucrtd:strtox.obj
 0001:00078170       __wcstoimax_l              10079170 f   libucrtd:strtox.obj
 0001:00078190       __wcstol_l                 10079190 f   libucrtd:strtox.obj
 0001:000781b0       __wcstoll_l                100791b0 f   libucrtd:strtox.obj
 0001:000781d0       __wcstoui64                100791d0 f   libucrtd:strtox.obj
 0001:000781f0       __wcstoui64_l              100791f0 f   libucrtd:strtox.obj
 0001:00078210       __wcstoul_l                10079210 f   libucrtd:strtox.obj
 0001:00078230       __wcstoull_l               10079230 f   libucrtd:strtox.obj
 0001:00078250       __wcstoumax_l              10079250 f   libucrtd:strtox.obj
 0001:00078270       _strtoimax                 10079270 f   libucrtd:strtox.obj
 0001:00078290       _strtol                    10079290 f   libucrtd:strtox.obj
 0001:000782b0       _strtoll                   100792b0 f   libucrtd:strtox.obj
 0001:000782d0       _strtoul                   100792d0 f   libucrtd:strtox.obj
 0001:000782f0       _strtoull                  100792f0 f   libucrtd:strtox.obj
 0001:00078310       _strtoumax                 10079310 f   libucrtd:strtox.obj
 0001:00078330       _wcstoimax                 10079330 f   libucrtd:strtox.obj
 0001:00078350       _wcstol                    10079350 f   libucrtd:strtox.obj
 0001:00078370       _wcstoll                   10079370 f   libucrtd:strtox.obj
 0001:00078390       _wcstoul                   10079390 f   libucrtd:strtox.obj
 0001:000783b0       _wcstoull                  100793b0 f   libucrtd:strtox.obj
 0001:000783d0       _wcstoumax                 100793d0 f   libucrtd:strtox.obj
 0001:000783f0       __mbtowc_l                 100793f0 f   libucrtd:mbtowc.obj
 0001:00078710       _mbtowc                    10079710 f   libucrtd:mbtowc.obj
 0001:00078730       __wctomb_l                 10079730 f   libucrtd:wctomb.obj
 0001:000787b0       __wctomb_s_l               100797b0 f   libucrtd:wctomb.obj
 0001:00078b70       _wctomb                    10079b70 f   libucrtd:wctomb.obj
 0001:00078bc0       _wctomb_s                  10079bc0 f   libucrtd:wctomb.obj
 0001:00078bf0       ??$?RU__acrt_ptd@@@__crt_internal_free_policy@@QBEXQBU__acrt_ptd@@@Z 10079bf0 f i libucrtd:per_thread_data.obj
 0001:000790a0       ??0?$__crt_unique_heap_ptr@U__acrt_ptd@@U__crt_internal_free_policy@@@@QAE@QAU__acrt_ptd@@@Z 1007a0a0 f i libucrtd:per_thread_data.obj
 0001:000790c0       ??0__crt_scoped_get_last_error_reset@@QAE@XZ 1007a0c0 f i libucrtd:per_thread_data.obj
 0001:000790e0       ??1?$__crt_unique_heap_ptr@U__acrt_ptd@@U__crt_internal_free_policy@@@@QAE@XZ 1007a0e0 f i libucrtd:per_thread_data.obj
 0001:00079100       ??1__crt_scoped_get_last_error_reset@@QAE@XZ 1007a100 f i libucrtd:per_thread_data.obj
 0001:00079120       ??B?$__crt_unique_heap_ptr@U__acrt_ptd@@U__crt_internal_free_policy@@@@QBE_NXZ 1007a120 f i libucrtd:per_thread_data.obj
 0001:00079400       ?dangerous_get_state_array@?$dual_state_global@PAU__crt_locale_data@@@__crt_state_management@@QAEPAPAU__crt_locale_data@@XZ 1007a400 f i libucrtd:per_thread_data.obj
 0001:00079580       ?detach@?$__crt_unique_heap_ptr@U__acrt_ptd@@U__crt_internal_free_policy@@@@QAEPAU__acrt_ptd@@XZ 1007a580 f i libucrtd:per_thread_data.obj
 0001:000795b0       ?get@?$__crt_unique_heap_ptr@U__acrt_ptd@@U__crt_internal_free_policy@@@@QBEPAU__acrt_ptd@@XZ 1007a5b0 f i libucrtd:per_thread_data.obj
 0001:000795d0       ?get_current_state_index@__crt_state_management@@YAIABV__crt_scoped_get_last_error_reset@@@Z 1007a5d0 f i libucrtd:per_thread_data.obj
 0001:00079740       ?is_valid@?$__crt_unique_heap_ptr@U__acrt_ptd@@U__crt_internal_free_policy@@@@QBE_NXZ 1007a740 f i libucrtd:per_thread_data.obj
 0001:00079770       ?release@?$__crt_unique_heap_ptr@U__acrt_ptd@@U__crt_internal_free_policy@@@@QAEXXZ 1007a770 f i libucrtd:per_thread_data.obj
 0001:00079860       ?value@?$dual_state_global@PAU__crt_locale_data@@@__crt_state_management@@QAEAAPAU__crt_locale_data@@XZ 1007a860 f i libucrtd:per_thread_data.obj
 0001:00079880       ___acrt_freeptd            1007a880 f   libucrtd:per_thread_data.obj
 0001:000798b0       ___acrt_getptd             1007a8b0 f   libucrtd:per_thread_data.obj
 0001:000798d0       ___acrt_getptd_head        1007a8d0 f   libucrtd:per_thread_data.obj
 0001:000798f0       ___acrt_getptd_noexit      1007a8f0 f   libucrtd:per_thread_data.obj
 0001:00079900       ___acrt_initialize_ptd     1007a900 f   libucrtd:per_thread_data.obj
 0001:00079940       ___acrt_uninitialize_ptd   1007a940 f   libucrtd:per_thread_data.obj
 0001:00079970       ___threadhandle            1007a970 f   libucrtd:per_thread_data.obj
 0001:00079980       ___threadid                1007a980 f   libucrtd:per_thread_data.obj
 0001:00079990       ?value@?$dual_state_global@PAU__crt_multibyte_data@@@__crt_state_management@@QAEAAPAU__crt_multibyte_data@@XZ 1007a990 f i libucrtd:locale_update.obj
 0001:000799b0       ___acrt_should_sync_with_global_locale 1007a9b0 f i libucrtd:locale_update.obj
 0001:000799e0       ___acrt_update_locale_info 1007a9e0 f   libucrtd:locale_update.obj
 0001:00079a20       ___acrt_update_multibyte_info 1007aa20 f   libucrtd:locale_update.obj
 0001:00079a60       ?__acrt_fp_classify@@YA?AW4__acrt_fp_class@@ABN@Z 1007aa60 f i libucrtd:cvt.obj
 0001:00079b80       ?__acrt_fp_is_negative@@YA_NABN@Z 1007ab80 f i libucrtd:cvt.obj
 0001:0007ae70       ?strrchr@@YAPADQADH@Z      1007be70 f i libucrtd:cvt.obj
 0001:0007ae90       ___acrt_fp_format          1007be90 f   libucrtd:cvt.obj
 0001:0007b350       __fputwc_nolock            1007c350 f   libucrtd:fputwc.obj
 0001:0007b540       __fputwchar                1007c540 f   libucrtd:fputwc.obj
 0001:0007b560       __putwc_nolock             1007c560 f   libucrtd:fputwc.obj
 0001:0007b580       _fputwc                    1007c580 f   libucrtd:fputwc.obj
 0001:0007b690       _putwc                     1007c690 f   libucrtd:fputwc.obj
 0001:0007b6b0       _putwchar                  1007c6b0 f   libucrtd:fputwc.obj
 0001:0007b6d0       ?lowio_handle@__crt_stdio_stream@@QBEHXZ 1007c6d0 f i libucrtd:fileno.obj
 0001:0007b6f0       __fileno                   1007c6f0 f   libucrtd:fileno.obj
 0001:0007b790       ??$?RPAU__crt_stdio_stream_data@@@__crt_internal_free_policy@@QBEXQBQAU__crt_stdio_stream_data@@@Z 1007c790 f i libucrtd:_file.obj
 0001:0007b7b0       ??0?$__crt_unique_heap_ptr@PAU__crt_stdio_stream_data@@U__crt_internal_free_policy@@@@QAE@QAPAU__crt_stdio_stream_data@@@Z 1007c7b0 f i libucrtd:_file.obj
 0001:0007b7d0       ??1?$__crt_unique_heap_ptr@PAU__crt_stdio_stream_data@@U__crt_internal_free_policy@@@@QAE@XZ 1007c7d0 f i libucrtd:_file.obj
 0001:0007b7f0       ?detach@?$__crt_unique_heap_ptr@PAU__crt_stdio_stream_data@@U__crt_internal_free_policy@@@@QAEPAPAU__crt_stdio_stream_data@@XZ 1007c7f0 f i libucrtd:_file.obj
 0001:0007b820       ?release@?$__crt_unique_heap_ptr@PAU__crt_stdio_stream_data@@U__crt_internal_free_policy@@@@QAEXXZ 1007c820 f i libucrtd:_file.obj
 0001:0007b850       ___acrt_initialize_stdio   1007c850 f   libucrtd:_file.obj
 0001:0007b9c0       ___acrt_iob_func           1007c9c0 f   libucrtd:_file.obj
 0001:0007b9d0       ___acrt_uninitialize_stdio 1007c9d0 f   libucrtd:_file.obj
 0001:0007ba50       __get_stream_buffer_pointers 1007ca50 f   libucrtd:_file.obj
 0001:0007bb30       __lock_file                1007cb30 f   libucrtd:_file.obj
 0001:0007bb60       __unlock_file              1007cb60 f   libucrtd:_file.obj
 0001:0007bb90       __get_printf_count_output  1007cb90 f   libucrtd:printf_count_output.obj
 0001:0007bbc0       __set_printf_count_output  1007cbc0 f   libucrtd:printf_count_output.obj
 0001:0007bc20       ?has_any_buffer@__crt_stdio_stream@@QBE_NXZ 1007cc20 f i libucrtd:_sftbuf.obj
 0001:0007bc40       ?has_any_of@__crt_stdio_stream@@QBE_NJ@Z 1007cc40 f i libucrtd:_sftbuf.obj
 0001:0007bc80       ?has_temporary_buffer@__crt_stdio_stream@@QBE_NXZ 1007cc80 f i libucrtd:_sftbuf.obj
 0001:0007bca0       ?set_flags@__crt_stdio_stream@@QBE_NJ@Z 1007cca0 f i libucrtd:_sftbuf.obj
 0001:0007bcf0       ?unset_flags@__crt_stdio_stream@@QBE_NJ@Z 1007ccf0 f i libucrtd:_sftbuf.obj
 0001:0007bd40       ___acrt_should_use_temporary_buffer 1007cd40 f   libucrtd:_sftbuf.obj
 0001:0007bd90       ___acrt_stdio_begin_temporary_buffering_nolock 1007cd90 f   libucrtd:_sftbuf.obj
 0001:0007bf40       ___acrt_stdio_end_temporary_buffering_nolock 1007cf40 f   libucrtd:_sftbuf.obj
 0001:0007bfd0       ??$?RU__crt_locale_data@@@__crt_internal_free_policy@@QBEXQBU__crt_locale_data@@@Z 1007cfd0 f i libucrtd:wsetlocale.obj
 0001:0007bff0       ??$?RU__crt_locale_pointers@@@__crt_internal_free_policy@@QBEXQBU__crt_locale_pointers@@@Z 1007cff0 f i libucrtd:wsetlocale.obj
 0001:0007c010       ??$?RU__crt_multibyte_data@@@__crt_internal_free_policy@@QBEXQBU__crt_multibyte_data@@@Z 1007d010 f i libucrtd:wsetlocale.obj
 0001:0007c600       ??0?$__crt_unique_heap_ptr@U__crt_locale_data@@U__crt_internal_free_policy@@@@QAE@QAU__crt_locale_data@@@Z 1007d600 f i libucrtd:wsetlocale.obj
 0001:0007c620       ??0?$__crt_unique_heap_ptr@U__crt_locale_pointers@@U__crt_internal_free_policy@@@@QAE@QAU__crt_locale_pointers@@@Z 1007d620 f i libucrtd:wsetlocale.obj
 0001:0007c640       ??0?$__crt_unique_heap_ptr@U__crt_multibyte_data@@U__crt_internal_free_policy@@@@QAE@QAU__crt_multibyte_data@@@Z 1007d640 f i libucrtd:wsetlocale.obj
 0001:0007c660       ??0_expandlocale_locale_name_cache@@QAE@QA_WIQAU__crt_qualified_locale_data@@@Z 1007d660 f i libucrtd:wsetlocale.obj
 0001:0007c6d0       ??1?$__crt_unique_heap_ptr@U__crt_locale_data@@U__crt_internal_free_policy@@@@QAE@XZ 1007d6d0 f i libucrtd:wsetlocale.obj
 0001:0007c6f0       ??1?$__crt_unique_heap_ptr@U__crt_locale_pointers@@U__crt_internal_free_policy@@@@QAE@XZ 1007d6f0 f i libucrtd:wsetlocale.obj
 0001:0007c710       ??1?$__crt_unique_heap_ptr@U__crt_multibyte_data@@U__crt_internal_free_policy@@@@QAE@XZ 1007d710 f i libucrtd:wsetlocale.obj
 0001:0007c730       ??1_expandlocale_locale_name_cache@@QAE@XZ 1007d730 f i libucrtd:wsetlocale.obj
 0001:0007c790       ??B?$__crt_unique_heap_ptr@U__crt_locale_data@@U__crt_internal_free_policy@@@@QBE_NXZ 1007d790 f i libucrtd:wsetlocale.obj
 0001:0007c7b0       ??B?$__crt_unique_heap_ptr@U__crt_locale_pointers@@U__crt_internal_free_policy@@@@QBE_NXZ 1007d7b0 f i libucrtd:wsetlocale.obj
 0001:0007c7d0       ??B?$__crt_unique_heap_ptr@U__crt_multibyte_data@@U__crt_internal_free_policy@@@@QBE_NXZ 1007d7d0 f i libucrtd:wsetlocale.obj
 0001:0007cbb0       ?commit_locale_name@_expandlocale_locale_name_cache@@QAEXQB_WI@Z 1007dbb0 f i libucrtd:wsetlocale.obj
 0001:0007cc10       ?commit_locale_name_cache_already_updated@_expandlocale_locale_name_cache@@QAEXQB_WI@Z 1007dc10 f i libucrtd:wsetlocale.obj
 0001:0007cc70       ?detach@?$__crt_unique_heap_ptr@U__crt_locale_data@@U__crt_internal_free_policy@@@@QAEPAU__crt_locale_data@@XZ 1007dc70 f i libucrtd:wsetlocale.obj
 0001:0007cca0       ?detach@?$__crt_unique_heap_ptr@U__crt_locale_pointers@@U__crt_internal_free_policy@@@@QAEPAU__crt_locale_pointers@@XZ 1007dca0 f i libucrtd:wsetlocale.obj
 0001:0007ccd0       ?detach@?$__crt_unique_heap_ptr@U__crt_multibyte_data@@U__crt_internal_free_policy@@@@QAEPAU__crt_multibyte_data@@XZ 1007dcd0 f i libucrtd:wsetlocale.obj
 0001:0007cd00       ?get@?$__crt_unique_heap_ptr@U__crt_locale_data@@U__crt_internal_free_policy@@@@QBEPAU__crt_locale_data@@XZ 1007dd00 f i libucrtd:wsetlocale.obj
 0001:0007cd20       ?get@?$__crt_unique_heap_ptr@U__crt_locale_pointers@@U__crt_internal_free_policy@@@@QBEPAU__crt_locale_pointers@@XZ 1007dd20 f i libucrtd:wsetlocale.obj
 0001:0007cd40       ?get@?$__crt_unique_heap_ptr@U__crt_multibyte_data@@U__crt_internal_free_policy@@@@QBEPAU__crt_multibyte_data@@XZ 1007dd40 f i libucrtd:wsetlocale.obj
 0001:0007cd60       ?is_valid@?$__crt_unique_heap_ptr@U__crt_locale_data@@U__crt_internal_free_policy@@@@QBE_NXZ 1007dd60 f i libucrtd:wsetlocale.obj
 0001:0007cd90       ?is_valid@?$__crt_unique_heap_ptr@U__crt_locale_pointers@@U__crt_internal_free_policy@@@@QBE_NXZ 1007dd90 f i libucrtd:wsetlocale.obj
 0001:0007cdc0       ?is_valid@?$__crt_unique_heap_ptr@U__crt_multibyte_data@@U__crt_internal_free_policy@@@@QBE_NXZ 1007ddc0 f i libucrtd:wsetlocale.obj
 0001:0007cdf0       ?release@?$__crt_unique_heap_ptr@U__crt_locale_data@@U__crt_internal_free_policy@@@@QAEXXZ 1007ddf0 f i libucrtd:wsetlocale.obj
 0001:0007ce20       ?release@?$__crt_unique_heap_ptr@U__crt_locale_pointers@@U__crt_internal_free_policy@@@@QAEXXZ 1007de20 f i libucrtd:wsetlocale.obj
 0001:0007ce50       ?release@?$__crt_unique_heap_ptr@U__crt_multibyte_data@@U__crt_internal_free_policy@@@@QAEXXZ 1007de50 f i libucrtd:wsetlocale.obj
 0001:0007ce80       ___acrt_copy_locale_name   1007de80 f   libucrtd:wsetlocale.obj
 0001:0007cf20       ___acrt_set_locale_changed 1007df20 f   libucrtd:wsetlocale.obj
 0001:0007cf40       ___acrt_uninitialize_locale 1007df40 f   libucrtd:wsetlocale.obj
 0001:0007cf60       ___ascii_tolower           1007df60 f i libucrtd:wsetlocale.obj
 0001:0007cf80       ___ascii_towlower          1007df80 f i libucrtd:wsetlocale.obj
 0001:0007cfa0       ___lc_lctowcs              1007dfa0 f   libucrtd:wsetlocale.obj
 0001:0007d050       ___lc_wcstolc              1007e050 f   libucrtd:wsetlocale.obj
 0001:0007d280       __configthreadlocale       1007e280 f   libucrtd:wsetlocale.obj
 0001:0007d400       __create_locale            1007e400 f   libucrtd:wsetlocale.obj
 0001:0007da40       __free_locale              1007ea40 f   libucrtd:wsetlocale.obj
 0001:0007db70       __get_current_locale       1007eb70 f   libucrtd:wsetlocale.obj
 0001:0007dc40       __wcreate_locale           1007ec40 f   libucrtd:wsetlocale.obj
 0001:0007de80       __wcscats                  1007ee80 f   libucrtd:wsetlocale.obj
 0001:0007df00       __wsetlocale               1007ef00 f   libucrtd:wsetlocale.obj
 0001:0007f5f0       ___p___mb_cur_max          100805f0 f   libucrtd:nlsdata.obj
 0001:0007f8f0       ___acrt_initialize_lowio   100808f0 f   libucrtd:ioinit.obj
 0001:0007f990       ___acrt_uninitialize_lowio 10080990 f   libucrtd:ioinit.obj
 0001:0007f9f0       __CrtGetReportHook         100809f0 f   libucrtd:dbgrptt.obj
 0001:0007fa00       __CrtSetReportFile         10080a00 f   libucrtd:dbgrptt.obj
 0001:0007fb00       __CrtSetReportHook         10080b00 f   libucrtd:dbgrptt.obj
 0001:0007fb20       __CrtSetReportMode         10080b20 f   libucrtd:dbgrptt.obj
 0001:0007fc60       __VCrtDbgReportA           10080c60 f   libucrtd:dbgrptt.obj
 0001:000804e0       __VCrtDbgReportW           100814e0 f   libucrtd:dbgrptt.obj
 0001:00080e90       __snprintf_s               10081e90 f i libucrtd:dbgrptt.obj
 0001:00080ed0       __vsnprintf_s              10081ed0 f i libucrtd:dbgrptt.obj
 0001:00080f00       __vsnprintf_s_l            10081f00 f i libucrtd:dbgrptt.obj
 0001:00081090       ??$__acrt_wcs_to_mbs_cp@U__crt_win32_buffer_no_resizing@@@@YAHQB_WAAV?$__crt_win32_buffer@DU__crt_win32_buffer_no_resizing@@@@I@Z 10082090 f i libucrtd:getmodulefilenamea.obj
 0001:000810c0       ??0?$__crt_win32_buffer@DU__crt_win32_buffer_no_resizing@@@@QAE@QADI@Z 100820c0 f i libucrtd:getmodulefilenamea.obj
 0001:00081110       ??1?$__crt_win32_buffer@DU__crt_win32_buffer_no_resizing@@@@QAE@XZ 10082110 f i libucrtd:getmodulefilenamea.obj
 0001:00081180       ?__acrt_get_utf8_acp_compatibility_codepage@@YAIXZ 10082180 f i libucrtd:getmodulefilenamea.obj
 0001:00081210       ?_deallocate@?$__crt_win32_buffer@DU__crt_win32_buffer_no_resizing@@@@AAEXXZ 10082210 f i libucrtd:getmodulefilenamea.obj
 0001:00081250       ?allocate@?$__crt_win32_buffer@DU__crt_win32_buffer_no_resizing@@@@QAEHI@Z 10082250 f i libucrtd:getmodulefilenamea.obj
 0001:000812c0       ?allocate@__crt_win32_buffer_no_resizing@@SAHQAPAXIABV__crt_win32_buffer_empty_debug_info@@@Z 100822c0 f i libucrtd:getmodulefilenamea.obj
 0001:000812e0       ?capacity@?$__crt_win32_buffer@DU__crt_win32_buffer_no_resizing@@@@QBEIXZ 100822e0 f i libucrtd:getmodulefilenamea.obj
 0001:00081300       ?data@?$__crt_win32_buffer@DU__crt_win32_buffer_no_resizing@@@@QAEPADXZ 10082300 f i libucrtd:getmodulefilenamea.obj
 0001:00081320       ?deallocate@__crt_win32_buffer_no_resizing@@SAXQAXABV__crt_win32_buffer_empty_debug_info@@@Z 10082320 f i libucrtd:getmodulefilenamea.obj
 0001:00081330       ?debug_info@?$__crt_win32_buffer@DU__crt_win32_buffer_no_resizing@@@@QBEABV__crt_win32_buffer_empty_debug_info@@XZ 10082330 f i libucrtd:getmodulefilenamea.obj
 0001:00081340       ?set_to_nullptr@?$__crt_win32_buffer@DU__crt_win32_buffer_no_resizing@@@@QAEXXZ 10082340 f i libucrtd:getmodulefilenamea.obj
 0001:00081380       ?size@?$__crt_win32_buffer@DU__crt_win32_buffer_no_resizing@@@@QAEXI@Z 10082380 f i libucrtd:getmodulefilenamea.obj
 0001:000813a0       ?size@?$__crt_win32_buffer@DU__crt_win32_buffer_no_resizing@@@@QBEIXZ 100823a0 f i libucrtd:getmodulefilenamea.obj
 0001:000813c0       ___acrt_GetModuleFileNameA 100823c0 f   libucrtd:getmodulefilenamea.obj
 0001:000816a0       ??$message_box@$$TABQBDABQBDK@?$__crt_char_traits@D@@SAH$$QA$$TABQBD1$$QAK@Z 100826a0 f i libucrtd:crtmbox.obj
 0001:000816d0       ??$message_box@$$TABQB_WABQB_WK@?$__crt_char_traits@_W@@SAH$$QA$$TABQB_W1$$QAK@Z 100826d0 f i libucrtd:crtmbox.obj
 0001:00081700       ??$message_box@PAUHWND__@@ABQBDABQBDABI@?$__crt_char_traits@D@@SAH$$QAPAUHWND__@@ABQBD1ABI@Z 10082700 f i libucrtd:crtmbox.obj
 0001:00081730       ??$message_box@PAUHWND__@@ABQB_WABQB_WABI@?$__crt_char_traits@_W@@SAH$$QAPAUHWND__@@ABQB_W1ABI@Z 10082730 f i libucrtd:crtmbox.obj
 0001:00081760       ??$output_debug_string@ABQBD@?$__crt_char_traits@D@@SAXABQBD@Z 10082760 f i libucrtd:crtmbox.obj
 0001:00081780       ??$output_debug_string@ABQB_W@?$__crt_char_traits@_W@@SAXABQB_W@Z 10082780 f i libucrtd:crtmbox.obj
 0001:000817a0       ___acrt_show_narrow_message_box 100827a0 f   libucrtd:crtmbox.obj
 0001:000817c0       ___acrt_show_wide_message_box 100827c0 f   libucrtd:crtmbox.obj
 0001:000817e0       ___acrt_initialize_locks   100827e0 f   libucrtd:locks.obj
 0001:00081840       ___acrt_lock               10082840 f   libucrtd:locks.obj
 0001:00081860       ___acrt_uninitialize_locks 10082860 f   libucrtd:locks.obj
 0001:000818b0       ___acrt_unlock             100828b0 f   libucrtd:locks.obj
 0001:000818d0       __lock_locales             100828d0 f   libucrtd:locks.obj
 0001:000818f0       __unlock_locales           100828f0 f   libucrtd:locks.obj
 0001:00081910       ??$?B$$A6AXH@Z@__crt_fast_encoded_nullptr_t@@QBEP6AXH@ZXZ 10082910 f i libucrtd:signal.obj
 0001:00081a00       ??$__crt_fast_decode_pointer@P6AXH@Z@@YAP6AXH@ZQ6AXH@Z@Z 10082a00 f i libucrtd:signal.obj
 0001:00081a30       ??$__crt_fast_encode_pointer@P6AXH@Z@@YAP6AXH@ZQ6AXH@Z@Z 10082a30 f i libucrtd:signal.obj
 0001:00081ce0       ?initialize@?$dual_state_global@P6AXH@Z@__crt_state_management@@QAEXQ6AXH@Z@Z 10082ce0 f i libucrtd:signal.obj
 0001:00081e20       ?value@?$dual_state_global@P6AXH@Z@__crt_state_management@@QAEAAP6AXH@ZXZ 10082e20 f i libucrtd:signal.obj
 0001:00081e40       ___acrt_get_sigabrt_handler 10082e40 f   libucrtd:signal.obj
 0001:00081e60       ___acrt_initialize_signal_handlers 10082e60 f   libucrtd:signal.obj
 0001:00081ea0       ___fpecode                 10082ea0 f   libucrtd:signal.obj
 0001:00081eb0       ___pxcptinfoptrs           10082eb0 f   libucrtd:signal.obj
 0001:00081ec0       _raise                     10082ec0 f   libucrtd:signal.obj
 0001:00082290       _signal                    10083290 f   libucrtd:signal.obj
 0001:00082510       __msize                    10083510 f   libucrtd:msize.obj
 0001:00082530       __msize_base               10083530 f   libucrtd:msize.obj
 0001:000825d0       __realloc_base             100835d0 f   libucrtd:realloc_base.obj
 0001:00082690       ??$?B$$A6GHPA_WKJ@Z@__crt_fast_encoded_nullptr_t@@QBEP6GHPA_WKJ@ZXZ 10083690 f i libucrtd:winapi_thunks.obj
 0001:00082780       ??$__crt_fast_decode_pointer@P6GHPA_WKJ@Z@@YAP6GHPA_WKJ@ZQ6GH0KJ@Z@Z 10083780 f i libucrtd:winapi_thunks.obj
 0001:000827b0       ??$__crt_fast_decode_pointer@PAX@@YAPAXQAX@Z 100837b0 f i libucrtd:winapi_thunks.obj
 0001:000827e0       ??$__crt_fast_encode_pointer@P6GHPA_WKJ@Z@@YAP6GHPA_WKJ@ZQ6GH0KJ@Z@Z 100837e0 f i libucrtd:winapi_thunks.obj
 0001:00083140       _GetCurrentThreadEffectiveToken 10084140 f i libucrtd:winapi_thunks.obj
 0001:00083150       ___acrt_AppPolicyGetProcessTerminationMethodInternal@4 10084150 f   libucrtd:winapi_thunks.obj
 0001:00083190       ___acrt_AppPolicyGetShowDeveloperDiagnosticInternal@4 10084190 f   libucrtd:winapi_thunks.obj
 0001:000831d0       ___acrt_AppPolicyGetThreadInitializationTypeInternal@4 100841d0 f   libucrtd:winapi_thunks.obj
 0001:00083210       ___acrt_AppPolicyGetWindowingModelInternal@4 10084210 f   libucrtd:winapi_thunks.obj
 0001:00083250       ___acrt_AreFileApisANSI@0  10084250 f   libucrtd:winapi_thunks.obj
 0001:00083290       ___acrt_CompareStringEx@36 10084290 f   libucrtd:winapi_thunks.obj
 0001:00083310       ___acrt_EnumSystemLocalesEx@16 10084310 f   libucrtd:winapi_thunks.obj
 0001:00083370       ___acrt_FlsAlloc@4         10084370 f   libucrtd:winapi_thunks.obj
 0001:000833b0       ___acrt_FlsFree@4          100843b0 f   libucrtd:winapi_thunks.obj
 0001:000833f0       ___acrt_FlsGetValue@4      100843f0 f   libucrtd:winapi_thunks.obj
 0001:00083430       ___acrt_FlsSetValue@8      10084430 f   libucrtd:winapi_thunks.obj
 0001:00083480       ___acrt_GetDateFormatEx@28 10084480 f   libucrtd:winapi_thunks.obj
 0001:00083500       ___acrt_GetEnabledXStateFeatures@0 10084500 f   libucrtd:winapi_thunks.obj
 0001:00083540       ___acrt_GetLocaleInfoEx@16 10084540 f   libucrtd:winapi_thunks.obj
 0001:000835a0       ___acrt_GetSystemTimePreciseAsFileTime@4 100845a0 f   libucrtd:winapi_thunks.obj
 0001:000835e0       ___acrt_GetTimeFormatEx@24 100845e0 f   libucrtd:winapi_thunks.obj
 0001:00083650       ___acrt_GetUserDefaultLocaleName@8 10084650 f   libucrtd:winapi_thunks.obj
 0001:000836a0       ___acrt_GetXStateFeaturesMask@8 100846a0 f   libucrtd:winapi_thunks.obj
 0001:000836e0       ___acrt_InitializeCriticalSectionEx@12 100846e0 f   libucrtd:winapi_thunks.obj
 0001:00083730       ___acrt_IsValidLocaleName@4 10084730 f   libucrtd:winapi_thunks.obj
 0001:00083780       ___acrt_LCIDToLocaleName@16 10084780 f   libucrtd:winapi_thunks.obj
 0001:000837e0       ___acrt_LCMapStringEx@36   100847e0 f   libucrtd:winapi_thunks.obj
 0001:00083860       ___acrt_LocaleNameToLCID@8 10084860 f   libucrtd:winapi_thunks.obj
 0001:000838b0       ___acrt_LocateXStateFeature@12 100848b0 f   libucrtd:winapi_thunks.obj
 0001:00083900       ___acrt_MessageBoxA@16     10084900 f   libucrtd:winapi_thunks.obj
 0001:00083950       ___acrt_MessageBoxW@16     10084950 f   libucrtd:winapi_thunks.obj
 0001:000839a0       ___acrt_RoInitialize@4     100849a0 f   libucrtd:winapi_thunks.obj
 0001:000839e0       ___acrt_RoUninitialize@0   100849e0 f   libucrtd:winapi_thunks.obj
 0001:00083a10       ___acrt_RtlGenRandom@8     10084a10 f   libucrtd:winapi_thunks.obj
 0001:00083a50       ___acrt_SetThreadStackGuarantee@4 10084a50 f   libucrtd:winapi_thunks.obj
 0001:00083a90       ___acrt_can_show_message_box 10084a90 f   libucrtd:winapi_thunks.obj
 0001:00083ad0       ___acrt_can_use_vista_locale_apis 10084ad0 f   libucrtd:winapi_thunks.obj
 0001:00083b00       ___acrt_can_use_xstate_apis 10084b00 f   libucrtd:winapi_thunks.obj
 0001:00083b30       ___acrt_eagerly_load_locale_apis 10084b30 f   libucrtd:winapi_thunks.obj
 0001:00083b70       ___acrt_get_parent_window  10084b70 f   libucrtd:winapi_thunks.obj
 0001:00083be0       ___acrt_initialize_winapi_thunks 10084be0 f   libucrtd:winapi_thunks.obj
 0001:00083c50       ___acrt_is_interactive     10084c50 f   libucrtd:winapi_thunks.obj
 0001:00083d00       ___acrt_uninitialize_winapi_thunks 10084d00 f   libucrtd:winapi_thunks.obj
 0001:00083d70       __chvalidator              10084d70 f   libucrtd:isctype.obj
 0001:00083dc0       __chvalidator_l            10084dc0 f   libucrtd:isctype.obj
 0001:00083e40       __isctype                  10084e40 f   libucrtd:isctype.obj
 0001:00083e80       __isctype_l                10084e80 f   libucrtd:isctype.obj
 0001:00084000       __isleadbyte_fast_internal 10085000 f i libucrtd:isctype.obj
 0001:00084020       ??$?RU__crt_stdio_stream_data@@@__crt_internal_free_policy@@QBEXQBU__crt_stdio_stream_data@@@Z 10085020 f i libucrtd:stream.obj
 0001:00084040       ??0?$__crt_unique_heap_ptr@U__crt_stdio_stream_data@@U__crt_internal_free_policy@@@@QAE@QAU__crt_stdio_stream_data@@@Z 10085040 f i libucrtd:stream.obj
 0001:00084060       ??0__crt_stdio_stream@@QAE@QAU__crt_stdio_stream_data@@@Z 10085060 f i libucrtd:stream.obj
 0001:00084080       ??0__crt_stdio_stream@@QAE@XZ 10085080 f i libucrtd:stream.obj
 0001:000840a0       ??1?$__crt_unique_heap_ptr@U__crt_stdio_stream_data@@U__crt_internal_free_policy@@@@QAE@XZ 100850a0 f i libucrtd:stream.obj
 0001:000840c0       ?__acrt_stdio_allocate_stream@@YA?AV__crt_stdio_stream@@XZ 100850c0 f   libucrtd:stream.obj
 0001:000841b0       ?__acrt_stdio_free_stream@@YAXV__crt_stdio_stream@@@Z 100851b0 f   libucrtd:stream.obj
 0001:00084230       ?deallocate@__crt_stdio_stream@@QAEXXZ 10085230 f i libucrtd:stream.obj
 0001:00084250       ?detach@?$__crt_unique_heap_ptr@U__crt_stdio_stream_data@@U__crt_internal_free_policy@@@@QAEPAU__crt_stdio_stream_data@@XZ 10085250 f i libucrtd:stream.obj
 0001:000843c0       ?lock@__crt_stdio_stream@@QBEXXZ 100853c0 f i libucrtd:stream.obj
 0001:000843e0       ?release@?$__crt_unique_heap_ptr@U__crt_stdio_stream_data@@U__crt_internal_free_policy@@@@QAEXXZ 100853e0 f i libucrtd:stream.obj
 0001:00084410       ?try_allocate@__crt_stdio_stream@@QAE_NXZ 10085410 f i libucrtd:stream.obj
 0001:00084460       ??$__acrt_stdio_parse_mode@D@@YA?AU__acrt_stdio_stream_mode@@QBD@Z 10085460 f i libucrtd:openfile.obj
 0001:00084cd0       ??$__acrt_stdio_parse_mode@_W@@YA?AU__acrt_stdio_stream_mode@@QB_W@Z 10085cd0 f i libucrtd:openfile.obj
 0001:00085860       ??$tcsncmp@AAPBDAAY02$$CBDI@?$__crt_char_traits@D@@SAHAAPBDAAY02$$CBD$$QAI@Z 10086860 f i libucrtd:openfile.obj
 0001:00085880       ??$tcsncmp@AAPB_WAAY02$$CB_WI@?$__crt_char_traits@_W@@SAHAAPB_WAAY02$$CB_W$$QAI@Z 10086880 f i libucrtd:openfile.obj
 0001:000858a0       ??$tcsnicmp@AAPBDAAY04$$CBDI@?$__crt_char_traits@D@@SAHAAPBDAAY04$$CBD$$QAI@Z 100868a0 f i libucrtd:openfile.obj
 0001:000858c0       ??$tcsnicmp@AAPBDAAY06$$CBDI@?$__crt_char_traits@D@@SAHAAPBDAAY06$$CBD$$QAI@Z 100868c0 f i libucrtd:openfile.obj
 0001:000858e0       ??$tcsnicmp@AAPBDAAY07$$CBDI@?$__crt_char_traits@D@@SAHAAPBDAAY07$$CBD$$QAI@Z 100868e0 f i libucrtd:openfile.obj
 0001:00085900       ??$tcsnicmp@AAPB_WAAY04$$CB_WI@?$__crt_char_traits@_W@@SAHAAPB_WAAY04$$CB_W$$QAI@Z 10086900 f i libucrtd:openfile.obj
 0001:00085920       ??$tcsnicmp@AAPB_WAAY06$$CB_WI@?$__crt_char_traits@_W@@SAHAAPB_WAAY06$$CB_W$$QAI@Z 10086920 f i libucrtd:openfile.obj
 0001:00085940       ??$tcsnicmp@AAPB_WAAY07$$CB_WI@?$__crt_char_traits@_W@@SAHAAPB_WAAY07$$CB_W$$QAI@Z 10086940 f i libucrtd:openfile.obj
 0001:00085960       ??$tsopen_s@PAHABQBDABHABHH@?$__crt_char_traits@D@@SAH$$QAPAHABQBDABH2$$QAH@Z 10086960 f i libucrtd:openfile.obj
 0001:00085990       ??$tsopen_s@PAHABQB_WABHABHH@?$__crt_char_traits@_W@@SAH$$QAPAHABQB_WABH2$$QAH@Z 10086990 f i libucrtd:openfile.obj
 0001:000859c0       ?__acrt_stdio_parse_mode_D@@YA_NAAU__acrt_stdio_stream_mode@@@Z 100869c0 f i libucrtd:openfile.obj
 0001:000859f0       ?__acrt_stdio_parse_mode_N@@YA_NAAU__acrt_stdio_stream_mode@@@Z 100869f0 f i libucrtd:openfile.obj
 0001:00085a10       ?__acrt_stdio_parse_mode_R@@YA_NAAU__acrt_stdio_stream_mode@@AA_N@Z 10086a10 f i libucrtd:openfile.obj
 0001:00085a40       ?__acrt_stdio_parse_mode_S@@YA_NAAU__acrt_stdio_stream_mode@@AA_N@Z 10086a40 f i libucrtd:openfile.obj
 0001:00085a70       ?__acrt_stdio_parse_mode_T@@YA_NAAU__acrt_stdio_stream_mode@@@Z 10086a70 f i libucrtd:openfile.obj
 0001:00085aa0       ?__acrt_stdio_parse_mode_b@@YA_NAAU__acrt_stdio_stream_mode@@@Z 10086aa0 f i libucrtd:openfile.obj
 0001:00085ad0       ?__acrt_stdio_parse_mode_c@@YA_NAAU__acrt_stdio_stream_mode@@AA_N@Z 10086ad0 f i libucrtd:openfile.obj
 0001:00085b00       ?__acrt_stdio_parse_mode_n@@YA_NAAU__acrt_stdio_stream_mode@@AA_N@Z 10086b00 f i libucrtd:openfile.obj
 0001:00085b30       ?__acrt_stdio_parse_mode_plus@@YA_NAAU__acrt_stdio_stream_mode@@AA_N@Z 10086b30 f i libucrtd:openfile.obj
 0001:00085ba0       ?__acrt_stdio_parse_mode_t@@YA_NAAU__acrt_stdio_stream_mode@@@Z 10086ba0 f i libucrtd:openfile.obj
 0001:00085bd0       ?__acrt_stdio_parse_mode_x@@YA_NAAU__acrt_stdio_stream_mode@@@Z 10086bd0 f i libucrtd:openfile.obj
 0001:00085c00       __openfile                 10086c00 f   libucrtd:openfile.obj
 0001:00085c30       __wopenfile                10086c30 f   libucrtd:openfile.obj
 0001:00085f10       __close                    10086f10 f   libucrtd:close.obj
 0001:00086090       __close_nolock             10087090 f   libucrtd:close.obj
 0001:000860f0       ?has_crt_buffer@__crt_stdio_stream@@QBE_NXZ 100870f0 f i libucrtd:_freebuf.obj
 0001:00086110       ___acrt_stdio_free_buffer_nolock 10087110 f   libucrtd:_freebuf.obj
 0001:00086770       ?__acrt_stdio_reset_buffer@@YAXV__crt_stdio_stream@@@Z 10087770 f i libucrtd:fflush.obj
 0001:00086870       ?has_all_of@__crt_stdio_stream@@QBE_NJ@Z 10087870 f i libucrtd:fflush.obj
 0001:00086940       ___acrt_stdio_flush_nolock 10087940 f   libucrtd:fflush.obj
 0001:00086a10       __fflush_nolock            10087a10 f   libucrtd:fflush.obj
 0001:00086a90       __flushall                 10087a90 f   libucrtd:fflush.obj
 0001:00086ab0       _fflush                    10087ab0 f   libucrtd:fflush.obj
 0001:00087200       ?has_big_buffer@__crt_stdio_stream@@QBE_NXZ 10088200 f i libucrtd:_flsbuf.obj
 0001:00087300       ___acrt_stdio_flush_and_write_narrow_nolock 10088300 f   libucrtd:_flsbuf.obj
 0001:00087330       ___acrt_stdio_flush_and_write_wide_nolock 10088330 f   libucrtd:_flsbuf.obj
 0001:00087660       ___acrt_get_begin_thread_init_policy 10088660 f   libucrtd:win_policies.obj
 0001:00087680       ___acrt_get_developer_information_policy 10088680 f   libucrtd:win_policies.obj
 0001:000876a0       ___acrt_get_process_end_policy 100886a0 f   libucrtd:win_policies.obj
 0001:000876c0       ___acrt_get_windowing_model_policy 100886c0 f   libucrtd:win_policies.obj
 0001:00087990       ??$__acrt_mbs_to_wcs_cp@U__crt_win32_buffer_internal_dynamic_resizing@@@@YAHQBDAAV?$__crt_win32_buffer@_WU__crt_win32_buffer_internal_dynamic_resizing@@@@I@Z 10088990 f i libucrtd:argv_wildcards.obj
 0001:000879c0       ??$__acrt_wcs_to_mbs_cp@U__crt_win32_buffer_internal_dynamic_resizing@@@@YAHQB_WAAV?$__crt_win32_buffer@DU__crt_win32_buffer_internal_dynamic_resizing@@@@I@Z 100889c0 f i libucrtd:argv_wildcards.obj
 0001:00088910       ??$tcsncpy_s@AAPADIAAPADABI@?$__crt_char_traits@D@@SAHAAPAD$$QAI0ABI@Z 10089910 f i libucrtd:argv_wildcards.obj
 0001:00088940       ??$tcsncpy_s@AAPA_WIAAPA_WABI@?$__crt_char_traits@_W@@SAHAAPA_W$$QAI0ABI@Z 10089940 f i libucrtd:argv_wildcards.obj
 0001:00088970       ??$tcsncpy_s@PADABIABQBDABI@?$__crt_char_traits@D@@SAH$$QAPADABIABQBD1@Z 10089970 f i libucrtd:argv_wildcards.obj
 0001:000889a0       ??$tcsncpy_s@PADIABQBDABI@?$__crt_char_traits@D@@SAH$$QAPAD$$QAIABQBDABI@Z 100899a0 f i libucrtd:argv_wildcards.obj
 0001:000889d0       ??$tcsncpy_s@PA_WABIABQB_WABI@?$__crt_char_traits@_W@@SAH$$QAPA_WABIABQB_W1@Z 100899d0 f i libucrtd:argv_wildcards.obj
 0001:00088a00       ??$tcsncpy_s@PA_WIABQB_WABI@?$__crt_char_traits@_W@@SAH$$QAPA_W$$QAIABQB_WABI@Z 10089a00 f i libucrtd:argv_wildcards.obj
 0001:00088a30       ??$tcspbrk@AAPADAAY02$$CBD@?$__crt_char_traits@D@@SAPADAAPADAAY02$$CBD@Z 10089a30 f i libucrtd:argv_wildcards.obj
 0001:00088a50       ??$tcspbrk@AAPA_WAAY02$$CB_W@?$__crt_char_traits@_W@@SAPA_WAAPA_WAAY02$$CB_W@Z 10089a50 f i libucrtd:argv_wildcards.obj
 0001:00088a70       ??0?$__crt_unique_handle_t@U__crt_findfile_traits@@@@QAE@QAX@Z 10089a70 f i libucrtd:argv_wildcards.obj
 0001:00088a90       ??0?$__crt_win32_buffer@DU__crt_win32_buffer_internal_dynamic_resizing@@@@QAE@XZ 10089a90 f i libucrtd:argv_wildcards.obj
 0001:00088ae0       ??0?$__crt_win32_buffer@_WU__crt_win32_buffer_internal_dynamic_resizing@@@@QAE@XZ 10089ae0 f i libucrtd:argv_wildcards.obj
 0001:00088b90       ??1?$__crt_unique_handle_t@U__crt_findfile_traits@@@@QAE@XZ 10089b90 f i libucrtd:argv_wildcards.obj
 0001:00088bb0       ??1?$__crt_win32_buffer@DU__crt_win32_buffer_internal_dynamic_resizing@@@@QAE@XZ 10089bb0 f i libucrtd:argv_wildcards.obj
 0001:00088bf0       ??1?$__crt_win32_buffer@_WU__crt_win32_buffer_internal_dynamic_resizing@@@@QAE@XZ 10089bf0 f i libucrtd:argv_wildcards.obj
 0001:00088e50       ?_deallocate@?$__crt_win32_buffer@DU__crt_win32_buffer_internal_dynamic_resizing@@@@AAEXXZ 10089e50 f i libucrtd:argv_wildcards.obj
 0001:00088e90       ?_deallocate@?$__crt_win32_buffer@_WU__crt_win32_buffer_internal_dynamic_resizing@@@@AAEXXZ 10089e90 f i libucrtd:argv_wildcards.obj
 0001:00088ed0       ?allocate@?$__crt_win32_buffer@DU__crt_win32_buffer_internal_dynamic_resizing@@@@QAEHI@Z 10089ed0 f i libucrtd:argv_wildcards.obj
 0001:00088f40       ?allocate@?$__crt_win32_buffer@_WU__crt_win32_buffer_internal_dynamic_resizing@@@@QAEHI@Z 10089f40 f i libucrtd:argv_wildcards.obj
 0001:00088fb0       ?allocate@__crt_win32_buffer_internal_dynamic_resizing@@SAHQAPAXIABV__crt_win32_buffer_empty_debug_info@@@Z 10089fb0 f i libucrtd:argv_wildcards.obj
 0001:000890f0       ?capacity@?$__crt_win32_buffer@DU__crt_win32_buffer_internal_dynamic_resizing@@@@QBEIXZ 1008a0f0 f i libucrtd:argv_wildcards.obj
 0001:00089110       ?capacity@?$__crt_win32_buffer@_WU__crt_win32_buffer_internal_dynamic_resizing@@@@QBEIXZ 1008a110 f i libucrtd:argv_wildcards.obj
 0001:00089130       ?close@?$__crt_unique_handle_t@U__crt_findfile_traits@@@@QAEXXZ 1008a130 f i libucrtd:argv_wildcards.obj
 0001:00089170       ?close@__crt_findfile_traits@@SA_NPAX@Z 1008a170 f i libucrtd:argv_wildcards.obj
 0001:000891a0       ?data@?$__crt_win32_buffer@DU__crt_win32_buffer_internal_dynamic_resizing@@@@QAEPADXZ 1008a1a0 f i libucrtd:argv_wildcards.obj
 0001:000891c0       ?data@?$__crt_win32_buffer@_WU__crt_win32_buffer_internal_dynamic_resizing@@@@QAEPA_WXZ 1008a1c0 f i libucrtd:argv_wildcards.obj
 0001:000891e0       ?deallocate@__crt_win32_buffer_internal_dynamic_resizing@@SAXQAXABV__crt_win32_buffer_empty_debug_info@@@Z 1008a1e0 f i libucrtd:argv_wildcards.obj
 0001:00089200       ?debug_info@?$__crt_win32_buffer@DU__crt_win32_buffer_internal_dynamic_resizing@@@@QBEABV__crt_win32_buffer_empty_debug_info@@XZ 1008a200 f i libucrtd:argv_wildcards.obj
 0001:00089210       ?debug_info@?$__crt_win32_buffer@_WU__crt_win32_buffer_internal_dynamic_resizing@@@@QBEABV__crt_win32_buffer_empty_debug_info@@XZ 1008a210 f i libucrtd:argv_wildcards.obj
 0001:00089520       ?get@?$__crt_unique_handle_t@U__crt_findfile_traits@@@@QBEPAXXZ 1008a520 f i libucrtd:argv_wildcards.obj
 0001:00089590       ?get_invalid_value@__crt_findfile_traits@@SAPAXXZ 1008a590 f i libucrtd:argv_wildcards.obj
 0001:00089620       ?set_to_nullptr@?$__crt_win32_buffer@DU__crt_win32_buffer_internal_dynamic_resizing@@@@QAEXXZ 1008a620 f i libucrtd:argv_wildcards.obj
 0001:00089660       ?set_to_nullptr@?$__crt_win32_buffer@_WU__crt_win32_buffer_internal_dynamic_resizing@@@@QAEXXZ 1008a660 f i libucrtd:argv_wildcards.obj
 0001:000896a0       ?size@?$__crt_win32_buffer@DU__crt_win32_buffer_internal_dynamic_resizing@@@@QAEXI@Z 1008a6a0 f i libucrtd:argv_wildcards.obj
 0001:000896c0       ?size@?$__crt_win32_buffer@_WU__crt_win32_buffer_internal_dynamic_resizing@@@@QAEXI@Z 1008a6c0 f i libucrtd:argv_wildcards.obj
 0001:00089720       ?strpbrk@@YAPADQADQBD@Z    1008a720 f i libucrtd:argv_wildcards.obj
 0001:00089740       ?wcspbrk@@YAPA_WPA_WPB_W@Z 1008a740 f i libucrtd:argv_wildcards.obj
 0001:00089760       ___acrt_expand_narrow_argv_wildcards 1008a760 f   libucrtd:argv_wildcards.obj
 0001:00089780       ___acrt_expand_wide_argv_wildcards 1008a780 f   libucrtd:argv_wildcards.obj
 0001:00089860       ??$initialize_from_array@$$BY10BAA@E@?$dual_state_global@PAE@__crt_state_management@@QAAXAAY10BAA@E@Z 1008a860 f i libucrtd:mbctype.obj
 0001:000898b0       ??$initialize_from_array@$$BY10BAB@E@?$dual_state_global@PAE@__crt_state_management@@QAAXAAY10BAB@E@Z 1008a8b0 f i libucrtd:mbctype.obj
 0001:00089b20       ?dangerous_get_state_array@?$dual_state_global@PAE@__crt_state_management@@QAEPAPAEXZ 1008ab20 f i libucrtd:mbctype.obj
 0001:00089b30       ?dangerous_get_state_array@?$dual_state_global@PAU__crt_multibyte_data@@@__crt_state_management@@QAEPAPAU__crt_multibyte_data@@XZ 1008ab30 f i libucrtd:mbctype.obj
 0001:00089c00       ?initialize@?$dual_state_global@PAU__crt_multibyte_data@@@__crt_state_management@@QAEXQAU__crt_multibyte_data@@@Z 1008ac00 f i libucrtd:mbctype.obj
 0001:0008a350       ?value@?$dual_state_global@PAE@__crt_state_management@@QAEAAPAEXZ 1008b350 f i libucrtd:mbctype.obj
 0001:0008a370       ___acrt_initialize_multibyte 1008b370 f   libucrtd:mbctype.obj
 0001:0008a420       ___acrt_update_thread_multibyte_data 1008b420 f   libucrtd:mbctype.obj
 0001:0008a440       ___p__mbcasemap            1008b440 f   libucrtd:mbctype.obj
 0001:0008a460       ___p__mbctype              1008b460 f   libucrtd:mbctype.obj
 0001:0008a480       __getmbcp                  1008b480 f   libucrtd:mbctype.obj
 0001:0008a4f0       __setmbcp                  1008b4f0 f   libucrtd:mbctype.obj
 0001:0008a520       __setmbcp_nolock           1008b520 f   libucrtd:mbctype.obj
 0001:0008aa91       __ismbbalnum               1008ba91 f   libucrtd:ismbbyte.obj
 0001:0008aaac       __ismbbalnum_l             1008baac f   libucrtd:ismbbyte.obj
 0001:0008aac8       __ismbbalpha               1008bac8 f   libucrtd:ismbbyte.obj
 0001:0008aae3       __ismbbalpha_l             1008bae3 f   libucrtd:ismbbyte.obj
 0001:0008aaff       __ismbbblank               1008baff f   libucrtd:ismbbyte.obj
 0001:0008ab22       __ismbbblank_l             1008bb22 f   libucrtd:ismbbyte.obj
 0001:0008ab46       __ismbbgraph               1008bb46 f   libucrtd:ismbbyte.obj
 0001:0008ab61       __ismbbgraph_l             1008bb61 f   libucrtd:ismbbyte.obj
 0001:0008ab7d       __ismbbkalnum              1008bb7d f   libucrtd:ismbbyte.obj
 0001:0008ab95       __ismbbkalnum_l            1008bb95 f   libucrtd:ismbbyte.obj
 0001:0008abae       __ismbbkana                1008bbae f   libucrtd:ismbbyte.obj
 0001:0008abc1       __ismbbkana_l              1008bbc1 f   libucrtd:ismbbyte.obj
 0001:0008ac10       __ismbbkprint              1008bc10 f   libucrtd:ismbbyte.obj
 0001:0008ac28       __ismbbkprint_l            1008bc28 f   libucrtd:ismbbyte.obj
 0001:0008ac41       __ismbbkpunct              1008bc41 f   libucrtd:ismbbyte.obj
 0001:0008ac59       __ismbbkpunct_l            1008bc59 f   libucrtd:ismbbyte.obj
 0001:0008ac72       __ismbblead                1008bc72 f   libucrtd:ismbbyte.obj
 0001:0008ac8a       __ismbblead_l              1008bc8a f   libucrtd:ismbbyte.obj
 0001:0008aca3       __ismbbprint               1008bca3 f   libucrtd:ismbbyte.obj
 0001:0008acbe       __ismbbprint_l             1008bcbe f   libucrtd:ismbbyte.obj
 0001:0008acda       __ismbbpunct               1008bcda f   libucrtd:ismbbyte.obj
 0001:0008acf2       __ismbbpunct_l             1008bcf2 f   libucrtd:ismbbyte.obj
 0001:0008ad0b       __ismbbtrail               1008bd0b f   libucrtd:ismbbyte.obj
 0001:0008ad23       __ismbbtrail_l             1008bd23 f   libucrtd:ismbbyte.obj
 0001:0008ad40       ___acrt_initialize_command_line 1008bd40 f   libucrtd:argv_data.obj
 0001:0008ad60       ___acrt_uninitialize_command_line 1008bd60 f   libucrtd:argv_data.obj
 0001:0008ad70       ___p___argc                1008bd70 f   libucrtd:argv_data.obj
 0001:0008ad80       ___p___argv                1008bd80 f   libucrtd:argv_data.obj
 0001:0008ad90       ___p___wargv               1008bd90 f   libucrtd:argv_data.obj
 0001:0008ada0       ___p__acmdln               1008bda0 f   libucrtd:argv_data.obj
 0001:0008adb0       ___p__pgmptr               1008bdb0 f   libucrtd:argv_data.obj
 0001:0008adc0       ___p__wcmdln               1008bdc0 f   libucrtd:argv_data.obj
 0001:0008add0       ___p__wpgmptr              1008bdd0 f   libucrtd:argv_data.obj
 0001:0008ade0       __get_pgmptr               1008bde0 f   libucrtd:argv_data.obj
 0001:0008aef0       __get_wpgmptr              1008bef0 f   libucrtd:argv_data.obj
 0001:0008b0b0       ___acrt_MultiByteToWideChar 1008c0b0 f   libucrtd:multibytetowidechar.obj
 0001:0008b1b0       ___acrt_WideCharToMultiByte 1008c1b0 f   libucrtd:widechartomultibyte.obj
 0001:0008b309       ___dcrt_get_narrow_environment_from_os 1008c309 f   libucrtd:get_environment_from_os.obj
 0001:0008b39b       ___dcrt_get_wide_environment_from_os 1008c39b f   libucrtd:get_environment_from_os.obj
 0001:0008bd30       ??$get_or_create_environment_nolock@$$V@?$__crt_char_traits@D@@SAPAPADXZ 1008cd30 f i libucrtd:setenv.obj
 0001:0008bd35       ??$get_or_create_environment_nolock@$$V@?$__crt_char_traits@_W@@SAPAPA_WXZ 1008cd35 f i libucrtd:setenv.obj
 0001:0008bd3a       ??$set_environment_variable@ABQADQAD@?$__crt_char_traits@D@@SAHABQAD$$QBQAD@Z 1008cd3a f i libucrtd:setenv.obj
 0001:0008bd52       ??$set_environment_variable@ABQA_WQA_W@?$__crt_char_traits@_W@@SAHABQA_W$$QBQA_W@Z 1008cd52 f i libucrtd:setenv.obj
 0001:0008bd69       ??$tcschr@ABQADD@?$__crt_char_traits@D@@SAPADABQAD$$QAD@Z 1008cd69 f i libucrtd:setenv.obj
 0001:0008bd83       ??$tcschr@ABQA_WD@?$__crt_char_traits@_W@@SAPA_WABQA_W$$QAD@Z 1008cd83 f i libucrtd:setenv.obj
 0001:0008bda1       ??$tcscpy_s@AAPADABIAAPAD@?$__crt_char_traits@D@@SAHAAPADABI0@Z 1008cda1 f i libucrtd:setenv.obj
 0001:0008bdbf       ??$tcscpy_s@AAPA_WABIAAPA_W@?$__crt_char_traits@_W@@SAHAAPA_WABI0@Z 1008cdbf f i libucrtd:setenv.obj
 0001:0008bddd       ??$tcscpy_s@ABQADABIABQAD@?$__crt_char_traits@D@@SAHABQADABI0@Z 1008cddd f i libucrtd:setenv.obj
 0001:0008bdfb       ??$tcscpy_s@ABQA_WABIABQA_W@?$__crt_char_traits@_W@@SAHABQA_WABI0@Z 1008cdfb f i libucrtd:setenv.obj
 0001:0008be19       ??$tcslen@ABQAD@?$__crt_char_traits@D@@SAIABQAD@Z 1008ce19 f i libucrtd:setenv.obj
 0001:0008be31       ??$tcslen@ABQA_W@?$__crt_char_traits@_W@@SAIABQA_W@Z 1008ce31 f i libucrtd:setenv.obj
 0001:0008be4f       ??$tcsnicoll@ABQBDAAPADABI@?$__crt_char_traits@D@@SAHABQBDAAPADABI@Z 1008ce4f f i libucrtd:setenv.obj
 0001:0008be6d       ??$tcsnicoll@ABQB_WAAPA_WABI@?$__crt_char_traits@_W@@SAHABQB_WAAPA_WABI@Z 1008ce6d f i libucrtd:setenv.obj
 0001:0008be8b       ??$tcsnlen@PADH@?$__crt_char_traits@D@@SAI$$QAPAD$$QAH@Z 1008ce8b f i libucrtd:setenv.obj
 0001:0008bea3       ??$tcsnlen@PA_WH@?$__crt_char_traits@_W@@SAI$$QAPA_W$$QAH@Z 1008cea3 f i libucrtd:setenv.obj
 0001:0008bedf       ?strchr@@YAPADQADH@Z       1008cedf f i libucrtd:setenv.obj
 0001:0008beea       ?wcschr@@YAPA_WPA_W_W@Z    1008ceea f i libucrtd:setenv.obj
 0001:0008bef5       ___dcrt_set_variable_in_narrow_environment_nolock 1008cef5 f   libucrtd:setenv.obj
 0001:0008bf00       ___dcrt_set_variable_in_wide_environment_nolock 1008cf00 f   libucrtd:setenv.obj
 0001:0008bf10       ___acrt_getheap            1008cf10 f   libucrtd:heap_handle.obj
 0001:0008bf50       ___acrt_initialize_heap    1008cf50 f   libucrtd:heap_handle.obj
 0001:0008bf80       ___acrt_uninitialize_heap  1008cf80 f   libucrtd:heap_handle.obj
 0001:0008bfa0       __get_heap_handle          1008cfa0 f   libucrtd:heap_handle.obj
 0001:0008bfe0       ___acrt_execute_initializers 1008cfe0 f   libucrtd:shared_initialization.obj
 0001:0008c090       ___acrt_execute_uninitializers 1008d090 f   libucrtd:shared_initialization.obj
 0001:0008c0f0       ??$__crt_fast_decode_pointer@P6AHPAU_exception@@@Z@@YAP6AHPAU_exception@@@ZQ6AH0@Z@Z 1008d0f0 f i libucrtd:matherr.obj
 0001:0008c120       ??$__crt_fast_encode_pointer@P6AHPAU_exception@@@Z@@YAP6AHPAU_exception@@@ZQ6AH0@Z@Z 1008d120 f i libucrtd:matherr.obj
 0001:0008c150       ?initialize@?$dual_state_global@P6AHPAU_exception@@@Z@__crt_state_management@@QAEXQ6AHPAU_exception@@@Z@Z 1008d150 f i libucrtd:matherr.obj
 0001:0008c190       ?value@?$dual_state_global@P6AHPAU_exception@@@Z@__crt_state_management@@QAEAAP6AHPAU_exception@@@ZXZ 1008d190 f i libucrtd:matherr.obj
 0001:0008c1b0       ___acrt_has_user_matherr   1008d1b0 f   libucrtd:matherr.obj
 0001:0008c1f0       ___acrt_initialize_user_matherr 1008d1f0 f   libucrtd:matherr.obj
 0001:0008c210       ___acrt_invoke_user_matherr 1008d210 f   libucrtd:matherr.obj
 0001:0008c260       ___setusermatherr          1008d260 f   libucrtd:matherr.obj
 0001:0008c2a0       __free_base                1008d2a0 f   libucrtd:free_base.obj
 0001:0008c350       __expand                   1008d350 f   libucrtd:expand.obj
 0001:0008c370       __expand_base              1008d370 f   libucrtd:expand.obj
 0001:0008c4a0       ?value@?$dual_state_global@J@__crt_state_management@@QAEAAJXZ 1008d4a0 f i libucrtd:new_mode.obj
 0001:0008c4c0       __query_new_mode           1008d4c0 f   libucrtd:new_mode.obj
 0001:0008c4e0       __set_new_mode             1008d4e0 f   libucrtd:new_mode.obj
 0001:0008c580       __CrtDefaultAllocHook      1008d580 f   libucrtd:debug_heap_hook.obj
 0001:0008c58c       __mbsdec                   1008d58c f   libucrtd:mbsdec.obj
 0001:0008c5a3       __mbsdec_l                 1008d5a3 f   libucrtd:mbsdec.obj
 0001:0008ca90       _strncpy_s                 1008da90 f   libucrtd:strncpy_s.obj
 0001:0008cc60       ___acrt_report_runtime_error 1008dc60 f   libucrtd:report_runtime_error.obj
 0001:0008ce50       __query_app_type           1008de50 f   libucrtd:report_runtime_error.obj
 0001:0008ce60       __set_app_type             1008de60 f   libucrtd:report_runtime_error.obj
 0001:0008ce70       __iswctype_l               1008de70 f   libucrtd:iswctype.obj
 0001:0008ce90       _iswctype                  1008de90 f   libucrtd:iswctype.obj
 0001:0008cf00       ___iswcsym                 1008df00 f i libucrtd:_wctype.obj
 0001:0008cf40       ___iswcsymf                1008df40 f i libucrtd:_wctype.obj
 0001:0008cf80       __isleadbyte_l             1008df80 f i libucrtd:_wctype.obj
 0001:0008cfd0       __iswalnum_l               1008dfd0 f i libucrtd:_wctype.obj
 0001:0008cff0       __iswalpha_l               1008dff0 f i libucrtd:_wctype.obj
 0001:0008d010       __iswblank_l               1008e010 f i libucrtd:_wctype.obj
 0001:0008d050       __iswcntrl_l               1008e050 f i libucrtd:_wctype.obj
 0001:0008d070       __iswcsym_l                1008e070 f i libucrtd:_wctype.obj
 0001:0008d0b0       __iswcsymf_l               1008e0b0 f i libucrtd:_wctype.obj
 0001:0008d0f0       __iswdigit_l               1008e0f0 f i libucrtd:_wctype.obj
 0001:0008d110       __iswgraph_l               1008e110 f i libucrtd:_wctype.obj
 0001:0008d130       __iswlower_l               1008e130 f i libucrtd:_wctype.obj
 0001:0008d150       __iswprint_l               1008e150 f i libucrtd:_wctype.obj
 0001:0008d170       __iswpunct_l               1008e170 f i libucrtd:_wctype.obj
 0001:0008d190       __iswspace_l               1008e190 f i libucrtd:_wctype.obj
 0001:0008d1b0       __iswupper_l               1008e1b0 f i libucrtd:_wctype.obj
 0001:0008d1d0       __iswxdigit_l              1008e1d0 f i libucrtd:_wctype.obj
 0001:0008d1f0       _isleadbyte                1008e1f0 f i libucrtd:_wctype.obj
 0001:0008d210       _iswalnum                  1008e210 f i libucrtd:_wctype.obj
 0001:0008d230       _iswalpha                  1008e230 f i libucrtd:_wctype.obj
 0001:0008d250       _iswascii                  1008e250 f i libucrtd:_wctype.obj
 0001:0008d280       _iswblank                  1008e280 f i libucrtd:_wctype.obj
 0001:0008d2c0       _iswcntrl                  1008e2c0 f i libucrtd:_wctype.obj
 0001:0008d2e0       _iswdigit                  1008e2e0 f i libucrtd:_wctype.obj
 0001:0008d300       _iswgraph                  1008e300 f i libucrtd:_wctype.obj
 0001:0008d320       _iswlower                  1008e320 f i libucrtd:_wctype.obj
 0001:0008d340       _iswprint                  1008e340 f i libucrtd:_wctype.obj
 0001:0008d360       _iswpunct                  1008e360 f i libucrtd:_wctype.obj
 0001:0008d380       _iswspace                  1008e380 f i libucrtd:_wctype.obj
 0001:0008d3a0       _iswupper                  1008e3a0 f i libucrtd:_wctype.obj
 0001:0008d3c0       _iswxdigit                 1008e3c0 f i libucrtd:_wctype.obj
 0001:0008d450       ?__mbrtowc_utf8@__crt_mbstring@@YAIPA_WPBDIPAU_Mbstatet@@@Z 1008e450 f   libucrtd:mbrtowc.obj
 0001:0008d4a0       ?__mbsrtowcs_utf8@__crt_mbstring@@YAIPA_WPAPBDIPAU_Mbstatet@@@Z 1008e4a0 f   libucrtd:mbrtowc.obj
 0001:0008dd10       _btowc                     1008ed10 f   libucrtd:mbrtowc.obj
 0001:0008dd80       _mbrlen                    1008ed80 f   libucrtd:mbrtowc.obj
 0001:0008ddd0       _mbrtowc                   1008edd0 f   libucrtd:mbrtowc.obj
 0001:0008de60       _mbsrtowcs                 1008ee60 f   libucrtd:mbrtowc.obj
 0001:0008de80       _mbsrtowcs_s               1008ee80 f   libucrtd:mbrtowc.obj
 0001:0008e1d0       ??$?RG@__crt_internal_free_policy@@QBEXQBG@Z 1008f1d0 f i libucrtd:initctype.obj
 0001:0008e1f0       ??$?RJ@__crt_internal_free_policy@@QBEXQBJ@Z 1008f1f0 f i libucrtd:initctype.obj
 0001:0008e210       ??0?$__crt_unique_heap_ptr@GU__crt_internal_free_policy@@@@QAE@QAG@Z 1008f210 f i libucrtd:initctype.obj
 0001:0008e230       ??0?$__crt_unique_heap_ptr@JU__crt_internal_free_policy@@@@QAE@QAJ@Z 1008f230 f i libucrtd:initctype.obj
 0001:0008e250       ??1?$__crt_unique_heap_ptr@GU__crt_internal_free_policy@@@@QAE@XZ 1008f250 f i libucrtd:initctype.obj
