 Opos_Constants

 Timestamp is 5ed456bd (Mon Jun  1 10:15:41 2020)

 Preferred load address is 10000000

 Start         Length     Name                   Class
 0001:00000000 000006d0H .text$di                CODE
 0001:000006d0 00085650H .text$mn                CODE
 0001:00085d20 000001c0H .text$x                 CODE
 0001:00085ee0 000000a0H .text$yd                CODE
 0002:00000000 000001d4H .idata$5                DATA
 0002:000001d4 00000008H .00cfg                  DATA
 0002:000001dc 00000004H .CRT$XCA                DATA
 0002:000001e0 00000004H .CRT$XCL                DATA
 0002:000001e4 00000068H .CRT$XCU                DATA
 0002:0000024c 00000004H .CRT$XCZ                DATA
 0002:00000250 00000004H .CRT$XIA                DATA
 0002:00000254 0000000cH .CRT$XIC                DATA
 0002:00000260 00000004H .CRT$XIZ                DATA
 0002:00000264 00000004H .CRT$XPA                DATA
 0002:00000268 00000008H .CRT$XPX                DATA
 0002:00000270 00000004H .CRT$XPXA               DATA
 0002:00000274 00000004H .CRT$XPZ                DATA
 0002:00000278 00000004H .CRT$XTA                DATA
 0002:0000027c 00000004H .CRT$XTZ                DATA
 0002:00000280 00000000H .gfids$y                DATA
 0002:00000280 00024708H .rdata                  DATA
 0002:00024988 0000033cH .rdata$r                DATA
 0002:00024cc4 00000044H .rdata$sxdata           DATA
 0002:00024d08 00000394H .rdata$zzzdbg           DATA
 0002:0002509c 00000004H .rtc$IAA                DATA
 0002:000250a0 00000008H .rtc$IMZ                DATA
 0002:000250a8 00000004H .rtc$IZZ                DATA
 0002:000250ac 00000004H .rtc$TAA                DATA
 0002:000250b0 00000008H .rtc$TMZ                DATA
 0002:000250b8 00000008H .rtc$TZZ                DATA
 0002:000250c0 00000d2cH .xdata$x                DATA
 0002:00025dec 00000004H ATL$__a                 DATA
 0002:00025df0 00000010H ATL$__z                 DATA
 0002:00025e00 000000acH .edata                  DATA
 0002:00025eac 00000064H .idata$2                DATA
 0002:00025f10 00000014H .idata$3                DATA
 0002:00025f24 000001d4H .idata$4                DATA
 0002:000260f8 000007e2H .idata$6                DATA
 0003:00000000 00000910H .data                   DATA
 0003:00000910 00000138H .data$r                 DATA
 0003:00000a48 00003544H .bss                    DATA
 0004:00000000 00000140H .rsrc$01                DATA
 0004:00000140 0001aee8H .rsrc$02                DATA

  Address         Publics by Value              Rva+Base       Lib:Object

 0000:00000000       ___guard_iat_table         00000000     <absolute>
 0000:00000000       ___hybrid_auxiliary_iat    00000000     <absolute>
 0000:00000000       ___guard_eh_cont_count     00000000     <absolute>
 0000:00000000       ___arm64x_redirection_metadata 00000000     <absolute>
 0000:00000000       ___dynamic_value_reloc_table 00000000     <absolute>
 0000:00000000       ___AbsoluteZero            00000000     <absolute>
 0000:00000000       ___volatile_metadata       00000000     <absolute>
 0000:00000000       ___x64_code_ranges_to_entry_points 00000000     <absolute>
 0000:00000000       ___hybrid_code_map         00000000     <absolute>
 0000:00000000       ___guard_eh_cont_table     00000000     <absolute>
 0000:00000000       ___guard_fids_count        00000000     <absolute>
 0000:00000000       ___guard_iat_count         00000000     <absolute>
 0000:00000000       ___guard_longjmp_table     00000000     <absolute>
 0000:00000000       ___enclave_config          00000000     <absolute>
 0000:00000000       ___guard_fids_table        00000000     <absolute>
 0000:00000000       ___arm64x_native_entrypoint 00000000     <absolute>
 0000:00000000       ___hybrid_code_map_count   00000000     <absolute>
 0000:00000000       __except_list              00000000     <absolute>
 0000:00000000       ___guard_longjmp_count     00000000     <absolute>
 0000:00000011       ___safe_se_handler_count   00000011     <absolute>
 0000:00000100       ___guard_flags             00000100     <absolute>
 0000:00000000       ___ImageBase               10000000     <linker-defined>
 0001:000006d0       ??$AtlMultiply@I@ATL@@YAJPAIII@Z 100016d0 f i StdAfx.obj
 0001:00000730       ??0?$CHeapPtr@_WVCCRTAllocator@ATL@@@ATL@@QAE@XZ 10001730 f i StdAfx.obj
 0001:00000760       ??0?$CHeapPtrBase@_WVCCRTAllocator@ATL@@@ATL@@IAE@XZ 10001760 f i StdAfx.obj
 0001:00000780       ??0?$CSimpleArray@GV?$CSimpleArrayEqualHelper@G@ATL@@@ATL@@QAE@XZ 10001780 f i StdAfx.obj
 0001:000007c0       ??0?$CTraceCategoryEx@$00$0A@@ATL@@QAE@PB_W@Z 100017c0 f i StdAfx.obj
 0001:000007f0       ??0?$CTraceCategoryEx@$01$0A@@ATL@@QAE@PB_W@Z 100017f0 f i StdAfx.obj
 0001:00000820       ??0?$CTraceCategoryEx@$03$0A@@ATL@@QAE@PB_W@Z 10001820 f i StdAfx.obj
 0001:00000850       ??0?$CTraceCategoryEx@$07$0A@@ATL@@QAE@PB_W@Z 10001850 f i StdAfx.obj
 0001:00000880       ??0?$CTraceCategoryEx@$0BA@$0A@@ATL@@QAE@PB_W@Z 10001880 f i StdAfx.obj
 0001:000008b0       ??0?$CTraceCategoryEx@$0BAA@$0A@@ATL@@QAE@PB_W@Z 100018b0 f i StdAfx.obj
 0001:000008f0       ??0?$CTraceCategoryEx@$0BAAA@$0A@@ATL@@QAE@PB_W@Z 100018f0 f i StdAfx.obj
 0001:00000930       ??0?$CTraceCategoryEx@$0BAAAA@$0A@@ATL@@QAE@PB_W@Z 10001930 f i StdAfx.obj
 0001:00000970       ??0?$CTraceCategoryEx@$0BAAAAA@$0A@@ATL@@QAE@PB_W@Z 10001970 f i StdAfx.obj
 0001:000009b0       ??0?$CTraceCategoryEx@$0CA@$0A@@ATL@@QAE@PB_W@Z 100019b0 f i StdAfx.obj
 0001:000009e0       ??0?$CTraceCategoryEx@$0CAA@$0A@@ATL@@QAE@PB_W@Z 100019e0 f i StdAfx.obj
 0001:00000a20       ??0?$CTraceCategoryEx@$0CAAA@$0A@@ATL@@QAE@PB_W@Z 10001a20 f i StdAfx.obj
 0001:00000a60       ??0?$CTraceCategoryEx@$0CAAAA@$0A@@ATL@@QAE@PB_W@Z 10001a60 f i StdAfx.obj
 0001:00000aa0       ??0?$CTraceCategoryEx@$0CAAAAA@$0A@@ATL@@QAE@PB_W@Z 10001aa0 f i StdAfx.obj
 0001:00000ae0       ??0?$CTraceCategoryEx@$0EA@$0A@@ATL@@QAE@PB_W@Z 10001ae0 f i StdAfx.obj
 0001:00000b10       ??0?$CTraceCategoryEx@$0EAA@$0A@@ATL@@QAE@PB_W@Z 10001b10 f i StdAfx.obj
 0001:00000b50       ??0?$CTraceCategoryEx@$0EAAA@$0A@@ATL@@QAE@PB_W@Z 10001b50 f i StdAfx.obj
 0001:00000b90       ??0?$CTraceCategoryEx@$0EAAAA@$0A@@ATL@@QAE@PB_W@Z 10001b90 f i StdAfx.obj
 0001:00000bd0       ??0?$CTraceCategoryEx@$0EAAAAA@$0A@@ATL@@QAE@PB_W@Z 10001bd0 f i StdAfx.obj
 0001:00000c10       ??0?$CTraceCategoryEx@$0IA@$0A@@ATL@@QAE@PB_W@Z 10001c10 f i StdAfx.obj
 0001:00000c50       ??0?$CTraceCategoryEx@$0IAA@$0A@@ATL@@QAE@PB_W@Z 10001c50 f i StdAfx.obj
 0001:00000c90       ??0?$CTraceCategoryEx@$0IAAA@$0A@@ATL@@QAE@PB_W@Z 10001c90 f i StdAfx.obj
 0001:00000cd0       ??0?$CTraceCategoryEx@$0IAAAA@$0A@@ATL@@QAE@PB_W@Z 10001cd0 f i StdAfx.obj
 0001:00000d10       ??0CAtlComModule@ATL@@QAE@XZ 10001d10 f i StdAfx.obj
 0001:00000df0       ??0CAtlWinModule@ATL@@QAE@XZ 10001df0 f i StdAfx.obj
 0001:00000e80       ??0CComCriticalSection@ATL@@QAE@XZ 10001e80 f i StdAfx.obj
 0001:00000eb0       ??0CPreserveLastError@ATL@@QAE@XZ 10001eb0 f i StdAfx.obj
 0001:00000ef0       ??0CTraceFileAndLineInfo@ATL@@QAE@PBDH@Z 10001ef0 f i StdAfx.obj
 0001:00000f20       ??0_ATL_COM_MODULE70@ATL@@QAE@XZ 10001f20 f i StdAfx.obj
 0001:00000f50       ??0_ATL_WIN_MODULE70@ATL@@QAE@XZ 10001f50 f i StdAfx.obj
 0001:00000f90       ??1?$CHeapPtr@_WVCCRTAllocator@ATL@@@ATL@@QAE@XZ 10001f90 f i StdAfx.obj
 0001:00000fc0       ??1?$CHeapPtrBase@_WVCCRTAllocator@ATL@@@ATL@@QAE@XZ 10001fc0 f i StdAfx.obj
 0001:00000ff0       ??1?$CSimpleArray@GV?$CSimpleArrayEqualHelper@G@ATL@@@ATL@@QAE@XZ 10001ff0 f i StdAfx.obj
 0001:00001020       ??1CAtlComModule@ATL@@QAE@XZ 10002020 f i StdAfx.obj
 0001:00001050       ??1CAtlWinModule@ATL@@QAE@XZ 10002050 f i StdAfx.obj
 0001:00001080       ??1CComBSTR@ATL@@QAE@XZ    10002080 f i StdAfx.obj
 0001:000010c0       ??1CComCriticalSection@ATL@@QAE@XZ 100020c0 f i StdAfx.obj
 0001:000010e0       ??1CPreserveLastError@ATL@@QAE@XZ 100020e0 f i StdAfx.obj
 0001:00001120       ??1_ATL_COM_MODULE70@ATL@@QAE@XZ 10002120 f i StdAfx.obj
 0001:00001150       ??1_ATL_WIN_MODULE70@ATL@@QAE@XZ 10002150 f i StdAfx.obj
 0001:00001190       ??1stringdispid@CComTypeInfoHolder@ATL@@QAE@XZ 10002190 f i StdAfx.obj
 0001:000011c0       ??A?$CSimpleArray@GV?$CSimpleArrayEqualHelper@G@ATL@@@ATL@@QAEAAGH@Z 100021c0 f i StdAfx.obj
 0001:00001240       ??B?$CHeapPtrBase@_WVCCRTAllocator@ATL@@@ATL@@QBEPA_WXZ 10002240 f i StdAfx.obj
 0001:00001260       ??B?$CTraceCategoryEx@$01$0A@@ATL@@QAEIXZ 10002260 f i StdAfx.obj
 0001:00001280       ??B?$CTraceCategoryEx@$0CA@$0A@@ATL@@QAEIXZ 10002280 f i StdAfx.obj
 0001:000012a0       ??RCTraceFileAndLineInfo@ATL@@QBAXHIPB_WZZ 100022a0 f i StdAfx.obj
 0001:00001340       ??_Estringdispid@CComTypeInfoHolder@ATL@@QAEPAXI@Z 10002340 f i StdAfx.obj
 0001:000013d0       ??_H@YGXPAXIIP6EPAX0@Z@Z   100023d0 f i StdAfx.obj
 0001:00001440       ??_I@YGXPAXIIP6EX0@Z@Z     10002440 f i StdAfx.obj
 0001:000014c0       ?Allocate@?$CHeapPtr@_WVCCRTAllocator@ATL@@@ATL@@QAE_NI@Z 100024c0 f i StdAfx.obj
 0001:00001550       ?Allocate@CCRTAllocator@ATL@@SAPAXI@Z 10002550 f i StdAfx.obj
 0001:00001570       ?AllocateBytes@?$CHeapPtrBase@_WVCCRTAllocator@ATL@@@ATL@@QAE_NI@Z 10002570 f i StdAfx.obj
 0001:000015e0       ?AtlWinModuleInit@ATL@@YGJPAU_ATL_WIN_MODULE70@1@@Z 100025e0 f i StdAfx.obj
 0001:000016b0       ?AtlWinModuleTerm@ATL@@YGJPAU_ATL_WIN_MODULE70@1@PAUHINSTANCE__@@@Z 100026b0 f i StdAfx.obj
 0001:00001770       ?Free@?$CHeapPtrBase@_WVCCRTAllocator@ATL@@@ATL@@QAEXXZ 10002770 f i StdAfx.obj
 0001:000017b0       ?Free@CCRTAllocator@ATL@@SAXPAX@Z 100027b0 f i StdAfx.obj
 0001:000017d0       ?GetCategoryName@CTrace@ATL@@CAPA_WI@Z 100027d0 f i StdAfx.obj
 0001:00001820       ?GetModuleInstance@CAtlBaseModule@ATL@@QAEPAUHINSTANCE__@@XZ 10002820 f i StdAfx.obj
 0001:00001840       ?GetSize@?$CSimpleArray@GV?$CSimpleArrayEqualHelper@G@ATL@@@ATL@@QBEHXZ 10002840 f i StdAfx.obj
 0001:00001860       ?Init@CComCriticalSection@ATL@@QAEJXZ 10002860 f i StdAfx.obj
 0001:000018c0       ?RegisterCategory@CTrace@ATL@@SAXPB_WI@Z 100028c0 f i StdAfx.obj
 0001:00001950       ?RemoveAll@?$CSimpleArray@GV?$CSimpleArrayEqualHelper@G@ATL@@@ATL@@QAEXXZ 10002950 f i StdAfx.obj
 0001:000019d0       ?Term@CAtlComModule@ATL@@QAEXXZ 100029d0 f i StdAfx.obj
 0001:00001a90       ?Term@CAtlWinModule@ATL@@QAEXXZ 10002a90 f i StdAfx.obj
 0001:00001ac0       ?Term@CComCriticalSection@ATL@@QAEJXZ 10002ac0 f i StdAfx.obj
 0001:00001b00       ?TraceV@CTrace@ATL@@CAXPBDHIIPB_W@Z 10002b00 f i StdAfx.obj
 0001:00001d80       ?TraceV@CTrace@ATL@@SAXPBDHIIPB_WPAD@Z 10002d80 f i StdAfx.obj
 0001:00001ec0       ?_AtlInitializeCriticalSectionEx@ATL@@YAHPAU_RTL_CRITICAL_SECTION@@KK@Z 10002ec0 f i StdAfx.obj
 0001:00001ef0       ?_AtlRaiseException@ATL@@YAXKK@Z 10002ef0 f i StdAfx.obj
 0001:00001f20       _HRESULT_FROM_WIN32        10002f20 f i StdAfx.obj
 0001:00001f60       ___local_stdio_printf_options 10002f60 f i StdAfx.obj
 0001:00001f70       __vswprintf_s_l            10002f70 f i StdAfx.obj
 0001:00001fe0       _swprintf_s                10002fe0 f i StdAfx.obj
 0001:00002170       _DllGetClassObject@12      10003170 f   OposConstants.obj
 0001:000021a0       _DllCanUnloadNow@0         100031a0 f   OposConstants.obj
 0001:000021e0       _DllRegisterServer@0       100031e0 f   OposConstants.obj
 0001:00002200       _DllUnregisterServer@0     10003200 f   OposConstants.obj
 0001:00002390       _DllMain@12                10003390 f   OposConstants.obj
 0001:000023f0       ??$?2PA_W@?$Wrapper@PA_W@?$CSimpleMap@PA_WPA_WVCExpansionVectorEqualHelper@ATL@@@ATL@@SAPAXIPAPA_W@Z 100033f0 f i OposConstants.obj
 0001:00002400       ??$AtlMultiply@K@ATL@@YAJPAKKK@Z 10003400 f i OposConstants.obj
 0001:00002460       ??$AtlMultiplyThrow@I@ATL@@YAIII@Z 10003460 f i OposConstants.obj
 0001:000024e0       ??0?$CAtlModuleT@VCComModule@ATL@@@ATL@@QAE@XZ 100034e0 f i OposConstants.obj
 0001:00002510       ??0?$CAtlSafeAllocBufferManager@VCCRTAllocator@ATL@@@_ATL_SAFE_ALLOCA_IMPL@ATL@@QAE@XZ 10003510 f i OposConstants.obj
 0001:00002530       ??0?$CAutoVectorPtr@_W@ATL@@QAE@XZ 10003530 f i OposConstants.obj
 0001:00002550       ??0?$CComCritSecLock@VCComCriticalSection@ATL@@@ATL@@QAE@AAVCComCriticalSection@1@_N@Z 10003550 f i OposConstants.obj
 0001:000025b0       ??0?$CComPtr@UICatRegister@@@ATL@@QAE@XZ 100035b0 f i OposConstants.obj
 0001:000025e0       ??0?$CComPtr@UITypeLib@@@ATL@@QAE@XZ 100035e0 f i OposConstants.obj
 0001:00002610       ??0?$CComPtrBase@UICatRegister@@@ATL@@IAE@XZ 10003610 f i OposConstants.obj
 0001:00002630       ??0?$CComPtrBase@UITypeLib@@@ATL@@IAE@XZ 10003630 f i OposConstants.obj
 0001:00002650       ??0?$CSimpleMap@PA_WPA_WVCExpansionVectorEqualHelper@ATL@@@ATL@@QAE@XZ 10003650 f i OposConstants.obj
 0001:00002690       ??0?$CTempBuffer@E$0BAA@VCCRTAllocator@ATL@@@ATL@@QAE@XZ 10003690 f i OposConstants.obj
 0001:000026b0       ??0?$CTempBuffer@_W$0BAA@VCCRTAllocator@ATL@@@ATL@@QAE@XZ 100036b0 f i OposConstants.obj
 0001:000026d0       ??0?$CTempBuffer@_W$0EAA@VCCRTAllocator@ATL@@@ATL@@QAE@XZ 100036d0 f i OposConstants.obj
 0001:000026f0       ??0?$Wrapper@PA_W@?$CSimpleMap@PA_WPA_WVCExpansionVectorEqualHelper@ATL@@@ATL@@QAE@ABQA_W@Z 100036f0 f i OposConstants.obj
 0001:00002720       ??0CAtlModule@ATL@@QAE@XZ  10003720 f i OposConstants.obj
 0001:00002840       ??0CComBSTR@ATL@@QAE@XZ    10003840 f i OposConstants.obj
 0001:00002860       ??0CComModule@ATL@@QAE@XZ  10003860 f i OposConstants.obj
 0001:000028d0       ??0CExpansionVector@ATL@@QAE@XZ 100038d0 f i OposConstants.obj
 0001:00002900       ??0CParseBuffer@CRegParser@ATL@@QAE@H@Z 10003900 f i OposConstants.obj
 0001:00002970       ??0CRegKey@ATL@@QAE@PAUHKEY__@@@Z 10003970 f i OposConstants.obj
 0001:000029b0       ??0CRegKey@ATL@@QAE@PAVCAtlTransactionManager@1@@Z 100039b0 f i OposConstants.obj
 0001:000029f0       ??0CRegObject@ATL@@QAE@XZ  100039f0 f i OposConstants.obj
 0001:00002a30       ??0CRegParser@ATL@@QAE@PAVCRegObject@1@@Z 10003a30 f i OposConstants.obj
 0001:00002a60       ??0IRegistrarBase@@QAE@XZ  10003a60 f i OposConstants.obj
 0001:00002a90       ??0IUnknown@@QAE@XZ        10003a90 f i OposConstants.obj
 0001:00002ab0       ??0_ATL_MODULE70@ATL@@QAE@XZ 10003ab0 f i OposConstants.obj
 0001:00002ae0       ??1?$CAtlModuleT@VCComModule@ATL@@@ATL@@UAE@XZ 10003ae0 f i OposConstants.obj
 0001:00002b10       ??1?$CAtlSafeAllocBufferManager@VCCRTAllocator@ATL@@@_ATL_SAFE_ALLOCA_IMPL@ATL@@QAE@XZ 10003b10 f i OposConstants.obj
 0001:00002b60       ??1?$CAutoVectorPtr@_W@ATL@@QAE@XZ 10003b60 f i OposConstants.obj
 0001:00002b90       ??1?$CComCritSecLock@VCComCriticalSection@ATL@@@ATL@@QAE@XZ 10003b90 f i OposConstants.obj
 0001:00002bc0       ??1?$CComPtr@UICatRegister@@@ATL@@QAE@XZ 10003bc0 f i OposConstants.obj
 0001:00002bf0       ??1?$CComPtr@UITypeLib@@@ATL@@QAE@XZ 10003bf0 f i OposConstants.obj
 0001:00002c20       ??1?$CComPtrBase@UICatRegister@@@ATL@@QAE@XZ 10003c20 f i OposConstants.obj
 0001:00002c70       ??1?$CComPtrBase@UITypeLib@@@ATL@@QAE@XZ 10003c70 f i OposConstants.obj
 0001:00002cc0       ??1?$CSimpleMap@PA_WPA_WVCExpansionVectorEqualHelper@ATL@@@ATL@@QAE@XZ 10003cc0 f i OposConstants.obj
 0001:00002cf0       ??1?$CTempBuffer@E$0BAA@VCCRTAllocator@ATL@@@ATL@@QAE@XZ 10003cf0 f i OposConstants.obj
 0001:00002d30       ??1?$CTempBuffer@_W$0BAA@VCCRTAllocator@ATL@@@ATL@@QAE@XZ 10003d30 f i OposConstants.obj
 0001:00002d70       ??1?$CTempBuffer@_W$0EAA@VCCRTAllocator@ATL@@@ATL@@QAE@XZ 10003d70 f i OposConstants.obj
 0001:00002db0       ??1CAtlModule@ATL@@UAE@XZ  10003db0 f i OposConstants.obj
 0001:00002de0       ??1CComModule@ATL@@UAE@XZ  10003de0 f i OposConstants.obj
 0001:00002e10       ??1CExpansionVector@ATL@@QAE@XZ 10003e10 f i OposConstants.obj
 0001:00002e40       ??1CParseBuffer@CRegParser@ATL@@QAE@XZ 10003e40 f i OposConstants.obj
 0001:00002e80       ??1CRegKey@ATL@@QAE@XZ     10003e80 f i OposConstants.obj
 0001:00002eb0       ??1CRegObject@ATL@@UAE@XZ  10003eb0 f i OposConstants.obj
 0001:00002ef0       ??1_ATL_MODULE70@ATL@@QAE@XZ 10003ef0 f i OposConstants.obj
 0001:00002f20       ??7CComBSTR@ATL@@QBE_NXZ   10003f20 f i OposConstants.obj
 0001:00002f60       ??8CComBSTR@ATL@@QBE_NH@Z  10003f60 f i OposConstants.obj
 0001:00002fc0       ??9CComBSTR@ATL@@QBE_NH@Z  10003fc0 f i OposConstants.obj
 0001:00003010       ??B?$CComPtrBase@UITypeLib@@@ATL@@QBEPAUITypeLib@@XZ 10004010 f i OposConstants.obj
 0001:00003030       ??B?$CTempBuffer@E$0BAA@VCCRTAllocator@ATL@@@ATL@@QBEPAEXZ 10004030 f i OposConstants.obj
 0001:00003050       ??B?$CTempBuffer@_W$0BAA@VCCRTAllocator@ATL@@@ATL@@QBEPA_WXZ 10004050 f i OposConstants.obj
 0001:00003070       ??B?$CTempBuffer@_W$0EAA@VCCRTAllocator@ATL@@@ATL@@QBEPA_WXZ 10004070 f i OposConstants.obj
 0001:00003090       ??B?$CTraceCategoryEx@$00$0A@@ATL@@QAEIXZ 10004090 f i OposConstants.obj
 0001:000030b0       ??B?$CTraceCategoryEx@$07$0A@@ATL@@QAEIXZ 100040b0 f i OposConstants.obj
 0001:000030d0       ??B?$CTraceCategoryEx@$0CAAA@$0A@@ATL@@QAEIXZ 100040d0 f i OposConstants.obj
 0001:000030f0       ??BCComBSTR@ATL@@QBEPA_WXZ 100040f0 f i OposConstants.obj
 0001:00003110       ??BCRegKey@ATL@@QBEPAUHKEY__@@XZ 10004110 f i OposConstants.obj
 0001:00003130       ??C?$CComPtrBase@UICatRegister@@@ATL@@QBEPAV?$_NoAddRefReleaseOnCComPtr@UICatRegister@@@1@XZ 10004130 f i OposConstants.obj
 0001:00003180       ??C?$CComPtrBase@UITypeLib@@@ATL@@QBEPAV?$_NoAddRefReleaseOnCComPtr@UITypeLib@@@1@XZ 10004180 f i OposConstants.obj
 0001:000031d0       ??I?$CComPtrBase@UICatRegister@@@ATL@@QAEPAPAUICatRegister@@XZ 100041d0 f i OposConstants.obj
 0001:00003220       ??I?$CComPtrBase@UITypeLib@@@ATL@@QAEPAPAUITypeLib@@XZ 10004220 f i OposConstants.obj
 0001:00003270       ??ICComBSTR@ATL@@QAEPAPA_WXZ 10004270 f i OposConstants.obj
 0001:00003290       ??_GCComModule@ATL@@UAEPAXI@Z 10004290 f i OposConstants.obj
 0001:00003290       ??_ECComModule@ATL@@UAEPAXI@Z 10004290 f i OposConstants.obj
 0001:000032d0       ??_GCRegObject@ATL@@UAEPAXI@Z 100042d0 f i OposConstants.obj
 0001:000032d0       ??_ECRegObject@ATL@@UAEPAXI@Z 100042d0 f i OposConstants.obj
 0001:00003310       ?Add@?$CSimpleMap@PA_WPA_WVCExpansionVectorEqualHelper@ATL@@@ATL@@QAEHABQA_W0@Z 10004310 f i OposConstants.obj
 0001:000033d0       ?Add@CExpansionVector@ATL@@QAEHPB_W0@Z 100043d0 f i OposConstants.obj
 0001:00003660       ?AddChar@CParseBuffer@CRegParser@ATL@@QAEHPB_W@Z 10004660 f i OposConstants.obj
 0001:000036a0       ?AddCommonRGSReplacements@?$CAtlModuleT@VCComModule@ATL@@@ATL@@UAEJPAUIRegistrarBase@@@Z 100046a0 f i OposConstants.obj
 0001:000036f0       ?AddRef@CRegObject@ATL@@UAGKXZ 100046f0 f i OposConstants.obj
 0001:00003740       ?AddReplacement@CRegObject@ATL@@UAGJPB_W0@Z 10004740 f i OposConstants.obj
 0001:00003850       ?AddString@CParseBuffer@CRegParser@ATL@@QAEHPB_W@Z 10004850 f i OposConstants.obj
 0001:00003940       ?AddValue@CRegParser@ATL@@IAEJAAVCRegKey@2@PB_WPA_W@Z 10004940 f i OposConstants.obj
 0001:000040d0       ?Allocate@?$CTempBuffer@E$0BAA@VCCRTAllocator@ATL@@@ATL@@QAEPAEI@Z 100050d0 f i OposConstants.obj
 0001:00004110       ?Allocate@?$CTempBuffer@_W$0BAA@VCCRTAllocator@ATL@@@ATL@@QAEPA_WI@Z 10005110 f i OposConstants.obj
 0001:00004150       ?Allocate@?$CTempBuffer@_W$0EAA@VCCRTAllocator@ATL@@@ATL@@QAEPA_WI@Z 10005150 f i OposConstants.obj
 0001:00004190       ?AllocateBytes@?$CTempBuffer@E$0BAA@VCCRTAllocator@ATL@@@ATL@@QAEPAEI@Z 10005190 f i OposConstants.obj
 0001:00004210       ?AllocateBytes@?$CTempBuffer@_W$0BAA@VCCRTAllocator@ATL@@@ATL@@QAEPA_WI@Z 10005210 f i OposConstants.obj
 0001:00004290       ?AllocateBytes@?$CTempBuffer@_W$0EAA@VCCRTAllocator@ATL@@@ATL@@QAEPA_WI@Z 10005290 f i OposConstants.obj
 0001:00004310       ?AllocateHeap@?$CTempBuffer@E$0BAA@VCCRTAllocator@ATL@@@ATL@@AAEXI@Z 10005310 f i OposConstants.obj
 0001:00004360       ?AllocateHeap@?$CTempBuffer@_W$0BAA@VCCRTAllocator@ATL@@@ATL@@AAEXI@Z 10005360 f i OposConstants.obj
 0001:000043b0       ?AllocateHeap@?$CTempBuffer@_W$0EAA@VCCRTAllocator@ATL@@@ATL@@AAEXI@Z 100053b0 f i OposConstants.obj
 0001:00004400       ?Append@CParseBuffer@CRegParser@ATL@@QAEHPB_WH@Z 10005400 f i OposConstants.obj
 0001:000045a0       ?AtlCallTermFunc@ATL@@YGXPAU_ATL_MODULE70@1@@Z 100055a0 f i OposConstants.obj
 0001:00004640       ?AtlCoTaskMemCAlloc@ATL@@YAPAXKK@Z 10005640 f i OposConstants.obj
 0001:000046d0       ?AtlCoTaskMemRecalloc@ATL@@YAPAXPAXKK@Z 100056d0 f i OposConstants.obj
 0001:00004770       ?AtlComModuleGetClassObject@ATL@@YGJPAU_ATL_COM_MODULE70@1@ABU_GUID@@1PAPAX@Z 10005770 f i OposConstants.obj
 0001:00004a00       ?AtlComModuleRegisterServer@ATL@@YGJPAU_ATL_COM_MODULE70@1@HPBU_GUID@@@Z 10005a00 f i OposConstants.obj
 0001:00004b90       ?AtlComModuleUnregisterServer@ATL@@YGJPAU_ATL_COM_MODULE70@1@HPBU_GUID@@@Z 10005b90 f i OposConstants.obj
 0001:00004cc0       ?AtlCrtErrorCheck@ATL@@YAHH@Z 10005cc0 f i OposConstants.obj
 0001:00004d90       ?AtlGetPerUserRegistration@ATL@@YGJPA_N@Z 10005d90 f i OposConstants.obj
 0001:00004dc0       ?AtlHresultFromLastError@ATL@@YAJXZ 10005dc0 f i OposConstants.obj
 0001:00004e00       ?AtlHresultFromWin32@ATL@@YAJK@Z 10005e00 f i OposConstants.obj
 0001:00004e20       ?AtlLoadTypeLib@ATL@@YGJPAUHINSTANCE__@@PB_WPAPA_WPAPAUITypeLib@@@Z 10005e20 f i OposConstants.obj
 0001:00005280       ?AtlRegisterClassCategoriesHelper@ATL@@YGJABU_GUID@@PBU_ATL_CATMAP_ENTRY@1@H@Z 10006280 f i OposConstants.obj
 0001:00005960       ?AtlRegisterTypeLib@ATL@@YGJPAUHINSTANCE__@@PB_W@Z 10006960 f i OposConstants.obj
 0001:00005ca0       ?AtlThrowImpl@ATL@@YGXJ@Z  10006ca0 f i OposConstants.obj
 0001:00005d50       ?AtlUnRegisterTypeLib@ATL@@YGJPAUHINSTANCE__@@PB_W@Z 10006d50 f i OposConstants.obj
 0001:00005f60       ?Attach@?$CAutoVectorPtr@_W@ATL@@QAEXPA_W@Z 10006f60 f i OposConstants.obj
 0001:00005fc0       ?Attach@CRegKey@ATL@@QAEXPAUHKEY__@@@Z 10006fc0 f i OposConstants.obj
 0001:00006030       ?CanForceRemoveKey@CRegParser@ATL@@IAEHPB_W@Z 10007030 f i OposConstants.obj
 0001:000060a0       ?ChToByte@CRegParser@ATL@@KAE_W@Z 100070a0 f i OposConstants.obj
 0001:000061c0       ?ClearReplacements@CExpansionVector@ATL@@QAEJXZ 100071c0 f i OposConstants.obj
 0001:00006250       ?ClearReplacements@CRegObject@ATL@@UAGJXZ 10007250 f i OposConstants.obj
 0001:000062a0       ?Close@CRegKey@ATL@@QAEJXZ 100072a0 f i OposConstants.obj
 0001:00006310       ?Decrement@CComMultiThreadModel@ATL@@SGKPAJ@Z 10007310 f i OposConstants.obj
 0001:00006330       ?DeleteSubKey@CRegKey@ATL@@QAEJPB_W@Z 10007330 f i OposConstants.obj
 0001:00006440       ?DeleteValue@CRegKey@ATL@@QAEJPB_W@Z 10007440 f i OposConstants.obj
 0001:000064b0       ?Detach@?$CAutoVectorPtr@_W@ATL@@QAEPA_WXZ 100074b0 f i OposConstants.obj
 0001:000064e0       ?Detach@CParseBuffer@CRegParser@ATL@@QAEPA_WXZ 100074e0 f i OposConstants.obj
 0001:00006530       ?Detach@CRegKey@ATL@@QAEPAUHKEY__@@XZ 10007530 f i OposConstants.obj
 0001:00006580       ?EndOfVar@CRegParser@ATL@@IAEHXZ 10007580 f i OposConstants.obj
 0001:000065f0       ?EscapeSingleQuote@CAtlModule@ATL@@SAXPA_WIPB_W@Z 100075f0 f i OposConstants.obj
 0001:000066a0       ?FinalConstruct@CRegObject@ATL@@QAEJXZ 100076a0 f i OposConstants.obj
 0001:000066d0       ?FindKey@?$CSimpleMap@PA_WPA_WVCExpansionVectorEqualHelper@ATL@@@ATL@@QBEHABQA_W@Z 100076d0 f i OposConstants.obj
 0001:00006740       ?Free@?$CAutoVectorPtr@_W@ATL@@QAEXXZ 10007740 f i OposConstants.obj
 0001:00006790       ?FreeHeap@?$CTempBuffer@E$0BAA@VCCRTAllocator@ATL@@@ATL@@AAEXXZ 10007790 f i OposConstants.obj
 0001:000067c0       ?FreeHeap@?$CTempBuffer@_W$0BAA@VCCRTAllocator@ATL@@@ATL@@AAEXXZ 100077c0 f i OposConstants.obj
 0001:000067f0       ?FreeHeap@?$CTempBuffer@_W$0EAA@VCCRTAllocator@ATL@@@ATL@@AAEXXZ 100077f0 f i OposConstants.obj
 0001:00006820       ?GenerateError@CRegParser@ATL@@IAEJI@Z 10007820 f i OposConstants.obj
 0001:00006840       ?GetAppId@?$CAtlModuleT@VCComModule@ATL@@@ATL@@SAPB_WXZ 10007840 f i OposConstants.obj
 0001:00006850       ?GetClassObject@CComModule@ATL@@QAEJABU_GUID@@0PAPAX@Z 10007850 f i OposConstants.obj
 0001:00006a50       ?GetGITPtr@CAtlModule@ATL@@UAEJPAPAUIGlobalInterfaceTable@@@Z 10007a50 f i OposConstants.obj
 0001:00006b50       ?GetKeyAt@?$CSimpleMap@PA_WPA_WVCExpansionVectorEqualHelper@ATL@@@ATL@@QBEAAPA_WH@Z 10007b50 f i OposConstants.obj
 0001:00006bd0       ?GetLockCount@CAtlModule@ATL@@UAEJXZ 10007bd0 f i OposConstants.obj
 0001:00006bf0       ?GetSize@?$CSimpleMap@PA_WPA_WVCExpansionVectorEqualHelper@ATL@@@ATL@@QBEHXZ 10007bf0 f i OposConstants.obj
 0001:00006c10       ?GetValueAt@?$CSimpleMap@PA_WPA_WVCExpansionVectorEqualHelper@ATL@@@ATL@@QBEAAPA_WH@Z 10007c10 f i OposConstants.obj
 0001:00006c90       ?HKeyFromString@CRegParser@ATL@@KAPAUHKEY__@@PA_W@Z 10007c90 f i OposConstants.obj
 0001:00006d00       ?HasSubKeys@CRegParser@ATL@@IAEHPAUHKEY__@@@Z 10007d00 f i OposConstants.obj
 0001:00006e10       ?Increment@CComMultiThreadModel@ATL@@SGKPAJ@Z 10007e10 f i OposConstants.obj
 0001:00006e30       ?Init@CComFakeCriticalSection@ATL@@QAEJXZ 10007e30 f i OposConstants.obj
 0001:00006e50       ?Init@CComModule@ATL@@QAEJPAU_ATL_OBJMAP_ENTRY30@2@PAUHINSTANCE__@@PBU_GUID@@@Z 10007e50 f i OposConstants.obj
 0001:00006f40       ?InitLibId@?$CAtlModuleT@VCComModule@ATL@@@ATL@@SAXXZ 10007f40 f i OposConstants.obj
 0001:00006f50       ?InternalSetAtIndex@?$CSimpleMap@PA_WPA_WVCExpansionVectorEqualHelper@ATL@@@ATL@@QAEXHABQA_W0@Z 10007f50 f i OposConstants.obj
 0001:00006ff0       ?IsEqualKey@CExpansionVectorEqualHelper@ATL@@SA_NQA_W0@Z 10007ff0 f i OposConstants.obj
 0001:00007020       ?IsSpace@CRegParser@ATL@@IAEH_W@Z 10008020 f i OposConstants.obj
 0001:00007090       ?Length@CComBSTR@ATL@@QBEIXZ 10008090 f i OposConstants.obj
 0001:000070d0       ?Lock@?$CComCritSecLock@VCComCriticalSection@ATL@@@ATL@@QAEJXZ 100080d0 f i OposConstants.obj
 0001:00007180       ?Lock@CAtlModule@ATL@@UAEJXZ 10008180 f i OposConstants.obj
 0001:000071b0       ?Lock@CComCriticalSection@ATL@@QAEJXZ 100081b0 f i OposConstants.obj
 0001:000071f0       ?Lock@CComFakeCriticalSection@ATL@@QAEJXZ 100081f0 f i OposConstants.obj
 0001:00007210       ?Lookup@?$CSimpleMap@PA_WPA_WVCExpansionVectorEqualHelper@ATL@@@ATL@@QBEPA_WABQA_W@Z 10008210 f i OposConstants.obj
 0001:00007260       ?NextToken@CRegParser@ATL@@IAEJPA_W@Z 10008260 f i OposConstants.obj
 0001:00007500       ?OLE2CT_EX@@YAPB_WPB_WI@Z  10008500 f i OposConstants.obj
 0001:00007510       ?OLE2T_EX@@YAPA_WPA_WI@Z   10008510 f i OposConstants.obj
 0001:00007520       ?Open@CRegKey@ATL@@QAEJPAUHKEY__@@PB_WK@Z 10008520 f i OposConstants.obj
 0001:00007670       ?PreProcessBuffer@CRegParser@ATL@@QAEJPA_WPAPA_W@Z 10008670 f i OposConstants.obj
 0001:00007bb0       ?QueryInterface@CRegObject@ATL@@UAGJABU_GUID@@PAPAX@Z 10008bb0 f i OposConstants.obj
 0001:00007c00       ?RecurseDeleteKey@CRegKey@ATL@@QAEJPB_W@Z 10008c00 f i OposConstants.obj
 0001:00007de0       ?RegCreateKeyExW@CAtlTransactionManager@ATL@@QAEJPAUHKEY__@@PB_WKPA_WKKQAU_SECURITY_ATTRIBUTES@@PAPAU3@PAK@Z 10008de0 f i OposConstants.obj
 0001:00007f10       ?RegDeleteKeyW@CAtlTransactionManager@ATL@@QAEJPAUHKEY__@@PB_W@Z 10008f10 f i OposConstants.obj
 0001:00008010       ?RegOpenKeyExW@CAtlTransactionManager@ATL@@QAEJPAUHKEY__@@PB_WKKPAPAU3@@Z 10009010 f i OposConstants.obj
 0001:00008120       ?RegisterBuffer@CRegParser@ATL@@QAEJPA_WH@Z 10009120 f i OposConstants.obj
 0001:00008450       ?RegisterFromResource@CRegObject@ATL@@IAEJPB_W00H@Z 10009450 f i OposConstants.obj
 0001:000087e0       ?RegisterServer@?$CAtlModuleT@VCComModule@ATL@@@ATL@@QAEJHPBU_GUID@@@Z 100097e0 f i OposConstants.obj
 0001:00008860       ?RegisterServer@CAtlComModule@ATL@@QAEJHPBU_GUID@@@Z 10009860 f i OposConstants.obj
 0001:00008890       ?RegisterServer@CComModule@ATL@@QAEJHPBU_GUID@@@Z 10009890 f i OposConstants.obj
 0001:00008970       ?RegisterSubkeys@CRegParser@ATL@@IAEJPA_WPAUHKEY__@@HH@Z 10009970 f i OposConstants.obj
 0001:00009490       ?Release@CRegObject@ATL@@UAGKXZ 1000a490 f i OposConstants.obj
 0001:000094d0       ?RemoveAll@?$CSimpleMap@PA_WPA_WVCExpansionVectorEqualHelper@ATL@@@ATL@@QAEXXZ 1000a4d0 f i OposConstants.obj
 0001:00009560       ?ResourceRegister@CRegObject@ATL@@QAGJPB_WI0@Z 1000a560 f i OposConstants.obj
 0001:00009640       ?ResourceRegisterSz@CRegObject@ATL@@QAGJPB_W00@Z 1000a640 f i OposConstants.obj
 0001:00009740       ?ResourceUnregister@CRegObject@ATL@@QAGJPB_WI0@Z 1000a740 f i OposConstants.obj
 0001:00009820       ?ResourceUnregisterSz@CRegObject@ATL@@QAGJPB_W00@Z 1000a820 f i OposConstants.obj
 0001:00009920       ?SetDWORDValue@CRegKey@ATL@@QAEJPB_WK@Z 1000a920 f i OposConstants.obj
 0001:000099a0       ?SetMultiStringValue@CRegKey@ATL@@QAEJPB_W0@Z 1000a9a0 f i OposConstants.obj
 0001:00009ac0       ?SetStringValue@CRegKey@ATL@@QAEJPB_W0K@Z 1000aac0 f i OposConstants.obj
 0001:00009bf0       ?SkipAssignment@CRegParser@ATL@@IAEJPA_W@Z 1000abf0 f i OposConstants.obj
 0001:00009cd0       ?SkipWhiteSpace@CRegParser@ATL@@IAEXXZ 1000acd0 f i OposConstants.obj
 0001:00009d20       ?StrChrW@CRegParser@ATL@@KAPA_WPA_W_W@Z 1000ad20 f i OposConstants.obj
 0001:00009d90       ?StrFromMap@CRegObject@ATL@@QAEPB_WPA_W@Z 1000ad90 f i OposConstants.obj
 0001:00009e20       ?T2COLE_EX@@YAPB_WPB_WI@Z  1000ae20 f i OposConstants.obj
 0001:00009e30       ?T2OLE_EX@@YAPA_WPA_WI@Z   1000ae30 f i OposConstants.obj
 0001:00009e40       ?Term@CAtlModule@ATL@@QAEXXZ 1000ae40 f i OposConstants.obj
 0001:00009ef0       ?Term@CComModule@ATL@@QAEXXZ 1000aef0 f i OposConstants.obj
 0001:00009fe0       ?Unlock@?$CComCritSecLock@VCComCriticalSection@ATL@@@ATL@@QAEXXZ 1000afe0 f i OposConstants.obj
 0001:0000a050       ?Unlock@CAtlModule@ATL@@UAEJXZ 1000b050 f i OposConstants.obj
 0001:0000a080       ?Unlock@CComCriticalSection@ATL@@QAEJXZ 1000b080 f i OposConstants.obj
 0001:0000a0c0       ?Unlock@CComFakeCriticalSection@ATL@@QAEJXZ 1000b0c0 f i OposConstants.obj
 0001:0000a0e0       ?UnregisterServer@?$CAtlModuleT@VCComModule@ATL@@@ATL@@QAEJHPBU_GUID@@@Z 1000b0e0 f i OposConstants.obj
 0001:0000a150       ?UnregisterServer@CAtlComModule@ATL@@QAEJHPBU_GUID@@@Z 1000b150 f i OposConstants.obj
 0001:0000a180       ?UnregisterServer@CComModule@ATL@@QAEJHPBU_GUID@@@Z 1000b180 f i OposConstants.obj
 0001:0000a260       ?UpdateRegistryFromResource@CAtlModule@ATL@@QAGJIHPAU_ATL_REGMAP_ENTRY@2@@Z 1000b260 f i OposConstants.obj
 0001:0000a730       ?UpdateRegistryFromResource@CAtlModule@ATL@@QAGJPB_WHPAU_ATL_REGMAP_ENTRY@2@@Z 1000b730 f i OposConstants.obj
 0001:0000ac20       ?UpdateRegistryFromResource@CComModule@ATL@@UAGJIHPAU_ATL_REGMAP_ENTRY@2@@Z 1000bc20 f i OposConstants.obj
 0001:0000ac50       ?UpdateRegistryFromResource@CComModule@ATL@@UAGJPB_WHPAU_ATL_REGMAP_ENTRY@2@@Z 1000bc50 f i OposConstants.obj
 0001:0000ac80       ?UpdateRegistryFromResourceD@CComModule@ATL@@UAGJIHPAU_ATL_REGMAP_ENTRY@2@@Z 1000bc80 f i OposConstants.obj
 0001:0000ac90       ?UpdateRegistryFromResourceD@CComModule@ATL@@UAGJPB_WHPAU_ATL_REGMAP_ENTRY@2@@Z 1000bc90 f i OposConstants.obj
 0001:0000aca0       ?VTFromRegType@CRegParser@ATL@@KAHPB_WAAG@Z 1000bca0 f i OposConstants.obj
 0001:0000ad80       ?_AtlGetConversionACP@ATL@@YGIXZ 1000bd80 f i OposConstants.obj
 0001:0000ad90       ?atlCreate@CRegKey@ATL@@QAEJPAUHKEY__@@PB_WPA_WKKPAU_SECURITY_ATTRIBUTES@@PAK@Z 1000bd90 f i OposConstants.obj
 0001:0000aef0       ?memcpy_s@Checked@ATL@@YAXPAXIPBXI@Z 1000bef0 f i OposConstants.obj
 0001:0000af20       ?ocscpy_s@@YA_NPA_WIPB_W@Z 1000bf20 f i OposConstants.obj
 0001:0000af80       ?ocslen@@YAHPB_W@Z         1000bf80 f i OposConstants.obj
 0001:0000afb0       ?tcsncpy_s@Checked@ATL@@YAHPA_WIPB_WI@Z 1000bfb0 f i OposConstants.obj
 0001:0000afe0       ?wcscat_s@Checked@ATL@@YAXPA_WIPB_W@Z 1000bfe0 f i OposConstants.obj
 0001:0000b010       ?wcscpy_s@Checked@ATL@@YAXPA_WIPB_W@Z 1000c010 f i OposConstants.obj
 0001:0000b040       ?wcsncpy_s@Checked@ATL@@YAHPA_WIPB_WI@Z 1000c040 f i OposConstants.obj
 0001:0000b070       ?wcsstr@@YAPA_WPA_WPB_W@Z  1000c070 f i OposConstants.obj
 0001:0000b090       _InlineIsEqualGUID         1000c090 f i OposConstants.obj
 0001:0000b130       _IsEqualGUID               1000c130 f i OposConstants.obj
 0001:0000b172       _DecodePointer@4           1000c172 f   kernel32:KERNEL32.dll
 0001:0000b178       _RaiseException@16         1000c178 f   kernel32:KERNEL32.dll
 0001:0000b17e       _GetLastError@0            1000c17e f   kernel32:KERNEL32.dll
 0001:0000b184       _SetLastError@4            1000c184 f   kernel32:KERNEL32.dll
 0001:0000b18a       _InitializeCriticalSectionEx@12 1000c18a f   kernel32:KERNEL32.dll
 0001:0000b190       _DeleteCriticalSection@4   1000c190 f   kernel32:KERNEL32.dll
 0001:0000b196       _EncodePointer@4           1000c196 f   kernel32:KERNEL32.dll
 0001:0000b19c       _EnterCriticalSection@4    1000c19c f   kernel32:KERNEL32.dll
 0001:0000b1a2       _LeaveCriticalSection@4    1000c1a2 f   kernel32:KERNEL32.dll
 0001:0000b1a8       _DisableThreadLibraryCalls@4 1000c1a8 f   kernel32:KERNEL32.dll
 0001:0000b1ae       _FreeLibrary@4             1000c1ae f   kernel32:KERNEL32.dll
 0001:0000b1b4       _GetModuleFileNameW@12     1000c1b4 f   kernel32:KERNEL32.dll
 0001:0000b1ba       _GetModuleHandleW@4        1000c1ba f   kernel32:KERNEL32.dll
 0001:0000b1c0       _GetProcAddress@8          1000c1c0 f   kernel32:KERNEL32.dll
 0001:0000b1c6       _LoadLibraryExW@12         1000c1c6 f   kernel32:KERNEL32.dll
 0001:0000b1cc       _LoadResource@8            1000c1cc f   kernel32:KERNEL32.dll
 0001:0000b1d2       _SizeofResource@8          1000c1d2 f   kernel32:KERNEL32.dll
 0001:0000b1d8       _FindResourceW@12          1000c1d8 f   kernel32:KERNEL32.dll
 0001:0000b1de       _lstrcmpiW@8               1000c1de f   kernel32:KERNEL32.dll
 0001:0000b1e4       _MultiByteToWideChar@24    1000c1e4 f   kernel32:KERNEL32.dll
 0001:0000b1ea       _UnregisterClassW@8        1000c1ea f   user32:USER32.dll
 0001:0000b1f0       _CharNextW@4               1000c1f0 f   user32:USER32.dll
 0001:0000b1f6       _RegCloseKey@4             1000c1f6 f   advapi32:ADVAPI32.dll
 0001:0000b1fc       _RegCreateKeyExW@36        1000c1fc f   advapi32:ADVAPI32.dll
 0001:0000b202       _RegDeleteKeyW@8           1000c202 f   advapi32:ADVAPI32.dll
 0001:0000b208       _RegDeleteValueW@8         1000c208 f   advapi32:ADVAPI32.dll
 0001:0000b20e       _RegEnumKeyExW@32          1000c20e f   advapi32:ADVAPI32.dll
 0001:0000b214       _RegOpenKeyExW@20          1000c214 f   advapi32:ADVAPI32.dll
 0001:0000b21a       _RegQueryInfoKeyW@48       1000c21a f   advapi32:ADVAPI32.dll
 0001:0000b220       _RegSetValueExW@24         1000c220 f   advapi32:ADVAPI32.dll
 0001:0000b226       _CoCreateInstance@20       1000c226 f   ole32:ole32.dll
 0001:0000b22c       _StringFromGUID2@12        1000c22c f   ole32:ole32.dll
 0001:0000b232       _CoTaskMemAlloc@4          1000c232 f   ole32:ole32.dll
 0001:0000b238       _CoTaskMemRealloc@8        1000c238 f   ole32:ole32.dll
 0001:0000b23e       _CoTaskMemFree@4           1000c23e f   ole32:ole32.dll
 0001:0000b244       _SysFreeString@4           1000c244 f   oleaut32:OLEAUT32.dll
 0001:0000b24a       _SysAllocString@4          1000c24a f   oleaut32:OLEAUT32.dll
 0001:0000b250       _SysStringLen@4            1000c250 f   oleaut32:OLEAUT32.dll
 0001:0000b256       _VarUI4FromStr@16          1000c256 f   oleaut32:OLEAUT32.dll
 0001:0000b25c       _LoadTypeLib@8             1000c25c f   oleaut32:OLEAUT32.dll
 0001:0000b262       _RegisterTypeLib@12        1000c262 f   oleaut32:OLEAUT32.dll
 0001:0000b268       _UnRegisterTypeLib@20      1000c268 f   oleaut32:OLEAUT32.dll
 0001:0000b26e       ??$?2PAUHINSTANCE__@@@Wrapper@?$CSimpleArray@PAUHINSTANCE__@@V?$CSimpleArrayEqualHelper@PAUHINSTANCE__@@@ATL@@@ATL@@SAPAXIPAPAUHINSTANCE__@@@Z 1000c26e f i atls:atlbase.obj
 0001:0000b276       ??0?$CSimpleArray@PAUHINSTANCE__@@V?$CSimpleArrayEqualHelper@PAUHINSTANCE__@@@ATL@@@ATL@@QAE@XZ 1000c276 f i atls:atlbase.obj
 0001:0000b283       ??0CAtlBaseModule@ATL@@QAE@XZ 1000c283 f   atls:atlbase.obj
 0001:0000b2d6       ??0Wrapper@?$CSimpleArray@PAUHINSTANCE__@@V?$CSimpleArrayEqualHelper@PAUHINSTANCE__@@@ATL@@@ATL@@QAE@ABQAUHINSTANCE__@@@Z 1000c2d6 f i atls:atlbase.obj
 0001:0000b2e6       ??0_ATL_BASE_MODULE70@ATL@@QAE@XZ 1000c2e6 f i atls:atlbase.obj
 0001:0000b309       ??1?$CSimpleArray@PAUHINSTANCE__@@V?$CSimpleArrayEqualHelper@PAUHINSTANCE__@@@ATL@@@ATL@@QAE@XZ 1000c309 f i atls:atlbase.obj
 0001:0000b30e       ??1CAtlBaseModule@ATL@@QAE@XZ 1000c30e f   atls:atlbase.obj
 0001:0000b324       ??1_ATL_BASE_MODULE70@ATL@@QAE@XZ 1000c324 f i atls:atlbase.obj
 0001:0000b32c       ??A?$CSimpleArray@PAUHINSTANCE__@@V?$CSimpleArrayEqualHelper@PAUHINSTANCE__@@@ATL@@@ATL@@QAEAAPAUHINSTANCE__@@H@Z 1000c32c f i atls:atlbase.obj
 0001:0000b351       ?Add@?$CSimpleArray@PAUHINSTANCE__@@V?$CSimpleArrayEqualHelper@PAUHINSTANCE__@@@ATL@@@ATL@@QAEHABQAUHINSTANCE__@@@Z 1000c351 f i atls:atlbase.obj
 0001:0000b3d3       ?AddResourceInstance@CAtlBaseModule@ATL@@QAE_NPAUHINSTANCE__@@@Z 1000c3d3 f   atls:atlbase.obj
 0001:0000b406       ?GetHInstanceAt@CAtlBaseModule@ATL@@QAEPAUHINSTANCE__@@H@Z 1000c406 f   atls:atlbase.obj
 0001:0000b44b       ?GetSize@?$CSimpleArray@PAUHINSTANCE__@@V?$CSimpleArrayEqualHelper@PAUHINSTANCE__@@@ATL@@@ATL@@QBEHXZ 1000c44b f i atls:atlbase.obj
 0001:0000b44f       ?InternalSetAtIndex@?$CSimpleArray@PAUHINSTANCE__@@V?$CSimpleArrayEqualHelper@PAUHINSTANCE__@@@ATL@@@ATL@@QAEXHABQAUHINSTANCE__@@@Z 1000c44f f i atls:atlbase.obj
 0001:0000b469       ?RemoveAll@?$CSimpleArray@PAUHINSTANCE__@@V?$CSimpleArrayEqualHelper@PAUHINSTANCE__@@@ATL@@@ATL@@QAEXXZ 1000c469 f i atls:atlbase.obj
 0001:0000b486       ?RemoveAt@?$CSimpleArray@PAUHINSTANCE__@@V?$CSimpleArrayEqualHelper@PAUHINSTANCE__@@@ATL@@@ATL@@QAEHH@Z 1000c486 f i atls:atlbase.obj
 0001:0000b4d4       ?RemoveResourceInstance@CAtlBaseModule@ATL@@QAE_NPAUHINSTANCE__@@@Z 1000c4d4 f   atls:atlbase.obj
 0001:0000b531       ?memmove_s@Checked@ATL@@YAXPAXIPBXI@Z 1000c531 f i atls:atlbase.obj
 0001:0000b5d0       ??3@YAXPAXI@Z              1000c5d0 f   LIBCMTD:delete_scalar_size.obj
 0001:0000b5f0       ??_V@YAXPAXI@Z             1000c5f0 f   LIBCMTD:delete_array_size.obj
 0001:0000b610       ?configure_argv@__scrt_narrow_argv_policy@@SAHXZ 1000c610 f i LIBCMTD:utility.obj
 0001:0000b6c0       ?initialize_environment@__scrt_narrow_environment_policy@@SAHXZ 1000c6c0 f i LIBCMTD:utility.obj
 0001:0000b740       _NtCurrentTeb              1000c740 f i LIBCMTD:utility.obj
 0001:0000b750       ___scrt_acquire_startup_lock 1000c750 f   LIBCMTD:utility.obj
 0001:0000b7a0       ___scrt_dllmain_after_initialize_c 1000c7a0 f   LIBCMTD:utility.obj
 0001:0000b7d0       ___scrt_dllmain_before_initialize_c 1000c7d0 f   LIBCMTD:utility.obj
 0001:0000b7f0       ___scrt_dllmain_crt_thread_attach 1000c7f0 f   LIBCMTD:utility.obj
 0001:0000b820       ___scrt_dllmain_crt_thread_detach 1000c820 f   LIBCMTD:utility.obj
 0001:0000b840       ___scrt_dllmain_exception_filter 1000c840 f   LIBCMTD:utility.obj
 0001:0000b890       ___scrt_dllmain_uninitialize_c 1000c890 f   LIBCMTD:utility.obj
 0001:0000b8c0       ___scrt_dllmain_uninitialize_critical 1000c8c0 f   LIBCMTD:utility.obj
 0001:0000b8e0       ___scrt_initialize_crt     1000c8e0 f   LIBCMTD:utility.obj
 0001:0000b930       ___scrt_initialize_onexit_tables 1000c930 f   LIBCMTD:utility.obj
 0001:0000ba10       ___scrt_is_nonwritable_in_current_image 1000ca10 f   LIBCMTD:utility.obj
 0001:0000bb40       ___scrt_release_startup_lock 1000cb40 f   LIBCMTD:utility.obj
 0001:0000bb70       ___scrt_uninitialize_crt   1000cb70 f   LIBCMTD:utility.obj
 0001:0000bbb0       __onexit                   1000cbb0 f   LIBCMTD:utility.obj
 0001:0000bc20       _at_quick_exit             1000cc20 f   LIBCMTD:utility.obj
 0001:0000bc60       _atexit                    1000cc60 f   LIBCMTD:utility.obj
 0001:0000bc90       @_RTC_AllocaHelper@12      1000cc90 f   LIBCMTD:stack.obj
 0001:0000bcd0       @_RTC_CheckStackVars2@12   1000ccd0 f   LIBCMTD:stack.obj
 0001:0000bdb0       @_RTC_CheckStackVars@8     1000cdb0 f   LIBCMTD:stack.obj
 0001:0000be10       __RTC_CheckEsp             1000ce10 f   LIBCMTD:stack.obj
 0001:0000be50       @__security_check_cookie@4 1000ce50 f   LIBCMTD:secchk.obj
 0001:0000be70       __CRT_RTC_INIT             1000ce70 f   LIBCMTD:init.obj
 0001:0000be80       __CRT_RTC_INITW            1000ce80 f   LIBCMTD:init.obj
 0001:0000be90       __RTC_InitBase             1000ce90 f   LIBCMTD:init.obj
 0001:0000bec0       __RTC_Shutdown             1000cec0 f   LIBCMTD:init.obj
 0001:0000bee0       ??3@YAXPAX@Z               1000cee0 f   LIBCMTD:delete_scalar.obj
 0001:0000bf00       ??_V@YAXPAX@Z              1000cf00 f   LIBCMTD:delete_array.obj
 0001:0000bf20       ___raise_securityfailure   1000cf20 f   LIBCMTD:gs_report.obj
 0001:0000bf50       ___report_gsfailure        1000cf50 f   LIBCMTD:gs_report.obj
 0001:0000c060       ___report_rangecheckfailure 1000d060 f   LIBCMTD:gs_report.obj
 0001:0000c070       ___report_securityfailure  1000d070 f   LIBCMTD:gs_report.obj
 0001:0000c150       ___report_securityfailureEx 1000d150 f   LIBCMTD:gs_report.obj
 0001:0000c280       ??_U@YAPAXIABUnothrow_t@std@@@Z 1000d280 f   LIBCMTD:new_array_nothrow.obj
 0001:0000c2a0       __alloca_probe             1000d2a0 f   LIBCMTD:chkstk.obj
 0001:0000c2a0       __chkstk                   1000d2a0 f   LIBCMTD:chkstk.obj
 0001:0000c7a0       __CRT_INIT@12              1000d7a0 f   LIBCMTD:dll_dllmain.obj
 0001:0000c7c0       __DllMainCRTStartup@12     1000d7c0 f   LIBCMTD:dll_dllmain.obj
 0001:0000c7f0       @_guard_check_icall_nop@4  1000d7f0 f i LIBCMTD:guard_support.obj
 0001:0000c800       _ReadNoFence               1000d800 f i LIBCMTD:guard_support.obj
 0001:0000c820       _ReadPointerNoFence        1000d820 f i LIBCMTD:guard_support.obj
 0001:0000c840       __guard_icall_checks_enforced 1000d840 f i LIBCMTD:guard_support.obj
 0001:0000c870       ___isa_available_init      1000d870 f   LIBCMTD:cpu_disp.obj
 0001:0000cbb0       __get_startup_argv_mode    1000dbb0 f   LIBCMTD:argv_mode.obj
 0001:0000cbc0       ___scrt_is_ucrt_dll_in_use 1000dbc0 f   LIBCMTD:ucrt_detection.obj
 0001:0000cbf0       ___scrt_fastfail           1000dbf0 f   LIBCMTD:utility_desktop.obj
 0001:0000cd30       ___scrt_get_show_window_mode 1000dd30 f   LIBCMTD:utility_desktop.obj
 0001:0000cd70       ___scrt_initialize_mta     1000dd70 f   LIBCMTD:utility_desktop.obj
 0001:0000cd80       ___scrt_initialize_winrt   1000dd80 f   LIBCMTD:utility_desktop.obj
 0001:0000cd90       ___scrt_is_managed_app     1000dd90 f   LIBCMTD:utility_desktop.obj
 0001:0000ce20       ___scrt_set_unhandled_exception_filter 1000de20 f   LIBCMTD:utility_desktop.obj
 0001:0000ce30       ___scrt_exe_initialize_mta 1000de30 f   LIBCMTD:utility_desktop.obj
 0001:0000ce30       ___scrt_stub_for_initialize_mta 1000de30 f   LIBCMTD:utility_desktop.obj
 0001:0000ce40       ___scrt_unhandled_exception_filter@4 1000de40 f   LIBCMTD:utility_desktop.obj
 0001:0000cec0       __crt_debugger_hook        1000dec0 f   LIBCMTD:utility_desktop.obj
 0001:0000cf60       ?_RTC_AllocaFailure@@YAXPAXPAU_RTC_ALLOCA_NODE@@H@Z 1000df60 f   LIBCMTD:error.obj
 0001:0000d050       ?_RTC_Failure@@YAXPAXH@Z   1000e050 f   LIBCMTD:error.obj
 0001:0000d0a0       ?_RTC_StackFailure@@YAXPAXPBD@Z 1000e0a0 f   LIBCMTD:error.obj
 0001:0000d460       __RTC_UninitUse            1000e460 f   LIBCMTD:error.obj
 0001:0000d510       __vsprintf_s_l             1000e510 f i LIBCMTD:error.obj
 0001:0000d540       _sprintf_s                 1000e540 f i LIBCMTD:error.obj
 0001:0000d560       ?_RTC_GetErrorFunc@@YAP6AHHPBDH00ZZPBX@Z 1000e560 f   LIBCMTD:userapi.obj
 0001:0000d570       ?_RTC_GetErrorFuncW@@YAP6AHHPB_WH00ZZPBX@Z 1000e570 f   LIBCMTD:userapi.obj
 0001:0000d580       __RTC_GetErrDesc           1000e580 f   LIBCMTD:userapi.obj
 0001:0000d5a0       __RTC_NumErrors            1000e5a0 f   LIBCMTD:userapi.obj
 0001:0000d5b0       __RTC_SetErrorFunc         1000e5b0 f   LIBCMTD:userapi.obj
 0001:0000d5d0       __RTC_SetErrorFuncW        1000e5d0 f   LIBCMTD:userapi.obj
 0001:0000d5f0       __RTC_SetErrorType         1000e5f0 f   LIBCMTD:userapi.obj
 0001:0000d620       ??2@YAPAXIABUnothrow_t@std@@@Z 1000e620 f   LIBCMTD:new_scalar_nothrow.obj
 0001:0000d710       ___security_init_cookie    1000e710 f   LIBCMTD:gs_support.obj
 0001:0000d790       ?__scrt_initialize_type_info@@YAXXZ 1000e790 f   LIBCMTD:tncleanup.obj
 0001:0000d7a0       ?__scrt_uninitialize_type_info@@YAXXZ 1000e7a0 f   LIBCMTD:tncleanup.obj
 0001:0000d7c0       ___local_stdio_scanf_options 1000e7c0 f i LIBCMTD:default_local_stdio_options.obj
 0001:0000d7d0       ___scrt_initialize_default_local_stdio_options 1000e7d0 f   LIBCMTD:default_local_stdio_options.obj
 0001:0000d810       ___scrt_get_dyn_tls_init_callback 1000e810 f   LIBCMTD:dyn_tls_init.obj
 0001:0000d820       __RTC_Initialize           1000e820 f   LIBCMTD:initsect.obj
 0001:0000d850       __RTC_Terminate            1000e850 f   LIBCMTD:initsect.obj
 0001:0000dd00       ?_RTC_GetSrcLine@@YAHPAEPA_WKPAH1K@Z 1000ed00 f   LIBCMTD:pdblkup.obj
 0001:0000e080       __except_handler4_noexcept 1000f080 f   LIBCMTD:chandler4_noexcept.obj
 0001:0000e0e0       ??2@YAPAXI@Z               1000f0e0 f   LIBCMTD:new_scalar.obj
 0001:0000e130       ??0bad_alloc@std@@AAE@QBD@Z 1000f130 f i LIBCMTD:throw_bad_alloc.obj
 0001:0000e160       ??0bad_alloc@std@@QAE@ABV01@@Z 1000f160 f i LIBCMTD:throw_bad_alloc.obj
 0001:0000e190       ??0bad_alloc@std@@QAE@XZ   1000f190 f i LIBCMTD:throw_bad_alloc.obj
 0001:0000e1c0       ??0bad_array_new_length@std@@QAE@ABV01@@Z 1000f1c0 f i LIBCMTD:throw_bad_alloc.obj
 0001:0000e1f0       ??0bad_array_new_length@std@@QAE@XZ 1000f1f0 f i LIBCMTD:throw_bad_alloc.obj
 0001:0000e220       ??0exception@std@@QAE@ABV01@@Z 1000f220 f i LIBCMTD:throw_bad_alloc.obj
 0001:0000e260       ??0exception@std@@QAE@QBDH@Z 1000f260 f i LIBCMTD:throw_bad_alloc.obj
 0001:0000e290       ??1bad_alloc@std@@UAE@XZ   1000f290 f i LIBCMTD:throw_bad_alloc.obj
 0001:0000e2b0       ??1bad_array_new_length@std@@UAE@XZ 1000f2b0 f i LIBCMTD:throw_bad_alloc.obj
 0001:0000e2d0       ??1exception@std@@UAE@XZ   1000f2d0 f i LIBCMTD:throw_bad_alloc.obj
 0001:0000e300       ??_Ebad_alloc@std@@UAEPAXI@Z 1000f300 f i LIBCMTD:throw_bad_alloc.obj
 0001:0000e300       ??_Gbad_alloc@std@@UAEPAXI@Z 1000f300 f i LIBCMTD:throw_bad_alloc.obj
 0001:0000e330       ??_Ebad_array_new_length@std@@UAEPAXI@Z 1000f330 f i LIBCMTD:throw_bad_alloc.obj
 0001:0000e330       ??_Gbad_array_new_length@std@@UAEPAXI@Z 1000f330 f i LIBCMTD:throw_bad_alloc.obj
 0001:0000e360       ??_Gexception@std@@UAEPAXI@Z 1000f360 f i LIBCMTD:throw_bad_alloc.obj
 0001:0000e360       ??_Eexception@std@@UAEPAXI@Z 1000f360 f i LIBCMTD:throw_bad_alloc.obj
 0001:0000e390       ?__scrt_throw_std_bad_alloc@@YAXXZ 1000f390 f   LIBCMTD:throw_bad_alloc.obj
 0001:0000e3b0       ?__scrt_throw_std_bad_array_new_length@@YAXXZ 1000f3b0 f   LIBCMTD:throw_bad_alloc.obj
 0001:0000e3d0       ?what@exception@std@@UBEPBDXZ 1000f3d0 f i LIBCMTD:throw_bad_alloc.obj
 0001:0000e400       ??1type_info@@UAE@XZ       1000f400 f   LIBCMTD:std_type_info_static.obj
 0001:0000e420       ??_Etype_info@@UAEPAXI@Z   1000f420 f i LIBCMTD:std_type_info_static.obj
 0001:0000e420       ??_Gtype_info@@UAEPAXI@Z   1000f420 f i LIBCMTD:std_type_info_static.obj
 0001:0000e450       _memset                    1000f450 f   libvcruntimed:memset.obj
 0001:0000e760       _memcmp                    1000f760 f   libvcruntimed:memcmp.obj
 0001:0000f030       _memcpy                    10010030 f   libvcruntimed:memcpy.obj
 0001:0000f5b0       _wcsstr                    100105b0 f   libvcruntimed:wcsstr.obj
 0001:0000fa80       _memmove                   10010a80 f   libvcruntimed:memmove.obj
 0001:00010000       ___vcrt_initialize         10011000 f   libvcruntimed:initialization.obj
 0001:00010040       ___vcrt_thread_attach      10011040 f   libvcruntimed:initialization.obj
 0001:00010060       ___vcrt_thread_detach      10011060 f   libvcruntimed:initialization.obj
 0001:00010080       ___vcrt_uninitialize       10011080 f   libvcruntimed:initialization.obj
 0001:000100a0       ___vcrt_uninitialize_critical 100110a0 f   libvcruntimed:initialization.obj
 0001:00010120       __except_handler4          10011120 f   libvcruntimed:chandler4.obj
 0001:00010310       ___DestructExceptionObject 10011310 f   libvcruntimed:ehhelpers.obj
 0001:00010430       ?_CallMemberFunction0@@YGXQAX0@Z 10011430 f i libvcruntimed:ehhelpers.obj
 0001:000104d0       ?raw_name@type_info@@QBEPBDXZ 100114d0 f i libvcruntimed:ehhelpers.obj
 0001:000104f0       __IsExceptionObjectToBeDestroyed 100114f0 f   libvcruntimed:ehhelpers.obj
 0001:00010530       __SetWinRTOutOfMemoryExceptionCallback 10011530 f   libvcruntimed:ehhelpers.obj
 0001:00010540       ___AdjustPointer           10011540 f   libvcruntimed:ehhelpers.obj
 0001:00010590       ___FrameUnwindFilter       10011590 f   libvcruntimed:ehhelpers.obj
 0001:00010620       ___GetPlatformExceptionInfo 10011620 f   libvcruntimed:ehhelpers.obj
 0001:000106a0       ___current_exception       100116a0 f   libvcruntimed:ehhelpers.obj
 0001:000106b0       ___current_exception_context 100116b0 f   libvcruntimed:ehhelpers.obj
 0001:000106c0       ___processing_throw        100116c0 f   libvcruntimed:ehhelpers.obj
 0001:000106d0       ___std_terminate           100116d0 f   libvcruntimed:ehhelpers.obj
 0001:000106e0       __is_exception_typeof      100116e0 f   libvcruntimed:ehhelpers.obj
 0001:000107c0       ??$?0AAViterator@TryBlockMap@__FrameHandler3@@AAV012@$0A@@?$pair@Viterator@TryBlockMap@__FrameHandler3@@V123@@std@@QAE@AAViterator@TryBlockMap@__FrameHandler3@@0@Z 100117c0 f i libvcruntimed:trnsctrl.obj
 0001:00010810       ??$forward@AAViterator@TryBlockMap@__FrameHandler3@@@std@@YAAAViterator@TryBlockMap@__FrameHandler3@@AAV123@@Z 10011810 f i libvcruntimed:trnsctrl.obj
 0001:00010820       ??0iterator@TryBlockMap@__FrameHandler3@@QAE@AAV12@I@Z 10011820 f i libvcruntimed:trnsctrl.obj
 0001:00010850       ?GetRangeOfTrysToCheck@__FrameHandler3@@SA?AU?$pair@Viterator@TryBlockMap@__FrameHandler3@@V123@@std@@AAVTryBlockMap@1@HPAXPBU_s_FuncInfo@@H@Z 10011850 f   libvcruntimed:trnsctrl.obj
 0001:00010930       ?_CallCatchBlock2@@YAPAXPAUEHRegistrationNode@@PBU_s_FuncInfo@@PAXHK@Z 10011930 f   libvcruntimed:trnsctrl.obj
 0001:000109a0       ?_CallSETranslator@@YAHPAUEHExceptionRecord@@PAUEHRegistrationNode@@PAX2PBU_s_FuncInfo@@H1@Z 100119a0 f   libvcruntimed:trnsctrl.obj
 0001:00010aa0       ?_JumpToContinuation@@YGXPAXPAUEHRegistrationNode@@@Z 10011aa0 f   libvcruntimed:trnsctrl.obj
 0001:00010ae0       ?_UnwindNestedFrames@@YGXPAUEHRegistrationNode@@PAUEHExceptionRecord@@@Z 10011ae0 f   libvcruntimed:trnsctrl.obj
 0001:00010b40       __CatchGuardHandler        10011b40 f   libvcruntimed:trnsctrl.obj
 0001:00010b90       __CreateFrameInfo          10011b90 f   libvcruntimed:trnsctrl.obj
 0001:00010bc0       __FindAndUnlinkFrame       10011bc0 f   libvcruntimed:trnsctrl.obj
 0001:00010c30       __TranslatorGuardHandler   10011c30 f   libvcruntimed:trnsctrl.obj
 0001:00010ce0       ___CxxFrameHandler         10011ce0 f   libvcruntimed:trnsctrl.obj
 0001:00010d20       ___CxxFrameHandler2        10011d20 f   libvcruntimed:trnsctrl.obj
 0001:00010d60       ___CxxFrameHandler3        10011d60 f   libvcruntimed:trnsctrl.obj
 0001:00010da0       ___CxxLongjmpUnwind@4      10011da0 f   libvcruntimed:trnsctrl.obj
 0001:00010e00       ??$?RD@__crt_internal_free_policy@@QBEXQBD@Z 10011e00 f i libvcruntimed:std_type_info.obj
 0001:00010e20       ??$?RX@__crt_internal_free_policy@@QBEXQBX@Z 10011e20 f i libvcruntimed:std_type_info.obj
 0001:00010e40       ??$__crt_interlocked_compare_exchange_pointer@$$CBDPAD$$T@@YAPBDPDSBDQAD$$T@Z 10011e40 f i libvcruntimed:std_type_info.obj
 0001:00010e60       ??$__crt_interlocked_read_pointer@$$CBD@@YAPBDPDSBD@Z 10011e60 f i libvcruntimed:std_type_info.obj
 0001:00010e80       ??0?$__crt_unique_heap_ptr@DU__crt_internal_free_policy@@@@QAE@QAD@Z 10011e80 f i libvcruntimed:std_type_info.obj
 0001:00010ea0       ??0?$__crt_unique_heap_ptr@XU__crt_internal_free_policy@@@@QAE@QAX@Z 10011ea0 f i libvcruntimed:std_type_info.obj
 0001:00010ec0       ??1?$__crt_unique_heap_ptr@DU__crt_internal_free_policy@@@@QAE@XZ 10011ec0 f i libvcruntimed:std_type_info.obj
 0001:00010ee0       ??1?$__crt_unique_heap_ptr@XU__crt_internal_free_policy@@@@QAE@XZ 10011ee0 f i libvcruntimed:std_type_info.obj
 0001:00010f00       ??B?$__crt_unique_heap_ptr@DU__crt_internal_free_policy@@@@QBE_NXZ 10011f00 f i libvcruntimed:std_type_info.obj
 0001:00010f20       ??B?$__crt_unique_heap_ptr@XU__crt_internal_free_policy@@@@QBE_NXZ 10011f20 f i libvcruntimed:std_type_info.obj
 0001:00010fb0       ?__crt_interlocked_read_32@@YAHPDH@Z 10011fb0 f i libvcruntimed:std_type_info.obj
 0001:00010fd0       ?detach@?$__crt_unique_heap_ptr@XU__crt_internal_free_policy@@@@QAEPAXXZ 10011fd0 f i libvcruntimed:std_type_info.obj
 0001:00011000       ?get@?$__crt_unique_heap_ptr@DU__crt_internal_free_policy@@@@QBEPADXZ 10012000 f i libvcruntimed:std_type_info.obj
 0001:00011010       ?get@?$__crt_unique_heap_ptr@XU__crt_internal_free_policy@@@@QBEPAXXZ 10012010 f i libvcruntimed:std_type_info.obj
 0001:00011020       ?is_valid@?$__crt_unique_heap_ptr@DU__crt_internal_free_policy@@@@QBE_NXZ 10012020 f i libvcruntimed:std_type_info.obj
 0001:00011050       ?is_valid@?$__crt_unique_heap_ptr@XU__crt_internal_free_policy@@@@QBE_NXZ 10012050 f i libvcruntimed:std_type_info.obj
 0001:00011080       ?release@?$__crt_unique_heap_ptr@DU__crt_internal_free_policy@@@@QAEXXZ 10012080 f i libvcruntimed:std_type_info.obj
 0001:000110b0       ?release@?$__crt_unique_heap_ptr@XU__crt_internal_free_policy@@@@QAEXXZ 100120b0 f i libvcruntimed:std_type_info.obj
 0001:000110e0       ___std_type_info_compare   100120e0 f   libvcruntimed:std_type_info.obj
 0001:00011110       ___std_type_info_destroy_list 10012110 f   libvcruntimed:std_type_info.obj
 0001:00011150       ___std_type_info_hash      10012150 f   libvcruntimed:std_type_info.obj
 0001:000111b0       ___std_type_info_name      100121b0 f   libvcruntimed:std_type_info.obj
 0001:00011390       ___vcrt_GetModuleFileNameW 10012390 f   libvcruntimed:winapi_thunks.obj
 0001:000113b0       ___vcrt_GetModuleHandleW   100123b0 f   libvcruntimed:winapi_thunks.obj
 0001:000113c0       ___vcrt_LoadLibraryExW     100123c0 f   libvcruntimed:winapi_thunks.obj
 0001:000113e0       ??$?RD@__crt_public_free_policy@@QBEXQBD@Z 100123e0 f i libvcruntimed:std_exception.obj
 0001:00011400       ??0?$__crt_unique_heap_ptr@DU__crt_public_free_policy@@@@QAE@QAD@Z 10012400 f i libvcruntimed:std_exception.obj
 0001:00011420       ??1?$__crt_unique_heap_ptr@DU__crt_public_free_policy@@@@QAE@XZ 10012420 f i libvcruntimed:std_exception.obj
 0001:00011440       ??B?$__crt_unique_heap_ptr@DU__crt_public_free_policy@@@@QBE_NXZ 10012440 f i libvcruntimed:std_exception.obj
 0001:00011460       ?detach@?$__crt_unique_heap_ptr@DU__crt_public_free_policy@@@@QAEPADXZ 10012460 f i libvcruntimed:std_exception.obj
 0001:00011490       ?get@?$__crt_unique_heap_ptr@DU__crt_public_free_policy@@@@QBEPADXZ 10012490 f i libvcruntimed:std_exception.obj
 0001:000114a0       ?is_valid@?$__crt_unique_heap_ptr@DU__crt_public_free_policy@@@@QBE_NXZ 100124a0 f i libvcruntimed:std_exception.obj
 0001:000114d0       ?release@?$__crt_unique_heap_ptr@DU__crt_public_free_policy@@@@QAEXXZ 100124d0 f i libvcruntimed:std_exception.obj
 0001:00011500       ___std_exception_copy      10012500 f   libvcruntimed:std_exception.obj
 0001:000115f0       ___std_exception_destroy   100125f0 f   libvcruntimed:std_exception.obj
 0001:00011620       __CxxThrowException@8      10012620 f   libvcruntimed:throw.obj
 0001:000116d0       ??$?RU__vcrt_ptd@@@__crt_internal_free_policy@@QBEXQBU__vcrt_ptd@@@Z 100126d0 f i libvcruntimed:per_thread_data.obj
 0001:000116f0       ??0?$__crt_unique_heap_ptr@U__vcrt_ptd@@U__crt_internal_free_policy@@@@QAE@QAU__vcrt_ptd@@@Z 100126f0 f i libvcruntimed:per_thread_data.obj
 0001:00011730       ??1?$__crt_unique_heap_ptr@U__vcrt_ptd@@U__crt_internal_free_policy@@@@QAE@XZ 10012730 f i libvcruntimed:per_thread_data.obj
 0001:00011770       ??B?$__crt_unique_heap_ptr@U__vcrt_ptd@@U__crt_internal_free_policy@@@@QBE_NXZ 10012770 f i libvcruntimed:per_thread_data.obj
 0001:00011790       ?detach@?$__crt_unique_heap_ptr@U__vcrt_ptd@@U__crt_internal_free_policy@@@@QAEPAU__vcrt_ptd@@XZ 10012790 f i libvcruntimed:per_thread_data.obj
 0001:000117c0       ?get@?$__crt_unique_heap_ptr@U__vcrt_ptd@@U__crt_internal_free_policy@@@@QBEPAU__vcrt_ptd@@XZ 100127c0 f i libvcruntimed:per_thread_data.obj
 0001:000117d0       ?is_valid@?$__crt_unique_heap_ptr@U__vcrt_ptd@@U__crt_internal_free_policy@@@@QBE_NXZ 100127d0 f i libvcruntimed:per_thread_data.obj
 0001:00011800       ?release@?$__crt_unique_heap_ptr@U__vcrt_ptd@@U__crt_internal_free_policy@@@@QAEXXZ 10012800 f i libvcruntimed:per_thread_data.obj
 0001:00011860       ___vcrt_freefls@4          10012860 f   libvcruntimed:per_thread_data.obj
 0001:00011890       ___vcrt_freeptd            10012890 f   libvcruntimed:per_thread_data.obj
 0001:000118f0       ___vcrt_getptd             100128f0 f   libvcruntimed:per_thread_data.obj
 0001:00011910       ___vcrt_getptd_noexit      10012910 f   libvcruntimed:per_thread_data.obj
 0001:00011a70       ___vcrt_getptd_noinit      10012a70 f   libvcruntimed:per_thread_data.obj
 0001:00011ad0       ___vcrt_initialize_ptd     10012ad0 f   libvcruntimed:per_thread_data.obj
 0001:00011b20       ___vcrt_uninitialize_ptd   10012b20 f   libvcruntimed:per_thread_data.obj
 0001:00011b50       ___vcrt_initialize_locks   10012b50 f   libvcruntimed:locks.obj
 0001:00011bb0       ___vcrt_lock               10012bb0 f   libvcruntimed:locks.obj
 0001:00011bd0       ___vcrt_uninitialize_locks 10012bd0 f   libvcruntimed:locks.obj
 0001:00011c20       ___vcrt_unlock             10012c20 f   libvcruntimed:locks.obj
 0001:00011c40       __local_unwind4            10012c40 f   libvcruntimed:exsup4.obj
 0001:00011d18       __seh_longjmp_unwind4@4    10012d18 f   libvcruntimed:exsup4.obj
 0001:00011d40       @_EH4_CallFilterFunc@8     10012d40 f   libvcruntimed:exsup4.obj
 0001:00011d58       @_EH4_TransferToHandler@8  10012d58 f   libvcruntimed:exsup4.obj
 0001:00011d74       @_EH4_GlobalUnwind2@8      10012d74 f   libvcruntimed:exsup4.obj
 0001:00011d90       @_EH4_LocalUnwind@16       10012d90 f   libvcruntimed:exsup4.obj
 0001:00011dc0       ___except_validate_context_record 10012dc0 f   libvcruntimed:jbcxrval.obj
 0001:00011e10       ___except_validate_jump_buffer 10012e10 f   libvcruntimed:jbcxrval.obj
 0001:00011e30       ___except_validate_jump_buffer_common 10012e30 f i libvcruntimed:jbcxrval.obj
 0001:00012a00       ??$TypeMatchHelper@V__FrameHandler3@@@@YAHPBU_s_HandlerType@@PBU_s_CatchableType@@PBU_s_ThrowInfo@@@Z 10013a00 f i libvcruntimed:frame.obj
 0001:00012ae0       ??$__InternalCxxFrameHandler@V__FrameHandler3@@@@YA?AW4_EXCEPTION_DISPOSITION@@PAUEHExceptionRecord@@PAUEHRegistrationNode@@PAU_CONTEXT@@PAXPBU_s_FuncInfo@@H1E@Z 10013ae0 f i libvcruntimed:frame.obj
 0001:00012ca0       ??0HandlerMap@__FrameHandler3@@QAE@PBU_s_TryBlockMapEntry@@II@Z 10013ca0 f i libvcruntimed:frame.obj
 0001:00012cd0       ??0TryBlockMap@__FrameHandler3@@QAE@PBU_s_FuncInfo@@I@Z 10013cd0 f i libvcruntimed:frame.obj
 0001:00012d00       ??0bad_exception@std@@QAE@ABV01@@Z 10013d00 f i libvcruntimed:frame.obj
 0001:00012d30       ??0bad_exception@std@@QAE@XZ 10013d30 f i libvcruntimed:frame.obj
 0001:00012d60       ??0iterator@HandlerMap@__FrameHandler3@@QAE@AAV12@I@Z 10013d60 f i libvcruntimed:frame.obj
 0001:00012d90       ??1bad_exception@std@@UAE@XZ 10013d90 f i libvcruntimed:frame.obj
 0001:00012db0       ??8iterator@HandlerMap@__FrameHandler3@@QBE_NABV012@@Z 10013db0 f i libvcruntimed:frame.obj
 0001:00012de0       ??8type_info@@QBE_NABV0@@Z 10013de0 f i libvcruntimed:frame.obj
 0001:00012e20       ??9iterator@HandlerMap@__FrameHandler3@@QBE_NABV012@@Z 10013e20 f i libvcruntimed:frame.obj
 0001:00012e60       ??Diterator@HandlerMap@__FrameHandler3@@QAE?BU_s_HandlerType@@XZ 10013e60 f i libvcruntimed:frame.obj
 0001:00012ea0       ??Diterator@TryBlockMap@__FrameHandler3@@QAE?BU_s_TryBlockMapEntry@@XZ 10013ea0 f i libvcruntimed:frame.obj
 0001:00012ef0       ??Eiterator@HandlerMap@__FrameHandler3@@QAEAAV012@XZ 10013ef0 f i libvcruntimed:frame.obj
 0001:00012f10       ??Eiterator@TryBlockMap@__FrameHandler3@@QAEAAV012@XZ 10013f10 f i libvcruntimed:frame.obj
 0001:00012f30       ??Miterator@TryBlockMap@__FrameHandler3@@QBE_NABV012@@Z 10013f30 f i libvcruntimed:frame.obj
 0001:00012f60       ??_Gbad_exception@std@@UAEPAXI@Z 10013f60 f i libvcruntimed:frame.obj
 0001:00012f60       ??_Ebad_exception@std@@UAEPAXI@Z 10013f60 f i libvcruntimed:frame.obj
 0001:00012f90       ?BuildCatchObject@__FrameHandler3@@SAXPAUEHExceptionRecord@@PAXPBU_s_HandlerType@@PBU_s_CatchableType@@@Z 10013f90 f   libvcruntimed:frame.obj
 0001:00012fb0       ?BuildCatchObjectHelper@__FrameHandler3@@SAHPAUEHExceptionRecord@@PAXPBU_s_HandlerType@@PBU_s_CatchableType@@@Z 10013fb0 f   libvcruntimed:frame.obj
 0001:00013350       ?FrameUnwindToEmptyState@__FrameHandler3@@SAXPAUEHRegistrationNode@@PAXPBU_s_FuncInfo@@@Z 10014350 f   libvcruntimed:frame.obj
 0001:00013370       ?FrameUnwindToState@__FrameHandler3@@SAXPAUEHRegistrationNode@@PAXPBU_s_FuncInfo@@H@Z 10014370 f   libvcruntimed:frame.obj
 0001:000134f0       ?GetMaxState@__FrameHandler3@@SAHPAXPBU_s_FuncInfo@@@Z 100144f0 f i libvcruntimed:frame.obj
 0001:00013610       ?TypeMatch@__FrameHandler3@@SAHPBU_s_HandlerType@@PBU_s_CatchableType@@PBU_s_ThrowInfo@@@Z 10014610 f   libvcruntimed:frame.obj
 0001:00013630       ?_CallMemberFunction1@@YGXQAX00@Z 10014630 f i libvcruntimed:frame.obj
 0001:00013660       ?_CallMemberFunction2@@YGXQAX00H@Z 10014660 f i libvcruntimed:frame.obj
 0001:00013690       ?begin@HandlerMap@__FrameHandler3@@QAE?AViterator@12@XZ 10014690 f i libvcruntimed:frame.obj
 0001:000136b0       ?end@HandlerMap@__FrameHandler3@@QAE?AViterator@12@XZ 100146b0 f i libvcruntimed:frame.obj
 0001:000136e0       ?getESTypes@__FrameHandler3@@SAPBU_s_ESTypeList@@PBU_s_FuncInfo@@@Z 100146e0 f i libvcruntimed:frame.obj
 0001:000136f0       ?getLastEntry@HandlerMap@__FrameHandler3@@QAEPBU_s_HandlerType@@XZ 100146f0 f i libvcruntimed:frame.obj
 0001:00013710       ?getMagicNum@__FrameHandler3@@SAIPBU_s_FuncInfo@@@Z 10014710 f i libvcruntimed:frame.obj
 0001:00013720       ?getNumTryBlocks@TryBlockMap@__FrameHandler3@@QAEIXZ 10014720 f i libvcruntimed:frame.obj
 0001:00013740       ?isEHs@__FrameHandler3@@SA_NPBU_s_FuncInfo@@@Z 10014740 f i libvcruntimed:frame.obj
 0001:00013770       ?isNoExcept@__FrameHandler3@@SA_NPBU_s_FuncInfo@@@Z 10014770 f i libvcruntimed:frame.obj
 0001:000137a0       ___BuildCatchObject        100147a0 f   libvcruntimed:frame.obj
 0001:000137c0       ___BuildCatchObjectHelper  100147c0 f   libvcruntimed:frame.obj
 0001:000137e0       ___TypeMatch               100147e0 f   libvcruntimed:frame.obj
 0001:00013800       ___vcrt_EncodePointer      10014800 f i libvcruntimed:frame.obj
 0001:00013810       __CallSettingFrame@12      10014810 f   libvcruntimed:lowhelpr.obj
 0001:00013837       __NLG_Return               10014837     libvcruntimed:lowhelpr.obj
 0001:00013860       ??$?0$00@DName@@QAE@PBDU?$StringLifeSelector@$00@@@Z 10014860 f i libvcruntimed:undname.obj
 0001:000138b0       ??$?0$00@pcharNode@@QAE@PBDHU?$StringLifeSelector@$00@@@Z 100148b0 f i libvcruntimed:undname.obj
 0001:000138f0       ??$?0$01@DName@@QAE@PBDU?$StringLifeSelector@$01@@@Z 100148f0 f i libvcruntimed:undname.obj
 0001:00013940       ??$?0$01@pcharNode@@QAE@PBDHU?$StringLifeSelector@$01@@@Z 10014940 f i libvcruntimed:undname.obj
 0001:000139c0       ??$?0$0A@@DName@@QAE@PBDU?$StringLifeSelector@$0A@@@@Z 100149c0 f i libvcruntimed:undname.obj
 0001:00013a10       ??$?0$0A@@pcharNode@@QAE@PBDHU?$StringLifeSelector@$0A@@@@Z 10014a10 f i libvcruntimed:undname.obj
 0001:00013a90       ??$?0_K$0A@@?$optional@_K@std@@QAE@$$QA_K@Z 10014a90 f i libvcruntimed:undname.obj
 0001:00013ad0       ??$?0_K@?$_Optional_construct_base@_K@std@@QAE@Uin_place_t@1@$$QA_K@Z 10014ad0 f i libvcruntimed:undname.obj
 0001:00013b00       ??$?0_K@?$_Optional_destruct_base@_K$00@std@@QAE@Uin_place_t@1@$$QA_K@Z 10014b00 f i libvcruntimed:undname.obj
 0001:00013b30       ??$append@VDNameNode@@@DName@@AAEXPBVDNameNode@@@Z 10014b30 f i libvcruntimed:undname.obj
 0001:00013bc0       ??$append@VDNameStatusNode@@@DName@@AAEXPBVDNameStatusNode@@@Z 10014bc0 f i libvcruntimed:undname.obj
 0001:00013c50       ??$append@VcharNode@@@DName@@AAEXPBVcharNode@@@Z 10014c50 f i libvcruntimed:undname.obj
 0001:00013ce0       ??$append@VpDNameNode@@@DName@@AAEXPBVpDNameNode@@@Z 10014ce0 f i libvcruntimed:undname.obj
 0001:00013d70       ??$append@VpcharNode@@@DName@@AAEXPBVpcharNode@@@Z 10014d70 f i libvcruntimed:undname.obj
 0001:00013e00       ??$doPchar@$00@DName@@AAEXPBDH@Z 10014e00 f i libvcruntimed:undname.obj
 0001:00013f10       ??$doPchar@$01@DName@@AAEXPBDH@Z 10014f10 f i libvcruntimed:undname.obj
 0001:00014020       ??$doPchar@$0A@@DName@@AAEXPBDH@Z 10015020 f i libvcruntimed:undname.obj
 0001:00014130       ??$forward@_K@std@@YA$$QA_KAA_K@Z 10015130 f i libvcruntimed:undname.obj
 0001:00014140       ??$size@D$04@std@@YAIAAY04$$CBD@Z 10015140 f i libvcruntimed:undname.obj
 0001:00014150       ??$size@D$0EB@@std@@YAIAAY0EB@$$CBD@Z 10015150 f i libvcruntimed:undname.obj
 0001:00014160       ??0?$_Optional_construct_base@_K@std@@QAE@XZ 10015160 f i libvcruntimed:undname.obj
 0001:00014180       ??0?$_Optional_destruct_base@_K$00@std@@QAE@XZ 10015180 f i libvcruntimed:undname.obj
 0001:000141a0       ??0?$optional@_K@std@@QAE@XZ 100151a0 f i libvcruntimed:undname.obj
 0001:000141d0       ??0Block@_HeapManager@@QAE@XZ 100151d0 f i libvcruntimed:undname.obj
 0001:000141f0       ??0DName@@QAE@AAPBDD@Z     100151f0 f   libvcruntimed:undname.obj
 0001:00014360       ??0DName@@QAE@ABUStringLiteral@@@Z 10015360 f   libvcruntimed:undname.obj
 0001:000143b0       ??0DName@@QAE@ABV0@@Z      100153b0 f i libvcruntimed:undname.obj
 0001:000143e0       ??0DName@@QAE@D@Z          100153e0 f   libvcruntimed:undname.obj
 0001:00014410       ??0DName@@QAE@PAV0@@Z      10015410 f   libvcruntimed:undname.obj
 0001:000144c0       ??0DName@@QAE@W4DNameStatus@@@Z 100154c0 f   libvcruntimed:undname.obj
 0001:00014560       ??0DName@@QAE@XZ           10015560 f i libvcruntimed:undname.obj
 0001:00014590       ??0DName@@QAE@_J@Z         10015590 f   libvcruntimed:undname.obj
 0001:00014680       ??0DName@@QAE@_K@Z         10015680 f   libvcruntimed:undname.obj
 0001:00014730       ??0DNameNode@@IAE@XZ       10015730 f i libvcruntimed:undname.obj
 0001:00014750       ??0Replicator@@QAE@XZ      10015750 f i libvcruntimed:undname.obj
 0001:00014790       ??0UnDecorator@@QAE@PBDP6APADJ@ZK@Z 10015790 f i libvcruntimed:undname.obj
 0001:00014810       ??0charNode@@QAE@D@Z       10015810 f i libvcruntimed:undname.obj
 0001:00014840       ??0pDNameNode@@QAE@PAVDName@@@Z 10015840 f   libvcruntimed:undname.obj
 0001:000148a0       ??0pairNode@@QAE@PBVDNameNode@@0@Z 100158a0 f i libvcruntimed:undname.obj
 0001:00014900       ??2@YAPAXIAAV_HeapManager@@H@Z 10015900 f   libvcruntimed:undname.obj
 0001:00014940       ??4DName@@QAEAAV0@ABUStringLiteral@@@Z 10015940 f   libvcruntimed:undname.obj
 0001:00014980       ??4DName@@QAEAAV0@ABV0@@Z  10015980 f   libvcruntimed:undname.obj
 0001:000149b0       ??4DName@@QAEAAV0@D@Z      100159b0 f i libvcruntimed:undname.obj
 0001:000149e0       ??4DName@@QAEAAV0@PAV0@@Z  100159e0 f   libvcruntimed:undname.obj
 0001:00014a80       ??4DName@@QAEAAV0@W4DNameStatus@@@Z 10015a80 f   libvcruntimed:undname.obj
 0001:00014b00       ??AReplicator@@QBE?AVDName@@H@Z 10015b00 f   libvcruntimed:undname.obj
 0001:00014b70       ??B?$optional@_K@std@@QBE_NXZ 10015b70 f i libvcruntimed:undname.obj
 0001:00014b90       ??D?$optional@_K@std@@QGAEAA_KXZ 10015b90 f i libvcruntimed:undname.obj
 0001:00014ba0       ??H@YA?AVDName@@ABUStringLiteral@@ABV0@@Z 10015ba0 f i libvcruntimed:undname.obj
 0001:00014bd0       ??H@YA?AVDName@@DABV0@@Z   10015bd0 f i libvcruntimed:undname.obj
 0001:00014c00       ??H@YA?AVDName@@W4DNameStatus@@ABV0@@Z 10015c00 f i libvcruntimed:undname.obj
 0001:00014c30       ??HDName@@QBE?AV0@ABUStringLiteral@@@Z 10015c30 f   libvcruntimed:undname.obj
 0001:00014c70       ??HDName@@QBE?AV0@ABV0@@Z  10015c70 f   libvcruntimed:undname.obj
 0001:00014cb0       ??HDName@@QBE?AV0@D@Z      10015cb0 f   libvcruntimed:undname.obj
 0001:00014cf0       ??HDName@@QBE?AV0@PAV0@@Z  10015cf0 f   libvcruntimed:undname.obj
 0001:00014d30       ??HDName@@QBE?AV0@W4DNameStatus@@@Z 10015d30 f   libvcruntimed:undname.obj
 0001:00014d70       ??HStringLiteral@@QBE?AU0@H@Z 10015d70 f i libvcruntimed:undname.obj
 0001:00014da0       ??YDName@@QAEAAV0@ABUStringLiteral@@@Z 10015da0 f   libvcruntimed:undname.obj
 0001:00014e40       ??YDName@@QAEAAV0@ABV0@@Z  10015e40 f   libvcruntimed:undname.obj
 0001:00014ee0       ??YDName@@QAEAAV0@D@Z      10015ee0 f   libvcruntimed:undname.obj
 0001:00014f60       ??YDName@@QAEAAV0@PAV0@@Z  10015f60 f   libvcruntimed:undname.obj
 0001:00015010       ??YDName@@QAEAAV0@W4DNameStatus@@@Z 10016010 f   libvcruntimed:undname.obj
 0001:00015070       ??YReplicator@@QAEAAV0@ABVDName@@@Z 10016070 f   libvcruntimed:undname.obj
 0001:00015100       ??_5DName@@QAEAAV0@ABV0@@Z 10016100 f   libvcruntimed:undname.obj
 0001:00015160       ??__K_l@@YA?AUStringLiteral@@PBDI@Z 10016160 f i libvcruntimed:undname.obj
 0001:00015180       ?Constructor@_HeapManager@@QAEXP6APAXI@ZP6AXPAX@Z@Z 10016180 f i libvcruntimed:undname.obj
 0001:000151c0       ?Destructor@_HeapManager@@QAEXXZ 100161c0 f i libvcruntimed:undname.obj
 0001:00015230       ?UScore@UnDecorator@@SA?AUStringLiteral@@W4Tokens@@@Z 10016230 f   libvcruntimed:undname.obj
 0001:00015280       ?composeDeclaration@UnDecorator@@CA?AVDName@@ABV2@@Z 10016280 f i libvcruntimed:undname.obj
 0001:000171f0       ?dbGetString@DName@@QBEPADXZ 100181f0 f   libvcruntimed:undname.obj
 0001:00017210       ?doAccessSpecifiers@UnDecorator@@SAHXZ 10018210 f i libvcruntimed:undname.obj
 0001:00017240       ?doAllocationLanguage@UnDecorator@@SAHXZ 10018240 f i libvcruntimed:undname.obj
 0001:00017270       ?doAllocationModel@UnDecorator@@SAHXZ 10018270 f i libvcruntimed:undname.obj
 0001:000172a0       ?doEcsu@UnDecorator@@SAHXZ 100182a0 f i libvcruntimed:undname.obj
 0001:000172d0       ?doEllipsis@UnDecorator@@SAHXZ 100182d0 f i libvcruntimed:undname.obj
 0001:00017300       ?doFunctionReturns@UnDecorator@@SAHXZ 10018300 f i libvcruntimed:undname.obj
 0001:00017330       ?doMSKeywords@UnDecorator@@SAHXZ 10018330 f i libvcruntimed:undname.obj
 0001:00017360       ?doMemberTypes@UnDecorator@@SAHXZ 10018360 f i libvcruntimed:undname.obj
 0001:00017390       ?doNameOnly@UnDecorator@@SAHXZ 10018390 f i libvcruntimed:undname.obj
 0001:000173a0       ?doNoIdentCharCheck@UnDecorator@@SAHXZ 100183a0 f i libvcruntimed:undname.obj
 0001:000173b0       ?doPchar@DName@@AAEXD@Z    100183b0 f   libvcruntimed:undname.obj
 0001:00017420       ?doPtr64@UnDecorator@@SAHXZ 10018420 f i libvcruntimed:undname.obj
 0001:00017450       ?doRestrictionSpec@UnDecorator@@SAHXZ 10018450 f i libvcruntimed:undname.obj
 0001:00017480       ?doThisTypes@UnDecorator@@SAHXZ 10018480 f i libvcruntimed:undname.obj
 0001:000174b0       ?doThrowTypes@UnDecorator@@SAHXZ 100184b0 f i libvcruntimed:undname.obj
 0001:000174e0       ?doTypeOnly@UnDecorator@@SAHXZ 100184e0 f i libvcruntimed:undname.obj
 0001:000174f0       ?doUnderScore@UnDecorator@@SAHXZ 100184f0 f i libvcruntimed:undname.obj
 0001:00017520       ?getArgumentList@UnDecorator@@CA?AVDName@@XZ 10018520 f   libvcruntimed:undname.obj
 0001:00017670       ?getArgumentTypes@UnDecorator@@CA?AVDName@@XZ 10018670 f   libvcruntimed:undname.obj
 0001:00017880       ?getArrayObject@UnDecorator@@CA?AVDName@@XZ 10018880 f   libvcruntimed:undname.obj
 0001:00017960       ?getArrayType@UnDecorator@@CA?AVDName@@ABV2@@Z 10018960 f i libvcruntimed:undname.obj
 0001:00017c00       ?getBasedType@UnDecorator@@CA?AVDName@@XZ 10018c00 f   libvcruntimed:undname.obj
 0001:00017cf0       ?getBasicDataType@UnDecorator@@CA?AVDName@@ABV2@@Z 10018cf0 f   libvcruntimed:undname.obj
 0001:00018600       ?getCHPEName@UnDecorator@@QAEPADPADH@Z 10019600 f i libvcruntimed:undname.obj
 0001:00018760       ?getCallIndex@UnDecorator@@CA?AVDName@@XZ 10019760 f i libvcruntimed:undname.obj
 0001:00018780       ?getCallingConvention@UnDecorator@@CA?AVDName@@XZ 10019780 f   libvcruntimed:undname.obj
 0001:000189c0       ?getDataIndirectType@UnDecorator@@CA?AVDName@@ABV2@W4IndirectionKind@@0H@Z 100199c0 f   libvcruntimed:undname.obj
 0001:000192e0       ?getDataIndirectType@UnDecorator@@CA?AVDName@@XZ 1001a2e0 f i libvcruntimed:undname.obj
 0001:00019320       ?getDataType@UnDecorator@@CA?AVDName@@PAV2@@Z 1001a320 f   libvcruntimed:undname.obj
 0001:00019460       ?getDecoratedName@UnDecorator@@CA?AVDName@@XZ 1001a460 f   libvcruntimed:undname.obj
 0001:000198a0       ?getDimension@UnDecorator@@CA?AVDName@@_N@Z 1001a8a0 f   libvcruntimed:undname.obj
 0001:00019b00       ?getDispatchTarget@UnDecorator@@CA?AVDName@@XZ 1001ab00 f   libvcruntimed:undname.obj
 0001:00019ba0       ?getDisplacement@UnDecorator@@CA?AVDName@@XZ 1001aba0 f i libvcruntimed:undname.obj
 0001:00019bc0       ?getECSUDataType@UnDecorator@@CA?AVDName@@XZ 1001abc0 f   libvcruntimed:undname.obj
 0001:00019e20       ?getECSUName@UnDecorator@@CA?AVDName@@XZ 1001ae20 f i libvcruntimed:undname.obj
 0001:00019e40       ?getEnumType@UnDecorator@@CA?AVDName@@XZ 1001ae40 f i libvcruntimed:undname.obj
 0001:00019ff0       ?getExtendedDataIndirectType@UnDecorator@@CA?AVDName@@AAW4IndirectionKind@@AA_NH@Z 1001aff0 f   libvcruntimed:undname.obj
 0001:0001a240       ?getExternalDataType@UnDecorator@@CA?AVDName@@ABV2@@Z 1001b240 f i libvcruntimed:undname.obj
 0001:0001a2e0       ?getFloatingPoint@UnDecorator@@CA?AVDName@@H@Z 1001b2e0 f   libvcruntimed:undname.obj
 0001:0001a490       ?getFunctionIndirectType@UnDecorator@@CA?AVDName@@ABV2@@Z 1001b490 f   libvcruntimed:undname.obj
 0001:0001a970       ?getGuardNumber@UnDecorator@@CA?AVDName@@XZ 1001b970 f i libvcruntimed:undname.obj
 0001:0001a990       ?getLastChar@DName@@QBEDXZ 1001b990 f i libvcruntimed:undname.obj
 0001:0001a9d0       ?getLastChar@DNameStatusNode@@UBEDXZ 1001b9d0 f i libvcruntimed:undname.obj
 0001:0001aa00       ?getLastChar@charNode@@UBEDXZ 1001ba00 f i libvcruntimed:undname.obj
 0001:0001aa20       ?getLastChar@pDNameNode@@UBEDXZ 1001ba20 f i libvcruntimed:undname.obj
 0001:0001aa50       ?getLastChar@pairNode@@UBEDXZ 1001ba50 f i libvcruntimed:undname.obj
 0001:0001aac0       ?getLastChar@pcharNode@@UBEDXZ 1001bac0 f i libvcruntimed:undname.obj
 0001:0001ab00       ?getLexicalFrame@UnDecorator@@CA?AVDName@@XZ 1001bb00 f i libvcruntimed:undname.obj
 0001:0001ab40       ?getMemoryWithBuffer@_HeapManager@@QAEPAXI@Z 1001bb40 f   libvcruntimed:undname.obj
 0001:0001ac30       ?getMemoryWithoutBuffer@_HeapManager@@QAEPAXI@Z 1001bc30 f   libvcruntimed:undname.obj
 0001:0001ac70       ?getNoexcept@UnDecorator@@CA?AVDName@@XZ 1001bc70 f   libvcruntimed:undname.obj
 0001:0001acf0       ?getNumberOfDimensions@UnDecorator@@CAHXZ 1001bcf0 f   libvcruntimed:undname.obj
 0001:0001adf0       ?getOperatorName@UnDecorator@@CA?AVDName@@_NPA_N@Z 1001bdf0 f i libvcruntimed:undname.obj
 0001:0001b8e0       ?getPointerType@UnDecorator@@CA?AVDName@@ABV2@0@Z 1001c8e0 f i libvcruntimed:undname.obj
 0001:0001b900       ?getPointerTypeArray@UnDecorator@@CA?AVDName@@ABV2@0@Z 1001c900 f i libvcruntimed:undname.obj
 0001:0001b920       ?getPrimaryDataType@UnDecorator@@CA?AVDName@@ABV2@@Z 1001c920 f   libvcruntimed:undname.obj
 0001:0001bd90       ?getPtrRefDataType@UnDecorator@@CA?AVDName@@ABV2@H@Z 1001cd90 f   libvcruntimed:undname.obj
 0001:0001c040       ?getPtrRefType@UnDecorator@@CA?AVDName@@ABV2@0W4IndirectionKind@@@Z 1001d040 f   libvcruntimed:undname.obj
 0001:0001c1c0       ?getReferenceType@UnDecorator@@CA?AVDName@@ABV2@0W4IndirectionKind@@@Z 1001d1c0 f i libvcruntimed:undname.obj
 0001:0001c1e0       ?getRestrictionSpec@UnDecorator@@CA?AVDName@@XZ 1001d1e0 f   libvcruntimed:undname.obj
 0001:0001c3a0       ?getReturnType@UnDecorator@@CA?AVDName@@PAV2@@Z 1001d3a0 f   libvcruntimed:undname.obj
 0001:0001c3f0       ?getScope@UnDecorator@@CA?AVDName@@XZ 1001d3f0 f   libvcruntimed:undname.obj
 0001:0001c980       ?getScopedName@UnDecorator@@CA?AVDName@@XZ 1001d980 f   libvcruntimed:undname.obj
 0001:0001cad0       ?getSignedDimension@UnDecorator@@CA?AVDName@@XZ 1001dad0 f   libvcruntimed:undname.obj
 0001:0001cb50       ?getStorageConvention@UnDecorator@@CA?AVDName@@XZ 1001db50 f i libvcruntimed:undname.obj
 0001:0001cb70       ?getString@DName@@QBEPADPAD0@Z 1001db70 f i libvcruntimed:undname.obj
 0001:0001cbd0       ?getString@DName@@QBEPADPADH@Z 1001dbd0 f i libvcruntimed:undname.obj
 0001:0001cc60       ?getString@DNameStatusNode@@UBEPADPAD0@Z 1001dc60 f i libvcruntimed:undname.obj
 0001:0001cca0       ?getString@charNode@@UBEPADPAD0@Z 1001dca0 f i libvcruntimed:undname.obj
 0001:0001ccd0       ?getString@pDNameNode@@UBEPADPAD0@Z 1001dcd0 f i libvcruntimed:undname.obj
 0001:0001cd10       ?getString@pairNode@@UBEPADPAD0@Z 1001dd10 f i libvcruntimed:undname.obj
 0001:0001cda0       ?getString@pcharNode@@UBEPADPAD0@Z 1001dda0 f i libvcruntimed:undname.obj
 0001:0001cdd0       ?getStringEncoding@UnDecorator@@CA?AVDName@@W4PrefixKind@@H@Z 1001ddd0 f   libvcruntimed:undname.obj
 0001:0001cee0       ?getStringHelper@@YAPADPADPBD1H@Z 1001dee0 f i libvcruntimed:undname.obj
 0001:0001cf20       ?getStringObject@UnDecorator@@CA?AVDName@@XZ 1001df20 f   libvcruntimed:undname.obj
 0001:0001cfd0       ?getSymbolName@UnDecorator@@CA?AVDName@@XZ 1001dfd0 f i libvcruntimed:undname.obj
 0001:0001d060       ?getTemplateArgumentList@UnDecorator@@CA?AVDName@@XZ 1001e060 f   libvcruntimed:undname.obj
 0001:0001d330       ?getTemplateName@UnDecorator@@CA?AVDName@@_N@Z 1001e330 f   libvcruntimed:undname.obj
 0001:0001d4f0       ?getTemplateNonTypeArgument@UnDecorator@@CA?AVDName@@XZ 1001e4f0 f   libvcruntimed:undname.obj
 0001:0001da10       ?getTemplateTypeArgument@UnDecorator@@CA?AVDName@@XZ 1001ea10 f   libvcruntimed:undname.obj
 0001:0001dbb0       ?getThisType@UnDecorator@@CA?AVDName@@XZ 1001ebb0 f i libvcruntimed:undname.obj
 0001:0001dbf0       ?getThrowTypes@UnDecorator@@CA?AVDName@@XZ 1001ebf0 f   libvcruntimed:undname.obj
 0001:0001dc30       ?getTypeEncoding@UnDecorator@@CAHXZ 1001ec30 f i libvcruntimed:undname.obj
 0001:0001e6f0       ?getUndecoratedName@UnDecorator@@QAEPADPADH@Z 1001f6f0 f i libvcruntimed:undname.obj
 0001:0001e850       ?getVCallThunkType@UnDecorator@@CA?AVDName@@XZ 1001f850 f i libvcruntimed:undname.obj
 0001:0001e8d0       ?getValue@UnDecorator@@CA?AV?$optional@_K@std@@XZ 1001f8d0 f   libvcruntimed:undname.obj
 0001:0001e990       ?getValueObject@UnDecorator@@CA?AVDName@@XZ 1001f990 f   libvcruntimed:undname.obj
 0001:0001eb00       ?getVbTableType@UnDecorator@@CA?AVDName@@ABV2@@Z 1001fb00 f i libvcruntimed:undname.obj
 0001:0001eb20       ?getVdispMapType@UnDecorator@@CA?AVDName@@ABV2@@Z 1001fb20 f i libvcruntimed:undname.obj
 0001:0001ebb0       ?getVfTableType@UnDecorator@@CA?AVDName@@ABV2@@Z 1001fbb0 f i libvcruntimed:undname.obj
 0001:0001edb0       ?getZName@UnDecorator@@CA?AVDName@@_N0@Z 1001fdb0 f   libvcruntimed:undname.obj
 0001:0001f0f0       ?haveTemplateParameters@UnDecorator@@SAHXZ 100200f0 f i libvcruntimed:undname.obj
 0001:0001f100       ?isArray@DName@@QBEHXZ     10020100 f i libvcruntimed:undname.obj
 0001:0001f120       ?isComArray@DName@@QBEHXZ  10020120 f i libvcruntimed:undname.obj
 0001:0001f140       ?isEmpty@DName@@QBEHXZ     10020140 f i libvcruntimed:undname.obj
 0001:0001f170       ?isFull@Replicator@@QBEHXZ 10020170 f i libvcruntimed:undname.obj
 0001:0001f1a0       ?isNoTE@DName@@QBEHXZ      100201a0 f i libvcruntimed:undname.obj
 0001:0001f1c0       ?isPinPtr@DName@@QBEHXZ    100201c0 f i libvcruntimed:undname.obj
 0001:0001f1e0       ?isPtrRef@DName@@QBEHXZ    100201e0 f i libvcruntimed:undname.obj
 0001:0001f200       ?isUDC@DName@@QBEHXZ       10020200 f i libvcruntimed:undname.obj
 0001:0001f240       ?isUDTThunk@DName@@QBEHXZ  10020240 f i libvcruntimed:undname.obj
 0001:0001f280       ?isVCallThunk@DName@@QBEHXZ 10020280 f i libvcruntimed:undname.obj
 0001:0001f2a0       ?isValid@DName@@QBEHXZ     100202a0 f i libvcruntimed:undname.obj
 0001:0001f2e0       ?length@DName@@QBEHXZ      100202e0 f i libvcruntimed:undname.obj
 0001:0001f320       ?length@DNameStatusNode@@UBEHXZ 10020320 f i libvcruntimed:undname.obj
 0001:0001f340       ?length@charNode@@UBEHXZ   10020340 f i libvcruntimed:undname.obj
 0001:0001f350       ?length@pDNameNode@@UBEHXZ 10020350 f i libvcruntimed:undname.obj
 0001:0001f380       ?length@pairNode@@UBEHXZ   10020380 f i libvcruntimed:undname.obj
 0001:0001f3f0       ?length@pcharNode@@UBEHXZ  100203f0 f i libvcruntimed:undname.obj
 0001:0001f410       ?make@DNameStatusNode@@SAPBV1@W4DNameStatus@@@Z 10020410 f i libvcruntimed:undname.obj
 0001:0001f440       ?parseDecoratedName@UnDecorator@@CA?AVDName@@XZ 10020440 f   libvcruntimed:undname.obj
 0001:0001f5d0       ?raw_length@DNameStatusNode@@UBEHXZ 100205d0 f i libvcruntimed:undname.obj
 0001:0001f5f0       ?raw_length@charNode@@UBEHXZ 100205f0 f i libvcruntimed:undname.obj
 0001:0001f610       ?raw_length@pDNameNode@@UBEHXZ 10020610 f i libvcruntimed:undname.obj
 0001:0001f620       ?raw_length@pairNode@@UBEHXZ 10020620 f i libvcruntimed:undname.obj
 0001:0001f640       ?raw_length@pcharNode@@UBEHXZ 10020640 f i libvcruntimed:undname.obj
 0001:0001f660       ?setIsArray@DName@@QAEXXZ  10020660 f i libvcruntimed:undname.obj
 0001:0001f680       ?setIsComArray@DName@@QAEXXZ 10020680 f i libvcruntimed:undname.obj
 0001:0001f6a0       ?setIsNoTE@DName@@QAEXXZ   100206a0 f i libvcruntimed:undname.obj
 0001:0001f6c0       ?setIsPinPtr@DName@@QAEXXZ 100206c0 f i libvcruntimed:undname.obj
 0001:0001f6e0       ?setIsUDC@DName@@QAEXXZ    100206e0 f i libvcruntimed:undname.obj
 0001:0001f710       ?setIsVCallThunk@DName@@QAEXXZ 10020710 f i libvcruntimed:undname.obj
 0001:0001f730       ?setPtrRef@DName@@QAEAAV1@XZ 10020730 f i libvcruntimed:undname.obj
 0001:0001f750       ?status@DName@@QBE?AW4DNameStatus@@XZ 10020750 f i libvcruntimed:undname.obj
 0001:0001f850       ___unDName                 10020850 f   libvcruntimed:undname.obj
 0001:0001f880       ___unDNameEx               10020880 f   libvcruntimed:undname.obj
 0001:0001f950       _unDNameGenerateCHPE       10020950 f   libvcruntimed:undname.obj
 0001:0001f9b0       ??$__crt_interlocked_exchange_pointer@UHINSTANCE__@@PAU1@@@YAPAUHINSTANCE__@@PDSAU0@QAU0@@Z 100209b0 f i libvcruntimed:winapi_downlevel.obj
 0001:0001f9c0       ??$__crt_interlocked_exchange_pointer@UHINSTANCE__@@PAX@@YAPAUHINSTANCE__@@PDSAU0@QAX@Z 100209c0 f i libvcruntimed:winapi_downlevel.obj
 0001:0001f9d0       ??$__crt_interlocked_exchange_pointer@XPAX@@YAPAXPDSAXQAX@Z 100209d0 f i libvcruntimed:winapi_downlevel.obj
 0001:0001f9e0       ??$__crt_interlocked_read_pointer@UHINSTANCE__@@@@YAPAUHINSTANCE__@@PDSAU0@@Z 100209e0 f i libvcruntimed:winapi_downlevel.obj
 0001:0001fa00       ??$__crt_interlocked_read_pointer@X@@YAPAXPDSAX@Z 10020a00 f i libvcruntimed:winapi_downlevel.obj
 0001:0001fdd0       ___vcrt_FlsAlloc           10020dd0 f   libvcruntimed:winapi_downlevel.obj
 0001:0001fe10       ___vcrt_FlsFree            10020e10 f   libvcruntimed:winapi_downlevel.obj
 0001:0001fe50       ___vcrt_FlsGetValue        10020e50 f   libvcruntimed:winapi_downlevel.obj
 0001:0001fe90       ___vcrt_FlsSetValue        10020e90 f   libvcruntimed:winapi_downlevel.obj
 0001:0001fee0       ___vcrt_InitializeCriticalSectionEx 10020ee0 f   libvcruntimed:winapi_downlevel.obj
 0001:0001ff30       __global_unwind2           10020f30 f   libvcruntimed:exsup.obj
 0001:0001ff96       __local_unwind2            10020f96 f   libvcruntimed:exsup.obj
 0001:0002001a       __abnormal_termination     1002101a f   libvcruntimed:exsup.obj
 0001:00020040       __NLG_Notify1              10021040 f   libvcruntimed:exsup.obj
 0001:0002004c       __NLG_Notify               1002104c f   libvcruntimed:exsup.obj
 0001:00020063       __NLG_Dispatch2            10021063     libvcruntimed:exsup.obj
 0001:00020063       __NLG_Dispatch             10021063     libvcruntimed:exsup.obj
 0001:0002006b       __NLG_Call                 1002106b f   libvcruntimed:exsup.obj
 0001:0002006d       __NLG_Return2              1002106d     libvcruntimed:exsup.obj
 0001:000200a0       __get_unexpected           100210a0 f   libvcruntimed:unexpected.obj
 0001:000200c0       _set_unexpected            100210c0 f   libvcruntimed:unexpected.obj
 0001:000200f0       _unexpected                100210f0 f   libvcruntimed:unexpected.obj
 0001:00020130       ?GetCurrentState@__FrameHandler3@@SAHPAUEHRegistrationNode@@PAXPBU_s_FuncInfo@@@Z 10021130 f   libvcruntimed:ehstate.obj
 0001:00020160       ?SetState@__FrameHandler3@@SAXPAUEHRegistrationNode@@PBU_s_FuncInfo@@H@Z 10021160 f   libvcruntimed:ehstate.obj
 0001:00020170       ??$__crt_interlocked_exchange_pointer@$$A6AXXZP6AXXZ@@YAP6AXXZPDS6AXXZQ6AXXZ@Z 10021170 f i libvcruntimed:purevirt.obj
 0001:00020180       ??$__crt_interlocked_read_pointer@$$A6AXXZ@@YAP6AXXZPDS6AXXZ@Z 10021180 f i libvcruntimed:purevirt.obj
 0001:000201a0       __get_purecall_handler     100211a0 f   libvcruntimed:purevirt.obj
 0001:000201c0       __purecall                 100211c0 f   libvcruntimed:purevirt.obj
 0001:000201f0       __set_purecall_handler     100211f0 f   libvcruntimed:purevirt.obj
 0001:00020210       _free                      10021210 f   libucrtd:free.obj
 0001:00020240       _malloc                    10021240 f   libucrtd:malloc.obj
 0001:00020260       ??$?RU?$__crt_report_hook_node@D@@@__crt_internal_free_policy@@QBEXQBU?$__crt_report_hook_node@D@@@Z 10021260 f i libucrtd:dbgrpt.obj
 0001:00020280       ??$?RU?$__crt_report_hook_node@_W@@@__crt_internal_free_policy@@QBEXQBU?$__crt_report_hook_node@_W@@@Z 10021280 f i libucrtd:dbgrpt.obj
 0001:00021070       ??$get_module_file_name@AAPAUHINSTANCE__@@AAY0BAF@DK@?$__crt_char_traits@D@@SAKAAPAUHINSTANCE__@@AAY0BAF@D$$QAK@Z 10022070 f i libucrtd:dbgrpt.obj
 0001:00021090       ??$get_module_file_name@AAPAUHINSTANCE__@@AAY0BAF@_WK@?$__crt_char_traits@_W@@SAKAAPAUHINSTANCE__@@AAY0BAF@_W$$QAK@Z 10022090 f i libucrtd:dbgrpt.obj
 0001:000210b0       ??$tcscpy_s@AAY0BAF@DIPBD@?$__crt_char_traits@D@@SAHAAY0BAF@D$$QAI$$QAPBD@Z 100220b0 f i libucrtd:dbgrpt.obj
 0001:000210d0       ??$tcscpy_s@AAY0BAF@_WIPB_W@?$__crt_char_traits@_W@@SAHAAY0BAF@_W$$QAI$$QAPB_W@Z 100220d0 f i libucrtd:dbgrpt.obj
 0001:000210f0       ??$tcslen@AAY0BAF@D@?$__crt_char_traits@D@@SAIAAY0BAF@D@Z 100220f0 f i libucrtd:dbgrpt.obj
 0001:00021110       ??$tcslen@AAY0BAF@_W@?$__crt_char_traits@_W@@SAIAAY0BAF@_W@Z 10022110 f i libucrtd:dbgrpt.obj
 0001:00021130       ??$tcslen@ABQBD@?$__crt_char_traits@D@@SAIABQBD@Z 10022130 f i libucrtd:dbgrpt.obj
 0001:00021150       ??$tcslen@ABQB_W@?$__crt_char_traits@_W@@SAIABQB_W@Z 10022150 f i libucrtd:dbgrpt.obj
 0001:00021250       ??0?$__crt_unique_heap_ptr@U?$__crt_report_hook_node@D@@U__crt_internal_free_policy@@@@QAE@QAU?$__crt_report_hook_node@D@@@Z 10022250 f i libucrtd:dbgrpt.obj
 0001:00021270       ??0?$__crt_unique_heap_ptr@U?$__crt_report_hook_node@_W@@U__crt_internal_free_policy@@@@QAE@QAU?$__crt_report_hook_node@_W@@@Z 10022270 f i libucrtd:dbgrpt.obj
 0001:00021290       ??1?$__crt_unique_heap_ptr@U?$__crt_report_hook_node@D@@U__crt_internal_free_policy@@@@QAE@XZ 10022290 f i libucrtd:dbgrpt.obj
 0001:000212b0       ??1?$__crt_unique_heap_ptr@U?$__crt_report_hook_node@_W@@U__crt_internal_free_policy@@@@QAE@XZ 100222b0 f i libucrtd:dbgrpt.obj
 0001:000212d0       ??B?$__crt_unique_heap_ptr@U?$__crt_report_hook_node@D@@U__crt_internal_free_policy@@@@QBE_NXZ 100222d0 f i libucrtd:dbgrpt.obj
 0001:000212f0       ??B?$__crt_unique_heap_ptr@U?$__crt_report_hook_node@_W@@U__crt_internal_free_policy@@@@QBE_NXZ 100222f0 f i libucrtd:dbgrpt.obj
 0001:00021830       ?detach@?$__crt_unique_heap_ptr@U?$__crt_report_hook_node@D@@U__crt_internal_free_policy@@@@QAEPAU?$__crt_report_hook_node@D@@XZ 10022830 f i libucrtd:dbgrpt.obj
 0001:00021860       ?detach@?$__crt_unique_heap_ptr@U?$__crt_report_hook_node@_W@@U__crt_internal_free_policy@@@@QAEPAU?$__crt_report_hook_node@_W@@XZ 10022860 f i libucrtd:dbgrpt.obj
 0001:00021890       ?get@?$__crt_unique_heap_ptr@U?$__crt_report_hook_node@D@@U__crt_internal_free_policy@@@@QBEPAU?$__crt_report_hook_node@D@@XZ 10022890 f i libucrtd:dbgrpt.obj
 0001:000218b0       ?get@?$__crt_unique_heap_ptr@U?$__crt_report_hook_node@_W@@U__crt_internal_free_policy@@@@QBEPAU?$__crt_report_hook_node@_W@@XZ 100228b0 f i libucrtd:dbgrpt.obj
 0001:00021930       ?is_valid@?$__crt_unique_heap_ptr@U?$__crt_report_hook_node@D@@U__crt_internal_free_policy@@@@QBE_NXZ 10022930 f i libucrtd:dbgrpt.obj
 0001:00021960       ?is_valid@?$__crt_unique_heap_ptr@U?$__crt_report_hook_node@_W@@U__crt_internal_free_policy@@@@QBE_NXZ 10022960 f i libucrtd:dbgrpt.obj
 0001:00021990       ?release@?$__crt_unique_heap_ptr@U?$__crt_report_hook_node@D@@U__crt_internal_free_policy@@@@QAEXXZ 10022990 f i libucrtd:dbgrpt.obj
 0001:000219c0       ?release@?$__crt_unique_heap_ptr@U?$__crt_report_hook_node@_W@@U__crt_internal_free_policy@@@@QAEXXZ 100229c0 f i libucrtd:dbgrpt.obj
 0001:000219f0       __CrtDbgReport             100229f0 f   libucrtd:dbgrpt.obj
 0001:00021a40       __CrtDbgReportW            10022a40 f   libucrtd:dbgrpt.obj
 0001:00021a90       __CrtSetReportHook2        10022a90 f   libucrtd:dbgrpt.obj
 0001:00021ab0       __CrtSetReportHookW2       10022ab0 f   libucrtd:dbgrpt.obj
 0001:00021ad0       ___acrt_MessageWindowA     10022ad0 f   libucrtd:dbgrpt.obj
 0001:00021b00       ___acrt_MessageWindowW     10022b00 f   libucrtd:dbgrpt.obj
 0001:00021b30       __invoke_watson_if_error   10022b30 f i libucrtd:dbgrpt.obj
 0001:00021b60       __invoke_watson_if_oneof   10022b60 f i libucrtd:dbgrpt.obj
 0001:00021ba0       __snwprintf_s              10022ba0 f i libucrtd:dbgrpt.obj
 0001:00021be0       __vsnwprintf_s_l           10022be0 f i libucrtd:dbgrpt.obj
 0001:00021f60       _wcscpy_s                  10022f60 f   libucrtd:wcscpy_s.obj
 0001:00022c80       ??1?$__crt_simd_cleanup_guard@$00@@QAE@XZ 10023c80 f i libucrtd:strnlen.obj
 0001:00022c90       ??1?$__crt_simd_cleanup_guard@$0A@@@QAE@XZ 10023c90 f i libucrtd:strnlen.obj
 0001:00022ca0       ?compare_equals@?$__crt_simd_traits@$00E@@SA?AT__m256i@@T2@0@Z 10023ca0 f i libucrtd:strnlen.obj
 0001:00022ce0       ?compare_equals@?$__crt_simd_traits@$00G@@SA?AT__m256i@@T2@0@Z 10023ce0 f i libucrtd:strnlen.obj
 0001:00022d20       ?compare_equals@?$__crt_simd_traits@$0A@E@@SA?AT__m128i@@T2@0@Z 10023d20 f i libucrtd:strnlen.obj
 0001:00022d60       ?compare_equals@?$__crt_simd_traits@$0A@G@@SA?AT__m128i@@T2@0@Z 10023d60 f i libucrtd:strnlen.obj
 0001:00022da0       ?compute_byte_mask@?$__crt_simd_pack_traits@$00@@SAHT__m256i@@@Z 10023da0 f i libucrtd:strnlen.obj
 0001:00022dd0       ?compute_byte_mask@?$__crt_simd_pack_traits@$0A@@@SAHT__m128i@@@Z 10023dd0 f i libucrtd:strnlen.obj
 0001:00022e00       ?get_zero_pack@?$__crt_simd_pack_traits@$00@@SA?AT__m256i@@XZ 10023e00 f i libucrtd:strnlen.obj
 0001:00022e30       ?get_zero_pack@?$__crt_simd_pack_traits@$0A@@@SA?AT__m128i@@XZ 10023e30 f i libucrtd:strnlen.obj
 0001:00022e60       _strnlen                   10023e60 f   libucrtd:strnlen.obj
 0001:00022e80       _wcslen                    10023e80 f   libucrtd:strnlen.obj
 0001:00022ea0       _wcsnlen                   10023ea0 f   libucrtd:strnlen.obj
 0001:00022ec0       ??$?0ABV?$stream_output_adapter@D@__crt_stdio_output@@AB_KABQBDABQAU__crt_locale_pointers@@ABQAD@?$format_validation_base@DV?$stream_output_adapter@D@__crt_stdio_output@@@__crt_stdio_output@@IAE@ABV?$stream_output_adapter@D@1@AB_KABQBDABQAU__crt_locale_pointers@@ABQAD@Z 10023ec0 f i libucrtd:output.obj
 0001:00022ef0       ??$?0ABV?$stream_output_adapter@D@__crt_stdio_output@@AB_KABQBDABQAU__crt_locale_pointers@@ABQAD@?$positional_parameter_base@DV?$stream_output_adapter@D@__crt_stdio_output@@@__crt_stdio_output@@IAE@ABV?$stream_output_adapter@D@1@AB_KABQBDABQAU__crt_locale_pointers@@ABQAD@Z 10023ef0 f i libucrtd:output.obj
 0001:00022f70       ??$?0ABV?$stream_output_adapter@D@__crt_stdio_output@@AB_KABQBDABQAU__crt_locale_pointers@@ABQAD@?$standard_base@DV?$stream_output_adapter@D@__crt_stdio_output@@@__crt_stdio_output@@IAE@ABV?$stream_output_adapter@D@1@AB_KABQBDABQAU__crt_locale_pointers@@ABQAD@Z 10023f70 f i libucrtd:output.obj
 0001:00022fc0       ??$?0ABV?$stream_output_adapter@_W@__crt_stdio_output@@AB_KABQB_WABQAU__crt_locale_pointers@@ABQAD@?$format_validation_base@_WV?$stream_output_adapter@_W@__crt_stdio_output@@@__crt_stdio_output@@IAE@ABV?$stream_output_adapter@_W@1@AB_KABQB_WABQAU__crt_locale_pointers@@ABQAD@Z 10023fc0 f i libucrtd:output.obj
 0001:00022ff0       ??$?0ABV?$stream_output_adapter@_W@__crt_stdio_output@@AB_KABQB_WABQAU__crt_locale_pointers@@ABQAD@?$positional_parameter_base@_WV?$stream_output_adapter@_W@__crt_stdio_output@@@__crt_stdio_output@@IAE@ABV?$stream_output_adapter@_W@1@AB_KABQB_WABQAU__crt_locale_pointers@@ABQAD@Z 10023ff0 f i libucrtd:output.obj
 0001:00023070       ??$?0ABV?$stream_output_adapter@_W@__crt_stdio_output@@AB_KABQB_WABQAU__crt_locale_pointers@@ABQAD@?$standard_base@_WV?$stream_output_adapter@_W@__crt_stdio_output@@@__crt_stdio_output@@IAE@ABV?$stream_output_adapter@_W@1@AB_KABQB_WABQAU__crt_locale_pointers@@ABQAD@Z 10024070 f i libucrtd:output.obj
 0001:000230c0       ??$?0ABV?$string_output_adapter@D@__crt_stdio_output@@AB_KABQBDABQAU__crt_locale_pointers@@ABQAD@?$format_validation_base@DV?$string_output_adapter@D@__crt_stdio_output@@@__crt_stdio_output@@IAE@ABV?$string_output_adapter@D@1@AB_KABQBDABQAU__crt_locale_pointers@@ABQAD@Z 100240c0 f i libucrtd:output.obj
 0001:000230f0       ??$?0ABV?$string_output_adapter@D@__crt_stdio_output@@AB_KABQBDABQAU__crt_locale_pointers@@ABQAD@?$positional_parameter_base@DV?$string_output_adapter@D@__crt_stdio_output@@@__crt_stdio_output@@IAE@ABV?$string_output_adapter@D@1@AB_KABQBDABQAU__crt_locale_pointers@@ABQAD@Z 100240f0 f i libucrtd:output.obj
 0001:00023170       ??$?0ABV?$string_output_adapter@D@__crt_stdio_output@@AB_KABQBDABQAU__crt_locale_pointers@@ABQAD@?$standard_base@DV?$string_output_adapter@D@__crt_stdio_output@@@__crt_stdio_output@@IAE@ABV?$string_output_adapter@D@1@AB_KABQBDABQAU__crt_locale_pointers@@ABQAD@Z 10024170 f i libucrtd:output.obj
 0001:000231c0       ??$?0ABV?$string_output_adapter@_W@__crt_stdio_output@@AB_KABQB_WABQAU__crt_locale_pointers@@ABQAD@?$format_validation_base@_WV?$string_output_adapter@_W@__crt_stdio_output@@@__crt_stdio_output@@IAE@ABV?$string_output_adapter@_W@1@AB_KABQB_WABQAU__crt_locale_pointers@@ABQAD@Z 100241c0 f i libucrtd:output.obj
 0001:000231f0       ??$?0ABV?$string_output_adapter@_W@__crt_stdio_output@@AB_KABQB_WABQAU__crt_locale_pointers@@ABQAD@?$positional_parameter_base@_WV?$string_output_adapter@_W@__crt_stdio_output@@@__crt_stdio_output@@IAE@ABV?$string_output_adapter@_W@1@AB_KABQB_WABQAU__crt_locale_pointers@@ABQAD@Z 100241f0 f i libucrtd:output.obj
 0001:00023270       ??$?0ABV?$string_output_adapter@_W@__crt_stdio_output@@AB_KABQB_WABQAU__crt_locale_pointers@@ABQAD@?$standard_base@_WV?$string_output_adapter@_W@__crt_stdio_output@@@__crt_stdio_output@@IAE@ABV?$string_output_adapter@_W@1@AB_KABQB_WABQAU__crt_locale_pointers@@ABQAD@Z 10024270 f i libucrtd:output.obj
 0001:000237a0       ??$__crt_interlocked_read@J@@YAJPDJ@Z 100247a0 f i libucrtd:output.obj
 0001:00026540       ??$count@D@formatting_buffer@__crt_stdio_output@@QBEIXZ 10027540 f i libucrtd:output.obj
 0001:00026580       ??$count@_W@formatting_buffer@__crt_stdio_output@@QBEIXZ 10027580 f i libucrtd:output.obj
 0001:000265c0       ??$data@D@formatting_buffer@__crt_stdio_output@@QAEPADXZ 100275c0 f i libucrtd:output.obj
 0001:00026600       ??$data@_W@formatting_buffer@__crt_stdio_output@@QAEPA_WXZ 10027600 f i libucrtd:output.obj
 0001:00026640       ??$ensure_buffer_is_big_enough@D@formatting_buffer@__crt_stdio_output@@QAE_NI@Z 10027640 f i libucrtd:output.obj
 0001:00026720       ??$ensure_buffer_is_big_enough@_W@formatting_buffer@__crt_stdio_output@@QAE_NI@Z 10027720 f i libucrtd:output.obj
 0001:00026810       ??$extract_argument_from_va_list@C_J@?$positional_parameter_base@DV?$stream_output_adapter@D@__crt_stdio_output@@@__crt_stdio_output@@IAE_NAA_J@Z 10027810 f i libucrtd:output.obj
 0001:00026950       ??$extract_argument_from_va_list@C_J@?$positional_parameter_base@DV?$string_output_adapter@D@__crt_stdio_output@@@__crt_stdio_output@@IAE_NAA_J@Z 10027950 f i libucrtd:output.obj
 0001:00026a90       ??$extract_argument_from_va_list@C_J@?$positional_parameter_base@_WV?$stream_output_adapter@_W@__crt_stdio_output@@@__crt_stdio_output@@IAE_NAA_J@Z 10027a90 f i libucrtd:output.obj
 0001:00026bd0       ??$extract_argument_from_va_list@C_J@?$positional_parameter_base@_WV?$string_output_adapter@_W@__crt_stdio_output@@@__crt_stdio_output@@IAE_NAA_J@Z 10027bd0 f i libucrtd:output.obj
 0001:00026d10       ??$extract_argument_from_va_list@C_J@?$standard_base@DV?$stream_output_adapter@D@__crt_stdio_output@@@__crt_stdio_output@@IAE_NAA_J@Z 10027d10 f i libucrtd:output.obj
 0001:00026d40       ??$extract_argument_from_va_list@C_J@?$standard_base@DV?$string_output_adapter@D@__crt_stdio_output@@@__crt_stdio_output@@IAE_NAA_J@Z 10027d40 f i libucrtd:output.obj
 0001:00026d70       ??$extract_argument_from_va_list@C_J@?$standard_base@_WV?$stream_output_adapter@_W@__crt_stdio_output@@@__crt_stdio_output@@IAE_NAA_J@Z 10027d70 f i libucrtd:output.obj
 0001:00026da0       ??$extract_argument_from_va_list@C_J@?$standard_base@_WV?$string_output_adapter@_W@__crt_stdio_output@@@__crt_stdio_output@@IAE_NAA_J@Z 10027da0 f i libucrtd:output.obj
 0001:00026dd0       ??$extract_argument_from_va_list@E_J@?$positional_parameter_base@DV?$stream_output_adapter@D@__crt_stdio_output@@@__crt_stdio_output@@IAE_NAA_J@Z 10027dd0 f i libucrtd:output.obj
 0001:00026f10       ??$extract_argument_from_va_list@E_J@?$positional_parameter_base@DV?$string_output_adapter@D@__crt_stdio_output@@@__crt_stdio_output@@IAE_NAA_J@Z 10027f10 f i libucrtd:output.obj
 0001:00027050       ??$extract_argument_from_va_list@E_J@?$positional_parameter_base@_WV?$stream_output_adapter@_W@__crt_stdio_output@@@__crt_stdio_output@@IAE_NAA_J@Z 10028050 f i libucrtd:output.obj
 0001:00027190       ??$extract_argument_from_va_list@E_J@?$positional_parameter_base@_WV?$string_output_adapter@_W@__crt_stdio_output@@@__crt_stdio_output@@IAE_NAA_J@Z 10028190 f i libucrtd:output.obj
 0001:000272d0       ??$extract_argument_from_va_list@E_J@?$standard_base@DV?$stream_output_adapter@D@__crt_stdio_output@@@__crt_stdio_output@@IAE_NAA_J@Z 100282d0 f i libucrtd:output.obj
 0001:00027300       ??$extract_argument_from_va_list@E_J@?$standard_base@DV?$string_output_adapter@D@__crt_stdio_output@@@__crt_stdio_output@@IAE_NAA_J@Z 10028300 f i libucrtd:output.obj
 0001:00027330       ??$extract_argument_from_va_list@E_J@?$standard_base@_WV?$stream_output_adapter@_W@__crt_stdio_output@@@__crt_stdio_output@@IAE_NAA_J@Z 10028330 f i libucrtd:output.obj
 0001:00027360       ??$extract_argument_from_va_list@E_J@?$standard_base@_WV?$string_output_adapter@_W@__crt_stdio_output@@@__crt_stdio_output@@IAE_NAA_J@Z 10028360 f i libucrtd:output.obj
 0001:00027390       ??$extract_argument_from_va_list@F_J@?$positional_parameter_base@DV?$stream_output_adapter@D@__crt_stdio_output@@@__crt_stdio_output@@IAE_NAA_J@Z 10028390 f i libucrtd:output.obj
 0001:000274c0       ??$extract_argument_from_va_list@F_J@?$positional_parameter_base@DV?$string_output_adapter@D@__crt_stdio_output@@@__crt_stdio_output@@IAE_NAA_J@Z 100284c0 f i libucrtd:output.obj
 0001:000275f0       ??$extract_argument_from_va_list@F_J@?$positional_parameter_base@_WV?$stream_output_adapter@_W@__crt_stdio_output@@@__crt_stdio_output@@IAE_NAA_J@Z 100285f0 f i libucrtd:output.obj
 0001:00027720       ??$extract_argument_from_va_list@F_J@?$positional_parameter_base@_WV?$string_output_adapter@_W@__crt_stdio_output@@@__crt_stdio_output@@IAE_NAA_J@Z 10028720 f i libucrtd:output.obj
 0001:00027850       ??$extract_argument_from_va_list@F_J@?$standard_base@DV?$stream_output_adapter@D@__crt_stdio_output@@@__crt_stdio_output@@IAE_NAA_J@Z 10028850 f i libucrtd:output.obj
 0001:00027880       ??$extract_argument_from_va_list@F_J@?$standard_base@DV?$string_output_adapter@D@__crt_stdio_output@@@__crt_stdio_output@@IAE_NAA_J@Z 10028880 f i libucrtd:output.obj
 0001:000278b0       ??$extract_argument_from_va_list@F_J@?$standard_base@_WV?$stream_output_adapter@_W@__crt_stdio_output@@@__crt_stdio_output@@IAE_NAA_J@Z 100288b0 f i libucrtd:output.obj
 0001:000278e0       ??$extract_argument_from_va_list@F_J@?$standard_base@_WV?$string_output_adapter@_W@__crt_stdio_output@@@__crt_stdio_output@@IAE_NAA_J@Z 100288e0 f i libucrtd:output.obj
 0001:00027910       ??$extract_argument_from_va_list@GD@?$positional_parameter_base@DV?$stream_output_adapter@D@__crt_stdio_output@@@__crt_stdio_output@@IAE_NAAD@Z 10028910 f i libucrtd:output.obj
 0001:00027a40       ??$extract_argument_from_va_list@GD@?$positional_parameter_base@DV?$string_output_adapter@D@__crt_stdio_output@@@__crt_stdio_output@@IAE_NAAD@Z 10028a40 f i libucrtd:output.obj
 0001:00027b70       ??$extract_argument_from_va_list@GD@?$standard_base@DV?$stream_output_adapter@D@__crt_stdio_output@@@__crt_stdio_output@@IAE_NAAD@Z 10028b70 f i libucrtd:output.obj
 0001:00027ba0       ??$extract_argument_from_va_list@GD@?$standard_base@DV?$string_output_adapter@D@__crt_stdio_output@@@__crt_stdio_output@@IAE_NAAD@Z 10028ba0 f i libucrtd:output.obj
 0001:00027bd0       ??$extract_argument_from_va_list@G_J@?$positional_parameter_base@DV?$stream_output_adapter@D@__crt_stdio_output@@@__crt_stdio_output@@IAE_NAA_J@Z 10028bd0 f i libucrtd:output.obj
 0001:00027d10       ??$extract_argument_from_va_list@G_J@?$positional_parameter_base@DV?$string_output_adapter@D@__crt_stdio_output@@@__crt_stdio_output@@IAE_NAA_J@Z 10028d10 f i libucrtd:output.obj
 0001:00027e50       ??$extract_argument_from_va_list@G_J@?$positional_parameter_base@_WV?$stream_output_adapter@_W@__crt_stdio_output@@@__crt_stdio_output@@IAE_NAA_J@Z 10028e50 f i libucrtd:output.obj
 0001:00027f90       ??$extract_argument_from_va_list@G_J@?$positional_parameter_base@_WV?$string_output_adapter@_W@__crt_stdio_output@@@__crt_stdio_output@@IAE_NAA_J@Z 10028f90 f i libucrtd:output.obj
 0001:000280d0       ??$extract_argument_from_va_list@G_J@?$standard_base@DV?$stream_output_adapter@D@__crt_stdio_output@@@__crt_stdio_output@@IAE_NAA_J@Z 100290d0 f i libucrtd:output.obj
 0001:00028100       ??$extract_argument_from_va_list@G_J@?$standard_base@DV?$string_output_adapter@D@__crt_stdio_output@@@__crt_stdio_output@@IAE_NAA_J@Z 10029100 f i libucrtd:output.obj
 0001:00028130       ??$extract_argument_from_va_list@G_J@?$standard_base@_WV?$stream_output_adapter@_W@__crt_stdio_output@@@__crt_stdio_output@@IAE_NAA_J@Z 10029130 f i libucrtd:output.obj
 0001:00028160       ??$extract_argument_from_va_list@G_J@?$standard_base@_WV?$string_output_adapter@_W@__crt_stdio_output@@@__crt_stdio_output@@IAE_NAA_J@Z 10029160 f i libucrtd:output.obj
 0001:00028190       ??$extract_argument_from_va_list@H_J@?$positional_parameter_base@DV?$stream_output_adapter@D@__crt_stdio_output@@@__crt_stdio_output@@IAE_NAA_J@Z 10029190 f i libucrtd:output.obj
 0001:000282c0       ??$extract_argument_from_va_list@H_J@?$positional_parameter_base@DV?$string_output_adapter@D@__crt_stdio_output@@@__crt_stdio_output@@IAE_NAA_J@Z 100292c0 f i libucrtd:output.obj
 0001:000283f0       ??$extract_argument_from_va_list@H_J@?$positional_parameter_base@_WV?$stream_output_adapter@_W@__crt_stdio_output@@@__crt_stdio_output@@IAE_NAA_J@Z 100293f0 f i libucrtd:output.obj
 0001:00028520       ??$extract_argument_from_va_list@H_J@?$positional_parameter_base@_WV?$string_output_adapter@_W@__crt_stdio_output@@@__crt_stdio_output@@IAE_NAA_J@Z 10029520 f i libucrtd:output.obj
 0001:00028650       ??$extract_argument_from_va_list@H_J@?$standard_base@DV?$stream_output_adapter@D@__crt_stdio_output@@@__crt_stdio_output@@IAE_NAA_J@Z 10029650 f i libucrtd:output.obj
 0001:00028680       ??$extract_argument_from_va_list@H_J@?$standard_base@DV?$string_output_adapter@D@__crt_stdio_output@@@__crt_stdio_output@@IAE_NAA_J@Z 10029680 f i libucrtd:output.obj
 0001:000286b0       ??$extract_argument_from_va_list@H_J@?$standard_base@_WV?$stream_output_adapter@_W@__crt_stdio_output@@@__crt_stdio_output@@IAE_NAA_J@Z 100296b0 f i libucrtd:output.obj
 0001:000286e0       ??$extract_argument_from_va_list@H_J@?$standard_base@_WV?$string_output_adapter@_W@__crt_stdio_output@@@__crt_stdio_output@@IAE_NAA_J@Z 100296e0 f i libucrtd:output.obj
 0001:00028710       ??$extract_argument_from_va_list@I_J@?$positional_parameter_base@DV?$stream_output_adapter@D@__crt_stdio_output@@@__crt_stdio_output@@IAE_NAA_J@Z 10029710 f i libucrtd:output.obj
 0001:00028840       ??$extract_argument_from_va_list@I_J@?$positional_parameter_base@DV?$string_output_adapter@D@__crt_stdio_output@@@__crt_stdio_output@@IAE_NAA_J@Z 10029840 f i libucrtd:output.obj
 0001:00028970       ??$extract_argument_from_va_list@I_J@?$positional_parameter_base@_WV?$stream_output_adapter@_W@__crt_stdio_output@@@__crt_stdio_output@@IAE_NAA_J@Z 10029970 f i libucrtd:output.obj
 0001:00028aa0       ??$extract_argument_from_va_list@I_J@?$positional_parameter_base@_WV?$string_output_adapter@_W@__crt_stdio_output@@@__crt_stdio_output@@IAE_NAA_J@Z 10029aa0 f i libucrtd:output.obj
 0001:00028bd0       ??$extract_argument_from_va_list@I_J@?$standard_base@DV?$stream_output_adapter@D@__crt_stdio_output@@@__crt_stdio_output@@IAE_NAA_J@Z 10029bd0 f i libucrtd:output.obj
 0001:00028c00       ??$extract_argument_from_va_list@I_J@?$standard_base@DV?$string_output_adapter@D@__crt_stdio_output@@@__crt_stdio_output@@IAE_NAA_J@Z 10029c00 f i libucrtd:output.obj
 0001:00028c30       ??$extract_argument_from_va_list@I_J@?$standard_base@_WV?$stream_output_adapter@_W@__crt_stdio_output@@@__crt_stdio_output@@IAE_NAA_J@Z 10029c30 f i libucrtd:output.obj
 0001:00028c60       ??$extract_argument_from_va_list@I_J@?$standard_base@_WV?$string_output_adapter@_W@__crt_stdio_output@@@__crt_stdio_output@@IAE_NAA_J@Z 10029c60 f i libucrtd:output.obj
 0001:00028c90       ??$extract_argument_from_va_list@PADPAD@?$positional_parameter_base@DV?$stream_output_adapter@D@__crt_stdio_output@@@__crt_stdio_output@@IAE_NAAPAD@Z 10029c90 f i libucrtd:output.obj
 0001:00028dc0       ??$extract_argument_from_va_list@PADPAD@?$positional_parameter_base@DV?$string_output_adapter@D@__crt_stdio_output@@@__crt_stdio_output@@IAE_NAAPAD@Z 10029dc0 f i libucrtd:output.obj
 0001:00028ef0       ??$extract_argument_from_va_list@PADPAD@?$positional_parameter_base@_WV?$stream_output_adapter@_W@__crt_stdio_output@@@__crt_stdio_output@@IAE_NAAPAD@Z 10029ef0 f i libucrtd:output.obj
 0001:00029020       ??$extract_argument_from_va_list@PADPAD@?$positional_parameter_base@_WV?$string_output_adapter@_W@__crt_stdio_output@@@__crt_stdio_output@@IAE_NAAPAD@Z 1002a020 f i libucrtd:output.obj
 0001:00029150       ??$extract_argument_from_va_list@PADPAD@?$standard_base@DV?$stream_output_adapter@D@__crt_stdio_output@@@__crt_stdio_output@@IAE_NAAPAD@Z 1002a150 f i libucrtd:output.obj
 0001:00029180       ??$extract_argument_from_va_list@PADPAD@?$standard_base@DV?$string_output_adapter@D@__crt_stdio_output@@@__crt_stdio_output@@IAE_NAAPAD@Z 1002a180 f i libucrtd:output.obj
 0001:000291b0       ??$extract_argument_from_va_list@PADPAD@?$standard_base@_WV?$stream_output_adapter@_W@__crt_stdio_output@@@__crt_stdio_output@@IAE_NAAPAD@Z 1002a1b0 f i libucrtd:output.obj
 0001:000291e0       ??$extract_argument_from_va_list@PADPAD@?$standard_base@_WV?$string_output_adapter@_W@__crt_stdio_output@@@__crt_stdio_output@@IAE_NAAPAD@Z 1002a1e0 f i libucrtd:output.obj
 0001:00029210       ??$extract_argument_from_va_list@PAUansi_string@?1??type_case_Z@?$output_processor@DV?$stream_output_adapter@D@__crt_stdio_output@@V?$format_validation_base@DV?$stream_output_adapter@D@__crt_stdio_output@@@2@@__crt_stdio_output@@AAE_NXZ@PAU1?1??234@AAE_NXZ@@?$standard_base@DV?$stream_output_adapter@D@__crt_stdio_output@@@__crt_stdio_output@@IAE_NAAPAUansi_string@?1??type_case_Z@?$output_processor@DV?$stream_output_adapter@D@__crt_stdio_output@@V?$format_validation_base@DV?$stream_output_adapter@D@__crt_stdio_output@@@2@@1@AAE_NXZ@@Z 1002a210 f i libucrtd:output.obj
 0001:00029240       ??$extract_argument_from_va_list@PAUansi_string@?1??type_case_Z@?$output_processor@DV?$stream_output_adapter@D@__crt_stdio_output@@V?$positional_parameter_base@DV?$stream_output_adapter@D@__crt_stdio_output@@@2@@__crt_stdio_output@@AAE_NXZ@PAU1?1??234@AAE_NXZ@@?$positional_parameter_base@DV?$stream_output_adapter@D@__crt_stdio_output@@@__crt_stdio_output@@IAE_NAAPAUansi_string@?1??type_case_Z@?$output_processor@DV?$stream_output_adapter@D@__crt_stdio_output@@V?$positional_parameter_base@DV?$stream_output_adapter@D@__crt_stdio_output@@@2@@1@AAE_NXZ@@Z 1002a240 f i libucrtd:output.obj
 0001:00029370       ??$extract_argument_from_va_list@PAUansi_string@?1??type_case_Z@?$output_processor@DV?$stream_output_adapter@D@__crt_stdio_output@@V?$positional_parameter_base@DV?$stream_output_adapter@D@__crt_stdio_output@@@2@@__crt_stdio_output@@AAE_NXZ@PAU1?1??234@AAE_NXZ@@?$standard_base@DV?$stream_output_adapter@D@__crt_stdio_output@@@__crt_stdio_output@@IAE_NAAPAUansi_string@?1??type_case_Z@?$output_processor@DV?$stream_output_adapter@D@__crt_stdio_output@@V?$positional_parameter_base@DV?$stream_output_adapter@D@__crt_stdio_output@@@2@@1@AAE_NXZ@@Z 1002a370 f i libucrtd:output.obj
 0001:000293a0       ??$extract_argument_from_va_list@PAUansi_string@?1??type_case_Z@?$output_processor@DV?$stream_output_adapter@D@__crt_stdio_output@@V?$standard_base@DV?$stream_output_adapter@D@__crt_stdio_output@@@2@@__crt_stdio_output@@AAE_NXZ@PAU1?1??234@AAE_NXZ@@?$standard_base@DV?$stream_output_adapter@D@__crt_stdio_output@@@__crt_stdio_output@@IAE_NAAPAUansi_string@?1??type_case_Z@?$output_processor@DV?$stream_output_adapter@D@__crt_stdio_output@@V?$standard_base@DV?$stream_output_adapter@D@__crt_stdio_output@@@2@@1@AAE_NXZ@@Z 1002a3a0 f i libucrtd:output.obj
 0001:000293d0       ??$extract_argument_from_va_list@PAUansi_string@?1??type_case_Z@?$output_processor@DV?$string_output_adapter@D@__crt_stdio_output@@V?$format_validation_base@DV?$string_output_adapter@D@__crt_stdio_output@@@2@@__crt_stdio_output@@AAE_NXZ@PAU1?1??234@AAE_NXZ@@?$standard_base@DV?$string_output_adapter@D@__crt_stdio_output@@@__crt_stdio_output@@IAE_NAAPAUansi_string@?1??type_case_Z@?$output_processor@DV?$string_output_adapter@D@__crt_stdio_output@@V?$format_validation_base@DV?$string_output_adapter@D@__crt_stdio_output@@@2@@1@AAE_NXZ@@Z 1002a3d0 f i libucrtd:output.obj
 0001:00029400       ??$extract_argument_from_va_list@PAUansi_string@?1??type_case_Z@?$output_processor@DV?$string_output_adapter@D@__crt_stdio_output@@V?$positional_parameter_base@DV?$string_output_adapter@D@__crt_stdio_output@@@2@@__crt_stdio_output@@AAE_NXZ@PAU1?1??234@AAE_NXZ@@?$positional_parameter_base@DV?$string_output_adapter@D@__crt_stdio_output@@@__crt_stdio_output@@IAE_NAAPAUansi_string@?1??type_case_Z@?$output_processor@DV?$string_output_adapter@D@__crt_stdio_output@@V?$positional_parameter_base@DV?$string_output_adapter@D@__crt_stdio_output@@@2@@1@AAE_NXZ@@Z 1002a400 f i libucrtd:output.obj
 0001:00029530       ??$extract_argument_from_va_list@PAUansi_string@?1??type_case_Z@?$output_processor@DV?$string_output_adapter@D@__crt_stdio_output@@V?$positional_parameter_base@DV?$string_output_adapter@D@__crt_stdio_output@@@2@@__crt_stdio_output@@AAE_NXZ@PAU1?1??234@AAE_NXZ@@?$standard_base@DV?$string_output_adapter@D@__crt_stdio_output@@@__crt_stdio_output@@IAE_NAAPAUansi_string@?1??type_case_Z@?$output_processor@DV?$string_output_adapter@D@__crt_stdio_output@@V?$positional_parameter_base@DV?$string_output_adapter@D@__crt_stdio_output@@@2@@1@AAE_NXZ@@Z 1002a530 f i libucrtd:output.obj
 0001:00029560       ??$extract_argument_from_va_list@PAUansi_string@?1??type_case_Z@?$output_processor@DV?$string_output_adapter@D@__crt_stdio_output@@V?$standard_base@DV?$string_output_adapter@D@__crt_stdio_output@@@2@@__crt_stdio_output@@AAE_NXZ@PAU1?1??234@AAE_NXZ@@?$standard_base@DV?$string_output_adapter@D@__crt_stdio_output@@@__crt_stdio_output@@IAE_NAAPAUansi_string@?1??type_case_Z@?$output_processor@DV?$string_output_adapter@D@__crt_stdio_output@@V?$standard_base@DV?$string_output_adapter@D@__crt_stdio_output@@@2@@1@AAE_NXZ@@Z 1002a560 f i libucrtd:output.obj
 0001:00029590       ??$extract_argument_from_va_list@PAUansi_string@?1??type_case_Z@?$output_processor@_WV?$stream_output_adapter@_W@__crt_stdio_output@@V?$format_validation_base@_WV?$stream_output_adapter@_W@__crt_stdio_output@@@2@@__crt_stdio_output@@AAE_NXZ@PAU1?1??234@AAE_NXZ@@?$standard_base@_WV?$stream_output_adapter@_W@__crt_stdio_output@@@__crt_stdio_output@@IAE_NAAPAUansi_string@?1??type_case_Z@?$output_processor@_WV?$stream_output_adapter@_W@__crt_stdio_output@@V?$format_validation_base@_WV?$stream_output_adapter@_W@__crt_stdio_output@@@2@@1@AAE_NXZ@@Z 1002a590 f i libucrtd:output.obj
 0001:000295c0       ??$extract_argument_from_va_list@PAUansi_string@?1??type_case_Z@?$output_processor@_WV?$stream_output_adapter@_W@__crt_stdio_output@@V?$positional_parameter_base@_WV?$stream_output_adapter@_W@__crt_stdio_output@@@2@@__crt_stdio_output@@AAE_NXZ@PAU1?1??234@AAE_NXZ@@?$positional_parameter_base@_WV?$stream_output_adapter@_W@__crt_stdio_output@@@__crt_stdio_output@@IAE_NAAPAUansi_string@?1??type_case_Z@?$output_processor@_WV?$stream_output_adapter@_W@__crt_stdio_output@@V?$positional_parameter_base@_WV?$stream_output_adapter@_W@__crt_stdio_output@@@2@@1@AAE_NXZ@@Z 1002a5c0 f i libucrtd:output.obj
 0001:000296f0       ??$extract_argument_from_va_list@PAUansi_string@?1??type_case_Z@?$output_processor@_WV?$stream_output_adapter@_W@__crt_stdio_output@@V?$positional_parameter_base@_WV?$stream_output_adapter@_W@__crt_stdio_output@@@2@@__crt_stdio_output@@AAE_NXZ@PAU1?1??234@AAE_NXZ@@?$standard_base@_WV?$stream_output_adapter@_W@__crt_stdio_output@@@__crt_stdio_output@@IAE_NAAPAUansi_string@?1??type_case_Z@?$output_processor@_WV?$stream_output_adapter@_W@__crt_stdio_output@@V?$positional_parameter_base@_WV?$stream_output_adapter@_W@__crt_stdio_output@@@2@@1@AAE_NXZ@@Z 1002a6f0 f i libucrtd:output.obj
 0001:00029720       ??$extract_argument_from_va_list@PAUansi_string@?1??type_case_Z@?$output_processor@_WV?$stream_output_adapter@_W@__crt_stdio_output@@V?$standard_base@_WV?$stream_output_adapter@_W@__crt_stdio_output@@@2@@__crt_stdio_output@@AAE_NXZ@PAU1?1??234@AAE_NXZ@@?$standard_base@_WV?$stream_output_adapter@_W@__crt_stdio_output@@@__crt_stdio_output@@IAE_NAAPAUansi_string@?1??type_case_Z@?$output_processor@_WV?$stream_output_adapter@_W@__crt_stdio_output@@V?$standard_base@_WV?$stream_output_adapter@_W@__crt_stdio_output@@@2@@1@AAE_NXZ@@Z 1002a720 f i libucrtd:output.obj
 0001:00029750       ??$extract_argument_from_va_list@PAUansi_string@?1??type_case_Z@?$output_processor@_WV?$string_output_adapter@_W@__crt_stdio_output@@V?$format_validation_base@_WV?$string_output_adapter@_W@__crt_stdio_output@@@2@@__crt_stdio_output@@AAE_NXZ@PAU1?1??234@AAE_NXZ@@?$standard_base@_WV?$string_output_adapter@_W@__crt_stdio_output@@@__crt_stdio_output@@IAE_NAAPAUansi_string@?1??type_case_Z@?$output_processor@_WV?$string_output_adapter@_W@__crt_stdio_output@@V?$format_validation_base@_WV?$string_output_adapter@_W@__crt_stdio_output@@@2@@1@AAE_NXZ@@Z 1002a750 f i libucrtd:output.obj
 0001:00029780       ??$extract_argument_from_va_list@PAUansi_string@?1??type_case_Z@?$output_processor@_WV?$string_output_adapter@_W@__crt_stdio_output@@V?$positional_parameter_base@_WV?$string_output_adapter@_W@__crt_stdio_output@@@2@@__crt_stdio_output@@AAE_NXZ@PAU1?1??234@AAE_NXZ@@?$positional_parameter_base@_WV?$string_output_adapter@_W@__crt_stdio_output@@@__crt_stdio_output@@IAE_NAAPAUansi_string@?1??type_case_Z@?$output_processor@_WV?$string_output_adapter@_W@__crt_stdio_output@@V?$positional_parameter_base@_WV?$string_output_adapter@_W@__crt_stdio_output@@@2@@1@AAE_NXZ@@Z 1002a780 f i libucrtd:output.obj
 0001:000298b0       ??$extract_argument_from_va_list@PAUansi_string@?1??type_case_Z@?$output_processor@_WV?$string_output_adapter@_W@__crt_stdio_output@@V?$positional_parameter_base@_WV?$string_output_adapter@_W@__crt_stdio_output@@@2@@__crt_stdio_output@@AAE_NXZ@PAU1?1??234@AAE_NXZ@@?$standard_base@_WV?$string_output_adapter@_W@__crt_stdio_output@@@__crt_stdio_output@@IAE_NAAPAUansi_string@?1??type_case_Z@?$output_processor@_WV?$string_output_adapter@_W@__crt_stdio_output@@V?$positional_parameter_base@_WV?$string_output_adapter@_W@__crt_stdio_output@@@2@@1@AAE_NXZ@@Z 1002a8b0 f i libucrtd:output.obj
 0001:000298e0       ??$extract_argument_from_va_list@PAUansi_string@?1??type_case_Z@?$output_processor@_WV?$string_output_adapter@_W@__crt_stdio_output@@V?$standard_base@_WV?$string_output_adapter@_W@__crt_stdio_output@@@2@@__crt_stdio_output@@AAE_NXZ@PAU1?1??234@AAE_NXZ@@?$standard_base@_WV?$string_output_adapter@_W@__crt_stdio_output@@@__crt_stdio_output@@IAE_NAAPAUansi_string@?1??type_case_Z@?$output_processor@_WV?$string_output_adapter@_W@__crt_stdio_output@@V?$standard_base@_WV?$string_output_adapter@_W@__crt_stdio_output@@@2@@1@AAE_NXZ@@Z 1002a8e0 f i libucrtd:output.obj
 0001:00029910       ??$extract_argument_from_va_list@PAXPAX@?$positional_parameter_base@DV?$stream_output_adapter@D@__crt_stdio_output@@@__crt_stdio_output@@IAE_NAAPAX@Z 1002a910 f i libucrtd:output.obj
 0001:00029a40       ??$extract_argument_from_va_list@PAXPAX@?$positional_parameter_base@DV?$string_output_adapter@D@__crt_stdio_output@@@__crt_stdio_output@@IAE_NAAPAX@Z 1002aa40 f i libucrtd:output.obj
 0001:00029b70       ??$extract_argument_from_va_list@PAXPAX@?$positional_parameter_base@_WV?$stream_output_adapter@_W@__crt_stdio_output@@@__crt_stdio_output@@IAE_NAAPAX@Z 1002ab70 f i libucrtd:output.obj
 0001:00029ca0       ??$extract_argument_from_va_list@PAXPAX@?$positional_parameter_base@_WV?$string_output_adapter@_W@__crt_stdio_output@@@__crt_stdio_output@@IAE_NAAPAX@Z 1002aca0 f i libucrtd:output.obj
 0001:00029dd0       ??$extract_argument_from_va_list@PAXPAX@?$standard_base@DV?$stream_output_adapter@D@__crt_stdio_output@@@__crt_stdio_output@@IAE_NAAPAX@Z 1002add0 f i libucrtd:output.obj
 0001:00029e00       ??$extract_argument_from_va_list@PAXPAX@?$standard_base@DV?$string_output_adapter@D@__crt_stdio_output@@@__crt_stdio_output@@IAE_NAAPAX@Z 1002ae00 f i libucrtd:output.obj
 0001:00029e30       ??$extract_argument_from_va_list@PAXPAX@?$standard_base@_WV?$stream_output_adapter@_W@__crt_stdio_output@@@__crt_stdio_output@@IAE_NAAPAX@Z 1002ae30 f i libucrtd:output.obj
 0001:00029e60       ??$extract_argument_from_va_list@PAXPAX@?$standard_base@_WV?$string_output_adapter@_W@__crt_stdio_output@@@__crt_stdio_output@@IAE_NAAPAX@Z 1002ae60 f i libucrtd:output.obj
 0001:00029e90       ??$extract_argument_from_va_list@U_CRT_DOUBLE@@U1@@?$positional_parameter_base@DV?$stream_output_adapter@D@__crt_stdio_output@@@__crt_stdio_output@@IAE_NAAU_CRT_DOUBLE@@@Z 1002ae90 f i libucrtd:output.obj
 0001:00029ff0       ??$extract_argument_from_va_list@U_CRT_DOUBLE@@U1@@?$positional_parameter_base@DV?$string_output_adapter@D@__crt_stdio_output@@@__crt_stdio_output@@IAE_NAAU_CRT_DOUBLE@@@Z 1002aff0 f i libucrtd:output.obj
 0001:0002a150       ??$extract_argument_from_va_list@U_CRT_DOUBLE@@U1@@?$positional_parameter_base@_WV?$stream_output_adapter@_W@__crt_stdio_output@@@__crt_stdio_output@@IAE_NAAU_CRT_DOUBLE@@@Z 1002b150 f i libucrtd:output.obj
 0001:0002a2b0       ??$extract_argument_from_va_list@U_CRT_DOUBLE@@U1@@?$positional_parameter_base@_WV?$string_output_adapter@_W@__crt_stdio_output@@@__crt_stdio_output@@IAE_NAAU_CRT_DOUBLE@@@Z 1002b2b0 f i libucrtd:output.obj
 0001:0002a410       ??$extract_argument_from_va_list@U_CRT_DOUBLE@@U1@@?$standard_base@DV?$stream_output_adapter@D@__crt_stdio_output@@@__crt_stdio_output@@IAE_NAAU_CRT_DOUBLE@@@Z 1002b410 f i libucrtd:output.obj
 0001:0002a460       ??$extract_argument_from_va_list@U_CRT_DOUBLE@@U1@@?$standard_base@DV?$string_output_adapter@D@__crt_stdio_output@@@__crt_stdio_output@@IAE_NAAU_CRT_DOUBLE@@@Z 1002b460 f i libucrtd:output.obj
 0001:0002a4b0       ??$extract_argument_from_va_list@U_CRT_DOUBLE@@U1@@?$standard_base@_WV?$stream_output_adapter@_W@__crt_stdio_output@@@__crt_stdio_output@@IAE_NAAU_CRT_DOUBLE@@@Z 1002b4b0 f i libucrtd:output.obj
 0001:0002a500       ??$extract_argument_from_va_list@U_CRT_DOUBLE@@U1@@?$standard_base@_WV?$string_output_adapter@_W@__crt_stdio_output@@@__crt_stdio_output@@IAE_NAAU_CRT_DOUBLE@@@Z 1002b500 f i libucrtd:output.obj
 0001:0002a550       ??$extract_argument_from_va_list@_J_J@?$positional_parameter_base@DV?$stream_output_adapter@D@__crt_stdio_output@@@__crt_stdio_output@@IAE_NAA_J@Z 1002b550 f i libucrtd:output.obj
 0001:0002a680       ??$extract_argument_from_va_list@_J_J@?$positional_parameter_base@DV?$string_output_adapter@D@__crt_stdio_output@@@__crt_stdio_output@@IAE_NAA_J@Z 1002b680 f i libucrtd:output.obj
 0001:0002a7b0       ??$extract_argument_from_va_list@_J_J@?$positional_parameter_base@_WV?$stream_output_adapter@_W@__crt_stdio_output@@@__crt_stdio_output@@IAE_NAA_J@Z 1002b7b0 f i libucrtd:output.obj
 0001:0002a8e0       ??$extract_argument_from_va_list@_J_J@?$positional_parameter_base@_WV?$string_output_adapter@_W@__crt_stdio_output@@@__crt_stdio_output@@IAE_NAA_J@Z 1002b8e0 f i libucrtd:output.obj
 0001:0002aa10       ??$extract_argument_from_va_list@_J_J@?$standard_base@DV?$stream_output_adapter@D@__crt_stdio_output@@@__crt_stdio_output@@IAE_NAA_J@Z 1002ba10 f i libucrtd:output.obj
 0001:0002aa40       ??$extract_argument_from_va_list@_J_J@?$standard_base@DV?$string_output_adapter@D@__crt_stdio_output@@@__crt_stdio_output@@IAE_NAA_J@Z 1002ba40 f i libucrtd:output.obj
 0001:0002aa70       ??$extract_argument_from_va_list@_J_J@?$standard_base@_WV?$stream_output_adapter@_W@__crt_stdio_output@@@__crt_stdio_output@@IAE_NAA_J@Z 1002ba70 f i libucrtd:output.obj
 0001:0002aaa0       ??$extract_argument_from_va_list@_J_J@?$standard_base@_WV?$string_output_adapter@_W@__crt_stdio_output@@@__crt_stdio_output@@IAE_NAA_J@Z 1002baa0 f i libucrtd:output.obj
 0001:0002aad0       ??$extract_argument_from_va_list@_K_J@?$positional_parameter_base@DV?$stream_output_adapter@D@__crt_stdio_output@@@__crt_stdio_output@@IAE_NAA_J@Z 1002bad0 f i libucrtd:output.obj
 0001:0002ac00       ??$extract_argument_from_va_list@_K_J@?$positional_parameter_base@DV?$string_output_adapter@D@__crt_stdio_output@@@__crt_stdio_output@@IAE_NAA_J@Z 1002bc00 f i libucrtd:output.obj
 0001:0002ad30       ??$extract_argument_from_va_list@_K_J@?$positional_parameter_base@_WV?$stream_output_adapter@_W@__crt_stdio_output@@@__crt_stdio_output@@IAE_NAA_J@Z 1002bd30 f i libucrtd:output.obj
 0001:0002ae60       ??$extract_argument_from_va_list@_K_J@?$positional_parameter_base@_WV?$string_output_adapter@_W@__crt_stdio_output@@@__crt_stdio_output@@IAE_NAA_J@Z 1002be60 f i libucrtd:output.obj
 0001:0002af90       ??$extract_argument_from_va_list@_K_J@?$standard_base@DV?$stream_output_adapter@D@__crt_stdio_output@@@__crt_stdio_output@@IAE_NAA_J@Z 1002bf90 f i libucrtd:output.obj
 0001:0002afc0       ??$extract_argument_from_va_list@_K_J@?$standard_base@DV?$string_output_adapter@D@__crt_stdio_output@@@__crt_stdio_output@@IAE_NAA_J@Z 1002bfc0 f i libucrtd:output.obj
 0001:0002aff0       ??$extract_argument_from_va_list@_K_J@?$standard_base@_WV?$stream_output_adapter@_W@__crt_stdio_output@@@__crt_stdio_output@@IAE_NAA_J@Z 1002bff0 f i libucrtd:output.obj
 0001:0002b020       ??$extract_argument_from_va_list@_K_J@?$standard_base@_WV?$string_output_adapter@_W@__crt_stdio_output@@@__crt_stdio_output@@IAE_NAA_J@Z 1002c020 f i libucrtd:output.obj
 0001:0002b050       ??$extract_argument_from_va_list@_W_W@?$positional_parameter_base@DV?$stream_output_adapter@D@__crt_stdio_output@@@__crt_stdio_output@@IAE_NAA_W@Z 1002c050 f i libucrtd:output.obj
 0001:0002b180       ??$extract_argument_from_va_list@_W_W@?$positional_parameter_base@DV?$string_output_adapter@D@__crt_stdio_output@@@__crt_stdio_output@@IAE_NAA_W@Z 1002c180 f i libucrtd:output.obj
 0001:0002b2b0       ??$extract_argument_from_va_list@_W_W@?$positional_parameter_base@_WV?$stream_output_adapter@_W@__crt_stdio_output@@@__crt_stdio_output@@IAE_NAA_W@Z 1002c2b0 f i libucrtd:output.obj
 0001:0002b3e0       ??$extract_argument_from_va_list@_W_W@?$positional_parameter_base@_WV?$string_output_adapter@_W@__crt_stdio_output@@@__crt_stdio_output@@IAE_NAA_W@Z 1002c3e0 f i libucrtd:output.obj
 0001:0002b510       ??$extract_argument_from_va_list@_W_W@?$standard_base@DV?$stream_output_adapter@D@__crt_stdio_output@@@__crt_stdio_output@@IAE_NAA_W@Z 1002c510 f i libucrtd:output.obj
 0001:0002b540       ??$extract_argument_from_va_list@_W_W@?$standard_base@DV?$string_output_adapter@D@__crt_stdio_output@@@__crt_stdio_output@@IAE_NAA_W@Z 1002c540 f i libucrtd:output.obj
 0001:0002b570       ??$extract_argument_from_va_list@_W_W@?$standard_base@_WV?$stream_output_adapter@_W@__crt_stdio_output@@@__crt_stdio_output@@IAE_NAA_W@Z 1002c570 f i libucrtd:output.obj
 0001:0002b5a0       ??$extract_argument_from_va_list@_W_W@?$standard_base@_WV?$string_output_adapter@_W@__crt_stdio_output@@@__crt_stdio_output@@IAE_NAA_W@Z 1002c5a0 f i libucrtd:output.obj
 0001:0002b5d0       ??$get_parameter_type@D@?$positional_parameter_base@DV?$stream_output_adapter@D@__crt_stdio_output@@@__crt_stdio_output@@CA?AW4parameter_type@01@PAD@Z 1002c5d0 f i libucrtd:output.obj
 0001:0002b5e0       ??$get_parameter_type@D@?$positional_parameter_base@DV?$string_output_adapter@D@__crt_stdio_output@@@__crt_stdio_output@@CA?AW4parameter_type@01@PAD@Z 1002c5e0 f i libucrtd:output.obj
 0001:0002b5f0       ??$get_parameter_type@D@?$positional_parameter_base@_WV?$stream_output_adapter@_W@__crt_stdio_output@@@__crt_stdio_output@@CA?AW4parameter_type@01@PAD@Z 1002c5f0 f i libucrtd:output.obj
 0001:0002b600       ??$get_parameter_type@D@?$positional_parameter_base@_WV?$string_output_adapter@_W@__crt_stdio_output@@@__crt_stdio_output@@CA?AW4parameter_type@01@PAD@Z 1002c600 f i libucrtd:output.obj
 0001:0002b610       ??$get_parameter_type@Uansi_string@?1??type_case_Z@?$output_processor@DV?$stream_output_adapter@D@__crt_stdio_output@@V?$positional_parameter_base@DV?$stream_output_adapter@D@__crt_stdio_output@@@2@@__crt_stdio_output@@AAE_NXZ@@?$positional_parameter_base@DV?$stream_output_adapter@D@__crt_stdio_output@@@__crt_stdio_output@@CA?AW4parameter_type@01@PAUansi_string@?1??type_case_Z@?$output_processor@DV?$stream_output_adapter@D@__crt_stdio_output@@V?$positional_parameter_base@DV?$stream_output_adapter@D@__crt_stdio_output@@@2@@1@AAE_NXZ@@Z 1002c610 f i libucrtd:output.obj
 0001:0002b620       ??$get_parameter_type@Uansi_string@?1??type_case_Z@?$output_processor@DV?$string_output_adapter@D@__crt_stdio_output@@V?$positional_parameter_base@DV?$string_output_adapter@D@__crt_stdio_output@@@2@@__crt_stdio_output@@AAE_NXZ@@?$positional_parameter_base@DV?$string_output_adapter@D@__crt_stdio_output@@@__crt_stdio_output@@CA?AW4parameter_type@01@PAUansi_string@?1??type_case_Z@?$output_processor@DV?$string_output_adapter@D@__crt_stdio_output@@V?$positional_parameter_base@DV?$string_output_adapter@D@__crt_stdio_output@@@2@@1@AAE_NXZ@@Z 1002c620 f i libucrtd:output.obj
 0001:0002b630       ??$get_parameter_type@Uansi_string@?1??type_case_Z@?$output_processor@_WV?$stream_output_adapter@_W@__crt_stdio_output@@V?$positional_parameter_base@_WV?$stream_output_adapter@_W@__crt_stdio_output@@@2@@__crt_stdio_output@@AAE_NXZ@@?$positional_parameter_base@_WV?$stream_output_adapter@_W@__crt_stdio_output@@@__crt_stdio_output@@CA?AW4parameter_type@01@PAUansi_string@?1??type_case_Z@?$output_processor@_WV?$stream_output_adapter@_W@__crt_stdio_output@@V?$positional_parameter_base@_WV?$stream_output_adapter@_W@__crt_stdio_output@@@2@@1@AAE_NXZ@@Z 1002c630 f i libucrtd:output.obj
 0001:0002b640       ??$get_parameter_type@Uansi_string@?1??type_case_Z@?$output_processor@_WV?$string_output_adapter@_W@__crt_stdio_output@@V?$positional_parameter_base@_WV?$string_output_adapter@_W@__crt_stdio_output@@@2@@__crt_stdio_output@@AAE_NXZ@@?$positional_parameter_base@_WV?$string_output_adapter@_W@__crt_stdio_output@@@__crt_stdio_output@@CA?AW4parameter_type@01@PAUansi_string@?1??type_case_Z@?$output_processor@_WV?$string_output_adapter@_W@__crt_stdio_output@@V?$positional_parameter_base@_WV?$string_output_adapter@_W@__crt_stdio_output@@@2@@1@AAE_NXZ@@Z 1002c640 f i libucrtd:output.obj
 0001:0002b650       ??$get_parameter_type@X@?$positional_parameter_base@DV?$stream_output_adapter@D@__crt_stdio_output@@@__crt_stdio_output@@CA?AW4parameter_type@01@PAX@Z 1002c650 f i libucrtd:output.obj
 0001:0002b660       ??$get_parameter_type@X@?$positional_parameter_base@DV?$string_output_adapter@D@__crt_stdio_output@@@__crt_stdio_output@@CA?AW4parameter_type@01@PAX@Z 1002c660 f i libucrtd:output.obj
 0001:0002b670       ??$get_parameter_type@X@?$positional_parameter_base@_WV?$stream_output_adapter@_W@__crt_stdio_output@@@__crt_stdio_output@@CA?AW4parameter_type@01@PAX@Z 1002c670 f i libucrtd:output.obj
 0001:0002b680       ??$get_parameter_type@X@?$positional_parameter_base@_WV?$string_output_adapter@_W@__crt_stdio_output@@@__crt_stdio_output@@CA?AW4parameter_type@01@PAX@Z 1002c680 f i libucrtd:output.obj
 0001:0002b690       ??$is_character_specifier@D@?$positional_parameter_base@DV?$stream_output_adapter@D@__crt_stdio_output@@@__crt_stdio_output@@CA_ND@Z 1002c690 f i libucrtd:output.obj
 0001:0002b6c0       ??$is_character_specifier@D@?$positional_parameter_base@DV?$string_output_adapter@D@__crt_stdio_output@@@__crt_stdio_output@@CA_ND@Z 1002c6c0 f i libucrtd:output.obj
 0001:0002b6f0       ??$is_character_specifier@_W@?$positional_parameter_base@_WV?$stream_output_adapter@_W@__crt_stdio_output@@@__crt_stdio_output@@CA_N_W@Z 1002c6f0 f i libucrtd:output.obj
 0001:0002b720       ??$is_character_specifier@_W@?$positional_parameter_base@_WV?$string_output_adapter@_W@__crt_stdio_output@@@__crt_stdio_output@@CA_N_W@Z 1002c720 f i libucrtd:output.obj
 0001:0002b750       ??$is_integral_specifier@D@?$positional_parameter_base@DV?$stream_output_adapter@D@__crt_stdio_output@@@__crt_stdio_output@@CA_ND@Z 1002c750 f i libucrtd:output.obj
 0001:0002b7b0       ??$is_integral_specifier@D@?$positional_parameter_base@DV?$string_output_adapter@D@__crt_stdio_output@@@__crt_stdio_output@@CA_ND@Z 1002c7b0 f i libucrtd:output.obj
 0001:0002b810       ??$is_integral_specifier@_W@?$positional_parameter_base@_WV?$stream_output_adapter@_W@__crt_stdio_output@@@__crt_stdio_output@@CA_N_W@Z 1002c810 f i libucrtd:output.obj
 0001:0002b870       ??$is_integral_specifier@_W@?$positional_parameter_base@_WV?$string_output_adapter@_W@__crt_stdio_output@@@__crt_stdio_output@@CA_N_W@Z 1002c870 f i libucrtd:output.obj
 0001:0002b8d0       ??$is_pointer_specifier@D@?$positional_parameter_base@DV?$stream_output_adapter@D@__crt_stdio_output@@@__crt_stdio_output@@CA_ND@Z 1002c8d0 f i libucrtd:output.obj
 0001:0002b900       ??$is_pointer_specifier@D@?$positional_parameter_base@DV?$string_output_adapter@D@__crt_stdio_output@@@__crt_stdio_output@@CA_ND@Z 1002c900 f i libucrtd:output.obj
 0001:0002b930       ??$is_pointer_specifier@_W@?$positional_parameter_base@_WV?$stream_output_adapter@_W@__crt_stdio_output@@@__crt_stdio_output@@CA_N_W@Z 1002c930 f i libucrtd:output.obj
 0001:0002b960       ??$is_pointer_specifier@_W@?$positional_parameter_base@_WV?$string_output_adapter@_W@__crt_stdio_output@@@__crt_stdio_output@@CA_N_W@Z 1002c960 f i libucrtd:output.obj
 0001:0002b990       ??$is_string_specifier@D@?$positional_parameter_base@DV?$stream_output_adapter@D@__crt_stdio_output@@@__crt_stdio_output@@CA_ND@Z 1002c990 f i libucrtd:output.obj
 0001:0002b9c0       ??$is_string_specifier@D@?$positional_parameter_base@DV?$string_output_adapter@D@__crt_stdio_output@@@__crt_stdio_output@@CA_ND@Z 1002c9c0 f i libucrtd:output.obj
 0001:0002b9f0       ??$is_string_specifier@_W@?$positional_parameter_base@_WV?$stream_output_adapter@_W@__crt_stdio_output@@@__crt_stdio_output@@CA_N_W@Z 1002c9f0 f i libucrtd:output.obj
 0001:0002ba20       ??$is_string_specifier@_W@?$positional_parameter_base@_WV?$string_output_adapter@_W@__crt_stdio_output@@@__crt_stdio_output@@CA_N_W@Z 1002ca20 f i libucrtd:output.obj
 0001:0002ba50       ??$is_wide_character_specifier@D@__crt_stdio_output@@YA_N_KDW4length_modifier@0@@Z 1002ca50 f i libucrtd:output.obj
 0001:0002bad0       ??$is_wide_character_specifier@_W@__crt_stdio_output@@YA_N_K_WW4length_modifier@0@@Z 1002cad0 f i libucrtd:output.obj
 0001:0002bb90       ??$peek_va_arg@C@__crt_stdio_output@@YACPAD@Z 1002cb90 f i libucrtd:output.obj
 0001:0002bbb0       ??$peek_va_arg@E@__crt_stdio_output@@YAEPAD@Z 1002cbb0 f i libucrtd:output.obj
 0001:0002bbd0       ??$peek_va_arg@F@__crt_stdio_output@@YAFPAD@Z 1002cbd0 f i libucrtd:output.obj
 0001:0002bbf0       ??$peek_va_arg@G@__crt_stdio_output@@YAGPAD@Z 1002cbf0 f i libucrtd:output.obj
 0001:0002bc10       ??$peek_va_arg@H@__crt_stdio_output@@YAHPAD@Z 1002cc10 f i libucrtd:output.obj
 0001:0002bc30       ??$peek_va_arg@I@__crt_stdio_output@@YAIPAD@Z 1002cc30 f i libucrtd:output.obj
 0001:0002bc50       ??$peek_va_arg@PAD@__crt_stdio_output@@YAPADPAD@Z 1002cc50 f i libucrtd:output.obj
 0001:0002bc70       ??$peek_va_arg@PAUansi_string@?1??type_case_Z@?$output_processor@DV?$stream_output_adapter@D@__crt_stdio_output@@V?$positional_parameter_base@DV?$stream_output_adapter@D@__crt_stdio_output@@@2@@__crt_stdio_output@@AAE_NXZ@@__crt_stdio_output@@YAPAUansi_string@?1??type_case_Z@?$output_processor@DV?$stream_output_adapter@D@__crt_stdio_output@@V?$positional_parameter_base@DV?$stream_output_adapter@D@__crt_stdio_output@@@2@@0@AAE_NXZ@PAD@Z 1002cc70 f i libucrtd:output.obj
 0001:0002bc90       ??$peek_va_arg@PAUansi_string@?1??type_case_Z@?$output_processor@DV?$string_output_adapter@D@__crt_stdio_output@@V?$positional_parameter_base@DV?$string_output_adapter@D@__crt_stdio_output@@@2@@__crt_stdio_output@@AAE_NXZ@@__crt_stdio_output@@YAPAUansi_string@?1??type_case_Z@?$output_processor@DV?$string_output_adapter@D@__crt_stdio_output@@V?$positional_parameter_base@DV?$string_output_adapter@D@__crt_stdio_output@@@2@@0@AAE_NXZ@PAD@Z 1002cc90 f i libucrtd:output.obj
 0001:0002bcb0       ??$peek_va_arg@PAUansi_string@?1??type_case_Z@?$output_processor@_WV?$stream_output_adapter@_W@__crt_stdio_output@@V?$positional_parameter_base@_WV?$stream_output_adapter@_W@__crt_stdio_output@@@2@@__crt_stdio_output@@AAE_NXZ@@__crt_stdio_output@@YAPAUansi_string@?1??type_case_Z@?$output_processor@_WV?$stream_output_adapter@_W@__crt_stdio_output@@V?$positional_parameter_base@_WV?$stream_output_adapter@_W@__crt_stdio_output@@@2@@0@AAE_NXZ@PAD@Z 1002ccb0 f i libucrtd:output.obj
 0001:0002bcd0       ??$peek_va_arg@PAUansi_string@?1??type_case_Z@?$output_processor@_WV?$string_output_adapter@_W@__crt_stdio_output@@V?$positional_parameter_base@_WV?$string_output_adapter@_W@__crt_stdio_output@@@2@@__crt_stdio_output@@AAE_NXZ@@__crt_stdio_output@@YAPAUansi_string@?1??type_case_Z@?$output_processor@_WV?$string_output_adapter@_W@__crt_stdio_output@@V?$positional_parameter_base@_WV?$string_output_adapter@_W@__crt_stdio_output@@@2@@0@AAE_NXZ@PAD@Z 1002ccd0 f i libucrtd:output.obj
 0001:0002bcf0       ??$peek_va_arg@PAX@__crt_stdio_output@@YAPAXPAD@Z 1002ccf0 f i libucrtd:output.obj
 0001:0002bd10       ??$peek_va_arg@U_CRT_DOUBLE@@@__crt_stdio_output@@YA?AU_CRT_DOUBLE@@PAD@Z 1002cd10 f i libucrtd:output.obj
 0001:0002bd30       ??$peek_va_arg@_J@__crt_stdio_output@@YA_JPAD@Z 1002cd30 f i libucrtd:output.obj
 0001:0002bd50       ??$peek_va_arg@_K@__crt_stdio_output@@YA_KPAD@Z 1002cd50 f i libucrtd:output.obj
 0001:0002bd70       ??$peek_va_arg@_W@__crt_stdio_output@@YA_WPAD@Z 1002cd70 f i libucrtd:output.obj
 0001:0002bd90       ??$puttc_nolock@ABDPAU_iobuf@@@?$__crt_char_traits@D@@SAHABD$$QAPAU_iobuf@@@Z 1002cd90 f i libucrtd:output.obj
 0001:0002bdb0       ??$puttc_nolock@AB_WPAU_iobuf@@@?$__crt_char_traits@_W@@SAGAB_W$$QAPAU_iobuf@@@Z 1002cdb0 f i libucrtd:output.obj
 0001:0002bdd0       ??$read_va_arg@C@__crt_stdio_output@@YACAAPAD@Z 1002cdd0 f i libucrtd:output.obj
 0001:0002bdf0       ??$read_va_arg@E@__crt_stdio_output@@YAEAAPAD@Z 1002cdf0 f i libucrtd:output.obj
 0001:0002be10       ??$read_va_arg@F@__crt_stdio_output@@YAFAAPAD@Z 1002ce10 f i libucrtd:output.obj
 0001:0002be30       ??$read_va_arg@G@__crt_stdio_output@@YAGAAPAD@Z 1002ce30 f i libucrtd:output.obj
 0001:0002be50       ??$read_va_arg@H@__crt_stdio_output@@YAHAAPAD@Z 1002ce50 f i libucrtd:output.obj
 0001:0002be70       ??$read_va_arg@I@__crt_stdio_output@@YAIAAPAD@Z 1002ce70 f i libucrtd:output.obj
 0001:0002be90       ??$read_va_arg@PAD@__crt_stdio_output@@YAPADAAPAD@Z 1002ce90 f i libucrtd:output.obj
 0001:0002beb0       ??$read_va_arg@PAUansi_string@?1??type_case_Z@?$output_processor@DV?$stream_output_adapter@D@__crt_stdio_output@@V?$format_validation_base@DV?$stream_output_adapter@D@__crt_stdio_output@@@2@@__crt_stdio_output@@AAE_NXZ@@__crt_stdio_output@@YAPAUansi_string@?1??type_case_Z@?$output_processor@DV?$stream_output_adapter@D@__crt_stdio_output@@V?$format_validation_base@DV?$stream_output_adapter@D@__crt_stdio_output@@@2@@0@AAE_NXZ@AAPAD@Z 1002ceb0 f i libucrtd:output.obj
 0001:0002bed0       ??$read_va_arg@PAUansi_string@?1??type_case_Z@?$output_processor@DV?$stream_output_adapter@D@__crt_stdio_output@@V?$positional_parameter_base@DV?$stream_output_adapter@D@__crt_stdio_output@@@2@@__crt_stdio_output@@AAE_NXZ@@__crt_stdio_output@@YAPAUansi_string@?1??type_case_Z@?$output_processor@DV?$stream_output_adapter@D@__crt_stdio_output@@V?$positional_parameter_base@DV?$stream_output_adapter@D@__crt_stdio_output@@@2@@0@AAE_NXZ@AAPAD@Z 1002ced0 f i libucrtd:output.obj
 0001:0002bef0       ??$read_va_arg@PAUansi_string@?1??type_case_Z@?$output_processor@DV?$stream_output_adapter@D@__crt_stdio_output@@V?$standard_base@DV?$stream_output_adapter@D@__crt_stdio_output@@@2@@__crt_stdio_output@@AAE_NXZ@@__crt_stdio_output@@YAPAUansi_string@?1??type_case_Z@?$output_processor@DV?$stream_output_adapter@D@__crt_stdio_output@@V?$standard_base@DV?$stream_output_adapter@D@__crt_stdio_output@@@2@@0@AAE_NXZ@AAPAD@Z 1002cef0 f i libucrtd:output.obj
 0001:0002bf10       ??$read_va_arg@PAUansi_string@?1??type_case_Z@?$output_processor@DV?$string_output_adapter@D@__crt_stdio_output@@V?$format_validation_base@DV?$string_output_adapter@D@__crt_stdio_output@@@2@@__crt_stdio_output@@AAE_NXZ@@__crt_stdio_output@@YAPAUansi_string@?1??type_case_Z@?$output_processor@DV?$string_output_adapter@D@__crt_stdio_output@@V?$format_validation_base@DV?$string_output_adapter@D@__crt_stdio_output@@@2@@0@AAE_NXZ@AAPAD@Z 1002cf10 f i libucrtd:output.obj
 0001:0002bf30       ??$read_va_arg@PAUansi_string@?1??type_case_Z@?$output_processor@DV?$string_output_adapter@D@__crt_stdio_output@@V?$positional_parameter_base@DV?$string_output_adapter@D@__crt_stdio_output@@@2@@__crt_stdio_output@@AAE_NXZ@@__crt_stdio_output@@YAPAUansi_string@?1??type_case_Z@?$output_processor@DV?$string_output_adapter@D@__crt_stdio_output@@V?$positional_parameter_base@DV?$string_output_adapter@D@__crt_stdio_output@@@2@@0@AAE_NXZ@AAPAD@Z 1002cf30 f i libucrtd:output.obj
 0001:0002bf50       ??$read_va_arg@PAUansi_string@?1??type_case_Z@?$output_processor@DV?$string_output_adapter@D@__crt_stdio_output@@V?$standard_base@DV?$string_output_adapter@D@__crt_stdio_output@@@2@@__crt_stdio_output@@AAE_NXZ@@__crt_stdio_output@@YAPAUansi_string@?1??type_case_Z@?$output_processor@DV?$string_output_adapter@D@__crt_stdio_output@@V?$standard_base@DV?$string_output_adapter@D@__crt_stdio_output@@@2@@0@AAE_NXZ@AAPAD@Z 1002cf50 f i libucrtd:output.obj
 0001:0002bf70       ??$read_va_arg@PAUansi_string@?1??type_case_Z@?$output_processor@_WV?$stream_output_adapter@_W@__crt_stdio_output@@V?$format_validation_base@_WV?$stream_output_adapter@_W@__crt_stdio_output@@@2@@__crt_stdio_output@@AAE_NXZ@@__crt_stdio_output@@YAPAUansi_string@?1??type_case_Z@?$output_processor@_WV?$stream_output_adapter@_W@__crt_stdio_output@@V?$format_validation_base@_WV?$stream_output_adapter@_W@__crt_stdio_output@@@2@@0@AAE_NXZ@AAPAD@Z 1002cf70 f i libucrtd:output.obj
 0001:0002bf90       ??$read_va_arg@PAUansi_string@?1??type_case_Z@?$output_processor@_WV?$stream_output_adapter@_W@__crt_stdio_output@@V?$positional_parameter_base@_WV?$stream_output_adapter@_W@__crt_stdio_output@@@2@@__crt_stdio_output@@AAE_NXZ@@__crt_stdio_output@@YAPAUansi_string@?1??type_case_Z@?$output_processor@_WV?$stream_output_adapter@_W@__crt_stdio_output@@V?$positional_parameter_base@_WV?$stream_output_adapter@_W@__crt_stdio_output@@@2@@0@AAE_NXZ@AAPAD@Z 1002cf90 f i libucrtd:output.obj
 0001:0002bfb0       ??$read_va_arg@PAUansi_string@?1??type_case_Z@?$output_processor@_WV?$stream_output_adapter@_W@__crt_stdio_output@@V?$standard_base@_WV?$stream_output_adapter@_W@__crt_stdio_output@@@2@@__crt_stdio_output@@AAE_NXZ@@__crt_stdio_output@@YAPAUansi_string@?1??type_case_Z@?$output_processor@_WV?$stream_output_adapter@_W@__crt_stdio_output@@V?$standard_base@_WV?$stream_output_adapter@_W@__crt_stdio_output@@@2@@0@AAE_NXZ@AAPAD@Z 1002cfb0 f i libucrtd:output.obj
 0001:0002bfd0       ??$read_va_arg@PAUansi_string@?1??type_case_Z@?$output_processor@_WV?$string_output_adapter@_W@__crt_stdio_output@@V?$format_validation_base@_WV?$string_output_adapter@_W@__crt_stdio_output@@@2@@__crt_stdio_output@@AAE_NXZ@@__crt_stdio_output@@YAPAUansi_string@?1??type_case_Z@?$output_processor@_WV?$string_output_adapter@_W@__crt_stdio_output@@V?$format_validation_base@_WV?$string_output_adapter@_W@__crt_stdio_output@@@2@@0@AAE_NXZ@AAPAD@Z 1002cfd0 f i libucrtd:output.obj
 0001:0002bff0       ??$read_va_arg@PAUansi_string@?1??type_case_Z@?$output_processor@_WV?$string_output_adapter@_W@__crt_stdio_output@@V?$positional_parameter_base@_WV?$string_output_adapter@_W@__crt_stdio_output@@@2@@__crt_stdio_output@@AAE_NXZ@@__crt_stdio_output@@YAPAUansi_string@?1??type_case_Z@?$output_processor@_WV?$string_output_adapter@_W@__crt_stdio_output@@V?$positional_parameter_base@_WV?$string_output_adapter@_W@__crt_stdio_output@@@2@@0@AAE_NXZ@AAPAD@Z 1002cff0 f i libucrtd:output.obj
 0001:0002c010       ??$read_va_arg@PAUansi_string@?1??type_case_Z@?$output_processor@_WV?$string_output_adapter@_W@__crt_stdio_output@@V?$standard_base@_WV?$string_output_adapter@_W@__crt_stdio_output@@@2@@__crt_stdio_output@@AAE_NXZ@@__crt_stdio_output@@YAPAUansi_string@?1??type_case_Z@?$output_processor@_WV?$string_output_adapter@_W@__crt_stdio_output@@V?$standard_base@_WV?$string_output_adapter@_W@__crt_stdio_output@@@2@@0@AAE_NXZ@AAPAD@Z 1002d010 f i libucrtd:output.obj
 0001:0002c030       ??$read_va_arg@PAX@__crt_stdio_output@@YAPAXAAPAD@Z 1002d030 f i libucrtd:output.obj
 0001:0002c050       ??$read_va_arg@U_CRT_DOUBLE@@@__crt_stdio_output@@YA?AU_CRT_DOUBLE@@AAPAD@Z 1002d050 f i libucrtd:output.obj
 0001:0002c070       ??$read_va_arg@_J@__crt_stdio_output@@YA_JAAPAD@Z 1002d070 f i libucrtd:output.obj
 0001:0002c090       ??$read_va_arg@_K@__crt_stdio_output@@YA_KAAPAD@Z 1002d090 f i libucrtd:output.obj
 0001:0002c0b0       ??$read_va_arg@_W@__crt_stdio_output@@YA_WAAPAD@Z 1002d0b0 f i libucrtd:output.obj
 0001:0002c0d0       ??$scratch_count@D@formatting_buffer@__crt_stdio_output@@QBEIXZ 1002d0d0 f i libucrtd:output.obj
 0001:0002c0f0       ??$scratch_data@D@formatting_buffer@__crt_stdio_output@@QAEPADXZ 1002d0f0 f i libucrtd:output.obj
 0001:0002c140       ??$tcstol@AAPBDPAPADH@?$__crt_char_traits@D@@SAJAAPBD$$QAPAPAD$$QAH@Z 1002d140 f i libucrtd:output.obj
 0001:0002c170       ??$tcstol@AAPB_WPAPA_WH@?$__crt_char_traits@_W@@SAJAAPB_W$$QAPAPA_W$$QAH@Z 1002d170 f i libucrtd:output.obj
 0001:0002c1a0       ??$tcstol@PBDPAPADH@?$__crt_char_traits@D@@SAJ$$QAPBD$$QAPAPAD$$QAH@Z 1002d1a0 f i libucrtd:output.obj
 0001:0002c1d0       ??$tcstol@PB_WPAPA_WH@?$__crt_char_traits@_W@@SAJ$$QAPB_W$$QAPAPA_W$$QAH@Z 1002d1d0 f i libucrtd:output.obj
 0001:0002c200       ??$type_case_integer_parse_into_buffer@I@?$output_processor@DV?$stream_output_adapter@D@__crt_stdio_output@@V?$format_validation_base@DV?$stream_output_adapter@D@__crt_stdio_output@@@2@@__crt_stdio_output@@AAEXII_N@Z 1002d200 f i libucrtd:output.obj
 0001:0002c2d0       ??$type_case_integer_parse_into_buffer@I@?$output_processor@DV?$stream_output_adapter@D@__crt_stdio_output@@V?$positional_parameter_base@DV?$stream_output_adapter@D@__crt_stdio_output@@@2@@__crt_stdio_output@@AAEXII_N@Z 1002d2d0 f i libucrtd:output.obj
 0001:0002c3a0       ??$type_case_integer_parse_into_buffer@I@?$output_processor@DV?$stream_output_adapter@D@__crt_stdio_output@@V?$standard_base@DV?$stream_output_adapter@D@__crt_stdio_output@@@2@@__crt_stdio_output@@AAEXII_N@Z 1002d3a0 f i libucrtd:output.obj
 0001:0002c470       ??$type_case_integer_parse_into_buffer@I@?$output_processor@DV?$string_output_adapter@D@__crt_stdio_output@@V?$format_validation_base@DV?$string_output_adapter@D@__crt_stdio_output@@@2@@__crt_stdio_output@@AAEXII_N@Z 1002d470 f i libucrtd:output.obj
 0001:0002c540       ??$type_case_integer_parse_into_buffer@I@?$output_processor@DV?$string_output_adapter@D@__crt_stdio_output@@V?$positional_parameter_base@DV?$string_output_adapter@D@__crt_stdio_output@@@2@@__crt_stdio_output@@AAEXII_N@Z 1002d540 f i libucrtd:output.obj
 0001:0002c610       ??$type_case_integer_parse_into_buffer@I@?$output_processor@DV?$string_output_adapter@D@__crt_stdio_output@@V?$standard_base@DV?$string_output_adapter@D@__crt_stdio_output@@@2@@__crt_stdio_output@@AAEXII_N@Z 1002d610 f i libucrtd:output.obj
 0001:0002c6e0       ??$type_case_integer_parse_into_buffer@I@?$output_processor@_WV?$stream_output_adapter@_W@__crt_stdio_output@@V?$format_validation_base@_WV?$stream_output_adapter@_W@__crt_stdio_output@@@2@@__crt_stdio_output@@AAEXII_N@Z 1002d6e0 f i libucrtd:output.obj
 0001:0002c7c0       ??$type_case_integer_parse_into_buffer@I@?$output_processor@_WV?$stream_output_adapter@_W@__crt_stdio_output@@V?$positional_parameter_base@_WV?$stream_output_adapter@_W@__crt_stdio_output@@@2@@__crt_stdio_output@@AAEXII_N@Z 1002d7c0 f i libucrtd:output.obj
 0001:0002c8a0       ??$type_case_integer_parse_into_buffer@I@?$output_processor@_WV?$stream_output_adapter@_W@__crt_stdio_output@@V?$standard_base@_WV?$stream_output_adapter@_W@__crt_stdio_output@@@2@@__crt_stdio_output@@AAEXII_N@Z 1002d8a0 f i libucrtd:output.obj
 0001:0002c980       ??$type_case_integer_parse_into_buffer@I@?$output_processor@_WV?$string_output_adapter@_W@__crt_stdio_output@@V?$format_validation_base@_WV?$string_output_adapter@_W@__crt_stdio_output@@@2@@__crt_stdio_output@@AAEXII_N@Z 1002d980 f i libucrtd:output.obj
 0001:0002ca60       ??$type_case_integer_parse_into_buffer@I@?$output_processor@_WV?$string_output_adapter@_W@__crt_stdio_output@@V?$positional_parameter_base@_WV?$string_output_adapter@_W@__crt_stdio_output@@@2@@__crt_stdio_output@@AAEXII_N@Z 1002da60 f i libucrtd:output.obj
 0001:0002cb40       ??$type_case_integer_parse_into_buffer@I@?$output_processor@_WV?$string_output_adapter@_W@__crt_stdio_output@@V?$standard_base@_WV?$string_output_adapter@_W@__crt_stdio_output@@@2@@__crt_stdio_output@@AAEXII_N@Z 1002db40 f i libucrtd:output.obj
 0001:0002cc20       ??$type_case_integer_parse_into_buffer@_K@?$output_processor@DV?$stream_output_adapter@D@__crt_stdio_output@@V?$format_validation_base@DV?$stream_output_adapter@D@__crt_stdio_output@@@2@@__crt_stdio_output@@AAEX_KI_N@Z 1002dc20 f i libucrtd:output.obj
 0001:0002cd10       ??$type_case_integer_parse_into_buffer@_K@?$output_processor@DV?$stream_output_adapter@D@__crt_stdio_output@@V?$positional_parameter_base@DV?$stream_output_adapter@D@__crt_stdio_output@@@2@@__crt_stdio_output@@AAEX_KI_N@Z 1002dd10 f i libucrtd:output.obj
 0001:0002ce00       ??$type_case_integer_parse_into_buffer@_K@?$output_processor@DV?$stream_output_adapter@D@__crt_stdio_output@@V?$standard_base@DV?$stream_output_adapter@D@__crt_stdio_output@@@2@@__crt_stdio_output@@AAEX_KI_N@Z 1002de00 f i libucrtd:output.obj
 0001:0002cef0       ??$type_case_integer_parse_into_buffer@_K@?$output_processor@DV?$string_output_adapter@D@__crt_stdio_output@@V?$format_validation_base@DV?$string_output_adapter@D@__crt_stdio_output@@@2@@__crt_stdio_output@@AAEX_KI_N@Z 1002def0 f i libucrtd:output.obj
 0001:0002cfe0       ??$type_case_integer_parse_into_buffer@_K@?$output_processor@DV?$string_output_adapter@D@__crt_stdio_output@@V?$positional_parameter_base@DV?$string_output_adapter@D@__crt_stdio_output@@@2@@__crt_stdio_output@@AAEX_KI_N@Z 1002dfe0 f i libucrtd:output.obj
 0001:0002d0d0       ??$type_case_integer_parse_into_buffer@_K@?$output_processor@DV?$string_output_adapter@D@__crt_stdio_output@@V?$standard_base@DV?$string_output_adapter@D@__crt_stdio_output@@@2@@__crt_stdio_output@@AAEX_KI_N@Z 1002e0d0 f i libucrtd:output.obj
 0001:0002d1c0       ??$type_case_integer_parse_into_buffer@_K@?$output_processor@_WV?$stream_output_adapter@_W@__crt_stdio_output@@V?$format_validation_base@_WV?$stream_output_adapter@_W@__crt_stdio_output@@@2@@__crt_stdio_output@@AAEX_KI_N@Z 1002e1c0 f i libucrtd:output.obj
 0001:0002d2c0       ??$type_case_integer_parse_into_buffer@_K@?$output_processor@_WV?$stream_output_adapter@_W@__crt_stdio_output@@V?$positional_parameter_base@_WV?$stream_output_adapter@_W@__crt_stdio_output@@@2@@__crt_stdio_output@@AAEX_KI_N@Z 1002e2c0 f i libucrtd:output.obj
 0001:0002d3c0       ??$type_case_integer_parse_into_buffer@_K@?$output_processor@_WV?$stream_output_adapter@_W@__crt_stdio_output@@V?$standard_base@_WV?$stream_output_adapter@_W@__crt_stdio_output@@@2@@__crt_stdio_output@@AAEX_KI_N@Z 1002e3c0 f i libucrtd:output.obj
 0001:0002d4c0       ??$type_case_integer_parse_into_buffer@_K@?$output_processor@_WV?$string_output_adapter@_W@__crt_stdio_output@@V?$format_validation_base@_WV?$string_output_adapter@_W@__crt_stdio_output@@@2@@__crt_stdio_output@@AAEX_KI_N@Z 1002e4c0 f i libucrtd:output.obj
 0001:0002d5c0       ??$type_case_integer_parse_into_buffer@_K@?$output_processor@_WV?$string_output_adapter@_W@__crt_stdio_output@@V?$positional_parameter_base@_WV?$string_output_adapter@_W@__crt_stdio_output@@@2@@__crt_stdio_output@@AAEX_KI_N@Z 1002e5c0 f i libucrtd:output.obj
 0001:0002d6c0       ??$type_case_integer_parse_into_buffer@_K@?$output_processor@_WV?$string_output_adapter@_W@__crt_stdio_output@@V?$standard_base@_WV?$string_output_adapter@_W@__crt_stdio_output@@@2@@__crt_stdio_output@@AAEX_KI_N@Z 1002e6c0 f i libucrtd:output.obj
 0001:0002d7c0       ??$write_multiple_characters@V?$stream_output_adapter@D@__crt_stdio_output@@D@__crt_stdio_output@@YAXABV?$stream_output_adapter@D@0@DHQAH@Z 1002e7c0 f i libucrtd:output.obj
 0001:0002d810       ??$write_multiple_characters@V?$stream_output_adapter@_W@__crt_stdio_output@@D@__crt_stdio_output@@YAXABV?$stream_output_adapter@_W@0@DHQAH@Z 1002e810 f i libucrtd:output.obj
 0001:0002d860       ??$write_multiple_characters@V?$string_output_adapter@D@__crt_stdio_output@@D@__crt_stdio_output@@YAXABV?$string_output_adapter@D@0@DHQAH@Z 1002e860 f i libucrtd:output.obj
 0001:0002d8b0       ??$write_multiple_characters@V?$string_output_adapter@_W@__crt_stdio_output@@D@__crt_stdio_output@@YAXABV?$string_output_adapter@_W@0@DHQAH@Z 1002e8b0 f i libucrtd:output.obj
 0001:0002dc00       ??0?$common_data@D@__crt_stdio_output@@IAE@XZ 1002ec00 f i libucrtd:output.obj
 0001:0002dcb0       ??0?$common_data@_W@__crt_stdio_output@@IAE@XZ 1002ecb0 f i libucrtd:output.obj
 0001:0002dd60       ??0?$output_adapter_data@DV?$stream_output_adapter@D@__crt_stdio_output@@@__crt_stdio_output@@IAE@ABV?$stream_output_adapter@D@1@_KQBDQAU__crt_locale_pointers@@QAD@Z 1002ed60 f i libucrtd:output.obj
 0001:0002ddc0       ??0?$output_adapter_data@DV?$string_output_adapter@D@__crt_stdio_output@@@__crt_stdio_output@@IAE@ABV?$string_output_adapter@D@1@_KQBDQAU__crt_locale_pointers@@QAD@Z 1002edc0 f i libucrtd:output.obj
 0001:0002de20       ??0?$output_adapter_data@_WV?$stream_output_adapter@_W@__crt_stdio_output@@@__crt_stdio_output@@IAE@ABV?$stream_output_adapter@_W@1@_KQB_WQAU__crt_locale_pointers@@QAD@Z 1002ee20 f i libucrtd:output.obj
 0001:0002de80       ??0?$output_adapter_data@_WV?$string_output_adapter@_W@__crt_stdio_output@@@__crt_stdio_output@@IAE@ABV?$string_output_adapter@_W@1@_KQB_WQAU__crt_locale_pointers@@QAD@Z 1002ee80 f i libucrtd:output.obj
 0001:0002dee0       ??0?$output_processor@DV?$stream_output_adapter@D@__crt_stdio_output@@V?$format_validation_base@DV?$stream_output_adapter@D@__crt_stdio_output@@@2@@__crt_stdio_output@@QAE@ABV?$stream_output_adapter@D@1@_KQBDQAU__crt_locale_pointers@@QAD@Z 1002eee0 f i libucrtd:output.obj
 0001:0002df10       ??0?$output_processor@DV?$stream_output_adapter@D@__crt_stdio_output@@V?$positional_parameter_base@DV?$stream_output_adapter@D@__crt_stdio_output@@@2@@__crt_stdio_output@@QAE@ABV?$stream_output_adapter@D@1@_KQBDQAU__crt_locale_pointers@@QAD@Z 1002ef10 f i libucrtd:output.obj
 0001:0002df40       ??0?$output_processor@DV?$stream_output_adapter@D@__crt_stdio_output@@V?$standard_base@DV?$stream_output_adapter@D@__crt_stdio_output@@@2@@__crt_stdio_output@@QAE@ABV?$stream_output_adapter@D@1@_KQBDQAU__crt_locale_pointers@@QAD@Z 1002ef40 f i libucrtd:output.obj
 0001:0002df70       ??0?$output_processor@DV?$string_output_adapter@D@__crt_stdio_output@@V?$format_validation_base@DV?$string_output_adapter@D@__crt_stdio_output@@@2@@__crt_stdio_output@@QAE@ABV?$string_output_adapter@D@1@_KQBDQAU__crt_locale_pointers@@QAD@Z 1002ef70 f i libucrtd:output.obj
 0001:0002dfa0       ??0?$output_processor@DV?$string_output_adapter@D@__crt_stdio_output@@V?$positional_parameter_base@DV?$string_output_adapter@D@__crt_stdio_output@@@2@@__crt_stdio_output@@QAE@ABV?$string_output_adapter@D@1@_KQBDQAU__crt_locale_pointers@@QAD@Z 1002efa0 f i libucrtd:output.obj
 0001:0002dfd0       ??0?$output_processor@DV?$string_output_adapter@D@__crt_stdio_output@@V?$standard_base@DV?$string_output_adapter@D@__crt_stdio_output@@@2@@__crt_stdio_output@@QAE@ABV?$string_output_adapter@D@1@_KQBDQAU__crt_locale_pointers@@QAD@Z 1002efd0 f i libucrtd:output.obj
 0001:0002e000       ??0?$output_processor@_WV?$stream_output_adapter@_W@__crt_stdio_output@@V?$format_validation_base@_WV?$stream_output_adapter@_W@__crt_stdio_output@@@2@@__crt_stdio_output@@QAE@ABV?$stream_output_adapter@_W@1@_KQB_WQAU__crt_locale_pointers@@QAD@Z 1002f000 f i libucrtd:output.obj
 0001:0002e030       ??0?$output_processor@_WV?$stream_output_adapter@_W@__crt_stdio_output@@V?$positional_parameter_base@_WV?$stream_output_adapter@_W@__crt_stdio_output@@@2@@__crt_stdio_output@@QAE@ABV?$stream_output_adapter@_W@1@_KQB_WQAU__crt_locale_pointers@@QAD@Z 1002f030 f i libucrtd:output.obj
 0001:0002e060       ??0?$output_processor@_WV?$stream_output_adapter@_W@__crt_stdio_output@@V?$standard_base@_WV?$stream_output_adapter@_W@__crt_stdio_output@@@2@@__crt_stdio_output@@QAE@ABV?$stream_output_adapter@_W@1@_KQB_WQAU__crt_locale_pointers@@QAD@Z 1002f060 f i libucrtd:output.obj
 0001:0002e090       ??0?$output_processor@_WV?$string_output_adapter@_W@__crt_stdio_output@@V?$format_validation_base@_WV?$string_output_adapter@_W@__crt_stdio_output@@@2@@__crt_stdio_output@@QAE@ABV?$string_output_adapter@_W@1@_KQB_WQAU__crt_locale_pointers@@QAD@Z 1002f090 f i libucrtd:output.obj
 0001:0002e0c0       ??0?$output_processor@_WV?$string_output_adapter@_W@__crt_stdio_output@@V?$positional_parameter_base@_WV?$string_output_adapter@_W@__crt_stdio_output@@@2@@__crt_stdio_output@@QAE@ABV?$string_output_adapter@_W@1@_KQB_WQAU__crt_locale_pointers@@QAD@Z 1002f0c0 f i libucrtd:output.obj
 0001:0002e0f0       ??0?$output_processor@_WV?$string_output_adapter@_W@__crt_stdio_output@@V?$standard_base@_WV?$string_output_adapter@_W@__crt_stdio_output@@@2@@__crt_stdio_output@@QAE@ABV?$string_output_adapter@_W@1@_KQB_WQAU__crt_locale_pointers@@QAD@Z 1002f0f0 f i libucrtd:output.obj
 0001:0002e120       ??0?$stream_output_adapter@D@__crt_stdio_output@@QAE@QAU_iobuf@@@Z 1002f120 f i libucrtd:output.obj
 0001:0002e140       ??0?$stream_output_adapter@_W@__crt_stdio_output@@QAE@QAU_iobuf@@@Z 1002f140 f i libucrtd:output.obj
 0001:0002e160       ??0?$string_output_adapter@D@__crt_stdio_output@@QAE@QAU?$string_output_adapter_context@D@1@@Z 1002f160 f i libucrtd:output.obj
 0001:0002e180       ??0?$string_output_adapter@_W@__crt_stdio_output@@QAE@QAU?$string_output_adapter_context@_W@1@@Z 1002f180 f i libucrtd:output.obj
 0001:0002e1a0       ??0_LocaleUpdate@@QAE@QAU__crt_locale_pointers@@@Z 1002f1a0 f i libucrtd:output.obj
 0001:0002e270       ??0__acrt_stdio_temporary_buffering_guard@@QAE@QAU_iobuf@@@Z 1002f270 f i libucrtd:output.obj
 0001:0002e2a0       ??0__crt_deferred_errno_cache@@QAE@XZ 1002f2a0 f i libucrtd:output.obj
 0001:0002e2c0       ??0__crt_errno_guard@@QAE@QAH@Z 1002f2c0 f i libucrtd:output.obj
 0001:0002e2f0       ??0__crt_stdio_stream@@QAE@QAU_iobuf@@@Z 1002f2f0 f i libucrtd:output.obj
 0001:0002e310       ??0formatting_buffer@__crt_stdio_output@@QAE@XZ 1002f310 f i libucrtd:output.obj
 0001:0002e340       ??1?$common_data@D@__crt_stdio_output@@QAE@XZ 1002f340 f i libucrtd:output.obj
 0001:0002e360       ??1?$common_data@_W@__crt_stdio_output@@QAE@XZ 1002f360 f i libucrtd:output.obj
 0001:0002e380       ??1?$format_validation_base@DV?$stream_output_adapter@D@__crt_stdio_output@@@__crt_stdio_output@@QAE@XZ 1002f380 f i libucrtd:output.obj
 0001:0002e3a0       ??1?$format_validation_base@DV?$string_output_adapter@D@__crt_stdio_output@@@__crt_stdio_output@@QAE@XZ 1002f3a0 f i libucrtd:output.obj
 0001:0002e3c0       ??1?$format_validation_base@_WV?$stream_output_adapter@_W@__crt_stdio_output@@@__crt_stdio_output@@QAE@XZ 1002f3c0 f i libucrtd:output.obj
 0001:0002e3e0       ??1?$format_validation_base@_WV?$string_output_adapter@_W@__crt_stdio_output@@@__crt_stdio_output@@QAE@XZ 1002f3e0 f i libucrtd:output.obj
 0001:0002e400       ??1?$output_adapter_data@DV?$stream_output_adapter@D@__crt_stdio_output@@@__crt_stdio_output@@QAE@XZ 1002f400 f i libucrtd:output.obj
 0001:0002e420       ??1?$output_adapter_data@DV?$string_output_adapter@D@__crt_stdio_output@@@__crt_stdio_output@@QAE@XZ 1002f420 f i libucrtd:output.obj
 0001:0002e440       ??1?$output_adapter_data@_WV?$stream_output_adapter@_W@__crt_stdio_output@@@__crt_stdio_output@@QAE@XZ 1002f440 f i libucrtd:output.obj
 0001:0002e460       ??1?$output_adapter_data@_WV?$string_output_adapter@_W@__crt_stdio_output@@@__crt_stdio_output@@QAE@XZ 1002f460 f i libucrtd:output.obj
 0001:0002e480       ??1?$output_processor@DV?$stream_output_adapter@D@__crt_stdio_output@@V?$format_validation_base@DV?$stream_output_adapter@D@__crt_stdio_output@@@2@@__crt_stdio_output@@QAE@XZ 1002f480 f i libucrtd:output.obj
 0001:0002e4a0       ??1?$output_processor@DV?$stream_output_adapter@D@__crt_stdio_output@@V?$positional_parameter_base@DV?$stream_output_adapter@D@__crt_stdio_output@@@2@@__crt_stdio_output@@QAE@XZ 1002f4a0 f i libucrtd:output.obj
 0001:0002e4c0       ??1?$output_processor@DV?$stream_output_adapter@D@__crt_stdio_output@@V?$standard_base@DV?$stream_output_adapter@D@__crt_stdio_output@@@2@@__crt_stdio_output@@QAE@XZ 1002f4c0 f i libucrtd:output.obj
 0001:0002e4e0       ??1?$output_processor@DV?$string_output_adapter@D@__crt_stdio_output@@V?$format_validation_base@DV?$string_output_adapter@D@__crt_stdio_output@@@2@@__crt_stdio_output@@QAE@XZ 1002f4e0 f i libucrtd:output.obj
 0001:0002e500       ??1?$output_processor@DV?$string_output_adapter@D@__crt_stdio_output@@V?$positional_parameter_base@DV?$string_output_adapter@D@__crt_stdio_output@@@2@@__crt_stdio_output@@QAE@XZ 1002f500 f i libucrtd:output.obj
 0001:0002e520       ??1?$output_processor@DV?$string_output_adapter@D@__crt_stdio_output@@V?$standard_base@DV?$string_output_adapter@D@__crt_stdio_output@@@2@@__crt_stdio_output@@QAE@XZ 1002f520 f i libucrtd:output.obj
 0001:0002e540       ??1?$output_processor@_WV?$stream_output_adapter@_W@__crt_stdio_output@@V?$format_validation_base@_WV?$stream_output_adapter@_W@__crt_stdio_output@@@2@@__crt_stdio_output@@QAE@XZ 1002f540 f i libucrtd:output.obj
 0001:0002e560       ??1?$output_processor@_WV?$stream_output_adapter@_W@__crt_stdio_output@@V?$positional_parameter_base@_WV?$stream_output_adapter@_W@__crt_stdio_output@@@2@@__crt_stdio_output@@QAE@XZ 1002f560 f i libucrtd:output.obj
 0001:0002e580       ??1?$output_processor@_WV?$stream_output_adapter@_W@__crt_stdio_output@@V?$standard_base@_WV?$stream_output_adapter@_W@__crt_stdio_output@@@2@@__crt_stdio_output@@QAE@XZ 1002f580 f i libucrtd:output.obj
 0001:0002e5a0       ??1?$output_processor@_WV?$string_output_adapter@_W@__crt_stdio_output@@V?$format_validation_base@_WV?$string_output_adapter@_W@__crt_stdio_output@@@2@@__crt_stdio_output@@QAE@XZ 1002f5a0 f i libucrtd:output.obj
 0001:0002e5c0       ??1?$output_processor@_WV?$string_output_adapter@_W@__crt_stdio_output@@V?$positional_parameter_base@_WV?$string_output_adapter@_W@__crt_stdio_output@@@2@@__crt_stdio_output@@QAE@XZ 1002f5c0 f i libucrtd:output.obj
 0001:0002e5e0       ??1?$output_processor@_WV?$string_output_adapter@_W@__crt_stdio_output@@V?$standard_base@_WV?$string_output_adapter@_W@__crt_stdio_output@@@2@@__crt_stdio_output@@QAE@XZ 1002f5e0 f i libucrtd:output.obj
 0001:0002e600       ??1?$positional_parameter_base@DV?$stream_output_adapter@D@__crt_stdio_output@@@__crt_stdio_output@@QAE@XZ 1002f600 f i libucrtd:output.obj
 0001:0002e620       ??1?$positional_parameter_base@DV?$string_output_adapter@D@__crt_stdio_output@@@__crt_stdio_output@@QAE@XZ 1002f620 f i libucrtd:output.obj
 0001:0002e640       ??1?$positional_parameter_base@_WV?$stream_output_adapter@_W@__crt_stdio_output@@@__crt_stdio_output@@QAE@XZ 1002f640 f i libucrtd:output.obj
 0001:0002e660       ??1?$positional_parameter_base@_WV?$string_output_adapter@_W@__crt_stdio_output@@@__crt_stdio_output@@QAE@XZ 1002f660 f i libucrtd:output.obj
 0001:0002e680       ??1?$standard_base@DV?$stream_output_adapter@D@__crt_stdio_output@@@__crt_stdio_output@@QAE@XZ 1002f680 f i libucrtd:output.obj
 0001:0002e6a0       ??1?$standard_base@DV?$string_output_adapter@D@__crt_stdio_output@@@__crt_stdio_output@@QAE@XZ 1002f6a0 f i libucrtd:output.obj
 0001:0002e6c0       ??1?$standard_base@_WV?$stream_output_adapter@_W@__crt_stdio_output@@@__crt_stdio_output@@QAE@XZ 1002f6c0 f i libucrtd:output.obj
 0001:0002e6e0       ??1?$standard_base@_WV?$string_output_adapter@_W@__crt_stdio_output@@@__crt_stdio_output@@QAE@XZ 1002f6e0 f i libucrtd:output.obj
 0001:0002e700       ??1_LocaleUpdate@@QAE@XZ   1002f700 f i libucrtd:output.obj
 0001:0002e730       ??1__acrt_stdio_temporary_buffering_guard@@QAE@XZ 1002f730 f i libucrtd:output.obj
 0001:0002e760       ??1__crt_errno_guard@@QAE@XZ 1002f760 f i libucrtd:output.obj
 0001:0002e790       ??1formatting_buffer@__crt_stdio_output@@QAE@XZ 1002f790 f i libucrtd:output.obj
 0001:0002e7b0       ??4?$__crt_unique_heap_ptr@DU__crt_internal_free_policy@@@@QAEAAV0@$$QAV0@@Z 1002f7b0 f i libucrtd:output.obj
 0001:0002e7e0       ??A?$spectre_mitigated_lookup_table@Ustate_transition_pair@__crt_stdio_output@@$0IA@@__crt_stdio_output@@QBEABUstate_transition_pair@1@I@Z 1002f7e0 f i libucrtd:output.obj
 0001:0002e800       ??C__crt_stdio_stream@@QBEPAU__crt_stdio_stream_data@@XZ 1002f800 f i libucrtd:output.obj
 0001:0002ef40       ?GetLocaleT@_LocaleUpdate@@QAEPAU__crt_locale_pointers@@XZ 1002ff40 f i libucrtd:output.obj
 0001:0002ef60       ?adjust_hexit@?$output_processor@DV?$stream_output_adapter@D@__crt_stdio_output@@V?$format_validation_base@DV?$stream_output_adapter@D@__crt_stdio_output@@@2@@__crt_stdio_output@@CADH_N@Z 1002ff60 f i libucrtd:output.obj
 0001:0002efa0       ?adjust_hexit@?$output_processor@DV?$stream_output_adapter@D@__crt_stdio_output@@V?$positional_parameter_base@DV?$stream_output_adapter@D@__crt_stdio_output@@@2@@__crt_stdio_output@@CADH_N@Z 1002ffa0 f i libucrtd:output.obj
 0001:0002efe0       ?adjust_hexit@?$output_processor@DV?$stream_output_adapter@D@__crt_stdio_output@@V?$standard_base@DV?$stream_output_adapter@D@__crt_stdio_output@@@2@@__crt_stdio_output@@CADH_N@Z 1002ffe0 f i libucrtd:output.obj
 0001:0002f020       ?adjust_hexit@?$output_processor@DV?$string_output_adapter@D@__crt_stdio_output@@V?$format_validation_base@DV?$string_output_adapter@D@__crt_stdio_output@@@2@@__crt_stdio_output@@CADH_N@Z 10030020 f i libucrtd:output.obj
 0001:0002f060       ?adjust_hexit@?$output_processor@DV?$string_output_adapter@D@__crt_stdio_output@@V?$positional_parameter_base@DV?$string_output_adapter@D@__crt_stdio_output@@@2@@__crt_stdio_output@@CADH_N@Z 10030060 f i libucrtd:output.obj
 0001:0002f0a0       ?adjust_hexit@?$output_processor@DV?$string_output_adapter@D@__crt_stdio_output@@V?$standard_base@DV?$string_output_adapter@D@__crt_stdio_output@@@2@@__crt_stdio_output@@CADH_N@Z 100300a0 f i libucrtd:output.obj
 0001:0002f0e0       ?adjust_hexit@?$output_processor@_WV?$stream_output_adapter@_W@__crt_stdio_output@@V?$format_validation_base@_WV?$stream_output_adapter@_W@__crt_stdio_output@@@2@@__crt_stdio_output@@CADH_N@Z 100300e0 f i libucrtd:output.obj
 0001:0002f120       ?adjust_hexit@?$output_processor@_WV?$stream_output_adapter@_W@__crt_stdio_output@@V?$positional_parameter_base@_WV?$stream_output_adapter@_W@__crt_stdio_output@@@2@@__crt_stdio_output@@CADH_N@Z 10030120 f i libucrtd:output.obj
 0001:0002f160       ?adjust_hexit@?$output_processor@_WV?$stream_output_adapter@_W@__crt_stdio_output@@V?$standard_base@_WV?$stream_output_adapter@_W@__crt_stdio_output@@@2@@__crt_stdio_output@@CADH_N@Z 10030160 f i libucrtd:output.obj
 0001:0002f1a0       ?adjust_hexit@?$output_processor@_WV?$string_output_adapter@_W@__crt_stdio_output@@V?$format_validation_base@_WV?$string_output_adapter@_W@__crt_stdio_output@@@2@@__crt_stdio_output@@CADH_N@Z 100301a0 f i libucrtd:output.obj
 0001:0002f1e0       ?adjust_hexit@?$output_processor@_WV?$string_output_adapter@_W@__crt_stdio_output@@V?$positional_parameter_base@_WV?$string_output_adapter@_W@__crt_stdio_output@@@2@@__crt_stdio_output@@CADH_N@Z 100301e0 f i libucrtd:output.obj
 0001:0002f220       ?adjust_hexit@?$output_processor@_WV?$string_output_adapter@_W@__crt_stdio_output@@V?$standard_base@_WV?$string_output_adapter@_W@__crt_stdio_output@@@2@@__crt_stdio_output@@CADH_N@Z 10030220 f i libucrtd:output.obj
 0001:0002f260       ?advance_to_next_pass@?$positional_parameter_base@DV?$stream_output_adapter@D@__crt_stdio_output@@@__crt_stdio_output@@IAE_NXZ 10030260 f i libucrtd:output.obj
 0001:0002f300       ?advance_to_next_pass@?$positional_parameter_base@DV?$string_output_adapter@D@__crt_stdio_output@@@__crt_stdio_output@@IAE_NXZ 10030300 f i libucrtd:output.obj
 0001:0002f3a0       ?advance_to_next_pass@?$positional_parameter_base@_WV?$stream_output_adapter@_W@__crt_stdio_output@@@__crt_stdio_output@@IAE_NXZ 100303a0 f i libucrtd:output.obj
 0001:0002f440       ?advance_to_next_pass@?$positional_parameter_base@_WV?$string_output_adapter@_W@__crt_stdio_output@@@__crt_stdio_output@@IAE_NXZ 10030440 f i libucrtd:output.obj
 0001:0002f4e0       ?advance_to_next_pass@?$standard_base@DV?$stream_output_adapter@D@__crt_stdio_output@@@__crt_stdio_output@@IAE_NXZ 100304e0 f i libucrtd:output.obj
 0001:0002f530       ?advance_to_next_pass@?$standard_base@DV?$string_output_adapter@D@__crt_stdio_output@@@__crt_stdio_output@@IAE_NXZ 10030530 f i libucrtd:output.obj
 0001:0002f580       ?advance_to_next_pass@?$standard_base@_WV?$stream_output_adapter@_W@__crt_stdio_output@@@__crt_stdio_output@@IAE_NXZ 10030580 f i libucrtd:output.obj
 0001:0002f5d0       ?advance_to_next_pass@?$standard_base@_WV?$string_output_adapter@_W@__crt_stdio_output@@@__crt_stdio_output@@IAE_NXZ 100305d0 f i libucrtd:output.obj
 0001:0002f620       ?crop_zeroes@__crt_stdio_output@@YAXPADQAU__crt_locale_pointers@@@Z 10030620 f i libucrtd:output.obj
 0001:0002f720       ?find_next_state@?$output_processor@DV?$stream_output_adapter@D@__crt_stdio_output@@V?$format_validation_base@DV?$stream_output_adapter@D@__crt_stdio_output@@@2@@__crt_stdio_output@@ABE?AW4state@2@DW432@@Z 10030720 f i libucrtd:output.obj
 0001:0002f790       ?find_next_state@?$output_processor@DV?$stream_output_adapter@D@__crt_stdio_output@@V?$positional_parameter_base@DV?$stream_output_adapter@D@__crt_stdio_output@@@2@@__crt_stdio_output@@ABE?AW4state@2@DW432@@Z 10030790 f i libucrtd:output.obj
 0001:0002f800       ?find_next_state@?$output_processor@DV?$stream_output_adapter@D@__crt_stdio_output@@V?$standard_base@DV?$stream_output_adapter@D@__crt_stdio_output@@@2@@__crt_stdio_output@@ABE?AW4state@2@DW432@@Z 10030800 f i libucrtd:output.obj
 0001:0002f870       ?find_next_state@?$output_processor@DV?$string_output_adapter@D@__crt_stdio_output@@V?$format_validation_base@DV?$string_output_adapter@D@__crt_stdio_output@@@2@@__crt_stdio_output@@ABE?AW4state@2@DW432@@Z 10030870 f i libucrtd:output.obj
 0001:0002f8e0       ?find_next_state@?$output_processor@DV?$string_output_adapter@D@__crt_stdio_output@@V?$positional_parameter_base@DV?$string_output_adapter@D@__crt_stdio_output@@@2@@__crt_stdio_output@@ABE?AW4state@2@DW432@@Z 100308e0 f i libucrtd:output.obj
 0001:0002f950       ?find_next_state@?$output_processor@DV?$string_output_adapter@D@__crt_stdio_output@@V?$standard_base@DV?$string_output_adapter@D@__crt_stdio_output@@@2@@__crt_stdio_output@@ABE?AW4state@2@DW432@@Z 10030950 f i libucrtd:output.obj
 0001:0002f9c0       ?find_next_state@?$output_processor@_WV?$stream_output_adapter@_W@__crt_stdio_output@@V?$format_validation_base@_WV?$stream_output_adapter@_W@__crt_stdio_output@@@2@@__crt_stdio_output@@ABE?AW4state@2@_WW432@@Z 100309c0 f i libucrtd:output.obj
 0001:0002fa30       ?find_next_state@?$output_processor@_WV?$stream_output_adapter@_W@__crt_stdio_output@@V?$positional_parameter_base@_WV?$stream_output_adapter@_W@__crt_stdio_output@@@2@@__crt_stdio_output@@ABE?AW4state@2@_WW432@@Z 10030a30 f i libucrtd:output.obj
 0001:0002faa0       ?find_next_state@?$output_processor@_WV?$stream_output_adapter@_W@__crt_stdio_output@@V?$standard_base@_WV?$stream_output_adapter@_W@__crt_stdio_output@@@2@@__crt_stdio_output@@ABE?AW4state@2@_WW432@@Z 10030aa0 f i libucrtd:output.obj
 0001:0002fb10       ?find_next_state@?$output_processor@_WV?$string_output_adapter@_W@__crt_stdio_output@@V?$format_validation_base@_WV?$string_output_adapter@_W@__crt_stdio_output@@@2@@__crt_stdio_output@@ABE?AW4state@2@_WW432@@Z 10030b10 f i libucrtd:output.obj
 0001:0002fb80       ?find_next_state@?$output_processor@_WV?$string_output_adapter@_W@__crt_stdio_output@@V?$positional_parameter_base@_WV?$string_output_adapter@_W@__crt_stdio_output@@@2@@__crt_stdio_output@@ABE?AW4state@2@_WW432@@Z 10030b80 f i libucrtd:output.obj
 0001:0002fbf0       ?find_next_state@?$output_processor@_WV?$string_output_adapter@_W@__crt_stdio_output@@V?$standard_base@_WV?$string_output_adapter@_W@__crt_stdio_output@@@2@@__crt_stdio_output@@ABE?AW4state@2@_WW432@@Z 10030bf0 f i libucrtd:output.obj
 0001:0002fc60       ?force_decimal_point@__crt_stdio_output@@YAXPADQAU__crt_locale_pointers@@@Z 10030c60 f i libucrtd:output.obj
 0001:0002fd30       ?get@__crt_deferred_errno_cache@@QAEAAHXZ 10030d30 f i libucrtd:output.obj
 0001:0002fd60       ?get_flags@__crt_stdio_stream@@QBEJXZ 10030d60 f i libucrtd:output.obj
 0001:0002fd80       ?get_parameter_type@?$positional_parameter_base@DV?$stream_output_adapter@D@__crt_stdio_output@@@__crt_stdio_output@@CA?AW4parameter_type@12@F@Z 10030d80 f i libucrtd:output.obj
 0001:0002fd90       ?get_parameter_type@?$positional_parameter_base@DV?$stream_output_adapter@D@__crt_stdio_output@@@__crt_stdio_output@@CA?AW4parameter_type@12@G@Z 10030d90 f i libucrtd:output.obj
 0001:0002fda0       ?get_parameter_type@?$positional_parameter_base@DV?$stream_output_adapter@D@__crt_stdio_output@@@__crt_stdio_output@@CA?AW4parameter_type@12@H@Z 10030da0 f i libucrtd:output.obj
 0001:0002fdb0       ?get_parameter_type@?$positional_parameter_base@DV?$stream_output_adapter@D@__crt_stdio_output@@@__crt_stdio_output@@CA?AW4parameter_type@12@I@Z 10030db0 f i libucrtd:output.obj
 0001:0002fdc0       ?get_parameter_type@?$positional_parameter_base@DV?$stream_output_adapter@D@__crt_stdio_output@@@__crt_stdio_output@@CA?AW4parameter_type@12@U_CRT_DOUBLE@@@Z 10030dc0 f i libucrtd:output.obj
 0001:0002fdd0       ?get_parameter_type@?$positional_parameter_base@DV?$stream_output_adapter@D@__crt_stdio_output@@@__crt_stdio_output@@CA?AW4parameter_type@12@_J@Z 10030dd0 f i libucrtd:output.obj
 0001:0002fde0       ?get_parameter_type@?$positional_parameter_base@DV?$stream_output_adapter@D@__crt_stdio_output@@@__crt_stdio_output@@CA?AW4parameter_type@12@_K@Z 10030de0 f i libucrtd:output.obj
 0001:0002fdf0       ?get_parameter_type@?$positional_parameter_base@DV?$stream_output_adapter@D@__crt_stdio_output@@@__crt_stdio_output@@CA?AW4parameter_type@12@_W@Z 10030df0 f i libucrtd:output.obj
 0001:0002fe00       ?get_parameter_type@?$positional_parameter_base@DV?$string_output_adapter@D@__crt_stdio_output@@@__crt_stdio_output@@CA?AW4parameter_type@12@F@Z 10030e00 f i libucrtd:output.obj
 0001:0002fe10       ?get_parameter_type@?$positional_parameter_base@DV?$string_output_adapter@D@__crt_stdio_output@@@__crt_stdio_output@@CA?AW4parameter_type@12@G@Z 10030e10 f i libucrtd:output.obj
 0001:0002fe20       ?get_parameter_type@?$positional_parameter_base@DV?$string_output_adapter@D@__crt_stdio_output@@@__crt_stdio_output@@CA?AW4parameter_type@12@H@Z 10030e20 f i libucrtd:output.obj
 0001:0002fe30       ?get_parameter_type@?$positional_parameter_base@DV?$string_output_adapter@D@__crt_stdio_output@@@__crt_stdio_output@@CA?AW4parameter_type@12@I@Z 10030e30 f i libucrtd:output.obj
 0001:0002fe40       ?get_parameter_type@?$positional_parameter_base@DV?$string_output_adapter@D@__crt_stdio_output@@@__crt_stdio_output@@CA?AW4parameter_type@12@U_CRT_DOUBLE@@@Z 10030e40 f i libucrtd:output.obj
 0001:0002fe50       ?get_parameter_type@?$positional_parameter_base@DV?$string_output_adapter@D@__crt_stdio_output@@@__crt_stdio_output@@CA?AW4parameter_type@12@_J@Z 10030e50 f i libucrtd:output.obj
 0001:0002fe60       ?get_parameter_type@?$positional_parameter_base@DV?$string_output_adapter@D@__crt_stdio_output@@@__crt_stdio_output@@CA?AW4parameter_type@12@_K@Z 10030e60 f i libucrtd:output.obj
 0001:0002fe70       ?get_parameter_type@?$positional_parameter_base@DV?$string_output_adapter@D@__crt_stdio_output@@@__crt_stdio_output@@CA?AW4parameter_type@12@_W@Z 10030e70 f i libucrtd:output.obj
 0001:0002fe80       ?get_parameter_type@?$positional_parameter_base@_WV?$stream_output_adapter@_W@__crt_stdio_output@@@__crt_stdio_output@@CA?AW4parameter_type@12@F@Z 10030e80 f i libucrtd:output.obj
 0001:0002fe90       ?get_parameter_type@?$positional_parameter_base@_WV?$stream_output_adapter@_W@__crt_stdio_output@@@__crt_stdio_output@@CA?AW4parameter_type@12@G@Z 10030e90 f i libucrtd:output.obj
 0001:0002fea0       ?get_parameter_type@?$positional_parameter_base@_WV?$stream_output_adapter@_W@__crt_stdio_output@@@__crt_stdio_output@@CA?AW4parameter_type@12@H@Z 10030ea0 f i libucrtd:output.obj
 0001:0002feb0       ?get_parameter_type@?$positional_parameter_base@_WV?$stream_output_adapter@_W@__crt_stdio_output@@@__crt_stdio_output@@CA?AW4parameter_type@12@I@Z 10030eb0 f i libucrtd:output.obj
 0001:0002fec0       ?get_parameter_type@?$positional_parameter_base@_WV?$stream_output_adapter@_W@__crt_stdio_output@@@__crt_stdio_output@@CA?AW4parameter_type@12@U_CRT_DOUBLE@@@Z 10030ec0 f i libucrtd:output.obj
 0001:0002fed0       ?get_parameter_type@?$positional_parameter_base@_WV?$stream_output_adapter@_W@__crt_stdio_output@@@__crt_stdio_output@@CA?AW4parameter_type@12@_J@Z 10030ed0 f i libucrtd:output.obj
 0001:0002fee0       ?get_parameter_type@?$positional_parameter_base@_WV?$stream_output_adapter@_W@__crt_stdio_output@@@__crt_stdio_output@@CA?AW4parameter_type@12@_K@Z 10030ee0 f i libucrtd:output.obj
 0001:0002fef0       ?get_parameter_type@?$positional_parameter_base@_WV?$stream_output_adapter@_W@__crt_stdio_output@@@__crt_stdio_output@@CA?AW4parameter_type@12@_W@Z 10030ef0 f i libucrtd:output.obj
 0001:0002ff00       ?get_parameter_type@?$positional_parameter_base@_WV?$string_output_adapter@_W@__crt_stdio_output@@@__crt_stdio_output@@CA?AW4parameter_type@12@F@Z 10030f00 f i libucrtd:output.obj
 0001:0002ff10       ?get_parameter_type@?$positional_parameter_base@_WV?$string_output_adapter@_W@__crt_stdio_output@@@__crt_stdio_output@@CA?AW4parameter_type@12@G@Z 10030f10 f i libucrtd:output.obj
 0001:0002ff20       ?get_parameter_type@?$positional_parameter_base@_WV?$string_output_adapter@_W@__crt_stdio_output@@@__crt_stdio_output@@CA?AW4parameter_type@12@H@Z 10030f20 f i libucrtd:output.obj
 0001:0002ff30       ?get_parameter_type@?$positional_parameter_base@_WV?$string_output_adapter@_W@__crt_stdio_output@@@__crt_stdio_output@@CA?AW4parameter_type@12@I@Z 10030f30 f i libucrtd:output.obj
 0001:0002ff40       ?get_parameter_type@?$positional_parameter_base@_WV?$string_output_adapter@_W@__crt_stdio_output@@@__crt_stdio_output@@CA?AW4parameter_type@12@U_CRT_DOUBLE@@@Z 10030f40 f i libucrtd:output.obj
 0001:0002ff50       ?get_parameter_type@?$positional_parameter_base@_WV?$string_output_adapter@_W@__crt_stdio_output@@@__crt_stdio_output@@CA?AW4parameter_type@12@_J@Z 10030f50 f i libucrtd:output.obj
 0001:0002ff60       ?get_parameter_type@?$positional_parameter_base@_WV?$string_output_adapter@_W@__crt_stdio_output@@@__crt_stdio_output@@CA?AW4parameter_type@12@_K@Z 10030f60 f i libucrtd:output.obj
 0001:0002ff70       ?get_parameter_type@?$positional_parameter_base@_WV?$string_output_adapter@_W@__crt_stdio_output@@@__crt_stdio_output@@CA?AW4parameter_type@12@_W@Z 10030f70 f i libucrtd:output.obj
 0001:0002ff80       ?has_flag@?$output_processor@DV?$stream_output_adapter@D@__crt_stdio_output@@V?$format_validation_base@DV?$stream_output_adapter@D@__crt_stdio_output@@@2@@__crt_stdio_output@@ABE_NI@Z 10030f80 f i libucrtd:output.obj
 0001:0002ffb0       ?has_flag@?$output_processor@DV?$stream_output_adapter@D@__crt_stdio_output@@V?$positional_parameter_base@DV?$stream_output_adapter@D@__crt_stdio_output@@@2@@__crt_stdio_output@@ABE_NI@Z 10030fb0 f i libucrtd:output.obj
 0001:0002ffe0       ?has_flag@?$output_processor@DV?$stream_output_adapter@D@__crt_stdio_output@@V?$standard_base@DV?$stream_output_adapter@D@__crt_stdio_output@@@2@@__crt_stdio_output@@ABE_NI@Z 10030fe0 f i libucrtd:output.obj
 0001:00030010       ?has_flag@?$output_processor@DV?$string_output_adapter@D@__crt_stdio_output@@V?$format_validation_base@DV?$string_output_adapter@D@__crt_stdio_output@@@2@@__crt_stdio_output@@ABE_NI@Z 10031010 f i libucrtd:output.obj
 0001:00030040       ?has_flag@?$output_processor@DV?$string_output_adapter@D@__crt_stdio_output@@V?$positional_parameter_base@DV?$string_output_adapter@D@__crt_stdio_output@@@2@@__crt_stdio_output@@ABE_NI@Z 10031040 f i libucrtd:output.obj
 0001:00030070       ?has_flag@?$output_processor@DV?$string_output_adapter@D@__crt_stdio_output@@V?$standard_base@DV?$string_output_adapter@D@__crt_stdio_output@@@2@@__crt_stdio_output@@ABE_NI@Z 10031070 f i libucrtd:output.obj
 0001:000300a0       ?has_flag@?$output_processor@_WV?$stream_output_adapter@_W@__crt_stdio_output@@V?$format_validation_base@_WV?$stream_output_adapter@_W@__crt_stdio_output@@@2@@__crt_stdio_output@@ABE_NI@Z 100310a0 f i libucrtd:output.obj
 0001:000300d0       ?has_flag@?$output_processor@_WV?$stream_output_adapter@_W@__crt_stdio_output@@V?$positional_parameter_base@_WV?$stream_output_adapter@_W@__crt_stdio_output@@@2@@__crt_stdio_output@@ABE_NI@Z 100310d0 f i libucrtd:output.obj
 0001:00030100       ?has_flag@?$output_processor@_WV?$stream_output_adapter@_W@__crt_stdio_output@@V?$standard_base@_WV?$stream_output_adapter@_W@__crt_stdio_output@@@2@@__crt_stdio_output@@ABE_NI@Z 10031100 f i libucrtd:output.obj
 0001:00030130       ?has_flag@?$output_processor@_WV?$string_output_adapter@_W@__crt_stdio_output@@V?$format_validation_base@_WV?$string_output_adapter@_W@__crt_stdio_output@@@2@@__crt_stdio_output@@ABE_NI@Z 10031130 f i libucrtd:output.obj
 0001:00030160       ?has_flag@?$output_processor@_WV?$string_output_adapter@_W@__crt_stdio_output@@V?$positional_parameter_base@_WV?$string_output_adapter@_W@__crt_stdio_output@@@2@@__crt_stdio_output@@ABE_NI@Z 10031160 f i libucrtd:output.obj
 0001:00030190       ?has_flag@?$output_processor@_WV?$string_output_adapter@_W@__crt_stdio_output@@V?$standard_base@_WV?$string_output_adapter@_W@__crt_stdio_output@@@2@@__crt_stdio_output@@ABE_NI@Z 10031190 f i libucrtd:output.obj
 0001:000301c0       ?is_positional_parameter_reappearance_consistent@?$positional_parameter_base@DV?$stream_output_adapter@D@__crt_stdio_output@@@__crt_stdio_output@@AAE_NABUparameter_data@12@W4parameter_type@12@DW4length_modifier@2@@Z 100311c0 f i libucrtd:output.obj
 0001:000303f0       ?is_positional_parameter_reappearance_consistent@?$positional_parameter_base@DV?$string_output_adapter@D@__crt_stdio_output@@@__crt_stdio_output@@AAE_NABUparameter_data@12@W4parameter_type@12@DW4length_modifier@2@@Z 100313f0 f i libucrtd:output.obj
 0001:00030620       ?is_positional_parameter_reappearance_consistent@?$positional_parameter_base@_WV?$stream_output_adapter@_W@__crt_stdio_output@@@__crt_stdio_output@@AAE_NABUparameter_data@12@W4parameter_type@12@_WW4length_modifier@2@@Z 10031620 f i libucrtd:output.obj
 0001:00030850       ?is_positional_parameter_reappearance_consistent@?$positional_parameter_base@_WV?$string_output_adapter@_W@__crt_stdio_output@@@__crt_stdio_output@@AAE_NABUparameter_data@12@W4parameter_type@12@_WW4length_modifier@2@@Z 10031850 f i libucrtd:output.obj
 0001:00030a80       ?is_string_backed@__crt_stdio_stream@@QBE_NXZ 10031a80 f i libucrtd:output.obj
 0001:00030ac0       ?narrow_null_string@?$output_processor@DV?$stream_output_adapter@D@__crt_stdio_output@@V?$format_validation_base@DV?$stream_output_adapter@D@__crt_stdio_output@@@2@@__crt_stdio_output@@CAPADXZ 10031ac0 f i libucrtd:output.obj
 0001:00030ad0       ?narrow_null_string@?$output_processor@DV?$stream_output_adapter@D@__crt_stdio_output@@V?$positional_parameter_base@DV?$stream_output_adapter@D@__crt_stdio_output@@@2@@__crt_stdio_output@@CAPADXZ 10031ad0 f i libucrtd:output.obj
 0001:00030ae0       ?narrow_null_string@?$output_processor@DV?$stream_output_adapter@D@__crt_stdio_output@@V?$standard_base@DV?$stream_output_adapter@D@__crt_stdio_output@@@2@@__crt_stdio_output@@CAPADXZ 10031ae0 f i libucrtd:output.obj
 0001:00030af0       ?narrow_null_string@?$output_processor@DV?$string_output_adapter@D@__crt_stdio_output@@V?$format_validation_base@DV?$string_output_adapter@D@__crt_stdio_output@@@2@@__crt_stdio_output@@CAPADXZ 10031af0 f i libucrtd:output.obj
 0001:00030b00       ?narrow_null_string@?$output_processor@DV?$string_output_adapter@D@__crt_stdio_output@@V?$positional_parameter_base@DV?$string_output_adapter@D@__crt_stdio_output@@@2@@__crt_stdio_output@@CAPADXZ 10031b00 f i libucrtd:output.obj
 0001:00030b10       ?narrow_null_string@?$output_processor@DV?$string_output_adapter@D@__crt_stdio_output@@V?$standard_base@DV?$string_output_adapter@D@__crt_stdio_output@@@2@@__crt_stdio_output@@CAPADXZ 10031b10 f i libucrtd:output.obj
 0001:00030b20       ?narrow_null_string@?$output_processor@_WV?$stream_output_adapter@_W@__crt_stdio_output@@V?$format_validation_base@_WV?$stream_output_adapter@_W@__crt_stdio_output@@@2@@__crt_stdio_output@@CAPADXZ 10031b20 f i libucrtd:output.obj
 0001:00030b30       ?narrow_null_string@?$output_processor@_WV?$stream_output_adapter@_W@__crt_stdio_output@@V?$positional_parameter_base@_WV?$stream_output_adapter@_W@__crt_stdio_output@@@2@@__crt_stdio_output@@CAPADXZ 10031b30 f i libucrtd:output.obj
 0001:00030b40       ?narrow_null_string@?$output_processor@_WV?$stream_output_adapter@_W@__crt_stdio_output@@V?$standard_base@_WV?$stream_output_adapter@_W@__crt_stdio_output@@@2@@__crt_stdio_output@@CAPADXZ 10031b40 f i libucrtd:output.obj
 0001:00030b50       ?narrow_null_string@?$output_processor@_WV?$string_output_adapter@_W@__crt_stdio_output@@V?$format_validation_base@_WV?$string_output_adapter@_W@__crt_stdio_output@@@2@@__crt_stdio_output@@CAPADXZ 10031b50 f i libucrtd:output.obj
 0001:00030b60       ?narrow_null_string@?$output_processor@_WV?$string_output_adapter@_W@__crt_stdio_output@@V?$positional_parameter_base@_WV?$string_output_adapter@_W@__crt_stdio_output@@@2@@__crt_stdio_output@@CAPADXZ 10031b60 f i libucrtd:output.obj
 0001:00030b70       ?narrow_null_string@?$output_processor@_WV?$string_output_adapter@_W@__crt_stdio_output@@V?$standard_base@_WV?$string_output_adapter@_W@__crt_stdio_output@@@2@@__crt_stdio_output@@CAPADXZ 10031b70 f i libucrtd:output.obj
 0001:00030b80       ?parse_int_from_format_string@?$output_processor@DV?$stream_output_adapter@D@__crt_stdio_output@@V?$format_validation_base@DV?$stream_output_adapter@D@__crt_stdio_output@@@2@@__crt_stdio_output@@AAE_NQAH@Z 10031b80 f i libucrtd:output.obj
 0001:00030c40       ?parse_int_from_format_string@?$output_processor@DV?$stream_output_adapter@D@__crt_stdio_output@@V?$positional_parameter_base@DV?$stream_output_adapter@D@__crt_stdio_output@@@2@@__crt_stdio_output@@AAE_NQAH@Z 10031c40 f i libucrtd:output.obj
 0001:00030d00       ?parse_int_from_format_string@?$output_processor@DV?$stream_output_adapter@D@__crt_stdio_output@@V?$standard_base@DV?$stream_output_adapter@D@__crt_stdio_output@@@2@@__crt_stdio_output@@AAE_NQAH@Z 10031d00 f i libucrtd:output.obj
 0001:00030dc0       ?parse_int_from_format_string@?$output_processor@DV?$string_output_adapter@D@__crt_stdio_output@@V?$format_validation_base@DV?$string_output_adapter@D@__crt_stdio_output@@@2@@__crt_stdio_output@@AAE_NQAH@Z 10031dc0 f i libucrtd:output.obj
 0001:00030e80       ?parse_int_from_format_string@?$output_processor@DV?$string_output_adapter@D@__crt_stdio_output@@V?$positional_parameter_base@DV?$string_output_adapter@D@__crt_stdio_output@@@2@@__crt_stdio_output@@AAE_NQAH@Z 10031e80 f i libucrtd:output.obj
 0001:00030f40       ?parse_int_from_format_string@?$output_processor@DV?$string_output_adapter@D@__crt_stdio_output@@V?$standard_base@DV?$string_output_adapter@D@__crt_stdio_output@@@2@@__crt_stdio_output@@AAE_NQAH@Z 10031f40 f i libucrtd:output.obj
 0001:00031000       ?parse_int_from_format_string@?$output_processor@_WV?$stream_output_adapter@_W@__crt_stdio_output@@V?$format_validation_base@_WV?$stream_output_adapter@_W@__crt_stdio_output@@@2@@__crt_stdio_output@@AAE_NQAH@Z 10032000 f i libucrtd:output.obj
 0001:000310c0       ?parse_int_from_format_string@?$output_processor@_WV?$stream_output_adapter@_W@__crt_stdio_output@@V?$positional_parameter_base@_WV?$stream_output_adapter@_W@__crt_stdio_output@@@2@@__crt_stdio_output@@AAE_NQAH@Z 100320c0 f i libucrtd:output.obj
 0001:00031180       ?parse_int_from_format_string@?$output_processor@_WV?$stream_output_adapter@_W@__crt_stdio_output@@V?$standard_base@_WV?$stream_output_adapter@_W@__crt_stdio_output@@@2@@__crt_stdio_output@@AAE_NQAH@Z 10032180 f i libucrtd:output.obj
 0001:00031240       ?parse_int_from_format_string@?$output_processor@_WV?$string_output_adapter@_W@__crt_stdio_output@@V?$format_validation_base@_WV?$string_output_adapter@_W@__crt_stdio_output@@@2@@__crt_stdio_output@@AAE_NQAH@Z 10032240 f i libucrtd:output.obj
 0001:00031300       ?parse_int_from_format_string@?$output_processor@_WV?$string_output_adapter@_W@__crt_stdio_output@@V?$positional_parameter_base@_WV?$string_output_adapter@_W@__crt_stdio_output@@@2@@__crt_stdio_output@@AAE_NQAH@Z 10032300 f i libucrtd:output.obj
 0001:000313c0       ?parse_int_from_format_string@?$output_processor@_WV?$string_output_adapter@_W@__crt_stdio_output@@V?$standard_base@_WV?$string_output_adapter@_W@__crt_stdio_output@@@2@@__crt_stdio_output@@AAE_NQAH@Z 100323c0 f i libucrtd:output.obj
 0001:00031480       ?process@?$output_processor@DV?$stream_output_adapter@D@__crt_stdio_output@@V?$format_validation_base@DV?$stream_output_adapter@D@__crt_stdio_output@@@2@@__crt_stdio_output@@QAEHXZ 10032480 f i libucrtd:output.obj
 0001:00031730       ?process@?$output_processor@DV?$stream_output_adapter@D@__crt_stdio_output@@V?$positional_parameter_base@DV?$stream_output_adapter@D@__crt_stdio_output@@@2@@__crt_stdio_output@@QAEHXZ 10032730 f i libucrtd:output.obj
 0001:000319e0       ?process@?$output_processor@DV?$stream_output_adapter@D@__crt_stdio_output@@V?$standard_base@DV?$stream_output_adapter@D@__crt_stdio_output@@@2@@__crt_stdio_output@@QAEHXZ 100329e0 f i libucrtd:output.obj
 0001:00031c90       ?process@?$output_processor@DV?$string_output_adapter@D@__crt_stdio_output@@V?$format_validation_base@DV?$string_output_adapter@D@__crt_stdio_output@@@2@@__crt_stdio_output@@QAEHXZ 10032c90 f i libucrtd:output.obj
 0001:00031f40       ?process@?$output_processor@DV?$string_output_adapter@D@__crt_stdio_output@@V?$positional_parameter_base@DV?$string_output_adapter@D@__crt_stdio_output@@@2@@__crt_stdio_output@@QAEHXZ 10032f40 f i libucrtd:output.obj
 0001:000321f0       ?process@?$output_processor@DV?$string_output_adapter@D@__crt_stdio_output@@V?$standard_base@DV?$string_output_adapter@D@__crt_stdio_output@@@2@@__crt_stdio_output@@QAEHXZ 100331f0 f i libucrtd:output.obj
 0001:000324a0       ?process@?$output_processor@_WV?$stream_output_adapter@_W@__crt_stdio_output@@V?$format_validation_base@_WV?$stream_output_adapter@_W@__crt_stdio_output@@@2@@__crt_stdio_output@@QAEHXZ 100334a0 f i libucrtd:output.obj
 0001:00032750       ?process@?$output_processor@_WV?$stream_output_adapter@_W@__crt_stdio_output@@V?$positional_parameter_base@_WV?$stream_output_adapter@_W@__crt_stdio_output@@@2@@__crt_stdio_output@@QAEHXZ 10033750 f i libucrtd:output.obj
 0001:00032a00       ?process@?$output_processor@_WV?$stream_output_adapter@_W@__crt_stdio_output@@V?$standard_base@_WV?$stream_output_adapter@_W@__crt_stdio_output@@@2@@__crt_stdio_output@@QAEHXZ 10033a00 f i libucrtd:output.obj
 0001:00032cb0       ?process@?$output_processor@_WV?$string_output_adapter@_W@__crt_stdio_output@@V?$format_validation_base@_WV?$string_output_adapter@_W@__crt_stdio_output@@@2@@__crt_stdio_output@@QAEHXZ 10033cb0 f i libucrtd:output.obj
 0001:00032f60       ?process@?$output_processor@_WV?$string_output_adapter@_W@__crt_stdio_output@@V?$positional_parameter_base@_WV?$string_output_adapter@_W@__crt_stdio_output@@@2@@__crt_stdio_output@@QAEHXZ 10033f60 f i libucrtd:output.obj
 0001:00033210       ?process@?$output_processor@_WV?$string_output_adapter@_W@__crt_stdio_output@@V?$standard_base@_WV?$string_output_adapter@_W@__crt_stdio_output@@@2@@__crt_stdio_output@@QAEHXZ 10034210 f i libucrtd:output.obj
 0001:000334c0       ?public_stream@__crt_stdio_stream@@QBEPAU_iobuf@@XZ 100344c0 f i libucrtd:output.obj
 0001:000334e0       ?set_flag@?$output_processor@DV?$stream_output_adapter@D@__crt_stdio_output@@V?$format_validation_base@DV?$stream_output_adapter@D@__crt_stdio_output@@@2@@__crt_stdio_output@@AAEXI@Z 100344e0 f i libucrtd:output.obj
 0001:00033500       ?set_flag@?$output_processor@DV?$stream_output_adapter@D@__crt_stdio_output@@V?$positional_parameter_base@DV?$stream_output_adapter@D@__crt_stdio_output@@@2@@__crt_stdio_output@@AAEXI@Z 10034500 f i libucrtd:output.obj
 0001:00033520       ?set_flag@?$output_processor@DV?$stream_output_adapter@D@__crt_stdio_output@@V?$standard_base@DV?$stream_output_adapter@D@__crt_stdio_output@@@2@@__crt_stdio_output@@AAEXI@Z 10034520 f i libucrtd:output.obj
 0001:00033540       ?set_flag@?$output_processor@DV?$string_output_adapter@D@__crt_stdio_output@@V?$format_validation_base@DV?$string_output_adapter@D@__crt_stdio_output@@@2@@__crt_stdio_output@@AAEXI@Z 10034540 f i libucrtd:output.obj
 0001:00033560       ?set_flag@?$output_processor@DV?$string_output_adapter@D@__crt_stdio_output@@V?$positional_parameter_base@DV?$string_output_adapter@D@__crt_stdio_output@@@2@@__crt_stdio_output@@AAEXI@Z 10034560 f i libucrtd:output.obj
 0001:00033580       ?set_flag@?$output_processor@DV?$string_output_adapter@D@__crt_stdio_output@@V?$standard_base@DV?$string_output_adapter@D@__crt_stdio_output@@@2@@__crt_stdio_output@@AAEXI@Z 10034580 f i libucrtd:output.obj
 0001:000335a0       ?set_flag@?$output_processor@_WV?$stream_output_adapter@_W@__crt_stdio_output@@V?$format_validation_base@_WV?$stream_output_adapter@_W@__crt_stdio_output@@@2@@__crt_stdio_output@@AAEXI@Z 100345a0 f i libucrtd:output.obj
 0001:000335c0       ?set_flag@?$output_processor@_WV?$stream_output_adapter@_W@__crt_stdio_output@@V?$positional_parameter_base@_WV?$stream_output_adapter@_W@__crt_stdio_output@@@2@@__crt_stdio_output@@AAEXI@Z 100345c0 f i libucrtd:output.obj
 0001:000335e0       ?set_flag@?$output_processor@_WV?$stream_output_adapter@_W@__crt_stdio_output@@V?$standard_base@_WV?$stream_output_adapter@_W@__crt_stdio_output@@@2@@__crt_stdio_output@@AAEXI@Z 100345e0 f i libucrtd:output.obj
 0001:00033600       ?set_flag@?$output_processor@_WV?$string_output_adapter@_W@__crt_stdio_output@@V?$format_validation_base@_WV?$string_output_adapter@_W@__crt_stdio_output@@@2@@__crt_stdio_output@@AAEXI@Z 10034600 f i libucrtd:output.obj
 0001:00033620       ?set_flag@?$output_processor@_WV?$string_output_adapter@_W@__crt_stdio_output@@V?$positional_parameter_base@_WV?$string_output_adapter@_W@__crt_stdio_output@@@2@@__crt_stdio_output@@AAEXI@Z 10034620 f i libucrtd:output.obj
 0001:00033640       ?set_flag@?$output_processor@_WV?$string_output_adapter@_W@__crt_stdio_output@@V?$standard_base@_WV?$string_output_adapter@_W@__crt_stdio_output@@@2@@__crt_stdio_output@@AAEXI@Z 10034640 f i libucrtd:output.obj
 0001:00033660       ?should_format@?$positional_parameter_base@DV?$stream_output_adapter@D@__crt_stdio_output@@@__crt_stdio_output@@IAE_NXZ 10034660 f i libucrtd:output.obj
 0001:000336a0       ?should_format@?$positional_parameter_base@DV?$string_output_adapter@D@__crt_stdio_output@@@__crt_stdio_output@@IAE_NXZ 100346a0 f i libucrtd:output.obj
 0001:000336e0       ?should_format@?$positional_parameter_base@_WV?$stream_output_adapter@_W@__crt_stdio_output@@@__crt_stdio_output@@IAE_NXZ 100346e0 f i libucrtd:output.obj
 0001:00033720       ?should_format@?$positional_parameter_base@_WV?$string_output_adapter@_W@__crt_stdio_output@@@__crt_stdio_output@@IAE_NXZ 10034720 f i libucrtd:output.obj
 0001:00033760       ?should_format@?$standard_base@DV?$stream_output_adapter@D@__crt_stdio_output@@@__crt_stdio_output@@IAE_NXZ 10034760 f i libucrtd:output.obj
 0001:00033770       ?should_format@?$standard_base@DV?$string_output_adapter@D@__crt_stdio_output@@@__crt_stdio_output@@IAE_NXZ 10034770 f i libucrtd:output.obj
 0001:00033780       ?should_format@?$standard_base@_WV?$stream_output_adapter@_W@__crt_stdio_output@@@__crt_stdio_output@@IAE_NXZ 10034780 f i libucrtd:output.obj
 0001:00033790       ?should_format@?$standard_base@_WV?$string_output_adapter@_W@__crt_stdio_output@@@__crt_stdio_output@@IAE_NXZ 10034790 f i libucrtd:output.obj
 0001:000337a0       ?should_skip_normal_state_processing@?$positional_parameter_base@DV?$stream_output_adapter@D@__crt_stdio_output@@@__crt_stdio_output@@IAE_NXZ 100347a0 f i libucrtd:output.obj
 0001:000337f0       ?should_skip_normal_state_processing@?$positional_parameter_base@DV?$string_output_adapter@D@__crt_stdio_output@@@__crt_stdio_output@@IAE_NXZ 100347f0 f i libucrtd:output.obj
 0001:00033840       ?should_skip_normal_state_processing@?$positional_parameter_base@_WV?$stream_output_adapter@_W@__crt_stdio_output@@@__crt_stdio_output@@IAE_NXZ 10034840 f i libucrtd:output.obj
 0001:00033890       ?should_skip_normal_state_processing@?$positional_parameter_base@_WV?$string_output_adapter@_W@__crt_stdio_output@@@__crt_stdio_output@@IAE_NXZ 10034890 f i libucrtd:output.obj
 0001:000338e0       ?should_skip_normal_state_processing@?$standard_base@DV?$stream_output_adapter@D@__crt_stdio_output@@@__crt_stdio_output@@IAE_NXZ 100348e0 f i libucrtd:output.obj
 0001:000338f0       ?should_skip_normal_state_processing@?$standard_base@DV?$string_output_adapter@D@__crt_stdio_output@@@__crt_stdio_output@@IAE_NXZ 100348f0 f i libucrtd:output.obj
 0001:00033900       ?should_skip_normal_state_processing@?$standard_base@_WV?$stream_output_adapter@_W@__crt_stdio_output@@@__crt_stdio_output@@IAE_NXZ 10034900 f i libucrtd:output.obj
 0001:00033910       ?should_skip_normal_state_processing@?$standard_base@_WV?$string_output_adapter@_W@__crt_stdio_output@@@__crt_stdio_output@@IAE_NXZ 10034910 f i libucrtd:output.obj
 0001:00033920       ?should_skip_type_state_output@?$positional_parameter_base@DV?$stream_output_adapter@D@__crt_stdio_output@@@__crt_stdio_output@@IBE_NXZ 10034920 f i libucrtd:output.obj
 0001:00033960       ?should_skip_type_state_output@?$positional_parameter_base@DV?$string_output_adapter@D@__crt_stdio_output@@@__crt_stdio_output@@IBE_NXZ 10034960 f i libucrtd:output.obj
 0001:000339a0       ?should_skip_type_state_output@?$positional_parameter_base@_WV?$stream_output_adapter@_W@__crt_stdio_output@@@__crt_stdio_output@@IBE_NXZ 100349a0 f i libucrtd:output.obj
 0001:000339e0       ?should_skip_type_state_output@?$positional_parameter_base@_WV?$string_output_adapter@_W@__crt_stdio_output@@@__crt_stdio_output@@IBE_NXZ 100349e0 f i libucrtd:output.obj
 0001:00033a20       ?should_skip_type_state_output@?$standard_base@DV?$stream_output_adapter@D@__crt_stdio_output@@@__crt_stdio_output@@IBE_NXZ 10034a20 f i libucrtd:output.obj
 0001:00033a30       ?should_skip_type_state_output@?$standard_base@DV?$string_output_adapter@D@__crt_stdio_output@@@__crt_stdio_output@@IBE_NXZ 10034a30 f i libucrtd:output.obj
 0001:00033a40       ?should_skip_type_state_output@?$standard_base@_WV?$stream_output_adapter@_W@__crt_stdio_output@@@__crt_stdio_output@@IBE_NXZ 10034a40 f i libucrtd:output.obj
 0001:00033a50       ?should_skip_type_state_output@?$standard_base@_WV?$string_output_adapter@_W@__crt_stdio_output@@@__crt_stdio_output@@IBE_NXZ 10034a50 f i libucrtd:output.obj
 0001:00033a60       ?state_case_dot@?$output_processor@DV?$stream_output_adapter@D@__crt_stdio_output@@V?$format_validation_base@DV?$stream_output_adapter@D@__crt_stdio_output@@@2@@__crt_stdio_output@@AAE_NXZ 10034a60 f i libucrtd:output.obj
 0001:00033a80       ?state_case_dot@?$output_processor@DV?$stream_output_adapter@D@__crt_stdio_output@@V?$positional_parameter_base@DV?$stream_output_adapter@D@__crt_stdio_output@@@2@@__crt_stdio_output@@AAE_NXZ 10034a80 f i libucrtd:output.obj
 0001:00033aa0       ?state_case_dot@?$output_processor@DV?$stream_output_adapter@D@__crt_stdio_output@@V?$standard_base@DV?$stream_output_adapter@D@__crt_stdio_output@@@2@@__crt_stdio_output@@AAE_NXZ 10034aa0 f i libucrtd:output.obj
 0001:00033ac0       ?state_case_dot@?$output_processor@DV?$string_output_adapter@D@__crt_stdio_output@@V?$format_validation_base@DV?$string_output_adapter@D@__crt_stdio_output@@@2@@__crt_stdio_output@@AAE_NXZ 10034ac0 f i libucrtd:output.obj
 0001:00033ae0       ?state_case_dot@?$output_processor@DV?$string_output_adapter@D@__crt_stdio_output@@V?$positional_parameter_base@DV?$string_output_adapter@D@__crt_stdio_output@@@2@@__crt_stdio_output@@AAE_NXZ 10034ae0 f i libucrtd:output.obj
 0001:00033b00       ?state_case_dot@?$output_processor@DV?$string_output_adapter@D@__crt_stdio_output@@V?$standard_base@DV?$string_output_adapter@D@__crt_stdio_output@@@2@@__crt_stdio_output@@AAE_NXZ 10034b00 f i libucrtd:output.obj
 0001:00033b20       ?state_case_dot@?$output_processor@_WV?$stream_output_adapter@_W@__crt_stdio_output@@V?$format_validation_base@_WV?$stream_output_adapter@_W@__crt_stdio_output@@@2@@__crt_stdio_output@@AAE_NXZ 10034b20 f i libucrtd:output.obj
 0001:00033b40       ?state_case_dot@?$output_processor@_WV?$stream_output_adapter@_W@__crt_stdio_output@@V?$positional_parameter_base@_WV?$stream_output_adapter@_W@__crt_stdio_output@@@2@@__crt_stdio_output@@AAE_NXZ 10034b40 f i libucrtd:output.obj
 0001:00033b60       ?state_case_dot@?$output_processor@_WV?$stream_output_adapter@_W@__crt_stdio_output@@V?$standard_base@_WV?$stream_output_adapter@_W@__crt_stdio_output@@@2@@__crt_stdio_output@@AAE_NXZ 10034b60 f i libucrtd:output.obj
 0001:00033b80       ?state_case_dot@?$output_processor@_WV?$string_output_adapter@_W@__crt_stdio_output@@V?$format_validation_base@_WV?$string_output_adapter@_W@__crt_stdio_output@@@2@@__crt_stdio_output@@AAE_NXZ 10034b80 f i libucrtd:output.obj
 0001:00033ba0       ?state_case_dot@?$output_processor@_WV?$string_output_adapter@_W@__crt_stdio_output@@V?$positional_parameter_base@_WV?$string_output_adapter@_W@__crt_stdio_output@@@2@@__crt_stdio_output@@AAE_NXZ 10034ba0 f i libucrtd:output.obj
 0001:00033bc0       ?state_case_dot@?$output_processor@_WV?$string_output_adapter@_W@__crt_stdio_output@@V?$standard_base@_WV?$string_output_adapter@_W@__crt_stdio_output@@@2@@__crt_stdio_output@@AAE_NXZ 10034bc0 f i libucrtd:output.obj
 0001:00033be0       ?state_case_flag@?$output_processor@DV?$stream_output_adapter@D@__crt_stdio_output@@V?$format_validation_base@DV?$stream_output_adapter@D@__crt_stdio_output@@@2@@__crt_stdio_output@@AAE_NXZ 10034be0 f i libucrtd:output.obj
 0001:00033c90       ?state_case_flag@?$output_processor@DV?$stream_output_adapter@D@__crt_stdio_output@@V?$positional_parameter_base@DV?$stream_output_adapter@D@__crt_stdio_output@@@2@@__crt_stdio_output@@AAE_NXZ 10034c90 f i libucrtd:output.obj
 0001:00033d40       ?state_case_flag@?$output_processor@DV?$stream_output_adapter@D@__crt_stdio_output@@V?$standard_base@DV?$stream_output_adapter@D@__crt_stdio_output@@@2@@__crt_stdio_output@@AAE_NXZ 10034d40 f i libucrtd:output.obj
 0001:00033df0       ?state_case_flag@?$output_processor@DV?$string_output_adapter@D@__crt_stdio_output@@V?$format_validation_base@DV?$string_output_adapter@D@__crt_stdio_output@@@2@@__crt_stdio_output@@AAE_NXZ 10034df0 f i libucrtd:output.obj
 0001:00033ea0       ?state_case_flag@?$output_processor@DV?$string_output_adapter@D@__crt_stdio_output@@V?$positional_parameter_base@DV?$string_output_adapter@D@__crt_stdio_output@@@2@@__crt_stdio_output@@AAE_NXZ 10034ea0 f i libucrtd:output.obj
 0001:00033f50       ?state_case_flag@?$output_processor@DV?$string_output_adapter@D@__crt_stdio_output@@V?$standard_base@DV?$string_output_adapter@D@__crt_stdio_output@@@2@@__crt_stdio_output@@AAE_NXZ 10034f50 f i libucrtd:output.obj
 0001:00034000       ?state_case_flag@?$output_processor@_WV?$stream_output_adapter@_W@__crt_stdio_output@@V?$format_validation_base@_WV?$stream_output_adapter@_W@__crt_stdio_output@@@2@@__crt_stdio_output@@AAE_NXZ 10035000 f i libucrtd:output.obj
 0001:000340b0       ?state_case_flag@?$output_processor@_WV?$stream_output_adapter@_W@__crt_stdio_output@@V?$positional_parameter_base@_WV?$stream_output_adapter@_W@__crt_stdio_output@@@2@@__crt_stdio_output@@AAE_NXZ 100350b0 f i libucrtd:output.obj
 0001:00034160       ?state_case_flag@?$output_processor@_WV?$stream_output_adapter@_W@__crt_stdio_output@@V?$standard_base@_WV?$stream_output_adapter@_W@__crt_stdio_output@@@2@@__crt_stdio_output@@AAE_NXZ 10035160 f i libucrtd:output.obj
 0001:00034210       ?state_case_flag@?$output_processor@_WV?$string_output_adapter@_W@__crt_stdio_output@@V?$format_validation_base@_WV?$string_output_adapter@_W@__crt_stdio_output@@@2@@__crt_stdio_output@@AAE_NXZ 10035210 f i libucrtd:output.obj
 0001:000342c0       ?state_case_flag@?$output_processor@_WV?$string_output_adapter@_W@__crt_stdio_output@@V?$positional_parameter_base@_WV?$string_output_adapter@_W@__crt_stdio_output@@@2@@__crt_stdio_output@@AAE_NXZ 100352c0 f i libucrtd:output.obj
 0001:00034370       ?state_case_flag@?$output_processor@_WV?$string_output_adapter@_W@__crt_stdio_output@@V?$standard_base@_WV?$string_output_adapter@_W@__crt_stdio_output@@@2@@__crt_stdio_output@@AAE_NXZ 10035370 f i libucrtd:output.obj
 0001:00034420       ?state_case_normal@?$output_processor@DV?$stream_output_adapter@D@__crt_stdio_output@@V?$format_validation_base@DV?$stream_output_adapter@D@__crt_stdio_output@@@2@@__crt_stdio_output@@AAE_NXZ 10035420 f i libucrtd:output.obj
 0001:000344d0       ?state_case_normal@?$output_processor@DV?$stream_output_adapter@D@__crt_stdio_output@@V?$positional_parameter_base@DV?$stream_output_adapter@D@__crt_stdio_output@@@2@@__crt_stdio_output@@AAE_NXZ 100354d0 f i libucrtd:output.obj
 0001:00034580       ?state_case_normal@?$output_processor@DV?$stream_output_adapter@D@__crt_stdio_output@@V?$standard_base@DV?$stream_output_adapter@D@__crt_stdio_output@@@2@@__crt_stdio_output@@AAE_NXZ 10035580 f i libucrtd:output.obj
 0001:00034630       ?state_case_normal@?$output_processor@DV?$string_output_adapter@D@__crt_stdio_output@@V?$format_validation_base@DV?$string_output_adapter@D@__crt_stdio_output@@@2@@__crt_stdio_output@@AAE_NXZ 10035630 f i libucrtd:output.obj
 0001:000346e0       ?state_case_normal@?$output_processor@DV?$string_output_adapter@D@__crt_stdio_output@@V?$positional_parameter_base@DV?$string_output_adapter@D@__crt_stdio_output@@@2@@__crt_stdio_output@@AAE_NXZ 100356e0 f i libucrtd:output.obj
 0001:00034790       ?state_case_normal@?$output_processor@DV?$string_output_adapter@D@__crt_stdio_output@@V?$standard_base@DV?$string_output_adapter@D@__crt_stdio_output@@@2@@__crt_stdio_output@@AAE_NXZ 10035790 f i libucrtd:output.obj
 0001:00034840       ?state_case_normal@?$output_processor@_WV?$stream_output_adapter@_W@__crt_stdio_output@@V?$format_validation_base@_WV?$stream_output_adapter@_W@__crt_stdio_output@@@2@@__crt_stdio_output@@AAE_NXZ 10035840 f i libucrtd:output.obj
 0001:000348f0       ?state_case_normal@?$output_processor@_WV?$stream_output_adapter@_W@__crt_stdio_output@@V?$positional_parameter_base@_WV?$stream_output_adapter@_W@__crt_stdio_output@@@2@@__crt_stdio_output@@AAE_NXZ 100358f0 f i libucrtd:output.obj
 0001:000349a0       ?state_case_normal@?$output_processor@_WV?$stream_output_adapter@_W@__crt_stdio_output@@V?$standard_base@_WV?$stream_output_adapter@_W@__crt_stdio_output@@@2@@__crt_stdio_output@@AAE_NXZ 100359a0 f i libucrtd:output.obj
 0001:00034a50       ?state_case_normal@?$output_processor@_WV?$string_output_adapter@_W@__crt_stdio_output@@V?$format_validation_base@_WV?$string_output_adapter@_W@__crt_stdio_output@@@2@@__crt_stdio_output@@AAE_NXZ 10035a50 f i libucrtd:output.obj
 0001:00034b00       ?state_case_normal@?$output_processor@_WV?$string_output_adapter@_W@__crt_stdio_output@@V?$positional_parameter_base@_WV?$string_output_adapter@_W@__crt_stdio_output@@@2@@__crt_stdio_output@@AAE_NXZ 10035b00 f i libucrtd:output.obj
 0001:00034bb0       ?state_case_normal@?$output_processor@_WV?$string_output_adapter@_W@__crt_stdio_output@@V?$standard_base@_WV?$string_output_adapter@_W@__crt_stdio_output@@@2@@__crt_stdio_output@@AAE_NXZ 10035bb0 f i libucrtd:output.obj
 0001:00034c60       ?state_case_normal_common@?$output_processor@DV?$stream_output_adapter@D@__crt_stdio_output@@V?$format_validation_base@DV?$stream_output_adapter@D@__crt_stdio_output@@@2@@__crt_stdio_output@@AAE_NXZ 10035c60 f i libucrtd:output.obj
 0001:00034cb0       ?state_case_normal_common@?$output_processor@DV?$stream_output_adapter@D@__crt_stdio_output@@V?$positional_parameter_base@DV?$stream_output_adapter@D@__crt_stdio_output@@@2@@__crt_stdio_output@@AAE_NXZ 10035cb0 f i libucrtd:output.obj
 0001:00034d00       ?state_case_normal_common@?$output_processor@DV?$stream_output_adapter@D@__crt_stdio_output@@V?$standard_base@DV?$stream_output_adapter@D@__crt_stdio_output@@@2@@__crt_stdio_output@@AAE_NXZ 10035d00 f i libucrtd:output.obj
 0001:00034d50       ?state_case_normal_common@?$output_processor@DV?$string_output_adapter@D@__crt_stdio_output@@V?$format_validation_base@DV?$string_output_adapter@D@__crt_stdio_output@@@2@@__crt_stdio_output@@AAE_NXZ 10035d50 f i libucrtd:output.obj
 0001:00034da0       ?state_case_normal_common@?$output_processor@DV?$string_output_adapter@D@__crt_stdio_output@@V?$positional_parameter_base@DV?$string_output_adapter@D@__crt_stdio_output@@@2@@__crt_stdio_output@@AAE_NXZ 10035da0 f i libucrtd:output.obj
 0001:00034df0       ?state_case_normal_common@?$output_processor@DV?$string_output_adapter@D@__crt_stdio_output@@V?$standard_base@DV?$string_output_adapter@D@__crt_stdio_output@@@2@@__crt_stdio_output@@AAE_NXZ 10035df0 f i libucrtd:output.obj
 0001:00034e40       ?state_case_normal_common@?$output_processor@_WV?$stream_output_adapter@_W@__crt_stdio_output@@V?$format_validation_base@_WV?$stream_output_adapter@_W@__crt_stdio_output@@@2@@__crt_stdio_output@@AAE_NXZ 10035e40 f i libucrtd:output.obj
 0001:00034e90       ?state_case_normal_common@?$output_processor@_WV?$stream_output_adapter@_W@__crt_stdio_output@@V?$positional_parameter_base@_WV?$stream_output_adapter@_W@__crt_stdio_output@@@2@@__crt_stdio_output@@AAE_NXZ 10035e90 f i libucrtd:output.obj
 0001:00034ee0       ?state_case_normal_common@?$output_processor@_WV?$stream_output_adapter@_W@__crt_stdio_output@@V?$standard_base@_WV?$stream_output_adapter@_W@__crt_stdio_output@@@2@@__crt_stdio_output@@AAE_NXZ 10035ee0 f i libucrtd:output.obj
 0001:00034f30       ?state_case_normal_common@?$output_processor@_WV?$string_output_adapter@_W@__crt_stdio_output@@V?$format_validation_base@_WV?$string_output_adapter@_W@__crt_stdio_output@@@2@@__crt_stdio_output@@AAE_NXZ 10035f30 f i libucrtd:output.obj
 0001:00034f80       ?state_case_normal_common@?$output_processor@_WV?$string_output_adapter@_W@__crt_stdio_output@@V?$positional_parameter_base@_WV?$string_output_adapter@_W@__crt_stdio_output@@@2@@__crt_stdio_output@@AAE_NXZ 10035f80 f i libucrtd:output.obj
 0001:00034fd0       ?state_case_normal_common@?$output_processor@_WV?$string_output_adapter@_W@__crt_stdio_output@@V?$standard_base@_WV?$string_output_adapter@_W@__crt_stdio_output@@@2@@__crt_stdio_output@@AAE_NXZ 10035fd0 f i libucrtd:output.obj
 0001:00035020       ?state_case_normal_tchar@?$output_processor@DV?$stream_output_adapter@D@__crt_stdio_output@@V?$format_validation_base@DV?$stream_output_adapter@D@__crt_stdio_output@@@2@@__crt_stdio_output@@AAE_ND@Z 10036020 f i libucrtd:output.obj
 0001:00035120       ?state_case_normal_tchar@?$output_processor@DV?$stream_output_adapter@D@__crt_stdio_output@@V?$positional_parameter_base@DV?$stream_output_adapter@D@__crt_stdio_output@@@2@@__crt_stdio_output@@AAE_ND@Z 10036120 f i libucrtd:output.obj
 0001:00035220       ?state_case_normal_tchar@?$output_processor@DV?$stream_output_adapter@D@__crt_stdio_output@@V?$standard_base@DV?$stream_output_adapter@D@__crt_stdio_output@@@2@@__crt_stdio_output@@AAE_ND@Z 10036220 f i libucrtd:output.obj
 0001:00035320       ?state_case_normal_tchar@?$output_processor@DV?$string_output_adapter@D@__crt_stdio_output@@V?$format_validation_base@DV?$string_output_adapter@D@__crt_stdio_output@@@2@@__crt_stdio_output@@AAE_ND@Z 10036320 f i libucrtd:output.obj
 0001:00035420       ?state_case_normal_tchar@?$output_processor@DV?$string_output_adapter@D@__crt_stdio_output@@V?$positional_parameter_base@DV?$string_output_adapter@D@__crt_stdio_output@@@2@@__crt_stdio_output@@AAE_ND@Z 10036420 f i libucrtd:output.obj
 0001:00035520       ?state_case_normal_tchar@?$output_processor@DV?$string_output_adapter@D@__crt_stdio_output@@V?$standard_base@DV?$string_output_adapter@D@__crt_stdio_output@@@2@@__crt_stdio_output@@AAE_ND@Z 10036520 f i libucrtd:output.obj
 0001:00035620       ?state_case_normal_tchar@?$output_processor@_WV?$stream_output_adapter@_W@__crt_stdio_output@@V?$format_validation_base@_WV?$stream_output_adapter@_W@__crt_stdio_output@@@2@@__crt_stdio_output@@AAE_N_W@Z 10036620 f i libucrtd:output.obj
 0001:00035640       ?state_case_normal_tchar@?$output_processor@_WV?$stream_output_adapter@_W@__crt_stdio_output@@V?$positional_parameter_base@_WV?$stream_output_adapter@_W@__crt_stdio_output@@@2@@__crt_stdio_output@@AAE_N_W@Z 10036640 f i libucrtd:output.obj
 0001:00035660       ?state_case_normal_tchar@?$output_processor@_WV?$stream_output_adapter@_W@__crt_stdio_output@@V?$standard_base@_WV?$stream_output_adapter@_W@__crt_stdio_output@@@2@@__crt_stdio_output@@AAE_N_W@Z 10036660 f i libucrtd:output.obj
 0001:00035680       ?state_case_normal_tchar@?$output_processor@_WV?$string_output_adapter@_W@__crt_stdio_output@@V?$format_validation_base@_WV?$string_output_adapter@_W@__crt_stdio_output@@@2@@__crt_stdio_output@@AAE_N_W@Z 10036680 f i libucrtd:output.obj
 0001:000356a0       ?state_case_normal_tchar@?$output_processor@_WV?$string_output_adapter@_W@__crt_stdio_output@@V?$positional_parameter_base@_WV?$string_output_adapter@_W@__crt_stdio_output@@@2@@__crt_stdio_output@@AAE_N_W@Z 100366a0 f i libucrtd:output.obj
 0001:000356c0       ?state_case_normal_tchar@?$output_processor@_WV?$string_output_adapter@_W@__crt_stdio_output@@V?$standard_base@_WV?$string_output_adapter@_W@__crt_stdio_output@@@2@@__crt_stdio_output@@AAE_N_W@Z 100366c0 f i libucrtd:output.obj
 0001:000356e0       ?state_case_percent@?$output_processor@DV?$stream_output_adapter@D@__crt_stdio_output@@V?$format_validation_base@DV?$stream_output_adapter@D@__crt_stdio_output@@@2@@__crt_stdio_output@@AAE_NXZ 100366e0 f i libucrtd:output.obj
 0001:00035730       ?state_case_percent@?$output_processor@DV?$stream_output_adapter@D@__crt_stdio_output@@V?$positional_parameter_base@DV?$stream_output_adapter@D@__crt_stdio_output@@@2@@__crt_stdio_output@@AAE_NXZ 10036730 f i libucrtd:output.obj
 0001:00035780       ?state_case_percent@?$output_processor@DV?$stream_output_adapter@D@__crt_stdio_output@@V?$standard_base@DV?$stream_output_adapter@D@__crt_stdio_output@@@2@@__crt_stdio_output@@AAE_NXZ 10036780 f i libucrtd:output.obj
 0001:000357d0       ?state_case_percent@?$output_processor@DV?$string_output_adapter@D@__crt_stdio_output@@V?$format_validation_base@DV?$string_output_adapter@D@__crt_stdio_output@@@2@@__crt_stdio_output@@AAE_NXZ 100367d0 f i libucrtd:output.obj
 0001:00035820       ?state_case_percent@?$output_processor@DV?$string_output_adapter@D@__crt_stdio_output@@V?$positional_parameter_base@DV?$string_output_adapter@D@__crt_stdio_output@@@2@@__crt_stdio_output@@AAE_NXZ 10036820 f i libucrtd:output.obj
 0001:00035870       ?state_case_percent@?$output_processor@DV?$string_output_adapter@D@__crt_stdio_output@@V?$standard_base@DV?$string_output_adapter@D@__crt_stdio_output@@@2@@__crt_stdio_output@@AAE_NXZ 10036870 f i libucrtd:output.obj
 0001:000358c0       ?state_case_percent@?$output_processor@_WV?$stream_output_adapter@_W@__crt_stdio_output@@V?$format_validation_base@_WV?$stream_output_adapter@_W@__crt_stdio_output@@@2@@__crt_stdio_output@@AAE_NXZ 100368c0 f i libucrtd:output.obj
 0001:00035910       ?state_case_percent@?$output_processor@_WV?$stream_output_adapter@_W@__crt_stdio_output@@V?$positional_parameter_base@_WV?$stream_output_adapter@_W@__crt_stdio_output@@@2@@__crt_stdio_output@@AAE_NXZ 10036910 f i libucrtd:output.obj
 0001:00035960       ?state_case_percent@?$output_processor@_WV?$stream_output_adapter@_W@__crt_stdio_output@@V?$standard_base@_WV?$stream_output_adapter@_W@__crt_stdio_output@@@2@@__crt_stdio_output@@AAE_NXZ 10036960 f i libucrtd:output.obj
 0001:000359b0       ?state_case_percent@?$output_processor@_WV?$string_output_adapter@_W@__crt_stdio_output@@V?$format_validation_base@_WV?$string_output_adapter@_W@__crt_stdio_output@@@2@@__crt_stdio_output@@AAE_NXZ 100369b0 f i libucrtd:output.obj
 0001:00035a00       ?state_case_percent@?$output_processor@_WV?$string_output_adapter@_W@__crt_stdio_output@@V?$positional_parameter_base@_WV?$string_output_adapter@_W@__crt_stdio_output@@@2@@__crt_stdio_output@@AAE_NXZ 10036a00 f i libucrtd:output.obj
 0001:00035a50       ?state_case_percent@?$output_processor@_WV?$string_output_adapter@_W@__crt_stdio_output@@V?$standard_base@_WV?$string_output_adapter@_W@__crt_stdio_output@@@2@@__crt_stdio_output@@AAE_NXZ 10036a50 f i libucrtd:output.obj
 0001:00035aa0       ?state_case_precision@?$output_processor@DV?$stream_output_adapter@D@__crt_stdio_output@@V?$format_validation_base@DV?$stream_output_adapter@D@__crt_stdio_output@@@2@@__crt_stdio_output@@AAE_NXZ 10036aa0 f i libucrtd:output.obj
 0001:00035b10       ?state_case_precision@?$output_processor@DV?$stream_output_adapter@D@__crt_stdio_output@@V?$positional_parameter_base@DV?$stream_output_adapter@D@__crt_stdio_output@@@2@@__crt_stdio_output@@AAE_NXZ 10036b10 f i libucrtd:output.obj
 0001:00035b80       ?state_case_precision@?$output_processor@DV?$stream_output_adapter@D@__crt_stdio_output@@V?$standard_base@DV?$stream_output_adapter@D@__crt_stdio_output@@@2@@__crt_stdio_output@@AAE_NXZ 10036b80 f i libucrtd:output.obj
 0001:00035bf0       ?state_case_precision@?$output_processor@DV?$string_output_adapter@D@__crt_stdio_output@@V?$format_validation_base@DV?$string_output_adapter@D@__crt_stdio_output@@@2@@__crt_stdio_output@@AAE_NXZ 10036bf0 f i libucrtd:output.obj
 0001:00035c60       ?state_case_precision@?$output_processor@DV?$string_output_adapter@D@__crt_stdio_output@@V?$positional_parameter_base@DV?$string_output_adapter@D@__crt_stdio_output@@@2@@__crt_stdio_output@@AAE_NXZ 10036c60 f i libucrtd:output.obj
 0001:00035cd0       ?state_case_precision@?$output_processor@DV?$string_output_adapter@D@__crt_stdio_output@@V?$standard_base@DV?$string_output_adapter@D@__crt_stdio_output@@@2@@__crt_stdio_output@@AAE_NXZ 10036cd0 f i libucrtd:output.obj
 0001:00035d40       ?state_case_precision@?$output_processor@_WV?$stream_output_adapter@_W@__crt_stdio_output@@V?$format_validation_base@_WV?$stream_output_adapter@_W@__crt_stdio_output@@@2@@__crt_stdio_output@@AAE_NXZ 10036d40 f i libucrtd:output.obj
 0001:00035db0       ?state_case_precision@?$output_processor@_WV?$stream_output_adapter@_W@__crt_stdio_output@@V?$positional_parameter_base@_WV?$stream_output_adapter@_W@__crt_stdio_output@@@2@@__crt_stdio_output@@AAE_NXZ 10036db0 f i libucrtd:output.obj
 0001:00035e20       ?state_case_precision@?$output_processor@_WV?$stream_output_adapter@_W@__crt_stdio_output@@V?$standard_base@_WV?$stream_output_adapter@_W@__crt_stdio_output@@@2@@__crt_stdio_output@@AAE_NXZ 10036e20 f i libucrtd:output.obj
 0001:00035e90       ?state_case_precision@?$output_processor@_WV?$string_output_adapter@_W@__crt_stdio_output@@V?$format_validation_base@_WV?$string_output_adapter@_W@__crt_stdio_output@@@2@@__crt_stdio_output@@AAE_NXZ 10036e90 f i libucrtd:output.obj
 0001:00035f00       ?state_case_precision@?$output_processor@_WV?$string_output_adapter@_W@__crt_stdio_output@@V?$positional_parameter_base@_WV?$string_output_adapter@_W@__crt_stdio_output@@@2@@__crt_stdio_output@@AAE_NXZ 10036f00 f i libucrtd:output.obj
 0001:00035f70       ?state_case_precision@?$output_processor@_WV?$string_output_adapter@_W@__crt_stdio_output@@V?$standard_base@_WV?$string_output_adapter@_W@__crt_stdio_output@@@2@@__crt_stdio_output@@AAE_NXZ 10036f70 f i libucrtd:output.obj
 0001:00035fe0       ?state_case_size@?$output_processor@DV?$stream_output_adapter@D@__crt_stdio_output@@V?$format_validation_base@DV?$stream_output_adapter@D@__crt_stdio_output@@@2@@__crt_stdio_output@@AAE_NXZ 10036fe0 f i libucrtd:output.obj
 0001:000363b0       ?state_case_size@?$output_processor@DV?$stream_output_adapter@D@__crt_stdio_output@@V?$positional_parameter_base@DV?$stream_output_adapter@D@__crt_stdio_output@@@2@@__crt_stdio_output@@AAE_NXZ 100373b0 f i libucrtd:output.obj
 0001:00036780       ?state_case_size@?$output_processor@DV?$stream_output_adapter@D@__crt_stdio_output@@V?$standard_base@DV?$stream_output_adapter@D@__crt_stdio_output@@@2@@__crt_stdio_output@@AAE_NXZ 10037780 f i libucrtd:output.obj
 0001:00036b50       ?state_case_size@?$output_processor@DV?$string_output_adapter@D@__crt_stdio_output@@V?$format_validation_base@DV?$string_output_adapter@D@__crt_stdio_output@@@2@@__crt_stdio_output@@AAE_NXZ 10037b50 f i libucrtd:output.obj
 0001:00036f20       ?state_case_size@?$output_processor@DV?$string_output_adapter@D@__crt_stdio_output@@V?$positional_parameter_base@DV?$string_output_adapter@D@__crt_stdio_output@@@2@@__crt_stdio_output@@AAE_NXZ 10037f20 f i libucrtd:output.obj
 0001:000372f0       ?state_case_size@?$output_processor@DV?$string_output_adapter@D@__crt_stdio_output@@V?$standard_base@DV?$string_output_adapter@D@__crt_stdio_output@@@2@@__crt_stdio_output@@AAE_NXZ 100382f0 f i libucrtd:output.obj
 0001:000376c0       ?state_case_size@?$output_processor@_WV?$stream_output_adapter@_W@__crt_stdio_output@@V?$format_validation_base@_WV?$stream_output_adapter@_W@__crt_stdio_output@@@2@@__crt_stdio_output@@AAE_NXZ 100386c0 f i libucrtd:output.obj
 0001:00037a90       ?state_case_size@?$output_processor@_WV?$stream_output_adapter@_W@__crt_stdio_output@@V?$positional_parameter_base@_WV?$stream_output_adapter@_W@__crt_stdio_output@@@2@@__crt_stdio_output@@AAE_NXZ 10038a90 f i libucrtd:output.obj
 0001:00037e60       ?state_case_size@?$output_processor@_WV?$stream_output_adapter@_W@__crt_stdio_output@@V?$standard_base@_WV?$stream_output_adapter@_W@__crt_stdio_output@@@2@@__crt_stdio_output@@AAE_NXZ 10038e60 f i libucrtd:output.obj
 0001:00038230       ?state_case_size@?$output_processor@_WV?$string_output_adapter@_W@__crt_stdio_output@@V?$format_validation_base@_WV?$string_output_adapter@_W@__crt_stdio_output@@@2@@__crt_stdio_output@@AAE_NXZ 10039230 f i libucrtd:output.obj
 0001:00038600       ?state_case_size@?$output_processor@_WV?$string_output_adapter@_W@__crt_stdio_output@@V?$positional_parameter_base@_WV?$string_output_adapter@_W@__crt_stdio_output@@@2@@__crt_stdio_output@@AAE_NXZ 10039600 f i libucrtd:output.obj
 0001:000389d0       ?state_case_size@?$output_processor@_WV?$string_output_adapter@_W@__crt_stdio_output@@V?$standard_base@_WV?$string_output_adapter@_W@__crt_stdio_output@@@2@@__crt_stdio_output@@AAE_NXZ 100399d0 f i libucrtd:output.obj
 0001:00038da0       ?state_case_type@?$output_processor@DV?$stream_output_adapter@D@__crt_stdio_output@@V?$format_validation_base@DV?$stream_output_adapter@D@__crt_stdio_output@@@2@@__crt_stdio_output@@AAE_NXZ 10039da0 f i libucrtd:output.obj
 0001:00039150       ?state_case_type@?$output_processor@DV?$stream_output_adapter@D@__crt_stdio_output@@V?$positional_parameter_base@DV?$stream_output_adapter@D@__crt_stdio_output@@@2@@__crt_stdio_output@@AAE_NXZ 1003a150 f i libucrtd:output.obj
 0001:00039500       ?state_case_type@?$output_processor@DV?$stream_output_adapter@D@__crt_stdio_output@@V?$standard_base@DV?$stream_output_adapter@D@__crt_stdio_output@@@2@@__crt_stdio_output@@AAE_NXZ 1003a500 f i libucrtd:output.obj
 0001:000398b0       ?state_case_type@?$output_processor@DV?$string_output_adapter@D@__crt_stdio_output@@V?$format_validation_base@DV?$string_output_adapter@D@__crt_stdio_output@@@2@@__crt_stdio_output@@AAE_NXZ 1003a8b0 f i libucrtd:output.obj
 0001:00039c60       ?state_case_type@?$output_processor@DV?$string_output_adapter@D@__crt_stdio_output@@V?$positional_parameter_base@DV?$string_output_adapter@D@__crt_stdio_output@@@2@@__crt_stdio_output@@AAE_NXZ 1003ac60 f i libucrtd:output.obj
 0001:0003a010       ?state_case_type@?$output_processor@DV?$string_output_adapter@D@__crt_stdio_output@@V?$standard_base@DV?$string_output_adapter@D@__crt_stdio_output@@@2@@__crt_stdio_output@@AAE_NXZ 1003b010 f i libucrtd:output.obj
 0001:0003a3c0       ?state_case_type@?$output_processor@_WV?$stream_output_adapter@_W@__crt_stdio_output@@V?$format_validation_base@_WV?$stream_output_adapter@_W@__crt_stdio_output@@@2@@__crt_stdio_output@@AAE_NXZ 1003b3c0 f i libucrtd:output.obj
 0001:0003a7a0       ?state_case_type@?$output_processor@_WV?$stream_output_adapter@_W@__crt_stdio_output@@V?$positional_parameter_base@_WV?$stream_output_adapter@_W@__crt_stdio_output@@@2@@__crt_stdio_output@@AAE_NXZ 1003b7a0 f i libucrtd:output.obj
 0001:0003ab80       ?state_case_type@?$output_processor@_WV?$stream_output_adapter@_W@__crt_stdio_output@@V?$standard_base@_WV?$stream_output_adapter@_W@__crt_stdio_output@@@2@@__crt_stdio_output@@AAE_NXZ 1003bb80 f i libucrtd:output.obj
 0001:0003af60       ?state_case_type@?$output_processor@_WV?$string_output_adapter@_W@__crt_stdio_output@@V?$format_validation_base@_WV?$string_output_adapter@_W@__crt_stdio_output@@@2@@__crt_stdio_output@@AAE_NXZ 1003bf60 f i libucrtd:output.obj
 0001:0003b340       ?state_case_type@?$output_processor@_WV?$string_output_adapter@_W@__crt_stdio_output@@V?$positional_parameter_base@_WV?$string_output_adapter@_W@__crt_stdio_output@@@2@@__crt_stdio_output@@AAE_NXZ 1003c340 f i libucrtd:output.obj
 0001:0003b720       ?state_case_type@?$output_processor@_WV?$string_output_adapter@_W@__crt_stdio_output@@V?$standard_base@_WV?$string_output_adapter@_W@__crt_stdio_output@@@2@@__crt_stdio_output@@AAE_NXZ 1003c720 f i libucrtd:output.obj
 0001:0003bb00       ?state_case_width@?$output_processor@DV?$stream_output_adapter@D@__crt_stdio_output@@V?$format_validation_base@DV?$stream_output_adapter@D@__crt_stdio_output@@@2@@__crt_stdio_output@@AAE_NXZ 1003cb00 f i libucrtd:output.obj
 0001:0003bb80       ?state_case_width@?$output_processor@DV?$stream_output_adapter@D@__crt_stdio_output@@V?$positional_parameter_base@DV?$stream_output_adapter@D@__crt_stdio_output@@@2@@__crt_stdio_output@@AAE_NXZ 1003cb80 f i libucrtd:output.obj
 0001:0003bc00       ?state_case_width@?$output_processor@DV?$stream_output_adapter@D@__crt_stdio_output@@V?$standard_base@DV?$stream_output_adapter@D@__crt_stdio_output@@@2@@__crt_stdio_output@@AAE_NXZ 1003cc00 f i libucrtd:output.obj
 0001:0003bc80       ?state_case_width@?$output_processor@DV?$string_output_adapter@D@__crt_stdio_output@@V?$format_validation_base@DV?$string_output_adapter@D@__crt_stdio_output@@@2@@__crt_stdio_output@@AAE_NXZ 1003cc80 f i libucrtd:output.obj
 0001:0003bd00       ?state_case_width@?$output_processor@DV?$string_output_adapter@D@__crt_stdio_output@@V?$positional_parameter_base@DV?$string_output_adapter@D@__crt_stdio_output@@@2@@__crt_stdio_output@@AAE_NXZ 1003cd00 f i libucrtd:output.obj
 0001:0003bd80       ?state_case_width@?$output_processor@DV?$string_output_adapter@D@__crt_stdio_output@@V?$standard_base@DV?$string_output_adapter@D@__crt_stdio_output@@@2@@__crt_stdio_output@@AAE_NXZ 1003cd80 f i libucrtd:output.obj
 0001:0003be00       ?state_case_width@?$output_processor@_WV?$stream_output_adapter@_W@__crt_stdio_output@@V?$format_validation_base@_WV?$stream_output_adapter@_W@__crt_stdio_output@@@2@@__crt_stdio_output@@AAE_NXZ 1003ce00 f i libucrtd:output.obj
 0001:0003be80       ?state_case_width@?$output_processor@_WV?$stream_output_adapter@_W@__crt_stdio_output@@V?$positional_parameter_base@_WV?$stream_output_adapter@_W@__crt_stdio_output@@@2@@__crt_stdio_output@@AAE_NXZ 1003ce80 f i libucrtd:output.obj
 0001:0003bf00       ?state_case_width@?$output_processor@_WV?$stream_output_adapter@_W@__crt_stdio_output@@V?$standard_base@_WV?$stream_output_adapter@_W@__crt_stdio_output@@@2@@__crt_stdio_output@@AAE_NXZ 1003cf00 f i libucrtd:output.obj
 0001:0003bf80       ?state_case_width@?$output_processor@_WV?$string_output_adapter@_W@__crt_stdio_output@@V?$format_validation_base@_WV?$string_output_adapter@_W@__crt_stdio_output@@@2@@__crt_stdio_output@@AAE_NXZ 1003cf80 f i libucrtd:output.obj
 0001:0003c000       ?state_case_width@?$output_processor@_WV?$string_output_adapter@_W@__crt_stdio_output@@V?$positional_parameter_base@_WV?$string_output_adapter@_W@__crt_stdio_output@@@2@@__crt_stdio_output@@AAE_NXZ 1003d000 f i libucrtd:output.obj
 0001:0003c080       ?state_case_width@?$output_processor@_WV?$string_output_adapter@_W@__crt_stdio_output@@V?$standard_base@_WV?$string_output_adapter@_W@__crt_stdio_output@@@2@@__crt_stdio_output@@AAE_NXZ 1003d080 f i libucrtd:output.obj
 0001:0003c100       ?state_count@?$format_validation_base@DV?$stream_output_adapter@D@__crt_stdio_output@@@__crt_stdio_output@@KAIXZ 1003d100 f i libucrtd:output.obj
 0001:0003c110       ?state_count@?$format_validation_base@DV?$string_output_adapter@D@__crt_stdio_output@@@__crt_stdio_output@@KAIXZ 1003d110 f i libucrtd:output.obj
 0001:0003c120       ?state_count@?$format_validation_base@_WV?$stream_output_adapter@_W@__crt_stdio_output@@@__crt_stdio_output@@KAIXZ 1003d120 f i libucrtd:output.obj
 0001:0003c130       ?state_count@?$format_validation_base@_WV?$string_output_adapter@_W@__crt_stdio_output@@@__crt_stdio_output@@KAIXZ 1003d130 f i libucrtd:output.obj
 0001:0003c140       ?state_count@?$standard_base@DV?$stream_output_adapter@D@__crt_stdio_output@@@__crt_stdio_output@@KAIXZ 1003d140 f i libucrtd:output.obj
 0001:0003c150       ?state_count@?$standard_base@DV?$string_output_adapter@D@__crt_stdio_output@@@__crt_stdio_output@@KAIXZ 1003d150 f i libucrtd:output.obj
 0001:0003c160       ?state_count@?$standard_base@_WV?$stream_output_adapter@_W@__crt_stdio_output@@@__crt_stdio_output@@KAIXZ 1003d160 f i libucrtd:output.obj
 0001:0003c170       ?state_count@?$standard_base@_WV?$string_output_adapter@_W@__crt_stdio_output@@@__crt_stdio_output@@KAIXZ 1003d170 f i libucrtd:output.obj
 0001:0003c180       ?state_transition_table@?$format_validation_base@DV?$stream_output_adapter@D@__crt_stdio_output@@@__crt_stdio_output@@KAABV?$spectre_mitigated_lookup_table@Ustate_transition_pair@__crt_stdio_output@@$0IA@@2@XZ 1003d180 f i libucrtd:output.obj
 0001:0003c190       ?state_transition_table@?$format_validation_base@DV?$string_output_adapter@D@__crt_stdio_output@@@__crt_stdio_output@@KAABV?$spectre_mitigated_lookup_table@Ustate_transition_pair@__crt_stdio_output@@$0IA@@2@XZ 1003d190 f i libucrtd:output.obj
 0001:0003c1a0       ?state_transition_table@?$format_validation_base@_WV?$stream_output_adapter@_W@__crt_stdio_output@@@__crt_stdio_output@@KAABV?$spectre_mitigated_lookup_table@Ustate_transition_pair@__crt_stdio_output@@$0IA@@2@XZ 1003d1a0 f i libucrtd:output.obj
 0001:0003c1b0       ?state_transition_table@?$format_validation_base@_WV?$string_output_adapter@_W@__crt_stdio_output@@@__crt_stdio_output@@KAABV?$spectre_mitigated_lookup_table@Ustate_transition_pair@__crt_stdio_output@@$0IA@@2@XZ 1003d1b0 f i libucrtd:output.obj
 0001:0003c1c0       ?state_transition_table@?$standard_base@DV?$stream_output_adapter@D@__crt_stdio_output@@@__crt_stdio_output@@KAABV?$spectre_mitigated_lookup_table@Ustate_transition_pair@__crt_stdio_output@@$0IA@@2@XZ 1003d1c0 f i libucrtd:output.obj
 0001:0003c1d0       ?state_transition_table@?$standard_base@DV?$string_output_adapter@D@__crt_stdio_output@@@__crt_stdio_output@@KAABV?$spectre_mitigated_lookup_table@Ustate_transition_pair@__crt_stdio_output@@$0IA@@2@XZ 1003d1d0 f i libucrtd:output.obj
 0001:0003c1e0       ?state_transition_table@?$standard_base@_WV?$stream_output_adapter@_W@__crt_stdio_output@@@__crt_stdio_output@@KAABV?$spectre_mitigated_lookup_table@Ustate_transition_pair@__crt_stdio_output@@$0IA@@2@XZ 1003d1e0 f i libucrtd:output.obj
 0001:0003c1f0       ?state_transition_table@?$standard_base@_WV?$string_output_adapter@_W@__crt_stdio_output@@@__crt_stdio_output@@KAABV?$spectre_mitigated_lookup_table@Ustate_transition_pair@__crt_stdio_output@@$0IA@@2@XZ 1003d1f0 f i libucrtd:output.obj
 0001:0003c200       ?tchar_string@?$common_data@D@__crt_stdio_output@@IAEAAPADD@Z 1003d200 f i libucrtd:output.obj
 0001:0003c220       ?tchar_string@?$common_data@D@__crt_stdio_output@@IAEAAPADXZ 1003d220 f i libucrtd:output.obj
 0001:0003c240       ?tchar_string@?$common_data@_W@__crt_stdio_output@@IAEAAPA_WXZ 1003d240 f i libucrtd:output.obj
 0001:0003c260       ?tchar_string@?$common_data@_W@__crt_stdio_output@@IAEAAPA_W_W@Z 1003d260 f i libucrtd:output.obj
 0001:0003c280       ?to_integer_size@__crt_stdio_output@@YAIW4length_modifier@1@@Z 1003d280 f i libucrtd:output.obj
 0001:0003c320       ?type_case_X@?$output_processor@DV?$stream_output_adapter@D@__crt_stdio_output@@V?$format_validation_base@DV?$stream_output_adapter@D@__crt_stdio_output@@@2@@__crt_stdio_output@@AAE_NXZ 1003d320 f i libucrtd:output.obj
 0001:0003c340       ?type_case_X@?$output_processor@DV?$stream_output_adapter@D@__crt_stdio_output@@V?$positional_parameter_base@DV?$stream_output_adapter@D@__crt_stdio_output@@@2@@__crt_stdio_output@@AAE_NXZ 1003d340 f i libucrtd:output.obj
 0001:0003c360       ?type_case_X@?$output_processor@DV?$stream_output_adapter@D@__crt_stdio_output@@V?$standard_base@DV?$stream_output_adapter@D@__crt_stdio_output@@@2@@__crt_stdio_output@@AAE_NXZ 1003d360 f i libucrtd:output.obj
 0001:0003c380       ?type_case_X@?$output_processor@DV?$string_output_adapter@D@__crt_stdio_output@@V?$format_validation_base@DV?$string_output_adapter@D@__crt_stdio_output@@@2@@__crt_stdio_output@@AAE_NXZ 1003d380 f i libucrtd:output.obj
 0001:0003c3a0       ?type_case_X@?$output_processor@DV?$string_output_adapter@D@__crt_stdio_output@@V?$positional_parameter_base@DV?$string_output_adapter@D@__crt_stdio_output@@@2@@__crt_stdio_output@@AAE_NXZ 1003d3a0 f i libucrtd:output.obj
 0001:0003c3c0       ?type_case_X@?$output_processor@DV?$string_output_adapter@D@__crt_stdio_output@@V?$standard_base@DV?$string_output_adapter@D@__crt_stdio_output@@@2@@__crt_stdio_output@@AAE_NXZ 1003d3c0 f i libucrtd:output.obj
 0001:0003c3e0       ?type_case_X@?$output_processor@_WV?$stream_output_adapter@_W@__crt_stdio_output@@V?$format_validation_base@_WV?$stream_output_adapter@_W@__crt_stdio_output@@@2@@__crt_stdio_output@@AAE_NXZ 1003d3e0 f i libucrtd:output.obj
 0001:0003c400       ?type_case_X@?$output_processor@_WV?$stream_output_adapter@_W@__crt_stdio_output@@V?$positional_parameter_base@_WV?$stream_output_adapter@_W@__crt_stdio_output@@@2@@__crt_stdio_output@@AAE_NXZ 1003d400 f i libucrtd:output.obj
 0001:0003c420       ?type_case_X@?$output_processor@_WV?$stream_output_adapter@_W@__crt_stdio_output@@V?$standard_base@_WV?$stream_output_adapter@_W@__crt_stdio_output@@@2@@__crt_stdio_output@@AAE_NXZ 1003d420 f i libucrtd:output.obj
 0001:0003c440       ?type_case_X@?$output_processor@_WV?$string_output_adapter@_W@__crt_stdio_output@@V?$format_validation_base@_WV?$string_output_adapter@_W@__crt_stdio_output@@@2@@__crt_stdio_output@@AAE_NXZ 1003d440 f i libucrtd:output.obj
 0001:0003c460       ?type_case_X@?$output_processor@_WV?$string_output_adapter@_W@__crt_stdio_output@@V?$positional_parameter_base@_WV?$string_output_adapter@_W@__crt_stdio_output@@@2@@__crt_stdio_output@@AAE_NXZ 1003d460 f i libucrtd:output.obj
 0001:0003c480       ?type_case_X@?$output_processor@_WV?$string_output_adapter@_W@__crt_stdio_output@@V?$standard_base@_WV?$string_output_adapter@_W@__crt_stdio_output@@@2@@__crt_stdio_output@@AAE_NXZ 1003d480 f i libucrtd:output.obj
 0001:0003c4a0       ?type_case_Z@?$output_processor@DV?$stream_output_adapter@D@__crt_stdio_output@@V?$format_validation_base@DV?$stream_output_adapter@D@__crt_stdio_output@@@2@@__crt_stdio_output@@AAE_NXZ 1003d4a0 f i libucrtd:output.obj
 0001:0003c590       ?type_case_Z@?$output_processor@DV?$stream_output_adapter@D@__crt_stdio_output@@V?$positional_parameter_base@DV?$stream_output_adapter@D@__crt_stdio_output@@@2@@__crt_stdio_output@@AAE_NXZ 1003d590 f i libucrtd:output.obj
 0001:0003c680       ?type_case_Z@?$output_processor@DV?$stream_output_adapter@D@__crt_stdio_output@@V?$standard_base@DV?$stream_output_adapter@D@__crt_stdio_output@@@2@@__crt_stdio_output@@AAE_NXZ 1003d680 f i libucrtd:output.obj
 0001:0003c770       ?type_case_Z@?$output_processor@DV?$string_output_adapter@D@__crt_stdio_output@@V?$format_validation_base@DV?$string_output_adapter@D@__crt_stdio_output@@@2@@__crt_stdio_output@@AAE_NXZ 1003d770 f i libucrtd:output.obj
 0001:0003c860       ?type_case_Z@?$output_processor@DV?$string_output_adapter@D@__crt_stdio_output@@V?$positional_parameter_base@DV?$string_output_adapter@D@__crt_stdio_output@@@2@@__crt_stdio_output@@AAE_NXZ 1003d860 f i libucrtd:output.obj
 0001:0003c950       ?type_case_Z@?$output_processor@DV?$string_output_adapter@D@__crt_stdio_output@@V?$standard_base@DV?$string_output_adapter@D@__crt_stdio_output@@@2@@__crt_stdio_output@@AAE_NXZ 1003d950 f i libucrtd:output.obj
 0001:0003ca40       ?type_case_Z@?$output_processor@_WV?$stream_output_adapter@_W@__crt_stdio_output@@V?$format_validation_base@_WV?$stream_output_adapter@_W@__crt_stdio_output@@@2@@__crt_stdio_output@@AAE_NXZ 1003da40 f i libucrtd:output.obj
 0001:0003cb30       ?type_case_Z@?$output_processor@_WV?$stream_output_adapter@_W@__crt_stdio_output@@V?$positional_parameter_base@_WV?$stream_output_adapter@_W@__crt_stdio_output@@@2@@__crt_stdio_output@@AAE_NXZ 1003db30 f i libucrtd:output.obj
 0001:0003cc20       ?type_case_Z@?$output_processor@_WV?$stream_output_adapter@_W@__crt_stdio_output@@V?$standard_base@_WV?$stream_output_adapter@_W@__crt_stdio_output@@@2@@__crt_stdio_output@@AAE_NXZ 1003dc20 f i libucrtd:output.obj
 0001:0003cd10       ?type_case_Z@?$output_processor@_WV?$string_output_adapter@_W@__crt_stdio_output@@V?$format_validation_base@_WV?$string_output_adapter@_W@__crt_stdio_output@@@2@@__crt_stdio_output@@AAE_NXZ 1003dd10 f i libucrtd:output.obj
 0001:0003ce00       ?type_case_Z@?$output_processor@_WV?$string_output_adapter@_W@__crt_stdio_output@@V?$positional_parameter_base@_WV?$string_output_adapter@_W@__crt_stdio_output@@@2@@__crt_stdio_output@@AAE_NXZ 1003de00 f i libucrtd:output.obj
 0001:0003cef0       ?type_case_Z@?$output_processor@_WV?$string_output_adapter@_W@__crt_stdio_output@@V?$standard_base@_WV?$string_output_adapter@_W@__crt_stdio_output@@@2@@__crt_stdio_output@@AAE_NXZ 1003def0 f i libucrtd:output.obj
 0001:0003cfe0       ?type_case_a@?$output_processor@DV?$stream_output_adapter@D@__crt_stdio_output@@V?$format_validation_base@DV?$stream_output_adapter@D@__crt_stdio_output@@@2@@__crt_stdio_output@@AAE_NXZ 1003dfe0 f i libucrtd:output.obj
 0001:0003d250       ?type_case_a@?$output_processor@DV?$stream_output_adapter@D@__crt_stdio_output@@V?$positional_parameter_base@DV?$stream_output_adapter@D@__crt_stdio_output@@@2@@__crt_stdio_output@@AAE_NXZ 1003e250 f i libucrtd:output.obj
 0001:0003d4c0       ?type_case_a@?$output_processor@DV?$stream_output_adapter@D@__crt_stdio_output@@V?$standard_base@DV?$stream_output_adapter@D@__crt_stdio_output@@@2@@__crt_stdio_output@@AAE_NXZ 1003e4c0 f i libucrtd:output.obj
 0001:0003d730       ?type_case_a@?$output_processor@DV?$string_output_adapter@D@__crt_stdio_output@@V?$format_validation_base@DV?$string_output_adapter@D@__crt_stdio_output@@@2@@__crt_stdio_output@@AAE_NXZ 1003e730 f i libucrtd:output.obj
 0001:0003d9a0       ?type_case_a@?$output_processor@DV?$string_output_adapter@D@__crt_stdio_output@@V?$positional_parameter_base@DV?$string_output_adapter@D@__crt_stdio_output@@@2@@__crt_stdio_output@@AAE_NXZ 1003e9a0 f i libucrtd:output.obj
 0001:0003dc10       ?type_case_a@?$output_processor@DV?$string_output_adapter@D@__crt_stdio_output@@V?$standard_base@DV?$string_output_adapter@D@__crt_stdio_output@@@2@@__crt_stdio_output@@AAE_NXZ 1003ec10 f i libucrtd:output.obj
 0001:0003de80       ?type_case_a@?$output_processor@_WV?$stream_output_adapter@_W@__crt_stdio_output@@V?$format_validation_base@_WV?$stream_output_adapter@_W@__crt_stdio_output@@@2@@__crt_stdio_output@@AAE_NXZ 1003ee80 f i libucrtd:output.obj
 0001:0003e0f0       ?type_case_a@?$output_processor@_WV?$stream_output_adapter@_W@__crt_stdio_output@@V?$positional_parameter_base@_WV?$stream_output_adapter@_W@__crt_stdio_output@@@2@@__crt_stdio_output@@AAE_NXZ 1003f0f0 f i libucrtd:output.obj
 0001:0003e360       ?type_case_a@?$output_processor@_WV?$stream_output_adapter@_W@__crt_stdio_output@@V?$standard_base@_WV?$stream_output_adapter@_W@__crt_stdio_output@@@2@@__crt_stdio_output@@AAE_NXZ 1003f360 f i libucrtd:output.obj
 0001:0003e5d0       ?type_case_a@?$output_processor@_WV?$string_output_adapter@_W@__crt_stdio_output@@V?$format_validation_base@_WV?$string_output_adapter@_W@__crt_stdio_output@@@2@@__crt_stdio_output@@AAE_NXZ 1003f5d0 f i libucrtd:output.obj
 0001:0003e840       ?type_case_a@?$output_processor@_WV?$string_output_adapter@_W@__crt_stdio_output@@V?$positional_parameter_base@_WV?$string_output_adapter@_W@__crt_stdio_output@@@2@@__crt_stdio_output@@AAE_NXZ 1003f840 f i libucrtd:output.obj
 0001:0003eab0       ?type_case_a@?$output_processor@_WV?$string_output_adapter@_W@__crt_stdio_output@@V?$standard_base@_WV?$string_output_adapter@_W@__crt_stdio_output@@@2@@__crt_stdio_output@@AAE_NXZ 1003fab0 f i libucrtd:output.obj
 0001:0003ed20       ?type_case_c@?$output_processor@DV?$stream_output_adapter@D@__crt_stdio_output@@V?$format_validation_base@DV?$stream_output_adapter@D@__crt_stdio_output@@@2@@__crt_stdio_output@@AAE_NXZ 1003fd20 f i libucrtd:output.obj
 0001:0003ed40       ?type_case_c@?$output_processor@DV?$stream_output_adapter@D@__crt_stdio_output@@V?$positional_parameter_base@DV?$stream_output_adapter@D@__crt_stdio_output@@@2@@__crt_stdio_output@@AAE_NXZ 1003fd40 f i libucrtd:output.obj
 0001:0003ed60       ?type_case_c@?$output_processor@DV?$stream_output_adapter@D@__crt_stdio_output@@V?$standard_base@DV?$stream_output_adapter@D@__crt_stdio_output@@@2@@__crt_stdio_output@@AAE_NXZ 1003fd60 f i libucrtd:output.obj
 0001:0003ed80       ?type_case_c@?$output_processor@DV?$string_output_adapter@D@__crt_stdio_output@@V?$format_validation_base@DV?$string_output_adapter@D@__crt_stdio_output@@@2@@__crt_stdio_output@@AAE_NXZ 1003fd80 f i libucrtd:output.obj
 0001:0003eda0       ?type_case_c@?$output_processor@DV?$string_output_adapter@D@__crt_stdio_output@@V?$positional_parameter_base@DV?$string_output_adapter@D@__crt_stdio_output@@@2@@__crt_stdio_output@@AAE_NXZ 1003fda0 f i libucrtd:output.obj
 0001:0003edc0       ?type_case_c@?$output_processor@DV?$string_output_adapter@D@__crt_stdio_output@@V?$standard_base@DV?$string_output_adapter@D@__crt_stdio_output@@@2@@__crt_stdio_output@@AAE_NXZ 1003fdc0 f i libucrtd:output.obj
 0001:0003ede0       ?type_case_c@?$output_processor@_WV?$stream_output_adapter@_W@__crt_stdio_output@@V?$format_validation_base@_WV?$stream_output_adapter@_W@__crt_stdio_output@@@2@@__crt_stdio_output@@AAE_NXZ 1003fde0 f i libucrtd:output.obj
 0001:0003ee00       ?type_case_c@?$output_processor@_WV?$stream_output_adapter@_W@__crt_stdio_output@@V?$positional_parameter_base@_WV?$stream_output_adapter@_W@__crt_stdio_output@@@2@@__crt_stdio_output@@AAE_NXZ 1003fe00 f i libucrtd:output.obj
 0001:0003ee20       ?type_case_c@?$output_processor@_WV?$stream_output_adapter@_W@__crt_stdio_output@@V?$standard_base@_WV?$stream_output_adapter@_W@__crt_stdio_output@@@2@@__crt_stdio_output@@AAE_NXZ 1003fe20 f i libucrtd:output.obj
 0001:0003ee40       ?type_case_c@?$output_processor@_WV?$string_output_adapter@_W@__crt_stdio_output@@V?$format_validation_base@_WV?$string_output_adapter@_W@__crt_stdio_output@@@2@@__crt_stdio_output@@AAE_NXZ 1003fe40 f i libucrtd:output.obj
 0001:0003ee60       ?type_case_c@?$output_processor@_WV?$string_output_adapter@_W@__crt_stdio_output@@V?$positional_parameter_base@_WV?$string_output_adapter@_W@__crt_stdio_output@@@2@@__crt_stdio_output@@AAE_NXZ 1003fe60 f i libucrtd:output.obj
 0001:0003ee80       ?type_case_c@?$output_processor@_WV?$string_output_adapter@_W@__crt_stdio_output@@V?$standard_base@_WV?$string_output_adapter@_W@__crt_stdio_output@@@2@@__crt_stdio_output@@AAE_NXZ 1003fe80 f i libucrtd:output.obj
 0001:0003eea0       ?type_case_c_tchar@?$output_processor@DV?$stream_output_adapter@D@__crt_stdio_output@@V?$format_validation_base@DV?$stream_output_adapter@D@__crt_stdio_output@@@2@@__crt_stdio_output@@AAE_ND@Z 1003fea0 f i libucrtd:output.obj
 0001:0003efb0       ?type_case_c_tchar@?$output_processor@DV?$stream_output_adapter@D@__crt_stdio_output@@V?$positional_parameter_base@DV?$stream_output_adapter@D@__crt_stdio_output@@@2@@__crt_stdio_output@@AAE_ND@Z 1003ffb0 f i libucrtd:output.obj
 0001:0003f0c0       ?type_case_c_tchar@?$output_processor@DV?$stream_output_adapter@D@__crt_stdio_output@@V?$standard_base@DV?$stream_output_adapter@D@__crt_stdio_output@@@2@@__crt_stdio_output@@AAE_ND@Z 100400c0 f i libucrtd:output.obj
 0001:0003f1d0       ?type_case_c_tchar@?$output_processor@DV?$string_output_adapter@D@__crt_stdio_output@@V?$format_validation_base@DV?$string_output_adapter@D@__crt_stdio_output@@@2@@__crt_stdio_output@@AAE_ND@Z 100401d0 f i libucrtd:output.obj
 0001:0003f2e0       ?type_case_c_tchar@?$output_processor@DV?$string_output_adapter@D@__crt_stdio_output@@V?$positional_parameter_base@DV?$string_output_adapter@D@__crt_stdio_output@@@2@@__crt_stdio_output@@AAE_ND@Z 100402e0 f i libucrtd:output.obj
 0001:0003f3f0       ?type_case_c_tchar@?$output_processor@DV?$string_output_adapter@D@__crt_stdio_output@@V?$standard_base@DV?$string_output_adapter@D@__crt_stdio_output@@@2@@__crt_stdio_output@@AAE_ND@Z 100403f0 f i libucrtd:output.obj
 0001:0003f500       ?type_case_c_tchar@?$output_processor@_WV?$stream_output_adapter@_W@__crt_stdio_output@@V?$format_validation_base@_WV?$stream_output_adapter@_W@__crt_stdio_output@@@2@@__crt_stdio_output@@AAE_N_W@Z 10040500 f i libucrtd:output.obj
 0001:0003f600       ?type_case_c_tchar@?$output_processor@_WV?$stream_output_adapter@_W@__crt_stdio_output@@V?$positional_parameter_base@_WV?$stream_output_adapter@_W@__crt_stdio_output@@@2@@__crt_stdio_output@@AAE_N_W@Z 10040600 f i libucrtd:output.obj
 0001:0003f700       ?type_case_c_tchar@?$output_processor@_WV?$stream_output_adapter@_W@__crt_stdio_output@@V?$standard_base@_WV?$stream_output_adapter@_W@__crt_stdio_output@@@2@@__crt_stdio_output@@AAE_N_W@Z 10040700 f i libucrtd:output.obj
 0001:0003f800       ?type_case_c_tchar@?$output_processor@_WV?$string_output_adapter@_W@__crt_stdio_output@@V?$format_validation_base@_WV?$string_output_adapter@_W@__crt_stdio_output@@@2@@__crt_stdio_output@@AAE_N_W@Z 10040800 f i libucrtd:output.obj
 0001:0003f900       ?type_case_c_tchar@?$output_processor@_WV?$string_output_adapter@_W@__crt_stdio_output@@V?$positional_parameter_base@_WV?$string_output_adapter@_W@__crt_stdio_output@@@2@@__crt_stdio_output@@AAE_N_W@Z 10040900 f i libucrtd:output.obj
 0001:0003fa00       ?type_case_c_tchar@?$output_processor@_WV?$string_output_adapter@_W@__crt_stdio_output@@V?$standard_base@_WV?$string_output_adapter@_W@__crt_stdio_output@@@2@@__crt_stdio_output@@AAE_N_W@Z 10040a00 f i libucrtd:output.obj
 0001:0003fb00       ?type_case_d@?$output_processor@DV?$stream_output_adapter@D@__crt_stdio_output@@V?$format_validation_base@DV?$stream_output_adapter@D@__crt_stdio_output@@@2@@__crt_stdio_output@@AAE_NXZ 10040b00 f i libucrtd:output.obj
 0001:0003fb30       ?type_case_d@?$output_processor@DV?$stream_output_adapter@D@__crt_stdio_output@@V?$positional_parameter_base@DV?$stream_output_adapter@D@__crt_stdio_output@@@2@@__crt_stdio_output@@AAE_NXZ 10040b30 f i libucrtd:output.obj
 0001:0003fb60       ?type_case_d@?$output_processor@DV?$stream_output_adapter@D@__crt_stdio_output@@V?$standard_base@DV?$stream_output_adapter@D@__crt_stdio_output@@@2@@__crt_stdio_output@@AAE_NXZ 10040b60 f i libucrtd:output.obj
 0001:0003fb90       ?type_case_d@?$output_processor@DV?$string_output_adapter@D@__crt_stdio_output@@V?$format_validation_base@DV?$string_output_adapter@D@__crt_stdio_output@@@2@@__crt_stdio_output@@AAE_NXZ 10040b90 f i libucrtd:output.obj
 0001:0003fbc0       ?type_case_d@?$output_processor@DV?$string_output_adapter@D@__crt_stdio_output@@V?$positional_parameter_base@DV?$string_output_adapter@D@__crt_stdio_output@@@2@@__crt_stdio_output@@AAE_NXZ 10040bc0 f i libucrtd:output.obj
 0001:0003fbf0       ?type_case_d@?$output_processor@DV?$string_output_adapter@D@__crt_stdio_output@@V?$standard_base@DV?$string_output_adapter@D@__crt_stdio_output@@@2@@__crt_stdio_output@@AAE_NXZ 10040bf0 f i libucrtd:output.obj
 0001:0003fc20       ?type_case_d@?$output_processor@_WV?$stream_output_adapter@_W@__crt_stdio_output@@V?$format_validation_base@_WV?$stream_output_adapter@_W@__crt_stdio_output@@@2@@__crt_stdio_output@@AAE_NXZ 10040c20 f i libucrtd:output.obj
 0001:0003fc50       ?type_case_d@?$output_processor@_WV?$stream_output_adapter@_W@__crt_stdio_output@@V?$positional_parameter_base@_WV?$stream_output_adapter@_W@__crt_stdio_output@@@2@@__crt_stdio_output@@AAE_NXZ 10040c50 f i libucrtd:output.obj
 0001:0003fc80       ?type_case_d@?$output_processor@_WV?$stream_output_adapter@_W@__crt_stdio_output@@V?$standard_base@_WV?$stream_output_adapter@_W@__crt_stdio_output@@@2@@__crt_stdio_output@@AAE_NXZ 10040c80 f i libucrtd:output.obj
 0001:0003fcb0       ?type_case_d@?$output_processor@_WV?$string_output_adapter@_W@__crt_stdio_output@@V?$format_validation_base@_WV?$string_output_adapter@_W@__crt_stdio_output@@@2@@__crt_stdio_output@@AAE_NXZ 10040cb0 f i libucrtd:output.obj
 0001:0003fce0       ?type_case_d@?$output_processor@_WV?$string_output_adapter@_W@__crt_stdio_output@@V?$positional_parameter_base@_WV?$string_output_adapter@_W@__crt_stdio_output@@@2@@__crt_stdio_output@@AAE_NXZ 10040ce0 f i libucrtd:output.obj
 0001:0003fd10       ?type_case_d@?$output_processor@_WV?$string_output_adapter@_W@__crt_stdio_output@@V?$standard_base@_WV?$string_output_adapter@_W@__crt_stdio_output@@@2@@__crt_stdio_output@@AAE_NXZ 10040d10 f i libucrtd:output.obj
 0001:0003fd40       ?type_case_integer@?$output_processor@DV?$stream_output_adapter@D@__crt_stdio_output@@V?$format_validation_base@DV?$stream_output_adapter@D@__crt_stdio_output@@@2@@__crt_stdio_output@@AAE_NI_N@Z 10040d40 f i libucrtd:output.obj
 0001:00040090       ?type_case_integer@?$output_processor@DV?$stream_output_adapter@D@__crt_stdio_output@@V?$positional_parameter_base@DV?$stream_output_adapter@D@__crt_stdio_output@@@2@@__crt_stdio_output@@AAE_NI_N@Z 10041090 f i libucrtd:output.obj
 0001:000403e0       ?type_case_integer@?$output_processor@DV?$stream_output_adapter@D@__crt_stdio_output@@V?$standard_base@DV?$stream_output_adapter@D@__crt_stdio_output@@@2@@__crt_stdio_output@@AAE_NI_N@Z 100413e0 f i libucrtd:output.obj
 0001:00040730       ?type_case_integer@?$output_processor@DV?$string_output_adapter@D@__crt_stdio_output@@V?$format_validation_base@DV?$string_output_adapter@D@__crt_stdio_output@@@2@@__crt_stdio_output@@AAE_NI_N@Z 10041730 f i libucrtd:output.obj
 0001:00040a80       ?type_case_integer@?$output_processor@DV?$string_output_adapter@D@__crt_stdio_output@@V?$positional_parameter_base@DV?$string_output_adapter@D@__crt_stdio_output@@@2@@__crt_stdio_output@@AAE_NI_N@Z 10041a80 f i libucrtd:output.obj
 0001:00040dd0       ?type_case_integer@?$output_processor@DV?$string_output_adapter@D@__crt_stdio_output@@V?$standard_base@DV?$string_output_adapter@D@__crt_stdio_output@@@2@@__crt_stdio_output@@AAE_NI_N@Z 10041dd0 f i libucrtd:output.obj
 0001:00041120       ?type_case_integer@?$output_processor@_WV?$stream_output_adapter@_W@__crt_stdio_output@@V?$format_validation_base@_WV?$stream_output_adapter@_W@__crt_stdio_output@@@2@@__crt_stdio_output@@AAE_NI_N@Z 10042120 f i libucrtd:output.obj
 0001:00041470       ?type_case_integer@?$output_processor@_WV?$stream_output_adapter@_W@__crt_stdio_output@@V?$positional_parameter_base@_WV?$stream_output_adapter@_W@__crt_stdio_output@@@2@@__crt_stdio_output@@AAE_NI_N@Z 10042470 f i libucrtd:output.obj
 0001:000417c0       ?type_case_integer@?$output_processor@_WV?$stream_output_adapter@_W@__crt_stdio_output@@V?$standard_base@_WV?$stream_output_adapter@_W@__crt_stdio_output@@@2@@__crt_stdio_output@@AAE_NI_N@Z 100427c0 f i libucrtd:output.obj
 0001:00041b10       ?type_case_integer@?$output_processor@_WV?$string_output_adapter@_W@__crt_stdio_output@@V?$format_validation_base@_WV?$string_output_adapter@_W@__crt_stdio_output@@@2@@__crt_stdio_output@@AAE_NI_N@Z 10042b10 f i libucrtd:output.obj
 0001:00041e60       ?type_case_integer@?$output_processor@_WV?$string_output_adapter@_W@__crt_stdio_output@@V?$positional_parameter_base@_WV?$string_output_adapter@_W@__crt_stdio_output@@@2@@__crt_stdio_output@@AAE_NI_N@Z 10042e60 f i libucrtd:output.obj
 0001:000421b0       ?type_case_integer@?$output_processor@_WV?$string_output_adapter@_W@__crt_stdio_output@@V?$standard_base@_WV?$string_output_adapter@_W@__crt_stdio_output@@@2@@__crt_stdio_output@@AAE_NI_N@Z 100431b0 f i libucrtd:output.obj
 0001:00042500       ?type_case_n@?$output_processor@DV?$stream_output_adapter@D@__crt_stdio_output@@V?$format_validation_base@DV?$stream_output_adapter@D@__crt_stdio_output@@@2@@__crt_stdio_output@@AAE_NXZ 10043500 f i libucrtd:output.obj
 0001:000426f0       ?type_case_n@?$output_processor@DV?$stream_output_adapter@D@__crt_stdio_output@@V?$positional_parameter_base@DV?$stream_output_adapter@D@__crt_stdio_output@@@2@@__crt_stdio_output@@AAE_NXZ 100436f0 f i libucrtd:output.obj
 0001:000428e0       ?type_case_n@?$output_processor@DV?$stream_output_adapter@D@__crt_stdio_output@@V?$standard_base@DV?$stream_output_adapter@D@__crt_stdio_output@@@2@@__crt_stdio_output@@AAE_NXZ 100438e0 f i libucrtd:output.obj
 0001:00042ad0       ?type_case_n@?$output_processor@DV?$string_output_adapter@D@__crt_stdio_output@@V?$format_validation_base@DV?$string_output_adapter@D@__crt_stdio_output@@@2@@__crt_stdio_output@@AAE_NXZ 10043ad0 f i libucrtd:output.obj
 0001:00042cc0       ?type_case_n@?$output_processor@DV?$string_output_adapter@D@__crt_stdio_output@@V?$positional_parameter_base@DV?$string_output_adapter@D@__crt_stdio_output@@@2@@__crt_stdio_output@@AAE_NXZ 10043cc0 f i libucrtd:output.obj
 0001:00042eb0       ?type_case_n@?$output_processor@DV?$string_output_adapter@D@__crt_stdio_output@@V?$standard_base@DV?$string_output_adapter@D@__crt_stdio_output@@@2@@__crt_stdio_output@@AAE_NXZ 10043eb0 f i libucrtd:output.obj
 0001:000430a0       ?type_case_n@?$output_processor@_WV?$stream_output_adapter@_W@__crt_stdio_output@@V?$format_validation_base@_WV?$stream_output_adapter@_W@__crt_stdio_output@@@2@@__crt_stdio_output@@AAE_NXZ 100440a0 f i libucrtd:output.obj
 0001:00043290       ?type_case_n@?$output_processor@_WV?$stream_output_adapter@_W@__crt_stdio_output@@V?$positional_parameter_base@_WV?$stream_output_adapter@_W@__crt_stdio_output@@@2@@__crt_stdio_output@@AAE_NXZ 10044290 f i libucrtd:output.obj
 0001:00043480       ?type_case_n@?$output_processor@_WV?$stream_output_adapter@_W@__crt_stdio_output@@V?$standard_base@_WV?$stream_output_adapter@_W@__crt_stdio_output@@@2@@__crt_stdio_output@@AAE_NXZ 10044480 f i libucrtd:output.obj
 0001:00043670       ?type_case_n@?$output_processor@_WV?$string_output_adapter@_W@__crt_stdio_output@@V?$format_validation_base@_WV?$string_output_adapter@_W@__crt_stdio_output@@@2@@__crt_stdio_output@@AAE_NXZ 10044670 f i libucrtd:output.obj
 0001:00043860       ?type_case_n@?$output_processor@_WV?$string_output_adapter@_W@__crt_stdio_output@@V?$positional_parameter_base@_WV?$string_output_adapter@_W@__crt_stdio_output@@@2@@__crt_stdio_output@@AAE_NXZ 10044860 f i libucrtd:output.obj
 0001:00043a50       ?type_case_n@?$output_processor@_WV?$string_output_adapter@_W@__crt_stdio_output@@V?$standard_base@_WV?$string_output_adapter@_W@__crt_stdio_output@@@2@@__crt_stdio_output@@AAE_NXZ 10044a50 f i libucrtd:output.obj
 0001:00043c40       ?type_case_o@?$output_processor@DV?$stream_output_adapter@D@__crt_stdio_output@@V?$format_validation_base@DV?$stream_output_adapter@D@__crt_stdio_output@@@2@@__crt_stdio_output@@AAE_NXZ 10044c40 f i libucrtd:output.obj
 0001:00043c80       ?type_case_o@?$output_processor@DV?$stream_output_adapter@D@__crt_stdio_output@@V?$positional_parameter_base@DV?$stream_output_adapter@D@__crt_stdio_output@@@2@@__crt_stdio_output@@AAE_NXZ 10044c80 f i libucrtd:output.obj
 0001:00043cc0       ?type_case_o@?$output_processor@DV?$stream_output_adapter@D@__crt_stdio_output@@V?$standard_base@DV?$stream_output_adapter@D@__crt_stdio_output@@@2@@__crt_stdio_output@@AAE_NXZ 10044cc0 f i libucrtd:output.obj
 0001:00043d00       ?type_case_o@?$output_processor@DV?$string_output_adapter@D@__crt_stdio_output@@V?$format_validation_base@DV?$string_output_adapter@D@__crt_stdio_output@@@2@@__crt_stdio_output@@AAE_NXZ 10044d00 f i libucrtd:output.obj
 0001:00043d40       ?type_case_o@?$output_processor@DV?$string_output_adapter@D@__crt_stdio_output@@V?$positional_parameter_base@DV?$string_output_adapter@D@__crt_stdio_output@@@2@@__crt_stdio_output@@AAE_NXZ 10044d40 f i libucrtd:output.obj
 0001:00043d80       ?type_case_o@?$output_processor@DV?$string_output_adapter@D@__crt_stdio_output@@V?$standard_base@DV?$string_output_adapter@D@__crt_stdio_output@@@2@@__crt_stdio_output@@AAE_NXZ 10044d80 f i libucrtd:output.obj
 0001:00043dc0       ?type_case_o@?$output_processor@_WV?$stream_output_adapter@_W@__crt_stdio_output@@V?$format_validation_base@_WV?$stream_output_adapter@_W@__crt_stdio_output@@@2@@__crt_stdio_output@@AAE_NXZ 10044dc0 f i libucrtd:output.obj
 0001:00043e00       ?type_case_o@?$output_processor@_WV?$stream_output_adapter@_W@__crt_stdio_output@@V?$positional_parameter_base@_WV?$stream_output_adapter@_W@__crt_stdio_output@@@2@@__crt_stdio_output@@AAE_NXZ 10044e00 f i libucrtd:output.obj
 0001:00043e40       ?type_case_o@?$output_processor@_WV?$stream_output_adapter@_W@__crt_stdio_output@@V?$standard_base@_WV?$stream_output_adapter@_W@__crt_stdio_output@@@2@@__crt_stdio_output@@AAE_NXZ 10044e40 f i libucrtd:output.obj
 0001:00043e80       ?type_case_o@?$output_processor@_WV?$string_output_adapter@_W@__crt_stdio_output@@V?$format_validation_base@_WV?$string_output_adapter@_W@__crt_stdio_output@@@2@@__crt_stdio_output@@AAE_NXZ 10044e80 f i libucrtd:output.obj
 0001:00043ec0       ?type_case_o@?$output_processor@_WV?$string_output_adapter@_W@__crt_stdio_output@@V?$positional_parameter_base@_WV?$string_output_adapter@_W@__crt_stdio_output@@@2@@__crt_stdio_output@@AAE_NXZ 10044ec0 f i libucrtd:output.obj
 0001:00043f00       ?type_case_o@?$output_processor@_WV?$string_output_adapter@_W@__crt_stdio_output@@V?$standard_base@_WV?$string_output_adapter@_W@__crt_stdio_output@@@2@@__crt_stdio_output@@AAE_NXZ 10044f00 f i libucrtd:output.obj
 0001:00043f40       ?type_case_p@?$output_processor@DV?$stream_output_adapter@D@__crt_stdio_output@@V?$format_validation_base@DV?$stream_output_adapter@D@__crt_stdio_output@@@2@@__crt_stdio_output@@AAE_NXZ 10044f40 f i libucrtd:output.obj
 0001:00043f70       ?type_case_p@?$output_processor@DV?$stream_output_adapter@D@__crt_stdio_output@@V?$positional_parameter_base@DV?$stream_output_adapter@D@__crt_stdio_output@@@2@@__crt_stdio_output@@AAE_NXZ 10044f70 f i libucrtd:output.obj
 0001:00043fa0       ?type_case_p@?$output_processor@DV?$stream_output_adapter@D@__crt_stdio_output@@V?$standard_base@DV?$stream_output_adapter@D@__crt_stdio_output@@@2@@__crt_stdio_output@@AAE_NXZ 10044fa0 f i libucrtd:output.obj
 0001:00043fd0       ?type_case_p@?$output_processor@DV?$string_output_adapter@D@__crt_stdio_output@@V?$format_validation_base@DV?$string_output_adapter@D@__crt_stdio_output@@@2@@__crt_stdio_output@@AAE_NXZ 10044fd0 f i libucrtd:output.obj
 0001:00044000       ?type_case_p@?$output_processor@DV?$string_output_adapter@D@__crt_stdio_output@@V?$positional_parameter_base@DV?$string_output_adapter@D@__crt_stdio_output@@@2@@__crt_stdio_output@@AAE_NXZ 10045000 f i libucrtd:output.obj
 0001:00044030       ?type_case_p@?$output_processor@DV?$string_output_adapter@D@__crt_stdio_output@@V?$standard_base@DV?$string_output_adapter@D@__crt_stdio_output@@@2@@__crt_stdio_output@@AAE_NXZ 10045030 f i libucrtd:output.obj
 0001:00044060       ?type_case_p@?$output_processor@_WV?$stream_output_adapter@_W@__crt_stdio_output@@V?$format_validation_base@_WV?$stream_output_adapter@_W@__crt_stdio_output@@@2@@__crt_stdio_output@@AAE_NXZ 10045060 f i libucrtd:output.obj
 0001:00044090       ?type_case_p@?$output_processor@_WV?$stream_output_adapter@_W@__crt_stdio_output@@V?$positional_parameter_base@_WV?$stream_output_adapter@_W@__crt_stdio_output@@@2@@__crt_stdio_output@@AAE_NXZ 10045090 f i libucrtd:output.obj
 0001:000440c0       ?type_case_p@?$output_processor@_WV?$stream_output_adapter@_W@__crt_stdio_output@@V?$standard_base@_WV?$stream_output_adapter@_W@__crt_stdio_output@@@2@@__crt_stdio_output@@AAE_NXZ 100450c0 f i libucrtd:output.obj
 0001:000440f0       ?type_case_p@?$output_processor@_WV?$string_output_adapter@_W@__crt_stdio_output@@V?$format_validation_base@_WV?$string_output_adapter@_W@__crt_stdio_output@@@2@@__crt_stdio_output@@AAE_NXZ 100450f0 f i libucrtd:output.obj
 0001:00044120       ?type_case_p@?$output_processor@_WV?$string_output_adapter@_W@__crt_stdio_output@@V?$positional_parameter_base@_WV?$string_output_adapter@_W@__crt_stdio_output@@@2@@__crt_stdio_output@@AAE_NXZ 10045120 f i libucrtd:output.obj
 0001:00044150       ?type_case_p@?$output_processor@_WV?$string_output_adapter@_W@__crt_stdio_output@@V?$standard_base@_WV?$string_output_adapter@_W@__crt_stdio_output@@@2@@__crt_stdio_output@@AAE_NXZ 10045150 f i libucrtd:output.obj
 0001:00044180       ?type_case_s@?$output_processor@DV?$stream_output_adapter@D@__crt_stdio_output@@V?$format_validation_base@DV?$stream_output_adapter@D@__crt_stdio_output@@@2@@__crt_stdio_output@@AAE_NXZ 10045180 f i libucrtd:output.obj
 0001:00044270       ?type_case_s@?$output_processor@DV?$stream_output_adapter@D@__crt_stdio_output@@V?$positional_parameter_base@DV?$stream_output_adapter@D@__crt_stdio_output@@@2@@__crt_stdio_output@@AAE_NXZ 10045270 f i libucrtd:output.obj
 0001:00044360       ?type_case_s@?$output_processor@DV?$stream_output_adapter@D@__crt_stdio_output@@V?$standard_base@DV?$stream_output_adapter@D@__crt_stdio_output@@@2@@__crt_stdio_output@@AAE_NXZ 10045360 f i libucrtd:output.obj
 0001:00044450       ?type_case_s@?$output_processor@DV?$string_output_adapter@D@__crt_stdio_output@@V?$format_validation_base@DV?$string_output_adapter@D@__crt_stdio_output@@@2@@__crt_stdio_output@@AAE_NXZ 10045450 f i libucrtd:output.obj
 0001:00044540       ?type_case_s@?$output_processor@DV?$string_output_adapter@D@__crt_stdio_output@@V?$positional_parameter_base@DV?$string_output_adapter@D@__crt_stdio_output@@@2@@__crt_stdio_output@@AAE_NXZ 10045540 f i libucrtd:output.obj
 0001:00044630       ?type_case_s@?$output_processor@DV?$string_output_adapter@D@__crt_stdio_output@@V?$standard_base@DV?$string_output_adapter@D@__crt_stdio_output@@@2@@__crt_stdio_output@@AAE_NXZ 10045630 f i libucrtd:output.obj
 0001:00044720       ?type_case_s@?$output_processor@_WV?$stream_output_adapter@_W@__crt_stdio_output@@V?$format_validation_base@_WV?$stream_output_adapter@_W@__crt_stdio_output@@@2@@__crt_stdio_output@@AAE_NXZ 10045720 f i libucrtd:output.obj
 0001:00044810       ?type_case_s@?$output_processor@_WV?$stream_output_adapter@_W@__crt_stdio_output@@V?$positional_parameter_base@_WV?$stream_output_adapter@_W@__crt_stdio_output@@@2@@__crt_stdio_output@@AAE_NXZ 10045810 f i libucrtd:output.obj
 0001:00044900       ?type_case_s@?$output_processor@_WV?$stream_output_adapter@_W@__crt_stdio_output@@V?$standard_base@_WV?$stream_output_adapter@_W@__crt_stdio_output@@@2@@__crt_stdio_output@@AAE_NXZ 10045900 f i libucrtd:output.obj
 0001:000449f0       ?type_case_s@?$output_processor@_WV?$string_output_adapter@_W@__crt_stdio_output@@V?$format_validation_base@_WV?$string_output_adapter@_W@__crt_stdio_output@@@2@@__crt_stdio_output@@AAE_NXZ 100459f0 f i libucrtd:output.obj
 0001:00044ae0       ?type_case_s@?$output_processor@_WV?$string_output_adapter@_W@__crt_stdio_output@@V?$positional_parameter_base@_WV?$string_output_adapter@_W@__crt_stdio_output@@@2@@__crt_stdio_output@@AAE_NXZ 10045ae0 f i libucrtd:output.obj
 0001:00044bd0       ?type_case_s@?$output_processor@_WV?$string_output_adapter@_W@__crt_stdio_output@@V?$standard_base@_WV?$string_output_adapter@_W@__crt_stdio_output@@@2@@__crt_stdio_output@@AAE_NXZ 10045bd0 f i libucrtd:output.obj
 0001:00044cc0       ?type_case_s_compute_narrow_string_length@?$output_processor@DV?$stream_output_adapter@D@__crt_stdio_output@@V?$format_validation_base@DV?$stream_output_adapter@D@__crt_stdio_output@@@2@@__crt_stdio_output@@ABEHHD@Z 10045cc0 f i libucrtd:output.obj
 0001:00044cf0       ?type_case_s_compute_narrow_string_length@?$output_processor@DV?$stream_output_adapter@D@__crt_stdio_output@@V?$positional_parameter_base@DV?$stream_output_adapter@D@__crt_stdio_output@@@2@@__crt_stdio_output@@ABEHHD@Z 10045cf0 f i libucrtd:output.obj
 0001:00044d20       ?type_case_s_compute_narrow_string_length@?$output_processor@DV?$stream_output_adapter@D@__crt_stdio_output@@V?$standard_base@DV?$stream_output_adapter@D@__crt_stdio_output@@@2@@__crt_stdio_output@@ABEHHD@Z 10045d20 f i libucrtd:output.obj
 0001:00044d50       ?type_case_s_compute_narrow_string_length@?$output_processor@DV?$string_output_adapter@D@__crt_stdio_output@@V?$format_validation_base@DV?$string_output_adapter@D@__crt_stdio_output@@@2@@__crt_stdio_output@@ABEHHD@Z 10045d50 f i libucrtd:output.obj
 0001:00044d80       ?type_case_s_compute_narrow_string_length@?$output_processor@DV?$string_output_adapter@D@__crt_stdio_output@@V?$positional_parameter_base@DV?$string_output_adapter@D@__crt_stdio_output@@@2@@__crt_stdio_output@@ABEHHD@Z 10045d80 f i libucrtd:output.obj
 0001:00044db0       ?type_case_s_compute_narrow_string_length@?$output_processor@DV?$string_output_adapter@D@__crt_stdio_output@@V?$standard_base@DV?$string_output_adapter@D@__crt_stdio_output@@@2@@__crt_stdio_output@@ABEHHD@Z 10045db0 f i libucrtd:output.obj
 0001:00044de0       ?type_case_s_compute_narrow_string_length@?$output_processor@_WV?$stream_output_adapter@_W@__crt_stdio_output@@V?$format_validation_base@_WV?$stream_output_adapter@_W@__crt_stdio_output@@@2@@__crt_stdio_output@@ABEHH_W@Z 10045de0 f i libucrtd:output.obj
 0001:00044e50       ?type_case_s_compute_narrow_string_length@?$output_processor@_WV?$stream_output_adapter@_W@__crt_stdio_output@@V?$positional_parameter_base@_WV?$stream_output_adapter@_W@__crt_stdio_output@@@2@@__crt_stdio_output@@ABEHH_W@Z 10045e50 f i libucrtd:output.obj
 0001:00044ec0       ?type_case_s_compute_narrow_string_length@?$output_processor@_WV?$stream_output_adapter@_W@__crt_stdio_output@@V?$standard_base@_WV?$stream_output_adapter@_W@__crt_stdio_output@@@2@@__crt_stdio_output@@ABEHH_W@Z 10045ec0 f i libucrtd:output.obj
 0001:00044f30       ?type_case_s_compute_narrow_string_length@?$output_processor@_WV?$string_output_adapter@_W@__crt_stdio_output@@V?$format_validation_base@_WV?$string_output_adapter@_W@__crt_stdio_output@@@2@@__crt_stdio_output@@ABEHH_W@Z 10045f30 f i libucrtd:output.obj
 0001:00044fa0       ?type_case_s_compute_narrow_string_length@?$output_processor@_WV?$string_output_adapter@_W@__crt_stdio_output@@V?$positional_parameter_base@_WV?$string_output_adapter@_W@__crt_stdio_output@@@2@@__crt_stdio_output@@ABEHH_W@Z 10045fa0 f i libucrtd:output.obj
 0001:00045010       ?type_case_s_compute_narrow_string_length@?$output_processor@_WV?$string_output_adapter@_W@__crt_stdio_output@@V?$standard_base@_WV?$string_output_adapter@_W@__crt_stdio_output@@@2@@__crt_stdio_output@@ABEHH_W@Z 10046010 f i libucrtd:output.obj
 0001:00045080       ?type_case_u@?$output_processor@DV?$stream_output_adapter@D@__crt_stdio_output@@V?$format_validation_base@DV?$stream_output_adapter@D@__crt_stdio_output@@@2@@__crt_stdio_output@@AAE_NXZ 10046080 f i libucrtd:output.obj
 0001:000450a0       ?type_case_u@?$output_processor@DV?$stream_output_adapter@D@__crt_stdio_output@@V?$positional_parameter_base@DV?$stream_output_adapter@D@__crt_stdio_output@@@2@@__crt_stdio_output@@AAE_NXZ 100460a0 f i libucrtd:output.obj
 0001:000450c0       ?type_case_u@?$output_processor@DV?$stream_output_adapter@D@__crt_stdio_output@@V?$standard_base@DV?$stream_output_adapter@D@__crt_stdio_output@@@2@@__crt_stdio_output@@AAE_NXZ 100460c0 f i libucrtd:output.obj
 0001:000450e0       ?type_case_u@?$output_processor@DV?$string_output_adapter@D@__crt_stdio_output@@V?$format_validation_base@DV?$string_output_adapter@D@__crt_stdio_output@@@2@@__crt_stdio_output@@AAE_NXZ 100460e0 f i libucrtd:output.obj
 0001:00045100       ?type_case_u@?$output_processor@DV?$string_output_adapter@D@__crt_stdio_output@@V?$positional_parameter_base@DV?$string_output_adapter@D@__crt_stdio_output@@@2@@__crt_stdio_output@@AAE_NXZ 10046100 f i libucrtd:output.obj
 0001:00045120       ?type_case_u@?$output_processor@DV?$string_output_adapter@D@__crt_stdio_output@@V?$standard_base@DV?$string_output_adapter@D@__crt_stdio_output@@@2@@__crt_stdio_output@@AAE_NXZ 10046120 f i libucrtd:output.obj
 0001:00045140       ?type_case_u@?$output_processor@_WV?$stream_output_adapter@_W@__crt_stdio_output@@V?$format_validation_base@_WV?$stream_output_adapter@_W@__crt_stdio_output@@@2@@__crt_stdio_output@@AAE_NXZ 10046140 f i libucrtd:output.obj
 0001:00045160       ?type_case_u@?$output_processor@_WV?$stream_output_adapter@_W@__crt_stdio_output@@V?$positional_parameter_base@_WV?$stream_output_adapter@_W@__crt_stdio_output@@@2@@__crt_stdio_output@@AAE_NXZ 10046160 f i libucrtd:output.obj
 0001:00045180       ?type_case_u@?$output_processor@_WV?$stream_output_adapter@_W@__crt_stdio_output@@V?$standard_base@_WV?$stream_output_adapter@_W@__crt_stdio_output@@@2@@__crt_stdio_output@@AAE_NXZ 10046180 f i libucrtd:output.obj
 0001:000451a0       ?type_case_u@?$output_processor@_WV?$string_output_adapter@_W@__crt_stdio_output@@V?$format_validation_base@_WV?$string_output_adapter@_W@__crt_stdio_output@@@2@@__crt_stdio_output@@AAE_NXZ 100461a0 f i libucrtd:output.obj
 0001:000451c0       ?type_case_u@?$output_processor@_WV?$string_output_adapter@_W@__crt_stdio_output@@V?$positional_parameter_base@_WV?$string_output_adapter@_W@__crt_stdio_output@@@2@@__crt_stdio_output@@AAE_NXZ 100461c0 f i libucrtd:output.obj
 0001:000451e0       ?type_case_u@?$output_processor@_WV?$string_output_adapter@_W@__crt_stdio_output@@V?$standard_base@_WV?$string_output_adapter@_W@__crt_stdio_output@@@2@@__crt_stdio_output@@AAE_NXZ 100461e0 f i libucrtd:output.obj
 0001:00045200       ?type_case_x@?$output_processor@DV?$stream_output_adapter@D@__crt_stdio_output@@V?$format_validation_base@DV?$stream_output_adapter@D@__crt_stdio_output@@@2@@__crt_stdio_output@@AAE_NXZ 10046200 f i libucrtd:output.obj
 0001:00045220       ?type_case_x@?$output_processor@DV?$stream_output_adapter@D@__crt_stdio_output@@V?$positional_parameter_base@DV?$stream_output_adapter@D@__crt_stdio_output@@@2@@__crt_stdio_output@@AAE_NXZ 10046220 f i libucrtd:output.obj
 0001:00045240       ?type_case_x@?$output_processor@DV?$stream_output_adapter@D@__crt_stdio_output@@V?$standard_base@DV?$stream_output_adapter@D@__crt_stdio_output@@@2@@__crt_stdio_output@@AAE_NXZ 10046240 f i libucrtd:output.obj
 0001:00045260       ?type_case_x@?$output_processor@DV?$string_output_adapter@D@__crt_stdio_output@@V?$format_validation_base@DV?$string_output_adapter@D@__crt_stdio_output@@@2@@__crt_stdio_output@@AAE_NXZ 10046260 f i libucrtd:output.obj
 0001:00045280       ?type_case_x@?$output_processor@DV?$string_output_adapter@D@__crt_stdio_output@@V?$positional_parameter_base@DV?$string_output_adapter@D@__crt_stdio_output@@@2@@__crt_stdio_output@@AAE_NXZ 10046280 f i libucrtd:output.obj
 0001:000452a0       ?type_case_x@?$output_processor@DV?$string_output_adapter@D@__crt_stdio_output@@V?$standard_base@DV?$string_output_adapter@D@__crt_stdio_output@@@2@@__crt_stdio_output@@AAE_NXZ 100462a0 f i libucrtd:output.obj
 0001:000452c0       ?type_case_x@?$output_processor@_WV?$stream_output_adapter@_W@__crt_stdio_output@@V?$format_validation_base@_WV?$stream_output_adapter@_W@__crt_stdio_output@@@2@@__crt_stdio_output@@AAE_NXZ 100462c0 f i libucrtd:output.obj
 0001:000452e0       ?type_case_x@?$output_processor@_WV?$stream_output_adapter@_W@__crt_stdio_output@@V?$positional_parameter_base@_WV?$stream_output_adapter@_W@__crt_stdio_output@@@2@@__crt_stdio_output@@AAE_NXZ 100462e0 f i libucrtd:output.obj
 0001:00045300       ?type_case_x@?$output_processor@_WV?$stream_output_adapter@_W@__crt_stdio_output@@V?$standard_base@_WV?$stream_output_adapter@_W@__crt_stdio_output@@@2@@__crt_stdio_output@@AAE_NXZ 10046300 f i libucrtd:output.obj
 0001:00045320       ?type_case_x@?$output_processor@_WV?$string_output_adapter@_W@__crt_stdio_output@@V?$format_validation_base@_WV?$string_output_adapter@_W@__crt_stdio_output@@@2@@__crt_stdio_output@@AAE_NXZ 10046320 f i libucrtd:output.obj
 0001:00045340       ?type_case_x@?$output_processor@_WV?$string_output_adapter@_W@__crt_stdio_output@@V?$positional_parameter_base@_WV?$string_output_adapter@_W@__crt_stdio_output@@@2@@__crt_stdio_output@@AAE_NXZ 10046340 f i libucrtd:output.obj
 0001:00045360       ?type_case_x@?$output_processor@_WV?$string_output_adapter@_W@__crt_stdio_output@@V?$standard_base@_WV?$string_output_adapter@_W@__crt_stdio_output@@@2@@__crt_stdio_output@@AAE_NXZ 10046360 f i libucrtd:output.obj
 0001:00045380       ?unset_flag@?$output_processor@DV?$stream_output_adapter@D@__crt_stdio_output@@V?$format_validation_base@DV?$stream_output_adapter@D@__crt_stdio_output@@@2@@__crt_stdio_output@@AAEXI@Z 10046380 f i libucrtd:output.obj
 0001:000453a0       ?unset_flag@?$output_processor@DV?$stream_output_adapter@D@__crt_stdio_output@@V?$positional_parameter_base@DV?$stream_output_adapter@D@__crt_stdio_output@@@2@@__crt_stdio_output@@AAEXI@Z 100463a0 f i libucrtd:output.obj
 0001:000453c0       ?unset_flag@?$output_processor@DV?$stream_output_adapter@D@__crt_stdio_output@@V?$standard_base@DV?$stream_output_adapter@D@__crt_stdio_output@@@2@@__crt_stdio_output@@AAEXI@Z 100463c0 f i libucrtd:output.obj
 0001:000453e0       ?unset_flag@?$output_processor@DV?$string_output_adapter@D@__crt_stdio_output@@V?$format_validation_base@DV?$string_output_adapter@D@__crt_stdio_output@@@2@@__crt_stdio_output@@AAEXI@Z 100463e0 f i libucrtd:output.obj
 0001:00045400       ?unset_flag@?$output_processor@DV?$string_output_adapter@D@__crt_stdio_output@@V?$positional_parameter_base@DV?$string_output_adapter@D@__crt_stdio_output@@@2@@__crt_stdio_output@@AAEXI@Z 10046400 f i libucrtd:output.obj
 0001:00045420       ?unset_flag@?$output_processor@DV?$string_output_adapter@D@__crt_stdio_output@@V?$standard_base@DV?$string_output_adapter@D@__crt_stdio_output@@@2@@__crt_stdio_output@@AAEXI@Z 10046420 f i libucrtd:output.obj
 0001:00045440       ?unset_flag@?$output_processor@_WV?$stream_output_adapter@_W@__crt_stdio_output@@V?$format_validation_base@_WV?$stream_output_adapter@_W@__crt_stdio_output@@@2@@__crt_stdio_output@@AAEXI@Z 10046440 f i libucrtd:output.obj
 0001:00045460       ?unset_flag@?$output_processor@_WV?$stream_output_adapter@_W@__crt_stdio_output@@V?$positional_parameter_base@_WV?$stream_output_adapter@_W@__crt_stdio_output@@@2@@__crt_stdio_output@@AAEXI@Z 10046460 f i libucrtd:output.obj
 0001:00045480       ?unset_flag@?$output_processor@_WV?$stream_output_adapter@_W@__crt_stdio_output@@V?$standard_base@_WV?$stream_output_adapter@_W@__crt_stdio_output@@@2@@__crt_stdio_output@@AAEXI@Z 10046480 f i libucrtd:output.obj
 0001:000454a0       ?unset_flag@?$output_processor@_WV?$string_output_adapter@_W@__crt_stdio_output@@V?$format_validation_base@_WV?$string_output_adapter@_W@__crt_stdio_output@@@2@@__crt_stdio_output@@AAEXI@Z 100464a0 f i libucrtd:output.obj
 0001:000454c0       ?unset_flag@?$output_processor@_WV?$string_output_adapter@_W@__crt_stdio_output@@V?$positional_parameter_base@_WV?$string_output_adapter@_W@__crt_stdio_output@@@2@@__crt_stdio_output@@AAEXI@Z 100464c0 f i libucrtd:output.obj
 0001:000454e0       ?unset_flag@?$output_processor@_WV?$string_output_adapter@_W@__crt_stdio_output@@V?$standard_base@_WV?$string_output_adapter@_W@__crt_stdio_output@@@2@@__crt_stdio_output@@AAEXI@Z 100464e0 f i libucrtd:output.obj
 0001:00045500       ?update_field_width@?$positional_parameter_base@DV?$stream_output_adapter@D@__crt_stdio_output@@@__crt_stdio_output@@IAE_NXZ 10046500 f i libucrtd:output.obj
 0001:00045680       ?update_field_width@?$positional_parameter_base@DV?$string_output_adapter@D@__crt_stdio_output@@@__crt_stdio_output@@IAE_NXZ 10046680 f i libucrtd:output.obj
 0001:00045800       ?update_field_width@?$positional_parameter_base@_WV?$stream_output_adapter@_W@__crt_stdio_output@@@__crt_stdio_output@@IAE_NXZ 10046800 f i libucrtd:output.obj
 0001:00045980       ?update_field_width@?$positional_parameter_base@_WV?$string_output_adapter@_W@__crt_stdio_output@@@__crt_stdio_output@@IAE_NXZ 10046980 f i libucrtd:output.obj
 0001:00045b00       ?update_field_width@?$standard_base@DV?$stream_output_adapter@D@__crt_stdio_output@@@__crt_stdio_output@@IAE_NXZ 10046b00 f i libucrtd:output.obj
 0001:00045b30       ?update_field_width@?$standard_base@DV?$string_output_adapter@D@__crt_stdio_output@@@__crt_stdio_output@@IAE_NXZ 10046b30 f i libucrtd:output.obj
 0001:00045b60       ?update_field_width@?$standard_base@_WV?$stream_output_adapter@_W@__crt_stdio_output@@@__crt_stdio_output@@IAE_NXZ 10046b60 f i libucrtd:output.obj
 0001:00045b90       ?update_field_width@?$standard_base@_WV?$string_output_adapter@_W@__crt_stdio_output@@@__crt_stdio_output@@IAE_NXZ 10046b90 f i libucrtd:output.obj
 0001:00045bc0       ?update_precision@?$positional_parameter_base@DV?$stream_output_adapter@D@__crt_stdio_output@@@__crt_stdio_output@@IAE_NXZ 10046bc0 f i libucrtd:output.obj
 0001:00045d40       ?update_precision@?$positional_parameter_base@DV?$string_output_adapter@D@__crt_stdio_output@@@__crt_stdio_output@@IAE_NXZ 10046d40 f i libucrtd:output.obj
 0001:00045ec0       ?update_precision@?$positional_parameter_base@_WV?$stream_output_adapter@_W@__crt_stdio_output@@@__crt_stdio_output@@IAE_NXZ 10046ec0 f i libucrtd:output.obj
 0001:00046040       ?update_precision@?$positional_parameter_base@_WV?$string_output_adapter@_W@__crt_stdio_output@@@__crt_stdio_output@@IAE_NXZ 10047040 f i libucrtd:output.obj
 0001:000461c0       ?update_precision@?$standard_base@DV?$stream_output_adapter@D@__crt_stdio_output@@@__crt_stdio_output@@IAE_NXZ 100471c0 f i libucrtd:output.obj
 0001:000461f0       ?update_precision@?$standard_base@DV?$string_output_adapter@D@__crt_stdio_output@@@__crt_stdio_output@@IAE_NXZ 100471f0 f i libucrtd:output.obj
 0001:00046220       ?update_precision@?$standard_base@_WV?$stream_output_adapter@_W@__crt_stdio_output@@@__crt_stdio_output@@IAE_NXZ 10047220 f i libucrtd:output.obj
 0001:00046250       ?update_precision@?$standard_base@_WV?$string_output_adapter@_W@__crt_stdio_output@@@__crt_stdio_output@@IAE_NXZ 10047250 f i libucrtd:output.obj
 0001:00046280       ?valid@__crt_stdio_stream@@QBE_NXZ 10047280 f i libucrtd:output.obj
 0001:000462b0       ?validate@?$stream_output_adapter@D@__crt_stdio_output@@QBE_NXZ 100472b0 f i libucrtd:output.obj
 0001:00046360       ?validate@?$stream_output_adapter@_W@__crt_stdio_output@@QBE_NXZ 10047360 f i libucrtd:output.obj
 0001:00046410       ?validate@?$string_output_adapter@D@__crt_stdio_output@@QBE_NXZ 10047410 f i libucrtd:output.obj
 0001:000464a0       ?validate@?$string_output_adapter@_W@__crt_stdio_output@@QBE_NXZ 100474a0 f i libucrtd:output.obj
 0001:00046530       ?validate_and_store_parameter_data@?$positional_parameter_base@DV?$stream_output_adapter@D@__crt_stdio_output@@@__crt_stdio_output@@AAE_NAAUparameter_data@12@W4parameter_type@12@DW4length_modifier@2@@Z 10047530 f i libucrtd:output.obj
 0001:00046600       ?validate_and_store_parameter_data@?$positional_parameter_base@DV?$string_output_adapter@D@__crt_stdio_output@@@__crt_stdio_output@@AAE_NAAUparameter_data@12@W4parameter_type@12@DW4length_modifier@2@@Z 10047600 f i libucrtd:output.obj
 0001:000466d0       ?validate_and_store_parameter_data@?$positional_parameter_base@_WV?$stream_output_adapter@_W@__crt_stdio_output@@@__crt_stdio_output@@AAE_NAAUparameter_data@12@W4parameter_type@12@_WW4length_modifier@2@@Z 100476d0 f i libucrtd:output.obj
 0001:000467b0       ?validate_and_store_parameter_data@?$positional_parameter_base@_WV?$string_output_adapter@_W@__crt_stdio_output@@@__crt_stdio_output@@AAE_NAAUparameter_data@12@W4parameter_type@12@_WW4length_modifier@2@@Z 100477b0 f i libucrtd:output.obj
 0001:00046890       ?validate_and_update_state_at_beginning_of_format_character@?$positional_parameter_base@DV?$stream_output_adapter@D@__crt_stdio_output@@@__crt_stdio_output@@IAE_NXZ 10047890 f i libucrtd:output.obj
 0001:00046ab0       ?validate_and_update_state_at_beginning_of_format_character@?$positional_parameter_base@DV?$string_output_adapter@D@__crt_stdio_output@@@__crt_stdio_output@@IAE_NXZ 10047ab0 f i libucrtd:output.obj
 0001:00046cd0       ?validate_and_update_state_at_beginning_of_format_character@?$positional_parameter_base@_WV?$stream_output_adapter@_W@__crt_stdio_output@@@__crt_stdio_output@@IAE_NXZ 10047cd0 f i libucrtd:output.obj
 0001:00046ef0       ?validate_and_update_state_at_beginning_of_format_character@?$positional_parameter_base@_WV?$string_output_adapter@_W@__crt_stdio_output@@@__crt_stdio_output@@IAE_NXZ 10047ef0 f i libucrtd:output.obj
 0001:00047110       ?validate_and_update_state_at_beginning_of_format_character@?$standard_base@DV?$stream_output_adapter@D@__crt_stdio_output@@@__crt_stdio_output@@IAE_NXZ 10048110 f i libucrtd:output.obj
 0001:00047120       ?validate_and_update_state_at_beginning_of_format_character@?$standard_base@DV?$string_output_adapter@D@__crt_stdio_output@@@__crt_stdio_output@@IAE_NXZ 10048120 f i libucrtd:output.obj
 0001:00047130       ?validate_and_update_state_at_beginning_of_format_character@?$standard_base@_WV?$stream_output_adapter@_W@__crt_stdio_output@@@__crt_stdio_output@@IAE_NXZ 10048130 f i libucrtd:output.obj
 0001:00047140       ?validate_and_update_state_at_beginning_of_format_character@?$standard_base@_WV?$string_output_adapter@_W@__crt_stdio_output@@@__crt_stdio_output@@IAE_NXZ 10048140 f i libucrtd:output.obj
 0001:00047150       ?validate_and_update_state_at_end_of_format_string@?$format_validation_base@DV?$stream_output_adapter@D@__crt_stdio_output@@@__crt_stdio_output@@IBE_NXZ 10048150 f i libucrtd:output.obj
 0001:000471f0       ?validate_and_update_state_at_end_of_format_string@?$format_validation_base@DV?$string_output_adapter@D@__crt_stdio_output@@@__crt_stdio_output@@IBE_NXZ 100481f0 f i libucrtd:output.obj
 0001:00047290       ?validate_and_update_state_at_end_of_format_string@?$format_validation_base@_WV?$stream_output_adapter@_W@__crt_stdio_output@@@__crt_stdio_output@@IBE_NXZ 10048290 f i libucrtd:output.obj
 0001:00047330       ?validate_and_update_state_at_end_of_format_string@?$format_validation_base@_WV?$string_output_adapter@_W@__crt_stdio_output@@@__crt_stdio_output@@IBE_NXZ 10048330 f i libucrtd:output.obj
 0001:000473d0       ?validate_and_update_state_at_end_of_format_string@?$positional_parameter_base@DV?$stream_output_adapter@D@__crt_stdio_output@@@__crt_stdio_output@@IAE_NXZ 100483d0 f i libucrtd:output.obj
 0001:00047570       ?validate_and_update_state_at_end_of_format_string@?$positional_parameter_base@DV?$string_output_adapter@D@__crt_stdio_output@@@__crt_stdio_output@@IAE_NXZ 10048570 f i libucrtd:output.obj
 0001:00047710       ?validate_and_update_state_at_end_of_format_string@?$positional_parameter_base@_WV?$stream_output_adapter@_W@__crt_stdio_output@@@__crt_stdio_output@@IAE_NXZ 10048710 f i libucrtd:output.obj
 0001:000478b0       ?validate_and_update_state_at_end_of_format_string@?$positional_parameter_base@_WV?$string_output_adapter@_W@__crt_stdio_output@@@__crt_stdio_output@@IAE_NXZ 100488b0 f i libucrtd:output.obj
 0001:00047a50       ?validate_and_update_state_at_end_of_format_string@?$standard_base@DV?$stream_output_adapter@D@__crt_stdio_output@@@__crt_stdio_output@@IBE_NXZ 10048a50 f i libucrtd:output.obj
 0001:00047a60       ?validate_and_update_state_at_end_of_format_string@?$standard_base@DV?$string_output_adapter@D@__crt_stdio_output@@@__crt_stdio_output@@IBE_NXZ 10048a60 f i libucrtd:output.obj
 0001:00047a70       ?validate_and_update_state_at_end_of_format_string@?$standard_base@_WV?$stream_output_adapter@_W@__crt_stdio_output@@@__crt_stdio_output@@IBE_NXZ 10048a70 f i libucrtd:output.obj
 0001:00047a80       ?validate_and_update_state_at_end_of_format_string@?$standard_base@_WV?$string_output_adapter@_W@__crt_stdio_output@@@__crt_stdio_output@@IBE_NXZ 10048a80 f i libucrtd:output.obj
 0001:00047a90       ?validate_state_for_type_case_a@?$positional_parameter_base@DV?$stream_output_adapter@D@__crt_stdio_output@@@__crt_stdio_output@@IAE_NXZ 10048a90 f i libucrtd:output.obj
 0001:00047b80       ?validate_state_for_type_case_a@?$positional_parameter_base@DV?$string_output_adapter@D@__crt_stdio_output@@@__crt_stdio_output@@IAE_NXZ 10048b80 f i libucrtd:output.obj
 0001:00047c70       ?validate_state_for_type_case_a@?$positional_parameter_base@_WV?$stream_output_adapter@_W@__crt_stdio_output@@@__crt_stdio_output@@IAE_NXZ 10048c70 f i libucrtd:output.obj
 0001:00047d60       ?validate_state_for_type_case_a@?$positional_parameter_base@_WV?$string_output_adapter@_W@__crt_stdio_output@@@__crt_stdio_output@@IAE_NXZ 10048d60 f i libucrtd:output.obj
 0001:00047e50       ?validate_state_for_type_case_a@?$standard_base@DV?$stream_output_adapter@D@__crt_stdio_output@@@__crt_stdio_output@@IBE_NXZ 10048e50 f i libucrtd:output.obj
 0001:00047e60       ?validate_state_for_type_case_a@?$standard_base@DV?$string_output_adapter@D@__crt_stdio_output@@@__crt_stdio_output@@IBE_NXZ 10048e60 f i libucrtd:output.obj
 0001:00047e70       ?validate_state_for_type_case_a@?$standard_base@_WV?$stream_output_adapter@_W@__crt_stdio_output@@@__crt_stdio_output@@IBE_NXZ 10048e70 f i libucrtd:output.obj
 0001:00047e80       ?validate_state_for_type_case_a@?$standard_base@_WV?$string_output_adapter@_W@__crt_stdio_output@@@__crt_stdio_output@@IBE_NXZ 10048e80 f i libucrtd:output.obj
 0001:00047e90       ?validate_stream_is_ansi_if_required@?$__acrt_stdio_char_traits@D@@SA_NQAU_iobuf@@@Z 10048e90 f i libucrtd:output.obj
 0001:00047fc0       ?validate_stream_is_ansi_if_required@?$__acrt_stdio_char_traits@_W@@SA_NQAU_iobuf@@@Z 10048fc0 f i libucrtd:output.obj
 0001:00047fd0       ?wide_null_string@?$output_processor@DV?$stream_output_adapter@D@__crt_stdio_output@@V?$format_validation_base@DV?$stream_output_adapter@D@__crt_stdio_output@@@2@@__crt_stdio_output@@CAPA_WXZ 10048fd0 f i libucrtd:output.obj
 0001:00047fe0       ?wide_null_string@?$output_processor@DV?$stream_output_adapter@D@__crt_stdio_output@@V?$positional_parameter_base@DV?$stream_output_adapter@D@__crt_stdio_output@@@2@@__crt_stdio_output@@CAPA_WXZ 10048fe0 f i libucrtd:output.obj
 0001:00047ff0       ?wide_null_string@?$output_processor@DV?$stream_output_adapter@D@__crt_stdio_output@@V?$standard_base@DV?$stream_output_adapter@D@__crt_stdio_output@@@2@@__crt_stdio_output@@CAPA_WXZ 10048ff0 f i libucrtd:output.obj
 0001:00048000       ?wide_null_string@?$output_processor@DV?$string_output_adapter@D@__crt_stdio_output@@V?$format_validation_base@DV?$string_output_adapter@D@__crt_stdio_output@@@2@@__crt_stdio_output@@CAPA_WXZ 10049000 f i libucrtd:output.obj
 0001:00048010       ?wide_null_string@?$output_processor@DV?$string_output_adapter@D@__crt_stdio_output@@V?$positional_parameter_base@DV?$string_output_adapter@D@__crt_stdio_output@@@2@@__crt_stdio_output@@CAPA_WXZ 10049010 f i libucrtd:output.obj
 0001:00048020       ?wide_null_string@?$output_processor@DV?$string_output_adapter@D@__crt_stdio_output@@V?$standard_base@DV?$string_output_adapter@D@__crt_stdio_output@@@2@@__crt_stdio_output@@CAPA_WXZ 10049020 f i libucrtd:output.obj
 0001:00048030       ?wide_null_string@?$output_processor@_WV?$stream_output_adapter@_W@__crt_stdio_output@@V?$format_validation_base@_WV?$stream_output_adapter@_W@__crt_stdio_output@@@2@@__crt_stdio_output@@CAPA_WXZ 10049030 f i libucrtd:output.obj
 0001:00048040       ?wide_null_string@?$output_processor@_WV?$stream_output_adapter@_W@__crt_stdio_output@@V?$positional_parameter_base@_WV?$stream_output_adapter@_W@__crt_stdio_output@@@2@@__crt_stdio_output@@CAPA_WXZ 10049040 f i libucrtd:output.obj
 0001:00048050       ?wide_null_string@?$output_processor@_WV?$stream_output_adapter@_W@__crt_stdio_output@@V?$standard_base@_WV?$stream_output_adapter@_W@__crt_stdio_output@@@2@@__crt_stdio_output@@CAPA_WXZ 10049050 f i libucrtd:output.obj
 0001:00048060       ?wide_null_string@?$output_processor@_WV?$string_output_adapter@_W@__crt_stdio_output@@V?$format_validation_base@_WV?$string_output_adapter@_W@__crt_stdio_output@@@2@@__crt_stdio_output@@CAPA_WXZ 10049060 f i libucrtd:output.obj
 0001:00048070       ?wide_null_string@?$output_processor@_WV?$string_output_adapter@_W@__crt_stdio_output@@V?$positional_parameter_base@_WV?$string_output_adapter@_W@__crt_stdio_output@@@2@@__crt_stdio_output@@CAPA_WXZ 10049070 f i libucrtd:output.obj
 0001:00048080       ?wide_null_string@?$output_processor@_WV?$string_output_adapter@_W@__crt_stdio_output@@V?$standard_base@_WV?$string_output_adapter@_W@__crt_stdio_output@@@2@@__crt_stdio_output@@CAPA_WXZ 10049080 f i libucrtd:output.obj
 0001:00048090       ?write_character@?$output_adapter_common@DV?$stream_output_adapter@D@__crt_stdio_output@@@__crt_stdio_output@@QBEXDQAH@Z 10049090 f i libucrtd:output.obj
 0001:000480d0       ?write_character@?$output_adapter_common@_WV?$stream_output_adapter@_W@__crt_stdio_output@@@__crt_stdio_output@@QBEX_WQAH@Z 100490d0 f i libucrtd:output.obj
 0001:00048110       ?write_character@?$string_output_adapter@D@__crt_stdio_output@@QBE_NDQAH@Z 10049110 f i libucrtd:output.obj
 0001:000481a0       ?write_character@?$string_output_adapter@_W@__crt_stdio_output@@QBE_N_WQAH@Z 100491a0 f i libucrtd:output.obj
 0001:00048240       ?write_character_without_count_update@?$stream_output_adapter@D@__crt_stdio_output@@QBE_ND@Z 10049240 f i libucrtd:output.obj
 0001:000482b0       ?write_character_without_count_update@?$stream_output_adapter@_W@__crt_stdio_output@@QBE_N_W@Z 100492b0 f i libucrtd:output.obj
 0001:00048320       ?write_stored_string_tchar@?$output_processor@DV?$stream_output_adapter@D@__crt_stdio_output@@V?$format_validation_base@DV?$stream_output_adapter@D@__crt_stdio_output@@@2@@__crt_stdio_output@@AAE_ND@Z 10049320 f i libucrtd:output.obj
 0001:00048440       ?write_stored_string_tchar@?$output_processor@DV?$stream_output_adapter@D@__crt_stdio_output@@V?$positional_parameter_base@DV?$stream_output_adapter@D@__crt_stdio_output@@@2@@__crt_stdio_output@@AAE_ND@Z 10049440 f i libucrtd:output.obj
 0001:00048560       ?write_stored_string_tchar@?$output_processor@DV?$stream_output_adapter@D@__crt_stdio_output@@V?$standard_base@DV?$stream_output_adapter@D@__crt_stdio_output@@@2@@__crt_stdio_output@@AAE_ND@Z 10049560 f i libucrtd:output.obj
 0001:00048680       ?write_stored_string_tchar@?$output_processor@DV?$string_output_adapter@D@__crt_stdio_output@@V?$format_validation_base@DV?$string_output_adapter@D@__crt_stdio_output@@@2@@__crt_stdio_output@@AAE_ND@Z 10049680 f i libucrtd:output.obj
 0001:000487a0       ?write_stored_string_tchar@?$output_processor@DV?$string_output_adapter@D@__crt_stdio_output@@V?$positional_parameter_base@DV?$string_output_adapter@D@__crt_stdio_output@@@2@@__crt_stdio_output@@AAE_ND@Z 100497a0 f i libucrtd:output.obj
 0001:000488c0       ?write_stored_string_tchar@?$output_processor@DV?$string_output_adapter@D@__crt_stdio_output@@V?$standard_base@DV?$string_output_adapter@D@__crt_stdio_output@@@2@@__crt_stdio_output@@AAE_ND@Z 100498c0 f i libucrtd:output.obj
 0001:000489e0       ?write_stored_string_tchar@?$output_processor@_WV?$stream_output_adapter@_W@__crt_stdio_output@@V?$format_validation_base@_WV?$stream_output_adapter@_W@__crt_stdio_output@@@2@@__crt_stdio_output@@AAE_N_W@Z 100499e0 f i libucrtd:output.obj
 0001:00048ad0       ?write_stored_string_tchar@?$output_processor@_WV?$stream_output_adapter@_W@__crt_stdio_output@@V?$positional_parameter_base@_WV?$stream_output_adapter@_W@__crt_stdio_output@@@2@@__crt_stdio_output@@AAE_N_W@Z 10049ad0 f i libucrtd:output.obj
 0001:00048bc0       ?write_stored_string_tchar@?$output_processor@_WV?$stream_output_adapter@_W@__crt_stdio_output@@V?$standard_base@_WV?$stream_output_adapter@_W@__crt_stdio_output@@@2@@__crt_stdio_output@@AAE_N_W@Z 10049bc0 f i libucrtd:output.obj
 0001:00048cb0       ?write_stored_string_tchar@?$output_processor@_WV?$string_output_adapter@_W@__crt_stdio_output@@V?$format_validation_base@_WV?$string_output_adapter@_W@__crt_stdio_output@@@2@@__crt_stdio_output@@AAE_N_W@Z 10049cb0 f i libucrtd:output.obj
 0001:00048da0       ?write_stored_string_tchar@?$output_processor@_WV?$string_output_adapter@_W@__crt_stdio_output@@V?$positional_parameter_base@_WV?$string_output_adapter@_W@__crt_stdio_output@@@2@@__crt_stdio_output@@AAE_N_W@Z 10049da0 f i libucrtd:output.obj
 0001:00048e90       ?write_stored_string_tchar@?$output_processor@_WV?$string_output_adapter@_W@__crt_stdio_output@@V?$standard_base@_WV?$string_output_adapter@_W@__crt_stdio_output@@@2@@__crt_stdio_output@@AAE_N_W@Z 10049e90 f i libucrtd:output.obj
 0001:00048f80       ?write_string@?$stream_output_adapter@D@__crt_stdio_output@@QBEXQBDHQAHAAV__crt_deferred_errno_cache@@@Z 10049f80 f i libucrtd:output.obj
 0001:00048fe0       ?write_string@?$stream_output_adapter@_W@__crt_stdio_output@@QBEXQB_WHQAHAAV__crt_deferred_errno_cache@@@Z 10049fe0 f i libucrtd:output.obj
 0001:00049040       ?write_string@?$string_output_adapter@D@__crt_stdio_output@@QBEXQBDHQAHAAV__crt_deferred_errno_cache@@@Z 1004a040 f i libucrtd:output.obj
 0001:00049140       ?write_string@?$string_output_adapter@_W@__crt_stdio_output@@QBEXQB_WHQAHAAV__crt_deferred_errno_cache@@@Z 1004a140 f i libucrtd:output.obj
 0001:00049250       ?write_string_impl@?$output_adapter_common@DV?$stream_output_adapter@D@__crt_stdio_output@@@__crt_stdio_output@@IBEXQBDHQAHAAV__crt_deferred_errno_cache@@@Z 1004a250 f i libucrtd:output.obj
 0001:000492f0       ?write_string_impl@?$output_adapter_common@_WV?$stream_output_adapter@_W@__crt_stdio_output@@@__crt_stdio_output@@IBEXQB_WHQAHAAV__crt_deferred_errno_cache@@@Z 1004a2f0 f i libucrtd:output.obj
 0001:00049390       ___acrt_disable_global_locale_sync 1004a390 f i libucrtd:output.obj
 0001:000493b0       ___acrt_enable_global_locale_sync 1004a3b0 f i libucrtd:output.obj
 0001:000493d0       ___acrt_isleadbyte_l_noupdate 1004a3d0 f i libucrtd:output.obj
 0001:000493f0       ___acrt_locale_changed     1004a3f0 f i libucrtd:output.obj
 0001:00049420       ___acrt_locale_get_ctype_array_value 1004a420 f i libucrtd:output.obj
 0001:00049450       ___stdio_common_vfprintf   1004a450 f   libucrtd:output.obj
 0001:00049480       ___stdio_common_vfprintf_p 1004a480 f   libucrtd:output.obj
 0001:000494b0       ___stdio_common_vfprintf_s 1004a4b0 f   libucrtd:output.obj
 0001:000494e0       ___stdio_common_vfwprintf  1004a4e0 f   libucrtd:output.obj
 0001:00049510       ___stdio_common_vfwprintf_p 1004a510 f   libucrtd:output.obj
 0001:00049540       ___stdio_common_vfwprintf_s 1004a540 f   libucrtd:output.obj
 0001:00049570       ___stdio_common_vsnprintf_s 1004a570 f   libucrtd:output.obj
 0001:000495a0       ___stdio_common_vsnwprintf_s 1004a5a0 f   libucrtd:output.obj
 0001:000495d0       ___stdio_common_vsprintf   1004a5d0 f   libucrtd:output.obj
 0001:00049600       ___stdio_common_vsprintf_p 1004a600 f   libucrtd:output.obj
 0001:00049630       ___stdio_common_vsprintf_s 1004a630 f   libucrtd:output.obj
 0001:00049660       ___stdio_common_vswprintf  1004a660 f   libucrtd:output.obj
 0001:00049690       ___stdio_common_vswprintf_p 1004a690 f   libucrtd:output.obj
 0001:000496c0       ___stdio_common_vswprintf_s 1004a6c0 f   libucrtd:output.obj
 0001:000496f0       __ctype_fast_check_internal 1004a6f0 f i libucrtd:output.obj
 0001:00049710       __isdigit_fast_internal    1004a710 f i libucrtd:output.obj
 0001:00049730       __tolower_fast_internal    1004a730 f i libucrtd:output.obj
 0001:00049750       ??$__crt_fast_decode_pointer@P6AXPB_W00II@Z@@YAP6AXPB_W00II@ZQ6AX000II@Z@Z 1004a750 f i libucrtd:invalid_parameter.obj
 0001:00049780       ??$__crt_fast_encode_pointer@P6AXPB_W00II@Z@@YAP6AXPB_W00II@ZQ6AX000II@Z@Z 1004a780 f i libucrtd:invalid_parameter.obj
 0001:000497b0       ??$initialize_from_array@$$BY00Q6AXPB_W00II@Z@?$dual_state_global@P6AXPB_W00II@Z@__crt_state_management@@QAAXAAY00Q6AXPB_W00II@Z@Z 1004a7b0 f i libucrtd:invalid_parameter.obj
 0001:00049800       ?__crt_rotate_pointer_value@@YAIIH@Z 1004a800 f i libucrtd:invalid_parameter.obj
 0001:00049810       ?dangerous_get_state_array@?$dual_state_global@P6AXPB_W00II@Z@__crt_state_management@@QAEPAP6AXPB_W00II@ZXZ 1004a810 f i libucrtd:invalid_parameter.obj
 0001:00049820       ?get_current_state_index@__crt_state_management@@YAIXZ 1004a820 f i libucrtd:invalid_parameter.obj
 0001:00049830       ?value@?$dual_state_global@P6AXPB_W00II@Z@__crt_state_management@@QAEAAP6AXPB_W00II@ZXZ 1004a830 f i libucrtd:invalid_parameter.obj
 0001:00049850       ___acrt_call_reportfault   1004a850 f   libucrtd:invalid_parameter.obj
 0001:000499b0       ___acrt_initialize_invalid_parameter_handler 1004a9b0 f   libucrtd:invalid_parameter.obj
 0001:000499e0       __get_invalid_parameter_handler 1004a9e0 f   libucrtd:invalid_parameter.obj
 0001:00049a00       __get_thread_local_invalid_parameter_handler 1004aa00 f   libucrtd:invalid_parameter.obj
 0001:00049a30       __invalid_parameter        1004aa30 f   libucrtd:invalid_parameter.obj
 0001:00049af0       __invalid_parameter_noinfo 1004aaf0 f   libucrtd:invalid_parameter.obj
 0001:00049b10       __invalid_parameter_noinfo_noreturn 1004ab10 f   libucrtd:invalid_parameter.obj
 0001:00049b40       __invoke_watson            1004ab40 f   libucrtd:invalid_parameter.obj
 0001:00049b80       __set_invalid_parameter_handler 1004ab80 f   libucrtd:invalid_parameter.obj
 0001:00049bd0       __set_thread_local_invalid_parameter_handler 1004abd0 f   libucrtd:invalid_parameter.obj
 0001:00049c00       ___acrt_errno_from_os_error 1004ac00 f   libucrtd:errno.obj
 0001:00049c80       ___acrt_errno_map_os_error 1004ac80 f   libucrtd:errno.obj
 0001:00049cb0       ___doserrno                1004acb0 f   libucrtd:errno.obj
 0001:00049ce0       __errno                    1004ace0 f   libucrtd:errno.obj
 0001:00049d10       __get_doserrno             1004ad10 f   libucrtd:errno.obj
 0001:00049da0       __get_errno                1004ada0 f   libucrtd:errno.obj
 0001:00049e30       __set_doserrno             1004ae30 f   libucrtd:errno.obj
 0001:00049e60       __set_errno                1004ae60 f   libucrtd:errno.obj
 0001:00049e90       __recalloc                 1004ae90 f   libucrtd:recalloc.obj
 0001:00049ec0       __recalloc_base            1004aec0 f   libucrtd:recalloc.obj
 0001:0004a380       _wcscat_s                  1004b380 f   libucrtd:wcscat_s.obj
 0001:0004a7d0       _wcsncpy_s                 1004b7d0 f   libucrtd:wcsncpy_s.obj
 0001:0004a840       __seh_filter_dll           1004b840 f   libucrtd:exception_filter.obj
 0001:0004a870       __seh_filter_exe           1004b870 f   libucrtd:exception_filter.obj
 0001:0004aa80       ??$?B$$A6GXPAXK0@Z@__crt_fast_encoded_nullptr_t@@QBEP6GXPAXK0@ZXZ 1004ba80 f i libucrtd:exit.obj
 0001:0004ab60       ??$__crt_fast_decode_pointer@P6GXPAXK0@Z@@YAP6GXPAXK0@ZQ6GX0K0@Z@Z 1004bb60 f i libucrtd:exit.obj
 0001:0004ab90       ??$__crt_fast_encode_pointer@P6GXPAXK0@Z@@YAP6GXPAXK0@ZQ6GX0K0@Z@Z 1004bb90 f i libucrtd:exit.obj
 0001:0004abc0       ??$__crt_get_proc_address@P6GXI@Z@@YAP6GXI@ZQAUHINSTANCE__@@QBD@Z 1004bbc0 f i libucrtd:exit.obj
 0001:0004ac50       ??0?$__crt_unique_handle_t@U__crt_hmodule_traits@@@@QAE@QAUHINSTANCE__@@@Z 1004bc50 f i libucrtd:exit.obj
 0001:0004ac70       ??1?$__crt_unique_handle_t@U__crt_hmodule_traits@@@@QAE@XZ 1004bc70 f i libucrtd:exit.obj
 0001:0004ae30       ?__acrt_select_exit_lock@@YA?AW4__acrt_lock_id@@XZ 1004be30 f i libucrtd:exit.obj
 0001:0004ae40       ?__crt_fast_encode_pointer@@YA?AU__crt_fast_encoded_nullptr_t@@$$T@Z 1004be40 f i libucrtd:exit.obj
 0001:0004ae70       ?close@?$__crt_unique_handle_t@U__crt_hmodule_traits@@@@QAEXXZ 1004be70 f i libucrtd:exit.obj
 0001:0004aeb0       ?close@__crt_hmodule_traits@@SA_NPAUHINSTANCE__@@@Z 1004beb0 f i libucrtd:exit.obj
 0001:0004afa0       ?get@?$__crt_unique_handle_t@U__crt_hmodule_traits@@@@QBEPAUHINSTANCE__@@XZ 1004bfa0 f i libucrtd:exit.obj
 0001:0004afc0       ?get_address_of@?$__crt_unique_handle_t@U__crt_hmodule_traits@@@@QAEPAPAUHINSTANCE__@@XZ 1004bfc0 f i libucrtd:exit.obj
 0001:0004afd0       ?get_invalid_value@__crt_hmodule_traits@@SAPAUHINSTANCE__@@XZ 1004bfd0 f i libucrtd:exit.obj
 0001:0004b150       __Exit                     1004c150 f   libucrtd:exit.obj
 0001:0004b170       ___acrt_initialize_thread_local_exit_callback 1004c170 f   libucrtd:exit.obj
 0001:0004b180       __c_exit                   1004c180 f   libucrtd:exit.obj
 0001:0004b1a0       __cexit                    1004c1a0 f   libucrtd:exit.obj
 0001:0004b1c0       __exit                     1004c1c0 f   libucrtd:exit.obj
 0001:0004b1e0       __is_c_termination_complete 1004c1e0 f   libucrtd:exit.obj
 0001:0004b200       __register_thread_local_exe_atexit_callback 1004c200 f   libucrtd:exit.obj
 0001:0004b240       _exit                      1004c240 f   libucrtd:exit.obj
 0001:0004b260       _quick_exit                1004c260 f   libucrtd:exit.obj
 0001:0004b280       ??$?RE@__crt_internal_free_policy@@QBEXQBE@Z 1004c280 f i libucrtd:argv_parsing.obj
 0001:0004b2a0       ??$?RPAD@__crt_internal_free_policy@@QBEXQBQAD@Z 1004c2a0 f i libucrtd:argv_parsing.obj
 0001:0004b2c0       ??$?RPA_W@__crt_internal_free_policy@@QBEXQBQA_W@Z 1004c2c0 f i libucrtd:argv_parsing.obj
 0001:0004b820       ??$get_module_file_name@$$TAAY0BAF@DH@?$__crt_char_traits@D@@SAK$$QA$$TAAY0BAF@D$$QAH@Z 1004c820 f i libucrtd:argv_parsing.obj
 0001:0004b840       ??$get_module_file_name@$$TAAY0BAF@_WH@?$__crt_char_traits@_W@@SAK$$QA$$TAAY0BAF@_W$$QAH@Z 1004c840 f i libucrtd:argv_parsing.obj
 0001:0004bf60       ??$set_program_name@PAD@?$__crt_char_traits@D@@SAX$$QAPAD@Z 1004cf60 f i libucrtd:argv_parsing.obj
 0001:0004bf80       ??$set_program_name@PA_W@?$__crt_char_traits@_W@@SAX$$QAPA_W@Z 1004cf80 f i libucrtd:argv_parsing.obj
 0001:0004bfe0       ??0?$__crt_unique_heap_ptr@EU__crt_internal_free_policy@@@@QAE@QAE@Z 1004cfe0 f i libucrtd:argv_parsing.obj
 0001:0004c000       ??0?$__crt_unique_heap_ptr@PADU__crt_internal_free_policy@@@@QAE@QAPAD@Z 1004d000 f i libucrtd:argv_parsing.obj
 0001:0004c020       ??0?$__crt_unique_heap_ptr@PA_WU__crt_internal_free_policy@@@@QAE@QAPA_W@Z 1004d020 f i libucrtd:argv_parsing.obj
 0001:0004c040       ??1?$__crt_unique_heap_ptr@EU__crt_internal_free_policy@@@@QAE@XZ 1004d040 f i libucrtd:argv_parsing.obj
 0001:0004c060       ??1?$__crt_unique_heap_ptr@PADU__crt_internal_free_policy@@@@QAE@XZ 1004d060 f i libucrtd:argv_parsing.obj
 0001:0004c080       ??1?$__crt_unique_heap_ptr@PA_WU__crt_internal_free_policy@@@@QAE@XZ 1004d080 f i libucrtd:argv_parsing.obj
 0001:0004c0a0       ??B?$__crt_unique_heap_ptr@EU__crt_internal_free_policy@@@@QBE_NXZ 1004d0a0 f i libucrtd:argv_parsing.obj
 0001:0004c160       ?detach@?$__crt_unique_heap_ptr@EU__crt_internal_free_policy@@@@QAEPAEXZ 1004d160 f i libucrtd:argv_parsing.obj
 0001:0004c190       ?detach@?$__crt_unique_heap_ptr@PADU__crt_internal_free_policy@@@@QAEPAPADXZ 1004d190 f i libucrtd:argv_parsing.obj
 0001:0004c1c0       ?detach@?$__crt_unique_heap_ptr@PA_WU__crt_internal_free_policy@@@@QAEPAPA_WXZ 1004d1c0 f i libucrtd:argv_parsing.obj
 0001:0004c250       ?get@?$__crt_unique_heap_ptr@EU__crt_internal_free_policy@@@@QBEPAEXZ 1004d250 f i libucrtd:argv_parsing.obj
 0001:0004c270       ?get@?$__crt_unique_heap_ptr@PADU__crt_internal_free_policy@@@@QBEPAPADXZ 1004d270 f i libucrtd:argv_parsing.obj
 0001:0004c290       ?get@?$__crt_unique_heap_ptr@PA_WU__crt_internal_free_policy@@@@QBEPAPA_WXZ 1004d290 f i libucrtd:argv_parsing.obj
 0001:0004c2b0       ?get_address_of@?$__crt_unique_heap_ptr@PADU__crt_internal_free_policy@@@@QAEPAPAPADXZ 1004d2b0 f i libucrtd:argv_parsing.obj
 0001:0004c2c0       ?get_address_of@?$__crt_unique_heap_ptr@PA_WU__crt_internal_free_policy@@@@QAEPAPAPA_WXZ 1004d2c0 f i libucrtd:argv_parsing.obj
 0001:0004c310       ?is_valid@?$__crt_unique_heap_ptr@EU__crt_internal_free_policy@@@@QBE_NXZ 1004d310 f i libucrtd:argv_parsing.obj
 0001:0004c340       ?release@?$__crt_unique_heap_ptr@EU__crt_internal_free_policy@@@@QAEXXZ 1004d340 f i libucrtd:argv_parsing.obj
 0001:0004c370       ?release@?$__crt_unique_heap_ptr@PADU__crt_internal_free_policy@@@@QAEXXZ 1004d370 f i libucrtd:argv_parsing.obj
 0001:0004c3a0       ?release@?$__crt_unique_heap_ptr@PA_WU__crt_internal_free_policy@@@@QAEXXZ 1004d3a0 f i libucrtd:argv_parsing.obj
 0001:0004c410       ___acrt_allocate_buffer_for_argv 1004d410 f   libucrtd:argv_parsing.obj
 0001:0004c4d0       __configure_narrow_argv    1004d4d0 f   libucrtd:argv_parsing.obj
 0001:0004c4f0       __configure_wide_argv      1004d4f0 f   libucrtd:argv_parsing.obj
 0001:0004c510       __set_pgmptr               1004d510 f i libucrtd:argv_parsing.obj
 0001:0004c520       __set_wpgmptr              1004d520 f i libucrtd:argv_parsing.obj
 0001:0004c52f       ??$?R_W@__crt_internal_free_policy@@QBEXQB_W@Z 1004d52f f i libucrtd:environment_initialization.obj
 0001:0004c998       ??$get_environment_from_os@$$V@?$__crt_char_traits@D@@SAPADXZ 1004d998 f i libucrtd:environment_initialization.obj
 0001:0004c99d       ??$get_environment_from_os@$$V@?$__crt_char_traits@_W@@SAPA_WXZ 1004d99d f i libucrtd:environment_initialization.obj
 0001:0004cac6       ??$set_variable_in_environment_nolock@PADH@?$__crt_char_traits@D@@SAH$$QAPAD$$QAH@Z 1004dac6 f i libucrtd:environment_initialization.obj
 0001:0004cade       ??$set_variable_in_environment_nolock@PA_WH@?$__crt_char_traits@_W@@SAH$$QAPA_W$$QAH@Z 1004dade f i libucrtd:environment_initialization.obj
 0001:0004caf6       ??$tcscpy_s@PADABIAAPAD@?$__crt_char_traits@D@@SAH$$QAPADABIAAPAD@Z 1004daf6 f i libucrtd:environment_initialization.obj
 0001:0004cb14       ??$tcscpy_s@PA_WABIAAPA_W@?$__crt_char_traits@_W@@SAH$$QAPA_WABIAAPA_W@Z 1004db14 f i libucrtd:environment_initialization.obj
 0001:0004cb32       ??$tcslen@AAPAD@?$__crt_char_traits@D@@SAIAAPAD@Z 1004db32 f i libucrtd:environment_initialization.obj
 0001:0004cb4a       ??$tcslen@AAPA_W@?$__crt_char_traits@_W@@SAIAAPA_W@Z 1004db4a f i libucrtd:environment_initialization.obj
 0001:0004cb68       ??$uninitialize@A6AXAAPAPAD@Z@?$dual_state_global@PAPAD@__crt_state_management@@QAEXA6AXAAPAPAD@Z@Z 1004db68 f i libucrtd:environment_initialization.obj
 0001:0004cb91       ??$uninitialize@A6AXAAPAPA_W@Z@?$dual_state_global@PAPA_W@__crt_state_management@@QAEXA6AXAAPAPA_W@Z@Z 1004db91 f i libucrtd:environment_initialization.obj
 0001:0004cbf0       ??0?$__crt_unique_heap_ptr@_WU__crt_internal_free_policy@@@@QAE@QA_W@Z 1004dbf0 f i libucrtd:environment_initialization.obj
 0001:0004cc00       ??1?$__crt_unique_heap_ptr@_WU__crt_internal_free_policy@@@@QAE@XZ 1004dc00 f i libucrtd:environment_initialization.obj
 0001:0004cc15       ??B?$__crt_unique_heap_ptr@PADU__crt_internal_free_policy@@@@QBE_NXZ 1004dc15 f i libucrtd:environment_initialization.obj
 0001:0004cc1c       ??B?$__crt_unique_heap_ptr@PA_WU__crt_internal_free_policy@@@@QBE_NXZ 1004dc1c f i libucrtd:environment_initialization.obj
 0001:0004cc23       ??B?$__crt_unique_heap_ptr@_WU__crt_internal_free_policy@@@@QBE_NXZ 1004dc23 f i libucrtd:environment_initialization.obj
 0001:0004cc2a       ?__crt_compute_required_transform_buffer_count@@YAIIQBD@Z 1004dc2a f i libucrtd:environment_initialization.obj
 0001:0004cc46       ?__crt_compute_required_transform_buffer_count@@YAIIQB_W@Z 1004dc46 f i libucrtd:environment_initialization.obj
 0001:0004cc64       ?__crt_transform_string@@YAIIQBDQA_WI@Z 1004dc64 f i libucrtd:environment_initialization.obj
 0001:0004cc83       ?__crt_transform_string@@YAIIQB_WQADI@Z 1004dc83 f i libucrtd:environment_initialization.obj
 0001:0004cca5       ?detach@?$__crt_unique_heap_ptr@DU__crt_internal_free_policy@@@@QAEPADXZ 1004dca5 f i libucrtd:environment_initialization.obj
 0001:0004ccab       ?detach@?$__crt_unique_heap_ptr@_WU__crt_internal_free_policy@@@@QAEPA_WXZ 1004dcab f i libucrtd:environment_initialization.obj
 0001:0004ccb1       ?get@?$__crt_unique_heap_ptr@_WU__crt_internal_free_policy@@@@QBEPA_WXZ 1004dcb1 f i libucrtd:environment_initialization.obj
 0001:0004ccd8       ?initialize@?$dual_state_global@PAPAD@__crt_state_management@@QAEXQAPAD@Z 1004dcd8 f i libucrtd:environment_initialization.obj
 0001:0004ccfe       ?initialize@?$dual_state_global@PAPA_W@__crt_state_management@@QAEXQAPA_W@Z 1004dcfe f i libucrtd:environment_initialization.obj
 0001:0004cd24       ?is_valid@?$__crt_unique_heap_ptr@PADU__crt_internal_free_policy@@@@QBE_NXZ 1004dd24 f i libucrtd:environment_initialization.obj
 0001:0004cd2b       ?is_valid@?$__crt_unique_heap_ptr@PA_WU__crt_internal_free_policy@@@@QBE_NXZ 1004dd2b f i libucrtd:environment_initialization.obj
 0001:0004cd32       ?is_valid@?$__crt_unique_heap_ptr@_WU__crt_internal_free_policy@@@@QBE_NXZ 1004dd32 f i libucrtd:environment_initialization.obj
 0001:0004cd41       ?release@?$__crt_unique_heap_ptr@_WU__crt_internal_free_policy@@@@QAEXXZ 1004dd41 f i libucrtd:environment_initialization.obj
 0001:0004cd56       ?value@?$dual_state_global@PAPAD@__crt_state_management@@QAEAAPAPADXZ 1004dd56 f i libucrtd:environment_initialization.obj
 0001:0004cd59       ?value@?$dual_state_global@PAPA_W@__crt_state_management@@QAEAAPAPA_WXZ 1004dd59 f i libucrtd:environment_initialization.obj
 0001:0004cd5c       ___dcrt_get_or_create_narrow_environment_nolock 1004dd5c f   libucrtd:environment_initialization.obj
 0001:0004cd61       ___dcrt_get_or_create_wide_environment_nolock 1004dd61 f   libucrtd:environment_initialization.obj
 0001:0004cd66       ___dcrt_uninitialize_environments_nolock 1004dd66 f   libucrtd:environment_initialization.obj
 0001:0004cd9d       ___p__environ              1004dd9d f   libucrtd:environment_initialization.obj
 0001:0004cda3       ___p__wenviron             1004dda3 f   libucrtd:environment_initialization.obj
 0001:0004cda9       __get_initial_narrow_environment 1004dda9 f   libucrtd:environment_initialization.obj
 0001:0004cdbd       __get_initial_wide_environment 1004ddbd f   libucrtd:environment_initialization.obj
 0001:0004cdd1       __initialize_narrow_environment 1004ddd1 f   libucrtd:environment_initialization.obj
 0001:0004cdd6       __initialize_wide_environment 1004ddd6 f   libucrtd:environment_initialization.obj
 0001:0004cde0       ??$?B$$A6AXXZ@__crt_fast_encoded_nullptr_t@@QBEP6AXXZXZ 1004dde0 f i libucrtd:onexit.obj
 0001:0004ce00       ??$?BP6AXXZ@__crt_fast_encoded_nullptr_t@@QBEPAP6AXXZXZ 1004de00 f i libucrtd:onexit.obj
 0001:0004ce20       ??$?RP6AXXZ@__crt_internal_free_policy@@QBEXQBQ6AXXZ@Z 1004de20 f i libucrtd:onexit.obj
 0001:0004cfe0       ??$__crt_fast_decode_pointer@P6AXXZ@@YAP6AXXZQ6AXXZ@Z 1004dfe0 f i libucrtd:onexit.obj
 0001:0004d010       ??$__crt_fast_decode_pointer@PAP6AXXZ@@YAPAP6AXXZQAP6AXXZ@Z 1004e010 f i libucrtd:onexit.obj
 0001:0004d040       ??$__crt_fast_encode_pointer@P6AHXZ@@YAP6AHXZQ6AHXZ@Z 1004e040 f i libucrtd:onexit.obj
 0001:0004d070       ??$__crt_fast_encode_pointer@P6AXXZ@@YAP6AXXZQ6AXXZ@Z 1004e070 f i libucrtd:onexit.obj
 0001:0004d0a0       ??$__crt_fast_encode_pointer@PAP6AXXZ@@YAPAP6AXXZQAP6AXXZ@Z 1004e0a0 f i libucrtd:onexit.obj
 0001:0004d1a0       ??0?$__crt_unique_heap_ptr@P6AXXZU__crt_internal_free_policy@@@@QAE@QAP6AXXZ@Z 1004e1a0 f i libucrtd:onexit.obj
 0001:0004d1c0       ??1?$__crt_unique_heap_ptr@P6AXXZU__crt_internal_free_policy@@@@QAE@XZ 1004e1c0 f i libucrtd:onexit.obj
 0001:0004d1e0       ??1scoped_global_state_reset@__crt_state_management@@QAE@XZ 1004e1e0 f i libucrtd:onexit.obj
 0001:0004d650       ?detach@?$__crt_unique_heap_ptr@P6AXXZU__crt_internal_free_policy@@@@QAEPAP6AXXZXZ 1004e650 f i libucrtd:onexit.obj
 0001:0004d680       ?release@?$__crt_unique_heap_ptr@P6AXXZU__crt_internal_free_policy@@@@QAEXXZ 1004e680 f i libucrtd:onexit.obj
 0001:0004d6b0       __crt_at_quick_exit        1004e6b0 f   libucrtd:onexit.obj
 0001:0004d6d0       __crt_atexit               1004e6d0 f   libucrtd:onexit.obj
 0001:0004d6f0       __execute_onexit_table     1004e6f0 f   libucrtd:onexit.obj
 0001:0004d720       __initialize_onexit_table  1004e720 f   libucrtd:onexit.obj
 0001:0004d780       __register_onexit_function 1004e780 f   libucrtd:onexit.obj
 0001:0004d9c0       ??$?BX@__crt_fast_encoded_nullptr_t@@QBEPAXXZ 1004e9c0 f i libucrtd:initialization.obj
 0001:0004d9e0       ??$__crt_fast_encode_pointer@PAX@@YAPAXQAX@Z 1004e9e0 f i libucrtd:initialization.obj
 0001:0004daa0       ?initialize@?$dual_state_global@PAU__crt_locale_data@@@__crt_state_management@@QAEXQAU__crt_locale_data@@@Z 1004eaa0 f i libucrtd:initialization.obj
 0001:0004dae0       ___acrt_initialize         1004eae0 f   libucrtd:initialization.obj
 0001:0004db00       ___acrt_thread_attach      1004eb00 f   libucrtd:initialization.obj
 0001:0004db20       ___acrt_thread_detach      1004eb20 f   libucrtd:initialization.obj
 0001:0004db30       ___acrt_uninitialize       1004eb30 f   libucrtd:initialization.obj
 0001:0004db50       ___acrt_uninitialize_critical 1004eb50 f   libucrtd:initialization.obj
 0001:0004f3c0       __CrtCheckMemory           100503c0 f   libucrtd:debug_heap.obj
 0001:0004f550       __CrtDoForAllClientObjects 10050550 f   libucrtd:debug_heap.obj
 0001:0004f6a0       __CrtDumpMemoryLeaks       100506a0 f   libucrtd:debug_heap.obj
 0001:0004f740       __CrtGetAllocHook          10050740 f   libucrtd:debug_heap.obj
 0001:0004f750       __CrtGetDumpClient         10050750 f   libucrtd:debug_heap.obj
 0001:0004f760       __CrtIsMemoryBlock         10050760 f   libucrtd:debug_heap.obj
 0001:0004f8b0       __CrtIsValidHeapPointer    100508b0 f   libucrtd:debug_heap.obj
 0001:0004f8e0       __CrtIsValidPointer        100508e0 f   libucrtd:debug_heap.obj
 0001:0004f910       __CrtMemCheckpoint         10050910 f   libucrtd:debug_heap.obj
 0001:0004fb40       __CrtMemDifference         10050b40 f   libucrtd:debug_heap.obj
 0001:0004fdb0       __CrtMemDumpAllObjectsSince 10050db0 f   libucrtd:debug_heap.obj
 0001:0004fe50       __CrtMemDumpStatistics     10050e50 f   libucrtd:debug_heap.obj
 0001:0004ff80       __CrtReportBlockType       10050f80 f   libucrtd:debug_heap.obj
 0001:0004ffb0       __CrtSetAllocHook          10050fb0 f   libucrtd:debug_heap.obj
 0001:0004ffd0       __CrtSetBreakAlloc         10050fd0 f   libucrtd:debug_heap.obj
 0001:0004fff0       __CrtSetDbgBlockType       10050ff0 f   libucrtd:debug_heap.obj
 0001:000500d0       __CrtSetDbgFlag            100510d0 f   libucrtd:debug_heap.obj
 0001:00050240       __CrtSetDumpClient         10051240 f   libucrtd:debug_heap.obj
 0001:00050260       ___acrt_get_locale_data_prefix 10051260 f i libucrtd:debug_heap.obj
 0001:00050280       ___p__crtBreakAlloc        10051280 f   libucrtd:debug_heap.obj
 0001:00050290       ___p__crtDbgFlag           10051290 f   libucrtd:debug_heap.obj
 0001:000502a0       __aligned_free_dbg         100512a0 f   libucrtd:debug_heap.obj
 0001:00050350       __aligned_malloc_dbg       10051350 f   libucrtd:debug_heap.obj
 0001:00050380       __aligned_msize_dbg        10051380 f   libucrtd:debug_heap.obj
 0001:000504b0       __aligned_offset_malloc_dbg 100514b0 f   libucrtd:debug_heap.obj
 0001:00050690       __aligned_offset_realloc_dbg 10051690 f   libucrtd:debug_heap.obj
 0001:000509a0       __aligned_offset_recalloc_dbg 100519a0 f   libucrtd:debug_heap.obj
 0001:00050a60       __aligned_realloc_dbg      10051a60 f   libucrtd:debug_heap.obj
 0001:00050a90       __aligned_recalloc_dbg     10051a90 f   libucrtd:debug_heap.obj
 0001:00050ac0       __calloc_dbg               10051ac0 f   libucrtd:debug_heap.obj
 0001:00050b30       __chvalidchk_l             10051b30 f i libucrtd:debug_heap.obj
 0001:00050b50       __expand_dbg               10051b50 f   libucrtd:debug_heap.obj
 0001:00050c80       __free_dbg                 10051c80 f   libucrtd:debug_heap.obj
 0001:00050d30       __ischartype_l             10051d30 f i libucrtd:debug_heap.obj
 0001:00050db0       __malloc_dbg               10051db0 f   libucrtd:debug_heap.obj
 0001:00050dd0       __msize_dbg                10051dd0 f   libucrtd:debug_heap.obj
 0001:00050f60       __realloc_dbg              10051f60 f   libucrtd:debug_heap.obj
 0001:00051000       __recalloc_dbg             10052000 f   libucrtd:debug_heap.obj
 0001:000510b0       __initterm                 100520b0 f   libucrtd:initterm.obj
 0001:00051100       __initterm_e               10052100 f   libucrtd:initterm.obj
 0001:00051190       __get_terminate            10052190 f   libucrtd:terminate.obj
 0001:000511b0       _set_terminate             100521b0 f   libucrtd:terminate.obj
 0001:000511e0       _terminate                 100521e0 f   libucrtd:terminate.obj
 0001:00051580       _strcpy_s                  10052580 f   libucrtd:strcpy_s.obj
 0001:000519b0       _strcat_s                  100529b0 f   libucrtd:strcat_s.obj
 0001:00052310       __makepath                 10053310 f   libucrtd:makepath.obj
 0001:00052340       __makepath_s               10053340 f   libucrtd:makepath.obj
 0001:00052370       __wmakepath                10053370 f   libucrtd:makepath.obj
 0001:000523a0       __wmakepath_s              100533a0 f   libucrtd:makepath.obj
 0001:00053cf0       ??$tcsncpy_s@AAPADIAAPBDABI@?$__crt_char_traits@D@@SAHAAPAD$$QAIAAPBDABI@Z 10054cf0 f i libucrtd:splitpath.obj
 0001:00053d20       ??$tcsncpy_s@AAPADIAAPBDH@?$__crt_char_traits@D@@SAHAAPAD$$QAIAAPBD$$QAH@Z 10054d20 f i libucrtd:splitpath.obj
 0001:00053d50       ??$tcsncpy_s@AAPA_WIAAPB_WABI@?$__crt_char_traits@_W@@SAHAAPA_W$$QAIAAPB_WABI@Z 10054d50 f i libucrtd:splitpath.obj
 0001:00053d80       ??$tcsncpy_s@AAPA_WIAAPB_WH@?$__crt_char_traits@_W@@SAHAAPA_W$$QAIAAPB_W$$QAH@Z 10054d80 f i libucrtd:splitpath.obj
 0001:00053fc0       __splitpath                10054fc0 f   libucrtd:splitpath.obj
 0001:00053ff0       __splitpath_s              10054ff0 f   libucrtd:splitpath.obj
 0001:00054040       __wsplitpath               10055040 f   libucrtd:splitpath.obj
 0001:00054070       __wsplitpath_s             10055070 f   libucrtd:splitpath.obj
 0001:000540c0       ??$?B$$A6AHI@Z@__crt_fast_encoded_nullptr_t@@QBEP6AHI@ZXZ 100550c0 f i libucrtd:new_handler.obj
 0001:000540e0       ??$__crt_fast_decode_pointer@P6AHI@Z@@YAP6AHI@ZQ6AHI@Z@Z 100550e0 f i libucrtd:new_handler.obj
 0001:00054110       ??$__crt_fast_encode_pointer@P6AHI@Z@@YAP6AHI@ZQ6AHI@Z@Z 10055110 f i libucrtd:new_handler.obj
 0001:00054140       ?_set_new_handler@@YAP6AHI@ZH@Z 10055140 f   libucrtd:new_handler.obj
 0001:000541a0       ?initialize@?$dual_state_global@P6AHI@Z@__crt_state_management@@QAEXQ6AHI@Z@Z 100551a0 f i libucrtd:new_handler.obj
 0001:000541e0       ?value@?$dual_state_global@P6AHI@Z@__crt_state_management@@QAEAAP6AHI@ZXZ 100551e0 f i libucrtd:new_handler.obj
 0001:00054200       ___acrt_initialize_new_handler 10055200 f   libucrtd:new_handler.obj
 0001:00054220       __callnewh                 10055220 f   libucrtd:new_handler.obj
 0001:00054260       __query_new_handler        10055260 f   libucrtd:new_handler.obj
 0001:000542f0       __set_new_handler          100552f0 f   libucrtd:new_handler.obj
 0001:000543a0       __set_abort_behavior       100553a0 f   libucrtd:abort.obj
 0001:000543d0       _abort                     100553d0 f   libucrtd:abort.obj
 0001:00054440       _strcmp                    10055440 f   libucrtd:strcmp.obj
 0001:000544d0       _strlen                    100554d0 f   libucrtd:strlen.obj
 0001:00054560       ??$is_overflow_condition@K@__crt_strtox@@YA_NIK@Z 10055560 f i libucrtd:atox.obj
 0001:000545c0       ??$is_overflow_condition@_K@__crt_strtox@@YA_NI_K@Z 100555c0 f i libucrtd:atox.obj
 0001:00054650       ??$make_c_string_character_source@D$$T@__crt_strtox@@YA?AV?$c_string_character_source@D@0@QBD$$T@Z 10055650 f i libucrtd:atox.obj
 0001:00054670       ??$make_c_string_character_source@_W$$T@__crt_strtox@@YA?AV?$c_string_character_source@_W@0@QB_W$$T@Z 10055670 f i libucrtd:atox.obj
 0001:00054690       ??$parse_integer@KV?$c_string_character_source@D@__crt_strtox@@@__crt_strtox@@YAKQAU__crt_locale_pointers@@V?$c_string_character_source@D@0@H_N@Z 10055690 f i libucrtd:atox.obj
 0001:00054a00       ??$parse_integer@KV?$c_string_character_source@_W@__crt_strtox@@@__crt_strtox@@YAKQAU__crt_locale_pointers@@V?$c_string_character_source@_W@0@H_N@Z 10055a00 f i libucrtd:atox.obj
 0001:00054d70       ??$parse_integer@_KV?$c_string_character_source@D@__crt_strtox@@@__crt_strtox@@YA_KQAU__crt_locale_pointers@@V?$c_string_character_source@D@0@H_N@Z 10055d70 f i libucrtd:atox.obj
 0001:00055190       ??$parse_integer@_KV?$c_string_character_source@_W@__crt_strtox@@@__crt_strtox@@YA_KQAU__crt_locale_pointers@@V?$c_string_character_source@_W@0@H_N@Z 10056190 f i libucrtd:atox.obj
 0001:000555c0       ??$parse_integer_from_string@JD$$T@__crt_strtox@@YAJQBD$$THQAU__crt_locale_pointers@@@Z 100565c0 f i libucrtd:atox.obj
 0001:00055600       ??$parse_integer_from_string@J_W$$T@__crt_strtox@@YAJQB_W$$THQAU__crt_locale_pointers@@@Z 10056600 f i libucrtd:atox.obj
 0001:00055640       ??$parse_integer_from_string@_JD$$T@__crt_strtox@@YA_JQBD$$THQAU__crt_locale_pointers@@@Z 10056640 f i libucrtd:atox.obj
 0001:00055680       ??$parse_integer_from_string@_J_W$$T@__crt_strtox@@YA_JQB_W$$THQAU__crt_locale_pointers@@@Z 10056680 f i libucrtd:atox.obj
 0001:000556c0       ??0?$c_string_character_source@D@__crt_strtox@@QAE@QBDQAPBD@Z 100566c0 f i libucrtd:atox.obj
 0001:00055700       ??0?$c_string_character_source@_W@__crt_strtox@@QAE@QB_WQAPB_W@Z 10056700 f i libucrtd:atox.obj
 0001:00055740       ??1?$c_string_character_source@D@__crt_strtox@@QAE@XZ 10056740 f i libucrtd:atox.obj
 0001:00055770       ??1?$c_string_character_source@_W@__crt_strtox@@QAE@XZ 10056770 f i libucrtd:atox.obj
 0001:000557a0       ?get@?$c_string_character_source@D@__crt_strtox@@QAEDXZ 100567a0 f i libucrtd:atox.obj
 0001:000557d0       ?get@?$c_string_character_source@_W@__crt_strtox@@QAE_WXZ 100567d0 f i libucrtd:atox.obj
 0001:00055800       ?is_space@__crt_strtox@@YA_NDQAU__crt_locale_pointers@@@Z 10056800 f i libucrtd:atox.obj
 0001:00055840       ?is_space@__crt_strtox@@YA_N_WPAU__crt_locale_pointers@@@Z 10056840 f i libucrtd:atox.obj
 0001:00055870       ?maximum_signed_value@__crt_strtox@@YAJK@Z 10056870 f i libucrtd:atox.obj
 0001:00055880       ?maximum_signed_value@__crt_strtox@@YA_J_K@Z 10056880 f i libucrtd:atox.obj
 0001:00055890       ?minimum_signed_value@__crt_strtox@@YAJK@Z 10056890 f i libucrtd:atox.obj
 0001:000558a0       ?minimum_signed_value@__crt_strtox@@YA_J_K@Z 100568a0 f i libucrtd:atox.obj
 0001:000558b0       ?parse_digit@__crt_strtox@@YAID@Z 100568b0 f i libucrtd:atox.obj
 0001:00055910       ?parse_digit@__crt_strtox@@YAI_W@Z 10056910 f i libucrtd:atox.obj
 0001:00055960       ?restore_state@?$c_string_character_source@D@__crt_strtox@@QAE_NQBD@Z 10056960 f i libucrtd:atox.obj
 0001:00055980       ?restore_state@?$c_string_character_source@_W@__crt_strtox@@QAE_NQB_W@Z 10056980 f i libucrtd:atox.obj
 0001:000559a0       ?save_state@?$c_string_character_source@D@__crt_strtox@@QBEPBDXZ 100569a0 f i libucrtd:atox.obj
 0001:000559c0       ?save_state@?$c_string_character_source@_W@__crt_strtox@@QBEPB_WXZ 100569c0 f i libucrtd:atox.obj
 0001:000559e0       ?unget@?$c_string_character_source@D@__crt_strtox@@QAEXD@Z 100569e0 f i libucrtd:atox.obj
 0001:00055a90       ?unget@?$c_string_character_source@_W@__crt_strtox@@QAEX_W@Z 10056a90 f i libucrtd:atox.obj
 0001:00055b40       ?validate@?$c_string_character_source@D@__crt_strtox@@QBE_NXZ 10056b40 f i libucrtd:atox.obj
 0001:00055bd0       ?validate@?$c_string_character_source@_W@__crt_strtox@@QBE_NXZ 10056bd0 f i libucrtd:atox.obj
 0001:00055c60       ?wide_character_to_digit@__crt_strtox@@YAH_W@Z 10056c60 f i libucrtd:atox.obj
 0001:00055f90       ___ascii_iswalpha          10056f90 f i libucrtd:atox.obj
 0001:00055fd0       ___ascii_toupper           10056fd0 f i libucrtd:atox.obj
 0001:00055ff0       ___ascii_towupper          10056ff0 f i libucrtd:atox.obj
 0001:00056010       __atoi64                   10057010 f   libucrtd:atox.obj
 0001:00056030       __atoi64_l                 10057030 f   libucrtd:atox.obj
 0001:00056050       __atoi_l                   10057050 f   libucrtd:atox.obj
 0001:00056070       __atol_l                   10057070 f   libucrtd:atox.obj
 0001:00056090       __atoll_l                  10057090 f   libucrtd:atox.obj
 0001:000560b0       __wtoi                     100570b0 f   libucrtd:atox.obj
 0001:000560d0       __wtoi64                   100570d0 f   libucrtd:atox.obj
 0001:000560f0       __wtoi64_l                 100570f0 f   libucrtd:atox.obj
 0001:00056110       __wtoi_l                   10057110 f   libucrtd:atox.obj
 0001:00056130       __wtol                     10057130 f   libucrtd:atox.obj
 0001:00056150       __wtol_l                   10057150 f   libucrtd:atox.obj
 0001:00056170       __wtoll                    10057170 f   libucrtd:atox.obj
 0001:00056190       __wtoll_l                  10057190 f   libucrtd:atox.obj
 0001:000561b0       _atoi                      100571b0 f   libucrtd:atox.obj
 0001:000561d0       _atol                      100571d0 f   libucrtd:atox.obj
 0001:000561f0       _atoll                     100571f0 f   libucrtd:atox.obj
 0001:00056210       _strncmp                   10057210 f   libucrtd:strncmp.obj
 0001:00056290       _wcsncmp                   10057290 f   libucrtd:wcsncmp.obj
 0001:000562f0       __CrtGetReportHook         100572f0 f   libucrtd:dbgrptt.obj
 0001:00056300       __CrtSetReportFile         10057300 f   libucrtd:dbgrptt.obj
 0001:00056400       __CrtSetReportHook         10057400 f   libucrtd:dbgrptt.obj
 0001:00056420       __CrtSetReportMode         10057420 f   libucrtd:dbgrptt.obj
 0001:00056560       __VCrtDbgReportA           10057560 f   libucrtd:dbgrptt.obj
 0001:00056de0       __VCrtDbgReportW           10057de0 f   libucrtd:dbgrptt.obj
 0001:00057790       __snprintf_s               10058790 f i libucrtd:dbgrptt.obj
 0001:000577d0       __vsnprintf_s              100587d0 f i libucrtd:dbgrptt.obj
 0001:00057800       __vsnprintf_s_l            10058800 f i libucrtd:dbgrptt.obj
 0001:00057990       ??$__acrt_wcs_to_mbs_cp@U__crt_win32_buffer_no_resizing@@@@YAHQB_WAAV?$__crt_win32_buffer@DU__crt_win32_buffer_no_resizing@@@@I@Z 10058990 f i libucrtd:getmodulefilenamea.obj
 0001:000579c0       ??0?$__crt_win32_buffer@DU__crt_win32_buffer_no_resizing@@@@QAE@QADI@Z 100589c0 f i libucrtd:getmodulefilenamea.obj
 0001:00057a10       ??1?$__crt_win32_buffer@DU__crt_win32_buffer_no_resizing@@@@QAE@XZ 10058a10 f i libucrtd:getmodulefilenamea.obj
 0001:00057a80       ?__acrt_get_utf8_acp_compatibility_codepage@@YAIXZ 10058a80 f i libucrtd:getmodulefilenamea.obj
 0001:00057b10       ?_deallocate@?$__crt_win32_buffer@DU__crt_win32_buffer_no_resizing@@@@AAEXXZ 10058b10 f i libucrtd:getmodulefilenamea.obj
 0001:00057b50       ?allocate@?$__crt_win32_buffer@DU__crt_win32_buffer_no_resizing@@@@QAEHI@Z 10058b50 f i libucrtd:getmodulefilenamea.obj
 0001:00057bc0       ?allocate@__crt_win32_buffer_no_resizing@@SAHQAPAXIABV__crt_win32_buffer_empty_debug_info@@@Z 10058bc0 f i libucrtd:getmodulefilenamea.obj
 0001:00057be0       ?capacity@?$__crt_win32_buffer@DU__crt_win32_buffer_no_resizing@@@@QBEIXZ 10058be0 f i libucrtd:getmodulefilenamea.obj
 0001:00057c00       ?data@?$__crt_win32_buffer@DU__crt_win32_buffer_no_resizing@@@@QAEPADXZ 10058c00 f i libucrtd:getmodulefilenamea.obj
 0001:00057c20       ?deallocate@__crt_win32_buffer_no_resizing@@SAXQAXABV__crt_win32_buffer_empty_debug_info@@@Z 10058c20 f i libucrtd:getmodulefilenamea.obj
 0001:00057c30       ?debug_info@?$__crt_win32_buffer@DU__crt_win32_buffer_no_resizing@@@@QBEABV__crt_win32_buffer_empty_debug_info@@XZ 10058c30 f i libucrtd:getmodulefilenamea.obj
 0001:00057c40       ?set_to_nullptr@?$__crt_win32_buffer@DU__crt_win32_buffer_no_resizing@@@@QAEXXZ 10058c40 f i libucrtd:getmodulefilenamea.obj
 0001:00057c80       ?size@?$__crt_win32_buffer@DU__crt_win32_buffer_no_resizing@@@@QAEXI@Z 10058c80 f i libucrtd:getmodulefilenamea.obj
 0001:00057ca0       ?size@?$__crt_win32_buffer@DU__crt_win32_buffer_no_resizing@@@@QBEIXZ 10058ca0 f i libucrtd:getmodulefilenamea.obj
 0001:00057cc0       ___acrt_GetModuleFileNameA 10058cc0 f   libucrtd:getmodulefilenamea.obj
 0001:00057fa0       ??$message_box@$$TABQBDABQBDK@?$__crt_char_traits@D@@SAH$$QA$$TABQBD1$$QAK@Z 10058fa0 f i libucrtd:crtmbox.obj
 0001:00057fd0       ??$message_box@$$TABQB_WABQB_WK@?$__crt_char_traits@_W@@SAH$$QA$$TABQB_W1$$QAK@Z 10058fd0 f i libucrtd:crtmbox.obj
 0001:00058000       ??$message_box@PAUHWND__@@ABQBDABQBDABI@?$__crt_char_traits@D@@SAH$$QAPAUHWND__@@ABQBD1ABI@Z 10059000 f i libucrtd:crtmbox.obj
 0001:00058030       ??$message_box@PAUHWND__@@ABQB_WABQB_WABI@?$__crt_char_traits@_W@@SAH$$QAPAUHWND__@@ABQB_W1ABI@Z 10059030 f i libucrtd:crtmbox.obj
 0001:00058060       ??$output_debug_string@ABQBD@?$__crt_char_traits@D@@SAXABQBD@Z 10059060 f i libucrtd:crtmbox.obj
 0001:00058080       ??$output_debug_string@ABQB_W@?$__crt_char_traits@_W@@SAXABQB_W@Z 10059080 f i libucrtd:crtmbox.obj
 0001:000580a0       ___acrt_show_narrow_message_box 100590a0 f   libucrtd:crtmbox.obj
 0001:000580c0       ___acrt_show_wide_message_box 100590c0 f   libucrtd:crtmbox.obj
 0001:000580e0       ___acrt_initialize_locks   100590e0 f   libucrtd:locks.obj
 0001:00058140       ___acrt_lock               10059140 f   libucrtd:locks.obj
 0001:00058160       ___acrt_uninitialize_locks 10059160 f   libucrtd:locks.obj
 0001:000581b0       ___acrt_unlock             100591b0 f   libucrtd:locks.obj
 0001:000581d0       __lock_locales             100591d0 f   libucrtd:locks.obj
 0001:000581f0       __unlock_locales           100591f0 f   libucrtd:locks.obj
 0001:00058210       ??$?B$$A6AXH@Z@__crt_fast_encoded_nullptr_t@@QBEP6AXH@ZXZ 10059210 f i libucrtd:signal.obj
 0001:00058300       ??$__crt_fast_decode_pointer@P6AXH@Z@@YAP6AXH@ZQ6AXH@Z@Z 10059300 f i libucrtd:signal.obj
 0001:00058330       ??$__crt_fast_encode_pointer@P6AXH@Z@@YAP6AXH@ZQ6AXH@Z@Z 10059330 f i libucrtd:signal.obj
 0001:000585e0       ?initialize@?$dual_state_global@P6AXH@Z@__crt_state_management@@QAEXQ6AXH@Z@Z 100595e0 f i libucrtd:signal.obj
 0001:00058720       ?value@?$dual_state_global@P6AXH@Z@__crt_state_management@@QAEAAP6AXH@ZXZ 10059720 f i libucrtd:signal.obj
 0001:00058740       ___acrt_get_sigabrt_handler 10059740 f   libucrtd:signal.obj
 0001:00058760       ___acrt_initialize_signal_handlers 10059760 f   libucrtd:signal.obj
 0001:000587a0       ___fpecode                 100597a0 f   libucrtd:signal.obj
 0001:000587b0       ___pxcptinfoptrs           100597b0 f   libucrtd:signal.obj
 0001:000587c0       _raise                     100597c0 f   libucrtd:signal.obj
 0001:00058b90       _signal                    10059b90 f   libucrtd:signal.obj
 0001:00058e10       __CrtGetDebugFillThreshold 10059e10 f   libucrtd:debug_fill_threshold.obj
 0001:00058e20       __CrtSetDebugFillThreshold 10059e20 f   libucrtd:debug_fill_threshold.obj
 0001:00058e40       ??$make_c_string_character_source@DPAPAD@__crt_strtox@@YA?AV?$c_string_character_source@D@0@QBDQAPAD@Z 10059e40 f i libucrtd:strtox.obj
 0001:00058e60       ??$make_c_string_character_source@_WPAPA_W@__crt_strtox@@YA?AV?$c_string_character_source@_W@0@QB_WQAPA_W@Z 10059e60 f i libucrtd:strtox.obj
 0001:00058e80       ??$parse_integer_from_string@JDPAPAD@__crt_strtox@@YAJQBDQAPADHQAU__crt_locale_pointers@@@Z 10059e80 f i libucrtd:strtox.obj
 0001:00058ec0       ??$parse_integer_from_string@J_WPAPA_W@__crt_strtox@@YAJQB_WQAPA_WHQAU__crt_locale_pointers@@@Z 10059ec0 f i libucrtd:strtox.obj
 0001:00058f00       ??$parse_integer_from_string@KDPAPAD@__crt_strtox@@YAKQBDQAPADHQAU__crt_locale_pointers@@@Z 10059f00 f i libucrtd:strtox.obj
 0001:00058f40       ??$parse_integer_from_string@K_WPAPA_W@__crt_strtox@@YAKQB_WQAPA_WHQAU__crt_locale_pointers@@@Z 10059f40 f i libucrtd:strtox.obj
 0001:00058f80       ??$parse_integer_from_string@_JDPAPAD@__crt_strtox@@YA_JQBDQAPADHQAU__crt_locale_pointers@@@Z 10059f80 f i libucrtd:strtox.obj
 0001:00058fc0       ??$parse_integer_from_string@_J_WPAPA_W@__crt_strtox@@YA_JQB_WQAPA_WHQAU__crt_locale_pointers@@@Z 10059fc0 f i libucrtd:strtox.obj
 0001:00059000       ??$parse_integer_from_string@_KDPAPAD@__crt_strtox@@YA_KQBDQAPADHQAU__crt_locale_pointers@@@Z 1005a000 f i libucrtd:strtox.obj
 0001:00059040       ??$parse_integer_from_string@_K_WPAPA_W@__crt_strtox@@YA_KQB_WQAPA_WHQAU__crt_locale_pointers@@@Z 1005a040 f i libucrtd:strtox.obj
 0001:00059080       __strtoi64                 1005a080 f   libucrtd:strtox.obj
 0001:000590a0       __strtoi64_l               1005a0a0 f   libucrtd:strtox.obj
 0001:000590c0       __strtoimax_l              1005a0c0 f   libucrtd:strtox.obj
 0001:000590e0       __strtol_l                 1005a0e0 f   libucrtd:strtox.obj
 0001:00059100       __strtoll_l                1005a100 f   libucrtd:strtox.obj
 0001:00059120       __strtoui64                1005a120 f   libucrtd:strtox.obj
 0001:00059140       __strtoui64_l              1005a140 f   libucrtd:strtox.obj
 0001:00059160       __strtoul_l                1005a160 f   libucrtd:strtox.obj
 0001:00059180       __strtoull_l               1005a180 f   libucrtd:strtox.obj
 0001:000591a0       __strtoumax_l              1005a1a0 f   libucrtd:strtox.obj
 0001:000591c0       __wcstoi64                 1005a1c0 f   libucrtd:strtox.obj
 0001:000591e0       __wcstoi64_l               1005a1e0 f   libucrtd:strtox.obj
 0001:00059200       __wcstoimax_l              1005a200 f   libucrtd:strtox.obj
 0001:00059220       __wcstol_l                 1005a220 f   libucrtd:strtox.obj
 0001:00059240       __wcstoll_l                1005a240 f   libucrtd:strtox.obj
 0001:00059260       __wcstoui64                1005a260 f   libucrtd:strtox.obj
 0001:00059280       __wcstoui64_l              1005a280 f   libucrtd:strtox.obj
 0001:000592a0       __wcstoul_l                1005a2a0 f   libucrtd:strtox.obj
 0001:000592c0       __wcstoull_l               1005a2c0 f   libucrtd:strtox.obj
 0001:000592e0       __wcstoumax_l              1005a2e0 f   libucrtd:strtox.obj
 0001:00059300       _strtoimax                 1005a300 f   libucrtd:strtox.obj
 0001:00059320       _strtol                    1005a320 f   libucrtd:strtox.obj
 0001:00059340       _strtoll                   1005a340 f   libucrtd:strtox.obj
 0001:00059360       _strtoul                   1005a360 f   libucrtd:strtox.obj
 0001:00059380       _strtoull                  1005a380 f   libucrtd:strtox.obj
 0001:000593a0       _strtoumax                 1005a3a0 f   libucrtd:strtox.obj
 0001:000593c0       _wcstoimax                 1005a3c0 f   libucrtd:strtox.obj
 0001:000593e0       _wcstol                    1005a3e0 f   libucrtd:strtox.obj
 0001:00059400       _wcstoll                   1005a400 f   libucrtd:strtox.obj
 0001:00059420       _wcstoul                   1005a420 f   libucrtd:strtox.obj
 0001:00059440       _wcstoull                  1005a440 f   libucrtd:strtox.obj
 0001:00059460       _wcstoumax                 1005a460 f   libucrtd:strtox.obj
 0001:00059480       __mbtowc_l                 1005a480 f   libucrtd:mbtowc.obj
 0001:000597a0       _mbtowc                    1005a7a0 f   libucrtd:mbtowc.obj
 0001:000597c0       __wctomb_l                 1005a7c0 f   libucrtd:wctomb.obj
 0001:00059840       __wctomb_s_l               1005a840 f   libucrtd:wctomb.obj
 0001:00059c00       _wctomb                    1005ac00 f   libucrtd:wctomb.obj
 0001:00059c50       _wctomb_s                  1005ac50 f   libucrtd:wctomb.obj
 0001:00059c80       ??$?RU__acrt_ptd@@@__crt_internal_free_policy@@QBEXQBU__acrt_ptd@@@Z 1005ac80 f i libucrtd:per_thread_data.obj
 0001:0005a130       ??0?$__crt_unique_heap_ptr@U__acrt_ptd@@U__crt_internal_free_policy@@@@QAE@QAU__acrt_ptd@@@Z 1005b130 f i libucrtd:per_thread_data.obj
 0001:0005a150       ??0__crt_scoped_get_last_error_reset@@QAE@XZ 1005b150 f i libucrtd:per_thread_data.obj
 0001:0005a170       ??1?$__crt_unique_heap_ptr@U__acrt_ptd@@U__crt_internal_free_policy@@@@QAE@XZ 1005b170 f i libucrtd:per_thread_data.obj
 0001:0005a190       ??1__crt_scoped_get_last_error_reset@@QAE@XZ 1005b190 f i libucrtd:per_thread_data.obj
 0001:0005a1b0       ??B?$__crt_unique_heap_ptr@U__acrt_ptd@@U__crt_internal_free_policy@@@@QBE_NXZ 1005b1b0 f i libucrtd:per_thread_data.obj
 0001:0005a490       ?dangerous_get_state_array@?$dual_state_global@PAU__crt_locale_data@@@__crt_state_management@@QAEPAPAU__crt_locale_data@@XZ 1005b490 f i libucrtd:per_thread_data.obj
 0001:0005a610       ?detach@?$__crt_unique_heap_ptr@U__acrt_ptd@@U__crt_internal_free_policy@@@@QAEPAU__acrt_ptd@@XZ 1005b610 f i libucrtd:per_thread_data.obj
 0001:0005a640       ?get@?$__crt_unique_heap_ptr@U__acrt_ptd@@U__crt_internal_free_policy@@@@QBEPAU__acrt_ptd@@XZ 1005b640 f i libucrtd:per_thread_data.obj
 0001:0005a660       ?get_current_state_index@__crt_state_management@@YAIABV__crt_scoped_get_last_error_reset@@@Z 1005b660 f i libucrtd:per_thread_data.obj
 0001:0005a7d0       ?is_valid@?$__crt_unique_heap_ptr@U__acrt_ptd@@U__crt_internal_free_policy@@@@QBE_NXZ 1005b7d0 f i libucrtd:per_thread_data.obj
 0001:0005a800       ?release@?$__crt_unique_heap_ptr@U__acrt_ptd@@U__crt_internal_free_policy@@@@QAEXXZ 1005b800 f i libucrtd:per_thread_data.obj
 0001:0005a8f0       ?value@?$dual_state_global@PAU__crt_locale_data@@@__crt_state_management@@QAEAAPAU__crt_locale_data@@XZ 1005b8f0 f i libucrtd:per_thread_data.obj
 0001:0005a910       ___acrt_freeptd            1005b910 f   libucrtd:per_thread_data.obj
 0001:0005a940       ___acrt_getptd             1005b940 f   libucrtd:per_thread_data.obj
 0001:0005a960       ___acrt_getptd_head        1005b960 f   libucrtd:per_thread_data.obj
 0001:0005a980       ___acrt_getptd_noexit      1005b980 f   libucrtd:per_thread_data.obj
 0001:0005a990       ___acrt_initialize_ptd     1005b990 f   libucrtd:per_thread_data.obj
 0001:0005a9d0       ___acrt_uninitialize_ptd   1005b9d0 f   libucrtd:per_thread_data.obj
 0001:0005aa00       ___threadhandle            1005ba00 f   libucrtd:per_thread_data.obj
 0001:0005aa10       ___threadid                1005ba10 f   libucrtd:per_thread_data.obj
 0001:0005aa20       ?value@?$dual_state_global@PAU__crt_multibyte_data@@@__crt_state_management@@QAEAAPAU__crt_multibyte_data@@XZ 1005ba20 f i libucrtd:locale_update.obj
 0001:0005aa40       ___acrt_should_sync_with_global_locale 1005ba40 f i libucrtd:locale_update.obj
 0001:0005aa70       ___acrt_update_locale_info 1005ba70 f   libucrtd:locale_update.obj
 0001:0005aab0       ___acrt_update_multibyte_info 1005bab0 f   libucrtd:locale_update.obj
 0001:0005aaf0       ?__acrt_fp_classify@@YA?AW4__acrt_fp_class@@ABN@Z 1005baf0 f i libucrtd:cvt.obj
 0001:0005ac10       ?__acrt_fp_is_negative@@YA_NABN@Z 1005bc10 f i libucrtd:cvt.obj
 0001:0005bf00       ?strrchr@@YAPADQADH@Z      1005cf00 f i libucrtd:cvt.obj
 0001:0005bf20       ___acrt_fp_format          1005cf20 f   libucrtd:cvt.obj
 0001:0005c3e0       __fputwc_nolock            1005d3e0 f   libucrtd:fputwc.obj
 0001:0005c5d0       __fputwchar                1005d5d0 f   libucrtd:fputwc.obj
 0001:0005c5f0       __putwc_nolock             1005d5f0 f   libucrtd:fputwc.obj
 0001:0005c610       _fputwc                    1005d610 f   libucrtd:fputwc.obj
 0001:0005c720       _putwc                     1005d720 f   libucrtd:fputwc.obj
 0001:0005c740       _putwchar                  1005d740 f   libucrtd:fputwc.obj
 0001:0005c760       ?lowio_handle@__crt_stdio_stream@@QBEHXZ 1005d760 f i libucrtd:fileno.obj
 0001:0005c780       __fileno                   1005d780 f   libucrtd:fileno.obj
 0001:0005c820       ??$?RPAU__crt_stdio_stream_data@@@__crt_internal_free_policy@@QBEXQBQAU__crt_stdio_stream_data@@@Z 1005d820 f i libucrtd:_file.obj
 0001:0005c840       ??0?$__crt_unique_heap_ptr@PAU__crt_stdio_stream_data@@U__crt_internal_free_policy@@@@QAE@QAPAU__crt_stdio_stream_data@@@Z 1005d840 f i libucrtd:_file.obj
 0001:0005c860       ??1?$__crt_unique_heap_ptr@PAU__crt_stdio_stream_data@@U__crt_internal_free_policy@@@@QAE@XZ 1005d860 f i libucrtd:_file.obj
 0001:0005c880       ?detach@?$__crt_unique_heap_ptr@PAU__crt_stdio_stream_data@@U__crt_internal_free_policy@@@@QAEPAPAU__crt_stdio_stream_data@@XZ 1005d880 f i libucrtd:_file.obj
 0001:0005c8b0       ?release@?$__crt_unique_heap_ptr@PAU__crt_stdio_stream_data@@U__crt_internal_free_policy@@@@QAEXXZ 1005d8b0 f i libucrtd:_file.obj
 0001:0005c8e0       ___acrt_initialize_stdio   1005d8e0 f   libucrtd:_file.obj
 0001:0005ca50       ___acrt_iob_func           1005da50 f   libucrtd:_file.obj
 0001:0005ca60       ___acrt_uninitialize_stdio 1005da60 f   libucrtd:_file.obj
 0001:0005cae0       __get_stream_buffer_pointers 1005dae0 f   libucrtd:_file.obj
 0001:0005cbc0       __lock_file                1005dbc0 f   libucrtd:_file.obj
 0001:0005cbf0       __unlock_file              1005dbf0 f   libucrtd:_file.obj
 0001:0005cc20       __fputc_nolock             1005dc20 f   libucrtd:fputc.obj
 0001:0005ccb0       __fputchar                 1005dcb0 f   libucrtd:fputc.obj
 0001:0005ccd0       __putc_nolock              1005dcd0 f   libucrtd:fputc.obj
 0001:0005ccf0       _fputc                     1005dcf0 f   libucrtd:fputc.obj
 0001:0005cf30       _putc                      1005df30 f   libucrtd:fputc.obj
 0001:0005cf50       _putchar                   1005df50 f   libucrtd:fputc.obj
 0001:0005cf70       __get_printf_count_output  1005df70 f   libucrtd:printf_count_output.obj
 0001:0005cfa0       __set_printf_count_output  1005dfa0 f   libucrtd:printf_count_output.obj
 0001:0005d000       ?has_any_buffer@__crt_stdio_stream@@QBE_NXZ 1005e000 f i libucrtd:_sftbuf.obj
 0001:0005d020       ?has_any_of@__crt_stdio_stream@@QBE_NJ@Z 1005e020 f i libucrtd:_sftbuf.obj
 0001:0005d060       ?has_temporary_buffer@__crt_stdio_stream@@QBE_NXZ 1005e060 f i libucrtd:_sftbuf.obj
 0001:0005d080       ?set_flags@__crt_stdio_stream@@QBE_NJ@Z 1005e080 f i libucrtd:_sftbuf.obj
 0001:0005d0d0       ?unset_flags@__crt_stdio_stream@@QBE_NJ@Z 1005e0d0 f i libucrtd:_sftbuf.obj
 0001:0005d120       ___acrt_should_use_temporary_buffer 1005e120 f   libucrtd:_sftbuf.obj
 0001:0005d170       ___acrt_stdio_begin_temporary_buffering_nolock 1005e170 f   libucrtd:_sftbuf.obj
 0001:0005d320       ___acrt_stdio_end_temporary_buffering_nolock 1005e320 f   libucrtd:_sftbuf.obj
 0001:0005d3b0       ??$?RU__crt_locale_data@@@__crt_internal_free_policy@@QBEXQBU__crt_locale_data@@@Z 1005e3b0 f i libucrtd:wsetlocale.obj
 0001:0005d3d0       ??$?RU__crt_locale_pointers@@@__crt_internal_free_policy@@QBEXQBU__crt_locale_pointers@@@Z 1005e3d0 f i libucrtd:wsetlocale.obj
 0001:0005d3f0       ??$?RU__crt_multibyte_data@@@__crt_internal_free_policy@@QBEXQBU__crt_multibyte_data@@@Z 1005e3f0 f i libucrtd:wsetlocale.obj
 0001:0005d9e0       ??0?$__crt_unique_heap_ptr@U__crt_locale_data@@U__crt_internal_free_policy@@@@QAE@QAU__crt_locale_data@@@Z 1005e9e0 f i libucrtd:wsetlocale.obj
 0001:0005da00       ??0?$__crt_unique_heap_ptr@U__crt_locale_pointers@@U__crt_internal_free_policy@@@@QAE@QAU__crt_locale_pointers@@@Z 1005ea00 f i libucrtd:wsetlocale.obj
 0001:0005da20       ??0?$__crt_unique_heap_ptr@U__crt_multibyte_data@@U__crt_internal_free_policy@@@@QAE@QAU__crt_multibyte_data@@@Z 1005ea20 f i libucrtd:wsetlocale.obj
 0001:0005da40       ??0_expandlocale_locale_name_cache@@QAE@QA_WIQAU__crt_qualified_locale_data@@@Z 1005ea40 f i libucrtd:wsetlocale.obj
 0001:0005dab0       ??1?$__crt_unique_heap_ptr@U__crt_locale_data@@U__crt_internal_free_policy@@@@QAE@XZ 1005eab0 f i libucrtd:wsetlocale.obj
 0001:0005dad0       ??1?$__crt_unique_heap_ptr@U__crt_locale_pointers@@U__crt_internal_free_policy@@@@QAE@XZ 1005ead0 f i libucrtd:wsetlocale.obj
 0001:0005daf0       ??1?$__crt_unique_heap_ptr@U__crt_multibyte_data@@U__crt_internal_free_policy@@@@QAE@XZ 1005eaf0 f i libucrtd:wsetlocale.obj
 0001:0005db10       ??1_expandlocale_locale_name_cache@@QAE@XZ 1005eb10 f i libucrtd:wsetlocale.obj
 0001:0005db70       ??B?$__crt_unique_heap_ptr@U__crt_locale_data@@U__crt_internal_free_policy@@@@QBE_NXZ 1005eb70 f i libucrtd:wsetlocale.obj
 0001:0005db90       ??B?$__crt_unique_heap_ptr@U__crt_locale_pointers@@U__crt_internal_free_policy@@@@QBE_NXZ 1005eb90 f i libucrtd:wsetlocale.obj
 0001:0005dbb0       ??B?$__crt_unique_heap_ptr@U__crt_multibyte_data@@U__crt_internal_free_policy@@@@QBE_NXZ 1005ebb0 f i libucrtd:wsetlocale.obj
 0001:0005df90       ?commit_locale_name@_expandlocale_locale_name_cache@@QAEXQB_WI@Z 1005ef90 f i libucrtd:wsetlocale.obj
 0001:0005dff0       ?commit_locale_name_cache_already_updated@_expandlocale_locale_name_cache@@QAEXQB_WI@Z 1005eff0 f i libucrtd:wsetlocale.obj
 0001:0005e050       ?detach@?$__crt_unique_heap_ptr@U__crt_locale_data@@U__crt_internal_free_policy@@@@QAEPAU__crt_locale_data@@XZ 1005f050 f i libucrtd:wsetlocale.obj
 0001:0005e080       ?detach@?$__crt_unique_heap_ptr@U__crt_locale_pointers@@U__crt_internal_free_policy@@@@QAEPAU__crt_locale_pointers@@XZ 1005f080 f i libucrtd:wsetlocale.obj
 0001:0005e0b0       ?detach@?$__crt_unique_heap_ptr@U__crt_multibyte_data@@U__crt_internal_free_policy@@@@QAEPAU__crt_multibyte_data@@XZ 1005f0b0 f i libucrtd:wsetlocale.obj
 0001:0005e0e0       ?get@?$__crt_unique_heap_ptr@U__crt_locale_data@@U__crt_internal_free_policy@@@@QBEPAU__crt_locale_data@@XZ 1005f0e0 f i libucrtd:wsetlocale.obj
 0001:0005e100       ?get@?$__crt_unique_heap_ptr@U__crt_locale_pointers@@U__crt_internal_free_policy@@@@QBEPAU__crt_locale_pointers@@XZ 1005f100 f i libucrtd:wsetlocale.obj
 0001:0005e120       ?get@?$__crt_unique_heap_ptr@U__crt_multibyte_data@@U__crt_internal_free_policy@@@@QBEPAU__crt_multibyte_data@@XZ 1005f120 f i libucrtd:wsetlocale.obj
 0001:0005e140       ?is_valid@?$__crt_unique_heap_ptr@U__crt_locale_data@@U__crt_internal_free_policy@@@@QBE_NXZ 1005f140 f i libucrtd:wsetlocale.obj
 0001:0005e170       ?is_valid@?$__crt_unique_heap_ptr@U__crt_locale_pointers@@U__crt_internal_free_policy@@@@QBE_NXZ 1005f170 f i libucrtd:wsetlocale.obj
 0001:0005e1a0       ?is_valid@?$__crt_unique_heap_ptr@U__crt_multibyte_data@@U__crt_internal_free_policy@@@@QBE_NXZ 1005f1a0 f i libucrtd:wsetlocale.obj
 0001:0005e1d0       ?release@?$__crt_unique_heap_ptr@U__crt_locale_data@@U__crt_internal_free_policy@@@@QAEXXZ 1005f1d0 f i libucrtd:wsetlocale.obj
 0001:0005e200       ?release@?$__crt_unique_heap_ptr@U__crt_locale_pointers@@U__crt_internal_free_policy@@@@QAEXXZ 1005f200 f i libucrtd:wsetlocale.obj
 0001:0005e230       ?release@?$__crt_unique_heap_ptr@U__crt_multibyte_data@@U__crt_internal_free_policy@@@@QAEXXZ 1005f230 f i libucrtd:wsetlocale.obj
 0001:0005e260       ___acrt_copy_locale_name   1005f260 f   libucrtd:wsetlocale.obj
 0001:0005e300       ___acrt_set_locale_changed 1005f300 f   libucrtd:wsetlocale.obj
 0001:0005e320       ___acrt_uninitialize_locale 1005f320 f   libucrtd:wsetlocale.obj
 0001:0005e340       ___ascii_tolower           1005f340 f i libucrtd:wsetlocale.obj
 0001:0005e360       ___ascii_towlower          1005f360 f i libucrtd:wsetlocale.obj
 0001:0005e380       ___lc_lctowcs              1005f380 f   libucrtd:wsetlocale.obj
 0001:0005e430       ___lc_wcstolc              1005f430 f   libucrtd:wsetlocale.obj
 0001:0005e660       __configthreadlocale       1005f660 f   libucrtd:wsetlocale.obj
 0001:0005e7e0       __create_locale            1005f7e0 f   libucrtd:wsetlocale.obj
 0001:0005ee20       __free_locale              1005fe20 f   libucrtd:wsetlocale.obj
 0001:0005ef50       __get_current_locale       1005ff50 f   libucrtd:wsetlocale.obj
 0001:0005f020       __wcreate_locale           10060020 f   libucrtd:wsetlocale.obj
 0001:0005f260       __wcscats                  10060260 f   libucrtd:wsetlocale.obj
 0001:0005f2e0       __wsetlocale               100602e0 f   libucrtd:wsetlocale.obj
 0001:000609d0       ___p___mb_cur_max          100619d0 f   libucrtd:nlsdata.obj
 0001:00060cd0       ___acrt_initialize_lowio   10061cd0 f   libucrtd:ioinit.obj
 0001:00060d70       ___acrt_uninitialize_lowio 10061d70 f   libucrtd:ioinit.obj
 0001:00060dd0       __msize                    10061dd0 f   libucrtd:msize.obj
 0001:00060df0       __msize_base               10061df0 f   libucrtd:msize.obj
 0001:00060e90       __realloc_base             10061e90 f   libucrtd:realloc_base.obj
 0001:00061230       ___acrt_get_begin_thread_init_policy 10062230 f   libucrtd:win_policies.obj
 0001:00061250       ___acrt_get_developer_information_policy 10062250 f   libucrtd:win_policies.obj
 0001:00061270       ___acrt_get_process_end_policy 10062270 f   libucrtd:win_policies.obj
 0001:00061290       ___acrt_get_windowing_model_policy 10062290 f   libucrtd:win_policies.obj
 0001:00061560       ??$__acrt_mbs_to_wcs_cp@U__crt_win32_buffer_internal_dynamic_resizing@@@@YAHQBDAAV?$__crt_win32_buffer@_WU__crt_win32_buffer_internal_dynamic_resizing@@@@I@Z 10062560 f i libucrtd:argv_wildcards.obj
 0001:00061590       ??$__acrt_wcs_to_mbs_cp@U__crt_win32_buffer_internal_dynamic_resizing@@@@YAHQB_WAAV?$__crt_win32_buffer@DU__crt_win32_buffer_internal_dynamic_resizing@@@@I@Z 10062590 f i libucrtd:argv_wildcards.obj
 0001:000624e0       ??$tcsncpy_s@AAPADIAAPADABI@?$__crt_char_traits@D@@SAHAAPAD$$QAI0ABI@Z 100634e0 f i libucrtd:argv_wildcards.obj
 0001:00062510       ??$tcsncpy_s@AAPA_WIAAPA_WABI@?$__crt_char_traits@_W@@SAHAAPA_W$$QAI0ABI@Z 10063510 f i libucrtd:argv_wildcards.obj
 0001:00062540       ??$tcsncpy_s@PADABIABQBDABI@?$__crt_char_traits@D@@SAH$$QAPADABIABQBD1@Z 10063540 f i libucrtd:argv_wildcards.obj
 0001:00062570       ??$tcsncpy_s@PADIABQBDABI@?$__crt_char_traits@D@@SAH$$QAPAD$$QAIABQBDABI@Z 10063570 f i libucrtd:argv_wildcards.obj
 0001:000625a0       ??$tcsncpy_s@PA_WABIABQB_WABI@?$__crt_char_traits@_W@@SAH$$QAPA_WABIABQB_W1@Z 100635a0 f i libucrtd:argv_wildcards.obj
 0001:000625d0       ??$tcsncpy_s@PA_WIABQB_WABI@?$__crt_char_traits@_W@@SAH$$QAPA_W$$QAIABQB_WABI@Z 100635d0 f i libucrtd:argv_wildcards.obj
 0001:00062600       ??$tcspbrk@AAPADAAY02$$CBD@?$__crt_char_traits@D@@SAPADAAPADAAY02$$CBD@Z 10063600 f i libucrtd:argv_wildcards.obj
 0001:00062620       ??$tcspbrk@AAPA_WAAY02$$CB_W@?$__crt_char_traits@_W@@SAPA_WAAPA_WAAY02$$CB_W@Z 10063620 f i libucrtd:argv_wildcards.obj
 0001:00062640       ??0?$__crt_unique_handle_t@U__crt_findfile_traits@@@@QAE@QAX@Z 10063640 f i libucrtd:argv_wildcards.obj
 0001:00062660       ??0?$__crt_win32_buffer@DU__crt_win32_buffer_internal_dynamic_resizing@@@@QAE@XZ 10063660 f i libucrtd:argv_wildcards.obj
 0001:000626b0       ??0?$__crt_win32_buffer@_WU__crt_win32_buffer_internal_dynamic_resizing@@@@QAE@XZ 100636b0 f i libucrtd:argv_wildcards.obj
 0001:00062760       ??1?$__crt_unique_handle_t@U__crt_findfile_traits@@@@QAE@XZ 10063760 f i libucrtd:argv_wildcards.obj
 0001:00062780       ??1?$__crt_win32_buffer@DU__crt_win32_buffer_internal_dynamic_resizing@@@@QAE@XZ 10063780 f i libucrtd:argv_wildcards.obj
 0001:000627c0       ??1?$__crt_win32_buffer@_WU__crt_win32_buffer_internal_dynamic_resizing@@@@QAE@XZ 100637c0 f i libucrtd:argv_wildcards.obj
 0001:00062a20       ?_deallocate@?$__crt_win32_buffer@DU__crt_win32_buffer_internal_dynamic_resizing@@@@AAEXXZ 10063a20 f i libucrtd:argv_wildcards.obj
 0001:00062a60       ?_deallocate@?$__crt_win32_buffer@_WU__crt_win32_buffer_internal_dynamic_resizing@@@@AAEXXZ 10063a60 f i libucrtd:argv_wildcards.obj
 0001:00062aa0       ?allocate@?$__crt_win32_buffer@DU__crt_win32_buffer_internal_dynamic_resizing@@@@QAEHI@Z 10063aa0 f i libucrtd:argv_wildcards.obj
 0001:00062b10       ?allocate@?$__crt_win32_buffer@_WU__crt_win32_buffer_internal_dynamic_resizing@@@@QAEHI@Z 10063b10 f i libucrtd:argv_wildcards.obj
 0001:00062b80       ?allocate@__crt_win32_buffer_internal_dynamic_resizing@@SAHQAPAXIABV__crt_win32_buffer_empty_debug_info@@@Z 10063b80 f i libucrtd:argv_wildcards.obj
 0001:00062cc0       ?capacity@?$__crt_win32_buffer@DU__crt_win32_buffer_internal_dynamic_resizing@@@@QBEIXZ 10063cc0 f i libucrtd:argv_wildcards.obj
 0001:00062ce0       ?capacity@?$__crt_win32_buffer@_WU__crt_win32_buffer_internal_dynamic_resizing@@@@QBEIXZ 10063ce0 f i libucrtd:argv_wildcards.obj
 0001:00062d00       ?close@?$__crt_unique_handle_t@U__crt_findfile_traits@@@@QAEXXZ 10063d00 f i libucrtd:argv_wildcards.obj
 0001:00062d40       ?close@__crt_findfile_traits@@SA_NPAX@Z 10063d40 f i libucrtd:argv_wildcards.obj
 0001:00062d70       ?data@?$__crt_win32_buffer@DU__crt_win32_buffer_internal_dynamic_resizing@@@@QAEPADXZ 10063d70 f i libucrtd:argv_wildcards.obj
 0001:00062d90       ?data@?$__crt_win32_buffer@_WU__crt_win32_buffer_internal_dynamic_resizing@@@@QAEPA_WXZ 10063d90 f i libucrtd:argv_wildcards.obj
 0001:00062db0       ?deallocate@__crt_win32_buffer_internal_dynamic_resizing@@SAXQAXABV__crt_win32_buffer_empty_debug_info@@@Z 10063db0 f i libucrtd:argv_wildcards.obj
 0001:00062dd0       ?debug_info@?$__crt_win32_buffer@DU__crt_win32_buffer_internal_dynamic_resizing@@@@QBEABV__crt_win32_buffer_empty_debug_info@@XZ 10063dd0 f i libucrtd:argv_wildcards.obj
 0001:00062de0       ?debug_info@?$__crt_win32_buffer@_WU__crt_win32_buffer_internal_dynamic_resizing@@@@QBEABV__crt_win32_buffer_empty_debug_info@@XZ 10063de0 f i libucrtd:argv_wildcards.obj
 0001:000630f0       ?get@?$__crt_unique_handle_t@U__crt_findfile_traits@@@@QBEPAXXZ 100640f0 f i libucrtd:argv_wildcards.obj
 0001:00063160       ?get_invalid_value@__crt_findfile_traits@@SAPAXXZ 10064160 f i libucrtd:argv_wildcards.obj
 0001:000631f0       ?set_to_nullptr@?$__crt_win32_buffer@DU__crt_win32_buffer_internal_dynamic_resizing@@@@QAEXXZ 100641f0 f i libucrtd:argv_wildcards.obj
 0001:00063230       ?set_to_nullptr@?$__crt_win32_buffer@_WU__crt_win32_buffer_internal_dynamic_resizing@@@@QAEXXZ 10064230 f i libucrtd:argv_wildcards.obj
 0001:00063270       ?size@?$__crt_win32_buffer@DU__crt_win32_buffer_internal_dynamic_resizing@@@@QAEXI@Z 10064270 f i libucrtd:argv_wildcards.obj
 0001:00063290       ?size@?$__crt_win32_buffer@_WU__crt_win32_buffer_internal_dynamic_resizing@@@@QAEXI@Z 10064290 f i libucrtd:argv_wildcards.obj
 0001:000632f0       ?strpbrk@@YAPADQADQBD@Z    100642f0 f i libucrtd:argv_wildcards.obj
 0001:00063310       ?wcspbrk@@YAPA_WPA_WPB_W@Z 10064310 f i libucrtd:argv_wildcards.obj
 0001:00063330       ___acrt_expand_narrow_argv_wildcards 10064330 f   libucrtd:argv_wildcards.obj
 0001:00063350       ___acrt_expand_wide_argv_wildcards 10064350 f   libucrtd:argv_wildcards.obj
 0001:00063430       ??$initialize_from_array@$$BY10BAA@E@?$dual_state_global@PAE@__crt_state_management@@QAAXAAY10BAA@E@Z 10064430 f i libucrtd:mbctype.obj
 0001:00063480       ??$initialize_from_array@$$BY10BAB@E@?$dual_state_global@PAE@__crt_state_management@@QAAXAAY10BAB@E@Z 10064480 f i libucrtd:mbctype.obj
 0001:000636f0       ?dangerous_get_state_array@?$dual_state_global@PAE@__crt_state_management@@QAEPAPAEXZ 100646f0 f i libucrtd:mbctype.obj
 0001:00063700       ?dangerous_get_state_array@?$dual_state_global@PAU__crt_multibyte_data@@@__crt_state_management@@QAEPAPAU__crt_multibyte_data@@XZ 10064700 f i libucrtd:mbctype.obj
 0001:000637d0       ?initialize@?$dual_state_global@PAU__crt_multibyte_data@@@__crt_state_management@@QAEXQAU__crt_multibyte_data@@@Z 100647d0 f i libucrtd:mbctype.obj
 0001:00063f20       ?value@?$dual_state_global@PAE@__crt_state_management@@QAEAAPAEXZ 10064f20 f i libucrtd:mbctype.obj
 0001:00063f40       ___acrt_initialize_multibyte 10064f40 f   libucrtd:mbctype.obj
 0001:00063ff0       ___acrt_update_thread_multibyte_data 10064ff0 f   libucrtd:mbctype.obj
 0001:00064010       ___p__mbcasemap            10065010 f   libucrtd:mbctype.obj
 0001:00064030       ___p__mbctype              10065030 f   libucrtd:mbctype.obj
 0001:00064050       __getmbcp                  10065050 f   libucrtd:mbctype.obj
 0001:000640c0       __setmbcp                  100650c0 f   libucrtd:mbctype.obj
 0001:000640f0       __setmbcp_nolock           100650f0 f   libucrtd:mbctype.obj
 0001:00064661       __ismbbalnum               10065661 f   libucrtd:ismbbyte.obj
 0001:0006467c       __ismbbalnum_l             1006567c f   libucrtd:ismbbyte.obj
 0001:00064698       __ismbbalpha               10065698 f   libucrtd:ismbbyte.obj
 0001:000646b3       __ismbbalpha_l             100656b3 f   libucrtd:ismbbyte.obj
 0001:000646cf       __ismbbblank               100656cf f   libucrtd:ismbbyte.obj
 0001:000646f2       __ismbbblank_l             100656f2 f   libucrtd:ismbbyte.obj
 0001:00064716       __ismbbgraph               10065716 f   libucrtd:ismbbyte.obj
 0001:00064731       __ismbbgraph_l             10065731 f   libucrtd:ismbbyte.obj
 0001:0006474d       __ismbbkalnum              1006574d f   libucrtd:ismbbyte.obj
 0001:00064765       __ismbbkalnum_l            10065765 f   libucrtd:ismbbyte.obj
 0001:0006477e       __ismbbkana                1006577e f   libucrtd:ismbbyte.obj
 0001:00064791       __ismbbkana_l              10065791 f   libucrtd:ismbbyte.obj
 0001:000647e0       __ismbbkprint              100657e0 f   libucrtd:ismbbyte.obj
 0001:000647f8       __ismbbkprint_l            100657f8 f   libucrtd:ismbbyte.obj
 0001:00064811       __ismbbkpunct              10065811 f   libucrtd:ismbbyte.obj
 0001:00064829       __ismbbkpunct_l            10065829 f   libucrtd:ismbbyte.obj
 0001:00064842       __ismbblead                10065842 f   libucrtd:ismbbyte.obj
 0001:0006485a       __ismbblead_l              1006585a f   libucrtd:ismbbyte.obj
 0001:00064873       __ismbbprint               10065873 f   libucrtd:ismbbyte.obj
 0001:0006488e       __ismbbprint_l             1006588e f   libucrtd:ismbbyte.obj
 0001:000648aa       __ismbbpunct               100658aa f   libucrtd:ismbbyte.obj
 0001:000648c2       __ismbbpunct_l             100658c2 f   libucrtd:ismbbyte.obj
 0001:000648db       __ismbbtrail               100658db f   libucrtd:ismbbyte.obj
 0001:000648f3       __ismbbtrail_l             100658f3 f   libucrtd:ismbbyte.obj
 0001:00064910       ___acrt_initialize_command_line 10065910 f   libucrtd:argv_data.obj
 0001:00064930       ___acrt_uninitialize_command_line 10065930 f   libucrtd:argv_data.obj
 0001:00064940       ___p___argc                10065940 f   libucrtd:argv_data.obj
 0001:00064950       ___p___argv                10065950 f   libucrtd:argv_data.obj
 0001:00064960       ___p___wargv               10065960 f   libucrtd:argv_data.obj
 0001:00064970       ___p__acmdln               10065970 f   libucrtd:argv_data.obj
 0001:00064980       ___p__pgmptr               10065980 f   libucrtd:argv_data.obj
 0001:00064990       ___p__wcmdln               10065990 f   libucrtd:argv_data.obj
 0001:000649a0       ___p__wpgmptr              100659a0 f   libucrtd:argv_data.obj
 0001:000649b0       __get_pgmptr               100659b0 f   libucrtd:argv_data.obj
 0001:00064ac0       __get_wpgmptr              10065ac0 f   libucrtd:argv_data.obj
 0001:00064c80       ___acrt_MultiByteToWideChar 10065c80 f   libucrtd:multibytetowidechar.obj
 0001:00064d80       ___acrt_WideCharToMultiByte 10065d80 f   libucrtd:widechartomultibyte.obj
 0001:00064ed9       ___dcrt_get_narrow_environment_from_os 10065ed9 f   libucrtd:get_environment_from_os.obj
 0001:00064f6b       ___dcrt_get_wide_environment_from_os 10065f6b f   libucrtd:get_environment_from_os.obj
 0001:00065900       ??$get_or_create_environment_nolock@$$V@?$__crt_char_traits@D@@SAPAPADXZ 10066900 f i libucrtd:setenv.obj
 0001:00065905       ??$get_or_create_environment_nolock@$$V@?$__crt_char_traits@_W@@SAPAPA_WXZ 10066905 f i libucrtd:setenv.obj
 0001:0006590a       ??$set_environment_variable@ABQADQAD@?$__crt_char_traits@D@@SAHABQAD$$QBQAD@Z 1006690a f i libucrtd:setenv.obj
 0001:00065922       ??$set_environment_variable@ABQA_WQA_W@?$__crt_char_traits@_W@@SAHABQA_W$$QBQA_W@Z 10066922 f i libucrtd:setenv.obj
 0001:00065939       ??$tcschr@ABQADD@?$__crt_char_traits@D@@SAPADABQAD$$QAD@Z 10066939 f i libucrtd:setenv.obj
 0001:00065953       ??$tcschr@ABQA_WD@?$__crt_char_traits@_W@@SAPA_WABQA_W$$QAD@Z 10066953 f i libucrtd:setenv.obj
 0001:00065971       ??$tcscpy_s@AAPADABIAAPAD@?$__crt_char_traits@D@@SAHAAPADABI0@Z 10066971 f i libucrtd:setenv.obj
 0001:0006598f       ??$tcscpy_s@AAPA_WABIAAPA_W@?$__crt_char_traits@_W@@SAHAAPA_WABI0@Z 1006698f f i libucrtd:setenv.obj
 0001:000659ad       ??$tcscpy_s@ABQADABIABQAD@?$__crt_char_traits@D@@SAHABQADABI0@Z 100669ad f i libucrtd:setenv.obj
 0001:000659cb       ??$tcscpy_s@ABQA_WABIABQA_W@?$__crt_char_traits@_W@@SAHABQA_WABI0@Z 100669cb f i libucrtd:setenv.obj
 0001:000659e9       ??$tcslen@ABQAD@?$__crt_char_traits@D@@SAIABQAD@Z 100669e9 f i libucrtd:setenv.obj
 0001:00065a01       ??$tcslen@ABQA_W@?$__crt_char_traits@_W@@SAIABQA_W@Z 10066a01 f i libucrtd:setenv.obj
 0001:00065a1f       ??$tcsnicoll@ABQBDAAPADABI@?$__crt_char_traits@D@@SAHABQBDAAPADABI@Z 10066a1f f i libucrtd:setenv.obj
 0001:00065a3d       ??$tcsnicoll@ABQB_WAAPA_WABI@?$__crt_char_traits@_W@@SAHABQB_WAAPA_WABI@Z 10066a3d f i libucrtd:setenv.obj
 0001:00065a5b       ??$tcsnlen@PADH@?$__crt_char_traits@D@@SAI$$QAPAD$$QAH@Z 10066a5b f i libucrtd:setenv.obj
 0001:00065a73       ??$tcsnlen@PA_WH@?$__crt_char_traits@_W@@SAI$$QAPA_W$$QAH@Z 10066a73 f i libucrtd:setenv.obj
 0001:00065aaf       ?strchr@@YAPADQADH@Z       10066aaf f i libucrtd:setenv.obj
 0001:00065aba       ?wcschr@@YAPA_WPA_W_W@Z    10066aba f i libucrtd:setenv.obj
 0001:00065ac5       ___dcrt_set_variable_in_narrow_environment_nolock 10066ac5 f   libucrtd:setenv.obj
 0001:00065ad0       ___dcrt_set_variable_in_wide_environment_nolock 10066ad0 f   libucrtd:setenv.obj
 0001:00065b00       ??$?B$$A6GHPA_WKJ@Z@__crt_fast_encoded_nullptr_t@@QBEP6GHPA_WKJ@ZXZ 10066b00 f i libucrtd:winapi_thunks.obj
 0001:00065bf0       ??$__crt_fast_decode_pointer@P6GHPA_WKJ@Z@@YAP6GHPA_WKJ@ZQ6GH0KJ@Z@Z 10066bf0 f i libucrtd:winapi_thunks.obj
 0001:00065c20       ??$__crt_fast_decode_pointer@PAX@@YAPAXQAX@Z 10066c20 f i libucrtd:winapi_thunks.obj
 0001:00065c50       ??$__crt_fast_encode_pointer@P6GHPA_WKJ@Z@@YAP6GHPA_WKJ@ZQ6GH0KJ@Z@Z 10066c50 f i libucrtd:winapi_thunks.obj
 0001:000665b0       _GetCurrentThreadEffectiveToken 100675b0 f i libucrtd:winapi_thunks.obj
 0001:000665c0       ___acrt_AppPolicyGetProcessTerminationMethodInternal@4 100675c0 f   libucrtd:winapi_thunks.obj
 0001:00066600       ___acrt_AppPolicyGetShowDeveloperDiagnosticInternal@4 10067600 f   libucrtd:winapi_thunks.obj
 0001:00066640       ___acrt_AppPolicyGetThreadInitializationTypeInternal@4 10067640 f   libucrtd:winapi_thunks.obj
 0001:00066680       ___acrt_AppPolicyGetWindowingModelInternal@4 10067680 f   libucrtd:winapi_thunks.obj
 0001:000666c0       ___acrt_AreFileApisANSI@0  100676c0 f   libucrtd:winapi_thunks.obj
 0001:00066700       ___acrt_CompareStringEx@36 10067700 f   libucrtd:winapi_thunks.obj
 0001:00066780       ___acrt_EnumSystemLocalesEx@16 10067780 f   libucrtd:winapi_thunks.obj
 0001:000667e0       ___acrt_FlsAlloc@4         100677e0 f   libucrtd:winapi_thunks.obj
 0001:00066820       ___acrt_FlsFree@4          10067820 f   libucrtd:winapi_thunks.obj
 0001:00066860       ___acrt_FlsGetValue@4      10067860 f   libucrtd:winapi_thunks.obj
 0001:000668a0       ___acrt_FlsSetValue@8      100678a0 f   libucrtd:winapi_thunks.obj
 0001:000668f0       ___acrt_GetDateFormatEx@28 100678f0 f   libucrtd:winapi_thunks.obj
 0001:00066970       ___acrt_GetEnabledXStateFeatures@0 10067970 f   libucrtd:winapi_thunks.obj
 0001:000669b0       ___acrt_GetLocaleInfoEx@16 100679b0 f   libucrtd:winapi_thunks.obj
 0001:00066a10       ___acrt_GetSystemTimePreciseAsFileTime@4 10067a10 f   libucrtd:winapi_thunks.obj
 0001:00066a50       ___acrt_GetTimeFormatEx@24 10067a50 f   libucrtd:winapi_thunks.obj
 0001:00066ac0       ___acrt_GetUserDefaultLocaleName@8 10067ac0 f   libucrtd:winapi_thunks.obj
 0001:00066b10       ___acrt_GetXStateFeaturesMask@8 10067b10 f   libucrtd:winapi_thunks.obj
 0001:00066b50       ___acrt_InitializeCriticalSectionEx@12 10067b50 f   libucrtd:winapi_thunks.obj
 0001:00066ba0       ___acrt_IsValidLocaleName@4 10067ba0 f   libucrtd:winapi_thunks.obj
 0001:00066bf0       ___acrt_LCIDToLocaleName@16 10067bf0 f   libucrtd:winapi_thunks.obj
 0001:00066c50       ___acrt_LCMapStringEx@36   10067c50 f   libucrtd:winapi_thunks.obj
 0001:00066cd0       ___acrt_LocaleNameToLCID@8 10067cd0 f   libucrtd:winapi_thunks.obj
 0001:00066d20       ___acrt_LocateXStateFeature@12 10067d20 f   libucrtd:winapi_thunks.obj
 0001:00066d70       ___acrt_MessageBoxA@16     10067d70 f   libucrtd:winapi_thunks.obj
 0001:00066dc0       ___acrt_MessageBoxW@16     10067dc0 f   libucrtd:winapi_thunks.obj
 0001:00066e10       ___acrt_RoInitialize@4     10067e10 f   libucrtd:winapi_thunks.obj
 0001:00066e50       ___acrt_RoUninitialize@0   10067e50 f   libucrtd:winapi_thunks.obj
 0001:00066e80       ___acrt_RtlGenRandom@8     10067e80 f   libucrtd:winapi_thunks.obj
 0001:00066ec0       ___acrt_SetThreadStackGuarantee@4 10067ec0 f   libucrtd:winapi_thunks.obj
 0001:00066f00       ___acrt_can_show_message_box 10067f00 f   libucrtd:winapi_thunks.obj
 0001:00066f40       ___acrt_can_use_vista_locale_apis 10067f40 f   libucrtd:winapi_thunks.obj
 0001:00066f70       ___acrt_can_use_xstate_apis 10067f70 f   libucrtd:winapi_thunks.obj
 0001:00066fa0       ___acrt_eagerly_load_locale_apis 10067fa0 f   libucrtd:winapi_thunks.obj
 0001:00066fe0       ___acrt_get_parent_window  10067fe0 f   libucrtd:winapi_thunks.obj
 0001:00067050       ___acrt_initialize_winapi_thunks 10068050 f   libucrtd:winapi_thunks.obj
 0001:000670c0       ___acrt_is_interactive     100680c0 f   libucrtd:winapi_thunks.obj
 0001:00067170       ___acrt_uninitialize_winapi_thunks 10068170 f   libucrtd:winapi_thunks.obj
 0001:000671e0       ___acrt_getheap            100681e0 f   libucrtd:heap_handle.obj
 0001:00067220       ___acrt_initialize_heap    10068220 f   libucrtd:heap_handle.obj
 0001:00067250       ___acrt_uninitialize_heap  10068250 f   libucrtd:heap_handle.obj
 0001:00067270       __get_heap_handle          10068270 f   libucrtd:heap_handle.obj
 0001:000672b0       ___acrt_execute_initializers 100682b0 f   libucrtd:shared_initialization.obj
 0001:00067360       ___acrt_execute_uninitializers 10068360 f   libucrtd:shared_initialization.obj
 0001:000673c0       ??$__crt_fast_decode_pointer@P6AHPAU_exception@@@Z@@YAP6AHPAU_exception@@@ZQ6AH0@Z@Z 100683c0 f i libucrtd:matherr.obj
 0001:000673f0       ??$__crt_fast_encode_pointer@P6AHPAU_exception@@@Z@@YAP6AHPAU_exception@@@ZQ6AH0@Z@Z 100683f0 f i libucrtd:matherr.obj
 0001:00067420       ?initialize@?$dual_state_global@P6AHPAU_exception@@@Z@__crt_state_management@@QAEXQ6AHPAU_exception@@@Z@Z 10068420 f i libucrtd:matherr.obj
 0001:00067460       ?value@?$dual_state_global@P6AHPAU_exception@@@Z@__crt_state_management@@QAEAAP6AHPAU_exception@@@ZXZ 10068460 f i libucrtd:matherr.obj
 0001:00067480       ___acrt_has_user_matherr   10068480 f   libucrtd:matherr.obj
 0001:000674c0       ___acrt_initialize_user_matherr 100684c0 f   libucrtd:matherr.obj
 0001:000674e0       ___acrt_invoke_user_matherr 100684e0 f   libucrtd:matherr.obj
 0001:00067530       ___setusermatherr          10068530 f   libucrtd:matherr.obj
 0001:00067560       __chvalidator              10068560 f   libucrtd:isctype.obj
 0001:000675b0       __chvalidator_l            100685b0 f   libucrtd:isctype.obj
 0001:00067630       __isctype                  10068630 f   libucrtd:isctype.obj
 0001:00067670       __isctype_l                10068670 f   libucrtd:isctype.obj
 0001:000677f0       __isleadbyte_fast_internal 100687f0 f i libucrtd:isctype.obj
 0001:00067820       __free_base                10068820 f   libucrtd:free_base.obj
 0001:000678d0       __expand                   100688d0 f   libucrtd:expand.obj
 0001:000678f0       __expand_base              100688f0 f   libucrtd:expand.obj
 0001:00067a20       ?value@?$dual_state_global@J@__crt_state_management@@QAEAAJXZ 10068a20 f i libucrtd:new_mode.obj
 0001:00067a40       __query_new_mode           10068a40 f   libucrtd:new_mode.obj
 0001:00067a60       __set_new_mode             10068a60 f   libucrtd:new_mode.obj
 0001:00067b00       __CrtDefaultAllocHook      10068b00 f   libucrtd:debug_heap_hook.obj
 0001:00067b0c       __mbsdec                   10068b0c f   libucrtd:mbsdec.obj
 0001:00067b23       __mbsdec_l                 10068b23 f   libucrtd:mbsdec.obj
 0001:00068010       _strncpy_s                 10069010 f   libucrtd:strncpy_s.obj
 0001:000681e0       ___acrt_report_runtime_error 100691e0 f   libucrtd:report_runtime_error.obj
 0001:000683d0       __query_app_type           100693d0 f   libucrtd:report_runtime_error.obj
 0001:000683e0       __set_app_type             100693e0 f   libucrtd:report_runtime_error.obj
 0001:000683f0       __iswctype_l               100693f0 f   libucrtd:iswctype.obj
 0001:00068410       _iswctype                  10069410 f   libucrtd:iswctype.obj
 0001:00069590       __i64toa                   1006a590 f   libucrtd:xtoa.obj
 0001:000695e0       __i64toa_s                 1006a5e0 f   libucrtd:xtoa.obj
 0001:00069630       __i64tow                   1006a630 f   libucrtd:xtoa.obj
 0001:00069680       __i64tow_s                 1006a680 f   libucrtd:xtoa.obj
 0001:000696d0       __itoa                     1006a6d0 f   libucrtd:xtoa.obj
 0001:00069720       __itoa_s                   1006a720 f   libucrtd:xtoa.obj
 0001:00069770       __itow                     1006a770 f   libucrtd:xtoa.obj
 0001:000697c0       __itow_s                   1006a7c0 f   libucrtd:xtoa.obj
 0001:00069810       __ltoa                     1006a810 f   libucrtd:xtoa.obj
 0001:00069860       __ltoa_s                   1006a860 f   libucrtd:xtoa.obj
 0001:000698b0       __ltow                     1006a8b0 f   libucrtd:xtoa.obj
 0001:00069900       __ltow_s                   1006a900 f   libucrtd:xtoa.obj
 0001:00069950       __ui64toa                  1006a950 f   libucrtd:xtoa.obj
 0001:00069980       __ui64toa_s                1006a980 f   libucrtd:xtoa.obj
 0001:000699b0       __ui64tow                  1006a9b0 f   libucrtd:xtoa.obj
 0001:000699e0       __ui64tow_s                1006a9e0 f   libucrtd:xtoa.obj
 0001:00069a10       __ultoa                    1006aa10 f   libucrtd:xtoa.obj
 0001:00069a40       __ultoa_s                  1006aa40 f   libucrtd:xtoa.obj
 0001:00069a70       __ultow                    1006aa70 f   libucrtd:xtoa.obj
 0001:00069aa0       __ultow_s                  1006aaa0 f   libucrtd:xtoa.obj
 0001:00069eb0       __mbstowcs_l               1006aeb0 f   libucrtd:mbstowcs.obj
 0001:00069ed0       __mbstowcs_s_l             1006aed0 f   libucrtd:mbstowcs.obj
 0001:0006a290       _mbstowcs                  1006b290 f   libucrtd:mbstowcs.obj
 0001:0006a2e0       _mbstowcs_s                1006b2e0 f   libucrtd:mbstowcs.obj
 0001:0006a9d0       __wcstombs_l               1006b9d0 f   libucrtd:wcstombs.obj
 0001:0006a9f0       __wcstombs_s_l             1006b9f0 f   libucrtd:wcstombs.obj
 0001:0006ad60       _wcstombs                  1006bd60 f   libucrtd:wcstombs.obj
 0001:0006ad80       _wcstombs_s                1006bd80 f   libucrtd:wcstombs.obj
 0001:0006adb0       ___acrt_OutputDebugStringA@4 1006bdb0 f   libucrtd:outputdebugstringa.obj
 0001:0006ae40       ___iswcsym                 1006be40 f i libucrtd:_wctype.obj
 0001:0006ae80       ___iswcsymf                1006be80 f i libucrtd:_wctype.obj
 0001:0006aec0       __isleadbyte_l             1006bec0 f i libucrtd:_wctype.obj
 0001:0006af10       __iswalnum_l               1006bf10 f i libucrtd:_wctype.obj
 0001:0006af30       __iswalpha_l               1006bf30 f i libucrtd:_wctype.obj
 0001:0006af50       __iswblank_l               1006bf50 f i libucrtd:_wctype.obj
 0001:0006af90       __iswcntrl_l               1006bf90 f i libucrtd:_wctype.obj
 0001:0006afb0       __iswcsym_l                1006bfb0 f i libucrtd:_wctype.obj
 0001:0006aff0       __iswcsymf_l               1006bff0 f i libucrtd:_wctype.obj
 0001:0006b030       __iswdigit_l               1006c030 f i libucrtd:_wctype.obj
 0001:0006b050       __iswgraph_l               1006c050 f i libucrtd:_wctype.obj
 0001:0006b070       __iswlower_l               1006c070 f i libucrtd:_wctype.obj
 0001:0006b090       __iswprint_l               1006c090 f i libucrtd:_wctype.obj
 0001:0006b0b0       __iswpunct_l               1006c0b0 f i libucrtd:_wctype.obj
 0001:0006b0d0       __iswspace_l               1006c0d0 f i libucrtd:_wctype.obj
 0001:0006b0f0       __iswupper_l               1006c0f0 f i libucrtd:_wctype.obj
 0001:0006b110       __iswxdigit_l              1006c110 f i libucrtd:_wctype.obj
 0001:0006b130       _isleadbyte                1006c130 f i libucrtd:_wctype.obj
 0001:0006b150       _iswalnum                  1006c150 f i libucrtd:_wctype.obj
 0001:0006b170       _iswalpha                  1006c170 f i libucrtd:_wctype.obj
 0001:0006b190       _iswascii                  1006c190 f i libucrtd:_wctype.obj
 0001:0006b1c0       _iswblank                  1006c1c0 f i libucrtd:_wctype.obj
 0001:0006b200       _iswcntrl                  1006c200 f i libucrtd:_wctype.obj
 0001:0006b220       _iswdigit                  1006c220 f i libucrtd:_wctype.obj
 0001:0006b240       _iswgraph                  1006c240 f i libucrtd:_wctype.obj
 0001:0006b260       _iswlower                  1006c260 f i libucrtd:_wctype.obj
 0001:0006b280       _iswprint                  1006c280 f i libucrtd:_wctype.obj
 0001:0006b2a0       _iswpunct                  1006c2a0 f i libucrtd:_wctype.obj
 0001:0006b2c0       _iswspace                  1006c2c0 f i libucrtd:_wctype.obj
 0001:0006b2e0       _iswupper                  1006c2e0 f i libucrtd:_wctype.obj
 0001:0006b300       _iswxdigit                 1006c300 f i libucrtd:_wctype.obj
 0001:0006b390       ?__mbrtowc_utf8@__crt_mbstring@@YAIPA_WPBDIPAU_Mbstatet@@@Z 1006c390 f   libucrtd:mbrtowc.obj
 0001:0006b3e0       ?__mbsrtowcs_utf8@__crt_mbstring@@YAIPA_WPAPBDIPAU_Mbstatet@@@Z 1006c3e0 f   libucrtd:mbrtowc.obj
 0001:0006bc50       _btowc                     1006cc50 f   libucrtd:mbrtowc.obj
 0001:0006bcc0       _mbrlen                    1006ccc0 f   libucrtd:mbrtowc.obj
 0001:0006bd10       _mbrtowc                   1006cd10 f   libucrtd:mbrtowc.obj
 0001:0006bda0       _mbsrtowcs                 1006cda0 f   libucrtd:mbrtowc.obj
 0001:0006bdc0       _mbsrtowcs_s               1006cdc0 f   libucrtd:mbrtowc.obj
 0001:0006c110       ??$?RG@__crt_internal_free_policy@@QBEXQBG@Z 1006d110 f i libucrtd:initctype.obj
 0001:0006c130       ??$?RJ@__crt_internal_free_policy@@QBEXQBJ@Z 1006d130 f i libucrtd:initctype.obj
 0001:0006c150       ??0?$__crt_unique_heap_ptr@GU__crt_internal_free_policy@@@@QAE@QAG@Z 1006d150 f i libucrtd:initctype.obj
 0001:0006c170       ??0?$__crt_unique_heap_ptr@JU__crt_internal_free_policy@@@@QAE@QAJ@Z 1006d170 f i libucrtd:initctype.obj
 0001:0006c190       ??1?$__crt_unique_heap_ptr@GU__crt_internal_free_policy@@@@QAE@XZ 1006d190 f i libucrtd:initctype.obj
 0001:0006c1b0       ??1?$__crt_unique_heap_ptr@JU__crt_internal_free_policy@@@@QAE@XZ 1006d1b0 f i libucrtd:initctype.obj
 0001:0006c1d0       ?detach@?$__crt_unique_heap_ptr@GU__crt_internal_free_policy@@@@QAEPAGXZ 1006d1d0 f i libucrtd:initctype.obj
 0001:0006c200       ?detach@?$__crt_unique_heap_ptr@JU__crt_internal_free_policy@@@@QAEPAJXZ 1006d200 f i libucrtd:initctype.obj
 0001:0006c230       ?release@?$__crt_unique_heap_ptr@GU__crt_internal_free_policy@@@@QAEXXZ 1006d230 f i libucrtd:initctype.obj
 0001:0006c260       ?release@?$__crt_unique_heap_ptr@JU__crt_internal_free_policy@@@@QAEXXZ 1006d260 f i libucrtd:initctype.obj
 0001:0006c290       ____lc_codepage_func       1006d290 f   libucrtd:initctype.obj
 0001:0006c2d0       ____lc_collate_cp_func     1006d2d0 f   libucrtd:initctype.obj
 0001:0006c310       ____lc_locale_name_func    1006d310 f   libucrtd:initctype.obj
 0001:0006c350       ____mb_cur_max_func        1006d350 f   libucrtd:initctype.obj
 0001:0006c390       ____mb_cur_max_l_func      1006d390 f   libucrtd:initctype.obj
 0001:0006c3c0       ___acrt_locale_initialize_ctype 1006d3c0 f   libucrtd:initctype.obj
 0001:0006cb40       ?__c32rtomb_utf8@__crt_mbstring@@YAIPAD_UPAU_Mbstatet@@@Z 1006db40 f   libucrtd:c32rtomb.obj
 0001:0006cd20       ?reset_and_return@__crt_mbstring@@YAIIPAU_Mbstatet@@@Z 1006dd20 f i libucrtd:c32rtomb.obj
 0001:0006cd50       ?return_illegal_sequence@__crt_mbstring@@YAIPAU_Mbstatet@@@Z 1006dd50 f i libucrtd:c32rtomb.obj
 0001:0006cd80       _c32rtomb                  1006dd80 f   libucrtd:c32rtomb.obj
 0001:0006cda0       ___acrt_add_locale_ref     1006dda0 f   libucrtd:locale_refcounting.obj
 0001:0006ceb0       ___acrt_free_locale        1006deb0 f   libucrtd:locale_refcounting.obj
 0001:0006d180       ___acrt_locale_add_lc_time_reference 1006e180 f   libucrtd:locale_refcounting.obj
 0001:0006d1c0       ___acrt_locale_free_lc_time_if_unreferenced 1006e1c0 f   libucrtd:locale_refcounting.obj
 0001:0006d210       ___acrt_locale_release_lc_time_reference 1006e210 f   libucrtd:locale_refcounting.obj
 0001:0006d240       ___acrt_release_locale_ref 1006e240 f   libucrtd:locale_refcounting.obj
 0001:0006d350       ___acrt_update_thread_locale_data 1006e350 f   libucrtd:locale_refcounting.obj
 0001:0006d430       __updatetlocinfoEx_nolock  1006e430 f   libucrtd:locale_refcounting.obj
 0001:0006d5b0       ___acrt_fp_strflt_to_string 1006e5b0 f   libucrtd:_fptostr.obj
 0001:0006df70       ??0big_integer@__crt_strtox@@QAE@ABU01@@Z 1006ef70 f i libucrtd:cfout.obj
 0001:0006dfb0       ??0big_integer@__crt_strtox@@QAE@XZ 1006efb0 f i libucrtd:cfout.obj
 0001:0006e070       ??4big_integer@__crt_strtox@@QAEAAU01@ABU01@@Z 1006f070 f i libucrtd:cfout.obj
 0001:0006e0b0       ??8__crt_strtox@@YA_NABUbig_integer@0@0@Z 1006f0b0 f i libucrtd:cfout.obj
 0001:0006e110       ??9__crt_strtox@@YA_NABUbig_integer@0@0@Z 1006f110 f i libucrtd:cfout.obj
 0001:0006e150       ?add_carry@__crt_strtox@@YAIAAIII@Z 1006f150 f i libucrtd:cfout.obj
 0001:0006e190       ?add_multiply_carry@__crt_strtox@@YAIAAIIII@Z 1006f190 f i libucrtd:cfout.obj
 0001:0006e1d0       ?bit_scan_reverse@__crt_strtox@@YAII@Z 1006f1d0 f i libucrtd:cfout.obj
 0001:0006e200       ?count_sequential_high_zeroes@__crt_strtox@@YAII@Z 1006f200 f i libucrtd:cfout.obj
 0001:0006e240       ?divide@__crt_strtox@@YA_KAAUbig_integer@1@ABU21@@Z 1006f240 f i libucrtd:cfout.obj
 0001:0006ecc0       ?is_zero@__crt_strtox@@YA_NABUbig_integer@1@@Z 1006fcc0 f i libucrtd:cfout.obj
 0001:0006ecf0       ?make_big_integer@__crt_strtox@@YA?AUbig_integer@1@_K@Z 1006fcf0 f i libucrtd:cfout.obj
 0001:0006eda0       ?make_big_integer_power_of_two@__crt_strtox@@YA?AUbig_integer@1@I@Z 1006fda0 f i libucrtd:cfout.obj
 0001:0006ee50       ?multiply@__crt_strtox@@YA_NAAUbig_integer@1@ABU21@@Z 1006fe50 f i libucrtd:cfout.obj
 0001:0006f1d0       ?multiply@__crt_strtox@@YA_NAAUbig_integer@1@I@Z 100701d0 f i libucrtd:cfout.obj
 0001:0006f2a0       ?multiply_64_32@__crt_strtox@@YA_K_KI@Z 100702a0 f i libucrtd:cfout.obj
 0001:0006f2c0       ?multiply_by_power_of_ten@__crt_strtox@@YA_NAAUbig_integer@1@I@Z 100702c0 f i libucrtd:cfout.obj
 0001:0006f460       ?multiply_core@__crt_strtox@@YAIQAIII@Z 10070460 f i libucrtd:cfout.obj
 0001:0006f4d0       ?shift_left@__crt_strtox@@YA_NAAUbig_integer@1@I@Z 100704d0 f i libucrtd:cfout.obj
 0001:0006f7b0       ___acrt_fltout             100707b0 f   libucrtd:cfout.obj
 0001:0006fbb0       ___fpe_flt_rounds          10070bb0 f   libucrtd:fegetround.obj
 0001:0006fc10       _fegetround                10070c10 f   libucrtd:fegetround.obj
 0001:00070310       ?has_big_buffer@__crt_stdio_stream@@QBE_NXZ 10071310 f i libucrtd:_flsbuf.obj
 0001:00070410       ___acrt_stdio_flush_and_write_narrow_nolock 10071410 f   libucrtd:_flsbuf.obj
 0001:00070440       ___acrt_stdio_flush_and_write_wide_nolock 10071440 f   libucrtd:_flsbuf.obj
 0001:00070470       ??0__crt_stdio_stream@@QAE@QAU__crt_stdio_stream_data@@@Z 10071470 f i libucrtd:closeall.obj
 0001:00070490       ?is_in_use@__crt_stdio_stream@@QBE_NXZ 10071490 f i libucrtd:closeall.obj
 0001:000704d0       __fcloseall                100714d0 f   libucrtd:closeall.obj
 0001:00070bb0       ?__acrt_stdio_reset_buffer@@YAXV__crt_stdio_stream@@@Z 10071bb0 f i libucrtd:fflush.obj
 0001:00070cb0       ?has_all_of@__crt_stdio_stream@@QBE_NJ@Z 10071cb0 f i libucrtd:fflush.obj
 0001:00070d80       ___acrt_stdio_flush_nolock 10071d80 f   libucrtd:fflush.obj
 0001:00070e50       __fflush_nolock            10071e50 f   libucrtd:fflush.obj
 0001:00070ed0       __flushall                 10071ed0 f   libucrtd:fflush.obj
 0001:00070ef0       _fflush                    10071ef0 f   libucrtd:fflush.obj
 0001:00070f60       ?has_crt_buffer@__crt_stdio_stream@@QBE_NXZ 10071f60 f i libucrtd:_freebuf.obj
 0001:00070f80       ___acrt_stdio_free_buffer_nolock 10071f80 f   libucrtd:_freebuf.obj
 0001:00071030       __isatty                   10072030 f   libucrtd:isatty.obj
 0001:00071100       ??$?RUlconv@@@__crt_internal_free_policy@@QBEXQBUlconv@@@Z 10072100 f i libucrtd:initmon.obj
 0001:00071120       ??0?$__crt_unique_heap_ptr@Ulconv@@U__crt_internal_free_policy@@@@QAE@QAUlconv@@@Z 10072120 f i libucrtd:initmon.obj
 0001:00071140       ??1?$__crt_unique_heap_ptr@Ulconv@@U__crt_internal_free_policy@@@@QAE@XZ 10072140 f i libucrtd:initmon.obj
 0001:00071160       ?detach@?$__crt_unique_heap_ptr@Ulconv@@U__crt_internal_free_policy@@@@QAEPAUlconv@@XZ 10072160 f i libucrtd:initmon.obj
 0001:00071190       ?release@?$__crt_unique_heap_ptr@Ulconv@@U__crt_internal_free_policy@@@@QAEXXZ 10072190 f i libucrtd:initmon.obj
 0001:000711c0       ___acrt_locale_free_monetary 100721c0 f   libucrtd:initmon.obj
 0001:00071370       ___acrt_locale_initialize_monetary 10072370 f   libucrtd:initmon.obj
 0001:00071a10       ___acrt_locale_free_numeric 10072a10 f   libucrtd:initnum.obj
 0001:00071ac0       ___acrt_locale_initialize_numeric 10072ac0 f   libucrtd:initnum.obj
 0001:00071f10       ??$?RU__crt_lc_time_data@@@__crt_internal_free_policy@@QBEXQBU__crt_lc_time_data@@@Z 10072f10 f i libucrtd:inittime.obj
 0001:00071ff0       ??0?$__crt_unique_heap_ptr@U__crt_lc_time_data@@U__crt_internal_free_policy@@@@QAE@QAU__crt_lc_time_data@@@Z 10072ff0 f i libucrtd:inittime.obj
 0001:00072010       ??1?$__crt_unique_heap_ptr@U__crt_lc_time_data@@U__crt_internal_free_policy@@@@QAE@XZ 10073010 f i libucrtd:inittime.obj
 0001:00072030       ??B?$__crt_unique_heap_ptr@U__crt_lc_time_data@@U__crt_internal_free_policy@@@@QBE_NXZ 10073030 f i libucrtd:inittime.obj
 0001:00072050       ?detach@?$__crt_unique_heap_ptr@U__crt_lc_time_data@@U__crt_internal_free_policy@@@@QAEPAU__crt_lc_time_data@@XZ 10073050 f i libucrtd:inittime.obj
 0001:000720c0       ?get@?$__crt_unique_heap_ptr@U__crt_lc_time_data@@U__crt_internal_free_policy@@@@QBEPAU__crt_lc_time_data@@XZ 100730c0 f i libucrtd:inittime.obj
 0001:00072590       ?is_valid@?$__crt_unique_heap_ptr@U__crt_lc_time_data@@U__crt_internal_free_policy@@@@QBE_NXZ 10073590 f i libucrtd:inittime.obj
 0001:000725c0       ?release@?$__crt_unique_heap_ptr@U__crt_lc_time_data@@U__crt_internal_free_policy@@@@QAEXXZ 100735c0 f i libucrtd:inittime.obj
 0001:000725f0       ___acrt_locale_free_time   100735f0 f   libucrtd:inittime.obj
 0001:00072740       ___acrt_locale_initialize_time 10073740 f   libucrtd:inittime.obj
 0001:000727c0       ___pctype_func             100737c0 f   libucrtd:ctype.obj
 0001:00072800       ___pwctype_func            10073800 f   libucrtd:ctype.obj
 0001:00072ce0       _wcsncat_s                 10073ce0 f   libucrtd:wcsncat_s.obj
 0001:00072d00       _wcscmp                    10073d00 f   libucrtd:wcscmp.obj
 0001:00072d80       _wcscspn                   10073d80 f   libucrtd:wcscspn.obj
 0001:00072df0       _wcspbrk                   10073df0 f   libucrtd:wcspbrk.obj
 0001:00072e50       ??0?$__crt_scoped_stack_ptr@_W@@QAE@U?$__crt_scoped_stack_ptr_tag@_W@@@Z 10073e50 f i libucrtd:getstringtypea.obj
 0001:00072e70       ??0?$__crt_scoped_stack_ptr_tag@_W@@QAE@QA_W@Z 10073e70 f i libucrtd:getstringtypea.obj
 0001:00072e90       ??1?$__crt_scoped_stack_ptr@_W@@QAE@XZ 10073e90 f i libucrtd:getstringtypea.obj
 0001:00072eb0       ?get@?$__crt_scoped_stack_ptr@_W@@QBEPA_WXZ 10073eb0 f i libucrtd:getstringtypea.obj
 0001:00072ed0       __MallocaComputeSize       10073ed0 f i libucrtd:getstringtypea.obj
 0001:00072f00       __MarkAllocaS              10073f00 f i libucrtd:getstringtypea.obj
 0001:00072f30       ___acrt_GetStringTypeA     10073f30 f   libucrtd:getstringtypea.obj
 0001:000730e0       __freea_crt                100740e0 f i libucrtd:getstringtypea.obj
 0001:00073cb0       ___acrt_get_qualified_locale 10074cb0 f   libucrtd:get_qualified_locale.obj
 0001:00074cc0       ___acrt_get_qualified_locale_downlevel 10075cc0 f   libucrtd:getqloc_downlevel.obj
 0001:00074f60       _localeconv                10075f60 f   libucrtd:localeconv.obj
 0001:00074fa0       ??$?RU__crt_lowio_handle_data@@@__crt_internal_free_policy@@QBEXQBU__crt_lowio_handle_data@@@Z 10075fa0 f i libucrtd:osfinfo.obj
 0001:00074fc0       ??0?$__crt_unique_heap_ptr@U__crt_lowio_handle_data@@U__crt_internal_free_policy@@@@QAE@QAU__crt_lowio_handle_data@@@Z 10075fc0 f i libucrtd:osfinfo.obj
 0001:00074fe0       ??1?$__crt_unique_heap_ptr@U__crt_lowio_handle_data@@U__crt_internal_free_policy@@@@QAE@XZ 10075fe0 f i libucrtd:osfinfo.obj
 0001:00075000       ??B?$__crt_unique_heap_ptr@U__crt_lowio_handle_data@@U__crt_internal_free_policy@@@@QBE_NXZ 10076000 f i libucrtd:osfinfo.obj
 0001:00075020       ?detach@?$__crt_unique_heap_ptr@U__crt_lowio_handle_data@@U__crt_internal_free_policy@@@@QAEPAU__crt_lowio_handle_data@@XZ 10076020 f i libucrtd:osfinfo.obj
 0001:00075050       ?get@?$__crt_unique_heap_ptr@U__crt_lowio_handle_data@@U__crt_internal_free_policy@@@@QBEPAU__crt_lowio_handle_data@@XZ 10076050 f i libucrtd:osfinfo.obj
 0001:00075070       ?is_valid@?$__crt_unique_heap_ptr@U__crt_lowio_handle_data@@U__crt_internal_free_policy@@@@QBE_NXZ 10076070 f i libucrtd:osfinfo.obj
 0001:000750a0       ?release@?$__crt_unique_heap_ptr@U__crt_lowio_handle_data@@U__crt_internal_free_policy@@@@QAEXXZ 100760a0 f i libucrtd:osfinfo.obj
 0001:000750d0       ___acrt_lowio_create_handle_array 100760d0 f   libucrtd:osfinfo.obj
 0001:00075230       ___acrt_lowio_destroy_handle_array 10076230 f   libucrtd:osfinfo.obj
 0001:00075290       ___acrt_lowio_ensure_fh_exists 10076290 f   libucrtd:osfinfo.obj
 0001:000753f0       ___acrt_lowio_lock_fh      100763f0 f   libucrtd:osfinfo.obj
 0001:00075420       ___acrt_lowio_set_os_handle 10076420 f   libucrtd:osfinfo.obj
 0001:000754f0       ___acrt_lowio_unlock_fh    100764f0 f   libucrtd:osfinfo.obj
 0001:00075520       __alloc_osfhnd             10076520 f   libucrtd:osfinfo.obj
 0001:00075700       __free_osfhnd              10076700 f   libucrtd:osfinfo.obj
 0001:000757f0       __get_osfhandle            100767f0 f   libucrtd:osfinfo.obj
 0001:00075970       __open_osfhandle           10076970 f   libucrtd:osfinfo.obj
 0001:00075b70       __malloc_base              10076b70 f   libucrtd:malloc_base.obj
 0001:00075d20       _qsort                     10076d20 f   libucrtd:qsort.obj
 0001:000763b0       _strpbrk                   100773b0 f   libucrtd:strpbrk.obj
 0001:000763f0       ??B?$__crt_scoped_stack_ptr@_W@@QBE_NXZ 100773f0 f i libucrtd:lcmapstringa.obj
 0001:000767e0       ___acrt_LCMapStringA       100777e0 f   libucrtd:lcmapstringa.obj
 0001:00076870       __wcsnicoll                10077870 f   libucrtd:wcsnicol.obj
 0001:00076a30       __wcsnicoll_l              10077a30 f   libucrtd:wcsnicol.obj
 0001:00076c80       __strnicoll                10077c80 f   libucrtd:strnicol.obj
 0001:00076cd0       __strnicoll_l              10077cd0 f   libucrtd:strnicol.obj
 0001:000770f0       ___acrt_SetEnvironmentVariableA 100780f0 f   libucrtd:setenvironmentvariablea.obj
 0001:000772b0       ___acrt_DownlevelLCIDToLocaleName 100782b0 f   libucrtd:lcidtoname_downlevel.obj
 0001:00077380       ___acrt_DownlevelLocaleNameToLCID 10078380 f   libucrtd:lcidtoname_downlevel.obj
 0001:000773c0       __set_error_mode           100783c0 f   libucrtd:set_error_mode.obj
 0001:00077480       ___acrt_GetStringTypeW     10078480 f   libucrtd:getstringtypew.obj
 0001:000774a0       ?__wcsrtombs_utf8@__crt_mbstring@@YAIPADPAPB_WIPAU_Mbstatet@@@Z 100784a0 f   libucrtd:wcrtomb.obj
 0001:00077c80       _wcrtomb                   10078c80 f   libucrtd:wcrtomb.obj
 0001:00077cd0       _wcrtomb_s                 10078cd0 f   libucrtd:wcrtomb.obj
 0001:00077df0       _wcsrtombs                 10078df0 f   libucrtd:wcrtomb.obj
 0001:00077e10       _wcsrtombs_s               10078e10 f   libucrtd:wcrtomb.obj
 0001:00078160       _wctob                     10079160 f   libucrtd:wcrtomb.obj
 0001:000781e0       ?__mbrtoc32_utf8@__crt_mbstring@@YAIPA_UPBDIPAU_Mbstatet@@@Z 100791e0 f   libucrtd:mbrtoc32.obj
 0001:000784b0       _mbrtoc32                  100794b0 f   libucrtd:mbrtoc32.obj
 0001:00078650       ___acrt_GetLocaleInfoA     10079650 f   libucrtd:getlocaleinfoa.obj
 0001:00078a10       _log10                     10079a10 f   libucrtd:log10.obj
 0001:00078a60       _ceil                      10079a60 f   libucrtd:ceil_pentium4.obj
 0001:00078aa0       __ceil_pentium4            10079aa0 f   libucrtd:ceil_pentium4.obj
 0001:00078b80       __controlfp_s              10079b80 f   libucrtd:contrlfp.obj
 0001:00078c70       _fegetenv                  10079c70 f   libucrtd:fegetenv.obj
 0001:00078c90       _fesetenv                  10079c90 f   libucrtd:fesetenv.obj
 0001:00078d00       _feholdexcept              10079d00 f   libucrtd:feholdexcept.obj
 0001:00078d70       ??$__acrt_fenv_shift_bits@W4__acrt_fenv_abstract_control@@@@YA?AW4__acrt_fenv_abstract_control@@W40@0I@Z 10079d70 f i libucrtd:_fenvutils.obj
 0001:00078d90       ??$__acrt_fenv_shift_bits@W4__acrt_fenv_abstract_status@@@@YA?AW4__acrt_fenv_abstract_status@@W40@0I@Z 10079d90 f i libucrtd:_fenvutils.obj
 0001:00078db0       ??$__acrt_fenv_translate_bit@W4__acrt_fenv_abstract_control@@W4__acrt_fenv_machine_sse_control@@@@YA?AW4__acrt_fenv_abstract_control@@W4__acrt_fenv_machine_sse_control@@0W40@1@Z 10079db0 f i libucrtd:_fenvutils.obj
 0001:00078df0       ??$__acrt_fenv_translate_bit@W4__acrt_fenv_abstract_control@@W4__acrt_fenv_machine_x87_control@@@@YA?AW4__acrt_fenv_abstract_control@@W4__acrt_fenv_machine_x87_control@@0W40@1@Z 10079df0 f i libucrtd:_fenvutils.obj
 0001:00078e30       ??$__acrt_fenv_translate_bit@W4__acrt_fenv_abstract_status@@W4__acrt_fenv_machine_sse_status@@@@YA?AW4__acrt_fenv_abstract_status@@W4__acrt_fenv_machine_sse_status@@0W40@1@Z 10079e30 f i libucrtd:_fenvutils.obj
 0001:00078e70       ??$__acrt_fenv_translate_bit@W4__acrt_fenv_abstract_status@@W4__acrt_fenv_machine_x87_status@@@@YA?AW4__acrt_fenv_abstract_status@@W4__acrt_fenv_machine_x87_status@@0W40@1@Z 10079e70 f i libucrtd:_fenvutils.obj
 0001:00078eb0       ??$__acrt_fenv_translate_bit@W4__acrt_fenv_machine_sse_control@@W4__acrt_fenv_abstract_control@@@@YA?AW4__acrt_fenv_machine_sse_control@@W4__acrt_fenv_abstract_control@@0W40@1@Z 10079eb0 f i libucrtd:_fenvutils.obj
 0001:00078ef0       ??$__acrt_fenv_translate_bit@W4__acrt_fenv_machine_sse_status@@W4__acrt_fenv_abstract_status@@@@YA?AW4__acrt_fenv_machine_sse_status@@W4__acrt_fenv_abstract_status@@0W40@1@Z 10079ef0 f i libucrtd:_fenvutils.obj
 0001:00078f30       ??$__acrt_fenv_translate_bit@W4__acrt_fenv_machine_x87_control@@W4__acrt_fenv_abstract_control@@@@YA?AW4__acrt_fenv_machine_x87_control@@W4__acrt_fenv_abstract_control@@0W40@1@Z 10079f30 f i libucrtd:_fenvutils.obj
 0001:00078f70       ??$__acrt_fenv_translate_bit@W4__acrt_fenv_machine_x87_status@@W4__acrt_fenv_abstract_status@@@@YA?AW4__acrt_fenv_machine_x87_status@@W4__acrt_fenv_abstract_status@@0W40@1@Z 10079f70 f i libucrtd:_fenvutils.obj
 0001:00078fb0       ??$__acrt_fenv_unshift_bits@W4__acrt_fenv_abstract_control@@@@YA?AW4__acrt_fenv_abstract_control@@W40@0I@Z 10079fb0 f i libucrtd:_fenvutils.obj
 0001:00078fd0       ??$__acrt_fenv_unshift_bits@W4__acrt_fenv_abstract_status@@@@YA?AW4__acrt_fenv_abstract_status@@W40@0I@Z 10079fd0 f i libucrtd:_fenvutils.obj
 0001:00079a00       ??I@YA?AW4__acrt_fenv_abstract_control@@W40@0@Z 1007aa00 f i libucrtd:_fenvutils.obj
 0001:00079a10       ??I@YA?AW4__acrt_fenv_abstract_status@@W40@0@Z 1007aa10 f i libucrtd:_fenvutils.obj
 0001:00079a20       ??I@YA?AW4__acrt_fenv_machine_sse_control@@W40@0@Z 1007aa20 f i libucrtd:_fenvutils.obj
 0001:00079a40       ??I@YA?AW4__acrt_fenv_machine_sse_status@@W40@0@Z 1007aa40 f i libucrtd:_fenvutils.obj
 0001:00079a50       ??I@YA?AW4__acrt_fenv_machine_x87_control@@W40@0@Z 1007aa50 f i libucrtd:_fenvutils.obj
 0001:00079a70       ??I@YA?AW4__acrt_fenv_machine_x87_status@@W40@0@Z 1007aa70 f i libucrtd:_fenvutils.obj
 0001:00079a80       ??U@YA?AW4__acrt_fenv_abstract_control@@W40@0@Z 1007aa80 f i libucrtd:_fenvutils.obj
 0001:00079a90       ??U@YA?AW4__acrt_fenv_abstract_status@@W40@0@Z 1007aa90 f i libucrtd:_fenvutils.obj
 0001:00079aa0       ??U@YA?AW4__acrt_fenv_machine_sse_control@@W40@0@Z 1007aaa0 f i libucrtd:_fenvutils.obj
 0001:00079ac0       ??U@YA?AW4__acrt_fenv_machine_x87_control@@W40@0@Z 1007aac0 f i libucrtd:_fenvutils.obj
 0001:00079ae0       ??_5@YAAAW4__acrt_fenv_abstract_control@@AAW40@W40@@Z 1007aae0 f i libucrtd:_fenvutils.obj
 0001:00079b00       ??_5@YAAAW4__acrt_fenv_abstract_status@@AAW40@W40@@Z 1007ab00 f i libucrtd:_fenvutils.obj
 0001:00079b20       ??_5@YAAAW4__acrt_fenv_machine_sse_control@@AAW40@W40@@Z 1007ab20 f i libucrtd:_fenvutils.obj
 0001:00079b40       ??_5@YAAAW4__acrt_fenv_machine_sse_status@@AAW40@W40@@Z 1007ab40 f i libucrtd:_fenvutils.obj
 0001:00079b60       ??_5@YAAAW4__acrt_fenv_machine_x87_control@@AAW40@W40@@Z 1007ab60 f i libucrtd:_fenvutils.obj
 0001:00079b80       ??_5@YAAAW4__acrt_fenv_machine_x87_status@@AAW40@W40@@Z 1007ab80 f i libucrtd:_fenvutils.obj
 0001:00079ba0       ?__acrt_fenv_shift_abstract_sse_control@@YA?AW4__acrt_fenv_abstract_control@@W41@@Z 1007aba0 f i libucrtd:_fenvutils.obj
 0001:00079be0       ?__acrt_fenv_shift_abstract_sse_status@@YA?AW4__acrt_fenv_abstract_status@@W41@@Z 1007abe0 f i libucrtd:_fenvutils.obj
 0001:00079c00       ?__acrt_fenv_shift_abstract_x87_control@@YA?AW4__acrt_fenv_abstract_control@@W41@@Z 1007ac00 f i libucrtd:_fenvutils.obj
 0001:00079c40       ?__acrt_fenv_shift_abstract_x87_status@@YA?AW4__acrt_fenv_abstract_status@@W41@@Z 1007ac40 f i libucrtd:_fenvutils.obj
 0001:00079c60       ?__acrt_fenv_unshift_abstract_sse_control@@YA?AW4__acrt_fenv_abstract_control@@W41@@Z 1007ac60 f i libucrtd:_fenvutils.obj
 0001:00079ca0       ?__acrt_fenv_unshift_abstract_sse_status@@YA?AW4__acrt_fenv_abstract_status@@W41@@Z 1007aca0 f i libucrtd:_fenvutils.obj
 0001:00079cc0       ?__acrt_fenv_unshift_abstract_x87_control@@YA?AW4__acrt_fenv_abstract_control@@W41@@Z 1007acc0 f i libucrtd:_fenvutils.obj
 0001:00079d00       ?__acrt_fenv_unshift_abstract_x87_status@@YA?AW4__acrt_fenv_abstract_status@@W41@@Z 1007ad00 f i libucrtd:_fenvutils.obj
 0001:0007a230       ___acrt_fenv_expand_round_control 1007b230 f   libucrtd:_fenvutils.obj
 0001:0007a270       ___acrt_fenv_get_common_round_control 1007b270 f   libucrtd:_fenvutils.obj
 0001:0007a2d0       ___acrt_fenv_get_control   1007b2d0 f   libucrtd:_fenvutils.obj
 0001:0007a350       ___acrt_fenv_get_fp_status_word_from_exception_mask 1007b350 f   libucrtd:_fenvutils.obj
 0001:0007a390       ___acrt_fenv_get_status    1007b390 f   libucrtd:_fenvutils.obj
 0001:0007a400       ___acrt_fenv_set_control   1007b400 f   libucrtd:_fenvutils.obj
 0001:0007a440       ___acrt_fenv_set_status    1007b440 f   libucrtd:_fenvutils.obj
 0001:0007b9e0       __utf8_no_of_trailbytes    1007c9e0 f i libucrtd:write.obj
 0001:0007ba00       __write                    1007ca00 f   libucrtd:write.obj
 0001:0007bc50       __write_nolock             1007cc50 f   libucrtd:write.obj
 0001:0007c810       __lseek                    1007d810 f   libucrtd:lseek.obj
 0001:0007c830       __lseek_nolock             1007d830 f   libucrtd:lseek.obj
 0001:0007c850       __lseeki64                 1007d850 f   libucrtd:lseek.obj
 0001:0007c870       __lseeki64_nolock          1007d870 f   libucrtd:lseek.obj
 0001:0007c890       ___acrt_stdio_allocate_buffer_nolock 1007d890 f   libucrtd:_getbuf.obj
 0001:0007c9b0       __fclose_nolock            1007d9b0 f   libucrtd:fclose.obj
 0001:0007caf0       _fclose                    1007daf0 f   libucrtd:fclose.obj
 0001:0007ce50       __commit                   1007de50 f   libucrtd:commit.obj
 0001:0007cfb0       ___ascii_wcsicmp           1007dfb0 f   libucrtd:wcsicmp.obj
 0001:0007d020       __towlower_fast_internal   1007e020 f i libucrtd:wcsicmp.obj
 0001:0007d060       __towlower_internal        1007e060 f i libucrtd:wcsicmp.obj
 0001:0007d0a0       __wcsicmp                  1007e0a0 f   libucrtd:wcsicmp.obj
 0001:0007d1e0       __wcsicmp_l                1007e1e0 f   libucrtd:wcsicmp.obj
 0001:0007d3c0       ___ascii_wcsnicmp          1007e3c0 f   libucrtd:wcsnicmp.obj
 0001:0007d450       __wcsnicmp                 1007e450 f   libucrtd:wcsnicmp.obj
 0001:0007d590       __wcsnicmp_l               1007e590 f   libucrtd:wcsnicmp.obj
 0001:0007d790       ___strncnt                 1007e790 f   libucrtd:strncnt.obj
 0001:0007d7e0       ___acrt_CompareStringW     1007e7e0 f   libucrtd:comparestringw.obj
 0001:0007d890       __strnicmp                 1007e890 f   libucrtd:strnicmp.obj
 0001:0007da50       __strnicmp_l               1007ea50 f   libucrtd:strnicmp.obj
 0001:0007e120       ___acrt_CompareStringA     1007f120 f   libucrtd:comparestringa.obj
 0001:0007e180       ?__c16rtomb_utf8@__crt_mbstring@@YAIPAD_SPAU_Mbstatet@@@Z 1007f180 f   libucrtd:c16rtomb.obj
 0001:0007e380       _c16rtomb                  1007f380 f   libucrtd:c16rtomb.obj
 0001:0007e3a0       ___acrt_initialize_sse2    1007f3a0 f   libucrtd:mathfcns.obj
 0001:0007e3c0       __set_SSE2_enable          1007f3c0 f   libucrtd:mathfcns.obj
 0001:0007e410       __CIlog10                  1007f410 f   libucrtd:log10_impl.obj
 0001:0007e44b       __CIlog10_default          1007f44b f   libucrtd:log10_impl.obj
 0001:0007e45f       __log10_default            1007f45f     libucrtd:log10_impl.obj
 0001:0007e520       __CIlog10_pentium4         1007f520 f   libucrtd:log10_pentium4.obj
 0001:0007e538       __log10_pentium4           1007f538     libucrtd:log10_pentium4.obj
 0001:0007e7b0       ___libm_error_support      1007f7b0 f   libucrtd:libm_error.obj
 0001:0007ed70       ___libm_setusermatherr     1007fd70 f   libucrtd:libm_error.obj
 0001:0007edb0       __ceil_default             1007fdb0 f   libucrtd:ceil.obj
 0001:0007f0e0       ___control87_2             100800e0 f   libucrtd:ieee87.obj
 0001:0007f210       ___fpreset_sse2            10080210 f   libucrtd:ieee87.obj
 0001:0007f580       __clearfp                  10080580 f   libucrtd:ieee87.obj
 0001:0007f5d0       __control87                100805d0 f   libucrtd:ieee87.obj
 0001:0007f680       __controlfp                10080680 f   libucrtd:ieee87.obj
 0001:0007f6a0       __fpreset                  100806a0 f   libucrtd:ieee87.obj
 0001:0007f860       __set_controlfp            10080860 f   libucrtd:ieee87.obj
 0001:0007f8f0       __statusfp                 100808f0 f   libucrtd:ieee87.obj
 0001:0007f940       __statusfp2                10080940 f   libucrtd:ieee87.obj
 0001:0007fa57       __putwch                   10080a57 f   libucrtd:putwch.obj
 0001:0007fa84       __putwch_nolock            10080a84 f   libucrtd:putwch.obj
 0001:000804c0       __read                     100814c0 f   libucrtd:read.obj
 0001:000807a0       __read_nolock              100817a0 f   libucrtd:read.obj
 0001:000813f0       __close                    100823f0 f   libucrtd:close.obj
 0001:00081570       __close_nolock             10082570 f   libucrtd:close.obj
 0001:000815d0       ??$?RU__crt_stdio_stream_data@@@__crt_internal_free_policy@@QBEXQBU__crt_stdio_stream_data@@@Z 100825d0 f i libucrtd:stream.obj
 0001:000815f0       ??0?$__crt_unique_heap_ptr@U__crt_stdio_stream_data@@U__crt_internal_free_policy@@@@QAE@QAU__crt_stdio_stream_data@@@Z 100825f0 f i libucrtd:stream.obj
 0001:00081610       ??0__crt_stdio_stream@@QAE@XZ 10082610 f i libucrtd:stream.obj
 0001:00081630       ??1?$__crt_unique_heap_ptr@U__crt_stdio_stream_data@@U__crt_internal_free_policy@@@@QAE@XZ 10082630 f i libucrtd:stream.obj
 0001:00081650       ?__acrt_stdio_allocate_stream@@YA?AV__crt_stdio_stream@@XZ 10082650 f   libucrtd:stream.obj
 0001:00081740       ?__acrt_stdio_free_stream@@YAXV__crt_stdio_stream@@@Z 10082740 f   libucrtd:stream.obj
 0001:000817c0       ?deallocate@__crt_stdio_stream@@QAEXXZ 100827c0 f i libucrtd:stream.obj
 0001:000817e0       ?detach@?$__crt_unique_heap_ptr@U__crt_stdio_stream_data@@U__crt_internal_free_policy@@@@QAEPAU__crt_stdio_stream_data@@XZ 100827e0 f i libucrtd:stream.obj
 0001:00081950       ?lock@__crt_stdio_stream@@QBEXXZ 10082950 f i libucrtd:stream.obj
 0001:00081970       ?release@?$__crt_unique_heap_ptr@U__crt_stdio_stream_data@@U__crt_internal_free_policy@@@@QAEXXZ 10082970 f i libucrtd:stream.obj
 0001:000819a0       ?try_allocate@__crt_stdio_stream@@QAE_NXZ 100829a0 f i libucrtd:stream.obj
 0001:000819f0       ?unlock@__crt_stdio_stream@@QBEXXZ 100829f0 f i libucrtd:stream.obj
 0001:00081a10       __towlower_l               10082a10 f   libucrtd:towlower.obj
 0001:00081b10       _towlower                  10082b10 f   libucrtd:towlower.obj
 0001:00081b30       ___ascii_strnicmp          10082b30 f   libucrtd:_strnicm.obj
 0001:00081bc0       __fFEXP                    10082bc0 f   libucrtd:87tran.obj
 0001:00081c17       __rtinfpopse               10082c17     libucrtd:87tran.obj
 0001:00081c19       __rtinfnpopse              10082c19     libucrtd:87tran.obj
 0001:00081c29       __fFLN                     10082c29     libucrtd:87tran.obj
 0001:00081cde       __rtinfpop                 10082cde     libucrtd:87tran.obj
 0001:00081ce0       __rtinfnpop                10082ce0     libucrtd:87tran.obj
 0001:00081cf0       __rtforexpinf              10082cf0 f   libucrtd:87tran.obj
 0001:00081cfd       __ffexpm1                  10082cfd     libucrtd:87tran.obj
 0001:00081db0       __trandisp1                10082db0 f   libucrtd:87disp.obj
 0001:00081e25       __trandisp2                10082e25 f   libucrtd:87disp.obj
 0001:00081ebf       __rttospopde               10082ebf     libucrtd:87disp.obj
 0001:00081ec4       __rttospop                 10082ec4     libucrtd:87disp.obj
 0001:00081ed0       __rtnospop                 10082ed0 f   libucrtd:87disp.obj
 0001:00081ee0       __rttosnpop                10082ee0 f   libucrtd:87disp.obj
 0001:00081ee1       __rtnospopde               10082ee1     libucrtd:87disp.obj
 0001:00081ee8       __rtzeropop                10082ee8     libucrtd:87disp.obj
 0001:00081eea       __rtzeronpop               10082eea     libucrtd:87disp.obj
 0001:00081ef0       __rtzerospop               10082ef0 f   libucrtd:87disp.obj
 0001:00081efd       __rtonepop                 10082efd     libucrtd:87disp.obj
 0001:00081f00       __rtonenpop                10082f00 f   libucrtd:87disp.obj
 0001:00081f10       __tosnan1                  10082f10 f   libucrtd:87disp.obj
 0001:00081f40       __nosnan2                  10082f40 f   libucrtd:87disp.obj
 0001:00081f50       __tosnan2                  10082f50 f   libucrtd:87disp.obj
 0001:00081f80       __nan2                     10082f80 f   libucrtd:87disp.obj
 0001:00081fc0       __rtindfpop                10082fc0 f   libucrtd:87disp.obj
 0001:00081fc2       __rtindfnpop               10082fc2     libucrtd:87disp.obj
 0001:00081fd3       __rttosnpopde              10082fd3     libucrtd:87disp.obj
 0001:00081fe0       __rtatan2inf               10082fe0 f   libucrtd:87disp.obj
 0001:00081ffd       __rtchsifneg               10082ffd     libucrtd:87disp.obj
 0001:00082010       ___setfflag                10083010 f   libucrtd:fp_flags.obj
 0001:00082030       __twoToTOS                 10083030 f   libucrtd:common.obj
 0001:00082045       __load_CW                  10083045 f   libucrtd:common.obj
 0001:0008205c       __convertTOStoQNaN         1008305c f   libucrtd:common.obj
 0001:00082075       __fload_withFB             10083075 f   libucrtd:common.obj
 0001:000820b8       __checkTOS_withFB          100830b8 f   libucrtd:common.obj
 0001:000820ce       __fast_exit                100830ce f   libucrtd:common.obj
 0001:000820db       __math_exit                100830db f   libucrtd:common.obj
 0001:00082105       __check_overflow_exit      10083105 f   libucrtd:common.obj
 0001:00082119       __check_range_exit         10083119 f   libucrtd:common.obj
 0001:000821c0       __startTwoArgErrorHandling 100831c0 f   libucrtd:genexcep.obj
 0001:000821d7       __startOneArgErrorHandling 100831d7 f   libucrtd:genexcep.obj
 0001:00082220       __frnd                     10083220 f   libucrtd:frnd.obj
 0001:00082240       __errcode                  10083240 f   libucrtd:fpexcept.obj
 0001:000822b0       __except1                  100832b0 f   libucrtd:fpexcept.obj
 0001:000823b0       __except2                  100833b0 f   libucrtd:fpexcept.obj
 0001:00082510       __handle_exc               10083510 f   libucrtd:fpexcept.obj
 0001:00082830       __handle_qnan2             10083830 f   libucrtd:fpexcept.obj
 0001:00082850       __raise_exc                10083850 f   libucrtd:fpexcept.obj
 0001:00082880       __raise_exc_ex             10083880 f   libucrtd:fpexcept.obj
 0001:00082e00       __raise_excf               10083e00 f   libucrtd:fpexcept.obj
 0001:00082e30       __set_errno_from_matherr   10083e30 f   libucrtd:fpexcept.obj
 0001:00082e70       __umatherr                 10083e70 f   libucrtd:fpexcept.obj
 0001:00082f10       __add_exp                  10083f10 f   libucrtd:util.obj
 0001:00082f50       __decomp                   10083f50 f   libucrtd:util.obj
 0001:00083080       __get_exp                  10084080 f   libucrtd:util.obj
 0001:000830b0       __set_bexp                 100840b0 f   libucrtd:util.obj
 0001:000830e0       __set_exp                  100840e0 f   libucrtd:util.obj
 0001:00083120       __sptype                   10084120 f   libucrtd:util.obj
 0001:000831a0       ___clrfp_sse2              100841a0 f   libucrtd:fpctrl.obj
 0001:000831e0       ___ctrlfp_sse2             100841e0 f   libucrtd:fpctrl.obj
 0001:00083240       ___fclrf_sse2              10084240 f   libucrtd:fpctrl.obj
 0001:00083260       ___get_fpsr_sse2           10084260 f   libucrtd:fpctrl.obj
 0001:00083290       ___set_fpsr_sse2           10084290 f   libucrtd:fpctrl.obj
 0001:00083370       ___set_statfp_sse2         10084370 f   libucrtd:fpctrl.obj
 0001:000833a0       ___statfp_sse2             100843a0 f   libucrtd:fpctrl.obj
 0001:000833d0       __clrfp                    100843d0 f   libucrtd:fpctrl.obj
 0001:000833f0       __ctrlfp                   100843f0 f   libucrtd:fpctrl.obj
 0001:00083420       __set_statfp               10084420 f   libucrtd:fpctrl.obj
 0001:00083490       __statfp                   10084490 f   libucrtd:fpctrl.obj
 0001:00083552       ___dcrt_lowio_ensure_console_output_initialized 10084552 f   libucrtd:initcon.obj
 0001:00083571       ___dcrt_terminate_console_output 10084571 f   libucrtd:initcon.obj
 0001:00083588       ___dcrt_write_console      10084588 f   libucrtd:initcon.obj
 0001:000835e0       ___acrt_LCMapStringW       100845e0 f   libucrtd:lcmapstringw.obj
 0001:00083640       __d_inttype                10084640 f   libucrtd:powhlp.obj
 0001:000836d0       __powhlp                   100846d0 f   libucrtd:powhlp.obj
 0001:00083870       __87except                 10084870 f   libucrtd:87except.obj
 0001:00083a60       __chgsign                  10084a60 f   libucrtd:ieeemisc.obj
 0001:00083aa0       __chgsignf                 10084aa0 f   libucrtd:ieeemisc.obj
 0001:00083ae0       __copysign                 10084ae0 f   libucrtd:ieeemisc.obj
 0001:00083b20       __copysignf                10084b20 f   libucrtd:ieeemisc.obj
 0001:00083b70       __finite                   10084b70 f   libucrtd:ieeemisc.obj
 0001:00083b90       __fpclass                  10084b90 f   libucrtd:ieeemisc.obj
 0001:00083c90       __isnan                    10084c90 f   libucrtd:ieeemisc.obj
 0001:00083ce0       __logb                     10084ce0 f   libucrtd:ieeemisc.obj
 0001:00083e00       __nextafter                10084e00 f   libucrtd:ieeemisc.obj
 0001:00083e30       __scalb                    10084e30 f   libucrtd:ieeemisc.obj
 0001:00083e50       _ldexp                     10084e50 f   libucrtd:ldexp.obj
 0001:00084150       _nextafter                 10085150 f   libucrtd:nextafter.obj
 0001:00084180       _nexttoward                10085180 f   libucrtd:nexttoward.obj
 0001:000845b0       __d_int                    100855b0 f   libucrtd:_test.obj
 0001:00084860       __dtest                    10085860 f   libucrtd:_test.obj
 0001:00084980       __fd_int                   10085980 f   libucrtd:_test.obj
 0001:00084b60       __fdtest                   10085b60 f   libucrtd:_test.obj
 0001:00084c30       __fperrraise               10085c30 f   libucrtd:_test.obj
 0001:00084c60       __ld_int                   10085c60 f   libucrtd:_test.obj
 0001:00084c80       __ldtest                   10085c80 f   libucrtd:_test.obj
 0001:00084ca0       ??_4@YAAAW4__acrt_fenv_abstract_status@@AAW40@W40@@Z 10085ca0 f i libucrtd:fegetexceptflag.obj
 0001:00084cc0       _fegetexceptflag           10085cc0 f   libucrtd:fegetexceptflag.obj
 0001:00084d10       ??S@YA?AW4__acrt_fenv_abstract_status@@W40@@Z 10085d10 f i libucrtd:fesetexceptflag.obj
 0001:00084d20       _fesetexceptflag           10085d20 f   libucrtd:fesetexceptflag.obj
 0001:00084de0       _fetestexcept              10085de0 f   libucrtd:fetestexcept.obj
 0001:00084e07       _IsDebuggerPresent@0       10085e07 f   kernel32:KERNEL32.dll
 0001:00084e0d       _OutputDebugStringW@4      10085e0d f   kernel32:KERNEL32.dll
 0001:00084e13       _UnhandledExceptionFilter@4 10085e13 f   kernel32:KERNEL32.dll
 0001:00084e19       _SetUnhandledExceptionFilter@4 10085e19 f   kernel32:KERNEL32.dll
 0001:00084e1f       _GetCurrentProcess@0       10085e1f f   kernel32:KERNEL32.dll
 0001:00084e25       _TerminateProcess@8        10085e25 f   kernel32:KERNEL32.dll
 0001:00084e2b       _IsProcessorFeaturePresent@4 10085e2b f   kernel32:KERNEL32.dll
 0001:00084e31       _GetStartupInfoW@4         10085e31 f   kernel32:KERNEL32.dll
 0001:00084e37       _WideCharToMultiByte@32    10085e37 f   kernel32:KERNEL32.dll
 0001:00084e3d       _QueryPerformanceCounter@4 10085e3d f   kernel32:KERNEL32.dll
 0001:00084e43       _GetCurrentProcessId@0     10085e43 f   kernel32:KERNEL32.dll
 0001:00084e49       _GetCurrentThreadId@0      10085e49 f   kernel32:KERNEL32.dll
 0001:00084e4f       _GetSystemTimeAsFileTime@4 10085e4f f   kernel32:KERNEL32.dll
 0001:00084e55       _InitializeSListHead@4     10085e55 f   kernel32:KERNEL32.dll
 0001:00084e5b       _HeapAlloc@12              10085e5b f   kernel32:KERNEL32.dll
 0001:00084e61       _HeapFree@12               10085e61 f   kernel32:KERNEL32.dll
 0001:00084e67       _GetProcessHeap@0          10085e67 f   kernel32:KERNEL32.dll
 0001:00084e6d       _VirtualQuery@12           10085e6d f   kernel32:KERNEL32.dll
 0001:00084e73       _RtlUnwind@16              10085e73 f   kernel32:KERNEL32.dll
 0001:00084e79       _InterlockedPushEntrySList@8 10085e79 f   kernel32:KERNEL32.dll
 0001:00084e7f       _InterlockedFlushSList@4   10085e7f f   kernel32:KERNEL32.dll
 0001:00084e85       _InitializeCriticalSectionAndSpinCount@8 10085e85 f   kernel32:KERNEL32.dll
 0001:00084e8b       _TlsAlloc@0                10085e8b f   kernel32:KERNEL32.dll
 0001:00084e91       _TlsGetValue@4             10085e91 f   kernel32:KERNEL32.dll
 0001:00084e97       _TlsSetValue@8             10085e97 f   kernel32:KERNEL32.dll
 0001:00084e9d       _TlsFree@4                 10085e9d f   kernel32:KERNEL32.dll
 0001:00084ea3       _GetModuleHandleExW@12     10085ea3 f   kernel32:KERNEL32.dll
 0001:00084ea9       _ExitProcess@4             10085ea9 f   kernel32:KERNEL32.dll
 0001:00084eaf       _HeapValidate@12           10085eaf f   kernel32:KERNEL32.dll
 0001:00084eb5       _GetSystemInfo@4           10085eb5 f   kernel32:KERNEL32.dll
 0001:00084ebb       _GetStdHandle@4            10085ebb f   kernel32:KERNEL32.dll
 0001:00084ec1       _GetFileType@4             10085ec1 f   kernel32:KERNEL32.dll
 0001:00084ec7       _WriteFile@20              10085ec7 f   kernel32:KERNEL32.dll
 0001:00084ecd       _WriteConsoleW@20          10085ecd f   kernel32:KERNEL32.dll
 0001:00084ed3       _SetConsoleCtrlHandler@8   10085ed3 f   kernel32:KERNEL32.dll
 0001:00084ed9       _GetCurrentThread@0        10085ed9 f   kernel32:KERNEL32.dll
 0001:00084edf       _HeapSize@12               10085edf f   kernel32:KERNEL32.dll
 0001:00084ee5       _HeapReAlloc@16            10085ee5 f   kernel32:KERNEL32.dll
 0001:00084eeb       _FindClose@4               10085eeb f   kernel32:KERNEL32.dll
 0001:00084ef1       _FindFirstFileExW@24       10085ef1 f   kernel32:KERNEL32.dll
 0001:00084ef7       _FindNextFileW@8           10085ef7 f   kernel32:KERNEL32.dll
 0001:00084efd       _IsValidCodePage@4         10085efd f   kernel32:KERNEL32.dll
 0001:00084f03       _GetACP@0                  10085f03 f   kernel32:KERNEL32.dll
 0001:00084f09       _GetOEMCP@0                10085f09 f   kernel32:KERNEL32.dll
 0001:00084f0f       _GetCPInfo@8               10085f0f f   kernel32:KERNEL32.dll
 0001:00084f15       _GetCommandLineA@0         10085f15 f   kernel32:KERNEL32.dll
 0001:00084f1b       _GetCommandLineW@0         10085f1b f   kernel32:KERNEL32.dll
 0001:00084f21       _GetEnvironmentStringsW@0  10085f21 f   kernel32:KERNEL32.dll
 0001:00084f27       _FreeEnvironmentStringsW@4 10085f27 f   kernel32:KERNEL32.dll
 0001:00084f2d       _SetEnvironmentVariableW@8 10085f2d f   kernel32:KERNEL32.dll
 0001:00084f33       _GetDateFormatW@24         10085f33 f   kernel32:KERNEL32.dll
 0001:00084f39       _GetTimeFormatW@24         10085f39 f   kernel32:KERNEL32.dll
 0001:00084f3f       _CompareStringW@24         10085f3f f   kernel32:KERNEL32.dll
 0001:00084f45       _LCMapStringW@24           10085f45 f   kernel32:KERNEL32.dll
 0001:00084f4b       _GetLocaleInfoW@16         10085f4b f   kernel32:KERNEL32.dll
 0001:00084f51       _IsValidLocale@8           10085f51 f   kernel32:KERNEL32.dll
 0001:00084f57       _GetUserDefaultLCID@0      10085f57 f   kernel32:KERNEL32.dll
 0001:00084f5d       _EnumSystemLocalesW@8      10085f5d f   kernel32:KERNEL32.dll
 0001:00084f63       _HeapQueryInformation@20   10085f63 f   kernel32:KERNEL32.dll
 0001:00084f69       _GetFileSizeEx@8           10085f69 f   kernel32:KERNEL32.dll
 0001:00084f6f       _SetFilePointerEx@20       10085f6f f   kernel32:KERNEL32.dll
 0001:00084f75       _GetStringTypeW@16         10085f75 f   kernel32:KERNEL32.dll
 0001:00084f7b       _SetStdHandle@8            10085f7b f   kernel32:KERNEL32.dll
 0001:00084f81       _GetConsoleOutputCP@0      10085f81 f   kernel32:KERNEL32.dll
 0001:00084f87       _GetConsoleMode@8          10085f87 f   kernel32:KERNEL32.dll
 0001:00084f8d       _FlushFileBuffers@4        10085f8d f   kernel32:KERNEL32.dll
 0001:00084f93       _ReadFile@20               10085f93 f   kernel32:KERNEL32.dll
 0001:00084f99       _ReadConsoleW@20           10085f99 f   kernel32:KERNEL32.dll
 0001:00084f9f       _CloseHandle@4             10085f9f f   kernel32:KERNEL32.dll
 0001:00084fa5       _CreateFileW@28            10085fa5 f   kernel32:KERNEL32.dll
 0001:00084fb0       __FindPESection            10085fb0 f   LIBCMTD:pesect.obj
 0001:00085030       __IsNonwritableInCurrentImage 10086030 f   LIBCMTD:pesect.obj
 0001:00085160       __ValidateImageBase        10086160 f   LIBCMTD:pesect.obj
 0001:000851c0       __allshl                   100861c0 f   LIBCMTD:llshl.obj
 0001:000851e0       __aulldiv                  100861e0 f   LIBCMTD:ulldiv.obj
 0001:00085250       __aullrem                  10086250 f   LIBCMTD:ullrem.obj
 0001:000852d0       __allmul                   100862d0 f   LIBCMTD:llmul.obj
 0001:00085310       __alldiv                   10086310 f   LIBCMTD:lldiv.obj
 0001:000853c0       __allrem                   100863c0 f   LIBCMTD:llrem.obj
 0001:00085480       __aullshr                  10086480 f   LIBCMTD:ullshr.obj
 0001:000854a0       __alloca_probe_16          100864a0 f   LIBCMTD:alloca16.obj
 0001:000854b6       __alloca_probe_8           100864b6     LIBCMTD:alloca16.obj
 0001:000854d0       __ftoi2                    100864d0 f   LIBCMTD:ftol2.obj
 0001:000854d0       __ftol2_sse                100864d0     LIBCMTD:ftol2.obj
 0001:000854d0       __ftol2_sse_excpt          100864d0     LIBCMTD:ftol2.obj
 0001:00085550       __ftoui2                   10086550 f   LIBCMTD:ftol2.obj
 0001:00085600       __ftol2                    10086600 f   LIBCMTD:ftol2.obj
 0001:000856b0       __ftoul2                   100866b0 f   LIBCMTD:ftol2.obj
 0001:00085770       __initialize_default_precision 10086770 f   LIBCMTD:default_precision.obj
 0001:000857a0       __SEH_prolog4              100867a0 f   LIBCMTD:sehprolg4.obj
 0001:000857e6       __SEH_epilog4              100867e6 f   LIBCMTD:sehprolg4.obj
 0001:00085800       _strrchr                   10086800 f   libvcruntimed:strrchr.obj
 0001:00085940       _strchr                    10086940 f   libvcruntimed:strchr.obj
 0001:000859ae       ___from_strstr_to_strchr   100869ae     libvcruntimed:strchr.obj
 0001:00085a70       _wcschr                    10086a70 f   libvcruntimed:wcschr.obj
 0001:00085be0       __filter_x86_sse2_floating_point_exception_default 10086be0 f   LIBCMTD:x86_exception_filter.obj
 0001:00085be0       __filter_x86_sse2_floating_point_exception 10086be0 f   LIBCMTD:x86_exception_filter.obj
 0002:00000000       __imp__RegQueryInfoKeyW@48 10087000     advapi32:ADVAPI32.dll
 0002:00000004       __imp__RegOpenKeyExW@20    10087004     advapi32:ADVAPI32.dll
 0002:00000008       __imp__RegEnumKeyExW@32    10087008     advapi32:ADVAPI32.dll
 0002:0000000c       __imp__RegDeleteValueW@8   1008700c     advapi32:ADVAPI32.dll
 0002:00000010       __imp__RegDeleteKeyW@8     10087010     advapi32:ADVAPI32.dll
 0002:00000014       __imp__RegCreateKeyExW@36  10087014     advapi32:ADVAPI32.dll
 0002:00000018       __imp__RegCloseKey@4       10087018     advapi32:ADVAPI32.dll
 0002:0000001c       __imp__RegSetValueExW@24   1008701c     advapi32:ADVAPI32.dll
 0002:00000020       \177ADVAPI32_NULL_THUNK_DATA 10087020     advapi32:ADVAPI32.dll
 0002:00000024       __imp__DisableThreadLibraryCalls@4 10087024     kernel32:KERNEL32.dll
 0002:00000028       __imp__FreeLibrary@4       10087028     kernel32:KERNEL32.dll
 0002:0000002c       __imp__GetModuleFileNameW@12 1008702c     kernel32:KERNEL32.dll
 0002:00000030       __imp__GetModuleHandleW@4  10087030     kernel32:KERNEL32.dll
 0002:00000034       __imp__GetProcAddress@8    10087034     kernel32:KERNEL32.dll
 0002:00000038       __imp__LoadLibraryExW@12   10087038     kernel32:KERNEL32.dll
 0002:0000003c       __imp__LoadResource@8      1008703c     kernel32:KERNEL32.dll
 0002:00000040       __imp__LeaveCriticalSection@4 10087040     kernel32:KERNEL32.dll
 0002:00000044       __imp__FindResourceW@12    10087044     kernel32:KERNEL32.dll
 0002:00000048       __imp__lstrcmpiW@8         10087048     kernel32:KERNEL32.dll
 0002:0000004c       __imp__MultiByteToWideChar@24 1008704c     kernel32:KERNEL32.dll
 0002:00000050       __imp__CloseHandle@4       10087050     kernel32:KERNEL32.dll
 0002:00000054       __imp__ReadConsoleW@20     10087054     kernel32:KERNEL32.dll
 0002:00000058       __imp__ReadFile@20         10087058     kernel32:KERNEL32.dll
 0002:0000005c       __imp__FlushFileBuffers@4  1008705c     kernel32:KERNEL32.dll
 0002:00000060       __imp__EnterCriticalSection@4 10087060     kernel32:KERNEL32.dll
 0002:00000064       __imp__EncodePointer@4     10087064     kernel32:KERNEL32.dll
 0002:00000068       __imp__DeleteCriticalSection@4 10087068     kernel32:KERNEL32.dll
 0002:0000006c       __imp__InitializeCriticalSectionEx@12 1008706c     kernel32:KERNEL32.dll
 0002:00000070       __imp__SetLastError@4      10087070     kernel32:KERNEL32.dll
 0002:00000074       __imp__GetLastError@0      10087074     kernel32:KERNEL32.dll
 0002:00000078       __imp__RaiseException@16   10087078     kernel32:KERNEL32.dll
 0002:0000007c       __imp__SizeofResource@8    1008707c     kernel32:KERNEL32.dll
 0002:00000080       __imp__DecodePointer@4     10087080     kernel32:KERNEL32.dll
 0002:00000084       __imp__GetConsoleMode@8    10087084     kernel32:KERNEL32.dll
 0002:00000088       __imp__GetConsoleOutputCP@0 10087088     kernel32:KERNEL32.dll
 0002:0000008c       __imp__SetStdHandle@8      1008708c     kernel32:KERNEL32.dll
 0002:00000090       __imp__GetStringTypeW@16   10087090     kernel32:KERNEL32.dll
 0002:00000094       __imp__SetFilePointerEx@20 10087094     kernel32:KERNEL32.dll
 0002:00000098       __imp__GetFileSizeEx@8     10087098     kernel32:KERNEL32.dll
 0002:0000009c       __imp__HeapQueryInformation@20 1008709c     kernel32:KERNEL32.dll
 0002:000000a0       __imp__EnumSystemLocalesW@8 100870a0     kernel32:KERNEL32.dll
 0002:000000a4       __imp__GetUserDefaultLCID@0 100870a4     kernel32:KERNEL32.dll
 0002:000000a8       __imp__IsValidLocale@8     100870a8     kernel32:KERNEL32.dll
 0002:000000ac       __imp__GetLocaleInfoW@16   100870ac     kernel32:KERNEL32.dll
 0002:000000b0       __imp__LCMapStringW@24     100870b0     kernel32:KERNEL32.dll
 0002:000000b4       __imp__CompareStringW@24   100870b4     kernel32:KERNEL32.dll
 0002:000000b8       __imp__GetTimeFormatW@24   100870b8     kernel32:KERNEL32.dll
 0002:000000bc       __imp__IsDebuggerPresent@0 100870bc     kernel32:KERNEL32.dll
 0002:000000c0       __imp__OutputDebugStringW@4 100870c0     kernel32:KERNEL32.dll
 0002:000000c4       __imp__UnhandledExceptionFilter@4 100870c4     kernel32:KERNEL32.dll
 0002:000000c8       __imp__SetUnhandledExceptionFilter@4 100870c8     kernel32:KERNEL32.dll
 0002:000000cc       __imp__GetCurrentProcess@0 100870cc     kernel32:KERNEL32.dll
 0002:000000d0       __imp__TerminateProcess@8  100870d0     kernel32:KERNEL32.dll
 0002:000000d4       __imp__IsProcessorFeaturePresent@4 100870d4     kernel32:KERNEL32.dll
 0002:000000d8       __imp__GetStartupInfoW@4   100870d8     kernel32:KERNEL32.dll
 0002:000000dc       __imp__WideCharToMultiByte@32 100870dc     kernel32:KERNEL32.dll
 0002:000000e0       __imp__QueryPerformanceCounter@4 100870e0     kernel32:KERNEL32.dll
 0002:000000e4       __imp__GetCurrentProcessId@0 100870e4     kernel32:KERNEL32.dll
 0002:000000e8       __imp__GetCurrentThreadId@0 100870e8     kernel32:KERNEL32.dll
 0002:000000ec       __imp__GetSystemTimeAsFileTime@4 100870ec     kernel32:KERNEL32.dll
 0002:000000f0       __imp__InitializeSListHead@4 100870f0     kernel32:KERNEL32.dll
 0002:000000f4       __imp__HeapAlloc@12        100870f4     kernel32:KERNEL32.dll
 0002:000000f8       __imp__HeapFree@12         100870f8     kernel32:KERNEL32.dll
 0002:000000fc       __imp__GetProcessHeap@0    100870fc     kernel32:KERNEL32.dll
 0002:00000100       __imp__VirtualQuery@12     10087100     kernel32:KERNEL32.dll
 0002:00000104       __imp__RtlUnwind@16        10087104     kernel32:KERNEL32.dll
 0002:00000108       __imp__InterlockedPushEntrySList@8 10087108     kernel32:KERNEL32.dll
 0002:0000010c       __imp__InterlockedFlushSList@4 1008710c     kernel32:KERNEL32.dll
 0002:00000110       __imp__InitializeCriticalSectionAndSpinCount@8 10087110     kernel32:KERNEL32.dll
 0002:00000114       __imp__TlsAlloc@0          10087114     kernel32:KERNEL32.dll
 0002:00000118       __imp__TlsGetValue@4       10087118     kernel32:KERNEL32.dll
 0002:0000011c       __imp__TlsSetValue@8       1008711c     kernel32:KERNEL32.dll
 0002:00000120       __imp__TlsFree@4           10087120     kernel32:KERNEL32.dll
 0002:00000124       __imp__GetModuleHandleExW@12 10087124     kernel32:KERNEL32.dll
 0002:00000128       __imp__ExitProcess@4       10087128     kernel32:KERNEL32.dll
 0002:0000012c       __imp__HeapValidate@12     1008712c     kernel32:KERNEL32.dll
 0002:00000130       __imp__GetSystemInfo@4     10087130     kernel32:KERNEL32.dll
 0002:00000134       __imp__GetStdHandle@4      10087134     kernel32:KERNEL32.dll
 0002:00000138       __imp__GetFileType@4       10087138     kernel32:KERNEL32.dll
 0002:0000013c       __imp__WriteFile@20        1008713c     kernel32:KERNEL32.dll
 0002:00000140       __imp__WriteConsoleW@20    10087140     kernel32:KERNEL32.dll
 0002:00000144       __imp__SetConsoleCtrlHandler@8 10087144     kernel32:KERNEL32.dll
 0002:00000148       __imp__GetCurrentThread@0  10087148     kernel32:KERNEL32.dll
 0002:0000014c       __imp__HeapSize@12         1008714c     kernel32:KERNEL32.dll
 0002:00000150       __imp__HeapReAlloc@16      10087150     kernel32:KERNEL32.dll
 0002:00000154       __imp__FindClose@4         10087154     kernel32:KERNEL32.dll
 0002:00000158       __imp__FindFirstFileExW@24 10087158     kernel32:KERNEL32.dll
 0002:0000015c       __imp__FindNextFileW@8     1008715c     kernel32:KERNEL32.dll
 0002:00000160       __imp__IsValidCodePage@4   10087160     kernel32:KERNEL32.dll
 0002:00000164       __imp__GetACP@0            10087164     kernel32:KERNEL32.dll
 0002:00000168       __imp__GetOEMCP@0          10087168     kernel32:KERNEL32.dll
 0002:0000016c       __imp__GetCPInfo@8         1008716c     kernel32:KERNEL32.dll
 0002:00000170       __imp__GetCommandLineA@0   10087170     kernel32:KERNEL32.dll
 0002:00000174       __imp__GetCommandLineW@0   10087174     kernel32:KERNEL32.dll
 0002:00000178       __imp__GetEnvironmentStringsW@0 10087178     kernel32:KERNEL32.dll
 0002:0000017c       __imp__FreeEnvironmentStringsW@4 1008717c     kernel32:KERNEL32.dll
 0002:00000180       __imp__SetEnvironmentVariableW@8 10087180     kernel32:KERNEL32.dll
 0002:00000184       __imp__GetDateFormatW@24   10087184     kernel32:KERNEL32.dll
 0002:00000188       __imp__CreateFileW@28      10087188     kernel32:KERNEL32.dll
 0002:0000018c       \177KERNEL32_NULL_THUNK_DATA 1008718c     kernel32:KERNEL32.dll
 0002:00000190       __imp__LoadTypeLib@8       10087190     oleaut32:OLEAUT32.dll
 0002:00000194       __imp__UnRegisterTypeLib@20 10087194     oleaut32:OLEAUT32.dll
 0002:00000198       __imp__SysStringLen@4      10087198     oleaut32:OLEAUT32.dll
 0002:0000019c       __imp__SysAllocString@4    1008719c     oleaut32:OLEAUT32.dll
 0002:000001a0       __imp__SysFreeString@4     100871a0     oleaut32:OLEAUT32.dll
 0002:000001a4       __imp__VarUI4FromStr@16    100871a4     oleaut32:OLEAUT32.dll
 0002:000001a8       __imp__RegisterTypeLib@12  100871a8     oleaut32:OLEAUT32.dll
 0002:000001ac       \177OLEAUT32_NULL_THUNK_DATA 100871ac     oleaut32:OLEAUT32.dll
 0002:000001b0       __imp__UnregisterClassW@8  100871b0     user32:USER32.dll
 0002:000001b4       __imp__CharNextW@4         100871b4     user32:USER32.dll
 0002:000001b8       \177USER32_NULL_THUNK_DATA 100871b8     user32:USER32.dll
 0002:000001bc       __imp__CoTaskMemRealloc@8  100871bc     ole32:ole32.dll
 0002:000001c0       __imp__CoCreateInstance@20 100871c0     ole32:ole32.dll
 0002:000001c4       __imp__StringFromGUID2@12  100871c4     ole32:ole32.dll
 0002:000001c8       __imp__CoTaskMemAlloc@4    100871c8     ole32:ole32.dll
 0002:000001cc       __imp__CoTaskMemFree@4     100871cc     ole32:ole32.dll
 0002:000001d0       \177ole32_NULL_THUNK_DATA  100871d0     ole32:ole32.dll
 0002:000001d4       ___guard_check_icall_fptr  100871d4     LIBCMTD:guard_support.obj
 0002:000001d8       ___guard_xfg_check_icall_fptr 100871d8     LIBCMTD:guard_support.obj
 0002:000001dc       ___xc_a                    100871dc     LIBCMTD:initializers.obj
 0002:0000024c       ___xc_z                    1008724c     LIBCMTD:initializers.obj
 0002:00000250       ___xi_a                    10087250     LIBCMTD:initializers.obj
 0002:00000254       ___acrt_stdio_initializer  10087254     libucrtd:stdio_initializer.obj
 0002:00000258       ___acrt_multibyte_initializer 10087258     libucrtd:multibyte_initializer.obj
 0002:0000025c       ___acrt_tran_sse2_initializer 1008725c     libucrtd:sse2_initializer.obj
 0002:00000260       ___xi_z                    10087260     LIBCMTD:initializers.obj
 0002:00000264       ___xp_a                    10087264     LIBCMTD:initializers.obj
 0002:00000268       ___acrt_locale_terminator  10087268     libucrtd:locale_initializer.obj
 0002:0000026c       ___dcrt_console_output_terminator 1008726c     libucrtd:console_output_initializer.obj
 0002:00000270       ___acrt_stdio_terminator   10087270     libucrtd:stdio_initializer.obj
 0002:00000274       ___xp_z                    10087274     LIBCMTD:initializers.obj
 0002:00000278       ___xt_a                    10087278     LIBCMTD:initializers.obj
 0002:0000027c       ___xt_z                    1008727c     LIBCMTD:initializers.obj
 0002:0000208c       _LIBID_ATLLib              1008908c     StdAfx.obj
 0002:0000209c       ?chDirSep@ATL@@3_WB        1008909c     StdAfx.obj
 0002:000020a0       ?chRightBracket@ATL@@3_WB  100890a0     StdAfx.obj
 0002:000020a4       ?chLeftBracket@ATL@@3_WB   100890a4     StdAfx.obj
 0002:000020a8       ?chQuote@ATL@@3_WB         100890a8     StdAfx.obj
 0002:000020ac       ?chEquals@ATL@@3_WB        100890ac     StdAfx.obj
 0002:000020b0       ?szStringVal@ATL@@3QB_WB   100890b0     StdAfx.obj
 0002:000020b4       ?multiszStringVal@ATL@@3QB_WB 100890b4     StdAfx.obj
 0002:000020b8       ?szDwordVal@ATL@@3QB_WB    100890b8     StdAfx.obj
 0002:000020bc       ?szBinaryVal@ATL@@3QB_WB   100890bc     StdAfx.obj
 0002:000020c0       ?szValToken@ATL@@3QB_WB    100890c0     StdAfx.obj
 0002:000020c4       ?szForceRemove@ATL@@3QB_WB 100890c4     StdAfx.obj
 0002:000020c8       ?szNoRemove@ATL@@3QB_WB    100890c8     StdAfx.obj
 0002:000020cc       ?szDelete@ATL@@3QB_WB      100890cc     StdAfx.obj
 0002:000020d0       _CLSID_Registrar           100890d0     StdAfx.obj
 0002:000020e0       _IID_IRegistrar            100890e0     StdAfx.obj
 0002:000020f0       _IID_IDocHostUIHandlerDispatch 100890f0     StdAfx.obj
 0002:00002100       _IID_IAxWinHostWindow      10089100     StdAfx.obj
 0002:00002110       _IID_IAxWinHostWindowLic   10089110     StdAfx.obj
 0002:00002120       _IID_IAxWinAmbientDispatch 10089120     StdAfx.obj
 0002:00002130       _IID_IAxWinAmbientDispatchEx 10089130     StdAfx.obj
 0002:00002140       _IID_IInternalConnection   10089140     StdAfx.obj
 0002:00002150       ??_C@_13COJANIEC@?$AA0@    10089150     StdAfx.obj
 0002:00002154       ??_C@_17CNPHIMPH@?$AA?$CF?$AAl?$AAs@ 10089154     StdAfx.obj
 0002:00002160       ??_C@_1OE@GJDIMHLK@?$AAC?$AA?3?$AA?2?$AAP?$AAr?$AAo?$AAg?$AAr?$AAa?$AAm?$AA?5?$AAF?$AAi?$AAl?$AAe@ 10089160     StdAfx.obj
 0002:00002244       ??_C@_1O@LFNDFEBP@?$AA?$CF?$AAl?$AAs?$AA?5?$AA?9?$AA?5@ 10089244     StdAfx.obj
 0002:00002254       ??_C@_1M@PGKOAACE@?$AA?$CF?$AAu?$AA?5?$AA?9?$AA?5@ 10089254     StdAfx.obj
 0002:00002260       ??_C@_1O@OAIPCDPO@?$AA?$CF?$AAl?$AAs?$AA?$CF?$AAl?$AAs@ 10089260     StdAfx.obj
 0002:00002270       ??_C@_17LGGGMOOB@?$AA?$CF?$AAh?$AAs@ 10089270     StdAfx.obj
 0002:00002278       ??_C@_1EO@EBPPKGOM@?$AAf?$AAa?$AAl?$AAs?$AAe?$AA?5?$AA?$CG?$AA?$CG?$AA?5?$AA?$CC?$AAT?$AAo?$AAo?$AA?5?$AAm@ 10089278     StdAfx.obj
 0002:000022c8       ??_C@_1OE@BKJDKFDJ@?$AAC?$AA?3?$AA?2?$AAP?$AAr?$AAo?$AAg?$AAr?$AAa?$AAm?$AA?5?$AAF?$AAi?$AAl?$AAe@ 100892c8     StdAfx.obj
 0002:000023b0       ??_C@_1OC@GOAFFFID@?$AAC?$AA?3?$AA?2?$AAP?$AAr?$AAo?$AAg?$AAr?$AAa?$AAm?$AA?5?$AAF?$AAi?$AAl?$AAe@ 100893b0     StdAfx.obj
 0002:00002498       ??_C@_0HB@JGKFPIBI@C?3?2Program?5Files?5?$CIx86?$CJ?2Microsof@ 10089498     StdAfx.obj
 0002:00002510       ??_C@_1IA@KEEOONGN@?$AAE?$AAR?$AAR?$AAO?$AAR?$AA?5?$AA?3?$AA?5?$AAU?$AAn?$AAa?$AAb?$AAl?$AAe?$AA?5@ 10089510     StdAfx.obj
 0002:00002590       ??_C@_1IG@OPJAFKJH@?$AAE?$AAR?$AAR?$AAO?$AAR?$AA?5?$AA?3?$AA?5?$AAU?$AAn?$AAa?$AAb?$AAl?$AAe?$AA?5@ 10089590     StdAfx.obj
 0002:00002618       ??_C@_1EA@JHMKKLFC@?$AAn?$AAI?$AAn?$AAd?$AAe?$AAx?$AA?5?$AA?$DO?$AA?$DN?$AA?5?$AA0?$AA?5?$AA?$CG?$AA?$CG?$AA?5@ 10089618     StdAfx.obj
 0002:00002658       ??_C@_1OK@FPBCMNBJ@?$AAC?$AA?3?$AA?2?$AAP?$AAr?$AAo?$AAg?$AAr?$AAa?$AAm?$AA?5?$AAF?$AAi?$AAl?$AAe@ 10089658     StdAfx.obj
 0002:00002744       ??_C@_1BK@NHECDDNK@?$AAm?$AA_?$AAp?$AAD?$AAa?$AAt?$AAa?$AA?5?$AA?$DN?$AA?$DN?$AA?5?$AA0@ 10089744     StdAfx.obj
 0002:00004580       _LIBID_OPOSCONSTANTSLib    1008b580     OposConstants.obj
 0002:00004590       ??_C@_0HD@FDCNLMBN@C?3?2Program?5Files?5?$CIx86?$CJ?2Microsof@ 1008b590     OposConstants.obj
 0002:00004604       ??_C@_1CK@DFMKPFAK@?$AAA?$AAt?$AAl?$AAT?$AAh?$AAr?$AAo?$AAw?$AA?3?$AA?5?$AAh?$AAr?$AA?5?$AA?$DN?$AA?5@ 1008b604     OposConstants.obj
 0002:00004630       ??_C@_1M@HLGKFCJM@?$AAf?$AAa?$AAl?$AAs?$AAe@ 1008b630     OposConstants.obj
 0002:00004640       ??_C@_1OG@LBNLGCOJ@?$AAC?$AA?3?$AA?2?$AAP?$AAr?$AAo?$AAg?$AAr?$AAa?$AAm?$AA?5?$AAF?$AAi?$AAl?$AAe@ 1008b640     OposConstants.obj
 0002:00004728       ??_C@_1BM@GBBOFEAE@?$AA_?$AA_?$AAa?$AAt?$AAl?$AA_?$AAc?$AAo?$AAn?$AAd?$AAV?$AAa?$AAl@ 1008b728     OposConstants.obj
 0002:00004748       ??_C@_1OG@FKPDKNHL@?$AAC?$AA?3?$AA?2?$AAP?$AAr?$AAo?$AAg?$AAr?$AAa?$AAm?$AA?5?$AAF?$AAi?$AAl?$AAe@ 1008b748     OposConstants.obj
 0002:00004830       __GUID_00000000_0000_0000_c000_000000000046 1008b830     OposConstants.obj
 0002:00004840       ??_C@_1BG@ILBPLEEF@?$AAn?$AAN?$AAu?$AAl?$AAl?$AA?5?$AA?$DN?$AA?$DN?$AA?5?$AA0@ 1008b840     OposConstants.obj
 0002:00004858       ??_C@_1PO@PBIPDBDK@?$AAC?$AA?3?$AA?2?$AAP?$AAr?$AAo?$AAg?$AAr?$AAa?$AAm?$AA?5?$AAF?$AAi?$AAl?$AAe@ 1008b858     OposConstants.obj
 0002:00004958       ??_C@_1BK@BIGILECK@?$AAA?$AAd?$AAv?$AAa?$AAp?$AAi?$AA3?$AA2?$AA?4?$AAd?$AAl?$AAl@ 1008b958     OposConstants.obj
 0002:00004974       ??_C@_1BO@KNMGNOCJ@?$AAh?$AAA?$AAd?$AAv?$AAA?$AAP?$AAI?$AA3?$AA2?$AA?5?$AA?$CB?$AA?$DN?$AA?5?$AA0@ 1008b974     OposConstants.obj
 0002:00004994       ??_C@_0BG@EKFFMJIO@RegOpenKeyTransactedW@ 1008b994     OposConstants.obj
 0002:000049ac       ??_C@_0BI@MNCFCPFK@RegCreateKeyTransactedW@ 1008b9ac     OposConstants.obj
 0002:000049c4       ??_C@_0BI@HAKLOOGP@RegDeleteKeyTransactedW@ 1008b9c4     OposConstants.obj
 0002:000049dc       ??_C@_1BG@OHCCAGNO@?$AA?$CB?$AAm?$AA_?$AAb?$AAL?$AAo?$AAc?$AAk?$AAe?$AAd@ 1008b9dc     OposConstants.obj
 0002:000049f4       ??_C@_1BE@NPGJNKLA@?$AAm?$AA_?$AAb?$AAL?$AAo?$AAc?$AAk?$AAe?$AAd@ 1008b9f4     OposConstants.obj
 0002:00004a08       ??_C@_1CC@DNHFMIHP@?$AA_?$AAp?$AAA?$AAt?$AAl?$AAM?$AAo?$AAd?$AAu?$AAl?$AAe?$AA?5?$AA?$DN?$AA?$DN?$AA?5@ 1008ba08     OposConstants.obj
 0002:00004a30       ??_C@_1HK@DFMOIGDB@?$AAE?$AAR?$AAR?$AAO?$AAR?$AA?5?$AA?3?$AA?5?$AAU?$AAn?$AAa?$AAb?$AAl?$AAe?$AA?5@ 1008ba30     OposConstants.obj
 0002:00004aac       __GUID_00000146_0000_0000_c000_000000000046 1008baac     OposConstants.obj
 0002:00004abc       ??_C@_1BG@LENCCAOJ@?$AAp?$AAp?$AAG?$AAI?$AAT?$AA?5?$AA?$CB?$AA?$DN?$AA?5?$AA0@ 1008babc     OposConstants.obj
 0002:00004ad4       ??_C@_1BI@JBLBCKD@?$AAm?$AA_?$AAp?$AAG?$AAI?$AAT?$AA?5?$AA?$CB?$AA?$DN?$AA?5?$AA0@ 1008bad4     OposConstants.obj
 0002:00004aec       ??_7CComModule@ATL@@6B@    1008baec     OposConstants.obj
 0002:00004b14       ??_C@_1BM@NFPICFEL@?$AA_?$AAp?$AAM?$AAo?$AAd?$AAu?$AAl?$AAe?$AA?5?$AA?$DN?$AA?$DN?$AA?5?$AA0@ 1008bb14     OposConstants.obj
 0002:00004b30       ??_C@_1BI@JPOONHGO@?$AAm?$AA_?$AAh?$AAK?$AAe?$AAy?$AA?5?$AA?$DN?$AA?$DN?$AA?5?$AA0@ 1008bb30     OposConstants.obj
 0002:00004b48       ??_C@_1BI@KCHMLGAI@?$AAm?$AA_?$AAh?$AAK?$AAe?$AAy?$AA?5?$AA?$CB?$AA?$DN?$AA?5?$AA0@ 1008bb48     OposConstants.obj
 0002:00004b60       ??_C@_0BA@LILAPHGE@RegDeleteKeyExW@ 1008bb60     OposConstants.obj
 0002:00004b70       ??_C@_1CA@JAHJEEHI@?$AAh?$AAK?$AAe?$AAy?$AAP?$AAa?$AAr?$AAe?$AAn?$AAt?$AA?5?$AA?$CB?$AA?$DN?$AA?5?$AA0@ 1008bb70     OposConstants.obj
 0002:00004b90       ??_C@_1BG@OMKLFNDM@?$AAl?$AAR?$AAe?$AAs?$AA?5?$AA?$DN?$AA?$DN?$AA?5?$AA0?$AAL@ 1008bb90     OposConstants.obj
 0002:00004ba8       ??_C@_1FG@MAMCHIIA@?$AA?$CI?$AAd?$AAw?$AAT?$AAy?$AAp?$AAe?$AA?5?$AA?$DN?$AA?$DN?$AA?5?$AA?$CI?$AA?5?$AA1?$AAu@ 1008bba8     OposConstants.obj
 0002:00004c00       ??_C@_1IA@CIKBLAHF@?$AAC?$AAR?$AAe?$AAg?$AAK?$AAe?$AAy?$AA?3?$AA?3?$AAR?$AAe?$AAc?$AAu?$AAr?$AAs@ 1008bc00     OposConstants.obj
 0002:00004c80       ??_C@_1DO@EIGOLNAA@?$AAl?$AAp?$AAs?$AAz?$AAK?$AAe?$AAy?$AA?5?$AA?$CB?$AA?$DN?$AA?5?$AA0?$AA?5?$AA?$CG?$AA?$CG@ 1008bc80     OposConstants.obj
 0002:00004cc0       ??_C@_1OC@MACEHEHH@?$AAC?$AA?3?$AA?2?$AAP?$AAr?$AAo?$AAg?$AAr?$AAa?$AAm?$AA?5?$AAF?$AAi?$AAl?$AAe@ 1008bcc0     OposConstants.obj
 0002:00004da4       ??_C@_1BG@MMFPEKL@?$AAs?$AAz?$AAK?$AAe?$AAy?$AA?5?$AA?$CB?$AA?$DN?$AA?5?$AA0@ 1008bda4     OposConstants.obj
 0002:00004dbc       ??_C@_1BK@LDPHGFPN@?$AAs?$AAz?$AAV?$AAa?$AAl?$AAu?$AAe?$AA?5?$AA?$CB?$AA?$DN?$AA?5?$AA0@ 1008bdbc     OposConstants.obj
 0002:00004dd8       ?rgszNeverDelete@CRegParser@ATL@@1QBQB_WB 1008bdd8     OposConstants.obj
 0002:00004e08       ??_C@_1O@JFMKDNFA@?$AAp?$AA?5?$AA?$CB?$AA?$DN?$AA?5?$AA0@ 1008be08     OposConstants.obj
 0002:00004e18       ??_7CRegObject@ATL@@6B@    1008be18     OposConstants.obj
 0002:00004e30       ??_C@_1JM@PMKLGAKF@?$AAs?$AAt?$AAa?$AAt?$AAi?$AAc?$AAa?$AAl?$AAl?$AAy?$AA?5?$AAl?$AAi?$AAn?$AAk@ 1008be30     OposConstants.obj
 0002:00004ed0       ??_C@_1KC@MLBIPPDL@?$AAL?$AA?$CC?$AAs?$AAt?$AAa?$AAt?$AAi?$AAc?$AAa?$AAl?$AAl?$AAy?$AA?5?$AAl?$AAi@ 1008bed0     OposConstants.obj
 0002:00004f78       ??_C@_0HB@OKBOMPHE@C?3?2Program?5Files?5?$CIx86?$CJ?2Microsof@ 1008bf78     OposConstants.obj
 0002:00004fec       ??_C@_1DM@JBIDINMA@?$AAF?$AAa?$AAi?$AAl?$AAe?$AAd?$AA?5?$AAt?$AAo?$AA?5?$AAL?$AAo?$AAa?$AAd?$AAL@ 1008bfec     OposConstants.obj
 0002:00005028       ??_C@_1FE@HJDAOHJE@?$AAF?$AAa?$AAi?$AAl?$AAe?$AAd?$AA?5?$AAt?$AAo?$AA?5?$AAF?$AAi?$AAn?$AAd?$AAR@ 1008c028     OposConstants.obj
 0002:00005080       ??_C@_1FG@BBJFPKL@?$AAF?$AAa?$AAi?$AAl?$AAe?$AAd?$AA?5?$AAt?$AAo?$AA?5?$AAF?$AAi?$AAn?$AAd?$AAR@ 1008c080     OposConstants.obj
 0002:000050d8       ??_C@_1DA@KJKEAFMD@?$AAF?$AAa?$AAi?$AAl?$AAe?$AAd?$AA?5?$AAt?$AAo?$AA?5?$AAL?$AAo?$AAa?$AAd?$AAR@ 1008c0d8     OposConstants.obj
 0002:00005108       ??_C@_1CK@BCPDHANH@?$AAM?$AAa?$AAp?$AA?5?$AAE?$AAn?$AAt?$AAr?$AAy?$AA?5?$AAn?$AAo?$AAt?$AA?5?$AAf@ 1008c108     OposConstants.obj
 0002:00005138       ??_C@_1FI@KMIOGKOO@?$AAB?$AAo?$AAg?$AAu?$AAs?$AA?5?$AAv?$AAa?$AAl?$AAu?$AAe?$AA?5?$AA?$CF?$AAT?$AAc@ 1008c138     OposConstants.obj
 0002:00005190       ?map@?1??HKeyFromString@CRegParser@ATL@@KAPAUHKEY__@@PA_W@Z@4QBUkeymap@?1??123@KAPAU4@0@Z@B 1008c190     OposConstants.obj
 0002:00005200       ??_C@_19NCHLBIN@?$AAH?$AAK?$AAC?$AAR@ 1008c200     OposConstants.obj
 0002:0000520c       ??_C@_19JAPAIJDE@?$AAH?$AAK?$AAC?$AAU@ 1008c20c     OposConstants.obj
 0002:00005218       ??_C@_19PEALEEJB@?$AAH?$AAK?$AAL?$AAM@ 1008c218     OposConstants.obj
 0002:00005224       ??_C@_17PJOJPMPB@?$AAH?$AAK?$AAU@ 1008c224     OposConstants.obj
 0002:0000522c       ??_C@_19PNBHMJPL@?$AAH?$AAK?$AAP?$AAD@ 1008c22c     OposConstants.obj
 0002:00005238       ??_C@_19GFFAIJHG@?$AAH?$AAK?$AAD?$AAD@ 1008c238     OposConstants.obj
 0002:00005244       ??_C@_19OFICIBHH@?$AAH?$AAK?$AAC?$AAC@ 1008c244     OposConstants.obj
 0002:00005250       ??_C@_1CE@PACHPJFI@?$AAH?$AAK?$AAE?$AAY?$AA_?$AAC?$AAL?$AAA?$AAS?$AAS?$AAE?$AAS?$AA_?$AAR?$AAO@ 1008c250     OposConstants.obj
 0002:00005274       ??_C@_1CE@HLHNCBPM@?$AAH?$AAK?$AAE?$AAY?$AA_?$AAC?$AAU?$AAR?$AAR?$AAE?$AAN?$AAT?$AA_?$AAU?$AAS@ 1008c274     OposConstants.obj
 0002:00005298       ??_C@_1CG@GFBEANJL@?$AAH?$AAK?$AAE?$AAY?$AA_?$AAL?$AAO?$AAC?$AAA?$AAL?$AA_?$AAM?$AAA?$AAC?$AAH@ 1008c298     OposConstants.obj
 0002:000052c0       ??_C@_1BG@BGODANIO@?$AAH?$AAK?$AAE?$AAY?$AA_?$AAU?$AAS?$AAE?$AAR?$AAS@ 1008c2c0     OposConstants.obj
 0002:000052d8       ??_C@_1CM@KHNNAOIC@?$AAH?$AAK?$AAE?$AAY?$AA_?$AAP?$AAE?$AAR?$AAF?$AAO?$AAR?$AAM?$AAA?$AAN?$AAC@ 1008c2d8     OposConstants.obj
 0002:00005304       ??_C@_1BM@HAGMMHIA@?$AAH?$AAK?$AAE?$AAY?$AA_?$AAD?$AAY?$AAN?$AA_?$AAD?$AAA?$AAT?$AAA@ 1008c304     OposConstants.obj
 0002:00005320       ??_C@_1CI@BBJOACGG@?$AAH?$AAK?$AAE?$AAY?$AA_?$AAC?$AAU?$AAR?$AAR?$AAE?$AAN?$AAT?$AA_?$AAC?$AAO@ 1008c320     OposConstants.obj
 0002:00005348       ??_C@_1EI@CDDJHMMA@?$AAN?$AAe?$AAx?$AAt?$AAT?$AAo?$AAk?$AAe?$AAn?$AA?5?$AA?3?$AA?5?$AAU?$AAn?$AAe@ 1008c348     OposConstants.obj
 0002:00005390       ??_C@_1DA@BDBPEMM@?$AA?$CF?$AAT?$AAs?$AA?5?$AAT?$AAy?$AAp?$AAe?$AA?5?$AAn?$AAo?$AAt?$AA?5?$AAs?$AAu@ 1008c390     OposConstants.obj
 0002:000053c0       ??_C@_1BA@HANLFFFG@?$AAd?$AAe?$AAf?$AAa?$AAu?$AAl?$AAt@ 1008c3c0     OposConstants.obj
 0002:000053d0       ??_C@_1DE@GENBDOHF@?$AAS?$AAe?$AAt?$AAt?$AAi?$AAn?$AAg?$AA?5?$AAV?$AAa?$AAl?$AAu?$AAe?$AA?5?$AA?$CF@ 1008c3d0     OposConstants.obj
 0002:00005404       ??_C@_1DC@OPMJCKIB@?$AAS?$AAe?$AAt?$AAt?$AAi?$AAn?$AAg?$AA?5?$AAV?$AAa?$AAl?$AAu?$AAe?$AA?5?$AA?$CF@ 1008c404     OposConstants.obj
 0002:00005438       ??_C@_1FK@OIDGAAMP@?$AAB?$AAi?$AAn?$AAa?$AAr?$AAy?$AA?5?$AAD?$AAa?$AAt?$AAa?$AA?5?$AAd?$AAo?$AAe@ 1008c438     OposConstants.obj
 0002:00005494       ??_C@_1CM@LNIALBHN@?$AAS?$AAh?$AAo?$AAu?$AAl?$AAd?$AA?5?$AAn?$AAo?$AAt?$AA?5?$AAb?$AAe?$AA?5?$AAh@ 1008c494     OposConstants.obj
 0002:000054c0       ??_C@_1BK@ODFKMBGC@?$AAl?$AAp?$AAs?$AAz?$AAR?$AAe?$AAg?$AA?5?$AA?$CB?$AA?$DN?$AA?5?$AA0@ 1008c4c0     OposConstants.obj
 0002:000054dc       ??_C@_1BK@DGLFCBHI@?$AAp?$AAp?$AAs?$AAz?$AAR?$AAe?$AAg?$AA?5?$AA?$CB?$AA?$DN?$AA?5?$AA0@ 1008c4dc     OposConstants.obj
 0002:000054f8       ??_C@_1EA@NHKLICFA@?$AAH?$AAK?$AAC?$AAU?$AA?$AN?$AA?6?$AA?$HL?$AA?7?$AAS?$AAo?$AAf?$AAt?$AAw?$AAa?$AAr@ 1008c4f8     OposConstants.obj
 0002:00005538       ??_C@_1BE@LJOLIMEM@?$AA?$AN?$AA?6?$AA?7?$AA?$HN?$AA?$AN?$AA?6?$AA?$HN?$AA?$AN?$AA?6@ 1008c538     OposConstants.obj
 0002:0000554c       ??_C@_1DG@KOLNJMBJ@?$AAE?$AAr?$AAr?$AAo?$AAr?$AA?5?$AAn?$AAo?$AA?5?$AAc?$AAl?$AAo?$AAs?$AAi?$AAn@ 1008c54c     OposConstants.obj
 0002:00005584       ??_C@_19IGGGDNCK@?$AA?$CF?$AAT?$AAs?$AA?6@ 1008c584     OposConstants.obj
 0002:00005590       ??_C@_1DM@JFHAPNGI@?$AAH?$AAK?$AAe?$AAy?$AAF?$AAr?$AAo?$AAm?$AAS?$AAt?$AAr?$AAi?$AAn?$AAg?$AA?5@ 1008c590     OposConstants.obj
 0002:000055d0       ??_C@_1FE@MCPBFDLN@?$AAS?$AAy?$AAn?$AAt?$AAa?$AAx?$AA?5?$AAe?$AAr?$AAr?$AAo?$AAr?$AA?0?$AA?5?$AAe@ 1008c5d0     OposConstants.obj
 0002:00005628       ??_C@_1EE@EMAKHHOG@?$AAF?$AAa?$AAi?$AAl?$AAe?$AAd?$AA?5?$AAt?$AAo?$AA?5?$AAr?$AAe?$AAg?$AAi?$AAs@ 1008c628     OposConstants.obj
 0002:0000566c       ??_C@_1BM@KJDIPNJ@?$AAN?$AAu?$AAm?$AA?5?$AAE?$AAl?$AAs?$AA?5?$AA?$DN?$AA?5?$AA?$CF?$AAd?$AA?6@ 1008c66c     OposConstants.obj
 0002:00005688       ??_C@_1BM@BEOOHDFB@?$AAD?$AAe?$AAl?$AAe?$AAt?$AAi?$AAn?$AAg?$AA?5?$AA?$CF?$AAT?$AAs?$AA?6@ 1008c688     OposConstants.obj
 0002:000056a4       ??_C@_1CE@NOBELHPC@?$AAC?$AAr?$AAe?$AAa?$AAt?$AAi?$AAn?$AAg?$AA?5?$AAk?$AAe?$AAy?$AA?5?$AA?$CF?$AAT@ 1008c6a4     OposConstants.obj
 0002:000056c8       ??_C@_1CA@MKECKMBH@?$AAO?$AAp?$AAe?$AAn?$AAe?$AAd?$AA?5?$AAK?$AAe?$AAy?$AA?5?$AA?$CF?$AAT?$AAs?$AA?6@ 1008c6c8     OposConstants.obj
 0002:000056e8       ??_C@_1FK@OAJHMKAA@?$AAI?$AAg?$AAn?$AAo?$AAr?$AAi?$AAn?$AAg?$AA?5?$AAO?$AAp?$AAe?$AAn?$AA?5?$AAk@ 1008c6e8     OposConstants.obj
 0002:00005744       ??_C@_1CM@OHCCCDHD@?$AAE?$AAn?$AAd?$AAi?$AAn?$AAg?$AA?5?$AAR?$AAe?$AAc?$AAo?$AAv?$AAe?$AAr?$AAy@ 1008c744     OposConstants.obj
 0002:00005770       ??_C@_1FA@ECAJCMBE@?$AAD?$AAe?$AAl?$AAe?$AAt?$AAi?$AAn?$AAg?$AA?5?$AAn?$AAo?$AAn?$AA?9?$AAe?$AAm@ 1008c770     OposConstants.obj
 0002:000057c0       ??_C@_1CE@OGJGDPFE@?$AAD?$AAe?$AAl?$AAe?$AAt?$AAi?$AAn?$AAg?$AA?5?$AAK?$AAe?$AAy?$AA?5?$AA?$CF?$AAT@ 1008c7c0     OposConstants.obj
 0002:000057e4       ??_C@_1DC@HEJCCJC@?$AA0?$AA?5?$AA?$CB?$AA?$DN?$AA?5?$AAp?$AAM?$AAa?$AAp?$AAE?$AAn?$AAt?$AAr?$AAi?$AAe@ 1008c7e4     OposConstants.obj
 0002:00005818       ??_C@_1O@MNLDABAF@?$AAM?$AAo?$AAd?$AAu?$AAl?$AAe@ 1008c818     OposConstants.obj
 0002:00005828       ??_C@_1BG@JBACFMF@?$AAM?$AAo?$AAd?$AAu?$AAl?$AAe?$AA_?$AAR?$AAa?$AAw@ 1008c828     OposConstants.obj
 0002:00005840       ??_C@_1BC@KAILKFFG@?$AAR?$AAE?$AAG?$AAI?$AAS?$AAT?$AAR?$AAY@ 1008c840     OposConstants.obj
 0002:00005854       ??_C@_11LOCGONAA@@         1008c854     OposConstants.obj
 0002:00005858       ??_C@_1EC@GOCPDDCL@?$AAp?$AAb?$AAs?$AAt?$AAr?$AAP?$AAa?$AAt?$AAh?$AA?5?$AA?$CB?$AA?$DN?$AA?5?$AA0?$AA?5@ 1008c858     OposConstants.obj
 0002:0000589c       ??_C@_1CE@MNLFIKHJ@?$AAh?$AAI?$AAn?$AAs?$AAt?$AAT?$AAy?$AAp?$AAe?$AAL?$AAi?$AAb?$AA?5?$AA?$CB?$AA?$DN@ 1008c89c     OposConstants.obj
 0002:000058c0       ??_C@_19ILOCMLCJ@?$AA?4?$AAt?$AAl?$AAb@ 1008c8c0     OposConstants.obj
 0002:000058cc       __GUID_0002e012_0000_0000_c000_000000000046 1008c8cc     OposConstants.obj
 0002:000058e0       ??_C@_1OK@NEECLFPA@?$AA0?$AA?5?$AA?$CG?$AA?$CG?$AA?5?$AAL?$AA?$CC?$AAU?$AAs?$AAe?$AA?5?$AAO?$AAB?$AAJ?$AAE@ 1008c8e0     OposConstants.obj
 0002:000059cc       ??_C@_1CG@IDMIONOG@?$AAp?$AAE?$AAn?$AAt?$AAr?$AAy?$AA?9?$AA?$DO?$AAi?$AAT?$AAy?$AAp?$AAe?$AA?5?$AA?$DN@ 1008c9cc     OposConstants.obj
 0002:000059f4       ??_C@_1O@FHBGLCIO@?$AAC?$AAL?$AAS?$AAI?$AAD?$AA?2@ 1008c9f4     OposConstants.obj
 0002:00005a04       ??_C@_1CK@IFBKBFAA@?$AA?2?$AAR?$AAe?$AAq?$AAu?$AAi?$AAr?$AAe?$AAd?$AA?5?$AAC?$AAa?$AAt?$AAe?$AAg@ 1008ca04     OposConstants.obj
 0002:00005a30       ??_C@_1DA@BIHALFED@?$AA?2?$AAI?$AAm?$AAp?$AAl?$AAe?$AAm?$AAe?$AAn?$AAt?$AAe?$AAd?$AA?5?$AAC?$AAa@ 1008ca30     OposConstants.obj
 0002:00005a60       ??_C@_1BK@EDKOLFBJ@?$AAO?$AAL?$AAE?$AAA?$AAU?$AAT?$AA3?$AA2?$AA?4?$AAD?$AAL?$AAL@ 1008ca60     OposConstants.obj
 0002:00005a7c       ??_C@_0BJ@CNLFOMHB@UnRegisterTypeLibForUser@ 1008ca7c     OposConstants.obj
 0002:00005a98       ??_C@_0BH@LBOMMKPJ@RegisterTypeLibForUser@ 1008ca98     OposConstants.obj
 0002:00005ab0       ??_C@_1CA@GAOMIJFK@?$AAp?$AAC?$AAo?$AAm?$AAM?$AAo?$AAd?$AAu?$AAl?$AAe?$AA?5?$AA?$CB?$AA?$DN?$AA?5?$AA0@ 1008cab0     OposConstants.obj
 0002:00005ad0       ??_C@_1EA@JIHAIGJA@?$AAp?$AAC?$AAo?$AAm?$AAM?$AAo?$AAd?$AAu?$AAl?$AAe?$AA?9?$AA?$DO?$AAm?$AA_?$AAh@ 1008cad0     OposConstants.obj
 0002:00005b10       ??_C@_1IO@OONIPMJC@?$AAE?$AAR?$AAR?$AAO?$AAR?$AA?5?$AA?3?$AA?5?$AAU?$AAn?$AAa?$AAb?$AAl?$AAe?$AA?5@ 1008cb10     OposConstants.obj
 0002:00005ba0       ??_C@_1IO@BDEIDBOP@?$AAE?$AAR?$AAR?$AAO?$AAR?$AA?5?$AA?3?$AA?5?$AAU?$AAn?$AAa?$AAb?$AAl?$AAe?$AA?5@ 1008cba0     OposConstants.obj
 0002:00005c30       ??_C@_19LMDLLIGP@?$AAp?$AA?$DN?$AA?$DN?$AA0@ 1008cc30     OposConstants.obj
 0002:00005c3c       ??_C@_19JHCPJMAL@?$AAp?$AA?$CB?$AA?$DN?$AA0@ 1008cc3c     OposConstants.obj
 0002:00005c48       ??_C@_1BC@EMCLECFJ@?$AAm?$AA_?$AAp?$AA?5?$AA?$DN?$AA?$DN?$AA?5?$AA0@ 1008cc48     OposConstants.obj
 0002:00005c5c       ??_C@_1M@PPPPCDEP@?$AAA?$AAP?$AAP?$AAI?$AAD@ 1008cc5c     OposConstants.obj
 0002:00005c68       _GUID_NULL                 1008cc68     uuid:cguid_i.obj
 0002:00005c78       _CATID_MARSHALER           1008cc78     uuid:cguid_i.obj
 0002:00005c88       _IID_IRpcChannel           1008cc88     uuid:cguid_i.obj
 0002:00005c98       _IID_IRpcStub              1008cc98     uuid:cguid_i.obj
 0002:00005ca8       _IID_IStubManager          1008cca8     uuid:cguid_i.obj
 0002:00005cb8       _IID_IRpcProxy             1008ccb8     uuid:cguid_i.obj
 0002:00005cc8       _IID_IProxyManager         1008ccc8     uuid:cguid_i.obj
 0002:00005cd8       _IID_IPSFactory            1008ccd8     uuid:cguid_i.obj
 0002:00005ce8       _IID_IInternalMoniker      1008cce8     uuid:cguid_i.obj
 0002:00005cf8       _IID_IDfReserved1          1008ccf8     uuid:cguid_i.obj
 0002:00005d08       _IID_IDfReserved2          1008cd08     uuid:cguid_i.obj
 0002:00005d18       _IID_IDfReserved3          1008cd18     uuid:cguid_i.obj
 0002:00005d28       _CLSID_StdMarshal          1008cd28     uuid:cguid_i.obj
 0002:00005d38       _IID_IStub                 1008cd38     uuid:cguid_i.obj
 0002:00005d48       _IID_IProxy                1008cd48     uuid:cguid_i.obj
 0002:00005d58       _IID_IEnumGeneric          1008cd58     uuid:cguid_i.obj
 0002:00005d68       _IID_IEnumHolder           1008cd68     uuid:cguid_i.obj
 0002:00005d78       _IID_IEnumCallback         1008cd78     uuid:cguid_i.obj
 0002:00005d88       _IID_IOleManager           1008cd88     uuid:cguid_i.obj
 0002:00005d98       _IID_IOlePresObj           1008cd98     uuid:cguid_i.obj
 0002:00005da8       _IID_IDebug                1008cda8     uuid:cguid_i.obj
 0002:00005db8       _IID_IDebugStream          1008cdb8     uuid:cguid_i.obj
 0002:00005dc8       _CLSID_PSGenObject         1008cdc8     uuid:cguid_i.obj
 0002:00005dd8       _CLSID_PSClientSite        1008cdd8     uuid:cguid_i.obj
 0002:00005de8       _CLSID_PSClassObject       1008cde8     uuid:cguid_i.obj
 0002:00005df8       _CLSID_PSInPlaceActive     1008cdf8     uuid:cguid_i.obj
 0002:00005e08       _CLSID_PSInPlaceFrame      1008ce08     uuid:cguid_i.obj
 0002:00005e18       _CLSID_PSDragDrop          1008ce18     uuid:cguid_i.obj
 0002:00005e28       _CLSID_PSBindCtx           1008ce28     uuid:cguid_i.obj
 0002:00005e38       _CLSID_PSEnumerators       1008ce38     uuid:cguid_i.obj
 0002:00005e48       _CLSID_StaticMetafile      1008ce48     uuid:cguid_i.obj
 0002:00005e58       _CLSID_StaticDib           1008ce58     uuid:cguid_i.obj
 0002:00005e68       _CLSID_Picture_Metafile    1008ce68     uuid:cguid_i.obj
 0002:00005e78       _CLSID_Picture_EnhMetafile 1008ce78     uuid:cguid_i.obj
 0002:00005e88       _CLSID_Picture_Dib         1008ce88     uuid:cguid_i.obj
 0002:00005e98       _CLSID_DCOMAccessControl   1008ce98     uuid:cguid_i.obj
 0002:00005ea8       _CLSID_StdGlobalInterfaceTable 1008cea8     uuid:cguid_i.obj
 0002:00005eb8       _CLSID_ManualResetEvent    1008ceb8     uuid:cguid_i.obj
 0002:00005ec8       _CLSID_StdEvent            1008cec8     uuid:cguid_i.obj
 0002:00005ed8       _CLSID_SynchronizeContainer 1008ced8     uuid:cguid_i.obj
 0002:00005ee8       _CLSID_ComBinding          1008cee8     uuid:cguid_i.obj
 0002:00005ef8       _CLSID_StdAsyncActManager  1008cef8     uuid:cguid_i.obj
 0002:00005f08       _CLSID_InProcFreeMarshaler 1008cf08     uuid:cguid_i.obj
 0002:00005f18       _CLSID_RemoteUnknownPSFactory 1008cf18     uuid:cguid_i.obj
 0002:00005f28       _IID_IRichEditOle          1008cf28     uuid:cguid_i.obj
 0002:00005f38       _IID_IRichEditOleCallback  1008cf38     uuid:cguid_i.obj
 0002:00005f48       _CLSID_AllClasses          1008cf48     uuid:cguid_i.obj
 0002:00005f58       _CLSID_LocalMachineClasses 1008cf58     uuid:cguid_i.obj
 0002:00005f68       _CLSID_CurrentUserClasses  1008cf68     uuid:cguid_i.obj
 0002:00005f78       _CLSID_AddrControl         1008cf78     uuid:cguid_i.obj
 0002:00005f88       _CLSID_GlobalOptions       1008cf88     uuid:cguid_i.obj
 0002:00005f98       _CLSID_SurrogateManager    1008cf98     uuid:cguid_i.obj
 0002:00005fa8       _CLSID_ContextSwitcher     1008cfa8     uuid:cguid_i.obj
 0002:00005fb8       _CLSID_ActivationStore     1008cfb8     uuid:cguid_i.obj
 0002:00005fc8       _IID_IPropertyFrame        1008cfc8     uuid:cguid_i.obj
 0002:00005fd8       _CLSID_CFontPropPage       1008cfd8     uuid:cguid_i.obj
 0002:00005fe8       _CLSID_CColorPropPage      1008cfe8     uuid:cguid_i.obj
 0002:00005ff8       _CLSID_CPicturePropPage    1008cff8     uuid:cguid_i.obj
 0002:00006008       _CLSID_StockFontPage       1008d008     uuid:cguid_i.obj
 0002:00006018       _CLSID_StockColorPage      1008d018     uuid:cguid_i.obj
 0002:00006028       _CLSID_StockPicturePage    1008d028     uuid:cguid_i.obj
 0002:00006038       _CLSID_PersistPropset      1008d038     uuid:cguid_i.obj
 0002:00006048       _CLSID_ConvertVBX          1008d048     uuid:cguid_i.obj
 0002:00006058       _CLSID_StdFont             1008d058     uuid:cguid_i.obj
 0002:00006068       _CLSID_StdPicture          1008d068     uuid:cguid_i.obj
 0002:00006078       _GUID_HIMETRIC             1008d078     uuid:cguid_i.obj
 0002:00006088       _GUID_COLOR                1008d088     uuid:cguid_i.obj
 0002:00006098       _GUID_XPOSPIXEL            1008d098     uuid:cguid_i.obj
 0002:000060a8       _GUID_YPOSPIXEL            1008d0a8     uuid:cguid_i.obj
 0002:000060b8       _GUID_XSIZEPIXEL           1008d0b8     uuid:cguid_i.obj
 0002:000060c8       _GUID_YSIZEPIXEL           1008d0c8     uuid:cguid_i.obj
 0002:000060d8       _GUID_XPOS                 1008d0d8     uuid:cguid_i.obj
 0002:000060e8       _GUID_YPOS                 1008d0e8     uuid:cguid_i.obj
 0002:000060f8       _GUID_XSIZE                1008d0f8     uuid:cguid_i.obj
 0002:00006108       _GUID_YSIZE                1008d108     uuid:cguid_i.obj
 0002:00006118       _GUID_TRISTATE             1008d118     uuid:cguid_i.obj
 0002:00006128       _GUID_OPTIONVALUEEXCLUSIVE 1008d128     uuid:cguid_i.obj
 0002:00006138       _GUID_CHECKVALUEEXCLUSIVE  1008d138     uuid:cguid_i.obj
 0002:00006148       _GUID_FONTNAME             1008d148     uuid:cguid_i.obj
 0002:00006158       _GUID_FONTSIZE             1008d158     uuid:cguid_i.obj
 0002:00006168       _GUID_FONTBOLD             1008d168     uuid:cguid_i.obj
 0002:00006178       _GUID_FONTITALIC           1008d178     uuid:cguid_i.obj
 0002:00006188       _GUID_FONTUNDERSCORE       1008d188     uuid:cguid_i.obj
 0002:00006198       _GUID_FONTSTRIKETHROUGH    1008d198     uuid:cguid_i.obj
 0002:000061a8       _GUID_HANDLE               1008d1a8     uuid:cguid_i.obj
 0002:000061b8       _IID_StdOle                1008d1b8     uuid:cguid_i.obj
 0002:000061c8       _IID_ICursor               1008d1c8     uuid:cguid_i.obj
 0002:000061d8       _IID_ICursorMove           1008d1d8     uuid:cguid_i.obj
 0002:000061e8       _IID_ICursorScroll         1008d1e8     uuid:cguid_i.obj
 0002:000061f8       _IID_ICursorUpdateARow     1008d1f8     uuid:cguid_i.obj
 0002:00006208       _IID_INotifyDBEvents       1008d208     uuid:cguid_i.obj
 0002:00006218       _IID_ICursorFind           1008d218     uuid:cguid_i.obj
 0002:00006228       _IID_IEntryID              1008d228     uuid:cguid_i.obj
 0002:00006238       __GUID_NAMEONLY            1008d238     uuid:cguid_i.obj
 0002:00006248       __DBBMKGUID                1008d248     uuid:cguid_i.obj
 0002:00006258       __DBCIDGUID                1008d258     uuid:cguid_i.obj
 0002:00006268       _IID_IBoundObject          1008d268     uuid:cguid_i.obj
 0002:00006278       _IID_IBoundObjectSite      1008d278     uuid:cguid_i.obj
 0002:00006288       _CLSID_GblComponentCategoriesMgr 1008d288     uuid:cguid_i.obj
 0002:00006298       _CLSID_ThumbnailFCNHandler 1008d298     uuid:cguid_i.obj
 0002:000062a8       _CLSID_ThumbnailUpdater    1008d2a8     uuid:cguid_i.obj
 0002:000062b8       _IID_ICallbackWithNoReentrancyToApplicationSTA 1008d2b8     uuid:cguid_i.obj
 0002:000062c8       _CLSID_TypeLibRegistrationReader 1008d2c8     uuid:cguid_i.obj
 0002:000062d8       _GUID_DEVCLASS_1394        1008d2d8     uuid:cguid_i.obj
 0002:000062e8       _GUID_DEVCLASS_1394DEBUG   1008d2e8     uuid:cguid_i.obj
 0002:000062f8       _GUID_DEVCLASS_61883       1008d2f8     uuid:cguid_i.obj
 0002:00006308       _GUID_DEVCLASS_ADAPTER     1008d308     uuid:cguid_i.obj
 0002:00006318       _GUID_DEVCLASS_APMSUPPORT  1008d318     uuid:cguid_i.obj
 0002:00006328       _GUID_DEVCLASS_AVC         1008d328     uuid:cguid_i.obj
 0002:00006338       _GUID_DEVCLASS_BATTERY     1008d338     uuid:cguid_i.obj
 0002:00006348       _GUID_DEVCLASS_BIOMETRIC   1008d348     uuid:cguid_i.obj
 0002:00006358       _GUID_DEVCLASS_BLUETOOTH   1008d358     uuid:cguid_i.obj
 0002:00006368       _GUID_DEVCLASS_CAMERA      1008d368     uuid:cguid_i.obj
 0002:00006378       _GUID_DEVCLASS_CDROM       1008d378     uuid:cguid_i.obj
 0002:00006388       _GUID_DEVCLASS_COMPUTEACCELERATOR 1008d388     uuid:cguid_i.obj
 0002:00006398       _GUID_DEVCLASS_COMPUTER    1008d398     uuid:cguid_i.obj
 0002:000063a8       _GUID_DEVCLASS_DECODER     1008d3a8     uuid:cguid_i.obj
 0002:000063b8       _GUID_DEVCLASS_DISKDRIVE   1008d3b8     uuid:cguid_i.obj
 0002:000063c8       _GUID_DEVCLASS_DISPLAY     1008d3c8     uuid:cguid_i.obj
 0002:000063d8       _GUID_DEVCLASS_DOT4        1008d3d8     uuid:cguid_i.obj
 0002:000063e8       _GUID_DEVCLASS_DOT4PRINT   1008d3e8     uuid:cguid_i.obj
 0002:000063f8       _GUID_DEVCLASS_EHSTORAGESILO 1008d3f8     uuid:cguid_i.obj
 0002:00006408       _GUID_DEVCLASS_ENUM1394    1008d408     uuid:cguid_i.obj
 0002:00006418       _GUID_DEVCLASS_EXTENSION   1008d418     uuid:cguid_i.obj
 0002:00006428       _GUID_DEVCLASS_FDC         1008d428     uuid:cguid_i.obj
 0002:00006438       _GUID_DEVCLASS_FIRMWARE    1008d438     uuid:cguid_i.obj
 0002:00006448       _GUID_DEVCLASS_FLOPPYDISK  1008d448     uuid:cguid_i.obj
 0002:00006458       _GUID_DEVCLASS_GPS         1008d458     uuid:cguid_i.obj
 0002:00006468       _GUID_DEVCLASS_HDC         1008d468     uuid:cguid_i.obj
 0002:00006478       _GUID_DEVCLASS_HIDCLASS    1008d478     uuid:cguid_i.obj
 0002:00006488       _GUID_DEVCLASS_HOLOGRAPHIC 1008d488     uuid:cguid_i.obj
 0002:00006498       _GUID_DEVCLASS_IMAGE       1008d498     uuid:cguid_i.obj
 0002:000064a8       _GUID_DEVCLASS_INFINIBAND  1008d4a8     uuid:cguid_i.obj
 0002:000064b8       _GUID_DEVCLASS_INFRARED    1008d4b8     uuid:cguid_i.obj
 0002:000064c8       _GUID_DEVCLASS_KEYBOARD    1008d4c8     uuid:cguid_i.obj
 0002:000064d8       _GUID_DEVCLASS_LEGACYDRIVER 1008d4d8     uuid:cguid_i.obj
 0002:000064e8       _GUID_DEVCLASS_MEDIA       1008d4e8     uuid:cguid_i.obj
 0002:000064f8       _GUID_DEVCLASS_MEDIUM_CHANGER 1008d4f8     uuid:cguid_i.obj
 0002:00006508       _GUID_DEVCLASS_MEMORY      1008d508     uuid:cguid_i.obj
 0002:00006518       _GUID_DEVCLASS_MODEM       1008d518     uuid:cguid_i.obj
 0002:00006528       _GUID_DEVCLASS_MONITOR     1008d528     uuid:cguid_i.obj
 0002:00006538       _GUID_DEVCLASS_MOUSE       1008d538     uuid:cguid_i.obj
 0002:00006548       _GUID_DEVCLASS_MTD         1008d548     uuid:cguid_i.obj
 0002:00006558       _GUID_DEVCLASS_MULTIFUNCTION 1008d558     uuid:cguid_i.obj
 0002:00006568       _GUID_DEVCLASS_MULTIPORTSERIAL 1008d568     uuid:cguid_i.obj
 0002:00006578       _GUID_DEVCLASS_NET         1008d578     uuid:cguid_i.obj
 0002:00006588       _GUID_DEVCLASS_NETCLIENT   1008d588     uuid:cguid_i.obj
 0002:00006598       _GUID_DEVCLASS_NETDRIVER   1008d598     uuid:cguid_i.obj
 0002:000065a8       _GUID_DEVCLASS_NETSERVICE  1008d5a8     uuid:cguid_i.obj
 0002:000065b8       _GUID_DEVCLASS_NETTRANS    1008d5b8     uuid:cguid_i.obj
 0002:000065c8       _GUID_DEVCLASS_NODRIVER    1008d5c8     uuid:cguid_i.obj
 0002:000065d8       _GUID_DEVCLASS_PCMCIA      1008d5d8     uuid:cguid_i.obj
 0002:000065e8       _GUID_DEVCLASS_PNPPRINTERS 1008d5e8     uuid:cguid_i.obj
 0002:000065f8       _GUID_DEVCLASS_PORTS       1008d5f8     uuid:cguid_i.obj
 0002:00006608       _GUID_DEVCLASS_PRINTER     1008d608     uuid:cguid_i.obj
 0002:00006618       _GUID_DEVCLASS_PRINTERUPGRADE 1008d618     uuid:cguid_i.obj
 0002:00006628       _GUID_DEVCLASS_PRINTQUEUE  1008d628     uuid:cguid_i.obj
 0002:00006638       _GUID_DEVCLASS_PROCESSOR   1008d638     uuid:cguid_i.obj
 0002:00006648       _GUID_DEVCLASS_SBP2        1008d648     uuid:cguid_i.obj
 0002:00006658       _GUID_DEVCLASS_SCMDISK     1008d658     uuid:cguid_i.obj
 0002:00006668       _GUID_DEVCLASS_SCMVOLUME   1008d668     uuid:cguid_i.obj
 0002:00006678       _GUID_DEVCLASS_SCSIADAPTER 1008d678     uuid:cguid_i.obj
 0002:00006688       _GUID_DEVCLASS_SECURITYACCELERATOR 1008d688     uuid:cguid_i.obj
 0002:00006698       _GUID_DEVCLASS_SENSOR      1008d698     uuid:cguid_i.obj
 0002:000066a8       _GUID_DEVCLASS_SIDESHOW    1008d6a8     uuid:cguid_i.obj
 0002:000066b8       _GUID_DEVCLASS_SMARTCARDREADER 1008d6b8     uuid:cguid_i.obj
 0002:000066c8       _GUID_DEVCLASS_SMRDISK     1008d6c8     uuid:cguid_i.obj
 0002:000066d8       _GUID_DEVCLASS_SMRVOLUME   1008d6d8     uuid:cguid_i.obj
 0002:000066e8       _GUID_DEVCLASS_SOFTWARECOMPONENT 1008d6e8     uuid:cguid_i.obj
 0002:000066f8       _GUID_DEVCLASS_SOUND       1008d6f8     uuid:cguid_i.obj
 0002:00006708       _GUID_DEVCLASS_SYSTEM      1008d708     uuid:cguid_i.obj
 0002:00006718       _GUID_DEVCLASS_TAPEDRIVE   1008d718     uuid:cguid_i.obj
 0002:00006728       _GUID_DEVCLASS_UNKNOWN     1008d728     uuid:cguid_i.obj
 0002:00006738       _GUID_DEVCLASS_UCM         1008d738     uuid:cguid_i.obj
 0002:00006748       _GUID_DEVCLASS_USB         1008d748     uuid:cguid_i.obj
 0002:00006758       _GUID_DEVCLASS_VOLUME      1008d758     uuid:cguid_i.obj
 0002:00006768       _GUID_DEVCLASS_VOLUMESNAPSHOT 1008d768     uuid:cguid_i.obj
 0002:00006778       _GUID_DEVCLASS_WCEUSBS     1008d778     uuid:cguid_i.obj
 0002:00006788       _GUID_DEVCLASS_WPD         1008d788     uuid:cguid_i.obj
 0002:00006798       _GUID_DEVCLASS_FSFILTER_TOP 1008d798     uuid:cguid_i.obj
 0002:000067a8       _GUID_DEVCLASS_FSFILTER_ACTIVITYMONITOR 1008d7a8     uuid:cguid_i.obj
 0002:000067b8       _GUID_DEVCLASS_FSFILTER_UNDELETE 1008d7b8     uuid:cguid_i.obj
 0002:000067c8       _GUID_DEVCLASS_FSFILTER_ANTIVIRUS 1008d7c8     uuid:cguid_i.obj
 0002:000067d8       _GUID_DEVCLASS_FSFILTER_REPLICATION 1008d7d8     uuid:cguid_i.obj
 0002:000067e8       _GUID_DEVCLASS_FSFILTER_CONTINUOUSBACKUP 1008d7e8     uuid:cguid_i.obj
 0002:000067f8       _GUID_DEVCLASS_FSFILTER_CONTENTSCREENER 1008d7f8     uuid:cguid_i.obj
 0002:00006808       _GUID_DEVCLASS_FSFILTER_QUOTAMANAGEMENT 1008d808     uuid:cguid_i.obj
 0002:00006818       _GUID_DEVCLASS_FSFILTER_SYSTEMRECOVERY 1008d818     uuid:cguid_i.obj
 0002:00006828       _GUID_DEVCLASS_FSFILTER_CFSMETADATASERVER 1008d828     uuid:cguid_i.obj
 0002:00006838       _GUID_DEVCLASS_FSFILTER_HSM 1008d838     uuid:cguid_i.obj
 0002:00006848       _GUID_DEVCLASS_FSFILTER_COMPRESSION 1008d848     uuid:cguid_i.obj
 0002:00006858       _GUID_DEVCLASS_FSFILTER_ENCRYPTION 1008d858     uuid:cguid_i.obj
 0002:00006868       _GUID_DEVCLASS_FSFILTER_VIRTUALIZATION 1008d868     uuid:cguid_i.obj
 0002:00006878       _GUID_DEVCLASS_FSFILTER_PHYSICALQUOTAMANAGEMENT 1008d878     uuid:cguid_i.obj
 0002:00006888       _GUID_DEVCLASS_FSFILTER_OPENFILEBACKUP 1008d888     uuid:cguid_i.obj
 0002:00006898       _GUID_DEVCLASS_FSFILTER_SECURITYENHANCER 1008d898     uuid:cguid_i.obj
 0002:000068a8       _GUID_DEVCLASS_FSFILTER_COPYPROTECTION 1008d8a8     uuid:cguid_i.obj
 0002:000068b8       _GUID_DEVCLASS_FSFILTER_BOTTOM 1008d8b8     uuid:cguid_i.obj
 0002:000068c8       _GUID_DEVCLASS_FSFILTER_SYSTEM 1008d8c8     uuid:cguid_i.obj
 0002:000068d8       _GUID_DEVCLASS_FSFILTER_INFRASTRUCTURE 1008d8d8     uuid:cguid_i.obj
 0002:000068e8       _GUID_DEVINTERFACE_DISK    1008d8e8     uuid:cguid_i.obj
 0002:000068f8       _GUID_DEVINTERFACE_CDROM   1008d8f8     uuid:cguid_i.obj
 0002:00006908       _GUID_DEVINTERFACE_PARTITION 1008d908     uuid:cguid_i.obj
 0002:00006918       _GUID_DEVINTERFACE_TAPE    1008d918     uuid:cguid_i.obj
 0002:00006928       _GUID_DEVINTERFACE_WRITEONCEDISK 1008d928     uuid:cguid_i.obj
 0002:00006938       _GUID_DEVINTERFACE_VOLUME  1008d938     uuid:cguid_i.obj
 0002:00006948       _GUID_DEVINTERFACE_MEDIUMCHANGER 1008d948     uuid:cguid_i.obj
 0002:00006958       _GUID_DEVINTERFACE_FLOPPY  1008d958     uuid:cguid_i.obj
 0002:00006968       _GUID_DEVINTERFACE_CDCHANGER 1008d968     uuid:cguid_i.obj
 0002:00006978       _GUID_DEVINTERFACE_STORAGEPORT 1008d978     uuid:cguid_i.obj
 0002:00006988       _GUID_DEVINTERFACE_VMLUN   1008d988     uuid:cguid_i.obj
 0002:00006998       _GUID_DEVINTERFACE_SES     1008d998     uuid:cguid_i.obj
 0002:000069a8       _GUID_DEVINTERFACE_SERVICE_VOLUME 1008d9a8     uuid:cguid_i.obj
 0002:000069b8       _GUID_DEVINTERFACE_HIDDEN_VOLUME 1008d9b8     uuid:cguid_i.obj
 0002:000069c8       _GUID_DEVINTERFACE_UNIFIED_ACCESS_RPMB 1008d9c8     uuid:cguid_i.obj
 0002:000069d8       _GUID_DEVINTERFACE_SCM_PHYSICAL_DEVICE 1008d9d8     uuid:cguid_i.obj
 0002:000069e8       _GUID_SCM_PD_HEALTH_NOTIFICATION 1008d9e8     uuid:cguid_i.obj
 0002:000069f8       _GUID_SCM_PD_PASSTHROUGH_INVDIMM 1008d9f8     uuid:cguid_i.obj
 0002:00006a08       _GUID_DEVINTERFACE_COMPORT 1008da08     uuid:cguid_i.obj
 0002:00006a18       _GUID_DEVINTERFACE_SERENUM_BUS_ENUMERATOR 1008da18     uuid:cguid_i.obj
 0002:00006a28       _CLSID_StdURLMoniker       1008da28     uuid:ieguids.obj
 0002:00006a38       _CLSID_StdURLProtocol      1008da38     uuid:ieguids.obj
 0002:00006a48       _CLSID_HttpProtocol        1008da48     uuid:ieguids.obj
 0002:00006a58       _CLSID_FtpProtocol         1008da58     uuid:ieguids.obj
 0002:00006a68       _CLSID_GopherProtocol      1008da68     uuid:ieguids.obj
 0002:00006a78       _CLSID_HttpSProtocol       1008da78     uuid:ieguids.obj
 0002:00006a88       _CLSID_MkProtocol          1008da88     uuid:ieguids.obj
 0002:00006a98       _CLSID_FileProtocol        1008da98     uuid:ieguids.obj
 0002:00006aa8       _CLSID_PSUrlMonProxy       1008daa8     uuid:ieguids.obj
 0002:00006ab8       _CLSID_UrlMkBindCtx        1008dab8     uuid:ieguids.obj
 0002:00006ac8       _CLSID_ResProtocol         1008dac8     uuid:ieguids.obj
 0002:00006ad8       _CLSID_AboutProtocol       1008dad8     uuid:ieguids.obj
 0002:00006ae8       _CLSID_JSProtocol          1008dae8     uuid:ieguids.obj
 0002:00006af8       _CLSID_MailtoProtocol      1008daf8     uuid:ieguids.obj
 0002:00006b08       _CLSID_TBAuthProtocol      1008db08     uuid:ieguids.obj
 0002:00006b18       _CLSID_IE4_PROTOCOLS       1008db18     uuid:ieguids.obj
 0002:00006b28       _IID_IAsyncMoniker         1008db28     uuid:ieguids.obj
 0002:00006b38       _IID_IBindStatusCallbackHolder 1008db38     uuid:ieguids.obj
 0002:00006b48       _IID_IAsyncBindCtx         1008db48     uuid:ieguids.obj
 0002:00006b58       _IID_IBindStatusCallbackMsg 1008db58     uuid:ieguids.obj
 0002:00006b68       _IID_IDebugRegister        1008db68     uuid:ieguids.obj
 0002:00006b78       _IID_IDebugOut             1008db78     uuid:ieguids.obj
 0002:00006b88       _CLSID_StdNotificationMgr  1008db88     uuid:ieguids.obj
 0002:00006b98       _CLSID_WebCheckDefaultProcess 1008db98     uuid:ieguids.obj
 0002:00006ba8       _IID_IEnumPropertyMap      1008dba8     uuid:ieguids.obj
 0002:00006bb8       _IID_IPropertyMap          1008dbb8     uuid:ieguids.obj
 0002:00006bc8       _IID_INotification         1008dbc8     uuid:ieguids.obj
 0002:00006bd8       _IID_INotificationMgr      1008dbd8     uuid:ieguids.obj
 0002:00006be8       _IID_INotificationSink     1008dbe8     uuid:ieguids.obj
 0002:00006bf8       _IID_IScheduleGroup        1008dbf8     uuid:ieguids.obj
 0002:00006c08       _IID_INotificationReport   1008dc08     uuid:ieguids.obj
 0002:00006c18       _IID_IEnumNotification     1008dc18     uuid:ieguids.obj
 0002:00006c28       _IID_IEnumScheduleGroup    1008dc28     uuid:ieguids.obj
 0002:00006c38       _IID_IEnumNotificationSinkItem 1008dc38     uuid:ieguids.obj
 0002:00006c48       _IID_INotificationHelper   1008dc48     uuid:ieguids.obj
 0002:00006c58       _IID_INotificationPing     1008dc58     uuid:ieguids.obj
 0002:00006c68       _IID_INotificationRunning  1008dc68     uuid:ieguids.obj
 0002:00006c78       _IID_INotificationProcessMgr0 1008dc78     uuid:ieguids.obj
 0002:00006c88       _IID_IOInet                1008dc88     uuid:ieguids.obj
 0002:00006c98       _IID_IOInetBindInfo        1008dc98     uuid:ieguids.obj
 0002:00006ca8       _IID_IOInetBindClient      1008dca8     uuid:ieguids.obj
 0002:00006cb8       _IID_IOInetProtocolRoot    1008dcb8     uuid:ieguids.obj
 0002:00006cc8       _IID_IOInetProtocol        1008dcc8     uuid:ieguids.obj
 0002:00006cd8       _IID_IOInetProtocolSink    1008dcd8     uuid:ieguids.obj
 0002:00006ce8       _IID_IOInetSession         1008dce8     uuid:ieguids.obj
 0002:00006cf8       _IID_IOInetThreadSwitch    1008dcf8     uuid:ieguids.obj
 0002:00006d08       _IID_IOInetCache           1008dd08     uuid:ieguids.obj
 0002:00006d18       _IID_IOInetPriority        1008dd18     uuid:ieguids.obj
 0002:00006d28       _IID_IOInetProtocolInfo    1008dd28     uuid:ieguids.obj
 0002:00006d38       _CLSID_GLOBAL_BROADCAST    1008dd38     uuid:ieguids.obj
 0002:00006d48       _CLSID_PROCESS_BROADCAST   1008dd48     uuid:ieguids.obj
 0002:00006d58       _CLSID_THREAD_BROADCAST    1008dd58     uuid:ieguids.obj
 0002:00006d68       _CLSID_1                   1008dd68     uuid:ieguids.obj
 0002:00006d78       _CLSID_2                   1008dd78     uuid:ieguids.obj
 0002:00006d88       _CLSID_3                   1008dd88     uuid:ieguids.obj
 0002:00006d98       _CLSID_4                   1008dd98     uuid:ieguids.obj
 0002:00006da8       _CLSID_5                   1008dda8     uuid:ieguids.obj
 0002:00006db8       _CLSID_6                   1008ddb8     uuid:ieguids.obj
 0002:00006dc8       _CLSID_7                   1008ddc8     uuid:ieguids.obj
 0002:00006dd8       _CLSID_8                   1008ddd8     uuid:ieguids.obj
 0002:00006de8       _CLSID_9                   1008dde8     uuid:ieguids.obj
 0002:00006df8       _CLSID_a                   1008ddf8     uuid:ieguids.obj
 0002:00006e08       _CLSID_b                   1008de08     uuid:ieguids.obj
 0002:00006e18       _CLSID_c                   1008de18     uuid:ieguids.obj
 0002:00006e28       _CLSID_d                   1008de28     uuid:ieguids.obj
 0002:00006e38       _NOTIFICATIONTYPE_ITEM_START 1008de38     uuid:ieguids.obj
 0002:00006e48       _NOTIFICATIONTYPE_ITEM_RESTART 1008de48     uuid:ieguids.obj
 0002:00006e58       _NOTIFICATIONTYPE_ITEM_DONE 1008de58     uuid:ieguids.obj
 0002:00006e68       _NOTIFICATIONTYPE_GROUP_START 1008de68     uuid:ieguids.obj
 0002:00006e78       _NOTIFICATIONTYPE_GROUP_RESTART 1008de78     uuid:ieguids.obj
 0002:00006e88       _NOTIFICATIONTYPE_GROUP_DONE 1008de88     uuid:ieguids.obj
 0002:00006e98       _NOTIFICATIONTYPE_i6       1008de98     uuid:ieguids.obj
 0002:00006ea8       _NOTIFICATIONTYPE_i7       1008dea8     uuid:ieguids.obj
 0002:00006eb8       _NOTIFICATIONTYPE_i8       1008deb8     uuid:ieguids.obj
 0002:00006ec8       _NOTIFICATIONTYPE_i9       1008dec8     uuid:ieguids.obj
 0002:00006ed8       _NOTIFICATIONTYPE_iA       1008ded8     uuid:ieguids.obj
 0002:00006ee8       _NOTIFICATIONTYPE_iB       1008dee8     uuid:ieguids.obj
 0002:00006ef8       _NOTIFICATIONTYPE_iC       1008def8     uuid:ieguids.obj
 0002:00006f08       _NOTIFICATIONTYPE_iD       1008df08     uuid:ieguids.obj
 0002:00006f18       _NOTIFICATIONTYPE_iE       1008df18     uuid:ieguids.obj
 0002:00006f28       _NOTIFICATIONTYPE_iF       1008df28     uuid:ieguids.obj
 0002:00006f38       _NOTFCOOKIE_SCHEDULE_GROUP_DAILY 1008df38     uuid:ieguids.obj
 0002:00006f48       _NOTFCOOKIE_SCHEDULE_GROUP_WEEKLY 1008df48     uuid:ieguids.obj
 0002:00006f58       _NOTFCOOKIE_SCHEDULE_GROUP_MONTHLY 1008df58     uuid:ieguids.obj
 0002:00006f68       _NOTFCOOKIE_SCHEDULE_GROUP_MANUAL 1008df68     uuid:ieguids.obj
 0002:00006f78       _NOTIFICATIONTYPE_NULL     1008df78     uuid:ieguids.obj
 0002:00006f88       _NOTIFICATIONTYPE_ANOUNCMENT 1008df88     uuid:ieguids.obj
 0002:00006f98       _NOTIFICATIONTYPE_TASK     1008df98     uuid:ieguids.obj
 0002:00006fa8       _NOTIFICATIONTYPE_ALERT    1008dfa8     uuid:ieguids.obj
 0002:00006fb8       _NOTIFICATIONTYPE_INET_IDLE 1008dfb8     uuid:ieguids.obj
 0002:00006fc8       _NOTIFICATIONTYPE_INET_OFFLINE 1008dfc8     uuid:ieguids.obj
 0002:00006fd8       _NOTIFICATIONTYPE_INET_ONLINE 1008dfd8     uuid:ieguids.obj
 0002:00006fe8       _NOTIFICATIONTYPE_TASKS_SUSPEND 1008dfe8     uuid:ieguids.obj
 0002:00006ff8       _NOTIFICATIONTYPE_TASKS_RESUME 1008dff8     uuid:ieguids.obj
 0002:00007008       _NOTIFICATIONTYPE_TASKS_ABORT 1008e008     uuid:ieguids.obj
 0002:00007018       _NOTIFICATIONTYPE_TASKS_COMPLETED 1008e018     uuid:ieguids.obj
 0002:00007028       _NOTIFICATIONTYPE_TASKS_PROGRESS 1008e028     uuid:ieguids.obj
 0002:00007038       _NOTIFICATIONTYPE_AGENT_START 1008e038     uuid:ieguids.obj
 0002:00007048       _NOTIFICATIONTYPE_BEGIN_REPORT 1008e048     uuid:ieguids.obj
 0002:00007058       _NOTIFICATIONTYPE_END_REPORT 1008e058     uuid:ieguids.obj
 0002:00007068       _NOTIFICATIONTYPE_AGENT_INIT 1008e068     uuid:ieguids.obj
 0002:00007078       _NOTIFICATIONTYPE_CONNECT_TO_INTERNET 1008e078     uuid:ieguids.obj
 0002:00007088       _NOTIFICATIONTYPE_DISCONNECT_FROM_INTERNET 1008e088     uuid:ieguids.obj
 0002:00007098       _NOTIFICATIONTYPE_CONFIG_CHANGED 1008e098     uuid:ieguids.obj
 0002:000070a8       _NOTIFICATIONTYPE_PROGRESS_REPORT 1008e0a8     uuid:ieguids.obj
 0002:000070b8       _NOTIFICATIONTYPE_USER_IDLE_BEGIN 1008e0b8     uuid:ieguids.obj
 0002:000070c8       _NOTIFICATIONTYPE_USER_IDLE_END 1008e0c8     uuid:ieguids.obj
 0002:000070d8       _NOTIFICATIONTYPE_TASKS_STARTED 1008e0d8     uuid:ieguids.obj
 0002:000070e8       _NOTIFICATIONTYPE_TASKS_ERROR 1008e0e8     uuid:ieguids.obj
 0002:000070f8       _NOTIFICATIONTYPE_d        1008e0f8     uuid:ieguids.obj
 0002:00007108       _NOTIFICATIONTYPE_e        1008e108     uuid:ieguids.obj
 0002:00007118       _NOTIFICATIONTYPE_f        1008e118     uuid:ieguids.obj
 0002:00007128       _NOTIFICATIONTYPE_11       1008e128     uuid:ieguids.obj
 0002:00007138       _NOTIFICATIONTYPE_12       1008e138     uuid:ieguids.obj
 0002:00007148       _NOTIFICATIONTYPE_13       1008e148     uuid:ieguids.obj
 0002:00007158       _NOTIFICATIONTYPE_14       1008e158     uuid:ieguids.obj
 0002:00007168       _NOTIFICATIONTYPE_15       1008e168     uuid:ieguids.obj
 0002:00007178       _NOTIFICATIONTYPE_START_0  1008e178     uuid:ieguids.obj
 0002:00007188       _NOTIFICATIONTYPE_START_1  1008e188     uuid:ieguids.obj
 0002:00007198       _NOTIFICATIONTYPE_START_2  1008e198     uuid:ieguids.obj
 0002:000071a8       _NOTIFICATIONTYPE_START_3  1008e1a8     uuid:ieguids.obj
 0002:000071b8       _NOTIFICATIONTYPE_START_4  1008e1b8     uuid:ieguids.obj
 0002:000071c8       _NOTIFICATIONTYPE_START_5  1008e1c8     uuid:ieguids.obj
 0002:000071d8       _NOTIFICATIONTYPE_START_6  1008e1d8     uuid:ieguids.obj
 0002:000071e8       _NOTIFICATIONTYPE_START_7  1008e1e8     uuid:ieguids.obj
 0002:000071f8       _NOTIFICATIONTYPE_START_8  1008e1f8     uuid:ieguids.obj
 0002:00007208       _NOTIFICATIONTYPE_START_9  1008e208     uuid:ieguids.obj
 0002:00007218       _NOTIFICATIONTYPE_START_A  1008e218     uuid:ieguids.obj
 0002:00007228       _NOTIFICATIONTYPE_START_B  1008e228     uuid:ieguids.obj
 0002:00007238       _NOTIFICATIONTYPE_START_C  1008e238     uuid:ieguids.obj
 0002:00007248       _NOTIFICATIONTYPE_START_D  1008e248     uuid:ieguids.obj
 0002:00007258       _NOTIFICATIONTYPE_START_E  1008e258     uuid:ieguids.obj
 0002:00007268       _NOTIFICATIONTYPE_START_F  1008e268     uuid:ieguids.obj
 0002:00007278       _CLSID_NotificaitonTest1   1008e278     uuid:ieguids.obj
 0002:00007288       _CLSID_NotificaitonTest2   1008e288     uuid:ieguids.obj
 0002:00007298       _CLSID_NotificaitonTest3   1008e298     uuid:ieguids.obj
 0002:000072a8       _CLSID_NotificaitonTest4   1008e2a8     uuid:ieguids.obj
 0002:000072b8       _CLSID_CdlProtocol         1008e2b8     uuid:ieguids.obj
 0002:000072c8       _CLSID_ClassInstallFilter  1008e2c8     uuid:ieguids.obj
 0002:000072d8       _LIBID_Accessibility       1008e2d8     uuid:ieguids.obj
 0002:000072e8       _IID_IAccessible           1008e2e8     uuid:ieguids.obj
 0002:000072f8       _IIS_ControlAccessible     1008e2f8     uuid:ieguids.obj
 0002:00007308       _SID_SContainerDispatch    1008e308     uuid:ieguids.obj
 0002:00007318       _SID_SDataPathBrowser      1008e318     uuid:ieguids.obj
 0002:00007328       _GUID_PathProperty         1008e328     uuid:ieguids.obj
 0002:00007338       _GUID_HasPathProperties    1008e338     uuid:ieguids.obj
 0002:00007348       _CLSID_StdHlink            1008e348     uuid:ieguids.obj
 0002:00007358       _CLSID_StdHlinkBrowseContext 1008e358     uuid:ieguids.obj
 0002:00007368       _OLE_DATAPATH_BMP          1008e368     uuid:ieguids.obj
 0002:00007378       _OLE_DATAPATH_DIB          1008e378     uuid:ieguids.obj
 0002:00007388       _OLE_DATAPATH_WMF          1008e388     uuid:ieguids.obj
 0002:00007398       _OLE_DATAPATH_ENHMF        1008e398     uuid:ieguids.obj
 0002:000073a8       _OLE_DATAPATH_GIF          1008e3a8     uuid:ieguids.obj
 0002:000073b8       _OLE_DATAPATH_JPEG         1008e3b8     uuid:ieguids.obj
 0002:000073c8       _OLE_DATAPATH_TIFF         1008e3c8     uuid:ieguids.obj
 0002:000073d8       _OLE_DATAPATH_XBM          1008e3d8     uuid:ieguids.obj
 0002:000073e8       _OLE_DATAPATH_PCX          1008e3e8     uuid:ieguids.obj
 0002:000073f8       _OLE_DATAPATH_PICT         1008e3f8     uuid:ieguids.obj
 0002:00007408       _OLE_DATAPATH_CGM          1008e408     uuid:ieguids.obj
 0002:00007418       _OLE_DATAPATH_EPS          1008e418     uuid:ieguids.obj
 0002:00007428       _OLE_DATAPATH_COMMONIMAGE  1008e428     uuid:ieguids.obj
 0002:00007438       _OLE_DATAPATH_ALLIMAGE     1008e438     uuid:ieguids.obj
 0002:00007448       _OLE_DATAPATH_AVI          1008e448     uuid:ieguids.obj
 0002:00007458       _OLE_DATAPATH_MPEG         1008e458     uuid:ieguids.obj
 0002:00007468       _OLE_DATAPATH_QUICKTIME    1008e468     uuid:ieguids.obj
 0002:00007478       _OLE_DATAPATH_BASICAUDIO   1008e478     uuid:ieguids.obj
 0002:00007488       _OLE_DATAPATH_MIDI         1008e488     uuid:ieguids.obj
 0002:00007498       _OLE_DATAPATH_WAV          1008e498     uuid:ieguids.obj
 0002:000074a8       _OLE_DATAPATH_RIFF         1008e4a8     uuid:ieguids.obj
 0002:000074b8       _OLE_DATAPATH_SOUND        1008e4b8     uuid:ieguids.obj
 0002:000074c8       _OLE_DATAPATH_VIDEO        1008e4c8     uuid:ieguids.obj
 0002:000074d8       _OLE_DATAPATH_ALLMM        1008e4d8     uuid:ieguids.obj
 0002:000074e8       _OLE_DATAPATH_ANSITEXT     1008e4e8     uuid:ieguids.obj
 0002:000074f8       _OLE_DATAPATH_UNICODE      1008e4f8     uuid:ieguids.obj
 0002:00007508       _OLE_DATAPATH_RTF          1008e508     uuid:ieguids.obj
 0002:00007518       _OLE_DATAPATH_HTML         1008e518     uuid:ieguids.obj
 0002:00007528       _OLE_DATAPATH_POSTSCRIPT   1008e528     uuid:ieguids.obj
 0002:00007538       _OLE_DATAPATH_ALLTEXT      1008e538     uuid:ieguids.obj
 0002:00007548       _OLE_DATAPATH_DIF          1008e548     uuid:ieguids.obj
 0002:00007558       _OLE_DATAPATH_SYLK         1008e558     uuid:ieguids.obj
 0002:00007568       _OLE_DATAPATH_BIFF         1008e568     uuid:ieguids.obj
 0002:00007578       _OLE_DATAPATH_PALETTE      1008e578     uuid:ieguids.obj
 0002:00007588       _OLE_DATAPATH_PENDATA      1008e588     uuid:ieguids.obj
 0002:00007598       _FLAGID_Internet           1008e598     uuid:ieguids.obj
 0002:000075a8       _ARRAYID_PathProperties    1008e5a8     uuid:ieguids.obj
 0002:000075b8       _CLSID_StdComponentCategoriesMgr 1008e5b8     uuid:ieguids.obj
 0002:000075c8       _CATID_Insertable          1008e5c8     uuid:ieguids.obj
 0002:000075d8       _CATID_Control             1008e5d8     uuid:ieguids.obj
 0002:000075e8       _CATID_Programmable        1008e5e8     uuid:ieguids.obj
 0002:000075f8       _CATID_IsShortcut          1008e5f8     uuid:ieguids.obj
 0002:00007608       _CATID_NeverShowExt        1008e608     uuid:ieguids.obj
 0002:00007618       _CATID_DocObject           1008e618     uuid:ieguids.obj
 0002:00007628       _CATID_Printable           1008e628     uuid:ieguids.obj
 0002:00007638       _CATID_RequiresDataPathHost 1008e638     uuid:ieguids.obj
 0002:00007648       _CATID_PersistsToMoniker   1008e648     uuid:ieguids.obj
 0002:00007658       _CATID_PersistsToStorage   1008e658     uuid:ieguids.obj
 0002:00007668       _CATID_PersistsToStreamInit 1008e668     uuid:ieguids.obj
 0002:00007678       _CATID_PersistsToStream    1008e678     uuid:ieguids.obj
 0002:00007688       _CATID_PersistsToMemory    1008e688     uuid:ieguids.obj
 0002:00007698       _CATID_PersistsToFile      1008e698     uuid:ieguids.obj
 0002:000076a8       _CATID_PersistsToPropertyBag 1008e6a8     uuid:ieguids.obj
 0002:000076b8       _CATID_InternetAware       1008e6b8     uuid:ieguids.obj
 0002:000076c8       _CATID_SafeForScripting    1008e6c8     uuid:ieguids.obj
 0002:000076d8       _CATID_SafeForInitializing 1008e6d8     uuid:ieguids.obj
 0002:000076e8       _CATID_DesignTimeUIActivatableControl 1008e6e8     uuid:ieguids.obj
 0002:000076f8       _CATID_AppContainerCompatible 1008e6f8     uuid:ieguids.obj
 0002:00007708       _CATID_ExtensionValidation 1008e708     uuid:ieguids.obj
 0002:00007718       _CLSID_IImgCtx             1008e718     uuid:ieguids.obj
 0002:00007728       _IID_IImgCtx               1008e728     uuid:ieguids.obj
 0002:00007738       _CLSID_IImageDecodeFilter  1008e738     uuid:ieguids.obj
 0002:00007748       _CGID_MSHTML               1008e748     uuid:ieguids.obj
 0002:00007758       _CLSID_MHTMLDocument       1008e758     uuid:ieguids.obj
 0002:00007768       _CLSID_HTADocument         1008e768     uuid:ieguids.obj
 0002:00007778       _CLSID_HTMLApplication     1008e778     uuid:ieguids.obj
 0002:00007788       _CLSID_HTMLPluginDocument  1008e788     uuid:ieguids.obj
 0002:00007798       _CGID_DocHostCommandHandler 1008e798     uuid:ieguids.obj
 0002:000077a8       _SID_SHTMLEditServices     1008e7a8     uuid:ieguids.obj
 0002:000077b8       _CGID_ScriptSite           1008e7b8     uuid:ieguids.obj
 0002:000077c8       _CLSID_IEXMLDocument       1008e7c8     uuid:ieguids.obj
 0002:000077d8       _CLSID_SVGDocument         1008e7d8     uuid:ieguids.obj
 0002:000077e8       _CLSID_XHTMLDocument       1008e7e8     uuid:ieguids.obj
 0002:000077f8       _CLSID_TDC                 1008e7f8     uuid:ieguids.obj
 0002:00007808       _BFID_MONOCHROME           1008e808     uuid:ieguids.obj
 0002:00007818       _BFID_RGB_4                1008e818     uuid:ieguids.obj
 0002:00007828       _BFID_RGB_8                1008e828     uuid:ieguids.obj
 0002:00007838       _BFID_RGB_555              1008e838     uuid:ieguids.obj
 0002:00007848       _BFID_RGB_565              1008e848     uuid:ieguids.obj
 0002:00007858       _BFID_RGB_24               1008e858     uuid:ieguids.obj
 0002:00007868       _BFID_RGB_32               1008e868     uuid:ieguids.obj
 0002:00007878       _BFID_RGBA_32              1008e878     uuid:ieguids.obj
 0002:00007888       _BFID_GRAY_8               1008e888     uuid:ieguids.obj
 0002:00007898       _BFID_GRAY_16              1008e898     uuid:ieguids.obj
 0002:000078a8       _CLSID_IntDitherer         1008e8a8     uuid:ieguids.obj
 0002:000078b8       _IID_IIntDitherer          1008e8b8     uuid:ieguids.obj
 0002:000078c8       _NAMEDTIMER_DRAW           1008e8c8     uuid:ieguids.obj
 0002:000078d8       _CLSID_SoftDistExt         1008e8d8     uuid:ieguids.obj
 0002:000078e8       _CLSID_IActiveXSafetyProvider 1008e8e8     uuid:ieguids.obj
 0002:000078f8       _CLSID_InternetSecurityManager 1008e8f8     uuid:ieguids.obj
 0002:00007908       _CLSID_InternetZoneManager 1008e908     uuid:ieguids.obj
 0002:00007918       _GUID_CUSTOM_LOCALMACHINEZONEUNLOCKED 1008e918     uuid:ieguids.obj
 0002:00007928       _CLSID_PersistentZoneIdentifier 1008e928     uuid:ieguids.obj
 0002:00007938       _CLSID_HTMLLoadOptions     1008e938     uuid:ieguids.obj
 0002:00007948       _CLSID_SubscriptionThrottler 1008e948     uuid:ieguids.obj
 0002:00007958       _CGID_DownloadHost         1008e958     uuid:ieguids.obj
 0002:00007968       _CGID_InternetExplorer     1008e968     uuid:ieguids.obj
 0002:00007978       _SID_SVersionHost          1008e978     uuid:ieguids.obj
 0002:00007988       _CLSID_XFeedsManager       1008e988     uuid:ieguids.obj
 0002:00007998       _OID_INIPropStorage        1008e998     uuid:ieguids.obj
 0002:000079a8       _SID_SNewWindowManagerDown 1008e9a8     uuid:ieguids.obj
 0002:000079b8       _IID_IDocObjectService     1008e9b8     uuid:ieguids.obj
 0002:000079c8       _IID_IOpsProfileSimple     1008e9c8     uuid:ieguids.obj
 0002:000079d8       _IID_ITridentService3      1008e9d8     uuid:ieguids.obj
 0002:000079e8       _IID_ITridentService4      1008e9e8     uuid:ieguids.obj
 0002:000079f8       _IID_ITridentService5      1008e9f8     uuid:ieguids.obj
 0002:00007a08       _UUID_SharedRendertargetData 1008ea08     uuid:ieguids.obj
 0002:00007a18       _GUID_ATLVer30             1008ea18     atls:atlbase.obj
 0002:00007a28       _GUID_ATLVer70             1008ea28     atls:atlbase.obj
 0002:00007a38       _GUID_ATLVer100            1008ea38     atls:atlbase.obj
 0002:00007a48       _GUID_ATLVer110            1008ea48     atls:atlbase.obj
 0002:00007a58       ??_C@_1IC@ONKHOIDK@?$AAE?$AAR?$AAR?$AAO?$AAR?$AA?5?$AA?3?$AA?5?$AAU?$AAn?$AAa?$AAb?$AAl?$AAe?$AA?5@ 1008ea58     atls:atlbase.obj
 0002:00007adc       ??_C@_13HADIAKP@?$AAS@     1008eadc     atls:stdafx.obj
 0002:00007ae0       ??_C@_13LHMFKAAD@?$AAM@    1008eae0     atls:stdafx.obj
 0002:00007ae4       ??_C@_13MKMNOPIJ@?$AAD@    1008eae4     atls:stdafx.obj
 0002:00007ae8       ??_C@_13OPKGLAFF@?$AAB@    1008eae8     atls:stdafx.obj
 0002:00007aec       ??_C@_17LLMMEOJD@?$AAV?$AAa?$AAl@ 1008eaec     atls:stdafx.obj
 0002:00007af4       ??_C@_1BI@JFAIJMHL@?$AAF?$AAo?$AAr?$AAc?$AAe?$AAR?$AAe?$AAm?$AAo?$AAv?$AAe@ 1008eaf4     atls:stdafx.obj
 0002:00007b0c       ??_C@_1BC@GCKHIPE@?$AAN?$AAo?$AAR?$AAe?$AAm?$AAo?$AAv?$AAe@ 1008eb0c     atls:stdafx.obj
 0002:00007b20       ??_C@_1O@JDLOHAN@?$AAD?$AAe?$AAl?$AAe?$AAt?$AAe@ 1008eb20     atls:stdafx.obj
 0002:00007b30       ??_C@_1CA@ONGMEOAB@?$AAa?$AAt?$AAl?$AAT?$AAr?$AAa?$AAc?$AAe?$AAG?$AAe?$AAn?$AAe?$AAr?$AAa?$AAl@ 1008eb30     atls:stdafx.obj
 0002:00007b50       ??_C@_1BI@MAFGHOEE@?$AAa?$AAt?$AAl?$AAT?$AAr?$AAa?$AAc?$AAe?$AAC?$AAO?$AAM@ 1008eb50     atls:stdafx.obj
 0002:00007b68       ??_C@_1BG@FPLJJEMF@?$AAa?$AAt?$AAl?$AAT?$AAr?$AAa?$AAc?$AAe?$AAQ?$AAI@ 1008eb68     atls:stdafx.obj
 0002:00007b80       ??_C@_1CE@NIAEAIDK@?$AAa?$AAt?$AAl?$AAT?$AAr?$AAa?$AAc?$AAe?$AAR?$AAe?$AAg?$AAi?$AAs?$AAt?$AAr@ 1008eb80     atls:stdafx.obj
 0002:00007ba4       ??_C@_1CC@BNHGJFNK@?$AAa?$AAt?$AAl?$AAT?$AAr?$AAa?$AAc?$AAe?$AAR?$AAe?$AAf?$AAc?$AAo?$AAu?$AAn@ 1008eba4     atls:stdafx.obj
 0002:00007bc8       ??_C@_1CE@NAJDPMNB@?$AAa?$AAt?$AAl?$AAT?$AAr?$AAa?$AAc?$AAe?$AAW?$AAi?$AAn?$AAd?$AAo?$AAw?$AAi@ 1008ebc8     atls:stdafx.obj
 0002:00007bec       ??_C@_1CC@IMNJGBED@?$AAa?$AAt?$AAl?$AAT?$AAr?$AAa?$AAc?$AAe?$AAC?$AAo?$AAn?$AAt?$AAr?$AAo?$AAl@ 1008ebec     atls:stdafx.obj
 0002:00007c10       ??_C@_1CA@OMOMONMN@?$AAa?$AAt?$AAl?$AAT?$AAr?$AAa?$AAc?$AAe?$AAH?$AAo?$AAs?$AAt?$AAi?$AAn?$AAg@ 1008ec10     atls:stdafx.obj
 0002:00007c30       ??_C@_1CC@JNJJDOOH@?$AAa?$AAt?$AAl?$AAT?$AAr?$AAa?$AAc?$AAe?$AAD?$AAB?$AAC?$AAl?$AAi?$AAe?$AAn@ 1008ec30     atls:stdafx.obj
 0002:00007c54       ??_C@_1CG@MNMMIOOI@?$AAa?$AAt?$AAl?$AAT?$AAr?$AAa?$AAc?$AAe?$AAD?$AAB?$AAP?$AAr?$AAo?$AAv?$AAi@ 1008ec54     atls:stdafx.obj
 0002:00007c7c       ??_C@_1BO@EFPHNHHN@?$AAa?$AAt?$AAl?$AAT?$AAr?$AAa?$AAc?$AAe?$AAS?$AAn?$AAa?$AAp?$AAi?$AAn@ 1008ec7c     atls:stdafx.obj
 0002:00007c9c       ??_C@_1CA@DMHPIODO@?$AAa?$AAt?$AAl?$AAT?$AAr?$AAa?$AAc?$AAe?$AAN?$AAo?$AAt?$AAI?$AAm?$AAp?$AAl@ 1008ec9c     atls:stdafx.obj
 0002:00007cbc       ??_C@_1CG@KFEEMCDH@?$AAa?$AAt?$AAl?$AAT?$AAr?$AAa?$AAc?$AAe?$AAA?$AAl?$AAl?$AAo?$AAc?$AAa?$AAt@ 1008ecbc     atls:stdafx.obj
 0002:00007ce4       ??_C@_1CE@IMMADNAP@?$AAa?$AAt?$AAl?$AAT?$AAr?$AAa?$AAc?$AAe?$AAE?$AAx?$AAc?$AAe?$AAp?$AAt?$AAi@ 1008ece4     atls:stdafx.obj
 0002:00007d08       ??_C@_1BK@NCJHOFCL@?$AAa?$AAt?$AAl?$AAT?$AAr?$AAa?$AAc?$AAe?$AAT?$AAi?$AAm?$AAe@ 1008ed08     atls:stdafx.obj
 0002:00007d24       ??_C@_1BM@GIKLHLFD@?$AAa?$AAt?$AAl?$AAT?$AAr?$AAa?$AAc?$AAe?$AAC?$AAa?$AAc?$AAh?$AAe@ 1008ed24     atls:stdafx.obj
 0002:00007d40       ??_C@_1CA@PBPHANCD@?$AAa?$AAt?$AAl?$AAT?$AAr?$AAa?$AAc?$AAe?$AAS?$AAt?$AAe?$AAn?$AAc?$AAi?$AAl@ 1008ed40     atls:stdafx.obj
 0002:00007d60       ??_C@_1BO@GMLILNDJ@?$AAa?$AAt?$AAl?$AAT?$AAr?$AAa?$AAc?$AAe?$AAS?$AAt?$AAr?$AAi?$AAn?$AAg@ 1008ed60     atls:stdafx.obj
 0002:00007d80       ??_C@_1BI@OKDLCIEM@?$AAa?$AAt?$AAl?$AAT?$AAr?$AAa?$AAc?$AAe?$AAM?$AAa?$AAp@ 1008ed80     atls:stdafx.obj
 0002:00007d98       ??_C@_1BK@DMHCKHHD@?$AAa?$AAt?$AAl?$AAT?$AAr?$AAa?$AAc?$AAe?$AAU?$AAt?$AAi?$AAl@ 1008ed98     atls:stdafx.obj
 0002:00007db4       ??_C@_1CC@DMMBNCFG@?$AAa?$AAt?$AAl?$AAT?$AAr?$AAa?$AAc?$AAe?$AAS?$AAe?$AAc?$AAu?$AAr?$AAi?$AAt@ 1008edb4     atls:stdafx.obj
 0002:00007dd8       ??_C@_1BK@OPAPOCAL@?$AAa?$AAt?$AAl?$AAT?$AAr?$AAa?$AAc?$AAe?$AAS?$AAy?$AAn?$AAc@ 1008edd8     atls:stdafx.obj
 0002:00007df4       ??_C@_1BM@FHAEDBFK@?$AAa?$AAt?$AAl?$AAT?$AAr?$AAa?$AAc?$AAe?$AAI?$AAS?$AAA?$AAP?$AAI@ 1008edf4     atls:stdafx.obj
 0002:00007e18       ?nothrow@std@@3Unothrow_t@1@B 1008ee18     LIBCMTD:std_nothrow.obj
 0002:00007e1c       __pRawDllMain              1008ee1c     LIBCMTD:dll_dllmain.obj
 0002:00007e1c       __pDefaultRawDllMain       1008ee1c     LIBCMTD:dll_dllmain.obj
 0002:00007ec0       ??_C@_0NN@JMPELKLB@The?5value?5of?5ESP?5was?5not?5proper@ 1008eec0     LIBCMTD:error.obj
 0002:00007fa0       ??_C@_0BBN@ELNNILBE@A?5cast?5to?5a?5smaller?5data?5type?5h@ 1008efa0     LIBCMTD:error.obj
 0002:000080c0       ??_C@_0BN@BPOGFMJL@Stack?5memory?5was?5corrupted?$AN?6@ 1008f0c0     LIBCMTD:error.obj
 0002:000080e0       ??_C@_0DG@DAJCDLPN@A?5local?5variable?5was?5used?5befor@ 1008f0e0     LIBCMTD:error.obj
 0002:00008118       ??_C@_0CM@JMIDGKLA@Stack?5memory?5around?5_alloca?5was@ 1008f118     LIBCMTD:error.obj
 0002:00008144       ??_C@_0BO@CHIONIOI@Unknown?5Runtime?5Check?5Error?$AN?6@ 1008f144     LIBCMTD:error.obj
 0002:00008168       ??_C@_1GM@CNOOJIHC@?$AAR?$AAu?$AAn?$AAt?$AAi?$AAm?$AAe?$AA?5?$AAC?$AAh?$AAe?$AAc?$AAk?$AA?5?$AAE@ 1008f168     LIBCMTD:error.obj
 0002:000081d8       ??_C@_1EA@NFKNIFJP@?$AAR?$AAu?$AAn?$AA?9?$AAT?$AAi?$AAm?$AAe?$AA?5?$AAC?$AAh?$AAe?$AAc?$AAk?$AA?5@ 1008f1d8     LIBCMTD:error.obj
 0002:00008218       ??_C@_0BB@PFFGGCJP@Unknown?5Filename@ 1008f218     LIBCMTD:error.obj
 0002:0000822c       ??_C@_0BE@GNBOBNCK@Unknown?5Module?5Name@ 1008f22c     LIBCMTD:error.obj
 0002:00008240       ??_C@_0CA@IODNCDPG@Run?9Time?5Check?5Failure?5?$CD?$CFd?5?9?5?$CFs@ 1008f240     LIBCMTD:error.obj
 0002:00008260       ??_C@_0CG@IAFNJNEE@Stack?5corrupted?5near?5unknown?5va@ 1008f260     LIBCMTD:error.obj
 0002:00008288       ??_C@_05MKKEDADM@?$CF?42X?5@ 1008f288     LIBCMTD:error.obj
 0002:00008290       ??_C@_0EJ@LJKNEOLN@Stack?5area?5around?5_alloca?5memor@ 1008f290     LIBCMTD:error.obj
 0002:000082dc       ??_C@_01EEMJAFIK@?6@       1008f2dc     LIBCMTD:error.obj
 0002:000082e0       ??_C@_02LLMPMKNF@?$DO?5@   1008f2e0     LIBCMTD:error.obj
 0002:000082e4       ??_C@_08OMAHNMHJ@?6Data?3?5?$DM@ 1008f2e4     LIBCMTD:error.obj
 0002:000082f0       ??_C@_0CK@DKGBICFE@?6Allocation?5number?5within?5this?5@ 1008f2f0     LIBCMTD:error.obj
 0002:0000831c       ??_C@_07DFDJCKFN@?6Size?3?5@ 1008f31c     LIBCMTD:error.obj
 0002:00008324       ??_C@_0N@MHFFIMFG@?6Address?3?50x@ 1008f324     LIBCMTD:error.obj
 0002:00008338       ??_C@_0EI@CLEPFNGI@Stack?5area?5around?5_alloca?5memor@ 1008f338     LIBCMTD:error.obj
 0002:00008380       ??_C@_0BK@ODNDAGKB@?$CFs?$CFs?$CFp?$CFs?$CFzd?$CFs?$CFd?$CFs?$CFs?$CFs?$CFs?$CFs@ 1008f380     LIBCMTD:error.obj
 0002:0000839c       ??_C@_0DE@OHJBPMBP@A?5variable?5is?5being?5used?5withou@ 1008f39c     LIBCMTD:error.obj
 0002:000083e4       ??_C@_0BJ@HEGAHDFO@Stack?5pointer?5corruption@ 1008f3e4     LIBCMTD:userapi.obj
 0002:00008400       ??_C@_0CK@FEGOIOPB@Cast?5to?5smaller?5type?5causing?5lo@ 1008f400     LIBCMTD:userapi.obj
 0002:0000842c       ??_C@_0BI@CIGMDCBH@Stack?5memory?5corruption@ 1008f42c     LIBCMTD:userapi.obj
 0002:00008444       ??_C@_0CK@CNLNOEPB@Local?5variable?5used?5before?5init@ 1008f444     LIBCMTD:userapi.obj
 0002:00008470       ??_C@_0BP@OGBCLIBO@Stack?5around?5_alloca?5corrupted@ 1008f470     LIBCMTD:userapi.obj
 0002:000084d8       ??_C@_1EI@MLPKHBGE@?$AAa?$AAp?$AAi?$AA?9?$AAm?$AAs?$AA?9?$AAw?$AAi?$AAn?$AA?9?$AAc?$AAo?$AAr?$AAe@ 1008f4d8     LIBCMTD:pdblkup.obj
 0002:00008520       ??_C@_1BK@JHLNAEJL@?$AAa?$AAd?$AAv?$AAa?$AAp?$AAi?$AA3?$AA2?$AA?4?$AAd?$AAl?$AAl@ 1008f520     LIBCMTD:pdblkup.obj
 0002:0000853c       ??_C@_0O@COHOBMLB@RegOpenKeyExW@ 1008f53c     LIBCMTD:pdblkup.obj
 0002:0000854c       ??_C@_0BB@GLNAEDBD@RegQueryValueExW@ 1008f54c     LIBCMTD:pdblkup.obj
 0002:00008560       ??_C@_0M@HLOHPNFA@RegCloseKey@ 1008f560     LIBCMTD:pdblkup.obj
 0002:00008570       ??_C@_1HE@EBEAGLFB@?$AAS?$AAO?$AAF?$AAT?$AAW?$AAA?$AAR?$AAE?$AA?2?$AAW?$AAo?$AAw?$AA6?$AA4?$AA3@ 1008f570     LIBCMTD:pdblkup.obj
 0002:000085e4       ??_C@_1BG@EABPBLLF@?$AAP?$AAr?$AAo?$AAd?$AAu?$AAc?$AAt?$AAD?$AAi?$AAr@ 1008f5e4     LIBCMTD:pdblkup.obj
 0002:00008618       ??_C@_1BC@JINFINNJ@?$AAM?$AAS?$AAP?$AAD?$AAB?$AA1?$AA4?$AA0@ 1008f618     LIBCMTD:pdblkup.obj
 0002:0000862c       ??_C@_0BB@KCIACLNC@PDBOpenValidate5@ 1008f62c     LIBCMTD:pdblkup.obj
 0002:00008640       ??_C@_01KDCPPGHE@r@        1008f640     LIBCMTD:pdblkup.obj
 0002:00008648       ??_7exception@std@@6B@     1008f648     LIBCMTD:throw_bad_alloc.obj
 0002:00008650       ??_C@_0BC@EOODALEL@Unknown?5exception@ 1008f650     LIBCMTD:throw_bad_alloc.obj
 0002:00008668       ??_7bad_alloc@std@@6B@     1008f668     LIBCMTD:throw_bad_alloc.obj
 0002:00008670       ??_C@_0P@GHFPNOJB@bad?5allocation@ 1008f670     LIBCMTD:throw_bad_alloc.obj
 0002:00008684       ??_7bad_array_new_length@std@@6B@ 1008f684     LIBCMTD:throw_bad_alloc.obj
 0002:0000868c       ??_C@_0BF@KINCDENJ@bad?5array?5new?5length@ 1008f68c     LIBCMTD:throw_bad_alloc.obj
 0002:000086a8       ??_7type_info@@6B@         1008f6a8     LIBCMTD:std_type_info_static.obj
 0002:000086ac       __pDestructExceptionObject 1008f6ac     libvcruntimed:ehhelpers.obj
 0002:000086b0       ??_C@_0EG@IMDPKFOE@D?3?2agent?2_work?24?2s?2src?2vctools?2@ 1008f6b0     libvcruntimed:std_type_info.obj
 0002:000086f8       ??_C@_1FK@OACNEHHA@?$AAt?$AAo?$AA?9?$AA?$DO?$AA_?$AAW?$AAh?$AAa?$AAt?$AA?5?$AA?$DN?$AA?$DN?$AA?5?$AAn?$AAu@ 1008f6f8     libvcruntimed:std_exception.obj
 0002:00008758       ??_C@_1IM@PHHIDCAH@?$AAD?$AA?3?$AA?2?$AAa?$AAg?$AAe?$AAn?$AAt?$AA?2?$AA_?$AAw?$AAo?$AAr?$AAk?$AA?2@ 1008f758     libvcruntimed:std_exception.obj
 0002:000087e8       ??_C@_0EO@OCODBNAN@D?3?2agent?2_work?24?2s?2src?2vctools?2@ 1008f7e8     libvcruntimed:per_thread_data.obj
 0002:0000883c       ??_7bad_exception@std@@6B@ 1008f83c     libvcruntimed:frame.obj
 0002:00008844       ??_C@_0O@DPKOEFFH@bad?5exception@ 1008f844     libvcruntimed:frame.obj
 0002:00008bd8       ??_C@_08EHJDFFNH@__based?$CI@ 1008fbd8     libvcruntimed:undname.obj
 0002:00008be4       ??_C@_07KOLFKCDI@__cdecl@  1008fbe4     libvcruntimed:undname.obj
 0002:00008bec       ??_C@_08GHMPAG@__pascal@   1008fbec     libvcruntimed:undname.obj
 0002:00008bf8       ??_C@_09IFJBGAPI@__stdcall@ 1008fbf8     libvcruntimed:undname.obj
 0002:00008c04       ??_C@_0L@NPHFGOKO@__thiscall@ 1008fc04     libvcruntimed:undname.obj
 0002:00008c10       ??_C@_0L@JMKHOMEK@__fastcall@ 1008fc10     libvcruntimed:undname.obj
 0002:00008c1c       ??_C@_0N@BCKKPABJ@__vectorcall@ 1008fc1c     libvcruntimed:undname.obj
 0002:00008c2c       ??_C@_09HIJEGCPM@__clrcall@ 1008fc2c     libvcruntimed:undname.obj
 0002:00008c38       ??_C@_06GHPCKEAG@__eabi@   1008fc38     libvcruntimed:undname.obj
 0002:00008c40       ??_C@_09IOPIDJLG@__swift_1@ 1008fc40     libvcruntimed:undname.obj
 0002:00008c4c       ??_C@_09KFNFGKHF@__swift_2@ 1008fc4c     libvcruntimed:undname.obj
 0002:00008c58       ??_C@_07JOMMBBKO@__ptr64@  1008fc58     libvcruntimed:undname.obj
 0002:00008c60       ??_C@_0L@PILCLIHE@__restrict@ 1008fc60     libvcruntimed:undname.obj
 0002:00008c6c       ??_C@_0M@GFIIJFMG@__unaligned@ 1008fc6c     libvcruntimed:undname.obj
 0002:00008c78       ??_C@_09DHDLOLLB@restrict?$CI@ 1008fc78     libvcruntimed:undname.obj
 0002:00008c82       ??_C@_00CNPNBAHC@@         1008fc82     libvcruntimed:undname.obj
 0002:00008c84       ??_C@_04NIHEBCM@?5new@     1008fc84     libvcruntimed:undname.obj
 0002:00008c8c       ??_C@_07FPCDHGMM@?5delete@ 1008fc8c     libvcruntimed:undname.obj
 0002:00008c94       ??_C@_01NEMOKFLO@?$DN@     1008fc94     libvcruntimed:undname.obj
 0002:00008c98       ??_C@_02GPIOPFAK@?$DO?$DO@ 1008fc98     libvcruntimed:undname.obj
 0002:00008c9c       ??_C@_02FODMEDOG@?$DM?$DM@ 1008fc9c     libvcruntimed:undname.obj
 0002:00008ca0       ??_C@_01DCLJPIOD@?$CB@     1008fca0     libvcruntimed:undname.obj
 0002:00008ca4       ??_C@_02EGOFBIJA@?$DN?$DN@ 1008fca4     libvcruntimed:undname.obj
 0002:00008ca8       ??_C@_02FDNJECIE@?$CB?$DN@ 1008fca8     libvcruntimed:undname.obj
 0002:00008cac       ??_C@_02GPECMEKF@?$FL?$FN@ 1008fcac     libvcruntimed:undname.obj
 0002:00008cb0       ??_C@_08LHJFAFGD@operator@ 1008fcb0     libvcruntimed:undname.obj
 0002:00008cbc       ??_C@_02HBOOOICD@?9?$DO@   1008fcbc     libvcruntimed:undname.obj
 0002:00008cc0       ??_C@_01NBENCBCI@?$CK@     1008fcc0     libvcruntimed:undname.obj
 0002:00008cc4       ??_C@_02ECNGHCIF@?$CL?$CL@ 1008fcc4     libvcruntimed:undname.obj
 0002:00008cc8       ??_C@_02BAABKJLB@?9?9@     1008fcc8     libvcruntimed:undname.obj
 0002:00008ccc       ??_C@_01JOAMLHOP@?9@       1008fccc     libvcruntimed:undname.obj
 0002:00008cd0       ??_C@_01MIFGBAGJ@?$CL@     1008fcd0     libvcruntimed:undname.obj
 0002:00008cd4       ??_C@_01HNPIGOCE@?$CG@     1008fcd4     libvcruntimed:undname.obj
 0002:00008cd8       ??_C@_03MNHNFDLC@?9?$DO?$CK@ 1008fcd8     libvcruntimed:undname.obj
 0002:00008cdc       ??_C@_01KMDKNFGN@?1@       1008fcdc     libvcruntimed:undname.obj
 0002:00008ce0       ??_C@_01FGNFDNOH@?$CF@     1008fce0     libvcruntimed:undname.obj
 0002:00008ce4       ??_C@_01MNNFJEPP@?$DM@     1008fce4     libvcruntimed:undname.obj
 0002:00008ce8       ??_C@_02EHCHHCKH@?$DM?$DN@ 1008fce8     libvcruntimed:undname.obj
